ARM GAS  C:\Users\DNIEL~1\AppData\Local\Temp\ccrXyehP.s 			page 1


   1              		.syntax unified
   2              		.cpu cortex-m4
   3              		.fpu softvfp
   4              		.eabi_attribute 20, 1
   5              		.eabi_attribute 21, 1
   6              		.eabi_attribute 23, 3
   7              		.eabi_attribute 24, 1
   8              		.eabi_attribute 25, 1
   9              		.eabi_attribute 26, 1
  10              		.eabi_attribute 30, 2
  11              		.eabi_attribute 18, 4
  12              		.thumb
  13              		.file	"can_comm.c"
  20 0000 D5070000 		.text
  20      02006703 
  20      00000201 
  20      FB0E0D00 
  20      01010101 
  21              	.Ltext0:
  22              		.cfi_sections	.debug_frame
  23              		.section	.text.chprintf,"ax",%progbits
  24              		.align	2
  25              		.p2align 4,,15
  26              		.thumb
  27              		.thumb_func
  28              		.type	chprintf, %function
  29              	chprintf:
  30              	.LFB118:
  31              		.file 1 "../../../ChibiOS/os/various/chprintf.h"
  32              		.loc 1 69 0
  33              		.cfi_startproc
  34              		@ args = 4, pretend = 12, frame = 8
  35              		@ frame_needed = 0, uses_anonymous_args = 1
  36              	.LVL0:
  37 0000 0EB4     		push	{r1, r2, r3}
  38              	.LCFI0:
  39              		.cfi_def_cfa_offset 12
  40 0002 00B5     		push	{lr}
  41              	.LCFI1:
  42              		.cfi_def_cfa_offset 16
  43 0004 82B0     		sub	sp, sp, #8
  44              	.LCFI2:
  45              		.cfi_def_cfa_offset 24
  46              		.loc 1 69 0
  47 0006 03AB     		add	r3, sp, #12
  48              		.cfi_offset 14, -16
  49              		.cfi_offset 3, -4
  50              		.cfi_offset 2, -8
  51              		.cfi_offset 1, -12
  52 0008 53F8041B 		ldr	r1, [r3], #4
  53              		.loc 1 73 0
ARM GAS  C:\Users\DNIEL~1\AppData\Local\Temp\ccrXyehP.s 			page 2


  54 000c 1A46     		mov	r2, r3
  55              		.loc 1 72 0
  56 000e 0193     		str	r3, [sp, #4]
  57              		.loc 1 73 0
  58 0010 FFF7FEFF 		bl	chvprintf
  59              	.LVL1:
  60              		.loc 1 75 0
  61 0014 02B0     		add	sp, sp, #8
  62 0016 5DF804EB 		pop	{lr}
  63 001a 03B0     		add	sp, sp, #12
  64 001c 7047     		bx	lr
  65              		.cfi_endproc
  66              	.LFE118:
  67              		.size	chprintf, .-chprintf
  68 001e 00BF     		.section	.text.can_tx,"ax",%progbits
  69              		.align	2
  70              		.p2align 4,,15
  71              		.thumb
  72              		.thumb_func
  73              		.type	can_tx, %function
  74              	can_tx:
  75              	.LFB120:
  76              		.file 2 "src/can_comm.c"
  77              		.loc 2 301 0
  78              		.cfi_startproc
  79              		@ args = 0, pretend = 0, frame = 0
  80              		@ frame_needed = 0, uses_anonymous_args = 0
  81              	.LVL2:
  82 0000 2DE9F047 		push	{r4, r5, r6, r7, r8, r9, sl, lr}
  83              	.LCFI3:
  84              		.cfi_def_cfa_offset 32
  85              		.loc 2 305 0
  86 0004 DFF82CA1 		ldr	sl, .L15+24
  87              		.cfi_offset 14, -4
  88              		.cfi_offset 10, -8
  89              		.cfi_offset 9, -12
  90              		.cfi_offset 8, -16
  91              		.cfi_offset 7, -20
  92              		.cfi_offset 6, -24
  93              		.cfi_offset 5, -28
  94              		.cfi_offset 4, -32
  95 0008 4449     		ldr	r1, .L15
  96 000a DAF81820 		ldr	r2, [sl, #24]
  97              		.loc 2 307 0
  98 000e 537F     		ldrb	r3, [r2, #29]	@ zero_extendqisi2
  99              		.loc 2 305 0
 100 0010 9161     		str	r1, [r2, #24]
 101              		.loc 2 307 0
 102 0012 13F00408 		ands	r8, r3, #4
 103 0016 7DD1     		bne	.L3
 104 0018 414D     		ldr	r5, .L15+4
 105              		.loc 2 310 0
 106 001a 424E     		ldr	r6, .L15+8
 107              	.LBB2:
 108              		.loc 2 348 0
 109 001c 424C     		ldr	r4, .L15+12
 110              		.loc 2 355 0
ARM GAS  C:\Users\DNIEL~1\AppData\Local\Temp\ccrXyehP.s 			page 3


 111 001e 434F     		ldr	r7, .L15+16
 112              	.LVL3:
 113              	.L9:
 114              	.LBE2:
 115              		.loc 2 309 0
 116 0020 C5F80080 		str	r8, [r5, #0]
 117 0024 C146     		mov	r9, r8
 118 0026 2EE0     		b	.L8
 119              	.L14:
 120              		.loc 2 311 0
 121 0028 B9F1020F 		cmp	r9, #2
 122 002c 50D0     		beq	.L7
 123 002e B9F1000F 		cmp	r9, #0
 124 0032 19D1     		bne	.L4
 125              	.LBB3:
 126              		.loc 2 323 0
 127 0034 6168     		ldr	r1, [r4, #4]
 128 0036 41F2010C 		movw	ip, #4097
 129 003a 6CF31C01 		bfi	r1, ip, #0, #29
 130 003e 6160     		str	r1, [r4, #4]
 131              		.loc 2 328 0
 132 0040 FFF7FEFF 		bl	speedGetSpeed
 133 0044 2081     		strh	r0, [r4, #8]	@ movhi
 134              		.loc 2 329 0
 135 0046 FFF7FEFF 		bl	cruiseGetPWM
 136 004a 6081     		strh	r0, [r4, #10]	@ movhi
 137              		.loc 2 330 0
 138 004c FFF7FEFF 		bl	cruiseGet
 139 0050 2073     		strb	r0, [r4, #12]
 140              		.loc 2 331 0
 141 0052 FFF7FEFF 		bl	cruiseStatus
 142              		.loc 2 333 0
 143 0056 0123     		movs	r3, #1
 144              		.loc 2 331 0
 145 0058 6073     		strb	r0, [r4, #13]
 146              		.loc 2 333 0
 147 005a 3B70     		strb	r3, [r7, #0]
 148              		.loc 2 334 0
 149 005c 4946     		mov	r1, r9
 150 005e 324A     		ldr	r2, .L15+12
 151 0060 3348     		ldr	r0, .L15+20
 152 0062 6423     		movs	r3, #100
 153 0064 FFF7FEFF 		bl	canTransmit
 154              	.L4:
 155              	.LBE3:
 156              		.loc 2 382 0
 157 0068 4FF4807C 		mov	ip, #256	@ movhi
 158              		.loc 2 383 0
 159 006c 0520     		movs	r0, #5
 160              		.loc 2 382 0
 161 006e A6F818C0 		strh	ip, [r6, #24]	@ movhi
 162              		.loc 2 383 0
 163 0072 FFF7FEFF 		bl	chThdSleep
 164              		.loc 2 309 0
 165 0076 2A68     		ldr	r2, [r5, #0]
 166 0078 02F10109 		add	r9, r2, #1
 167 007c B9F1030F 		cmp	r9, #3
ARM GAS  C:\Users\DNIEL~1\AppData\Local\Temp\ccrXyehP.s 			page 4


 168 0080 C5F80090 		str	r9, [r5, #0]
 169 0084 3DDC     		bgt	.L13
 170              	.L8:
 171              		.loc 2 310 0
 172 0086 4FF48070 		mov	r0, #256	@ movhi
 173              		.loc 2 311 0
 174 008a B9F1010F 		cmp	r9, #1
 175              		.loc 2 310 0
 176 008e 7083     		strh	r0, [r6, #26]	@ movhi
 177              		.loc 2 311 0
 178 0090 CAD1     		bne	.L14
 179              	.LBB4:
 180              		.loc 2 348 0
 181 0092 6368     		ldr	r3, [r4, #4]
 182 0094 41F2020E 		movw	lr, #4098
 183 0098 6EF31C03 		bfi	r3, lr, #0, #29
 184              		.loc 2 350 0
 185 009c 4846     		mov	r0, r9
 186              		.loc 2 348 0
 187 009e 6360     		str	r3, [r4, #4]
 188              		.loc 2 350 0
 189 00a0 FFF7FEFF 		bl	measGetValue_2
 190 00a4 2081     		strh	r0, [r4, #8]	@ movhi
 191              		.loc 2 351 0
 192 00a6 0220     		movs	r0, #2
 193 00a8 FFF7FEFF 		bl	measGetValue_2
 194 00ac 6081     		strh	r0, [r4, #10]	@ movhi
 195              		.loc 2 352 0
 196 00ae 4846     		mov	r0, r9
 197 00b0 FFF7FEFF 		bl	measGetValue
 198 00b4 A081     		strh	r0, [r4, #12]	@ movhi
 199              		.loc 2 353 0
 200 00b6 0220     		movs	r0, #2
 201 00b8 FFF7FEFF 		bl	measGetValue
 202              		.loc 2 356 0
 203 00bc 0021     		movs	r1, #0
 204              		.loc 2 353 0
 205 00be E081     		strh	r0, [r4, #14]	@ movhi
 206              		.loc 2 356 0
 207 00c0 194A     		ldr	r2, .L15+12
 208              		.loc 2 355 0
 209 00c2 87F80090 		strb	r9, [r7, #0]
 210              		.loc 2 356 0
 211 00c6 6423     		movs	r3, #100
 212 00c8 1948     		ldr	r0, .L15+20
 213 00ca FFF7FEFF 		bl	canTransmit
 214              		.loc 2 357 0
 215 00ce CBE7     		b	.L4
 216              	.L7:
 217              		.loc 2 368 0
 218 00d0 6168     		ldr	r1, [r4, #4]
 219              		.loc 2 370 0
 220 00d2 84F80880 		strb	r8, [r4, #8]
 221              		.loc 2 368 0
 222 00d6 41F20309 		movw	r9, #4099
 223 00da 69F31C01 		bfi	r1, r9, #0, #29
 224              		.loc 2 371 0
ARM GAS  C:\Users\DNIEL~1\AppData\Local\Temp\ccrXyehP.s 			page 5


 225 00de 0020     		movs	r0, #0
 226              		.loc 2 368 0
 227 00e0 6160     		str	r1, [r4, #4]
 228              		.loc 2 371 0
 229 00e2 FFF7FEFF 		bl	measGetValue_2
 230 00e6 6081     		strh	r0, [r4, #10]	@ movhi
 231              		.loc 2 372 0
 232 00e8 0020     		movs	r0, #0
 233 00ea FFF7FEFF 		bl	measGetValue
 234              		.loc 2 374 0
 235 00ee 0123     		movs	r3, #1
 236              		.loc 2 372 0
 237 00f0 A081     		strh	r0, [r4, #12]	@ movhi
 238              		.loc 2 374 0
 239 00f2 3B70     		strb	r3, [r7, #0]
 240              		.loc 2 375 0
 241 00f4 0021     		movs	r1, #0
 242 00f6 0C4A     		ldr	r2, .L15+12
 243 00f8 0D48     		ldr	r0, .L15+20
 244 00fa 6423     		movs	r3, #100
 245 00fc FFF7FEFF 		bl	canTransmit
 246              		.loc 2 376 0
 247 0100 B2E7     		b	.L4
 248              	.L13:
 249              	.LBE4:
 250              		.loc 2 385 0
 251 0102 C820     		movs	r0, #200
 252 0104 FFF7FEFF 		bl	chThdSleep
 253              		.loc 2 307 0
 254 0108 DAF81830 		ldr	r3, [sl, #24]
 255 010c 587F     		ldrb	r0, [r3, #29]	@ zero_extendqisi2
 256 010e 10F0040F 		tst	r0, #4
 257 0112 85D0     		beq	.L9
 258              	.L3:
 259              		.loc 2 388 0
 260 0114 0020     		movs	r0, #0
 261 0116 BDE8F087 		pop	{r4, r5, r6, r7, r8, r9, sl, pc}
 262              	.L16:
 263 011a 00BF     		.align	2
 264              	.L15:
 265 011c 00000000 		.word	.LC0
 266 0120 00000000 		.word	.LANCHOR0
 267 0124 000C0240 		.word	1073875968
 268 0128 00000000 		.word	.LANCHOR1
 269 012c 00000000 		.word	.LANCHOR2
 270 0130 00000000 		.word	CAND1
 271 0134 00000000 		.word	rlist
 272              		.cfi_endproc
 273              	.LFE120:
 274              		.size	can_tx, .-can_tx
 275 0138 AFF30080 		.section	.text.can_rx,"ax",%progbits
 275      AFF30080 
 276              		.align	2
 277              		.p2align 4,,15
 278              		.thumb
 279              		.thumb_func
 280              		.type	can_rx, %function
ARM GAS  C:\Users\DNIEL~1\AppData\Local\Temp\ccrXyehP.s 			page 6


 281              	can_rx:
 282              	.LFB119:
 283              		.loc 2 127 0
 284              		.cfi_startproc
 285              		@ args = 0, pretend = 0, frame = 32
 286              		@ frame_needed = 0, uses_anonymous_args = 0
 287              	.LVL4:
 288 0000 2DE9F04F 		push	{r4, r5, r6, r7, r8, r9, sl, fp, lr}
 289              	.LCFI4:
 290              		.cfi_def_cfa_offset 36
 291              		.loc 2 132 0
 292 0004 AC48     		ldr	r0, .L101
 293              	.LVL5:
 294 0006 AD4A     		ldr	r2, .L101+4
 295 0008 8169     		ldr	r1, [r0, #24]
 296              		.loc 2 127 0
 297 000a AD4B     		ldr	r3, .L101+8
 298              		.loc 2 132 0
 299 000c 8A61     		str	r2, [r1, #24]
 300              		.loc 2 127 0
 301 000e 89B0     		sub	sp, sp, #36
 302              	.LCFI5:
 303              		.cfi_def_cfa_offset 72
 304              		.loc 2 133 0
 305 0010 AC48     		ldr	r0, .L101+12
 306 0012 04A9     		add	r1, sp, #16
 307 0014 0122     		movs	r2, #1
 308              		.loc 2 127 0
 309 0016 03F54855 		add	r5, r3, #12800
 310              		.cfi_offset 14, -4
 311              		.cfi_offset 11, -8
 312              		.cfi_offset 10, -12
 313              		.cfi_offset 9, -16
 314              		.cfi_offset 8, -20
 315              		.cfi_offset 7, -24
 316              		.cfi_offset 6, -28
 317              		.cfi_offset 5, -32
 318              		.cfi_offset 4, -36
 319              		.loc 2 133 0
 320 001a FFF7FEFF 		bl	chEvtRegisterMask
 321              		.loc 2 127 0
 322 001e 2E46     		mov	r6, r5
 323 0020 0C35     		adds	r5, r5, #12
 324              	.L69:
 325              		.loc 2 134 0 discriminator 1
 326 0022 DFF894E2 		ldr	lr, .L101
 327 0026 DEF81830 		ldr	r3, [lr, #24]
 328 002a 93F81DC0 		ldrb	ip, [r3, #29]	@ zero_extendqisi2
 329 002e 1CF0040F 		tst	ip, #4
 330 0032 40F0CA81 		bne	.L85
 331              		.loc 2 135 0
 332 0036 4FF0FF30 		mov	r0, #-1
 333 003a 6421     		movs	r1, #100
 334 003c FFF7FEFF 		bl	chEvtWaitAnyTimeout
 335 0040 0028     		cmp	r0, #0
 336 0042 EED0     		beq	.L69
 337              		.loc 2 137 0 discriminator 1
ARM GAS  C:\Users\DNIEL~1\AppData\Local\Temp\ccrXyehP.s 			page 7


 338 0044 A04C     		ldr	r4, .L101+16
 339              		.loc 2 141 0 discriminator 1
 340 0046 A14F     		ldr	r7, .L101+20
 341 0048 26E0     		b	.L78
 342              	.L91:
 343              		.loc 2 146 0
 344 004a A14B     		ldr	r3, .L101+24
 345              		.loc 2 174 0
 346 004c B8F800E0 		ldrh	lr, [r8, #0]
 347              		.loc 2 146 0
 348 0050 1870     		strb	r0, [r3, #0]
 349              		.loc 2 147 0
 350 0052 6246     		mov	r2, ip
 351 0054 60F31C02 		bfi	r2, r0, #0, #29
 352              		.loc 2 173 0
 353 0058 9E48     		ldr	r0, .L101+28
 354              		.loc 2 147 0
 355 005a A260     		str	r2, [r4, #8]
 356              		.loc 2 174 0
 357 005c 8E45     		cmp	lr, r1
 358              		.loc 2 173 0
 359 005e 0170     		strb	r1, [r0, #0]
 360              		.loc 2 174 0
 361 0060 00F09F80 		beq	.L86
 362              		.loc 2 188 0
 363 0064 BEF1020F 		cmp	lr, #2
 364 0068 00F04681 		beq	.L87
 365              		.loc 2 200 0
 366 006c BEF1030F 		cmp	lr, #3
 367 0070 00F09B81 		beq	.L88
 368              		.loc 2 208 0
 369 0074 BEF1040F 		cmp	lr, #4
 370 0078 00F0AF81 		beq	.L89
 371              		.loc 2 218 0
 372 007c BEF1050F 		cmp	lr, #5
 373 0080 00F0E181 		beq	.L90
 374              	.L83:
 375              		.loc 2 244 0
 376 0084 0521     		movs	r1, #5
 377 0086 1970     		strb	r1, [r3, #0]
 378              	.L25:
 379              	.LBB5:
 380              		.loc 2 289 0
 381 0088 0023     		movs	r3, #0
 382              	.LVL6:
 383              	@ 289 "src/can_comm.c" 1
 384 008a 83F31188 		msr     BASEPRI, r3
 385              	@ 0 "" 2
 386              	.LVL7:
 387              		.thumb
 388              	.LBE5:
 389              		.loc 2 290 0
 390 008e 9248     		ldr	r0, .L101+32
 391 0090 4FF0010E 		mov	lr, #1	@ movhi
 392 0094 A0F818E0 		strh	lr, [r0, #24]	@ movhi
 393              	.L78:
 394              		.loc 2 137 0 discriminator 1
ARM GAS  C:\Users\DNIEL~1\AppData\Local\Temp\ccrXyehP.s 			page 8


 395 0098 0021     		movs	r1, #0
 396 009a 9048     		ldr	r0, .L101+36
 397 009c 8A4A     		ldr	r2, .L101+16
 398 009e 0B46     		mov	r3, r1
 399              	.LVL8:
 400 00a0 FFF7FEFF 		bl	canReceive
 401 00a4 0028     		cmp	r0, #0
 402 00a6 BCD1     		bne	.L69
 403              		.loc 2 138 0
 404 00a8 8B4B     		ldr	r3, .L101+32
 405 00aa 0121     		movs	r1, #1
 406 00ac 5983     		strh	r1, [r3, #26]	@ movhi
 407              	.LBB6:
 408              		.loc 2 139 0
 409 00ae 2023     		movs	r3, #32
 410              	.LVL9:
 411              	@ 139 "src/can_comm.c" 1
 412 00b0 83F31188 		msr     BASEPRI, r3
 413              	@ 0 "" 2
 414              	.LVL10:
 415              		.thumb
 416              	.LBE6:
 417              		.loc 2 141 0
 418 00b4 D4F808C0 		ldr	ip, [r4, #8]
 419              		.loc 2 142 0
 420 00b8 DFF83482 		ldr	r8, .L101+56
 421              		.loc 2 141 0
 422 00bc CCF31C0E 		ubfx	lr, ip, #0, #29
 423 00c0 CEF30F23 		ubfx	r3, lr, #8, #16
 424              	.LVL11:
 425              		.loc 2 142 0
 426 00c4 5FFA8EF2 		uxtb	r2, lr
 427              		.loc 2 143 0
 428 00c8 DFF828E2 		ldr	lr, .L101+60
 429              		.loc 2 141 0
 430 00cc 3B80     		strh	r3, [r7, #0]	@ movhi
 431              		.loc 2 145 0
 432 00ce 0F2B     		cmp	r3, #15
 433              		.loc 2 142 0
 434 00d0 A8F80020 		strh	r2, [r8, #0]	@ movhi
 435              		.loc 2 143 0
 436 00d4 8EF80010 		strb	r1, [lr, #0]
 437              		.loc 2 145 0
 438 00d8 B7D9     		bls	.L91
 439              		.loc 2 149 0
 440 00da A3F11002 		sub	r2, r3, #16
 441 00de 1FFA82FE 		uxth	lr, r2
 442 00e2 BEF10F0F 		cmp	lr, #15
 443 00e6 0AD8     		bhi	.L24
 444              		.loc 2 151 0
 445 00e8 6146     		mov	r1, ip
 446 00ea 60F31C01 		bfi	r1, r0, #0, #29
 447 00ee A160     		str	r1, [r4, #8]
 448              		.loc 2 231 0
 449 00f0 0222     		movs	r2, #2
 450              	.L84:
 451              		.loc 2 248 0
ARM GAS  C:\Users\DNIEL~1\AppData\Local\Temp\ccrXyehP.s 			page 9


 452 00f2 784B     		ldr	r3, .L101+28
 453              		.loc 2 249 0
 454 00f4 7649     		ldr	r1, .L101+24
 455              		.loc 2 248 0
 456 00f6 1A70     		strb	r2, [r3, #0]
 457              		.loc 2 249 0
 458 00f8 0520     		movs	r0, #5
 459 00fa 0870     		strb	r0, [r1, #0]
 460              		.loc 2 250 0
 461 00fc C4E7     		b	.L25
 462              	.L24:
 463              		.loc 2 153 0
 464 00fe A3F12002 		sub	r2, r3, #32
 465 0102 1FFA82FE 		uxth	lr, r2
 466 0106 BEF10F0F 		cmp	lr, #15
 467 010a 1DD8     		bhi	.L26
 468              		.loc 2 155 0
 469 010c 6146     		mov	r1, ip
 470              		.loc 2 237 0
 471 010e B8F800C0 		ldrh	ip, [r8, #0]
 472              		.loc 2 236 0
 473 0112 704B     		ldr	r3, .L101+28
 474              		.loc 2 155 0
 475 0114 60F31C01 		bfi	r1, r0, #0, #29
 476              		.loc 2 236 0
 477 0118 0320     		movs	r0, #3
 478              		.loc 2 237 0
 479 011a BCF1010F 		cmp	ip, #1
 480              		.loc 2 155 0
 481 011e A160     		str	r1, [r4, #8]
 482              		.loc 2 236 0
 483 0120 1870     		strb	r0, [r3, #0]
 484              		.loc 2 237 0
 485 0122 01D0     		beq	.L92
 486              		.loc 2 244 0
 487 0124 6A4B     		ldr	r3, .L101+24
 488 0126 ADE7     		b	.L83
 489              	.L92:
 490              		.loc 2 238 0
 491 0128 3A88     		ldrh	r2, [r7, #0]
 492 012a 6D4B     		ldr	r3, .L101+40
 493              		.loc 2 239 0
 494 012c A089     		ldrh	r0, [r4, #12]
 495              		.loc 2 240 0
 496 012e E189     		ldrh	r1, [r4, #14]
 497              		.loc 2 242 0
 498 0130 B4F812C0 		ldrh	ip, [r4, #18]
 499              		.loc 2 239 0
 500 0134 9880     		strh	r0, [r3, #4]	@ movhi
 501              		.loc 2 238 0
 502 0136 1F3A     		subs	r2, r2, #31
 503 0138 1A60     		str	r2, [r3, #0]
 504              		.loc 2 241 0
 505 013a 228A     		ldrh	r2, [r4, #16]
 506              		.loc 2 240 0
 507 013c D980     		strh	r1, [r3, #6]	@ movhi
 508              		.loc 2 241 0
ARM GAS  C:\Users\DNIEL~1\AppData\Local\Temp\ccrXyehP.s 			page 10


 509 013e 1A81     		strh	r2, [r3, #8]	@ movhi
 510              		.loc 2 242 0
 511 0140 A3F80AC0 		strh	ip, [r3, #10]	@ movhi
 512              		.loc 2 244 0
 513 0144 624B     		ldr	r3, .L101+24
 514 0146 9DE7     		b	.L83
 515              	.L26:
 516              		.loc 2 157 0
 517 0148 A3F13002 		sub	r2, r3, #48
 518 014c 1FFA82FE 		uxth	lr, r2
 519 0150 BEF10F0F 		cmp	lr, #15
 520 0154 05D8     		bhi	.L29
 521              		.loc 2 159 0
 522 0156 6346     		mov	r3, ip
 523 0158 60F31C03 		bfi	r3, r0, #0, #29
 524 015c A360     		str	r3, [r4, #8]
 525              		.loc 2 248 0
 526 015e 0422     		movs	r2, #4
 527 0160 C7E7     		b	.L84
 528              	.L29:
 529              		.loc 2 161 0
 530 0162 403B     		subs	r3, r3, #64
 531 0164 1FFA83FE 		uxth	lr, r3
 532 0168 BEF11F0F 		cmp	lr, #31
 533 016c 00F21581 		bhi	.L30
 534              		.loc 2 163 0
 535 0170 6346     		mov	r3, ip
 536              		.loc 2 162 0
 537 0172 DFF85CA1 		ldr	sl, .L101+24
 538              		.loc 2 254 0
 539 0176 B8F80020 		ldrh	r2, [r8, #0]
 540              		.loc 2 163 0
 541 017a 60F31C03 		bfi	r3, r0, #0, #29
 542              		.loc 2 162 0
 543 017e 0420     		movs	r0, #4
 544 0180 8AF80000 		strb	r0, [sl, #0]
 545              		.loc 2 163 0
 546 0184 A360     		str	r3, [r4, #8]
 547              		.loc 2 253 0
 548 0186 534B     		ldr	r3, .L101+28
 549 0188 0520     		movs	r0, #5
 550              		.loc 2 254 0
 551 018a 012A     		cmp	r2, #1
 552              		.loc 2 253 0
 553 018c 1870     		strb	r0, [r3, #0]
 554              		.loc 2 254 0
 555 018e 48D0     		beq	.L93
 556              		.loc 2 268 0
 557 0190 022A     		cmp	r2, #2
 558 0192 00F0E080 		beq	.L94
 559              	.L41:
 560              		.loc 2 280 0
 561 0196 DFF838A1 		ldr	sl, .L101+24
 562 019a 0522     		movs	r2, #5
 563 019c 8AF80020 		strb	r2, [sl, #0]
 564              		.loc 2 281 0
 565 01a0 72E7     		b	.L25
ARM GAS  C:\Users\DNIEL~1\AppData\Local\Temp\ccrXyehP.s 			page 11


 566              	.L86:
 567              		.loc 2 179 0
 568 01a2 94F80DA0 		ldrb	sl, [r4, #13]	@ zero_extendqisi2
 569              		.loc 2 181 0
 570 01a6 94F80F90 		ldrb	r9, [r4, #15]	@ zero_extendqisi2
 571              		.loc 2 183 0
 572 01aa 94F81180 		ldrb	r8, [r4, #17]	@ zero_extendqisi2
 573              		.loc 2 178 0
 574 01ae 94F80EC0 		ldrb	ip, [r4, #14]	@ zero_extendqisi2
 575              		.loc 2 180 0
 576 01b2 94F810E0 		ldrb	lr, [r4, #16]	@ zero_extendqisi2
 577              		.loc 2 182 0
 578 01b6 A17C     		ldrb	r1, [r4, #18]	@ zero_extendqisi2
 579              		.loc 2 183 0
 580 01b8 4A4A     		ldr	r2, .L101+44
 581              		.loc 2 167 0
 582 01ba 207B     		ldrb	r0, [r4, #12]	@ zero_extendqisi2
 583              		.loc 2 179 0
 584 01bc 4FEA0A2A 		lsl	sl, sl, #8
 585              		.loc 2 181 0
 586 01c0 4FEA0929 		lsl	r9, r9, #8
 587              		.loc 2 183 0
 588 01c4 4FEA0828 		lsl	r8, r8, #8
 589              		.loc 2 179 0
 590 01c8 E244     		add	sl, sl, ip
 591              		.loc 2 181 0
 592 01ca F144     		add	r9, r9, lr
 593              		.loc 2 183 0
 594 01cc 8844     		add	r8, r8, r1
 595              		.loc 2 127 0
 596 01ce 02F5CC7C 		add	ip, r2, #408
 597 01d2 AE46     		mov	lr, r5
 598 01d4 09E0     		b	.L34
 599              	.L33:
 600              		.loc 2 183 0
 601 01d6 02F10C01 		add	r1, r2, #12
 602              		.loc 2 176 0
 603 01da 51F8085C 		ldr	r5, [r1, #-8]
 604 01de 8542     		cmp	r5, r0
 605 01e0 13D0     		beq	.L95
 606              	.LVL12:
 607              	.L50:
 608              		.loc 2 183 0
 609 01e2 01F10C02 		add	r2, r1, #12
 610              		.loc 2 175 0
 611 01e6 6245     		cmp	r2, ip
 612 01e8 19D0     		beq	.L96
 613              	.L34:
 614              		.loc 2 176 0
 615 01ea 52F8085C 		ldr	r5, [r2, #-8]
 616 01ee 8542     		cmp	r5, r0
 617 01f0 F1D1     		bne	.L33
 618              		.loc 2 183 0
 619 01f2 02F10C01 		add	r1, r2, #12
 620              		.loc 2 179 0
 621 01f6 22F804AC 		strh	sl, [r2, #-4]	@ movhi
 622              		.loc 2 176 0
ARM GAS  C:\Users\DNIEL~1\AppData\Local\Temp\ccrXyehP.s 			page 12


 623 01fa 51F8085C 		ldr	r5, [r1, #-8]
 624              		.loc 2 181 0
 625 01fe A2F80090 		strh	r9, [r2, #0]	@ movhi
 626              		.loc 2 176 0
 627 0202 8542     		cmp	r5, r0
 628              		.loc 2 183 0
 629 0204 22F8028C 		strh	r8, [r2, #-2]	@ movhi
 630              		.loc 2 176 0
 631 0208 EBD1     		bne	.L50
 632              	.L95:
 633              		.loc 2 181 0
 634 020a A2F80C90 		strh	r9, [r2, #12]	@ movhi
 635              		.loc 2 183 0
 636 020e 01F10C02 		add	r2, r1, #12
 637              		.loc 2 175 0
 638 0212 6245     		cmp	r2, ip
 639              		.loc 2 179 0
 640 0214 21F804AC 		strh	sl, [r1, #-4]	@ movhi
 641              		.loc 2 183 0
 642 0218 21F8028C 		strh	r8, [r1, #-2]	@ movhi
 643              		.loc 2 175 0
 644 021c E5D1     		bne	.L34
 645              	.L96:
 646 021e 7546     		mov	r5, lr
 647 0220 30E7     		b	.L83
 648              	.L93:
 649              		.loc 2 256 0
 650 0222 314B     		ldr	r3, .L101+48
 651              		.loc 2 245 0
 652 0224 3988     		ldrh	r1, [r7, #0]
 653              		.loc 2 256 0
 654 0226 53F80C0C 		ldr	r0, [r3, #-12]
 655              		.loc 2 258 0
 656 022a 94F80CE0 		ldrb	lr, [r4, #12]	@ zero_extendqisi2
 657              		.loc 2 259 0
 658 022e 94F80DC0 		ldrb	ip, [r4, #13]	@ zero_extendqisi2
 659              		.loc 2 260 0
 660 0232 94F80E80 		ldrb	r8, [r4, #14]	@ zero_extendqisi2
 661              		.loc 2 261 0
 662 0236 94F80F90 		ldrb	r9, [r4, #15]	@ zero_extendqisi2
 663              		.loc 2 262 0
 664 023a B4F810A0 		ldrh	sl, [r4, #16]
 665              		.loc 2 263 0
 666 023e B4F812B0 		ldrh	fp, [r4, #18]
 667              		.loc 2 256 0
 668 0242 8142     		cmp	r1, r0
 669 0244 00F0E580 		beq	.L97
 670              	.L52:
 671              		.loc 2 263 0
 672 0248 284B     		ldr	r3, .L101+52
 673 024a 92B1     		cbz	r2, .L40
 674              		.loc 2 256 0
 675 024c 53F80C2C 		ldr	r2, [r3, #-12]
 676 0250 9142     		cmp	r1, r2
 677 0252 00F0EB80 		beq	.L98
 678              	.L54:
 679              		.loc 2 263 0
ARM GAS  C:\Users\DNIEL~1\AppData\Local\Temp\ccrXyehP.s 			page 13


 680 0256 1433     		adds	r3, r3, #20
 681              		.loc 2 255 0
 682 0258 AB42     		cmp	r3, r5
 683 025a 0AD1     		bne	.L40
 684 025c 9BE7     		b	.L41
 685              	.L39:
 686              		.loc 2 263 0
 687 025e 03F11402 		add	r2, r3, #20
 688              		.loc 2 256 0
 689 0262 52F80C0C 		ldr	r0, [r2, #-12]
 690 0266 8142     		cmp	r1, r0
 691 0268 19D0     		beq	.L99
 692              	.L57:
 693              		.loc 2 263 0
 694 026a 02F11403 		add	r3, r2, #20
 695              		.loc 2 255 0
 696 026e AB42     		cmp	r3, r5
 697 0270 91D0     		beq	.L41
 698              	.L40:
 699              		.loc 2 256 0
 700 0272 53F80C2C 		ldr	r2, [r3, #-12]
 701 0276 9142     		cmp	r1, r2
 702 0278 F1D1     		bne	.L39
 703              		.loc 2 263 0
 704 027a 03F11402 		add	r2, r3, #20
 705              		.loc 2 258 0
 706 027e 03F808EC 		strb	lr, [r3, #-8]
 707              		.loc 2 256 0
 708 0282 52F80C0C 		ldr	r0, [r2, #-12]
 709              		.loc 2 259 0
 710 0286 03F807CC 		strb	ip, [r3, #-7]
 711              		.loc 2 256 0
 712 028a 8142     		cmp	r1, r0
 713              		.loc 2 260 0
 714 028c 03F8068C 		strb	r8, [r3, #-6]
 715              		.loc 2 261 0
 716 0290 03F8059C 		strb	r9, [r3, #-5]
 717              		.loc 2 262 0
 718 0294 C3F800A0 		str	sl, [r3, #0]
 719              		.loc 2 263 0
 720 0298 A3F804B0 		strh	fp, [r3, #4]	@ movhi
 721              		.loc 2 256 0
 722 029c E5D1     		bne	.L57
 723              	.L99:
 724              		.loc 2 258 0
 725 029e 02F808EC 		strb	lr, [r2, #-8]
 726              		.loc 2 259 0
 727 02a2 02F807CC 		strb	ip, [r2, #-7]
 728              		.loc 2 260 0
 729 02a6 02F8068C 		strb	r8, [r2, #-6]
 730              		.loc 2 261 0
 731 02aa 02F8059C 		strb	r9, [r2, #-5]
 732              		.loc 2 262 0
 733 02ae C3F814A0 		str	sl, [r3, #20]
 734              		.loc 2 263 0
 735 02b2 A2F804B0 		strh	fp, [r2, #4]	@ movhi
 736 02b6 D8E7     		b	.L57
ARM GAS  C:\Users\DNIEL~1\AppData\Local\Temp\ccrXyehP.s 			page 14


 737              	.L102:
 738              		.align	2
 739              	.L101:
 740 02b8 00000000 		.word	rlist
 741 02bc 0C000000 		.word	.LC1
 742 02c0 00000000 		.word	.LANCHOR12
 743 02c4 20000000 		.word	CAND1+32
 744 02c8 00000000 		.word	.LANCHOR3
 745 02cc 00000000 		.word	.LANCHOR4
 746 02d0 00000000 		.word	.LANCHOR7
 747 02d4 00000000 		.word	.LANCHOR8
 748 02d8 00000240 		.word	1073872896
 749 02dc 00000000 		.word	CAND1
 750 02e0 00000000 		.word	.LANCHOR11
 751 02e4 08000000 		.word	.LANCHOR9+8
 752 02e8 0C000000 		.word	.LANCHOR12+12
 753 02ec 20000000 		.word	.LANCHOR12+32
 754 02f0 00000000 		.word	.LANCHOR5
 755 02f4 00000000 		.word	.LANCHOR6
 756              	.L87:
 757              		.loc 2 195 0
 758 02f8 94F812B0 		ldrb	fp, [r4, #18]	@ zero_extendqisi2
 759              		.loc 2 192 0
 760 02fc 94F80DA0 		ldrb	sl, [r4, #13]	@ zero_extendqisi2
 761              		.loc 2 197 0
 762 0300 94F813C0 		ldrb	ip, [r4, #19]	@ zero_extendqisi2
 763              		.loc 2 191 0
 764 0304 94F80E80 		ldrb	r8, [r4, #14]	@ zero_extendqisi2
 765              		.loc 2 189 0
 766 0308 5C4A     		ldr	r2, .L103
 767              		.loc 2 195 0
 768 030a CDF804B0 		str	fp, [sp, #4]
 769              		.loc 2 190 0
 770 030e 94F80CE0 		ldrb	lr, [r4, #12]	@ zero_extendqisi2
 771              		.loc 2 196 0
 772 0312 94F81190 		ldrb	r9, [r4, #17]	@ zero_extendqisi2
 773              		.loc 2 197 0
 774 0316 CDF80CC0 		str	ip, [sp, #12]
 775              		.loc 2 192 0
 776 031a 4FEA0A2A 		lsl	sl, sl, #8
 777 031e D044     		add	r8, sl, r8
 778              		.loc 2 193 0
 779 0320 E17B     		ldrb	r1, [r4, #15]	@ zero_extendqisi2
 780              		.loc 2 196 0
 781 0322 DDF804A0 		ldr	sl, [sp, #4]
 782              		.loc 2 189 0
 783 0326 B7F800B0 		ldrh	fp, [r7, #0]
 784              		.loc 2 194 0
 785 032a 207C     		ldrb	r0, [r4, #16]	@ zero_extendqisi2
 786              		.loc 2 190 0
 787 032c 82F804E0 		strb	lr, [r2, #4]
 788              		.loc 2 196 0
 789 0330 4FEA0929 		lsl	r9, r9, #8
 790              		.loc 2 197 0
 791 0334 DDF80CE0 		ldr	lr, [sp, #12]
 792              		.loc 2 189 0
 793 0338 C2F800B0 		str	fp, [r2, #0]
ARM GAS  C:\Users\DNIEL~1\AppData\Local\Temp\ccrXyehP.s 			page 15


 794              		.loc 2 193 0
 795 033c 01EB8101 		add	r1, r1, r1, lsl #2
 796              		.loc 2 196 0
 797 0340 09EB0A0C 		add	ip, r9, sl
 798              		.loc 2 192 0
 799 0344 A2F80680 		strh	r8, [r2, #6]	@ movhi
 800              		.loc 2 193 0
 801 0348 1181     		strh	r1, [r2, #8]	@ movhi
 802              		.loc 2 194 0
 803 034a 9072     		strb	r0, [r2, #10]
 804              		.loc 2 196 0
 805 034c A2F80CC0 		strh	ip, [r2, #12]	@ movhi
 806              		.loc 2 197 0
 807 0350 82F80EE0 		strb	lr, [r2, #14]
 808 0354 96E6     		b	.L83
 809              	.L94:
 810              		.loc 2 270 0
 811 0356 DFF83481 		ldr	r8, .L103+16
 812              		.loc 2 268 0
 813 035a 3A88     		ldrh	r2, [r7, #0]
 814              		.loc 2 270 0
 815 035c D8F80030 		ldr	r3, [r8, #0]
 816              		.loc 2 272 0
 817 0360 A089     		ldrh	r0, [r4, #12]
 818              		.loc 2 273 0
 819 0362 B4F80EE0 		ldrh	lr, [r4, #14]
 820              		.loc 2 270 0
 821 0366 9A42     		cmp	r2, r3
 822 0368 00F08380 		beq	.L100
 823              	.L59:
 824              		.loc 2 273 0
 825 036c 444B     		ldr	r3, .L103+4
 826 036e 31B1     		cbz	r1, .L43
 827              		.loc 2 270 0
 828 0370 1968     		ldr	r1, [r3, #0]
 829 0372 8A42     		cmp	r2, r1
 830 0374 0DD0     		beq	.L77
 831              	.L64:
 832              		.loc 2 273 0
 833 0376 1433     		adds	r3, r3, #20
 834              		.loc 2 269 0
 835 0378 B342     		cmp	r3, r6
 836 037a 3FF40CAF 		beq	.L41
 837              	.L43:
 838              		.loc 2 270 0
 839 037e 1968     		ldr	r1, [r3, #0]
 840 0380 8A42     		cmp	r2, r1
 841 0382 5969     		ldr	r1, [r3, #20]
 842              		.loc 2 272 0
 843 0384 04BF     		itt	eq
 844 0386 1881     		strheq	r0, [r3, #8]	@ movhi
 845              		.loc 2 273 0
 846 0388 A3F812E0 		strheq	lr, [r3, #18]	@ movhi
 847 038c 1433     		adds	r3, r3, #20
 848              		.loc 2 270 0
 849 038e 8A42     		cmp	r2, r1
 850 0390 F1D1     		bne	.L64
ARM GAS  C:\Users\DNIEL~1\AppData\Local\Temp\ccrXyehP.s 			page 16


 851              	.L77:
 852              		.loc 2 272 0
 853 0392 1881     		strh	r0, [r3, #8]	@ movhi
 854              		.loc 2 273 0
 855 0394 A3F812E0 		strh	lr, [r3, #18]	@ movhi
 856 0398 EDE7     		b	.L64
 857              	.L30:
 858              		.loc 2 167 0
 859 039a 6346     		mov	r3, ip
 860              		.loc 2 166 0
 861 039c 394A     		ldr	r2, .L103+8
 862              		.loc 2 167 0
 863 039e 60F31C03 		bfi	r3, r0, #0, #29
 864              		.loc 2 166 0
 865 03a2 0521     		movs	r1, #5
 866 03a4 1170     		strb	r1, [r2, #0]
 867              		.loc 2 167 0
 868 03a6 A360     		str	r3, [r4, #8]
 869 03a8 6EE6     		b	.L25
 870              	.L88:
 871              		.loc 2 201 0
 872 03aa 344A     		ldr	r2, .L103
 873 03ac 207B     		ldrb	r0, [r4, #12]	@ zero_extendqisi2
 874              		.loc 2 202 0
 875 03ae 94F80DC0 		ldrb	ip, [r4, #13]	@ zero_extendqisi2
 876              		.loc 2 201 0
 877 03b2 D073     		strb	r0, [r2, #15]
 878              		.loc 2 203 0
 879 03b4 E189     		ldrh	r1, [r4, #14]
 880              		.loc 2 204 0
 881 03b6 B4F810E0 		ldrh	lr, [r4, #16]
 882              		.loc 2 205 0
 883 03ba 608A     		ldrh	r0, [r4, #18]
 884              		.loc 2 202 0
 885 03bc 82F810C0 		strb	ip, [r2, #16]
 886              		.loc 2 203 0
 887 03c0 5182     		strh	r1, [r2, #18]	@ movhi
 888              		.loc 2 204 0
 889 03c2 A2F814E0 		strh	lr, [r2, #20]	@ movhi
 890              		.loc 2 205 0
 891 03c6 D082     		strh	r0, [r2, #22]	@ movhi
 892 03c8 5CE6     		b	.L83
 893              	.L85:
 894              		.loc 2 293 0
 895 03ca 2F48     		ldr	r0, .L103+12
 896 03cc 04A9     		add	r1, sp, #16
 897 03ce FFF7FEFF 		bl	chEvtUnregister
 898              		.loc 2 295 0
 899 03d2 0020     		movs	r0, #0
 900 03d4 09B0     		add	sp, sp, #36
 901 03d6 BDE8F08F 		pop	{r4, r5, r6, r7, r8, r9, sl, fp, pc}
 902              	.L89:
 903              		.loc 2 214 0
 904 03da 94F81180 		ldrb	r8, [r4, #17]	@ zero_extendqisi2
 905              		.loc 2 213 0
 906 03de A07C     		ldrb	r0, [r4, #18]	@ zero_extendqisi2
 907              		.loc 2 209 0
ARM GAS  C:\Users\DNIEL~1\AppData\Local\Temp\ccrXyehP.s 			page 17


 908 03e0 264A     		ldr	r2, .L103
 909              		.loc 2 210 0
 910 03e2 94F80E90 		ldrb	r9, [r4, #14]	@ zero_extendqisi2
 911              		.loc 2 211 0
 912 03e6 94F80FC0 		ldrb	ip, [r4, #15]	@ zero_extendqisi2
 913              		.loc 2 212 0
 914 03ea 94F810E0 		ldrb	lr, [r4, #16]	@ zero_extendqisi2
 915              		.loc 2 215 0
 916 03ee E17C     		ldrb	r1, [r4, #19]	@ zero_extendqisi2
 917              		.loc 2 210 0
 918 03f0 82F81A90 		strb	r9, [r2, #26]
 919              		.loc 2 214 0
 920 03f4 4FEA0828 		lsl	r8, r8, #8
 921 03f8 4044     		add	r0, r8, r0
 922              		.loc 2 209 0
 923 03fa B4F80C80 		ldrh	r8, [r4, #12]
 924              		.loc 2 211 0
 925 03fe 82F81BC0 		strb	ip, [r2, #27]
 926              		.loc 2 209 0
 927 0402 A2F81880 		strh	r8, [r2, #24]	@ movhi
 928              		.loc 2 212 0
 929 0406 82F81CE0 		strb	lr, [r2, #28]
 930              		.loc 2 214 0
 931 040a D083     		strh	r0, [r2, #30]	@ movhi
 932              		.loc 2 215 0
 933 040c 82F82010 		strb	r1, [r2, #32]
 934 0410 38E6     		b	.L83
 935              	.L97:
 936              		.loc 2 258 0
 937 0412 03F808EC 		strb	lr, [r3, #-8]
 938              		.loc 2 259 0
 939 0416 03F807CC 		strb	ip, [r3, #-7]
 940              		.loc 2 260 0
 941 041a 03F8068C 		strb	r8, [r3, #-6]
 942              		.loc 2 261 0
 943 041e 03F8059C 		strb	r9, [r3, #-5]
 944              		.loc 2 262 0
 945 0422 C3F800A0 		str	sl, [r3, #0]
 946              		.loc 2 263 0
 947 0426 A3F804B0 		strh	fp, [r3, #4]	@ movhi
 948 042a 0DE7     		b	.L52
 949              	.L98:
 950              		.loc 2 258 0
 951 042c 03F808EC 		strb	lr, [r3, #-8]
 952              		.loc 2 259 0
 953 0430 03F807CC 		strb	ip, [r3, #-7]
 954              		.loc 2 260 0
 955 0434 03F8068C 		strb	r8, [r3, #-6]
 956              		.loc 2 261 0
 957 0438 03F8059C 		strb	r9, [r3, #-5]
 958              		.loc 2 262 0
 959 043c C3F800A0 		str	sl, [r3, #0]
 960              		.loc 2 263 0
 961 0440 A3F804B0 		strh	fp, [r3, #4]	@ movhi
 962 0444 07E7     		b	.L54
 963              	.L90:
 964              		.loc 2 219 0
ARM GAS  C:\Users\DNIEL~1\AppData\Local\Temp\ccrXyehP.s 			page 18


 965 0446 0D4A     		ldr	r2, .L103
 966              		.loc 2 220 0
 967 0448 94F80EA0 		ldrb	sl, [r4, #14]	@ zero_extendqisi2
 968              		.loc 2 223 0
 969 044c 617C     		ldrb	r1, [r4, #17]	@ zero_extendqisi2
 970              		.loc 2 221 0
 971 044e 94F80FE0 		ldrb	lr, [r4, #15]	@ zero_extendqisi2
 972              		.loc 2 222 0
 973 0452 207C     		ldrb	r0, [r4, #16]	@ zero_extendqisi2
 974              		.loc 2 220 0
 975 0454 82F824A0 		strb	sl, [r2, #36]
 976              		.loc 2 223 0
 977 0458 82F82710 		strb	r1, [r2, #39]
 978              		.loc 2 219 0
 979 045c B4F80CA0 		ldrh	sl, [r4, #12]
 980              		.loc 2 224 0
 981 0460 A18A     		ldrh	r1, [r4, #20]
 982              		.loc 2 219 0
 983 0462 A2F822A0 		strh	sl, [r2, #34]	@ movhi
 984              		.loc 2 221 0
 985 0466 82F825E0 		strb	lr, [r2, #37]
 986              		.loc 2 222 0
 987 046a 82F82600 		strb	r0, [r2, #38]
 988              		.loc 2 224 0
 989 046e 1185     		strh	r1, [r2, #40]	@ movhi
 990 0470 08E6     		b	.L83
 991              	.L100:
 992              		.loc 2 272 0
 993 0472 A8F80800 		strh	r0, [r8, #8]	@ movhi
 994              		.loc 2 273 0
 995 0476 A8F812E0 		strh	lr, [r8, #18]	@ movhi
 996 047a 77E7     		b	.L59
 997              	.L104:
 998              		.align	2
 999              	.L103:
 1000 047c 00000000 		.word	.LANCHOR10
 1001 0480 14000000 		.word	.LANCHOR12+20
 1002 0484 00000000 		.word	.LANCHOR7
 1003 0488 20000000 		.word	CAND1+32
 1004 048c 00000000 		.word	.LANCHOR12
 1005              		.cfi_endproc
 1006              	.LFE119:
 1007              		.size	can_rx, .-can_rx
 1008              		.section	.text.can_commInit,"ax",%progbits
 1009              		.align	2
 1010              		.p2align 4,,15
 1011              		.global	can_commInit
 1012              		.thumb
 1013              		.thumb_func
 1014              		.type	can_commInit, %function
 1015              	can_commInit:
 1016              	.LFB121:
 1017              		.loc 2 390 0
 1018              		.cfi_startproc
 1019              		@ args = 0, pretend = 0, frame = 0
 1020              		@ frame_needed = 0, uses_anonymous_args = 0
 1021 0000 30B5     		push	{r4, r5, lr}
ARM GAS  C:\Users\DNIEL~1\AppData\Local\Temp\ccrXyehP.s 			page 19


 1022              	.LCFI6:
 1023              		.cfi_def_cfa_offset 12
 1024              		.loc 2 391 0
 1025 0002 1648     		ldr	r0, .L106
 1026 0004 1649     		ldr	r1, .L106+4
 1027              		.loc 2 390 0
 1028 0006 83B0     		sub	sp, sp, #12
 1029              	.LCFI7:
 1030              		.cfi_def_cfa_offset 24
 1031              		.loc 2 391 0
 1032              		.cfi_offset 14, -4
 1033              		.cfi_offset 5, -8
 1034              		.cfi_offset 4, -12
 1035 0008 FFF7FEFF 		bl	canStart
 1036              		.loc 2 392 0
 1037 000c 0024     		movs	r4, #0
 1038 000e 4FF4E871 		mov	r1, #464
 1039 0012 4722     		movs	r2, #71
 1040 0014 134B     		ldr	r3, .L106+8
 1041 0016 1448     		ldr	r0, .L106+12
 1042 0018 0094     		str	r4, [sp, #0]
 1043 001a FFF7FEFF 		bl	chThdCreateStatic
 1044              		.loc 2 393 0
 1045 001e 134B     		ldr	r3, .L106+16
 1046 0020 1348     		ldr	r0, .L106+20
 1047 0022 0094     		str	r4, [sp, #0]
 1048 0024 4FF4E871 		mov	r1, #464
 1049 0028 4722     		movs	r2, #71
 1050 002a FFF7FEFF 		bl	chThdCreateStatic
 1051              		.loc 2 399 0
 1052 002e 114B     		ldr	r3, .L106+24
 1053              		.loc 2 395 0
 1054 0030 1149     		ldr	r1, .L106+28
 1055              		.loc 2 399 0
 1056 0032 1D79     		ldrb	r5, [r3, #4]	@ zero_extendqisi2
 1057              		.loc 2 395 0
 1058 0034 0A78     		ldrb	r2, [r1, #0]	@ zero_extendqisi2
 1059              		.loc 2 400 0
 1060 0036 45F0200C 		orr	ip, r5, #32
 1061              		.loc 2 396 0
 1062 003a 42F02000 		orr	r0, r2, #32
 1063              		.loc 2 397 0
 1064 003e 0825     		movs	r5, #8
 1065 0040 00F0EF00 		and	r0, r0, #239
 1066              		.loc 2 401 0
 1067 0044 0CF0EF02 		and	r2, ip, #239
 1068              		.loc 2 397 0
 1069 0048 65F30300 		bfi	r0, r5, #0, #4
 1070              		.loc 2 401 0
 1071 004c 65F30302 		bfi	r2, r5, #0, #4
 1072              		.loc 2 397 0
 1073 0050 0870     		strb	r0, [r1, #0]
 1074              		.loc 2 401 0
 1075 0052 1A71     		strb	r2, [r3, #4]
 1076              		.loc 2 403 0
 1077 0054 094B     		ldr	r3, .L106+32
 1078 0056 1C70     		strb	r4, [r3, #0]
ARM GAS  C:\Users\DNIEL~1\AppData\Local\Temp\ccrXyehP.s 			page 20


 1079              		.loc 2 404 0
 1080 0058 03B0     		add	sp, sp, #12
 1081 005a 30BD     		pop	{r4, r5, pc}
 1082              	.L107:
 1083              		.align	2
 1084              	.L106:
 1085 005c 00000000 		.word	CAND1
 1086 0060 00000000 		.word	.LANCHOR13
 1087 0064 00000000 		.word	can_rx
 1088 0068 00000000 		.word	.LANCHOR14
 1089 006c 00000000 		.word	can_tx
 1090 0070 00000000 		.word	.LANCHOR15
 1091 0074 00000000 		.word	.LANCHOR3
 1092 0078 00000000 		.word	.LANCHOR1
 1093 007c 00000000 		.word	.LANCHOR6
 1094              		.cfi_endproc
 1095              	.LFE121:
 1096              		.size	can_commInit, .-can_commInit
 1097              		.section	.text.cmd_can_commvalues,"ax",%progbits
 1098              		.align	2
 1099              		.p2align 4,,15
 1100              		.global	cmd_can_commvalues
 1101              		.thumb
 1102              		.thumb_func
 1103              		.type	cmd_can_commvalues, %function
 1104              	cmd_can_commvalues:
 1105              	.LFB122:
 1106              		.loc 2 406 0
 1107              		.cfi_startproc
 1108              		@ args = 0, pretend = 0, frame = 0
 1109              		@ frame_needed = 0, uses_anonymous_args = 0
 1110              	.LVL13:
 1111 0000 38B5     		push	{r3, r4, r5, lr}
 1112              	.LCFI8:
 1113              		.cfi_def_cfa_offset 16
 1114              		.loc 2 410 0
 1115 0002 1A49     		ldr	r1, .L111
 1116              	.LVL14:
 1117              		.loc 2 414 0
 1118 0004 1A4D     		ldr	r5, .L111+4
 1119              		.cfi_offset 14, -4
 1120              		.cfi_offset 5, -8
 1121              		.cfi_offset 4, -12
 1122              		.cfi_offset 3, -16
 1123              		.loc 2 406 0
 1124 0006 0446     		mov	r4, r0
 1125              		.loc 2 410 0
 1126 0008 FFF7FEFF 		bl	chprintf
 1127              	.LVL15:
 1128              		.loc 2 411 0
 1129 000c 2046     		mov	r0, r4
 1130 000e 1949     		ldr	r1, .L111+8
 1131 0010 FFF7FEFF 		bl	chprintf
 1132              		.loc 2 412 0
 1133 0014 21E0     		b	.L109
 1134              	.L110:
 1135              		.loc 2 414 0
ARM GAS  C:\Users\DNIEL~1\AppData\Local\Temp\ccrXyehP.s 			page 21


 1136 0016 AA68     		ldr	r2, [r5, #8]
 1137 0018 1749     		ldr	r1, .L111+12
 1138 001a 22F06042 		bic	r2, r2, #-536870912
 1139 001e 2046     		mov	r0, r4
 1140 0020 FFF7FEFF 		bl	chprintf
 1141              		.loc 2 415 0
 1142 0024 2046     		mov	r0, r4
 1143 0026 1549     		ldr	r1, .L111+16
 1144 0028 AA89     		ldrh	r2, [r5, #12]
 1145 002a FFF7FEFF 		bl	chprintf
 1146              		.loc 2 416 0
 1147 002e 2046     		mov	r0, r4
 1148 0030 1349     		ldr	r1, .L111+20
 1149 0032 EA89     		ldrh	r2, [r5, #14]
 1150 0034 FFF7FEFF 		bl	chprintf
 1151              		.loc 2 417 0
 1152 0038 2046     		mov	r0, r4
 1153 003a 1249     		ldr	r1, .L111+24
 1154 003c 2A8A     		ldrh	r2, [r5, #16]
 1155 003e FFF7FEFF 		bl	chprintf
 1156              		.loc 2 418 0
 1157 0042 2046     		mov	r0, r4
 1158 0044 1049     		ldr	r1, .L111+28
 1159 0046 6A8A     		ldrh	r2, [r5, #18]
 1160 0048 FFF7FEFF 		bl	chprintf
 1161              		.loc 2 419 0
 1162 004c 2046     		mov	r0, r4
 1163 004e 0F49     		ldr	r1, .L111+32
 1164 0050 FFF7FEFF 		bl	chprintf
 1165              		.loc 2 421 0
 1166 0054 3220     		movs	r0, #50
 1167 0056 FFF7FEFF 		bl	chThdSleep
 1168              	.L109:
 1169              		.loc 2 412 0 discriminator 1
 1170 005a 2168     		ldr	r1, [r4, #0]
 1171 005c 2046     		mov	r0, r4
 1172 005e 4B69     		ldr	r3, [r1, #20]
 1173 0060 0021     		movs	r1, #0
 1174 0062 9847     		blx	r3
 1175 0064 B0F1FF3F 		cmp	r0, #-1
 1176 0068 D5D0     		beq	.L110
 1177              		.loc 2 423 0
 1178 006a 38BD     		pop	{r3, r4, r5, pc}
 1179              	.L112:
 1180              		.align	2
 1181              	.L111:
 1182 006c 18000000 		.word	.LC2
 1183 0070 00000000 		.word	.LANCHOR3
 1184 0074 1C000000 		.word	.LC3
 1185 0078 24000000 		.word	.LC4
 1186 007c 38000000 		.word	.LC5
 1187 0080 4C000000 		.word	.LC6
 1188 0084 60000000 		.word	.LC7
 1189 0088 74000000 		.word	.LC8
 1190 008c 88000000 		.word	.LC9
 1191              		.cfi_endproc
 1192              	.LFE122:
ARM GAS  C:\Users\DNIEL~1\AppData\Local\Temp\ccrXyehP.s 			page 22


 1193              		.size	cmd_can_commvalues, .-cmd_can_commvalues
 1194              		.section	.text.cmd_canmppttest,"ax",%progbits
 1195              		.align	2
 1196              		.p2align 4,,15
 1197              		.global	cmd_canmppttest
 1198              		.thumb
 1199              		.thumb_func
 1200              		.type	cmd_canmppttest, %function
 1201              	cmd_canmppttest:
 1202              	.LFB123:
 1203              		.loc 2 425 0
 1204              		.cfi_startproc
 1205              		@ args = 0, pretend = 0, frame = 0
 1206              		@ frame_needed = 0, uses_anonymous_args = 0
 1207              	.LVL16:
 1208 0000 F8B5     		push	{r3, r4, r5, r6, r7, lr}
 1209              	.LCFI9:
 1210              		.cfi_def_cfa_offset 24
 1211              		.loc 2 429 0
 1212 0002 3749     		ldr	r1, .L116
 1213              	.LVL17:
 1214              		.loc 2 435 0
 1215 0004 374E     		ldr	r6, .L116+4
 1216              		.cfi_offset 14, -4
 1217              		.cfi_offset 7, -8
 1218              		.cfi_offset 6, -12
 1219              		.cfi_offset 5, -16
 1220              		.cfi_offset 4, -20
 1221              		.cfi_offset 3, -24
 1222              		.loc 2 443 0
 1223 0006 384D     		ldr	r5, .L116+8
 1224              		.loc 2 451 0
 1225 0008 384F     		ldr	r7, .L116+12
 1226              		.loc 2 425 0
 1227 000a 0446     		mov	r4, r0
 1228              		.loc 2 429 0
 1229 000c FFF7FEFF 		bl	chprintf
 1230              	.LVL18:
 1231              		.loc 2 430 0
 1232 0010 2046     		mov	r0, r4
 1233 0012 3749     		ldr	r1, .L116+16
 1234 0014 FFF7FEFF 		bl	chprintf
 1235              		.loc 2 431 0
 1236 0018 59E0     		b	.L114
 1237              	.L115:
 1238              		.loc 2 432 0
 1239 001a 0022     		movs	r2, #0
 1240 001c 1346     		mov	r3, r2
 1241 001e 3549     		ldr	r1, .L116+20
 1242 0020 2046     		mov	r0, r4
 1243 0022 FFF7FEFF 		bl	chprintf
 1244              		.loc 2 434 0
 1245 0026 2046     		mov	r0, r4
 1246 0028 3349     		ldr	r1, .L116+24
 1247 002a FFF7FEFF 		bl	chprintf
 1248              		.loc 2 435 0
 1249 002e 7068     		ldr	r0, [r6, #4]
ARM GAS  C:\Users\DNIEL~1\AppData\Local\Temp\ccrXyehP.s 			page 23


 1250 0030 3249     		ldr	r1, .L116+28
 1251 0032 20F06042 		bic	r2, r0, #-536870912
 1252 0036 2046     		mov	r0, r4
 1253 0038 FFF7FEFF 		bl	chprintf
 1254              		.loc 2 436 0
 1255 003c 2046     		mov	r0, r4
 1256 003e 3049     		ldr	r1, .L116+32
 1257 0040 B268     		ldr	r2, [r6, #8]
 1258 0042 FFF7FEFF 		bl	chprintf
 1259              		.loc 2 437 0
 1260 0046 F268     		ldr	r2, [r6, #12]
 1261 0048 2E49     		ldr	r1, .L116+36
 1262 004a 2046     		mov	r0, r4
 1263 004c FFF7FEFF 		bl	chprintf
 1264              		.loc 2 438 0
 1265 0050 2046     		mov	r0, r4
 1266 0052 2D49     		ldr	r1, .L116+40
 1267 0054 FFF7FEFF 		bl	chprintf
 1268              		.loc 2 442 0
 1269 0058 2046     		mov	r0, r4
 1270 005a 2C49     		ldr	r1, .L116+44
 1271 005c FFF7FEFF 		bl	chprintf
 1272              		.loc 2 443 0
 1273 0060 AA68     		ldr	r2, [r5, #8]
 1274 0062 2B49     		ldr	r1, .L116+48
 1275 0064 22F06042 		bic	r2, r2, #-536870912
 1276 0068 2046     		mov	r0, r4
 1277 006a FFF7FEFF 		bl	chprintf
 1278              		.loc 2 444 0
 1279 006e 2046     		mov	r0, r4
 1280 0070 2849     		ldr	r1, .L116+52
 1281 0072 2A7B     		ldrb	r2, [r5, #12]	@ zero_extendqisi2
 1282 0074 FFF7FEFF 		bl	chprintf
 1283              		.loc 2 445 0
 1284 0078 2046     		mov	r0, r4
 1285 007a 2749     		ldr	r1, .L116+56
 1286 007c 6A7B     		ldrb	r2, [r5, #13]	@ zero_extendqisi2
 1287 007e FFF7FEFF 		bl	chprintf
 1288              		.loc 2 446 0
 1289 0082 2046     		mov	r0, r4
 1290 0084 2549     		ldr	r1, .L116+60
 1291 0086 AA7B     		ldrb	r2, [r5, #14]	@ zero_extendqisi2
 1292 0088 FFF7FEFF 		bl	chprintf
 1293              		.loc 2 447 0
 1294 008c 2046     		mov	r0, r4
 1295 008e 2449     		ldr	r1, .L116+64
 1296 0090 EA7B     		ldrb	r2, [r5, #15]	@ zero_extendqisi2
 1297 0092 FFF7FEFF 		bl	chprintf
 1298              		.loc 2 448 0
 1299 0096 2046     		mov	r0, r4
 1300 0098 2249     		ldr	r1, .L116+68
 1301 009a 2A8A     		ldrh	r2, [r5, #16]
 1302 009c FFF7FEFF 		bl	chprintf
 1303              		.loc 2 449 0
 1304 00a0 6A8A     		ldrh	r2, [r5, #18]
 1305 00a2 2149     		ldr	r1, .L116+72
 1306 00a4 2046     		mov	r0, r4
ARM GAS  C:\Users\DNIEL~1\AppData\Local\Temp\ccrXyehP.s 			page 24


 1307 00a6 FFF7FEFF 		bl	chprintf
 1308              		.loc 2 450 0
 1309 00aa 2046     		mov	r0, r4
 1310 00ac 1649     		ldr	r1, .L116+40
 1311 00ae FFF7FEFF 		bl	chprintf
 1312              		.loc 2 451 0
 1313 00b2 2046     		mov	r0, r4
 1314 00b4 1D49     		ldr	r1, .L116+76
 1315 00b6 3A88     		ldrh	r2, [r7, #0]
 1316 00b8 FFF7FEFF 		bl	chprintf
 1317              		.loc 2 452 0
 1318 00bc 1C4B     		ldr	r3, .L116+80
 1319 00be 1D49     		ldr	r1, .L116+84
 1320 00c0 1A88     		ldrh	r2, [r3, #0]
 1321 00c2 2046     		mov	r0, r4
 1322 00c4 FFF7FEFF 		bl	chprintf
 1323              		.loc 2 454 0
 1324 00c8 FA20     		movs	r0, #250
 1325 00ca FFF7FEFF 		bl	chThdSleep
 1326              	.L114:
 1327              		.loc 2 431 0 discriminator 1
 1328 00ce 2168     		ldr	r1, [r4, #0]
 1329 00d0 2046     		mov	r0, r4
 1330 00d2 4B69     		ldr	r3, [r1, #20]
 1331 00d4 0021     		movs	r1, #0
 1332 00d6 9847     		blx	r3
 1333 00d8 B0F1FF3F 		cmp	r0, #-1
 1334 00dc 9DD0     		beq	.L115
 1335              		.loc 2 456 0
 1336 00de F8BD     		pop	{r3, r4, r5, r6, r7, pc}
 1337              	.L117:
 1338              		.align	2
 1339              	.L116:
 1340 00e0 18000000 		.word	.LC2
 1341 00e4 00000000 		.word	.LANCHOR1
 1342 00e8 00000000 		.word	.LANCHOR3
 1343 00ec 00000000 		.word	.LANCHOR4
 1344 00f0 1C000000 		.word	.LC3
 1345 00f4 8C000000 		.word	.LC10
 1346 00f8 98000000 		.word	.LC11
 1347 00fc C0000000 		.word	.LC12
 1348 0100 E0000000 		.word	.LC13
 1349 0104 00010000 		.word	.LC14
 1350 0108 88000000 		.word	.LC9
 1351 010c 20010000 		.word	.LC15
 1352 0110 48010000 		.word	.LC16
 1353 0114 68010000 		.word	.LC17
 1354 0118 88010000 		.word	.LC18
 1355 011c A8010000 		.word	.LC19
 1356 0120 C8010000 		.word	.LC20
 1357 0124 E8010000 		.word	.LC21
 1358 0128 08020000 		.word	.LC22
 1359 012c 28020000 		.word	.LC23
 1360 0130 00000000 		.word	.LANCHOR5
 1361 0134 48020000 		.word	.LC24
 1362              		.cfi_endproc
 1363              	.LFE123:
ARM GAS  C:\Users\DNIEL~1\AppData\Local\Temp\ccrXyehP.s 			page 25


 1364              		.size	cmd_canmppttest, .-cmd_canmppttest
 1365 0138 AFF30080 		.section	.text.cmd_canall,"ax",%progbits
 1365      AFF30080 
 1366              		.align	2
 1367              		.p2align 4,,15
 1368              		.global	cmd_canall
 1369              		.thumb
 1370              		.thumb_func
 1371              		.type	cmd_canall, %function
 1372              	cmd_canall:
 1373              	.LFB124:
 1374              		.loc 2 458 0
 1375              		.cfi_startproc
 1376              		@ args = 0, pretend = 0, frame = 0
 1377              		@ frame_needed = 0, uses_anonymous_args = 0
 1378              	.LVL19:
 1379 0000 2DE9F041 		push	{r4, r5, r6, r7, r8, lr}
 1380              	.LCFI10:
 1381              		.cfi_def_cfa_offset 24
 1382              		.loc 2 458 0
 1383 0004 0446     		mov	r4, r0
 1384              		.cfi_offset 14, -4
 1385              		.cfi_offset 8, -8
 1386              		.cfi_offset 7, -12
 1387              		.cfi_offset 6, -16
 1388              		.cfi_offset 5, -20
 1389              		.cfi_offset 4, -24
 1390 0006 0E46     		mov	r6, r1
 1391              		.loc 2 462 0
 1392 0008 5249     		ldr	r1, .L130
 1393              	.LVL20:
 1394              	.LBB7:
 1395              		.loc 2 494 0
 1396 000a 534D     		ldr	r5, .L130+4
 1397              	.LBE7:
 1398              		.loc 2 458 0
 1399 000c 1746     		mov	r7, r2
 1400              		.loc 2 462 0
 1401 000e FFF7FEFF 		bl	chprintf
 1402              	.LVL21:
 1403              		.loc 2 463 0
 1404 0012 2046     		mov	r0, r4
 1405 0014 5149     		ldr	r1, .L130+8
 1406 0016 FFF7FEFF 		bl	chprintf
 1407              	.L125:
 1408              		.loc 2 464 0 discriminator 1
 1409 001a 2168     		ldr	r1, [r4, #0]
 1410 001c 2046     		mov	r0, r4
 1411 001e 4A69     		ldr	r2, [r1, #20]
 1412 0020 0021     		movs	r1, #0
 1413 0022 9047     		blx	r2
 1414 0024 B0F1FF3F 		cmp	r0, #-1
 1415 0028 3ED1     		bne	.L126
 1416              	.L124:
 1417              	.LBB8:
 1418              		.loc 2 465 0
 1419 002a 0022     		movs	r2, #0
ARM GAS  C:\Users\DNIEL~1\AppData\Local\Temp\ccrXyehP.s 			page 26


 1420 002c 2046     		mov	r0, r4
 1421 002e 4C49     		ldr	r1, .L130+12
 1422 0030 1346     		mov	r3, r2
 1423 0032 FFF7FEFF 		bl	chprintf
 1424              		.loc 2 467 0
 1425 0036 012E     		cmp	r6, #1
 1426 0038 05D0     		beq	.L127
 1427              	.L120:
 1428              		.loc 2 500 0
 1429 003a 4A49     		ldr	r1, .L130+16
 1430 003c 2046     		mov	r0, r4
 1431              	.LBE8:
 1432              		.loc 2 504 0
 1433 003e BDE8F041 		pop	{r4, r5, r6, r7, r8, lr}
 1434              	.LBB9:
 1435              		.loc 2 500 0
 1436 0042 FFF7FEBF 		b	chprintf
 1437              	.L127:
 1438              		.loc 2 467 0 discriminator 1
 1439 0046 D7F80080 		ldr	r8, [r7, #0]
 1440 004a 4749     		ldr	r1, .L130+20
 1441 004c 4046     		mov	r0, r8
 1442 004e FFF7FEFF 		bl	strcmp
 1443 0052 0028     		cmp	r0, #0
 1444 0054 2AD0     		beq	.L128
 1445              		.loc 2 481 0 discriminator 1
 1446 0056 4046     		mov	r0, r8
 1447 0058 4449     		ldr	r1, .L130+24
 1448 005a FFF7FEFF 		bl	strcmp
 1449 005e 0028     		cmp	r0, #0
 1450 0060 58D0     		beq	.L129
 1451              		.loc 2 491 0 discriminator 1
 1452 0062 4046     		mov	r0, r8
 1453 0064 4249     		ldr	r1, .L130+28
 1454 0066 FFF7FEFF 		bl	strcmp
 1455 006a 0028     		cmp	r0, #0
 1456 006c E5D1     		bne	.L120
 1457              		.loc 2 493 0
 1458 006e 2046     		mov	r0, r4
 1459 0070 4049     		ldr	r1, .L130+32
 1460 0072 FFF7FEFF 		bl	chprintf
 1461              		.loc 2 494 0
 1462 0076 AB68     		ldr	r3, [r5, #8]
 1463 0078 3F49     		ldr	r1, .L130+36
 1464 007a 23F06042 		bic	r2, r3, #-536870912
 1465 007e 2046     		mov	r0, r4
 1466 0080 FFF7FEFF 		bl	chprintf
 1467              		.loc 2 495 0
 1468 0084 2046     		mov	r0, r4
 1469 0086 EA68     		ldr	r2, [r5, #12]
 1470 0088 3C49     		ldr	r1, .L130+40
 1471 008a FFF7FEFF 		bl	chprintf
 1472              		.loc 2 496 0
 1473 008e 2046     		mov	r0, r4
 1474 0090 3B49     		ldr	r1, .L130+44
 1475 0092 2A69     		ldr	r2, [r5, #16]
 1476 0094 FFF7FEFF 		bl	chprintf
ARM GAS  C:\Users\DNIEL~1\AppData\Local\Temp\ccrXyehP.s 			page 27


 1477              	.LBE9:
 1478              		.loc 2 464 0
 1479 0098 2168     		ldr	r1, [r4, #0]
 1480 009a 2046     		mov	r0, r4
 1481 009c 4A69     		ldr	r2, [r1, #20]
 1482 009e 0021     		movs	r1, #0
 1483 00a0 9047     		blx	r2
 1484 00a2 B0F1FF3F 		cmp	r0, #-1
 1485 00a6 C0D0     		beq	.L124
 1486              	.L126:
 1487              		.loc 2 504 0
 1488 00a8 BDE8F081 		pop	{r4, r5, r6, r7, r8, pc}
 1489              	.L128:
 1490              	.LBB10:
 1491              		.loc 2 469 0
 1492 00ac 2046     		mov	r0, r4
 1493 00ae 3149     		ldr	r1, .L130+32
 1494 00b0 FFF7FEFF 		bl	chprintf
 1495              		.loc 2 470 0
 1496 00b4 AA68     		ldr	r2, [r5, #8]
 1497 00b6 3349     		ldr	r1, .L130+48
 1498 00b8 2046     		mov	r0, r4
 1499 00ba 22F06042 		bic	r2, r2, #-536870912
 1500 00be FFF7FEFF 		bl	chprintf
 1501              		.loc 2 471 0
 1502 00c2 2046     		mov	r0, r4
 1503 00c4 2A7B     		ldrb	r2, [r5, #12]	@ zero_extendqisi2
 1504 00c6 3049     		ldr	r1, .L130+52
 1505 00c8 FFF7FEFF 		bl	chprintf
 1506              		.loc 2 472 0
 1507 00cc 2046     		mov	r0, r4
 1508 00ce 6A7B     		ldrb	r2, [r5, #13]	@ zero_extendqisi2
 1509 00d0 2E49     		ldr	r1, .L130+56
 1510 00d2 FFF7FEFF 		bl	chprintf
 1511              		.loc 2 473 0
 1512 00d6 2046     		mov	r0, r4
 1513 00d8 AA7B     		ldrb	r2, [r5, #14]	@ zero_extendqisi2
 1514 00da 2D49     		ldr	r1, .L130+60
 1515 00dc FFF7FEFF 		bl	chprintf
 1516              		.loc 2 474 0
 1517 00e0 2046     		mov	r0, r4
 1518 00e2 EA7B     		ldrb	r2, [r5, #15]	@ zero_extendqisi2
 1519 00e4 2B49     		ldr	r1, .L130+64
 1520 00e6 FFF7FEFF 		bl	chprintf
 1521              		.loc 2 475 0
 1522 00ea 2046     		mov	r0, r4
 1523 00ec 2A7C     		ldrb	r2, [r5, #16]	@ zero_extendqisi2
 1524 00ee 2A49     		ldr	r1, .L130+68
 1525 00f0 FFF7FEFF 		bl	chprintf
 1526              		.loc 2 476 0
 1527 00f4 2046     		mov	r0, r4
 1528 00f6 6A7C     		ldrb	r2, [r5, #17]	@ zero_extendqisi2
 1529 00f8 2849     		ldr	r1, .L130+72
 1530 00fa FFF7FEFF 		bl	chprintf
 1531              		.loc 2 477 0
 1532 00fe 2046     		mov	r0, r4
 1533 0100 AA7C     		ldrb	r2, [r5, #18]	@ zero_extendqisi2
ARM GAS  C:\Users\DNIEL~1\AppData\Local\Temp\ccrXyehP.s 			page 28


 1534 0102 2749     		ldr	r1, .L130+76
 1535 0104 FFF7FEFF 		bl	chprintf
 1536              		.loc 2 478 0
 1537 0108 2046     		mov	r0, r4
 1538 010a 2649     		ldr	r1, .L130+80
 1539 010c EA7C     		ldrb	r2, [r5, #19]	@ zero_extendqisi2
 1540 010e FFF7FEFF 		bl	chprintf
 1541 0112 82E7     		b	.L125
 1542              	.L129:
 1543              		.loc 2 483 0
 1544 0114 2046     		mov	r0, r4
 1545 0116 1749     		ldr	r1, .L130+32
 1546 0118 FFF7FEFF 		bl	chprintf
 1547              		.loc 2 484 0
 1548 011c A868     		ldr	r0, [r5, #8]
 1549 011e 1649     		ldr	r1, .L130+36
 1550 0120 20F06042 		bic	r2, r0, #-536870912
 1551 0124 2046     		mov	r0, r4
 1552 0126 FFF7FEFF 		bl	chprintf
 1553              		.loc 2 485 0
 1554 012a 2046     		mov	r0, r4
 1555 012c AA89     		ldrh	r2, [r5, #12]
 1556 012e 1E49     		ldr	r1, .L130+84
 1557 0130 FFF7FEFF 		bl	chprintf
 1558              		.loc 2 486 0
 1559 0134 2046     		mov	r0, r4
 1560 0136 EA89     		ldrh	r2, [r5, #14]
 1561 0138 1C49     		ldr	r1, .L130+88
 1562 013a FFF7FEFF 		bl	chprintf
 1563              		.loc 2 487 0
 1564 013e 2046     		mov	r0, r4
 1565 0140 2A8A     		ldrh	r2, [r5, #16]
 1566 0142 1B49     		ldr	r1, .L130+92
 1567 0144 FFF7FEFF 		bl	chprintf
 1568              		.loc 2 488 0
 1569 0148 2046     		mov	r0, r4
 1570 014a 1A49     		ldr	r1, .L130+96
 1571 014c 6A8A     		ldrh	r2, [r5, #18]
 1572 014e FFF7FEFF 		bl	chprintf
 1573 0152 62E7     		b	.L125
 1574              	.L131:
 1575              		.align	2
 1576              	.L130:
 1577 0154 18000000 		.word	.LC2
 1578 0158 00000000 		.word	.LANCHOR3
 1579 015c 1C000000 		.word	.LC3
 1580 0160 8C000000 		.word	.LC10
 1581 0164 40040000 		.word	.LC45
 1582 0168 68020000 		.word	.LC25
 1583 016c 74030000 		.word	.LC36
 1584 0170 04040000 		.word	.LC42
 1585 0174 6C020000 		.word	.LC26
 1586 0178 78030000 		.word	.LC37
 1587 017c 08040000 		.word	.LC43
 1588 0180 24040000 		.word	.LC44
 1589 0184 9C020000 		.word	.LC27
 1590 0188 B4020000 		.word	.LC28
ARM GAS  C:\Users\DNIEL~1\AppData\Local\Temp\ccrXyehP.s 			page 29


 1591 018c CC020000 		.word	.LC29
 1592 0190 E4020000 		.word	.LC30
 1593 0194 FC020000 		.word	.LC31
 1594 0198 14030000 		.word	.LC32
 1595 019c 2C030000 		.word	.LC33
 1596 01a0 44030000 		.word	.LC34
 1597 01a4 5C030000 		.word	.LC35
 1598 01a8 94030000 		.word	.LC38
 1599 01ac B0030000 		.word	.LC39
 1600 01b0 CC030000 		.word	.LC40
 1601 01b4 E8030000 		.word	.LC41
 1602              	.LBE10:
 1603              		.cfi_endproc
 1604              	.LFE124:
 1605              		.size	cmd_canall, .-cmd_canall
 1606 01b8 AFF30080 		.section	.text.cmd_candata_lc,"ax",%progbits
 1606      AFF30080 
 1607              		.align	2
 1608              		.p2align 4,,15
 1609              		.global	cmd_candata_lc
 1610              		.thumb
 1611              		.thumb_func
 1612              		.type	cmd_candata_lc, %function
 1613              	cmd_candata_lc:
 1614              	.LFB125:
 1615              		.loc 2 506 0
 1616              		.cfi_startproc
 1617              		@ args = 0, pretend = 0, frame = 0
 1618              		@ frame_needed = 0, uses_anonymous_args = 0
 1619              	.LVL22:
 1620 0000 2DE9F047 		push	{r4, r5, r6, r7, r8, r9, sl, lr}
 1621              	.LCFI11:
 1622              		.cfi_def_cfa_offset 32
 1623              		.loc 2 506 0
 1624 0004 0446     		mov	r4, r0
 1625              		.cfi_offset 14, -4
 1626              		.cfi_offset 10, -8
 1627              		.cfi_offset 9, -12
 1628              		.cfi_offset 8, -16
 1629              		.cfi_offset 7, -20
 1630              		.cfi_offset 6, -24
 1631              		.cfi_offset 5, -28
 1632              		.cfi_offset 4, -32
 1633 0006 8946     		mov	r9, r1
 1634              		.loc 2 513 0
 1635 0008 3849     		ldr	r1, .L136
 1636              	.LVL23:
 1637              		.loc 2 524 0
 1638 000a DFF81C81 		ldr	r8, .L136+60
 1639              		.loc 2 506 0
 1640 000e 9246     		mov	sl, r2
 1641              		.loc 2 513 0
 1642 0010 FFF7FEFF 		bl	chprintf
 1643              	.LVL24:
 1644              		.loc 2 514 0
 1645 0014 2046     		mov	r0, r4
 1646 0016 3649     		ldr	r1, .L136+4
ARM GAS  C:\Users\DNIEL~1\AppData\Local\Temp\ccrXyehP.s 			page 30


 1647 0018 FFF7FEFF 		bl	chprintf
 1648              		.loc 2 515 0
 1649 001c 52E0     		b	.L133
 1650              	.L135:
 1651              		.loc 2 516 0
 1652 001e 0022     		movs	r2, #0
 1653 0020 2046     		mov	r0, r4
 1654 0022 3449     		ldr	r1, .L136+8
 1655 0024 1346     		mov	r3, r2
 1656 0026 FFF7FEFF 		bl	chprintf
 1657              		.loc 2 518 0
 1658 002a B9F1010F 		cmp	r9, #1
 1659 002e 53D1     		bne	.L134
 1660              		.loc 2 520 0
 1661 0030 DAF80000 		ldr	r0, [sl, #0]
 1662 0034 FFF7FEFF 		bl	atol
 1663              	.LVL25:
 1664              		.loc 2 521 0
 1665 0038 85B2     		uxth	r5, r0
 1666 003a 282D     		cmp	r5, #40
 1667 003c 28BF     		it	cs
 1668 003e 2825     		movcs	r5, #40
 1669              	.LVL26:
 1670              		.loc 2 523 0
 1671 0040 2DB2     		sxth	r5, r5
 1672              	.LVL27:
 1673 0042 2046     		mov	r0, r4
 1674 0044 2A46     		mov	r2, r5
 1675 0046 2C49     		ldr	r1, .L136+12
 1676 0048 2823     		movs	r3, #40
 1677 004a FFF7FEFF 		bl	chprintf
 1678              		.loc 2 524 0
 1679 004e 05EB8503 		add	r3, r5, r5, lsl #2
 1680 0052 08EB8306 		add	r6, r8, r3, lsl #2
 1681 0056 2A46     		mov	r2, r5
 1682 0058 58F82330 		ldr	r3, [r8, r3, lsl #2]
 1683 005c 2749     		ldr	r1, .L136+16
 1684 005e 2046     		mov	r0, r4
 1685 0060 FFF7FEFF 		bl	chprintf
 1686              		.loc 2 525 0
 1687 0064 2046     		mov	r0, r4
 1688 0066 2A46     		mov	r2, r5
 1689 0068 3379     		ldrb	r3, [r6, #4]	@ zero_extendqisi2
 1690 006a 2549     		ldr	r1, .L136+20
 1691 006c FFF7FEFF 		bl	chprintf
 1692              		.loc 2 526 0
 1693 0070 2046     		mov	r0, r4
 1694 0072 2A46     		mov	r2, r5
 1695 0074 7379     		ldrb	r3, [r6, #5]	@ zero_extendqisi2
 1696 0076 2349     		ldr	r1, .L136+24
 1697 0078 FFF7FEFF 		bl	chprintf
 1698              		.loc 2 527 0
 1699 007c 2046     		mov	r0, r4
 1700 007e 2A46     		mov	r2, r5
 1701 0080 B379     		ldrb	r3, [r6, #6]	@ zero_extendqisi2
 1702 0082 2149     		ldr	r1, .L136+28
 1703 0084 FFF7FEFF 		bl	chprintf
ARM GAS  C:\Users\DNIEL~1\AppData\Local\Temp\ccrXyehP.s 			page 31


 1704              		.loc 2 528 0
 1705 0088 2046     		mov	r0, r4
 1706 008a 2A46     		mov	r2, r5
 1707 008c F379     		ldrb	r3, [r6, #7]	@ zero_extendqisi2
 1708 008e 1F49     		ldr	r1, .L136+32
 1709 0090 FFF7FEFF 		bl	chprintf
 1710              		.loc 2 529 0
 1711 0094 2046     		mov	r0, r4
 1712 0096 2A46     		mov	r2, r5
 1713 0098 3389     		ldrh	r3, [r6, #8]
 1714 009a 1D49     		ldr	r1, .L136+36
 1715 009c FFF7FEFF 		bl	chprintf
 1716              		.loc 2 530 0
 1717 00a0 2046     		mov	r0, r4
 1718 00a2 2A46     		mov	r2, r5
 1719 00a4 F368     		ldr	r3, [r6, #12]
 1720 00a6 1B49     		ldr	r1, .L136+40
 1721 00a8 FFF7FEFF 		bl	chprintf
 1722              		.loc 2 531 0
 1723 00ac 2A46     		mov	r2, r5
 1724 00ae 338A     		ldrh	r3, [r6, #16]
 1725 00b0 1949     		ldr	r1, .L136+44
 1726 00b2 2046     		mov	r0, r4
 1727 00b4 FFF7FEFF 		bl	chprintf
 1728              		.loc 2 532 0
 1729 00b8 2046     		mov	r0, r4
 1730 00ba 1849     		ldr	r1, .L136+48
 1731 00bc 738A     		ldrh	r3, [r6, #18]
 1732 00be 2A46     		mov	r2, r5
 1733 00c0 FFF7FEFF 		bl	chprintf
 1734              	.L133:
 1735              		.loc 2 515 0 discriminator 1
 1736 00c4 2168     		ldr	r1, [r4, #0]
 1737 00c6 2046     		mov	r0, r4
 1738 00c8 4A69     		ldr	r2, [r1, #20]
 1739 00ca 0021     		movs	r1, #0
 1740 00cc 9047     		blx	r2
 1741 00ce B0F1FF3F 		cmp	r0, #-1
 1742 00d2 A4D0     		beq	.L135
 1743              		.loc 2 541 0
 1744 00d4 BDE8F087 		pop	{r4, r5, r6, r7, r8, r9, sl, pc}
 1745              	.L134:
 1746              		.loc 2 536 0
 1747 00d8 2046     		mov	r0, r4
 1748 00da 1149     		ldr	r1, .L136+52
 1749 00dc FFF7FEFF 		bl	chprintf
 1750              		.loc 2 537 0
 1751 00e0 1049     		ldr	r1, .L136+56
 1752 00e2 2046     		mov	r0, r4
 1753              		.loc 2 541 0
 1754 00e4 BDE8F047 		pop	{r4, r5, r6, r7, r8, r9, sl, lr}
 1755              		.loc 2 537 0
 1756 00e8 FFF7FEBF 		b	chprintf
 1757              	.L137:
 1758              		.align	2
 1759              	.L136:
 1760 00ec 18000000 		.word	.LC2
ARM GAS  C:\Users\DNIEL~1\AppData\Local\Temp\ccrXyehP.s 			page 32


 1761 00f0 1C000000 		.word	.LC3
 1762 00f4 8C000000 		.word	.LC10
 1763 00f8 70040000 		.word	.LC46
 1764 00fc A4040000 		.word	.LC47
 1765 0100 D0040000 		.word	.LC48
 1766 0104 FC040000 		.word	.LC49
 1767 0108 28050000 		.word	.LC50
 1768 010c 54050000 		.word	.LC51
 1769 0110 80050000 		.word	.LC52
 1770 0114 AC050000 		.word	.LC53
 1771 0118 D8050000 		.word	.LC54
 1772 011c 04060000 		.word	.LC55
 1773 0120 30060000 		.word	.LC56
 1774 0124 4C060000 		.word	.LC57
 1775 0128 00000000 		.word	.LANCHOR12
 1776              		.cfi_endproc
 1777              	.LFE125:
 1778              		.size	cmd_candata_lc, .-cmd_candata_lc
 1779 012c AFF30080 		.section	.text.cmd_candata_ml,"ax",%progbits
 1780              		.align	2
 1781              		.p2align 4,,15
 1782              		.global	cmd_candata_ml
 1783              		.thumb
 1784              		.thumb_func
 1785              		.type	cmd_candata_ml, %function
 1786              	cmd_candata_ml:
 1787              	.LFB126:
 1788              		.loc 2 543 0
 1789              		.cfi_startproc
 1790              		@ args = 0, pretend = 0, frame = 0
 1791              		@ frame_needed = 0, uses_anonymous_args = 0
 1792              	.LVL28:
 1793 0000 70B5     		push	{r4, r5, r6, lr}
 1794              	.LCFI12:
 1795              		.cfi_def_cfa_offset 16
 1796              		.loc 2 543 0
 1797 0002 0446     		mov	r4, r0
 1798              		.cfi_offset 14, -4
 1799              		.cfi_offset 6, -8
 1800              		.cfi_offset 5, -12
 1801              		.cfi_offset 4, -16
 1802 0004 0E46     		mov	r6, r1
 1803              		.loc 2 550 0
 1804 0006 2049     		ldr	r1, .L142
 1805              	.LVL29:
 1806              		.loc 2 557 0
 1807 0008 204D     		ldr	r5, .L142+4
 1808              		.loc 2 550 0
 1809 000a FFF7FEFF 		bl	chprintf
 1810              	.LVL30:
 1811              		.loc 2 551 0
 1812 000e 2046     		mov	r0, r4
 1813 0010 1F49     		ldr	r1, .L142+8
 1814 0012 FFF7FEFF 		bl	chprintf
 1815              		.loc 2 552 0
 1816 0016 24E0     		b	.L139
 1817              	.L141:
ARM GAS  C:\Users\DNIEL~1\AppData\Local\Temp\ccrXyehP.s 			page 33


 1818              		.loc 2 553 0
 1819 0018 0022     		movs	r2, #0
 1820 001a 2046     		mov	r0, r4
 1821 001c 1D49     		ldr	r1, .L142+12
 1822 001e 1346     		mov	r3, r2
 1823 0020 FFF7FEFF 		bl	chprintf
 1824              		.loc 2 555 0
 1825 0024 012E     		cmp	r6, #1
 1826 0026 25D1     		bne	.L140
 1827              		.loc 2 556 0
 1828 0028 2046     		mov	r0, r4
 1829 002a 1B49     		ldr	r1, .L142+16
 1830 002c FFF7FEFF 		bl	chprintf
 1831              		.loc 2 557 0
 1832 0030 2046     		mov	r0, r4
 1833 0032 2A68     		ldr	r2, [r5, #0]
 1834 0034 1949     		ldr	r1, .L142+20
 1835 0036 FFF7FEFF 		bl	chprintf
 1836              		.loc 2 558 0
 1837 003a 2046     		mov	r0, r4
 1838 003c AA88     		ldrh	r2, [r5, #4]
 1839 003e 1849     		ldr	r1, .L142+24
 1840 0040 FFF7FEFF 		bl	chprintf
 1841              		.loc 2 559 0
 1842 0044 2046     		mov	r0, r4
 1843 0046 EA88     		ldrh	r2, [r5, #6]
 1844 0048 1649     		ldr	r1, .L142+28
 1845 004a FFF7FEFF 		bl	chprintf
 1846              		.loc 2 560 0
 1847 004e 2046     		mov	r0, r4
 1848 0050 2A89     		ldrh	r2, [r5, #8]
 1849 0052 1549     		ldr	r1, .L142+32
 1850 0054 FFF7FEFF 		bl	chprintf
 1851              		.loc 2 561 0
 1852 0058 2046     		mov	r0, r4
 1853 005a 1449     		ldr	r1, .L142+36
 1854 005c 6A89     		ldrh	r2, [r5, #10]
 1855 005e FFF7FEFF 		bl	chprintf
 1856              	.L139:
 1857              		.loc 2 552 0 discriminator 1
 1858 0062 2168     		ldr	r1, [r4, #0]
 1859 0064 2046     		mov	r0, r4
 1860 0066 4B69     		ldr	r3, [r1, #20]
 1861 0068 0021     		movs	r1, #0
 1862 006a 9847     		blx	r3
 1863 006c B0F1FF3F 		cmp	r0, #-1
 1864 0070 D2D0     		beq	.L141
 1865              		.loc 2 569 0
 1866 0072 70BD     		pop	{r4, r5, r6, pc}
 1867              	.L140:
 1868              		.loc 2 564 0
 1869 0074 2046     		mov	r0, r4
 1870 0076 0E49     		ldr	r1, .L142+40
 1871 0078 FFF7FEFF 		bl	chprintf
 1872              		.loc 2 565 0
 1873 007c 0D49     		ldr	r1, .L142+44
 1874 007e 2046     		mov	r0, r4
ARM GAS  C:\Users\DNIEL~1\AppData\Local\Temp\ccrXyehP.s 			page 34


 1875              		.loc 2 569 0
 1876 0080 BDE87040 		pop	{r4, r5, r6, lr}
 1877              		.loc 2 565 0
 1878 0084 FFF7FEBF 		b	chprintf
 1879              	.L143:
 1880              		.align	2
 1881              	.L142:
 1882 0088 18000000 		.word	.LC2
 1883 008c 00000000 		.word	.LANCHOR11
 1884 0090 1C000000 		.word	.LC3
 1885 0094 8C000000 		.word	.LC10
 1886 0098 64060000 		.word	.LC58
 1887 009c 8C060000 		.word	.LC59
 1888 00a0 AC060000 		.word	.LC60
 1889 00a4 CC060000 		.word	.LC61
 1890 00a8 EC060000 		.word	.LC62
 1891 00ac 0C070000 		.word	.LC63
 1892 00b0 30060000 		.word	.LC56
 1893 00b4 2C070000 		.word	.LC64
 1894              		.cfi_endproc
 1895              	.LFE126:
 1896              		.size	cmd_candata_ml, .-cmd_candata_ml
 1897 00b8 AFF30080 		.section	.text.cmd_candata_bms,"ax",%progbits
 1897      AFF30080 
 1898              		.align	2
 1899              		.p2align 4,,15
 1900              		.global	cmd_candata_bms
 1901              		.thumb
 1902              		.thumb_func
 1903              		.type	cmd_candata_bms, %function
 1904              	cmd_candata_bms:
 1905              	.LFB127:
 1906              		.loc 2 571 0
 1907              		.cfi_startproc
 1908              		@ args = 0, pretend = 0, frame = 0
 1909              		@ frame_needed = 0, uses_anonymous_args = 0
 1910              	.LVL31:
 1911 0000 70B5     		push	{r4, r5, r6, lr}
 1912              	.LCFI13:
 1913              		.cfi_def_cfa_offset 16
 1914              		.loc 2 571 0
 1915 0002 0446     		mov	r4, r0
 1916              		.cfi_offset 14, -4
 1917              		.cfi_offset 6, -8
 1918              		.cfi_offset 5, -12
 1919              		.cfi_offset 4, -16
 1920 0004 0E46     		mov	r6, r1
 1921              		.loc 2 578 0
 1922 0006 5B49     		ldr	r1, .L148
 1923              	.LVL32:
 1924              		.loc 2 586 0
 1925 0008 5B4D     		ldr	r5, .L148+4
 1926              		.loc 2 578 0
 1927 000a FFF7FEFF 		bl	chprintf
 1928              	.LVL33:
 1929              		.loc 2 579 0
 1930 000e 2046     		mov	r0, r4
ARM GAS  C:\Users\DNIEL~1\AppData\Local\Temp\ccrXyehP.s 			page 35


 1931 0010 5A49     		ldr	r1, .L148+8
 1932 0012 FFF7FEFF 		bl	chprintf
 1933              		.loc 2 580 0
 1934 0016 99E0     		b	.L145
 1935              	.L147:
 1936              		.loc 2 581 0
 1937 0018 0022     		movs	r2, #0
 1938 001a 2046     		mov	r0, r4
 1939 001c 5849     		ldr	r1, .L148+12
 1940 001e 1346     		mov	r3, r2
 1941 0020 FFF7FEFF 		bl	chprintf
 1942              		.loc 2 583 0
 1943 0024 012E     		cmp	r6, #1
 1944 0026 40F09B80 		bne	.L146
 1945              		.loc 2 584 0
 1946 002a 2046     		mov	r0, r4
 1947 002c 5549     		ldr	r1, .L148+16
 1948 002e FFF7FEFF 		bl	chprintf
 1949              		.loc 2 585 0
 1950 0032 2046     		mov	r0, r4
 1951 0034 5449     		ldr	r1, .L148+20
 1952 0036 FFF7FEFF 		bl	chprintf
 1953              		.loc 2 586 0
 1954 003a 2046     		mov	r0, r4
 1955 003c 2A68     		ldr	r2, [r5, #0]
 1956 003e 5349     		ldr	r1, .L148+24
 1957 0040 FFF7FEFF 		bl	chprintf
 1958              		.loc 2 587 0
 1959 0044 2046     		mov	r0, r4
 1960 0046 2A79     		ldrb	r2, [r5, #4]	@ zero_extendqisi2
 1961 0048 5149     		ldr	r1, .L148+28
 1962 004a FFF7FEFF 		bl	chprintf
 1963              		.loc 2 588 0
 1964 004e 2046     		mov	r0, r4
 1965 0050 EA88     		ldrh	r2, [r5, #6]
 1966 0052 5049     		ldr	r1, .L148+32
 1967 0054 FFF7FEFF 		bl	chprintf
 1968              		.loc 2 589 0
 1969 0058 2046     		mov	r0, r4
 1970 005a 2A89     		ldrh	r2, [r5, #8]
 1971 005c 4E49     		ldr	r1, .L148+36
 1972 005e FFF7FEFF 		bl	chprintf
 1973              		.loc 2 590 0
 1974 0062 2046     		mov	r0, r4
 1975 0064 AA7A     		ldrb	r2, [r5, #10]	@ zero_extendqisi2
 1976 0066 4D49     		ldr	r1, .L148+40
 1977 0068 FFF7FEFF 		bl	chprintf
 1978              		.loc 2 591 0
 1979 006c 2046     		mov	r0, r4
 1980 006e AA89     		ldrh	r2, [r5, #12]
 1981 0070 4B49     		ldr	r1, .L148+44
 1982 0072 FFF7FEFF 		bl	chprintf
 1983              		.loc 2 592 0
 1984 0076 AA7B     		ldrb	r2, [r5, #14]	@ zero_extendqisi2
 1985 0078 4A49     		ldr	r1, .L148+48
 1986 007a 2046     		mov	r0, r4
 1987 007c FFF7FEFF 		bl	chprintf
ARM GAS  C:\Users\DNIEL~1\AppData\Local\Temp\ccrXyehP.s 			page 36


 1988              		.loc 2 593 0
 1989 0080 2046     		mov	r0, r4
 1990 0082 4949     		ldr	r1, .L148+52
 1991 0084 FFF7FEFF 		bl	chprintf
 1992              		.loc 2 594 0
 1993 0088 2046     		mov	r0, r4
 1994 008a EA7B     		ldrb	r2, [r5, #15]	@ zero_extendqisi2
 1995 008c 4749     		ldr	r1, .L148+56
 1996 008e FFF7FEFF 		bl	chprintf
 1997              		.loc 2 595 0
 1998 0092 2046     		mov	r0, r4
 1999 0094 2A7C     		ldrb	r2, [r5, #16]	@ zero_extendqisi2
 2000 0096 4649     		ldr	r1, .L148+60
 2001 0098 FFF7FEFF 		bl	chprintf
 2002              		.loc 2 596 0
 2003 009c 2046     		mov	r0, r4
 2004 009e 6A8A     		ldrh	r2, [r5, #18]
 2005 00a0 4449     		ldr	r1, .L148+64
 2006 00a2 FFF7FEFF 		bl	chprintf
 2007              		.loc 2 597 0
 2008 00a6 2046     		mov	r0, r4
 2009 00a8 AA8A     		ldrh	r2, [r5, #20]
 2010 00aa 4349     		ldr	r1, .L148+68
 2011 00ac FFF7FEFF 		bl	chprintf
 2012              		.loc 2 598 0
 2013 00b0 EA8A     		ldrh	r2, [r5, #22]
 2014 00b2 4249     		ldr	r1, .L148+72
 2015 00b4 2046     		mov	r0, r4
 2016 00b6 FFF7FEFF 		bl	chprintf
 2017              		.loc 2 599 0
 2018 00ba 2046     		mov	r0, r4
 2019 00bc 4049     		ldr	r1, .L148+76
 2020 00be FFF7FEFF 		bl	chprintf
 2021              		.loc 2 600 0
 2022 00c2 2046     		mov	r0, r4
 2023 00c4 2A8B     		ldrh	r2, [r5, #24]
 2024 00c6 3F49     		ldr	r1, .L148+80
 2025 00c8 FFF7FEFF 		bl	chprintf
 2026              		.loc 2 601 0
 2027 00cc 2046     		mov	r0, r4
 2028 00ce AA7E     		ldrb	r2, [r5, #26]	@ zero_extendqisi2
 2029 00d0 3D49     		ldr	r1, .L148+84
 2030 00d2 FFF7FEFF 		bl	chprintf
 2031              		.loc 2 602 0
 2032 00d6 2046     		mov	r0, r4
 2033 00d8 EA7E     		ldrb	r2, [r5, #27]	@ zero_extendqisi2
 2034 00da 3C49     		ldr	r1, .L148+88
 2035 00dc FFF7FEFF 		bl	chprintf
 2036              		.loc 2 603 0
 2037 00e0 2046     		mov	r0, r4
 2038 00e2 2A7F     		ldrb	r2, [r5, #28]	@ zero_extendqisi2
 2039 00e4 3A49     		ldr	r1, .L148+92
 2040 00e6 FFF7FEFF 		bl	chprintf
 2041              		.loc 2 604 0
 2042 00ea 2046     		mov	r0, r4
 2043 00ec EA8B     		ldrh	r2, [r5, #30]
 2044 00ee 3949     		ldr	r1, .L148+96
ARM GAS  C:\Users\DNIEL~1\AppData\Local\Temp\ccrXyehP.s 			page 37


 2045 00f0 FFF7FEFF 		bl	chprintf
 2046              		.loc 2 605 0
 2047 00f4 95F82020 		ldrb	r2, [r5, #32]	@ zero_extendqisi2
 2048 00f8 3749     		ldr	r1, .L148+100
 2049 00fa 2046     		mov	r0, r4
 2050 00fc FFF7FEFF 		bl	chprintf
 2051              		.loc 2 606 0
 2052 0100 2046     		mov	r0, r4
 2053 0102 3649     		ldr	r1, .L148+104
 2054 0104 FFF7FEFF 		bl	chprintf
 2055              		.loc 2 607 0
 2056 0108 2046     		mov	r0, r4
 2057 010a 6A8C     		ldrh	r2, [r5, #34]
 2058 010c 3449     		ldr	r1, .L148+108
 2059 010e FFF7FEFF 		bl	chprintf
 2060              		.loc 2 608 0
 2061 0112 2046     		mov	r0, r4
 2062 0114 95F82420 		ldrb	r2, [r5, #36]	@ zero_extendqisi2
 2063 0118 3249     		ldr	r1, .L148+112
 2064 011a FFF7FEFF 		bl	chprintf
 2065              		.loc 2 609 0
 2066 011e 2046     		mov	r0, r4
 2067 0120 95F82520 		ldrb	r2, [r5, #37]	@ zero_extendqisi2
 2068 0124 3049     		ldr	r1, .L148+116
 2069 0126 FFF7FEFF 		bl	chprintf
 2070              		.loc 2 610 0
 2071 012a 2046     		mov	r0, r4
 2072 012c 95F82620 		ldrb	r2, [r5, #38]	@ zero_extendqisi2
 2073 0130 2E49     		ldr	r1, .L148+120
 2074 0132 FFF7FEFF 		bl	chprintf
 2075              		.loc 2 611 0
 2076 0136 2046     		mov	r0, r4
 2077 0138 95F82720 		ldrb	r2, [r5, #39]	@ zero_extendqisi2
 2078 013c 2C49     		ldr	r1, .L148+124
 2079 013e FFF7FEFF 		bl	chprintf
 2080              		.loc 2 612 0
 2081 0142 2046     		mov	r0, r4
 2082 0144 2B49     		ldr	r1, .L148+128
 2083 0146 2A8D     		ldrh	r2, [r5, #40]
 2084 0148 FFF7FEFF 		bl	chprintf
 2085              	.L145:
 2086              		.loc 2 580 0 discriminator 1
 2087 014c 2168     		ldr	r1, [r4, #0]
 2088 014e 2046     		mov	r0, r4
 2089 0150 4B69     		ldr	r3, [r1, #20]
 2090 0152 0021     		movs	r1, #0
 2091 0154 9847     		blx	r3
 2092 0156 B0F1FF3F 		cmp	r0, #-1
 2093 015a 3FF45DAF 		beq	.L147
 2094              		.loc 2 621 0
 2095 015e 70BD     		pop	{r4, r5, r6, pc}
 2096              	.L146:
 2097              		.loc 2 616 0
 2098 0160 2046     		mov	r0, r4
 2099 0162 2549     		ldr	r1, .L148+132
 2100 0164 FFF7FEFF 		bl	chprintf
 2101              		.loc 2 617 0
ARM GAS  C:\Users\DNIEL~1\AppData\Local\Temp\ccrXyehP.s 			page 38


 2102 0168 2449     		ldr	r1, .L148+136
 2103 016a 2046     		mov	r0, r4
 2104              		.loc 2 621 0
 2105 016c BDE87040 		pop	{r4, r5, r6, lr}
 2106              		.loc 2 617 0
 2107 0170 FFF7FEBF 		b	chprintf
 2108              	.L149:
 2109              		.align	2
 2110              	.L148:
 2111 0174 18000000 		.word	.LC2
 2112 0178 00000000 		.word	.LANCHOR10
 2113 017c 1C000000 		.word	.LC3
 2114 0180 8C000000 		.word	.LC10
 2115 0184 4C070000 		.word	.LC65
 2116 0188 74070000 		.word	.LC66
 2117 018c 9C070000 		.word	.LC67
 2118 0190 BC070000 		.word	.LC68
 2119 0194 DC070000 		.word	.LC69
 2120 0198 FC070000 		.word	.LC70
 2121 019c 1C080000 		.word	.LC71
 2122 01a0 3C080000 		.word	.LC72
 2123 01a4 5C080000 		.word	.LC73
 2124 01a8 7C080000 		.word	.LC74
 2125 01ac A8080000 		.word	.LC75
 2126 01b0 C8080000 		.word	.LC76
 2127 01b4 E8080000 		.word	.LC77
 2128 01b8 08090000 		.word	.LC78
 2129 01bc 28090000 		.word	.LC79
 2130 01c0 48090000 		.word	.LC80
 2131 01c4 74090000 		.word	.LC81
 2132 01c8 94090000 		.word	.LC82
 2133 01cc B4090000 		.word	.LC83
 2134 01d0 D4090000 		.word	.LC84
 2135 01d4 F4090000 		.word	.LC85
 2136 01d8 140A0000 		.word	.LC86
 2137 01dc 340A0000 		.word	.LC87
 2138 01e0 600A0000 		.word	.LC88
 2139 01e4 800A0000 		.word	.LC89
 2140 01e8 A00A0000 		.word	.LC90
 2141 01ec C00A0000 		.word	.LC91
 2142 01f0 E00A0000 		.word	.LC92
 2143 01f4 000B0000 		.word	.LC93
 2144 01f8 30060000 		.word	.LC56
 2145 01fc 200B0000 		.word	.LC94
 2146              		.cfi_endproc
 2147              	.LFE127:
 2148              		.size	cmd_candata_bms, .-cmd_candata_bms
 2149              		.section	.text.cmd_candata_cell,"ax",%progbits
 2150              		.align	2
 2151              		.p2align 4,,15
 2152              		.global	cmd_candata_cell
 2153              		.thumb
 2154              		.thumb_func
 2155              		.type	cmd_candata_cell, %function
 2156              	cmd_candata_cell:
 2157              	.LFB128:
 2158              		.loc 2 623 0
ARM GAS  C:\Users\DNIEL~1\AppData\Local\Temp\ccrXyehP.s 			page 39


 2159              		.cfi_startproc
 2160              		@ args = 0, pretend = 0, frame = 0
 2161              		@ frame_needed = 0, uses_anonymous_args = 0
 2162              	.LVL34:
 2163 0000 2DE9F047 		push	{r4, r5, r6, r7, r8, r9, sl, lr}
 2164              	.LCFI14:
 2165              		.cfi_def_cfa_offset 32
 2166              		.loc 2 623 0
 2167 0004 0446     		mov	r4, r0
 2168              		.cfi_offset 14, -4
 2169              		.cfi_offset 10, -8
 2170              		.cfi_offset 9, -12
 2171              		.cfi_offset 8, -16
 2172              		.cfi_offset 7, -20
 2173              		.cfi_offset 6, -24
 2174              		.cfi_offset 5, -28
 2175              		.cfi_offset 4, -32
 2176 0006 8846     		mov	r8, r1
 2177              		.loc 2 630 0
 2178 0008 2949     		ldr	r1, .L154
 2179              	.LVL35:
 2180              		.loc 2 641 0
 2181 000a 2A4F     		ldr	r7, .L154+4
 2182              		.loc 2 623 0
 2183 000c 9146     		mov	r9, r2
 2184              		.loc 2 630 0
 2185 000e FFF7FEFF 		bl	chprintf
 2186              	.LVL36:
 2187              		.loc 2 631 0
 2188 0012 2046     		mov	r0, r4
 2189 0014 2849     		ldr	r1, .L154+8
 2190 0016 FFF7FEFF 		bl	chprintf
 2191              		.loc 2 632 0
 2192 001a 34E0     		b	.L151
 2193              	.L153:
 2194              		.loc 2 633 0
 2195 001c 0022     		movs	r2, #0
 2196 001e 2046     		mov	r0, r4
 2197 0020 2649     		ldr	r1, .L154+12
 2198 0022 1346     		mov	r3, r2
 2199 0024 FFF7FEFF 		bl	chprintf
 2200              		.loc 2 635 0
 2201 0028 B8F1010F 		cmp	r8, #1
 2202 002c 35D1     		bne	.L152
 2203              		.loc 2 637 0
 2204 002e D9F80000 		ldr	r0, [r9, #0]
 2205 0032 FFF7FEFF 		bl	atol
 2206              	.LVL37:
 2207              		.loc 2 638 0
 2208 0036 00B2     		sxth	r0, r0
 2209              	.LVL38:
 2210              		.loc 2 640 0
 2211 0038 2228     		cmp	r0, #34
 2212 003a B4BF     		ite	lt
 2213 003c 0546     		movlt	r5, r0
 2214 003e 2225     		movge	r5, #34
 2215 0040 2A46     		mov	r2, r5
ARM GAS  C:\Users\DNIEL~1\AppData\Local\Temp\ccrXyehP.s 			page 40


 2216 0042 2046     		mov	r0, r4
 2217 0044 1E49     		ldr	r1, .L154+16
 2218 0046 2223     		movs	r3, #34
 2219 0048 FFF7FEFF 		bl	chprintf
 2220              		.loc 2 641 0
 2221 004c 05EB4503 		add	r3, r5, r5, lsl #1
 2222 0050 07EB8306 		add	r6, r7, r3, lsl #2
 2223 0054 2A46     		mov	r2, r5
 2224 0056 57F82330 		ldr	r3, [r7, r3, lsl #2]
 2225 005a 1A49     		ldr	r1, .L154+20
 2226 005c 2046     		mov	r0, r4
 2227 005e FFF7FEFF 		bl	chprintf
 2228              		.loc 2 642 0
 2229 0062 2046     		mov	r0, r4
 2230 0064 2A46     		mov	r2, r5
 2231 0066 B388     		ldrh	r3, [r6, #4]
 2232 0068 1749     		ldr	r1, .L154+24
 2233 006a FFF7FEFF 		bl	chprintf
 2234              		.loc 2 643 0
 2235 006e 2046     		mov	r0, r4
 2236 0070 2A46     		mov	r2, r5
 2237 0072 3389     		ldrh	r3, [r6, #8]
 2238 0074 1549     		ldr	r1, .L154+28
 2239 0076 FFF7FEFF 		bl	chprintf
 2240              		.loc 2 644 0
 2241 007a 2046     		mov	r0, r4
 2242 007c 1449     		ldr	r1, .L154+32
 2243 007e F388     		ldrh	r3, [r6, #6]
 2244 0080 2A46     		mov	r2, r5
 2245 0082 FFF7FEFF 		bl	chprintf
 2246              	.L151:
 2247              		.loc 2 632 0 discriminator 1
 2248 0086 2168     		ldr	r1, [r4, #0]
 2249 0088 2046     		mov	r0, r4
 2250 008a 4A69     		ldr	r2, [r1, #20]
 2251 008c 0021     		movs	r1, #0
 2252 008e 9047     		blx	r2
 2253 0090 B0F1FF3F 		cmp	r0, #-1
 2254 0094 C2D0     		beq	.L153
 2255              		.loc 2 653 0
 2256 0096 BDE8F087 		pop	{r4, r5, r6, r7, r8, r9, sl, pc}
 2257              	.L152:
 2258              		.loc 2 648 0
 2259 009a 2046     		mov	r0, r4
 2260 009c 0D49     		ldr	r1, .L154+36
 2261 009e FFF7FEFF 		bl	chprintf
 2262              		.loc 2 649 0
 2263 00a2 0D49     		ldr	r1, .L154+40
 2264 00a4 2046     		mov	r0, r4
 2265              		.loc 2 653 0
 2266 00a6 BDE8F047 		pop	{r4, r5, r6, r7, r8, r9, sl, lr}
 2267              		.loc 2 649 0
 2268 00aa FFF7FEBF 		b	chprintf
 2269              	.L155:
 2270 00ae 00BF     		.align	2
 2271              	.L154:
 2272 00b0 18000000 		.word	.LC2
ARM GAS  C:\Users\DNIEL~1\AppData\Local\Temp\ccrXyehP.s 			page 41


 2273 00b4 00000000 		.word	.LANCHOR9
 2274 00b8 1C000000 		.word	.LC3
 2275 00bc 8C000000 		.word	.LC10
 2276 00c0 3C0B0000 		.word	.LC95
 2277 00c4 700B0000 		.word	.LC96
 2278 00c8 980B0000 		.word	.LC97
 2279 00cc C00B0000 		.word	.LC98
 2280 00d0 E80B0000 		.word	.LC99
 2281 00d4 30060000 		.word	.LC56
 2282 00d8 100C0000 		.word	.LC100
 2283              		.cfi_endproc
 2284              	.LFE128:
 2285              		.size	cmd_candata_cell, .-cmd_candata_cell
 2286 00dc AFF30080 		.section	.text.cmd_lcSleep,"ax",%progbits
 2287              		.align	2
 2288              		.p2align 4,,15
 2289              		.global	cmd_lcSleep
 2290              		.thumb
 2291              		.thumb_func
 2292              		.type	cmd_lcSleep, %function
 2293              	cmd_lcSleep:
 2294              	.LFB129:
 2295              		.loc 2 655 0
 2296              		.cfi_startproc
 2297              		@ args = 0, pretend = 0, frame = 0
 2298              		@ frame_needed = 0, uses_anonymous_args = 0
 2299              		@ link register save eliminated.
 2300              	.LVL39:
 2301              		.loc 2 657 0
 2302 0000 0149     		ldr	r1, .L157
 2303              	.LVL40:
 2304              		.loc 2 658 0
 2305              		.loc 2 657 0
 2306 0002 FFF7FEBF 		b	chprintf
 2307              	.LVL41:
 2308              	.L158:
 2309 0006 00BF     		.align	2
 2310              	.L157:
 2311 0008 240C0000 		.word	.LC101
 2312              		.cfi_endproc
 2313              	.LFE129:
 2314              		.size	cmd_lcSleep, .-cmd_lcSleep
 2315 000c AFF30080 		.section	.text.cmd_canmonitor,"ax",%progbits
 2316              		.align	2
 2317              		.p2align 4,,15
 2318              		.global	cmd_canmonitor
 2319              		.thumb
 2320              		.thumb_func
 2321              		.type	cmd_canmonitor, %function
 2322              	cmd_canmonitor:
 2323              	.LFB130:
 2324              		.loc 2 660 0
 2325              		.cfi_startproc
 2326              		@ args = 0, pretend = 0, frame = 0
 2327              		@ frame_needed = 0, uses_anonymous_args = 0
 2328              	.LVL42:
 2329 0000 2DE9F04F 		push	{r4, r5, r6, r7, r8, r9, sl, fp, lr}
ARM GAS  C:\Users\DNIEL~1\AppData\Local\Temp\ccrXyehP.s 			page 42


 2330              	.LCFI15:
 2331              		.cfi_def_cfa_offset 36
 2332              		.loc 2 665 0
 2333 0004 4649     		ldr	r1, .L175
 2334              	.LVL43:
 2335              		.loc 2 669 0
 2336 0006 474D     		ldr	r5, .L175+4
 2337              		.cfi_offset 14, -4
 2338              		.cfi_offset 11, -8
 2339              		.cfi_offset 10, -12
 2340              		.cfi_offset 9, -16
 2341              		.cfi_offset 8, -20
 2342              		.cfi_offset 7, -24
 2343              		.cfi_offset 6, -28
 2344              		.cfi_offset 5, -32
 2345              		.cfi_offset 4, -36
 2346              		.loc 2 671 0
 2347 0008 DFF850B1 		ldr	fp, .L175+60
 2348              		.loc 2 660 0
 2349 000c 0446     		mov	r4, r0
 2350 000e 89B0     		sub	sp, sp, #36
 2351              	.LCFI16:
 2352              		.cfi_def_cfa_offset 72
 2353              		.loc 2 665 0
 2354 0010 FFF7FEFF 		bl	chprintf
 2355              	.LVL44:
 2356              		.loc 2 666 0
 2357 0014 2046     		mov	r0, r4
 2358 0016 4449     		ldr	r1, .L175+8
 2359 0018 FFF7FEFF 		bl	chprintf
 2360              		.loc 2 667 0
 2361 001c 34E0     		b	.L171
 2362              	.L174:
 2363              		.loc 2 672 0
 2364 001e 022B     		cmp	r3, #2
 2365 0020 79D0     		beq	.L166
 2366              		.loc 2 673 0
 2367 0022 032B     		cmp	r3, #3
 2368 0024 79D0     		beq	.L167
 2369              		.loc 2 674 0
 2370 0026 414A     		ldr	r2, .L175+12
 2371 0028 4149     		ldr	r1, .L175+16
 2372 002a 042B     		cmp	r3, #4
 2373 002c 18BF     		it	ne
 2374 002e 0A46     		movne	r2, r1
 2375              	.L162:
 2376              		.loc 2 670 0 discriminator 2
 2377 0030 2046     		mov	r0, r4
 2378 0032 4049     		ldr	r1, .L175+20
 2379              		.loc 2 676 0 discriminator 2
 2380 0034 404F     		ldr	r7, .L175+24
 2381              		.loc 2 670 0 discriminator 2
 2382 0036 FFF7FEFF 		bl	chprintf
 2383              		.loc 2 679 0 discriminator 2
 2384 003a 4049     		ldr	r1, .L175+28
 2385              		.loc 2 676 0 discriminator 2
 2386 003c 404A     		ldr	r2, .L175+32
ARM GAS  C:\Users\DNIEL~1\AppData\Local\Temp\ccrXyehP.s 			page 43


 2387 003e 087B     		ldrb	r0, [r1, #12]	@ zero_extendqisi2
 2388 0040 3B88     		ldrh	r3, [r7, #0]
 2389 0042 91F80DE0 		ldrb	lr, [r1, #13]	@ zero_extendqisi2
 2390 0046 8F7B     		ldrb	r7, [r1, #14]	@ zero_extendqisi2
 2391 0048 91F80FC0 		ldrb	ip, [r1, #15]	@ zero_extendqisi2
 2392 004c 91F81080 		ldrb	r8, [r1, #16]	@ zero_extendqisi2
 2393 0050 91F81190 		ldrb	r9, [r1, #17]	@ zero_extendqisi2
 2394 0054 91F812A0 		ldrb	sl, [r1, #18]	@ zero_extendqisi2
 2395 0058 CE7C     		ldrb	r6, [r1, #19]	@ zero_extendqisi2
 2396 005a 1288     		ldrh	r2, [r2, #0]
 2397 005c 3949     		ldr	r1, .L175+36
 2398 005e 0090     		str	r0, [sp, #0]
 2399 0060 2046     		mov	r0, r4
 2400 0062 CDF804E0 		str	lr, [sp, #4]
 2401 0066 0297     		str	r7, [sp, #8]
 2402 0068 CDF80CC0 		str	ip, [sp, #12]
 2403 006c CDF81080 		str	r8, [sp, #16]
 2404 0070 CDF81490 		str	r9, [sp, #20]
 2405 0074 CDF818A0 		str	sl, [sp, #24]
 2406 0078 0796     		str	r6, [sp, #28]
 2407 007a FFF7FEFF 		bl	chprintf
 2408              		.loc 2 689 0 discriminator 2
 2409 007e 0020     		movs	r0, #0
 2410 0080 2870     		strb	r0, [r5, #0]
 2411              	.L161:
 2412              		.loc 2 691 0
 2413 0082 314E     		ldr	r6, .L175+40
 2414 0084 3378     		ldrb	r3, [r6, #0]	@ zero_extendqisi2
 2415 0086 83B9     		cbnz	r3, .L172
 2416              	.L171:
 2417              		.loc 2 667 0 discriminator 1
 2418 0088 2168     		ldr	r1, [r4, #0]
 2419 008a 2046     		mov	r0, r4
 2420 008c 4B69     		ldr	r3, [r1, #20]
 2421 008e 0021     		movs	r1, #0
 2422 0090 9847     		blx	r3
 2423 0092 B0F1FF3F 		cmp	r0, #-1
 2424 0096 3BD1     		bne	.L173
 2425              	.L164:
 2426              		.loc 2 669 0
 2427 0098 2B78     		ldrb	r3, [r5, #0]	@ zero_extendqisi2
 2428 009a 002B     		cmp	r3, #0
 2429 009c F1D0     		beq	.L161
 2430              		.loc 2 670 0
 2431 009e 9BF90030 		ldrsb	r3, [fp, #0]
 2432 00a2 012B     		cmp	r3, #1
 2433 00a4 BBD1     		bne	.L174
 2434 00a6 294A     		ldr	r2, .L175+44
 2435 00a8 C2E7     		b	.L162
 2436              	.L172:
 2437              		.loc 2 692 0
 2438 00aa 2046     		mov	r0, r4
 2439 00ac 2149     		ldr	r1, .L175+20
 2440 00ae 284A     		ldr	r2, .L175+48
 2441 00b0 FFF7FEFF 		bl	chprintf
 2442              		.loc 2 694 0
 2443 00b4 2748     		ldr	r0, .L175+52
ARM GAS  C:\Users\DNIEL~1\AppData\Local\Temp\ccrXyehP.s 			page 44


 2444              		.loc 2 693 0
 2445 00b6 2349     		ldr	r1, .L175+36
 2446 00b8 877A     		ldrb	r7, [r0, #10]	@ zero_extendqisi2
 2447              		.loc 2 694 0
 2448 00ba 4368     		ldr	r3, [r0, #4]
 2449              		.loc 2 693 0
 2450 00bc 027A     		ldrb	r2, [r0, #8]	@ zero_extendqisi2
 2451 00be 90F809E0 		ldrb	lr, [r0, #9]	@ zero_extendqisi2
 2452 00c2 0297     		str	r7, [sp, #8]
 2453 00c4 877B     		ldrb	r7, [r0, #14]	@ zero_extendqisi2
 2454 00c6 90F80BC0 		ldrb	ip, [r0, #11]	@ zero_extendqisi2
 2455 00ca 90F80C80 		ldrb	r8, [r0, #12]	@ zero_extendqisi2
 2456 00ce 90F80D90 		ldrb	r9, [r0, #13]	@ zero_extendqisi2
 2457 00d2 0697     		str	r7, [sp, #24]
 2458 00d4 90F80FA0 		ldrb	sl, [r0, #15]	@ zero_extendqisi2
 2459 00d8 0092     		str	r2, [sp, #0]
 2460              		.loc 2 694 0
 2461 00da C3F31C03 		ubfx	r3, r3, #0, #29
 2462              		.loc 2 693 0
 2463 00de 1A0A     		lsrs	r2, r3, #8
 2464 00e0 2046     		mov	r0, r4
 2465 00e2 DBB2     		uxtb	r3, r3
 2466 00e4 CDF804E0 		str	lr, [sp, #4]
 2467 00e8 CDF80CC0 		str	ip, [sp, #12]
 2468 00ec CDF81080 		str	r8, [sp, #16]
 2469 00f0 CDF81490 		str	r9, [sp, #20]
 2470 00f4 CDF81CA0 		str	sl, [sp, #28]
 2471 00f8 FFF7FEFF 		bl	chprintf
 2472              		.loc 2 667 0
 2473 00fc 2168     		ldr	r1, [r4, #0]
 2474              		.loc 2 706 0
 2475 00fe 0020     		movs	r0, #0
 2476 0100 3070     		strb	r0, [r6, #0]
 2477              		.loc 2 667 0
 2478 0102 4B69     		ldr	r3, [r1, #20]
 2479 0104 2046     		mov	r0, r4
 2480 0106 0021     		movs	r1, #0
 2481 0108 9847     		blx	r3
 2482 010a B0F1FF3F 		cmp	r0, #-1
 2483 010e C3D0     		beq	.L164
 2484              	.L173:
 2485              		.loc 2 710 0
 2486 0110 09B0     		add	sp, sp, #36
 2487 0112 BDE8F08F 		pop	{r4, r5, r6, r7, r8, r9, sl, fp, pc}
 2488              	.L166:
 2489              		.loc 2 672 0
 2490 0116 0E4A     		ldr	r2, .L175+48
 2491 0118 8AE7     		b	.L162
 2492              	.L167:
 2493              		.loc 2 673 0
 2494 011a 0F4A     		ldr	r2, .L175+56
 2495 011c 88E7     		b	.L162
 2496              	.L176:
 2497 011e 00BF     		.align	2
 2498              	.L175:
 2499 0120 18000000 		.word	.LC2
 2500 0124 00000000 		.word	.LANCHOR6
ARM GAS  C:\Users\DNIEL~1\AppData\Local\Temp\ccrXyehP.s 			page 45


 2501 0128 1C000000 		.word	.LC3
 2502 012c 440C0000 		.word	.LC106
 2503 0130 400C0000 		.word	.LC105
 2504 0134 480C0000 		.word	.LC107
 2505 0138 00000000 		.word	.LANCHOR5
 2506 013c 00000000 		.word	.LANCHOR3
 2507 0140 00000000 		.word	.LANCHOR4
 2508 0144 500C0000 		.word	.LC108
 2509 0148 00000000 		.word	.LANCHOR2
 2510 014c 380C0000 		.word	.LC103
 2511 0150 340C0000 		.word	.LC102
 2512 0154 00000000 		.word	.LANCHOR1
 2513 0158 3C0C0000 		.word	.LC104
 2514 015c 00000000 		.word	.LANCHOR8
 2515              		.cfi_endproc
 2516              	.LFE130:
 2517              		.size	cmd_canmonitor, .-cmd_canmonitor
 2518              		.global	canstate
 2519              		.global	canlight
 2520              		.global	canmessages
 2521              		.section	.bss.can_tx_wa,"aw",%nobits
 2522              		.align	3
 2523              		.set	.LANCHOR15,. + 0
 2524              		.type	can_tx_wa, %object
 2525              		.size	can_tx_wa, 464
 2526              	can_tx_wa:
 2527 0000 00000000 		.space	464
 2527      00000000 
 2527      00000000 
 2527      00000000 
 2527      00000000 
 2528              		.section	.bss.canlight,"aw",%nobits
 2529              		.type	canlight, %object
 2530              		.size	canlight, 1
 2531              	canlight:
 2532 0000 00       		.space	1
 2533              		.section	.bss.canmessages,"aw",%nobits
 2534              		.type	canmessages, %object
 2535              		.size	canmessages, 1
 2536              	canmessages:
 2537 0000 00       		.space	1
 2538              		.section	.bss.rx_id,"aw",%nobits
 2539              		.align	1
 2540              		.set	.LANCHOR4,. + 0
 2541              		.type	rx_id, %object
 2542              		.size	rx_id, 2
 2543              	rx_id:
 2544 0000 0000     		.space	2
 2545              		.section	.bss.txmsg,"aw",%nobits
 2546              		.align	2
 2547              		.set	.LANCHOR1,. + 0
 2548              		.type	txmsg, %object
 2549              		.size	txmsg, 16
 2550              	txmsg:
 2551 0000 00000000 		.space	16
 2551      00000000 
 2551      00000000 
ARM GAS  C:\Users\DNIEL~1\AppData\Local\Temp\ccrXyehP.s 			page 46


 2551      00000000 
 2552              		.section	.bss.bmsitems,"aw",%nobits
 2553              		.align	2
 2554              		.set	.LANCHOR10,. + 0
 2555              		.type	bmsitems, %object
 2556              		.size	bmsitems, 44
 2557              	bmsitems:
 2558 0000 00000000 		.space	44
 2558      00000000 
 2558      00000000 
 2558      00000000 
 2558      00000000 
 2559              		.section	.bss.message_status,"aw",%nobits
 2560              		.align	2
 2561              		.set	.LANCHOR0,. + 0
 2562              		.type	message_status, %object
 2563              		.size	message_status, 4
 2564              	message_status:
 2565 0000 00000000 		.space	4
 2566              		.section	.rodata.cancfg,"a",%progbits
 2567              		.align	2
 2568              		.set	.LANCHOR13,. + 0
 2569              		.type	cancfg, %object
 2570              		.size	cancfg, 8
 2571              	cancfg:
 2572 0000 40000000 		.word	64
 2573 0004 06001800 		.word	1572870
 2574              		.section	.data.cellitems,"aw",%progbits
 2575              		.align	2
 2576              		.set	.LANCHOR9,. + 0
 2577              		.type	cellitems, %object
 2578              		.size	cellitems, 408
 2579              	cellitems:
 2580 0000 00000000 		.word	0
 2581 0004 0000     		.short	0
 2582 0006 0000     		.short	0
 2583 0008 0000     		.short	0
 2584 000a 0000     		.space	2
 2585 000c 01000000 		.word	1
 2586 0010 0000     		.short	0
 2587 0012 0000     		.short	0
 2588 0014 0000     		.short	0
 2589 0016 0000     		.space	2
 2590 0018 02000000 		.word	2
 2591 001c 0000     		.short	0
 2592 001e 0000     		.short	0
 2593 0020 0000     		.short	0
 2594 0022 0000     		.space	2
 2595 0024 03000000 		.word	3
 2596 0028 0000     		.short	0
 2597 002a 0000     		.short	0
 2598 002c 0000     		.short	0
 2599 002e 0000     		.space	2
 2600 0030 04000000 		.word	4
 2601 0034 0000     		.short	0
 2602 0036 0000     		.short	0
 2603 0038 0000     		.short	0
ARM GAS  C:\Users\DNIEL~1\AppData\Local\Temp\ccrXyehP.s 			page 47


 2604 003a 0000     		.space	2
 2605 003c 05000000 		.word	5
 2606 0040 0000     		.short	0
 2607 0042 0000     		.short	0
 2608 0044 0000     		.short	0
 2609 0046 0000     		.space	2
 2610 0048 06000000 		.word	6
 2611 004c 0000     		.short	0
 2612 004e 0000     		.short	0
 2613 0050 0000     		.short	0
 2614 0052 0000     		.space	2
 2615 0054 07000000 		.word	7
 2616 0058 0000     		.short	0
 2617 005a 0000     		.short	0
 2618 005c 0000     		.short	0
 2619 005e 0000     		.space	2
 2620 0060 08000000 		.word	8
 2621 0064 0000     		.short	0
 2622 0066 0000     		.short	0
 2623 0068 0000     		.short	0
 2624 006a 0000     		.space	2
 2625 006c 09000000 		.word	9
 2626 0070 0000     		.short	0
 2627 0072 0000     		.short	0
 2628 0074 0000     		.short	0
 2629 0076 0000     		.space	2
 2630 0078 0A000000 		.word	10
 2631 007c 0000     		.short	0
 2632 007e 0000     		.short	0
 2633 0080 0000     		.short	0
 2634 0082 0000     		.space	2
 2635 0084 0B000000 		.word	11
 2636 0088 0000     		.short	0
 2637 008a 0000     		.short	0
 2638 008c 0000     		.short	0
 2639 008e 0000     		.space	2
 2640 0090 0C000000 		.word	12
 2641 0094 0000     		.short	0
 2642 0096 0000     		.short	0
 2643 0098 0000     		.short	0
 2644 009a 0000     		.space	2
 2645 009c 0D000000 		.word	13
 2646 00a0 0000     		.short	0
 2647 00a2 0000     		.short	0
 2648 00a4 0000     		.short	0
 2649 00a6 0000     		.space	2
 2650 00a8 0E000000 		.word	14
 2651 00ac 0000     		.short	0
 2652 00ae 0000     		.short	0
 2653 00b0 0000     		.short	0
 2654 00b2 0000     		.space	2
 2655 00b4 0F000000 		.word	15
 2656 00b8 0000     		.short	0
 2657 00ba 0000     		.short	0
 2658 00bc 0000     		.short	0
 2659 00be 0000     		.space	2
 2660 00c0 10000000 		.word	16
ARM GAS  C:\Users\DNIEL~1\AppData\Local\Temp\ccrXyehP.s 			page 48


 2661 00c4 0000     		.short	0
 2662 00c6 0000     		.short	0
 2663 00c8 0000     		.short	0
 2664 00ca 0000     		.space	2
 2665 00cc 11000000 		.word	17
 2666 00d0 0000     		.short	0
 2667 00d2 0000     		.short	0
 2668 00d4 0000     		.short	0
 2669 00d6 0000     		.space	2
 2670 00d8 12000000 		.word	18
 2671 00dc 0000     		.short	0
 2672 00de 0000     		.short	0
 2673 00e0 0000     		.short	0
 2674 00e2 0000     		.space	2
 2675 00e4 13000000 		.word	19
 2676 00e8 0000     		.short	0
 2677 00ea 0000     		.short	0
 2678 00ec 0000     		.short	0
 2679 00ee 0000     		.space	2
 2680 00f0 14000000 		.word	20
 2681 00f4 0000     		.short	0
 2682 00f6 0000     		.short	0
 2683 00f8 0000     		.short	0
 2684 00fa 0000     		.space	2
 2685 00fc 15000000 		.word	21
 2686 0100 0000     		.short	0
 2687 0102 0000     		.short	0
 2688 0104 0000     		.short	0
 2689 0106 0000     		.space	2
 2690 0108 16000000 		.word	22
 2691 010c 0000     		.short	0
 2692 010e 0000     		.short	0
 2693 0110 0000     		.short	0
 2694 0112 0000     		.space	2
 2695 0114 17000000 		.word	23
 2696 0118 0000     		.short	0
 2697 011a 0000     		.short	0
 2698 011c 0000     		.short	0
 2699 011e 0000     		.space	2
 2700 0120 18000000 		.word	24
 2701 0124 0000     		.short	0
 2702 0126 0000     		.short	0
 2703 0128 0000     		.short	0
 2704 012a 0000     		.space	2
 2705 012c 19000000 		.word	25
 2706 0130 0000     		.short	0
 2707 0132 0000     		.short	0
 2708 0134 0000     		.short	0
 2709 0136 0000     		.space	2
 2710 0138 1A000000 		.word	26
 2711 013c 0000     		.short	0
 2712 013e 0000     		.short	0
 2713 0140 0000     		.short	0
 2714 0142 0000     		.space	2
 2715 0144 1B000000 		.word	27
 2716 0148 0000     		.short	0
 2717 014a 0000     		.short	0
ARM GAS  C:\Users\DNIEL~1\AppData\Local\Temp\ccrXyehP.s 			page 49


 2718 014c 0000     		.short	0
 2719 014e 0000     		.space	2
 2720 0150 1C000000 		.word	28
 2721 0154 0000     		.short	0
 2722 0156 0000     		.short	0
 2723 0158 0000     		.short	0
 2724 015a 0000     		.space	2
 2725 015c 1C000000 		.word	28
 2726 0160 0000     		.short	0
 2727 0162 0000     		.short	0
 2728 0164 0000     		.short	0
 2729 0166 0000     		.space	2
 2730 0168 1E000000 		.word	30
 2731 016c 0000     		.short	0
 2732 016e 0000     		.short	0
 2733 0170 0000     		.short	0
 2734 0172 0000     		.space	2
 2735 0174 1F000000 		.word	31
 2736 0178 0000     		.short	0
 2737 017a 0000     		.short	0
 2738 017c 0000     		.short	0
 2739 017e 0000     		.space	2
 2740 0180 20000000 		.word	32
 2741 0184 0000     		.short	0
 2742 0186 0000     		.short	0
 2743 0188 0000     		.short	0
 2744 018a 0000     		.space	2
 2745 018c 21000000 		.word	33
 2746 0190 0000     		.short	0
 2747 0192 0000     		.short	0
 2748 0194 0000     		.short	0
 2749 0196 0000     		.space	2
 2750              		.section	.bss.mlitems,"aw",%nobits
 2751              		.align	2
 2752              		.set	.LANCHOR11,. + 0
 2753              		.type	mlitems, %object
 2754              		.size	mlitems, 12
 2755              	mlitems:
 2756 0000 00000000 		.space	12
 2756      00000000 
 2756      00000000 
 2757              		.section	.bss.sender,"aw",%nobits
 2758              		.set	.LANCHOR8,. + 0
 2759              		.type	sender, %object
 2760              		.size	sender, 1
 2761              	sender:
 2762 0000 00       		.space	1
 2763              		.section	.data.lcitems,"aw",%progbits
 2764              		.align	2
 2765              		.set	.LANCHOR12,. + 0
 2766              		.type	lcitems, %object
 2767              		.size	lcitems, 640
 2768              	lcitems:
 2769 0000 40000000 		.word	64
 2770 0004 00       		.byte	0
 2771 0005 00       		.byte	0
 2772 0006 00       		.byte	0
ARM GAS  C:\Users\DNIEL~1\AppData\Local\Temp\ccrXyehP.s 			page 50


 2773 0007 00       		.byte	0
 2774 0008 0000     		.short	0
 2775 000a 0000     		.space	2
 2776 000c 00000000 		.word	0
 2777 0010 0000     		.short	0
 2778 0012 0000     		.short	0
 2779 0014 41000000 		.word	65
 2780 0018 00       		.byte	0
 2781 0019 00       		.byte	0
 2782 001a 00       		.byte	0
 2783 001b 00       		.byte	0
 2784 001c 0000     		.short	0
 2785 001e 0000     		.space	2
 2786 0020 00000000 		.word	0
 2787 0024 0000     		.short	0
 2788 0026 0000     		.short	0
 2789 0028 42000000 		.word	66
 2790 002c 00       		.byte	0
 2791 002d 00       		.byte	0
 2792 002e 00       		.byte	0
 2793 002f 00       		.byte	0
 2794 0030 0000     		.short	0
 2795 0032 0000     		.space	2
 2796 0034 00000000 		.word	0
 2797 0038 0000     		.short	0
 2798 003a 0000     		.short	0
 2799 003c 43000000 		.word	67
 2800 0040 00       		.byte	0
 2801 0041 00       		.byte	0
 2802 0042 00       		.byte	0
 2803 0043 00       		.byte	0
 2804 0044 0000     		.short	0
 2805 0046 0000     		.space	2
 2806 0048 00000000 		.word	0
 2807 004c 0000     		.short	0
 2808 004e 0000     		.short	0
 2809 0050 44000000 		.word	68
 2810 0054 00       		.byte	0
 2811 0055 00       		.byte	0
 2812 0056 00       		.byte	0
 2813 0057 00       		.byte	0
 2814 0058 0000     		.short	0
 2815 005a 0000     		.space	2
 2816 005c 00000000 		.word	0
 2817 0060 0000     		.short	0
 2818 0062 0000     		.short	0
 2819 0064 45000000 		.word	69
 2820 0068 00       		.byte	0
 2821 0069 00       		.byte	0
 2822 006a 00       		.byte	0
 2823 006b 00       		.byte	0
 2824 006c 0000     		.short	0
 2825 006e 0000     		.space	2
 2826 0070 00000000 		.word	0
 2827 0074 0000     		.short	0
 2828 0076 0000     		.short	0
 2829 0078 46000000 		.word	70
ARM GAS  C:\Users\DNIEL~1\AppData\Local\Temp\ccrXyehP.s 			page 51


 2830 007c 00       		.byte	0
 2831 007d 00       		.byte	0
 2832 007e 00       		.byte	0
 2833 007f 00       		.byte	0
 2834 0080 0000     		.short	0
 2835 0082 0000     		.space	2
 2836 0084 00000000 		.word	0
 2837 0088 0000     		.short	0
 2838 008a 0000     		.short	0
 2839 008c 47000000 		.word	71
 2840 0090 00       		.byte	0
 2841 0091 00       		.byte	0
 2842 0092 00       		.byte	0
 2843 0093 00       		.byte	0
 2844 0094 0000     		.short	0
 2845 0096 0000     		.space	2
 2846 0098 00000000 		.word	0
 2847 009c 0000     		.short	0
 2848 009e 0000     		.short	0
 2849 00a0 48000000 		.word	72
 2850 00a4 00       		.byte	0
 2851 00a5 00       		.byte	0
 2852 00a6 00       		.byte	0
 2853 00a7 00       		.byte	0
 2854 00a8 0000     		.short	0
 2855 00aa 0000     		.space	2
 2856 00ac 00000000 		.word	0
 2857 00b0 0000     		.short	0
 2858 00b2 0000     		.short	0
 2859 00b4 49000000 		.word	73
 2860 00b8 00       		.byte	0
 2861 00b9 00       		.byte	0
 2862 00ba 00       		.byte	0
 2863 00bb 00       		.byte	0
 2864 00bc 0000     		.short	0
 2865 00be 0000     		.space	2
 2866 00c0 00000000 		.word	0
 2867 00c4 0000     		.short	0
 2868 00c6 0000     		.short	0
 2869 00c8 4A000000 		.word	74
 2870 00cc 00       		.byte	0
 2871 00cd 00       		.byte	0
 2872 00ce 00       		.byte	0
 2873 00cf 00       		.byte	0
 2874 00d0 0000     		.short	0
 2875 00d2 0000     		.space	2
 2876 00d4 00000000 		.word	0
 2877 00d8 0000     		.short	0
 2878 00da 0000     		.short	0
 2879 00dc 4B000000 		.word	75
 2880 00e0 00       		.byte	0
 2881 00e1 00       		.byte	0
 2882 00e2 00       		.byte	0
 2883 00e3 00       		.byte	0
 2884 00e4 0000     		.short	0
 2885 00e6 0000     		.space	2
 2886 00e8 00000000 		.word	0
ARM GAS  C:\Users\DNIEL~1\AppData\Local\Temp\ccrXyehP.s 			page 52


 2887 00ec 0000     		.short	0
 2888 00ee 0000     		.short	0
 2889 00f0 4C000000 		.word	76
 2890 00f4 00       		.byte	0
 2891 00f5 00       		.byte	0
 2892 00f6 00       		.byte	0
 2893 00f7 00       		.byte	0
 2894 00f8 0000     		.short	0
 2895 00fa 0000     		.space	2
 2896 00fc 00000000 		.word	0
 2897 0100 0000     		.short	0
 2898 0102 0000     		.short	0
 2899 0104 4D000000 		.word	77
 2900 0108 00       		.byte	0
 2901 0109 00       		.byte	0
 2902 010a 00       		.byte	0
 2903 010b 00       		.byte	0
 2904 010c 0000     		.short	0
 2905 010e 0000     		.space	2
 2906 0110 00000000 		.word	0
 2907 0114 0000     		.short	0
 2908 0116 0000     		.short	0
 2909 0118 4E000000 		.word	78
 2910 011c 00       		.byte	0
 2911 011d 00       		.byte	0
 2912 011e 00       		.byte	0
 2913 011f 00       		.byte	0
 2914 0120 0000     		.short	0
 2915 0122 0000     		.space	2
 2916 0124 00000000 		.word	0
 2917 0128 0000     		.short	0
 2918 012a 0000     		.short	0
 2919 012c 4F000000 		.word	79
 2920 0130 00       		.byte	0
 2921 0131 00       		.byte	0
 2922 0132 00       		.byte	0
 2923 0133 00       		.byte	0
 2924 0134 0000     		.short	0
 2925 0136 0000     		.space	2
 2926 0138 00000000 		.word	0
 2927 013c 0000     		.short	0
 2928 013e 0000     		.short	0
 2929 0140 50000000 		.word	80
 2930 0144 00       		.byte	0
 2931 0145 00       		.byte	0
 2932 0146 00       		.byte	0
 2933 0147 00       		.byte	0
 2934 0148 0000     		.short	0
 2935 014a 0000     		.space	2
 2936 014c 00000000 		.word	0
 2937 0150 0000     		.short	0
 2938 0152 0000     		.short	0
 2939 0154 51000000 		.word	81
 2940 0158 00       		.byte	0
 2941 0159 00       		.byte	0
 2942 015a 00       		.byte	0
 2943 015b 00       		.byte	0
ARM GAS  C:\Users\DNIEL~1\AppData\Local\Temp\ccrXyehP.s 			page 53


 2944 015c 0000     		.short	0
 2945 015e 0000     		.space	2
 2946 0160 00000000 		.word	0
 2947 0164 0000     		.short	0
 2948 0166 0000     		.short	0
 2949 0168 52000000 		.word	82
 2950 016c 00       		.byte	0
 2951 016d 00       		.byte	0
 2952 016e 00       		.byte	0
 2953 016f 00       		.byte	0
 2954 0170 0000     		.short	0
 2955 0172 0000     		.space	2
 2956 0174 00000000 		.word	0
 2957 0178 0000     		.short	0
 2958 017a 0000     		.short	0
 2959 017c 53000000 		.word	83
 2960 0180 00       		.byte	0
 2961 0181 00       		.byte	0
 2962 0182 00       		.byte	0
 2963 0183 00       		.byte	0
 2964 0184 0000     		.short	0
 2965 0186 0000     		.space	2
 2966 0188 00000000 		.word	0
 2967 018c 0000     		.short	0
 2968 018e 0000     		.short	0
 2969 0190 54000000 		.word	84
 2970 0194 00       		.byte	0
 2971 0195 00       		.byte	0
 2972 0196 00       		.byte	0
 2973 0197 00       		.byte	0
 2974 0198 0000     		.short	0
 2975 019a 0000     		.space	2
 2976 019c 00000000 		.word	0
 2977 01a0 0000     		.short	0
 2978 01a2 0000     		.short	0
 2979 01a4 55000000 		.word	85
 2980 01a8 00       		.byte	0
 2981 01a9 00       		.byte	0
 2982 01aa 00       		.byte	0
 2983 01ab 00       		.byte	0
 2984 01ac 0000     		.short	0
 2985 01ae 0000     		.space	2
 2986 01b0 00000000 		.word	0
 2987 01b4 0000     		.short	0
 2988 01b6 0000     		.short	0
 2989 01b8 56000000 		.word	86
 2990 01bc 00       		.byte	0
 2991 01bd 00       		.byte	0
 2992 01be 00       		.byte	0
 2993 01bf 00       		.byte	0
 2994 01c0 0000     		.short	0
 2995 01c2 0000     		.space	2
 2996 01c4 00000000 		.word	0
 2997 01c8 0000     		.short	0
 2998 01ca 0000     		.short	0
 2999 01cc 57000000 		.word	87
 3000 01d0 00       		.byte	0
ARM GAS  C:\Users\DNIEL~1\AppData\Local\Temp\ccrXyehP.s 			page 54


 3001 01d1 00       		.byte	0
 3002 01d2 00       		.byte	0
 3003 01d3 00       		.byte	0
 3004 01d4 0000     		.short	0
 3005 01d6 0000     		.space	2
 3006 01d8 00000000 		.word	0
 3007 01dc 0000     		.short	0
 3008 01de 0000     		.short	0
 3009 01e0 58000000 		.word	88
 3010 01e4 00       		.byte	0
 3011 01e5 00       		.byte	0
 3012 01e6 00       		.byte	0
 3013 01e7 00       		.byte	0
 3014 01e8 0000     		.short	0
 3015 01ea 0000     		.space	2
 3016 01ec 00000000 		.word	0
 3017 01f0 0000     		.short	0
 3018 01f2 0000     		.short	0
 3019 01f4 59000000 		.word	89
 3020 01f8 00       		.byte	0
 3021 01f9 00       		.byte	0
 3022 01fa 00       		.byte	0
 3023 01fb 00       		.byte	0
 3024 01fc 0000     		.short	0
 3025 01fe 0000     		.space	2
 3026 0200 00000000 		.word	0
 3027 0204 0000     		.short	0
 3028 0206 0000     		.short	0
 3029 0208 5A000000 		.word	90
 3030 020c 00       		.byte	0
 3031 020d 00       		.byte	0
 3032 020e 00       		.byte	0
 3033 020f 00       		.byte	0
 3034 0210 0000     		.short	0
 3035 0212 0000     		.space	2
 3036 0214 00000000 		.word	0
 3037 0218 0000     		.short	0
 3038 021a 0000     		.short	0
 3039 021c 5B000000 		.word	91
 3040 0220 00       		.byte	0
 3041 0221 00       		.byte	0
 3042 0222 00       		.byte	0
 3043 0223 00       		.byte	0
 3044 0224 0000     		.short	0
 3045 0226 0000     		.space	2
 3046 0228 00000000 		.word	0
 3047 022c 0000     		.short	0
 3048 022e 0000     		.short	0
 3049 0230 5C000000 		.word	92
 3050 0234 00       		.byte	0
 3051 0235 00       		.byte	0
 3052 0236 00       		.byte	0
 3053 0237 00       		.byte	0
 3054 0238 0000     		.short	0
 3055 023a 0000     		.space	2
 3056 023c 00000000 		.word	0
 3057 0240 0000     		.short	0
ARM GAS  C:\Users\DNIEL~1\AppData\Local\Temp\ccrXyehP.s 			page 55


 3058 0242 0000     		.short	0
 3059 0244 5D000000 		.word	93
 3060 0248 00       		.byte	0
 3061 0249 00       		.byte	0
 3062 024a 00       		.byte	0
 3063 024b 00       		.byte	0
 3064 024c 0000     		.short	0
 3065 024e 0000     		.space	2
 3066 0250 00000000 		.word	0
 3067 0254 0000     		.short	0
 3068 0256 0000     		.short	0
 3069 0258 5E000000 		.word	94
 3070 025c 00       		.byte	0
 3071 025d 00       		.byte	0
 3072 025e 00       		.byte	0
 3073 025f 00       		.byte	0
 3074 0260 0000     		.short	0
 3075 0262 0000     		.space	2
 3076 0264 00000000 		.word	0
 3077 0268 0000     		.short	0
 3078 026a 0000     		.short	0
 3079 026c 5F000000 		.word	95
 3080 0270 00       		.byte	0
 3081 0271 00       		.byte	0
 3082 0272 00       		.byte	0
 3083 0273 00       		.byte	0
 3084 0274 0000     		.short	0
 3085 0276 0000     		.space	2
 3086 0278 00000000 		.word	0
 3087 027c 0000     		.short	0
 3088 027e 0000     		.short	0
 3089              		.section	.rodata.str1.4,"aMS",%progbits,1
 3090              		.align	2
 3091              	.LC0:
 3092 0000 7472616E 		.ascii	"transmitter\000"
 3092      736D6974 
 3092      74657200 
 3093              	.LC1:
 3094 000c 72656365 		.ascii	"receiver\000"
 3094      69766572 
 3094      00
 3095 0015 000000   		.space	3
 3096              	.LC2:
 3097 0018 1B6300   		.ascii	"\033c\000"
 3098 001b 00       		.space	1
 3099              	.LC3:
 3100 001c 1B5B324A 		.ascii	"\033[2J\000"
 3100      00
 3101 0021 000000   		.space	3
 3102              	.LC4:
 3103 0024 52582E45 		.ascii	"RX.EID   : %x \015\012\000"
 3103      49442020 
 3103      203A2025 
 3103      78200D0A 
 3103      00
 3104 0035 000000   		.space	3
 3105              	.LC5:
ARM GAS  C:\Users\DNIEL~1\AppData\Local\Temp\ccrXyehP.s 			page 56


 3106 0038 52582E44 		.ascii	"RX.DATA1 : %d \015\012\000"
 3106      41544131 
 3106      203A2025 
 3106      64200D0A 
 3106      00
 3107 0049 000000   		.space	3
 3108              	.LC6:
 3109 004c 52582E44 		.ascii	"RX.DATA2 : %d \015\012\000"
 3109      41544132 
 3109      203A2025 
 3109      64200D0A 
 3109      00
 3110 005d 000000   		.space	3
 3111              	.LC7:
 3112 0060 52582E44 		.ascii	"RX.DATA3 : %d \015\012\000"
 3112      41544133 
 3112      203A2025 
 3112      64200D0A 
 3112      00
 3113 0071 000000   		.space	3
 3114              	.LC8:
 3115 0074 52582E44 		.ascii	"RX.DATA4 : %d \015\012\000"
 3115      41544134 
 3115      203A2025 
 3115      64200D0A 
 3115      00
 3116 0085 000000   		.space	3
 3117              	.LC9:
 3118 0088 0D0A00   		.ascii	"\015\012\000"
 3119 008b 00       		.space	1
 3120              	.LC10:
 3121 008c 1B5B2564 		.ascii	"\033[%d;%dH\000"
 3121      3B256448 
 3121      00
 3122 0095 000000   		.space	3
 3123              	.LC11:
 3124 0098 2D2D2D2D 		.ascii	"----------- CAN Transmit ------------\015\012\000"
 3124      2D2D2D2D 
 3124      2D2D2D20 
 3124      43414E20 
 3124      5472616E 
 3125              	.LC12:
 3126 00c0 54582E45 		.ascii	"TX.EID              : %15x \015\012\000"
 3126      49442020 
 3126      20202020 
 3126      20202020 
 3126      20202020 
 3127 00de 0000     		.space	2
 3128              	.LC13:
 3129 00e0 54582E44 		.ascii	"TX.DATA32_1         : %15x \015\012\000"
 3129      41544133 
 3129      325F3120 
 3129      20202020 
 3129      20202020 
 3130 00fe 0000     		.space	2
 3131              	.LC14:
 3132 0100 54582E44 		.ascii	"TX.DATA32_2         : %15x \015\012\000"
ARM GAS  C:\Users\DNIEL~1\AppData\Local\Temp\ccrXyehP.s 			page 57


 3132      41544133 
 3132      325F3220 
 3132      20202020 
 3132      20202020 
 3133 011e 0000     		.space	2
 3134              	.LC15:
 3135 0120 2D2D2D2D 		.ascii	"----------- CAN Receive -------------\015\012\000"
 3135      2D2D2D2D 
 3135      2D2D2D20 
 3135      43414E20 
 3135      52656365 
 3136              	.LC16:
 3137 0148 52582E45 		.ascii	"RX.EID              : %15x \015\012\000"
 3137      49442020 
 3137      20202020 
 3137      20202020 
 3137      20202020 
 3138 0166 0000     		.space	2
 3139              	.LC17:
 3140 0168 52582E44 		.ascii	"RX.DATA8_1 (NTC)    : %15d \015\012\000"
 3140      41544138 
 3140      5F312028 
 3140      4E544329 
 3140      20202020 
 3141 0186 0000     		.space	2
 3142              	.LC18:
 3143 0188 52582E44 		.ascii	"RX.DATA8_2 (IN_CUR) : %15d \015\012\000"
 3143      41544138 
 3143      5F322028 
 3143      494E5F43 
 3143      55522920 
 3144 01a6 0000     		.space	2
 3145              	.LC19:
 3146 01a8 52582E44 		.ascii	"RX.DATA8_3 (OUT_CUR): %15d \015\012\000"
 3146      41544138 
 3146      5F332028 
 3146      4F55545F 
 3146      43555229 
 3147 01c6 0000     		.space	2
 3148              	.LC20:
 3149 01c8 52582E44 		.ascii	"RX.DATA8_4 (EFF)    : %15d \015\012\000"
 3149      41544138 
 3149      5F342028 
 3149      45464629 
 3149      20202020 
 3150 01e6 0000     		.space	2
 3151              	.LC21:
 3152 01e8 52582E44 		.ascii	"RX.DATA8_5 (VIN)    : %15d \015\012\000"
 3152      41544138 
 3152      5F352028 
 3152      56494E29 
 3152      20202020 
 3153 0206 0000     		.space	2
 3154              	.LC22:
 3155 0208 52582E44 		.ascii	"RX.DATA8_5 (VOUT)   : %15d \015\012\000"
 3155      41544138 
 3155      5F352028 
ARM GAS  C:\Users\DNIEL~1\AppData\Local\Temp\ccrXyehP.s 			page 58


 3155      564F5554 
 3155      29202020 
 3156 0226 0000     		.space	2
 3157              	.LC23:
 3158 0228 69642020 		.ascii	"id                  : %15x \015\012\000"
 3158      20202020 
 3158      20202020 
 3158      20202020 
 3158      20202020 
 3159 0246 0000     		.space	2
 3160              	.LC24:
 3161 0248 6D657373 		.ascii	"messages            : %15x \015\012\000"
 3161      61676573 
 3161      20202020 
 3161      20202020 
 3161      20202020 
 3162 0266 0000     		.space	2
 3163              	.LC25:
 3164 0268 3800     		.ascii	"8\000"
 3165 026a 0000     		.space	2
 3166              	.LC26:
 3167 026c 2D2D2D2D 		.ascii	"-------------- CAN all data --------------\015\012\000"
 3167      2D2D2D2D 
 3167      2D2D2D2D 
 3167      2D2D2043 
 3167      414E2061 
 3168 0299 000000   		.space	3
 3169              	.LC27:
 3170 029c 72786D73 		.ascii	"rxmsg.EID     : %15d \015\012\000"
 3170      672E4549 
 3170      44202020 
 3170      20203A20 
 3170      25313564 
 3171              	.LC28:
 3172 02b4 72786D73 		.ascii	"rxmsg.data8[0]: %15d \015\012\000"
 3172      672E6461 
 3172      7461385B 
 3172      305D3A20 
 3172      25313564 
 3173              	.LC29:
 3174 02cc 72786D73 		.ascii	"rxmsg.data8[1]: %15d \015\012\000"
 3174      672E6461 
 3174      7461385B 
 3174      315D3A20 
 3174      25313564 
 3175              	.LC30:
 3176 02e4 72786D73 		.ascii	"rxmsg.data8[2]: %15d \015\012\000"
 3176      672E6461 
 3176      7461385B 
 3176      325D3A20 
 3176      25313564 
 3177              	.LC31:
 3178 02fc 72786D73 		.ascii	"rxmsg.data8[3]: %15d \015\012\000"
 3178      672E6461 
 3178      7461385B 
 3178      335D3A20 
 3178      25313564 
ARM GAS  C:\Users\DNIEL~1\AppData\Local\Temp\ccrXyehP.s 			page 59


 3179              	.LC32:
 3180 0314 72786D73 		.ascii	"rxmsg.data8[4]: %15d \015\012\000"
 3180      672E6461 
 3180      7461385B 
 3180      345D3A20 
 3180      25313564 
 3181              	.LC33:
 3182 032c 72786D73 		.ascii	"rxmsg.data8[5]: %15d \015\012\000"
 3182      672E6461 
 3182      7461385B 
 3182      355D3A20 
 3182      25313564 
 3183              	.LC34:
 3184 0344 72786D73 		.ascii	"rxmsg.data8[6]: %15d \015\012\000"
 3184      672E6461 
 3184      7461385B 
 3184      365D3A20 
 3184      25313564 
 3185              	.LC35:
 3186 035c 72786D73 		.ascii	"rxmsg.data8[7]: %15d \015\012\000"
 3186      672E6461 
 3186      7461385B 
 3186      375D3A20 
 3186      25313564 
 3187              	.LC36:
 3188 0374 313600   		.ascii	"16\000"
 3189 0377 00       		.space	1
 3190              	.LC37:
 3191 0378 72786D73 		.ascii	"rxmsg.EID      : %15d \015\012\000"
 3191      672E4549 
 3191      44202020 
 3191      2020203A 
 3191      20253135 
 3192 0391 000000   		.space	3
 3193              	.LC38:
 3194 0394 72786D73 		.ascii	"rxmsg.data16[0]: %15d \015\012\000"
 3194      672E6461 
 3194      74613136 
 3194      5B305D3A 
 3194      20253135 
 3195 03ad 000000   		.space	3
 3196              	.LC39:
 3197 03b0 72786D73 		.ascii	"rxmsg.data16[1]: %15d \015\012\000"
 3197      672E6461 
 3197      74613136 
 3197      5B315D3A 
 3197      20253135 
 3198 03c9 000000   		.space	3
 3199              	.LC40:
 3200 03cc 72786D73 		.ascii	"rxmsg.data16[2]: %15d \015\012\000"
 3200      672E6461 
 3200      74613136 
 3200      5B325D3A 
 3200      20253135 
 3201 03e5 000000   		.space	3
 3202              	.LC41:
 3203 03e8 72786D73 		.ascii	"rxmsg.data16[3]: %15d \015\012\000"
ARM GAS  C:\Users\DNIEL~1\AppData\Local\Temp\ccrXyehP.s 			page 60


 3203      672E6461 
 3203      74613136 
 3203      5B335D3A 
 3203      20253135 
 3204 0401 000000   		.space	3
 3205              	.LC42:
 3206 0404 333200   		.ascii	"32\000"
 3207 0407 00       		.space	1
 3208              	.LC43:
 3209 0408 72786D73 		.ascii	"rxmsg.data32[0]: %15d \015\012\000"
 3209      672E6461 
 3209      74613332 
 3209      5B305D3A 
 3209      20253135 
 3210 0421 000000   		.space	3
 3211              	.LC44:
 3212 0424 72786D73 		.ascii	"rxmsg.data32[1]: %15d \015\012\000"
 3212      672E6461 
 3212      74613332 
 3212      5B315D3A 
 3212      20253135 
 3213 043d 000000   		.space	3
 3214              	.LC45:
 3215 0440 54686973 		.ascii	"This not good parameters! (canall 8/16/32)\015\012\000"
 3215      206E6F74 
 3215      20676F6F 
 3215      64207061 
 3215      72616D65 
 3216 046d 000000   		.space	3
 3217              	.LC46:
 3218 0470 2D2D2D2D 		.ascii	"-------------- LuxControl %d/%d --------------\015\012"
 3218      2D2D2D2D 
 3218      2D2D2D2D 
 3218      2D2D204C 
 3218      7578436F 
 3219 04a0 00       		.ascii	"\000"
 3220 04a1 000000   		.space	3
 3221              	.LC47:
 3222 04a4 6C636974 		.ascii	"lcitems[%d].id         (ID)     : %15x \015\012\000"
 3222      656D735B 
 3222      25645D2E 
 3222      69642020 
 3222      20202020 
 3223 04ce 0000     		.space	2
 3224              	.LC48:
 3225 04d0 6C636974 		.ascii	"lcitems[%d].temp       (NTC)    : %15d \015\012\000"
 3225      656D735B 
 3225      25645D2E 
 3225      74656D70 
 3225      20202020 
 3226 04fa 0000     		.space	2
 3227              	.LC49:
 3228 04fc 6C636974 		.ascii	"lcitems[%d].curr_in    (IN_CUR) : %15d \015\012\000"
 3228      656D735B 
 3228      25645D2E 
 3228      63757272 
 3228      5F696E20 
ARM GAS  C:\Users\DNIEL~1\AppData\Local\Temp\ccrXyehP.s 			page 61


 3229 0526 0000     		.space	2
 3230              	.LC50:
 3231 0528 6C636974 		.ascii	"lcitems[%d].curr_out   (OUT_CUR): %15d \015\012\000"
 3231      656D735B 
 3231      25645D2E 
 3231      63757272 
 3231      5F6F7574 
 3232 0552 0000     		.space	2
 3233              	.LC51:
 3234 0554 6C636974 		.ascii	"lcitems[%d].efficiency (EFF)    : %15d \015\012\000"
 3234      656D735B 
 3234      25645D2E 
 3234      65666669 
 3234      6369656E 
 3235 057e 0000     		.space	2
 3236              	.LC52:
 3237 0580 6C636974 		.ascii	"lcitems[%d].status     (STATUS) : %15d \015\012\000"
 3237      656D735B 
 3237      25645D2E 
 3237      73746174 
 3237      75732020 
 3238 05aa 0000     		.space	2
 3239              	.LC53:
 3240 05ac 6C636974 		.ascii	"lcitems[%d].volt_in    (VIN)    : %15d \015\012\000"
 3240      656D735B 
 3240      25645D2E 
 3240      766F6C74 
 3240      5F696E20 
 3241 05d6 0000     		.space	2
 3242              	.LC54:
 3243 05d8 6C636974 		.ascii	"lcitems[%d].volt_out   (VOUT)   : %15d \015\012\000"
 3243      656D735B 
 3243      25645D2E 
 3243      766F6C74 
 3243      5F6F7574 
 3244 0602 0000     		.space	2
 3245              	.LC55:
 3246 0604 6C636974 		.ascii	"lcitems[%d].pwm        (PWM)    : %15d \015\012\000"
 3246      656D735B 
 3246      25645D2E 
 3246      70776D20 
 3246      20202020 
 3247 062e 0000     		.space	2
 3248              	.LC56:
 3249 0630 54686973 		.ascii	"This not good parameters!\015\012\000"
 3249      206E6F74 
 3249      20676F6F 
 3249      64207061 
 3249      72616D65 
 3250              	.LC57:
 3251 064c 284C7578 		.ascii	"(Luxcontrol 1-x) lc n\015\012\000"
 3251      636F6E74 
 3251      726F6C20 
 3251      312D7829 
 3251      206C6320 
 3252              	.LC58:
 3253 0664 2D2D2D2D 		.ascii	"---------- Modulux 1/1 ------------\015\012\000"
ARM GAS  C:\Users\DNIEL~1\AppData\Local\Temp\ccrXyehP.s 			page 62


 3253      2D2D2D2D 
 3253      2D2D204D 
 3253      6F64756C 
 3253      75782031 
 3254 068a 0000     		.space	2
 3255              	.LC59:
 3256 068c 69642020 		.ascii	"id        (ID)     : %15x \015\012\000"
 3256      20202020 
 3256      20202849 
 3256      44292020 
 3256      2020203A 
 3257 06a9 000000   		.space	3
 3258              	.LC60:
 3259 06ac 6F6E6576 		.ascii	"onevire_1 (DS18B20): %15d \015\012\000"
 3259      6972655F 
 3259      31202844 
 3259      53313842 
 3259      3230293A 
 3260 06c9 000000   		.space	3
 3261              	.LC61:
 3262 06cc 6F6E6576 		.ascii	"onevire_2 (DS18B20): %15d \015\012\000"
 3262      6972655F 
 3262      32202844 
 3262      53313842 
 3262      3230293A 
 3263 06e9 000000   		.space	3
 3264              	.LC62:
 3265 06ec 6F6E6576 		.ascii	"onevire_3 (DS18B20): %15d \015\012\000"
 3265      6972655F 
 3265      33202844 
 3265      53313842 
 3265      3230293A 
 3266 0709 000000   		.space	3
 3267              	.LC63:
 3268 070c 6F6E6576 		.ascii	"onevire_4 (DS18B20): %15d \015\012\000"
 3268      6972655F 
 3268      34202844 
 3268      53313842 
 3268      3230293A 
 3269 0729 000000   		.space	3
 3270              	.LC64:
 3271 072c 284D6F64 		.ascii	"(Modulux 1-x) candata_ml n\015\012\000"
 3271      756C7578 
 3271      20312D78 
 3271      29206361 
 3271      6E646174 
 3272 0749 000000   		.space	3
 3273              	.LC65:
 3274 074c 2D2D2D2D 		.ascii	"------------- BMS 1/1 --------------\015\012\000"
 3274      2D2D2D2D 
 3274      2D2D2D2D 
 3274      2D20424D 
 3274      5320312F 
 3275 0773 00       		.space	1
 3276              	.LC66:
 3277 0774 2D2D2D2D 		.ascii	"----------- Messages 2 -------------\015\012\000"
 3277      2D2D2D2D 
ARM GAS  C:\Users\DNIEL~1\AppData\Local\Temp\ccrXyehP.s 			page 63


 3277      2D2D2D20 
 3277      4D657373 
 3277      61676573 
 3278 079b 00       		.space	1
 3279              	.LC67:
 3280 079c 69642020 		.ascii	"id                 : %15x \015\012\000"
 3280      20202020 
 3280      20202020 
 3280      20202020 
 3280      2020203A 
 3281 07b9 000000   		.space	3
 3282              	.LC68:
 3283 07bc 72656C61 		.ascii	"relay              : %15d \015\012\000"
 3283      79202020 
 3283      20202020 
 3283      20202020 
 3283      2020203A 
 3284 07d9 000000   		.space	3
 3285              	.LC69:
 3286 07dc 7061636B 		.ascii	"pack_inst_volt     : %15d \015\012\000"
 3286      5F696E73 
 3286      745F766F 
 3286      6C742020 
 3286      2020203A 
 3287 07f9 000000   		.space	3
 3288              	.LC70:
 3289 07fc 7061636B 		.ascii	"pack_soc           : %15d \015\012\000"
 3289      5F736F63 
 3289      20202020 
 3289      20202020 
 3289      2020203A 
 3290 0819 000000   		.space	3
 3291              	.LC71:
 3292 081c 7061636B 		.ascii	"pack_healt         : %15d \015\012\000"
 3292      5F686561 
 3292      6C742020 
 3292      20202020 
 3292      2020203A 
 3293 0839 000000   		.space	3
 3294              	.LC72:
 3295 083c 7061636B 		.ascii	"pack_amps          : %15d \015\012\000"
 3295      5F616D70 
 3295      73202020 
 3295      20202020 
 3295      2020203A 
 3296 0859 000000   		.space	3
 3297              	.LC73:
 3298 085c 7061636B 		.ascii	"pack_resist        : %15d \015\012\000"
 3298      5F726573 
 3298      69737420 
 3298      20202020 
 3298      2020203A 
 3299 0879 000000   		.space	3
 3300              	.LC74:
 3301 087c 0D0A2D2D 		.ascii	"\015\012----------- Messages 3 -------------\015\012"
 3301      2D2D2D2D 
 3301      2D2D2D2D 
ARM GAS  C:\Users\DNIEL~1\AppData\Local\Temp\ccrXyehP.s 			page 64


 3301      2D204D65 
 3301      73736167 
 3302 08a4 00       		.ascii	"\000"
 3303 08a5 000000   		.space	3
 3304              	.LC75:
 3305 08a8 61766572 		.ascii	"average_temp       : %15d \015\012\000"
 3305      6167655F 
 3305      74656D70 
 3305      20202020 
 3305      2020203A 
 3306 08c5 000000   		.space	3
 3307              	.LC76:
 3308 08c8 696E7465 		.ascii	"internal_temp      : %15d \015\012\000"
 3308      726E616C 
 3308      5F74656D 
 3308      70202020 
 3308      2020203A 
 3309 08e5 000000   		.space	3
 3310              	.LC77:
 3311 08e8 6C6F775F 		.ascii	"low_cell_volt      : %15d \015\012\000"
 3311      63656C6C 
 3311      5F766F6C 
 3311      74202020 
 3311      2020203A 
 3312 0905 000000   		.space	3
 3313              	.LC78:
 3314 0908 68696768 		.ascii	"high_cell_volt     : %15d \015\012\000"
 3314      5F63656C 
 3314      6C5F766F 
 3314      6C742020 
 3314      2020203A 
 3315 0925 000000   		.space	3
 3316              	.LC79:
 3317 0928 6176675F 		.ascii	"avg_cell_voltage   : %15d \015\012\000"
 3317      63656C6C 
 3317      5F766F6C 
 3317      74616765 
 3317      2020203A 
 3318 0945 000000   		.space	3
 3319              	.LC80:
 3320 0948 0D0A2D2D 		.ascii	"\015\012----------- Messages 4 -------------\015\012"
 3320      2D2D2D2D 
 3320      2D2D2D2D 
 3320      2D204D65 
 3320      73736167 
 3321 0970 00       		.ascii	"\000"
 3322 0971 000000   		.space	3
 3323              	.LC81:
 3324 0974 7061636B 		.ascii	"pack_current       : %15d \015\012\000"
 3324      5F637572 
 3324      72656E74 
 3324      20202020 
 3324      2020203A 
 3325 0991 000000   		.space	3
 3326              	.LC82:
 3327 0994 746F7461 		.ascii	"total_pack_cycle   : %15d \015\012\000"
 3327      6C5F7061 
ARM GAS  C:\Users\DNIEL~1\AppData\Local\Temp\ccrXyehP.s 			page 65


 3327      636B5F63 
 3327      79636C65 
 3327      2020203A 
 3328 09b1 000000   		.space	3
 3329              	.LC83:
 3330 09b4 7061636B 		.ascii	"pack_ccl           : %15d \015\012\000"
 3330      5F63636C 
 3330      20202020 
 3330      20202020 
 3330      2020203A 
 3331 09d1 000000   		.space	3
 3332              	.LC84:
 3333 09d4 7061636B 		.ascii	"pack_dcl           : %15d \015\012\000"
 3333      5F64636C 
 3333      20202020 
 3333      20202020 
 3333      2020203A 
 3334 09f1 000000   		.space	3
 3335              	.LC85:
 3336 09f4 6D617869 		.ascii	"maximum_cell       : %15d \015\012\000"
 3336      6D756D5F 
 3336      63656C6C 
 3336      20202020 
 3336      2020203A 
 3337 0a11 000000   		.space	3
 3338              	.LC86:
 3339 0a14 63757374 		.ascii	"custom_flag        : %15d \015\012\000"
 3339      6F6D5F66 
 3339      6C616720 
 3339      20202020 
 3339      2020203A 
 3340 0a31 000000   		.space	3
 3341              	.LC87:
 3342 0a34 0D0A2D2D 		.ascii	"\015\012----------- Messages 5 -------------\015\012"
 3342      2D2D2D2D 
 3342      2D2D2D2D 
 3342      2D204D65 
 3342      73736167 
 3343 0a5c 00       		.ascii	"\000"
 3344 0a5d 000000   		.space	3
 3345              	.LC88:
 3346 0a60 6D696E69 		.ascii	"minimum_cell       : %15d \015\012\000"
 3346      6D756D5F 
 3346      63656C6C 
 3346      20202020 
 3346      2020203A 
 3347 0a7d 000000   		.space	3
 3348              	.LC89:
 3349 0a80 68696768 		.ascii	"high_cell_volt2    : %15d \015\012\000"
 3349      5F63656C 
 3349      6C5F766F 
 3349      6C743220 
 3349      2020203A 
 3350 0a9d 000000   		.space	3
 3351              	.LC90:
 3352 0aa0 6C6F775F 		.ascii	"low_cell_volt2     : %15d \015\012\000"
 3352      63656C6C 
ARM GAS  C:\Users\DNIEL~1\AppData\Local\Temp\ccrXyehP.s 			page 66


 3352      5F766F6C 
 3352      74322020 
 3352      2020203A 
 3353 0abd 000000   		.space	3
 3354              	.LC91:
 3355 0ac0 73757070 		.ascii	"supply_12v         : %15d \015\012\000"
 3355      6C795F31 
 3355      32762020 
 3355      20202020 
 3355      2020203A 
 3356 0add 000000   		.space	3
 3357              	.LC92:
 3358 0ae0 66616E5F 		.ascii	"fan_speed          : %15d \015\012\000"
 3358      73706565 
 3358      64202020 
 3358      20202020 
 3358      2020203A 
 3359 0afd 000000   		.space	3
 3360              	.LC93:
 3361 0b00 7061636B 		.ascii	"pack_open_voltage  : %15d \015\012\000"
 3361      5F6F7065 
 3361      6E5F766F 
 3361      6C746167 
 3361      6520203A 
 3362 0b1d 000000   		.space	3
 3363              	.LC94:
 3364 0b20 28424D53 		.ascii	"(BMS 1-x)   candata_bms n\015\012\000"
 3364      20312D78 
 3364      29202020 
 3364      63616E64 
 3364      6174615F 
 3365              	.LC95:
 3366 0b3c 2D2D2D2D 		.ascii	"-------------- Bettery Cell %d/%d --------------\015"
 3366      2D2D2D2D 
 3366      2D2D2D2D 
 3366      2D2D2042 
 3366      65747465 
 3367 0b6d 0A00     		.ascii	"\012\000"
 3368 0b6f 00       		.space	1
 3369              	.LC96:
 3370 0b70 63656C6C 		.ascii	"cellitems[%d].id              : %15x \015\012\000"
 3370      6974656D 
 3370      735B2564 
 3370      5D2E6964 
 3370      20202020 
 3371              	.LC97:
 3372 0b98 63656C6C 		.ascii	"cellitems[%d].cell_voltage    : %15d \015\012\000"
 3372      6974656D 
 3372      735B2564 
 3372      5D2E6365 
 3372      6C6C5F76 
 3373              	.LC98:
 3374 0bc0 63656C6C 		.ascii	"cellitems[%d].cell_resistant  : %15d \015\012\000"
 3374      6974656D 
 3374      735B2564 
 3374      5D2E6365 
 3374      6C6C5F72 
ARM GAS  C:\Users\DNIEL~1\AppData\Local\Temp\ccrXyehP.s 			page 67


 3375              	.LC99:
 3376 0be8 63656C6C 		.ascii	"cellitems[%d].open_voltage    : %15d \015\012\000"
 3376      6974656D 
 3376      735B2564 
 3376      5D2E6F70 
 3376      656E5F76 
 3377              	.LC100:
 3378 0c10 2843656C 		.ascii	"(Cell 1-x) lc n\015\012\000"
 3378      6C20312D 
 3378      7829206C 
 3378      63206E0D 
 3378      0A00
 3379 0c22 0000     		.space	2
 3380              	.LC101:
 3381 0c24 536C6565 		.ascii	"Sleep 1. LC!\015\012\000"
 3381      7020312E 
 3381      204C4321 
 3381      0D0A00
 3382 0c33 00       		.space	1
 3383              	.LC102:
 3384 0c34 534D00   		.ascii	"SM\000"
 3385 0c37 00       		.space	1
 3386              	.LC103:
 3387 0c38 424D5300 		.ascii	"BMS\000"
 3388              	.LC104:
 3389 0c3c 4D4C00   		.ascii	"ML\000"
 3390 0c3f 00       		.space	1
 3391              	.LC105:
 3392 0c40 4C4300   		.ascii	"LC\000"
 3393 0c43 00       		.space	1
 3394              	.LC106:
 3395 0c44 52425900 		.ascii	"RBY\000"
 3396              	.LC107:
 3397 0c48 252D3673 		.ascii	"%-6s\000"
 3397      00
 3398 0c4d 000000   		.space	3
 3399              	.LC108:
 3400 0c50 25337820 		.ascii	"%3x %3x - %4x %4x %4x %4x %4x %4x %4x %4x\015\012\000"
 3400      25337820 
 3400      2D202534 
 3400      78202534 
 3400      78202534 
 3401              		.section	.bss.canstate,"aw",%nobits
 3402              		.set	.LANCHOR7,. + 0
 3403              		.type	canstate, %object
 3404              		.size	canstate, 1
 3405              	canstate:
 3406 0000 00       		.space	1
 3407              		.section	.bss.can_newdata,"aw",%nobits
 3408              		.set	.LANCHOR6,. + 0
 3409              		.type	can_newdata, %object
 3410              		.size	can_newdata, 1
 3411              	can_newdata:
 3412 0000 00       		.space	1
 3413              		.section	.bss.messages,"aw",%nobits
 3414              		.align	1
 3415              		.set	.LANCHOR5,. + 0
ARM GAS  C:\Users\DNIEL~1\AppData\Local\Temp\ccrXyehP.s 			page 68


 3416              		.type	messages, %object
 3417              		.size	messages, 2
 3418              	messages:
 3419 0000 0000     		.space	2
 3420              		.section	.bss.rxmsg,"aw",%nobits
 3421              		.align	2
 3422              		.set	.LANCHOR3,. + 0
 3423              		.type	rxmsg, %object
 3424              		.size	rxmsg, 20
 3425              	rxmsg:
 3426 0000 00000000 		.space	20
 3426      00000000 
 3426      00000000 
 3426      00000000 
 3426      00000000 
 3427              		.section	.bss.can_rx_wa,"aw",%nobits
 3428              		.align	3
 3429              		.set	.LANCHOR14,. + 0
 3430              		.type	can_rx_wa, %object
 3431              		.size	can_rx_wa, 464
 3432              	can_rx_wa:
 3433 0000 00000000 		.space	464
 3433      00000000 
 3433      00000000 
 3433      00000000 
 3433      00000000 
 3434              		.section	.bss.can_transmit,"aw",%nobits
 3435              		.set	.LANCHOR2,. + 0
 3436              		.type	can_transmit, %object
 3437              		.size	can_transmit, 1
 3438              	can_transmit:
 3439 0000 00       		.space	1
 3440              		.text
 3441              	.Letext0: