ARM GAS  C:\Users\DNIEL~1\AppData\Local\Temp\cc6TuQZB.s 			page 1


   1              		.syntax unified
   2              		.cpu cortex-m4
   3              		.fpu softvfp
   4              		.eabi_attribute 20, 1
   5              		.eabi_attribute 21, 1
   6              		.eabi_attribute 23, 3
   7              		.eabi_attribute 24, 1
   8              		.eabi_attribute 25, 1
   9              		.eabi_attribute 26, 1
  10              		.eabi_attribute 30, 2
  11              		.eabi_attribute 18, 4
  12              		.thumb
  13              		.file	"chmsg.c"
  20 0000 EB010000 		.text
  20      02006A01 
  20      00000201 
  20      FB0E0D00 
  20      01010101 
  21              	.Ltext0:
  22              		.cfi_sections	.debug_frame
  23              		.section	.text.chMsgSend,"ax",%progbits
  24              		.align	2
  25              		.p2align 4,,15
  26              		.global	chMsgSend
  27              		.thumb
  28              		.thumb_func
  29              		.type	chMsgSend, %function
  30              	chMsgSend:
  31              	.LFB7:
  32              		.file 1 "../../../ChibiOS/os/kernel/src/chmsg.c"
  33              		.loc 1 75 0
  34              		.cfi_startproc
  35              		@ args = 0, pretend = 0, frame = 0
  36              		@ frame_needed = 0, uses_anonymous_args = 0
  37              	.LVL0:
  38 0000 38B5     		push	{r3, r4, r5, lr}
  39              	.LCFI0:
  40              		.cfi_def_cfa_offset 16
  41              		.loc 1 76 0
  42 0002 114A     		ldr	r2, .L5
  43              	.LBB10:
  44              		.loc 1 80 0
  45 0004 2023     		movs	r3, #32
  46              		.cfi_offset 14, -4
  47              		.cfi_offset 5, -8
  48              		.cfi_offset 4, -12
  49              		.cfi_offset 3, -16
  50              	.LVL1:
  51              	.LBE10:
  52              		.loc 1 76 0
  53 0006 9469     		ldr	r4, [r2, #24]
ARM GAS  C:\Users\DNIEL~1\AppData\Local\Temp\cc6TuQZB.s 			page 2


  54              	.LVL2:
  55              	.LBB11:
  56              		.loc 1 80 0
  57              	@ 80 "../../../ChibiOS/os/kernel/src/chmsg.c" 1
  58 0008 83F31188 		msr     BASEPRI, r3
  59              	@ 0 "" 2
  60              	.LVL3:
  61              		.thumb
  62              	.LBE11:
  63              		.loc 1 84 0
  64 000c 057F     		ldrb	r5, [r0, #28]	@ zero_extendqisi2
  65              	.LBB12:
  66              	.LBB14:
  67              		.file 2 "../../../ChibiOS/os/kernel/include/chinline.h"
  68              		.loc 2 55 0
  69 000e 036B     		ldr	r3, [r0, #48]
  70              	.LVL4:
  71              	.LBE14:
  72              	.LBE12:
  73              		.loc 1 81 0
  74 0010 6163     		str	r1, [r4, #52]
  75              		.loc 1 84 0
  76 0012 0C2D     		cmp	r5, #12
  77              		.loc 1 82 0
  78 0014 00F12C01 		add	r1, r0, #44
  79              	.LVL5:
  80              	.LBB16:
  81              	.LBB13:
  82              		.loc 2 54 0
  83 0018 2160     		str	r1, [r4, #0]
  84              	.LBE13:
  85              	.LBE16:
  86              		.loc 1 82 0
  87 001a 6162     		str	r1, [r4, #36]
  88              	.LVL6:
  89              	.LBB17:
  90              	.LBB15:
  91              		.loc 2 55 0
  92 001c 6360     		str	r3, [r4, #4]
  93              		.loc 2 56 0
  94 001e 0463     		str	r4, [r0, #48]
  95 0020 1C60     		str	r4, [r3, #0]
  96              	.LBE15:
  97              	.LBE17:
  98              		.loc 1 84 0
  99 0022 07D0     		beq	.L4
 100              		.loc 1 86 0
 101 0024 0A20     		movs	r0, #10
 102              	.LVL7:
 103 0026 FFF7FEFF 		bl	chSchGoSleepS
 104              	.LVL8:
 105              		.loc 1 87 0
 106 002a 606A     		ldr	r0, [r4, #36]
 107              	.LVL9:
 108              	.LBB18:
 109              		.loc 1 88 0
 110 002c 0023     		movs	r3, #0
ARM GAS  C:\Users\DNIEL~1\AppData\Local\Temp\cc6TuQZB.s 			page 3


 111              	.LVL10:
 112              	@ 88 "../../../ChibiOS/os/kernel/src/chmsg.c" 1
 113 002e 83F31188 		msr     BASEPRI, r3
 114              	@ 0 "" 2
 115              	.LVL11:
 116              		.thumb
 117              	.LBE18:
 118              		.loc 1 90 0
 119 0032 38BD     		pop	{r3, r4, r5, pc}
 120              	.LVL12:
 121              	.L4:
 122              		.loc 1 85 0
 123 0034 FFF7FEFF 		bl	chSchReadyI
 124              	.LVL13:
 125              		.loc 1 86 0
 126 0038 0A20     		movs	r0, #10
 127 003a FFF7FEFF 		bl	chSchGoSleepS
 128              		.loc 1 87 0
 129 003e 606A     		ldr	r0, [r4, #36]
 130              	.LVL14:
 131              	.LBB19:
 132              		.loc 1 88 0
 133 0040 0023     		movs	r3, #0
 134              	@ 88 "../../../ChibiOS/os/kernel/src/chmsg.c" 1
 135 0042 83F31188 		msr     BASEPRI, r3
 136              	@ 0 "" 2
 137              	.LVL15:
 138              		.thumb
 139              	.LBE19:
 140              		.loc 1 90 0
 141 0046 38BD     		pop	{r3, r4, r5, pc}
 142              	.L6:
 143              		.align	2
 144              	.L5:
 145 0048 00000000 		.word	rlist
 146              		.cfi_endproc
 147              	.LFE7:
 148              		.size	chMsgSend, .-chMsgSend
 149 004c AFF30080 		.section	.text.chMsgWait,"ax",%progbits
 150              		.align	2
 151              		.p2align 4,,15
 152              		.global	chMsgWait
 153              		.thumb
 154              		.thumb_func
 155              		.type	chMsgWait, %function
 156              	chMsgWait:
 157              	.LFB8:
 158              		.loc 1 106 0
 159              		.cfi_startproc
 160              		@ args = 0, pretend = 0, frame = 0
 161              		@ frame_needed = 0, uses_anonymous_args = 0
 162 0000 10B5     		push	{r4, lr}
 163              	.LCFI1:
 164              		.cfi_def_cfa_offset 8
 165              	.LBB20:
 166              		.loc 1 109 0
 167 0002 2023     		movs	r3, #32
ARM GAS  C:\Users\DNIEL~1\AppData\Local\Temp\cc6TuQZB.s 			page 4


 168              	.LVL16:
 169              	@ 109 "../../../ChibiOS/os/kernel/src/chmsg.c" 1
 170 0004 83F31188 		msr     BASEPRI, r3
 171              	@ 0 "" 2
 172              	.LVL17:
 173              		.thumb
 174              	.LBE20:
 175              		.loc 1 110 0
 176 0008 0B4C     		ldr	r4, .L10
 177              		.cfi_offset 14, -4
 178              		.cfi_offset 4, -8
 179 000a A269     		ldr	r2, [r4, #24]
 180 000c 1346     		mov	r3, r2
 181              	.LVL18:
 182 000e 53F82C0F 		ldr	r0, [r3, #44]!
 183 0012 9842     		cmp	r0, r3
 184 0014 08D0     		beq	.L9
 185              	.L8:
 186              	.LVL19:
 187              	.LBB21:
 188              	.LBB22:
 189              		.loc 2 62 0
 190 0016 0168     		ldr	r1, [r0, #0]
 191 0018 4B60     		str	r3, [r1, #4]
 192              	.LBE22:
 193              	.LBE21:
 194              		.loc 1 113 0
 195 001a 0B23     		movs	r3, #11
 196 001c 0377     		strb	r3, [r0, #28]
 197              	.LBB24:
 198              	.LBB23:
 199              		.loc 2 62 0
 200 001e D162     		str	r1, [r2, #44]
 201              	.LBE23:
 202              	.LBE24:
 203              	.LBB25:
 204              		.loc 1 114 0
 205 0020 0023     		movs	r3, #0
 206              	.LVL20:
 207              	@ 114 "../../../ChibiOS/os/kernel/src/chmsg.c" 1
 208 0022 83F31188 		msr     BASEPRI, r3
 209              	@ 0 "" 2
 210              	.LVL21:
 211              		.thumb
 212              	.LBE25:
 213              		.loc 1 116 0
 214 0026 10BD     		pop	{r4, pc}
 215              	.LVL22:
 216              	.L9:
 217              		.loc 1 111 0
 218 0028 0C20     		movs	r0, #12
 219 002a FFF7FEFF 		bl	chSchGoSleepS
 220 002e A269     		ldr	r2, [r4, #24]
 221 0030 1346     		mov	r3, r2
 222 0032 53F82C0F 		ldr	r0, [r3, #44]!
 223 0036 EEE7     		b	.L8
 224              	.L11:
ARM GAS  C:\Users\DNIEL~1\AppData\Local\Temp\cc6TuQZB.s 			page 5


 225              		.align	2
 226              	.L10:
 227 0038 00000000 		.word	rlist
 228              		.cfi_endproc
 229              	.LFE8:
 230              		.size	chMsgWait, .-chMsgWait
 231 003c AFF30080 		.section	.text.chMsgRelease,"ax",%progbits
 232              		.align	2
 233              		.p2align 4,,15
 234              		.global	chMsgRelease
 235              		.thumb
 236              		.thumb_func
 237              		.type	chMsgRelease, %function
 238              	chMsgRelease:
 239              	.LFB9:
 240              		.loc 1 128 0
 241              		.cfi_startproc
 242              		@ args = 0, pretend = 0, frame = 0
 243              		@ frame_needed = 0, uses_anonymous_args = 0
 244              	.LVL23:
 245 0000 08B5     		push	{r3, lr}
 246              	.LCFI2:
 247              		.cfi_def_cfa_offset 8
 248              	.LBB26:
 249              		.loc 1 130 0
 250 0002 2023     		movs	r3, #32
 251              		.cfi_offset 14, -4
 252              		.cfi_offset 3, -8
 253              	.LVL24:
 254              	@ 130 "../../../ChibiOS/os/kernel/src/chmsg.c" 1
 255 0004 83F31188 		msr     BASEPRI, r3
 256              	@ 0 "" 2
 257              	.LVL25:
 258              		.thumb
 259              	.LBE26:
 260              		.loc 1 133 0
 261 0008 FFF7FEFF 		bl	chSchWakeupS
 262              	.LVL26:
 263              	.LBB27:
 264              		.loc 1 134 0
 265 000c 0023     		movs	r3, #0
 266              	.LVL27:
 267              	@ 134 "../../../ChibiOS/os/kernel/src/chmsg.c" 1
 268 000e 83F31188 		msr     BASEPRI, r3
 269              	@ 0 "" 2
 270              	.LVL28:
 271              		.thumb
 272              	.LBE27:
 273              		.loc 1 135 0
 274 0012 08BD     		pop	{r3, pc}
 275              		.cfi_endproc
 276              	.LFE9:
 277              		.size	chMsgRelease, .-chMsgRelease
 278 0014 AFF30080 		.text
 278      AFF30080 
 278      AFF30080 
 279              	.Letext0:
ARM GAS  C:\Users\DNIEL~1\AppData\Local\Temp\cc6TuQZB.s 			page 6

