ARM GAS  C:\Users\DNIEL~1\AppData\Local\Temp\ccHU9Ahj.s 			page 1


   1              		.syntax unified
   2              		.cpu cortex-m4
   3              		.fpu softvfp
   4              		.eabi_attribute 20, 1
   5              		.eabi_attribute 21, 1
   6              		.eabi_attribute 23, 3
   7              		.eabi_attribute 24, 1
   8              		.eabi_attribute 25, 1
   9              		.eabi_attribute 26, 1
  10              		.eabi_attribute 30, 2
  11              		.eabi_attribute 18, 4
  12              		.thumb
  13              		.file	"chprintf.c"
  14              		.section	.debug_abbrev,"",%progbits
  15              	.Ldebug_abbrev0:
  16              		.section	.debug_info,"",%progbits
  17              	.Ldebug_info0:
  18              		.section	.debug_line,"",%progbits
  19              	.Ldebug_line0:
  20 0000 57030000 		.text
  20      0200BF01 
  20      00000201 
  20      FB0E0D00 
  20      01010101 
  21              	.Ltext0:
  22              		.cfi_sections	.debug_frame
  23              		.section	.text.ltoa,"ax",%progbits
  24              		.align	2
  25              		.p2align 4,,15
  26              		.thumb
  27              		.thumb_func
  28              		.type	ltoa, %function
  29              	ltoa:
  30              	.LFB9:
  31              		.file 1 "../../../ChibiOS/os/various/chprintf.c"
  32              		.loc 1 70 0
  33              		.cfi_startproc
  34              		@ args = 0, pretend = 0, frame = 0
  35              		@ frame_needed = 0, uses_anonymous_args = 0
  36              		@ link register save eliminated.
  37              	.LVL0:
  38 0000 F0B4     		push	{r4, r5, r6, r7}
  39              	.LCFI0:
  40              		.cfi_def_cfa_offset 16
  41              	.LBB4:
  42              	.LBB6:
  43              		.loc 1 52 0
  44 0002 00F10B07 		add	r7, r0, #11
  45              		.cfi_offset 7, -4
  46              		.cfi_offset 6, -8
  47              		.cfi_offset 5, -12
  48              		.cfi_offset 4, -16
  49              	.LVL1:
  50              		.loc 1 70 0
  51 0006 00F10A05 		add	r5, r0, #10
  52              	.LBE6:
  53              	.LBE4:
ARM GAS  C:\Users\DNIEL~1\AppData\Local\Temp\ccHU9Ahj.s 			page 2


  54 000a 0C46     		mov	r4, r1
  55 000c 00E0     		b	.L4
  56              	.LVL2:
  57              	.L13:
  58              	.LBB8:
  59              	.LBB5:
  60              		.loc 1 59 0
  61 000e 3146     		mov	r1, r6
  62              	.LVL3:
  63              	.L4:
  64              		.loc 1 54 0
  65 0010 B1FBF2F6 		udiv	r6, r1, r2
  66 0014 02FB1611 		mls	r1, r2, r6, r1
  67              	.LVL4:
  68              		.loc 1 55 0
  69 0018 01F13003 		add	r3, r1, #48
  70              	.LVL5:
  71              		.loc 1 56 0
  72 001c 392B     		cmp	r3, #57
  73              		.loc 1 57 0
  74 001e C8BF     		it	gt
  75 0020 01F13703 		addgt	r3, r1, #55
  76              	.LVL6:
  77              		.loc 1 60 0
  78 0024 B4FBF2F4 		udiv	r4, r4, r2
  79              	.LVL7:
  80              		.loc 1 57 0
  81 0028 2946     		mov	r1, r5
  82              	.LVL8:
  83              		.loc 1 58 0
  84 002a 05F80139 		strb	r3, [r5], #-1
  85              	.LVL9:
  86              		.loc 1 60 0
  87 002e 002C     		cmp	r4, #0
  88 0030 EDD1     		bne	.L13
  89              	.LVL10:
  90              	.LBE5:
  91              	.LBE8:
  92              		.loc 1 70 0
  93 0032 0446     		mov	r4, r0
  94              	.LVL11:
  95              	.LBB9:
  96              	.LBB7:
  97              		.loc 1 62 0
  98 0034 C1EB070C 		rsb	ip, r1, r7
  99 0038 E243     		mvns	r2, r4
 100              	.LVL12:
 101              		.loc 1 70 0
 102 003a 6044     		add	r0, r0, ip
 103              	.LVL13:
 104 003c 1218     		adds	r2, r2, r0
 105 003e 12F0010F 		tst	r2, #1
 106 0042 0AD0     		beq	.L6
 107              	.LVL14:
 108              		.loc 1 64 0
 109 0044 04F8013B 		strb	r3, [r4], #1
 110              	.LVL15:
ARM GAS  C:\Users\DNIEL~1\AppData\Local\Temp\ccHU9Ahj.s 			page 3


 111              		.loc 1 65 0
 112 0048 11F8013F 		ldrb	r3, [r1, #1]!	@ zero_extendqisi2
 113 004c 05E0     		b	.L6
 114              	.LVL16:
 115              	.L14:
 116 004e 11F8013F 		ldrb	r3, [r1, #1]!	@ zero_extendqisi2
 117              		.loc 1 64 0
 118 0052 6370     		strb	r3, [r4, #1]
 119              		.loc 1 65 0
 120 0054 11F8013F 		ldrb	r3, [r1, #1]!	@ zero_extendqisi2
 121              		.loc 1 64 0
 122 0058 541C     		adds	r4, r2, #1
 123              	.LVL17:
 124              	.L6:
 125 005a 2246     		mov	r2, r4
 126 005c 02F8013B 		strb	r3, [r2], #1
 127              	.LVL18:
 128              		.loc 1 65 0
 129 0060 8242     		cmp	r2, r0
 130 0062 F4D1     		bne	.L14
 131              	.LBE7:
 132              	.LBE9:
 133              		.loc 1 73 0
 134 0064 F0BC     		pop	{r4, r5, r6, r7}
 135 0066 7047     		bx	lr
 136              		.cfi_endproc
 137              	.LFE9:
 138              		.size	ltoa, .-ltoa
 139 0068 AFF30080 		.section	.text.chvprintf,"ax",%progbits
 139      AFF30080 
 140              		.align	2
 141              		.p2align 4,,15
 142              		.global	chvprintf
 143              		.thumb
 144              		.thumb_func
 145              		.type	chvprintf, %function
 146              	chvprintf:
 147              	.LFB10:
 148              		.loc 1 112 0
 149              		.cfi_startproc
 150              		@ args = 0, pretend = 0, frame = 16
 151              		@ frame_needed = 0, uses_anonymous_args = 0
 152              	.LVL19:
 153 0000 2DE9F04F 		push	{r4, r5, r6, r7, r8, r9, sl, fp, lr}
 154              	.LCFI1:
 155              		.cfi_def_cfa_offset 36
 156 0004 0446     		mov	r4, r0
 157              		.cfi_offset 14, -4
 158              		.cfi_offset 11, -8
 159              		.cfi_offset 10, -12
 160              		.cfi_offset 9, -16
 161              		.cfi_offset 8, -20
 162              		.cfi_offset 7, -24
 163              		.cfi_offset 6, -28
 164              		.cfi_offset 5, -32
 165              		.cfi_offset 4, -36
 166 0006 85B0     		sub	sp, sp, #20
ARM GAS  C:\Users\DNIEL~1\AppData\Local\Temp\ccHU9Ahj.s 			page 4


 167              	.LCFI2:
 168              		.cfi_def_cfa_offset 56
 169              		.loc 1 112 0
 170 0008 0E46     		mov	r6, r1
 171 000a 1546     		mov	r5, r2
 172              	.LVL20:
 173              	.L94:
 174              		.loc 1 125 0
 175 000c 3178     		ldrb	r1, [r6, #0]	@ zero_extendqisi2
 176              	.LVL21:
 177              		.loc 1 126 0
 178 000e 49B1     		cbz	r1, .L15
 179              	.LVL22:
 180              	.L99:
 181              		.loc 1 125 0
 182 0010 0136     		adds	r6, r6, #1
 183              		.loc 1 128 0
 184 0012 2529     		cmp	r1, #37
 185 0014 09D0     		beq	.L18
 186              		.loc 1 129 0
 187 0016 2268     		ldr	r2, [r4, #0]
 188              	.LVL23:
 189 0018 2046     		mov	r0, r4
 190 001a 9368     		ldr	r3, [r2, #8]
 191 001c 9847     		blx	r3
 192              	.LVL24:
 193              		.loc 1 125 0
 194 001e 3178     		ldrb	r1, [r6, #0]	@ zero_extendqisi2
 195              	.LVL25:
 196              		.loc 1 126 0
 197 0020 0029     		cmp	r1, #0
 198 0022 F5D1     		bne	.L99
 199              	.LVL26:
 200              	.L15:
 201              		.loc 1 261 0
 202 0024 05B0     		add	sp, sp, #20
 203 0026 BDE8F08F 		pop	{r4, r5, r6, r7, r8, r9, sl, fp, pc}
 204              	.L18:
 205              	.LVL27:
 206              		.loc 1 135 0
 207 002a 3378     		ldrb	r3, [r6, #0]	@ zero_extendqisi2
 208 002c 2D2B     		cmp	r3, #45
 209              	.LVL28:
 210              		.loc 1 136 0
 211 002e 06BF     		itte	eq
 212 0030 16F8013F 		ldrbeq	r3, [r6, #1]!	@ zero_extendqisi2
 213              	.LVL29:
 214              		.loc 1 137 0
 215 0034 4FF00108 		moveq	r8, #1
 216              		.loc 1 134 0
 217 0038 4FF00008 		movne	r8, #0
 218              	.LVL30:
 219              		.loc 1 140 0
 220 003c 2E2B     		cmp	r3, #46
 221 003e 00F05B81 		beq	.L21
 222              		.loc 1 140 0 is_stmt 0 discriminator 1
 223 0042 302B     		cmp	r3, #48
ARM GAS  C:\Users\DNIEL~1\AppData\Local\Temp\ccHU9Ahj.s 			page 5


 224 0044 00F05881 		beq	.L21
 225              		.loc 1 139 0 is_stmt 1
 226 0048 2027     		movs	r7, #32
 227              	.LVL31:
 228              	.L22:
 229              		.loc 1 112 0
 230 004a 711C     		adds	r1, r6, #1
 231              		.loc 1 144 0
 232 004c 4FF0000B 		mov	fp, #0
 233 0050 07E0     		b	.L25
 234              	.LVL32:
 235              	.L100:
 236              		.loc 1 150 0
 237 0052 2A78     		ldrb	r2, [r5, #0]	@ zero_extendqisi2
 238              	.LVL33:
 239 0054 0435     		adds	r5, r5, #4
 240              	.LVL34:
 241              	.L23:
 242              		.loc 1 153 0
 243 0056 0BEB8B0B 		add	fp, fp, fp, lsl #2
 244              	.LVL35:
 245 005a 11F8013B 		ldrb	r3, [r1], #1	@ zero_extendqisi2
 246              	.LVL36:
 247 005e 02EB4B0B 		add	fp, r2, fp, lsl #1
 248              	.LVL37:
 249              	.L25:
 250              		.loc 1 147 0
 251 0062 A3F13000 		sub	r0, r3, #48
 252 0066 C2B2     		uxtb	r2, r0
 253              	.LVL38:
 254 0068 092A     		cmp	r2, #9
 255              		.loc 1 141 0
 256 006a 0E46     		mov	r6, r1
 257              	.LVL39:
 258              		.loc 1 147 0
 259 006c F3D9     		bls	.L23
 260              		.loc 1 149 0
 261 006e 2A2B     		cmp	r3, #42
 262 0070 EFD0     		beq	.L100
 263              	.LVL40:
 264              		.loc 1 156 0
 265 0072 2E2B     		cmp	r3, #46
 266 0074 00F04481 		beq	.L101
 267              		.loc 1 155 0
 268 0078 0020     		movs	r0, #0
 269              	.LVL41:
 270              	.L26:
 271              		.loc 1 170 0
 272 007a 6C2B     		cmp	r3, #108
 273 007c 00F03581 		beq	.L29
 274              		.loc 1 170 0 is_stmt 0 discriminator 1
 275 0080 4C2B     		cmp	r3, #76
 276 0082 00F03281 		beq	.L29
 277              	.LVL42:
 278              	.L31:
 279              		.loc 1 179 0 is_stmt 1
 280 0086 A3F14401 		sub	r1, r3, #68
ARM GAS  C:\Users\DNIEL~1\AppData\Local\Temp\ccHU9Ahj.s 			page 6


 281 008a 3429     		cmp	r1, #52
 282 008c 00F21781 		bhi	.L32
 283 0090 DFE811F0 		tbh	[pc, r1, lsl #1]
 284              	.L39:
 285 0094 1E01     		.2byte	(.L33-.L39)/2
 286 0096 1501     		.2byte	(.L32-.L39)/2
 287 0098 1501     		.2byte	(.L32-.L39)/2
 288 009a 1501     		.2byte	(.L32-.L39)/2
 289 009c 1501     		.2byte	(.L32-.L39)/2
 290 009e 1E01     		.2byte	(.L33-.L39)/2
 291 00a0 1501     		.2byte	(.L32-.L39)/2
 292 00a2 1501     		.2byte	(.L32-.L39)/2
 293 00a4 1501     		.2byte	(.L32-.L39)/2
 294 00a6 1501     		.2byte	(.L32-.L39)/2
 295 00a8 1501     		.2byte	(.L32-.L39)/2
 296 00aa 1C01     		.2byte	(.L34-.L39)/2
 297 00ac 1501     		.2byte	(.L32-.L39)/2
 298 00ae 1501     		.2byte	(.L32-.L39)/2
 299 00b0 1501     		.2byte	(.L32-.L39)/2
 300 00b2 1501     		.2byte	(.L32-.L39)/2
 301 00b4 1501     		.2byte	(.L32-.L39)/2
 302 00b6 2901     		.2byte	(.L59-.L39)/2
 303 00b8 1501     		.2byte	(.L32-.L39)/2
 304 00ba 1501     		.2byte	(.L32-.L39)/2
 305 00bc 0C01     		.2byte	(.L36-.L39)/2
 306 00be 1501     		.2byte	(.L32-.L39)/2
 307 00c0 1501     		.2byte	(.L32-.L39)/2
 308 00c2 1501     		.2byte	(.L32-.L39)/2
 309 00c4 1501     		.2byte	(.L32-.L39)/2
 310 00c6 1501     		.2byte	(.L32-.L39)/2
 311 00c8 1501     		.2byte	(.L32-.L39)/2
 312 00ca 1501     		.2byte	(.L32-.L39)/2
 313 00cc 1501     		.2byte	(.L32-.L39)/2
 314 00ce 1501     		.2byte	(.L32-.L39)/2
 315 00d0 1501     		.2byte	(.L32-.L39)/2
 316 00d2 C800     		.2byte	(.L37-.L39)/2
 317 00d4 1E01     		.2byte	(.L33-.L39)/2
 318 00d6 1501     		.2byte	(.L32-.L39)/2
 319 00d8 1501     		.2byte	(.L32-.L39)/2
 320 00da 1501     		.2byte	(.L32-.L39)/2
 321 00dc 1501     		.2byte	(.L32-.L39)/2
 322 00de 1E01     		.2byte	(.L33-.L39)/2
 323 00e0 1501     		.2byte	(.L32-.L39)/2
 324 00e2 1501     		.2byte	(.L32-.L39)/2
 325 00e4 1501     		.2byte	(.L32-.L39)/2
 326 00e6 1501     		.2byte	(.L32-.L39)/2
 327 00e8 1501     		.2byte	(.L32-.L39)/2
 328 00ea 1C01     		.2byte	(.L34-.L39)/2
 329 00ec 1501     		.2byte	(.L32-.L39)/2
 330 00ee 1501     		.2byte	(.L32-.L39)/2
 331 00f0 1501     		.2byte	(.L32-.L39)/2
 332 00f2 3500     		.2byte	(.L38-.L39)/2
 333 00f4 1501     		.2byte	(.L32-.L39)/2
 334 00f6 2901     		.2byte	(.L59-.L39)/2
 335 00f8 1501     		.2byte	(.L32-.L39)/2
 336 00fa 1501     		.2byte	(.L32-.L39)/2
 337 00fc 0C01     		.2byte	(.L36-.L39)/2
ARM GAS  C:\Users\DNIEL~1\AppData\Local\Temp\ccHU9Ahj.s 			page 7


 338              	.L38:
 339              	.LVL43:
 340              		.loc 1 186 0
 341 00fe 2F68     		ldr	r7, [r5, #0]
 342              		.loc 1 187 0
 343 0100 DFF84C92 		ldr	r9, .L106
 344 0104 002F     		cmp	r7, #0
 345 0106 18BF     		it	ne
 346 0108 B946     		movne	r9, r7
 347              		.loc 1 189 0
 348 010a 47F6FF77 		movw	r7, #32767
 349              		.loc 1 190 0
 350 010e 99F80020 		ldrb	r2, [r9, #0]	@ zero_extendqisi2
 351              		.loc 1 186 0
 352 0112 0435     		adds	r5, r5, #4
 353              	.LVL44:
 354              		.loc 1 189 0
 355 0114 0028     		cmp	r0, #0
 356 0116 18BF     		it	ne
 357 0118 0746     		movne	r7, r0
 358              	.LVL45:
 359              		.loc 1 190 0
 360 011a 002A     		cmp	r2, #0
 361 011c 00F01581 		beq	.L62
 362              		.loc 1 112 0
 363 0120 09F10100 		add	r0, r9, #1
 364 0124 C143     		mvns	r1, r0
 365 0126 C719     		adds	r7, r0, r7
 366              		.loc 1 190 0
 367 0128 99F80120 		ldrb	r2, [r9, #1]	@ zero_extendqisi2
 368 012c 01EB070A 		add	sl, r1, r7
 369              	.LVL46:
 370 0130 0AF00101 		and	r1, sl, #1
 371 0134 431C     		adds	r3, r0, #1
 372              	.LVL47:
 373 0136 92B1     		cbz	r2, .L63
 374 0138 BB42     		cmp	r3, r7
 375 013a 10D0     		beq	.L63
 376 013c 21B1     		cbz	r1, .L43
 377              		.loc 1 112 0
 378 013e 1846     		mov	r0, r3
 379              	.LVL48:
 380              		.loc 1 190 0
 381 0140 13F8012B 		ldrb	r2, [r3], #1	@ zero_extendqisi2
 382 0144 4AB9     		cbnz	r2, .L96
 383 0146 0AE0     		b	.L63
 384              	.L43:
 385              		.loc 1 190 0 is_stmt 0 discriminator 1
 386 0148 1A46     		mov	r2, r3
 387              		.loc 1 112 0 is_stmt 1 discriminator 1
 388 014a 1846     		mov	r0, r3
 389              		.loc 1 190 0 discriminator 1
 390 014c 12F8011B 		ldrb	r1, [r2], #1	@ zero_extendqisi2
 391 0150 29B1     		cbz	r1, .L63
 392              		.loc 1 190 0 is_stmt 0 discriminator 2
 393 0152 5978     		ldrb	r1, [r3, #1]	@ zero_extendqisi2
 394              		.loc 1 112 0 is_stmt 1 discriminator 2
ARM GAS  C:\Users\DNIEL~1\AppData\Local\Temp\ccHU9Ahj.s 			page 8


 395 0154 1046     		mov	r0, r2
 396              		.loc 1 190 0 discriminator 2
 397 0156 531C     		adds	r3, r2, #1
 398 0158 09B1     		cbz	r1, .L63
 399              	.L96:
 400              		.loc 1 190 0 is_stmt 0
 401 015a BB42     		cmp	r3, r7
 402 015c F4D1     		bne	.L43
 403              	.L63:
 404              		.loc 1 239 0 is_stmt 1
 405 015e C9EB000A 		rsb	sl, r9, r0
 406              		.loc 1 240 0
 407 0162 CAEB0B0C 		rsb	ip, sl, fp
 408              		.loc 1 185 0
 409 0166 2027     		movs	r7, #32
 410              	.LVL49:
 411              		.loc 1 240 0
 412 0168 2CEAEC7B 		bic	fp, ip, ip, asr #31
 413              	.LVL50:
 414              		.loc 1 242 0
 415 016c B8F1000F 		cmp	r8, #0
 416 0170 6AD0     		beq	.L102
 417              	.LVL51:
 418              	.L49:
 419              		.loc 1 253 0 discriminator 1
 420 0172 BAF1000F 		cmp	sl, #0
 421 0176 27DD     		ble	.L52
 422              	.LVL52:
 423              		.loc 1 254 0
 424 0178 C846     		mov	r8, r9
 425 017a 2068     		ldr	r0, [r4, #0]
 426 017c 18F8011B 		ldrb	r1, [r8], #1	@ zero_extendqisi2
 427 0180 8268     		ldr	r2, [r0, #8]
 428              		.loc 1 112 0
 429 0182 CA44     		add	sl, r9, sl
 430              	.LVL53:
 431 0184 6FEA0909 		mvn	r9, r9
 432 0188 0AEB090E 		add	lr, sl, r9
 433              		.loc 1 254 0
 434 018c 2046     		mov	r0, r4
 435 018e 0EF00109 		and	r9, lr, #1
 436 0192 9047     		blx	r2
 437              	.LVL54:
 438              		.loc 1 253 0
 439 0194 D045     		cmp	r8, sl
 440 0196 17D0     		beq	.L52
 441 0198 B9F1000F 		cmp	r9, #0
 442 019c 03D0     		beq	.L53
 443              		.loc 1 254 0
 444 019e 2368     		ldr	r3, [r4, #0]
 445 01a0 18F8011B 		ldrb	r1, [r8], #1	@ zero_extendqisi2
 446 01a4 0BE0     		b	.L98
 447              	.L53:
 448 01a6 C146     		mov	r9, r8
 449 01a8 2268     		ldr	r2, [r4, #0]
 450 01aa 19F8011B 		ldrb	r1, [r9], #1	@ zero_extendqisi2
 451 01ae 9368     		ldr	r3, [r2, #8]
ARM GAS  C:\Users\DNIEL~1\AppData\Local\Temp\ccHU9Ahj.s 			page 9


 452 01b0 2046     		mov	r0, r4
 453 01b2 9847     		blx	r3
 454 01b4 2368     		ldr	r3, [r4, #0]
 455 01b6 98F80110 		ldrb	r1, [r8, #1]	@ zero_extendqisi2
 456 01ba 09F10108 		add	r8, r9, #1
 457              	.L98:
 458 01be 9A68     		ldr	r2, [r3, #8]
 459 01c0 2046     		mov	r0, r4
 460 01c2 9047     		blx	r2
 461              		.loc 1 253 0
 462 01c4 D045     		cmp	r8, sl
 463 01c6 EED1     		bne	.L53
 464              	.L52:
 465              	.LVL55:
 466              		.loc 1 256 0 discriminator 1
 467 01c8 BBF1000F 		cmp	fp, #0
 468 01cc 3FF41EAF 		beq	.L94
 469              		.loc 1 257 0
 470 01d0 2168     		ldr	r1, [r4, #0]
 471 01d2 0BF1FF3C 		add	ip, fp, #-1
 472 01d6 8B68     		ldr	r3, [r1, #8]
 473              		.loc 1 256 0
 474 01d8 E046     		mov	r8, ip
 475              		.loc 1 257 0
 476 01da 2046     		mov	r0, r4
 477 01dc 3946     		mov	r1, r7
 478 01de 0CF0010B 		and	fp, ip, #1
 479              	.LVL56:
 480 01e2 9847     		blx	r3
 481              	.LVL57:
 482              		.loc 1 256 0
 483 01e4 B8F1000F 		cmp	r8, #0
 484 01e8 3FF410AF 		beq	.L94
 485 01ec BBF1000F 		cmp	fp, #0
 486 01f0 08D0     		beq	.L66
 487              		.loc 1 257 0
 488 01f2 2168     		ldr	r1, [r4, #0]
 489 01f4 2046     		mov	r0, r4
 490 01f6 8B68     		ldr	r3, [r1, #8]
 491 01f8 3946     		mov	r1, r7
 492 01fa 9847     		blx	r3
 493              		.loc 1 256 0
 494 01fc B8F10108 		subs	r8, r8, #1
 495 0200 3FF404AF 		beq	.L94
 496              	.L66:
 497              		.loc 1 257 0
 498 0204 2268     		ldr	r2, [r4, #0]
 499 0206 3946     		mov	r1, r7
 500 0208 9368     		ldr	r3, [r2, #8]
 501 020a 2046     		mov	r0, r4
 502 020c 9847     		blx	r3
 503 020e 2068     		ldr	r0, [r4, #0]
 504              		.loc 1 258 0
 505 0210 08F1FF38 		add	r8, r8, #-1
 506              		.loc 1 257 0
 507 0214 8268     		ldr	r2, [r0, #8]
 508 0216 3946     		mov	r1, r7
ARM GAS  C:\Users\DNIEL~1\AppData\Local\Temp\ccHU9Ahj.s 			page 10


 509 0218 2046     		mov	r0, r4
 510 021a 9047     		blx	r2
 511              		.loc 1 256 0
 512 021c B8F10108 		subs	r8, r8, #1
 513 0220 F0D1     		bne	.L66
 514 0222 F3E6     		b	.L94
 515              	.LVL58:
 516              	.L37:
 517              		.loc 1 182 0
 518 0224 2B68     		ldr	r3, [r5, #0]
 519              	.LVL59:
 520              		.loc 1 133 0
 521 0226 0DF10409 		add	r9, sp, #4
 522              		.loc 1 181 0
 523 022a 2027     		movs	r7, #32
 524              		.loc 1 182 0
 525 022c 8DF80430 		strb	r3, [sp, #4]
 526              	.LVL60:
 527 0230 0435     		adds	r5, r5, #4
 528 0232 09F10100 		add	r0, r9, #1
 529              	.LVL61:
 530              	.L40:
 531              		.loc 1 239 0
 532 0236 C9EB000A 		rsb	sl, r9, r0
 533              	.LVL62:
 534              		.loc 1 240 0
 535 023a CAEB0B0C 		rsb	ip, sl, fp
 536              	.LVL63:
 537 023e 2CEAEC7B 		bic	fp, ip, ip, asr #31
 538              	.LVL64:
 539              		.loc 1 242 0
 540 0242 B8F1000F 		cmp	r8, #0
 541 0246 94D1     		bne	.L49
 542              	.LVL65:
 543              	.L102:
 544              		.loc 1 243 0
 545 0248 CBF1000B 		rsb	fp, fp, #0
 546              	.LVL66:
 547              		.loc 1 244 0
 548 024c BBF1000F 		cmp	fp, #0
 549 0250 8FD0     		beq	.L49
 550              		.loc 1 245 0
 551 0252 99F80010 		ldrb	r1, [r9, #0]	@ zero_extendqisi2
 552 0256 2D29     		cmp	r1, #45
 553 0258 65D0     		beq	.L103
 554              	.LVL67:
 555              	.L88:
 556              		.loc 1 250 0
 557 025a 2168     		ldr	r1, [r4, #0]
 558 025c 2046     		mov	r0, r4
 559 025e 8A68     		ldr	r2, [r1, #8]
 560 0260 3946     		mov	r1, r7
 561 0262 6FEA0B08 		mvn	r8, fp
 562              	.LVL68:
 563 0266 9047     		blx	r2
 564              		.loc 1 251 0
 565 0268 1BF1010B 		adds	fp, fp, #1
ARM GAS  C:\Users\DNIEL~1\AppData\Local\Temp\ccHU9Ahj.s 			page 11


 566              	.LVL69:
 567 026c 08F00108 		and	r8, r8, #1
 568              	.LVL70:
 569 0270 3FF47FAF 		beq	.L49
 570 0274 B8F1000F 		cmp	r8, #0
 571 0278 08D0     		beq	.L67
 572              	.LVL71:
 573              		.loc 1 250 0
 574 027a 2168     		ldr	r1, [r4, #0]
 575 027c 2046     		mov	r0, r4
 576 027e 8B68     		ldr	r3, [r1, #8]
 577 0280 3946     		mov	r1, r7
 578 0282 9847     		blx	r3
 579              	.LVL72:
 580              		.loc 1 251 0
 581 0284 1BF1010B 		adds	fp, fp, #1
 582              	.LVL73:
 583 0288 3FF473AF 		beq	.L49
 584              	.LVL74:
 585              	.L67:
 586              		.loc 1 250 0 discriminator 1
 587 028c 2368     		ldr	r3, [r4, #0]
 588 028e 3946     		mov	r1, r7
 589 0290 9A68     		ldr	r2, [r3, #8]
 590 0292 2046     		mov	r0, r4
 591 0294 9047     		blx	r2
 592 0296 2068     		ldr	r0, [r4, #0]
 593              		.loc 1 251 0 discriminator 1
 594 0298 0BF1010B 		add	fp, fp, #1
 595              	.LVL75:
 596              		.loc 1 250 0 discriminator 1
 597 029c 8368     		ldr	r3, [r0, #8]
 598 029e 3946     		mov	r1, r7
 599 02a0 2046     		mov	r0, r4
 600 02a2 9847     		blx	r3
 601              	.LVL76:
 602              		.loc 1 251 0 discriminator 1
 603 02a4 1BF1010B 		adds	fp, fp, #1
 604              	.LVL77:
 605 02a8 F0D1     		bne	.L67
 606 02aa 62E7     		b	.L49
 607              	.LVL78:
 608              	.L36:
 609              		.loc 1 179 0
 610 02ac 1022     		movs	r2, #16
 611              	.LVL79:
 612              	.L35:
 613              		.loc 1 232 0
 614 02ae 2968     		ldr	r1, [r5, #0]
 615              	.LVL80:
 616              		.loc 1 233 0
 617 02b0 01A8     		add	r0, sp, #4
 618              	.LVL81:
 619              		.loc 1 232 0
 620 02b2 0435     		adds	r5, r5, #4
 621              	.LVL82:
 622              		.loc 1 233 0
ARM GAS  C:\Users\DNIEL~1\AppData\Local\Temp\ccHU9Ahj.s 			page 12


 623 02b4 FFF7FEFF 		bl	ltoa
 624              	.LVL83:
 625              		.loc 1 133 0
 626 02b8 0DF10409 		add	r9, sp, #4
 627              		.loc 1 234 0
 628 02bc BBE7     		b	.L40
 629              	.LVL84:
 630              	.L32:
 631              		.loc 1 133 0
 632 02be 0DF10409 		add	r9, sp, #4
 633              		.loc 1 236 0
 634 02c2 8DF80430 		strb	r3, [sp, #4]
 635              	.LVL85:
 636 02c6 09F10100 		add	r0, r9, #1
 637              	.LVL86:
 638              		.loc 1 237 0
 639 02ca B4E7     		b	.L40
 640              	.LVL87:
 641              	.L34:
 642 02cc 0822     		movs	r2, #8
 643 02ce EEE7     		b	.L35
 644              	.LVL88:
 645              	.L33:
 646              		.loc 1 200 0
 647 02d0 2968     		ldr	r1, [r5, #0]
 648              	.LVL89:
 649 02d2 0435     		adds	r5, r5, #4
 650              	.LVL90:
 651              		.loc 1 201 0
 652 02d4 0029     		cmp	r1, #0
 653 02d6 31DB     		blt	.L104
 654              		.loc 1 132 0
 655 02d8 01A8     		add	r0, sp, #4
 656              	.LVL91:
 657              	.L46:
 658              		.loc 1 205 0
 659 02da 0A22     		movs	r2, #10
 660 02dc FFF7FEFF 		bl	ltoa
 661              	.LVL92:
 662              		.loc 1 133 0
 663 02e0 0DF10409 		add	r9, sp, #4
 664              		.loc 1 206 0
 665 02e4 A7E7     		b	.L40
 666              	.LVL93:
 667              	.L59:
 668              		.loc 1 179 0
 669 02e6 0A22     		movs	r2, #10
 670 02e8 E1E7     		b	.L35
 671              	.LVL94:
 672              	.L29:
 673              		.loc 1 172 0
 674 02ea 3278     		ldrb	r2, [r6, #0]	@ zero_extendqisi2
 675 02ec 002A     		cmp	r2, #0
 676 02ee 3FF4CAAE 		beq	.L31
 677              	.LVL95:
 678              		.loc 1 173 0
 679 02f2 0136     		adds	r6, r6, #1
ARM GAS  C:\Users\DNIEL~1\AppData\Local\Temp\ccHU9Ahj.s 			page 13


 680              	.LVL96:
 681 02f4 1346     		mov	r3, r2
 682 02f6 C6E6     		b	.L31
 683              	.LVL97:
 684              	.L21:
 685              		.loc 1 141 0
 686 02f8 16F8013F 		ldrb	r3, [r6, #1]!	@ zero_extendqisi2
 687              	.LVL98:
 688              		.loc 1 142 0
 689 02fc 3027     		movs	r7, #48
 690 02fe A4E6     		b	.L22
 691              	.LVL99:
 692              	.L101:
 693              		.loc 1 156 0
 694 0300 0020     		movs	r0, #0
 695 0302 05E0     		b	.L28
 696              	.LVL100:
 697              	.L105:
 698              		.loc 1 162 0
 699 0304 2A78     		ldrb	r2, [r5, #0]	@ zero_extendqisi2
 700              	.LVL101:
 701 0306 0435     		adds	r5, r5, #4
 702              	.LVL102:
 703              	.L27:
 704              		.loc 1 165 0
 705 0308 00EB8009 		add	r9, r0, r0, lsl #2
 706              	.LVL103:
 707              		.loc 1 166 0
 708 030c 02EB4900 		add	r0, r2, r9, lsl #1
 709              	.LVL104:
 710              	.L28:
 711              		.loc 1 158 0
 712 0310 11F8013B 		ldrb	r3, [r1], #1	@ zero_extendqisi2
 713              	.LVL105:
 714              		.loc 1 159 0
 715 0314 A3F13006 		sub	r6, r3, #48
 716 0318 F2B2     		uxtb	r2, r6
 717 031a 092A     		cmp	r2, #9
 718              		.loc 1 158 0
 719 031c 0E46     		mov	r6, r1
 720              	.LVL106:
 721              		.loc 1 159 0
 722 031e F3D9     		bls	.L27
 723              		.loc 1 161 0
 724 0320 2A2B     		cmp	r3, #42
 725 0322 EFD0     		beq	.L105
 726 0324 A9E6     		b	.L26
 727              	.LVL107:
 728              	.L103:
 729              		.loc 1 245 0 discriminator 1
 730 0326 302F     		cmp	r7, #48
 731 0328 97D1     		bne	.L88
 732              		.loc 1 246 0
 733 032a 2368     		ldr	r3, [r4, #0]
 734 032c 2046     		mov	r0, r4
 735              	.LVL108:
 736 032e 9A68     		ldr	r2, [r3, #8]
ARM GAS  C:\Users\DNIEL~1\AppData\Local\Temp\ccHU9Ahj.s 			page 14


 737 0330 9047     		blx	r2
 738 0332 09F10109 		add	r9, r9, #1
 739              	.LVL109:
 740              		.loc 1 247 0
 741 0336 0AF1FF3A 		add	sl, sl, #-1
 742              	.LVL110:
 743 033a 8EE7     		b	.L88
 744              	.LVL111:
 745              	.L104:
 746              		.loc 1 202 0
 747 033c 2D23     		movs	r3, #45
 748              	.LVL112:
 749 033e 01A8     		add	r0, sp, #4
 750              	.LVL113:
 751 0340 8DF80430 		strb	r3, [sp, #4]
 752              	.LVL114:
 753              		.loc 1 203 0
 754 0344 4942     		negs	r1, r1
 755              	.LVL115:
 756              		.loc 1 202 0
 757 0346 0130     		adds	r0, r0, #1
 758 0348 C7E7     		b	.L46
 759              	.LVL116:
 760              	.L62:
 761              		.loc 1 190 0
 762 034a 4846     		mov	r0, r9
 763              		.loc 1 185 0
 764 034c 2027     		movs	r7, #32
 765 034e 72E7     		b	.L40
 766              	.L107:
 767              		.align	2
 768              	.L106:
 769 0350 00000000 		.word	.LC0
 770              		.cfi_endproc
 771              	.LFE10:
 772              		.size	chvprintf, .-chvprintf
 773 0354 AFF30080 		.section	.text.chsnprintf,"ax",%progbits
 773      AFF30080 
 773      AFF30080 
 774              		.align	2
 775              		.p2align 4,,15
 776              		.global	chsnprintf
 777              		.thumb
 778              		.thumb_func
 779              		.type	chsnprintf, %function
 780              	chsnprintf:
 781              	.LFB11:
 782              		.loc 1 288 0
 783              		.cfi_startproc
 784              		@ args = 4, pretend = 8, frame = 24
 785              		@ frame_needed = 0, uses_anonymous_args = 1
 786              	.LVL117:
 787 0000 0CB4     		push	{r2, r3}
 788              	.LCFI3:
 789              		.cfi_def_cfa_offset 8
 790 0002 70B5     		push	{r4, r5, r6, lr}
 791              	.LCFI4:
ARM GAS  C:\Users\DNIEL~1\AppData\Local\Temp\ccHU9Ahj.s 			page 15


 792              		.cfi_def_cfa_offset 24
 793 0004 86B0     		sub	sp, sp, #24
 794              	.LCFI5:
 795              		.cfi_def_cfa_offset 48
 796              		.loc 1 288 0
 797 0006 0AAC     		add	r4, sp, #40
 798              		.cfi_offset 14, -12
 799              		.cfi_offset 6, -16
 800              		.cfi_offset 5, -20
 801              		.cfi_offset 4, -24
 802              		.cfi_offset 3, -4
 803              		.cfi_offset 2, -8
 804 0008 0546     		mov	r5, r0
 805 000a 54F8046B 		ldr	r6, [r4], #4
 806              		.loc 1 295 0
 807 000e 4A1E     		subs	r2, r1, #1
 808 0010 0023     		movs	r3, #0
 809 0012 6846     		mov	r0, sp
 810              	.LVL118:
 811 0014 2946     		mov	r1, r5
 812              	.LVL119:
 813 0016 FFF7FEFF 		bl	msObjectInit
 814              	.LVL120:
 815              		.loc 1 300 0
 816 001a 6846     		mov	r0, sp
 817 001c 3146     		mov	r1, r6
 818 001e 2246     		mov	r2, r4
 819              		.loc 1 299 0
 820 0020 0594     		str	r4, [sp, #20]
 821              		.loc 1 300 0
 822 0022 FFF7FEFF 		bl	chvprintf
 823              		.loc 1 304 0
 824 0026 0398     		ldr	r0, [sp, #12]
 825 0028 0023     		movs	r3, #0
 826 002a 2B54     		strb	r3, [r5, r0]
 827              		.loc 1 306 0
 828 002c 06B0     		add	sp, sp, #24
 829 002e BDE87040 		pop	{r4, r5, r6, lr}
 830 0032 02B0     		add	sp, sp, #8
 831 0034 7047     		bx	lr
 832              		.cfi_endproc
 833              	.LFE11:
 834              		.size	chsnprintf, .-chsnprintf
 835 0036 00BFAFF3 		.section	.rodata.str1.4,"aMS",%progbits,1
 835      0080AFF3 
 835      0080
 836              		.align	2
 837              	.LC0:
 838 0000 286E756C 		.ascii	"(null)\000"
 838      6C2900
 839 0007 00       		.text
 840              	.Letext0:
 841              		.section	.debug_loc,"",%progbits
 842              	.Ldebug_loc0:
 843              	.LLST0:
 844 0000 00000000 		.4byte	.LFB9
 845 0004 02000000 		.4byte	.LCFI0
ARM GAS  C:\Users\DNIEL~1\AppData\Local\Temp\ccHU9Ahj.s 			page 16


 846 0008 0200     		.2byte	0x2
 847 000a 7D       		.byte	0x7d
 848 000b 00       		.sleb128 0
 849 000c 02000000 		.4byte	.LCFI0
 850 0010 68000000 		.4byte	.LFE9
 851 0014 0200     		.2byte	0x2
 852 0016 7D       		.byte	0x7d
 853 0017 10       		.sleb128 16
 854 0018 00000000 		.4byte	0x0
 855 001c 00000000 		.4byte	0x0
 856              	.LLST1:
 857 0020 00000000 		.4byte	.LVL0
 858 0024 3C000000 		.4byte	.LVL13
 859 0028 0100     		.2byte	0x1
 860 002a 50       		.byte	0x50
 861 002b 3C000000 		.4byte	.LVL13
 862 002f 48000000 		.4byte	.LVL15
 863 0033 0100     		.2byte	0x1
 864 0035 54       		.byte	0x54
 865 0036 48000000 		.4byte	.LVL15
 866 003a 68000000 		.4byte	.LFE9
 867 003e 0300     		.2byte	0x3
 868 0040 77       		.byte	0x77
 869 0041 75       		.sleb128 -11
 870 0042 9F       		.byte	0x9f
 871 0043 00000000 		.4byte	0x0
 872 0047 00000000 		.4byte	0x0
 873              	.LLST2:
 874 004b 00000000 		.4byte	.LVL0
 875 004f 0E000000 		.4byte	.LVL2
 876 0053 0100     		.2byte	0x1
 877 0055 51       		.byte	0x51
 878 0056 00000000 		.4byte	0x0
 879 005a 00000000 		.4byte	0x0
 880              	.LLST3:
 881 005e 00000000 		.4byte	.LVL0
 882 0062 3A000000 		.4byte	.LVL12
 883 0066 0100     		.2byte	0x1
 884 0068 52       		.byte	0x52
 885 0069 00000000 		.4byte	0x0
 886 006d 00000000 		.4byte	0x0
 887              	.LLST4:
 888 0071 00000000 		.4byte	.LVL0
 889 0075 3A000000 		.4byte	.LVL12
 890 0079 0100     		.2byte	0x1
 891 007b 52       		.byte	0x52
 892 007c 00000000 		.4byte	0x0
 893 0080 00000000 		.4byte	0x0
 894              	.LLST5:
 895 0084 00000000 		.4byte	.LVL0
 896 0088 0E000000 		.4byte	.LVL2
 897 008c 0100     		.2byte	0x1
 898 008e 51       		.byte	0x51
 899 008f 00000000 		.4byte	0x0
 900 0093 00000000 		.4byte	0x0
 901              	.LLST6:
 902 0097 00000000 		.4byte	.LVL0
ARM GAS  C:\Users\DNIEL~1\AppData\Local\Temp\ccHU9Ahj.s 			page 17


 903 009b 3C000000 		.4byte	.LVL13
 904 009f 0100     		.2byte	0x1
 905 00a1 50       		.byte	0x50
 906 00a2 3C000000 		.4byte	.LVL13
 907 00a6 44000000 		.4byte	.LVL14
 908 00aa 0100     		.2byte	0x1
 909 00ac 54       		.byte	0x54
 910 00ad 48000000 		.4byte	.LVL15
 911 00b1 4E000000 		.4byte	.LVL16
 912 00b5 0100     		.2byte	0x1
 913 00b7 54       		.byte	0x54
 914 00b8 5A000000 		.4byte	.LVL17
 915 00bc 60000000 		.4byte	.LVL18
 916 00c0 0100     		.2byte	0x1
 917 00c2 54       		.byte	0x54
 918 00c3 00000000 		.4byte	0x0
 919 00c7 00000000 		.4byte	0x0
 920              	.LLST7:
 921 00cb 0E000000 		.4byte	.LVL2
 922 00cf 10000000 		.4byte	.LVL3
 923 00d3 0100     		.2byte	0x1
 924 00d5 53       		.byte	0x53
 925 00d6 18000000 		.4byte	.LVL4
 926 00da 1C000000 		.4byte	.LVL5
 927 00de 0100     		.2byte	0x1
 928 00e0 51       		.byte	0x51
 929 00e1 1C000000 		.4byte	.LVL5
 930 00e5 24000000 		.4byte	.LVL6
 931 00e9 0100     		.2byte	0x1
 932 00eb 53       		.byte	0x53
 933 00ec 24000000 		.4byte	.LVL6
 934 00f0 32000000 		.4byte	.LVL10
 935 00f4 0100     		.2byte	0x1
 936 00f6 53       		.byte	0x53
 937 00f7 32000000 		.4byte	.LVL10
 938 00fb 44000000 		.4byte	.LVL14
 939 00ff 0600     		.2byte	0x6
 940 0101 77       		.byte	0x77
 941 0102 00       		.sleb128 0
 942 0103 71       		.byte	0x71
 943 0104 00       		.sleb128 0
 944 0105 1C       		.byte	0x1c
 945 0106 9F       		.byte	0x9f
 946 0107 00000000 		.4byte	0x0
 947 010b 00000000 		.4byte	0x0
 948              	.LLST8:
 949 010f 06000000 		.4byte	.LVL1
 950 0113 0E000000 		.4byte	.LVL2
 951 0117 0100     		.2byte	0x1
 952 0119 57       		.byte	0x57
 953 011a 0E000000 		.4byte	.LVL2
 954 011e 10000000 		.4byte	.LVL3
 955 0122 0100     		.2byte	0x1
 956 0124 51       		.byte	0x51
 957 0125 2A000000 		.4byte	.LVL8
 958 0129 2E000000 		.4byte	.LVL9
 959 012d 0100     		.2byte	0x1
ARM GAS  C:\Users\DNIEL~1\AppData\Local\Temp\ccHU9Ahj.s 			page 18


 960 012f 55       		.byte	0x55
 961 0130 2E000000 		.4byte	.LVL9
 962 0134 44000000 		.4byte	.LVL14
 963 0138 0100     		.2byte	0x1
 964 013a 51       		.byte	0x51
 965 013b 00000000 		.4byte	0x0
 966 013f 00000000 		.4byte	0x0
 967              	.LLST9:
 968 0143 00000000 		.4byte	.LVL0
 969 0147 0E000000 		.4byte	.LVL2
 970 014b 0100     		.2byte	0x1
 971 014d 51       		.byte	0x51
 972 014e 10000000 		.4byte	.LVL3
 973 0152 18000000 		.4byte	.LVL4
 974 0156 0100     		.2byte	0x1
 975 0158 51       		.byte	0x51
 976 0159 00000000 		.4byte	0x0
 977 015d 00000000 		.4byte	0x0
 978              	.LLST10:
 979 0161 00000000 		.4byte	.LVL0
 980 0165 0E000000 		.4byte	.LVL2
 981 0169 0100     		.2byte	0x1
 982 016b 51       		.byte	0x51
 983 016c 0E000000 		.4byte	.LVL2
 984 0170 28000000 		.4byte	.LVL7
 985 0174 0100     		.2byte	0x1
 986 0176 54       		.byte	0x54
 987 0177 2E000000 		.4byte	.LVL9
 988 017b 34000000 		.4byte	.LVL11
 989 017f 0100     		.2byte	0x1
 990 0181 54       		.byte	0x54
 991 0182 00000000 		.4byte	0x0
 992 0186 00000000 		.4byte	0x0
 993              	.LLST11:
 994 018a 00000000 		.4byte	.LFB10
 995 018e 04000000 		.4byte	.LCFI1
 996 0192 0200     		.2byte	0x2
 997 0194 7D       		.byte	0x7d
 998 0195 00       		.sleb128 0
 999 0196 04000000 		.4byte	.LCFI1
 1000 019a 08000000 		.4byte	.LCFI2
 1001 019e 0200     		.2byte	0x2
 1002 01a0 7D       		.byte	0x7d
 1003 01a1 24       		.sleb128 36
 1004 01a2 08000000 		.4byte	.LCFI2
 1005 01a6 54030000 		.4byte	.LFE10
 1006 01aa 0200     		.2byte	0x2
 1007 01ac 7D       		.byte	0x7d
 1008 01ad 38       		.sleb128 56
 1009 01ae 00000000 		.4byte	0x0
 1010 01b2 00000000 		.4byte	0x0
 1011              	.LLST12:
 1012 01b6 00000000 		.4byte	.LVL19
 1013 01ba 0C000000 		.4byte	.LVL20
 1014 01be 0100     		.2byte	0x1
 1015 01c0 50       		.byte	0x50
 1016 01c1 0C000000 		.4byte	.LVL20
ARM GAS  C:\Users\DNIEL~1\AppData\Local\Temp\ccHU9Ahj.s 			page 19


 1017 01c5 54030000 		.4byte	.LFE10
 1018 01c9 0100     		.2byte	0x1
 1019 01cb 54       		.byte	0x54
 1020 01cc 00000000 		.4byte	0x0
 1021 01d0 00000000 		.4byte	0x0
 1022              	.LLST13:
 1023 01d4 00000000 		.4byte	.LVL19
 1024 01d8 0C000000 		.4byte	.LVL20
 1025 01dc 0100     		.2byte	0x1
 1026 01de 51       		.byte	0x51
 1027 01df 0C000000 		.4byte	.LVL20
 1028 01e3 0E000000 		.4byte	.LVL21
 1029 01e7 0100     		.2byte	0x1
 1030 01e9 56       		.byte	0x56
 1031 01ea 0E000000 		.4byte	.LVL21
 1032 01ee 10000000 		.4byte	.LVL22
 1033 01f2 0300     		.2byte	0x3
 1034 01f4 76       		.byte	0x76
 1035 01f5 01       		.sleb128 1
 1036 01f6 9F       		.byte	0x9f
 1037 01f7 1E000000 		.4byte	.LVL24
 1038 01fb 20000000 		.4byte	.LVL25
 1039 01ff 0100     		.2byte	0x1
 1040 0201 56       		.byte	0x56
 1041 0202 20000000 		.4byte	.LVL25
 1042 0206 24000000 		.4byte	.LVL26
 1043 020a 0300     		.2byte	0x3
 1044 020c 76       		.byte	0x76
 1045 020d 01       		.sleb128 1
 1046 020e 9F       		.byte	0x9f
 1047 020f 2E000000 		.4byte	.LVL28
 1048 0213 34000000 		.4byte	.LVL29
 1049 0217 0100     		.2byte	0x1
 1050 0219 56       		.byte	0x56
 1051 021a 3C000000 		.4byte	.LVL30
 1052 021e 4A000000 		.4byte	.LVL31
 1053 0222 0100     		.2byte	0x1
 1054 0224 56       		.byte	0x56
 1055 0225 4A000000 		.4byte	.LVL31
 1056 0229 52000000 		.4byte	.LVL32
 1057 022d 0100     		.2byte	0x1
 1058 022f 56       		.byte	0x56
 1059 0230 52000000 		.4byte	.LVL32
 1060 0234 5E000000 		.4byte	.LVL36
 1061 0238 0100     		.2byte	0x1
 1062 023a 51       		.byte	0x51
 1063 023b 5E000000 		.4byte	.LVL36
 1064 023f 62000000 		.4byte	.LVL37
 1065 0243 0100     		.2byte	0x1
 1066 0245 56       		.byte	0x56
 1067 0246 6C000000 		.4byte	.LVL39
 1068 024a 86000000 		.4byte	.LVL42
 1069 024e 0100     		.2byte	0x1
 1070 0250 51       		.byte	0x51
 1071 0251 86000000 		.4byte	.LVL42
 1072 0255 EA020000 		.4byte	.LVL94
 1073 0259 0100     		.2byte	0x1
ARM GAS  C:\Users\DNIEL~1\AppData\Local\Temp\ccHU9Ahj.s 			page 20


 1074 025b 56       		.byte	0x56
 1075 025c EA020000 		.4byte	.LVL94
 1076 0260 F4020000 		.4byte	.LVL96
 1077 0264 0100     		.2byte	0x1
 1078 0266 51       		.byte	0x51
 1079 0267 F4020000 		.4byte	.LVL96
 1080 026b FC020000 		.4byte	.LVL98
 1081 026f 0100     		.2byte	0x1
 1082 0271 56       		.byte	0x56
 1083 0272 FC020000 		.4byte	.LVL98
 1084 0276 00030000 		.4byte	.LVL99
 1085 027a 0300     		.2byte	0x3
 1086 027c 76       		.byte	0x76
 1087 027d 7F       		.sleb128 -1
 1088 027e 9F       		.byte	0x9f
 1089 027f 00030000 		.4byte	.LVL99
 1090 0283 10030000 		.4byte	.LVL104
 1091 0287 0100     		.2byte	0x1
 1092 0289 51       		.byte	0x51
 1093 028a 1E030000 		.4byte	.LVL106
 1094 028e 26030000 		.4byte	.LVL107
 1095 0292 0100     		.2byte	0x1
 1096 0294 51       		.byte	0x51
 1097 0295 26030000 		.4byte	.LVL107
 1098 0299 54030000 		.4byte	.LFE10
 1099 029d 0100     		.2byte	0x1
 1100 029f 56       		.byte	0x56
 1101 02a0 00000000 		.4byte	0x0
 1102 02a4 00000000 		.4byte	0x0
 1103              	.LLST14:
 1104 02a8 00000000 		.4byte	.LVL19
 1105 02ac 18000000 		.4byte	.LVL23
 1106 02b0 0100     		.2byte	0x1
 1107 02b2 52       		.byte	0x52
 1108 02b3 24000000 		.4byte	.LVL26
 1109 02b7 52000000 		.4byte	.LVL32
 1110 02bb 0100     		.2byte	0x1
 1111 02bd 52       		.byte	0x52
 1112 02be 62000000 		.4byte	.LVL37
 1113 02c2 68000000 		.4byte	.LVL38
 1114 02c6 0100     		.2byte	0x1
 1115 02c8 52       		.byte	0x52
 1116 02c9 F8020000 		.4byte	.LVL97
 1117 02cd 00030000 		.4byte	.LVL99
 1118 02d1 0100     		.2byte	0x1
 1119 02d3 52       		.byte	0x52
 1120 02d4 00000000 		.4byte	0x0
 1121 02d8 00000000 		.4byte	0x0
 1122              	.LLST15:
 1123 02dc 2A000000 		.4byte	.LVL27
 1124 02e0 1A010000 		.4byte	.LVL45
 1125 02e4 0300     		.2byte	0x3
 1126 02e6 91       		.byte	0x91
 1127 02e7 4C       		.sleb128 -52
 1128 02e8 9F       		.byte	0x9f
 1129 02e9 1A010000 		.4byte	.LVL45
 1130 02ed 30010000 		.4byte	.LVL46
ARM GAS  C:\Users\DNIEL~1\AppData\Local\Temp\ccHU9Ahj.s 			page 21


 1131 02f1 0100     		.2byte	0x1
 1132 02f3 59       		.byte	0x59
 1133 02f4 30010000 		.4byte	.LVL46
 1134 02f8 40010000 		.4byte	.LVL48
 1135 02fc 0100     		.2byte	0x1
 1136 02fe 50       		.byte	0x50
 1137 02ff 68010000 		.4byte	.LVL49
 1138 0303 72010000 		.4byte	.LVL51
 1139 0307 0100     		.2byte	0x1
 1140 0309 50       		.byte	0x50
 1141 030a 24020000 		.4byte	.LVL58
 1142 030e 30020000 		.4byte	.LVL60
 1143 0312 0300     		.2byte	0x3
 1144 0314 91       		.byte	0x91
 1145 0315 4C       		.sleb128 -52
 1146 0316 9F       		.byte	0x9f
 1147 0317 30020000 		.4byte	.LVL60
 1148 031b 36020000 		.4byte	.LVL61
 1149 031f 0300     		.2byte	0x3
 1150 0321 91       		.byte	0x91
 1151 0322 4D       		.sleb128 -51
 1152 0323 9F       		.byte	0x9f
 1153 0324 36020000 		.4byte	.LVL61
 1154 0328 5A020000 		.4byte	.LVL67
 1155 032c 0100     		.2byte	0x1
 1156 032e 50       		.byte	0x50
 1157 032f AC020000 		.4byte	.LVL78
 1158 0333 B8020000 		.4byte	.LVL83
 1159 0337 0300     		.2byte	0x3
 1160 0339 91       		.byte	0x91
 1161 033a 4C       		.sleb128 -52
 1162 033b 9F       		.byte	0x9f
 1163 033c B8020000 		.4byte	.LVL83
 1164 0340 BE020000 		.4byte	.LVL84
 1165 0344 0100     		.2byte	0x1
 1166 0346 50       		.byte	0x50
 1167 0347 BE020000 		.4byte	.LVL84
 1168 034b C6020000 		.4byte	.LVL85
 1169 034f 0300     		.2byte	0x3
 1170 0351 91       		.byte	0x91
 1171 0352 4C       		.sleb128 -52
 1172 0353 9F       		.byte	0x9f
 1173 0354 C6020000 		.4byte	.LVL85
 1174 0358 CC020000 		.4byte	.LVL87
 1175 035c 0300     		.2byte	0x3
 1176 035e 91       		.byte	0x91
 1177 035f 4D       		.sleb128 -51
 1178 0360 9F       		.byte	0x9f
 1179 0361 CC020000 		.4byte	.LVL87
 1180 0365 DA020000 		.4byte	.LVL91
 1181 0369 0300     		.2byte	0x3
 1182 036b 91       		.byte	0x91
 1183 036c 4C       		.sleb128 -52
 1184 036d 9F       		.byte	0x9f
 1185 036e DA020000 		.4byte	.LVL91
 1186 0372 DF020000 		.4byte	.LVL92-1
 1187 0376 0100     		.2byte	0x1
ARM GAS  C:\Users\DNIEL~1\AppData\Local\Temp\ccHU9Ahj.s 			page 22


 1188 0378 50       		.byte	0x50
 1189 0379 E0020000 		.4byte	.LVL92
 1190 037d E6020000 		.4byte	.LVL93
 1191 0381 0100     		.2byte	0x1
 1192 0383 50       		.byte	0x50
 1193 0384 E6020000 		.4byte	.LVL93
 1194 0388 26030000 		.4byte	.LVL107
 1195 038c 0300     		.2byte	0x3
 1196 038e 91       		.byte	0x91
 1197 038f 4C       		.sleb128 -52
 1198 0390 9F       		.byte	0x9f
 1199 0391 26030000 		.4byte	.LVL107
 1200 0395 2E030000 		.4byte	.LVL108
 1201 0399 0100     		.2byte	0x1
 1202 039b 50       		.byte	0x50
 1203 039c 3C030000 		.4byte	.LVL111
 1204 03a0 44030000 		.4byte	.LVL114
 1205 03a4 0300     		.2byte	0x3
 1206 03a6 91       		.byte	0x91
 1207 03a7 4C       		.sleb128 -52
 1208 03a8 9F       		.byte	0x9f
 1209 03a9 44030000 		.4byte	.LVL114
 1210 03ad 4A030000 		.4byte	.LVL116
 1211 03b1 0300     		.2byte	0x3
 1212 03b3 91       		.byte	0x91
 1213 03b4 4D       		.sleb128 -51
 1214 03b5 9F       		.byte	0x9f
 1215 03b6 4A030000 		.4byte	.LVL116
 1216 03ba 54030000 		.4byte	.LFE10
 1217 03be 0100     		.2byte	0x1
 1218 03c0 59       		.byte	0x59
 1219 03c1 00000000 		.4byte	0x0
 1220 03c5 00000000 		.4byte	0x0
 1221              	.LLST16:
 1222 03c9 2A000000 		.4byte	.LVL27
 1223 03cd 14010000 		.4byte	.LVL44
 1224 03d1 0300     		.2byte	0x3
 1225 03d3 91       		.byte	0x91
 1226 03d4 4C       		.sleb128 -52
 1227 03d5 9F       		.byte	0x9f
 1228 03d6 14010000 		.4byte	.LVL44
 1229 03da 72010000 		.4byte	.LVL51
 1230 03de 0100     		.2byte	0x1
 1231 03e0 59       		.byte	0x59
 1232 03e1 72010000 		.4byte	.LVL51
 1233 03e5 78010000 		.4byte	.LVL52
 1234 03e9 0100     		.2byte	0x1
 1235 03eb 59       		.byte	0x59
 1236 03ec 24020000 		.4byte	.LVL58
 1237 03f0 36020000 		.4byte	.LVL61
 1238 03f4 0300     		.2byte	0x3
 1239 03f6 91       		.byte	0x91
 1240 03f7 4C       		.sleb128 -52
 1241 03f8 9F       		.byte	0x9f
 1242 03f9 36020000 		.4byte	.LVL61
 1243 03fd 70020000 		.4byte	.LVL70
 1244 0401 0100     		.2byte	0x1
ARM GAS  C:\Users\DNIEL~1\AppData\Local\Temp\ccHU9Ahj.s 			page 23


 1245 0403 59       		.byte	0x59
 1246 0404 AC020000 		.4byte	.LVL78
 1247 0408 26030000 		.4byte	.LVL107
 1248 040c 0300     		.2byte	0x3
 1249 040e 91       		.byte	0x91
 1250 040f 4C       		.sleb128 -52
 1251 0410 9F       		.byte	0x9f
 1252 0411 26030000 		.4byte	.LVL107
 1253 0415 36030000 		.4byte	.LVL109
 1254 0419 0100     		.2byte	0x1
 1255 041b 59       		.byte	0x59
 1256 041c 36030000 		.4byte	.LVL109
 1257 0420 3C030000 		.4byte	.LVL111
 1258 0424 0100     		.2byte	0x1
 1259 0426 59       		.byte	0x59
 1260 0427 3C030000 		.4byte	.LVL111
 1261 042b 4A030000 		.4byte	.LVL116
 1262 042f 0300     		.2byte	0x3
 1263 0431 91       		.byte	0x91
 1264 0432 4C       		.sleb128 -52
 1265 0433 9F       		.byte	0x9f
 1266 0434 4A030000 		.4byte	.LVL116
 1267 0438 54030000 		.4byte	.LFE10
 1268 043c 0100     		.2byte	0x1
 1269 043e 59       		.byte	0x59
 1270 043f 00000000 		.4byte	0x0
 1271 0443 00000000 		.4byte	0x0
 1272              	.LLST17:
 1273 0447 0E000000 		.4byte	.LVL21
 1274 044b 10000000 		.4byte	.LVL22
 1275 044f 0100     		.2byte	0x1
 1276 0451 51       		.byte	0x51
 1277 0452 20000000 		.4byte	.LVL25
 1278 0456 24000000 		.4byte	.LVL26
 1279 045a 0100     		.2byte	0x1
 1280 045c 51       		.byte	0x51
 1281 045d 52000000 		.4byte	.LVL32
 1282 0461 54000000 		.4byte	.LVL33
 1283 0465 0100     		.2byte	0x1
 1284 0467 53       		.byte	0x53
 1285 0468 54000000 		.4byte	.LVL33
 1286 046c 56000000 		.4byte	.LVL34
 1287 0470 0100     		.2byte	0x1
 1288 0472 52       		.byte	0x52
 1289 0473 56000000 		.4byte	.LVL34
 1290 0477 62000000 		.4byte	.LVL37
 1291 047b 0100     		.2byte	0x1
 1292 047d 52       		.byte	0x52
 1293 047e 62000000 		.4byte	.LVL37
 1294 0482 7A000000 		.4byte	.LVL41
 1295 0486 0100     		.2byte	0x1
 1296 0488 53       		.byte	0x53
 1297 0489 7A000000 		.4byte	.LVL41
 1298 048d 86000000 		.4byte	.LVL42
 1299 0491 0100     		.2byte	0x1
 1300 0493 53       		.byte	0x53
 1301 0494 86000000 		.4byte	.LVL42
ARM GAS  C:\Users\DNIEL~1\AppData\Local\Temp\ccHU9Ahj.s 			page 24


 1302 0498 36010000 		.4byte	.LVL47
 1303 049c 0100     		.2byte	0x1
 1304 049e 53       		.byte	0x53
 1305 049f 24020000 		.4byte	.LVL58
 1306 04a3 26020000 		.4byte	.LVL59
 1307 04a7 0100     		.2byte	0x1
 1308 04a9 53       		.byte	0x53
 1309 04aa AC020000 		.4byte	.LVL78
 1310 04ae AE020000 		.4byte	.LVL79
 1311 04b2 0100     		.2byte	0x1
 1312 04b4 53       		.byte	0x53
 1313 04b5 BE020000 		.4byte	.LVL84
 1314 04b9 CC020000 		.4byte	.LVL87
 1315 04bd 0100     		.2byte	0x1
 1316 04bf 53       		.byte	0x53
 1317 04c0 CC020000 		.4byte	.LVL87
 1318 04c4 D0020000 		.4byte	.LVL88
 1319 04c8 0200     		.2byte	0x2
 1320 04ca 38       		.byte	0x38
 1321 04cb 9F       		.byte	0x9f
 1322 04cc D0020000 		.4byte	.LVL88
 1323 04d0 DA020000 		.4byte	.LVL91
 1324 04d4 0100     		.2byte	0x1
 1325 04d6 53       		.byte	0x53
 1326 04d7 E6020000 		.4byte	.LVL93
 1327 04db F2020000 		.4byte	.LVL95
 1328 04df 0100     		.2byte	0x1
 1329 04e1 53       		.byte	0x53
 1330 04e2 F2020000 		.4byte	.LVL95
 1331 04e6 F8020000 		.4byte	.LVL97
 1332 04ea 0100     		.2byte	0x1
 1333 04ec 52       		.byte	0x52
 1334 04ed 00030000 		.4byte	.LVL99
 1335 04f1 06030000 		.4byte	.LVL101
 1336 04f5 0100     		.2byte	0x1
 1337 04f7 53       		.byte	0x53
 1338 04f8 06030000 		.4byte	.LVL101
 1339 04fc 08030000 		.4byte	.LVL102
 1340 0500 0100     		.2byte	0x1
 1341 0502 52       		.byte	0x52
 1342 0503 08030000 		.4byte	.LVL102
 1343 0507 10030000 		.4byte	.LVL104
 1344 050b 0100     		.2byte	0x1
 1345 050d 52       		.byte	0x52
 1346 050e 14030000 		.4byte	.LVL105
 1347 0512 26030000 		.4byte	.LVL107
 1348 0516 0100     		.2byte	0x1
 1349 0518 53       		.byte	0x53
 1350 0519 3C030000 		.4byte	.LVL111
 1351 051d 3E030000 		.4byte	.LVL112
 1352 0521 0100     		.2byte	0x1
 1353 0523 53       		.byte	0x53
 1354 0524 4A030000 		.4byte	.LVL116
 1355 0528 54030000 		.4byte	.LFE10
 1356 052c 0100     		.2byte	0x1
 1357 052e 53       		.byte	0x53
 1358 052f 00000000 		.4byte	0x0
ARM GAS  C:\Users\DNIEL~1\AppData\Local\Temp\ccHU9Ahj.s 			page 25


 1359 0533 00000000 		.4byte	0x0
 1360              	.LLST18:
 1361 0537 3C000000 		.4byte	.LVL30
 1362 053b 4A000000 		.4byte	.LVL31
 1363 053f 0300     		.2byte	0x3
 1364 0541 08       		.byte	0x8
 1365 0542 20       		.byte	0x20
 1366 0543 9F       		.byte	0x9f
 1367 0544 4A000000 		.4byte	.LVL31
 1368 0548 FE000000 		.4byte	.LVL43
 1369 054c 0100     		.2byte	0x1
 1370 054e 57       		.byte	0x57
 1371 054f FE000000 		.4byte	.LVL43
 1372 0553 68010000 		.4byte	.LVL49
 1373 0557 0300     		.2byte	0x3
 1374 0559 08       		.byte	0x8
 1375 055a 20       		.byte	0x20
 1376 055b 9F       		.byte	0x9f
 1377 055c 68010000 		.4byte	.LVL49
 1378 0560 72010000 		.4byte	.LVL51
 1379 0564 0100     		.2byte	0x1
 1380 0566 57       		.byte	0x57
 1381 0567 24020000 		.4byte	.LVL58
 1382 056b 36020000 		.4byte	.LVL61
 1383 056f 0300     		.2byte	0x3
 1384 0571 08       		.byte	0x8
 1385 0572 20       		.byte	0x20
 1386 0573 9F       		.byte	0x9f
 1387 0574 36020000 		.4byte	.LVL61
 1388 0578 48020000 		.4byte	.LVL65
 1389 057c 0100     		.2byte	0x1
 1390 057e 57       		.byte	0x57
 1391 057f AC020000 		.4byte	.LVL78
 1392 0583 F8020000 		.4byte	.LVL97
 1393 0587 0100     		.2byte	0x1
 1394 0589 57       		.byte	0x57
 1395 058a F8020000 		.4byte	.LVL97
 1396 058e 00030000 		.4byte	.LVL99
 1397 0592 0300     		.2byte	0x3
 1398 0594 08       		.byte	0x8
 1399 0595 30       		.byte	0x30
 1400 0596 9F       		.byte	0x9f
 1401 0597 00030000 		.4byte	.LVL99
 1402 059b 26030000 		.4byte	.LVL107
 1403 059f 0100     		.2byte	0x1
 1404 05a1 57       		.byte	0x57
 1405 05a2 3C030000 		.4byte	.LVL111
 1406 05a6 4A030000 		.4byte	.LVL116
 1407 05aa 0100     		.2byte	0x1
 1408 05ac 57       		.byte	0x57
 1409 05ad 4A030000 		.4byte	.LVL116
 1410 05b1 54030000 		.4byte	.LFE10
 1411 05b5 0300     		.2byte	0x3
 1412 05b7 08       		.byte	0x8
 1413 05b8 20       		.byte	0x20
 1414 05b9 9F       		.byte	0x9f
 1415 05ba 00000000 		.4byte	0x0
ARM GAS  C:\Users\DNIEL~1\AppData\Local\Temp\ccHU9Ahj.s 			page 26


 1416 05be 00000000 		.4byte	0x0
 1417              	.LLST19:
 1418 05c2 68010000 		.4byte	.LVL49
 1419 05c6 72010000 		.4byte	.LVL51
 1420 05ca 0100     		.2byte	0x1
 1421 05cc 5A       		.byte	0x5a
 1422 05cd 72010000 		.4byte	.LVL51
 1423 05d1 84010000 		.4byte	.LVL53
 1424 05d5 0300     		.2byte	0x3
 1425 05d7 7A       		.byte	0x7a
 1426 05d8 7F       		.sleb128 -1
 1427 05d9 9F       		.byte	0x9f
 1428 05da 3A020000 		.4byte	.LVL62
 1429 05de 70020000 		.4byte	.LVL70
 1430 05e2 0100     		.2byte	0x1
 1431 05e4 5A       		.byte	0x5a
 1432 05e5 26030000 		.4byte	.LVL107
 1433 05e9 3A030000 		.4byte	.LVL110
 1434 05ed 0100     		.2byte	0x1
 1435 05ef 5A       		.byte	0x5a
 1436 05f0 3A030000 		.4byte	.LVL110
 1437 05f4 3C030000 		.4byte	.LVL111
 1438 05f8 0100     		.2byte	0x1
 1439 05fa 5A       		.byte	0x5a
 1440 05fb 00000000 		.4byte	0x0
 1441 05ff 00000000 		.4byte	0x0
 1442              	.LLST20:
 1443 0603 72000000 		.4byte	.LVL40
 1444 0607 7A000000 		.4byte	.LVL41
 1445 060b 0200     		.2byte	0x2
 1446 060d 30       		.byte	0x30
 1447 060e 9F       		.byte	0x9f
 1448 060f 7A000000 		.4byte	.LVL41
 1449 0613 1A010000 		.4byte	.LVL45
 1450 0617 0100     		.2byte	0x1
 1451 0619 50       		.byte	0x50
 1452 061a 24020000 		.4byte	.LVL58
 1453 061e 36020000 		.4byte	.LVL61
 1454 0622 0100     		.2byte	0x1
 1455 0624 50       		.byte	0x50
 1456 0625 AC020000 		.4byte	.LVL78
 1457 0629 B2020000 		.4byte	.LVL81
 1458 062d 0100     		.2byte	0x1
 1459 062f 50       		.byte	0x50
 1460 0630 BE020000 		.4byte	.LVL84
 1461 0634 CA020000 		.4byte	.LVL86
 1462 0638 0100     		.2byte	0x1
 1463 063a 50       		.byte	0x50
 1464 063b CC020000 		.4byte	.LVL87
 1465 063f DA020000 		.4byte	.LVL91
 1466 0643 0100     		.2byte	0x1
 1467 0645 50       		.byte	0x50
 1468 0646 E6020000 		.4byte	.LVL93
 1469 064a F8020000 		.4byte	.LVL97
 1470 064e 0100     		.2byte	0x1
 1471 0650 50       		.byte	0x50
 1472 0651 00030000 		.4byte	.LVL99
ARM GAS  C:\Users\DNIEL~1\AppData\Local\Temp\ccHU9Ahj.s 			page 27


 1473 0655 04030000 		.4byte	.LVL100
 1474 0659 0200     		.2byte	0x2
 1475 065b 30       		.byte	0x30
 1476 065c 9F       		.byte	0x9f
 1477 065d 04030000 		.4byte	.LVL100
 1478 0661 0C030000 		.4byte	.LVL103
 1479 0665 0100     		.2byte	0x1
 1480 0667 50       		.byte	0x50
 1481 0668 0C030000 		.4byte	.LVL103
 1482 066c 10030000 		.4byte	.LVL104
 1483 0670 0500     		.2byte	0x5
 1484 0672 79       		.byte	0x79
 1485 0673 00       		.sleb128 0
 1486 0674 31       		.byte	0x31
 1487 0675 24       		.byte	0x24
 1488 0676 9F       		.byte	0x9f
 1489 0677 10030000 		.4byte	.LVL104
 1490 067b 26030000 		.4byte	.LVL107
 1491 067f 0100     		.2byte	0x1
 1492 0681 50       		.byte	0x50
 1493 0682 3C030000 		.4byte	.LVL111
 1494 0686 40030000 		.4byte	.LVL113
 1495 068a 0100     		.2byte	0x1
 1496 068c 50       		.byte	0x50
 1497 068d 00000000 		.4byte	0x0
 1498 0691 00000000 		.4byte	0x0
 1499              	.LLST21:
 1500 0695 4A000000 		.4byte	.LVL31
 1501 0699 52000000 		.4byte	.LVL32
 1502 069d 0200     		.2byte	0x2
 1503 069f 30       		.byte	0x30
 1504 06a0 9F       		.byte	0x9f
 1505 06a1 52000000 		.4byte	.LVL32
 1506 06a5 5A000000 		.4byte	.LVL35
 1507 06a9 0100     		.2byte	0x1
 1508 06ab 5B       		.byte	0x5b
 1509 06ac 62000000 		.4byte	.LVL37
 1510 06b0 68010000 		.4byte	.LVL49
 1511 06b4 0100     		.2byte	0x1
 1512 06b6 5B       		.byte	0x5b
 1513 06b7 68010000 		.4byte	.LVL49
 1514 06bb 6C010000 		.4byte	.LVL50
 1515 06bf 0100     		.2byte	0x1
 1516 06c1 5C       		.byte	0x5c
 1517 06c2 6C010000 		.4byte	.LVL50
 1518 06c6 72010000 		.4byte	.LVL51
 1519 06ca 0100     		.2byte	0x1
 1520 06cc 5B       		.byte	0x5b
 1521 06cd 72010000 		.4byte	.LVL51
 1522 06d1 94010000 		.4byte	.LVL54
 1523 06d5 0100     		.2byte	0x1
 1524 06d7 5B       		.byte	0x5b
 1525 06d8 C8010000 		.4byte	.LVL55
 1526 06dc E2010000 		.4byte	.LVL56
 1527 06e0 0100     		.2byte	0x1
 1528 06e2 5B       		.byte	0x5b
 1529 06e3 E2010000 		.4byte	.LVL56
ARM GAS  C:\Users\DNIEL~1\AppData\Local\Temp\ccHU9Ahj.s 			page 28


 1530 06e7 E3010000 		.4byte	.LVL57-1
 1531 06eb 0300     		.2byte	0x3
 1532 06ed 7C       		.byte	0x7c
 1533 06ee 01       		.sleb128 1
 1534 06ef 9F       		.byte	0x9f
 1535 06f0 E3010000 		.4byte	.LVL57-1
 1536 06f4 E4010000 		.4byte	.LVL57
 1537 06f8 0300     		.2byte	0x3
 1538 06fa 78       		.byte	0x78
 1539 06fb 01       		.sleb128 1
 1540 06fc 9F       		.byte	0x9f
 1541 06fd 24020000 		.4byte	.LVL58
 1542 0701 3E020000 		.4byte	.LVL63
 1543 0705 0100     		.2byte	0x1
 1544 0707 5B       		.byte	0x5b
 1545 0708 3E020000 		.4byte	.LVL63
 1546 070c 42020000 		.4byte	.LVL64
 1547 0710 0100     		.2byte	0x1
 1548 0712 5C       		.byte	0x5c
 1549 0713 42020000 		.4byte	.LVL64
 1550 0717 4C020000 		.4byte	.LVL66
 1551 071b 0100     		.2byte	0x1
 1552 071d 5B       		.byte	0x5b
 1553 071e 4C020000 		.4byte	.LVL66
 1554 0722 6C020000 		.4byte	.LVL69
 1555 0726 0100     		.2byte	0x1
 1556 0728 5B       		.byte	0x5b
 1557 0729 6C020000 		.4byte	.LVL69
 1558 072d 70020000 		.4byte	.LVL70
 1559 0731 0300     		.2byte	0x3
 1560 0733 7B       		.byte	0x7b
 1561 0734 7F       		.sleb128 -1
 1562 0735 9F       		.byte	0x9f
 1563 0736 7A020000 		.4byte	.LVL71
 1564 073a 84020000 		.4byte	.LVL72
 1565 073e 0100     		.2byte	0x1
 1566 0740 5B       		.byte	0x5b
 1567 0741 84020000 		.4byte	.LVL72
 1568 0745 88020000 		.4byte	.LVL73
 1569 0749 0300     		.2byte	0x3
 1570 074b 7B       		.byte	0x7b
 1571 074c 01       		.sleb128 1
 1572 074d 9F       		.byte	0x9f
 1573 074e 88020000 		.4byte	.LVL73
 1574 0752 8C020000 		.4byte	.LVL74
 1575 0756 0100     		.2byte	0x1
 1576 0758 5B       		.byte	0x5b
 1577 0759 8C020000 		.4byte	.LVL74
 1578 075d 9C020000 		.4byte	.LVL75
 1579 0761 0100     		.2byte	0x1
 1580 0763 5B       		.byte	0x5b
 1581 0764 A4020000 		.4byte	.LVL76
 1582 0768 A8020000 		.4byte	.LVL77
 1583 076c 0300     		.2byte	0x3
 1584 076e 7B       		.byte	0x7b
 1585 076f 01       		.sleb128 1
 1586 0770 9F       		.byte	0x9f
ARM GAS  C:\Users\DNIEL~1\AppData\Local\Temp\ccHU9Ahj.s 			page 29


 1587 0771 A8020000 		.4byte	.LVL77
 1588 0775 F8020000 		.4byte	.LVL97
 1589 0779 0100     		.2byte	0x1
 1590 077b 5B       		.byte	0x5b
 1591 077c 00030000 		.4byte	.LVL99
 1592 0780 54030000 		.4byte	.LFE10
 1593 0784 0100     		.2byte	0x1
 1594 0786 5B       		.byte	0x5b
 1595 0787 00000000 		.4byte	0x0
 1596 078b 00000000 		.4byte	0x0
 1597              	.LLST22:
 1598 078f EA020000 		.4byte	.LVL94
 1599 0793 F8020000 		.4byte	.LVL97
 1600 0797 0200     		.2byte	0x2
 1601 0799 31       		.byte	0x31
 1602 079a 9F       		.byte	0x9f
 1603 079b 00000000 		.4byte	0x0
 1604 079f 00000000 		.4byte	0x0
 1605              	.LLST23:
 1606 07a3 2A000000 		.4byte	.LVL27
 1607 07a7 2E000000 		.4byte	.LVL28
 1608 07ab 0200     		.2byte	0x2
 1609 07ad 30       		.byte	0x30
 1610 07ae 9F       		.byte	0x9f
 1611 07af 2E000000 		.4byte	.LVL28
 1612 07b3 3C000000 		.4byte	.LVL30
 1613 07b7 0200     		.2byte	0x2
 1614 07b9 31       		.byte	0x31
 1615 07ba 9F       		.byte	0x9f
 1616 07bb 3C000000 		.4byte	.LVL30
 1617 07bf 72010000 		.4byte	.LVL51
 1618 07c3 0100     		.2byte	0x1
 1619 07c5 58       		.byte	0x58
 1620 07c6 24020000 		.4byte	.LVL58
 1621 07ca 66020000 		.4byte	.LVL68
 1622 07ce 0100     		.2byte	0x1
 1623 07d0 58       		.byte	0x58
 1624 07d1 AC020000 		.4byte	.LVL78
 1625 07d5 54030000 		.4byte	.LFE10
 1626 07d9 0100     		.2byte	0x1
 1627 07db 58       		.byte	0x58
 1628 07dc 00000000 		.4byte	0x0
 1629 07e0 00000000 		.4byte	0x0
 1630              	.LLST24:
 1631 07e4 B0020000 		.4byte	.LVL80
 1632 07e8 B4020000 		.4byte	.LVL82
 1633 07ec 0200     		.2byte	0x2
 1634 07ee 75       		.byte	0x75
 1635 07ef 00       		.sleb128 0
 1636 07f0 B4020000 		.4byte	.LVL82
 1637 07f4 B7020000 		.4byte	.LVL83-1
 1638 07f8 0200     		.2byte	0x2
 1639 07fa 75       		.byte	0x75
 1640 07fb 7C       		.sleb128 -4
 1641 07fc D2020000 		.4byte	.LVL89
 1642 0800 D4020000 		.4byte	.LVL90
 1643 0804 0200     		.2byte	0x2
ARM GAS  C:\Users\DNIEL~1\AppData\Local\Temp\ccHU9Ahj.s 			page 30


 1644 0806 75       		.byte	0x75
 1645 0807 00       		.sleb128 0
 1646 0808 D4020000 		.4byte	.LVL90
 1647 080c DA020000 		.4byte	.LVL91
 1648 0810 0200     		.2byte	0x2
 1649 0812 75       		.byte	0x75
 1650 0813 7C       		.sleb128 -4
 1651 0814 DA020000 		.4byte	.LVL91
 1652 0818 DF020000 		.4byte	.LVL92-1
 1653 081c 0100     		.2byte	0x1
 1654 081e 51       		.byte	0x51
 1655 081f 3C030000 		.4byte	.LVL111
 1656 0823 46030000 		.4byte	.LVL115
 1657 0827 0100     		.2byte	0x1
 1658 0829 51       		.byte	0x51
 1659 082a 46030000 		.4byte	.LVL115
 1660 082e 4A030000 		.4byte	.LVL116
 1661 0832 0100     		.2byte	0x1
 1662 0834 51       		.byte	0x51
 1663 0835 00000000 		.4byte	0x0
 1664 0839 00000000 		.4byte	0x0
 1665              	.LLST25:
 1666 083d 00000000 		.4byte	.LFB11
 1667 0841 02000000 		.4byte	.LCFI3
 1668 0845 0200     		.2byte	0x2
 1669 0847 7D       		.byte	0x7d
 1670 0848 00       		.sleb128 0
 1671 0849 02000000 		.4byte	.LCFI3
 1672 084d 04000000 		.4byte	.LCFI4
 1673 0851 0200     		.2byte	0x2
 1674 0853 7D       		.byte	0x7d
 1675 0854 08       		.sleb128 8
 1676 0855 04000000 		.4byte	.LCFI4
 1677 0859 06000000 		.4byte	.LCFI5
 1678 085d 0200     		.2byte	0x2
 1679 085f 7D       		.byte	0x7d
 1680 0860 18       		.sleb128 24
 1681 0861 06000000 		.4byte	.LCFI5
 1682 0865 36000000 		.4byte	.LFE11
 1683 0869 0200     		.2byte	0x2
 1684 086b 7D       		.byte	0x7d
 1685 086c 30       		.sleb128 48
 1686 086d 00000000 		.4byte	0x0
 1687 0871 00000000 		.4byte	0x0
 1688              	.LLST26:
 1689 0875 00000000 		.4byte	.LVL117
 1690 0879 14000000 		.4byte	.LVL118
 1691 087d 0100     		.2byte	0x1
 1692 087f 50       		.byte	0x50
 1693 0880 14000000 		.4byte	.LVL118
 1694 0884 36000000 		.4byte	.LFE11
 1695 0888 0100     		.2byte	0x1
 1696 088a 55       		.byte	0x55
 1697 088b 00000000 		.4byte	0x0
 1698 088f 00000000 		.4byte	0x0
 1699              	.LLST27:
 1700 0893 00000000 		.4byte	.LVL117
ARM GAS  C:\Users\DNIEL~1\AppData\Local\Temp\ccHU9Ahj.s 			page 31


 1701 0897 16000000 		.4byte	.LVL119
 1702 089b 0100     		.2byte	0x1
 1703 089d 51       		.byte	0x51
 1704 089e 16000000 		.4byte	.LVL119
 1705 08a2 19000000 		.4byte	.LVL120-1
 1706 08a6 0300     		.2byte	0x3
 1707 08a8 72       		.byte	0x72
 1708 08a9 01       		.sleb128 1
 1709 08aa 9F       		.byte	0x9f
 1710 08ab 00000000 		.4byte	0x0
 1711 08af 00000000 		.4byte	0x0
 1712              		.file 2 "c:\\program files (x86)\\codesourcery\\sourcery g++ lite\\bin\\../lib/gcc/arm-none-eabi/4
 1713              		.file 3 "c:\\program files (x86)\\codesourcery\\sourcery g++ lite\\bin\\../lib/gcc/arm-none-eabi/4
 1714              		.file 4 "../../../ChibiOS/os/ports/GCC/ARMCMx/chtypes.h"
 1715              		.file 5 "../../../ChibiOS/os/kernel/include/chstreams.h"
 1716              		.file 6 "c:\\program files (x86)\\codesourcery\\sourcery g++ lite\\bin\\../lib/gcc/arm-none-eabi/4
 1717              		.file 7 "<built-in>"
 1718              		.file 8 "../../../ChibiOS/os/various/memstreams.h"
 1719              		.section	.debug_info
 1720 0000 0C050000 		.4byte	0x50c
 1721 0004 0200     		.2byte	0x2
 1722 0006 00000000 		.4byte	.Ldebug_abbrev0
 1723 000a 04       		.byte	0x4
 1724 000b 01       		.uleb128 0x1
 1725 000c 2E000000 		.4byte	.LASF38
 1726 0010 01       		.byte	0x1
 1727 0011 00000000 		.4byte	.LASF39
 1728 0015 7E010000 		.4byte	.LASF40
 1729 0019 00000000 		.4byte	0x0
 1730 001d 00000000 		.4byte	0x0
 1731 0021 40000000 		.4byte	.Ldebug_ranges0+0x40
 1732 0025 00000000 		.4byte	.Ldebug_line0
 1733 0029 02       		.uleb128 0x2
 1734 002a 04       		.byte	0x4
 1735 002b 05       		.byte	0x5
 1736 002c 696E7400 		.ascii	"int\000"
 1737 0030 03       		.uleb128 0x3
 1738 0031 27000000 		.4byte	.LASF2
 1739 0035 02       		.byte	0x2
 1740 0036 D3       		.byte	0xd3
 1741 0037 3B000000 		.4byte	0x3b
 1742 003b 04       		.uleb128 0x4
 1743 003c 04       		.byte	0x4
 1744 003d 07       		.byte	0x7
 1745 003e FE000000 		.4byte	.LASF0
 1746 0042 04       		.uleb128 0x4
 1747 0043 01       		.byte	0x1
 1748 0044 06       		.byte	0x6
 1749 0045 FA010000 		.4byte	.LASF1
 1750 0049 03       		.uleb128 0x3
 1751 004a D2010000 		.4byte	.LASF3
 1752 004e 03       		.byte	0x3
 1753 004f 2A       		.byte	0x2a
 1754 0050 54000000 		.4byte	0x54
 1755 0054 04       		.uleb128 0x4
 1756 0055 01       		.byte	0x1
 1757 0056 08       		.byte	0x8
ARM GAS  C:\Users\DNIEL~1\AppData\Local\Temp\ccHU9Ahj.s 			page 32


 1758 0057 CB000000 		.4byte	.LASF4
 1759 005b 04       		.uleb128 0x4
 1760 005c 02       		.byte	0x2
 1761 005d 05       		.byte	0x5
 1762 005e C8010000 		.4byte	.LASF5
 1763 0062 04       		.uleb128 0x4
 1764 0063 02       		.byte	0x2
 1765 0064 07       		.byte	0x7
 1766 0065 A4000000 		.4byte	.LASF6
 1767 0069 03       		.uleb128 0x3
 1768 006a 4D010000 		.4byte	.LASF7
 1769 006e 03       		.byte	0x3
 1770 006f 4F       		.byte	0x4f
 1771 0070 74000000 		.4byte	0x74
 1772 0074 04       		.uleb128 0x4
 1773 0075 04       		.byte	0x4
 1774 0076 05       		.byte	0x5
 1775 0077 F1010000 		.4byte	.LASF8
 1776 007b 04       		.uleb128 0x4
 1777 007c 04       		.byte	0x4
 1778 007d 07       		.byte	0x7
 1779 007e 92000000 		.4byte	.LASF9
 1780 0082 04       		.uleb128 0x4
 1781 0083 08       		.byte	0x8
 1782 0084 05       		.byte	0x5
 1783 0085 66010000 		.4byte	.LASF10
 1784 0089 04       		.uleb128 0x4
 1785 008a 08       		.byte	0x8
 1786 008b 07       		.byte	0x7
 1787 008c 11010000 		.4byte	.LASF11
 1788 0090 03       		.uleb128 0x3
 1789 0091 48000000 		.4byte	.LASF12
 1790 0095 04       		.byte	0x4
 1791 0096 2B       		.byte	0x2b
 1792 0097 9B000000 		.4byte	0x9b
 1793 009b 04       		.uleb128 0x4
 1794 009c 01       		.byte	0x1
 1795 009d 02       		.byte	0x2
 1796 009e 0B020000 		.4byte	.LASF13
 1797 00a2 03       		.uleb128 0x3
 1798 00a3 0B010000 		.4byte	.LASF14
 1799 00a7 04       		.byte	0x4
 1800 00a8 31       		.byte	0x31
 1801 00a9 69000000 		.4byte	0x69
 1802 00ad 05       		.uleb128 0x5
 1803 00ae 04       		.byte	0x4
 1804 00af 06       		.uleb128 0x6
 1805 00b0 04       		.byte	0x4
 1806 00b1 B5000000 		.4byte	0xb5
 1807 00b5 07       		.uleb128 0x7
 1808 00b6 BA000000 		.4byte	0xba
 1809 00ba 04       		.uleb128 0x4
 1810 00bb 01       		.byte	0x1
 1811 00bc 08       		.byte	0x8
 1812 00bd B1010000 		.4byte	.LASF15
 1813 00c1 06       		.uleb128 0x6
 1814 00c2 04       		.byte	0x4
ARM GAS  C:\Users\DNIEL~1\AppData\Local\Temp\ccHU9Ahj.s 			page 33


 1815 00c3 C7000000 		.4byte	0xc7
 1816 00c7 08       		.uleb128 0x8
 1817 00c8 01       		.byte	0x1
 1818 00c9 A2000000 		.4byte	0xa2
 1819 00cd D7000000 		.4byte	0xd7
 1820 00d1 09       		.uleb128 0x9
 1821 00d2 AD000000 		.4byte	0xad
 1822 00d6 00       		.byte	0x0
 1823 00d7 06       		.uleb128 0x6
 1824 00d8 04       		.byte	0x4
 1825 00d9 49000000 		.4byte	0x49
 1826 00dd 0A       		.uleb128 0xa
 1827 00de 11020000 		.4byte	.LASF20
 1828 00e2 10       		.byte	0x10
 1829 00e3 05       		.byte	0x5
 1830 00e4 48       		.byte	0x48
 1831 00e5 22010000 		.4byte	0x122
 1832 00e9 0B       		.uleb128 0xb
 1833 00ea B7000000 		.4byte	.LASF16
 1834 00ee 05       		.byte	0x5
 1835 00ef 49       		.byte	0x49
 1836 00f0 47010000 		.4byte	0x147
 1837 00f4 02       		.byte	0x2
 1838 00f5 23       		.byte	0x23
 1839 00f6 00       		.uleb128 0x0
 1840 00f7 0B       		.uleb128 0xb
 1841 00f8 E8000000 		.4byte	.LASF17
 1842 00fc 05       		.byte	0x5
 1843 00fd 49       		.byte	0x49
 1844 00fe 67010000 		.4byte	0x167
 1845 0102 02       		.byte	0x2
 1846 0103 23       		.byte	0x23
 1847 0104 04       		.uleb128 0x4
 1848 0105 0C       		.uleb128 0xc
 1849 0106 70757400 		.ascii	"put\000"
 1850 010a 05       		.byte	0x5
 1851 010b 49       		.byte	0x49
 1852 010c 82010000 		.4byte	0x182
 1853 0110 02       		.byte	0x2
 1854 0111 23       		.byte	0x23
 1855 0112 08       		.uleb128 0x8
 1856 0113 0C       		.uleb128 0xc
 1857 0114 67657400 		.ascii	"get\000"
 1858 0118 05       		.byte	0x5
 1859 0119 49       		.byte	0x49
 1860 011a C1000000 		.4byte	0xc1
 1861 011e 02       		.byte	0x2
 1862 011f 23       		.byte	0x23
 1863 0120 0C       		.uleb128 0xc
 1864 0121 00       		.byte	0x0
 1865 0122 08       		.uleb128 0x8
 1866 0123 01       		.byte	0x1
 1867 0124 30000000 		.4byte	0x30
 1868 0128 3C010000 		.4byte	0x13c
 1869 012c 09       		.uleb128 0x9
 1870 012d AD000000 		.4byte	0xad
 1871 0131 09       		.uleb128 0x9
ARM GAS  C:\Users\DNIEL~1\AppData\Local\Temp\ccHU9Ahj.s 			page 34


 1872 0132 3C010000 		.4byte	0x13c
 1873 0136 09       		.uleb128 0x9
 1874 0137 30000000 		.4byte	0x30
 1875 013b 00       		.byte	0x0
 1876 013c 06       		.uleb128 0x6
 1877 013d 04       		.byte	0x4
 1878 013e 42010000 		.4byte	0x142
 1879 0142 07       		.uleb128 0x7
 1880 0143 49000000 		.4byte	0x49
 1881 0147 06       		.uleb128 0x6
 1882 0148 04       		.byte	0x4
 1883 0149 22010000 		.4byte	0x122
 1884 014d 08       		.uleb128 0x8
 1885 014e 01       		.byte	0x1
 1886 014f 30000000 		.4byte	0x30
 1887 0153 67010000 		.4byte	0x167
 1888 0157 09       		.uleb128 0x9
 1889 0158 AD000000 		.4byte	0xad
 1890 015c 09       		.uleb128 0x9
 1891 015d D7000000 		.4byte	0xd7
 1892 0161 09       		.uleb128 0x9
 1893 0162 30000000 		.4byte	0x30
 1894 0166 00       		.byte	0x0
 1895 0167 06       		.uleb128 0x6
 1896 0168 04       		.byte	0x4
 1897 0169 4D010000 		.4byte	0x14d
 1898 016d 08       		.uleb128 0x8
 1899 016e 01       		.byte	0x1
 1900 016f A2000000 		.4byte	0xa2
 1901 0173 82010000 		.4byte	0x182
 1902 0177 09       		.uleb128 0x9
 1903 0178 AD000000 		.4byte	0xad
 1904 017c 09       		.uleb128 0x9
 1905 017d 49000000 		.4byte	0x49
 1906 0181 00       		.byte	0x0
 1907 0182 06       		.uleb128 0x6
 1908 0183 04       		.byte	0x4
 1909 0184 6D010000 		.4byte	0x16d
 1910 0188 0D       		.uleb128 0xd
 1911 0189 04       		.byte	0x4
 1912 018a 05       		.byte	0x5
 1913 018b 51       		.byte	0x51
 1914 018c 9F010000 		.4byte	0x19f
 1915 0190 0C       		.uleb128 0xc
 1916 0191 766D7400 		.ascii	"vmt\000"
 1917 0195 05       		.byte	0x5
 1918 0196 53       		.byte	0x53
 1919 0197 9F010000 		.4byte	0x19f
 1920 019b 02       		.byte	0x2
 1921 019c 23       		.byte	0x23
 1922 019d 00       		.uleb128 0x0
 1923 019e 00       		.byte	0x0
 1924 019f 06       		.uleb128 0x6
 1925 01a0 04       		.byte	0x4
 1926 01a1 A5010000 		.4byte	0x1a5
 1927 01a5 07       		.uleb128 0x7
 1928 01a6 DD000000 		.4byte	0xdd
ARM GAS  C:\Users\DNIEL~1\AppData\Local\Temp\ccHU9Ahj.s 			page 35


 1929 01aa 03       		.uleb128 0x3
 1930 01ab 78000000 		.4byte	.LASF18
 1931 01af 05       		.byte	0x5
 1932 01b0 55       		.byte	0x55
 1933 01b1 88010000 		.4byte	0x188
 1934 01b5 03       		.uleb128 0x3
 1935 01b6 D9000000 		.4byte	.LASF19
 1936 01ba 06       		.byte	0x6
 1937 01bb 28       		.byte	0x28
 1938 01bc C0010000 		.4byte	0x1c0
 1939 01c0 0A       		.uleb128 0xa
 1940 01c1 5C010000 		.4byte	.LASF21
 1941 01c5 04       		.byte	0x4
 1942 01c6 07       		.byte	0x7
 1943 01c7 00       		.byte	0x0
 1944 01c8 DA010000 		.4byte	0x1da
 1945 01cc 0E       		.uleb128 0xe
 1946 01cd 30010000 		.4byte	.LASF41
 1947 01d1 AD000000 		.4byte	0xad
 1948 01d5 02       		.byte	0x2
 1949 01d6 23       		.byte	0x23
 1950 01d7 00       		.uleb128 0x0
 1951 01d8 01       		.byte	0x1
 1952 01d9 00       		.byte	0x0
 1953 01da 03       		.uleb128 0x3
 1954 01db BD000000 		.4byte	.LASF22
 1955 01df 06       		.byte	0x6
 1956 01e0 66       		.byte	0x66
 1957 01e1 B5010000 		.4byte	0x1b5
 1958 01e5 0A       		.uleb128 0xa
 1959 01e6 4F000000 		.4byte	.LASF23
 1960 01ea 10       		.byte	0x10
 1961 01eb 08       		.byte	0x8
 1962 01ec 3D       		.byte	0x3d
 1963 01ed 2A020000 		.4byte	0x22a
 1964 01f1 0B       		.uleb128 0xb
 1965 01f2 B7000000 		.4byte	.LASF16
 1966 01f6 08       		.byte	0x8
 1967 01f7 3E       		.byte	0x3e
 1968 01f8 47010000 		.4byte	0x147
 1969 01fc 02       		.byte	0x2
 1970 01fd 23       		.byte	0x23
 1971 01fe 00       		.uleb128 0x0
 1972 01ff 0B       		.uleb128 0xb
 1973 0200 E8000000 		.4byte	.LASF17
 1974 0204 08       		.byte	0x8
 1975 0205 3E       		.byte	0x3e
 1976 0206 67010000 		.4byte	0x167
 1977 020a 02       		.byte	0x2
 1978 020b 23       		.byte	0x23
 1979 020c 04       		.uleb128 0x4
 1980 020d 0C       		.uleb128 0xc
 1981 020e 70757400 		.ascii	"put\000"
 1982 0212 08       		.byte	0x8
 1983 0213 3E       		.byte	0x3e
 1984 0214 82010000 		.4byte	0x182
 1985 0218 02       		.byte	0x2
ARM GAS  C:\Users\DNIEL~1\AppData\Local\Temp\ccHU9Ahj.s 			page 36


 1986 0219 23       		.byte	0x23
 1987 021a 08       		.uleb128 0x8
 1988 021b 0C       		.uleb128 0xc
 1989 021c 67657400 		.ascii	"get\000"
 1990 0220 08       		.byte	0x8
 1991 0221 3E       		.byte	0x3e
 1992 0222 C1000000 		.4byte	0xc1
 1993 0226 02       		.byte	0x2
 1994 0227 23       		.byte	0x23
 1995 0228 0C       		.uleb128 0xc
 1996 0229 00       		.byte	0x0
 1997 022a 0D       		.uleb128 0xd
 1998 022b 14       		.byte	0x14
 1999 022c 08       		.byte	0x8
 2000 022d 46       		.byte	0x46
 2001 022e 79020000 		.4byte	0x279
 2002 0232 0C       		.uleb128 0xc
 2003 0233 766D7400 		.ascii	"vmt\000"
 2004 0237 08       		.byte	0x8
 2005 0238 48       		.byte	0x48
 2006 0239 79020000 		.4byte	0x279
 2007 023d 02       		.byte	0x2
 2008 023e 23       		.byte	0x23
 2009 023f 00       		.uleb128 0x0
 2010 0240 0B       		.uleb128 0xb
 2011 0241 DA010000 		.4byte	.LASF24
 2012 0245 08       		.byte	0x8
 2013 0246 49       		.byte	0x49
 2014 0247 D7000000 		.4byte	0xd7
 2015 024b 02       		.byte	0x2
 2016 024c 23       		.byte	0x23
 2017 024d 04       		.uleb128 0x4
 2018 024e 0B       		.uleb128 0xb
 2019 024f 8D000000 		.4byte	.LASF25
 2020 0253 08       		.byte	0x8
 2021 0254 49       		.byte	0x49
 2022 0255 30000000 		.4byte	0x30
 2023 0259 02       		.byte	0x2
 2024 025a 23       		.byte	0x23
 2025 025b 08       		.uleb128 0x8
 2026 025c 0C       		.uleb128 0xc
 2027 025d 656F7300 		.ascii	"eos\000"
 2028 0261 08       		.byte	0x8
 2029 0262 49       		.byte	0x49
 2030 0263 30000000 		.4byte	0x30
 2031 0267 02       		.byte	0x2
 2032 0268 23       		.byte	0x23
 2033 0269 0C       		.uleb128 0xc
 2034 026a 0B       		.uleb128 0xb
 2035 026b C1010000 		.4byte	.LASF26
 2036 026f 08       		.byte	0x8
 2037 0270 49       		.byte	0x49
 2038 0271 30000000 		.4byte	0x30
 2039 0275 02       		.byte	0x2
 2040 0276 23       		.byte	0x23
 2041 0277 10       		.uleb128 0x10
 2042 0278 00       		.byte	0x0
ARM GAS  C:\Users\DNIEL~1\AppData\Local\Temp\ccHU9Ahj.s 			page 37


 2043 0279 06       		.uleb128 0x6
 2044 027a 04       		.byte	0x4
 2045 027b 7F020000 		.4byte	0x27f
 2046 027f 07       		.uleb128 0x7
 2047 0280 E5010000 		.4byte	0x1e5
 2048 0284 03       		.uleb128 0x3
 2049 0285 40010000 		.4byte	.LASF27
 2050 0289 08       		.byte	0x8
 2051 028a 4A       		.byte	0x4a
 2052 028b 2A020000 		.4byte	0x22a
 2053 028f 0F       		.uleb128 0xf
 2054 0290 5C000000 		.4byte	.LASF42
 2055 0294 01       		.byte	0x1
 2056 0295 25       		.byte	0x25
 2057 0296 01       		.byte	0x1
 2058 0297 F0020000 		.4byte	0x2f0
 2059 029b 01       		.byte	0x1
 2060 029c F0020000 		.4byte	0x2f0
 2061 02a0 10       		.uleb128 0x10
 2062 02a1 7000     		.ascii	"p\000"
 2063 02a3 01       		.byte	0x1
 2064 02a4 25       		.byte	0x25
 2065 02a5 F0020000 		.4byte	0x2f0
 2066 02a9 10       		.uleb128 0x10
 2067 02aa 6E756D00 		.ascii	"num\000"
 2068 02ae 01       		.byte	0x1
 2069 02af 26       		.byte	0x26
 2070 02b0 74000000 		.4byte	0x74
 2071 02b4 11       		.uleb128 0x11
 2072 02b5 42000000 		.4byte	.LASF28
 2073 02b9 01       		.byte	0x1
 2074 02ba 27       		.byte	0x27
 2075 02bb 3B000000 		.4byte	0x3b
 2076 02bf 11       		.uleb128 0x11
 2077 02c0 28010000 		.4byte	.LASF29
 2078 02c4 01       		.byte	0x1
 2079 02c5 28       		.byte	0x28
 2080 02c6 74000000 		.4byte	0x74
 2081 02ca 12       		.uleb128 0x12
 2082 02cb 6900     		.ascii	"i\000"
 2083 02cd 01       		.byte	0x1
 2084 02ce 29       		.byte	0x29
 2085 02cf 29000000 		.4byte	0x29
 2086 02d3 12       		.uleb128 0x12
 2087 02d4 7100     		.ascii	"q\000"
 2088 02d6 01       		.byte	0x1
 2089 02d7 2A       		.byte	0x2a
 2090 02d8 F0020000 		.4byte	0x2f0
 2091 02dc 12       		.uleb128 0x12
 2092 02dd 6C00     		.ascii	"l\000"
 2093 02df 01       		.byte	0x1
 2094 02e0 2B       		.byte	0x2b
 2095 02e1 74000000 		.4byte	0x74
 2096 02e5 12       		.uleb128 0x12
 2097 02e6 6C6C00   		.ascii	"ll\000"
 2098 02e9 01       		.byte	0x1
 2099 02ea 2B       		.byte	0x2b
ARM GAS  C:\Users\DNIEL~1\AppData\Local\Temp\ccHU9Ahj.s 			page 38


 2100 02eb 74000000 		.4byte	0x74
 2101 02ef 00       		.byte	0x0
 2102 02f0 06       		.uleb128 0x6
 2103 02f1 04       		.byte	0x4
 2104 02f2 BA000000 		.4byte	0xba
 2105 02f6 13       		.uleb128 0x13
 2106 02f7 06020000 		.4byte	.LASF43
 2107 02fb 01       		.byte	0x1
 2108 02fc 46       		.byte	0x46
 2109 02fd 01       		.byte	0x1
 2110 02fe F0020000 		.4byte	0x2f0
 2111 0302 00000000 		.4byte	.LFB9
 2112 0306 68000000 		.4byte	.LFE9
 2113 030a 00000000 		.4byte	.LLST0
 2114 030e 99030000 		.4byte	0x399
 2115 0312 14       		.uleb128 0x14
 2116 0313 7000     		.ascii	"p\000"
 2117 0315 01       		.byte	0x1
 2118 0316 46       		.byte	0x46
 2119 0317 F0020000 		.4byte	0x2f0
 2120 031b 20000000 		.4byte	.LLST1
 2121 031f 14       		.uleb128 0x14
 2122 0320 6E756D00 		.ascii	"num\000"
 2123 0324 01       		.byte	0x1
 2124 0325 46       		.byte	0x46
 2125 0326 74000000 		.4byte	0x74
 2126 032a 4B000000 		.4byte	.LLST2
 2127 032e 15       		.uleb128 0x15
 2128 032f 42000000 		.4byte	.LASF28
 2129 0333 01       		.byte	0x1
 2130 0334 46       		.byte	0x46
 2131 0335 3B000000 		.4byte	0x3b
 2132 0339 5E000000 		.4byte	.LLST3
 2133 033d 16       		.uleb128 0x16
 2134 033e 8F020000 		.4byte	0x28f
 2135 0342 02000000 		.4byte	.LBB4
 2136 0346 00000000 		.4byte	.Ldebug_ranges0+0x0
 2137 034a 01       		.byte	0x1
 2138 034b 48       		.byte	0x48
 2139 034c 17       		.uleb128 0x17
 2140 034d BF020000 		.4byte	0x2bf
 2141 0351 00       		.byte	0x0
 2142 0352 18       		.uleb128 0x18
 2143 0353 B4020000 		.4byte	0x2b4
 2144 0357 71000000 		.4byte	.LLST4
 2145 035b 18       		.uleb128 0x18
 2146 035c A9020000 		.4byte	0x2a9
 2147 0360 84000000 		.4byte	.LLST5
 2148 0364 18       		.uleb128 0x18
 2149 0365 A0020000 		.4byte	0x2a0
 2150 0369 97000000 		.4byte	.LLST6
 2151 036d 19       		.uleb128 0x19
 2152 036e 20000000 		.4byte	.Ldebug_ranges0+0x20
 2153 0372 1A       		.uleb128 0x1a
 2154 0373 CA020000 		.4byte	0x2ca
 2155 0377 CB000000 		.4byte	.LLST7
 2156 037b 1A       		.uleb128 0x1a
ARM GAS  C:\Users\DNIEL~1\AppData\Local\Temp\ccHU9Ahj.s 			page 39


 2157 037c D3020000 		.4byte	0x2d3
 2158 0380 0F010000 		.4byte	.LLST8
 2159 0384 1A       		.uleb128 0x1a
 2160 0385 DC020000 		.4byte	0x2dc
 2161 0389 43010000 		.4byte	.LLST9
 2162 038d 1A       		.uleb128 0x1a
 2163 038e E5020000 		.4byte	0x2e5
 2164 0392 61010000 		.4byte	.LLST10
 2165 0396 00       		.byte	0x0
 2166 0397 00       		.byte	0x0
 2167 0398 00       		.byte	0x0
 2168 0399 1B       		.uleb128 0x1b
 2169 039a 01       		.byte	0x1
 2170 039b ED000000 		.4byte	.LASF36
 2171 039f 01       		.byte	0x1
 2172 03a0 70       		.byte	0x70
 2173 03a1 01       		.byte	0x1
 2174 03a2 00000000 		.4byte	.LFB10
 2175 03a6 54030000 		.4byte	.LFE10
 2176 03aa 8A010000 		.4byte	.LLST11
 2177 03ae 84040000 		.4byte	0x484
 2178 03b2 14       		.uleb128 0x14
 2179 03b3 63687000 		.ascii	"chp\000"
 2180 03b7 01       		.byte	0x1
 2181 03b8 70       		.byte	0x70
 2182 03b9 84040000 		.4byte	0x484
 2183 03bd B6010000 		.4byte	.LLST12
 2184 03c1 14       		.uleb128 0x14
 2185 03c2 666D7400 		.ascii	"fmt\000"
 2186 03c6 01       		.byte	0x1
 2187 03c7 70       		.byte	0x70
 2188 03c8 AF000000 		.4byte	0xaf
 2189 03cc D4010000 		.4byte	.LLST13
 2190 03d0 14       		.uleb128 0x14
 2191 03d1 617000   		.ascii	"ap\000"
 2192 03d4 01       		.byte	0x1
 2193 03d5 70       		.byte	0x70
 2194 03d6 DA010000 		.4byte	0x1da
 2195 03da A8020000 		.4byte	.LLST14
 2196 03de 1C       		.uleb128 0x1c
 2197 03df 7000     		.ascii	"p\000"
 2198 03e1 01       		.byte	0x1
 2199 03e2 71       		.byte	0x71
 2200 03e3 F0020000 		.4byte	0x2f0
 2201 03e7 DC020000 		.4byte	.LLST15
 2202 03eb 1C       		.uleb128 0x1c
 2203 03ec 7300     		.ascii	"s\000"
 2204 03ee 01       		.byte	0x1
 2205 03ef 71       		.byte	0x71
 2206 03f0 F0020000 		.4byte	0x2f0
 2207 03f4 C9030000 		.4byte	.LLST16
 2208 03f8 1C       		.uleb128 0x1c
 2209 03f9 6300     		.ascii	"c\000"
 2210 03fb 01       		.byte	0x1
 2211 03fc 71       		.byte	0x71
 2212 03fd BA000000 		.4byte	0xba
 2213 0401 47040000 		.4byte	.LLST17
ARM GAS  C:\Users\DNIEL~1\AppData\Local\Temp\ccHU9Ahj.s 			page 40


 2214 0405 1D       		.uleb128 0x1d
 2215 0406 F7000000 		.4byte	.LASF30
 2216 040a 01       		.byte	0x1
 2217 040b 71       		.byte	0x71
 2218 040c BA000000 		.4byte	0xba
 2219 0410 37050000 		.4byte	.LLST18
 2220 0414 1C       		.uleb128 0x1c
 2221 0415 6900     		.ascii	"i\000"
 2222 0417 01       		.byte	0x1
 2223 0418 72       		.byte	0x72
 2224 0419 29000000 		.4byte	0x29
 2225 041d C2050000 		.4byte	.LLST19
 2226 0421 1D       		.uleb128 0x1d
 2227 0422 74010000 		.4byte	.LASF31
 2228 0426 01       		.byte	0x1
 2229 0427 72       		.byte	0x72
 2230 0428 29000000 		.4byte	0x29
 2231 042c 03060000 		.4byte	.LLST20
 2232 0430 1D       		.uleb128 0x1d
 2233 0431 C5000000 		.4byte	.LASF32
 2234 0435 01       		.byte	0x1
 2235 0436 72       		.byte	0x72
 2236 0437 29000000 		.4byte	0x29
 2237 043b 95060000 		.4byte	.LLST21
 2238 043f 1D       		.uleb128 0x1d
 2239 0440 3A000000 		.4byte	.LASF33
 2240 0444 01       		.byte	0x1
 2241 0445 73       		.byte	0x73
 2242 0446 90000000 		.4byte	0x90
 2243 044a 8F070000 		.4byte	.LLST22
 2244 044e 1D       		.uleb128 0x1d
 2245 044f B6010000 		.4byte	.LASF34
 2246 0453 01       		.byte	0x1
 2247 0454 73       		.byte	0x73
 2248 0455 90000000 		.4byte	0x90
 2249 0459 A3070000 		.4byte	.LLST23
 2250 045d 1C       		.uleb128 0x1c
 2251 045e 6C00     		.ascii	"l\000"
 2252 0460 01       		.byte	0x1
 2253 0461 74       		.byte	0x74
 2254 0462 74000000 		.4byte	0x74
 2255 0466 E4070000 		.4byte	.LLST24
 2256 046a 1E       		.uleb128 0x1e
 2257 046b 55010000 		.4byte	.LASF35
 2258 046f 01       		.byte	0x1
 2259 0470 79       		.byte	0x79
 2260 0471 8A040000 		.4byte	0x48a
 2261 0475 02       		.byte	0x2
 2262 0476 91       		.byte	0x91
 2263 0477 4C       		.sleb128 -52
 2264 0478 1F       		.uleb128 0x1f
 2265 0479 E1010000 		.4byte	.LASF44
 2266 047d 01       		.byte	0x1
 2267 047e E4       		.byte	0xe4
 2268 047f AE020000 		.4byte	.L35
 2269 0483 00       		.byte	0x0
 2270 0484 06       		.uleb128 0x6
ARM GAS  C:\Users\DNIEL~1\AppData\Local\Temp\ccHU9Ahj.s 			page 41


 2271 0485 04       		.byte	0x4
 2272 0486 AA010000 		.4byte	0x1aa
 2273 048a 20       		.uleb128 0x20
 2274 048b BA000000 		.4byte	0xba
 2275 048f 9A040000 		.4byte	0x49a
 2276 0493 21       		.uleb128 0x21
 2277 0494 3B000000 		.4byte	0x3b
 2278 0498 0B       		.byte	0xb
 2279 0499 00       		.byte	0x0
 2280 049a 22       		.uleb128 0x22
 2281 049b 01       		.byte	0x1
 2282 049c 35010000 		.4byte	.LASF37
 2283 04a0 01       		.byte	0x1
 2284 04a1 2001     		.2byte	0x120
 2285 04a3 01       		.byte	0x1
 2286 04a4 29000000 		.4byte	0x29
 2287 04a8 00000000 		.4byte	.LFB11
 2288 04ac 36000000 		.4byte	.LFE11
 2289 04b0 3D080000 		.4byte	.LLST25
 2290 04b4 23       		.uleb128 0x23
 2291 04b5 73747200 		.ascii	"str\000"
 2292 04b9 01       		.byte	0x1
 2293 04ba 2001     		.2byte	0x120
 2294 04bc F0020000 		.4byte	0x2f0
 2295 04c0 75080000 		.4byte	.LLST26
 2296 04c4 24       		.uleb128 0x24
 2297 04c5 8D000000 		.4byte	.LASF25
 2298 04c9 01       		.byte	0x1
 2299 04ca 2001     		.2byte	0x120
 2300 04cc 30000000 		.4byte	0x30
 2301 04d0 93080000 		.4byte	.LLST27
 2302 04d4 25       		.uleb128 0x25
 2303 04d5 666D7400 		.ascii	"fmt\000"
 2304 04d9 01       		.byte	0x1
 2305 04da 2001     		.2byte	0x120
 2306 04dc AF000000 		.4byte	0xaf
 2307 04e0 02       		.byte	0x2
 2308 04e1 91       		.byte	0x91
 2309 04e2 78       		.sleb128 -8
 2310 04e3 26       		.uleb128 0x26
 2311 04e4 27       		.uleb128 0x27
 2312 04e5 617000   		.ascii	"ap\000"
 2313 04e8 01       		.byte	0x1
 2314 04e9 2101     		.2byte	0x121
 2315 04eb DA010000 		.4byte	0x1da
 2316 04ef 02       		.byte	0x2
 2317 04f0 91       		.byte	0x91
 2318 04f1 64       		.sleb128 -28
 2319 04f2 27       		.uleb128 0x27
 2320 04f3 6D7300   		.ascii	"ms\000"
 2321 04f6 01       		.byte	0x1
 2322 04f7 2201     		.2byte	0x122
 2323 04f9 84020000 		.4byte	0x284
 2324 04fd 02       		.byte	0x2
 2325 04fe 91       		.byte	0x91
 2326 04ff 50       		.sleb128 -48
 2327 0500 27       		.uleb128 0x27
ARM GAS  C:\Users\DNIEL~1\AppData\Local\Temp\ccHU9Ahj.s 			page 42


 2328 0501 63687000 		.ascii	"chp\000"
 2329 0505 01       		.byte	0x1
 2330 0506 2301     		.2byte	0x123
 2331 0508 84040000 		.4byte	0x484
 2332 050c 01       		.byte	0x1
 2333 050d 5D       		.byte	0x5d
 2334 050e 00       		.byte	0x0
 2335 050f 00       		.byte	0x0
 2336              		.section	.debug_abbrev
 2337 0000 01       		.uleb128 0x1
 2338 0001 11       		.uleb128 0x11
 2339 0002 01       		.byte	0x1
 2340 0003 25       		.uleb128 0x25
 2341 0004 0E       		.uleb128 0xe
 2342 0005 13       		.uleb128 0x13
 2343 0006 0B       		.uleb128 0xb
 2344 0007 03       		.uleb128 0x3
 2345 0008 0E       		.uleb128 0xe
 2346 0009 1B       		.uleb128 0x1b
 2347 000a 0E       		.uleb128 0xe
 2348 000b 11       		.uleb128 0x11
 2349 000c 01       		.uleb128 0x1
 2350 000d 52       		.uleb128 0x52
 2351 000e 01       		.uleb128 0x1
 2352 000f 55       		.uleb128 0x55
 2353 0010 06       		.uleb128 0x6
 2354 0011 10       		.uleb128 0x10
 2355 0012 06       		.uleb128 0x6
 2356 0013 00       		.byte	0x0
 2357 0014 00       		.byte	0x0
 2358 0015 02       		.uleb128 0x2
 2359 0016 24       		.uleb128 0x24
 2360 0017 00       		.byte	0x0
 2361 0018 0B       		.uleb128 0xb
 2362 0019 0B       		.uleb128 0xb
 2363 001a 3E       		.uleb128 0x3e
 2364 001b 0B       		.uleb128 0xb
 2365 001c 03       		.uleb128 0x3
 2366 001d 08       		.uleb128 0x8
 2367 001e 00       		.byte	0x0
 2368 001f 00       		.byte	0x0
 2369 0020 03       		.uleb128 0x3
 2370 0021 16       		.uleb128 0x16
 2371 0022 00       		.byte	0x0
 2372 0023 03       		.uleb128 0x3
 2373 0024 0E       		.uleb128 0xe
 2374 0025 3A       		.uleb128 0x3a
 2375 0026 0B       		.uleb128 0xb
 2376 0027 3B       		.uleb128 0x3b
 2377 0028 0B       		.uleb128 0xb
 2378 0029 49       		.uleb128 0x49
 2379 002a 13       		.uleb128 0x13
 2380 002b 00       		.byte	0x0
 2381 002c 00       		.byte	0x0
 2382 002d 04       		.uleb128 0x4
 2383 002e 24       		.uleb128 0x24
 2384 002f 00       		.byte	0x0
ARM GAS  C:\Users\DNIEL~1\AppData\Local\Temp\ccHU9Ahj.s 			page 43


 2385 0030 0B       		.uleb128 0xb
 2386 0031 0B       		.uleb128 0xb
 2387 0032 3E       		.uleb128 0x3e
 2388 0033 0B       		.uleb128 0xb
 2389 0034 03       		.uleb128 0x3
 2390 0035 0E       		.uleb128 0xe
 2391 0036 00       		.byte	0x0
 2392 0037 00       		.byte	0x0
 2393 0038 05       		.uleb128 0x5
 2394 0039 0F       		.uleb128 0xf
 2395 003a 00       		.byte	0x0
 2396 003b 0B       		.uleb128 0xb
 2397 003c 0B       		.uleb128 0xb
 2398 003d 00       		.byte	0x0
 2399 003e 00       		.byte	0x0
 2400 003f 06       		.uleb128 0x6
 2401 0040 0F       		.uleb128 0xf
 2402 0041 00       		.byte	0x0
 2403 0042 0B       		.uleb128 0xb
 2404 0043 0B       		.uleb128 0xb
 2405 0044 49       		.uleb128 0x49
 2406 0045 13       		.uleb128 0x13
 2407 0046 00       		.byte	0x0
 2408 0047 00       		.byte	0x0
 2409 0048 07       		.uleb128 0x7
 2410 0049 26       		.uleb128 0x26
 2411 004a 00       		.byte	0x0
 2412 004b 49       		.uleb128 0x49
 2413 004c 13       		.uleb128 0x13
 2414 004d 00       		.byte	0x0
 2415 004e 00       		.byte	0x0
 2416 004f 08       		.uleb128 0x8
 2417 0050 15       		.uleb128 0x15
 2418 0051 01       		.byte	0x1
 2419 0052 27       		.uleb128 0x27
 2420 0053 0C       		.uleb128 0xc
 2421 0054 49       		.uleb128 0x49
 2422 0055 13       		.uleb128 0x13
 2423 0056 01       		.uleb128 0x1
 2424 0057 13       		.uleb128 0x13
 2425 0058 00       		.byte	0x0
 2426 0059 00       		.byte	0x0
 2427 005a 09       		.uleb128 0x9
 2428 005b 05       		.uleb128 0x5
 2429 005c 00       		.byte	0x0
 2430 005d 49       		.uleb128 0x49
 2431 005e 13       		.uleb128 0x13
 2432 005f 00       		.byte	0x0
 2433 0060 00       		.byte	0x0
 2434 0061 0A       		.uleb128 0xa
 2435 0062 13       		.uleb128 0x13
 2436 0063 01       		.byte	0x1
 2437 0064 03       		.uleb128 0x3
 2438 0065 0E       		.uleb128 0xe
 2439 0066 0B       		.uleb128 0xb
 2440 0067 0B       		.uleb128 0xb
 2441 0068 3A       		.uleb128 0x3a
ARM GAS  C:\Users\DNIEL~1\AppData\Local\Temp\ccHU9Ahj.s 			page 44


 2442 0069 0B       		.uleb128 0xb
 2443 006a 3B       		.uleb128 0x3b
 2444 006b 0B       		.uleb128 0xb
 2445 006c 01       		.uleb128 0x1
 2446 006d 13       		.uleb128 0x13
 2447 006e 00       		.byte	0x0
 2448 006f 00       		.byte	0x0
 2449 0070 0B       		.uleb128 0xb
 2450 0071 0D       		.uleb128 0xd
 2451 0072 00       		.byte	0x0
 2452 0073 03       		.uleb128 0x3
 2453 0074 0E       		.uleb128 0xe
 2454 0075 3A       		.uleb128 0x3a
 2455 0076 0B       		.uleb128 0xb
 2456 0077 3B       		.uleb128 0x3b
 2457 0078 0B       		.uleb128 0xb
 2458 0079 49       		.uleb128 0x49
 2459 007a 13       		.uleb128 0x13
 2460 007b 38       		.uleb128 0x38
 2461 007c 0A       		.uleb128 0xa
 2462 007d 00       		.byte	0x0
 2463 007e 00       		.byte	0x0
 2464 007f 0C       		.uleb128 0xc
 2465 0080 0D       		.uleb128 0xd
 2466 0081 00       		.byte	0x0
 2467 0082 03       		.uleb128 0x3
 2468 0083 08       		.uleb128 0x8
 2469 0084 3A       		.uleb128 0x3a
 2470 0085 0B       		.uleb128 0xb
 2471 0086 3B       		.uleb128 0x3b
 2472 0087 0B       		.uleb128 0xb
 2473 0088 49       		.uleb128 0x49
 2474 0089 13       		.uleb128 0x13
 2475 008a 38       		.uleb128 0x38
 2476 008b 0A       		.uleb128 0xa
 2477 008c 00       		.byte	0x0
 2478 008d 00       		.byte	0x0
 2479 008e 0D       		.uleb128 0xd
 2480 008f 13       		.uleb128 0x13
 2481 0090 01       		.byte	0x1
 2482 0091 0B       		.uleb128 0xb
 2483 0092 0B       		.uleb128 0xb
 2484 0093 3A       		.uleb128 0x3a
 2485 0094 0B       		.uleb128 0xb
 2486 0095 3B       		.uleb128 0x3b
 2487 0096 0B       		.uleb128 0xb
 2488 0097 01       		.uleb128 0x1
 2489 0098 13       		.uleb128 0x13
 2490 0099 00       		.byte	0x0
 2491 009a 00       		.byte	0x0
 2492 009b 0E       		.uleb128 0xe
 2493 009c 0D       		.uleb128 0xd
 2494 009d 00       		.byte	0x0
 2495 009e 03       		.uleb128 0x3
 2496 009f 0E       		.uleb128 0xe
 2497 00a0 49       		.uleb128 0x49
 2498 00a1 13       		.uleb128 0x13
ARM GAS  C:\Users\DNIEL~1\AppData\Local\Temp\ccHU9Ahj.s 			page 45


 2499 00a2 38       		.uleb128 0x38
 2500 00a3 0A       		.uleb128 0xa
 2501 00a4 34       		.uleb128 0x34
 2502 00a5 0C       		.uleb128 0xc
 2503 00a6 00       		.byte	0x0
 2504 00a7 00       		.byte	0x0
 2505 00a8 0F       		.uleb128 0xf
 2506 00a9 2E       		.uleb128 0x2e
 2507 00aa 01       		.byte	0x1
 2508 00ab 03       		.uleb128 0x3
 2509 00ac 0E       		.uleb128 0xe
 2510 00ad 3A       		.uleb128 0x3a
 2511 00ae 0B       		.uleb128 0xb
 2512 00af 3B       		.uleb128 0x3b
 2513 00b0 0B       		.uleb128 0xb
 2514 00b1 27       		.uleb128 0x27
 2515 00b2 0C       		.uleb128 0xc
 2516 00b3 49       		.uleb128 0x49
 2517 00b4 13       		.uleb128 0x13
 2518 00b5 20       		.uleb128 0x20
 2519 00b6 0B       		.uleb128 0xb
 2520 00b7 01       		.uleb128 0x1
 2521 00b8 13       		.uleb128 0x13
 2522 00b9 00       		.byte	0x0
 2523 00ba 00       		.byte	0x0
 2524 00bb 10       		.uleb128 0x10
 2525 00bc 05       		.uleb128 0x5
 2526 00bd 00       		.byte	0x0
 2527 00be 03       		.uleb128 0x3
 2528 00bf 08       		.uleb128 0x8
 2529 00c0 3A       		.uleb128 0x3a
 2530 00c1 0B       		.uleb128 0xb
 2531 00c2 3B       		.uleb128 0x3b
 2532 00c3 0B       		.uleb128 0xb
 2533 00c4 49       		.uleb128 0x49
 2534 00c5 13       		.uleb128 0x13
 2535 00c6 00       		.byte	0x0
 2536 00c7 00       		.byte	0x0
 2537 00c8 11       		.uleb128 0x11
 2538 00c9 05       		.uleb128 0x5
 2539 00ca 00       		.byte	0x0
 2540 00cb 03       		.uleb128 0x3
 2541 00cc 0E       		.uleb128 0xe
 2542 00cd 3A       		.uleb128 0x3a
 2543 00ce 0B       		.uleb128 0xb
 2544 00cf 3B       		.uleb128 0x3b
 2545 00d0 0B       		.uleb128 0xb
 2546 00d1 49       		.uleb128 0x49
 2547 00d2 13       		.uleb128 0x13
 2548 00d3 00       		.byte	0x0
 2549 00d4 00       		.byte	0x0
 2550 00d5 12       		.uleb128 0x12
 2551 00d6 34       		.uleb128 0x34
 2552 00d7 00       		.byte	0x0
 2553 00d8 03       		.uleb128 0x3
 2554 00d9 08       		.uleb128 0x8
 2555 00da 3A       		.uleb128 0x3a
ARM GAS  C:\Users\DNIEL~1\AppData\Local\Temp\ccHU9Ahj.s 			page 46


 2556 00db 0B       		.uleb128 0xb
 2557 00dc 3B       		.uleb128 0x3b
 2558 00dd 0B       		.uleb128 0xb
 2559 00de 49       		.uleb128 0x49
 2560 00df 13       		.uleb128 0x13
 2561 00e0 00       		.byte	0x0
 2562 00e1 00       		.byte	0x0
 2563 00e2 13       		.uleb128 0x13
 2564 00e3 2E       		.uleb128 0x2e
 2565 00e4 01       		.byte	0x1
 2566 00e5 03       		.uleb128 0x3
 2567 00e6 0E       		.uleb128 0xe
 2568 00e7 3A       		.uleb128 0x3a
 2569 00e8 0B       		.uleb128 0xb
 2570 00e9 3B       		.uleb128 0x3b
 2571 00ea 0B       		.uleb128 0xb
 2572 00eb 27       		.uleb128 0x27
 2573 00ec 0C       		.uleb128 0xc
 2574 00ed 49       		.uleb128 0x49
 2575 00ee 13       		.uleb128 0x13
 2576 00ef 11       		.uleb128 0x11
 2577 00f0 01       		.uleb128 0x1
 2578 00f1 12       		.uleb128 0x12
 2579 00f2 01       		.uleb128 0x1
 2580 00f3 40       		.uleb128 0x40
 2581 00f4 06       		.uleb128 0x6
 2582 00f5 01       		.uleb128 0x1
 2583 00f6 13       		.uleb128 0x13
 2584 00f7 00       		.byte	0x0
 2585 00f8 00       		.byte	0x0
 2586 00f9 14       		.uleb128 0x14
 2587 00fa 05       		.uleb128 0x5
 2588 00fb 00       		.byte	0x0
 2589 00fc 03       		.uleb128 0x3
 2590 00fd 08       		.uleb128 0x8
 2591 00fe 3A       		.uleb128 0x3a
 2592 00ff 0B       		.uleb128 0xb
 2593 0100 3B       		.uleb128 0x3b
 2594 0101 0B       		.uleb128 0xb
 2595 0102 49       		.uleb128 0x49
 2596 0103 13       		.uleb128 0x13
 2597 0104 02       		.uleb128 0x2
 2598 0105 06       		.uleb128 0x6
 2599 0106 00       		.byte	0x0
 2600 0107 00       		.byte	0x0
 2601 0108 15       		.uleb128 0x15
 2602 0109 05       		.uleb128 0x5
 2603 010a 00       		.byte	0x0
 2604 010b 03       		.uleb128 0x3
 2605 010c 0E       		.uleb128 0xe
 2606 010d 3A       		.uleb128 0x3a
 2607 010e 0B       		.uleb128 0xb
 2608 010f 3B       		.uleb128 0x3b
 2609 0110 0B       		.uleb128 0xb
 2610 0111 49       		.uleb128 0x49
 2611 0112 13       		.uleb128 0x13
 2612 0113 02       		.uleb128 0x2
ARM GAS  C:\Users\DNIEL~1\AppData\Local\Temp\ccHU9Ahj.s 			page 47


 2613 0114 06       		.uleb128 0x6
 2614 0115 00       		.byte	0x0
 2615 0116 00       		.byte	0x0
 2616 0117 16       		.uleb128 0x16
 2617 0118 1D       		.uleb128 0x1d
 2618 0119 01       		.byte	0x1
 2619 011a 31       		.uleb128 0x31
 2620 011b 13       		.uleb128 0x13
 2621 011c 52       		.uleb128 0x52
 2622 011d 01       		.uleb128 0x1
 2623 011e 55       		.uleb128 0x55
 2624 011f 06       		.uleb128 0x6
 2625 0120 58       		.uleb128 0x58
 2626 0121 0B       		.uleb128 0xb
 2627 0122 59       		.uleb128 0x59
 2628 0123 0B       		.uleb128 0xb
 2629 0124 00       		.byte	0x0
 2630 0125 00       		.byte	0x0
 2631 0126 17       		.uleb128 0x17
 2632 0127 05       		.uleb128 0x5
 2633 0128 00       		.byte	0x0
 2634 0129 31       		.uleb128 0x31
 2635 012a 13       		.uleb128 0x13
 2636 012b 1C       		.uleb128 0x1c
 2637 012c 0B       		.uleb128 0xb
 2638 012d 00       		.byte	0x0
 2639 012e 00       		.byte	0x0
 2640 012f 18       		.uleb128 0x18
 2641 0130 05       		.uleb128 0x5
 2642 0131 00       		.byte	0x0
 2643 0132 31       		.uleb128 0x31
 2644 0133 13       		.uleb128 0x13
 2645 0134 02       		.uleb128 0x2
 2646 0135 06       		.uleb128 0x6
 2647 0136 00       		.byte	0x0
 2648 0137 00       		.byte	0x0
 2649 0138 19       		.uleb128 0x19
 2650 0139 0B       		.uleb128 0xb
 2651 013a 01       		.byte	0x1
 2652 013b 55       		.uleb128 0x55
 2653 013c 06       		.uleb128 0x6
 2654 013d 00       		.byte	0x0
 2655 013e 00       		.byte	0x0
 2656 013f 1A       		.uleb128 0x1a
 2657 0140 34       		.uleb128 0x34
 2658 0141 00       		.byte	0x0
 2659 0142 31       		.uleb128 0x31
 2660 0143 13       		.uleb128 0x13
 2661 0144 02       		.uleb128 0x2
 2662 0145 06       		.uleb128 0x6
 2663 0146 00       		.byte	0x0
 2664 0147 00       		.byte	0x0
 2665 0148 1B       		.uleb128 0x1b
 2666 0149 2E       		.uleb128 0x2e
 2667 014a 01       		.byte	0x1
 2668 014b 3F       		.uleb128 0x3f
 2669 014c 0C       		.uleb128 0xc
ARM GAS  C:\Users\DNIEL~1\AppData\Local\Temp\ccHU9Ahj.s 			page 48


 2670 014d 03       		.uleb128 0x3
 2671 014e 0E       		.uleb128 0xe
 2672 014f 3A       		.uleb128 0x3a
 2673 0150 0B       		.uleb128 0xb
 2674 0151 3B       		.uleb128 0x3b
 2675 0152 0B       		.uleb128 0xb
 2676 0153 27       		.uleb128 0x27
 2677 0154 0C       		.uleb128 0xc
 2678 0155 11       		.uleb128 0x11
 2679 0156 01       		.uleb128 0x1
 2680 0157 12       		.uleb128 0x12
 2681 0158 01       		.uleb128 0x1
 2682 0159 40       		.uleb128 0x40
 2683 015a 06       		.uleb128 0x6
 2684 015b 01       		.uleb128 0x1
 2685 015c 13       		.uleb128 0x13
 2686 015d 00       		.byte	0x0
 2687 015e 00       		.byte	0x0
 2688 015f 1C       		.uleb128 0x1c
 2689 0160 34       		.uleb128 0x34
 2690 0161 00       		.byte	0x0
 2691 0162 03       		.uleb128 0x3
 2692 0163 08       		.uleb128 0x8
 2693 0164 3A       		.uleb128 0x3a
 2694 0165 0B       		.uleb128 0xb
 2695 0166 3B       		.uleb128 0x3b
 2696 0167 0B       		.uleb128 0xb
 2697 0168 49       		.uleb128 0x49
 2698 0169 13       		.uleb128 0x13
 2699 016a 02       		.uleb128 0x2
 2700 016b 06       		.uleb128 0x6
 2701 016c 00       		.byte	0x0
 2702 016d 00       		.byte	0x0
 2703 016e 1D       		.uleb128 0x1d
 2704 016f 34       		.uleb128 0x34
 2705 0170 00       		.byte	0x0
 2706 0171 03       		.uleb128 0x3
 2707 0172 0E       		.uleb128 0xe
 2708 0173 3A       		.uleb128 0x3a
 2709 0174 0B       		.uleb128 0xb
 2710 0175 3B       		.uleb128 0x3b
 2711 0176 0B       		.uleb128 0xb
 2712 0177 49       		.uleb128 0x49
 2713 0178 13       		.uleb128 0x13
 2714 0179 02       		.uleb128 0x2
 2715 017a 06       		.uleb128 0x6
 2716 017b 00       		.byte	0x0
 2717 017c 00       		.byte	0x0
 2718 017d 1E       		.uleb128 0x1e
 2719 017e 34       		.uleb128 0x34
 2720 017f 00       		.byte	0x0
 2721 0180 03       		.uleb128 0x3
 2722 0181 0E       		.uleb128 0xe
 2723 0182 3A       		.uleb128 0x3a
 2724 0183 0B       		.uleb128 0xb
 2725 0184 3B       		.uleb128 0x3b
 2726 0185 0B       		.uleb128 0xb
ARM GAS  C:\Users\DNIEL~1\AppData\Local\Temp\ccHU9Ahj.s 			page 49


 2727 0186 49       		.uleb128 0x49
 2728 0187 13       		.uleb128 0x13
 2729 0188 02       		.uleb128 0x2
 2730 0189 0A       		.uleb128 0xa
 2731 018a 00       		.byte	0x0
 2732 018b 00       		.byte	0x0
 2733 018c 1F       		.uleb128 0x1f
 2734 018d 0A       		.uleb128 0xa
 2735 018e 00       		.byte	0x0
 2736 018f 03       		.uleb128 0x3
 2737 0190 0E       		.uleb128 0xe
 2738 0191 3A       		.uleb128 0x3a
 2739 0192 0B       		.uleb128 0xb
 2740 0193 3B       		.uleb128 0x3b
 2741 0194 0B       		.uleb128 0xb
 2742 0195 11       		.uleb128 0x11
 2743 0196 01       		.uleb128 0x1
 2744 0197 00       		.byte	0x0
 2745 0198 00       		.byte	0x0
 2746 0199 20       		.uleb128 0x20
 2747 019a 01       		.uleb128 0x1
 2748 019b 01       		.byte	0x1
 2749 019c 49       		.uleb128 0x49
 2750 019d 13       		.uleb128 0x13
 2751 019e 01       		.uleb128 0x1
 2752 019f 13       		.uleb128 0x13
 2753 01a0 00       		.byte	0x0
 2754 01a1 00       		.byte	0x0
 2755 01a2 21       		.uleb128 0x21
 2756 01a3 21       		.uleb128 0x21
 2757 01a4 00       		.byte	0x0
 2758 01a5 49       		.uleb128 0x49
 2759 01a6 13       		.uleb128 0x13
 2760 01a7 2F       		.uleb128 0x2f
 2761 01a8 0B       		.uleb128 0xb
 2762 01a9 00       		.byte	0x0
 2763 01aa 00       		.byte	0x0
 2764 01ab 22       		.uleb128 0x22
 2765 01ac 2E       		.uleb128 0x2e
 2766 01ad 01       		.byte	0x1
 2767 01ae 3F       		.uleb128 0x3f
 2768 01af 0C       		.uleb128 0xc
 2769 01b0 03       		.uleb128 0x3
 2770 01b1 0E       		.uleb128 0xe
 2771 01b2 3A       		.uleb128 0x3a
 2772 01b3 0B       		.uleb128 0xb
 2773 01b4 3B       		.uleb128 0x3b
 2774 01b5 05       		.uleb128 0x5
 2775 01b6 27       		.uleb128 0x27
 2776 01b7 0C       		.uleb128 0xc
 2777 01b8 49       		.uleb128 0x49
 2778 01b9 13       		.uleb128 0x13
 2779 01ba 11       		.uleb128 0x11
 2780 01bb 01       		.uleb128 0x1
 2781 01bc 12       		.uleb128 0x12
 2782 01bd 01       		.uleb128 0x1
 2783 01be 40       		.uleb128 0x40
ARM GAS  C:\Users\DNIEL~1\AppData\Local\Temp\ccHU9Ahj.s 			page 50


 2784 01bf 06       		.uleb128 0x6
 2785 01c0 00       		.byte	0x0
 2786 01c1 00       		.byte	0x0
 2787 01c2 23       		.uleb128 0x23
 2788 01c3 05       		.uleb128 0x5
 2789 01c4 00       		.byte	0x0
 2790 01c5 03       		.uleb128 0x3
 2791 01c6 08       		.uleb128 0x8
 2792 01c7 3A       		.uleb128 0x3a
 2793 01c8 0B       		.uleb128 0xb
 2794 01c9 3B       		.uleb128 0x3b
 2795 01ca 05       		.uleb128 0x5
 2796 01cb 49       		.uleb128 0x49
 2797 01cc 13       		.uleb128 0x13
 2798 01cd 02       		.uleb128 0x2
 2799 01ce 06       		.uleb128 0x6
 2800 01cf 00       		.byte	0x0
 2801 01d0 00       		.byte	0x0
 2802 01d1 24       		.uleb128 0x24
 2803 01d2 05       		.uleb128 0x5
 2804 01d3 00       		.byte	0x0
 2805 01d4 03       		.uleb128 0x3
 2806 01d5 0E       		.uleb128 0xe
 2807 01d6 3A       		.uleb128 0x3a
 2808 01d7 0B       		.uleb128 0xb
 2809 01d8 3B       		.uleb128 0x3b
 2810 01d9 05       		.uleb128 0x5
 2811 01da 49       		.uleb128 0x49
 2812 01db 13       		.uleb128 0x13
 2813 01dc 02       		.uleb128 0x2
 2814 01dd 06       		.uleb128 0x6
 2815 01de 00       		.byte	0x0
 2816 01df 00       		.byte	0x0
 2817 01e0 25       		.uleb128 0x25
 2818 01e1 05       		.uleb128 0x5
 2819 01e2 00       		.byte	0x0
 2820 01e3 03       		.uleb128 0x3
 2821 01e4 08       		.uleb128 0x8
 2822 01e5 3A       		.uleb128 0x3a
 2823 01e6 0B       		.uleb128 0xb
 2824 01e7 3B       		.uleb128 0x3b
 2825 01e8 05       		.uleb128 0x5
 2826 01e9 49       		.uleb128 0x49
 2827 01ea 13       		.uleb128 0x13
 2828 01eb 02       		.uleb128 0x2
 2829 01ec 0A       		.uleb128 0xa
 2830 01ed 00       		.byte	0x0
 2831 01ee 00       		.byte	0x0
 2832 01ef 26       		.uleb128 0x26
 2833 01f0 18       		.uleb128 0x18
 2834 01f1 00       		.byte	0x0
 2835 01f2 00       		.byte	0x0
 2836 01f3 00       		.byte	0x0
 2837 01f4 27       		.uleb128 0x27
 2838 01f5 34       		.uleb128 0x34
 2839 01f6 00       		.byte	0x0
 2840 01f7 03       		.uleb128 0x3
ARM GAS  C:\Users\DNIEL~1\AppData\Local\Temp\ccHU9Ahj.s 			page 51


 2841 01f8 08       		.uleb128 0x8
 2842 01f9 3A       		.uleb128 0x3a
 2843 01fa 0B       		.uleb128 0xb
 2844 01fb 3B       		.uleb128 0x3b
 2845 01fc 05       		.uleb128 0x5
 2846 01fd 49       		.uleb128 0x49
 2847 01fe 13       		.uleb128 0x13
 2848 01ff 02       		.uleb128 0x2
 2849 0200 0A       		.uleb128 0xa
 2850 0201 00       		.byte	0x0
 2851 0202 00       		.byte	0x0
 2852 0203 00       		.byte	0x0
 2853              		.section	.debug_pubnames,"",%progbits
 2854 0000 2B000000 		.4byte	0x2b
 2855 0004 0200     		.2byte	0x2
 2856 0006 00000000 		.4byte	.Ldebug_info0
 2857 000a 10050000 		.4byte	0x510
 2858 000e 99030000 		.4byte	0x399
 2859 0012 63687670 		.ascii	"chvprintf\000"
 2859      72696E74 
 2859      6600
 2860 001c 9A040000 		.4byte	0x49a
 2861 0020 6368736E 		.ascii	"chsnprintf\000"
 2861      7072696E 
 2861      746600
 2862 002b 00000000 		.4byte	0x0
 2863              		.section	.debug_pubtypes,"",%progbits
 2864 0000 CA000000 		.4byte	0xca
 2865 0004 0200     		.2byte	0x2
 2866 0006 00000000 		.4byte	.Ldebug_info0
 2867 000a 10050000 		.4byte	0x510
 2868 000e 30000000 		.4byte	0x30
 2869 0012 73697A65 		.ascii	"size_t\000"
 2869      5F7400
 2870 0019 49000000 		.4byte	0x49
 2871 001d 75696E74 		.ascii	"uint8_t\000"
 2871      385F7400 
 2872 0025 69000000 		.4byte	0x69
 2873 0029 696E7433 		.ascii	"int32_t\000"
 2873      325F7400 
 2874 0031 90000000 		.4byte	0x90
 2875 0035 626F6F6C 		.ascii	"bool_t\000"
 2875      5F7400
 2876 003c A2000000 		.4byte	0xa2
 2877 0040 6D73675F 		.ascii	"msg_t\000"
 2877      7400
 2878 0046 DD000000 		.4byte	0xdd
 2879 004a 42617365 		.ascii	"BaseSequentialStreamVMT\000"
 2879      53657175 
 2879      656E7469 
 2879      616C5374 
 2879      7265616D 
 2880 0062 AA010000 		.4byte	0x1aa
 2881 0066 42617365 		.ascii	"BaseSequentialStream\000"
 2881      53657175 
 2881      656E7469 
 2881      616C5374 
ARM GAS  C:\Users\DNIEL~1\AppData\Local\Temp\ccHU9Ahj.s 			page 52


 2881      7265616D 
 2882 007b C0010000 		.4byte	0x1c0
 2883 007f 5F5F7661 		.ascii	"__va_list\000"
 2883      5F6C6973 
 2883      7400
 2884 0089 B5010000 		.4byte	0x1b5
 2885 008d 5F5F676E 		.ascii	"__gnuc_va_list\000"
 2885      75635F76 
 2885      615F6C69 
 2885      737400
 2886 009c DA010000 		.4byte	0x1da
 2887 00a0 76615F6C 		.ascii	"va_list\000"
 2887      69737400 
 2888 00a8 E5010000 		.4byte	0x1e5
 2889 00ac 4D656D53 		.ascii	"MemStreamVMT\000"
 2889      74726561 
 2889      6D564D54 
 2889      00
 2890 00b9 84020000 		.4byte	0x284
 2891 00bd 4D656D6F 		.ascii	"MemoryStream\000"
 2891      72795374 
 2891      7265616D 
 2891      00
 2892 00ca 00000000 		.4byte	0x0
 2893              		.section	.debug_aranges,"",%progbits
 2894 0000 2C000000 		.4byte	0x2c
 2895 0004 0200     		.2byte	0x2
 2896 0006 00000000 		.4byte	.Ldebug_info0
 2897 000a 04       		.byte	0x4
 2898 000b 00       		.byte	0x0
 2899 000c 0000     		.2byte	0x0
 2900 000e 0000     		.2byte	0x0
 2901 0010 00000000 		.4byte	.LFB9
 2902 0014 68000000 		.4byte	.LFE9-.LFB9
 2903 0018 00000000 		.4byte	.LFB10
 2904 001c 54030000 		.4byte	.LFE10-.LFB10
 2905 0020 00000000 		.4byte	.LFB11
 2906 0024 36000000 		.4byte	.LFE11-.LFB11
 2907 0028 00000000 		.4byte	0x0
 2908 002c 00000000 		.4byte	0x0
 2909              		.section	.debug_ranges,"",%progbits
 2910              	.Ldebug_ranges0:
 2911 0000 02000000 		.4byte	.LBB4
 2912 0004 0A000000 		.4byte	.LBE4
 2913 0008 34000000 		.4byte	.LBB9
 2914 000c 64000000 		.4byte	.LBE9
 2915 0010 0E000000 		.4byte	.LBB8
 2916 0014 32000000 		.4byte	.LBE8
 2917 0018 00000000 		.4byte	0x0
 2918 001c 00000000 		.4byte	0x0
 2919 0020 02000000 		.4byte	.LBB6
 2920 0024 0A000000 		.4byte	.LBE6
 2921 0028 34000000 		.4byte	.LBB7
 2922 002c 64000000 		.4byte	.LBE7
 2923 0030 0E000000 		.4byte	.LBB5
 2924 0034 32000000 		.4byte	.LBE5
 2925 0038 00000000 		.4byte	0x0
ARM GAS  C:\Users\DNIEL~1\AppData\Local\Temp\ccHU9Ahj.s 			page 53


 2926 003c 00000000 		.4byte	0x0
 2927 0040 00000000 		.4byte	.LFB9
 2928 0044 68000000 		.4byte	.LFE9
 2929 0048 00000000 		.4byte	.LFB10
 2930 004c 54030000 		.4byte	.LFE10
 2931 0050 00000000 		.4byte	.LFB11
 2932 0054 36000000 		.4byte	.LFE11
 2933 0058 00000000 		.4byte	0x0
 2934 005c 00000000 		.4byte	0x0
 2935              		.section	.debug_str,"MS",%progbits,1
 2936              	.LASF39:
 2937 0000 2E2E2F2E 		.ascii	"../../../ChibiOS/os/various/chprintf.c\000"
 2937      2E2F2E2E 
 2937      2F436869 
 2937      62694F53 
 2937      2F6F732F 
 2938              	.LASF2:
 2939 0027 73697A65 		.ascii	"size_t\000"
 2939      5F7400
 2940              	.LASF38:
 2941 002e 474E5520 		.ascii	"GNU C 4.5.2\000"
 2941      4320342E 
 2941      352E3200 
 2942              	.LASF33:
 2943 003a 69735F6C 		.ascii	"is_long\000"
 2943      6F6E6700 
 2944              	.LASF28:
 2945 0042 72616469 		.ascii	"radix\000"
 2945      7800
 2946              	.LASF12:
 2947 0048 626F6F6C 		.ascii	"bool_t\000"
 2947      5F7400
 2948              	.LASF23:
 2949 004f 4D656D53 		.ascii	"MemStreamVMT\000"
 2949      74726561 
 2949      6D564D54 
 2949      00
 2950              	.LASF42:
 2951 005c 6C6F6E67 		.ascii	"long_to_string_with_divisor\000"
 2951      5F746F5F 
 2951      73747269 
 2951      6E675F77 
 2951      6974685F 
 2952              	.LASF18:
 2953 0078 42617365 		.ascii	"BaseSequentialStream\000"
 2953      53657175 
 2953      656E7469 
 2953      616C5374 
 2953      7265616D 
 2954              	.LASF25:
 2955 008d 73697A65 		.ascii	"size\000"
 2955      00
 2956              	.LASF9:
 2957 0092 6C6F6E67 		.ascii	"long unsigned int\000"
 2957      20756E73 
 2957      69676E65 
 2957      6420696E 
ARM GAS  C:\Users\DNIEL~1\AppData\Local\Temp\ccHU9Ahj.s 			page 54


 2957      7400
 2958              	.LASF6:
 2959 00a4 73686F72 		.ascii	"short unsigned int\000"
 2959      7420756E 
 2959      7369676E 
 2959      65642069 
 2959      6E7400
 2960              	.LASF16:
 2961 00b7 77726974 		.ascii	"write\000"
 2961      6500
 2962              	.LASF22:
 2963 00bd 76615F6C 		.ascii	"va_list\000"
 2963      69737400 
 2964              	.LASF32:
 2965 00c5 77696474 		.ascii	"width\000"
 2965      6800
 2966              	.LASF4:
 2967 00cb 756E7369 		.ascii	"unsigned char\000"
 2967      676E6564 
 2967      20636861 
 2967      7200
 2968              	.LASF19:
 2969 00d9 5F5F676E 		.ascii	"__gnuc_va_list\000"
 2969      75635F76 
 2969      615F6C69 
 2969      737400
 2970              	.LASF17:
 2971 00e8 72656164 		.ascii	"read\000"
 2971      00
 2972              	.LASF36:
 2973 00ed 63687670 		.ascii	"chvprintf\000"
 2973      72696E74 
 2973      6600
 2974              	.LASF30:
 2975 00f7 66696C6C 		.ascii	"filler\000"
 2975      657200
 2976              	.LASF0:
 2977 00fe 756E7369 		.ascii	"unsigned int\000"
 2977      676E6564 
 2977      20696E74 
 2977      00
 2978              	.LASF14:
 2979 010b 6D73675F 		.ascii	"msg_t\000"
 2979      7400
 2980              	.LASF11:
 2981 0111 6C6F6E67 		.ascii	"long long unsigned int\000"
 2981      206C6F6E 
 2981      6720756E 
 2981      7369676E 
 2981      65642069 
 2982              	.LASF29:
 2983 0128 64697669 		.ascii	"divisor\000"
 2983      736F7200 
 2984              	.LASF41:
 2985 0130 5F5F6170 		.ascii	"__ap\000"
 2985      00
 2986              	.LASF37:
ARM GAS  C:\Users\DNIEL~1\AppData\Local\Temp\ccHU9Ahj.s 			page 55


 2987 0135 6368736E 		.ascii	"chsnprintf\000"
 2987      7072696E 
 2987      746600
 2988              	.LASF27:
 2989 0140 4D656D6F 		.ascii	"MemoryStream\000"
 2989      72795374 
 2989      7265616D 
 2989      00
 2990              	.LASF7:
 2991 014d 696E7433 		.ascii	"int32_t\000"
 2991      325F7400 
 2992              	.LASF35:
 2993 0155 746D7062 		.ascii	"tmpbuf\000"
 2993      756600
 2994              	.LASF21:
 2995 015c 5F5F7661 		.ascii	"__va_list\000"
 2995      5F6C6973 
 2995      7400
 2996              	.LASF10:
 2997 0166 6C6F6E67 		.ascii	"long long int\000"
 2997      206C6F6E 
 2997      6720696E 
 2997      7400
 2998              	.LASF31:
 2999 0174 70726563 		.ascii	"precision\000"
 2999      6973696F 
 2999      6E00
 3000              	.LASF40:
 3001 017e 433A5C44 		.ascii	"C:\\Dani\\MegaLux\\Repo\\Smarty\\Smarty\\smarty\\fi"
 3001      616E695C 
 3001      4D656761 
 3001      4C75785C 
 3001      5265706F 
 3002 01aa 726D7761 		.ascii	"rmware\000"
 3002      726500
 3003              	.LASF15:
 3004 01b1 63686172 		.ascii	"char\000"
 3004      00
 3005              	.LASF34:
 3006 01b6 6C656674 		.ascii	"left_align\000"
 3006      5F616C69 
 3006      676E00
 3007              	.LASF26:
 3008 01c1 6F666673 		.ascii	"offset\000"
 3008      657400
 3009              	.LASF5:
 3010 01c8 73686F72 		.ascii	"short int\000"
 3010      7420696E 
 3010      7400
 3011              	.LASF3:
 3012 01d2 75696E74 		.ascii	"uint8_t\000"
 3012      385F7400 
 3013              	.LASF24:
 3014 01da 62756666 		.ascii	"buffer\000"
 3014      657200
 3015              	.LASF44:
 3016 01e1 756E7369 		.ascii	"unsigned_common\000"
ARM GAS  C:\Users\DNIEL~1\AppData\Local\Temp\ccHU9Ahj.s 			page 56


 3016      676E6564 
 3016      5F636F6D 
 3016      6D6F6E00 
 3017              	.LASF8:
 3018 01f1 6C6F6E67 		.ascii	"long int\000"
 3018      20696E74 
 3018      00
 3019              	.LASF1:
 3020 01fa 7369676E 		.ascii	"signed char\000"
 3020      65642063 
 3020      68617200 
 3021              	.LASF43:
 3022 0206 6C746F61 		.ascii	"ltoa\000"
 3022      00
 3023              	.LASF13:
 3024 020b 5F426F6F 		.ascii	"_Bool\000"
 3024      6C00
 3025              	.LASF20:
 3026 0211 42617365 		.ascii	"BaseSequentialStreamVMT\000"
 3026      53657175 
 3026      656E7469 
 3026      616C5374 
 3026      7265616D 
 3027              		.ident	"GCC: (Sourcery G++ Lite 2011.03-42) 4.5.2"
ARM GAS  C:\Users\DNIEL~1\AppData\Local\Temp\ccHU9Ahj.s 			page 57


DEFINED SYMBOLS
                            *ABS*:00000000 chprintf.c
C:\Users\DNIEL~1\AppData\Local\Temp\ccHU9Ahj.s:24     .text.ltoa:00000000 $t
C:\Users\DNIEL~1\AppData\Local\Temp\ccHU9Ahj.s:29     .text.ltoa:00000000 ltoa
C:\Users\DNIEL~1\AppData\Local\Temp\ccHU9Ahj.s:140    .text.chvprintf:00000000 $t
C:\Users\DNIEL~1\AppData\Local\Temp\ccHU9Ahj.s:146    .text.chvprintf:00000000 chvprintf
C:\Users\DNIEL~1\AppData\Local\Temp\ccHU9Ahj.s:285    .text.chvprintf:00000094 $d
C:\Users\DNIEL~1\AppData\Local\Temp\ccHU9Ahj.s:341    .text.chvprintf:000000fe $t
C:\Users\DNIEL~1\AppData\Local\Temp\ccHU9Ahj.s:769    .text.chvprintf:00000350 $d
C:\Users\DNIEL~1\AppData\Local\Temp\ccHU9Ahj.s:774    .text.chsnprintf:00000000 $t
C:\Users\DNIEL~1\AppData\Local\Temp\ccHU9Ahj.s:780    .text.chsnprintf:00000000 chsnprintf
C:\Users\DNIEL~1\AppData\Local\Temp\ccHU9Ahj.s:836    .rodata.str1.4:00000000 $d
                     .debug_frame:00000010 $d
C:\Users\DNIEL~1\AppData\Local\Temp\ccHU9Ahj.s:773    .text.chvprintf:00000354 $t

UNDEFINED SYMBOLS
msObjectInit
