ARM GAS  C:\Users\danit\AppData\Local\Temp\cckpmUMk.s 			page 1


   1              		.syntax unified
   2              		.cpu cortex-m4
   3              		.fpu softvfp
   4              		.eabi_attribute 20, 1
   5              		.eabi_attribute 21, 1
   6              		.eabi_attribute 23, 3
   7              		.eabi_attribute 24, 1
   8              		.eabi_attribute 25, 1
   9              		.eabi_attribute 26, 1
  10              		.eabi_attribute 30, 2
  11              		.eabi_attribute 34, 1
  12              		.eabi_attribute 18, 4
  13              		.thumb
  14              		.file	"chrtclib.c"
  15              		.text
  16              	.Ltext0:
  17              		.cfi_sections	.debug_frame
  18              		.section	.text.stm32_rtc_bcd2tm.isra.0,"ax",%progbits
  19              		.align	2
  20              		.p2align 4,,15
  21              		.thumb
  22              		.thumb_func
  23              		.type	stm32_rtc_bcd2tm.isra.0, %function
  24              	stm32_rtc_bcd2tm.isra.0:
  25              	.LFB125:
  26              		.file 1 "../../../ChibiOS/os/various/chrtclib.c"
  27              		.loc 1 52 0
  28              		.cfi_startproc
  29              		@ args = 0, pretend = 0, frame = 0
  30              		@ frame_needed = 0, uses_anonymous_args = 0
  31              	.LVL0:
  32              		.loc 1 70 0
  33 0000 C1F34233 		ubfx	r3, r1, #13, #3
  34              	.LVL1:
  35              		.loc 1 71 0
  36 0004 072B     		cmp	r3, #7
  37              		.loc 1 72 0
  38 0006 08BF     		it	eq
  39 0008 0023     		moveq	r3, #0
  40              		.loc 1 52 0
  41 000a 2DE9F047 		push	{r4, r5, r6, r7, r8, r9, r10, lr}
  42              		.cfi_def_cfa_offset 32
  43              		.cfi_offset 4, -32
  44              		.cfi_offset 5, -28
  45              		.cfi_offset 6, -24
  46              		.cfi_offset 7, -20
  47              		.cfi_offset 8, -16
  48              		.cfi_offset 9, -12
  49              		.cfi_offset 10, -8
  50              		.cfi_offset 14, -4
  51              		.loc 1 72 0
  52 000e 8361     		str	r3, [r0, #24]
  53              		.loc 1 68 0
  54 0010 4FF0FF34 		mov	r4, #-1
  55              		.loc 1 93 0
  56 0014 C2F38053 		ubfx	r3, r2, #22, #1
  57              		.loc 1 78 0
ARM GAS  C:\Users\danit\AppData\Local\Temp\cckpmUMk.s 			page 2


  58 0018 C1F30036 		ubfx	r6, r1, #12, #1
  59              		.loc 1 68 0
  60 001c 0462     		str	r4, [r0, #32]
  61              		.loc 1 93 0
  62 001e 5C00     		lsls	r4, r3, #1
  63              		.loc 1 92 0
  64 0020 C2F30157 		ubfx	r7, r2, #20, #2
  65              		.loc 1 93 0
  66 0024 2344     		add	r3, r3, r4
  67              		.loc 1 78 0
  68 0026 4FEA860E 		lsl	lr, r6, #2
  69              		.loc 1 82 0
  70 002a C1F30355 		ubfx	r5, r1, #20, #4
  71              		.loc 1 93 0
  72 002e 9C00     		lsls	r4, r3, #2
  73              		.loc 1 86 0
  74 0030 C2F3021C 		ubfx	ip, r2, #4, #3
  75              		.loc 1 92 0
  76 0034 07EB8703 		add	r3, r7, r7, lsl #2
  77              		.loc 1 78 0
  78 0038 7644     		add	r6, r6, lr
  79              		.loc 1 77 0
  80 003a C1F3032A 		ubfx	r10, r1, #8, #4
  81              		.loc 1 81 0
  82 003e C1F30349 		ubfx	r9, r1, #16, #4
  83              		.loc 1 75 0
  84 0042 C1F3011E 		ubfx	lr, r1, #4, #2
  85              		.loc 1 89 0
  86 0046 C2F30237 		ubfx	r7, r2, #12, #3
  87              		.loc 1 82 0
  88 004a 05EB8505 		add	r5, r5, r5, lsl #2
  89 004e 04EB4303 		add	r3, r4, r3, lsl #1
  90              		.loc 1 91 0
  91 0052 C2F30348 		ubfx	r8, r2, #16, #4
  92              		.loc 1 86 0
  93 0056 0CEB8C04 		add	r4, ip, ip, lsl #2
  94              		.loc 1 78 0
  95 005a 0AEB4606 		add	r6, r10, r6, lsl #1
  96              		.loc 1 85 0
  97 005e 02F00F0C 		and	ip, r2, #15
  98              		.loc 1 82 0
  99 0062 09EB4505 		add	r5, r9, r5, lsl #1
 100              		.loc 1 75 0
 101 0066 0EEB8E0E 		add	lr, lr, lr, lsl #2
 102              		.loc 1 74 0
 103 006a 01F00F01 		and	r1, r1, #15
 104              	.LVL2:
 105              		.loc 1 89 0
 106 006e 07EB8707 		add	r7, r7, r7, lsl #2
 107              		.loc 1 88 0
 108 0072 C2F30322 		ubfx	r2, r2, #8, #4
 109              	.LVL3:
 110              		.loc 1 93 0
 111 0076 4344     		add	r3, r3, r8
 112              		.loc 1 79 0
 113 0078 013E     		subs	r6, r6, #1
 114              		.loc 1 83 0
ARM GAS  C:\Users\danit\AppData\Local\Temp\cckpmUMk.s 			page 3


 115 007a 6435     		adds	r5, r5, #100
 116              		.loc 1 75 0
 117 007c 01EB4E01 		add	r1, r1, lr, lsl #1
 118              		.loc 1 86 0
 119 0080 0CEB4404 		add	r4, ip, r4, lsl #1
 120              		.loc 1 89 0
 121 0084 02EB4702 		add	r2, r2, r7, lsl #1
 122              		.loc 1 93 0
 123 0088 8360     		str	r3, [r0, #8]
 124              		.loc 1 79 0
 125 008a 0661     		str	r6, [r0, #16]
 126              		.loc 1 83 0
 127 008c 4561     		str	r5, [r0, #20]
 128              		.loc 1 75 0
 129 008e C160     		str	r1, [r0, #12]
 130              		.loc 1 86 0
 131 0090 0460     		str	r4, [r0]
 132              		.loc 1 89 0
 133 0092 4260     		str	r2, [r0, #4]
 134 0094 BDE8F087 		pop	{r4, r5, r6, r7, r8, r9, r10, pc}
 135              		.cfi_endproc
 136              	.LFE125:
 137              		.size	stm32_rtc_bcd2tm.isra.0, .-stm32_rtc_bcd2tm.isra.0
 138              		.section	.text.stm32_rtc_tm2bcd.isra.1,"ax",%progbits
 139              		.align	2
 140              		.p2align 4,,15
 141              		.thumb
 142              		.thumb_func
 143              		.type	stm32_rtc_tm2bcd.isra.1, %function
 144              	stm32_rtc_tm2bcd.isra.1:
 145              	.LFB126:
 146              		.loc 1 104 0
 147              		.cfi_startproc
 148              		@ args = 0, pretend = 0, frame = 8
 149              		@ frame_needed = 0, uses_anonymous_args = 0
 150              	.LVL4:
 151 0000 2DE9F04F 		push	{r4, r5, r6, r7, r8, r9, r10, fp, lr}
 152              		.cfi_def_cfa_offset 36
 153              		.cfi_offset 4, -36
 154              		.cfi_offset 5, -32
 155              		.cfi_offset 6, -28
 156              		.cfi_offset 7, -24
 157              		.cfi_offset 8, -20
 158              		.cfi_offset 9, -16
 159              		.cfi_offset 10, -12
 160              		.cfi_offset 11, -8
 161              		.cfi_offset 14, -4
 162              		.loc 1 110 0
 163 0004 4369     		ldr	r3, [r0, #20]
 164              		.loc 1 111 0
 165 0006 3A4C     		ldr	r4, .L11
 166              		.loc 1 114 0
 167 0008 8569     		ldr	r5, [r0, #24]
 168              		.loc 1 110 0
 169 000a 643B     		subs	r3, r3, #100
 170              	.LVL5:
 171              		.loc 1 111 0
ARM GAS  C:\Users\danit\AppData\Local\Temp\cckpmUMk.s 			page 4


 172 000c A4FB0364 		umull	r6, r4, r4, r3
 173 0010 E408     		lsrs	r4, r4, #3
 174              		.loc 1 112 0
 175 0012 04EB840C 		add	ip, r4, r4, lsl #2
 176              		.loc 1 104 0
 177 0016 83B0     		sub	sp, sp, #12
 178              		.cfi_def_cfa_offset 48
 179              		.loc 1 111 0
 180 0018 2405     		lsls	r4, r4, #20
 181              		.loc 1 112 0
 182 001a A3EB4C0C 		sub	ip, r3, ip, lsl #1
 183              		.loc 1 111 0
 184 001e 04F47004 		and	r4, r4, #15728640
 185              		.loc 1 107 0
 186 0022 0023     		movs	r3, #0
 187              	.LVL6:
 188 0024 0B60     		str	r3, [r1]
 189              		.loc 1 112 0
 190 0026 4FEA0C4C 		lsl	ip, ip, #16
 191              		.loc 1 111 0
 192 002a 0094     		str	r4, [sp]
 193              		.loc 1 108 0
 194 002c 1360     		str	r3, [r2]
 195              		.loc 1 114 0
 196 002e 002D     		cmp	r5, #0
 197 0030 5AD0     		beq	.L8
 198              	.LVL7:
 199 0032 6D03     		lsls	r5, r5, #13
 200              	.LVL8:
 201 0034 ABB2     		uxth	r3, r5
 202 0036 0193     		str	r3, [sp, #4]
 203              	.LVL9:
 204              	.L7:
 205              		.loc 1 120 0
 206 0038 0669     		ldr	r6, [r0, #16]
 207              		.loc 1 122 0
 208 003a 2D4B     		ldr	r3, .L11
 209              		.loc 1 128 0
 210 003c D0F80890 		ldr	r9, [r0, #8]
 211              		.loc 1 124 0
 212 0040 D0F80CB0 		ldr	fp, [r0, #12]
 213              		.loc 1 136 0
 214 0044 D0F80080 		ldr	r8, [r0]
 215              		.loc 1 132 0
 216 0048 D0F804A0 		ldr	r10, [r0, #4]
 217              		.loc 1 120 0
 218 004c 0136     		adds	r6, r6, #1
 219              	.LVL10:
 220              		.loc 1 122 0
 221 004e A3FB0605 		umull	r0, r5, r3, r6
 222              	.LVL11:
 223 0052 ED08     		lsrs	r5, r5, #3
 224 0054 05EB850E 		add	lr, r5, r5, lsl #2
 225              		.loc 1 134 0
 226 0058 A3FB0A70 		umull	r7, r0, r3, r10
 227              		.loc 1 122 0
 228 005c A6EB4E0E 		sub	lr, r6, lr, lsl #1
ARM GAS  C:\Users\danit\AppData\Local\Temp\cckpmUMk.s 			page 5


 229              		.loc 1 126 0
 230 0060 A3FB0B67 		umull	r6, r7, r3, fp
 231 0064 FF08     		lsrs	r7, r7, #3
 232              		.loc 1 130 0
 233 0066 A3FB0946 		umull	r4, r6, r3, r9
 234 006a 4CEA0E2E 		orr	lr, ip, lr, lsl #8
 235              		.loc 1 134 0
 236 006e C008     		lsrs	r0, r0, #3
 237              		.loc 1 126 0
 238 0070 07EB870C 		add	ip, r7, r7, lsl #2
 239              		.loc 1 138 0
 240 0074 A3FB0843 		umull	r4, r3, r3, r8
 241              		.loc 1 130 0
 242 0078 F608     		lsrs	r6, r6, #3
 243              		.loc 1 126 0
 244 007a ABEB4C0B 		sub	fp, fp, ip, lsl #1
 245              		.loc 1 134 0
 246 007e 00EB800C 		add	ip, r0, r0, lsl #2
 247              		.loc 1 138 0
 248 0082 DB08     		lsrs	r3, r3, #3
 249              		.loc 1 134 0
 250 0084 AAEB4C0A 		sub	r10, r10, ip, lsl #1
 251              		.loc 1 125 0
 252 0088 3F01     		lsls	r7, r7, #4
 253              		.loc 1 130 0
 254 008a 06EB860C 		add	ip, r6, r6, lsl #2
 255 008e A9EB4C0C 		sub	ip, r9, ip, lsl #1
 256 0092 4EEA0B0B 		orr	fp, lr, fp
 257              		.loc 1 138 0
 258 0096 03EB8309 		add	r9, r3, r3, lsl #2
 259              		.loc 1 125 0
 260 009a 07F03007 		and	r7, r7, #48
 261 009e 009C     		ldr	r4, [sp]
 262              		.loc 1 134 0
 263 00a0 4FEA0A2A 		lsl	r10, r10, #8
 264 00a4 4BEA070B 		orr	fp, fp, r7
 265 00a8 4AEA0C4A 		orr	r10, r10, ip, lsl #16
 266              		.loc 1 138 0
 267 00ac A8EB4908 		sub	r8, r8, r9, lsl #1
 268              	.LVL12:
 269              		.loc 1 129 0
 270 00b0 3605     		lsls	r6, r6, #20
 271              		.loc 1 121 0
 272 00b2 2D03     		lsls	r5, r5, #12
 273              		.loc 1 133 0
 274 00b4 0003     		lsls	r0, r0, #12
 275              		.loc 1 129 0
 276 00b6 06F44016 		and	r6, r6, #3145728
 277 00ba 4AEA080A 		orr	r10, r10, r8
 278              		.loc 1 121 0
 279 00be 05F48055 		and	r5, r5, #4096
 280 00c2 4BEA0404 		orr	r4, fp, r4
 281              		.loc 1 133 0
 282 00c6 00F4E047 		and	r7, r0, #28672
 283 00ca 2C43     		orrs	r4, r4, r5
 284 00cc 4AEA0600 		orr	r0, r10, r6
 285              		.loc 1 126 0
ARM GAS  C:\Users\danit\AppData\Local\Temp\cckpmUMk.s 			page 6


 286 00d0 019D     		ldr	r5, [sp, #4]
 287              		.loc 1 137 0
 288 00d2 1B01     		lsls	r3, r3, #4
 289 00d4 3843     		orrs	r0, r0, r7
 290 00d6 03F07003 		and	r3, r3, #112
 291              		.loc 1 126 0
 292 00da 2C43     		orrs	r4, r4, r5
 293              		.loc 1 138 0
 294 00dc 0343     		orrs	r3, r3, r0
 295              		.loc 1 126 0
 296 00de 0C60     		str	r4, [r1]
 297              		.loc 1 138 0
 298 00e0 1360     		str	r3, [r2]
 299              		.loc 1 139 0
 300 00e2 03B0     		add	sp, sp, #12
 301              		.cfi_remember_state
 302              		.cfi_def_cfa_offset 36
 303              		@ sp needed
 304 00e4 BDE8F08F 		pop	{r4, r5, r6, r7, r8, r9, r10, fp, pc}
 305              	.LVL13:
 306              	.L8:
 307              		.cfi_restore_state
 308              		.loc 1 114 0
 309 00e8 4FF46043 		mov	r3, #57344
 310 00ec 0193     		str	r3, [sp, #4]
 311 00ee A3E7     		b	.L7
 312              	.L12:
 313              		.align	2
 314              	.L11:
 315 00f0 CDCCCCCC 		.word	-858993459
 316              		.cfi_endproc
 317              	.LFE126:
 318              		.size	stm32_rtc_tm2bcd.isra.1, .-stm32_rtc_tm2bcd.isra.1
 319              		.section	.text.rtcGetTimeTm,"ax",%progbits
 320              		.align	2
 321              		.p2align 4,,15
 322              		.global	rtcGetTimeTm
 323              		.thumb
 324              		.thumb_func
 325              		.type	rtcGetTimeTm, %function
 326              	rtcGetTimeTm:
 327              	.LFB120:
 328              		.loc 1 149 0
 329              		.cfi_startproc
 330              		@ args = 0, pretend = 0, frame = 16
 331              		@ frame_needed = 0, uses_anonymous_args = 0
 332              	.LVL14:
 333 0000 10B5     		push	{r4, lr}
 334              		.cfi_def_cfa_offset 8
 335              		.cfi_offset 4, -8
 336              		.cfi_offset 14, -4
 337 0002 84B0     		sub	sp, sp, #16
 338              		.cfi_def_cfa_offset 24
 339              		.loc 1 151 0
 340 0004 0023     		movs	r3, #0
 341              		.loc 1 149 0
 342 0006 0C46     		mov	r4, r1
ARM GAS  C:\Users\danit\AppData\Local\Temp\cckpmUMk.s 			page 7


 343              		.loc 1 156 0
 344 0008 6946     		mov	r1, sp
 345              	.LVL15:
 346              		.loc 1 151 0
 347 000a 0093     		str	r3, [sp]
 348 000c 0193     		str	r3, [sp, #4]
 349 000e 8DF80830 		strb	r3, [sp, #8]
 350 0012 0393     		str	r3, [sp, #12]
 351              		.loc 1 156 0
 352 0014 FFF7FEFF 		bl	rtcGetTime
 353              	.LVL16:
 354              		.loc 1 157 0
 355 0018 2046     		mov	r0, r4
 356 001a 9DE80600 		ldmia	sp, {r1, r2}
 357 001e FFF7FEFF 		bl	stm32_rtc_bcd2tm.isra.0
 358              	.LVL17:
 359              		.loc 1 158 0
 360 0022 04B0     		add	sp, sp, #16
 361              		.cfi_def_cfa_offset 8
 362              		@ sp needed
 363 0024 10BD     		pop	{r4, pc}
 364              		.cfi_endproc
 365              	.LFE120:
 366              		.size	rtcGetTimeTm, .-rtcGetTimeTm
 367 0026 00BF     		.section	.text.rtcSetTimeTm,"ax",%progbits
 368              		.align	2
 369              		.p2align 4,,15
 370              		.global	rtcSetTimeTm
 371              		.thumb
 372              		.thumb_func
 373              		.type	rtcSetTimeTm, %function
 374              	rtcSetTimeTm:
 375              	.LFB121:
 376              		.loc 1 168 0
 377              		.cfi_startproc
 378              		@ args = 0, pretend = 0, frame = 16
 379              		@ frame_needed = 0, uses_anonymous_args = 0
 380              	.LVL18:
 381 0000 10B5     		push	{r4, lr}
 382              		.cfi_def_cfa_offset 8
 383              		.cfi_offset 4, -8
 384              		.cfi_offset 14, -4
 385 0002 84B0     		sub	sp, sp, #16
 386              		.cfi_def_cfa_offset 24
 387              		.loc 1 170 0
 388 0004 0023     		movs	r3, #0
 389              		.loc 1 168 0
 390 0006 0446     		mov	r4, r0
 391              		.loc 1 175 0
 392 0008 01AA     		add	r2, sp, #4
 393 000a 0846     		mov	r0, r1
 394              	.LVL19:
 395 000c 6946     		mov	r1, sp
 396              	.LVL20:
 397              		.loc 1 170 0
 398 000e 0093     		str	r3, [sp]
 399 0010 0193     		str	r3, [sp, #4]
ARM GAS  C:\Users\danit\AppData\Local\Temp\cckpmUMk.s 			page 8


 400 0012 8DF80830 		strb	r3, [sp, #8]
 401 0016 0393     		str	r3, [sp, #12]
 402              		.loc 1 175 0
 403 0018 FFF7FEFF 		bl	stm32_rtc_tm2bcd.isra.1
 404              	.LVL21:
 405              		.loc 1 176 0
 406 001c 2046     		mov	r0, r4
 407 001e 6946     		mov	r1, sp
 408 0020 FFF7FEFF 		bl	rtcSetTime
 409              	.LVL22:
 410              		.loc 1 177 0
 411 0024 04B0     		add	sp, sp, #16
 412              		.cfi_def_cfa_offset 8
 413              		@ sp needed
 414 0026 10BD     		pop	{r4, pc}
 415              		.cfi_endproc
 416              	.LFE121:
 417              		.size	rtcSetTimeTm, .-rtcSetTimeTm
 418              		.section	.text.rtcGetTimeUnixSec,"ax",%progbits
 419              		.align	2
 420              		.p2align 4,,15
 421              		.global	rtcGetTimeUnixSec
 422              		.thumb
 423              		.thumb_func
 424              		.type	rtcGetTimeUnixSec, %function
 425              	rtcGetTimeUnixSec:
 426              	.LFB122:
 427              		.loc 1 187 0
 428              		.cfi_startproc
 429              		@ args = 0, pretend = 0, frame = 56
 430              		@ frame_needed = 0, uses_anonymous_args = 0
 431              	.LVL23:
 432 0000 00B5     		push	{lr}
 433              		.cfi_def_cfa_offset 4
 434              		.cfi_offset 14, -4
 435 0002 8FB0     		sub	sp, sp, #60
 436              		.cfi_def_cfa_offset 64
 437              		.loc 1 189 0
 438 0004 0023     		movs	r3, #0
 439              		.loc 1 195 0
 440 0006 01A9     		add	r1, sp, #4
 441              		.loc 1 189 0
 442 0008 0193     		str	r3, [sp, #4]
 443 000a 0293     		str	r3, [sp, #8]
 444 000c 8DF80C30 		strb	r3, [sp, #12]
 445 0010 0493     		str	r3, [sp, #16]
 446              		.loc 1 195 0
 447 0012 FFF7FEFF 		bl	rtcGetTime
 448              	.LVL24:
 449              		.loc 1 196 0
 450 0016 05A8     		add	r0, sp, #20
 451 0018 0199     		ldr	r1, [sp, #4]
 452 001a 029A     		ldr	r2, [sp, #8]
 453 001c FFF7FEFF 		bl	stm32_rtc_bcd2tm.isra.0
 454              	.LVL25:
 455              		.loc 1 198 0
 456 0020 05A8     		add	r0, sp, #20
ARM GAS  C:\Users\danit\AppData\Local\Temp\cckpmUMk.s 			page 9


 457 0022 FFF7FEFF 		bl	mktime
 458              	.LVL26:
 459              		.loc 1 199 0
 460 0026 0FB0     		add	sp, sp, #60
 461              		.cfi_def_cfa_offset 4
 462              		@ sp needed
 463 0028 5DF804FB 		ldr	pc, [sp], #4
 464              		.cfi_endproc
 465              	.LFE122:
 466              		.size	rtcGetTimeUnixSec, .-rtcGetTimeUnixSec
 467              		.section	.text.rtcSetTimeUnixSec,"ax",%progbits
 468              		.align	2
 469              		.p2align 4,,15
 470              		.global	rtcSetTimeUnixSec
 471              		.thumb
 472              		.thumb_func
 473              		.type	rtcSetTimeUnixSec, %function
 474              	rtcSetTimeUnixSec:
 475              	.LFB123:
 476              		.loc 1 210 0
 477              		.cfi_startproc
 478              		@ args = 0, pretend = 0, frame = 64
 479              		@ frame_needed = 0, uses_anonymous_args = 0
 480              	.LVL27:
 481 0000 10B5     		push	{r4, lr}
 482              		.cfi_def_cfa_offset 8
 483              		.cfi_offset 4, -8
 484              		.cfi_offset 14, -4
 485 0002 90B0     		sub	sp, sp, #64
 486              		.cfi_def_cfa_offset 72
 487              		.loc 1 212 0
 488 0004 0023     		movs	r3, #0
 489              		.loc 1 210 0
 490 0006 0446     		mov	r4, r0
 491 0008 0191     		str	r1, [sp, #4]
 492              		.loc 1 218 0
 493 000a 01A8     		add	r0, sp, #4
 494              	.LVL28:
 495 000c 07A9     		add	r1, sp, #28
 496              	.LVL29:
 497              		.loc 1 212 0
 498 000e 0393     		str	r3, [sp, #12]
 499 0010 0493     		str	r3, [sp, #16]
 500 0012 8DF81430 		strb	r3, [sp, #20]
 501 0016 0693     		str	r3, [sp, #24]
 502              		.loc 1 218 0
 503 0018 FFF7FEFF 		bl	localtime_r
 504              	.LVL30:
 505              		.loc 1 219 0
 506 001c 07A8     		add	r0, sp, #28
 507 001e 03A9     		add	r1, sp, #12
 508 0020 04AA     		add	r2, sp, #16
 509 0022 FFF7FEFF 		bl	stm32_rtc_tm2bcd.isra.1
 510              	.LVL31:
 511              		.loc 1 220 0
 512 0026 2046     		mov	r0, r4
 513 0028 03A9     		add	r1, sp, #12
ARM GAS  C:\Users\danit\AppData\Local\Temp\cckpmUMk.s 			page 10


 514 002a FFF7FEFF 		bl	rtcSetTime
 515              	.LVL32:
 516              		.loc 1 221 0
 517 002e 10B0     		add	sp, sp, #64
 518              		.cfi_def_cfa_offset 8
 519              		@ sp needed
 520 0030 10BD     		pop	{r4, pc}
 521              		.cfi_endproc
 522              	.LFE123:
 523              		.size	rtcSetTimeUnixSec, .-rtcSetTimeUnixSec
 524 0032 00BF     		.section	.text.rtcGetTimeUnixUsec,"ax",%progbits
 525              		.align	2
 526              		.p2align 4,,15
 527              		.global	rtcGetTimeUnixUsec
 528              		.thumb
 529              		.thumb_func
 530              		.type	rtcGetTimeUnixUsec, %function
 531              	rtcGetTimeUnixUsec:
 532              	.LFB124:
 533              		.loc 1 231 0
 534              		.cfi_startproc
 535              		@ args = 0, pretend = 0, frame = 56
 536              		@ frame_needed = 0, uses_anonymous_args = 0
 537              	.LVL33:
 538 0000 00B5     		push	{lr}
 539              		.cfi_def_cfa_offset 4
 540              		.cfi_offset 14, -4
 541 0002 8FB0     		sub	sp, sp, #60
 542              		.cfi_def_cfa_offset 64
 543              		.loc 1 234 0
 544 0004 0023     		movs	r3, #0
 545              		.loc 1 237 0
 546 0006 01A9     		add	r1, sp, #4
 547              		.loc 1 234 0
 548 0008 0193     		str	r3, [sp, #4]
 549 000a 0293     		str	r3, [sp, #8]
 550 000c 8DF80C30 		strb	r3, [sp, #12]
 551 0010 0493     		str	r3, [sp, #16]
 552              		.loc 1 237 0
 553 0012 FFF7FEFF 		bl	rtcGetTime
 554              	.LVL34:
 555              		.loc 1 238 0
 556 0016 0199     		ldr	r1, [sp, #4]
 557 0018 029A     		ldr	r2, [sp, #8]
 558 001a 05A8     		add	r0, sp, #20
 559 001c FFF7FEFF 		bl	stm32_rtc_bcd2tm.isra.0
 560              	.LVL35:
 561              		.loc 1 240 0
 562 0020 05A8     		add	r0, sp, #20
 563 0022 FFF7FEFF 		bl	mktime
 564              	.LVL36:
 565              		.loc 1 241 0
 566 0026 049A     		ldr	r2, [sp, #16]
 567 0028 0649     		ldr	r1, .L23
 568 002a 4FF47A73 		mov	r3, #1000
 569 002e 03FB02F2 		mul	r2, r3, r2
 570 0032 0023     		movs	r3, #0
ARM GAS  C:\Users\danit\AppData\Local\Temp\cckpmUMk.s 			page 11


 571 0034 C1FB0023 		smlal	r2, r3, r1, r0
 572 0038 1046     		mov	r0, r2
 573              	.LVL37:
 574 003a 1946     		mov	r1, r3
 575              		.loc 1 245 0
 576 003c 0FB0     		add	sp, sp, #60
 577              		.cfi_def_cfa_offset 4
 578              		@ sp needed
 579 003e 5DF804FB 		ldr	pc, [sp], #4
 580              	.L24:
 581 0042 00BF     		.align	2
 582              	.L23:
 583 0044 40420F00 		.word	1000000
 584              		.cfi_endproc
 585              	.LFE124:
 586              		.size	rtcGetTimeUnixUsec, .-rtcGetTimeUnixUsec
 587              		.text
 588              	.Letext0:
 589              		.file 2 "c:\\program files (x86)\\gnu tools arm embedded\\4.9 2015q2\\arm-none-eabi\\include\\mach
 590              		.file 3 "c:\\program files (x86)\\gnu tools arm embedded\\4.9 2015q2\\arm-none-eabi\\include\\sys\
 591              		.file 4 "c:\\program files (x86)\\gnu tools arm embedded\\4.9 2015q2\\arm-none-eabi\\include\\sys\
 592              		.file 5 "c:\\program files (x86)\\gnu tools arm embedded\\4.9 2015q2\\arm-none-eabi\\include\\time
 593              		.file 6 "../../../ChibiOS/os/ports/GCC/ARMCMx/chtypes.h"
 594              		.file 7 "../../../ChibiOS/os/hal/platforms/STM32F4xx/stm32f4xx.h"
 595              		.file 8 "../../../ChibiOS/os/hal/include/rtc.h"
 596              		.file 9 "../../../ChibiOS/os/hal/platforms/STM32/RTCv2/rtc_lld.h"
 597              		.file 10 "../../../ChibiOS/os/ports/common/ARMCMx/CMSIS/include/core_cm4.h"
 598              		.section	.debug_info,"",%progbits
 599              	.Ldebug_info0:
 600 0000 21080000 		.4byte	0x821
 601 0004 0400     		.2byte	0x4
 602 0006 00000000 		.4byte	.Ldebug_abbrev0
 603 000a 04       		.byte	0x4
 604 000b 01       		.uleb128 0x1
 605 000c C3010000 		.4byte	.LASF86
 606 0010 01       		.byte	0x1
 607 0011 06040000 		.4byte	.LASF87
 608 0015 5B010000 		.4byte	.LASF88
 609 0019 00000000 		.4byte	.Ldebug_ranges0+0
 610 001d 00000000 		.4byte	0
 611 0021 00000000 		.4byte	.Ldebug_line0
 612 0025 02       		.uleb128 0x2
 613 0026 08       		.byte	0x8
 614 0027 07       		.byte	0x7
 615 0028 E2000000 		.4byte	.LASF0
 616 002c 03       		.uleb128 0x3
 617 002d 04       		.byte	0x4
 618 002e 05       		.byte	0x5
 619 002f 696E7400 		.ascii	"int\000"
 620 0033 02       		.uleb128 0x2
 621 0034 04       		.byte	0x4
 622 0035 07       		.byte	0x7
 623 0036 AD020000 		.4byte	.LASF1
 624 003a 02       		.uleb128 0x2
 625 003b 01       		.byte	0x1
 626 003c 06       		.byte	0x6
 627 003d A2010000 		.4byte	.LASF2
ARM GAS  C:\Users\danit\AppData\Local\Temp\cckpmUMk.s 			page 12


 628 0041 02       		.uleb128 0x2
 629 0042 01       		.byte	0x1
 630 0043 08       		.byte	0x8
 631 0044 4D010000 		.4byte	.LASF3
 632 0048 02       		.uleb128 0x2
 633 0049 02       		.byte	0x2
 634 004a 05       		.byte	0x5
 635 004b 30000000 		.4byte	.LASF4
 636 004f 02       		.uleb128 0x2
 637 0050 02       		.byte	0x2
 638 0051 07       		.byte	0x7
 639 0052 CC020000 		.4byte	.LASF5
 640 0056 04       		.uleb128 0x4
 641 0057 F9000000 		.4byte	.LASF7
 642 005b 02       		.byte	0x2
 643 005c 3F       		.byte	0x3f
 644 005d 61000000 		.4byte	0x61
 645 0061 02       		.uleb128 0x2
 646 0062 04       		.byte	0x4
 647 0063 05       		.byte	0x5
 648 0064 0F010000 		.4byte	.LASF6
 649 0068 04       		.uleb128 0x4
 650 0069 71000000 		.4byte	.LASF8
 651 006d 02       		.byte	0x2
 652 006e 41       		.byte	0x41
 653 006f 73000000 		.4byte	0x73
 654 0073 02       		.uleb128 0x2
 655 0074 04       		.byte	0x4
 656 0075 07       		.byte	0x7
 657 0076 57030000 		.4byte	.LASF9
 658 007a 02       		.uleb128 0x2
 659 007b 08       		.byte	0x8
 660 007c 05       		.byte	0x5
 661 007d D4000000 		.4byte	.LASF10
 662 0081 04       		.uleb128 0x4
 663 0082 15000000 		.4byte	.LASF11
 664 0086 02       		.byte	0x2
 665 0087 5B       		.byte	0x5b
 666 0088 25000000 		.4byte	0x25
 667 008c 02       		.uleb128 0x2
 668 008d 04       		.byte	0x4
 669 008e 07       		.byte	0x7
 670 008f B8030000 		.4byte	.LASF12
 671 0093 02       		.uleb128 0x2
 672 0094 01       		.byte	0x1
 673 0095 08       		.byte	0x8
 674 0096 0A010000 		.4byte	.LASF13
 675 009a 04       		.uleb128 0x4
 676 009b FE020000 		.4byte	.LASF14
 677 009f 03       		.byte	0x3
 678 00a0 1F       		.byte	0x1f
 679 00a1 56000000 		.4byte	0x56
 680 00a5 04       		.uleb128 0x4
 681 00a6 9D020000 		.4byte	.LASF15
 682 00aa 03       		.byte	0x3
 683 00ab 20       		.byte	0x20
 684 00ac 68000000 		.4byte	0x68
ARM GAS  C:\Users\danit\AppData\Local\Temp\cckpmUMk.s 			page 13


 685 00b0 04       		.uleb128 0x4
 686 00b1 27000000 		.4byte	.LASF16
 687 00b5 03       		.byte	0x3
 688 00b6 26       		.byte	0x26
 689 00b7 81000000 		.4byte	0x81
 690 00bb 04       		.uleb128 0x4
 691 00bc 83000000 		.4byte	.LASF17
 692 00c0 04       		.byte	0x4
 693 00c1 7B       		.byte	0x7b
 694 00c2 61000000 		.4byte	0x61
 695 00c6 05       		.uleb128 0x5
 696 00c7 746D00   		.ascii	"tm\000"
 697 00ca 24       		.byte	0x24
 698 00cb 05       		.byte	0x5
 699 00cc 20       		.byte	0x20
 700 00cd 3E010000 		.4byte	0x13e
 701 00d1 06       		.uleb128 0x6
 702 00d2 EE030000 		.4byte	.LASF18
 703 00d6 05       		.byte	0x5
 704 00d7 22       		.byte	0x22
 705 00d8 2C000000 		.4byte	0x2c
 706 00dc 00       		.byte	0
 707 00dd 06       		.uleb128 0x6
 708 00de 37030000 		.4byte	.LASF19
 709 00e2 05       		.byte	0x5
 710 00e3 23       		.byte	0x23
 711 00e4 2C000000 		.4byte	0x2c
 712 00e8 04       		.byte	0x4
 713 00e9 06       		.uleb128 0x6
 714 00ea AC000000 		.4byte	.LASF20
 715 00ee 05       		.byte	0x5
 716 00ef 24       		.byte	0x24
 717 00f0 2C000000 		.4byte	0x2c
 718 00f4 08       		.byte	0x8
 719 00f5 06       		.uleb128 0x6
 720 00f6 00000000 		.4byte	.LASF21
 721 00fa 05       		.byte	0x5
 722 00fb 25       		.byte	0x25
 723 00fc 2C000000 		.4byte	0x2c
 724 0100 0C       		.byte	0xc
 725 0101 06       		.uleb128 0x6
 726 0102 CD000000 		.4byte	.LASF22
 727 0106 05       		.byte	0x5
 728 0107 26       		.byte	0x26
 729 0108 2C000000 		.4byte	0x2c
 730 010c 10       		.byte	0x10
 731 010d 06       		.uleb128 0x6
 732 010e AE010000 		.4byte	.LASF23
 733 0112 05       		.byte	0x5
 734 0113 27       		.byte	0x27
 735 0114 2C000000 		.4byte	0x2c
 736 0118 14       		.byte	0x14
 737 0119 06       		.uleb128 0x6
 738 011a 69000000 		.4byte	.LASF24
 739 011e 05       		.byte	0x5
 740 011f 28       		.byte	0x28
 741 0120 2C000000 		.4byte	0x2c
ARM GAS  C:\Users\danit\AppData\Local\Temp\cckpmUMk.s 			page 14


 742 0124 18       		.byte	0x18
 743 0125 06       		.uleb128 0x6
 744 0126 0D030000 		.4byte	.LASF25
 745 012a 05       		.byte	0x5
 746 012b 29       		.byte	0x29
 747 012c 2C000000 		.4byte	0x2c
 748 0130 1C       		.byte	0x1c
 749 0131 06       		.uleb128 0x6
 750 0132 46030000 		.4byte	.LASF26
 751 0136 05       		.byte	0x5
 752 0137 2A       		.byte	0x2a
 753 0138 2C000000 		.4byte	0x2c
 754 013c 20       		.byte	0x20
 755 013d 00       		.byte	0
 756 013e 04       		.uleb128 0x4
 757 013f 06030000 		.4byte	.LASF27
 758 0143 06       		.byte	0x6
 759 0144 2B       		.byte	0x2b
 760 0145 49010000 		.4byte	0x149
 761 0149 02       		.uleb128 0x2
 762 014a 01       		.byte	0x1
 763 014b 02       		.byte	0x2
 764 014c 1E030000 		.4byte	.LASF28
 765 0150 07       		.uleb128 0x7
 766 0151 A5000000 		.4byte	0xa5
 767 0155 07       		.uleb128 0x7
 768 0156 9A000000 		.4byte	0x9a
 769 015a 08       		.uleb128 0x8
 770 015b A0       		.byte	0xa0
 771 015c 07       		.byte	0x7
 772 015d 8104     		.2byte	0x481
 773 015f 69030000 		.4byte	0x369
 774 0163 09       		.uleb128 0x9
 775 0164 545200   		.ascii	"TR\000"
 776 0167 07       		.byte	0x7
 777 0168 8304     		.2byte	0x483
 778 016a 50010000 		.4byte	0x150
 779 016e 00       		.byte	0
 780 016f 09       		.uleb128 0x9
 781 0170 445200   		.ascii	"DR\000"
 782 0173 07       		.byte	0x7
 783 0174 8404     		.2byte	0x484
 784 0176 50010000 		.4byte	0x150
 785 017a 04       		.byte	0x4
 786 017b 09       		.uleb128 0x9
 787 017c 435200   		.ascii	"CR\000"
 788 017f 07       		.byte	0x7
 789 0180 8504     		.2byte	0x485
 790 0182 50010000 		.4byte	0x150
 791 0186 08       		.byte	0x8
 792 0187 09       		.uleb128 0x9
 793 0188 49535200 		.ascii	"ISR\000"
 794 018c 07       		.byte	0x7
 795 018d 8604     		.2byte	0x486
 796 018f 50010000 		.4byte	0x150
 797 0193 0C       		.byte	0xc
 798 0194 0A       		.uleb128 0xa
ARM GAS  C:\Users\danit\AppData\Local\Temp\cckpmUMk.s 			page 15


 799 0195 2D040000 		.4byte	.LASF29
 800 0199 07       		.byte	0x7
 801 019a 8704     		.2byte	0x487
 802 019c 50010000 		.4byte	0x150
 803 01a0 10       		.byte	0x10
 804 01a1 0A       		.uleb128 0xa
 805 01a2 64000000 		.4byte	.LASF30
 806 01a6 07       		.byte	0x7
 807 01a7 8804     		.2byte	0x488
 808 01a9 50010000 		.4byte	0x150
 809 01ad 14       		.byte	0x14
 810 01ae 0A       		.uleb128 0xa
 811 01af 03010000 		.4byte	.LASF31
 812 01b3 07       		.byte	0x7
 813 01b4 8904     		.2byte	0x489
 814 01b6 50010000 		.4byte	0x150
 815 01ba 18       		.byte	0x18
 816 01bb 0A       		.uleb128 0xa
 817 01bc A6020000 		.4byte	.LASF32
 818 01c0 07       		.byte	0x7
 819 01c1 8A04     		.2byte	0x48a
 820 01c3 50010000 		.4byte	0x150
 821 01c7 1C       		.byte	0x1c
 822 01c8 0A       		.uleb128 0xa
 823 01c9 85030000 		.4byte	.LASF33
 824 01cd 07       		.byte	0x7
 825 01ce 8B04     		.2byte	0x48b
 826 01d0 50010000 		.4byte	0x150
 827 01d4 20       		.byte	0x20
 828 01d5 09       		.uleb128 0x9
 829 01d6 57505200 		.ascii	"WPR\000"
 830 01da 07       		.byte	0x7
 831 01db 8C04     		.2byte	0x48c
 832 01dd 50010000 		.4byte	0x150
 833 01e1 24       		.byte	0x24
 834 01e2 09       		.uleb128 0x9
 835 01e3 53535200 		.ascii	"SSR\000"
 836 01e7 07       		.byte	0x7
 837 01e8 8D04     		.2byte	0x48d
 838 01ea 50010000 		.4byte	0x150
 839 01ee 28       		.byte	0x28
 840 01ef 0A       		.uleb128 0xa
 841 01f0 BA020000 		.4byte	.LASF34
 842 01f4 07       		.byte	0x7
 843 01f5 8E04     		.2byte	0x48e
 844 01f7 50010000 		.4byte	0x150
 845 01fb 2C       		.byte	0x2c
 846 01fc 0A       		.uleb128 0xa
 847 01fd C7020000 		.4byte	.LASF35
 848 0201 07       		.byte	0x7
 849 0202 8F04     		.2byte	0x48f
 850 0204 50010000 		.4byte	0x150
 851 0208 30       		.byte	0x30
 852 0209 0A       		.uleb128 0xa
 853 020a 91000000 		.4byte	.LASF36
 854 020e 07       		.byte	0x7
 855 020f 9004     		.2byte	0x490
ARM GAS  C:\Users\danit\AppData\Local\Temp\cckpmUMk.s 			page 16


 856 0211 50010000 		.4byte	0x150
 857 0215 34       		.byte	0x34
 858 0216 0A       		.uleb128 0xa
 859 0217 CA030000 		.4byte	.LASF37
 860 021b 07       		.byte	0x7
 861 021c 9104     		.2byte	0x491
 862 021e 50010000 		.4byte	0x150
 863 0222 38       		.byte	0x38
 864 0223 0A       		.uleb128 0xa
 865 0224 5F000000 		.4byte	.LASF38
 866 0228 07       		.byte	0x7
 867 0229 9204     		.2byte	0x492
 868 022b 50010000 		.4byte	0x150
 869 022f 3C       		.byte	0x3c
 870 0230 0A       		.uleb128 0xa
 871 0231 47010000 		.4byte	.LASF39
 872 0235 07       		.byte	0x7
 873 0236 9304     		.2byte	0x493
 874 0238 50010000 		.4byte	0x150
 875 023c 40       		.byte	0x40
 876 023d 0A       		.uleb128 0xa
 877 023e 37010000 		.4byte	.LASF40
 878 0242 07       		.byte	0x7
 879 0243 9404     		.2byte	0x494
 880 0245 50010000 		.4byte	0x150
 881 0249 44       		.byte	0x44
 882 024a 0A       		.uleb128 0xa
 883 024b 15030000 		.4byte	.LASF41
 884 024f 07       		.byte	0x7
 885 0250 9504     		.2byte	0x495
 886 0252 50010000 		.4byte	0x150
 887 0256 48       		.byte	0x48
 888 0257 0A       		.uleb128 0xa
 889 0258 69030000 		.4byte	.LASF42
 890 025c 07       		.byte	0x7
 891 025d 9604     		.2byte	0x496
 892 025f A5000000 		.4byte	0xa5
 893 0263 4C       		.byte	0x4c
 894 0264 0A       		.uleb128 0xa
 895 0265 9C010000 		.4byte	.LASF43
 896 0269 07       		.byte	0x7
 897 026a 9704     		.2byte	0x497
 898 026c 50010000 		.4byte	0x150
 899 0270 50       		.byte	0x50
 900 0271 0A       		.uleb128 0xa
 901 0272 7F030000 		.4byte	.LASF44
 902 0276 07       		.byte	0x7
 903 0277 9804     		.2byte	0x498
 904 0279 50010000 		.4byte	0x150
 905 027d 54       		.byte	0x54
 906 027e 0A       		.uleb128 0xa
 907 027f 0F000000 		.4byte	.LASF45
 908 0283 07       		.byte	0x7
 909 0284 9904     		.2byte	0x499
 910 0286 50010000 		.4byte	0x150
 911 028a 58       		.byte	0x58
 912 028b 0A       		.uleb128 0xa
ARM GAS  C:\Users\danit\AppData\Local\Temp\cckpmUMk.s 			page 17


 913 028c B4000000 		.4byte	.LASF46
 914 0290 07       		.byte	0x7
 915 0291 9A04     		.2byte	0x49a
 916 0293 50010000 		.4byte	0x150
 917 0297 5C       		.byte	0x5c
 918 0298 0A       		.uleb128 0xa
 919 0299 C1020000 		.4byte	.LASF47
 920 029d 07       		.byte	0x7
 921 029e 9B04     		.2byte	0x49b
 922 02a0 50010000 		.4byte	0x150
 923 02a4 60       		.byte	0x60
 924 02a5 0A       		.uleb128 0xa
 925 02a6 97030000 		.4byte	.LASF48
 926 02aa 07       		.byte	0x7
 927 02ab 9C04     		.2byte	0x49c
 928 02ad 50010000 		.4byte	0x150
 929 02b1 64       		.byte	0x64
 930 02b2 0A       		.uleb128 0xa
 931 02b3 47000000 		.4byte	.LASF49
 932 02b7 07       		.byte	0x7
 933 02b8 9D04     		.2byte	0x49d
 934 02ba 50010000 		.4byte	0x150
 935 02be 68       		.byte	0x68
 936 02bf 0A       		.uleb128 0xa
 937 02c0 31010000 		.4byte	.LASF50
 938 02c4 07       		.byte	0x7
 939 02c5 9E04     		.2byte	0x49e
 940 02c7 50010000 		.4byte	0x150
 941 02cb 6C       		.byte	0x6c
 942 02cc 0A       		.uleb128 0xa
 943 02cd F8020000 		.4byte	.LASF51
 944 02d1 07       		.byte	0x7
 945 02d2 9F04     		.2byte	0x49f
 946 02d4 50010000 		.4byte	0x150
 947 02d8 70       		.byte	0x70
 948 02d9 0A       		.uleb128 0xa
 949 02da E8030000 		.4byte	.LASF52
 950 02de 07       		.byte	0x7
 951 02df A004     		.2byte	0x4a0
 952 02e1 50010000 		.4byte	0x150
 953 02e5 74       		.byte	0x74
 954 02e6 0A       		.uleb128 0xa
 955 02e7 18010000 		.4byte	.LASF53
 956 02eb 07       		.byte	0x7
 957 02ec A104     		.2byte	0x4a1
 958 02ee 50010000 		.4byte	0x150
 959 02f2 78       		.byte	0x78
 960 02f3 0A       		.uleb128 0xa
 961 02f4 E4020000 		.4byte	.LASF54
 962 02f8 07       		.byte	0x7
 963 02f9 A204     		.2byte	0x4a2
 964 02fb 50010000 		.4byte	0x150
 965 02ff 7C       		.byte	0x7c
 966 0300 0A       		.uleb128 0xa
 967 0301 D0030000 		.4byte	.LASF55
 968 0305 07       		.byte	0x7
 969 0306 A304     		.2byte	0x4a3
ARM GAS  C:\Users\danit\AppData\Local\Temp\cckpmUMk.s 			page 18


 970 0308 50010000 		.4byte	0x150
 971 030c 80       		.byte	0x80
 972 030d 0A       		.uleb128 0xa
 973 030e 7C000000 		.4byte	.LASF56
 974 0312 07       		.byte	0x7
 975 0313 A404     		.2byte	0x4a4
 976 0315 50010000 		.4byte	0x150
 977 0319 84       		.byte	0x84
 978 031a 0A       		.uleb128 0xa
 979 031b 40010000 		.4byte	.LASF57
 980 031f 07       		.byte	0x7
 981 0320 A504     		.2byte	0x4a5
 982 0322 50010000 		.4byte	0x150
 983 0326 88       		.byte	0x88
 984 0327 0A       		.uleb128 0xa
 985 0328 24030000 		.4byte	.LASF58
 986 032c 07       		.byte	0x7
 987 032d A604     		.2byte	0x4a6
 988 032f 50010000 		.4byte	0x150
 989 0333 8C       		.byte	0x8c
 990 0334 0A       		.uleb128 0xa
 991 0335 39040000 		.4byte	.LASF59
 992 0339 07       		.byte	0x7
 993 033a A704     		.2byte	0x4a7
 994 033c 50010000 		.4byte	0x150
 995 0340 90       		.byte	0x90
 996 0341 0A       		.uleb128 0xa
 997 0342 8A000000 		.4byte	.LASF60
 998 0346 07       		.byte	0x7
 999 0347 A804     		.2byte	0x4a8
 1000 0349 50010000 		.4byte	0x150
 1001 034d 94       		.byte	0x94
 1002 034e 0A       		.uleb128 0xa
 1003 034f 95010000 		.4byte	.LASF61
 1004 0353 07       		.byte	0x7
 1005 0354 A904     		.2byte	0x4a9
 1006 0356 50010000 		.4byte	0x150
 1007 035a 98       		.byte	0x98
 1008 035b 0A       		.uleb128 0xa
 1009 035c 78030000 		.4byte	.LASF62
 1010 0360 07       		.byte	0x7
 1011 0361 AA04     		.2byte	0x4aa
 1012 0363 50010000 		.4byte	0x150
 1013 0367 9C       		.byte	0x9c
 1014 0368 00       		.byte	0
 1015 0369 0B       		.uleb128 0xb
 1016 036a 2B030000 		.4byte	.LASF63
 1017 036e 07       		.byte	0x7
 1018 036f AB04     		.2byte	0x4ab
 1019 0371 5A010000 		.4byte	0x15a
 1020 0375 04       		.uleb128 0x4
 1021 0376 96000000 		.4byte	.LASF64
 1022 037a 08       		.byte	0x8
 1023 037b 4C       		.byte	0x4c
 1024 037c 80030000 		.4byte	0x380
 1025 0380 0C       		.uleb128 0xc
 1026 0381 96000000 		.4byte	.LASF64
ARM GAS  C:\Users\danit\AppData\Local\Temp\cckpmUMk.s 			page 19


 1027 0385 04       		.byte	0x4
 1028 0386 09       		.byte	0x9
 1029 0387 B5       		.byte	0xb5
 1030 0388 99030000 		.4byte	0x399
 1031 038c 06       		.uleb128 0x6
 1032 038d 32040000 		.4byte	.LASF65
 1033 0391 09       		.byte	0x9
 1034 0392 B9       		.byte	0xb9
 1035 0393 E1030000 		.4byte	0x3e1
 1036 0397 00       		.byte	0
 1037 0398 00       		.byte	0
 1038 0399 04       		.uleb128 0x4
 1039 039a A8030000 		.4byte	.LASF66
 1040 039e 08       		.byte	0x8
 1041 039f 51       		.byte	0x51
 1042 03a0 A4030000 		.4byte	0x3a4
 1043 03a4 0C       		.uleb128 0xc
 1044 03a5 A8030000 		.4byte	.LASF66
 1045 03a9 10       		.byte	0x10
 1046 03aa 09       		.byte	0x9
 1047 03ab 83       		.byte	0x83
 1048 03ac E1030000 		.4byte	0x3e1
 1049 03b0 06       		.uleb128 0x6
 1050 03b1 3E030000 		.4byte	.LASF67
 1051 03b5 09       		.byte	0x9
 1052 03b6 87       		.byte	0x87
 1053 03b7 A5000000 		.4byte	0xa5
 1054 03bb 00       		.byte	0
 1055 03bc 06       		.uleb128 0x6
 1056 03bd B0030000 		.4byte	.LASF68
 1057 03c1 09       		.byte	0x9
 1058 03c2 8B       		.byte	0x8b
 1059 03c3 A5000000 		.4byte	0xa5
 1060 03c7 04       		.byte	0x4
 1061 03c8 0D       		.uleb128 0xd
 1062 03c9 68313200 		.ascii	"h12\000"
 1063 03cd 09       		.byte	0x9
 1064 03ce 8F       		.byte	0x8f
 1065 03cf 3E010000 		.4byte	0x13e
 1066 03d3 08       		.byte	0x8
 1067 03d4 06       		.uleb128 0x6
 1068 03d5 4F030000 		.4byte	.LASF69
 1069 03d9 09       		.byte	0x9
 1070 03da 94       		.byte	0x94
 1071 03db A5000000 		.4byte	0xa5
 1072 03df 0C       		.byte	0xc
 1073 03e0 00       		.byte	0
 1074 03e1 0E       		.uleb128 0xe
 1075 03e2 04       		.byte	0x4
 1076 03e3 69030000 		.4byte	0x369
 1077 03e7 0F       		.uleb128 0xf
 1078 03e8 F5030000 		.4byte	.LASF72
 1079 03ec 01       		.byte	0x1
 1080 03ed 34       		.byte	0x34
 1081 03ee 01       		.byte	0x1
 1082 03ef 20040000 		.4byte	0x420
 1083 03f3 10       		.uleb128 0x10
ARM GAS  C:\Users\danit\AppData\Local\Temp\cckpmUMk.s 			page 20


 1084 03f4 DF020000 		.4byte	.LASF70
 1085 03f8 01       		.byte	0x1
 1086 03f9 34       		.byte	0x34
 1087 03fa 20040000 		.4byte	0x420
 1088 03fe 10       		.uleb128 0x10
 1089 03ff C1030000 		.4byte	.LASF71
 1090 0403 01       		.byte	0x1
 1091 0404 34       		.byte	0x34
 1092 0405 26040000 		.4byte	0x426
 1093 0409 11       		.uleb128 0x11
 1094 040a B0030000 		.4byte	.LASF68
 1095 040e 01       		.byte	0x1
 1096 040f 35       		.byte	0x35
 1097 0410 A5000000 		.4byte	0xa5
 1098 0414 11       		.uleb128 0x11
 1099 0415 3E030000 		.4byte	.LASF67
 1100 0419 01       		.byte	0x1
 1101 041a 36       		.byte	0x36
 1102 041b A5000000 		.4byte	0xa5
 1103 041f 00       		.byte	0
 1104 0420 0E       		.uleb128 0xe
 1105 0421 04       		.byte	0x4
 1106 0422 C6000000 		.4byte	0xc6
 1107 0426 0E       		.uleb128 0xe
 1108 0427 04       		.byte	0x4
 1109 0428 99030000 		.4byte	0x399
 1110 042c 0F       		.uleb128 0xf
 1111 042d D7030000 		.4byte	.LASF73
 1112 0431 01       		.byte	0x1
 1113 0432 68       		.byte	0x68
 1114 0433 01       		.byte	0x1
 1115 0434 58040000 		.4byte	0x458
 1116 0438 10       		.uleb128 0x10
 1117 0439 DF020000 		.4byte	.LASF70
 1118 043d 01       		.byte	0x1
 1119 043e 68       		.byte	0x68
 1120 043f 20040000 		.4byte	0x420
 1121 0443 10       		.uleb128 0x10
 1122 0444 C1030000 		.4byte	.LASF71
 1123 0448 01       		.byte	0x1
 1124 0449 68       		.byte	0x68
 1125 044a 26040000 		.4byte	0x426
 1126 044e 12       		.uleb128 0x12
 1127 044f 7600     		.ascii	"v\000"
 1128 0451 01       		.byte	0x1
 1129 0452 69       		.byte	0x69
 1130 0453 A5000000 		.4byte	0xa5
 1131 0457 00       		.byte	0
 1132 0458 13       		.uleb128 0x13
 1133 0459 E7030000 		.4byte	0x3e7
 1134 045d 00000000 		.4byte	.LFB125
 1135 0461 98000000 		.4byte	.LFE125-.LFB125
 1136 0465 01       		.uleb128 0x1
 1137 0466 9C       		.byte	0x9c
 1138 0467 9D040000 		.4byte	0x49d
 1139 046b 14       		.uleb128 0x14
 1140 046c F3030000 		.4byte	0x3f3
ARM GAS  C:\Users\danit\AppData\Local\Temp\cckpmUMk.s 			page 21


 1141 0470 01       		.uleb128 0x1
 1142 0471 50       		.byte	0x50
 1143 0472 14       		.uleb128 0x14
 1144 0473 FE030000 		.4byte	0x3fe
 1145 0477 06       		.uleb128 0x6
 1146 0478 FA       		.byte	0xfa
 1147 0479 FE030000 		.4byte	0x3fe
 1148 047d 9F       		.byte	0x9f
 1149 047e 14       		.uleb128 0x14
 1150 047f FE030000 		.4byte	0x3fe
 1151 0483 06       		.uleb128 0x6
 1152 0484 FA       		.byte	0xfa
 1153 0485 FE030000 		.4byte	0x3fe
 1154 0489 9F       		.byte	0x9f
 1155 048a 15       		.uleb128 0x15
 1156 048b 09040000 		.4byte	0x409
 1157 048f 00000000 		.4byte	.LLST0
 1158 0493 15       		.uleb128 0x15
 1159 0494 14040000 		.4byte	0x414
 1160 0498 13000000 		.4byte	.LLST1
 1161 049c 00       		.byte	0
 1162 049d 13       		.uleb128 0x13
 1163 049e 2C040000 		.4byte	0x42c
 1164 04a2 00000000 		.4byte	.LFB126
 1165 04a6 F4000000 		.4byte	.LFE126-.LFB126
 1166 04aa 01       		.uleb128 0x1
 1167 04ab 9C       		.byte	0x9c
 1168 04ac DB040000 		.4byte	0x4db
 1169 04b0 16       		.uleb128 0x16
 1170 04b1 38040000 		.4byte	0x438
 1171 04b5 26000000 		.4byte	.LLST2
 1172 04b9 14       		.uleb128 0x14
 1173 04ba 43040000 		.4byte	0x443
 1174 04be 06       		.uleb128 0x6
 1175 04bf FA       		.byte	0xfa
 1176 04c0 43040000 		.4byte	0x443
 1177 04c4 9F       		.byte	0x9f
 1178 04c5 14       		.uleb128 0x14
 1179 04c6 43040000 		.4byte	0x443
 1180 04ca 06       		.uleb128 0x6
 1181 04cb FA       		.byte	0xfa
 1182 04cc 43040000 		.4byte	0x443
 1183 04d0 9F       		.byte	0x9f
 1184 04d1 15       		.uleb128 0x15
 1185 04d2 4E040000 		.4byte	0x44e
 1186 04d6 52000000 		.4byte	.LLST3
 1187 04da 00       		.byte	0
 1188 04db 17       		.uleb128 0x17
 1189 04dc 3A000000 		.4byte	.LASF75
 1190 04e0 01       		.byte	0x1
 1191 04e1 95       		.byte	0x95
 1192 04e2 00000000 		.4byte	.LFB120
 1193 04e6 26000000 		.4byte	.LFE120-.LFB120
 1194 04ea 01       		.uleb128 0x1
 1195 04eb 9C       		.byte	0x9c
 1196 04ec 50050000 		.4byte	0x550
 1197 04f0 18       		.uleb128 0x18
ARM GAS  C:\Users\danit\AppData\Local\Temp\cckpmUMk.s 			page 22


 1198 04f1 73030000 		.4byte	.LASF74
 1199 04f5 01       		.byte	0x1
 1200 04f6 95       		.byte	0x95
 1201 04f7 50050000 		.4byte	0x550
 1202 04fb C2000000 		.4byte	.LLST4
 1203 04ff 18       		.uleb128 0x18
 1204 0500 DF020000 		.4byte	.LASF70
 1205 0504 01       		.byte	0x1
 1206 0505 95       		.byte	0x95
 1207 0506 20040000 		.4byte	0x420
 1208 050a E3000000 		.4byte	.LLST5
 1209 050e 19       		.uleb128 0x19
 1210 050f C1030000 		.4byte	.LASF71
 1211 0513 01       		.byte	0x1
 1212 0514 97       		.byte	0x97
 1213 0515 99030000 		.4byte	0x399
 1214 0519 02       		.uleb128 0x2
 1215 051a 91       		.byte	0x91
 1216 051b 68       		.sleb128 -24
 1217 051c 1A       		.uleb128 0x1a
 1218 051d 18000000 		.4byte	.LVL16
 1219 0521 B3070000 		.4byte	0x7b3
 1220 0525 37050000 		.4byte	0x537
 1221 0529 1B       		.uleb128 0x1b
 1222 052a 01       		.uleb128 0x1
 1223 052b 51       		.byte	0x51
 1224 052c 02       		.uleb128 0x2
 1225 052d 7D       		.byte	0x7d
 1226 052e 00       		.sleb128 0
 1227 052f 1B       		.uleb128 0x1b
 1228 0530 01       		.uleb128 0x1
 1229 0531 50       		.byte	0x50
 1230 0532 03       		.uleb128 0x3
 1231 0533 F3       		.byte	0xf3
 1232 0534 01       		.uleb128 0x1
 1233 0535 50       		.byte	0x50
 1234 0536 00       		.byte	0
 1235 0537 1C       		.uleb128 0x1c
 1236 0538 22000000 		.4byte	.LVL17
 1237 053c 58040000 		.4byte	0x458
 1238 0540 1B       		.uleb128 0x1b
 1239 0541 01       		.uleb128 0x1
 1240 0542 50       		.byte	0x50
 1241 0543 02       		.uleb128 0x2
 1242 0544 74       		.byte	0x74
 1243 0545 00       		.sleb128 0
 1244 0546 1D       		.uleb128 0x1d
 1245 0547 FE030000 		.4byte	0x3fe
 1246 054b 02       		.uleb128 0x2
 1247 054c 7D       		.byte	0x7d
 1248 054d 00       		.sleb128 0
 1249 054e 00       		.byte	0
 1250 054f 00       		.byte	0
 1251 0550 0E       		.uleb128 0xe
 1252 0551 04       		.byte	0x4
 1253 0552 75030000 		.4byte	0x375
 1254 0556 17       		.uleb128 0x17
ARM GAS  C:\Users\danit\AppData\Local\Temp\cckpmUMk.s 			page 23


 1255 0557 B6010000 		.4byte	.LASF76
 1256 055b 01       		.byte	0x1
 1257 055c A8       		.byte	0xa8
 1258 055d 00000000 		.4byte	.LFB121
 1259 0561 28000000 		.4byte	.LFE121-.LFB121
 1260 0565 01       		.uleb128 0x1
 1261 0566 9C       		.byte	0x9c
 1262 0567 D7050000 		.4byte	0x5d7
 1263 056b 18       		.uleb128 0x18
 1264 056c 73030000 		.4byte	.LASF74
 1265 0570 01       		.byte	0x1
 1266 0571 A8       		.byte	0xa8
 1267 0572 50050000 		.4byte	0x550
 1268 0576 01010000 		.4byte	.LLST6
 1269 057a 18       		.uleb128 0x18
 1270 057b DF020000 		.4byte	.LASF70
 1271 057f 01       		.byte	0x1
 1272 0580 A8       		.byte	0xa8
 1273 0581 20040000 		.4byte	0x420
 1274 0585 1F010000 		.4byte	.LLST7
 1275 0589 19       		.uleb128 0x19
 1276 058a C1030000 		.4byte	.LASF71
 1277 058e 01       		.byte	0x1
 1278 058f AA       		.byte	0xaa
 1279 0590 99030000 		.4byte	0x399
 1280 0594 02       		.uleb128 0x2
 1281 0595 91       		.byte	0x91
 1282 0596 68       		.sleb128 -24
 1283 0597 1A       		.uleb128 0x1a
 1284 0598 1C000000 		.4byte	.LVL21
 1285 059c 9D040000 		.4byte	0x49d
 1286 05a0 C0050000 		.4byte	0x5c0
 1287 05a4 1B       		.uleb128 0x1b
 1288 05a5 01       		.uleb128 0x1
 1289 05a6 52       		.byte	0x52
 1290 05a7 02       		.uleb128 0x2
 1291 05a8 91       		.byte	0x91
 1292 05a9 6C       		.sleb128 -20
 1293 05aa 1B       		.uleb128 0x1b
 1294 05ab 01       		.uleb128 0x1
 1295 05ac 51       		.byte	0x51
 1296 05ad 02       		.uleb128 0x2
 1297 05ae 7D       		.byte	0x7d
 1298 05af 00       		.sleb128 0
 1299 05b0 1B       		.uleb128 0x1b
 1300 05b1 01       		.uleb128 0x1
 1301 05b2 50       		.byte	0x50
 1302 05b3 03       		.uleb128 0x3
 1303 05b4 F3       		.byte	0xf3
 1304 05b5 01       		.uleb128 0x1
 1305 05b6 51       		.byte	0x51
 1306 05b7 1D       		.uleb128 0x1d
 1307 05b8 43040000 		.4byte	0x443
 1308 05bc 02       		.uleb128 0x2
 1309 05bd 7D       		.byte	0x7d
 1310 05be 00       		.sleb128 0
 1311 05bf 00       		.byte	0
ARM GAS  C:\Users\danit\AppData\Local\Temp\cckpmUMk.s 			page 24


 1312 05c0 1C       		.uleb128 0x1c
 1313 05c1 24000000 		.4byte	.LVL22
 1314 05c5 C9070000 		.4byte	0x7c9
 1315 05c9 1B       		.uleb128 0x1b
 1316 05ca 01       		.uleb128 0x1
 1317 05cb 51       		.byte	0x51
 1318 05cc 02       		.uleb128 0x2
 1319 05cd 7D       		.byte	0x7d
 1320 05ce 00       		.sleb128 0
 1321 05cf 1B       		.uleb128 0x1b
 1322 05d0 01       		.uleb128 0x1
 1323 05d1 50       		.byte	0x50
 1324 05d2 02       		.uleb128 0x2
 1325 05d3 74       		.byte	0x74
 1326 05d4 00       		.sleb128 0
 1327 05d5 00       		.byte	0
 1328 05d6 00       		.byte	0
 1329 05d7 1E       		.uleb128 0x1e
 1330 05d8 4D000000 		.4byte	.LASF79
 1331 05dc 01       		.byte	0x1
 1332 05dd BB       		.byte	0xbb
 1333 05de BB000000 		.4byte	0xbb
 1334 05e2 00000000 		.4byte	.LFB122
 1335 05e6 2C000000 		.4byte	.LFE122-.LFB122
 1336 05ea 01       		.uleb128 0x1
 1337 05eb 9C       		.byte	0x9c
 1338 05ec 63060000 		.4byte	0x663
 1339 05f0 18       		.uleb128 0x18
 1340 05f1 73030000 		.4byte	.LASF74
 1341 05f5 01       		.byte	0x1
 1342 05f6 BB       		.byte	0xbb
 1343 05f7 50050000 		.4byte	0x550
 1344 05fb 4B010000 		.4byte	.LLST8
 1345 05ff 19       		.uleb128 0x19
 1346 0600 C1030000 		.4byte	.LASF71
 1347 0604 01       		.byte	0x1
 1348 0605 BD       		.byte	0xbd
 1349 0606 99030000 		.4byte	0x399
 1350 060a 02       		.uleb128 0x2
 1351 060b 91       		.byte	0x91
 1352 060c 44       		.sleb128 -60
 1353 060d 19       		.uleb128 0x19
 1354 060e DF020000 		.4byte	.LASF70
 1355 0612 01       		.byte	0x1
 1356 0613 C1       		.byte	0xc1
 1357 0614 C6000000 		.4byte	0xc6
 1358 0618 02       		.uleb128 0x2
 1359 0619 91       		.byte	0x91
 1360 061a 54       		.sleb128 -44
 1361 061b 1A       		.uleb128 0x1a
 1362 061c 16000000 		.4byte	.LVL24
 1363 0620 B3070000 		.4byte	0x7b3
 1364 0624 36060000 		.4byte	0x636
 1365 0628 1B       		.uleb128 0x1b
 1366 0629 01       		.uleb128 0x1
 1367 062a 51       		.byte	0x51
 1368 062b 02       		.uleb128 0x2
ARM GAS  C:\Users\danit\AppData\Local\Temp\cckpmUMk.s 			page 25


 1369 062c 91       		.byte	0x91
 1370 062d 44       		.sleb128 -60
 1371 062e 1B       		.uleb128 0x1b
 1372 062f 01       		.uleb128 0x1
 1373 0630 50       		.byte	0x50
 1374 0631 03       		.uleb128 0x3
 1375 0632 F3       		.byte	0xf3
 1376 0633 01       		.uleb128 0x1
 1377 0634 50       		.byte	0x50
 1378 0635 00       		.byte	0
 1379 0636 1A       		.uleb128 0x1a
 1380 0637 20000000 		.4byte	.LVL25
 1381 063b 58040000 		.4byte	0x458
 1382 063f 52060000 		.4byte	0x652
 1383 0643 1B       		.uleb128 0x1b
 1384 0644 01       		.uleb128 0x1
 1385 0645 50       		.byte	0x50
 1386 0646 02       		.uleb128 0x2
 1387 0647 91       		.byte	0x91
 1388 0648 54       		.sleb128 -44
 1389 0649 1D       		.uleb128 0x1d
 1390 064a FE030000 		.4byte	0x3fe
 1391 064e 02       		.uleb128 0x2
 1392 064f 91       		.byte	0x91
 1393 0650 44       		.sleb128 -60
 1394 0651 00       		.byte	0
 1395 0652 1C       		.uleb128 0x1c
 1396 0653 26000000 		.4byte	.LVL26
 1397 0657 EA070000 		.4byte	0x7ea
 1398 065b 1B       		.uleb128 0x1b
 1399 065c 01       		.uleb128 0x1
 1400 065d 50       		.byte	0x50
 1401 065e 02       		.uleb128 0x2
 1402 065f 91       		.byte	0x91
 1403 0660 54       		.sleb128 -44
 1404 0661 00       		.byte	0
 1405 0662 00       		.byte	0
 1406 0663 17       		.uleb128 0x17
 1407 0664 1F010000 		.4byte	.LASF77
 1408 0668 01       		.byte	0x1
 1409 0669 D2       		.byte	0xd2
 1410 066a 00000000 		.4byte	.LFB123
 1411 066e 32000000 		.4byte	.LFE123-.LFB123
 1412 0672 01       		.uleb128 0x1
 1413 0673 9C       		.byte	0x9c
 1414 0674 0C070000 		.4byte	0x70c
 1415 0678 18       		.uleb128 0x18
 1416 0679 73030000 		.4byte	.LASF74
 1417 067d 01       		.byte	0x1
 1418 067e D2       		.byte	0xd2
 1419 067f 50050000 		.4byte	0x550
 1420 0683 6C010000 		.4byte	.LLST9
 1421 0687 18       		.uleb128 0x18
 1422 0688 20000000 		.4byte	.LASF78
 1423 068c 01       		.byte	0x1
 1424 068d D2       		.byte	0xd2
 1425 068e BB000000 		.4byte	0xbb
ARM GAS  C:\Users\danit\AppData\Local\Temp\cckpmUMk.s 			page 26


 1426 0692 8A010000 		.4byte	.LLST10
 1427 0696 19       		.uleb128 0x19
 1428 0697 C1030000 		.4byte	.LASF71
 1429 069b 01       		.byte	0x1
 1430 069c D4       		.byte	0xd4
 1431 069d 99030000 		.4byte	0x399
 1432 06a1 02       		.uleb128 0x2
 1433 06a2 91       		.byte	0x91
 1434 06a3 44       		.sleb128 -60
 1435 06a4 19       		.uleb128 0x19
 1436 06a5 DF020000 		.4byte	.LASF70
 1437 06a9 01       		.byte	0x1
 1438 06aa D8       		.byte	0xd8
 1439 06ab C6000000 		.4byte	0xc6
 1440 06af 02       		.uleb128 0x2
 1441 06b0 91       		.byte	0x91
 1442 06b1 54       		.sleb128 -44
 1443 06b2 1A       		.uleb128 0x1a
 1444 06b3 1C000000 		.4byte	.LVL30
 1445 06b7 FF070000 		.4byte	0x7ff
 1446 06bb CD060000 		.4byte	0x6cd
 1447 06bf 1B       		.uleb128 0x1b
 1448 06c0 01       		.uleb128 0x1
 1449 06c1 51       		.byte	0x51
 1450 06c2 02       		.uleb128 0x2
 1451 06c3 91       		.byte	0x91
 1452 06c4 54       		.sleb128 -44
 1453 06c5 1B       		.uleb128 0x1b
 1454 06c6 01       		.uleb128 0x1
 1455 06c7 50       		.byte	0x50
 1456 06c8 03       		.uleb128 0x3
 1457 06c9 91       		.byte	0x91
 1458 06ca BC7F     		.sleb128 -68
 1459 06cc 00       		.byte	0
 1460 06cd 1A       		.uleb128 0x1a
 1461 06ce 26000000 		.4byte	.LVL31
 1462 06d2 9D040000 		.4byte	0x49d
 1463 06d6 F5060000 		.4byte	0x6f5
 1464 06da 1B       		.uleb128 0x1b
 1465 06db 01       		.uleb128 0x1
 1466 06dc 52       		.byte	0x52
 1467 06dd 02       		.uleb128 0x2
 1468 06de 91       		.byte	0x91
 1469 06df 48       		.sleb128 -56
 1470 06e0 1B       		.uleb128 0x1b
 1471 06e1 01       		.uleb128 0x1
 1472 06e2 51       		.byte	0x51
 1473 06e3 02       		.uleb128 0x2
 1474 06e4 91       		.byte	0x91
 1475 06e5 44       		.sleb128 -60
 1476 06e6 1B       		.uleb128 0x1b
 1477 06e7 01       		.uleb128 0x1
 1478 06e8 50       		.byte	0x50
 1479 06e9 02       		.uleb128 0x2
 1480 06ea 91       		.byte	0x91
 1481 06eb 54       		.sleb128 -44
 1482 06ec 1D       		.uleb128 0x1d
ARM GAS  C:\Users\danit\AppData\Local\Temp\cckpmUMk.s 			page 27


 1483 06ed 43040000 		.4byte	0x443
 1484 06f1 02       		.uleb128 0x2
 1485 06f2 91       		.byte	0x91
 1486 06f3 44       		.sleb128 -60
 1487 06f4 00       		.byte	0
 1488 06f5 1C       		.uleb128 0x1c
 1489 06f6 2E000000 		.4byte	.LVL32
 1490 06fa C9070000 		.4byte	0x7c9
 1491 06fe 1B       		.uleb128 0x1b
 1492 06ff 01       		.uleb128 0x1
 1493 0700 51       		.byte	0x51
 1494 0701 02       		.uleb128 0x2
 1495 0702 91       		.byte	0x91
 1496 0703 44       		.sleb128 -60
 1497 0704 1B       		.uleb128 0x1b
 1498 0705 01       		.uleb128 0x1
 1499 0706 50       		.byte	0x50
 1500 0707 02       		.uleb128 0x2
 1501 0708 74       		.byte	0x74
 1502 0709 00       		.sleb128 0
 1503 070a 00       		.byte	0
 1504 070b 00       		.byte	0
 1505 070c 1E       		.uleb128 0x1e
 1506 070d BA000000 		.4byte	.LASF80
 1507 0711 01       		.byte	0x1
 1508 0712 E7       		.byte	0xe7
 1509 0713 B0000000 		.4byte	0xb0
 1510 0717 00000000 		.4byte	.LFB124
 1511 071b 48000000 		.4byte	.LFE124-.LFB124
 1512 071f 01       		.uleb128 0x1
 1513 0720 9C       		.byte	0x9c
 1514 0721 A7070000 		.4byte	0x7a7
 1515 0725 18       		.uleb128 0x18
 1516 0726 73030000 		.4byte	.LASF74
 1517 072a 01       		.byte	0x1
 1518 072b E7       		.byte	0xe7
 1519 072c 50050000 		.4byte	0x550
 1520 0730 B6010000 		.4byte	.LLST11
 1521 0734 1F       		.uleb128 0x1f
 1522 0735 08000000 		.4byte	.LASF81
 1523 0739 01       		.byte	0x1
 1524 073a E9       		.byte	0xe9
 1525 073b B0000000 		.4byte	0xb0
 1526 073f D7010000 		.4byte	.LLST12
 1527 0743 19       		.uleb128 0x19
 1528 0744 C1030000 		.4byte	.LASF71
 1529 0748 01       		.byte	0x1
 1530 0749 EA       		.byte	0xea
 1531 074a 99030000 		.4byte	0x399
 1532 074e 02       		.uleb128 0x2
 1533 074f 91       		.byte	0x91
 1534 0750 44       		.sleb128 -60
 1535 0751 19       		.uleb128 0x19
 1536 0752 DF020000 		.4byte	.LASF70
 1537 0756 01       		.byte	0x1
 1538 0757 EB       		.byte	0xeb
 1539 0758 C6000000 		.4byte	0xc6
ARM GAS  C:\Users\danit\AppData\Local\Temp\cckpmUMk.s 			page 28


 1540 075c 02       		.uleb128 0x2
 1541 075d 91       		.byte	0x91
 1542 075e 54       		.sleb128 -44
 1543 075f 1A       		.uleb128 0x1a
 1544 0760 16000000 		.4byte	.LVL34
 1545 0764 B3070000 		.4byte	0x7b3
 1546 0768 7A070000 		.4byte	0x77a
 1547 076c 1B       		.uleb128 0x1b
 1548 076d 01       		.uleb128 0x1
 1549 076e 51       		.byte	0x51
 1550 076f 02       		.uleb128 0x2
 1551 0770 91       		.byte	0x91
 1552 0771 44       		.sleb128 -60
 1553 0772 1B       		.uleb128 0x1b
 1554 0773 01       		.uleb128 0x1
 1555 0774 50       		.byte	0x50
 1556 0775 03       		.uleb128 0x3
 1557 0776 F3       		.byte	0xf3
 1558 0777 01       		.uleb128 0x1
 1559 0778 50       		.byte	0x50
 1560 0779 00       		.byte	0
 1561 077a 1A       		.uleb128 0x1a
 1562 077b 20000000 		.4byte	.LVL35
 1563 077f 58040000 		.4byte	0x458
 1564 0783 96070000 		.4byte	0x796
 1565 0787 1B       		.uleb128 0x1b
 1566 0788 01       		.uleb128 0x1
 1567 0789 50       		.byte	0x50
 1568 078a 02       		.uleb128 0x2
 1569 078b 91       		.byte	0x91
 1570 078c 54       		.sleb128 -44
 1571 078d 1D       		.uleb128 0x1d
 1572 078e FE030000 		.4byte	0x3fe
 1573 0792 02       		.uleb128 0x2
 1574 0793 91       		.byte	0x91
 1575 0794 44       		.sleb128 -60
 1576 0795 00       		.byte	0
 1577 0796 1C       		.uleb128 0x1c
 1578 0797 26000000 		.4byte	.LVL36
 1579 079b EA070000 		.4byte	0x7ea
 1580 079f 1B       		.uleb128 0x1b
 1581 07a0 01       		.uleb128 0x1
 1582 07a1 50       		.byte	0x50
 1583 07a2 02       		.uleb128 0x2
 1584 07a3 91       		.byte	0x91
 1585 07a4 54       		.sleb128 -44
 1586 07a5 00       		.byte	0
 1587 07a6 00       		.byte	0
 1588 07a7 20       		.uleb128 0x20
 1589 07a8 EB020000 		.4byte	.LASF89
 1590 07ac 0A       		.byte	0xa
 1591 07ad 9806     		.2byte	0x698
 1592 07af 55010000 		.4byte	0x155
 1593 07b3 21       		.uleb128 0x21
 1594 07b4 8C030000 		.4byte	.LASF82
 1595 07b8 08       		.byte	0x8
 1596 07b9 A0       		.byte	0xa0
ARM GAS  C:\Users\danit\AppData\Local\Temp\cckpmUMk.s 			page 29


 1597 07ba C9070000 		.4byte	0x7c9
 1598 07be 22       		.uleb128 0x22
 1599 07bf 50050000 		.4byte	0x550
 1600 07c3 22       		.uleb128 0x22
 1601 07c4 26040000 		.4byte	0x426
 1602 07c8 00       		.byte	0
 1603 07c9 21       		.uleb128 0x21
 1604 07ca 9D030000 		.4byte	.LASF83
 1605 07ce 08       		.byte	0x8
 1606 07cf 9F       		.byte	0x9f
 1607 07d0 DF070000 		.4byte	0x7df
 1608 07d4 22       		.uleb128 0x22
 1609 07d5 50050000 		.4byte	0x550
 1610 07d9 22       		.uleb128 0x22
 1611 07da DF070000 		.4byte	0x7df
 1612 07de 00       		.byte	0
 1613 07df 0E       		.uleb128 0xe
 1614 07e0 04       		.byte	0x4
 1615 07e1 E5070000 		.4byte	0x7e5
 1616 07e5 23       		.uleb128 0x23
 1617 07e6 99030000 		.4byte	0x399
 1618 07ea 24       		.uleb128 0x24
 1619 07eb 8E010000 		.4byte	.LASF84
 1620 07ef 05       		.byte	0x5
 1621 07f0 35       		.byte	0x35
 1622 07f1 BB000000 		.4byte	0xbb
 1623 07f5 FF070000 		.4byte	0x7ff
 1624 07f9 22       		.uleb128 0x22
 1625 07fa 20040000 		.4byte	0x420
 1626 07fe 00       		.byte	0
 1627 07ff 24       		.uleb128 0x24
 1628 0800 A0000000 		.4byte	.LASF85
 1629 0804 05       		.byte	0x5
 1630 0805 46       		.byte	0x46
 1631 0806 20040000 		.4byte	0x420
 1632 080a 19080000 		.4byte	0x819
 1633 080e 22       		.uleb128 0x22
 1634 080f 19080000 		.4byte	0x819
 1635 0813 22       		.uleb128 0x22
 1636 0814 20040000 		.4byte	0x420
 1637 0818 00       		.byte	0
 1638 0819 0E       		.uleb128 0xe
 1639 081a 04       		.byte	0x4
 1640 081b 1F080000 		.4byte	0x81f
 1641 081f 23       		.uleb128 0x23
 1642 0820 BB000000 		.4byte	0xbb
 1643 0824 00       		.byte	0
 1644              		.section	.debug_abbrev,"",%progbits
 1645              	.Ldebug_abbrev0:
 1646 0000 01       		.uleb128 0x1
 1647 0001 11       		.uleb128 0x11
 1648 0002 01       		.byte	0x1
 1649 0003 25       		.uleb128 0x25
 1650 0004 0E       		.uleb128 0xe
 1651 0005 13       		.uleb128 0x13
 1652 0006 0B       		.uleb128 0xb
 1653 0007 03       		.uleb128 0x3
ARM GAS  C:\Users\danit\AppData\Local\Temp\cckpmUMk.s 			page 30


 1654 0008 0E       		.uleb128 0xe
 1655 0009 1B       		.uleb128 0x1b
 1656 000a 0E       		.uleb128 0xe
 1657 000b 55       		.uleb128 0x55
 1658 000c 17       		.uleb128 0x17
 1659 000d 11       		.uleb128 0x11
 1660 000e 01       		.uleb128 0x1
 1661 000f 10       		.uleb128 0x10
 1662 0010 17       		.uleb128 0x17
 1663 0011 00       		.byte	0
 1664 0012 00       		.byte	0
 1665 0013 02       		.uleb128 0x2
 1666 0014 24       		.uleb128 0x24
 1667 0015 00       		.byte	0
 1668 0016 0B       		.uleb128 0xb
 1669 0017 0B       		.uleb128 0xb
 1670 0018 3E       		.uleb128 0x3e
 1671 0019 0B       		.uleb128 0xb
 1672 001a 03       		.uleb128 0x3
 1673 001b 0E       		.uleb128 0xe
 1674 001c 00       		.byte	0
 1675 001d 00       		.byte	0
 1676 001e 03       		.uleb128 0x3
 1677 001f 24       		.uleb128 0x24
 1678 0020 00       		.byte	0
 1679 0021 0B       		.uleb128 0xb
 1680 0022 0B       		.uleb128 0xb
 1681 0023 3E       		.uleb128 0x3e
 1682 0024 0B       		.uleb128 0xb
 1683 0025 03       		.uleb128 0x3
 1684 0026 08       		.uleb128 0x8
 1685 0027 00       		.byte	0
 1686 0028 00       		.byte	0
 1687 0029 04       		.uleb128 0x4
 1688 002a 16       		.uleb128 0x16
 1689 002b 00       		.byte	0
 1690 002c 03       		.uleb128 0x3
 1691 002d 0E       		.uleb128 0xe
 1692 002e 3A       		.uleb128 0x3a
 1693 002f 0B       		.uleb128 0xb
 1694 0030 3B       		.uleb128 0x3b
 1695 0031 0B       		.uleb128 0xb
 1696 0032 49       		.uleb128 0x49
 1697 0033 13       		.uleb128 0x13
 1698 0034 00       		.byte	0
 1699 0035 00       		.byte	0
 1700 0036 05       		.uleb128 0x5
 1701 0037 13       		.uleb128 0x13
 1702 0038 01       		.byte	0x1
 1703 0039 03       		.uleb128 0x3
 1704 003a 08       		.uleb128 0x8
 1705 003b 0B       		.uleb128 0xb
 1706 003c 0B       		.uleb128 0xb
 1707 003d 3A       		.uleb128 0x3a
 1708 003e 0B       		.uleb128 0xb
 1709 003f 3B       		.uleb128 0x3b
 1710 0040 0B       		.uleb128 0xb
ARM GAS  C:\Users\danit\AppData\Local\Temp\cckpmUMk.s 			page 31


 1711 0041 01       		.uleb128 0x1
 1712 0042 13       		.uleb128 0x13
 1713 0043 00       		.byte	0
 1714 0044 00       		.byte	0
 1715 0045 06       		.uleb128 0x6
 1716 0046 0D       		.uleb128 0xd
 1717 0047 00       		.byte	0
 1718 0048 03       		.uleb128 0x3
 1719 0049 0E       		.uleb128 0xe
 1720 004a 3A       		.uleb128 0x3a
 1721 004b 0B       		.uleb128 0xb
 1722 004c 3B       		.uleb128 0x3b
 1723 004d 0B       		.uleb128 0xb
 1724 004e 49       		.uleb128 0x49
 1725 004f 13       		.uleb128 0x13
 1726 0050 38       		.uleb128 0x38
 1727 0051 0B       		.uleb128 0xb
 1728 0052 00       		.byte	0
 1729 0053 00       		.byte	0
 1730 0054 07       		.uleb128 0x7
 1731 0055 35       		.uleb128 0x35
 1732 0056 00       		.byte	0
 1733 0057 49       		.uleb128 0x49
 1734 0058 13       		.uleb128 0x13
 1735 0059 00       		.byte	0
 1736 005a 00       		.byte	0
 1737 005b 08       		.uleb128 0x8
 1738 005c 13       		.uleb128 0x13
 1739 005d 01       		.byte	0x1
 1740 005e 0B       		.uleb128 0xb
 1741 005f 0B       		.uleb128 0xb
 1742 0060 3A       		.uleb128 0x3a
 1743 0061 0B       		.uleb128 0xb
 1744 0062 3B       		.uleb128 0x3b
 1745 0063 05       		.uleb128 0x5
 1746 0064 01       		.uleb128 0x1
 1747 0065 13       		.uleb128 0x13
 1748 0066 00       		.byte	0
 1749 0067 00       		.byte	0
 1750 0068 09       		.uleb128 0x9
 1751 0069 0D       		.uleb128 0xd
 1752 006a 00       		.byte	0
 1753 006b 03       		.uleb128 0x3
 1754 006c 08       		.uleb128 0x8
 1755 006d 3A       		.uleb128 0x3a
 1756 006e 0B       		.uleb128 0xb
 1757 006f 3B       		.uleb128 0x3b
 1758 0070 05       		.uleb128 0x5
 1759 0071 49       		.uleb128 0x49
 1760 0072 13       		.uleb128 0x13
 1761 0073 38       		.uleb128 0x38
 1762 0074 0B       		.uleb128 0xb
 1763 0075 00       		.byte	0
 1764 0076 00       		.byte	0
 1765 0077 0A       		.uleb128 0xa
 1766 0078 0D       		.uleb128 0xd
 1767 0079 00       		.byte	0
ARM GAS  C:\Users\danit\AppData\Local\Temp\cckpmUMk.s 			page 32


 1768 007a 03       		.uleb128 0x3
 1769 007b 0E       		.uleb128 0xe
 1770 007c 3A       		.uleb128 0x3a
 1771 007d 0B       		.uleb128 0xb
 1772 007e 3B       		.uleb128 0x3b
 1773 007f 05       		.uleb128 0x5
 1774 0080 49       		.uleb128 0x49
 1775 0081 13       		.uleb128 0x13
 1776 0082 38       		.uleb128 0x38
 1777 0083 0B       		.uleb128 0xb
 1778 0084 00       		.byte	0
 1779 0085 00       		.byte	0
 1780 0086 0B       		.uleb128 0xb
 1781 0087 16       		.uleb128 0x16
 1782 0088 00       		.byte	0
 1783 0089 03       		.uleb128 0x3
 1784 008a 0E       		.uleb128 0xe
 1785 008b 3A       		.uleb128 0x3a
 1786 008c 0B       		.uleb128 0xb
 1787 008d 3B       		.uleb128 0x3b
 1788 008e 05       		.uleb128 0x5
 1789 008f 49       		.uleb128 0x49
 1790 0090 13       		.uleb128 0x13
 1791 0091 00       		.byte	0
 1792 0092 00       		.byte	0
 1793 0093 0C       		.uleb128 0xc
 1794 0094 13       		.uleb128 0x13
 1795 0095 01       		.byte	0x1
 1796 0096 03       		.uleb128 0x3
 1797 0097 0E       		.uleb128 0xe
 1798 0098 0B       		.uleb128 0xb
 1799 0099 0B       		.uleb128 0xb
 1800 009a 3A       		.uleb128 0x3a
 1801 009b 0B       		.uleb128 0xb
 1802 009c 3B       		.uleb128 0x3b
 1803 009d 0B       		.uleb128 0xb
 1804 009e 01       		.uleb128 0x1
 1805 009f 13       		.uleb128 0x13
 1806 00a0 00       		.byte	0
 1807 00a1 00       		.byte	0
 1808 00a2 0D       		.uleb128 0xd
 1809 00a3 0D       		.uleb128 0xd
 1810 00a4 00       		.byte	0
 1811 00a5 03       		.uleb128 0x3
 1812 00a6 08       		.uleb128 0x8
 1813 00a7 3A       		.uleb128 0x3a
 1814 00a8 0B       		.uleb128 0xb
 1815 00a9 3B       		.uleb128 0x3b
 1816 00aa 0B       		.uleb128 0xb
 1817 00ab 49       		.uleb128 0x49
 1818 00ac 13       		.uleb128 0x13
 1819 00ad 38       		.uleb128 0x38
 1820 00ae 0B       		.uleb128 0xb
 1821 00af 00       		.byte	0
 1822 00b0 00       		.byte	0
 1823 00b1 0E       		.uleb128 0xe
 1824 00b2 0F       		.uleb128 0xf
ARM GAS  C:\Users\danit\AppData\Local\Temp\cckpmUMk.s 			page 33


 1825 00b3 00       		.byte	0
 1826 00b4 0B       		.uleb128 0xb
 1827 00b5 0B       		.uleb128 0xb
 1828 00b6 49       		.uleb128 0x49
 1829 00b7 13       		.uleb128 0x13
 1830 00b8 00       		.byte	0
 1831 00b9 00       		.byte	0
 1832 00ba 0F       		.uleb128 0xf
 1833 00bb 2E       		.uleb128 0x2e
 1834 00bc 01       		.byte	0x1
 1835 00bd 03       		.uleb128 0x3
 1836 00be 0E       		.uleb128 0xe
 1837 00bf 3A       		.uleb128 0x3a
 1838 00c0 0B       		.uleb128 0xb
 1839 00c1 3B       		.uleb128 0x3b
 1840 00c2 0B       		.uleb128 0xb
 1841 00c3 27       		.uleb128 0x27
 1842 00c4 19       		.uleb128 0x19
 1843 00c5 20       		.uleb128 0x20
 1844 00c6 0B       		.uleb128 0xb
 1845 00c7 01       		.uleb128 0x1
 1846 00c8 13       		.uleb128 0x13
 1847 00c9 00       		.byte	0
 1848 00ca 00       		.byte	0
 1849 00cb 10       		.uleb128 0x10
 1850 00cc 05       		.uleb128 0x5
 1851 00cd 00       		.byte	0
 1852 00ce 03       		.uleb128 0x3
 1853 00cf 0E       		.uleb128 0xe
 1854 00d0 3A       		.uleb128 0x3a
 1855 00d1 0B       		.uleb128 0xb
 1856 00d2 3B       		.uleb128 0x3b
 1857 00d3 0B       		.uleb128 0xb
 1858 00d4 49       		.uleb128 0x49
 1859 00d5 13       		.uleb128 0x13
 1860 00d6 00       		.byte	0
 1861 00d7 00       		.byte	0
 1862 00d8 11       		.uleb128 0x11
 1863 00d9 34       		.uleb128 0x34
 1864 00da 00       		.byte	0
 1865 00db 03       		.uleb128 0x3
 1866 00dc 0E       		.uleb128 0xe
 1867 00dd 3A       		.uleb128 0x3a
 1868 00de 0B       		.uleb128 0xb
 1869 00df 3B       		.uleb128 0x3b
 1870 00e0 0B       		.uleb128 0xb
 1871 00e1 49       		.uleb128 0x49
 1872 00e2 13       		.uleb128 0x13
 1873 00e3 00       		.byte	0
 1874 00e4 00       		.byte	0
 1875 00e5 12       		.uleb128 0x12
 1876 00e6 34       		.uleb128 0x34
 1877 00e7 00       		.byte	0
 1878 00e8 03       		.uleb128 0x3
 1879 00e9 08       		.uleb128 0x8
 1880 00ea 3A       		.uleb128 0x3a
 1881 00eb 0B       		.uleb128 0xb
ARM GAS  C:\Users\danit\AppData\Local\Temp\cckpmUMk.s 			page 34


 1882 00ec 3B       		.uleb128 0x3b
 1883 00ed 0B       		.uleb128 0xb
 1884 00ee 49       		.uleb128 0x49
 1885 00ef 13       		.uleb128 0x13
 1886 00f0 00       		.byte	0
 1887 00f1 00       		.byte	0
 1888 00f2 13       		.uleb128 0x13
 1889 00f3 2E       		.uleb128 0x2e
 1890 00f4 01       		.byte	0x1
 1891 00f5 31       		.uleb128 0x31
 1892 00f6 13       		.uleb128 0x13
 1893 00f7 11       		.uleb128 0x11
 1894 00f8 01       		.uleb128 0x1
 1895 00f9 12       		.uleb128 0x12
 1896 00fa 06       		.uleb128 0x6
 1897 00fb 40       		.uleb128 0x40
 1898 00fc 18       		.uleb128 0x18
 1899 00fd 9742     		.uleb128 0x2117
 1900 00ff 19       		.uleb128 0x19
 1901 0100 01       		.uleb128 0x1
 1902 0101 13       		.uleb128 0x13
 1903 0102 00       		.byte	0
 1904 0103 00       		.byte	0
 1905 0104 14       		.uleb128 0x14
 1906 0105 05       		.uleb128 0x5
 1907 0106 00       		.byte	0
 1908 0107 31       		.uleb128 0x31
 1909 0108 13       		.uleb128 0x13
 1910 0109 02       		.uleb128 0x2
 1911 010a 18       		.uleb128 0x18
 1912 010b 00       		.byte	0
 1913 010c 00       		.byte	0
 1914 010d 15       		.uleb128 0x15
 1915 010e 34       		.uleb128 0x34
 1916 010f 00       		.byte	0
 1917 0110 31       		.uleb128 0x31
 1918 0111 13       		.uleb128 0x13
 1919 0112 02       		.uleb128 0x2
 1920 0113 17       		.uleb128 0x17
 1921 0114 00       		.byte	0
 1922 0115 00       		.byte	0
 1923 0116 16       		.uleb128 0x16
 1924 0117 05       		.uleb128 0x5
 1925 0118 00       		.byte	0
 1926 0119 31       		.uleb128 0x31
 1927 011a 13       		.uleb128 0x13
 1928 011b 02       		.uleb128 0x2
 1929 011c 17       		.uleb128 0x17
 1930 011d 00       		.byte	0
 1931 011e 00       		.byte	0
 1932 011f 17       		.uleb128 0x17
 1933 0120 2E       		.uleb128 0x2e
 1934 0121 01       		.byte	0x1
 1935 0122 3F       		.uleb128 0x3f
 1936 0123 19       		.uleb128 0x19
 1937 0124 03       		.uleb128 0x3
 1938 0125 0E       		.uleb128 0xe
ARM GAS  C:\Users\danit\AppData\Local\Temp\cckpmUMk.s 			page 35


 1939 0126 3A       		.uleb128 0x3a
 1940 0127 0B       		.uleb128 0xb
 1941 0128 3B       		.uleb128 0x3b
 1942 0129 0B       		.uleb128 0xb
 1943 012a 27       		.uleb128 0x27
 1944 012b 19       		.uleb128 0x19
 1945 012c 11       		.uleb128 0x11
 1946 012d 01       		.uleb128 0x1
 1947 012e 12       		.uleb128 0x12
 1948 012f 06       		.uleb128 0x6
 1949 0130 40       		.uleb128 0x40
 1950 0131 18       		.uleb128 0x18
 1951 0132 9742     		.uleb128 0x2117
 1952 0134 19       		.uleb128 0x19
 1953 0135 01       		.uleb128 0x1
 1954 0136 13       		.uleb128 0x13
 1955 0137 00       		.byte	0
 1956 0138 00       		.byte	0
 1957 0139 18       		.uleb128 0x18
 1958 013a 05       		.uleb128 0x5
 1959 013b 00       		.byte	0
 1960 013c 03       		.uleb128 0x3
 1961 013d 0E       		.uleb128 0xe
 1962 013e 3A       		.uleb128 0x3a
 1963 013f 0B       		.uleb128 0xb
 1964 0140 3B       		.uleb128 0x3b
 1965 0141 0B       		.uleb128 0xb
 1966 0142 49       		.uleb128 0x49
 1967 0143 13       		.uleb128 0x13
 1968 0144 02       		.uleb128 0x2
 1969 0145 17       		.uleb128 0x17
 1970 0146 00       		.byte	0
 1971 0147 00       		.byte	0
 1972 0148 19       		.uleb128 0x19
 1973 0149 34       		.uleb128 0x34
 1974 014a 00       		.byte	0
 1975 014b 03       		.uleb128 0x3
 1976 014c 0E       		.uleb128 0xe
 1977 014d 3A       		.uleb128 0x3a
 1978 014e 0B       		.uleb128 0xb
 1979 014f 3B       		.uleb128 0x3b
 1980 0150 0B       		.uleb128 0xb
 1981 0151 49       		.uleb128 0x49
 1982 0152 13       		.uleb128 0x13
 1983 0153 02       		.uleb128 0x2
 1984 0154 18       		.uleb128 0x18
 1985 0155 00       		.byte	0
 1986 0156 00       		.byte	0
 1987 0157 1A       		.uleb128 0x1a
 1988 0158 898201   		.uleb128 0x4109
 1989 015b 01       		.byte	0x1
 1990 015c 11       		.uleb128 0x11
 1991 015d 01       		.uleb128 0x1
 1992 015e 31       		.uleb128 0x31
 1993 015f 13       		.uleb128 0x13
 1994 0160 01       		.uleb128 0x1
 1995 0161 13       		.uleb128 0x13
ARM GAS  C:\Users\danit\AppData\Local\Temp\cckpmUMk.s 			page 36


 1996 0162 00       		.byte	0
 1997 0163 00       		.byte	0
 1998 0164 1B       		.uleb128 0x1b
 1999 0165 8A8201   		.uleb128 0x410a
 2000 0168 00       		.byte	0
 2001 0169 02       		.uleb128 0x2
 2002 016a 18       		.uleb128 0x18
 2003 016b 9142     		.uleb128 0x2111
 2004 016d 18       		.uleb128 0x18
 2005 016e 00       		.byte	0
 2006 016f 00       		.byte	0
 2007 0170 1C       		.uleb128 0x1c
 2008 0171 898201   		.uleb128 0x4109
 2009 0174 01       		.byte	0x1
 2010 0175 11       		.uleb128 0x11
 2011 0176 01       		.uleb128 0x1
 2012 0177 31       		.uleb128 0x31
 2013 0178 13       		.uleb128 0x13
 2014 0179 00       		.byte	0
 2015 017a 00       		.byte	0
 2016 017b 1D       		.uleb128 0x1d
 2017 017c 8A8201   		.uleb128 0x410a
 2018 017f 00       		.byte	0
 2019 0180 31       		.uleb128 0x31
 2020 0181 13       		.uleb128 0x13
 2021 0182 9142     		.uleb128 0x2111
 2022 0184 18       		.uleb128 0x18
 2023 0185 00       		.byte	0
 2024 0186 00       		.byte	0
 2025 0187 1E       		.uleb128 0x1e
 2026 0188 2E       		.uleb128 0x2e
 2027 0189 01       		.byte	0x1
 2028 018a 3F       		.uleb128 0x3f
 2029 018b 19       		.uleb128 0x19
 2030 018c 03       		.uleb128 0x3
 2031 018d 0E       		.uleb128 0xe
 2032 018e 3A       		.uleb128 0x3a
 2033 018f 0B       		.uleb128 0xb
 2034 0190 3B       		.uleb128 0x3b
 2035 0191 0B       		.uleb128 0xb
 2036 0192 27       		.uleb128 0x27
 2037 0193 19       		.uleb128 0x19
 2038 0194 49       		.uleb128 0x49
 2039 0195 13       		.uleb128 0x13
 2040 0196 11       		.uleb128 0x11
 2041 0197 01       		.uleb128 0x1
 2042 0198 12       		.uleb128 0x12
 2043 0199 06       		.uleb128 0x6
 2044 019a 40       		.uleb128 0x40
 2045 019b 18       		.uleb128 0x18
 2046 019c 9742     		.uleb128 0x2117
 2047 019e 19       		.uleb128 0x19
 2048 019f 01       		.uleb128 0x1
 2049 01a0 13       		.uleb128 0x13
 2050 01a1 00       		.byte	0
 2051 01a2 00       		.byte	0
 2052 01a3 1F       		.uleb128 0x1f
ARM GAS  C:\Users\danit\AppData\Local\Temp\cckpmUMk.s 			page 37


 2053 01a4 34       		.uleb128 0x34
 2054 01a5 00       		.byte	0
 2055 01a6 03       		.uleb128 0x3
 2056 01a7 0E       		.uleb128 0xe
 2057 01a8 3A       		.uleb128 0x3a
 2058 01a9 0B       		.uleb128 0xb
 2059 01aa 3B       		.uleb128 0x3b
 2060 01ab 0B       		.uleb128 0xb
 2061 01ac 49       		.uleb128 0x49
 2062 01ad 13       		.uleb128 0x13
 2063 01ae 02       		.uleb128 0x2
 2064 01af 17       		.uleb128 0x17
 2065 01b0 00       		.byte	0
 2066 01b1 00       		.byte	0
 2067 01b2 20       		.uleb128 0x20
 2068 01b3 34       		.uleb128 0x34
 2069 01b4 00       		.byte	0
 2070 01b5 03       		.uleb128 0x3
 2071 01b6 0E       		.uleb128 0xe
 2072 01b7 3A       		.uleb128 0x3a
 2073 01b8 0B       		.uleb128 0xb
 2074 01b9 3B       		.uleb128 0x3b
 2075 01ba 05       		.uleb128 0x5
 2076 01bb 49       		.uleb128 0x49
 2077 01bc 13       		.uleb128 0x13
 2078 01bd 3F       		.uleb128 0x3f
 2079 01be 19       		.uleb128 0x19
 2080 01bf 3C       		.uleb128 0x3c
 2081 01c0 19       		.uleb128 0x19
 2082 01c1 00       		.byte	0
 2083 01c2 00       		.byte	0
 2084 01c3 21       		.uleb128 0x21
 2085 01c4 2E       		.uleb128 0x2e
 2086 01c5 01       		.byte	0x1
 2087 01c6 3F       		.uleb128 0x3f
 2088 01c7 19       		.uleb128 0x19
 2089 01c8 03       		.uleb128 0x3
 2090 01c9 0E       		.uleb128 0xe
 2091 01ca 3A       		.uleb128 0x3a
 2092 01cb 0B       		.uleb128 0xb
 2093 01cc 3B       		.uleb128 0x3b
 2094 01cd 0B       		.uleb128 0xb
 2095 01ce 27       		.uleb128 0x27
 2096 01cf 19       		.uleb128 0x19
 2097 01d0 3C       		.uleb128 0x3c
 2098 01d1 19       		.uleb128 0x19
 2099 01d2 01       		.uleb128 0x1
 2100 01d3 13       		.uleb128 0x13
 2101 01d4 00       		.byte	0
 2102 01d5 00       		.byte	0
 2103 01d6 22       		.uleb128 0x22
 2104 01d7 05       		.uleb128 0x5
 2105 01d8 00       		.byte	0
 2106 01d9 49       		.uleb128 0x49
 2107 01da 13       		.uleb128 0x13
 2108 01db 00       		.byte	0
 2109 01dc 00       		.byte	0
ARM GAS  C:\Users\danit\AppData\Local\Temp\cckpmUMk.s 			page 38


 2110 01dd 23       		.uleb128 0x23
 2111 01de 26       		.uleb128 0x26
 2112 01df 00       		.byte	0
 2113 01e0 49       		.uleb128 0x49
 2114 01e1 13       		.uleb128 0x13
 2115 01e2 00       		.byte	0
 2116 01e3 00       		.byte	0
 2117 01e4 24       		.uleb128 0x24
 2118 01e5 2E       		.uleb128 0x2e
 2119 01e6 01       		.byte	0x1
 2120 01e7 3F       		.uleb128 0x3f
 2121 01e8 19       		.uleb128 0x19
 2122 01e9 03       		.uleb128 0x3
 2123 01ea 0E       		.uleb128 0xe
 2124 01eb 3A       		.uleb128 0x3a
 2125 01ec 0B       		.uleb128 0xb
 2126 01ed 3B       		.uleb128 0x3b
 2127 01ee 0B       		.uleb128 0xb
 2128 01ef 27       		.uleb128 0x27
 2129 01f0 19       		.uleb128 0x19
 2130 01f1 49       		.uleb128 0x49
 2131 01f2 13       		.uleb128 0x13
 2132 01f3 3C       		.uleb128 0x3c
 2133 01f4 19       		.uleb128 0x19
 2134 01f5 01       		.uleb128 0x1
 2135 01f6 13       		.uleb128 0x13
 2136 01f7 00       		.byte	0
 2137 01f8 00       		.byte	0
 2138 01f9 00       		.byte	0
 2139              		.section	.debug_loc,"",%progbits
 2140              	.Ldebug_loc0:
 2141              	.LLST0:
 2142 0000 04000000 		.4byte	.LVL1
 2143 0004 76000000 		.4byte	.LVL3
 2144 0008 0100     		.2byte	0x1
 2145 000a 52       		.byte	0x52
 2146 000b 00000000 		.4byte	0
 2147 000f 00000000 		.4byte	0
 2148              	.LLST1:
 2149 0013 04000000 		.4byte	.LVL1
 2150 0017 6E000000 		.4byte	.LVL2
 2151 001b 0100     		.2byte	0x1
 2152 001d 51       		.byte	0x51
 2153 001e 00000000 		.4byte	0
 2154 0022 00000000 		.4byte	0
 2155              	.LLST2:
 2156 0026 00000000 		.4byte	.LVL4
 2157 002a 52000000 		.4byte	.LVL11
 2158 002e 0100     		.2byte	0x1
 2159 0030 50       		.byte	0x50
 2160 0031 52000000 		.4byte	.LVL11
 2161 0035 E8000000 		.4byte	.LVL13
 2162 0039 0400     		.2byte	0x4
 2163 003b F3       		.byte	0xf3
 2164 003c 01       		.uleb128 0x1
 2165 003d 50       		.byte	0x50
 2166 003e 9F       		.byte	0x9f
ARM GAS  C:\Users\danit\AppData\Local\Temp\cckpmUMk.s 			page 39


 2167 003f E8000000 		.4byte	.LVL13
 2168 0043 F4000000 		.4byte	.LFE126
 2169 0047 0100     		.2byte	0x1
 2170 0049 50       		.byte	0x50
 2171 004a 00000000 		.4byte	0
 2172 004e 00000000 		.4byte	0
 2173              	.LLST3:
 2174 0052 00000000 		.4byte	.LVL4
 2175 0056 0C000000 		.4byte	.LVL5
 2176 005a 0200     		.2byte	0x2
 2177 005c 30       		.byte	0x30
 2178 005d 9F       		.byte	0x9f
 2179 005e 0C000000 		.4byte	.LVL5
 2180 0062 24000000 		.4byte	.LVL6
 2181 0066 0100     		.2byte	0x1
 2182 0068 53       		.byte	0x53
 2183 0069 24000000 		.4byte	.LVL6
 2184 006d 32000000 		.4byte	.LVL7
 2185 0071 0700     		.2byte	0x7
 2186 0073 70       		.byte	0x70
 2187 0074 14       		.sleb128 20
 2188 0075 06       		.byte	0x6
 2189 0076 08       		.byte	0x8
 2190 0077 64       		.byte	0x64
 2191 0078 1C       		.byte	0x1c
 2192 0079 9F       		.byte	0x9f
 2193 007a 32000000 		.4byte	.LVL7
 2194 007e 34000000 		.4byte	.LVL8
 2195 0082 0100     		.2byte	0x1
 2196 0084 55       		.byte	0x55
 2197 0085 34000000 		.4byte	.LVL8
 2198 0089 38000000 		.4byte	.LVL9
 2199 008d 0200     		.2byte	0x2
 2200 008f 70       		.byte	0x70
 2201 0090 18       		.sleb128 24
 2202 0091 4E000000 		.4byte	.LVL10
 2203 0095 B0000000 		.4byte	.LVL12
 2204 0099 0100     		.2byte	0x1
 2205 009b 58       		.byte	0x58
 2206 009c B0000000 		.4byte	.LVL12
 2207 00a0 E8000000 		.4byte	.LVL13
 2208 00a4 0300     		.2byte	0x3
 2209 00a6 F3       		.byte	0xf3
 2210 00a7 01       		.uleb128 0x1
 2211 00a8 50       		.byte	0x50
 2212 00a9 E8000000 		.4byte	.LVL13
 2213 00ad F4000000 		.4byte	.LFE126
 2214 00b1 0700     		.2byte	0x7
 2215 00b3 70       		.byte	0x70
 2216 00b4 14       		.sleb128 20
 2217 00b5 06       		.byte	0x6
 2218 00b6 08       		.byte	0x8
 2219 00b7 64       		.byte	0x64
 2220 00b8 1C       		.byte	0x1c
 2221 00b9 9F       		.byte	0x9f
 2222 00ba 00000000 		.4byte	0
 2223 00be 00000000 		.4byte	0
ARM GAS  C:\Users\danit\AppData\Local\Temp\cckpmUMk.s 			page 40


 2224              	.LLST4:
 2225 00c2 00000000 		.4byte	.LVL14
 2226 00c6 17000000 		.4byte	.LVL16-1
 2227 00ca 0100     		.2byte	0x1
 2228 00cc 50       		.byte	0x50
 2229 00cd 17000000 		.4byte	.LVL16-1
 2230 00d1 26000000 		.4byte	.LFE120
 2231 00d5 0400     		.2byte	0x4
 2232 00d7 F3       		.byte	0xf3
 2233 00d8 01       		.uleb128 0x1
 2234 00d9 50       		.byte	0x50
 2235 00da 9F       		.byte	0x9f
 2236 00db 00000000 		.4byte	0
 2237 00df 00000000 		.4byte	0
 2238              	.LLST5:
 2239 00e3 00000000 		.4byte	.LVL14
 2240 00e7 0A000000 		.4byte	.LVL15
 2241 00eb 0100     		.2byte	0x1
 2242 00ed 51       		.byte	0x51
 2243 00ee 0A000000 		.4byte	.LVL15
 2244 00f2 26000000 		.4byte	.LFE120
 2245 00f6 0100     		.2byte	0x1
 2246 00f8 54       		.byte	0x54
 2247 00f9 00000000 		.4byte	0
 2248 00fd 00000000 		.4byte	0
 2249              	.LLST6:
 2250 0101 00000000 		.4byte	.LVL18
 2251 0105 0C000000 		.4byte	.LVL19
 2252 0109 0100     		.2byte	0x1
 2253 010b 50       		.byte	0x50
 2254 010c 0C000000 		.4byte	.LVL19
 2255 0110 28000000 		.4byte	.LFE121
 2256 0114 0100     		.2byte	0x1
 2257 0116 54       		.byte	0x54
 2258 0117 00000000 		.4byte	0
 2259 011b 00000000 		.4byte	0
 2260              	.LLST7:
 2261 011f 00000000 		.4byte	.LVL18
 2262 0123 0E000000 		.4byte	.LVL20
 2263 0127 0100     		.2byte	0x1
 2264 0129 51       		.byte	0x51
 2265 012a 0E000000 		.4byte	.LVL20
 2266 012e 1B000000 		.4byte	.LVL21-1
 2267 0132 0100     		.2byte	0x1
 2268 0134 50       		.byte	0x50
 2269 0135 1B000000 		.4byte	.LVL21-1
 2270 0139 28000000 		.4byte	.LFE121
 2271 013d 0400     		.2byte	0x4
 2272 013f F3       		.byte	0xf3
 2273 0140 01       		.uleb128 0x1
 2274 0141 51       		.byte	0x51
 2275 0142 9F       		.byte	0x9f
 2276 0143 00000000 		.4byte	0
 2277 0147 00000000 		.4byte	0
 2278              	.LLST8:
 2279 014b 00000000 		.4byte	.LVL23
 2280 014f 15000000 		.4byte	.LVL24-1
ARM GAS  C:\Users\danit\AppData\Local\Temp\cckpmUMk.s 			page 41


 2281 0153 0100     		.2byte	0x1
 2282 0155 50       		.byte	0x50
 2283 0156 15000000 		.4byte	.LVL24-1
 2284 015a 2C000000 		.4byte	.LFE122
 2285 015e 0400     		.2byte	0x4
 2286 0160 F3       		.byte	0xf3
 2287 0161 01       		.uleb128 0x1
 2288 0162 50       		.byte	0x50
 2289 0163 9F       		.byte	0x9f
 2290 0164 00000000 		.4byte	0
 2291 0168 00000000 		.4byte	0
 2292              	.LLST9:
 2293 016c 00000000 		.4byte	.LVL27
 2294 0170 0C000000 		.4byte	.LVL28
 2295 0174 0100     		.2byte	0x1
 2296 0176 50       		.byte	0x50
 2297 0177 0C000000 		.4byte	.LVL28
 2298 017b 32000000 		.4byte	.LFE123
 2299 017f 0100     		.2byte	0x1
 2300 0181 54       		.byte	0x54
 2301 0182 00000000 		.4byte	0
 2302 0186 00000000 		.4byte	0
 2303              	.LLST10:
 2304 018a 00000000 		.4byte	.LVL27
 2305 018e 0E000000 		.4byte	.LVL29
 2306 0192 0100     		.2byte	0x1
 2307 0194 51       		.byte	0x51
 2308 0195 0E000000 		.4byte	.LVL29
 2309 0199 1B000000 		.4byte	.LVL30-1
 2310 019d 0200     		.2byte	0x2
 2311 019f 70       		.byte	0x70
 2312 01a0 00       		.sleb128 0
 2313 01a1 1B000000 		.4byte	.LVL30-1
 2314 01a5 32000000 		.4byte	.LFE123
 2315 01a9 0300     		.2byte	0x3
 2316 01ab 91       		.byte	0x91
 2317 01ac BC7F     		.sleb128 -68
 2318 01ae 00000000 		.4byte	0
 2319 01b2 00000000 		.4byte	0
 2320              	.LLST11:
 2321 01b6 00000000 		.4byte	.LVL33
 2322 01ba 15000000 		.4byte	.LVL34-1
 2323 01be 0100     		.2byte	0x1
 2324 01c0 50       		.byte	0x50
 2325 01c1 15000000 		.4byte	.LVL34-1
 2326 01c5 48000000 		.4byte	.LFE124
 2327 01c9 0400     		.2byte	0x4
 2328 01cb F3       		.byte	0xf3
 2329 01cc 01       		.uleb128 0x1
 2330 01cd 50       		.byte	0x50
 2331 01ce 9F       		.byte	0x9f
 2332 01cf 00000000 		.4byte	0
 2333 01d3 00000000 		.4byte	0
 2334              	.LLST12:
 2335 01d7 00000000 		.4byte	.LVL33
 2336 01db 26000000 		.4byte	.LVL36
 2337 01df 0A00     		.2byte	0xa
ARM GAS  C:\Users\danit\AppData\Local\Temp\cckpmUMk.s 			page 42


 2338 01e1 9E       		.byte	0x9e
 2339 01e2 08       		.uleb128 0x8
 2340 01e3 00000000 		.8byte	0
 2340      00000000 
 2341 01eb 26000000 		.4byte	.LVL36
 2342 01ef 3A000000 		.4byte	.LVL37
 2343 01f3 0F00     		.2byte	0xf
 2344 01f5 70       		.byte	0x70
 2345 01f6 00       		.sleb128 0
 2346 01f7 F7       		.byte	0xf7
 2347 01f8 2C       		.uleb128 0x2c
 2348 01f9 F7       		.byte	0xf7
 2349 01fa 25       		.uleb128 0x25
 2350 01fb 0C       		.byte	0xc
 2351 01fc 40420F00 		.4byte	0xf4240
 2352 0200 F7       		.byte	0xf7
 2353 0201 25       		.uleb128 0x25
 2354 0202 1E       		.byte	0x1e
 2355 0203 9F       		.byte	0x9f
 2356 0204 00000000 		.4byte	0
 2357 0208 00000000 		.4byte	0
 2358              		.section	.debug_aranges,"",%progbits
 2359 0000 4C000000 		.4byte	0x4c
 2360 0004 0200     		.2byte	0x2
 2361 0006 00000000 		.4byte	.Ldebug_info0
 2362 000a 04       		.byte	0x4
 2363 000b 00       		.byte	0
 2364 000c 0000     		.2byte	0
 2365 000e 0000     		.2byte	0
 2366 0010 00000000 		.4byte	.LFB125
 2367 0014 98000000 		.4byte	.LFE125-.LFB125
 2368 0018 00000000 		.4byte	.LFB126
 2369 001c F4000000 		.4byte	.LFE126-.LFB126
 2370 0020 00000000 		.4byte	.LFB120
 2371 0024 26000000 		.4byte	.LFE120-.LFB120
 2372 0028 00000000 		.4byte	.LFB121
 2373 002c 28000000 		.4byte	.LFE121-.LFB121
 2374 0030 00000000 		.4byte	.LFB122
 2375 0034 2C000000 		.4byte	.LFE122-.LFB122
 2376 0038 00000000 		.4byte	.LFB123
 2377 003c 32000000 		.4byte	.LFE123-.LFB123
 2378 0040 00000000 		.4byte	.LFB124
 2379 0044 48000000 		.4byte	.LFE124-.LFB124
 2380 0048 00000000 		.4byte	0
 2381 004c 00000000 		.4byte	0
 2382              		.section	.debug_ranges,"",%progbits
 2383              	.Ldebug_ranges0:
 2384 0000 00000000 		.4byte	.LFB125
 2385 0004 98000000 		.4byte	.LFE125
 2386 0008 00000000 		.4byte	.LFB126
 2387 000c F4000000 		.4byte	.LFE126
 2388 0010 00000000 		.4byte	.LFB120
 2389 0014 26000000 		.4byte	.LFE120
 2390 0018 00000000 		.4byte	.LFB121
 2391 001c 28000000 		.4byte	.LFE121
 2392 0020 00000000 		.4byte	.LFB122
 2393 0024 2C000000 		.4byte	.LFE122
ARM GAS  C:\Users\danit\AppData\Local\Temp\cckpmUMk.s 			page 43


 2394 0028 00000000 		.4byte	.LFB123
 2395 002c 32000000 		.4byte	.LFE123
 2396 0030 00000000 		.4byte	.LFB124
 2397 0034 48000000 		.4byte	.LFE124
 2398 0038 00000000 		.4byte	0
 2399 003c 00000000 		.4byte	0
 2400              		.section	.debug_line,"",%progbits
 2401              	.Ldebug_line0:
 2402 0000 E0030000 		.section	.debug_str,"MS",%progbits,1
 2402      02008102 
 2402      00000201 
 2402      FB0E0D00 
 2402      01010101 
 2403              	.LASF21:
 2404 0000 746D5F6D 		.ascii	"tm_mday\000"
 2404      64617900 
 2405              	.LASF81:
 2406 0008 72657375 		.ascii	"result\000"
 2406      6C7400
 2407              	.LASF45:
 2408 000f 424B5032 		.ascii	"BKP2R\000"
 2408      5200
 2409              	.LASF11:
 2410 0015 5F5F7569 		.ascii	"__uint64_t\000"
 2410      6E743634 
 2410      5F7400
 2411              	.LASF78:
 2412 0020 74765F73 		.ascii	"tv_sec\000"
 2412      656300
 2413              	.LASF16:
 2414 0027 75696E74 		.ascii	"uint64_t\000"
 2414      36345F74 
 2414      00
 2415              	.LASF4:
 2416 0030 73686F72 		.ascii	"short int\000"
 2416      7420696E 
 2416      7400
 2417              	.LASF75:
 2418 003a 72746347 		.ascii	"rtcGetTimeTm\000"
 2418      65745469 
 2418      6D65546D 
 2418      00
 2419              	.LASF49:
 2420 0047 424B5036 		.ascii	"BKP6R\000"
 2420      5200
 2421              	.LASF79:
 2422 004d 72746347 		.ascii	"rtcGetTimeUnixSec\000"
 2422      65745469 
 2422      6D65556E 
 2422      69785365 
 2422      6300
 2423              	.LASF38:
 2424 005f 43414C52 		.ascii	"CALR\000"
 2424      00
 2425              	.LASF30:
 2426 0064 57555452 		.ascii	"WUTR\000"
 2426      00
ARM GAS  C:\Users\danit\AppData\Local\Temp\cckpmUMk.s 			page 44


 2427              	.LASF24:
 2428 0069 746D5F77 		.ascii	"tm_wday\000"
 2428      64617900 
 2429              	.LASF8:
 2430 0071 5F5F7569 		.ascii	"__uint32_t\000"
 2430      6E743332 
 2430      5F7400
 2431              	.LASF56:
 2432 007c 424B5031 		.ascii	"BKP13R\000"
 2432      335200
 2433              	.LASF17:
 2434 0083 74696D65 		.ascii	"time_t\000"
 2434      5F7400
 2435              	.LASF60:
 2436 008a 424B5031 		.ascii	"BKP17R\000"
 2436      375200
 2437              	.LASF36:
 2438 0091 54534452 		.ascii	"TSDR\000"
 2438      00
 2439              	.LASF64:
 2440 0096 52544344 		.ascii	"RTCDriver\000"
 2440      72697665 
 2440      7200
 2441              	.LASF85:
 2442 00a0 6C6F6361 		.ascii	"localtime_r\000"
 2442      6C74696D 
 2442      655F7200 
 2443              	.LASF20:
 2444 00ac 746D5F68 		.ascii	"tm_hour\000"
 2444      6F757200 
 2445              	.LASF46:
 2446 00b4 424B5033 		.ascii	"BKP3R\000"
 2446      5200
 2447              	.LASF80:
 2448 00ba 72746347 		.ascii	"rtcGetTimeUnixUsec\000"
 2448      65745469 
 2448      6D65556E 
 2448      69785573 
 2448      656300
 2449              	.LASF22:
 2450 00cd 746D5F6D 		.ascii	"tm_mon\000"
 2450      6F6E00
 2451              	.LASF10:
 2452 00d4 6C6F6E67 		.ascii	"long long int\000"
 2452      206C6F6E 
 2452      6720696E 
 2452      7400
 2453              	.LASF0:
 2454 00e2 6C6F6E67 		.ascii	"long long unsigned int\000"
 2454      206C6F6E 
 2454      6720756E 
 2454      7369676E 
 2454      65642069 
 2455              	.LASF7:
 2456 00f9 5F5F696E 		.ascii	"__int32_t\000"
 2456      7433325F 
 2456      7400
ARM GAS  C:\Users\danit\AppData\Local\Temp\cckpmUMk.s 			page 45


 2457              	.LASF31:
 2458 0103 43414C49 		.ascii	"CALIBR\000"
 2458      425200
 2459              	.LASF13:
 2460 010a 63686172 		.ascii	"char\000"
 2460      00
 2461              	.LASF6:
 2462 010f 6C6F6E67 		.ascii	"long int\000"
 2462      20696E74 
 2462      00
 2463              	.LASF53:
 2464 0118 424B5031 		.ascii	"BKP10R\000"
 2464      305200
 2465              	.LASF77:
 2466 011f 72746353 		.ascii	"rtcSetTimeUnixSec\000"
 2466      65745469 
 2466      6D65556E 
 2466      69785365 
 2466      6300
 2467              	.LASF50:
 2468 0131 424B5037 		.ascii	"BKP7R\000"
 2468      5200
 2469              	.LASF40:
 2470 0137 414C524D 		.ascii	"ALRMASSR\000"
 2470      41535352 
 2470      00
 2471              	.LASF57:
 2472 0140 424B5031 		.ascii	"BKP14R\000"
 2472      345200
 2473              	.LASF39:
 2474 0147 54414643 		.ascii	"TAFCR\000"
 2474      5200
 2475              	.LASF3:
 2476 014d 756E7369 		.ascii	"unsigned char\000"
 2476      676E6564 
 2476      20636861 
 2476      7200
 2477              	.LASF88:
 2478 015b 443A5C44 		.ascii	"D:\\Dani\\MegaLux\\Repo\\Smarty\\Smarty\\smarty\\fi"
 2478      616E695C 
 2478      4D656761 
 2478      4C75785C 
 2478      5265706F 
 2479 0187 726D7761 		.ascii	"rmware\000"
 2479      726500
 2480              	.LASF84:
 2481 018e 6D6B7469 		.ascii	"mktime\000"
 2481      6D6500
 2482              	.LASF61:
 2483 0195 424B5031 		.ascii	"BKP18R\000"
 2483      385200
 2484              	.LASF43:
 2485 019c 424B5030 		.ascii	"BKP0R\000"
 2485      5200
 2486              	.LASF2:
 2487 01a2 7369676E 		.ascii	"signed char\000"
 2487      65642063 
ARM GAS  C:\Users\danit\AppData\Local\Temp\cckpmUMk.s 			page 46


 2487      68617200 
 2488              	.LASF23:
 2489 01ae 746D5F79 		.ascii	"tm_year\000"
 2489      65617200 
 2490              	.LASF76:
 2491 01b6 72746353 		.ascii	"rtcSetTimeTm\000"
 2491      65745469 
 2491      6D65546D 
 2491      00
 2492              	.LASF86:
 2493 01c3 474E5520 		.ascii	"GNU C 4.9.3 20150529 (release) [ARM/embedded-4_9-br"
 2493      4320342E 
 2493      392E3320 
 2493      32303135 
 2493      30353239 
 2494 01f6 616E6368 		.ascii	"anch revision 224288] -mcpu=cortex-m4 -mno-thumb-in"
 2494      20726576 
 2494      6973696F 
 2494      6E203232 
 2494      34323838 
 2495 0229 74657277 		.ascii	"terwork -mthumb -ggdb -O2 -fomit-frame-pointer -fal"
 2495      6F726B20 
 2495      2D6D7468 
 2495      756D6220 
 2495      2D676764 
 2496 025c 69676E2D 		.ascii	"ign-functions=16 -ffunction-sections -fdata-section"
 2496      66756E63 
 2496      74696F6E 
 2496      733D3136 
 2496      202D6666 
 2497 028f 73202D66 		.ascii	"s -fno-common\000"
 2497      6E6F2D63 
 2497      6F6D6D6F 
 2497      6E00
 2498              	.LASF15:
 2499 029d 75696E74 		.ascii	"uint32_t\000"
 2499      33325F74 
 2499      00
 2500              	.LASF32:
 2501 02a6 414C524D 		.ascii	"ALRMAR\000"
 2501      415200
 2502              	.LASF1:
 2503 02ad 756E7369 		.ascii	"unsigned int\000"
 2503      676E6564 
 2503      20696E74 
 2503      00
 2504              	.LASF34:
 2505 02ba 53484946 		.ascii	"SHIFTR\000"
 2505      545200
 2506              	.LASF47:
 2507 02c1 424B5034 		.ascii	"BKP4R\000"
 2507      5200
 2508              	.LASF35:
 2509 02c7 54535452 		.ascii	"TSTR\000"
 2509      00
 2510              	.LASF5:
 2511 02cc 73686F72 		.ascii	"short unsigned int\000"
ARM GAS  C:\Users\danit\AppData\Local\Temp\cckpmUMk.s 			page 47


 2511      7420756E 
 2511      7369676E 
 2511      65642069 
 2511      6E7400
 2512              	.LASF70:
 2513 02df 74696D70 		.ascii	"timp\000"
 2513      00
 2514              	.LASF54:
 2515 02e4 424B5031 		.ascii	"BKP11R\000"
 2515      315200
 2516              	.LASF89:
 2517 02eb 49544D5F 		.ascii	"ITM_RxBuffer\000"
 2517      52784275 
 2517      66666572 
 2517      00
 2518              	.LASF51:
 2519 02f8 424B5038 		.ascii	"BKP8R\000"
 2519      5200
 2520              	.LASF14:
 2521 02fe 696E7433 		.ascii	"int32_t\000"
 2521      325F7400 
 2522              	.LASF27:
 2523 0306 626F6F6C 		.ascii	"bool_t\000"
 2523      5F7400
 2524              	.LASF25:
 2525 030d 746D5F79 		.ascii	"tm_yday\000"
 2525      64617900 
 2526              	.LASF41:
 2527 0315 414C524D 		.ascii	"ALRMBSSR\000"
 2527      42535352 
 2527      00
 2528              	.LASF28:
 2529 031e 5F426F6F 		.ascii	"_Bool\000"
 2529      6C00
 2530              	.LASF58:
 2531 0324 424B5031 		.ascii	"BKP15R\000"
 2531      355200
 2532              	.LASF63:
 2533 032b 5254435F 		.ascii	"RTC_TypeDef\000"
 2533      54797065 
 2533      44656600 
 2534              	.LASF19:
 2535 0337 746D5F6D 		.ascii	"tm_min\000"
 2535      696E00
 2536              	.LASF67:
 2537 033e 74765F64 		.ascii	"tv_date\000"
 2537      61746500 
 2538              	.LASF26:
 2539 0346 746D5F69 		.ascii	"tm_isdst\000"
 2539      73647374 
 2539      00
 2540              	.LASF69:
 2541 034f 74765F6D 		.ascii	"tv_msec\000"
 2541      73656300 
 2542              	.LASF9:
 2543 0357 6C6F6E67 		.ascii	"long unsigned int\000"
 2543      20756E73 
ARM GAS  C:\Users\danit\AppData\Local\Temp\cckpmUMk.s 			page 48


 2543      69676E65 
 2543      6420696E 
 2543      7400
 2544              	.LASF42:
 2545 0369 52455345 		.ascii	"RESERVED7\000"
 2545      52564544 
 2545      3700
 2546              	.LASF74:
 2547 0373 72746370 		.ascii	"rtcp\000"
 2547      00
 2548              	.LASF62:
 2549 0378 424B5031 		.ascii	"BKP19R\000"
 2549      395200
 2550              	.LASF44:
 2551 037f 424B5031 		.ascii	"BKP1R\000"
 2551      5200
 2552              	.LASF33:
 2553 0385 414C524D 		.ascii	"ALRMBR\000"
 2553      425200
 2554              	.LASF82:
 2555 038c 72746347 		.ascii	"rtcGetTime\000"
 2555      65745469 
 2555      6D6500
 2556              	.LASF48:
 2557 0397 424B5035 		.ascii	"BKP5R\000"
 2557      5200
 2558              	.LASF83:
 2559 039d 72746353 		.ascii	"rtcSetTime\000"
 2559      65745469 
 2559      6D6500
 2560              	.LASF66:
 2561 03a8 52544354 		.ascii	"RTCTime\000"
 2561      696D6500 
 2562              	.LASF68:
 2563 03b0 74765F74 		.ascii	"tv_time\000"
 2563      696D6500 
 2564              	.LASF12:
 2565 03b8 73697A65 		.ascii	"sizetype\000"
 2565      74797065 
 2565      00
 2566              	.LASF71:
 2567 03c1 74696D65 		.ascii	"timespec\000"
 2567      73706563 
 2567      00
 2568              	.LASF37:
 2569 03ca 54535353 		.ascii	"TSSSR\000"
 2569      5200
 2570              	.LASF55:
 2571 03d0 424B5031 		.ascii	"BKP12R\000"
 2571      325200
 2572              	.LASF73:
 2573 03d7 73746D33 		.ascii	"stm32_rtc_tm2bcd\000"
 2573      325F7274 
 2573      635F746D 
 2573      32626364 
 2573      00
 2574              	.LASF52:
ARM GAS  C:\Users\danit\AppData\Local\Temp\cckpmUMk.s 			page 49


 2575 03e8 424B5039 		.ascii	"BKP9R\000"
 2575      5200
 2576              	.LASF18:
 2577 03ee 746D5F73 		.ascii	"tm_sec\000"
 2577      656300
 2578              	.LASF72:
 2579 03f5 73746D33 		.ascii	"stm32_rtc_bcd2tm\000"
 2579      325F7274 
 2579      635F6263 
 2579      6432746D 
 2579      00
 2580              	.LASF87:
 2581 0406 2E2E2F2E 		.ascii	"../../../ChibiOS/os/various/chrtclib.c\000"
 2581      2E2F2E2E 
 2581      2F436869 
 2581      62694F53 
 2581      2F6F732F 
 2582              	.LASF29:
 2583 042d 50524552 		.ascii	"PRER\000"
 2583      00
 2584              	.LASF65:
 2585 0432 69645F72 		.ascii	"id_rtc\000"
 2585      746300
 2586              	.LASF59:
 2587 0439 424B5031 		.ascii	"BKP16R\000"
 2587      365200
 2588              		.ident	"GCC: (GNU Tools for ARM Embedded Processors) 4.9.3 20150529 (release) [ARM/embedded-4_9-br
ARM GAS  C:\Users\danit\AppData\Local\Temp\cckpmUMk.s 			page 50


DEFINED SYMBOLS
                            *ABS*:00000000 chrtclib.c
C:\Users\danit\AppData\Local\Temp\cckpmUMk.s:19     .text.stm32_rtc_bcd2tm.isra.0:00000000 $t
C:\Users\danit\AppData\Local\Temp\cckpmUMk.s:24     .text.stm32_rtc_bcd2tm.isra.0:00000000 stm32_rtc_bcd2tm.isra.0
C:\Users\danit\AppData\Local\Temp\cckpmUMk.s:139    .text.stm32_rtc_tm2bcd.isra.1:00000000 $t
C:\Users\danit\AppData\Local\Temp\cckpmUMk.s:144    .text.stm32_rtc_tm2bcd.isra.1:00000000 stm32_rtc_tm2bcd.isra.1
C:\Users\danit\AppData\Local\Temp\cckpmUMk.s:315    .text.stm32_rtc_tm2bcd.isra.1:000000f0 $d
C:\Users\danit\AppData\Local\Temp\cckpmUMk.s:320    .text.rtcGetTimeTm:00000000 $t
C:\Users\danit\AppData\Local\Temp\cckpmUMk.s:326    .text.rtcGetTimeTm:00000000 rtcGetTimeTm
C:\Users\danit\AppData\Local\Temp\cckpmUMk.s:368    .text.rtcSetTimeTm:00000000 $t
C:\Users\danit\AppData\Local\Temp\cckpmUMk.s:374    .text.rtcSetTimeTm:00000000 rtcSetTimeTm
C:\Users\danit\AppData\Local\Temp\cckpmUMk.s:419    .text.rtcGetTimeUnixSec:00000000 $t
C:\Users\danit\AppData\Local\Temp\cckpmUMk.s:425    .text.rtcGetTimeUnixSec:00000000 rtcGetTimeUnixSec
C:\Users\danit\AppData\Local\Temp\cckpmUMk.s:468    .text.rtcSetTimeUnixSec:00000000 $t
C:\Users\danit\AppData\Local\Temp\cckpmUMk.s:474    .text.rtcSetTimeUnixSec:00000000 rtcSetTimeUnixSec
C:\Users\danit\AppData\Local\Temp\cckpmUMk.s:525    .text.rtcGetTimeUnixUsec:00000000 $t
C:\Users\danit\AppData\Local\Temp\cckpmUMk.s:531    .text.rtcGetTimeUnixUsec:00000000 rtcGetTimeUnixUsec
C:\Users\danit\AppData\Local\Temp\cckpmUMk.s:583    .text.rtcGetTimeUnixUsec:00000044 $d
                     .debug_frame:00000010 $d

UNDEFINED SYMBOLS
rtcGetTime
rtcSetTime
mktime
localtime_r
