ARM GAS  C:\Users\DNIEL~1\AppData\Local\Temp\ccurTtco.s 			page 1


   1              		.syntax unified
   2              		.cpu cortex-m4
   3              		.fpu softvfp
   4              		.eabi_attribute 20, 1
   5              		.eabi_attribute 21, 1
   6              		.eabi_attribute 23, 3
   7              		.eabi_attribute 24, 1
   8              		.eabi_attribute 25, 1
   9              		.eabi_attribute 26, 1
  10              		.eabi_attribute 30, 2
  11              		.eabi_attribute 18, 4
  12              		.thumb
  13              		.file	"chrtclib.c"
  14              		.section	.debug_abbrev,"",%progbits
  15              	.Ldebug_abbrev0:
  16              		.section	.debug_info,"",%progbits
  17              	.Ldebug_info0:
  18              		.section	.debug_line,"",%progbits
  19              	.Ldebug_line0:
  20 0000 D9030000 		.text
  20      02006D02 
  20      00000201 
  20      FB0E0D00 
  20      01010101 
  21              	.Ltext0:
  22              		.cfi_sections	.debug_frame
  23              		.section	.text.stm32_rtc_bcd2tm.clone.0,"ax",%progbits
  24              		.align	2
  25              		.p2align 4,,15
  26              		.thumb
  27              		.thumb_func
  28              		.type	stm32_rtc_bcd2tm.clone.0, %function
  29              	stm32_rtc_bcd2tm.clone.0:
  30              	.LFB125:
  31              		.file 1 "../../../ChibiOS/os/various/chrtclib.c"
  32              		.loc 1 52 0
  33              		.cfi_startproc
  34              		@ args = 0, pretend = 0, frame = 0
  35              		@ frame_needed = 0, uses_anonymous_args = 0
  36              		@ link register save eliminated.
  37              	.LVL0:
  38              		.loc 1 70 0
  39 0000 C1F34233 		ubfx	r3, r1, #13, #3
  40              		.loc 1 52 0
  41 0004 2DE9F00F 		push	{r4, r5, r6, r7, r8, r9, sl, fp}
  42              	.LCFI0:
  43              		.cfi_def_cfa_offset 32
  44              		.loc 1 71 0
  45 0008 072B     		cmp	r3, #7
  46              		.loc 1 68 0
  47 000a 4FF0FF34 		mov	r4, #-1
  48              		.cfi_offset 11, -4
  49              		.cfi_offset 10, -8
  50              		.cfi_offset 9, -12
  51              		.cfi_offset 8, -16
  52              		.cfi_offset 7, -20
  53              		.cfi_offset 6, -24
ARM GAS  C:\Users\DNIEL~1\AppData\Local\Temp\ccurTtco.s 			page 2


  54              		.cfi_offset 5, -28
  55              		.cfi_offset 4, -32
  56 000e 0462     		str	r4, [r0, #32]
  57              		.loc 1 70 0
  58 0010 8361     		str	r3, [r0, #24]
  59              	.LVL1:
  60              		.loc 1 71 0
  61 0012 01D1     		bne	.L2
  62              		.loc 1 72 0
  63 0014 0025     		movs	r5, #0
  64 0016 8561     		str	r5, [r0, #24]
  65              	.L2:
  66              		.loc 1 93 0
  67 0018 C2F38055 		ubfx	r5, r2, #22, #1
  68              		.loc 1 78 0
  69 001c C1F30033 		ubfx	r3, r1, #12, #1
  70              		.loc 1 93 0
  71 0020 6F00     		lsls	r7, r5, #1
  72              		.loc 1 78 0
  73 0022 4FEA830B 		lsl	fp, r3, #2
  74              		.loc 1 93 0
  75 0026 07EB0508 		add	r8, r7, r5
  76              		.loc 1 82 0
  77 002a C1F3035A 		ubfx	sl, r1, #20, #4
  78              		.loc 1 92 0
  79 002e C2F30156 		ubfx	r6, r2, #20, #2
  80              		.loc 1 78 0
  81 0032 0BEB0309 		add	r9, fp, r3
  82              		.loc 1 75 0
  83 0036 C1F3011C 		ubfx	ip, r1, #4, #2
  84              		.loc 1 77 0
  85 003a C1F30324 		ubfx	r4, r1, #8, #4
  86              		.loc 1 86 0
  87 003e C2F30213 		ubfx	r3, r2, #4, #3
  88              		.loc 1 89 0
  89 0042 C2F3023B 		ubfx	fp, r2, #12, #3
  90              		.loc 1 81 0
  91 0046 C1F30347 		ubfx	r7, r1, #16, #4
  92              		.loc 1 82 0
  93 004a 0AEB8A0A 		add	sl, sl, sl, lsl #2
  94              		.loc 1 92 0
  95 004e 06EB8606 		add	r6, r6, r6, lsl #2
  96              		.loc 1 93 0
  97 0052 4FEA8808 		lsl	r8, r8, #2
  98              		.loc 1 75 0
  99 0056 0CEB8C05 		add	r5, ip, ip, lsl #2
 100              		.loc 1 74 0
 101 005a 01F00F01 		and	r1, r1, #15
 102              	.LVL2:
 103              		.loc 1 78 0
 104 005e 04EB490C 		add	ip, r4, r9, lsl #1
 105              		.loc 1 82 0
 106 0062 07EB4A07 		add	r7, r7, sl, lsl #1
 107              		.loc 1 86 0
 108 0066 03EB8304 		add	r4, r3, r3, lsl #2
 109              		.loc 1 85 0
 110 006a 02F00F09 		and	r9, r2, #15
ARM GAS  C:\Users\DNIEL~1\AppData\Local\Temp\ccurTtco.s 			page 3


 111              		.loc 1 89 0
 112 006e 0BEB8B03 		add	r3, fp, fp, lsl #2
 113              		.loc 1 92 0
 114 0072 08EB4606 		add	r6, r8, r6, lsl #1
 115              		.loc 1 88 0
 116 0076 C2F3032B 		ubfx	fp, r2, #8, #4
 117              		.loc 1 91 0
 118 007a C2F30342 		ubfx	r2, r2, #16, #4
 119              	.LVL3:
 120              		.loc 1 75 0
 121 007e 01EB4505 		add	r5, r1, r5, lsl #1
 122              		.loc 1 83 0
 123 0082 6437     		adds	r7, r7, #100
 124              		.loc 1 79 0
 125 0084 0CF1FF31 		add	r1, ip, #-1
 126              		.loc 1 86 0
 127 0088 09EB4404 		add	r4, r9, r4, lsl #1
 128              		.loc 1 89 0
 129 008c 0BEB4303 		add	r3, fp, r3, lsl #1
 130              		.loc 1 93 0
 131 0090 B218     		adds	r2, r6, r2
 132              		.loc 1 75 0
 133 0092 C560     		str	r5, [r0, #12]
 134              		.loc 1 79 0
 135 0094 0161     		str	r1, [r0, #16]
 136              		.loc 1 83 0
 137 0096 4761     		str	r7, [r0, #20]
 138              		.loc 1 86 0
 139 0098 0460     		str	r4, [r0, #0]
 140              		.loc 1 89 0
 141 009a 4360     		str	r3, [r0, #4]
 142              		.loc 1 93 0
 143 009c 8260     		str	r2, [r0, #8]
 144              		.loc 1 94 0
 145 009e BDE8F00F 		pop	{r4, r5, r6, r7, r8, r9, sl, fp}
 146 00a2 7047     		bx	lr
 147              		.cfi_endproc
 148              	.LFE125:
 149              		.size	stm32_rtc_bcd2tm.clone.0, .-stm32_rtc_bcd2tm.clone.0
 150 00a4 AFF30080 		.section	.text.stm32_rtc_tm2bcd.clone.1,"ax",%progbits
 150      AFF30080 
 150      AFF30080 
 151              		.align	2
 152              		.p2align 4,,15
 153              		.thumb
 154              		.thumb_func
 155              		.type	stm32_rtc_tm2bcd.clone.1, %function
 156              	stm32_rtc_tm2bcd.clone.1:
 157              	.LFB126:
 158              		.loc 1 104 0
 159              		.cfi_startproc
 160              		@ args = 0, pretend = 0, frame = 16
 161              		@ frame_needed = 0, uses_anonymous_args = 0
 162              		@ link register save eliminated.
 163              	.LVL4:
 164 0000 2DE9F00F 		push	{r4, r5, r6, r7, r8, r9, sl, fp}
 165              	.LCFI1:
ARM GAS  C:\Users\DNIEL~1\AppData\Local\Temp\ccurTtco.s 			page 4


 166              		.cfi_def_cfa_offset 32
 167              		.loc 1 110 0
 168 0004 4769     		ldr	r7, [r0, #20]
 169              		.cfi_offset 11, -4
 170              		.cfi_offset 10, -8
 171              		.cfi_offset 9, -12
 172              		.cfi_offset 8, -16
 173              		.cfi_offset 7, -20
 174              		.cfi_offset 6, -24
 175              		.cfi_offset 5, -28
 176              		.cfi_offset 4, -32
 177              		.loc 1 111 0
 178 0006 444D     		ldr	r5, .L7
 179              		.loc 1 114 0
 180 0008 8369     		ldr	r3, [r0, #24]
 181              		.loc 1 110 0
 182 000a 643F     		subs	r7, r7, #100
 183              	.LVL5:
 184              		.loc 1 111 0
 185 000c A5FB0756 		umull	r5, r6, r5, r7
 186 0010 F408     		lsrs	r4, r6, #3
 187              		.loc 1 112 0
 188 0012 04EB8409 		add	r9, r4, r4, lsl #2
 189              		.loc 1 107 0
 190 0016 0025     		movs	r5, #0
 191              		.loc 1 104 0
 192 0018 84B0     		sub	sp, sp, #16
 193              	.LCFI2:
 194              		.cfi_def_cfa_offset 48
 195              		.loc 1 111 0
 196 001a 2605     		lsls	r6, r4, #20
 197              		.loc 1 107 0
 198 001c 0D60     		str	r5, [r1, #0]
 199              		.loc 1 112 0
 200 001e A7EB490B 		sub	fp, r7, r9, lsl #1
 201              		.loc 1 108 0
 202 0022 1560     		str	r5, [r2, #0]
 203              		.loc 1 111 0
 204 0024 06F47004 		and	r4, r6, #15728640
 205 0028 D1F80090 		ldr	r9, [r1, #0]
 206 002c 0194     		str	r4, [sp, #4]
 207              		.loc 1 112 0
 208 002e 4FEA0B4B 		lsl	fp, fp, #16
 209              		.loc 1 114 0
 210 0032 002B     		cmp	r3, #0
 211 0034 6AD0     		beq	.L6
 212              	.LVL6:
 213 0036 5C07     		lsls	r4, r3, #29
 214 0038 230C     		lsrs	r3, r4, #16
 215 003a 0293     		str	r3, [sp, #8]
 216              	.LVL7:
 217              	.L5:
 218              		.loc 1 126 0
 219 003c 364B     		ldr	r3, .L7
 220              		.loc 1 124 0
 221 003e D0F80C80 		ldr	r8, [r0, #12]
 222              		.loc 1 120 0
ARM GAS  C:\Users\DNIEL~1\AppData\Local\Temp\ccurTtco.s 			page 5


 223 0042 0469     		ldr	r4, [r0, #16]
 224              		.loc 1 136 0
 225 0044 0568     		ldr	r5, [r0, #0]
 226              		.loc 1 132 0
 227 0046 4768     		ldr	r7, [r0, #4]
 228              		.loc 1 128 0
 229 0048 8668     		ldr	r6, [r0, #8]
 230              		.loc 1 120 0
 231 004a 04F1010C 		add	ip, r4, #1
 232              	.LVL8:
 233              		.loc 1 126 0
 234 004e A3FB0804 		umull	r0, r4, r3, r8
 235              	.LVL9:
 236              		.loc 1 111 0
 237 0052 49EA0B0B 		orr	fp, r9, fp
 238              		.loc 1 126 0
 239 0056 E408     		lsrs	r4, r4, #3
 240              		.loc 1 122 0
 241 0058 A3FB0CA0 		umull	sl, r0, r3, ip
 242              		.loc 1 111 0
 243 005c CDF80CB0 		str	fp, [sp, #12]
 244              		.loc 1 126 0
 245 0060 04EB840A 		add	sl, r4, r4, lsl #2
 246 0064 A8EB4A08 		sub	r8, r8, sl, lsl #1
 247              		.loc 1 122 0
 248 0068 C008     		lsrs	r0, r0, #3
 249              		.loc 1 134 0
 250 006a A3FB07A9 		umull	sl, r9, r3, r7
 251              		.loc 1 112 0
 252 006e DDF80CA0 		ldr	sl, [sp, #12]
 253              		.loc 1 122 0
 254 0072 00EB800B 		add	fp, r0, r0, lsl #2
 255 0076 ACEB4B0C 		sub	ip, ip, fp, lsl #1
 256              		.loc 1 134 0
 257 007a 4FEAD909 		lsr	r9, r9, #3
 258              		.loc 1 112 0
 259 007e 4AEA0808 		orr	r8, sl, r8
 260              		.loc 1 125 0
 261 0082 2401     		lsls	r4, r4, #4
 262              		.loc 1 130 0
 263 0084 A3FB06BA 		umull	fp, sl, r3, r6
 264              		.loc 1 118 0
 265 0088 48EA0C28 		orr	r8, r8, ip, lsl #8
 266              		.loc 1 125 0
 267 008c 04F0300C 		and	ip, r4, #48
 268              		.loc 1 134 0
 269 0090 09EB8904 		add	r4, r9, r9, lsl #2
 270              		.loc 1 138 0
 271 0094 A3FB05B3 		umull	fp, r3, r3, r5
 272              		.loc 1 130 0
 273 0098 4FEADA0A 		lsr	sl, sl, #3
 274              		.loc 1 134 0
 275 009c A7EB4407 		sub	r7, r7, r4, lsl #1
 276              		.loc 1 122 0
 277 00a0 019C     		ldr	r4, [sp, #4]
 278              		.loc 1 138 0
 279 00a2 DB08     		lsrs	r3, r3, #3
ARM GAS  C:\Users\DNIEL~1\AppData\Local\Temp\ccurTtco.s 			page 6


 280              		.loc 1 130 0
 281 00a4 0AEB8A0B 		add	fp, sl, sl, lsl #2
 282              		.loc 1 121 0
 283 00a8 48EA0C08 		orr	r8, r8, ip
 284 00ac 0003     		lsls	r0, r0, #12
 285 00ae 00F4805C 		and	ip, r0, #4096
 286              		.loc 1 130 0
 287 00b2 A6EB4B06 		sub	r6, r6, fp, lsl #1
 288              		.loc 1 122 0
 289 00b6 48EA0408 		orr	r8, r8, r4
 290              		.loc 1 138 0
 291 00ba 03EB830B 		add	fp, r3, r3, lsl #2
 292              		.loc 1 125 0
 293 00be 48EA0C00 		orr	r0, r8, ip
 294              		.loc 1 134 0
 295 00c2 3F02     		lsls	r7, r7, #8
 296              		.loc 1 138 0
 297 00c4 A5EB4B0C 		sub	ip, r5, fp, lsl #1
 298              		.loc 1 126 0
 299 00c8 DDF808B0 		ldr	fp, [sp, #8]
 300              		.loc 1 129 0
 301 00cc 47EA0646 		orr	r6, r7, r6, lsl #16
 302 00d0 4FEA0A5A 		lsl	sl, sl, #20
 303              		.loc 1 126 0
 304 00d4 40EA0B00 		orr	r0, r0, fp
 305              		.loc 1 130 0
 306 00d8 46EA0C05 		orr	r5, r6, ip
 307              	.LVL10:
 308              		.loc 1 129 0
 309 00dc 0AF4401A 		and	sl, sl, #3145728
 310              		.loc 1 133 0
 311 00e0 4FEA093C 		lsl	ip, r9, #12
 312              		.loc 1 126 0
 313 00e4 0860     		str	r0, [r1, #0]
 314              		.loc 1 133 0
 315 00e6 0CF4E049 		and	r9, ip, #28672
 316              		.loc 1 137 0
 317 00ea 1801     		lsls	r0, r3, #4
 318              		.loc 1 133 0
 319 00ec 45EA0A05 		orr	r5, r5, sl
 320              		.loc 1 138 0
 321 00f0 1168     		ldr	r1, [r2, #0]
 322              		.loc 1 137 0
 323 00f2 00F07003 		and	r3, r0, #112
 324              		.loc 1 134 0
 325 00f6 45EA0909 		orr	r9, r5, r9
 326              		.loc 1 137 0
 327 00fa 49EA030C 		orr	ip, r9, r3
 328              		.loc 1 138 0
 329 00fe 41EA0C00 		orr	r0, r1, ip
 330 0102 1060     		str	r0, [r2, #0]
 331              		.loc 1 139 0
 332 0104 04B0     		add	sp, sp, #16
 333 0106 BDE8F00F 		pop	{r4, r5, r6, r7, r8, r9, sl, fp}
 334 010a 7047     		bx	lr
 335              	.LVL11:
 336              	.L6:
ARM GAS  C:\Users\DNIEL~1\AppData\Local\Temp\ccurTtco.s 			page 7


 337              		.loc 1 114 0
 338 010c 4FF4604A 		mov	sl, #57344
 339 0110 CDF808A0 		str	sl, [sp, #8]
 340 0114 92E7     		b	.L5
 341              	.L8:
 342 0116 00BF     		.align	2
 343              	.L7:
 344 0118 CDCCCCCC 		.word	-858993459
 345              		.cfi_endproc
 346              	.LFE126:
 347              		.size	stm32_rtc_tm2bcd.clone.1, .-stm32_rtc_tm2bcd.clone.1
 348 011c AFF30080 		.section	.text.rtcGetTimeTm,"ax",%progbits
 349              		.align	2
 350              		.p2align 4,,15
 351              		.global	rtcGetTimeTm
 352              		.thumb
 353              		.thumb_func
 354              		.type	rtcGetTimeTm, %function
 355              	rtcGetTimeTm:
 356              	.LFB120:
 357              		.loc 1 149 0
 358              		.cfi_startproc
 359              		@ args = 0, pretend = 0, frame = 16
 360              		@ frame_needed = 0, uses_anonymous_args = 0
 361              	.LVL12:
 362 0000 10B5     		push	{r4, lr}
 363              	.LCFI3:
 364              		.cfi_def_cfa_offset 8
 365 0002 84B0     		sub	sp, sp, #16
 366              	.LCFI4:
 367              		.cfi_def_cfa_offset 24
 368              		.loc 1 151 0
 369 0004 0023     		movs	r3, #0
 370              		.loc 1 149 0
 371 0006 0C46     		mov	r4, r1
 372              		.cfi_offset 14, -4
 373              		.cfi_offset 4, -8
 374              		.loc 1 156 0
 375 0008 6946     		mov	r1, sp
 376              	.LVL13:
 377              		.loc 1 151 0
 378 000a 0093     		str	r3, [sp, #0]
 379 000c 0193     		str	r3, [sp, #4]
 380 000e 8DF80830 		strb	r3, [sp, #8]
 381 0012 0393     		str	r3, [sp, #12]
 382              		.loc 1 156 0
 383 0014 FFF7FEFF 		bl	rtcGetTime
 384              	.LVL14:
 385              		.loc 1 157 0
 386 0018 2046     		mov	r0, r4
 387 001a 0099     		ldr	r1, [sp, #0]
 388 001c 019A     		ldr	r2, [sp, #4]
 389 001e FFF7FEFF 		bl	stm32_rtc_bcd2tm.clone.0
 390              		.loc 1 158 0
 391 0022 04B0     		add	sp, sp, #16
 392 0024 10BD     		pop	{r4, pc}
 393              		.cfi_endproc
ARM GAS  C:\Users\DNIEL~1\AppData\Local\Temp\ccurTtco.s 			page 8


 394              	.LFE120:
 395              		.size	rtcGetTimeTm, .-rtcGetTimeTm
 396 0026 00BFAFF3 		.section	.text.rtcSetTimeTm,"ax",%progbits
 396      0080AFF3 
 396      0080
 397              		.align	2
 398              		.p2align 4,,15
 399              		.global	rtcSetTimeTm
 400              		.thumb
 401              		.thumb_func
 402              		.type	rtcSetTimeTm, %function
 403              	rtcSetTimeTm:
 404              	.LFB121:
 405              		.loc 1 168 0
 406              		.cfi_startproc
 407              		@ args = 0, pretend = 0, frame = 16
 408              		@ frame_needed = 0, uses_anonymous_args = 0
 409              	.LVL15:
 410 0000 10B5     		push	{r4, lr}
 411              	.LCFI5:
 412              		.cfi_def_cfa_offset 8
 413              		.loc 1 170 0
 414 0002 0023     		movs	r3, #0
 415              		.loc 1 168 0
 416 0004 84B0     		sub	sp, sp, #16
 417              	.LCFI6:
 418              		.cfi_def_cfa_offset 24
 419              		.loc 1 168 0
 420 0006 0446     		mov	r4, r0
 421              		.cfi_offset 14, -4
 422              		.cfi_offset 4, -8
 423              		.loc 1 175 0
 424 0008 0DEB0300 		add	r0, sp, r3
 425              	.LVL16:
 426 000c 021D     		adds	r2, r0, #4
 427 000e 0846     		mov	r0, r1
 428 0010 6946     		mov	r1, sp
 429              	.LVL17:
 430              		.loc 1 170 0
 431 0012 0093     		str	r3, [sp, #0]
 432 0014 0193     		str	r3, [sp, #4]
 433 0016 8DF80830 		strb	r3, [sp, #8]
 434 001a 0393     		str	r3, [sp, #12]
 435              		.loc 1 175 0
 436 001c FFF7FEFF 		bl	stm32_rtc_tm2bcd.clone.1
 437              	.LVL18:
 438              		.loc 1 176 0
 439 0020 2046     		mov	r0, r4
 440 0022 6946     		mov	r1, sp
 441 0024 FFF7FEFF 		bl	rtcSetTime
 442              		.loc 1 177 0
 443 0028 04B0     		add	sp, sp, #16
 444 002a 10BD     		pop	{r4, pc}
 445              		.cfi_endproc
 446              	.LFE121:
 447              		.size	rtcSetTimeTm, .-rtcSetTimeTm
 448 002c AFF30080 		.section	.text.rtcGetTimeUnixSec,"ax",%progbits
ARM GAS  C:\Users\DNIEL~1\AppData\Local\Temp\ccurTtco.s 			page 9


 449              		.align	2
 450              		.p2align 4,,15
 451              		.global	rtcGetTimeUnixSec
 452              		.thumb
 453              		.thumb_func
 454              		.type	rtcGetTimeUnixSec, %function
 455              	rtcGetTimeUnixSec:
 456              	.LFB122:
 457              		.loc 1 187 0
 458              		.cfi_startproc
 459              		@ args = 0, pretend = 0, frame = 64
 460              		@ frame_needed = 0, uses_anonymous_args = 0
 461              	.LVL19:
 462 0000 00B5     		push	{lr}
 463              	.LCFI7:
 464              		.cfi_def_cfa_offset 4
 465 0002 91B0     		sub	sp, sp, #68
 466              	.LCFI8:
 467              		.cfi_def_cfa_offset 72
 468              		.loc 1 189 0
 469 0004 0023     		movs	r3, #0
 470              		.loc 1 195 0
 471 0006 0CA9     		add	r1, sp, #48
 472              		.loc 1 189 0
 473 0008 0C93     		str	r3, [sp, #48]
 474 000a 0D93     		str	r3, [sp, #52]
 475 000c 8DF83830 		strb	r3, [sp, #56]
 476 0010 0F93     		str	r3, [sp, #60]
 477              		.loc 1 195 0
 478              		.cfi_offset 14, -4
 479 0012 FFF7FEFF 		bl	rtcGetTime
 480              	.LVL20:
 481              		.loc 1 196 0
 482 0016 01A8     		add	r0, sp, #4
 483 0018 0C99     		ldr	r1, [sp, #48]
 484 001a 0D9A     		ldr	r2, [sp, #52]
 485 001c FFF7FEFF 		bl	stm32_rtc_bcd2tm.clone.0
 486              		.loc 1 198 0
 487 0020 01A8     		add	r0, sp, #4
 488 0022 FFF7FEFF 		bl	mktime
 489              		.loc 1 199 0
 490 0026 11B0     		add	sp, sp, #68
 491 0028 00BD     		pop	{pc}
 492              		.cfi_endproc
 493              	.LFE122:
 494              		.size	rtcGetTimeUnixSec, .-rtcGetTimeUnixSec
 495 002a 00BFAFF3 		.section	.text.rtcSetTimeUnixSec,"ax",%progbits
 495      0080
 496              		.align	2
 497              		.p2align 4,,15
 498              		.global	rtcSetTimeUnixSec
 499              		.thumb
 500              		.thumb_func
 501              		.type	rtcSetTimeUnixSec, %function
 502              	rtcSetTimeUnixSec:
 503              	.LFB123:
 504              		.loc 1 210 0
ARM GAS  C:\Users\DNIEL~1\AppData\Local\Temp\ccurTtco.s 			page 10


 505              		.cfi_startproc
 506              		@ args = 0, pretend = 0, frame = 72
 507              		@ frame_needed = 0, uses_anonymous_args = 0
 508              	.LVL21:
 509 0000 10B5     		push	{r4, lr}
 510              	.LCFI9:
 511              		.cfi_def_cfa_offset 8
 512 0002 92B0     		sub	sp, sp, #72
 513              	.LCFI10:
 514              		.cfi_def_cfa_offset 80
 515              		.loc 1 212 0
 516 0004 0023     		movs	r3, #0
 517              		.loc 1 210 0
 518 0006 0446     		mov	r4, r0
 519              		.cfi_offset 14, -4
 520              		.cfi_offset 4, -8
 521 0008 0191     		str	r1, [sp, #4]
 522              		.loc 1 218 0
 523 000a 01A8     		add	r0, sp, #4
 524              	.LVL22:
 525 000c 03A9     		add	r1, sp, #12
 526              	.LVL23:
 527              		.loc 1 212 0
 528 000e 0E93     		str	r3, [sp, #56]
 529 0010 0F93     		str	r3, [sp, #60]
 530 0012 8DF84030 		strb	r3, [sp, #64]
 531 0016 1193     		str	r3, [sp, #68]
 532              		.loc 1 218 0
 533 0018 FFF7FEFF 		bl	localtime_r
 534              		.loc 1 219 0
 535 001c 0EA9     		add	r1, sp, #56
 536 001e 03A8     		add	r0, sp, #12
 537 0020 0A1D     		adds	r2, r1, #4
 538 0022 FFF7FEFF 		bl	stm32_rtc_tm2bcd.clone.1
 539              		.loc 1 220 0
 540 0026 2046     		mov	r0, r4
 541 0028 0EA9     		add	r1, sp, #56
 542 002a FFF7FEFF 		bl	rtcSetTime
 543              		.loc 1 221 0
 544 002e 12B0     		add	sp, sp, #72
 545 0030 10BD     		pop	{r4, pc}
 546              		.cfi_endproc
 547              	.LFE123:
 548              		.size	rtcSetTimeUnixSec, .-rtcSetTimeUnixSec
 549 0032 00BFAFF3 		.section	.text.rtcGetTimeUnixUsec,"ax",%progbits
 549      0080AFF3 
 549      0080AFF3 
 549      0080
 550              		.align	2
 551              		.p2align 4,,15
 552              		.global	rtcGetTimeUnixUsec
 553              		.thumb
 554              		.thumb_func
 555              		.type	rtcGetTimeUnixUsec, %function
 556              	rtcGetTimeUnixUsec:
 557              	.LFB124:
 558              		.loc 1 231 0
ARM GAS  C:\Users\DNIEL~1\AppData\Local\Temp\ccurTtco.s 			page 11


 559              		.cfi_startproc
 560              		@ args = 0, pretend = 0, frame = 64
 561              		@ frame_needed = 0, uses_anonymous_args = 0
 562              	.LVL24:
 563 0000 00B5     		push	{lr}
 564              	.LCFI11:
 565              		.cfi_def_cfa_offset 4
 566 0002 91B0     		sub	sp, sp, #68
 567              	.LCFI12:
 568              		.cfi_def_cfa_offset 72
 569              		.loc 1 234 0
 570 0004 0023     		movs	r3, #0
 571              		.loc 1 237 0
 572 0006 0CA9     		add	r1, sp, #48
 573              		.loc 1 234 0
 574 0008 0C93     		str	r3, [sp, #48]
 575 000a 0D93     		str	r3, [sp, #52]
 576 000c 8DF83830 		strb	r3, [sp, #56]
 577 0010 0F93     		str	r3, [sp, #60]
 578              		.loc 1 237 0
 579              		.cfi_offset 14, -4
 580 0012 FFF7FEFF 		bl	rtcGetTime
 581              	.LVL25:
 582              		.loc 1 238 0
 583 0016 0C99     		ldr	r1, [sp, #48]
 584 0018 0D9A     		ldr	r2, [sp, #52]
 585 001a 01A8     		add	r0, sp, #4
 586 001c FFF7FEFF 		bl	stm32_rtc_bcd2tm.clone.0
 587              		.loc 1 240 0
 588 0020 01A8     		add	r0, sp, #4
 589 0022 FFF7FEFF 		bl	mktime
 590              	.LVL26:
 591              		.loc 1 241 0
 592 0026 0F9B     		ldr	r3, [sp, #60]
 593 0028 0549     		ldr	r1, .L14
 594 002a 4FF47A72 		mov	r2, #1000
 595 002e 02FB03F2 		mul	r2, r2, r3
 596 0032 0023     		movs	r3, #0
 597 0034 C1FB0023 		smlal	r2, r3, r1, r0
 598              		.loc 1 245 0
 599 0038 1046     		mov	r0, r2
 600 003a 1946     		mov	r1, r3
 601 003c 11B0     		add	sp, sp, #68
 602 003e 00BD     		pop	{pc}
 603              	.L15:
 604              		.align	2
 605              	.L14:
 606 0040 40420F00 		.word	1000000
 607              		.cfi_endproc
 608              	.LFE124:
 609              		.size	rtcGetTimeUnixUsec, .-rtcGetTimeUnixUsec
 610 0044 AFF30080 		.text
 610      AFF30080 
 610      AFF30080 
 611              	.Letext0:
 612              		.section	.debug_loc,"",%progbits
 613              	.Ldebug_loc0:
ARM GAS  C:\Users\DNIEL~1\AppData\Local\Temp\ccurTtco.s 			page 12


 614              	.LLST0:
 615 0000 00000000 		.4byte	.LFB125
 616 0004 08000000 		.4byte	.LCFI0
 617 0008 0200     		.2byte	0x2
 618 000a 7D       		.byte	0x7d
 619 000b 00       		.sleb128 0
 620 000c 08000000 		.4byte	.LCFI0
 621 0010 A4000000 		.4byte	.LFE125
 622 0014 0200     		.2byte	0x2
 623 0016 7D       		.byte	0x7d
 624 0017 20       		.sleb128 32
 625 0018 00000000 		.4byte	0x0
 626 001c 00000000 		.4byte	0x0
 627              	.LLST1:
 628 0020 12000000 		.4byte	.LVL1
 629 0024 7E000000 		.4byte	.LVL3
 630 0028 0100     		.2byte	0x1
 631 002a 52       		.byte	0x52
 632 002b 00000000 		.4byte	0x0
 633 002f 00000000 		.4byte	0x0
 634              	.LLST2:
 635 0033 12000000 		.4byte	.LVL1
 636 0037 5E000000 		.4byte	.LVL2
 637 003b 0100     		.2byte	0x1
 638 003d 51       		.byte	0x51
 639 003e 00000000 		.4byte	0x0
 640 0042 00000000 		.4byte	0x0
 641              	.LLST3:
 642 0046 00000000 		.4byte	.LFB126
 643 004a 04000000 		.4byte	.LCFI1
 644 004e 0200     		.2byte	0x2
 645 0050 7D       		.byte	0x7d
 646 0051 00       		.sleb128 0
 647 0052 04000000 		.4byte	.LCFI1
 648 0056 1A000000 		.4byte	.LCFI2
 649 005a 0200     		.2byte	0x2
 650 005c 7D       		.byte	0x7d
 651 005d 20       		.sleb128 32
 652 005e 1A000000 		.4byte	.LCFI2
 653 0062 1C010000 		.4byte	.LFE126
 654 0066 0200     		.2byte	0x2
 655 0068 7D       		.byte	0x7d
 656 0069 30       		.sleb128 48
 657 006a 00000000 		.4byte	0x0
 658 006e 00000000 		.4byte	0x0
 659              	.LLST4:
 660 0072 00000000 		.4byte	.LVL4
 661 0076 52000000 		.4byte	.LVL9
 662 007a 0100     		.2byte	0x1
 663 007c 50       		.byte	0x50
 664 007d 0C010000 		.4byte	.LVL11
 665 0081 1C010000 		.4byte	.LFE126
 666 0085 0100     		.2byte	0x1
 667 0087 50       		.byte	0x50
 668 0088 00000000 		.4byte	0x0
 669 008c 00000000 		.4byte	0x0
 670              	.LLST5:
ARM GAS  C:\Users\DNIEL~1\AppData\Local\Temp\ccurTtco.s 			page 13


 671 0090 00000000 		.4byte	.LVL4
 672 0094 0C000000 		.4byte	.LVL5
 673 0098 0200     		.2byte	0x2
 674 009a 30       		.byte	0x30
 675 009b 9F       		.byte	0x9f
 676 009c 0C000000 		.4byte	.LVL5
 677 00a0 36000000 		.4byte	.LVL6
 678 00a4 0100     		.2byte	0x1
 679 00a6 57       		.byte	0x57
 680 00a7 36000000 		.4byte	.LVL6
 681 00ab 3C000000 		.4byte	.LVL7
 682 00af 0200     		.2byte	0x2
 683 00b1 70       		.byte	0x70
 684 00b2 18       		.sleb128 24
 685 00b3 4E000000 		.4byte	.LVL8
 686 00b7 52000000 		.4byte	.LVL9
 687 00bb 0200     		.2byte	0x2
 688 00bd 70       		.byte	0x70
 689 00be 00       		.sleb128 0
 690 00bf 52000000 		.4byte	.LVL9
 691 00c3 DC000000 		.4byte	.LVL10
 692 00c7 0100     		.2byte	0x1
 693 00c9 55       		.byte	0x55
 694 00ca 0C010000 		.4byte	.LVL11
 695 00ce 1C010000 		.4byte	.LFE126
 696 00d2 0100     		.2byte	0x1
 697 00d4 57       		.byte	0x57
 698 00d5 00000000 		.4byte	0x0
 699 00d9 00000000 		.4byte	0x0
 700              	.LLST6:
 701 00dd 00000000 		.4byte	.LFB120
 702 00e1 02000000 		.4byte	.LCFI3
 703 00e5 0200     		.2byte	0x2
 704 00e7 7D       		.byte	0x7d
 705 00e8 00       		.sleb128 0
 706 00e9 02000000 		.4byte	.LCFI3
 707 00ed 04000000 		.4byte	.LCFI4
 708 00f1 0200     		.2byte	0x2
 709 00f3 7D       		.byte	0x7d
 710 00f4 08       		.sleb128 8
 711 00f5 04000000 		.4byte	.LCFI4
 712 00f9 26000000 		.4byte	.LFE120
 713 00fd 0200     		.2byte	0x2
 714 00ff 7D       		.byte	0x7d
 715 0100 18       		.sleb128 24
 716 0101 00000000 		.4byte	0x0
 717 0105 00000000 		.4byte	0x0
 718              	.LLST7:
 719 0109 00000000 		.4byte	.LVL12
 720 010d 17000000 		.4byte	.LVL14-1
 721 0111 0100     		.2byte	0x1
 722 0113 50       		.byte	0x50
 723 0114 00000000 		.4byte	0x0
 724 0118 00000000 		.4byte	0x0
 725              	.LLST8:
 726 011c 00000000 		.4byte	.LVL12
 727 0120 0A000000 		.4byte	.LVL13
ARM GAS  C:\Users\DNIEL~1\AppData\Local\Temp\ccurTtco.s 			page 14


 728 0124 0100     		.2byte	0x1
 729 0126 51       		.byte	0x51
 730 0127 0A000000 		.4byte	.LVL13
 731 012b 26000000 		.4byte	.LFE120
 732 012f 0100     		.2byte	0x1
 733 0131 54       		.byte	0x54
 734 0132 00000000 		.4byte	0x0
 735 0136 00000000 		.4byte	0x0
 736              	.LLST9:
 737 013a 00000000 		.4byte	.LFB121
 738 013e 02000000 		.4byte	.LCFI5
 739 0142 0200     		.2byte	0x2
 740 0144 7D       		.byte	0x7d
 741 0145 00       		.sleb128 0
 742 0146 02000000 		.4byte	.LCFI5
 743 014a 06000000 		.4byte	.LCFI6
 744 014e 0200     		.2byte	0x2
 745 0150 7D       		.byte	0x7d
 746 0151 08       		.sleb128 8
 747 0152 06000000 		.4byte	.LCFI6
 748 0156 2C000000 		.4byte	.LFE121
 749 015a 0200     		.2byte	0x2
 750 015c 7D       		.byte	0x7d
 751 015d 18       		.sleb128 24
 752 015e 00000000 		.4byte	0x0
 753 0162 00000000 		.4byte	0x0
 754              	.LLST10:
 755 0166 00000000 		.4byte	.LVL15
 756 016a 0C000000 		.4byte	.LVL16
 757 016e 0100     		.2byte	0x1
 758 0170 50       		.byte	0x50
 759 0171 0C000000 		.4byte	.LVL16
 760 0175 2C000000 		.4byte	.LFE121
 761 0179 0100     		.2byte	0x1
 762 017b 54       		.byte	0x54
 763 017c 00000000 		.4byte	0x0
 764 0180 00000000 		.4byte	0x0
 765              	.LLST11:
 766 0184 00000000 		.4byte	.LVL15
 767 0188 12000000 		.4byte	.LVL17
 768 018c 0100     		.2byte	0x1
 769 018e 51       		.byte	0x51
 770 018f 12000000 		.4byte	.LVL17
 771 0193 1F000000 		.4byte	.LVL18-1
 772 0197 0100     		.2byte	0x1
 773 0199 50       		.byte	0x50
 774 019a 00000000 		.4byte	0x0
 775 019e 00000000 		.4byte	0x0
 776              	.LLST12:
 777 01a2 00000000 		.4byte	.LFB122
 778 01a6 02000000 		.4byte	.LCFI7
 779 01aa 0200     		.2byte	0x2
 780 01ac 7D       		.byte	0x7d
 781 01ad 00       		.sleb128 0
 782 01ae 02000000 		.4byte	.LCFI7
 783 01b2 04000000 		.4byte	.LCFI8
 784 01b6 0200     		.2byte	0x2
ARM GAS  C:\Users\DNIEL~1\AppData\Local\Temp\ccurTtco.s 			page 15


 785 01b8 7D       		.byte	0x7d
 786 01b9 04       		.sleb128 4
 787 01ba 04000000 		.4byte	.LCFI8
 788 01be 2A000000 		.4byte	.LFE122
 789 01c2 0300     		.2byte	0x3
 790 01c4 7D       		.byte	0x7d
 791 01c5 C800     		.sleb128 72
 792 01c7 00000000 		.4byte	0x0
 793 01cb 00000000 		.4byte	0x0
 794              	.LLST13:
 795 01cf 00000000 		.4byte	.LVL19
 796 01d3 15000000 		.4byte	.LVL20-1
 797 01d7 0100     		.2byte	0x1
 798 01d9 50       		.byte	0x50
 799 01da 00000000 		.4byte	0x0
 800 01de 00000000 		.4byte	0x0
 801              	.LLST14:
 802 01e2 00000000 		.4byte	.LFB123
 803 01e6 02000000 		.4byte	.LCFI9
 804 01ea 0200     		.2byte	0x2
 805 01ec 7D       		.byte	0x7d
 806 01ed 00       		.sleb128 0
 807 01ee 02000000 		.4byte	.LCFI9
 808 01f2 04000000 		.4byte	.LCFI10
 809 01f6 0200     		.2byte	0x2
 810 01f8 7D       		.byte	0x7d
 811 01f9 08       		.sleb128 8
 812 01fa 04000000 		.4byte	.LCFI10
 813 01fe 32000000 		.4byte	.LFE123
 814 0202 0300     		.2byte	0x3
 815 0204 7D       		.byte	0x7d
 816 0205 D000     		.sleb128 80
 817 0207 00000000 		.4byte	0x0
 818 020b 00000000 		.4byte	0x0
 819              	.LLST15:
 820 020f 00000000 		.4byte	.LVL21
 821 0213 0C000000 		.4byte	.LVL22
 822 0217 0100     		.2byte	0x1
 823 0219 50       		.byte	0x50
 824 021a 0C000000 		.4byte	.LVL22
 825 021e 32000000 		.4byte	.LFE123
 826 0222 0100     		.2byte	0x1
 827 0224 54       		.byte	0x54
 828 0225 00000000 		.4byte	0x0
 829 0229 00000000 		.4byte	0x0
 830              	.LLST16:
 831 022d 00000000 		.4byte	.LVL21
 832 0231 0E000000 		.4byte	.LVL23
 833 0235 0100     		.2byte	0x1
 834 0237 51       		.byte	0x51
 835 0238 0E000000 		.4byte	.LVL23
 836 023c 32000000 		.4byte	.LFE123
 837 0240 0300     		.2byte	0x3
 838 0242 91       		.byte	0x91
 839 0243 B47F     		.sleb128 -76
 840 0245 00000000 		.4byte	0x0
 841 0249 00000000 		.4byte	0x0
ARM GAS  C:\Users\DNIEL~1\AppData\Local\Temp\ccurTtco.s 			page 16


 842              	.LLST17:
 843 024d 00000000 		.4byte	.LFB124
 844 0251 02000000 		.4byte	.LCFI11
 845 0255 0200     		.2byte	0x2
 846 0257 7D       		.byte	0x7d
 847 0258 00       		.sleb128 0
 848 0259 02000000 		.4byte	.LCFI11
 849 025d 04000000 		.4byte	.LCFI12
 850 0261 0200     		.2byte	0x2
 851 0263 7D       		.byte	0x7d
 852 0264 04       		.sleb128 4
 853 0265 04000000 		.4byte	.LCFI12
 854 0269 44000000 		.4byte	.LFE124
 855 026d 0300     		.2byte	0x3
 856 026f 7D       		.byte	0x7d
 857 0270 C800     		.sleb128 72
 858 0272 00000000 		.4byte	0x0
 859 0276 00000000 		.4byte	0x0
 860              	.LLST18:
 861 027a 00000000 		.4byte	.LVL24
 862 027e 15000000 		.4byte	.LVL25-1
 863 0282 0100     		.2byte	0x1
 864 0284 50       		.byte	0x50
 865 0285 00000000 		.4byte	0x0
 866 0289 00000000 		.4byte	0x0
 867              	.LLST19:
 868 028d 00000000 		.4byte	.LVL24
 869 0291 26000000 		.4byte	.LVL26
 870 0295 0A00     		.2byte	0xa
 871 0297 9E       		.byte	0x9e
 872 0298 08       		.uleb128 0x8
 873 0299 00000000 		.8byte	0x0
 873      00000000 
 874 02a1 00000000 		.4byte	0x0
 875 02a5 00000000 		.4byte	0x0
 876              		.file 2 "c:\\program files (x86)\\codesourcery\\sourcery g++ lite\\bin\\../lib/gcc/arm-none-eabi/4
 877              		.file 3 "c:\\program files (x86)\\codesourcery\\sourcery g++ lite\\bin\\../lib/gcc/arm-none-eabi/4
 878              		.file 4 "c:\\program files (x86)\\codesourcery\\sourcery g++ lite\\bin\\../lib/gcc/arm-none-eabi/4
 879              		.file 5 "../../../ChibiOS/os/ports/GCC/ARMCMx/chtypes.h"
 880              		.file 6 "../../../ChibiOS/os/hal/platforms/STM32F4xx/stm32f4xx.h"
 881              		.file 7 "../../../ChibiOS/os/hal/include/rtc.h"
 882              		.file 8 "../../../ChibiOS/os/hal/platforms/STM32/RTCv2/rtc_lld.h"
 883              		.file 9 "../../../ChibiOS/os/ports/common/ARMCMx/CMSIS/include/core_cm4.h"
 884              		.section	.debug_info
 885 0000 C0060000 		.4byte	0x6c0
 886 0004 0200     		.2byte	0x2
 887 0006 00000000 		.4byte	.Ldebug_abbrev0
 888 000a 04       		.byte	0x4
 889 000b 01       		.uleb128 0x1
 890 000c 84020000 		.4byte	.LASF81
 891 0010 01       		.byte	0x1
 892 0011 F2020000 		.4byte	.LASF82
 893 0015 3F020000 		.4byte	.LASF83
 894 0019 00000000 		.4byte	0x0
 895 001d 00000000 		.4byte	0x0
 896 0021 00000000 		.4byte	.Ldebug_ranges0+0x0
 897 0025 00000000 		.4byte	.Ldebug_line0
ARM GAS  C:\Users\DNIEL~1\AppData\Local\Temp\ccurTtco.s 			page 17


 898 0029 02       		.uleb128 0x2
 899 002a 01       		.byte	0x1
 900 002b 06       		.byte	0x6
 901 002c 3C010000 		.4byte	.LASF0
 902 0030 02       		.uleb128 0x2
 903 0031 01       		.byte	0x1
 904 0032 08       		.byte	0x8
 905 0033 21010000 		.4byte	.LASF1
 906 0037 02       		.uleb128 0x2
 907 0038 02       		.byte	0x2
 908 0039 05       		.byte	0x5
 909 003a 25000000 		.4byte	.LASF2
 910 003e 02       		.uleb128 0x2
 911 003f 02       		.byte	0x2
 912 0040 07       		.byte	0x7
 913 0041 8C010000 		.4byte	.LASF3
 914 0045 03       		.uleb128 0x3
 915 0046 04       		.byte	0x4
 916 0047 05       		.byte	0x5
 917 0048 696E7400 		.ascii	"int\000"
 918 004c 02       		.uleb128 0x2
 919 004d 04       		.byte	0x4
 920 004e 07       		.byte	0x7
 921 004f 6D010000 		.4byte	.LASF4
 922 0053 02       		.uleb128 0x2
 923 0054 08       		.byte	0x8
 924 0055 05       		.byte	0x5
 925 0056 B2000000 		.4byte	.LASF5
 926 005a 02       		.uleb128 0x2
 927 005b 08       		.byte	0x8
 928 005c 07       		.byte	0x7
 929 005d C0000000 		.4byte	.LASF6
 930 0061 02       		.uleb128 0x2
 931 0062 04       		.byte	0x4
 932 0063 05       		.byte	0x5
 933 0064 E3000000 		.4byte	.LASF7
 934 0068 02       		.uleb128 0x2
 935 0069 04       		.byte	0x4
 936 006a 07       		.byte	0x7
 937 006b 23020000 		.4byte	.LASF8
 938 006f 02       		.uleb128 0x2
 939 0070 01       		.byte	0x1
 940 0071 08       		.byte	0x8
 941 0072 DE000000 		.4byte	.LASF9
 942 0076 04       		.uleb128 0x4
 943 0077 6D000000 		.4byte	.LASF21
 944 007b 03       		.byte	0x3
 945 007c 6D       		.byte	0x6d
 946 007d 61000000 		.4byte	0x61
 947 0081 05       		.uleb128 0x5
 948 0082 746D00   		.ascii	"tm\000"
 949 0085 2C       		.byte	0x2c
 950 0086 02       		.byte	0x2
 951 0087 2C       		.byte	0x2c
 952 0088 27010000 		.4byte	0x127
 953 008c 06       		.uleb128 0x6
 954 008d DA020000 		.4byte	.LASF10
ARM GAS  C:\Users\DNIEL~1\AppData\Local\Temp\ccurTtco.s 			page 18


 955 0091 02       		.byte	0x2
 956 0092 2E       		.byte	0x2e
 957 0093 45000000 		.4byte	0x45
 958 0097 02       		.byte	0x2
 959 0098 23       		.byte	0x23
 960 0099 00       		.uleb128 0x0
 961 009a 06       		.uleb128 0x6
 962 009b 04020000 		.4byte	.LASF11
 963 009f 02       		.byte	0x2
 964 00a0 2F       		.byte	0x2f
 965 00a1 45000000 		.4byte	0x45
 966 00a5 02       		.byte	0x2
 967 00a6 23       		.byte	0x23
 968 00a7 04       		.uleb128 0x4
 969 00a8 06       		.uleb128 0x6
 970 00a9 8A000000 		.4byte	.LASF12
 971 00ad 02       		.byte	0x2
 972 00ae 30       		.byte	0x30
 973 00af 45000000 		.4byte	0x45
 974 00b3 02       		.byte	0x2
 975 00b4 23       		.byte	0x23
 976 00b5 08       		.uleb128 0x8
 977 00b6 06       		.uleb128 0x6
 978 00b7 00000000 		.4byte	.LASF13
 979 00bb 02       		.byte	0x2
 980 00bc 31       		.byte	0x31
 981 00bd 45000000 		.4byte	0x45
 982 00c1 02       		.byte	0x2
 983 00c2 23       		.byte	0x23
 984 00c3 0C       		.uleb128 0xc
 985 00c4 06       		.uleb128 0x6
 986 00c5 AB000000 		.4byte	.LASF14
 987 00c9 02       		.byte	0x2
 988 00ca 32       		.byte	0x32
 989 00cb 45000000 		.4byte	0x45
 990 00cf 02       		.byte	0x2
 991 00d0 23       		.byte	0x23
 992 00d1 10       		.uleb128 0x10
 993 00d2 06       		.uleb128 0x6
 994 00d3 48010000 		.4byte	.LASF15
 995 00d7 02       		.byte	0x2
 996 00d8 33       		.byte	0x33
 997 00d9 45000000 		.4byte	0x45
 998 00dd 02       		.byte	0x2
 999 00de 23       		.byte	0x23
 1000 00df 14       		.uleb128 0x14
 1001 00e0 06       		.uleb128 0x6
 1002 00e1 5E000000 		.4byte	.LASF16
 1003 00e5 02       		.byte	0x2
 1004 00e6 34       		.byte	0x34
 1005 00e7 45000000 		.4byte	0x45
 1006 00eb 02       		.byte	0x2
 1007 00ec 23       		.byte	0x23
 1008 00ed 18       		.uleb128 0x18
 1009 00ee 06       		.uleb128 0x6
 1010 00ef CD010000 		.4byte	.LASF17
 1011 00f3 02       		.byte	0x2
ARM GAS  C:\Users\DNIEL~1\AppData\Local\Temp\ccurTtco.s 			page 19


 1012 00f4 35       		.byte	0x35
 1013 00f5 45000000 		.4byte	0x45
 1014 00f9 02       		.byte	0x2
 1015 00fa 23       		.byte	0x23
 1016 00fb 1C       		.uleb128 0x1c
 1017 00fc 06       		.uleb128 0x6
 1018 00fd 12020000 		.4byte	.LASF18
 1019 0101 02       		.byte	0x2
 1020 0102 36       		.byte	0x36
 1021 0103 45000000 		.4byte	0x45
 1022 0107 02       		.byte	0x2
 1023 0108 23       		.byte	0x23
 1024 0109 20       		.uleb128 0x20
 1025 010a 06       		.uleb128 0x6
 1026 010b E4010000 		.4byte	.LASF19
 1027 010f 02       		.byte	0x2
 1028 0110 37       		.byte	0x37
 1029 0111 45000000 		.4byte	0x45
 1030 0115 02       		.byte	0x2
 1031 0116 23       		.byte	0x23
 1032 0117 24       		.uleb128 0x24
 1033 0118 06       		.uleb128 0x6
 1034 0119 EE010000 		.4byte	.LASF20
 1035 011d 02       		.byte	0x2
 1036 011e 38       		.byte	0x38
 1037 011f 45000000 		.4byte	0x45
 1038 0123 02       		.byte	0x2
 1039 0124 23       		.byte	0x23
 1040 0125 28       		.uleb128 0x28
 1041 0126 00       		.byte	0x0
 1042 0127 04       		.uleb128 0x4
 1043 0128 BE010000 		.4byte	.LASF22
 1044 012c 04       		.byte	0x4
 1045 012d 4F       		.byte	0x4f
 1046 012e 61000000 		.4byte	0x61
 1047 0132 04       		.uleb128 0x4
 1048 0133 5D010000 		.4byte	.LASF23
 1049 0137 04       		.byte	0x4
 1050 0138 50       		.byte	0x50
 1051 0139 68000000 		.4byte	0x68
 1052 013d 04       		.uleb128 0x4
 1053 013e 1C000000 		.4byte	.LASF24
 1054 0142 04       		.byte	0x4
 1055 0143 78       		.byte	0x78
 1056 0144 5A000000 		.4byte	0x5a
 1057 0148 04       		.uleb128 0x4
 1058 0149 C6010000 		.4byte	.LASF25
 1059 014d 05       		.byte	0x5
 1060 014e 2B       		.byte	0x2b
 1061 014f 53010000 		.4byte	0x153
 1062 0153 02       		.uleb128 0x2
 1063 0154 01       		.byte	0x1
 1064 0155 02       		.byte	0x2
 1065 0156 DE010000 		.4byte	.LASF26
 1066 015a 07       		.uleb128 0x7
 1067 015b 32010000 		.4byte	0x132
 1068 015f 07       		.uleb128 0x7
ARM GAS  C:\Users\DNIEL~1\AppData\Local\Temp\ccurTtco.s 			page 20


 1069 0160 27010000 		.4byte	0x127
 1070 0164 08       		.uleb128 0x8
 1071 0165 A0       		.byte	0xa0
 1072 0166 06       		.byte	0x6
 1073 0167 8104     		.2byte	0x481
 1074 0169 CB030000 		.4byte	0x3cb
 1075 016d 09       		.uleb128 0x9
 1076 016e 545200   		.ascii	"TR\000"
 1077 0171 06       		.byte	0x6
 1078 0172 8304     		.2byte	0x483
 1079 0174 5A010000 		.4byte	0x15a
 1080 0178 02       		.byte	0x2
 1081 0179 23       		.byte	0x23
 1082 017a 00       		.uleb128 0x0
 1083 017b 09       		.uleb128 0x9
 1084 017c 445200   		.ascii	"DR\000"
 1085 017f 06       		.byte	0x6
 1086 0180 8404     		.2byte	0x484
 1087 0182 5A010000 		.4byte	0x15a
 1088 0186 02       		.byte	0x2
 1089 0187 23       		.byte	0x23
 1090 0188 04       		.uleb128 0x4
 1091 0189 09       		.uleb128 0x9
 1092 018a 435200   		.ascii	"CR\000"
 1093 018d 06       		.byte	0x6
 1094 018e 8504     		.2byte	0x485
 1095 0190 5A010000 		.4byte	0x15a
 1096 0194 02       		.byte	0x2
 1097 0195 23       		.byte	0x23
 1098 0196 08       		.uleb128 0x8
 1099 0197 09       		.uleb128 0x9
 1100 0198 49535200 		.ascii	"ISR\000"
 1101 019c 06       		.byte	0x6
 1102 019d 8604     		.2byte	0x486
 1103 019f 5A010000 		.4byte	0x15a
 1104 01a3 02       		.byte	0x2
 1105 01a4 23       		.byte	0x23
 1106 01a5 0C       		.uleb128 0xc
 1107 01a6 0A       		.uleb128 0xa
 1108 01a7 21030000 		.4byte	.LASF27
 1109 01ab 06       		.byte	0x6
 1110 01ac 8704     		.2byte	0x487
 1111 01ae 5A010000 		.4byte	0x15a
 1112 01b2 02       		.byte	0x2
 1113 01b3 23       		.byte	0x23
 1114 01b4 10       		.uleb128 0x10
 1115 01b5 0A       		.uleb128 0xa
 1116 01b6 59000000 		.4byte	.LASF28
 1117 01ba 06       		.byte	0x6
 1118 01bb 8804     		.2byte	0x488
 1119 01bd 5A010000 		.4byte	0x15a
 1120 01c1 02       		.byte	0x2
 1121 01c2 23       		.byte	0x23
 1122 01c3 14       		.uleb128 0x14
 1123 01c4 0A       		.uleb128 0xa
 1124 01c5 D7000000 		.4byte	.LASF29
 1125 01c9 06       		.byte	0x6
ARM GAS  C:\Users\DNIEL~1\AppData\Local\Temp\ccurTtco.s 			page 21


 1126 01ca 8904     		.2byte	0x489
 1127 01cc 5A010000 		.4byte	0x15a
 1128 01d0 02       		.byte	0x2
 1129 01d1 23       		.byte	0x23
 1130 01d2 18       		.uleb128 0x18
 1131 01d3 0A       		.uleb128 0xa
 1132 01d4 66010000 		.4byte	.LASF30
 1133 01d8 06       		.byte	0x6
 1134 01d9 8A04     		.2byte	0x48a
 1135 01db 5A010000 		.4byte	0x15a
 1136 01df 02       		.byte	0x2
 1137 01e0 23       		.byte	0x23
 1138 01e1 1C       		.uleb128 0x1c
 1139 01e2 0A       		.uleb128 0xa
 1140 01e3 90020000 		.4byte	.LASF31
 1141 01e7 06       		.byte	0x6
 1142 01e8 8B04     		.2byte	0x48b
 1143 01ea 5A010000 		.4byte	0x15a
 1144 01ee 02       		.byte	0x2
 1145 01ef 23       		.byte	0x23
 1146 01f0 20       		.uleb128 0x20
 1147 01f1 09       		.uleb128 0x9
 1148 01f2 57505200 		.ascii	"WPR\000"
 1149 01f6 06       		.byte	0x6
 1150 01f7 8C04     		.2byte	0x48c
 1151 01f9 5A010000 		.4byte	0x15a
 1152 01fd 02       		.byte	0x2
 1153 01fe 23       		.byte	0x23
 1154 01ff 24       		.uleb128 0x24
 1155 0200 09       		.uleb128 0x9
 1156 0201 53535200 		.ascii	"SSR\000"
 1157 0205 06       		.byte	0x6
 1158 0206 8D04     		.2byte	0x48d
 1159 0208 5A010000 		.4byte	0x15a
 1160 020c 02       		.byte	0x2
 1161 020d 23       		.byte	0x23
 1162 020e 28       		.uleb128 0x28
 1163 020f 0A       		.uleb128 0xa
 1164 0210 7A010000 		.4byte	.LASF32
 1165 0214 06       		.byte	0x6
 1166 0215 8E04     		.2byte	0x48e
 1167 0217 5A010000 		.4byte	0x15a
 1168 021b 02       		.byte	0x2
 1169 021c 23       		.byte	0x23
 1170 021d 2C       		.uleb128 0x2c
 1171 021e 0A       		.uleb128 0xa
 1172 021f 87010000 		.4byte	.LASF33
 1173 0223 06       		.byte	0x6
 1174 0224 8F04     		.2byte	0x48f
 1175 0226 5A010000 		.4byte	0x15a
 1176 022a 02       		.byte	0x2
 1177 022b 23       		.byte	0x23
 1178 022c 30       		.uleb128 0x30
 1179 022d 0A       		.uleb128 0xa
 1180 022e 7B000000 		.4byte	.LASF34
 1181 0232 06       		.byte	0x6
 1182 0233 9004     		.2byte	0x490
ARM GAS  C:\Users\DNIEL~1\AppData\Local\Temp\ccurTtco.s 			page 22


 1183 0235 5A010000 		.4byte	0x15a
 1184 0239 02       		.byte	0x2
 1185 023a 23       		.byte	0x23
 1186 023b 34       		.uleb128 0x34
 1187 023c 0A       		.uleb128 0xa
 1188 023d B6020000 		.4byte	.LASF35
 1189 0241 06       		.byte	0x6
 1190 0242 9104     		.2byte	0x491
 1191 0244 5A010000 		.4byte	0x15a
 1192 0248 02       		.byte	0x2
 1193 0249 23       		.byte	0x23
 1194 024a 38       		.uleb128 0x38
 1195 024b 0A       		.uleb128 0xa
 1196 024c 54000000 		.4byte	.LASF36
 1197 0250 06       		.byte	0x6
 1198 0251 9204     		.2byte	0x492
 1199 0253 5A010000 		.4byte	0x15a
 1200 0257 02       		.byte	0x2
 1201 0258 23       		.byte	0x23
 1202 0259 3C       		.uleb128 0x3c
 1203 025a 0A       		.uleb128 0xa
 1204 025b 1B010000 		.4byte	.LASF37
 1205 025f 06       		.byte	0x6
 1206 0260 9304     		.2byte	0x493
 1207 0262 5A010000 		.4byte	0x15a
 1208 0266 02       		.byte	0x2
 1209 0267 23       		.byte	0x23
 1210 0268 40       		.uleb128 0x40
 1211 0269 0A       		.uleb128 0xa
 1212 026a 0B010000 		.4byte	.LASF38
 1213 026e 06       		.byte	0x6
 1214 026f 9404     		.2byte	0x494
 1215 0271 5A010000 		.4byte	0x15a
 1216 0275 02       		.byte	0x2
 1217 0276 23       		.byte	0x23
 1218 0277 44       		.uleb128 0x44
 1219 0278 0A       		.uleb128 0xa
 1220 0279 D5010000 		.4byte	.LASF39
 1221 027d 06       		.byte	0x6
 1222 027e 9504     		.2byte	0x495
 1223 0280 5A010000 		.4byte	0x15a
 1224 0284 02       		.byte	0x2
 1225 0285 23       		.byte	0x23
 1226 0286 48       		.uleb128 0x48
 1227 0287 0A       		.uleb128 0xa
 1228 0288 35020000 		.4byte	.LASF40
 1229 028c 06       		.byte	0x6
 1230 028d 9604     		.2byte	0x496
 1231 028f 32010000 		.4byte	0x132
 1232 0293 02       		.byte	0x2
 1233 0294 23       		.byte	0x23
 1234 0295 4C       		.uleb128 0x4c
 1235 0296 0A       		.uleb128 0xa
 1236 0297 36010000 		.4byte	.LASF41
 1237 029b 06       		.byte	0x6
 1238 029c 9704     		.2byte	0x497
 1239 029e 5A010000 		.4byte	0x15a
ARM GAS  C:\Users\DNIEL~1\AppData\Local\Temp\ccurTtco.s 			page 23


 1240 02a2 02       		.byte	0x2
 1241 02a3 23       		.byte	0x23
 1242 02a4 50       		.uleb128 0x50
 1243 02a5 0A       		.uleb128 0xa
 1244 02a6 7E020000 		.4byte	.LASF42
 1245 02aa 06       		.byte	0x6
 1246 02ab 9804     		.2byte	0x498
 1247 02ad 5A010000 		.4byte	0x15a
 1248 02b1 02       		.byte	0x2
 1249 02b2 23       		.byte	0x23
 1250 02b3 54       		.uleb128 0x54
 1251 02b4 0A       		.uleb128 0xa
 1252 02b5 0F000000 		.4byte	.LASF43
 1253 02b9 06       		.byte	0x6
 1254 02ba 9904     		.2byte	0x499
 1255 02bc 5A010000 		.4byte	0x15a
 1256 02c0 02       		.byte	0x2
 1257 02c1 23       		.byte	0x23
 1258 02c2 58       		.uleb128 0x58
 1259 02c3 0A       		.uleb128 0xa
 1260 02c4 92000000 		.4byte	.LASF44
 1261 02c8 06       		.byte	0x6
 1262 02c9 9A04     		.2byte	0x49a
 1263 02cb 5A010000 		.4byte	0x15a
 1264 02cf 02       		.byte	0x2
 1265 02d0 23       		.byte	0x23
 1266 02d1 5C       		.uleb128 0x5c
 1267 02d2 0A       		.uleb128 0xa
 1268 02d3 81010000 		.4byte	.LASF45
 1269 02d7 06       		.byte	0x6
 1270 02d8 9B04     		.2byte	0x49b
 1271 02da 5A010000 		.4byte	0x15a
 1272 02de 02       		.byte	0x2
 1273 02df 23       		.byte	0x23
 1274 02e0 60       		.uleb128 0x60
 1275 02e1 0A       		.uleb128 0xa
 1276 02e2 97020000 		.4byte	.LASF46
 1277 02e6 06       		.byte	0x6
 1278 02e7 9C04     		.2byte	0x49c
 1279 02e9 5A010000 		.4byte	0x15a
 1280 02ed 02       		.byte	0x2
 1281 02ee 23       		.byte	0x23
 1282 02ef 64       		.uleb128 0x64
 1283 02f0 0A       		.uleb128 0xa
 1284 02f1 3C000000 		.4byte	.LASF47
 1285 02f5 06       		.byte	0x6
 1286 02f6 9D04     		.2byte	0x49d
 1287 02f8 5A010000 		.4byte	0x15a
 1288 02fc 02       		.byte	0x2
 1289 02fd 23       		.byte	0x23
 1290 02fe 68       		.uleb128 0x68
 1291 02ff 0A       		.uleb128 0xa
 1292 0300 05010000 		.4byte	.LASF48
 1293 0304 06       		.byte	0x6
 1294 0305 9E04     		.2byte	0x49e
 1295 0307 5A010000 		.4byte	0x15a
 1296 030b 02       		.byte	0x2
ARM GAS  C:\Users\DNIEL~1\AppData\Local\Temp\ccurTtco.s 			page 24


 1297 030c 23       		.byte	0x23
 1298 030d 6C       		.uleb128 0x6c
 1299 030e 0A       		.uleb128 0xa
 1300 030f B8010000 		.4byte	.LASF49
 1301 0313 06       		.byte	0x6
 1302 0314 9F04     		.2byte	0x49f
 1303 0316 5A010000 		.4byte	0x15a
 1304 031a 02       		.byte	0x2
 1305 031b 23       		.byte	0x23
 1306 031c 70       		.uleb128 0x70
 1307 031d 0A       		.uleb128 0xa
 1308 031e D4020000 		.4byte	.LASF50
 1309 0322 06       		.byte	0x6
 1310 0323 A004     		.2byte	0x4a0
 1311 0325 5A010000 		.4byte	0x15a
 1312 0329 02       		.byte	0x2
 1313 032a 23       		.byte	0x23
 1314 032b 74       		.uleb128 0x74
 1315 032c 0A       		.uleb128 0xa
 1316 032d EC000000 		.4byte	.LASF51
 1317 0331 06       		.byte	0x6
 1318 0332 A104     		.2byte	0x4a1
 1319 0334 5A010000 		.4byte	0x15a
 1320 0338 02       		.byte	0x2
 1321 0339 23       		.byte	0x23
 1322 033a 78       		.uleb128 0x78
 1323 033b 0A       		.uleb128 0xa
 1324 033c A4010000 		.4byte	.LASF52
 1325 0340 06       		.byte	0x6
 1326 0341 A204     		.2byte	0x4a2
 1327 0343 5A010000 		.4byte	0x15a
 1328 0347 02       		.byte	0x2
 1329 0348 23       		.byte	0x23
 1330 0349 7C       		.uleb128 0x7c
 1331 034a 0A       		.uleb128 0xa
 1332 034b BC020000 		.4byte	.LASF53
 1333 034f 06       		.byte	0x6
 1334 0350 A304     		.2byte	0x4a3
 1335 0352 5A010000 		.4byte	0x15a
 1336 0356 03       		.byte	0x3
 1337 0357 23       		.byte	0x23
 1338 0358 8001     		.uleb128 0x80
 1339 035a 0A       		.uleb128 0xa
 1340 035b 66000000 		.4byte	.LASF54
 1341 035f 06       		.byte	0x6
 1342 0360 A404     		.2byte	0x4a4
 1343 0362 5A010000 		.4byte	0x15a
 1344 0366 03       		.byte	0x3
 1345 0367 23       		.byte	0x23
 1346 0368 8401     		.uleb128 0x84
 1347 036a 0A       		.uleb128 0xa
 1348 036b 14010000 		.4byte	.LASF55
 1349 036f 06       		.byte	0x6
 1350 0370 A504     		.2byte	0x4a5
 1351 0372 5A010000 		.4byte	0x15a
 1352 0376 03       		.byte	0x3
 1353 0377 23       		.byte	0x23
ARM GAS  C:\Users\DNIEL~1\AppData\Local\Temp\ccurTtco.s 			page 25


 1354 0378 8801     		.uleb128 0x88
 1355 037a 0A       		.uleb128 0xa
 1356 037b 26030000 		.4byte	.LASF56
 1357 037f 06       		.byte	0x6
 1358 0380 A604     		.2byte	0x4a6
 1359 0382 5A010000 		.4byte	0x15a
 1360 0386 03       		.byte	0x3
 1361 0387 23       		.byte	0x23
 1362 0388 8C01     		.uleb128 0x8c
 1363 038a 0A       		.uleb128 0xa
 1364 038b 2D030000 		.4byte	.LASF57
 1365 038f 06       		.byte	0x6
 1366 0390 A704     		.2byte	0x4a7
 1367 0392 5A010000 		.4byte	0x15a
 1368 0396 03       		.byte	0x3
 1369 0397 23       		.byte	0x23
 1370 0398 9001     		.uleb128 0x90
 1371 039a 0A       		.uleb128 0xa
 1372 039b 74000000 		.4byte	.LASF58
 1373 039f 06       		.byte	0x6
 1374 03a0 A804     		.2byte	0x4a8
 1375 03a2 5A010000 		.4byte	0x15a
 1376 03a6 03       		.byte	0x3
 1377 03a7 23       		.byte	0x23
 1378 03a8 9401     		.uleb128 0x94
 1379 03aa 0A       		.uleb128 0xa
 1380 03ab 2F010000 		.4byte	.LASF59
 1381 03af 06       		.byte	0x6
 1382 03b0 A904     		.2byte	0x4a9
 1383 03b2 5A010000 		.4byte	0x15a
 1384 03b6 03       		.byte	0x3
 1385 03b7 23       		.byte	0x23
 1386 03b8 9801     		.uleb128 0x98
 1387 03ba 0A       		.uleb128 0xa
 1388 03bb 77020000 		.4byte	.LASF60
 1389 03bf 06       		.byte	0x6
 1390 03c0 AA04     		.2byte	0x4aa
 1391 03c2 5A010000 		.4byte	0x15a
 1392 03c6 03       		.byte	0x3
 1393 03c7 23       		.byte	0x23
 1394 03c8 9C01     		.uleb128 0x9c
 1395 03ca 00       		.byte	0x0
 1396 03cb 0B       		.uleb128 0xb
 1397 03cc F8010000 		.4byte	.LASF61
 1398 03d0 06       		.byte	0x6
 1399 03d1 AB04     		.2byte	0x4ab
 1400 03d3 64010000 		.4byte	0x164
 1401 03d7 04       		.uleb128 0x4
 1402 03d8 80000000 		.4byte	.LASF62
 1403 03dc 07       		.byte	0x7
 1404 03dd 4C       		.byte	0x4c
 1405 03de E2030000 		.4byte	0x3e2
 1406 03e2 0C       		.uleb128 0xc
 1407 03e3 80000000 		.4byte	.LASF62
 1408 03e7 04       		.byte	0x4
 1409 03e8 08       		.byte	0x8
 1410 03e9 B5       		.byte	0xb5
ARM GAS  C:\Users\DNIEL~1\AppData\Local\Temp\ccurTtco.s 			page 26


 1411 03ea FD030000 		.4byte	0x3fd
 1412 03ee 06       		.uleb128 0x6
 1413 03ef 0B020000 		.4byte	.LASF63
 1414 03f3 08       		.byte	0x8
 1415 03f4 B9       		.byte	0xb9
 1416 03f5 4D040000 		.4byte	0x44d
 1417 03f9 02       		.byte	0x2
 1418 03fa 23       		.byte	0x23
 1419 03fb 00       		.uleb128 0x0
 1420 03fc 00       		.byte	0x0
 1421 03fd 04       		.uleb128 0x4
 1422 03fe 9D020000 		.4byte	.LASF64
 1423 0402 07       		.byte	0x7
 1424 0403 51       		.byte	0x51
 1425 0404 08040000 		.4byte	0x408
 1426 0408 0C       		.uleb128 0xc
 1427 0409 9D020000 		.4byte	.LASF64
 1428 040d 10       		.byte	0x10
 1429 040e 08       		.byte	0x8
 1430 040f 83       		.byte	0x83
 1431 0410 4D040000 		.4byte	0x44d
 1432 0414 06       		.uleb128 0x6
 1433 0415 19030000 		.4byte	.LASF65
 1434 0419 08       		.byte	0x8
 1435 041a 87       		.byte	0x87
 1436 041b 32010000 		.4byte	0x132
 1437 041f 02       		.byte	0x2
 1438 0420 23       		.byte	0x23
 1439 0421 00       		.uleb128 0x0
 1440 0422 06       		.uleb128 0x6
 1441 0423 A5020000 		.4byte	.LASF66
 1442 0427 08       		.byte	0x8
 1443 0428 8B       		.byte	0x8b
 1444 0429 32010000 		.4byte	0x132
 1445 042d 02       		.byte	0x2
 1446 042e 23       		.byte	0x23
 1447 042f 04       		.uleb128 0x4
 1448 0430 0D       		.uleb128 0xd
 1449 0431 68313200 		.ascii	"h12\000"
 1450 0435 08       		.byte	0x8
 1451 0436 8F       		.byte	0x8f
 1452 0437 48010000 		.4byte	0x148
 1453 043b 02       		.byte	0x2
 1454 043c 23       		.byte	0x23
 1455 043d 08       		.uleb128 0x8
 1456 043e 06       		.uleb128 0x6
 1457 043f 1B020000 		.4byte	.LASF67
 1458 0443 08       		.byte	0x8
 1459 0444 94       		.byte	0x94
 1460 0445 32010000 		.4byte	0x132
 1461 0449 02       		.byte	0x2
 1462 044a 23       		.byte	0x23
 1463 044b 0C       		.uleb128 0xc
 1464 044c 00       		.byte	0x0
 1465 044d 0E       		.uleb128 0xe
 1466 044e 04       		.byte	0x4
 1467 044f CB030000 		.4byte	0x3cb
ARM GAS  C:\Users\DNIEL~1\AppData\Local\Temp\ccurTtco.s 			page 27


 1468 0453 0F       		.uleb128 0xf
 1469 0454 E1020000 		.4byte	.LASF70
 1470 0458 01       		.byte	0x1
 1471 0459 34       		.byte	0x34
 1472 045a 01       		.byte	0x1
 1473 045b 01       		.byte	0x1
 1474 045c 8D040000 		.4byte	0x48d
 1475 0460 10       		.uleb128 0x10
 1476 0461 9F010000 		.4byte	.LASF68
 1477 0465 01       		.byte	0x1
 1478 0466 34       		.byte	0x34
 1479 0467 8D040000 		.4byte	0x48d
 1480 046b 10       		.uleb128 0x10
 1481 046c AD020000 		.4byte	.LASF69
 1482 0470 01       		.byte	0x1
 1483 0471 34       		.byte	0x34
 1484 0472 93040000 		.4byte	0x493
 1485 0476 11       		.uleb128 0x11
 1486 0477 A5020000 		.4byte	.LASF66
 1487 047b 01       		.byte	0x1
 1488 047c 35       		.byte	0x35
 1489 047d 32010000 		.4byte	0x132
 1490 0481 11       		.uleb128 0x11
 1491 0482 19030000 		.4byte	.LASF65
 1492 0486 01       		.byte	0x1
 1493 0487 36       		.byte	0x36
 1494 0488 32010000 		.4byte	0x132
 1495 048c 00       		.byte	0x0
 1496 048d 0E       		.uleb128 0xe
 1497 048e 04       		.byte	0x4
 1498 048f 81000000 		.4byte	0x81
 1499 0493 0E       		.uleb128 0xe
 1500 0494 04       		.byte	0x4
 1501 0495 FD030000 		.4byte	0x3fd
 1502 0499 0F       		.uleb128 0xf
 1503 049a C3020000 		.4byte	.LASF71
 1504 049e 01       		.byte	0x1
 1505 049f 68       		.byte	0x68
 1506 04a0 01       		.byte	0x1
 1507 04a1 01       		.byte	0x1
 1508 04a2 C6040000 		.4byte	0x4c6
 1509 04a6 10       		.uleb128 0x10
 1510 04a7 9F010000 		.4byte	.LASF68
 1511 04ab 01       		.byte	0x1
 1512 04ac 68       		.byte	0x68
 1513 04ad 8D040000 		.4byte	0x48d
 1514 04b1 10       		.uleb128 0x10
 1515 04b2 AD020000 		.4byte	.LASF69
 1516 04b6 01       		.byte	0x1
 1517 04b7 68       		.byte	0x68
 1518 04b8 93040000 		.4byte	0x493
 1519 04bc 12       		.uleb128 0x12
 1520 04bd 7600     		.ascii	"v\000"
 1521 04bf 01       		.byte	0x1
 1522 04c0 69       		.byte	0x69
 1523 04c1 32010000 		.4byte	0x132
 1524 04c5 00       		.byte	0x0
ARM GAS  C:\Users\DNIEL~1\AppData\Local\Temp\ccurTtco.s 			page 28


 1525 04c6 13       		.uleb128 0x13
 1526 04c7 53040000 		.4byte	0x453
 1527 04cb 00000000 		.4byte	.LFB125
 1528 04cf A4000000 		.4byte	.LFE125
 1529 04d3 00000000 		.4byte	.LLST0
 1530 04d7 F5040000 		.4byte	0x4f5
 1531 04db 14       		.uleb128 0x14
 1532 04dc 60040000 		.4byte	0x460
 1533 04e0 01       		.byte	0x1
 1534 04e1 50       		.byte	0x50
 1535 04e2 15       		.uleb128 0x15
 1536 04e3 76040000 		.4byte	0x476
 1537 04e7 20000000 		.4byte	.LLST1
 1538 04eb 15       		.uleb128 0x15
 1539 04ec 81040000 		.4byte	0x481
 1540 04f0 33000000 		.4byte	.LLST2
 1541 04f4 00       		.byte	0x0
 1542 04f5 13       		.uleb128 0x13
 1543 04f6 99040000 		.4byte	0x499
 1544 04fa 00000000 		.4byte	.LFB126
 1545 04fe 1C010000 		.4byte	.LFE126
 1546 0502 46000000 		.4byte	.LLST3
 1547 0506 1D050000 		.4byte	0x51d
 1548 050a 16       		.uleb128 0x16
 1549 050b A6040000 		.4byte	0x4a6
 1550 050f 72000000 		.4byte	.LLST4
 1551 0513 15       		.uleb128 0x15
 1552 0514 BC040000 		.4byte	0x4bc
 1553 0518 90000000 		.4byte	.LLST5
 1554 051c 00       		.byte	0x0
 1555 051d 17       		.uleb128 0x17
 1556 051e 01       		.byte	0x1
 1557 051f 2F000000 		.4byte	.LASF73
 1558 0523 01       		.byte	0x1
 1559 0524 95       		.byte	0x95
 1560 0525 01       		.byte	0x1
 1561 0526 00000000 		.4byte	.LFB120
 1562 052a 26000000 		.4byte	.LFE120
 1563 052e DD000000 		.4byte	.LLST6
 1564 0532 63050000 		.4byte	0x563
 1565 0536 18       		.uleb128 0x18
 1566 0537 72020000 		.4byte	.LASF72
 1567 053b 01       		.byte	0x1
 1568 053c 95       		.byte	0x95
 1569 053d 63050000 		.4byte	0x563
 1570 0541 09010000 		.4byte	.LLST7
 1571 0545 18       		.uleb128 0x18
 1572 0546 9F010000 		.4byte	.LASF68
 1573 054a 01       		.byte	0x1
 1574 054b 95       		.byte	0x95
 1575 054c 8D040000 		.4byte	0x48d
 1576 0550 1C010000 		.4byte	.LLST8
 1577 0554 19       		.uleb128 0x19
 1578 0555 AD020000 		.4byte	.LASF69
 1579 0559 01       		.byte	0x1
 1580 055a 97       		.byte	0x97
 1581 055b FD030000 		.4byte	0x3fd
ARM GAS  C:\Users\DNIEL~1\AppData\Local\Temp\ccurTtco.s 			page 29


 1582 055f 02       		.byte	0x2
 1583 0560 91       		.byte	0x91
 1584 0561 68       		.sleb128 -24
 1585 0562 00       		.byte	0x0
 1586 0563 0E       		.uleb128 0xe
 1587 0564 04       		.byte	0x4
 1588 0565 D7030000 		.4byte	0x3d7
 1589 0569 17       		.uleb128 0x17
 1590 056a 01       		.byte	0x1
 1591 056b 50010000 		.4byte	.LASF74
 1592 056f 01       		.byte	0x1
 1593 0570 A8       		.byte	0xa8
 1594 0571 01       		.byte	0x1
 1595 0572 00000000 		.4byte	.LFB121
 1596 0576 2C000000 		.4byte	.LFE121
 1597 057a 3A010000 		.4byte	.LLST9
 1598 057e AF050000 		.4byte	0x5af
 1599 0582 18       		.uleb128 0x18
 1600 0583 72020000 		.4byte	.LASF72
 1601 0587 01       		.byte	0x1
 1602 0588 A8       		.byte	0xa8
 1603 0589 63050000 		.4byte	0x563
 1604 058d 66010000 		.4byte	.LLST10
 1605 0591 18       		.uleb128 0x18
 1606 0592 9F010000 		.4byte	.LASF68
 1607 0596 01       		.byte	0x1
 1608 0597 A8       		.byte	0xa8
 1609 0598 8D040000 		.4byte	0x48d
 1610 059c 84010000 		.4byte	.LLST11
 1611 05a0 19       		.uleb128 0x19
 1612 05a1 AD020000 		.4byte	.LASF69
 1613 05a5 01       		.byte	0x1
 1614 05a6 AA       		.byte	0xaa
 1615 05a7 FD030000 		.4byte	0x3fd
 1616 05ab 02       		.byte	0x2
 1617 05ac 91       		.byte	0x91
 1618 05ad 68       		.sleb128 -24
 1619 05ae 00       		.byte	0x0
 1620 05af 1A       		.uleb128 0x1a
 1621 05b0 01       		.byte	0x1
 1622 05b1 42000000 		.4byte	.LASF77
 1623 05b5 01       		.byte	0x1
 1624 05b6 BB       		.byte	0xbb
 1625 05b7 01       		.byte	0x1
 1626 05b8 76000000 		.4byte	0x76
 1627 05bc 00000000 		.4byte	.LFB122
 1628 05c0 2A000000 		.4byte	.LFE122
 1629 05c4 A2010000 		.4byte	.LLST12
 1630 05c8 F9050000 		.4byte	0x5f9
 1631 05cc 18       		.uleb128 0x18
 1632 05cd 72020000 		.4byte	.LASF72
 1633 05d1 01       		.byte	0x1
 1634 05d2 BB       		.byte	0xbb
 1635 05d3 63050000 		.4byte	0x563
 1636 05d7 CF010000 		.4byte	.LLST13
 1637 05db 19       		.uleb128 0x19
 1638 05dc AD020000 		.4byte	.LASF69
ARM GAS  C:\Users\DNIEL~1\AppData\Local\Temp\ccurTtco.s 			page 30


 1639 05e0 01       		.byte	0x1
 1640 05e1 BD       		.byte	0xbd
 1641 05e2 FD030000 		.4byte	0x3fd
 1642 05e6 02       		.byte	0x2
 1643 05e7 91       		.byte	0x91
 1644 05e8 68       		.sleb128 -24
 1645 05e9 19       		.uleb128 0x19
 1646 05ea 9F010000 		.4byte	.LASF68
 1647 05ee 01       		.byte	0x1
 1648 05ef C1       		.byte	0xc1
 1649 05f0 81000000 		.4byte	0x81
 1650 05f4 03       		.byte	0x3
 1651 05f5 91       		.byte	0x91
 1652 05f6 BC7F     		.sleb128 -68
 1653 05f8 00       		.byte	0x0
 1654 05f9 17       		.uleb128 0x17
 1655 05fa 01       		.byte	0x1
 1656 05fb F3000000 		.4byte	.LASF75
 1657 05ff 01       		.byte	0x1
 1658 0600 D2       		.byte	0xd2
 1659 0601 01       		.byte	0x1
 1660 0602 00000000 		.4byte	.LFB123
 1661 0606 32000000 		.4byte	.LFE123
 1662 060a E2010000 		.4byte	.LLST14
 1663 060e 4E060000 		.4byte	0x64e
 1664 0612 18       		.uleb128 0x18
 1665 0613 72020000 		.4byte	.LASF72
 1666 0617 01       		.byte	0x1
 1667 0618 D2       		.byte	0xd2
 1668 0619 63050000 		.4byte	0x563
 1669 061d 0F020000 		.4byte	.LLST15
 1670 0621 18       		.uleb128 0x18
 1671 0622 15000000 		.4byte	.LASF76
 1672 0626 01       		.byte	0x1
 1673 0627 D2       		.byte	0xd2
 1674 0628 76000000 		.4byte	0x76
 1675 062c 2D020000 		.4byte	.LLST16
 1676 0630 19       		.uleb128 0x19
 1677 0631 AD020000 		.4byte	.LASF69
 1678 0635 01       		.byte	0x1
 1679 0636 D4       		.byte	0xd4
 1680 0637 FD030000 		.4byte	0x3fd
 1681 063b 02       		.byte	0x2
 1682 063c 91       		.byte	0x91
 1683 063d 68       		.sleb128 -24
 1684 063e 19       		.uleb128 0x19
 1685 063f 9F010000 		.4byte	.LASF68
 1686 0643 01       		.byte	0x1
 1687 0644 D8       		.byte	0xd8
 1688 0645 81000000 		.4byte	0x81
 1689 0649 03       		.byte	0x3
 1690 064a 91       		.byte	0x91
 1691 064b BC7F     		.sleb128 -68
 1692 064d 00       		.byte	0x0
 1693 064e 1A       		.uleb128 0x1a
 1694 064f 01       		.byte	0x1
 1695 0650 98000000 		.4byte	.LASF78
ARM GAS  C:\Users\DNIEL~1\AppData\Local\Temp\ccurTtco.s 			page 31


 1696 0654 01       		.byte	0x1
 1697 0655 E7       		.byte	0xe7
 1698 0656 01       		.byte	0x1
 1699 0657 3D010000 		.4byte	0x13d
 1700 065b 00000000 		.4byte	.LFB124
 1701 065f 44000000 		.4byte	.LFE124
 1702 0663 4D020000 		.4byte	.LLST17
 1703 0667 A7060000 		.4byte	0x6a7
 1704 066b 18       		.uleb128 0x18
 1705 066c 72020000 		.4byte	.LASF72
 1706 0670 01       		.byte	0x1
 1707 0671 E7       		.byte	0xe7
 1708 0672 63050000 		.4byte	0x563
 1709 0676 7A020000 		.4byte	.LLST18
 1710 067a 1B       		.uleb128 0x1b
 1711 067b 08000000 		.4byte	.LASF79
 1712 067f 01       		.byte	0x1
 1713 0680 E9       		.byte	0xe9
 1714 0681 3D010000 		.4byte	0x13d
 1715 0685 8D020000 		.4byte	.LLST19
 1716 0689 19       		.uleb128 0x19
 1717 068a AD020000 		.4byte	.LASF69
 1718 068e 01       		.byte	0x1
 1719 068f EA       		.byte	0xea
 1720 0690 FD030000 		.4byte	0x3fd
 1721 0694 02       		.byte	0x2
 1722 0695 91       		.byte	0x91
 1723 0696 68       		.sleb128 -24
 1724 0697 19       		.uleb128 0x19
 1725 0698 9F010000 		.4byte	.LASF68
 1726 069c 01       		.byte	0x1
 1727 069d EB       		.byte	0xeb
 1728 069e 81000000 		.4byte	0x81
 1729 06a2 03       		.byte	0x3
 1730 06a3 91       		.byte	0x91
 1731 06a4 BC7F     		.sleb128 -68
 1732 06a6 00       		.byte	0x0
 1733 06a7 1C       		.uleb128 0x1c
 1734 06a8 AB010000 		.4byte	.LASF80
 1735 06ac 09       		.byte	0x9
 1736 06ad 9806     		.2byte	0x698
 1737 06af 5F010000 		.4byte	0x15f
 1738 06b3 01       		.byte	0x1
 1739 06b4 01       		.byte	0x1
 1740 06b5 1C       		.uleb128 0x1c
 1741 06b6 AB010000 		.4byte	.LASF80
 1742 06ba 09       		.byte	0x9
 1743 06bb 9806     		.2byte	0x698
 1744 06bd 5F010000 		.4byte	0x15f
 1745 06c1 01       		.byte	0x1
 1746 06c2 01       		.byte	0x1
 1747 06c3 00       		.byte	0x0
 1748              		.section	.debug_abbrev
 1749 0000 01       		.uleb128 0x1
 1750 0001 11       		.uleb128 0x11
 1751 0002 01       		.byte	0x1
 1752 0003 25       		.uleb128 0x25
ARM GAS  C:\Users\DNIEL~1\AppData\Local\Temp\ccurTtco.s 			page 32


 1753 0004 0E       		.uleb128 0xe
 1754 0005 13       		.uleb128 0x13
 1755 0006 0B       		.uleb128 0xb
 1756 0007 03       		.uleb128 0x3
 1757 0008 0E       		.uleb128 0xe
 1758 0009 1B       		.uleb128 0x1b
 1759 000a 0E       		.uleb128 0xe
 1760 000b 11       		.uleb128 0x11
 1761 000c 01       		.uleb128 0x1
 1762 000d 52       		.uleb128 0x52
 1763 000e 01       		.uleb128 0x1
 1764 000f 55       		.uleb128 0x55
 1765 0010 06       		.uleb128 0x6
 1766 0011 10       		.uleb128 0x10
 1767 0012 06       		.uleb128 0x6
 1768 0013 00       		.byte	0x0
 1769 0014 00       		.byte	0x0
 1770 0015 02       		.uleb128 0x2
 1771 0016 24       		.uleb128 0x24
 1772 0017 00       		.byte	0x0
 1773 0018 0B       		.uleb128 0xb
 1774 0019 0B       		.uleb128 0xb
 1775 001a 3E       		.uleb128 0x3e
 1776 001b 0B       		.uleb128 0xb
 1777 001c 03       		.uleb128 0x3
 1778 001d 0E       		.uleb128 0xe
 1779 001e 00       		.byte	0x0
 1780 001f 00       		.byte	0x0
 1781 0020 03       		.uleb128 0x3
 1782 0021 24       		.uleb128 0x24
 1783 0022 00       		.byte	0x0
 1784 0023 0B       		.uleb128 0xb
 1785 0024 0B       		.uleb128 0xb
 1786 0025 3E       		.uleb128 0x3e
 1787 0026 0B       		.uleb128 0xb
 1788 0027 03       		.uleb128 0x3
 1789 0028 08       		.uleb128 0x8
 1790 0029 00       		.byte	0x0
 1791 002a 00       		.byte	0x0
 1792 002b 04       		.uleb128 0x4
 1793 002c 16       		.uleb128 0x16
 1794 002d 00       		.byte	0x0
 1795 002e 03       		.uleb128 0x3
 1796 002f 0E       		.uleb128 0xe
 1797 0030 3A       		.uleb128 0x3a
 1798 0031 0B       		.uleb128 0xb
 1799 0032 3B       		.uleb128 0x3b
 1800 0033 0B       		.uleb128 0xb
 1801 0034 49       		.uleb128 0x49
 1802 0035 13       		.uleb128 0x13
 1803 0036 00       		.byte	0x0
 1804 0037 00       		.byte	0x0
 1805 0038 05       		.uleb128 0x5
 1806 0039 13       		.uleb128 0x13
 1807 003a 01       		.byte	0x1
 1808 003b 03       		.uleb128 0x3
 1809 003c 08       		.uleb128 0x8
ARM GAS  C:\Users\DNIEL~1\AppData\Local\Temp\ccurTtco.s 			page 33


 1810 003d 0B       		.uleb128 0xb
 1811 003e 0B       		.uleb128 0xb
 1812 003f 3A       		.uleb128 0x3a
 1813 0040 0B       		.uleb128 0xb
 1814 0041 3B       		.uleb128 0x3b
 1815 0042 0B       		.uleb128 0xb
 1816 0043 01       		.uleb128 0x1
 1817 0044 13       		.uleb128 0x13
 1818 0045 00       		.byte	0x0
 1819 0046 00       		.byte	0x0
 1820 0047 06       		.uleb128 0x6
 1821 0048 0D       		.uleb128 0xd
 1822 0049 00       		.byte	0x0
 1823 004a 03       		.uleb128 0x3
 1824 004b 0E       		.uleb128 0xe
 1825 004c 3A       		.uleb128 0x3a
 1826 004d 0B       		.uleb128 0xb
 1827 004e 3B       		.uleb128 0x3b
 1828 004f 0B       		.uleb128 0xb
 1829 0050 49       		.uleb128 0x49
 1830 0051 13       		.uleb128 0x13
 1831 0052 38       		.uleb128 0x38
 1832 0053 0A       		.uleb128 0xa
 1833 0054 00       		.byte	0x0
 1834 0055 00       		.byte	0x0
 1835 0056 07       		.uleb128 0x7
 1836 0057 35       		.uleb128 0x35
 1837 0058 00       		.byte	0x0
 1838 0059 49       		.uleb128 0x49
 1839 005a 13       		.uleb128 0x13
 1840 005b 00       		.byte	0x0
 1841 005c 00       		.byte	0x0
 1842 005d 08       		.uleb128 0x8
 1843 005e 13       		.uleb128 0x13
 1844 005f 01       		.byte	0x1
 1845 0060 0B       		.uleb128 0xb
 1846 0061 0B       		.uleb128 0xb
 1847 0062 3A       		.uleb128 0x3a
 1848 0063 0B       		.uleb128 0xb
 1849 0064 3B       		.uleb128 0x3b
 1850 0065 05       		.uleb128 0x5
 1851 0066 01       		.uleb128 0x1
 1852 0067 13       		.uleb128 0x13
 1853 0068 00       		.byte	0x0
 1854 0069 00       		.byte	0x0
 1855 006a 09       		.uleb128 0x9
 1856 006b 0D       		.uleb128 0xd
 1857 006c 00       		.byte	0x0
 1858 006d 03       		.uleb128 0x3
 1859 006e 08       		.uleb128 0x8
 1860 006f 3A       		.uleb128 0x3a
 1861 0070 0B       		.uleb128 0xb
 1862 0071 3B       		.uleb128 0x3b
 1863 0072 05       		.uleb128 0x5
 1864 0073 49       		.uleb128 0x49
 1865 0074 13       		.uleb128 0x13
 1866 0075 38       		.uleb128 0x38
ARM GAS  C:\Users\DNIEL~1\AppData\Local\Temp\ccurTtco.s 			page 34


 1867 0076 0A       		.uleb128 0xa
 1868 0077 00       		.byte	0x0
 1869 0078 00       		.byte	0x0
 1870 0079 0A       		.uleb128 0xa
 1871 007a 0D       		.uleb128 0xd
 1872 007b 00       		.byte	0x0
 1873 007c 03       		.uleb128 0x3
 1874 007d 0E       		.uleb128 0xe
 1875 007e 3A       		.uleb128 0x3a
 1876 007f 0B       		.uleb128 0xb
 1877 0080 3B       		.uleb128 0x3b
 1878 0081 05       		.uleb128 0x5
 1879 0082 49       		.uleb128 0x49
 1880 0083 13       		.uleb128 0x13
 1881 0084 38       		.uleb128 0x38
 1882 0085 0A       		.uleb128 0xa
 1883 0086 00       		.byte	0x0
 1884 0087 00       		.byte	0x0
 1885 0088 0B       		.uleb128 0xb
 1886 0089 16       		.uleb128 0x16
 1887 008a 00       		.byte	0x0
 1888 008b 03       		.uleb128 0x3
 1889 008c 0E       		.uleb128 0xe
 1890 008d 3A       		.uleb128 0x3a
 1891 008e 0B       		.uleb128 0xb
 1892 008f 3B       		.uleb128 0x3b
 1893 0090 05       		.uleb128 0x5
 1894 0091 49       		.uleb128 0x49
 1895 0092 13       		.uleb128 0x13
 1896 0093 00       		.byte	0x0
 1897 0094 00       		.byte	0x0
 1898 0095 0C       		.uleb128 0xc
 1899 0096 13       		.uleb128 0x13
 1900 0097 01       		.byte	0x1
 1901 0098 03       		.uleb128 0x3
 1902 0099 0E       		.uleb128 0xe
 1903 009a 0B       		.uleb128 0xb
 1904 009b 0B       		.uleb128 0xb
 1905 009c 3A       		.uleb128 0x3a
 1906 009d 0B       		.uleb128 0xb
 1907 009e 3B       		.uleb128 0x3b
 1908 009f 0B       		.uleb128 0xb
 1909 00a0 01       		.uleb128 0x1
 1910 00a1 13       		.uleb128 0x13
 1911 00a2 00       		.byte	0x0
 1912 00a3 00       		.byte	0x0
 1913 00a4 0D       		.uleb128 0xd
 1914 00a5 0D       		.uleb128 0xd
 1915 00a6 00       		.byte	0x0
 1916 00a7 03       		.uleb128 0x3
 1917 00a8 08       		.uleb128 0x8
 1918 00a9 3A       		.uleb128 0x3a
 1919 00aa 0B       		.uleb128 0xb
 1920 00ab 3B       		.uleb128 0x3b
 1921 00ac 0B       		.uleb128 0xb
 1922 00ad 49       		.uleb128 0x49
 1923 00ae 13       		.uleb128 0x13
ARM GAS  C:\Users\DNIEL~1\AppData\Local\Temp\ccurTtco.s 			page 35


 1924 00af 38       		.uleb128 0x38
 1925 00b0 0A       		.uleb128 0xa
 1926 00b1 00       		.byte	0x0
 1927 00b2 00       		.byte	0x0
 1928 00b3 0E       		.uleb128 0xe
 1929 00b4 0F       		.uleb128 0xf
 1930 00b5 00       		.byte	0x0
 1931 00b6 0B       		.uleb128 0xb
 1932 00b7 0B       		.uleb128 0xb
 1933 00b8 49       		.uleb128 0x49
 1934 00b9 13       		.uleb128 0x13
 1935 00ba 00       		.byte	0x0
 1936 00bb 00       		.byte	0x0
 1937 00bc 0F       		.uleb128 0xf
 1938 00bd 2E       		.uleb128 0x2e
 1939 00be 01       		.byte	0x1
 1940 00bf 03       		.uleb128 0x3
 1941 00c0 0E       		.uleb128 0xe
 1942 00c1 3A       		.uleb128 0x3a
 1943 00c2 0B       		.uleb128 0xb
 1944 00c3 3B       		.uleb128 0x3b
 1945 00c4 0B       		.uleb128 0xb
 1946 00c5 27       		.uleb128 0x27
 1947 00c6 0C       		.uleb128 0xc
 1948 00c7 20       		.uleb128 0x20
 1949 00c8 0B       		.uleb128 0xb
 1950 00c9 01       		.uleb128 0x1
 1951 00ca 13       		.uleb128 0x13
 1952 00cb 00       		.byte	0x0
 1953 00cc 00       		.byte	0x0
 1954 00cd 10       		.uleb128 0x10
 1955 00ce 05       		.uleb128 0x5
 1956 00cf 00       		.byte	0x0
 1957 00d0 03       		.uleb128 0x3
 1958 00d1 0E       		.uleb128 0xe
 1959 00d2 3A       		.uleb128 0x3a
 1960 00d3 0B       		.uleb128 0xb
 1961 00d4 3B       		.uleb128 0x3b
 1962 00d5 0B       		.uleb128 0xb
 1963 00d6 49       		.uleb128 0x49
 1964 00d7 13       		.uleb128 0x13
 1965 00d8 00       		.byte	0x0
 1966 00d9 00       		.byte	0x0
 1967 00da 11       		.uleb128 0x11
 1968 00db 34       		.uleb128 0x34
 1969 00dc 00       		.byte	0x0
 1970 00dd 03       		.uleb128 0x3
 1971 00de 0E       		.uleb128 0xe
 1972 00df 3A       		.uleb128 0x3a
 1973 00e0 0B       		.uleb128 0xb
 1974 00e1 3B       		.uleb128 0x3b
 1975 00e2 0B       		.uleb128 0xb
 1976 00e3 49       		.uleb128 0x49
 1977 00e4 13       		.uleb128 0x13
 1978 00e5 00       		.byte	0x0
 1979 00e6 00       		.byte	0x0
 1980 00e7 12       		.uleb128 0x12
ARM GAS  C:\Users\DNIEL~1\AppData\Local\Temp\ccurTtco.s 			page 36


 1981 00e8 34       		.uleb128 0x34
 1982 00e9 00       		.byte	0x0
 1983 00ea 03       		.uleb128 0x3
 1984 00eb 08       		.uleb128 0x8
 1985 00ec 3A       		.uleb128 0x3a
 1986 00ed 0B       		.uleb128 0xb
 1987 00ee 3B       		.uleb128 0x3b
 1988 00ef 0B       		.uleb128 0xb
 1989 00f0 49       		.uleb128 0x49
 1990 00f1 13       		.uleb128 0x13
 1991 00f2 00       		.byte	0x0
 1992 00f3 00       		.byte	0x0
 1993 00f4 13       		.uleb128 0x13
 1994 00f5 2E       		.uleb128 0x2e
 1995 00f6 01       		.byte	0x1
 1996 00f7 31       		.uleb128 0x31
 1997 00f8 13       		.uleb128 0x13
 1998 00f9 11       		.uleb128 0x11
 1999 00fa 01       		.uleb128 0x1
 2000 00fb 12       		.uleb128 0x12
 2001 00fc 01       		.uleb128 0x1
 2002 00fd 40       		.uleb128 0x40
 2003 00fe 06       		.uleb128 0x6
 2004 00ff 01       		.uleb128 0x1
 2005 0100 13       		.uleb128 0x13
 2006 0101 00       		.byte	0x0
 2007 0102 00       		.byte	0x0
 2008 0103 14       		.uleb128 0x14
 2009 0104 05       		.uleb128 0x5
 2010 0105 00       		.byte	0x0
 2011 0106 31       		.uleb128 0x31
 2012 0107 13       		.uleb128 0x13
 2013 0108 02       		.uleb128 0x2
 2014 0109 0A       		.uleb128 0xa
 2015 010a 00       		.byte	0x0
 2016 010b 00       		.byte	0x0
 2017 010c 15       		.uleb128 0x15
 2018 010d 34       		.uleb128 0x34
 2019 010e 00       		.byte	0x0
 2020 010f 31       		.uleb128 0x31
 2021 0110 13       		.uleb128 0x13
 2022 0111 02       		.uleb128 0x2
 2023 0112 06       		.uleb128 0x6
 2024 0113 00       		.byte	0x0
 2025 0114 00       		.byte	0x0
 2026 0115 16       		.uleb128 0x16
 2027 0116 05       		.uleb128 0x5
 2028 0117 00       		.byte	0x0
 2029 0118 31       		.uleb128 0x31
 2030 0119 13       		.uleb128 0x13
 2031 011a 02       		.uleb128 0x2
 2032 011b 06       		.uleb128 0x6
 2033 011c 00       		.byte	0x0
 2034 011d 00       		.byte	0x0
 2035 011e 17       		.uleb128 0x17
 2036 011f 2E       		.uleb128 0x2e
 2037 0120 01       		.byte	0x1
ARM GAS  C:\Users\DNIEL~1\AppData\Local\Temp\ccurTtco.s 			page 37


 2038 0121 3F       		.uleb128 0x3f
 2039 0122 0C       		.uleb128 0xc
 2040 0123 03       		.uleb128 0x3
 2041 0124 0E       		.uleb128 0xe
 2042 0125 3A       		.uleb128 0x3a
 2043 0126 0B       		.uleb128 0xb
 2044 0127 3B       		.uleb128 0x3b
 2045 0128 0B       		.uleb128 0xb
 2046 0129 27       		.uleb128 0x27
 2047 012a 0C       		.uleb128 0xc
 2048 012b 11       		.uleb128 0x11
 2049 012c 01       		.uleb128 0x1
 2050 012d 12       		.uleb128 0x12
 2051 012e 01       		.uleb128 0x1
 2052 012f 40       		.uleb128 0x40
 2053 0130 06       		.uleb128 0x6
 2054 0131 01       		.uleb128 0x1
 2055 0132 13       		.uleb128 0x13
 2056 0133 00       		.byte	0x0
 2057 0134 00       		.byte	0x0
 2058 0135 18       		.uleb128 0x18
 2059 0136 05       		.uleb128 0x5
 2060 0137 00       		.byte	0x0
 2061 0138 03       		.uleb128 0x3
 2062 0139 0E       		.uleb128 0xe
 2063 013a 3A       		.uleb128 0x3a
 2064 013b 0B       		.uleb128 0xb
 2065 013c 3B       		.uleb128 0x3b
 2066 013d 0B       		.uleb128 0xb
 2067 013e 49       		.uleb128 0x49
 2068 013f 13       		.uleb128 0x13
 2069 0140 02       		.uleb128 0x2
 2070 0141 06       		.uleb128 0x6
 2071 0142 00       		.byte	0x0
 2072 0143 00       		.byte	0x0
 2073 0144 19       		.uleb128 0x19
 2074 0145 34       		.uleb128 0x34
 2075 0146 00       		.byte	0x0
 2076 0147 03       		.uleb128 0x3
 2077 0148 0E       		.uleb128 0xe
 2078 0149 3A       		.uleb128 0x3a
 2079 014a 0B       		.uleb128 0xb
 2080 014b 3B       		.uleb128 0x3b
 2081 014c 0B       		.uleb128 0xb
 2082 014d 49       		.uleb128 0x49
 2083 014e 13       		.uleb128 0x13
 2084 014f 02       		.uleb128 0x2
 2085 0150 0A       		.uleb128 0xa
 2086 0151 00       		.byte	0x0
 2087 0152 00       		.byte	0x0
 2088 0153 1A       		.uleb128 0x1a
 2089 0154 2E       		.uleb128 0x2e
 2090 0155 01       		.byte	0x1
 2091 0156 3F       		.uleb128 0x3f
 2092 0157 0C       		.uleb128 0xc
 2093 0158 03       		.uleb128 0x3
 2094 0159 0E       		.uleb128 0xe
ARM GAS  C:\Users\DNIEL~1\AppData\Local\Temp\ccurTtco.s 			page 38


 2095 015a 3A       		.uleb128 0x3a
 2096 015b 0B       		.uleb128 0xb
 2097 015c 3B       		.uleb128 0x3b
 2098 015d 0B       		.uleb128 0xb
 2099 015e 27       		.uleb128 0x27
 2100 015f 0C       		.uleb128 0xc
 2101 0160 49       		.uleb128 0x49
 2102 0161 13       		.uleb128 0x13
 2103 0162 11       		.uleb128 0x11
 2104 0163 01       		.uleb128 0x1
 2105 0164 12       		.uleb128 0x12
 2106 0165 01       		.uleb128 0x1
 2107 0166 40       		.uleb128 0x40
 2108 0167 06       		.uleb128 0x6
 2109 0168 01       		.uleb128 0x1
 2110 0169 13       		.uleb128 0x13
 2111 016a 00       		.byte	0x0
 2112 016b 00       		.byte	0x0
 2113 016c 1B       		.uleb128 0x1b
 2114 016d 34       		.uleb128 0x34
 2115 016e 00       		.byte	0x0
 2116 016f 03       		.uleb128 0x3
 2117 0170 0E       		.uleb128 0xe
 2118 0171 3A       		.uleb128 0x3a
 2119 0172 0B       		.uleb128 0xb
 2120 0173 3B       		.uleb128 0x3b
 2121 0174 0B       		.uleb128 0xb
 2122 0175 49       		.uleb128 0x49
 2123 0176 13       		.uleb128 0x13
 2124 0177 02       		.uleb128 0x2
 2125 0178 06       		.uleb128 0x6
 2126 0179 00       		.byte	0x0
 2127 017a 00       		.byte	0x0
 2128 017b 1C       		.uleb128 0x1c
 2129 017c 34       		.uleb128 0x34
 2130 017d 00       		.byte	0x0
 2131 017e 03       		.uleb128 0x3
 2132 017f 0E       		.uleb128 0xe
 2133 0180 3A       		.uleb128 0x3a
 2134 0181 0B       		.uleb128 0xb
 2135 0182 3B       		.uleb128 0x3b
 2136 0183 05       		.uleb128 0x5
 2137 0184 49       		.uleb128 0x49
 2138 0185 13       		.uleb128 0x13
 2139 0186 3F       		.uleb128 0x3f
 2140 0187 0C       		.uleb128 0xc
 2141 0188 3C       		.uleb128 0x3c
 2142 0189 0C       		.uleb128 0xc
 2143 018a 00       		.byte	0x0
 2144 018b 00       		.byte	0x0
 2145 018c 00       		.byte	0x0
 2146              		.section	.debug_pubnames,"",%progbits
 2147 0000 73000000 		.4byte	0x73
 2148 0004 0200     		.2byte	0x2
 2149 0006 00000000 		.4byte	.Ldebug_info0
 2150 000a C4060000 		.4byte	0x6c4
 2151 000e 1D050000 		.4byte	0x51d
ARM GAS  C:\Users\DNIEL~1\AppData\Local\Temp\ccurTtco.s 			page 39


 2152 0012 72746347 		.ascii	"rtcGetTimeTm\000"
 2152      65745469 
 2152      6D65546D 
 2152      00
 2153 001f 69050000 		.4byte	0x569
 2154 0023 72746353 		.ascii	"rtcSetTimeTm\000"
 2154      65745469 
 2154      6D65546D 
 2154      00
 2155 0030 AF050000 		.4byte	0x5af
 2156 0034 72746347 		.ascii	"rtcGetTimeUnixSec\000"
 2156      65745469 
 2156      6D65556E 
 2156      69785365 
 2156      6300
 2157 0046 F9050000 		.4byte	0x5f9
 2158 004a 72746353 		.ascii	"rtcSetTimeUnixSec\000"
 2158      65745469 
 2158      6D65556E 
 2158      69785365 
 2158      6300
 2159 005c 4E060000 		.4byte	0x64e
 2160 0060 72746347 		.ascii	"rtcGetTimeUnixUsec\000"
 2160      65745469 
 2160      6D65556E 
 2160      69785573 
 2160      656300
 2161 0073 00000000 		.4byte	0x0
 2162              		.section	.debug_pubtypes,"",%progbits
 2163 0000 95000000 		.4byte	0x95
 2164 0004 0200     		.2byte	0x2
 2165 0006 00000000 		.4byte	.Ldebug_info0
 2166 000a C4060000 		.4byte	0x6c4
 2167 000e 76000000 		.4byte	0x76
 2168 0012 74696D65 		.ascii	"time_t\000"
 2168      5F7400
 2169 0019 81000000 		.4byte	0x81
 2170 001d 746D00   		.ascii	"tm\000"
 2171 0020 27010000 		.4byte	0x127
 2172 0024 696E7433 		.ascii	"int32_t\000"
 2172      325F7400 
 2173 002c 32010000 		.4byte	0x132
 2174 0030 75696E74 		.ascii	"uint32_t\000"
 2174      33325F74 
 2174      00
 2175 0039 3D010000 		.4byte	0x13d
 2176 003d 75696E74 		.ascii	"uint64_t\000"
 2176      36345F74 
 2176      00
 2177 0046 48010000 		.4byte	0x148
 2178 004a 626F6F6C 		.ascii	"bool_t\000"
 2178      5F7400
 2179 0051 CB030000 		.4byte	0x3cb
 2180 0055 5254435F 		.ascii	"RTC_TypeDef\000"
 2180      54797065 
 2180      44656600 
 2181 0061 D7030000 		.4byte	0x3d7
ARM GAS  C:\Users\DNIEL~1\AppData\Local\Temp\ccurTtco.s 			page 40


 2182 0065 52544344 		.ascii	"RTCDriver\000"
 2182      72697665 
 2182      7200
 2183 006f FD030000 		.4byte	0x3fd
 2184 0073 52544354 		.ascii	"RTCTime\000"
 2184      696D6500 
 2185 007b 08040000 		.4byte	0x408
 2186 007f 52544354 		.ascii	"RTCTime\000"
 2186      696D6500 
 2187 0087 E2030000 		.4byte	0x3e2
 2188 008b 52544344 		.ascii	"RTCDriver\000"
 2188      72697665 
 2188      7200
 2189 0095 00000000 		.4byte	0x0
 2190              		.section	.debug_aranges,"",%progbits
 2191 0000 4C000000 		.4byte	0x4c
 2192 0004 0200     		.2byte	0x2
 2193 0006 00000000 		.4byte	.Ldebug_info0
 2194 000a 04       		.byte	0x4
 2195 000b 00       		.byte	0x0
 2196 000c 0000     		.2byte	0x0
 2197 000e 0000     		.2byte	0x0
 2198 0010 00000000 		.4byte	.LFB125
 2199 0014 A4000000 		.4byte	.LFE125-.LFB125
 2200 0018 00000000 		.4byte	.LFB126
 2201 001c 1C010000 		.4byte	.LFE126-.LFB126
 2202 0020 00000000 		.4byte	.LFB120
 2203 0024 26000000 		.4byte	.LFE120-.LFB120
 2204 0028 00000000 		.4byte	.LFB121
 2205 002c 2C000000 		.4byte	.LFE121-.LFB121
 2206 0030 00000000 		.4byte	.LFB122
 2207 0034 2A000000 		.4byte	.LFE122-.LFB122
 2208 0038 00000000 		.4byte	.LFB123
 2209 003c 32000000 		.4byte	.LFE123-.LFB123
 2210 0040 00000000 		.4byte	.LFB124
 2211 0044 44000000 		.4byte	.LFE124-.LFB124
 2212 0048 00000000 		.4byte	0x0
 2213 004c 00000000 		.4byte	0x0
 2214              		.section	.debug_ranges,"",%progbits
 2215              	.Ldebug_ranges0:
 2216 0000 00000000 		.4byte	.LFB125
 2217 0004 A4000000 		.4byte	.LFE125
 2218 0008 00000000 		.4byte	.LFB126
 2219 000c 1C010000 		.4byte	.LFE126
 2220 0010 00000000 		.4byte	.LFB120
 2221 0014 26000000 		.4byte	.LFE120
 2222 0018 00000000 		.4byte	.LFB121
 2223 001c 2C000000 		.4byte	.LFE121
 2224 0020 00000000 		.4byte	.LFB122
 2225 0024 2A000000 		.4byte	.LFE122
 2226 0028 00000000 		.4byte	.LFB123
 2227 002c 32000000 		.4byte	.LFE123
 2228 0030 00000000 		.4byte	.LFB124
 2229 0034 44000000 		.4byte	.LFE124
 2230 0038 00000000 		.4byte	0x0
 2231 003c 00000000 		.4byte	0x0
 2232              		.section	.debug_str,"MS",%progbits,1
ARM GAS  C:\Users\DNIEL~1\AppData\Local\Temp\ccurTtco.s 			page 41


 2233              	.LASF13:
 2234 0000 746D5F6D 		.ascii	"tm_mday\000"
 2234      64617900 
 2235              	.LASF79:
 2236 0008 72657375 		.ascii	"result\000"
 2236      6C7400
 2237              	.LASF43:
 2238 000f 424B5032 		.ascii	"BKP2R\000"
 2238      5200
 2239              	.LASF76:
 2240 0015 74765F73 		.ascii	"tv_sec\000"
 2240      656300
 2241              	.LASF24:
 2242 001c 75696E74 		.ascii	"uint64_t\000"
 2242      36345F74 
 2242      00
 2243              	.LASF2:
 2244 0025 73686F72 		.ascii	"short int\000"
 2244      7420696E 
 2244      7400
 2245              	.LASF73:
 2246 002f 72746347 		.ascii	"rtcGetTimeTm\000"
 2246      65745469 
 2246      6D65546D 
 2246      00
 2247              	.LASF47:
 2248 003c 424B5036 		.ascii	"BKP6R\000"
 2248      5200
 2249              	.LASF77:
 2250 0042 72746347 		.ascii	"rtcGetTimeUnixSec\000"
 2250      65745469 
 2250      6D65556E 
 2250      69785365 
 2250      6300
 2251              	.LASF36:
 2252 0054 43414C52 		.ascii	"CALR\000"
 2252      00
 2253              	.LASF28:
 2254 0059 57555452 		.ascii	"WUTR\000"
 2254      00
 2255              	.LASF16:
 2256 005e 746D5F77 		.ascii	"tm_wday\000"
 2256      64617900 
 2257              	.LASF54:
 2258 0066 424B5031 		.ascii	"BKP13R\000"
 2258      335200
 2259              	.LASF21:
 2260 006d 74696D65 		.ascii	"time_t\000"
 2260      5F7400
 2261              	.LASF58:
 2262 0074 424B5031 		.ascii	"BKP17R\000"
 2262      375200
 2263              	.LASF34:
 2264 007b 54534452 		.ascii	"TSDR\000"
 2264      00
 2265              	.LASF62:
 2266 0080 52544344 		.ascii	"RTCDriver\000"
ARM GAS  C:\Users\DNIEL~1\AppData\Local\Temp\ccurTtco.s 			page 42


 2266      72697665 
 2266      7200
 2267              	.LASF12:
 2268 008a 746D5F68 		.ascii	"tm_hour\000"
 2268      6F757200 
 2269              	.LASF44:
 2270 0092 424B5033 		.ascii	"BKP3R\000"
 2270      5200
 2271              	.LASF78:
 2272 0098 72746347 		.ascii	"rtcGetTimeUnixUsec\000"
 2272      65745469 
 2272      6D65556E 
 2272      69785573 
 2272      656300
 2273              	.LASF14:
 2274 00ab 746D5F6D 		.ascii	"tm_mon\000"
 2274      6F6E00
 2275              	.LASF5:
 2276 00b2 6C6F6E67 		.ascii	"long long int\000"
 2276      206C6F6E 
 2276      6720696E 
 2276      7400
 2277              	.LASF6:
 2278 00c0 6C6F6E67 		.ascii	"long long unsigned int\000"
 2278      206C6F6E 
 2278      6720756E 
 2278      7369676E 
 2278      65642069 
 2279              	.LASF29:
 2280 00d7 43414C49 		.ascii	"CALIBR\000"
 2280      425200
 2281              	.LASF9:
 2282 00de 63686172 		.ascii	"char\000"
 2282      00
 2283              	.LASF7:
 2284 00e3 6C6F6E67 		.ascii	"long int\000"
 2284      20696E74 
 2284      00
 2285              	.LASF51:
 2286 00ec 424B5031 		.ascii	"BKP10R\000"
 2286      305200
 2287              	.LASF75:
 2288 00f3 72746353 		.ascii	"rtcSetTimeUnixSec\000"
 2288      65745469 
 2288      6D65556E 
 2288      69785365 
 2288      6300
 2289              	.LASF48:
 2290 0105 424B5037 		.ascii	"BKP7R\000"
 2290      5200
 2291              	.LASF38:
 2292 010b 414C524D 		.ascii	"ALRMASSR\000"
 2292      41535352 
 2292      00
 2293              	.LASF55:
 2294 0114 424B5031 		.ascii	"BKP14R\000"
 2294      345200
ARM GAS  C:\Users\DNIEL~1\AppData\Local\Temp\ccurTtco.s 			page 43


 2295              	.LASF37:
 2296 011b 54414643 		.ascii	"TAFCR\000"
 2296      5200
 2297              	.LASF1:
 2298 0121 756E7369 		.ascii	"unsigned char\000"
 2298      676E6564 
 2298      20636861 
 2298      7200
 2299              	.LASF59:
 2300 012f 424B5031 		.ascii	"BKP18R\000"
 2300      385200
 2301              	.LASF41:
 2302 0136 424B5030 		.ascii	"BKP0R\000"
 2302      5200
 2303              	.LASF0:
 2304 013c 7369676E 		.ascii	"signed char\000"
 2304      65642063 
 2304      68617200 
 2305              	.LASF15:
 2306 0148 746D5F79 		.ascii	"tm_year\000"
 2306      65617200 
 2307              	.LASF74:
 2308 0150 72746353 		.ascii	"rtcSetTimeTm\000"
 2308      65745469 
 2308      6D65546D 
 2308      00
 2309              	.LASF23:
 2310 015d 75696E74 		.ascii	"uint32_t\000"
 2310      33325F74 
 2310      00
 2311              	.LASF30:
 2312 0166 414C524D 		.ascii	"ALRMAR\000"
 2312      415200
 2313              	.LASF4:
 2314 016d 756E7369 		.ascii	"unsigned int\000"
 2314      676E6564 
 2314      20696E74 
 2314      00
 2315              	.LASF32:
 2316 017a 53484946 		.ascii	"SHIFTR\000"
 2316      545200
 2317              	.LASF45:
 2318 0181 424B5034 		.ascii	"BKP4R\000"
 2318      5200
 2319              	.LASF33:
 2320 0187 54535452 		.ascii	"TSTR\000"
 2320      00
 2321              	.LASF3:
 2322 018c 73686F72 		.ascii	"short unsigned int\000"
 2322      7420756E 
 2322      7369676E 
 2322      65642069 
 2322      6E7400
 2323              	.LASF68:
 2324 019f 74696D70 		.ascii	"timp\000"
 2324      00
 2325              	.LASF52:
ARM GAS  C:\Users\DNIEL~1\AppData\Local\Temp\ccurTtco.s 			page 44


 2326 01a4 424B5031 		.ascii	"BKP11R\000"
 2326      315200
 2327              	.LASF80:
 2328 01ab 49544D5F 		.ascii	"ITM_RxBuffer\000"
 2328      52784275 
 2328      66666572 
 2328      00
 2329              	.LASF49:
 2330 01b8 424B5038 		.ascii	"BKP8R\000"
 2330      5200
 2331              	.LASF22:
 2332 01be 696E7433 		.ascii	"int32_t\000"
 2332      325F7400 
 2333              	.LASF25:
 2334 01c6 626F6F6C 		.ascii	"bool_t\000"
 2334      5F7400
 2335              	.LASF17:
 2336 01cd 746D5F79 		.ascii	"tm_yday\000"
 2336      64617900 
 2337              	.LASF39:
 2338 01d5 414C524D 		.ascii	"ALRMBSSR\000"
 2338      42535352 
 2338      00
 2339              	.LASF26:
 2340 01de 5F426F6F 		.ascii	"_Bool\000"
 2340      6C00
 2341              	.LASF19:
 2342 01e4 5F5F6578 		.ascii	"__extra_1\000"
 2342      7472615F 
 2342      3100
 2343              	.LASF20:
 2344 01ee 5F5F6578 		.ascii	"__extra_2\000"
 2344      7472615F 
 2344      3200
 2345              	.LASF61:
 2346 01f8 5254435F 		.ascii	"RTC_TypeDef\000"
 2346      54797065 
 2346      44656600 
 2347              	.LASF11:
 2348 0204 746D5F6D 		.ascii	"tm_min\000"
 2348      696E00
 2349              	.LASF63:
 2350 020b 69645F72 		.ascii	"id_rtc\000"
 2350      746300
 2351              	.LASF18:
 2352 0212 746D5F69 		.ascii	"tm_isdst\000"
 2352      73647374 
 2352      00
 2353              	.LASF67:
 2354 021b 74765F6D 		.ascii	"tv_msec\000"
 2354      73656300 
 2355              	.LASF8:
 2356 0223 6C6F6E67 		.ascii	"long unsigned int\000"
 2356      20756E73 
 2356      69676E65 
 2356      6420696E 
 2356      7400
ARM GAS  C:\Users\DNIEL~1\AppData\Local\Temp\ccurTtco.s 			page 45


 2357              	.LASF40:
 2358 0235 52455345 		.ascii	"RESERVED7\000"
 2358      52564544 
 2358      3700
 2359              	.LASF83:
 2360 023f 433A5C44 		.ascii	"C:\\Dani\\MegaLux\\Repo\\Smarty\\Smarty\\smarty\\fi"
 2360      616E695C 
 2360      4D656761 
 2360      4C75785C 
 2360      5265706F 
 2361 026b 726D7761 		.ascii	"rmware\000"
 2361      726500
 2362              	.LASF72:
 2363 0272 72746370 		.ascii	"rtcp\000"
 2363      00
 2364              	.LASF60:
 2365 0277 424B5031 		.ascii	"BKP19R\000"
 2365      395200
 2366              	.LASF42:
 2367 027e 424B5031 		.ascii	"BKP1R\000"
 2367      5200
 2368              	.LASF81:
 2369 0284 474E5520 		.ascii	"GNU C 4.5.2\000"
 2369      4320342E 
 2369      352E3200 
 2370              	.LASF31:
 2371 0290 414C524D 		.ascii	"ALRMBR\000"
 2371      425200
 2372              	.LASF46:
 2373 0297 424B5035 		.ascii	"BKP5R\000"
 2373      5200
 2374              	.LASF64:
 2375 029d 52544354 		.ascii	"RTCTime\000"
 2375      696D6500 
 2376              	.LASF66:
 2377 02a5 74765F74 		.ascii	"tv_time\000"
 2377      696D6500 
 2378              	.LASF69:
 2379 02ad 74696D65 		.ascii	"timespec\000"
 2379      73706563 
 2379      00
 2380              	.LASF35:
 2381 02b6 54535353 		.ascii	"TSSSR\000"
 2381      5200
 2382              	.LASF53:
 2383 02bc 424B5031 		.ascii	"BKP12R\000"
 2383      325200
 2384              	.LASF71:
 2385 02c3 73746D33 		.ascii	"stm32_rtc_tm2bcd\000"
 2385      325F7274 
 2385      635F746D 
 2385      32626364 
 2385      00
 2386              	.LASF50:
 2387 02d4 424B5039 		.ascii	"BKP9R\000"
 2387      5200
 2388              	.LASF10:
ARM GAS  C:\Users\DNIEL~1\AppData\Local\Temp\ccurTtco.s 			page 46


 2389 02da 746D5F73 		.ascii	"tm_sec\000"
 2389      656300
 2390              	.LASF70:
 2391 02e1 73746D33 		.ascii	"stm32_rtc_bcd2tm\000"
 2391      325F7274 
 2391      635F6263 
 2391      6432746D 
 2391      00
 2392              	.LASF82:
 2393 02f2 2E2E2F2E 		.ascii	"../../../ChibiOS/os/various/chrtclib.c\000"
 2393      2E2F2E2E 
 2393      2F436869 
 2393      62694F53 
 2393      2F6F732F 
 2394              	.LASF65:
 2395 0319 74765F64 		.ascii	"tv_date\000"
 2395      61746500 
 2396              	.LASF27:
 2397 0321 50524552 		.ascii	"PRER\000"
 2397      00
 2398              	.LASF56:
 2399 0326 424B5031 		.ascii	"BKP15R\000"
 2399      355200
 2400              	.LASF57:
 2401 032d 424B5031 		.ascii	"BKP16R\000"
 2401      365200
 2402              		.ident	"GCC: (Sourcery G++ Lite 2011.03-42) 4.5.2"
ARM GAS  C:\Users\DNIEL~1\AppData\Local\Temp\ccurTtco.s 			page 47


DEFINED SYMBOLS
                            *ABS*:00000000 chrtclib.c
C:\Users\DNIEL~1\AppData\Local\Temp\ccurTtco.s:24     .text.stm32_rtc_bcd2tm.clone.0:00000000 $t
C:\Users\DNIEL~1\AppData\Local\Temp\ccurTtco.s:29     .text.stm32_rtc_bcd2tm.clone.0:00000000 stm32_rtc_bcd2tm.clone.0
C:\Users\DNIEL~1\AppData\Local\Temp\ccurTtco.s:151    .text.stm32_rtc_tm2bcd.clone.1:00000000 $t
C:\Users\DNIEL~1\AppData\Local\Temp\ccurTtco.s:156    .text.stm32_rtc_tm2bcd.clone.1:00000000 stm32_rtc_tm2bcd.clone.1
C:\Users\DNIEL~1\AppData\Local\Temp\ccurTtco.s:344    .text.stm32_rtc_tm2bcd.clone.1:00000118 $d
C:\Users\DNIEL~1\AppData\Local\Temp\ccurTtco.s:349    .text.rtcGetTimeTm:00000000 $t
C:\Users\DNIEL~1\AppData\Local\Temp\ccurTtco.s:355    .text.rtcGetTimeTm:00000000 rtcGetTimeTm
C:\Users\DNIEL~1\AppData\Local\Temp\ccurTtco.s:397    .text.rtcSetTimeTm:00000000 $t
C:\Users\DNIEL~1\AppData\Local\Temp\ccurTtco.s:403    .text.rtcSetTimeTm:00000000 rtcSetTimeTm
C:\Users\DNIEL~1\AppData\Local\Temp\ccurTtco.s:449    .text.rtcGetTimeUnixSec:00000000 $t
C:\Users\DNIEL~1\AppData\Local\Temp\ccurTtco.s:455    .text.rtcGetTimeUnixSec:00000000 rtcGetTimeUnixSec
C:\Users\DNIEL~1\AppData\Local\Temp\ccurTtco.s:496    .text.rtcSetTimeUnixSec:00000000 $t
C:\Users\DNIEL~1\AppData\Local\Temp\ccurTtco.s:502    .text.rtcSetTimeUnixSec:00000000 rtcSetTimeUnixSec
C:\Users\DNIEL~1\AppData\Local\Temp\ccurTtco.s:550    .text.rtcGetTimeUnixUsec:00000000 $t
C:\Users\DNIEL~1\AppData\Local\Temp\ccurTtco.s:556    .text.rtcGetTimeUnixUsec:00000000 rtcGetTimeUnixUsec
C:\Users\DNIEL~1\AppData\Local\Temp\ccurTtco.s:606    .text.rtcGetTimeUnixUsec:00000040 $d
                     .debug_frame:00000010 $d
C:\Users\DNIEL~1\AppData\Local\Temp\ccurTtco.s:348    .text.stm32_rtc_tm2bcd.clone.1:0000011c $t
C:\Users\DNIEL~1\AppData\Local\Temp\ccurTtco.s:610    .text.rtcGetTimeUnixUsec:00000044 $t

UNDEFINED SYMBOLS
rtcGetTime
rtcSetTime
mktime
localtime_r
