ARM GAS  C:\Users\danit\AppData\Local\Temp\cckpmUMk.s 			page 1


   1              		.syntax unified
   2              		.cpu cortex-m4
   3              		.fpu softvfp
   4              		.eabi_attribute 20, 1
   5              		.eabi_attribute 21, 1
   6              		.eabi_attribute 23, 3
   7              		.eabi_attribute 24, 1
   8              		.eabi_attribute 25, 1
   9              		.eabi_attribute 26, 1
  10              		.eabi_attribute 30, 2
  11              		.eabi_attribute 34, 1
  12              		.eabi_attribute 18, 4
  13              		.thumb
  14              		.file	"chrtclib.c"
  15              		.text
  16              	.Ltext0:
  17              		.cfi_sections	.debug_frame
  18              		.section	.text.stm32_rtc_bcd2tm.isra.0,"ax",%progbits
  19              		.align	2
  20              		.p2align 4,,15
  21              		.thumb
  22              		.thumb_func
  23              		.type	stm32_rtc_bcd2tm.isra.0, %function
  24              	stm32_rtc_bcd2tm.isra.0:
  25              	.LFB125:
  26              		.file 1 "../../../ChibiOS/os/various/chrtclib.c"
  27              		.loc 1 52 0
  28              		.cfi_startproc
  29              		@ args = 0, pretend = 0, frame = 0
  30              		@ frame_needed = 0, uses_anonymous_args = 0
  31              	.LVL0:
  32              		.loc 1 70 0
  33 0000 C1F34233 		ubfx	r3, r1, #13, #3
  34              	.LVL1:
  35              		.loc 1 71 0
  36 0004 072B     		cmp	r3, #7
  37              		.loc 1 72 0
  38 0006 08BF     		it	eq
  39 0008 0023     		moveq	r3, #0
  40              		.loc 1 52 0
  41 000a 2DE9F047 		push	{r4, r5, r6, r7, r8, r9, r10, lr}
  42              		.cfi_def_cfa_offset 32
  43              		.cfi_offset 4, -32
  44              		.cfi_offset 5, -28
  45              		.cfi_offset 6, -24
  46              		.cfi_offset 7, -20
  47              		.cfi_offset 8, -16
  48              		.cfi_offset 9, -12
  49              		.cfi_offset 10, -8
  50              		.cfi_offset 14, -4
  51              		.loc 1 72 0
  52 000e 8361     		str	r3, [r0, #24]
  53              		.loc 1 68 0
  54 0010 4FF0FF34 		mov	r4, #-1
  55              		.loc 1 93 0
  56 0014 C2F38053 		ubfx	r3, r2, #22, #1
  57              		.loc 1 78 0
ARM GAS  C:\Users\danit\AppData\Local\Temp\cckpmUMk.s 			page 2


  58 0018 C1F30036 		ubfx	r6, r1, #12, #1
  59              		.loc 1 68 0
  60 001c 0462     		str	r4, [r0, #32]
  61              		.loc 1 93 0
  62 001e 5C00     		lsls	r4, r3, #1
  63              		.loc 1 92 0
  64 0020 C2F30157 		ubfx	r7, r2, #20, #2
  65              		.loc 1 93 0
  66 0024 2344     		add	r3, r3, r4
  67              		.loc 1 78 0
  68 0026 4FEA860E 		lsl	lr, r6, #2
  69              		.loc 1 82 0
  70 002a C1F30355 		ubfx	r5, r1, #20, #4
  71              		.loc 1 93 0
  72 002e 9C00     		lsls	r4, r3, #2
  73              		.loc 1 86 0
  74 0030 C2F3021C 		ubfx	ip, r2, #4, #3
  75              		.loc 1 92 0
  76 0034 07EB8703 		add	r3, r7, r7, lsl #2
  77              		.loc 1 78 0
  78 0038 7644     		add	r6, r6, lr
  79              		.loc 1 77 0
  80 003a C1F3032A 		ubfx	r10, r1, #8, #4
  81              		.loc 1 81 0
  82 003e C1F30349 		ubfx	r9, r1, #16, #4
  83              		.loc 1 75 0
  84 0042 C1F3011E 		ubfx	lr, r1, #4, #2
  85              		.loc 1 89 0
  86 0046 C2F30237 		ubfx	r7, r2, #12, #3
  87              		.loc 1 82 0
  88 004a 05EB8505 		add	r5, r5, r5, lsl #2
  89 004e 04EB4303 		add	r3, r4, r3, lsl #1
  90              		.loc 1 91 0
  91 0052 C2F30348 		ubfx	r8, r2, #16, #4
  92              		.loc 1 86 0
  93 0056 0CEB8C04 		add	r4, ip, ip, lsl #2
  94              		.loc 1 78 0
  95 005a 0AEB4606 		add	r6, r10, r6, lsl #1
  96              		.loc 1 85 0
  97 005e 02F00F0C 		and	ip, r2, #15
  98              		.loc 1 82 0
  99 0062 09EB4505 		add	r5, r9, r5, lsl #1
 100              		.loc 1 75 0
 101 0066 0EEB8E0E 		add	lr, lr, lr, lsl #2
 102              		.loc 1 74 0
 103 006a 01F00F01 		and	r1, r1, #15
 104              	.LVL2:
 105              		.loc 1 89 0
 106 006e 07EB8707 		add	r7, r7, r7, lsl #2
 107              		.loc 1 88 0
 108 0072 C2F30322 		ubfx	r2, r2, #8, #4
 109              	.LVL3:
 110              		.loc 1 93 0
 111 0076 4344     		add	r3, r3, r8
 112              		.loc 1 79 0
 113 0078 013E     		subs	r6, r6, #1
 114              		.loc 1 83 0
ARM GAS  C:\Users\danit\AppData\Local\Temp\cckpmUMk.s 			page 3


 115 007a 6435     		adds	r5, r5, #100
 116              		.loc 1 75 0
 117 007c 01EB4E01 		add	r1, r1, lr, lsl #1
 118              		.loc 1 86 0
 119 0080 0CEB4404 		add	r4, ip, r4, lsl #1
 120              		.loc 1 89 0
 121 0084 02EB4702 		add	r2, r2, r7, lsl #1
 122              		.loc 1 93 0
 123 0088 8360     		str	r3, [r0, #8]
 124              		.loc 1 79 0
 125 008a 0661     		str	r6, [r0, #16]
 126              		.loc 1 83 0
 127 008c 4561     		str	r5, [r0, #20]
 128              		.loc 1 75 0
 129 008e C160     		str	r1, [r0, #12]
 130              		.loc 1 86 0
 131 0090 0460     		str	r4, [r0]
 132              		.loc 1 89 0
 133 0092 4260     		str	r2, [r0, #4]
 134 0094 BDE8F087 		pop	{r4, r5, r6, r7, r8, r9, r10, pc}
 135              		.cfi_endproc
 136              	.LFE125:
 137              		.size	stm32_rtc_bcd2tm.isra.0, .-stm32_rtc_bcd2tm.isra.0
 138              		.section	.text.stm32_rtc_tm2bcd.isra.1,"ax",%progbits
 139              		.align	2
 140              		.p2align 4,,15
 141              		.thumb
 142              		.thumb_func
 143              		.type	stm32_rtc_tm2bcd.isra.1, %function
 144              	stm32_rtc_tm2bcd.isra.1:
 145              	.LFB126:
 146              		.loc 1 104 0
 147              		.cfi_startproc
 148              		@ args = 0, pretend = 0, frame = 8
 149              		@ frame_needed = 0, uses_anonymous_args = 0
 150              	.LVL4:
 151 0000 2DE9F04F 		push	{r4, r5, r6, r7, r8, r9, r10, fp, lr}
 152              		.cfi_def_cfa_offset 36
 153              		.cfi_offset 4, -36
 154              		.cfi_offset 5, -32
 155              		.cfi_offset 6, -28
 156              		.cfi_offset 7, -24
 157              		.cfi_offset 8, -20
 158              		.cfi_offset 9, -16
 159              		.cfi_offset 10, -12
 160              		.cfi_offset 11, -8
 161              		.cfi_offset 14, -4
 162              		.loc 1 110 0
 163 0004 4369     		ldr	r3, [r0, #20]
 164              		.loc 1 111 0
 165 0006 3A4C     		ldr	r4, .L11
 166              		.loc 1 114 0
 167 0008 8569     		ldr	r5, [r0, #24]
 168              		.loc 1 110 0
 169 000a 643B     		subs	r3, r3, #100
 170              	.LVL5:
 171              		.loc 1 111 0
ARM GAS  C:\Users\danit\AppData\Local\Temp\cckpmUMk.s 			page 4


 172 000c A4FB0364 		umull	r6, r4, r4, r3
 173 0010 E408     		lsrs	r4, r4, #3
 174              		.loc 1 112 0
 175 0012 04EB840C 		add	ip, r4, r4, lsl #2
 176              		.loc 1 104 0
 177 0016 83B0     		sub	sp, sp, #12
 178              		.cfi_def_cfa_offset 48
 179              		.loc 1 111 0
 180 0018 2405     		lsls	r4, r4, #20
 181              		.loc 1 112 0
 182 001a A3EB4C0C 		sub	ip, r3, ip, lsl #1
 183              		.loc 1 111 0
 184 001e 04F47004 		and	r4, r4, #15728640
 185              		.loc 1 107 0
 186 0022 0023     		movs	r3, #0
 187              	.LVL6:
 188 0024 0B60     		str	r3, [r1]
 189              		.loc 1 112 0
 190 0026 4FEA0C4C 		lsl	ip, ip, #16
 191              		.loc 1 111 0
 192 002a 0094     		str	r4, [sp]
 193              		.loc 1 108 0
 194 002c 1360     		str	r3, [r2]
 195              		.loc 1 114 0
 196 002e 002D     		cmp	r5, #0
 197 0030 5AD0     		beq	.L8
 198              	.LVL7:
 199 0032 6D03     		lsls	r5, r5, #13
 200              	.LVL8:
 201 0034 ABB2     		uxth	r3, r5
 202 0036 0193     		str	r3, [sp, #4]
 203              	.LVL9:
 204              	.L7:
 205              		.loc 1 120 0
 206 0038 0669     		ldr	r6, [r0, #16]
 207              		.loc 1 122 0
 208 003a 2D4B     		ldr	r3, .L11
 209              		.loc 1 128 0
 210 003c D0F80890 		ldr	r9, [r0, #8]
 211              		.loc 1 124 0
 212 0040 D0F80CB0 		ldr	fp, [r0, #12]
 213              		.loc 1 136 0
 214 0044 D0F80080 		ldr	r8, [r0]
 215              		.loc 1 132 0
 216 0048 D0F804A0 		ldr	r10, [r0, #4]
 217              		.loc 1 120 0
 218 004c 0136     		adds	r6, r6, #1
 219              	.LVL10:
 220              		.loc 1 122 0
 221 004e A3FB0605 		umull	r0, r5, r3, r6
 222              	.LVL11:
 223 0052 ED08     		lsrs	r5, r5, #3
 224 0054 05EB850E 		add	lr, r5, r5, lsl #2
 225              		.loc 1 134 0
 226 0058 A3FB0A70 		umull	r7, r0, r3, r10
 227              		.loc 1 122 0
 228 005c A6EB4E0E 		sub	lr, r6, lr, lsl #1
ARM GAS  C:\Users\danit\AppData\Local\Temp\cckpmUMk.s 			page 5


 229              		.loc 1 126 0
 230 0060 A3FB0B67 		umull	r6, r7, r3, fp
 231 0064 FF08     		lsrs	r7, r7, #3
 232              		.loc 1 130 0
 233 0066 A3FB0946 		umull	r4, r6, r3, r9
 234 006a 4CEA0E2E 		orr	lr, ip, lr, lsl #8
 235              		.loc 1 134 0
 236 006e C008     		lsrs	r0, r0, #3
 237              		.loc 1 126 0
 238 0070 07EB870C 		add	ip, r7, r7, lsl #2
 239              		.loc 1 138 0
 240 0074 A3FB0843 		umull	r4, r3, r3, r8
 241              		.loc 1 130 0
 242 0078 F608     		lsrs	r6, r6, #3
 243              		.loc 1 126 0
 244 007a ABEB4C0B 		sub	fp, fp, ip, lsl #1
 245              		.loc 1 134 0
 246 007e 00EB800C 		add	ip, r0, r0, lsl #2
 247              		.loc 1 138 0
 248 0082 DB08     		lsrs	r3, r3, #3
 249              		.loc 1 134 0
 250 0084 AAEB4C0A 		sub	r10, r10, ip, lsl #1
 251              		.loc 1 125 0
 252 0088 3F01     		lsls	r7, r7, #4
 253              		.loc 1 130 0
 254 008a 06EB860C 		add	ip, r6, r6, lsl #2
 255 008e A9EB4C0C 		sub	ip, r9, ip, lsl #1
 256 0092 4EEA0B0B 		orr	fp, lr, fp
 257              		.loc 1 138 0
 258 0096 03EB8309 		add	r9, r3, r3, lsl #2
 259              		.loc 1 125 0
 260 009a 07F03007 		and	r7, r7, #48
 261 009e 009C     		ldr	r4, [sp]
 262              		.loc 1 134 0
 263 00a0 4FEA0A2A 		lsl	r10, r10, #8
 264 00a4 4BEA070B 		orr	fp, fp, r7
 265 00a8 4AEA0C4A 		orr	r10, r10, ip, lsl #16
 266              		.loc 1 138 0
 267 00ac A8EB4908 		sub	r8, r8, r9, lsl #1
 268              	.LVL12:
 269              		.loc 1 129 0
 270 00b0 3605     		lsls	r6, r6, #20
 271              		.loc 1 121 0
 272 00b2 2D03     		lsls	r5, r5, #12
 273              		.loc 1 133 0
 274 00b4 0003     		lsls	r0, r0, #12
 275              		.loc 1 129 0
 276 00b6 06F44016 		and	r6, r6, #3145728
 277 00ba 4AEA080A 		orr	r10, r10, r8
 278              		.loc 1 121 0
 279 00be 05F48055 		and	r5, r5, #4096
 280 00c2 4BEA0404 		orr	r4, fp, r4
 281              		.loc 1 133 0
 282 00c6 00F4E047 		and	r7, r0, #28672
 283 00ca 2C43     		orrs	r4, r4, r5
 284 00cc 4AEA0600 		orr	r0, r10, r6
 285              		.loc 1 126 0
ARM GAS  C:\Users\danit\AppData\Local\Temp\cckpmUMk.s 			page 6


 286 00d0 019D     		ldr	r5, [sp, #4]
 287              		.loc 1 137 0
 288 00d2 1B01     		lsls	r3, r3, #4
 289 00d4 3843     		orrs	r0, r0, r7
 290 00d6 03F07003 		and	r3, r3, #112
 291              		.loc 1 126 0
 292 00da 2C43     		orrs	r4, r4, r5
 293              		.loc 1 138 0
 294 00dc 0343     		orrs	r3, r3, r0
 295              		.loc 1 126 0
 296 00de 0C60     		str	r4, [r1]
 297              		.loc 1 138 0
 298 00e0 1360     		str	r3, [r2]
 299              		.loc 1 139 0
 300 00e2 03B0     		add	sp, sp, #12
 301              		.cfi_remember_state
 302              		.cfi_def_cfa_offset 36
 303              		@ sp needed
 304 00e4 BDE8F08F 		pop	{r4, r5, r6, r7, r8, r9, r10, fp, pc}
 305              	.LVL13:
 306              	.L8:
 307              		.cfi_restore_state
 308              		.loc 1 114 0
 309 00e8 4FF46043 		mov	r3, #57344
 310 00ec 0193     		str	r3, [sp, #4]
 311 00ee A3E7     		b	.L7
 312              	.L12:
 313              		.align	2
 314              	.L11:
 315 00f0 CDCCCCCC 		.word	-858993459
 316              		.cfi_endproc
 317              	.LFE126:
 318              		.size	stm32_rtc_tm2bcd.isra.1, .-stm32_rtc_tm2bcd.isra.1
 319              		.section	.text.rtcGetTimeTm,"ax",%progbits
 320              		.align	2
 321              		.p2align 4,,15
 322              		.global	rtcGetTimeTm
 323              		.thumb
 324              		.thumb_func
 325              		.type	rtcGetTimeTm, %function
 326              	rtcGetTimeTm:
 327              	.LFB120:
 328              		.loc 1 149 0
 329              		.cfi_startproc
 330              		@ args = 0, pretend = 0, frame = 16
 331              		@ frame_needed = 0, uses_anonymous_args = 0
 332              	.LVL14:
 333 0000 10B5     		push	{r4, lr}
 334              		.cfi_def_cfa_offset 8
 335              		.cfi_offset 4, -8
 336              		.cfi_offset 14, -4
 337 0002 84B0     		sub	sp, sp, #16
 338              		.cfi_def_cfa_offset 24
 339              		.loc 1 151 0
 340 0004 0023     		movs	r3, #0
 341              		.loc 1 149 0
 342 0006 0C46     		mov	r4, r1
ARM GAS  C:\Users\danit\AppData\Local\Temp\cckpmUMk.s 			page 7


 343              		.loc 1 156 0
 344 0008 6946     		mov	r1, sp
 345              	.LVL15:
 346              		.loc 1 151 0
 347 000a 0093     		str	r3, [sp]
 348 000c 0193     		str	r3, [sp, #4]
 349 000e 8DF80830 		strb	r3, [sp, #8]
 350 0012 0393     		str	r3, [sp, #12]
 351              		.loc 1 156 0
 352 0014 FFF7FEFF 		bl	rtcGetTime
 353              	.LVL16:
 354              		.loc 1 157 0
 355 0018 2046     		mov	r0, r4
 356 001a 9DE80600 		ldmia	sp, {r1, r2}
 357 001e FFF7FEFF 		bl	stm32_rtc_bcd2tm.isra.0
 358              	.LVL17:
 359              		.loc 1 158 0
 360 0022 04B0     		add	sp, sp, #16
 361              		.cfi_def_cfa_offset 8
 362              		@ sp needed
 363 0024 10BD     		pop	{r4, pc}
 364              		.cfi_endproc
 365              	.LFE120:
 366              		.size	rtcGetTimeTm, .-rtcGetTimeTm
 367 0026 00BF     		.section	.text.rtcSetTimeTm,"ax",%progbits
 368              		.align	2
 369              		.p2align 4,,15
 370              		.global	rtcSetTimeTm
 371              		.thumb
 372              		.thumb_func
 373              		.type	rtcSetTimeTm, %function
 374              	rtcSetTimeTm:
 375              	.LFB121:
 376              		.loc 1 168 0
 377              		.cfi_startproc
 378              		@ args = 0, pretend = 0, frame = 16
 379              		@ frame_needed = 0, uses_anonymous_args = 0
 380              	.LVL18:
 381 0000 10B5     		push	{r4, lr}
 382              		.cfi_def_cfa_offset 8
 383              		.cfi_offset 4, -8
 384              		.cfi_offset 14, -4
 385 0002 84B0     		sub	sp, sp, #16
 386              		.cfi_def_cfa_offset 24
 387              		.loc 1 170 0
 388 0004 0023     		movs	r3, #0
 389              		.loc 1 168 0
 390 0006 0446     		mov	r4, r0
 391              		.loc 1 175 0
 392 0008 01AA     		add	r2, sp, #4
 393 000a 0846     		mov	r0, r1
 394              	.LVL19:
 395 000c 6946     		mov	r1, sp
 396              	.LVL20:
 397              		.loc 1 170 0
 398 000e 0093     		str	r3, [sp]
 399 0010 0193     		str	r3, [sp, #4]
ARM GAS  C:\Users\danit\AppData\Local\Temp\cckpmUMk.s 			page 8


 400 0012 8DF80830 		strb	r3, [sp, #8]
 401 0016 0393     		str	r3, [sp, #12]
 402              		.loc 1 175 0
 403 0018 FFF7FEFF 		bl	stm32_rtc_tm2bcd.isra.1
 404              	.LVL21:
 405              		.loc 1 176 0
 406 001c 2046     		mov	r0, r4
 407 001e 6946     		mov	r1, sp
 408 0020 FFF7FEFF 		bl	rtcSetTime
 409              	.LVL22:
 410              		.loc 1 177 0
 411 0024 04B0     		add	sp, sp, #16
 412              		.cfi_def_cfa_offset 8
 413              		@ sp needed
 414 0026 10BD     		pop	{r4, pc}
 415              		.cfi_endproc
 416              	.LFE121:
 417              		.size	rtcSetTimeTm, .-rtcSetTimeTm
 418              		.section	.text.rtcGetTimeUnixSec,"ax",%progbits
 419              		.align	2
 420              		.p2align 4,,15
 421              		.global	rtcGetTimeUnixSec
 422              		.thumb
 423              		.thumb_func
 424              		.type	rtcGetTimeUnixSec, %function
 425              	rtcGetTimeUnixSec:
 426              	.LFB122:
 427              		.loc 1 187 0
 428              		.cfi_startproc
 429              		@ args = 0, pretend = 0, frame = 56
 430              		@ frame_needed = 0, uses_anonymous_args = 0
 431              	.LVL23:
 432 0000 00B5     		push	{lr}
 433              		.cfi_def_cfa_offset 4
 434              		.cfi_offset 14, -4
 435 0002 8FB0     		sub	sp, sp, #60
 436              		.cfi_def_cfa_offset 64
 437              		.loc 1 189 0
 438 0004 0023     		movs	r3, #0
 439              		.loc 1 195 0
 440 0006 01A9     		add	r1, sp, #4
 441              		.loc 1 189 0
 442 0008 0193     		str	r3, [sp, #4]
 443 000a 0293     		str	r3, [sp, #8]
 444 000c 8DF80C30 		strb	r3, [sp, #12]
 445 0010 0493     		str	r3, [sp, #16]
 446              		.loc 1 195 0
 447 0012 FFF7FEFF 		bl	rtcGetTime
 448              	.LVL24:
 449              		.loc 1 196 0
 450 0016 05A8     		add	r0, sp, #20
 451 0018 0199     		ldr	r1, [sp, #4]
 452 001a 029A     		ldr	r2, [sp, #8]
 453 001c FFF7FEFF 		bl	stm32_rtc_bcd2tm.isra.0
 454              	.LVL25:
 455              		.loc 1 198 0
 456 0020 05A8     		add	r0, sp, #20
ARM GAS  C:\Users\danit\AppData\Local\Temp\cckpmUMk.s 			page 9


 457 0022 FFF7FEFF 		bl	mktime
 458              	.LVL26:
 459              		.loc 1 199 0
 460 0026 0FB0     		add	sp, sp, #60
 461              		.cfi_def_cfa_offset 4
 462              		@ sp needed
 463 0028 5DF804FB 		ldr	pc, [sp], #4
 464              		.cfi_endproc
 465              	.LFE122:
 466              		.size	rtcGetTimeUnixSec, .-rtcGetTimeUnixSec
 467              		.section	.text.rtcSetTimeUnixSec,"ax",%progbits
 468              		.align	2
 469              		.p2align 4,,15
 470              		.global	rtcSetTimeUnixSec
 471              		.thumb
 472              		.thumb_func
 473              		.type	rtcSetTimeUnixSec, %function
 474              	rtcSetTimeUnixSec:
 475              	.LFB123:
 476              		.loc 1 210 0
 477              		.cfi_startproc
 478              		@ args = 0, pretend = 0, frame = 64
 479              		@ frame_needed = 0, uses_anonymous_args = 0
 480              	.LVL27:
 481 0000 10B5     		push	{r4, lr}
 482              		.cfi_def_cfa_offset 8
 483              		.cfi_offset 4, -8
 484              		.cfi_offset 14, -4
 485 0002 90B0     		sub	sp, sp, #64
 486              		.cfi_def_cfa_offset 72
 487              		.loc 1 212 0
 488 0004 0023     		movs	r3, #0
 489              		.loc 1 210 0
 490 0006 0446     		mov	r4, r0
 491 0008 0191     		str	r1, [sp, #4]
 492              		.loc 1 218 0
 493 000a 01A8     		add	r0, sp, #4
 494              	.LVL28:
 495 000c 07A9     		add	r1, sp, #28
 496              	.LVL29:
 497              		.loc 1 212 0
 498 000e 0393     		str	r3, [sp, #12]
 499 0010 0493     		str	r3, [sp, #16]
 500 0012 8DF81430 		strb	r3, [sp, #20]
 501 0016 0693     		str	r3, [sp, #24]
 502              		.loc 1 218 0
 503 0018 FFF7FEFF 		bl	localtime_r
 504              	.LVL30:
 505              		.loc 1 219 0
 506 001c 07A8     		add	r0, sp, #28
 507 001e 03A9     		add	r1, sp, #12
 508 0020 04AA     		add	r2, sp, #16
 509 0022 FFF7FEFF 		bl	stm32_rtc_tm2bcd.isra.1
 510              	.LVL31:
 511              		.loc 1 220 0
 512 0026 2046     		mov	r0, r4
 513 0028 03A9     		add	r1, sp, #12
ARM GAS  C:\Users\danit\AppData\Local\Temp\cckpmUMk.s 			page 10


 514 002a FFF7FEFF 		bl	rtcSetTime
 515              	.LVL32:
 516              		.loc 1 221 0
 517 002e 10B0     		add	sp, sp, #64
 518              		.cfi_def_cfa_offset 8
 519              		@ sp needed
 520 0030 10BD     		pop	{r4, pc}
 521              		.cfi_endproc
 522              	.LFE123:
 523              		.size	rtcSetTimeUnixSec, .-rtcSetTimeUnixSec
 524 0032 00BF     		.section	.text.rtcGetTimeUnixUsec,"ax",%progbits
 525              		.align	2
 526              		.p2align 4,,15
 527              		.global	rtcGetTimeUnixUsec
 528              		.thumb
 529              		.thumb_func
 530              		.type	rtcGetTimeUnixUsec, %function
 531              	rtcGetTimeUnixUsec:
 532              	.LFB124:
 533              		.loc 1 231 0
 534              		.cfi_startproc
 535              		@ args = 0, pretend = 0, frame = 56
 536              		@ frame_needed = 0, uses_anonymous_args = 0
 537              	.LVL33:
 538 0000 00B5     		push	{lr}
 539              		.cfi_def_cfa_offset 4
 540              		.cfi_offset 14, -4
 541 0002 8FB0     		sub	sp, sp, #60
 542              		.cfi_def_cfa_offset 64
 543              		.loc 1 234 0
 544 0004 0023     		movs	r3, #0
 545              		.loc 1 237 0
 546 0006 01A9     		add	r1, sp, #4
 547              		.loc 1 234 0
 548 0008 0193     		str	r3, [sp, #4]
 549 000a 0293     		str	r3, [sp, #8]
 550 000c 8DF80C30 		strb	r3, [sp, #12]
 551 0010 0493     		str	r3, [sp, #16]
 552              		.loc 1 237 0
 553 0012 FFF7FEFF 		bl	rtcGetTime
 554              	.LVL34:
 555              		.loc 1 238 0
 556 0016 0199     		ldr	r1, [sp, #4]
 557 0018 029A     		ldr	r2, [sp, #8]
 558 001a 05A8     		add	r0, sp, #20
 559 001c FFF7FEFF 		bl	stm32_rtc_bcd2tm.isra.0
 560              	.LVL35:
 561              		.loc 1 240 0
 562 0020 05A8     		add	r0, sp, #20
 563 0022 FFF7FEFF 		bl	mktime
 564              	.LVL36:
 565              		.loc 1 241 0
 566 0026 049A     		ldr	r2, [sp, #16]
 567 0028 0649     		ldr	r1, .L23
 568 002a 4FF47A73 		mov	r3, #1000
 569 002e 03FB02F2 		mul	r2, r3, r2
 570 0032 0023     		movs	r3, #0
ARM GAS  C:\Users\danit\AppData\Local\Temp\cckpmUMk.s 			page 11


 571 0034 C1FB0023 		smlal	r2, r3, r1, r0
 572 0038 1046     		mov	r0, r2
 573              	.LVL37:
 574 003a 1946     		mov	r1, r3
 575              		.loc 1 245 0
 576 003c 0FB0     		add	sp, sp, #60
 577              		.cfi_def_cfa_offset 4
 578              		@ sp needed
 579 003e 5DF804FB 		ldr	pc, [sp], #4
 580              	.L24:
 581 0042 00BF     		.align	2
 582              	.L23:
 583 0044 40420F00 		.word	1000000
 584              		.cfi_endproc
 585              	.LFE124:
 586              		.size	rtcGetTimeUnixUsec, .-rtcGetTimeUnixUsec
 587              		.text
 588              	.Letext0:
 589              		.file 2 "c:\\program files (x86)\\gnu tools arm embedded\\4.9 2015q2\\arm-none-eabi\\include\\mach
 590              		.file 3 "c:\\program files (x86)\\gnu tools arm embedded\\4.9 2015q2\\arm-none-eabi\\include\\sys\
 591              		.file 4 "c:\\program files (x86)\\gnu tools arm embedded\\4.9 2015q2\\arm-none-eabi\\include\\sys\
 592              		.file 5 "c:\\program files (x86)\\gnu tools arm embedded\\4.9 2015q2\\arm-none-eabi\\include\\time
 593              		.file 6 "../../../ChibiOS/os/ports/GCC/ARMCMx/chtypes.h"
 594              		.file 7 "../../../ChibiOS/os/hal/platforms/STM32F4xx/stm32f4xx.h"
 595              		.file 8 "../../../ChibiOS/os/hal/include/rtc.h"
 596              		.file 9 "../../../ChibiOS/os/hal/platforms/STM32/RTCv2/rtc_lld.h"
 597              		.file 10 "../../../ChibiOS/os/ports/common/ARMCMx/CMSIS/include/core_cm4.h"