ARM GAS  C:\Users\danit\AppData\Local\Temp\ccoJBZpF.s 			page 1


   1              		.syntax unified
   2              		.cpu cortex-m4
   3              		.fpu softvfp
   4              		.eabi_attribute 20, 1
   5              		.eabi_attribute 21, 1
   6              		.eabi_attribute 23, 3
   7              		.eabi_attribute 24, 1
   8              		.eabi_attribute 25, 1
   9              		.eabi_attribute 26, 1
  10              		.eabi_attribute 30, 2
  11              		.eabi_attribute 34, 1
  12              		.eabi_attribute 18, 4
  13              		.thumb
  14              		.file	"chschd.c"
  15              		.text
  16              	.Ltext0:
  17              		.cfi_sections	.debug_frame
  18              		.section	.text.wakeup,"ax",%progbits
  19              		.align	2
  20              		.p2align 4,,15
  21              		.thumb
  22              		.thumb_func
  23              		.type	wakeup, %function
  24              	wakeup:
  25              	.LFB10:
  26              		.file 1 "../../../ChibiOS/os/kernel/src/chschd.c"
  27              		.loc 1 136 0
  28              		.cfi_startproc
  29              		@ args = 0, pretend = 0, frame = 0
  30              		@ frame_needed = 0, uses_anonymous_args = 0
  31              		@ link register save eliminated.
  32              	.LVL0:
  33 0000 10B4     		push	{r4}
  34              		.cfi_def_cfa_offset 4
  35              		.cfi_offset 4, -4
  36              	.LBB44:
  37              		.loc 1 139 0
  38 0002 2023     		movs	r3, #32
  39              	@ 139 "../../../ChibiOS/os/kernel/src/chschd.c" 1
  40 0004 83F31188 		msr     BASEPRI, r3
  41              	@ 0 "" 2
  42              		.thumb
  43              	.LBE44:
  44              		.loc 1 140 0
  45 0008 037F     		ldrb	r3, [r0, #28]	@ zero_extendqisi2
  46 000a 0D2B     		cmp	r3, #13
  47 000c 11D8     		bhi	.L2
  48 000e DFE803F0 		tbb	[pc, r3]
  49              	.L4:
  50 0012 26       		.byte	(.L3-.L4)/2
  51 0013 10       		.byte	(.L2-.L4)/2
  52 0014 10       		.byte	(.L2-.L4)/2
  53 0015 07       		.byte	(.L5-.L4)/2
  54 0016 10       		.byte	(.L2-.L4)/2
  55 0017 0B       		.byte	(.L6-.L4)/2
  56 0018 10       		.byte	(.L2-.L4)/2
  57 0019 10       		.byte	(.L2-.L4)/2
ARM GAS  C:\Users\danit\AppData\Local\Temp\ccoJBZpF.s 			page 2


  58 001a 10       		.byte	(.L2-.L4)/2
  59 001b 10       		.byte	(.L2-.L4)/2
  60 001c 10       		.byte	(.L2-.L4)/2
  61 001d 10       		.byte	(.L2-.L4)/2
  62 001e 10       		.byte	(.L2-.L4)/2
  63 001f 0B       		.byte	(.L6-.L4)/2
  64              		.p2align 1
  65              	.L5:
  66              		.loc 1 150 0
  67 0020 426A     		ldr	r2, [r0, #36]
  68 0022 9368     		ldr	r3, [r2, #8]
  69 0024 0133     		adds	r3, r3, #1
  70 0026 9360     		str	r3, [r2, #8]
  71              	.L6:
  72              	.LVL1:
  73              	.LBB45:
  74              	.LBB46:
  75              		.file 2 "../../../ChibiOS/os/kernel/include/chinline.h"
  76              		.loc 2 75 0
  77 0028 90E80C00 		ldmia	r0, {r2, r3}
  78 002c 1A60     		str	r2, [r3]
  79              		.loc 2 76 0
  80 002e 0268     		ldr	r2, [r0]
  81 0030 5360     		str	r3, [r2, #4]
  82              	.LVL2:
  83              	.L2:
  84              	.LBE46:
  85              	.LBE45:
  86              		.loc 1 163 0
  87 0032 4FF0FF34 		mov	r4, #-1
  88              	.LBB47:
  89              	.LBB48:
  90              		.loc 1 92 0
  91 0036 0023     		movs	r3, #0
  92 0038 8168     		ldr	r1, [r0, #8]
  93              	.LBE48:
  94              	.LBE47:
  95              	.LBB50:
  96              	.LBB51:
  97              	.LBB52:
  98              	.LBB53:
  99              		.loc 1 93 0
 100 003a 0C4A     		ldr	r2, .L12
 101              	.LBE53:
 102              	.LBE52:
 103              	.LBE51:
 104              	.LBE50:
 105              		.loc 1 163 0
 106 003c 4462     		str	r4, [r0, #36]
 107              	.LVL3:
 108              	.LBB61:
 109              	.LBB49:
 110              		.loc 1 92 0
 111 003e 0377     		strb	r3, [r0, #28]
 112              	.LVL4:
 113              	.L8:
 114              	.LBE49:
ARM GAS  C:\Users\danit\AppData\Local\Temp\ccoJBZpF.s 			page 3


 115              	.LBE61:
 116              	.LBB62:
 117              	.LBB60:
 118              	.LBB56:
 119              	.LBB54:
 120              		.loc 1 95 0
 121 0040 1268     		ldr	r2, [r2]
 122              	.LVL5:
 123              		.loc 1 96 0
 124 0042 9368     		ldr	r3, [r2, #8]
 125 0044 8B42     		cmp	r3, r1
 126 0046 FBD2     		bcs	.L8
 127              		.loc 1 99 0
 128 0048 5168     		ldr	r1, [r2, #4]
 129 004a 4160     		str	r1, [r0, #4]
 130              		.loc 1 98 0
 131 004c 0260     		str	r2, [r0]
 132              	.LBE54:
 133              	.LBE56:
 134              	.LBB57:
 135              		.loc 1 165 0
 136 004e 0023     		movs	r3, #0
 137              	.LBE57:
 138              	.LBB58:
 139              	.LBB55:
 140              		.loc 1 100 0
 141 0050 5060     		str	r0, [r2, #4]
 142 0052 0860     		str	r0, [r1]
 143              	.LBE55:
 144              	.LBE58:
 145              	.LBB59:
 146              		.loc 1 165 0
 147              	@ 165 "../../../ChibiOS/os/kernel/src/chschd.c" 1
 148 0054 83F31188 		msr     BASEPRI, r3
 149              	@ 0 "" 2
 150              		.thumb
 151              	.LBE59:
 152              	.LBE60:
 153              	.LBE62:
 154              		.loc 1 166 0
 155 0058 5DF8044B 		ldr	r4, [sp], #4
 156              		.cfi_remember_state
 157              		.cfi_restore 4
 158              		.cfi_def_cfa_offset 0
 159 005c 7047     		bx	lr
 160              	.LVL6:
 161              	.L3:
 162              		.cfi_restore_state
 163              	.LBB63:
 164              		.loc 1 144 0
 165 005e 0023     		movs	r3, #0
 166              	@ 144 "../../../ChibiOS/os/kernel/src/chschd.c" 1
 167 0060 83F31188 		msr     BASEPRI, r3
 168              	@ 0 "" 2
 169              		.thumb
 170              	.LBE63:
 171              		.loc 1 166 0
ARM GAS  C:\Users\danit\AppData\Local\Temp\ccoJBZpF.s 			page 4


 172 0064 5DF8044B 		ldr	r4, [sp], #4
 173              		.cfi_restore 4
 174              		.cfi_def_cfa_offset 0
 175 0068 7047     		bx	lr
 176              	.L13:
 177 006a 00BF     		.align	2
 178              	.L12:
 179 006c 00000000 		.word	.LANCHOR0
 180              		.cfi_endproc
 181              	.LFE10:
 182              		.size	wakeup, .-wakeup
 183              		.section	.text._scheduler_init,"ax",%progbits
 184              		.align	2
 185              		.p2align 4,,15
 186              		.global	_scheduler_init
 187              		.thumb
 188              		.thumb_func
 189              		.type	_scheduler_init, %function
 190              	_scheduler_init:
 191              	.LFB7:
 192              		.loc 1 55 0
 193              		.cfi_startproc
 194              		@ args = 0, pretend = 0, frame = 0
 195              		@ frame_needed = 0, uses_anonymous_args = 0
 196              		@ link register save eliminated.
 197              		.loc 1 57 0
 198 0000 034B     		ldr	r3, .L15
 199              		.loc 1 58 0
 200 0002 0022     		movs	r2, #0
 201              		.loc 1 57 0
 202 0004 5B60     		str	r3, [r3, #4]
 203 0006 1B60     		str	r3, [r3]
 204              		.loc 1 60 0
 205 0008 5B61     		str	r3, [r3, #20]
 206 000a 1B61     		str	r3, [r3, #16]
 207              		.loc 1 58 0
 208 000c 9A60     		str	r2, [r3, #8]
 209 000e 7047     		bx	lr
 210              	.L16:
 211              		.align	2
 212              	.L15:
 213 0010 00000000 		.word	.LANCHOR0
 214              		.cfi_endproc
 215              	.LFE7:
 216              		.size	_scheduler_init, .-_scheduler_init
 217              		.section	.text.chSchReadyI,"ax",%progbits
 218              		.align	2
 219              		.p2align 4,,15
 220              		.global	chSchReadyI
 221              		.thumb
 222              		.thumb_func
 223              		.type	chSchReadyI, %function
 224              	chSchReadyI:
 225              	.LFB8:
 226              		.loc 1 81 0
 227              		.cfi_startproc
 228              		@ args = 0, pretend = 0, frame = 0
ARM GAS  C:\Users\danit\AppData\Local\Temp\ccoJBZpF.s 			page 5


 229              		@ frame_needed = 0, uses_anonymous_args = 0
 230              		@ link register save eliminated.
 231              	.LVL7:
 232              		.loc 1 92 0
 233 0000 0022     		movs	r2, #0
 234 0002 8168     		ldr	r1, [r0, #8]
 235              		.loc 1 93 0
 236 0004 084B     		ldr	r3, .L21
 237              		.loc 1 81 0
 238 0006 10B4     		push	{r4}
 239              		.cfi_def_cfa_offset 4
 240              		.cfi_offset 4, -4
 241              		.loc 1 81 0
 242 0008 0446     		mov	r4, r0
 243              		.loc 1 92 0
 244 000a 0277     		strb	r2, [r0, #28]
 245              	.LVL8:
 246              	.L18:
 247              		.loc 1 95 0 discriminator 1
 248 000c 1B68     		ldr	r3, [r3]
 249              	.LVL9:
 250              		.loc 1 96 0 discriminator 1
 251 000e 9A68     		ldr	r2, [r3, #8]
 252 0010 8A42     		cmp	r2, r1
 253 0012 FBD2     		bcs	.L18
 254              		.loc 1 99 0
 255 0014 5A68     		ldr	r2, [r3, #4]
 256 0016 6260     		str	r2, [r4, #4]
 257              		.loc 1 98 0
 258 0018 2360     		str	r3, [r4]
 259              		.loc 1 102 0
 260 001a 2046     		mov	r0, r4
 261              	.LVL10:
 262              		.loc 1 100 0
 263 001c 5C60     		str	r4, [r3, #4]
 264 001e 1460     		str	r4, [r2]
 265              		.loc 1 102 0
 266 0020 5DF8044B 		ldr	r4, [sp], #4
 267              		.cfi_restore 4
 268              		.cfi_def_cfa_offset 0
 269              	.LVL11:
 270 0024 7047     		bx	lr
 271              	.L22:
 272 0026 00BF     		.align	2
 273              	.L21:
 274 0028 00000000 		.word	.LANCHOR0
 275              		.cfi_endproc
 276              	.LFE8:
 277              		.size	chSchReadyI, .-chSchReadyI
 278              		.section	.text.chSchGoSleepS,"ax",%progbits
 279              		.align	2
 280              		.p2align 4,,15
 281              		.global	chSchGoSleepS
 282              		.thumb
 283              		.thumb_func
 284              		.type	chSchGoSleepS, %function
 285              	chSchGoSleepS:
ARM GAS  C:\Users\danit\AppData\Local\Temp\ccoJBZpF.s 			page 6


 286              	.LFB9:
 287              		.loc 1 115 0
 288              		.cfi_startproc
 289              		@ args = 0, pretend = 0, frame = 0
 290              		@ frame_needed = 0, uses_anonymous_args = 0
 291              		@ link register save eliminated.
 292              	.LVL12:
 293              		.loc 1 120 0
 294 0000 084B     		ldr	r3, .L25
 295              		.loc 1 115 0
 296 0002 30B4     		push	{r4, r5}
 297              		.cfi_def_cfa_offset 8
 298              		.cfi_offset 4, -8
 299              		.cfi_offset 5, -4
 300              	.LBB64:
 301              	.LBB65:
 302              		.loc 2 60 0
 303 0004 1A68     		ldr	r2, [r3]
 304              	.LBE65:
 305              	.LBE64:
 306              		.loc 1 120 0
 307 0006 9969     		ldr	r1, [r3, #24]
 308              	.LVL13:
 309              	.LBB69:
 310              	.LBB66:
 311              		.loc 2 62 0
 312 0008 1468     		ldr	r4, [r2]
 313              	.LBE66:
 314              	.LBE69:
 315              		.loc 1 120 0
 316 000a 0877     		strb	r0, [r1, #28]
 317              		.loc 1 127 0
 318 000c 0125     		movs	r5, #1
 319              		.loc 1 124 0
 320 000e 1420     		movs	r0, #20
 321              	.LVL14:
 322 0010 C877     		strb	r0, [r1, #31]
 323              	.LVL15:
 324              	.LBB70:
 325              	.LBB67:
 326              		.loc 2 62 0
 327 0012 6360     		str	r3, [r4, #4]
 328              	.LBE67:
 329              	.LBE70:
 330              		.loc 1 127 0
 331 0014 1577     		strb	r5, [r2, #28]
 332              	.LVL16:
 333              	.LBB71:
 334              	.LBB68:
 335              		.loc 2 62 0
 336 0016 1C60     		str	r4, [r3]
 337              	.LBE68:
 338              	.LBE71:
 339              		.loc 1 128 0
 340 0018 1046     		mov	r0, r2
 341              		.loc 1 129 0
 342 001a 30BC     		pop	{r4, r5}
ARM GAS  C:\Users\danit\AppData\Local\Temp\ccoJBZpF.s 			page 7


 343              		.cfi_restore 5
 344              		.cfi_restore 4
 345              		.cfi_def_cfa_offset 0
 346              		.loc 1 126 0
 347 001c 9A61     		str	r2, [r3, #24]
 348              		.loc 1 128 0
 349 001e FFF7FEBF 		b	_port_switch
 350              	.LVL17:
 351              	.L26:
 352 0022 00BF     		.align	2
 353              	.L25:
 354 0024 00000000 		.word	.LANCHOR0
 355              		.cfi_endproc
 356              	.LFE9:
 357              		.size	chSchGoSleepS, .-chSchGoSleepS
 358              		.section	.text.chSchGoSleepTimeoutS,"ax",%progbits
 359              		.align	2
 360              		.p2align 4,,15
 361              		.global	chSchGoSleepTimeoutS
 362              		.thumb
 363              		.thumb_func
 364              		.type	chSchGoSleepTimeoutS, %function
 365              	chSchGoSleepTimeoutS:
 366              	.LFB11:
 367              		.loc 1 189 0
 368              		.cfi_startproc
 369              		@ args = 0, pretend = 0, frame = 24
 370              		@ frame_needed = 0, uses_anonymous_args = 0
 371              	.LVL18:
 372 0000 30B5     		push	{r4, r5, lr}
 373              		.cfi_def_cfa_offset 12
 374              		.cfi_offset 4, -12
 375              		.cfi_offset 5, -8
 376              		.cfi_offset 14, -4
 377              		.loc 1 193 0
 378 0002 4B1C     		adds	r3, r1, #1
 379              		.loc 1 189 0
 380 0004 87B0     		sub	sp, sp, #28
 381              		.cfi_def_cfa_offset 40
 382              		.loc 1 193 0
 383 0006 12D0     		beq	.L28
 384              	.LBB72:
 385              		.loc 1 196 0
 386 0008 0C4C     		ldr	r4, .L35
 387 000a 0D4A     		ldr	r2, .L35+4
 388 000c A369     		ldr	r3, [r4, #24]
 389 000e 0546     		mov	r5, r0
 390 0010 01A8     		add	r0, sp, #4
 391              	.LVL19:
 392 0012 FFF7FEFF 		bl	chVTSetI
 393              	.LVL20:
 394              		.loc 1 197 0
 395 0016 2846     		mov	r0, r5
 396 0018 FFF7FEFF 		bl	chSchGoSleepS
 397              	.LVL21:
 398              		.loc 1 198 0
 399 001c 049B     		ldr	r3, [sp, #16]
ARM GAS  C:\Users\danit\AppData\Local\Temp\ccoJBZpF.s 			page 8


 400 001e 13B1     		cbz	r3, .L30
 401              		.loc 1 199 0
 402 0020 01A8     		add	r0, sp, #4
 403 0022 FFF7FEFF 		bl	chVTResetI
 404              	.LVL22:
 405              	.L30:
 406              	.LBE72:
 407              		.loc 1 203 0
 408 0026 A369     		ldr	r3, [r4, #24]
 409              		.loc 1 204 0
 410 0028 586A     		ldr	r0, [r3, #36]
 411 002a 07B0     		add	sp, sp, #28
 412              		.cfi_remember_state
 413              		.cfi_def_cfa_offset 12
 414              		@ sp needed
 415 002c 30BD     		pop	{r4, r5, pc}
 416              	.LVL23:
 417              	.L28:
 418              		.cfi_restore_state
 419 002e 034C     		ldr	r4, .L35
 420              		.loc 1 202 0
 421 0030 FFF7FEFF 		bl	chSchGoSleepS
 422              	.LVL24:
 423              		.loc 1 203 0
 424 0034 A369     		ldr	r3, [r4, #24]
 425              		.loc 1 204 0
 426 0036 586A     		ldr	r0, [r3, #36]
 427 0038 07B0     		add	sp, sp, #28
 428              		.cfi_def_cfa_offset 12
 429              		@ sp needed
 430 003a 30BD     		pop	{r4, r5, pc}
 431              	.L36:
 432              		.align	2
 433              	.L35:
 434 003c 00000000 		.word	.LANCHOR0
 435 0040 00000000 		.word	wakeup
 436              		.cfi_endproc
 437              	.LFE11:
 438              		.size	chSchGoSleepTimeoutS, .-chSchGoSleepTimeoutS
 439              		.section	.text.chSchWakeupS,"ax",%progbits
 440              		.align	2
 441              		.p2align 4,,15
 442              		.global	chSchWakeupS
 443              		.thumb
 444              		.thumb_func
 445              		.type	chSchWakeupS, %function
 446              	chSchWakeupS:
 447              	.LFB12:
 448              		.loc 1 225 0
 449              		.cfi_startproc
 450              		@ args = 0, pretend = 0, frame = 0
 451              		@ frame_needed = 0, uses_anonymous_args = 0
 452              		@ link register save eliminated.
 453              	.LVL25:
 454              		.loc 1 234 0
 455 0000 144B     		ldr	r3, .L46
 456              		.loc 1 225 0
ARM GAS  C:\Users\danit\AppData\Local\Temp\ccoJBZpF.s 			page 9


 457 0002 F0B4     		push	{r4, r5, r6, r7}
 458              		.cfi_def_cfa_offset 16
 459              		.cfi_offset 4, -16
 460              		.cfi_offset 5, -12
 461              		.cfi_offset 6, -8
 462              		.cfi_offset 7, -4
 463              		.loc 1 234 0
 464 0004 9E69     		ldr	r6, [r3, #24]
 465 0006 8468     		ldr	r4, [r0, #8]
 466              		.loc 1 225 0
 467 0008 0546     		mov	r5, r0
 468              		.loc 1 234 0
 469 000a B068     		ldr	r0, [r6, #8]
 470              	.LVL26:
 471              		.loc 1 229 0
 472 000c 6962     		str	r1, [r5, #36]
 473              		.loc 1 234 0
 474 000e 8442     		cmp	r4, r0
 475              	.LBB73:
 476              	.LBB74:
 477              		.loc 1 92 0
 478 0010 4FF00002 		mov	r2, #0
 479              	.LBE74:
 480              	.LBE73:
 481              		.loc 1 234 0
 482 0014 0BD8     		bhi	.L38
 483              	.LVL27:
 484              	.LBB76:
 485              	.LBB75:
 486              		.loc 1 92 0
 487 0016 2A77     		strb	r2, [r5, #28]
 488              	.LVL28:
 489              	.L39:
 490              		.loc 1 95 0
 491 0018 1B68     		ldr	r3, [r3]
 492              	.LVL29:
 493              		.loc 1 96 0
 494 001a 9A68     		ldr	r2, [r3, #8]
 495 001c 9442     		cmp	r4, r2
 496 001e FBD9     		bls	.L39
 497              		.loc 1 99 0
 498 0020 5A68     		ldr	r2, [r3, #4]
 499 0022 6A60     		str	r2, [r5, #4]
 500              		.loc 1 98 0
 501 0024 2B60     		str	r3, [r5]
 502              		.loc 1 100 0
 503 0026 5D60     		str	r5, [r3, #4]
 504 0028 1560     		str	r5, [r2]
 505              	.LBE75:
 506              	.LBE76:
 507              		.loc 1 242 0
 508 002a F0BC     		pop	{r4, r5, r6, r7}
 509              		.cfi_remember_state
 510              		.cfi_restore 7
 511              		.cfi_restore 6
 512              		.cfi_restore 5
 513              		.cfi_restore 4
ARM GAS  C:\Users\danit\AppData\Local\Temp\ccoJBZpF.s 			page 10


 514              		.cfi_def_cfa_offset 0
 515              	.LVL30:
 516 002c 7047     		bx	lr
 517              	.LVL31:
 518              	.L38:
 519              		.cfi_restore_state
 520              	.LBB77:
 521              	.LBB78:
 522              	.LBB79:
 523              		.loc 1 92 0
 524 002e 3277     		strb	r2, [r6, #28]
 525              	.LVL32:
 526              		.loc 1 93 0
 527 0030 1A46     		mov	r2, r3
 528              	.LVL33:
 529              	.L41:
 530              		.loc 1 95 0
 531 0032 1268     		ldr	r2, [r2]
 532              	.LVL34:
 533              		.loc 1 96 0
 534 0034 9168     		ldr	r1, [r2, #8]
 535 0036 8842     		cmp	r0, r1
 536 0038 FBD9     		bls	.L41
 537              		.loc 1 99 0
 538 003a 5468     		ldr	r4, [r2, #4]
 539 003c 7460     		str	r4, [r6, #4]
 540              	.LBE79:
 541              	.LBE78:
 542              		.loc 1 239 0
 543 003e 0127     		movs	r7, #1
 544              	.LBB81:
 545              	.LBB80:
 546              		.loc 1 98 0
 547 0040 3260     		str	r2, [r6]
 548              		.loc 1 100 0
 549 0042 5660     		str	r6, [r2, #4]
 550 0044 2660     		str	r6, [r4]
 551              	.LBE80:
 552              	.LBE81:
 553              		.loc 1 239 0
 554 0046 2F77     		strb	r7, [r5, #28]
 555              		.loc 1 240 0
 556 0048 3146     		mov	r1, r6
 557 004a 2846     		mov	r0, r5
 558              		.loc 1 238 0
 559 004c 9D61     		str	r5, [r3, #24]
 560              	.LBE77:
 561              		.loc 1 242 0
 562 004e F0BC     		pop	{r4, r5, r6, r7}
 563              		.cfi_restore 7
 564              		.cfi_restore 6
 565              		.cfi_restore 5
 566              		.cfi_restore 4
 567              		.cfi_def_cfa_offset 0
 568              	.LVL35:
 569              	.LBB82:
 570              		.loc 1 240 0
ARM GAS  C:\Users\danit\AppData\Local\Temp\ccoJBZpF.s 			page 11


 571 0050 FFF7FEBF 		b	_port_switch
 572              	.LVL36:
 573              	.L47:
 574              		.align	2
 575              	.L46:
 576 0054 00000000 		.word	.LANCHOR0
 577              	.LBE82:
 578              		.cfi_endproc
 579              	.LFE12:
 580              		.size	chSchWakeupS, .-chSchWakeupS
 581              		.section	.text.chSchDoRescheduleBehind,"ax",%progbits
 582              		.align	2
 583              		.p2align 4,,15
 584              		.global	chSchDoRescheduleBehind
 585              		.thumb
 586              		.thumb_func
 587              		.type	chSchDoRescheduleBehind, %function
 588              	chSchDoRescheduleBehind:
 589              	.LFB14:
 590              		.loc 1 304 0
 591              		.cfi_startproc
 592              		@ args = 0, pretend = 0, frame = 0
 593              		@ frame_needed = 0, uses_anonymous_args = 0
 594              		@ link register save eliminated.
 595              		.loc 1 307 0
 596 0000 0E4A     		ldr	r2, .L53
 597              	.LBB83:
 598              	.LBB84:
 599              		.loc 2 60 0
 600 0002 1068     		ldr	r0, [r2]
 601              	.LBE84:
 602              	.LBE83:
 603              		.loc 1 304 0
 604 0004 F0B4     		push	{r4, r5, r6, r7}
 605              		.cfi_def_cfa_offset 16
 606              		.cfi_offset 4, -16
 607              		.cfi_offset 5, -12
 608              		.cfi_offset 6, -8
 609              		.cfi_offset 7, -4
 610              	.LBB88:
 611              	.LBB85:
 612              		.loc 2 62 0
 613 0006 0368     		ldr	r3, [r0]
 614              	.LBE85:
 615              	.LBE88:
 616              		.loc 1 307 0
 617 0008 9469     		ldr	r4, [r2, #24]
 618              	.LVL37:
 619              	.LBB89:
 620              	.LBB86:
 621              		.loc 2 62 0
 622 000a 1360     		str	r3, [r2]
 623              	.LBE86:
 624              	.LBE89:
 625              		.loc 1 310 0
 626 000c 0127     		movs	r7, #1
 627              		.loc 1 312 0
ARM GAS  C:\Users\danit\AppData\Local\Temp\ccoJBZpF.s 			page 12


 628 000e 1426     		movs	r6, #20
 629              	.LBB90:
 630              	.LBB91:
 631              		.loc 1 92 0
 632 0010 0025     		movs	r5, #0
 633 0012 A168     		ldr	r1, [r4, #8]
 634              	.LBE91:
 635              	.LBE90:
 636              	.LBB95:
 637              	.LBB87:
 638              		.loc 2 62 0
 639 0014 5A60     		str	r2, [r3, #4]
 640              	.LBE87:
 641              	.LBE95:
 642              		.loc 1 310 0
 643 0016 0777     		strb	r7, [r0, #28]
 644              	.LBB96:
 645              	.LBB92:
 646              		.loc 1 92 0
 647 0018 0346     		mov	r3, r0
 648              	.LBE92:
 649              	.LBE96:
 650              		.loc 1 309 0
 651 001a 9061     		str	r0, [r2, #24]
 652              		.loc 1 312 0
 653 001c E677     		strb	r6, [r4, #31]
 654              	.LVL38:
 655              	.LBB97:
 656              	.LBB93:
 657              		.loc 1 92 0
 658 001e 2577     		strb	r5, [r4, #28]
 659              	.LVL39:
 660 0020 00E0     		b	.L50
 661              	.LVL40:
 662              	.L52:
 663 0022 1B68     		ldr	r3, [r3]
 664              	.LVL41:
 665              	.L50:
 666              		.loc 1 96 0
 667 0024 9A68     		ldr	r2, [r3, #8]
 668 0026 8A42     		cmp	r2, r1
 669 0028 FBD2     		bcs	.L52
 670              		.loc 1 99 0
 671 002a 5A68     		ldr	r2, [r3, #4]
 672 002c 6260     		str	r2, [r4, #4]
 673              		.loc 1 98 0
 674 002e 2360     		str	r3, [r4]
 675              	.LBE93:
 676              	.LBE97:
 677              		.loc 1 315 0
 678 0030 2146     		mov	r1, r4
 679              	.LBB98:
 680              	.LBB94:
 681              		.loc 1 100 0
 682 0032 5C60     		str	r4, [r3, #4]
 683 0034 1460     		str	r4, [r2]
 684              	.LBE94:
ARM GAS  C:\Users\danit\AppData\Local\Temp\ccoJBZpF.s 			page 13


 685              	.LBE98:
 686              		.loc 1 316 0
 687 0036 F0BC     		pop	{r4, r5, r6, r7}
 688              		.cfi_restore 7
 689              		.cfi_restore 6
 690              		.cfi_restore 5
 691              		.cfi_restore 4
 692              		.cfi_def_cfa_offset 0
 693              	.LVL42:
 694              		.loc 1 315 0
 695 0038 FFF7FEBF 		b	_port_switch
 696              	.LVL43:
 697              	.L54:
 698              		.align	2
 699              	.L53:
 700 003c 00000000 		.word	.LANCHOR0
 701              		.cfi_endproc
 702              	.LFE14:
 703              		.size	chSchDoRescheduleBehind, .-chSchDoRescheduleBehind
 704              		.section	.text.chSchDoRescheduleAhead,"ax",%progbits
 705              		.align	2
 706              		.p2align 4,,15
 707              		.global	chSchDoRescheduleAhead
 708              		.thumb
 709              		.thumb_func
 710              		.type	chSchDoRescheduleAhead, %function
 711              	chSchDoRescheduleAhead:
 712              	.LFB15:
 713              		.loc 1 329 0
 714              		.cfi_startproc
 715              		@ args = 0, pretend = 0, frame = 0
 716              		@ frame_needed = 0, uses_anonymous_args = 0
 717              		@ link register save eliminated.
 718              		.loc 1 332 0
 719 0000 0D4A     		ldr	r2, .L60
 720              	.LBB99:
 721              	.LBB100:
 722              		.loc 2 60 0
 723 0002 1068     		ldr	r0, [r2]
 724              	.LBE100:
 725              	.LBE99:
 726              		.loc 1 329 0
 727 0004 70B4     		push	{r4, r5, r6}
 728              		.cfi_def_cfa_offset 12
 729              		.cfi_offset 4, -12
 730              		.cfi_offset 5, -8
 731              		.cfi_offset 6, -4
 732              	.LBB104:
 733              	.LBB101:
 734              		.loc 2 62 0
 735 0006 0368     		ldr	r3, [r0]
 736              	.LBE101:
 737              	.LBE104:
 738              		.loc 1 332 0
 739 0008 9469     		ldr	r4, [r2, #24]
 740              	.LVL44:
 741              	.LBB105:
ARM GAS  C:\Users\danit\AppData\Local\Temp\ccoJBZpF.s 			page 14


 742              	.LBB102:
 743              		.loc 2 62 0
 744 000a 1360     		str	r3, [r2]
 745              	.LBE102:
 746              	.LBE105:
 747              		.loc 1 335 0
 748 000c 0126     		movs	r6, #1
 749              		.loc 1 337 0
 750 000e 0025     		movs	r5, #0
 751 0010 A168     		ldr	r1, [r4, #8]
 752              	.LBB106:
 753              	.LBB103:
 754              		.loc 2 62 0
 755 0012 5A60     		str	r2, [r3, #4]
 756              	.LBE103:
 757              	.LBE106:
 758              		.loc 1 335 0
 759 0014 0677     		strb	r6, [r0, #28]
 760              		.loc 1 337 0
 761 0016 0346     		mov	r3, r0
 762              		.loc 1 334 0
 763 0018 9061     		str	r0, [r2, #24]
 764              		.loc 1 337 0
 765 001a 2577     		strb	r5, [r4, #28]
 766              	.LVL45:
 767 001c 00E0     		b	.L57
 768              	.LVL46:
 769              	.L59:
 770 001e 1B68     		ldr	r3, [r3]
 771              	.LVL47:
 772              	.L57:
 773              		.loc 1 341 0 discriminator 1
 774 0020 9A68     		ldr	r2, [r3, #8]
 775 0022 8A42     		cmp	r2, r1
 776 0024 FBD8     		bhi	.L59
 777              		.loc 1 344 0
 778 0026 5A68     		ldr	r2, [r3, #4]
 779 0028 6260     		str	r2, [r4, #4]
 780              		.loc 1 343 0
 781 002a 2360     		str	r3, [r4]
 782              		.loc 1 347 0
 783 002c 2146     		mov	r1, r4
 784              		.loc 1 345 0
 785 002e 5C60     		str	r4, [r3, #4]
 786 0030 1460     		str	r4, [r2]
 787              		.loc 1 348 0
 788 0032 70BC     		pop	{r4, r5, r6}
 789              		.cfi_restore 6
 790              		.cfi_restore 5
 791              		.cfi_restore 4
 792              		.cfi_def_cfa_offset 0
 793              	.LVL48:
 794              		.loc 1 347 0
 795 0034 FFF7FEBF 		b	_port_switch
 796              	.LVL49:
 797              	.L61:
 798              		.align	2
ARM GAS  C:\Users\danit\AppData\Local\Temp\ccoJBZpF.s 			page 15


 799              	.L60:
 800 0038 00000000 		.word	.LANCHOR0
 801              		.cfi_endproc
 802              	.LFE15:
 803              		.size	chSchDoRescheduleAhead, .-chSchDoRescheduleAhead
 804              		.section	.text.chSchRescheduleS,"ax",%progbits
 805              		.align	2
 806              		.p2align 4,,15
 807              		.global	chSchRescheduleS
 808              		.thumb
 809              		.thumb_func
 810              		.type	chSchRescheduleS, %function
 811              	chSchRescheduleS:
 812              	.LFB13:
 813              		.loc 1 253 0
 814              		.cfi_startproc
 815              		@ args = 0, pretend = 0, frame = 0
 816              		@ frame_needed = 0, uses_anonymous_args = 0
 817              		@ link register save eliminated.
 818              		.loc 1 257 0
 819 0000 044B     		ldr	r3, .L65
 820 0002 1A68     		ldr	r2, [r3]
 821 0004 9B69     		ldr	r3, [r3, #24]
 822 0006 9268     		ldr	r2, [r2, #8]
 823 0008 9B68     		ldr	r3, [r3, #8]
 824 000a 9A42     		cmp	r2, r3
 825 000c 00D8     		bhi	.L64
 826 000e 7047     		bx	lr
 827              	.L64:
 828              		.loc 1 258 0
 829 0010 FFF7FEBF 		b	chSchDoRescheduleAhead
 830              	.LVL50:
 831              	.L66:
 832              		.align	2
 833              	.L65:
 834 0014 00000000 		.word	.LANCHOR0
 835              		.cfi_endproc
 836              	.LFE13:
 837              		.size	chSchRescheduleS, .-chSchRescheduleS
 838              		.section	.text.chSchDoReschedule,"ax",%progbits
 839              		.align	2
 840              		.p2align 4,,15
 841              		.global	chSchDoReschedule
 842              		.thumb
 843              		.thumb_func
 844              		.type	chSchDoReschedule, %function
 845              	chSchDoReschedule:
 846              	.LFB16:
 847              		.loc 1 362 0
 848              		.cfi_startproc
 849              		@ args = 0, pretend = 0, frame = 0
 850              		@ frame_needed = 0, uses_anonymous_args = 0
 851              		@ link register save eliminated.
 852              		.loc 1 367 0
 853 0000 034B     		ldr	r3, .L70
 854 0002 9B69     		ldr	r3, [r3, #24]
 855 0004 DB7F     		ldrb	r3, [r3, #31]	@ zero_extendqisi2
ARM GAS  C:\Users\danit\AppData\Local\Temp\ccoJBZpF.s 			page 16


 856 0006 0BB1     		cbz	r3, .L69
 857              		.loc 1 375 0
 858 0008 FFF7FEBF 		b	chSchDoRescheduleAhead
 859              	.LVL51:
 860              	.L69:
 861              		.loc 1 370 0
 862 000c FFF7FEBF 		b	chSchDoRescheduleBehind
 863              	.LVL52:
 864              	.L71:
 865              		.align	2
 866              	.L70:
 867 0010 00000000 		.word	.LANCHOR0
 868              		.cfi_endproc
 869              	.LFE16:
 870              		.size	chSchDoReschedule, .-chSchDoReschedule
 871              		.global	rlist
 872              		.section	.bss.rlist,"aw",%nobits
 873              		.align	2
 874              		.set	.LANCHOR0,. + 0
 875              		.type	rlist, %object
 876              		.size	rlist, 28
 877              	rlist:
 878 0000 00000000 		.space	28
 878      00000000 
 878      00000000 
 878      00000000 
 878      00000000 
 879              		.text
 880              	.Letext0:
 881              		.file 3 "c:\\program files (x86)\\gnu tools arm embedded\\4.9 2015q2\\arm-none-eabi\\include\\mach
 882              		.file 4 "c:\\program files (x86)\\gnu tools arm embedded\\4.9 2015q2\\arm-none-eabi\\include\\sys\
 883              		.file 5 "../../../ChibiOS/os/ports/GCC/ARMCMx/chtypes.h"
 884              		.file 6 "../../../ChibiOS/os/kernel/include/chlists.h"
 885              		.file 7 "../../../ChibiOS/os/kernel/include/chthreads.h"
 886              		.file 8 "../../../ChibiOS/os/ports/GCC/ARMCMx/chcore_v7m.h"
 887              		.file 9 "../../../ChibiOS/os/kernel/include/chvt.h"
 888              		.file 10 "../../../ChibiOS/os/kernel/include/chschd.h"
 889              		.file 11 "../../../ChibiOS/os/kernel/include/chsem.h"
 890              		.file 12 "../../../ChibiOS/os/kernel/include/chmtx.h"