ARM GAS  C:\Users\danit\AppData\Local\Temp\ccoJBZpF.s 			page 1


   1              		.syntax unified
   2              		.cpu cortex-m4
   3              		.fpu softvfp
   4              		.eabi_attribute 20, 1
   5              		.eabi_attribute 21, 1
   6              		.eabi_attribute 23, 3
   7              		.eabi_attribute 24, 1
   8              		.eabi_attribute 25, 1
   9              		.eabi_attribute 26, 1
  10              		.eabi_attribute 30, 2
  11              		.eabi_attribute 34, 1
  12              		.eabi_attribute 18, 4
  13              		.thumb
  14              		.file	"chschd.c"
  15              		.text
  16              	.Ltext0:
  17              		.cfi_sections	.debug_frame
  18              		.section	.text.wakeup,"ax",%progbits
  19              		.align	2
  20              		.p2align 4,,15
  21              		.thumb
  22              		.thumb_func
  23              		.type	wakeup, %function
  24              	wakeup:
  25              	.LFB10:
  26              		.file 1 "../../../ChibiOS/os/kernel/src/chschd.c"
  27              		.loc 1 136 0
  28              		.cfi_startproc
  29              		@ args = 0, pretend = 0, frame = 0
  30              		@ frame_needed = 0, uses_anonymous_args = 0
  31              		@ link register save eliminated.
  32              	.LVL0:
  33 0000 10B4     		push	{r4}
  34              		.cfi_def_cfa_offset 4
  35              		.cfi_offset 4, -4
  36              	.LBB44:
  37              		.loc 1 139 0
  38 0002 2023     		movs	r3, #32
  39              	@ 139 "../../../ChibiOS/os/kernel/src/chschd.c" 1
  40 0004 83F31188 		msr     BASEPRI, r3
  41              	@ 0 "" 2
  42              		.thumb
  43              	.LBE44:
  44              		.loc 1 140 0
  45 0008 037F     		ldrb	r3, [r0, #28]	@ zero_extendqisi2
  46 000a 0D2B     		cmp	r3, #13
  47 000c 11D8     		bhi	.L2
  48 000e DFE803F0 		tbb	[pc, r3]
  49              	.L4:
  50 0012 26       		.byte	(.L3-.L4)/2
  51 0013 10       		.byte	(.L2-.L4)/2
  52 0014 10       		.byte	(.L2-.L4)/2
  53 0015 07       		.byte	(.L5-.L4)/2
  54 0016 10       		.byte	(.L2-.L4)/2
  55 0017 0B       		.byte	(.L6-.L4)/2
  56 0018 10       		.byte	(.L2-.L4)/2
  57 0019 10       		.byte	(.L2-.L4)/2
ARM GAS  C:\Users\danit\AppData\Local\Temp\ccoJBZpF.s 			page 2


  58 001a 10       		.byte	(.L2-.L4)/2
  59 001b 10       		.byte	(.L2-.L4)/2
  60 001c 10       		.byte	(.L2-.L4)/2
  61 001d 10       		.byte	(.L2-.L4)/2
  62 001e 10       		.byte	(.L2-.L4)/2
  63 001f 0B       		.byte	(.L6-.L4)/2
  64              		.p2align 1
  65              	.L5:
  66              		.loc 1 150 0
  67 0020 426A     		ldr	r2, [r0, #36]
  68 0022 9368     		ldr	r3, [r2, #8]
  69 0024 0133     		adds	r3, r3, #1
  70 0026 9360     		str	r3, [r2, #8]
  71              	.L6:
  72              	.LVL1:
  73              	.LBB45:
  74              	.LBB46:
  75              		.file 2 "../../../ChibiOS/os/kernel/include/chinline.h"
  76              		.loc 2 75 0
  77 0028 90E80C00 		ldmia	r0, {r2, r3}
  78 002c 1A60     		str	r2, [r3]
  79              		.loc 2 76 0
  80 002e 0268     		ldr	r2, [r0]
  81 0030 5360     		str	r3, [r2, #4]
  82              	.LVL2:
  83              	.L2:
  84              	.LBE46:
  85              	.LBE45:
  86              		.loc 1 163 0
  87 0032 4FF0FF34 		mov	r4, #-1
  88              	.LBB47:
  89              	.LBB48:
  90              		.loc 1 92 0
  91 0036 0023     		movs	r3, #0
  92 0038 8168     		ldr	r1, [r0, #8]
  93              	.LBE48:
  94              	.LBE47:
  95              	.LBB50:
  96              	.LBB51:
  97              	.LBB52:
  98              	.LBB53:
  99              		.loc 1 93 0
 100 003a 0C4A     		ldr	r2, .L12
 101              	.LBE53:
 102              	.LBE52:
 103              	.LBE51:
 104              	.LBE50:
 105              		.loc 1 163 0
 106 003c 4462     		str	r4, [r0, #36]
 107              	.LVL3:
 108              	.LBB61:
 109              	.LBB49:
 110              		.loc 1 92 0
 111 003e 0377     		strb	r3, [r0, #28]
 112              	.LVL4:
 113              	.L8:
 114              	.LBE49:
ARM GAS  C:\Users\danit\AppData\Local\Temp\ccoJBZpF.s 			page 3


 115              	.LBE61:
 116              	.LBB62:
 117              	.LBB60:
 118              	.LBB56:
 119              	.LBB54:
 120              		.loc 1 95 0
 121 0040 1268     		ldr	r2, [r2]
 122              	.LVL5:
 123              		.loc 1 96 0
 124 0042 9368     		ldr	r3, [r2, #8]
 125 0044 8B42     		cmp	r3, r1
 126 0046 FBD2     		bcs	.L8
 127              		.loc 1 99 0
 128 0048 5168     		ldr	r1, [r2, #4]
 129 004a 4160     		str	r1, [r0, #4]
 130              		.loc 1 98 0
 131 004c 0260     		str	r2, [r0]
 132              	.LBE54:
 133              	.LBE56:
 134              	.LBB57:
 135              		.loc 1 165 0
 136 004e 0023     		movs	r3, #0
 137              	.LBE57:
 138              	.LBB58:
 139              	.LBB55:
 140              		.loc 1 100 0
 141 0050 5060     		str	r0, [r2, #4]
 142 0052 0860     		str	r0, [r1]
 143              	.LBE55:
 144              	.LBE58:
 145              	.LBB59:
 146              		.loc 1 165 0
 147              	@ 165 "../../../ChibiOS/os/kernel/src/chschd.c" 1
 148 0054 83F31188 		msr     BASEPRI, r3
 149              	@ 0 "" 2
 150              		.thumb
 151              	.LBE59:
 152              	.LBE60:
 153              	.LBE62:
 154              		.loc 1 166 0
 155 0058 5DF8044B 		ldr	r4, [sp], #4
 156              		.cfi_remember_state
 157              		.cfi_restore 4
 158              		.cfi_def_cfa_offset 0
 159 005c 7047     		bx	lr
 160              	.LVL6:
 161              	.L3:
 162              		.cfi_restore_state
 163              	.LBB63:
 164              		.loc 1 144 0
 165 005e 0023     		movs	r3, #0
 166              	@ 144 "../../../ChibiOS/os/kernel/src/chschd.c" 1
 167 0060 83F31188 		msr     BASEPRI, r3
 168              	@ 0 "" 2
 169              		.thumb
 170              	.LBE63:
 171              		.loc 1 166 0
ARM GAS  C:\Users\danit\AppData\Local\Temp\ccoJBZpF.s 			page 4


 172 0064 5DF8044B 		ldr	r4, [sp], #4
 173              		.cfi_restore 4
 174              		.cfi_def_cfa_offset 0
 175 0068 7047     		bx	lr
 176              	.L13:
 177 006a 00BF     		.align	2
 178              	.L12:
 179 006c 00000000 		.word	.LANCHOR0
 180              		.cfi_endproc
 181              	.LFE10:
 182              		.size	wakeup, .-wakeup
 183              		.section	.text._scheduler_init,"ax",%progbits
 184              		.align	2
 185              		.p2align 4,,15
 186              		.global	_scheduler_init
 187              		.thumb
 188              		.thumb_func
 189              		.type	_scheduler_init, %function
 190              	_scheduler_init:
 191              	.LFB7:
 192              		.loc 1 55 0
 193              		.cfi_startproc
 194              		@ args = 0, pretend = 0, frame = 0
 195              		@ frame_needed = 0, uses_anonymous_args = 0
 196              		@ link register save eliminated.
 197              		.loc 1 57 0
 198 0000 034B     		ldr	r3, .L15
 199              		.loc 1 58 0
 200 0002 0022     		movs	r2, #0
 201              		.loc 1 57 0
 202 0004 5B60     		str	r3, [r3, #4]
 203 0006 1B60     		str	r3, [r3]
 204              		.loc 1 60 0
 205 0008 5B61     		str	r3, [r3, #20]
 206 000a 1B61     		str	r3, [r3, #16]
 207              		.loc 1 58 0
 208 000c 9A60     		str	r2, [r3, #8]
 209 000e 7047     		bx	lr
 210              	.L16:
 211              		.align	2
 212              	.L15:
 213 0010 00000000 		.word	.LANCHOR0
 214              		.cfi_endproc
 215              	.LFE7:
 216              		.size	_scheduler_init, .-_scheduler_init
 217              		.section	.text.chSchReadyI,"ax",%progbits
 218              		.align	2
 219              		.p2align 4,,15
 220              		.global	chSchReadyI
 221              		.thumb
 222              		.thumb_func
 223              		.type	chSchReadyI, %function
 224              	chSchReadyI:
 225              	.LFB8:
 226              		.loc 1 81 0
 227              		.cfi_startproc
 228              		@ args = 0, pretend = 0, frame = 0
ARM GAS  C:\Users\danit\AppData\Local\Temp\ccoJBZpF.s 			page 5


 229              		@ frame_needed = 0, uses_anonymous_args = 0
 230              		@ link register save eliminated.
 231              	.LVL7:
 232              		.loc 1 92 0
 233 0000 0022     		movs	r2, #0
 234 0002 8168     		ldr	r1, [r0, #8]
 235              		.loc 1 93 0
 236 0004 084B     		ldr	r3, .L21
 237              		.loc 1 81 0
 238 0006 10B4     		push	{r4}
 239              		.cfi_def_cfa_offset 4
 240              		.cfi_offset 4, -4
 241              		.loc 1 81 0
 242 0008 0446     		mov	r4, r0
 243              		.loc 1 92 0
 244 000a 0277     		strb	r2, [r0, #28]
 245              	.LVL8:
 246              	.L18:
 247              		.loc 1 95 0 discriminator 1
 248 000c 1B68     		ldr	r3, [r3]
 249              	.LVL9:
 250              		.loc 1 96 0 discriminator 1
 251 000e 9A68     		ldr	r2, [r3, #8]
 252 0010 8A42     		cmp	r2, r1
 253 0012 FBD2     		bcs	.L18
 254              		.loc 1 99 0
 255 0014 5A68     		ldr	r2, [r3, #4]
 256 0016 6260     		str	r2, [r4, #4]
 257              		.loc 1 98 0
 258 0018 2360     		str	r3, [r4]
 259              		.loc 1 102 0
 260 001a 2046     		mov	r0, r4
 261              	.LVL10:
 262              		.loc 1 100 0
 263 001c 5C60     		str	r4, [r3, #4]
 264 001e 1460     		str	r4, [r2]
 265              		.loc 1 102 0
 266 0020 5DF8044B 		ldr	r4, [sp], #4
 267              		.cfi_restore 4
 268              		.cfi_def_cfa_offset 0
 269              	.LVL11:
 270 0024 7047     		bx	lr
 271              	.L22:
 272 0026 00BF     		.align	2
 273              	.L21:
 274 0028 00000000 		.word	.LANCHOR0
 275              		.cfi_endproc
 276              	.LFE8:
 277              		.size	chSchReadyI, .-chSchReadyI
 278              		.section	.text.chSchGoSleepS,"ax",%progbits
 279              		.align	2
 280              		.p2align 4,,15
 281              		.global	chSchGoSleepS
 282              		.thumb
 283              		.thumb_func
 284              		.type	chSchGoSleepS, %function
 285              	chSchGoSleepS:
ARM GAS  C:\Users\danit\AppData\Local\Temp\ccoJBZpF.s 			page 6


 286              	.LFB9:
 287              		.loc 1 115 0
 288              		.cfi_startproc
 289              		@ args = 0, pretend = 0, frame = 0
 290              		@ frame_needed = 0, uses_anonymous_args = 0
 291              		@ link register save eliminated.
 292              	.LVL12:
 293              		.loc 1 120 0
 294 0000 084B     		ldr	r3, .L25
 295              		.loc 1 115 0
 296 0002 30B4     		push	{r4, r5}
 297              		.cfi_def_cfa_offset 8
 298              		.cfi_offset 4, -8
 299              		.cfi_offset 5, -4
 300              	.LBB64:
 301              	.LBB65:
 302              		.loc 2 60 0
 303 0004 1A68     		ldr	r2, [r3]
 304              	.LBE65:
 305              	.LBE64:
 306              		.loc 1 120 0
 307 0006 9969     		ldr	r1, [r3, #24]
 308              	.LVL13:
 309              	.LBB69:
 310              	.LBB66:
 311              		.loc 2 62 0
 312 0008 1468     		ldr	r4, [r2]
 313              	.LBE66:
 314              	.LBE69:
 315              		.loc 1 120 0
 316 000a 0877     		strb	r0, [r1, #28]
 317              		.loc 1 127 0
 318 000c 0125     		movs	r5, #1
 319              		.loc 1 124 0
 320 000e 1420     		movs	r0, #20
 321              	.LVL14:
 322 0010 C877     		strb	r0, [r1, #31]
 323              	.LVL15:
 324              	.LBB70:
 325              	.LBB67:
 326              		.loc 2 62 0
 327 0012 6360     		str	r3, [r4, #4]
 328              	.LBE67:
 329              	.LBE70:
 330              		.loc 1 127 0
 331 0014 1577     		strb	r5, [r2, #28]
 332              	.LVL16:
 333              	.LBB71:
 334              	.LBB68:
 335              		.loc 2 62 0
 336 0016 1C60     		str	r4, [r3]
 337              	.LBE68:
 338              	.LBE71:
 339              		.loc 1 128 0
 340 0018 1046     		mov	r0, r2
 341              		.loc 1 129 0
 342 001a 30BC     		pop	{r4, r5}
ARM GAS  C:\Users\danit\AppData\Local\Temp\ccoJBZpF.s 			page 7


 343              		.cfi_restore 5
 344              		.cfi_restore 4
 345              		.cfi_def_cfa_offset 0
 346              		.loc 1 126 0
 347 001c 9A61     		str	r2, [r3, #24]
 348              		.loc 1 128 0
 349 001e FFF7FEBF 		b	_port_switch
 350              	.LVL17:
 351              	.L26:
 352 0022 00BF     		.align	2
 353              	.L25:
 354 0024 00000000 		.word	.LANCHOR0
 355              		.cfi_endproc
 356              	.LFE9:
 357              		.size	chSchGoSleepS, .-chSchGoSleepS
 358              		.section	.text.chSchGoSleepTimeoutS,"ax",%progbits
 359              		.align	2
 360              		.p2align 4,,15
 361              		.global	chSchGoSleepTimeoutS
 362              		.thumb
 363              		.thumb_func
 364              		.type	chSchGoSleepTimeoutS, %function
 365              	chSchGoSleepTimeoutS:
 366              	.LFB11:
 367              		.loc 1 189 0
 368              		.cfi_startproc
 369              		@ args = 0, pretend = 0, frame = 24
 370              		@ frame_needed = 0, uses_anonymous_args = 0
 371              	.LVL18:
 372 0000 30B5     		push	{r4, r5, lr}
 373              		.cfi_def_cfa_offset 12
 374              		.cfi_offset 4, -12
 375              		.cfi_offset 5, -8
 376              		.cfi_offset 14, -4
 377              		.loc 1 193 0
 378 0002 4B1C     		adds	r3, r1, #1
 379              		.loc 1 189 0
 380 0004 87B0     		sub	sp, sp, #28
 381              		.cfi_def_cfa_offset 40
 382              		.loc 1 193 0
 383 0006 12D0     		beq	.L28
 384              	.LBB72:
 385              		.loc 1 196 0
 386 0008 0C4C     		ldr	r4, .L35
 387 000a 0D4A     		ldr	r2, .L35+4
 388 000c A369     		ldr	r3, [r4, #24]
 389 000e 0546     		mov	r5, r0
 390 0010 01A8     		add	r0, sp, #4
 391              	.LVL19:
 392 0012 FFF7FEFF 		bl	chVTSetI
 393              	.LVL20:
 394              		.loc 1 197 0
 395 0016 2846     		mov	r0, r5
 396 0018 FFF7FEFF 		bl	chSchGoSleepS
 397              	.LVL21:
 398              		.loc 1 198 0
 399 001c 049B     		ldr	r3, [sp, #16]
ARM GAS  C:\Users\danit\AppData\Local\Temp\ccoJBZpF.s 			page 8


 400 001e 13B1     		cbz	r3, .L30
 401              		.loc 1 199 0
 402 0020 01A8     		add	r0, sp, #4
 403 0022 FFF7FEFF 		bl	chVTResetI
 404              	.LVL22:
 405              	.L30:
 406              	.LBE72:
 407              		.loc 1 203 0
 408 0026 A369     		ldr	r3, [r4, #24]
 409              		.loc 1 204 0
 410 0028 586A     		ldr	r0, [r3, #36]
 411 002a 07B0     		add	sp, sp, #28
 412              		.cfi_remember_state
 413              		.cfi_def_cfa_offset 12
 414              		@ sp needed
 415 002c 30BD     		pop	{r4, r5, pc}
 416              	.LVL23:
 417              	.L28:
 418              		.cfi_restore_state
 419 002e 034C     		ldr	r4, .L35
 420              		.loc 1 202 0
 421 0030 FFF7FEFF 		bl	chSchGoSleepS
 422              	.LVL24:
 423              		.loc 1 203 0
 424 0034 A369     		ldr	r3, [r4, #24]
 425              		.loc 1 204 0
 426 0036 586A     		ldr	r0, [r3, #36]
 427 0038 07B0     		add	sp, sp, #28
 428              		.cfi_def_cfa_offset 12
 429              		@ sp needed
 430 003a 30BD     		pop	{r4, r5, pc}
 431              	.L36:
 432              		.align	2
 433              	.L35:
 434 003c 00000000 		.word	.LANCHOR0
 435 0040 00000000 		.word	wakeup
 436              		.cfi_endproc
 437              	.LFE11:
 438              		.size	chSchGoSleepTimeoutS, .-chSchGoSleepTimeoutS
 439              		.section	.text.chSchWakeupS,"ax",%progbits
 440              		.align	2
 441              		.p2align 4,,15
 442              		.global	chSchWakeupS
 443              		.thumb
 444              		.thumb_func
 445              		.type	chSchWakeupS, %function
 446              	chSchWakeupS:
 447              	.LFB12:
 448              		.loc 1 225 0
 449              		.cfi_startproc
 450              		@ args = 0, pretend = 0, frame = 0
 451              		@ frame_needed = 0, uses_anonymous_args = 0
 452              		@ link register save eliminated.
 453              	.LVL25:
 454              		.loc 1 234 0
 455 0000 144B     		ldr	r3, .L46
 456              		.loc 1 225 0
ARM GAS  C:\Users\danit\AppData\Local\Temp\ccoJBZpF.s 			page 9


 457 0002 F0B4     		push	{r4, r5, r6, r7}
 458              		.cfi_def_cfa_offset 16
 459              		.cfi_offset 4, -16
 460              		.cfi_offset 5, -12
 461              		.cfi_offset 6, -8
 462              		.cfi_offset 7, -4
 463              		.loc 1 234 0
 464 0004 9E69     		ldr	r6, [r3, #24]
 465 0006 8468     		ldr	r4, [r0, #8]
 466              		.loc 1 225 0
 467 0008 0546     		mov	r5, r0
 468              		.loc 1 234 0
 469 000a B068     		ldr	r0, [r6, #8]
 470              	.LVL26:
 471              		.loc 1 229 0
 472 000c 6962     		str	r1, [r5, #36]
 473              		.loc 1 234 0
 474 000e 8442     		cmp	r4, r0
 475              	.LBB73:
 476              	.LBB74:
 477              		.loc 1 92 0
 478 0010 4FF00002 		mov	r2, #0
 479              	.LBE74:
 480              	.LBE73:
 481              		.loc 1 234 0
 482 0014 0BD8     		bhi	.L38
 483              	.LVL27:
 484              	.LBB76:
 485              	.LBB75:
 486              		.loc 1 92 0
 487 0016 2A77     		strb	r2, [r5, #28]
 488              	.LVL28:
 489              	.L39:
 490              		.loc 1 95 0
 491 0018 1B68     		ldr	r3, [r3]
 492              	.LVL29:
 493              		.loc 1 96 0
 494 001a 9A68     		ldr	r2, [r3, #8]
 495 001c 9442     		cmp	r4, r2
 496 001e FBD9     		bls	.L39
 497              		.loc 1 99 0
 498 0020 5A68     		ldr	r2, [r3, #4]
 499 0022 6A60     		str	r2, [r5, #4]
 500              		.loc 1 98 0
 501 0024 2B60     		str	r3, [r5]
 502              		.loc 1 100 0
 503 0026 5D60     		str	r5, [r3, #4]
 504 0028 1560     		str	r5, [r2]
 505              	.LBE75:
 506              	.LBE76:
 507              		.loc 1 242 0
 508 002a F0BC     		pop	{r4, r5, r6, r7}
 509              		.cfi_remember_state
 510              		.cfi_restore 7
 511              		.cfi_restore 6
 512              		.cfi_restore 5
 513              		.cfi_restore 4
ARM GAS  C:\Users\danit\AppData\Local\Temp\ccoJBZpF.s 			page 10


 514              		.cfi_def_cfa_offset 0
 515              	.LVL30:
 516 002c 7047     		bx	lr
 517              	.LVL31:
 518              	.L38:
 519              		.cfi_restore_state
 520              	.LBB77:
 521              	.LBB78:
 522              	.LBB79:
 523              		.loc 1 92 0
 524 002e 3277     		strb	r2, [r6, #28]
 525              	.LVL32:
 526              		.loc 1 93 0
 527 0030 1A46     		mov	r2, r3
 528              	.LVL33:
 529              	.L41:
 530              		.loc 1 95 0
 531 0032 1268     		ldr	r2, [r2]
 532              	.LVL34:
 533              		.loc 1 96 0
 534 0034 9168     		ldr	r1, [r2, #8]
 535 0036 8842     		cmp	r0, r1
 536 0038 FBD9     		bls	.L41
 537              		.loc 1 99 0
 538 003a 5468     		ldr	r4, [r2, #4]
 539 003c 7460     		str	r4, [r6, #4]
 540              	.LBE79:
 541              	.LBE78:
 542              		.loc 1 239 0
 543 003e 0127     		movs	r7, #1
 544              	.LBB81:
 545              	.LBB80:
 546              		.loc 1 98 0
 547 0040 3260     		str	r2, [r6]
 548              		.loc 1 100 0
 549 0042 5660     		str	r6, [r2, #4]
 550 0044 2660     		str	r6, [r4]
 551              	.LBE80:
 552              	.LBE81:
 553              		.loc 1 239 0
 554 0046 2F77     		strb	r7, [r5, #28]
 555              		.loc 1 240 0
 556 0048 3146     		mov	r1, r6
 557 004a 2846     		mov	r0, r5
 558              		.loc 1 238 0
 559 004c 9D61     		str	r5, [r3, #24]
 560              	.LBE77:
 561              		.loc 1 242 0
 562 004e F0BC     		pop	{r4, r5, r6, r7}
 563              		.cfi_restore 7
 564              		.cfi_restore 6
 565              		.cfi_restore 5
 566              		.cfi_restore 4
 567              		.cfi_def_cfa_offset 0
 568              	.LVL35:
 569              	.LBB82:
 570              		.loc 1 240 0
ARM GAS  C:\Users\danit\AppData\Local\Temp\ccoJBZpF.s 			page 11


 571 0050 FFF7FEBF 		b	_port_switch
 572              	.LVL36:
 573              	.L47:
 574              		.align	2
 575              	.L46:
 576 0054 00000000 		.word	.LANCHOR0
 577              	.LBE82:
 578              		.cfi_endproc
 579              	.LFE12:
 580              		.size	chSchWakeupS, .-chSchWakeupS
 581              		.section	.text.chSchDoRescheduleBehind,"ax",%progbits
 582              		.align	2
 583              		.p2align 4,,15
 584              		.global	chSchDoRescheduleBehind
 585              		.thumb
 586              		.thumb_func
 587              		.type	chSchDoRescheduleBehind, %function
 588              	chSchDoRescheduleBehind:
 589              	.LFB14:
 590              		.loc 1 304 0
 591              		.cfi_startproc
 592              		@ args = 0, pretend = 0, frame = 0
 593              		@ frame_needed = 0, uses_anonymous_args = 0
 594              		@ link register save eliminated.
 595              		.loc 1 307 0
 596 0000 0E4A     		ldr	r2, .L53
 597              	.LBB83:
 598              	.LBB84:
 599              		.loc 2 60 0
 600 0002 1068     		ldr	r0, [r2]
 601              	.LBE84:
 602              	.LBE83:
 603              		.loc 1 304 0
 604 0004 F0B4     		push	{r4, r5, r6, r7}
 605              		.cfi_def_cfa_offset 16
 606              		.cfi_offset 4, -16
 607              		.cfi_offset 5, -12
 608              		.cfi_offset 6, -8
 609              		.cfi_offset 7, -4
 610              	.LBB88:
 611              	.LBB85:
 612              		.loc 2 62 0
 613 0006 0368     		ldr	r3, [r0]
 614              	.LBE85:
 615              	.LBE88:
 616              		.loc 1 307 0
 617 0008 9469     		ldr	r4, [r2, #24]
 618              	.LVL37:
 619              	.LBB89:
 620              	.LBB86:
 621              		.loc 2 62 0
 622 000a 1360     		str	r3, [r2]
 623              	.LBE86:
 624              	.LBE89:
 625              		.loc 1 310 0
 626 000c 0127     		movs	r7, #1
 627              		.loc 1 312 0
ARM GAS  C:\Users\danit\AppData\Local\Temp\ccoJBZpF.s 			page 12


 628 000e 1426     		movs	r6, #20
 629              	.LBB90:
 630              	.LBB91:
 631              		.loc 1 92 0
 632 0010 0025     		movs	r5, #0
 633 0012 A168     		ldr	r1, [r4, #8]
 634              	.LBE91:
 635              	.LBE90:
 636              	.LBB95:
 637              	.LBB87:
 638              		.loc 2 62 0
 639 0014 5A60     		str	r2, [r3, #4]
 640              	.LBE87:
 641              	.LBE95:
 642              		.loc 1 310 0
 643 0016 0777     		strb	r7, [r0, #28]
 644              	.LBB96:
 645              	.LBB92:
 646              		.loc 1 92 0
 647 0018 0346     		mov	r3, r0
 648              	.LBE92:
 649              	.LBE96:
 650              		.loc 1 309 0
 651 001a 9061     		str	r0, [r2, #24]
 652              		.loc 1 312 0
 653 001c E677     		strb	r6, [r4, #31]
 654              	.LVL38:
 655              	.LBB97:
 656              	.LBB93:
 657              		.loc 1 92 0
 658 001e 2577     		strb	r5, [r4, #28]
 659              	.LVL39:
 660 0020 00E0     		b	.L50
 661              	.LVL40:
 662              	.L52:
 663 0022 1B68     		ldr	r3, [r3]
 664              	.LVL41:
 665              	.L50:
 666              		.loc 1 96 0
 667 0024 9A68     		ldr	r2, [r3, #8]
 668 0026 8A42     		cmp	r2, r1
 669 0028 FBD2     		bcs	.L52
 670              		.loc 1 99 0
 671 002a 5A68     		ldr	r2, [r3, #4]
 672 002c 6260     		str	r2, [r4, #4]
 673              		.loc 1 98 0
 674 002e 2360     		str	r3, [r4]
 675              	.LBE93:
 676              	.LBE97:
 677              		.loc 1 315 0
 678 0030 2146     		mov	r1, r4
 679              	.LBB98:
 680              	.LBB94:
 681              		.loc 1 100 0
 682 0032 5C60     		str	r4, [r3, #4]
 683 0034 1460     		str	r4, [r2]
 684              	.LBE94:
ARM GAS  C:\Users\danit\AppData\Local\Temp\ccoJBZpF.s 			page 13


 685              	.LBE98:
 686              		.loc 1 316 0
 687 0036 F0BC     		pop	{r4, r5, r6, r7}
 688              		.cfi_restore 7
 689              		.cfi_restore 6
 690              		.cfi_restore 5
 691              		.cfi_restore 4
 692              		.cfi_def_cfa_offset 0
 693              	.LVL42:
 694              		.loc 1 315 0
 695 0038 FFF7FEBF 		b	_port_switch
 696              	.LVL43:
 697              	.L54:
 698              		.align	2
 699              	.L53:
 700 003c 00000000 		.word	.LANCHOR0
 701              		.cfi_endproc
 702              	.LFE14:
 703              		.size	chSchDoRescheduleBehind, .-chSchDoRescheduleBehind
 704              		.section	.text.chSchDoRescheduleAhead,"ax",%progbits
 705              		.align	2
 706              		.p2align 4,,15
 707              		.global	chSchDoRescheduleAhead
 708              		.thumb
 709              		.thumb_func
 710              		.type	chSchDoRescheduleAhead, %function
 711              	chSchDoRescheduleAhead:
 712              	.LFB15:
 713              		.loc 1 329 0
 714              		.cfi_startproc
 715              		@ args = 0, pretend = 0, frame = 0
 716              		@ frame_needed = 0, uses_anonymous_args = 0
 717              		@ link register save eliminated.
 718              		.loc 1 332 0
 719 0000 0D4A     		ldr	r2, .L60
 720              	.LBB99:
 721              	.LBB100:
 722              		.loc 2 60 0
 723 0002 1068     		ldr	r0, [r2]
 724              	.LBE100:
 725              	.LBE99:
 726              		.loc 1 329 0
 727 0004 70B4     		push	{r4, r5, r6}
 728              		.cfi_def_cfa_offset 12
 729              		.cfi_offset 4, -12
 730              		.cfi_offset 5, -8
 731              		.cfi_offset 6, -4
 732              	.LBB104:
 733              	.LBB101:
 734              		.loc 2 62 0
 735 0006 0368     		ldr	r3, [r0]
 736              	.LBE101:
 737              	.LBE104:
 738              		.loc 1 332 0
 739 0008 9469     		ldr	r4, [r2, #24]
 740              	.LVL44:
 741              	.LBB105:
ARM GAS  C:\Users\danit\AppData\Local\Temp\ccoJBZpF.s 			page 14


 742              	.LBB102:
 743              		.loc 2 62 0
 744 000a 1360     		str	r3, [r2]
 745              	.LBE102:
 746              	.LBE105:
 747              		.loc 1 335 0
 748 000c 0126     		movs	r6, #1
 749              		.loc 1 337 0
 750 000e 0025     		movs	r5, #0
 751 0010 A168     		ldr	r1, [r4, #8]
 752              	.LBB106:
 753              	.LBB103:
 754              		.loc 2 62 0
 755 0012 5A60     		str	r2, [r3, #4]
 756              	.LBE103:
 757              	.LBE106:
 758              		.loc 1 335 0
 759 0014 0677     		strb	r6, [r0, #28]
 760              		.loc 1 337 0
 761 0016 0346     		mov	r3, r0
 762              		.loc 1 334 0
 763 0018 9061     		str	r0, [r2, #24]
 764              		.loc 1 337 0
 765 001a 2577     		strb	r5, [r4, #28]
 766              	.LVL45:
 767 001c 00E0     		b	.L57
 768              	.LVL46:
 769              	.L59:
 770 001e 1B68     		ldr	r3, [r3]
 771              	.LVL47:
 772              	.L57:
 773              		.loc 1 341 0 discriminator 1
 774 0020 9A68     		ldr	r2, [r3, #8]
 775 0022 8A42     		cmp	r2, r1
 776 0024 FBD8     		bhi	.L59
 777              		.loc 1 344 0
 778 0026 5A68     		ldr	r2, [r3, #4]
 779 0028 6260     		str	r2, [r4, #4]
 780              		.loc 1 343 0
 781 002a 2360     		str	r3, [r4]
 782              		.loc 1 347 0
 783 002c 2146     		mov	r1, r4
 784              		.loc 1 345 0
 785 002e 5C60     		str	r4, [r3, #4]
 786 0030 1460     		str	r4, [r2]
 787              		.loc 1 348 0
 788 0032 70BC     		pop	{r4, r5, r6}
 789              		.cfi_restore 6
 790              		.cfi_restore 5
 791              		.cfi_restore 4
 792              		.cfi_def_cfa_offset 0
 793              	.LVL48:
 794              		.loc 1 347 0
 795 0034 FFF7FEBF 		b	_port_switch
 796              	.LVL49:
 797              	.L61:
 798              		.align	2
ARM GAS  C:\Users\danit\AppData\Local\Temp\ccoJBZpF.s 			page 15


 799              	.L60:
 800 0038 00000000 		.word	.LANCHOR0
 801              		.cfi_endproc
 802              	.LFE15:
 803              		.size	chSchDoRescheduleAhead, .-chSchDoRescheduleAhead
 804              		.section	.text.chSchRescheduleS,"ax",%progbits
 805              		.align	2
 806              		.p2align 4,,15
 807              		.global	chSchRescheduleS
 808              		.thumb
 809              		.thumb_func
 810              		.type	chSchRescheduleS, %function
 811              	chSchRescheduleS:
 812              	.LFB13:
 813              		.loc 1 253 0
 814              		.cfi_startproc
 815              		@ args = 0, pretend = 0, frame = 0
 816              		@ frame_needed = 0, uses_anonymous_args = 0
 817              		@ link register save eliminated.
 818              		.loc 1 257 0
 819 0000 044B     		ldr	r3, .L65
 820 0002 1A68     		ldr	r2, [r3]
 821 0004 9B69     		ldr	r3, [r3, #24]
 822 0006 9268     		ldr	r2, [r2, #8]
 823 0008 9B68     		ldr	r3, [r3, #8]
 824 000a 9A42     		cmp	r2, r3
 825 000c 00D8     		bhi	.L64
 826 000e 7047     		bx	lr
 827              	.L64:
 828              		.loc 1 258 0
 829 0010 FFF7FEBF 		b	chSchDoRescheduleAhead
 830              	.LVL50:
 831              	.L66:
 832              		.align	2
 833              	.L65:
 834 0014 00000000 		.word	.LANCHOR0
 835              		.cfi_endproc
 836              	.LFE13:
 837              		.size	chSchRescheduleS, .-chSchRescheduleS
 838              		.section	.text.chSchDoReschedule,"ax",%progbits
 839              		.align	2
 840              		.p2align 4,,15
 841              		.global	chSchDoReschedule
 842              		.thumb
 843              		.thumb_func
 844              		.type	chSchDoReschedule, %function
 845              	chSchDoReschedule:
 846              	.LFB16:
 847              		.loc 1 362 0
 848              		.cfi_startproc
 849              		@ args = 0, pretend = 0, frame = 0
 850              		@ frame_needed = 0, uses_anonymous_args = 0
 851              		@ link register save eliminated.
 852              		.loc 1 367 0
 853 0000 034B     		ldr	r3, .L70
 854 0002 9B69     		ldr	r3, [r3, #24]
 855 0004 DB7F     		ldrb	r3, [r3, #31]	@ zero_extendqisi2
ARM GAS  C:\Users\danit\AppData\Local\Temp\ccoJBZpF.s 			page 16


 856 0006 0BB1     		cbz	r3, .L69
 857              		.loc 1 375 0
 858 0008 FFF7FEBF 		b	chSchDoRescheduleAhead
 859              	.LVL51:
 860              	.L69:
 861              		.loc 1 370 0
 862 000c FFF7FEBF 		b	chSchDoRescheduleBehind
 863              	.LVL52:
 864              	.L71:
 865              		.align	2
 866              	.L70:
 867 0010 00000000 		.word	.LANCHOR0
 868              		.cfi_endproc
 869              	.LFE16:
 870              		.size	chSchDoReschedule, .-chSchDoReschedule
 871              		.global	rlist
 872              		.section	.bss.rlist,"aw",%nobits
 873              		.align	2
 874              		.set	.LANCHOR0,. + 0
 875              		.type	rlist, %object
 876              		.size	rlist, 28
 877              	rlist:
 878 0000 00000000 		.space	28
 878      00000000 
 878      00000000 
 878      00000000 
 878      00000000 
 879              		.text
 880              	.Letext0:
 881              		.file 3 "c:\\program files (x86)\\gnu tools arm embedded\\4.9 2015q2\\arm-none-eabi\\include\\mach
 882              		.file 4 "c:\\program files (x86)\\gnu tools arm embedded\\4.9 2015q2\\arm-none-eabi\\include\\sys\
 883              		.file 5 "../../../ChibiOS/os/ports/GCC/ARMCMx/chtypes.h"
 884              		.file 6 "../../../ChibiOS/os/kernel/include/chlists.h"
 885              		.file 7 "../../../ChibiOS/os/kernel/include/chthreads.h"
 886              		.file 8 "../../../ChibiOS/os/ports/GCC/ARMCMx/chcore_v7m.h"
 887              		.file 9 "../../../ChibiOS/os/kernel/include/chvt.h"
 888              		.file 10 "../../../ChibiOS/os/kernel/include/chschd.h"
 889              		.file 11 "../../../ChibiOS/os/kernel/include/chsem.h"
 890              		.file 12 "../../../ChibiOS/os/kernel/include/chmtx.h"
 891              		.section	.debug_info,"",%progbits
 892              	.Ldebug_info0:
 893 0000 E0090000 		.4byte	0x9e0
 894 0004 0400     		.2byte	0x4
 895 0006 00000000 		.4byte	.Ldebug_abbrev0
 896 000a 04       		.byte	0x4
 897 000b 01       		.uleb128 0x1
 898 000c 7E030000 		.4byte	.LASF89
 899 0010 01       		.byte	0x1
 900 0011 4F030000 		.4byte	.LASF90
 901 0015 93040000 		.4byte	.LASF91
 902 0019 50010000 		.4byte	.Ldebug_ranges0+0x150
 903 001d 00000000 		.4byte	0
 904 0021 00000000 		.4byte	.Ldebug_line0
 905 0025 02       		.uleb128 0x2
 906 0026 04       		.byte	0x4
 907 0027 05       		.byte	0x5
 908 0028 696E7400 		.ascii	"int\000"
ARM GAS  C:\Users\danit\AppData\Local\Temp\ccoJBZpF.s 			page 17


 909 002c 03       		.uleb128 0x3
 910 002d 04       		.byte	0x4
 911 002e 07       		.byte	0x7
 912 002f 00010000 		.4byte	.LASF0
 913 0033 03       		.uleb128 0x3
 914 0034 01       		.byte	0x1
 915 0035 06       		.byte	0x6
 916 0036 73000000 		.4byte	.LASF1
 917 003a 04       		.uleb128 0x4
 918 003b 24000000 		.4byte	.LASF5
 919 003f 03       		.byte	0x3
 920 0040 1D       		.byte	0x1d
 921 0041 45000000 		.4byte	0x45
 922 0045 03       		.uleb128 0x3
 923 0046 01       		.byte	0x1
 924 0047 08       		.byte	0x8
 925 0048 3A020000 		.4byte	.LASF2
 926 004c 03       		.uleb128 0x3
 927 004d 02       		.byte	0x2
 928 004e 05       		.byte	0x5
 929 004f 5B020000 		.4byte	.LASF3
 930 0053 03       		.uleb128 0x3
 931 0054 02       		.byte	0x2
 932 0055 07       		.byte	0x7
 933 0056 52010000 		.4byte	.LASF4
 934 005a 04       		.uleb128 0x4
 935 005b 16030000 		.4byte	.LASF6
 936 005f 03       		.byte	0x3
 937 0060 3F       		.byte	0x3f
 938 0061 65000000 		.4byte	0x65
 939 0065 03       		.uleb128 0x3
 940 0066 04       		.byte	0x4
 941 0067 05       		.byte	0x5
 942 0068 99000000 		.4byte	.LASF7
 943 006c 04       		.uleb128 0x4
 944 006d CC000000 		.4byte	.LASF8
 945 0071 03       		.byte	0x3
 946 0072 41       		.byte	0x41
 947 0073 77000000 		.4byte	0x77
 948 0077 03       		.uleb128 0x3
 949 0078 04       		.byte	0x4
 950 0079 07       		.byte	0x7
 951 007a 29010000 		.4byte	.LASF9
 952 007e 03       		.uleb128 0x3
 953 007f 08       		.byte	0x8
 954 0080 05       		.byte	0x5
 955 0081 65000000 		.4byte	.LASF10
 956 0085 03       		.uleb128 0x3
 957 0086 08       		.byte	0x8
 958 0087 07       		.byte	0x7
 959 0088 2E000000 		.4byte	.LASF11
 960 008c 04       		.uleb128 0x4
 961 008d 68040000 		.4byte	.LASF12
 962 0091 04       		.byte	0x4
 963 0092 14       		.byte	0x14
 964 0093 3A000000 		.4byte	0x3a
 965 0097 04       		.uleb128 0x4
ARM GAS  C:\Users\danit\AppData\Local\Temp\ccoJBZpF.s 			page 18


 966 0098 32020000 		.4byte	.LASF13
 967 009c 04       		.byte	0x4
 968 009d 1F       		.byte	0x1f
 969 009e 5A000000 		.4byte	0x5a
 970 00a2 04       		.uleb128 0x4
 971 00a3 BF020000 		.4byte	.LASF14
 972 00a7 04       		.byte	0x4
 973 00a8 20       		.byte	0x20
 974 00a9 6C000000 		.4byte	0x6c
 975 00ad 03       		.uleb128 0x3
 976 00ae 01       		.byte	0x1
 977 00af 02       		.byte	0x2
 978 00b0 2C020000 		.4byte	.LASF15
 979 00b4 04       		.uleb128 0x4
 980 00b5 80010000 		.4byte	.LASF16
 981 00b9 05       		.byte	0x5
 982 00ba 2C       		.byte	0x2c
 983 00bb 8C000000 		.4byte	0x8c
 984 00bf 04       		.uleb128 0x4
 985 00c0 A2000000 		.4byte	.LASF17
 986 00c4 05       		.byte	0x5
 987 00c5 2D       		.byte	0x2d
 988 00c6 8C000000 		.4byte	0x8c
 989 00ca 04       		.uleb128 0x4
 990 00cb 15020000 		.4byte	.LASF18
 991 00cf 05       		.byte	0x5
 992 00d0 2E       		.byte	0x2e
 993 00d1 8C000000 		.4byte	0x8c
 994 00d5 04       		.uleb128 0x4
 995 00d6 8F000000 		.4byte	.LASF19
 996 00da 05       		.byte	0x5
 997 00db 2F       		.byte	0x2f
 998 00dc 8C000000 		.4byte	0x8c
 999 00e0 04       		.uleb128 0x4
 1000 00e1 24020000 		.4byte	.LASF20
 1001 00e5 05       		.byte	0x5
 1002 00e6 30       		.byte	0x30
 1003 00e7 A2000000 		.4byte	0xa2
 1004 00eb 04       		.uleb128 0x4
 1005 00ec 72010000 		.4byte	.LASF21
 1006 00f0 05       		.byte	0x5
 1007 00f1 31       		.byte	0x31
 1008 00f2 97000000 		.4byte	0x97
 1009 00f6 04       		.uleb128 0x4
 1010 00f7 94010000 		.4byte	.LASF22
 1011 00fb 05       		.byte	0x5
 1012 00fc 33       		.byte	0x33
 1013 00fd A2000000 		.4byte	0xa2
 1014 0101 04       		.uleb128 0x4
 1015 0102 01030000 		.4byte	.LASF23
 1016 0106 05       		.byte	0x5
 1017 0107 35       		.byte	0x35
 1018 0108 A2000000 		.4byte	0xa2
 1019 010c 04       		.uleb128 0x4
 1020 010d FA000000 		.4byte	.LASF24
 1021 0111 05       		.byte	0x5
 1022 0112 36       		.byte	0x36
ARM GAS  C:\Users\danit\AppData\Local\Temp\ccoJBZpF.s 			page 19


 1023 0113 97000000 		.4byte	0x97
 1024 0117 04       		.uleb128 0x4
 1025 0118 94020000 		.4byte	.LASF25
 1026 011c 06       		.byte	0x6
 1027 011d 2A       		.byte	0x2a
 1028 011e 22010000 		.4byte	0x122
 1029 0122 05       		.uleb128 0x5
 1030 0123 94020000 		.4byte	.LASF25
 1031 0127 48       		.byte	0x48
 1032 0128 07       		.byte	0x7
 1033 0129 5E       		.byte	0x5e
 1034 012a 1F020000 		.4byte	0x21f
 1035 012e 06       		.uleb128 0x6
 1036 012f 85020000 		.4byte	.LASF26
 1037 0133 07       		.byte	0x7
 1038 0134 5F       		.byte	0x5f
 1039 0135 40020000 		.4byte	0x240
 1040 0139 00       		.byte	0
 1041 013a 06       		.uleb128 0x6
 1042 013b 1D020000 		.4byte	.LASF27
 1043 013f 07       		.byte	0x7
 1044 0140 61       		.byte	0x61
 1045 0141 40020000 		.4byte	0x240
 1046 0145 04       		.byte	0x4
 1047 0146 06       		.uleb128 0x6
 1048 0147 4E000000 		.4byte	.LASF28
 1049 014b 07       		.byte	0x7
 1050 014c 63       		.byte	0x63
 1051 014d E0000000 		.4byte	0xe0
 1052 0151 08       		.byte	0x8
 1053 0152 06       		.uleb128 0x6
 1054 0153 CE040000 		.4byte	.LASF29
 1055 0157 07       		.byte	0x7
 1056 0158 64       		.byte	0x64
 1057 0159 FA020000 		.4byte	0x2fa
 1058 015d 0C       		.byte	0xc
 1059 015e 06       		.uleb128 0x6
 1060 015f AB000000 		.4byte	.LASF30
 1061 0163 07       		.byte	0x7
 1062 0164 66       		.byte	0x66
 1063 0165 40020000 		.4byte	0x240
 1064 0169 10       		.byte	0x10
 1065 016a 06       		.uleb128 0x6
 1066 016b E0010000 		.4byte	.LASF31
 1067 016f 07       		.byte	0x7
 1068 0170 67       		.byte	0x67
 1069 0171 40020000 		.4byte	0x240
 1070 0175 14       		.byte	0x14
 1071 0176 06       		.uleb128 0x6
 1072 0177 77040000 		.4byte	.LASF32
 1073 017b 07       		.byte	0x7
 1074 017c 6E       		.byte	0x6e
 1075 017d A0040000 		.4byte	0x4a0
 1076 0181 18       		.byte	0x18
 1077 0182 06       		.uleb128 0x6
 1078 0183 65020000 		.4byte	.LASF33
 1079 0187 07       		.byte	0x7
ARM GAS  C:\Users\danit\AppData\Local\Temp\ccoJBZpF.s 			page 20


 1080 0188 79       		.byte	0x79
 1081 0189 BF000000 		.4byte	0xbf
 1082 018d 1C       		.byte	0x1c
 1083 018e 06       		.uleb128 0x6
 1084 018f 8C020000 		.4byte	.LASF34
 1085 0193 07       		.byte	0x7
 1086 0194 7D       		.byte	0x7d
 1087 0195 B4000000 		.4byte	0xb4
 1088 0199 1D       		.byte	0x1d
 1089 019a 06       		.uleb128 0x6
 1090 019b 77030000 		.4byte	.LASF35
 1091 019f 07       		.byte	0x7
 1092 01a0 82       		.byte	0x82
 1093 01a1 CA000000 		.4byte	0xca
 1094 01a5 1E       		.byte	0x1e
 1095 01a6 06       		.uleb128 0x6
 1096 01a7 6D020000 		.4byte	.LASF36
 1097 01ab 07       		.byte	0x7
 1098 01ac 88       		.byte	0x88
 1099 01ad D5000000 		.4byte	0xd5
 1100 01b1 1F       		.byte	0x1f
 1101 01b2 06       		.uleb128 0x6
 1102 01b3 20030000 		.4byte	.LASF37
 1103 01b7 07       		.byte	0x7
 1104 01b8 8F       		.byte	0x8f
 1105 01b9 98030000 		.4byte	0x398
 1106 01bd 20       		.byte	0x20
 1107 01be 07       		.uleb128 0x7
 1108 01bf 705F7500 		.ascii	"p_u\000"
 1109 01c3 07       		.byte	0x7
 1110 01c4 B4       		.byte	0xb4
 1111 01c5 6B040000 		.4byte	0x46b
 1112 01c9 24       		.byte	0x24
 1113 01ca 06       		.uleb128 0x6
 1114 01cb D4040000 		.4byte	.LASF38
 1115 01cf 07       		.byte	0x7
 1116 01d0 B9       		.byte	0xb9
 1117 01d1 66020000 		.4byte	0x266
 1118 01d5 28       		.byte	0x28
 1119 01d6 06       		.uleb128 0x6
 1120 01d7 2E030000 		.4byte	.LASF39
 1121 01db 07       		.byte	0x7
 1122 01dc BF       		.byte	0xbf
 1123 01dd 46020000 		.4byte	0x246
 1124 01e1 2C       		.byte	0x2c
 1125 01e2 06       		.uleb128 0x6
 1126 01e3 00000000 		.4byte	.LASF40
 1127 01e7 07       		.byte	0x7
 1128 01e8 C3       		.byte	0xc3
 1129 01e9 EB000000 		.4byte	0xeb
 1130 01ed 34       		.byte	0x34
 1131 01ee 06       		.uleb128 0x6
 1132 01ef B4020000 		.4byte	.LASF41
 1133 01f3 07       		.byte	0x7
 1134 01f4 C9       		.byte	0xc9
 1135 01f5 F6000000 		.4byte	0xf6
 1136 01f9 38       		.byte	0x38
ARM GAS  C:\Users\danit\AppData\Local\Temp\ccoJBZpF.s 			page 21


 1137 01fa 06       		.uleb128 0x6
 1138 01fb 51020000 		.4byte	.LASF42
 1139 01ff 07       		.byte	0x7
 1140 0200 D0       		.byte	0xd0
 1141 0201 B2040000 		.4byte	0x4b2
 1142 0205 3C       		.byte	0x3c
 1143 0206 06       		.uleb128 0x6
 1144 0207 0B030000 		.4byte	.LASF43
 1145 020b 07       		.byte	0x7
 1146 020c D4       		.byte	0xd4
 1147 020d E0000000 		.4byte	0xe0
 1148 0211 40       		.byte	0x40
 1149 0212 06       		.uleb128 0x6
 1150 0213 7F000000 		.4byte	.LASF44
 1151 0217 07       		.byte	0x7
 1152 0218 DA       		.byte	0xda
 1153 0219 7C020000 		.4byte	0x27c
 1154 021d 44       		.byte	0x44
 1155 021e 00       		.byte	0
 1156 021f 08       		.uleb128 0x8
 1157 0220 08       		.byte	0x8
 1158 0221 06       		.byte	0x6
 1159 0222 61       		.byte	0x61
 1160 0223 40020000 		.4byte	0x240
 1161 0227 06       		.uleb128 0x6
 1162 0228 85020000 		.4byte	.LASF26
 1163 022c 06       		.byte	0x6
 1164 022d 62       		.byte	0x62
 1165 022e 40020000 		.4byte	0x240
 1166 0232 00       		.byte	0
 1167 0233 06       		.uleb128 0x6
 1168 0234 1D020000 		.4byte	.LASF27
 1169 0238 06       		.byte	0x6
 1170 0239 64       		.byte	0x64
 1171 023a 40020000 		.4byte	0x240
 1172 023e 04       		.byte	0x4
 1173 023f 00       		.byte	0
 1174 0240 09       		.uleb128 0x9
 1175 0241 04       		.byte	0x4
 1176 0242 17010000 		.4byte	0x117
 1177 0246 04       		.uleb128 0x4
 1178 0247 EE010000 		.4byte	.LASF45
 1179 024b 06       		.byte	0x6
 1180 024c 66       		.byte	0x66
 1181 024d 1F020000 		.4byte	0x21f
 1182 0251 08       		.uleb128 0x8
 1183 0252 04       		.byte	0x4
 1184 0253 06       		.byte	0x6
 1185 0254 6B       		.byte	0x6b
 1186 0255 66020000 		.4byte	0x266
 1187 0259 06       		.uleb128 0x6
 1188 025a 85020000 		.4byte	.LASF26
 1189 025e 06       		.byte	0x6
 1190 025f 6D       		.byte	0x6d
 1191 0260 40020000 		.4byte	0x240
 1192 0264 00       		.byte	0
 1193 0265 00       		.byte	0
ARM GAS  C:\Users\danit\AppData\Local\Temp\ccoJBZpF.s 			page 22


 1194 0266 04       		.uleb128 0x4
 1195 0267 88010000 		.4byte	.LASF46
 1196 026b 06       		.byte	0x6
 1197 026c 70       		.byte	0x70
 1198 026d 51020000 		.4byte	0x251
 1199 0271 04       		.uleb128 0x4
 1200 0272 D7000000 		.4byte	.LASF47
 1201 0276 08       		.byte	0x8
 1202 0277 E5       		.byte	0xe5
 1203 0278 7C020000 		.4byte	0x27c
 1204 027c 0A       		.uleb128 0xa
 1205 027d 04       		.byte	0x4
 1206 027e 0B       		.uleb128 0xb
 1207 027f 27030000 		.4byte	.LASF48
 1208 0283 24       		.byte	0x24
 1209 0284 08       		.byte	0x8
 1210 0285 0C01     		.2byte	0x10c
 1211 0287 FA020000 		.4byte	0x2fa
 1212 028b 0C       		.uleb128 0xc
 1213 028c 723400   		.ascii	"r4\000"
 1214 028f 08       		.byte	0x8
 1215 0290 1F01     		.2byte	0x11f
 1216 0292 71020000 		.4byte	0x271
 1217 0296 00       		.byte	0
 1218 0297 0C       		.uleb128 0xc
 1219 0298 723500   		.ascii	"r5\000"
 1220 029b 08       		.byte	0x8
 1221 029c 2001     		.2byte	0x120
 1222 029e 71020000 		.4byte	0x271
 1223 02a2 04       		.byte	0x4
 1224 02a3 0C       		.uleb128 0xc
 1225 02a4 723600   		.ascii	"r6\000"
 1226 02a7 08       		.byte	0x8
 1227 02a8 2101     		.2byte	0x121
 1228 02aa 71020000 		.4byte	0x271
 1229 02ae 08       		.byte	0x8
 1230 02af 0C       		.uleb128 0xc
 1231 02b0 723700   		.ascii	"r7\000"
 1232 02b3 08       		.byte	0x8
 1233 02b4 2201     		.2byte	0x122
 1234 02b6 71020000 		.4byte	0x271
 1235 02ba 0C       		.byte	0xc
 1236 02bb 0C       		.uleb128 0xc
 1237 02bc 723800   		.ascii	"r8\000"
 1238 02bf 08       		.byte	0x8
 1239 02c0 2301     		.2byte	0x123
 1240 02c2 71020000 		.4byte	0x271
 1241 02c6 10       		.byte	0x10
 1242 02c7 0C       		.uleb128 0xc
 1243 02c8 723900   		.ascii	"r9\000"
 1244 02cb 08       		.byte	0x8
 1245 02cc 2401     		.2byte	0x124
 1246 02ce 71020000 		.4byte	0x271
 1247 02d2 14       		.byte	0x14
 1248 02d3 0C       		.uleb128 0xc
 1249 02d4 72313000 		.ascii	"r10\000"
 1250 02d8 08       		.byte	0x8
ARM GAS  C:\Users\danit\AppData\Local\Temp\ccoJBZpF.s 			page 23


 1251 02d9 2501     		.2byte	0x125
 1252 02db 71020000 		.4byte	0x271
 1253 02df 18       		.byte	0x18
 1254 02e0 0C       		.uleb128 0xc
 1255 02e1 72313100 		.ascii	"r11\000"
 1256 02e5 08       		.byte	0x8
 1257 02e6 2601     		.2byte	0x126
 1258 02e8 71020000 		.4byte	0x271
 1259 02ec 1C       		.byte	0x1c
 1260 02ed 0C       		.uleb128 0xc
 1261 02ee 6C7200   		.ascii	"lr\000"
 1262 02f1 08       		.byte	0x8
 1263 02f2 2701     		.2byte	0x127
 1264 02f4 71020000 		.4byte	0x271
 1265 02f8 20       		.byte	0x20
 1266 02f9 00       		.byte	0
 1267 02fa 0B       		.uleb128 0xb
 1268 02fb 4A010000 		.4byte	.LASF49
 1269 02ff 04       		.byte	0x4
 1270 0300 08       		.byte	0x8
 1271 0301 3101     		.2byte	0x131
 1272 0303 15030000 		.4byte	0x315
 1273 0307 0C       		.uleb128 0xc
 1274 0308 72313300 		.ascii	"r13\000"
 1275 030c 08       		.byte	0x8
 1276 030d 3201     		.2byte	0x132
 1277 030f 15030000 		.4byte	0x315
 1278 0313 00       		.byte	0
 1279 0314 00       		.byte	0
 1280 0315 09       		.uleb128 0x9
 1281 0316 04       		.byte	0x4
 1282 0317 7E020000 		.4byte	0x27e
 1283 031b 03       		.uleb128 0x3
 1284 031c 04       		.byte	0x4
 1285 031d 07       		.byte	0x7
 1286 031e AE010000 		.4byte	.LASF50
 1287 0322 04       		.uleb128 0x4
 1288 0323 3B010000 		.4byte	.LASF51
 1289 0327 09       		.byte	0x9
 1290 0328 58       		.byte	0x58
 1291 0329 2D030000 		.4byte	0x32d
 1292 032d 09       		.uleb128 0x9
 1293 032e 04       		.byte	0x4
 1294 032f 33030000 		.4byte	0x333
 1295 0333 0D       		.uleb128 0xd
 1296 0334 3E030000 		.4byte	0x33e
 1297 0338 0E       		.uleb128 0xe
 1298 0339 7C020000 		.4byte	0x27c
 1299 033d 00       		.byte	0
 1300 033e 04       		.uleb128 0x4
 1301 033f D0020000 		.4byte	.LASF52
 1302 0343 09       		.byte	0x9
 1303 0344 5D       		.byte	0x5d
 1304 0345 49030000 		.4byte	0x349
 1305 0349 05       		.uleb128 0x5
 1306 034a D0020000 		.4byte	.LASF52
 1307 034e 14       		.byte	0x14
ARM GAS  C:\Users\danit\AppData\Local\Temp\ccoJBZpF.s 			page 24


 1308 034f 09       		.byte	0x9
 1309 0350 64       		.byte	0x64
 1310 0351 92030000 		.4byte	0x392
 1311 0355 06       		.uleb128 0x6
 1312 0356 14010000 		.4byte	.LASF53
 1313 035a 09       		.byte	0x9
 1314 035b 65       		.byte	0x65
 1315 035c 92030000 		.4byte	0x392
 1316 0360 00       		.byte	0
 1317 0361 06       		.uleb128 0x6
 1318 0362 E0000000 		.4byte	.LASF54
 1319 0366 09       		.byte	0x9
 1320 0367 67       		.byte	0x67
 1321 0368 92030000 		.4byte	0x392
 1322 036c 04       		.byte	0x4
 1323 036d 06       		.uleb128 0x6
 1324 036e A6010000 		.4byte	.LASF55
 1325 0372 09       		.byte	0x9
 1326 0373 69       		.byte	0x69
 1327 0374 01010000 		.4byte	0x101
 1328 0378 08       		.byte	0x8
 1329 0379 06       		.uleb128 0x6
 1330 037a B7010000 		.4byte	.LASF56
 1331 037e 09       		.byte	0x9
 1332 037f 6A       		.byte	0x6a
 1333 0380 22030000 		.4byte	0x322
 1334 0384 0C       		.byte	0xc
 1335 0385 06       		.uleb128 0x6
 1336 0386 3E030000 		.4byte	.LASF57
 1337 038a 09       		.byte	0x9
 1338 038b 6C       		.byte	0x6c
 1339 038c 7C020000 		.4byte	0x27c
 1340 0390 10       		.byte	0x10
 1341 0391 00       		.byte	0
 1342 0392 09       		.uleb128 0x9
 1343 0393 04       		.byte	0x4
 1344 0394 3E030000 		.4byte	0x33e
 1345 0398 0F       		.uleb128 0xf
 1346 0399 01010000 		.4byte	0x101
 1347 039d 08       		.uleb128 0x8
 1348 039e 1C       		.byte	0x1c
 1349 039f 0A       		.byte	0xa
 1350 03a0 5E       		.byte	0x5e
 1351 03a1 EE030000 		.4byte	0x3ee
 1352 03a5 06       		.uleb128 0x6
 1353 03a6 C8020000 		.4byte	.LASF58
 1354 03aa 0A       		.byte	0xa
 1355 03ab 5F       		.byte	0x5f
 1356 03ac 46020000 		.4byte	0x246
 1357 03b0 00       		.byte	0
 1358 03b1 06       		.uleb128 0x6
 1359 03b2 77020000 		.4byte	.LASF59
 1360 03b6 0A       		.byte	0xa
 1361 03b7 60       		.byte	0x60
 1362 03b8 E0000000 		.4byte	0xe0
 1363 03bc 08       		.byte	0x8
 1364 03bd 06       		.uleb128 0x6
ARM GAS  C:\Users\danit\AppData\Local\Temp\ccoJBZpF.s 			page 25


 1365 03be E8010000 		.4byte	.LASF60
 1366 03c2 0A       		.byte	0xa
 1367 03c3 62       		.byte	0x62
 1368 03c4 FA020000 		.4byte	0x2fa
 1369 03c8 0C       		.byte	0xc
 1370 03c9 06       		.uleb128 0x6
 1371 03ca 78010000 		.4byte	.LASF61
 1372 03ce 0A       		.byte	0xa
 1373 03cf 65       		.byte	0x65
 1374 03d0 40020000 		.4byte	0x240
 1375 03d4 10       		.byte	0x10
 1376 03d5 06       		.uleb128 0x6
 1377 03d6 0D020000 		.4byte	.LASF62
 1378 03da 0A       		.byte	0xa
 1379 03db 66       		.byte	0x66
 1380 03dc 40020000 		.4byte	0x240
 1381 03e0 14       		.byte	0x14
 1382 03e1 06       		.uleb128 0x6
 1383 03e2 03020000 		.4byte	.LASF63
 1384 03e6 0A       		.byte	0xa
 1385 03e7 69       		.byte	0x69
 1386 03e8 40020000 		.4byte	0x240
 1387 03ec 18       		.byte	0x18
 1388 03ed 00       		.byte	0
 1389 03ee 04       		.uleb128 0x4
 1390 03ef 58040000 		.4byte	.LASF64
 1391 03f3 0A       		.byte	0xa
 1392 03f4 6B       		.byte	0x6b
 1393 03f5 9D030000 		.4byte	0x39d
 1394 03f9 05       		.uleb128 0x5
 1395 03fa 45030000 		.4byte	.LASF65
 1396 03fe 0C       		.byte	0xc
 1397 03ff 0B       		.byte	0xb
 1398 0400 2C       		.byte	0x2c
 1399 0401 1E040000 		.4byte	0x41e
 1400 0405 06       		.uleb128 0x6
 1401 0406 B3000000 		.4byte	.LASF66
 1402 040a 0B       		.byte	0xb
 1403 040b 2D       		.byte	0x2d
 1404 040c 46020000 		.4byte	0x246
 1405 0410 00       		.byte	0
 1406 0411 06       		.uleb128 0x6
 1407 0412 44010000 		.4byte	.LASF67
 1408 0416 0B       		.byte	0xb
 1409 0417 2F       		.byte	0x2f
 1410 0418 0C010000 		.4byte	0x10c
 1411 041c 08       		.byte	0x8
 1412 041d 00       		.byte	0
 1413 041e 04       		.uleb128 0x4
 1414 041f 45030000 		.4byte	.LASF65
 1415 0423 0B       		.byte	0xb
 1416 0424 30       		.byte	0x30
 1417 0425 F9030000 		.4byte	0x3f9
 1418 0429 05       		.uleb128 0x5
 1419 042a A0010000 		.4byte	.LASF68
 1420 042e 10       		.byte	0x10
 1421 042f 0C       		.byte	0xc
ARM GAS  C:\Users\danit\AppData\Local\Temp\ccoJBZpF.s 			page 26


 1422 0430 2C       		.byte	0x2c
 1423 0431 5A040000 		.4byte	0x45a
 1424 0435 06       		.uleb128 0x6
 1425 0436 87000000 		.4byte	.LASF69
 1426 043a 0C       		.byte	0xc
 1427 043b 2D       		.byte	0x2d
 1428 043c 46020000 		.4byte	0x246
 1429 0440 00       		.byte	0
 1430 0441 06       		.uleb128 0x6
 1431 0442 C6040000 		.4byte	.LASF70
 1432 0446 0C       		.byte	0xc
 1433 0447 2F       		.byte	0x2f
 1434 0448 40020000 		.4byte	0x240
 1435 044c 08       		.byte	0x8
 1436 044d 06       		.uleb128 0x6
 1437 044e FA020000 		.4byte	.LASF71
 1438 0452 0C       		.byte	0xc
 1439 0453 31       		.byte	0x31
 1440 0454 5A040000 		.4byte	0x45a
 1441 0458 0C       		.byte	0xc
 1442 0459 00       		.byte	0
 1443 045a 09       		.uleb128 0x9
 1444 045b 04       		.byte	0x4
 1445 045c 29040000 		.4byte	0x429
 1446 0460 04       		.uleb128 0x4
 1447 0461 A0010000 		.4byte	.LASF68
 1448 0465 0C       		.byte	0xc
 1449 0466 33       		.byte	0x33
 1450 0467 29040000 		.4byte	0x429
 1451 046b 10       		.uleb128 0x10
 1452 046c 04       		.byte	0x4
 1453 046d 07       		.byte	0x7
 1454 046e 96       		.byte	0x96
 1455 046f A0040000 		.4byte	0x4a0
 1456 0473 11       		.uleb128 0x11
 1457 0474 06000000 		.4byte	.LASF72
 1458 0478 07       		.byte	0x7
 1459 0479 9D       		.byte	0x9d
 1460 047a EB000000 		.4byte	0xeb
 1461 047e 11       		.uleb128 0x11
 1462 047f 45000000 		.4byte	.LASF73
 1463 0483 07       		.byte	0x7
 1464 0484 A4       		.byte	0xa4
 1465 0485 EB000000 		.4byte	0xeb
 1466 0489 11       		.uleb128 0x11
 1467 048a 70040000 		.4byte	.LASF74
 1468 048e 07       		.byte	0x7
 1469 048f AB       		.byte	0xab
 1470 0490 7C020000 		.4byte	0x27c
 1471 0494 11       		.uleb128 0x11
 1472 0495 7E020000 		.4byte	.LASF75
 1473 0499 07       		.byte	0x7
 1474 049a B2       		.byte	0xb2
 1475 049b F6000000 		.4byte	0xf6
 1476 049f 00       		.byte	0
 1477 04a0 09       		.uleb128 0x9
 1478 04a1 04       		.byte	0x4
ARM GAS  C:\Users\danit\AppData\Local\Temp\ccoJBZpF.s 			page 27


 1479 04a2 A6040000 		.4byte	0x4a6
 1480 04a6 12       		.uleb128 0x12
 1481 04a7 AB040000 		.4byte	0x4ab
 1482 04ab 03       		.uleb128 0x3
 1483 04ac 01       		.byte	0x1
 1484 04ad 08       		.byte	0x8
 1485 04ae DD020000 		.4byte	.LASF76
 1486 04b2 09       		.uleb128 0x9
 1487 04b3 04       		.byte	0x4
 1488 04b4 60040000 		.4byte	0x460
 1489 04b8 13       		.uleb128 0x13
 1490 04b9 FB010000 		.4byte	.LASF77
 1491 04bd 02       		.byte	0x2
 1492 04be 49       		.byte	0x49
 1493 04bf 40020000 		.4byte	0x240
 1494 04c3 03       		.byte	0x3
 1495 04c4 D3040000 		.4byte	0x4d3
 1496 04c8 14       		.uleb128 0x14
 1497 04c9 747000   		.ascii	"tp\000"
 1498 04cc 02       		.byte	0x2
 1499 04cd 49       		.byte	0x49
 1500 04ce 40020000 		.4byte	0x240
 1501 04d2 00       		.byte	0
 1502 04d3 15       		.uleb128 0x15
 1503 04d4 EE020000 		.4byte	.LASF92
 1504 04d8 01       		.byte	0x1
 1505 04d9 51       		.byte	0x51
 1506 04da 40020000 		.4byte	0x240
 1507 04de 01       		.byte	0x1
 1508 04df F8040000 		.4byte	0x4f8
 1509 04e3 14       		.uleb128 0x14
 1510 04e4 747000   		.ascii	"tp\000"
 1511 04e7 01       		.byte	0x1
 1512 04e8 51       		.byte	0x51
 1513 04e9 40020000 		.4byte	0x240
 1514 04ed 16       		.uleb128 0x16
 1515 04ee 637000   		.ascii	"cp\000"
 1516 04f1 01       		.byte	0x1
 1517 04f2 52       		.byte	0x52
 1518 04f3 40020000 		.4byte	0x240
 1519 04f7 00       		.byte	0
 1520 04f8 17       		.uleb128 0x17
 1521 04f9 0D010000 		.4byte	.LASF93
 1522 04fd 01       		.byte	0x1
 1523 04fe 88       		.byte	0x88
 1524 04ff 01       		.byte	0x1
 1525 0500 47050000 		.4byte	0x547
 1526 0504 14       		.uleb128 0x14
 1527 0505 7000     		.ascii	"p\000"
 1528 0507 01       		.byte	0x1
 1529 0508 88       		.byte	0x88
 1530 0509 7C020000 		.4byte	0x27c
 1531 050d 16       		.uleb128 0x16
 1532 050e 747000   		.ascii	"tp\000"
 1533 0511 01       		.byte	0x1
 1534 0512 89       		.byte	0x89
 1535 0513 40020000 		.4byte	0x240
ARM GAS  C:\Users\danit\AppData\Local\Temp\ccoJBZpF.s 			page 28


 1536 0517 18       		.uleb128 0x18
 1537 0518 28050000 		.4byte	0x528
 1538 051c 16       		.uleb128 0x16
 1539 051d 746D7000 		.ascii	"tmp\000"
 1540 0521 01       		.byte	0x1
 1541 0522 8B       		.byte	0x8b
 1542 0523 A2000000 		.4byte	0xa2
 1543 0527 00       		.byte	0
 1544 0528 18       		.uleb128 0x18
 1545 0529 39050000 		.4byte	0x539
 1546 052d 16       		.uleb128 0x16
 1547 052e 746D7000 		.ascii	"tmp\000"
 1548 0532 01       		.byte	0x1
 1549 0533 90       		.byte	0x90
 1550 0534 A2000000 		.4byte	0xa2
 1551 0538 00       		.byte	0
 1552 0539 19       		.uleb128 0x19
 1553 053a 16       		.uleb128 0x16
 1554 053b 746D7000 		.ascii	"tmp\000"
 1555 053f 01       		.byte	0x1
 1556 0540 A5       		.byte	0xa5
 1557 0541 A2000000 		.4byte	0xa2
 1558 0545 00       		.byte	0
 1559 0546 00       		.byte	0
 1560 0547 13       		.uleb128 0x13
 1561 0548 E2020000 		.4byte	.LASF78
 1562 054c 02       		.byte	0x2
 1563 054d 3B       		.byte	0x3b
 1564 054e 40020000 		.4byte	0x240
 1565 0552 03       		.byte	0x3
 1566 0553 6D050000 		.4byte	0x56d
 1567 0557 14       		.uleb128 0x14
 1568 0558 74717000 		.ascii	"tqp\000"
 1569 055c 02       		.byte	0x2
 1570 055d 3B       		.byte	0x3b
 1571 055e 6D050000 		.4byte	0x56d
 1572 0562 16       		.uleb128 0x16
 1573 0563 747000   		.ascii	"tp\000"
 1574 0566 02       		.byte	0x2
 1575 0567 3C       		.byte	0x3c
 1576 0568 40020000 		.4byte	0x240
 1577 056c 00       		.byte	0
 1578 056d 09       		.uleb128 0x9
 1579 056e 04       		.byte	0x4
 1580 056f 46020000 		.4byte	0x246
 1581 0573 1A       		.uleb128 0x1a
 1582 0574 F8040000 		.4byte	0x4f8
 1583 0578 00000000 		.4byte	.LFB10
 1584 057c 70000000 		.4byte	.LFE10-.LFB10
 1585 0580 01       		.uleb128 0x1
 1586 0581 9C       		.byte	0x9c
 1587 0582 57060000 		.4byte	0x657
 1588 0586 1B       		.uleb128 0x1b
 1589 0587 04050000 		.4byte	0x504
 1590 058b 01       		.uleb128 0x1
 1591 058c 50       		.byte	0x50
 1592 058d 1C       		.uleb128 0x1c
ARM GAS  C:\Users\danit\AppData\Local\Temp\ccoJBZpF.s 			page 29


 1593 058e 0D050000 		.4byte	0x50d
 1594 0592 01       		.uleb128 0x1
 1595 0593 50       		.byte	0x50
 1596 0594 1D       		.uleb128 0x1d
 1597 0595 02000000 		.4byte	.LBB44
 1598 0599 06000000 		.4byte	.LBE44-.LBB44
 1599 059d A9050000 		.4byte	0x5a9
 1600 05a1 1C       		.uleb128 0x1c
 1601 05a2 1C050000 		.4byte	0x51c
 1602 05a6 01       		.uleb128 0x1
 1603 05a7 53       		.byte	0x53
 1604 05a8 00       		.byte	0
 1605 05a9 1E       		.uleb128 0x1e
 1606 05aa B8040000 		.4byte	0x4b8
 1607 05ae 28000000 		.4byte	.LBB45
 1608 05b2 0A000000 		.4byte	.LBE45-.LBB45
 1609 05b6 01       		.byte	0x1
 1610 05b7 A0       		.byte	0xa0
 1611 05b8 C6050000 		.4byte	0x5c6
 1612 05bc 1F       		.uleb128 0x1f
 1613 05bd C8040000 		.4byte	0x4c8
 1614 05c1 00000000 		.4byte	.LLST0
 1615 05c5 00       		.byte	0
 1616 05c6 20       		.uleb128 0x20
 1617 05c7 D3040000 		.4byte	0x4d3
 1618 05cb 36000000 		.4byte	.LBB47
 1619 05cf 00000000 		.4byte	.Ldebug_ranges0+0
 1620 05d3 01       		.byte	0x1
 1621 05d4 A4       		.byte	0xa4
 1622 05d5 F2050000 		.4byte	0x5f2
 1623 05d9 1F       		.uleb128 0x1f
 1624 05da E3040000 		.4byte	0x4e3
 1625 05de 13000000 		.4byte	.LLST1
 1626 05e2 21       		.uleb128 0x21
 1627 05e3 00000000 		.4byte	.Ldebug_ranges0+0
 1628 05e7 22       		.uleb128 0x22
 1629 05e8 ED040000 		.4byte	0x4ed
 1630 05ec 26000000 		.4byte	.LLST2
 1631 05f0 00       		.byte	0
 1632 05f1 00       		.byte	0
 1633 05f2 23       		.uleb128 0x23
 1634 05f3 18000000 		.4byte	.Ldebug_ranges0+0x18
 1635 05f7 45060000 		.4byte	0x645
 1636 05fb 1F       		.uleb128 0x1f
 1637 05fc 04050000 		.4byte	0x504
 1638 0600 3E000000 		.4byte	.LLST3
 1639 0604 21       		.uleb128 0x21
 1640 0605 18000000 		.4byte	.Ldebug_ranges0+0x18
 1641 0609 24       		.uleb128 0x24
 1642 060a 0D050000 		.4byte	0x50d
 1643 060e 20       		.uleb128 0x20
 1644 060f D3040000 		.4byte	0x4d3
 1645 0613 3A000000 		.4byte	.LBB52
 1646 0617 30000000 		.4byte	.Ldebug_ranges0+0x30
 1647 061b 01       		.byte	0x1
 1648 061c A4       		.byte	0xa4
 1649 061d 36060000 		.4byte	0x636
ARM GAS  C:\Users\danit\AppData\Local\Temp\ccoJBZpF.s 			page 30


 1650 0621 25       		.uleb128 0x25
 1651 0622 E3040000 		.4byte	0x4e3
 1652 0626 21       		.uleb128 0x21
 1653 0627 30000000 		.4byte	.Ldebug_ranges0+0x30
 1654 062b 22       		.uleb128 0x22
 1655 062c ED040000 		.4byte	0x4ed
 1656 0630 51000000 		.4byte	.LLST4
 1657 0634 00       		.byte	0
 1658 0635 00       		.byte	0
 1659 0636 21       		.uleb128 0x21
 1660 0637 50000000 		.4byte	.Ldebug_ranges0+0x50
 1661 063b 1C       		.uleb128 0x1c
 1662 063c 3A050000 		.4byte	0x53a
 1663 0640 01       		.uleb128 0x1
 1664 0641 53       		.byte	0x53
 1665 0642 00       		.byte	0
 1666 0643 00       		.byte	0
 1667 0644 00       		.byte	0
 1668 0645 26       		.uleb128 0x26
 1669 0646 5E000000 		.4byte	.LBB63
 1670 064a 06000000 		.4byte	.LBE63-.LBB63
 1671 064e 1C       		.uleb128 0x1c
 1672 064f 2D050000 		.4byte	0x52d
 1673 0653 01       		.uleb128 0x1
 1674 0654 53       		.byte	0x53
 1675 0655 00       		.byte	0
 1676 0656 00       		.byte	0
 1677 0657 27       		.uleb128 0x27
 1678 0658 55000000 		.4byte	.LASF94
 1679 065c 01       		.byte	0x1
 1680 065d 37       		.byte	0x37
 1681 065e 00000000 		.4byte	.LFB7
 1682 0662 14000000 		.4byte	.LFE7-.LFB7
 1683 0666 01       		.uleb128 0x1
 1684 0667 9C       		.byte	0x9c
 1685 0668 1A       		.uleb128 0x1a
 1686 0669 D3040000 		.4byte	0x4d3
 1687 066d 00000000 		.4byte	.LFB8
 1688 0671 2C000000 		.4byte	.LFE8-.LFB8
 1689 0675 01       		.uleb128 0x1
 1690 0676 9C       		.byte	0x9c
 1691 0677 8C060000 		.4byte	0x68c
 1692 067b 1F       		.uleb128 0x1f
 1693 067c E3040000 		.4byte	0x4e3
 1694 0680 64000000 		.4byte	.LLST5
 1695 0684 1C       		.uleb128 0x1c
 1696 0685 ED040000 		.4byte	0x4ed
 1697 0689 01       		.uleb128 0x1
 1698 068a 53       		.byte	0x53
 1699 068b 00       		.byte	0
 1700 068c 28       		.uleb128 0x28
 1701 068d A6020000 		.4byte	.LASF81
 1702 0691 01       		.byte	0x1
 1703 0692 73       		.byte	0x73
 1704 0693 00000000 		.4byte	.LFB9
 1705 0697 28000000 		.4byte	.LFE9-.LFB9
 1706 069b 01       		.uleb128 0x1
ARM GAS  C:\Users\danit\AppData\Local\Temp\ccoJBZpF.s 			page 31


 1707 069c 9C       		.byte	0x9c
 1708 069d F8060000 		.4byte	0x6f8
 1709 06a1 29       		.uleb128 0x29
 1710 06a2 48020000 		.4byte	.LASF79
 1711 06a6 01       		.byte	0x1
 1712 06a7 73       		.byte	0x73
 1713 06a8 BF000000 		.4byte	0xbf
 1714 06ac 8D000000 		.4byte	.LLST6
 1715 06b0 2A       		.uleb128 0x2a
 1716 06b1 6F747000 		.ascii	"otp\000"
 1717 06b5 01       		.byte	0x1
 1718 06b6 74       		.byte	0x74
 1719 06b7 40020000 		.4byte	0x240
 1720 06bb BA000000 		.4byte	.LLST7
 1721 06bf 20       		.uleb128 0x20
 1722 06c0 47050000 		.4byte	0x547
 1723 06c4 04000000 		.4byte	.LBB64
 1724 06c8 68000000 		.4byte	.Ldebug_ranges0+0x68
 1725 06cc 01       		.byte	0x1
 1726 06cd 7E       		.byte	0x7e
 1727 06ce EE060000 		.4byte	0x6ee
 1728 06d2 1B       		.uleb128 0x1b
 1729 06d3 57050000 		.4byte	0x557
 1730 06d7 06       		.uleb128 0x6
 1731 06d8 03       		.byte	0x3
 1732 06d9 00000000 		.4byte	rlist
 1733 06dd 9F       		.byte	0x9f
 1734 06de 21       		.uleb128 0x21
 1735 06df 68000000 		.4byte	.Ldebug_ranges0+0x68
 1736 06e3 22       		.uleb128 0x22
 1737 06e4 62050000 		.4byte	0x562
 1738 06e8 CD000000 		.4byte	.LLST8
 1739 06ec 00       		.byte	0
 1740 06ed 00       		.byte	0
 1741 06ee 2B       		.uleb128 0x2b
 1742 06ef 22000000 		.4byte	.LVL17
 1743 06f3 9F090000 		.4byte	0x99f
 1744 06f7 00       		.byte	0
 1745 06f8 2C       		.uleb128 0x2c
 1746 06f9 7E040000 		.4byte	.LASF95
 1747 06fd 01       		.byte	0x1
 1748 06fe BD       		.byte	0xbd
 1749 06ff EB000000 		.4byte	0xeb
 1750 0703 00000000 		.4byte	.LFB11
 1751 0707 44000000 		.4byte	.LFE11-.LFB11
 1752 070b 01       		.uleb128 0x1
 1753 070c 9C       		.byte	0x9c
 1754 070d 9C070000 		.4byte	0x79c
 1755 0711 29       		.uleb128 0x29
 1756 0712 48020000 		.4byte	.LASF79
 1757 0716 01       		.byte	0x1
 1758 0717 BD       		.byte	0xbd
 1759 0718 BF000000 		.4byte	0xbf
 1760 071c E0000000 		.4byte	.LLST9
 1761 0720 29       		.uleb128 0x29
 1762 0721 39030000 		.4byte	.LASF80
 1763 0725 01       		.byte	0x1
ARM GAS  C:\Users\danit\AppData\Local\Temp\ccoJBZpF.s 			page 32


 1764 0726 BD       		.byte	0xbd
 1765 0727 01010000 		.4byte	0x101
 1766 072b 1A010000 		.4byte	.LLST10
 1767 072f 1D       		.uleb128 0x1d
 1768 0730 08000000 		.4byte	.LBB72
 1769 0734 1E000000 		.4byte	.LBE72-.LBB72
 1770 0738 92070000 		.4byte	0x792
 1771 073c 2D       		.uleb128 0x2d
 1772 073d 767400   		.ascii	"vt\000"
 1773 0740 01       		.byte	0x1
 1774 0741 C2       		.byte	0xc2
 1775 0742 3E030000 		.4byte	0x33e
 1776 0746 02       		.uleb128 0x2
 1777 0747 91       		.byte	0x91
 1778 0748 5C       		.sleb128 -36
 1779 0749 2E       		.uleb128 0x2e
 1780 074a 16000000 		.4byte	.LVL20
 1781 074e B6090000 		.4byte	0x9b6
 1782 0752 6D070000 		.4byte	0x76d
 1783 0756 2F       		.uleb128 0x2f
 1784 0757 01       		.uleb128 0x1
 1785 0758 52       		.byte	0x52
 1786 0759 05       		.uleb128 0x5
 1787 075a 03       		.byte	0x3
 1788 075b 00000000 		.4byte	wakeup
 1789 075f 2F       		.uleb128 0x2f
 1790 0760 01       		.uleb128 0x1
 1791 0761 51       		.byte	0x51
 1792 0762 03       		.uleb128 0x3
 1793 0763 F3       		.byte	0xf3
 1794 0764 01       		.uleb128 0x1
 1795 0765 51       		.byte	0x51
 1796 0766 2F       		.uleb128 0x2f
 1797 0767 01       		.uleb128 0x1
 1798 0768 50       		.byte	0x50
 1799 0769 02       		.uleb128 0x2
 1800 076a 91       		.byte	0x91
 1801 076b 5C       		.sleb128 -36
 1802 076c 00       		.byte	0
 1803 076d 2E       		.uleb128 0x2e
 1804 076e 1C000000 		.4byte	.LVL21
 1805 0772 8C060000 		.4byte	0x68c
 1806 0776 81070000 		.4byte	0x781
 1807 077a 2F       		.uleb128 0x2f
 1808 077b 01       		.uleb128 0x1
 1809 077c 50       		.byte	0x50
 1810 077d 02       		.uleb128 0x2
 1811 077e 75       		.byte	0x75
 1812 077f 00       		.sleb128 0
 1813 0780 00       		.byte	0
 1814 0781 30       		.uleb128 0x30
 1815 0782 26000000 		.4byte	.LVL22
 1816 0786 D6090000 		.4byte	0x9d6
 1817 078a 2F       		.uleb128 0x2f
 1818 078b 01       		.uleb128 0x1
 1819 078c 50       		.byte	0x50
 1820 078d 02       		.uleb128 0x2
ARM GAS  C:\Users\danit\AppData\Local\Temp\ccoJBZpF.s 			page 33


 1821 078e 91       		.byte	0x91
 1822 078f 5C       		.sleb128 -36
 1823 0790 00       		.byte	0
 1824 0791 00       		.byte	0
 1825 0792 31       		.uleb128 0x31
 1826 0793 34000000 		.4byte	.LVL24
 1827 0797 8C060000 		.4byte	0x68c
 1828 079b 00       		.byte	0
 1829 079c 28       		.uleb128 0x28
 1830 079d 65010000 		.4byte	.LASF82
 1831 07a1 01       		.byte	0x1
 1832 07a2 E1       		.byte	0xe1
 1833 07a3 00000000 		.4byte	.LFB12
 1834 07a7 58000000 		.4byte	.LFE12-.LFB12
 1835 07ab 01       		.uleb128 0x1
 1836 07ac 9C       		.byte	0x9c
 1837 07ad 4A080000 		.4byte	0x84a
 1838 07b1 32       		.uleb128 0x32
 1839 07b2 6E747000 		.ascii	"ntp\000"
 1840 07b6 01       		.byte	0x1
 1841 07b7 E1       		.byte	0xe1
 1842 07b8 40020000 		.4byte	0x240
 1843 07bc 54010000 		.4byte	.LLST11
 1844 07c0 32       		.uleb128 0x32
 1845 07c1 6D736700 		.ascii	"msg\000"
 1846 07c5 01       		.byte	0x1
 1847 07c6 E1       		.byte	0xe1
 1848 07c7 EB000000 		.4byte	0xeb
 1849 07cb A2010000 		.4byte	.LLST12
 1850 07cf 20       		.uleb128 0x20
 1851 07d0 D3040000 		.4byte	0x4d3
 1852 07d4 10000000 		.4byte	.LBB73
 1853 07d8 90000000 		.4byte	.Ldebug_ranges0+0x90
 1854 07dc 01       		.byte	0x1
 1855 07dd EB       		.byte	0xeb
 1856 07de FB070000 		.4byte	0x7fb
 1857 07e2 1F       		.uleb128 0x1f
 1858 07e3 E3040000 		.4byte	0x4e3
 1859 07e7 DB010000 		.4byte	.LLST13
 1860 07eb 21       		.uleb128 0x21
 1861 07ec 90000000 		.4byte	.Ldebug_ranges0+0x90
 1862 07f0 22       		.uleb128 0x22
 1863 07f1 ED040000 		.4byte	0x4ed
 1864 07f5 FA010000 		.4byte	.LLST14
 1865 07f9 00       		.byte	0
 1866 07fa 00       		.byte	0
 1867 07fb 21       		.uleb128 0x21
 1868 07fc A8000000 		.4byte	.Ldebug_ranges0+0xa8
 1869 0800 16       		.uleb128 0x16
 1870 0801 6F747000 		.ascii	"otp\000"
 1871 0805 01       		.byte	0x1
 1872 0806 ED       		.byte	0xed
 1873 0807 40020000 		.4byte	0x240
 1874 080b 20       		.uleb128 0x20
 1875 080c D3040000 		.4byte	0x4d3
 1876 0810 2E000000 		.4byte	.LBB78
 1877 0814 C0000000 		.4byte	.Ldebug_ranges0+0xc0
ARM GAS  C:\Users\danit\AppData\Local\Temp\ccoJBZpF.s 			page 34


 1878 0818 01       		.byte	0x1
 1879 0819 ED       		.byte	0xed
 1880 081a 37080000 		.4byte	0x837
 1881 081e 1F       		.uleb128 0x1f
 1882 081f E3040000 		.4byte	0x4e3
 1883 0823 0D020000 		.4byte	.LLST15
 1884 0827 21       		.uleb128 0x21
 1885 0828 C0000000 		.4byte	.Ldebug_ranges0+0xc0
 1886 082c 22       		.uleb128 0x22
 1887 082d ED040000 		.4byte	0x4ed
 1888 0831 2B020000 		.4byte	.LLST16
 1889 0835 00       		.byte	0
 1890 0836 00       		.byte	0
 1891 0837 33       		.uleb128 0x33
 1892 0838 54000000 		.4byte	.LVL36
 1893 083c 9F090000 		.4byte	0x99f
 1894 0840 2F       		.uleb128 0x2f
 1895 0841 01       		.uleb128 0x1
 1896 0842 50       		.byte	0x50
 1897 0843 03       		.uleb128 0x3
 1898 0844 F3       		.byte	0xf3
 1899 0845 01       		.uleb128 0x1
 1900 0846 50       		.byte	0x50
 1901 0847 00       		.byte	0
 1902 0848 00       		.byte	0
 1903 0849 00       		.byte	0
 1904 084a 34       		.uleb128 0x34
 1905 084b BF010000 		.4byte	.LASF83
 1906 084f 01       		.byte	0x1
 1907 0850 3001     		.2byte	0x130
 1908 0852 00000000 		.4byte	.LFB14
 1909 0856 40000000 		.4byte	.LFE14-.LFB14
 1910 085a 01       		.uleb128 0x1
 1911 085b 9C       		.byte	0x9c
 1912 085c D7080000 		.4byte	0x8d7
 1913 0860 35       		.uleb128 0x35
 1914 0861 6F747000 		.ascii	"otp\000"
 1915 0865 01       		.byte	0x1
 1916 0866 3101     		.2byte	0x131
 1917 0868 40020000 		.4byte	0x240
 1918 086c 4E020000 		.4byte	.LLST17
 1919 0870 36       		.uleb128 0x36
 1920 0871 47050000 		.4byte	0x547
 1921 0875 02000000 		.4byte	.LBB83
 1922 0879 D8000000 		.4byte	.Ldebug_ranges0+0xd8
 1923 087d 01       		.byte	0x1
 1924 087e 3501     		.2byte	0x135
 1925 0880 A0080000 		.4byte	0x8a0
 1926 0884 1B       		.uleb128 0x1b
 1927 0885 57050000 		.4byte	0x557
 1928 0889 06       		.uleb128 0x6
 1929 088a 03       		.byte	0x3
 1930 088b 00000000 		.4byte	rlist
 1931 088f 9F       		.byte	0x9f
 1932 0890 21       		.uleb128 0x21
 1933 0891 D8000000 		.4byte	.Ldebug_ranges0+0xd8
 1934 0895 22       		.uleb128 0x22
ARM GAS  C:\Users\danit\AppData\Local\Temp\ccoJBZpF.s 			page 35


 1935 0896 62050000 		.4byte	0x562
 1936 089a 6C020000 		.4byte	.LLST18
 1937 089e 00       		.byte	0
 1938 089f 00       		.byte	0
 1939 08a0 36       		.uleb128 0x36
 1940 08a1 D3040000 		.4byte	0x4d3
 1941 08a5 10000000 		.4byte	.LBB90
 1942 08a9 00010000 		.4byte	.Ldebug_ranges0+0x100
 1943 08ad 01       		.byte	0x1
 1944 08ae 3A01     		.2byte	0x13a
 1945 08b0 CD080000 		.4byte	0x8cd
 1946 08b4 1F       		.uleb128 0x1f
 1947 08b5 E3040000 		.4byte	0x4e3
 1948 08b9 7F020000 		.4byte	.LLST19
 1949 08bd 21       		.uleb128 0x21
 1950 08be 00010000 		.4byte	.Ldebug_ranges0+0x100
 1951 08c2 22       		.uleb128 0x22
 1952 08c3 ED040000 		.4byte	0x4ed
 1953 08c7 9D020000 		.4byte	.LLST20
 1954 08cb 00       		.byte	0
 1955 08cc 00       		.byte	0
 1956 08cd 2B       		.uleb128 0x2b
 1957 08ce 3C000000 		.4byte	.LVL43
 1958 08d2 9F090000 		.4byte	0x99f
 1959 08d6 00       		.byte	0
 1960 08d7 34       		.uleb128 0x34
 1961 08d8 0D000000 		.4byte	.LASF84
 1962 08dc 01       		.byte	0x1
 1963 08dd 4901     		.2byte	0x149
 1964 08df 00000000 		.4byte	.LFB15
 1965 08e3 3C000000 		.4byte	.LFE15-.LFB15
 1966 08e7 01       		.uleb128 0x1
 1967 08e8 9C       		.byte	0x9c
 1968 08e9 46090000 		.4byte	0x946
 1969 08ed 35       		.uleb128 0x35
 1970 08ee 6F747000 		.ascii	"otp\000"
 1971 08f2 01       		.byte	0x1
 1972 08f3 4A01     		.2byte	0x14a
 1973 08f5 40020000 		.4byte	0x240
 1974 08f9 C0020000 		.4byte	.LLST21
 1975 08fd 35       		.uleb128 0x35
 1976 08fe 637000   		.ascii	"cp\000"
 1977 0901 01       		.byte	0x1
 1978 0902 4A01     		.2byte	0x14a
 1979 0904 40020000 		.4byte	0x240
 1980 0908 DE020000 		.4byte	.LLST22
 1981 090c 36       		.uleb128 0x36
 1982 090d 47050000 		.4byte	0x547
 1983 0911 02000000 		.4byte	.LBB99
 1984 0915 28010000 		.4byte	.Ldebug_ranges0+0x128
 1985 0919 01       		.byte	0x1
 1986 091a 4E01     		.2byte	0x14e
 1987 091c 3C090000 		.4byte	0x93c
 1988 0920 1B       		.uleb128 0x1b
 1989 0921 57050000 		.4byte	0x557
 1990 0925 06       		.uleb128 0x6
 1991 0926 03       		.byte	0x3
ARM GAS  C:\Users\danit\AppData\Local\Temp\ccoJBZpF.s 			page 36


 1992 0927 00000000 		.4byte	rlist
 1993 092b 9F       		.byte	0x9f
 1994 092c 21       		.uleb128 0x21
 1995 092d 28010000 		.4byte	.Ldebug_ranges0+0x128
 1996 0931 22       		.uleb128 0x22
 1997 0932 62050000 		.4byte	0x562
 1998 0936 01030000 		.4byte	.LLST23
 1999 093a 00       		.byte	0
 2000 093b 00       		.byte	0
 2001 093c 2B       		.uleb128 0x2b
 2002 093d 38000000 		.4byte	.LVL49
 2003 0941 9F090000 		.4byte	0x99f
 2004 0945 00       		.byte	0
 2005 0946 28       		.uleb128 0x28
 2006 0947 BB000000 		.4byte	.LASF85
 2007 094b 01       		.byte	0x1
 2008 094c FD       		.byte	0xfd
 2009 094d 00000000 		.4byte	.LFB13
 2010 0951 18000000 		.4byte	.LFE13-.LFB13
 2011 0955 01       		.uleb128 0x1
 2012 0956 9C       		.byte	0x9c
 2013 0957 65090000 		.4byte	0x965
 2014 095b 2B       		.uleb128 0x2b
 2015 095c 14000000 		.4byte	.LVL50
 2016 0960 D7080000 		.4byte	0x8d7
 2017 0964 00       		.byte	0
 2018 0965 34       		.uleb128 0x34
 2019 0966 E8000000 		.4byte	.LASF86
 2020 096a 01       		.byte	0x1
 2021 096b 6A01     		.2byte	0x16a
 2022 096d 00000000 		.4byte	.LFB16
 2023 0971 14000000 		.4byte	.LFE16-.LFB16
 2024 0975 01       		.uleb128 0x1
 2025 0976 9C       		.byte	0x9c
 2026 0977 8E090000 		.4byte	0x98e
 2027 097b 2B       		.uleb128 0x2b
 2028 097c 0C000000 		.4byte	.LVL51
 2029 0980 D7080000 		.4byte	0x8d7
 2030 0984 2B       		.uleb128 0x2b
 2031 0985 10000000 		.4byte	.LVL52
 2032 0989 4A080000 		.4byte	0x84a
 2033 098d 00       		.byte	0
 2034 098e 37       		.uleb128 0x37
 2035 098f 62040000 		.4byte	.LASF96
 2036 0993 01       		.byte	0x1
 2037 0994 2F       		.byte	0x2f
 2038 0995 EE030000 		.4byte	0x3ee
 2039 0999 05       		.uleb128 0x5
 2040 099a 03       		.byte	0x3
 2041 099b 00000000 		.4byte	rlist
 2042 099f 38       		.uleb128 0x38
 2043 09a0 1C010000 		.4byte	.LASF87
 2044 09a4 08       		.byte	0x8
 2045 09a5 0602     		.2byte	0x206
 2046 09a7 B6090000 		.4byte	0x9b6
 2047 09ab 0E       		.uleb128 0xe
 2048 09ac 40020000 		.4byte	0x240
ARM GAS  C:\Users\danit\AppData\Local\Temp\ccoJBZpF.s 			page 37


 2049 09b0 0E       		.uleb128 0xe
 2050 09b1 40020000 		.4byte	0x240
 2051 09b5 00       		.byte	0
 2052 09b6 39       		.uleb128 0x39
 2053 09b7 D7010000 		.4byte	.LASF88
 2054 09bb 09       		.byte	0x9
 2055 09bc FE       		.byte	0xfe
 2056 09bd D6090000 		.4byte	0x9d6
 2057 09c1 0E       		.uleb128 0xe
 2058 09c2 92030000 		.4byte	0x392
 2059 09c6 0E       		.uleb128 0xe
 2060 09c7 01010000 		.4byte	0x101
 2061 09cb 0E       		.uleb128 0xe
 2062 09cc 22030000 		.4byte	0x322
 2063 09d0 0E       		.uleb128 0xe
 2064 09d1 7C020000 		.4byte	0x27c
 2065 09d5 00       		.byte	0
 2066 09d6 3A       		.uleb128 0x3a
 2067 09d7 9B020000 		.4byte	.LASF97
 2068 09db 09       		.byte	0x9
 2069 09dc FF       		.byte	0xff
 2070 09dd 0E       		.uleb128 0xe
 2071 09de 92030000 		.4byte	0x392
 2072 09e2 00       		.byte	0
 2073 09e3 00       		.byte	0
 2074              		.section	.debug_abbrev,"",%progbits
 2075              	.Ldebug_abbrev0:
 2076 0000 01       		.uleb128 0x1
 2077 0001 11       		.uleb128 0x11
 2078 0002 01       		.byte	0x1
 2079 0003 25       		.uleb128 0x25
 2080 0004 0E       		.uleb128 0xe
 2081 0005 13       		.uleb128 0x13
 2082 0006 0B       		.uleb128 0xb
 2083 0007 03       		.uleb128 0x3
 2084 0008 0E       		.uleb128 0xe
 2085 0009 1B       		.uleb128 0x1b
 2086 000a 0E       		.uleb128 0xe
 2087 000b 55       		.uleb128 0x55
 2088 000c 17       		.uleb128 0x17
 2089 000d 11       		.uleb128 0x11
 2090 000e 01       		.uleb128 0x1
 2091 000f 10       		.uleb128 0x10
 2092 0010 17       		.uleb128 0x17
 2093 0011 00       		.byte	0
 2094 0012 00       		.byte	0
 2095 0013 02       		.uleb128 0x2
 2096 0014 24       		.uleb128 0x24
 2097 0015 00       		.byte	0
 2098 0016 0B       		.uleb128 0xb
 2099 0017 0B       		.uleb128 0xb
 2100 0018 3E       		.uleb128 0x3e
 2101 0019 0B       		.uleb128 0xb
 2102 001a 03       		.uleb128 0x3
 2103 001b 08       		.uleb128 0x8
 2104 001c 00       		.byte	0
 2105 001d 00       		.byte	0
ARM GAS  C:\Users\danit\AppData\Local\Temp\ccoJBZpF.s 			page 38


 2106 001e 03       		.uleb128 0x3
 2107 001f 24       		.uleb128 0x24
 2108 0020 00       		.byte	0
 2109 0021 0B       		.uleb128 0xb
 2110 0022 0B       		.uleb128 0xb
 2111 0023 3E       		.uleb128 0x3e
 2112 0024 0B       		.uleb128 0xb
 2113 0025 03       		.uleb128 0x3
 2114 0026 0E       		.uleb128 0xe
 2115 0027 00       		.byte	0
 2116 0028 00       		.byte	0
 2117 0029 04       		.uleb128 0x4
 2118 002a 16       		.uleb128 0x16
 2119 002b 00       		.byte	0
 2120 002c 03       		.uleb128 0x3
 2121 002d 0E       		.uleb128 0xe
 2122 002e 3A       		.uleb128 0x3a
 2123 002f 0B       		.uleb128 0xb
 2124 0030 3B       		.uleb128 0x3b
 2125 0031 0B       		.uleb128 0xb
 2126 0032 49       		.uleb128 0x49
 2127 0033 13       		.uleb128 0x13
 2128 0034 00       		.byte	0
 2129 0035 00       		.byte	0
 2130 0036 05       		.uleb128 0x5
 2131 0037 13       		.uleb128 0x13
 2132 0038 01       		.byte	0x1
 2133 0039 03       		.uleb128 0x3
 2134 003a 0E       		.uleb128 0xe
 2135 003b 0B       		.uleb128 0xb
 2136 003c 0B       		.uleb128 0xb
 2137 003d 3A       		.uleb128 0x3a
 2138 003e 0B       		.uleb128 0xb
 2139 003f 3B       		.uleb128 0x3b
 2140 0040 0B       		.uleb128 0xb
 2141 0041 01       		.uleb128 0x1
 2142 0042 13       		.uleb128 0x13
 2143 0043 00       		.byte	0
 2144 0044 00       		.byte	0
 2145 0045 06       		.uleb128 0x6
 2146 0046 0D       		.uleb128 0xd
 2147 0047 00       		.byte	0
 2148 0048 03       		.uleb128 0x3
 2149 0049 0E       		.uleb128 0xe
 2150 004a 3A       		.uleb128 0x3a
 2151 004b 0B       		.uleb128 0xb
 2152 004c 3B       		.uleb128 0x3b
 2153 004d 0B       		.uleb128 0xb
 2154 004e 49       		.uleb128 0x49
 2155 004f 13       		.uleb128 0x13
 2156 0050 38       		.uleb128 0x38
 2157 0051 0B       		.uleb128 0xb
 2158 0052 00       		.byte	0
 2159 0053 00       		.byte	0
 2160 0054 07       		.uleb128 0x7
 2161 0055 0D       		.uleb128 0xd
 2162 0056 00       		.byte	0
ARM GAS  C:\Users\danit\AppData\Local\Temp\ccoJBZpF.s 			page 39


 2163 0057 03       		.uleb128 0x3
 2164 0058 08       		.uleb128 0x8
 2165 0059 3A       		.uleb128 0x3a
 2166 005a 0B       		.uleb128 0xb
 2167 005b 3B       		.uleb128 0x3b
 2168 005c 0B       		.uleb128 0xb
 2169 005d 49       		.uleb128 0x49
 2170 005e 13       		.uleb128 0x13
 2171 005f 38       		.uleb128 0x38
 2172 0060 0B       		.uleb128 0xb
 2173 0061 00       		.byte	0
 2174 0062 00       		.byte	0
 2175 0063 08       		.uleb128 0x8
 2176 0064 13       		.uleb128 0x13
 2177 0065 01       		.byte	0x1
 2178 0066 0B       		.uleb128 0xb
 2179 0067 0B       		.uleb128 0xb
 2180 0068 3A       		.uleb128 0x3a
 2181 0069 0B       		.uleb128 0xb
 2182 006a 3B       		.uleb128 0x3b
 2183 006b 0B       		.uleb128 0xb
 2184 006c 01       		.uleb128 0x1
 2185 006d 13       		.uleb128 0x13
 2186 006e 00       		.byte	0
 2187 006f 00       		.byte	0
 2188 0070 09       		.uleb128 0x9
 2189 0071 0F       		.uleb128 0xf
 2190 0072 00       		.byte	0
 2191 0073 0B       		.uleb128 0xb
 2192 0074 0B       		.uleb128 0xb
 2193 0075 49       		.uleb128 0x49
 2194 0076 13       		.uleb128 0x13
 2195 0077 00       		.byte	0
 2196 0078 00       		.byte	0
 2197 0079 0A       		.uleb128 0xa
 2198 007a 0F       		.uleb128 0xf
 2199 007b 00       		.byte	0
 2200 007c 0B       		.uleb128 0xb
 2201 007d 0B       		.uleb128 0xb
 2202 007e 00       		.byte	0
 2203 007f 00       		.byte	0
 2204 0080 0B       		.uleb128 0xb
 2205 0081 13       		.uleb128 0x13
 2206 0082 01       		.byte	0x1
 2207 0083 03       		.uleb128 0x3
 2208 0084 0E       		.uleb128 0xe
 2209 0085 0B       		.uleb128 0xb
 2210 0086 0B       		.uleb128 0xb
 2211 0087 3A       		.uleb128 0x3a
 2212 0088 0B       		.uleb128 0xb
 2213 0089 3B       		.uleb128 0x3b
 2214 008a 05       		.uleb128 0x5
 2215 008b 01       		.uleb128 0x1
 2216 008c 13       		.uleb128 0x13
 2217 008d 00       		.byte	0
 2218 008e 00       		.byte	0
 2219 008f 0C       		.uleb128 0xc
ARM GAS  C:\Users\danit\AppData\Local\Temp\ccoJBZpF.s 			page 40


 2220 0090 0D       		.uleb128 0xd
 2221 0091 00       		.byte	0
 2222 0092 03       		.uleb128 0x3
 2223 0093 08       		.uleb128 0x8
 2224 0094 3A       		.uleb128 0x3a
 2225 0095 0B       		.uleb128 0xb
 2226 0096 3B       		.uleb128 0x3b
 2227 0097 05       		.uleb128 0x5
 2228 0098 49       		.uleb128 0x49
 2229 0099 13       		.uleb128 0x13
 2230 009a 38       		.uleb128 0x38
 2231 009b 0B       		.uleb128 0xb
 2232 009c 00       		.byte	0
 2233 009d 00       		.byte	0
 2234 009e 0D       		.uleb128 0xd
 2235 009f 15       		.uleb128 0x15
 2236 00a0 01       		.byte	0x1
 2237 00a1 27       		.uleb128 0x27
 2238 00a2 19       		.uleb128 0x19
 2239 00a3 01       		.uleb128 0x1
 2240 00a4 13       		.uleb128 0x13
 2241 00a5 00       		.byte	0
 2242 00a6 00       		.byte	0
 2243 00a7 0E       		.uleb128 0xe
 2244 00a8 05       		.uleb128 0x5
 2245 00a9 00       		.byte	0
 2246 00aa 49       		.uleb128 0x49
 2247 00ab 13       		.uleb128 0x13
 2248 00ac 00       		.byte	0
 2249 00ad 00       		.byte	0
 2250 00ae 0F       		.uleb128 0xf
 2251 00af 35       		.uleb128 0x35
 2252 00b0 00       		.byte	0
 2253 00b1 49       		.uleb128 0x49
 2254 00b2 13       		.uleb128 0x13
 2255 00b3 00       		.byte	0
 2256 00b4 00       		.byte	0
 2257 00b5 10       		.uleb128 0x10
 2258 00b6 17       		.uleb128 0x17
 2259 00b7 01       		.byte	0x1
 2260 00b8 0B       		.uleb128 0xb
 2261 00b9 0B       		.uleb128 0xb
 2262 00ba 3A       		.uleb128 0x3a
 2263 00bb 0B       		.uleb128 0xb
 2264 00bc 3B       		.uleb128 0x3b
 2265 00bd 0B       		.uleb128 0xb
 2266 00be 01       		.uleb128 0x1
 2267 00bf 13       		.uleb128 0x13
 2268 00c0 00       		.byte	0
 2269 00c1 00       		.byte	0
 2270 00c2 11       		.uleb128 0x11
 2271 00c3 0D       		.uleb128 0xd
 2272 00c4 00       		.byte	0
 2273 00c5 03       		.uleb128 0x3
 2274 00c6 0E       		.uleb128 0xe
 2275 00c7 3A       		.uleb128 0x3a
 2276 00c8 0B       		.uleb128 0xb
ARM GAS  C:\Users\danit\AppData\Local\Temp\ccoJBZpF.s 			page 41


 2277 00c9 3B       		.uleb128 0x3b
 2278 00ca 0B       		.uleb128 0xb
 2279 00cb 49       		.uleb128 0x49
 2280 00cc 13       		.uleb128 0x13
 2281 00cd 00       		.byte	0
 2282 00ce 00       		.byte	0
 2283 00cf 12       		.uleb128 0x12
 2284 00d0 26       		.uleb128 0x26
 2285 00d1 00       		.byte	0
 2286 00d2 49       		.uleb128 0x49
 2287 00d3 13       		.uleb128 0x13
 2288 00d4 00       		.byte	0
 2289 00d5 00       		.byte	0
 2290 00d6 13       		.uleb128 0x13
 2291 00d7 2E       		.uleb128 0x2e
 2292 00d8 01       		.byte	0x1
 2293 00d9 03       		.uleb128 0x3
 2294 00da 0E       		.uleb128 0xe
 2295 00db 3A       		.uleb128 0x3a
 2296 00dc 0B       		.uleb128 0xb
 2297 00dd 3B       		.uleb128 0x3b
 2298 00de 0B       		.uleb128 0xb
 2299 00df 27       		.uleb128 0x27
 2300 00e0 19       		.uleb128 0x19
 2301 00e1 49       		.uleb128 0x49
 2302 00e2 13       		.uleb128 0x13
 2303 00e3 20       		.uleb128 0x20
 2304 00e4 0B       		.uleb128 0xb
 2305 00e5 01       		.uleb128 0x1
 2306 00e6 13       		.uleb128 0x13
 2307 00e7 00       		.byte	0
 2308 00e8 00       		.byte	0
 2309 00e9 14       		.uleb128 0x14
 2310 00ea 05       		.uleb128 0x5
 2311 00eb 00       		.byte	0
 2312 00ec 03       		.uleb128 0x3
 2313 00ed 08       		.uleb128 0x8
 2314 00ee 3A       		.uleb128 0x3a
 2315 00ef 0B       		.uleb128 0xb
 2316 00f0 3B       		.uleb128 0x3b
 2317 00f1 0B       		.uleb128 0xb
 2318 00f2 49       		.uleb128 0x49
 2319 00f3 13       		.uleb128 0x13
 2320 00f4 00       		.byte	0
 2321 00f5 00       		.byte	0
 2322 00f6 15       		.uleb128 0x15
 2323 00f7 2E       		.uleb128 0x2e
 2324 00f8 01       		.byte	0x1
 2325 00f9 3F       		.uleb128 0x3f
 2326 00fa 19       		.uleb128 0x19
 2327 00fb 03       		.uleb128 0x3
 2328 00fc 0E       		.uleb128 0xe
 2329 00fd 3A       		.uleb128 0x3a
 2330 00fe 0B       		.uleb128 0xb
 2331 00ff 3B       		.uleb128 0x3b
 2332 0100 0B       		.uleb128 0xb
 2333 0101 27       		.uleb128 0x27
ARM GAS  C:\Users\danit\AppData\Local\Temp\ccoJBZpF.s 			page 42


 2334 0102 19       		.uleb128 0x19
 2335 0103 49       		.uleb128 0x49
 2336 0104 13       		.uleb128 0x13
 2337 0105 20       		.uleb128 0x20
 2338 0106 0B       		.uleb128 0xb
 2339 0107 01       		.uleb128 0x1
 2340 0108 13       		.uleb128 0x13
 2341 0109 00       		.byte	0
 2342 010a 00       		.byte	0
 2343 010b 16       		.uleb128 0x16
 2344 010c 34       		.uleb128 0x34
 2345 010d 00       		.byte	0
 2346 010e 03       		.uleb128 0x3
 2347 010f 08       		.uleb128 0x8
 2348 0110 3A       		.uleb128 0x3a
 2349 0111 0B       		.uleb128 0xb
 2350 0112 3B       		.uleb128 0x3b
 2351 0113 0B       		.uleb128 0xb
 2352 0114 49       		.uleb128 0x49
 2353 0115 13       		.uleb128 0x13
 2354 0116 00       		.byte	0
 2355 0117 00       		.byte	0
 2356 0118 17       		.uleb128 0x17
 2357 0119 2E       		.uleb128 0x2e
 2358 011a 01       		.byte	0x1
 2359 011b 03       		.uleb128 0x3
 2360 011c 0E       		.uleb128 0xe
 2361 011d 3A       		.uleb128 0x3a
 2362 011e 0B       		.uleb128 0xb
 2363 011f 3B       		.uleb128 0x3b
 2364 0120 0B       		.uleb128 0xb
 2365 0121 27       		.uleb128 0x27
 2366 0122 19       		.uleb128 0x19
 2367 0123 20       		.uleb128 0x20
 2368 0124 0B       		.uleb128 0xb
 2369 0125 01       		.uleb128 0x1
 2370 0126 13       		.uleb128 0x13
 2371 0127 00       		.byte	0
 2372 0128 00       		.byte	0
 2373 0129 18       		.uleb128 0x18
 2374 012a 0B       		.uleb128 0xb
 2375 012b 01       		.byte	0x1
 2376 012c 01       		.uleb128 0x1
 2377 012d 13       		.uleb128 0x13
 2378 012e 00       		.byte	0
 2379 012f 00       		.byte	0
 2380 0130 19       		.uleb128 0x19
 2381 0131 0B       		.uleb128 0xb
 2382 0132 01       		.byte	0x1
 2383 0133 00       		.byte	0
 2384 0134 00       		.byte	0
 2385 0135 1A       		.uleb128 0x1a
 2386 0136 2E       		.uleb128 0x2e
 2387 0137 01       		.byte	0x1
 2388 0138 31       		.uleb128 0x31
 2389 0139 13       		.uleb128 0x13
 2390 013a 11       		.uleb128 0x11
ARM GAS  C:\Users\danit\AppData\Local\Temp\ccoJBZpF.s 			page 43


 2391 013b 01       		.uleb128 0x1
 2392 013c 12       		.uleb128 0x12
 2393 013d 06       		.uleb128 0x6
 2394 013e 40       		.uleb128 0x40
 2395 013f 18       		.uleb128 0x18
 2396 0140 9742     		.uleb128 0x2117
 2397 0142 19       		.uleb128 0x19
 2398 0143 01       		.uleb128 0x1
 2399 0144 13       		.uleb128 0x13
 2400 0145 00       		.byte	0
 2401 0146 00       		.byte	0
 2402 0147 1B       		.uleb128 0x1b
 2403 0148 05       		.uleb128 0x5
 2404 0149 00       		.byte	0
 2405 014a 31       		.uleb128 0x31
 2406 014b 13       		.uleb128 0x13
 2407 014c 02       		.uleb128 0x2
 2408 014d 18       		.uleb128 0x18
 2409 014e 00       		.byte	0
 2410 014f 00       		.byte	0
 2411 0150 1C       		.uleb128 0x1c
 2412 0151 34       		.uleb128 0x34
 2413 0152 00       		.byte	0
 2414 0153 31       		.uleb128 0x31
 2415 0154 13       		.uleb128 0x13
 2416 0155 02       		.uleb128 0x2
 2417 0156 18       		.uleb128 0x18
 2418 0157 00       		.byte	0
 2419 0158 00       		.byte	0
 2420 0159 1D       		.uleb128 0x1d
 2421 015a 0B       		.uleb128 0xb
 2422 015b 01       		.byte	0x1
 2423 015c 11       		.uleb128 0x11
 2424 015d 01       		.uleb128 0x1
 2425 015e 12       		.uleb128 0x12
 2426 015f 06       		.uleb128 0x6
 2427 0160 01       		.uleb128 0x1
 2428 0161 13       		.uleb128 0x13
 2429 0162 00       		.byte	0
 2430 0163 00       		.byte	0
 2431 0164 1E       		.uleb128 0x1e
 2432 0165 1D       		.uleb128 0x1d
 2433 0166 01       		.byte	0x1
 2434 0167 31       		.uleb128 0x31
 2435 0168 13       		.uleb128 0x13
 2436 0169 11       		.uleb128 0x11
 2437 016a 01       		.uleb128 0x1
 2438 016b 12       		.uleb128 0x12
 2439 016c 06       		.uleb128 0x6
 2440 016d 58       		.uleb128 0x58
 2441 016e 0B       		.uleb128 0xb
 2442 016f 59       		.uleb128 0x59
 2443 0170 0B       		.uleb128 0xb
 2444 0171 01       		.uleb128 0x1
 2445 0172 13       		.uleb128 0x13
 2446 0173 00       		.byte	0
 2447 0174 00       		.byte	0
ARM GAS  C:\Users\danit\AppData\Local\Temp\ccoJBZpF.s 			page 44


 2448 0175 1F       		.uleb128 0x1f
 2449 0176 05       		.uleb128 0x5
 2450 0177 00       		.byte	0
 2451 0178 31       		.uleb128 0x31
 2452 0179 13       		.uleb128 0x13
 2453 017a 02       		.uleb128 0x2
 2454 017b 17       		.uleb128 0x17
 2455 017c 00       		.byte	0
 2456 017d 00       		.byte	0
 2457 017e 20       		.uleb128 0x20
 2458 017f 1D       		.uleb128 0x1d
 2459 0180 01       		.byte	0x1
 2460 0181 31       		.uleb128 0x31
 2461 0182 13       		.uleb128 0x13
 2462 0183 52       		.uleb128 0x52
 2463 0184 01       		.uleb128 0x1
 2464 0185 55       		.uleb128 0x55
 2465 0186 17       		.uleb128 0x17
 2466 0187 58       		.uleb128 0x58
 2467 0188 0B       		.uleb128 0xb
 2468 0189 59       		.uleb128 0x59
 2469 018a 0B       		.uleb128 0xb
 2470 018b 01       		.uleb128 0x1
 2471 018c 13       		.uleb128 0x13
 2472 018d 00       		.byte	0
 2473 018e 00       		.byte	0
 2474 018f 21       		.uleb128 0x21
 2475 0190 0B       		.uleb128 0xb
 2476 0191 01       		.byte	0x1
 2477 0192 55       		.uleb128 0x55
 2478 0193 17       		.uleb128 0x17
 2479 0194 00       		.byte	0
 2480 0195 00       		.byte	0
 2481 0196 22       		.uleb128 0x22
 2482 0197 34       		.uleb128 0x34
 2483 0198 00       		.byte	0
 2484 0199 31       		.uleb128 0x31
 2485 019a 13       		.uleb128 0x13
 2486 019b 02       		.uleb128 0x2
 2487 019c 17       		.uleb128 0x17
 2488 019d 00       		.byte	0
 2489 019e 00       		.byte	0
 2490 019f 23       		.uleb128 0x23
 2491 01a0 0B       		.uleb128 0xb
 2492 01a1 01       		.byte	0x1
 2493 01a2 55       		.uleb128 0x55
 2494 01a3 17       		.uleb128 0x17
 2495 01a4 01       		.uleb128 0x1
 2496 01a5 13       		.uleb128 0x13
 2497 01a6 00       		.byte	0
 2498 01a7 00       		.byte	0
 2499 01a8 24       		.uleb128 0x24
 2500 01a9 34       		.uleb128 0x34
 2501 01aa 00       		.byte	0
 2502 01ab 31       		.uleb128 0x31
 2503 01ac 13       		.uleb128 0x13
 2504 01ad 00       		.byte	0
ARM GAS  C:\Users\danit\AppData\Local\Temp\ccoJBZpF.s 			page 45


 2505 01ae 00       		.byte	0
 2506 01af 25       		.uleb128 0x25
 2507 01b0 05       		.uleb128 0x5
 2508 01b1 00       		.byte	0
 2509 01b2 31       		.uleb128 0x31
 2510 01b3 13       		.uleb128 0x13
 2511 01b4 00       		.byte	0
 2512 01b5 00       		.byte	0
 2513 01b6 26       		.uleb128 0x26
 2514 01b7 0B       		.uleb128 0xb
 2515 01b8 01       		.byte	0x1
 2516 01b9 11       		.uleb128 0x11
 2517 01ba 01       		.uleb128 0x1
 2518 01bb 12       		.uleb128 0x12
 2519 01bc 06       		.uleb128 0x6
 2520 01bd 00       		.byte	0
 2521 01be 00       		.byte	0
 2522 01bf 27       		.uleb128 0x27
 2523 01c0 2E       		.uleb128 0x2e
 2524 01c1 00       		.byte	0
 2525 01c2 3F       		.uleb128 0x3f
 2526 01c3 19       		.uleb128 0x19
 2527 01c4 03       		.uleb128 0x3
 2528 01c5 0E       		.uleb128 0xe
 2529 01c6 3A       		.uleb128 0x3a
 2530 01c7 0B       		.uleb128 0xb
 2531 01c8 3B       		.uleb128 0x3b
 2532 01c9 0B       		.uleb128 0xb
 2533 01ca 27       		.uleb128 0x27
 2534 01cb 19       		.uleb128 0x19
 2535 01cc 11       		.uleb128 0x11
 2536 01cd 01       		.uleb128 0x1
 2537 01ce 12       		.uleb128 0x12
 2538 01cf 06       		.uleb128 0x6
 2539 01d0 40       		.uleb128 0x40
 2540 01d1 18       		.uleb128 0x18
 2541 01d2 9742     		.uleb128 0x2117
 2542 01d4 19       		.uleb128 0x19
 2543 01d5 00       		.byte	0
 2544 01d6 00       		.byte	0
 2545 01d7 28       		.uleb128 0x28
 2546 01d8 2E       		.uleb128 0x2e
 2547 01d9 01       		.byte	0x1
 2548 01da 3F       		.uleb128 0x3f
 2549 01db 19       		.uleb128 0x19
 2550 01dc 03       		.uleb128 0x3
 2551 01dd 0E       		.uleb128 0xe
 2552 01de 3A       		.uleb128 0x3a
 2553 01df 0B       		.uleb128 0xb
 2554 01e0 3B       		.uleb128 0x3b
 2555 01e1 0B       		.uleb128 0xb
 2556 01e2 27       		.uleb128 0x27
 2557 01e3 19       		.uleb128 0x19
 2558 01e4 11       		.uleb128 0x11
 2559 01e5 01       		.uleb128 0x1
 2560 01e6 12       		.uleb128 0x12
 2561 01e7 06       		.uleb128 0x6
ARM GAS  C:\Users\danit\AppData\Local\Temp\ccoJBZpF.s 			page 46


 2562 01e8 40       		.uleb128 0x40
 2563 01e9 18       		.uleb128 0x18
 2564 01ea 9742     		.uleb128 0x2117
 2565 01ec 19       		.uleb128 0x19
 2566 01ed 01       		.uleb128 0x1
 2567 01ee 13       		.uleb128 0x13
 2568 01ef 00       		.byte	0
 2569 01f0 00       		.byte	0
 2570 01f1 29       		.uleb128 0x29
 2571 01f2 05       		.uleb128 0x5
 2572 01f3 00       		.byte	0
 2573 01f4 03       		.uleb128 0x3
 2574 01f5 0E       		.uleb128 0xe
 2575 01f6 3A       		.uleb128 0x3a
 2576 01f7 0B       		.uleb128 0xb
 2577 01f8 3B       		.uleb128 0x3b
 2578 01f9 0B       		.uleb128 0xb
 2579 01fa 49       		.uleb128 0x49
 2580 01fb 13       		.uleb128 0x13
 2581 01fc 02       		.uleb128 0x2
 2582 01fd 17       		.uleb128 0x17
 2583 01fe 00       		.byte	0
 2584 01ff 00       		.byte	0
 2585 0200 2A       		.uleb128 0x2a
 2586 0201 34       		.uleb128 0x34
 2587 0202 00       		.byte	0
 2588 0203 03       		.uleb128 0x3
 2589 0204 08       		.uleb128 0x8
 2590 0205 3A       		.uleb128 0x3a
 2591 0206 0B       		.uleb128 0xb
 2592 0207 3B       		.uleb128 0x3b
 2593 0208 0B       		.uleb128 0xb
 2594 0209 49       		.uleb128 0x49
 2595 020a 13       		.uleb128 0x13
 2596 020b 02       		.uleb128 0x2
 2597 020c 17       		.uleb128 0x17
 2598 020d 00       		.byte	0
 2599 020e 00       		.byte	0
 2600 020f 2B       		.uleb128 0x2b
 2601 0210 898201   		.uleb128 0x4109
 2602 0213 00       		.byte	0
 2603 0214 11       		.uleb128 0x11
 2604 0215 01       		.uleb128 0x1
 2605 0216 9542     		.uleb128 0x2115
 2606 0218 19       		.uleb128 0x19
 2607 0219 31       		.uleb128 0x31
 2608 021a 13       		.uleb128 0x13
 2609 021b 00       		.byte	0
 2610 021c 00       		.byte	0
 2611 021d 2C       		.uleb128 0x2c
 2612 021e 2E       		.uleb128 0x2e
 2613 021f 01       		.byte	0x1
 2614 0220 3F       		.uleb128 0x3f
 2615 0221 19       		.uleb128 0x19
 2616 0222 03       		.uleb128 0x3
 2617 0223 0E       		.uleb128 0xe
 2618 0224 3A       		.uleb128 0x3a
ARM GAS  C:\Users\danit\AppData\Local\Temp\ccoJBZpF.s 			page 47


 2619 0225 0B       		.uleb128 0xb
 2620 0226 3B       		.uleb128 0x3b
 2621 0227 0B       		.uleb128 0xb
 2622 0228 27       		.uleb128 0x27
 2623 0229 19       		.uleb128 0x19
 2624 022a 49       		.uleb128 0x49
 2625 022b 13       		.uleb128 0x13
 2626 022c 11       		.uleb128 0x11
 2627 022d 01       		.uleb128 0x1
 2628 022e 12       		.uleb128 0x12
 2629 022f 06       		.uleb128 0x6
 2630 0230 40       		.uleb128 0x40
 2631 0231 18       		.uleb128 0x18
 2632 0232 9742     		.uleb128 0x2117
 2633 0234 19       		.uleb128 0x19
 2634 0235 01       		.uleb128 0x1
 2635 0236 13       		.uleb128 0x13
 2636 0237 00       		.byte	0
 2637 0238 00       		.byte	0
 2638 0239 2D       		.uleb128 0x2d
 2639 023a 34       		.uleb128 0x34
 2640 023b 00       		.byte	0
 2641 023c 03       		.uleb128 0x3
 2642 023d 08       		.uleb128 0x8
 2643 023e 3A       		.uleb128 0x3a
 2644 023f 0B       		.uleb128 0xb
 2645 0240 3B       		.uleb128 0x3b
 2646 0241 0B       		.uleb128 0xb
 2647 0242 49       		.uleb128 0x49
 2648 0243 13       		.uleb128 0x13
 2649 0244 02       		.uleb128 0x2
 2650 0245 18       		.uleb128 0x18
 2651 0246 00       		.byte	0
 2652 0247 00       		.byte	0
 2653 0248 2E       		.uleb128 0x2e
 2654 0249 898201   		.uleb128 0x4109
 2655 024c 01       		.byte	0x1
 2656 024d 11       		.uleb128 0x11
 2657 024e 01       		.uleb128 0x1
 2658 024f 31       		.uleb128 0x31
 2659 0250 13       		.uleb128 0x13
 2660 0251 01       		.uleb128 0x1
 2661 0252 13       		.uleb128 0x13
 2662 0253 00       		.byte	0
 2663 0254 00       		.byte	0
 2664 0255 2F       		.uleb128 0x2f
 2665 0256 8A8201   		.uleb128 0x410a
 2666 0259 00       		.byte	0
 2667 025a 02       		.uleb128 0x2
 2668 025b 18       		.uleb128 0x18
 2669 025c 9142     		.uleb128 0x2111
 2670 025e 18       		.uleb128 0x18
 2671 025f 00       		.byte	0
 2672 0260 00       		.byte	0
 2673 0261 30       		.uleb128 0x30
 2674 0262 898201   		.uleb128 0x4109
 2675 0265 01       		.byte	0x1
ARM GAS  C:\Users\danit\AppData\Local\Temp\ccoJBZpF.s 			page 48


 2676 0266 11       		.uleb128 0x11
 2677 0267 01       		.uleb128 0x1
 2678 0268 31       		.uleb128 0x31
 2679 0269 13       		.uleb128 0x13
 2680 026a 00       		.byte	0
 2681 026b 00       		.byte	0
 2682 026c 31       		.uleb128 0x31
 2683 026d 898201   		.uleb128 0x4109
 2684 0270 00       		.byte	0
 2685 0271 11       		.uleb128 0x11
 2686 0272 01       		.uleb128 0x1
 2687 0273 31       		.uleb128 0x31
 2688 0274 13       		.uleb128 0x13
 2689 0275 00       		.byte	0
 2690 0276 00       		.byte	0
 2691 0277 32       		.uleb128 0x32
 2692 0278 05       		.uleb128 0x5
 2693 0279 00       		.byte	0
 2694 027a 03       		.uleb128 0x3
 2695 027b 08       		.uleb128 0x8
 2696 027c 3A       		.uleb128 0x3a
 2697 027d 0B       		.uleb128 0xb
 2698 027e 3B       		.uleb128 0x3b
 2699 027f 0B       		.uleb128 0xb
 2700 0280 49       		.uleb128 0x49
 2701 0281 13       		.uleb128 0x13
 2702 0282 02       		.uleb128 0x2
 2703 0283 17       		.uleb128 0x17
 2704 0284 00       		.byte	0
 2705 0285 00       		.byte	0
 2706 0286 33       		.uleb128 0x33
 2707 0287 898201   		.uleb128 0x4109
 2708 028a 01       		.byte	0x1
 2709 028b 11       		.uleb128 0x11
 2710 028c 01       		.uleb128 0x1
 2711 028d 9542     		.uleb128 0x2115
 2712 028f 19       		.uleb128 0x19
 2713 0290 31       		.uleb128 0x31
 2714 0291 13       		.uleb128 0x13
 2715 0292 00       		.byte	0
 2716 0293 00       		.byte	0
 2717 0294 34       		.uleb128 0x34
 2718 0295 2E       		.uleb128 0x2e
 2719 0296 01       		.byte	0x1
 2720 0297 3F       		.uleb128 0x3f
 2721 0298 19       		.uleb128 0x19
 2722 0299 03       		.uleb128 0x3
 2723 029a 0E       		.uleb128 0xe
 2724 029b 3A       		.uleb128 0x3a
 2725 029c 0B       		.uleb128 0xb
 2726 029d 3B       		.uleb128 0x3b
 2727 029e 05       		.uleb128 0x5
 2728 029f 27       		.uleb128 0x27
 2729 02a0 19       		.uleb128 0x19
 2730 02a1 11       		.uleb128 0x11
 2731 02a2 01       		.uleb128 0x1
 2732 02a3 12       		.uleb128 0x12
ARM GAS  C:\Users\danit\AppData\Local\Temp\ccoJBZpF.s 			page 49


 2733 02a4 06       		.uleb128 0x6
 2734 02a5 40       		.uleb128 0x40
 2735 02a6 18       		.uleb128 0x18
 2736 02a7 9742     		.uleb128 0x2117
 2737 02a9 19       		.uleb128 0x19
 2738 02aa 01       		.uleb128 0x1
 2739 02ab 13       		.uleb128 0x13
 2740 02ac 00       		.byte	0
 2741 02ad 00       		.byte	0
 2742 02ae 35       		.uleb128 0x35
 2743 02af 34       		.uleb128 0x34
 2744 02b0 00       		.byte	0
 2745 02b1 03       		.uleb128 0x3
 2746 02b2 08       		.uleb128 0x8
 2747 02b3 3A       		.uleb128 0x3a
 2748 02b4 0B       		.uleb128 0xb
 2749 02b5 3B       		.uleb128 0x3b
 2750 02b6 05       		.uleb128 0x5
 2751 02b7 49       		.uleb128 0x49
 2752 02b8 13       		.uleb128 0x13
 2753 02b9 02       		.uleb128 0x2
 2754 02ba 17       		.uleb128 0x17
 2755 02bb 00       		.byte	0
 2756 02bc 00       		.byte	0
 2757 02bd 36       		.uleb128 0x36
 2758 02be 1D       		.uleb128 0x1d
 2759 02bf 01       		.byte	0x1
 2760 02c0 31       		.uleb128 0x31
 2761 02c1 13       		.uleb128 0x13
 2762 02c2 52       		.uleb128 0x52
 2763 02c3 01       		.uleb128 0x1
 2764 02c4 55       		.uleb128 0x55
 2765 02c5 17       		.uleb128 0x17
 2766 02c6 58       		.uleb128 0x58
 2767 02c7 0B       		.uleb128 0xb
 2768 02c8 59       		.uleb128 0x59
 2769 02c9 05       		.uleb128 0x5
 2770 02ca 01       		.uleb128 0x1
 2771 02cb 13       		.uleb128 0x13
 2772 02cc 00       		.byte	0
 2773 02cd 00       		.byte	0
 2774 02ce 37       		.uleb128 0x37
 2775 02cf 34       		.uleb128 0x34
 2776 02d0 00       		.byte	0
 2777 02d1 03       		.uleb128 0x3
 2778 02d2 0E       		.uleb128 0xe
 2779 02d3 3A       		.uleb128 0x3a
 2780 02d4 0B       		.uleb128 0xb
 2781 02d5 3B       		.uleb128 0x3b
 2782 02d6 0B       		.uleb128 0xb
 2783 02d7 49       		.uleb128 0x49
 2784 02d8 13       		.uleb128 0x13
 2785 02d9 3F       		.uleb128 0x3f
 2786 02da 19       		.uleb128 0x19
 2787 02db 02       		.uleb128 0x2
 2788 02dc 18       		.uleb128 0x18
 2789 02dd 00       		.byte	0
ARM GAS  C:\Users\danit\AppData\Local\Temp\ccoJBZpF.s 			page 50


 2790 02de 00       		.byte	0
 2791 02df 38       		.uleb128 0x38
 2792 02e0 2E       		.uleb128 0x2e
 2793 02e1 01       		.byte	0x1
 2794 02e2 3F       		.uleb128 0x3f
 2795 02e3 19       		.uleb128 0x19
 2796 02e4 03       		.uleb128 0x3
 2797 02e5 0E       		.uleb128 0xe
 2798 02e6 3A       		.uleb128 0x3a
 2799 02e7 0B       		.uleb128 0xb
 2800 02e8 3B       		.uleb128 0x3b
 2801 02e9 05       		.uleb128 0x5
 2802 02ea 27       		.uleb128 0x27
 2803 02eb 19       		.uleb128 0x19
 2804 02ec 3C       		.uleb128 0x3c
 2805 02ed 19       		.uleb128 0x19
 2806 02ee 01       		.uleb128 0x1
 2807 02ef 13       		.uleb128 0x13
 2808 02f0 00       		.byte	0
 2809 02f1 00       		.byte	0
 2810 02f2 39       		.uleb128 0x39
 2811 02f3 2E       		.uleb128 0x2e
 2812 02f4 01       		.byte	0x1
 2813 02f5 3F       		.uleb128 0x3f
 2814 02f6 19       		.uleb128 0x19
 2815 02f7 03       		.uleb128 0x3
 2816 02f8 0E       		.uleb128 0xe
 2817 02f9 3A       		.uleb128 0x3a
 2818 02fa 0B       		.uleb128 0xb
 2819 02fb 3B       		.uleb128 0x3b
 2820 02fc 0B       		.uleb128 0xb
 2821 02fd 27       		.uleb128 0x27
 2822 02fe 19       		.uleb128 0x19
 2823 02ff 3C       		.uleb128 0x3c
 2824 0300 19       		.uleb128 0x19
 2825 0301 01       		.uleb128 0x1
 2826 0302 13       		.uleb128 0x13
 2827 0303 00       		.byte	0
 2828 0304 00       		.byte	0
 2829 0305 3A       		.uleb128 0x3a
 2830 0306 2E       		.uleb128 0x2e
 2831 0307 01       		.byte	0x1
 2832 0308 3F       		.uleb128 0x3f
 2833 0309 19       		.uleb128 0x19
 2834 030a 03       		.uleb128 0x3
 2835 030b 0E       		.uleb128 0xe
 2836 030c 3A       		.uleb128 0x3a
 2837 030d 0B       		.uleb128 0xb
 2838 030e 3B       		.uleb128 0x3b
 2839 030f 0B       		.uleb128 0xb
 2840 0310 27       		.uleb128 0x27
 2841 0311 19       		.uleb128 0x19
 2842 0312 3C       		.uleb128 0x3c
 2843 0313 19       		.uleb128 0x19
 2844 0314 00       		.byte	0
 2845 0315 00       		.byte	0
 2846 0316 00       		.byte	0
ARM GAS  C:\Users\danit\AppData\Local\Temp\ccoJBZpF.s 			page 51


 2847              		.section	.debug_loc,"",%progbits
 2848              	.Ldebug_loc0:
 2849              	.LLST0:
 2850 0000 28000000 		.4byte	.LVL1
 2851 0004 32000000 		.4byte	.LVL2
 2852 0008 0100     		.2byte	0x1
 2853 000a 50       		.byte	0x50
 2854 000b 00000000 		.4byte	0
 2855 000f 00000000 		.4byte	0
 2856              	.LLST1:
 2857 0013 3E000000 		.4byte	.LVL3
 2858 0017 5E000000 		.4byte	.LVL6
 2859 001b 0100     		.2byte	0x1
 2860 001d 50       		.byte	0x50
 2861 001e 00000000 		.4byte	0
 2862 0022 00000000 		.4byte	0
 2863              	.LLST2:
 2864 0026 40000000 		.4byte	.LVL4
 2865 002a 5E000000 		.4byte	.LVL6
 2866 002e 0600     		.2byte	0x6
 2867 0030 03       		.byte	0x3
 2868 0031 00000000 		.4byte	rlist
 2869 0035 9F       		.byte	0x9f
 2870 0036 00000000 		.4byte	0
 2871 003a 00000000 		.4byte	0
 2872              	.LLST3:
 2873 003e 40000000 		.4byte	.LVL4
 2874 0042 5E000000 		.4byte	.LVL6
 2875 0046 0100     		.2byte	0x1
 2876 0048 50       		.byte	0x50
 2877 0049 00000000 		.4byte	0
 2878 004d 00000000 		.4byte	0
 2879              	.LLST4:
 2880 0051 40000000 		.4byte	.LVL4
 2881 0055 5E000000 		.4byte	.LVL6
 2882 0059 0100     		.2byte	0x1
 2883 005b 52       		.byte	0x52
 2884 005c 00000000 		.4byte	0
 2885 0060 00000000 		.4byte	0
 2886              	.LLST5:
 2887 0064 00000000 		.4byte	.LVL7
 2888 0068 1C000000 		.4byte	.LVL10
 2889 006c 0100     		.2byte	0x1
 2890 006e 50       		.byte	0x50
 2891 006f 1C000000 		.4byte	.LVL10
 2892 0073 24000000 		.4byte	.LVL11
 2893 0077 0100     		.2byte	0x1
 2894 0079 54       		.byte	0x54
 2895 007a 24000000 		.4byte	.LVL11
 2896 007e 2C000000 		.4byte	.LFE8
 2897 0082 0100     		.2byte	0x1
 2898 0084 50       		.byte	0x50
 2899 0085 00000000 		.4byte	0
 2900 0089 00000000 		.4byte	0
 2901              	.LLST6:
 2902 008d 00000000 		.4byte	.LVL12
 2903 0091 10000000 		.4byte	.LVL14
ARM GAS  C:\Users\danit\AppData\Local\Temp\ccoJBZpF.s 			page 52


 2904 0095 0100     		.2byte	0x1
 2905 0097 50       		.byte	0x50
 2906 0098 10000000 		.4byte	.LVL14
 2907 009c 16000000 		.4byte	.LVL16
 2908 00a0 0200     		.2byte	0x2
 2909 00a2 71       		.byte	0x71
 2910 00a3 1C       		.sleb128 28
 2911 00a4 16000000 		.4byte	.LVL16
 2912 00a8 28000000 		.4byte	.LFE9
 2913 00ac 0400     		.2byte	0x4
 2914 00ae F3       		.byte	0xf3
 2915 00af 01       		.uleb128 0x1
 2916 00b0 50       		.byte	0x50
 2917 00b1 9F       		.byte	0x9f
 2918 00b2 00000000 		.4byte	0
 2919 00b6 00000000 		.4byte	0
 2920              	.LLST7:
 2921 00ba 08000000 		.4byte	.LVL13
 2922 00be 21000000 		.4byte	.LVL17-1
 2923 00c2 0100     		.2byte	0x1
 2924 00c4 51       		.byte	0x51
 2925 00c5 00000000 		.4byte	0
 2926 00c9 00000000 		.4byte	0
 2927              	.LLST8:
 2928 00cd 12000000 		.4byte	.LVL15
 2929 00d1 21000000 		.4byte	.LVL17-1
 2930 00d5 0100     		.2byte	0x1
 2931 00d7 52       		.byte	0x52
 2932 00d8 00000000 		.4byte	0
 2933 00dc 00000000 		.4byte	0
 2934              	.LLST9:
 2935 00e0 00000000 		.4byte	.LVL18
 2936 00e4 12000000 		.4byte	.LVL19
 2937 00e8 0100     		.2byte	0x1
 2938 00ea 50       		.byte	0x50
 2939 00eb 12000000 		.4byte	.LVL19
 2940 00ef 2E000000 		.4byte	.LVL23
 2941 00f3 0400     		.2byte	0x4
 2942 00f5 F3       		.byte	0xf3
 2943 00f6 01       		.uleb128 0x1
 2944 00f7 50       		.byte	0x50
 2945 00f8 9F       		.byte	0x9f
 2946 00f9 2E000000 		.4byte	.LVL23
 2947 00fd 33000000 		.4byte	.LVL24-1
 2948 0101 0100     		.2byte	0x1
 2949 0103 50       		.byte	0x50
 2950 0104 33000000 		.4byte	.LVL24-1
 2951 0108 44000000 		.4byte	.LFE11
 2952 010c 0400     		.2byte	0x4
 2953 010e F3       		.byte	0xf3
 2954 010f 01       		.uleb128 0x1
 2955 0110 50       		.byte	0x50
 2956 0111 9F       		.byte	0x9f
 2957 0112 00000000 		.4byte	0
 2958 0116 00000000 		.4byte	0
 2959              	.LLST10:
 2960 011a 00000000 		.4byte	.LVL18
ARM GAS  C:\Users\danit\AppData\Local\Temp\ccoJBZpF.s 			page 53


 2961 011e 15000000 		.4byte	.LVL20-1
 2962 0122 0100     		.2byte	0x1
 2963 0124 51       		.byte	0x51
 2964 0125 15000000 		.4byte	.LVL20-1
 2965 0129 2E000000 		.4byte	.LVL23
 2966 012d 0400     		.2byte	0x4
 2967 012f F3       		.byte	0xf3
 2968 0130 01       		.uleb128 0x1
 2969 0131 51       		.byte	0x51
 2970 0132 9F       		.byte	0x9f
 2971 0133 2E000000 		.4byte	.LVL23
 2972 0137 33000000 		.4byte	.LVL24-1
 2973 013b 0100     		.2byte	0x1
 2974 013d 51       		.byte	0x51
 2975 013e 33000000 		.4byte	.LVL24-1
 2976 0142 44000000 		.4byte	.LFE11
 2977 0146 0400     		.2byte	0x4
 2978 0148 F3       		.byte	0xf3
 2979 0149 01       		.uleb128 0x1
 2980 014a 51       		.byte	0x51
 2981 014b 9F       		.byte	0x9f
 2982 014c 00000000 		.4byte	0
 2983 0150 00000000 		.4byte	0
 2984              	.LLST11:
 2985 0154 00000000 		.4byte	.LVL25
 2986 0158 0C000000 		.4byte	.LVL26
 2987 015c 0100     		.2byte	0x1
 2988 015e 50       		.byte	0x50
 2989 015f 0C000000 		.4byte	.LVL26
 2990 0163 2C000000 		.4byte	.LVL30
 2991 0167 0100     		.2byte	0x1
 2992 0169 55       		.byte	0x55
 2993 016a 2C000000 		.4byte	.LVL30
 2994 016e 2E000000 		.4byte	.LVL31
 2995 0172 0200     		.2byte	0x2
 2996 0174 73       		.byte	0x73
 2997 0175 04       		.sleb128 4
 2998 0176 2E000000 		.4byte	.LVL31
 2999 017a 50000000 		.4byte	.LVL35
 3000 017e 0100     		.2byte	0x1
 3001 0180 55       		.byte	0x55
 3002 0181 50000000 		.4byte	.LVL35
 3003 0185 53000000 		.4byte	.LVL36-1
 3004 0189 0100     		.2byte	0x1
 3005 018b 50       		.byte	0x50
 3006 018c 53000000 		.4byte	.LVL36-1
 3007 0190 58000000 		.4byte	.LFE12
 3008 0194 0400     		.2byte	0x4
 3009 0196 F3       		.byte	0xf3
 3010 0197 01       		.uleb128 0x1
 3011 0198 50       		.byte	0x50
 3012 0199 9F       		.byte	0x9f
 3013 019a 00000000 		.4byte	0
 3014 019e 00000000 		.4byte	0
 3015              	.LLST12:
 3016 01a2 00000000 		.4byte	.LVL25
 3017 01a6 32000000 		.4byte	.LVL33
ARM GAS  C:\Users\danit\AppData\Local\Temp\ccoJBZpF.s 			page 54


 3018 01aa 0100     		.2byte	0x1
 3019 01ac 51       		.byte	0x51
 3020 01ad 32000000 		.4byte	.LVL33
 3021 01b1 50000000 		.4byte	.LVL35
 3022 01b5 0200     		.2byte	0x2
 3023 01b7 75       		.byte	0x75
 3024 01b8 24       		.sleb128 36
 3025 01b9 50000000 		.4byte	.LVL35
 3026 01bd 53000000 		.4byte	.LVL36-1
 3027 01c1 0200     		.2byte	0x2
 3028 01c3 70       		.byte	0x70
 3029 01c4 24       		.sleb128 36
 3030 01c5 53000000 		.4byte	.LVL36-1
 3031 01c9 58000000 		.4byte	.LFE12
 3032 01cd 0400     		.2byte	0x4
 3033 01cf F3       		.byte	0xf3
 3034 01d0 01       		.uleb128 0x1
 3035 01d1 51       		.byte	0x51
 3036 01d2 9F       		.byte	0x9f
 3037 01d3 00000000 		.4byte	0
 3038 01d7 00000000 		.4byte	0
 3039              	.LLST13:
 3040 01db 16000000 		.4byte	.LVL27
 3041 01df 2C000000 		.4byte	.LVL30
 3042 01e3 0100     		.2byte	0x1
 3043 01e5 55       		.byte	0x55
 3044 01e6 2C000000 		.4byte	.LVL30
 3045 01ea 2E000000 		.4byte	.LVL31
 3046 01ee 0200     		.2byte	0x2
 3047 01f0 73       		.byte	0x73
 3048 01f1 04       		.sleb128 4
 3049 01f2 00000000 		.4byte	0
 3050 01f6 00000000 		.4byte	0
 3051              	.LLST14:
 3052 01fa 18000000 		.4byte	.LVL28
 3053 01fe 2E000000 		.4byte	.LVL31
 3054 0202 0100     		.2byte	0x1
 3055 0204 53       		.byte	0x53
 3056 0205 00000000 		.4byte	0
 3057 0209 00000000 		.4byte	0
 3058              	.LLST15:
 3059 020d 2E000000 		.4byte	.LVL31
 3060 0211 50000000 		.4byte	.LVL35
 3061 0215 0100     		.2byte	0x1
 3062 0217 56       		.byte	0x56
 3063 0218 50000000 		.4byte	.LVL35
 3064 021c 53000000 		.4byte	.LVL36-1
 3065 0220 0100     		.2byte	0x1
 3066 0222 51       		.byte	0x51
 3067 0223 00000000 		.4byte	0
 3068 0227 00000000 		.4byte	0
 3069              	.LLST16:
 3070 022b 30000000 		.4byte	.LVL32
 3071 022f 32000000 		.4byte	.LVL33
 3072 0233 0600     		.2byte	0x6
 3073 0235 03       		.byte	0x3
 3074 0236 00000000 		.4byte	rlist
ARM GAS  C:\Users\danit\AppData\Local\Temp\ccoJBZpF.s 			page 55


 3075 023a 9F       		.byte	0x9f
 3076 023b 32000000 		.4byte	.LVL33
 3077 023f 53000000 		.4byte	.LVL36-1
 3078 0243 0100     		.2byte	0x1
 3079 0245 52       		.byte	0x52
 3080 0246 00000000 		.4byte	0
 3081 024a 00000000 		.4byte	0
 3082              	.LLST17:
 3083 024e 0A000000 		.4byte	.LVL37
 3084 0252 38000000 		.4byte	.LVL42
 3085 0256 0100     		.2byte	0x1
 3086 0258 54       		.byte	0x54
 3087 0259 38000000 		.4byte	.LVL42
 3088 025d 3B000000 		.4byte	.LVL43-1
 3089 0261 0100     		.2byte	0x1
 3090 0263 51       		.byte	0x51
 3091 0264 00000000 		.4byte	0
 3092 0268 00000000 		.4byte	0
 3093              	.LLST18:
 3094 026c 0A000000 		.4byte	.LVL37
 3095 0270 3B000000 		.4byte	.LVL43-1
 3096 0274 0100     		.2byte	0x1
 3097 0276 50       		.byte	0x50
 3098 0277 00000000 		.4byte	0
 3099 027b 00000000 		.4byte	0
 3100              	.LLST19:
 3101 027f 1E000000 		.4byte	.LVL38
 3102 0283 38000000 		.4byte	.LVL42
 3103 0287 0100     		.2byte	0x1
 3104 0289 54       		.byte	0x54
 3105 028a 38000000 		.4byte	.LVL42
 3106 028e 3B000000 		.4byte	.LVL43-1
 3107 0292 0100     		.2byte	0x1
 3108 0294 51       		.byte	0x51
 3109 0295 00000000 		.4byte	0
 3110 0299 00000000 		.4byte	0
 3111              	.LLST20:
 3112 029d 20000000 		.4byte	.LVL39
 3113 02a1 22000000 		.4byte	.LVL40
 3114 02a5 0600     		.2byte	0x6
 3115 02a7 03       		.byte	0x3
 3116 02a8 00000000 		.4byte	rlist
 3117 02ac 9F       		.byte	0x9f
 3118 02ad 22000000 		.4byte	.LVL40
 3119 02b1 3B000000 		.4byte	.LVL43-1
 3120 02b5 0100     		.2byte	0x1
 3121 02b7 53       		.byte	0x53
 3122 02b8 00000000 		.4byte	0
 3123 02bc 00000000 		.4byte	0
 3124              	.LLST21:
 3125 02c0 0A000000 		.4byte	.LVL44
 3126 02c4 34000000 		.4byte	.LVL48
 3127 02c8 0100     		.2byte	0x1
 3128 02ca 54       		.byte	0x54
 3129 02cb 34000000 		.4byte	.LVL48
 3130 02cf 37000000 		.4byte	.LVL49-1
 3131 02d3 0100     		.2byte	0x1
ARM GAS  C:\Users\danit\AppData\Local\Temp\ccoJBZpF.s 			page 56


 3132 02d5 51       		.byte	0x51
 3133 02d6 00000000 		.4byte	0
 3134 02da 00000000 		.4byte	0
 3135              	.LLST22:
 3136 02de 1C000000 		.4byte	.LVL45
 3137 02e2 1E000000 		.4byte	.LVL46
 3138 02e6 0600     		.2byte	0x6
 3139 02e8 03       		.byte	0x3
 3140 02e9 00000000 		.4byte	rlist
 3141 02ed 9F       		.byte	0x9f
 3142 02ee 1E000000 		.4byte	.LVL46
 3143 02f2 37000000 		.4byte	.LVL49-1
 3144 02f6 0100     		.2byte	0x1
 3145 02f8 53       		.byte	0x53
 3146 02f9 00000000 		.4byte	0
 3147 02fd 00000000 		.4byte	0
 3148              	.LLST23:
 3149 0301 0A000000 		.4byte	.LVL44
 3150 0305 37000000 		.4byte	.LVL49-1
 3151 0309 0100     		.2byte	0x1
 3152 030b 50       		.byte	0x50
 3153 030c 00000000 		.4byte	0
 3154 0310 00000000 		.4byte	0
 3155              		.section	.debug_aranges,"",%progbits
 3156 0000 64000000 		.4byte	0x64
 3157 0004 0200     		.2byte	0x2
 3158 0006 00000000 		.4byte	.Ldebug_info0
 3159 000a 04       		.byte	0x4
 3160 000b 00       		.byte	0
 3161 000c 0000     		.2byte	0
 3162 000e 0000     		.2byte	0
 3163 0010 00000000 		.4byte	.LFB10
 3164 0014 70000000 		.4byte	.LFE10-.LFB10
 3165 0018 00000000 		.4byte	.LFB7
 3166 001c 14000000 		.4byte	.LFE7-.LFB7
 3167 0020 00000000 		.4byte	.LFB8
 3168 0024 2C000000 		.4byte	.LFE8-.LFB8
 3169 0028 00000000 		.4byte	.LFB9
 3170 002c 28000000 		.4byte	.LFE9-.LFB9
 3171 0030 00000000 		.4byte	.LFB11
 3172 0034 44000000 		.4byte	.LFE11-.LFB11
 3173 0038 00000000 		.4byte	.LFB12
 3174 003c 58000000 		.4byte	.LFE12-.LFB12
 3175 0040 00000000 		.4byte	.LFB14
 3176 0044 40000000 		.4byte	.LFE14-.LFB14
 3177 0048 00000000 		.4byte	.LFB15
 3178 004c 3C000000 		.4byte	.LFE15-.LFB15
 3179 0050 00000000 		.4byte	.LFB13
 3180 0054 18000000 		.4byte	.LFE13-.LFB13
 3181 0058 00000000 		.4byte	.LFB16
 3182 005c 14000000 		.4byte	.LFE16-.LFB16
 3183 0060 00000000 		.4byte	0
 3184 0064 00000000 		.4byte	0
 3185              		.section	.debug_ranges,"",%progbits
 3186              	.Ldebug_ranges0:
 3187 0000 36000000 		.4byte	.LBB47
 3188 0004 3A000000 		.4byte	.LBE47
ARM GAS  C:\Users\danit\AppData\Local\Temp\ccoJBZpF.s 			page 57


 3189 0008 3E000000 		.4byte	.LBB61
 3190 000c 40000000 		.4byte	.LBE61
 3191 0010 00000000 		.4byte	0
 3192 0014 00000000 		.4byte	0
 3193 0018 3A000000 		.4byte	.LBB50
 3194 001c 3C000000 		.4byte	.LBE50
 3195 0020 40000000 		.4byte	.LBB62
 3196 0024 58000000 		.4byte	.LBE62
 3197 0028 00000000 		.4byte	0
 3198 002c 00000000 		.4byte	0
 3199 0030 3A000000 		.4byte	.LBB52
 3200 0034 3C000000 		.4byte	.LBE52
 3201 0038 40000000 		.4byte	.LBB56
 3202 003c 4E000000 		.4byte	.LBE56
 3203 0040 50000000 		.4byte	.LBB58
 3204 0044 54000000 		.4byte	.LBE58
 3205 0048 00000000 		.4byte	0
 3206 004c 00000000 		.4byte	0
 3207 0050 4E000000 		.4byte	.LBB57
 3208 0054 50000000 		.4byte	.LBE57
 3209 0058 54000000 		.4byte	.LBB59
 3210 005c 58000000 		.4byte	.LBE59
 3211 0060 00000000 		.4byte	0
 3212 0064 00000000 		.4byte	0
 3213 0068 04000000 		.4byte	.LBB64
 3214 006c 06000000 		.4byte	.LBE64
 3215 0070 08000000 		.4byte	.LBB69
 3216 0074 0A000000 		.4byte	.LBE69
 3217 0078 12000000 		.4byte	.LBB70
 3218 007c 14000000 		.4byte	.LBE70
 3219 0080 16000000 		.4byte	.LBB71
 3220 0084 18000000 		.4byte	.LBE71
 3221 0088 00000000 		.4byte	0
 3222 008c 00000000 		.4byte	0
 3223 0090 10000000 		.4byte	.LBB73
 3224 0094 14000000 		.4byte	.LBE73
 3225 0098 16000000 		.4byte	.LBB76
 3226 009c 2A000000 		.4byte	.LBE76
 3227 00a0 00000000 		.4byte	0
 3228 00a4 00000000 		.4byte	0
 3229 00a8 2E000000 		.4byte	.LBB77
 3230 00ac 4E000000 		.4byte	.LBE77
 3231 00b0 50000000 		.4byte	.LBB82
 3232 00b4 58000000 		.4byte	.LBE82
 3233 00b8 00000000 		.4byte	0
 3234 00bc 00000000 		.4byte	0
 3235 00c0 2E000000 		.4byte	.LBB78
 3236 00c4 3E000000 		.4byte	.LBE78
 3237 00c8 40000000 		.4byte	.LBB81
 3238 00cc 46000000 		.4byte	.LBE81
 3239 00d0 00000000 		.4byte	0
 3240 00d4 00000000 		.4byte	0
 3241 00d8 02000000 		.4byte	.LBB83
 3242 00dc 04000000 		.4byte	.LBE83
 3243 00e0 06000000 		.4byte	.LBB88
 3244 00e4 08000000 		.4byte	.LBE88
 3245 00e8 0A000000 		.4byte	.LBB89
ARM GAS  C:\Users\danit\AppData\Local\Temp\ccoJBZpF.s 			page 58


 3246 00ec 0C000000 		.4byte	.LBE89
 3247 00f0 14000000 		.4byte	.LBB95
 3248 00f4 16000000 		.4byte	.LBE95
 3249 00f8 00000000 		.4byte	0
 3250 00fc 00000000 		.4byte	0
 3251 0100 10000000 		.4byte	.LBB90
 3252 0104 14000000 		.4byte	.LBE90
 3253 0108 18000000 		.4byte	.LBB96
 3254 010c 1A000000 		.4byte	.LBE96
 3255 0110 1E000000 		.4byte	.LBB97
 3256 0114 30000000 		.4byte	.LBE97
 3257 0118 32000000 		.4byte	.LBB98
 3258 011c 36000000 		.4byte	.LBE98
 3259 0120 00000000 		.4byte	0
 3260 0124 00000000 		.4byte	0
 3261 0128 02000000 		.4byte	.LBB99
 3262 012c 04000000 		.4byte	.LBE99
 3263 0130 06000000 		.4byte	.LBB104
 3264 0134 08000000 		.4byte	.LBE104
 3265 0138 0A000000 		.4byte	.LBB105
 3266 013c 0C000000 		.4byte	.LBE105
 3267 0140 12000000 		.4byte	.LBB106
 3268 0144 14000000 		.4byte	.LBE106
 3269 0148 00000000 		.4byte	0
 3270 014c 00000000 		.4byte	0
 3271 0150 00000000 		.4byte	.LFB10
 3272 0154 70000000 		.4byte	.LFE10
 3273 0158 00000000 		.4byte	.LFB7
 3274 015c 14000000 		.4byte	.LFE7
 3275 0160 00000000 		.4byte	.LFB8
 3276 0164 2C000000 		.4byte	.LFE8
 3277 0168 00000000 		.4byte	.LFB9
 3278 016c 28000000 		.4byte	.LFE9
 3279 0170 00000000 		.4byte	.LFB11
 3280 0174 44000000 		.4byte	.LFE11
 3281 0178 00000000 		.4byte	.LFB12
 3282 017c 58000000 		.4byte	.LFE12
 3283 0180 00000000 		.4byte	.LFB14
 3284 0184 40000000 		.4byte	.LFE14
 3285 0188 00000000 		.4byte	.LFB15
 3286 018c 3C000000 		.4byte	.LFE15
 3287 0190 00000000 		.4byte	.LFB13
 3288 0194 18000000 		.4byte	.LFE13
 3289 0198 00000000 		.4byte	.LFB16
 3290 019c 14000000 		.4byte	.LFE16
 3291 01a0 00000000 		.4byte	0
 3292 01a4 00000000 		.4byte	0
 3293              		.section	.debug_line,"",%progbits
 3294              	.Ldebug_line0:
 3295 0000 D2030000 		.section	.debug_str,"MS",%progbits,1
 3295      0200C401 
 3295      00000201 
 3295      FB0E0D00 
 3295      01010101 
 3296              	.LASF40:
 3297 0000 705F6D73 		.ascii	"p_msg\000"
 3297      6700
ARM GAS  C:\Users\danit\AppData\Local\Temp\ccoJBZpF.s 			page 59


 3298              	.LASF72:
 3299 0006 7264796D 		.ascii	"rdymsg\000"
 3299      736700
 3300              	.LASF84:
 3301 000d 63685363 		.ascii	"chSchDoRescheduleAhead\000"
 3301      68446F52 
 3301      65736368 
 3301      6564756C 
 3301      65416865 
 3302              	.LASF5:
 3303 0024 5F5F7569 		.ascii	"__uint8_t\000"
 3303      6E74385F 
 3303      7400
 3304              	.LASF11:
 3305 002e 6C6F6E67 		.ascii	"long long unsigned int\000"
 3305      206C6F6E 
 3305      6720756E 
 3305      7369676E 
 3305      65642069 
 3306              	.LASF73:
 3307 0045 65786974 		.ascii	"exitcode\000"
 3307      636F6465 
 3307      00
 3308              	.LASF28:
 3309 004e 705F7072 		.ascii	"p_prio\000"
 3309      696F00
 3310              	.LASF94:
 3311 0055 5F736368 		.ascii	"_scheduler_init\000"
 3311      6564756C 
 3311      65725F69 
 3311      6E697400 
 3312              	.LASF10:
 3313 0065 6C6F6E67 		.ascii	"long long int\000"
 3313      206C6F6E 
 3313      6720696E 
 3313      7400
 3314              	.LASF1:
 3315 0073 7369676E 		.ascii	"signed char\000"
 3315      65642063 
 3315      68617200 
 3316              	.LASF44:
 3317 007f 705F6D70 		.ascii	"p_mpool\000"
 3317      6F6F6C00 
 3318              	.LASF69:
 3319 0087 6D5F7175 		.ascii	"m_queue\000"
 3319      65756500 
 3320              	.LASF19:
 3321 008f 74736C69 		.ascii	"tslices_t\000"
 3321      6365735F 
 3321      7400
 3322              	.LASF7:
 3323 0099 6C6F6E67 		.ascii	"long int\000"
 3323      20696E74 
 3323      00
 3324              	.LASF17:
 3325 00a2 74737461 		.ascii	"tstate_t\000"
 3325      74655F74 
ARM GAS  C:\Users\danit\AppData\Local\Temp\ccoJBZpF.s 			page 60


 3325      00
 3326              	.LASF30:
 3327 00ab 705F6E65 		.ascii	"p_newer\000"
 3327      77657200 
 3328              	.LASF66:
 3329 00b3 735F7175 		.ascii	"s_queue\000"
 3329      65756500 
 3330              	.LASF85:
 3331 00bb 63685363 		.ascii	"chSchRescheduleS\000"
 3331      68526573 
 3331      63686564 
 3331      756C6553 
 3331      00
 3332              	.LASF8:
 3333 00cc 5F5F7569 		.ascii	"__uint32_t\000"
 3333      6E743332 
 3333      5F7400
 3334              	.LASF47:
 3335 00d7 72656761 		.ascii	"regarm_t\000"
 3335      726D5F74 
 3335      00
 3336              	.LASF54:
 3337 00e0 76745F70 		.ascii	"vt_prev\000"
 3337      72657600 
 3338              	.LASF86:
 3339 00e8 63685363 		.ascii	"chSchDoReschedule\000"
 3339      68446F52 
 3339      65736368 
 3339      6564756C 
 3339      6500
 3340              	.LASF24:
 3341 00fa 636E745F 		.ascii	"cnt_t\000"
 3341      7400
 3342              	.LASF0:
 3343 0100 756E7369 		.ascii	"unsigned int\000"
 3343      676E6564 
 3343      20696E74 
 3343      00
 3344              	.LASF93:
 3345 010d 77616B65 		.ascii	"wakeup\000"
 3345      757000
 3346              	.LASF53:
 3347 0114 76745F6E 		.ascii	"vt_next\000"
 3347      65787400 
 3348              	.LASF87:
 3349 011c 5F706F72 		.ascii	"_port_switch\000"
 3349      745F7377 
 3349      69746368 
 3349      00
 3350              	.LASF9:
 3351 0129 6C6F6E67 		.ascii	"long unsigned int\000"
 3351      20756E73 
 3351      69676E65 
 3351      6420696E 
 3351      7400
 3352              	.LASF51:
 3353 013b 76746675 		.ascii	"vtfunc_t\000"
ARM GAS  C:\Users\danit\AppData\Local\Temp\ccoJBZpF.s 			page 61


 3353      6E635F74 
 3353      00
 3354              	.LASF67:
 3355 0144 735F636E 		.ascii	"s_cnt\000"
 3355      7400
 3356              	.LASF49:
 3357 014a 636F6E74 		.ascii	"context\000"
 3357      65787400 
 3358              	.LASF4:
 3359 0152 73686F72 		.ascii	"short unsigned int\000"
 3359      7420756E 
 3359      7369676E 
 3359      65642069 
 3359      6E7400
 3360              	.LASF82:
 3361 0165 63685363 		.ascii	"chSchWakeupS\000"
 3361      6857616B 
 3361      65757053 
 3361      00
 3362              	.LASF21:
 3363 0172 6D73675F 		.ascii	"msg_t\000"
 3363      7400
 3364              	.LASF61:
 3365 0178 725F6E65 		.ascii	"r_newer\000"
 3365      77657200 
 3366              	.LASF16:
 3367 0180 746D6F64 		.ascii	"tmode_t\000"
 3367      655F7400 
 3368              	.LASF46:
 3369 0188 54687265 		.ascii	"ThreadsList\000"
 3369      6164734C 
 3369      69737400 
 3370              	.LASF22:
 3371 0194 6576656E 		.ascii	"eventmask_t\000"
 3371      746D6173 
 3371      6B5F7400 
 3372              	.LASF68:
 3373 01a0 4D757465 		.ascii	"Mutex\000"
 3373      7800
 3374              	.LASF55:
 3375 01a6 76745F74 		.ascii	"vt_time\000"
 3375      696D6500 
 3376              	.LASF50:
 3377 01ae 73697A65 		.ascii	"sizetype\000"
 3377      74797065 
 3377      00
 3378              	.LASF56:
 3379 01b7 76745F66 		.ascii	"vt_func\000"
 3379      756E6300 
 3380              	.LASF83:
 3381 01bf 63685363 		.ascii	"chSchDoRescheduleBehind\000"
 3381      68446F52 
 3381      65736368 
 3381      6564756C 
 3381      65426568 
 3382              	.LASF88:
 3383 01d7 63685654 		.ascii	"chVTSetI\000"
ARM GAS  C:\Users\danit\AppData\Local\Temp\ccoJBZpF.s 			page 62


 3383      53657449 
 3383      00
 3384              	.LASF31:
 3385 01e0 705F6F6C 		.ascii	"p_older\000"
 3385      64657200 
 3386              	.LASF60:
 3387 01e8 725F6374 		.ascii	"r_ctx\000"
 3387      7800
 3388              	.LASF45:
 3389 01ee 54687265 		.ascii	"ThreadsQueue\000"
 3389      61647351 
 3389      75657565 
 3389      00
 3390              	.LASF77:
 3391 01fb 64657175 		.ascii	"dequeue\000"
 3391      65756500 
 3392              	.LASF63:
 3393 0203 725F6375 		.ascii	"r_current\000"
 3393      7272656E 
 3393      7400
 3394              	.LASF62:
 3395 020d 725F6F6C 		.ascii	"r_older\000"
 3395      64657200 
 3396              	.LASF18:
 3397 0215 74726566 		.ascii	"trefs_t\000"
 3397      735F7400 
 3398              	.LASF27:
 3399 021d 705F7072 		.ascii	"p_prev\000"
 3399      657600
 3400              	.LASF20:
 3401 0224 74707269 		.ascii	"tprio_t\000"
 3401      6F5F7400 
 3402              	.LASF15:
 3403 022c 5F426F6F 		.ascii	"_Bool\000"
 3403      6C00
 3404              	.LASF13:
 3405 0232 696E7433 		.ascii	"int32_t\000"
 3405      325F7400 
 3406              	.LASF2:
 3407 023a 756E7369 		.ascii	"unsigned char\000"
 3407      676E6564 
 3407      20636861 
 3407      7200
 3408              	.LASF79:
 3409 0248 6E657773 		.ascii	"newstate\000"
 3409      74617465 
 3409      00
 3410              	.LASF42:
 3411 0251 705F6D74 		.ascii	"p_mtxlist\000"
 3411      786C6973 
 3411      7400
 3412              	.LASF3:
 3413 025b 73686F72 		.ascii	"short int\000"
 3413      7420696E 
 3413      7400
 3414              	.LASF33:
 3415 0265 705F7374 		.ascii	"p_state\000"
ARM GAS  C:\Users\danit\AppData\Local\Temp\ccoJBZpF.s 			page 63


 3415      61746500 
 3416              	.LASF36:
 3417 026d 705F7072 		.ascii	"p_preempt\000"
 3417      65656D70 
 3417      7400
 3418              	.LASF59:
 3419 0277 725F7072 		.ascii	"r_prio\000"
 3419      696F00
 3420              	.LASF75:
 3421 027e 65776D61 		.ascii	"ewmask\000"
 3421      736B00
 3422              	.LASF26:
 3423 0285 705F6E65 		.ascii	"p_next\000"
 3423      787400
 3424              	.LASF34:
 3425 028c 705F666C 		.ascii	"p_flags\000"
 3425      61677300 
 3426              	.LASF25:
 3427 0294 54687265 		.ascii	"Thread\000"
 3427      616400
 3428              	.LASF97:
 3429 029b 63685654 		.ascii	"chVTResetI\000"
 3429      52657365 
 3429      744900
 3430              	.LASF81:
 3431 02a6 63685363 		.ascii	"chSchGoSleepS\000"
 3431      68476F53 
 3431      6C656570 
 3431      5300
 3432              	.LASF41:
 3433 02b4 705F6570 		.ascii	"p_epending\000"
 3433      656E6469 
 3433      6E6700
 3434              	.LASF14:
 3435 02bf 75696E74 		.ascii	"uint32_t\000"
 3435      33325F74 
 3435      00
 3436              	.LASF58:
 3437 02c8 725F7175 		.ascii	"r_queue\000"
 3437      65756500 
 3438              	.LASF52:
 3439 02d0 56697274 		.ascii	"VirtualTimer\000"
 3439      75616C54 
 3439      696D6572 
 3439      00
 3440              	.LASF76:
 3441 02dd 63686172 		.ascii	"char\000"
 3441      00
 3442              	.LASF78:
 3443 02e2 6669666F 		.ascii	"fifo_remove\000"
 3443      5F72656D 
 3443      6F766500 
 3444              	.LASF92:
 3445 02ee 63685363 		.ascii	"chSchReadyI\000"
 3445      68526561 
 3445      64794900 
 3446              	.LASF71:
ARM GAS  C:\Users\danit\AppData\Local\Temp\ccoJBZpF.s 			page 64


 3447 02fa 6D5F6E65 		.ascii	"m_next\000"
 3447      787400
 3448              	.LASF23:
 3449 0301 73797374 		.ascii	"systime_t\000"
 3449      696D655F 
 3449      7400
 3450              	.LASF43:
 3451 030b 705F7265 		.ascii	"p_realprio\000"
 3451      616C7072 
 3451      696F00
 3452              	.LASF6:
 3453 0316 5F5F696E 		.ascii	"__int32_t\000"
 3453      7433325F 
 3453      7400
 3454              	.LASF37:
 3455 0320 705F7469 		.ascii	"p_time\000"
 3455      6D6500
 3456              	.LASF48:
 3457 0327 696E7463 		.ascii	"intctx\000"
 3457      747800
 3458              	.LASF39:
 3459 032e 705F6D73 		.ascii	"p_msgqueue\000"
 3459      67717565 
 3459      756500
 3460              	.LASF80:
 3461 0339 74696D65 		.ascii	"time\000"
 3461      00
 3462              	.LASF57:
 3463 033e 76745F70 		.ascii	"vt_par\000"
 3463      617200
 3464              	.LASF65:
 3465 0345 53656D61 		.ascii	"Semaphore\000"
 3465      70686F72 
 3465      6500
 3466              	.LASF90:
 3467 034f 2E2E2F2E 		.ascii	"../../../ChibiOS/os/kernel/src/chschd.c\000"
 3467      2E2F2E2E 
 3467      2F436869 
 3467      62694F53 
 3467      2F6F732F 
 3468              	.LASF35:
 3469 0377 705F7265 		.ascii	"p_refs\000"
 3469      667300
 3470              	.LASF89:
 3471 037e 474E5520 		.ascii	"GNU C 4.9.3 20150529 (release) [ARM/embedded-4_9-br"
 3471      4320342E 
 3471      392E3320 
 3471      32303135 
 3471      30353239 
 3472 03b1 616E6368 		.ascii	"anch revision 224288] -mcpu=cortex-m4 -mno-thumb-in"
 3472      20726576 
 3472      6973696F 
 3472      6E203232 
 3472      34323838 
 3473 03e4 74657277 		.ascii	"terwork -mthumb -ggdb -O2 -fomit-frame-pointer -fal"
 3473      6F726B20 
 3473      2D6D7468 
ARM GAS  C:\Users\danit\AppData\Local\Temp\ccoJBZpF.s 			page 65


 3473      756D6220 
 3473      2D676764 
 3474 0417 69676E2D 		.ascii	"ign-functions=16 -ffunction-sections -fdata-section"
 3474      66756E63 
 3474      74696F6E 
 3474      733D3136 
 3474      202D6666 
 3475 044a 73202D66 		.ascii	"s -fno-common\000"
 3475      6E6F2D63 
 3475      6F6D6D6F 
 3475      6E00
 3476              	.LASF64:
 3477 0458 52656164 		.ascii	"ReadyList\000"
 3477      794C6973 
 3477      7400
 3478              	.LASF96:
 3479 0462 726C6973 		.ascii	"rlist\000"
 3479      7400
 3480              	.LASF12:
 3481 0468 75696E74 		.ascii	"uint8_t\000"
 3481      385F7400 
 3482              	.LASF74:
 3483 0470 77746F62 		.ascii	"wtobjp\000"
 3483      6A7000
 3484              	.LASF32:
 3485 0477 705F6E61 		.ascii	"p_name\000"
 3485      6D6500
 3486              	.LASF95:
 3487 047e 63685363 		.ascii	"chSchGoSleepTimeoutS\000"
 3487      68476F53 
 3487      6C656570 
 3487      54696D65 
 3487      6F757453 
 3488              	.LASF91:
 3489 0493 443A5C44 		.ascii	"D:\\Dani\\MegaLux\\Repo\\Smarty\\Smarty\\smarty\\fi"
 3489      616E695C 
 3489      4D656761 
 3489      4C75785C 
 3489      5265706F 
 3490 04bf 726D7761 		.ascii	"rmware\000"
 3490      726500
 3491              	.LASF70:
 3492 04c6 6D5F6F77 		.ascii	"m_owner\000"
 3492      6E657200 
 3493              	.LASF29:
 3494 04ce 705F6374 		.ascii	"p_ctx\000"
 3494      7800
 3495              	.LASF38:
 3496 04d4 705F7761 		.ascii	"p_waiting\000"
 3496      6974696E 
 3496      6700
 3497              		.ident	"GCC: (GNU Tools for ARM Embedded Processors) 4.9.3 20150529 (release) [ARM/embedded-4_9-br
ARM GAS  C:\Users\danit\AppData\Local\Temp\ccoJBZpF.s 			page 66


DEFINED SYMBOLS
                            *ABS*:00000000 chschd.c
C:\Users\danit\AppData\Local\Temp\ccoJBZpF.s:19     .text.wakeup:00000000 $t
C:\Users\danit\AppData\Local\Temp\ccoJBZpF.s:24     .text.wakeup:00000000 wakeup
C:\Users\danit\AppData\Local\Temp\ccoJBZpF.s:50     .text.wakeup:00000012 $d
C:\Users\danit\AppData\Local\Temp\ccoJBZpF.s:64     .text.wakeup:00000020 $t
C:\Users\danit\AppData\Local\Temp\ccoJBZpF.s:179    .text.wakeup:0000006c $d
C:\Users\danit\AppData\Local\Temp\ccoJBZpF.s:184    .text._scheduler_init:00000000 $t
C:\Users\danit\AppData\Local\Temp\ccoJBZpF.s:190    .text._scheduler_init:00000000 _scheduler_init
C:\Users\danit\AppData\Local\Temp\ccoJBZpF.s:213    .text._scheduler_init:00000010 $d
C:\Users\danit\AppData\Local\Temp\ccoJBZpF.s:218    .text.chSchReadyI:00000000 $t
C:\Users\danit\AppData\Local\Temp\ccoJBZpF.s:224    .text.chSchReadyI:00000000 chSchReadyI
C:\Users\danit\AppData\Local\Temp\ccoJBZpF.s:274    .text.chSchReadyI:00000028 $d
C:\Users\danit\AppData\Local\Temp\ccoJBZpF.s:279    .text.chSchGoSleepS:00000000 $t
C:\Users\danit\AppData\Local\Temp\ccoJBZpF.s:285    .text.chSchGoSleepS:00000000 chSchGoSleepS
C:\Users\danit\AppData\Local\Temp\ccoJBZpF.s:354    .text.chSchGoSleepS:00000024 $d
C:\Users\danit\AppData\Local\Temp\ccoJBZpF.s:359    .text.chSchGoSleepTimeoutS:00000000 $t
C:\Users\danit\AppData\Local\Temp\ccoJBZpF.s:365    .text.chSchGoSleepTimeoutS:00000000 chSchGoSleepTimeoutS
C:\Users\danit\AppData\Local\Temp\ccoJBZpF.s:434    .text.chSchGoSleepTimeoutS:0000003c $d
C:\Users\danit\AppData\Local\Temp\ccoJBZpF.s:440    .text.chSchWakeupS:00000000 $t
C:\Users\danit\AppData\Local\Temp\ccoJBZpF.s:446    .text.chSchWakeupS:00000000 chSchWakeupS
C:\Users\danit\AppData\Local\Temp\ccoJBZpF.s:576    .text.chSchWakeupS:00000054 $d
C:\Users\danit\AppData\Local\Temp\ccoJBZpF.s:582    .text.chSchDoRescheduleBehind:00000000 $t
C:\Users\danit\AppData\Local\Temp\ccoJBZpF.s:588    .text.chSchDoRescheduleBehind:00000000 chSchDoRescheduleBehind
C:\Users\danit\AppData\Local\Temp\ccoJBZpF.s:700    .text.chSchDoRescheduleBehind:0000003c $d
C:\Users\danit\AppData\Local\Temp\ccoJBZpF.s:705    .text.chSchDoRescheduleAhead:00000000 $t
C:\Users\danit\AppData\Local\Temp\ccoJBZpF.s:711    .text.chSchDoRescheduleAhead:00000000 chSchDoRescheduleAhead
C:\Users\danit\AppData\Local\Temp\ccoJBZpF.s:800    .text.chSchDoRescheduleAhead:00000038 $d
C:\Users\danit\AppData\Local\Temp\ccoJBZpF.s:805    .text.chSchRescheduleS:00000000 $t
C:\Users\danit\AppData\Local\Temp\ccoJBZpF.s:811    .text.chSchRescheduleS:00000000 chSchRescheduleS
C:\Users\danit\AppData\Local\Temp\ccoJBZpF.s:834    .text.chSchRescheduleS:00000014 $d
C:\Users\danit\AppData\Local\Temp\ccoJBZpF.s:839    .text.chSchDoReschedule:00000000 $t
C:\Users\danit\AppData\Local\Temp\ccoJBZpF.s:845    .text.chSchDoReschedule:00000000 chSchDoReschedule
C:\Users\danit\AppData\Local\Temp\ccoJBZpF.s:867    .text.chSchDoReschedule:00000010 $d
C:\Users\danit\AppData\Local\Temp\ccoJBZpF.s:877    .bss.rlist:00000000 rlist
C:\Users\danit\AppData\Local\Temp\ccoJBZpF.s:873    .bss.rlist:00000000 $d
                     .debug_frame:00000010 $d

UNDEFINED SYMBOLS
_port_switch
chVTSetI
chVTResetI
