ARM GAS  C:\Users\srich\AppData\Local\Temp\ccW2BIvs.s 			page 1


   1              		.syntax unified
   2              		.cpu cortex-m4
   3              		.fpu softvfp
   4              		.eabi_attribute 20, 1
   5              		.eabi_attribute 21, 1
   6              		.eabi_attribute 23, 3
   7              		.eabi_attribute 24, 1
   8              		.eabi_attribute 25, 1
   9              		.eabi_attribute 26, 1
  10              		.eabi_attribute 30, 2
  11              		.eabi_attribute 34, 1
  12              		.eabi_attribute 18, 4
  13              		.thumb
  14              		.file	"chthreads.c"
  15              		.text
  16              	.Ltext0:
  17              		.cfi_sections	.debug_frame
  18              		.section	.text._thread_init,"ax",%progbits
  19              		.align	2
  20              		.p2align 4,,15
  21              		.global	_thread_init
  22              		.thumb
  23              		.thumb_func
  24              		.type	_thread_init, %function
  25              	_thread_init:
  26              	.LFB7:
  27              		.file 1 "../../../ChibiOS/os/kernel/src/chthreads.c"
  28              		.loc 1 76 0
  29              		.cfi_startproc
  30              		@ args = 0, pretend = 0, frame = 0
  31              		@ frame_needed = 0, uses_anonymous_args = 0
  32              	.LVL0:
  33 0000 2DE9F041 		push	{r4, r5, r6, r7, r8, lr}
  34              		.cfi_def_cfa_offset 24
  35              		.cfi_offset 4, -24
  36              		.cfi_offset 5, -20
  37              		.cfi_offset 6, -16
  38              		.cfi_offset 7, -12
  39              		.cfi_offset 8, -8
  40              		.cfi_offset 14, -4
  41              		.loc 1 99 0
  42 0004 114C     		ldr	r4, .L3
  43              		.loc 1 85 0
  44 0006 0164     		str	r1, [r0, #64]
  45              		.loc 1 99 0
  46 0008 6669     		ldr	r6, [r4, #20]
  47 000a 4661     		str	r6, [r0, #20]
  48              		.loc 1 80 0
  49 000c 0022     		movs	r2, #0
  50              		.loc 1 105 0
  51 000e 00F12C05 		add	r5, r0, #44
  52              		.loc 1 79 0
  53 0012 4FF00208 		mov	r8, #2
  54              		.loc 1 82 0
  55 0016 4FF0140C 		mov	ip, #20
  56              		.loc 1 95 0
  57 001a 4FF0010E 		mov	lr, #1
ARM GAS  C:\Users\srich\AppData\Local\Temp\ccW2BIvs.s 			page 2


  58              		.loc 1 102 0
  59 001e 00F12807 		add	r7, r0, #40
  60              		.loc 1 78 0
  61 0022 8160     		str	r1, [r0, #8]
  62              		.loc 1 99 0
  63 0024 0461     		str	r4, [r0, #16]
  64              		.loc 1 79 0
  65 0026 80F81C80 		strb	r8, [r0, #28]
  66              		.loc 1 99 0
  67 002a 6061     		str	r0, [r4, #20]
  68              		.loc 1 82 0
  69 002c 80F81FC0 		strb	ip, [r0, #31]
  70              		.loc 1 95 0
  71 0030 80F81EE0 		strb	lr, [r0, #30]
  72              		.loc 1 80 0
  73 0034 4277     		strb	r2, [r0, #29]
  74              		.loc 1 86 0
  75 0036 C263     		str	r2, [r0, #60]
  76              		.loc 1 89 0
  77 0038 8263     		str	r2, [r0, #56]
  78              		.loc 1 92 0
  79 003a 0262     		str	r2, [r0, #32]
  80              		.loc 1 98 0
  81 003c 8261     		str	r2, [r0, #24]
  82              		.loc 1 99 0
  83 003e 3061     		str	r0, [r6, #16]
  84              		.loc 1 102 0
  85 0040 8762     		str	r7, [r0, #40]
  86              		.loc 1 105 0
  87 0042 0563     		str	r5, [r0, #48]
  88 0044 C562     		str	r5, [r0, #44]
  89              		.loc 1 114 0
  90 0046 BDE8F081 		pop	{r4, r5, r6, r7, r8, pc}
  91              	.L4:
  92 004a 00BF     		.align	2
  93              	.L3:
  94 004c 00000000 		.word	rlist
  95              		.cfi_endproc
  96              	.LFE7:
  97              		.size	_thread_init, .-_thread_init
  98              		.section	.text.chThdCreateI,"ax",%progbits
  99              		.align	2
 100              		.p2align 4,,15
 101              		.global	chThdCreateI
 102              		.thumb
 103              		.thumb_func
 104              		.type	chThdCreateI, %function
 105              	chThdCreateI:
 106              	.LFB8:
 107              		.loc 1 158 0
 108              		.cfi_startproc
 109              		@ args = 4, pretend = 0, frame = 0
 110              		@ frame_needed = 0, uses_anonymous_args = 0
 111              	.LVL1:
 112 0000 2DE9F04F 		push	{r4, r5, r6, r7, r8, r9, r10, fp, lr}
 113              		.cfi_def_cfa_offset 36
 114              		.cfi_offset 4, -36
ARM GAS  C:\Users\srich\AppData\Local\Temp\ccW2BIvs.s 			page 3


 115              		.cfi_offset 5, -32
 116              		.cfi_offset 6, -28
 117              		.cfi_offset 7, -24
 118              		.cfi_offset 8, -20
 119              		.cfi_offset 9, -16
 120              		.cfi_offset 10, -12
 121              		.cfi_offset 11, -8
 122              		.cfi_offset 14, -4
 123              	.LBB16:
 124              	.LBB17:
 125              		.loc 1 99 0
 126 0004 184D     		ldr	r5, .L7
 127              	.LBE17:
 128              	.LBE16:
 129              		.loc 1 167 0
 130 0006 DFF86490 		ldr	r9, .L7+4
 131              	.LBB22:
 132              	.LBB18:
 133              		.loc 1 99 0
 134 000a D5F814E0 		ldr	lr, [r5, #20]
 135              	.LBE18:
 136              	.LBE22:
 137              		.loc 1 167 0
 138 000e 099F     		ldr	r7, [sp, #36]
 139 0010 2439     		subs	r1, r1, #36
 140              	.LVL2:
 141 0012 4618     		adds	r6, r0, r1
 142 0014 C660     		str	r6, [r0, #12]
 143              	.LBB23:
 144              	.LBB19:
 145              		.loc 1 79 0
 146 0016 4FF0020B 		mov	fp, #2
 147              	.LBE19:
 148              	.LBE23:
 149              		.loc 1 167 0
 150 001a 4350     		str	r3, [r0, r1]
 151              	.LBB24:
 152              	.LBB20:
 153              		.loc 1 82 0
 154 001c 4FF0140A 		mov	r10, #20
 155              		.loc 1 80 0
 156 0020 0023     		movs	r3, #0
 157              	.LVL3:
 158              		.loc 1 105 0
 159 0022 00F12C01 		add	r1, r0, #44
 160              	.LVL4:
 161              		.loc 1 95 0
 162 0026 4FF00108 		mov	r8, #1
 163              		.loc 1 102 0
 164 002a 00F1280C 		add	ip, r0, #40
 165              	.LBE20:
 166              	.LBE24:
 167              		.loc 1 167 0
 168 002e 7760     		str	r7, [r6, #4]
 169 0030 C6F82090 		str	r9, [r6, #32]
 170              	.LVL5:
 171              	.LBB25:
ARM GAS  C:\Users\srich\AppData\Local\Temp\ccW2BIvs.s 			page 4


 172              	.LBB21:
 173              		.loc 1 78 0
 174 0034 8260     		str	r2, [r0, #8]
 175              		.loc 1 99 0
 176 0036 0561     		str	r5, [r0, #16]
 177 0038 C0F814E0 		str	lr, [r0, #20]
 178              		.loc 1 85 0
 179 003c 0264     		str	r2, [r0, #64]
 180              		.loc 1 79 0
 181 003e 80F81CB0 		strb	fp, [r0, #28]
 182              	.LVL6:
 183              		.loc 1 82 0
 184 0042 80F81FA0 		strb	r10, [r0, #31]
 185              		.loc 1 95 0
 186 0046 80F81E80 		strb	r8, [r0, #30]
 187              		.loc 1 80 0
 188 004a 4377     		strb	r3, [r0, #29]
 189              		.loc 1 99 0
 190 004c 6861     		str	r0, [r5, #20]
 191              		.loc 1 86 0
 192 004e C363     		str	r3, [r0, #60]
 193              		.loc 1 89 0
 194 0050 8363     		str	r3, [r0, #56]
 195              		.loc 1 92 0
 196 0052 0362     		str	r3, [r0, #32]
 197              		.loc 1 98 0
 198 0054 8361     		str	r3, [r0, #24]
 199              		.loc 1 99 0
 200 0056 CEF81000 		str	r0, [lr, #16]
 201              		.loc 1 102 0
 202 005a C0F828C0 		str	ip, [r0, #40]
 203              		.loc 1 105 0
 204 005e 0163     		str	r1, [r0, #48]
 205 0060 C162     		str	r1, [r0, #44]
 206              	.LBE21:
 207              	.LBE25:
 208              		.loc 1 169 0
 209 0062 BDE8F08F 		pop	{r4, r5, r6, r7, r8, r9, r10, fp, pc}
 210              	.LVL7:
 211              	.L8:
 212 0066 00BF     		.align	2
 213              	.L7:
 214 0068 00000000 		.word	rlist
 215 006c 00000000 		.word	_port_thread_start
 216              		.cfi_endproc
 217              	.LFE8:
 218              		.size	chThdCreateI, .-chThdCreateI
 219              		.section	.text.chThdCreateStatic,"ax",%progbits
 220              		.align	2
 221              		.p2align 4,,15
 222              		.global	chThdCreateStatic
 223              		.thumb
 224              		.thumb_func
 225              		.type	chThdCreateStatic, %function
 226              	chThdCreateStatic:
 227              	.LFB9:
 228              		.loc 1 188 0
ARM GAS  C:\Users\srich\AppData\Local\Temp\ccW2BIvs.s 			page 5


 229              		.cfi_startproc
 230              		@ args = 4, pretend = 0, frame = 0
 231              		@ frame_needed = 0, uses_anonymous_args = 0
 232              	.LVL8:
 233 0000 2DE9F84F 		push	{r3, r4, r5, r6, r7, r8, r9, r10, fp, lr}
 234              		.cfi_def_cfa_offset 40
 235              		.cfi_offset 3, -40
 236              		.cfi_offset 4, -36
 237              		.cfi_offset 5, -32
 238              		.cfi_offset 6, -28
 239              		.cfi_offset 7, -24
 240              		.cfi_offset 8, -20
 241              		.cfi_offset 9, -16
 242              		.cfi_offset 10, -12
 243              		.cfi_offset 11, -8
 244              		.cfi_offset 14, -4
 245              		.loc 1 188 0
 246 0004 1D46     		mov	r5, r3
 247 0006 9646     		mov	lr, r2
 248 0008 0446     		mov	r4, r0
 249              	.LBB26:
 250              		.loc 1 199 0
 251 000a 2023     		movs	r3, #32
 252              	.LVL9:
 253              	@ 199 "../../../ChibiOS/os/kernel/src/chthreads.c" 1
 254 000c 83F31188 		msr     BASEPRI, r3
 255              	@ 0 "" 2
 256              	.LVL10:
 257              		.thumb
 258              	.LBE26:
 259              	.LBB27:
 260              	.LBB28:
 261              	.LBB29:
 262              	.LBB30:
 263              		.loc 1 99 0
 264 0010 1B4B     		ldr	r3, .L11
 265              	.LBE30:
 266              	.LBE29:
 267              		.loc 1 167 0
 268 0012 DFF870B0 		ldr	fp, .L11+4
 269              	.LBB36:
 270              	.LBB31:
 271              		.loc 1 99 0
 272 0016 5A69     		ldr	r2, [r3, #20]
 273              	.LVL11:
 274              	.LBE31:
 275              	.LBE36:
 276              		.loc 1 167 0
 277 0018 2439     		subs	r1, r1, #36
 278              	.LVL12:
 279 001a 4618     		adds	r6, r0, r1
 280 001c C660     		str	r6, [r0, #12]
 281              	.LBB37:
 282              	.LBB32:
 283              		.loc 1 105 0
 284 001e 00F12C07 		add	r7, r0, #44
 285              	.LBE32:
ARM GAS  C:\Users\srich\AppData\Local\Temp\ccW2BIvs.s 			page 6


 286              	.LBE37:
 287              		.loc 1 167 0
 288 0022 4550     		str	r5, [r0, r1]
 289              	.LBB38:
 290              	.LBB33:
 291              		.loc 1 102 0
 292 0024 00F1280C 		add	ip, r0, #40
 293              		.loc 1 80 0
 294 0028 0025     		movs	r5, #0
 295              	.LVL13:
 296              	.LBE33:
 297              	.LBE38:
 298              		.loc 1 167 0
 299 002a 0A99     		ldr	r1, [sp, #40]
 300              	.LVL14:
 301 002c 7160     		str	r1, [r6, #4]
 302              	.LBB39:
 303              	.LBB34:
 304              		.loc 1 79 0
 305 002e 4FF0020A 		mov	r10, #2
 306              		.loc 1 82 0
 307 0032 4FF01409 		mov	r9, #20
 308              		.loc 1 95 0
 309 0036 4FF00108 		mov	r8, #1
 310              	.LBE34:
 311              	.LBE39:
 312              		.loc 1 167 0
 313 003a C6F820B0 		str	fp, [r6, #32]
 314              	.LVL15:
 315              	.LBE28:
 316              	.LBE27:
 317              		.loc 1 200 0
 318 003e 2946     		mov	r1, r5
 319              	.LBB42:
 320              	.LBB41:
 321              	.LBB40:
 322              	.LBB35:
 323              		.loc 1 99 0
 324 0040 0361     		str	r3, [r0, #16]
 325              		.loc 1 78 0
 326 0042 C0F808E0 		str	lr, [r0, #8]
 327              		.loc 1 99 0
 328 0046 4261     		str	r2, [r0, #20]
 329              		.loc 1 85 0
 330 0048 C0F840E0 		str	lr, [r0, #64]
 331              		.loc 1 99 0
 332 004c 5861     		str	r0, [r3, #20]
 333              		.loc 1 79 0
 334 004e 80F81CA0 		strb	r10, [r0, #28]
 335              	.LVL16:
 336              		.loc 1 82 0
 337 0052 80F81F90 		strb	r9, [r0, #31]
 338              		.loc 1 95 0
 339 0056 80F81E80 		strb	r8, [r0, #30]
 340              		.loc 1 80 0
 341 005a 4577     		strb	r5, [r0, #29]
 342              		.loc 1 86 0
ARM GAS  C:\Users\srich\AppData\Local\Temp\ccW2BIvs.s 			page 7


 343 005c C563     		str	r5, [r0, #60]
 344              		.loc 1 89 0
 345 005e 8563     		str	r5, [r0, #56]
 346              		.loc 1 92 0
 347 0060 0562     		str	r5, [r0, #32]
 348              		.loc 1 98 0
 349 0062 8561     		str	r5, [r0, #24]
 350              		.loc 1 99 0
 351 0064 1061     		str	r0, [r2, #16]
 352              		.loc 1 102 0
 353 0066 C0F828C0 		str	ip, [r0, #40]
 354              		.loc 1 105 0
 355 006a 0763     		str	r7, [r0, #48]
 356 006c C762     		str	r7, [r0, #44]
 357              	.LBE35:
 358              	.LBE40:
 359              	.LBE41:
 360              	.LBE42:
 361              		.loc 1 200 0
 362 006e FFF7FEFF 		bl	chSchWakeupS
 363              	.LVL17:
 364              	.LBB43:
 365              		.loc 1 201 0
 366 0072 2B46     		mov	r3, r5
 367              	@ 201 "../../../ChibiOS/os/kernel/src/chthreads.c" 1
 368 0074 83F31188 		msr     BASEPRI, r3
 369              	@ 0 "" 2
 370              		.thumb
 371              	.LBE43:
 372              		.loc 1 203 0
 373 0078 2046     		mov	r0, r4
 374 007a BDE8F88F 		pop	{r3, r4, r5, r6, r7, r8, r9, r10, fp, pc}
 375              	.LVL18:
 376              	.L12:
 377 007e 00BF     		.align	2
 378              	.L11:
 379 0080 00000000 		.word	rlist
 380 0084 00000000 		.word	_port_thread_start
 381              		.cfi_endproc
 382              	.LFE9:
 383              		.size	chThdCreateStatic, .-chThdCreateStatic
 384              		.section	.text.chThdSetPriority,"ax",%progbits
 385              		.align	2
 386              		.p2align 4,,15
 387              		.global	chThdSetPriority
 388              		.thumb
 389              		.thumb_func
 390              		.type	chThdSetPriority, %function
 391              	chThdSetPriority:
 392              	.LFB10:
 393              		.loc 1 217 0
 394              		.cfi_startproc
 395              		@ args = 0, pretend = 0, frame = 0
 396              		@ frame_needed = 0, uses_anonymous_args = 0
 397              	.LVL19:
 398 0000 10B5     		push	{r4, lr}
 399              		.cfi_def_cfa_offset 8
ARM GAS  C:\Users\srich\AppData\Local\Temp\ccW2BIvs.s 			page 8


 400              		.cfi_offset 4, -8
 401              		.cfi_offset 14, -4
 402              	.LBB44:
 403              		.loc 1 222 0
 404 0002 2023     		movs	r3, #32
 405              	@ 222 "../../../ChibiOS/os/kernel/src/chthreads.c" 1
 406 0004 83F31188 		msr     BASEPRI, r3
 407              	@ 0 "" 2
 408              		.thumb
 409              	.LBE44:
 410              		.loc 1 224 0
 411 0008 084B     		ldr	r3, .L18
 412 000a 9B69     		ldr	r3, [r3, #24]
 413 000c 1C6C     		ldr	r4, [r3, #64]
 414              	.LVL20:
 415              		.loc 1 225 0
 416 000e 9968     		ldr	r1, [r3, #8]
 417 0010 8C42     		cmp	r4, r1
 418 0012 01D0     		beq	.L14
 419              		.loc 1 225 0 is_stmt 0 discriminator 1
 420 0014 8142     		cmp	r1, r0
 421 0016 00D2     		bcs	.L15
 422              	.L14:
 423              		.loc 1 226 0 is_stmt 1
 424 0018 9860     		str	r0, [r3, #8]
 425              	.L15:
 426              		.loc 1 227 0
 427 001a 1864     		str	r0, [r3, #64]
 428              		.loc 1 232 0
 429 001c FFF7FEFF 		bl	chSchRescheduleS
 430              	.LVL21:
 431              	.LBB45:
 432              		.loc 1 233 0
 433 0020 0023     		movs	r3, #0
 434              	@ 233 "../../../ChibiOS/os/kernel/src/chthreads.c" 1
 435 0022 83F31188 		msr     BASEPRI, r3
 436              	@ 0 "" 2
 437              		.thumb
 438              	.LBE45:
 439              		.loc 1 235 0
 440 0026 2046     		mov	r0, r4
 441 0028 10BD     		pop	{r4, pc}
 442              	.LVL22:
 443              	.L19:
 444 002a 00BF     		.align	2
 445              	.L18:
 446 002c 00000000 		.word	rlist
 447              		.cfi_endproc
 448              	.LFE10:
 449              		.size	chThdSetPriority, .-chThdSetPriority
 450              		.section	.text.chThdResume,"ax",%progbits
 451              		.align	2
 452              		.p2align 4,,15
 453              		.global	chThdResume
 454              		.thumb
 455              		.thumb_func
 456              		.type	chThdResume, %function
ARM GAS  C:\Users\srich\AppData\Local\Temp\ccW2BIvs.s 			page 9


 457              	chThdResume:
 458              	.LFB11:
 459              		.loc 1 250 0
 460              		.cfi_startproc
 461              		@ args = 0, pretend = 0, frame = 0
 462              		@ frame_needed = 0, uses_anonymous_args = 0
 463              	.LVL23:
 464 0000 10B5     		push	{r4, lr}
 465              		.cfi_def_cfa_offset 8
 466              		.cfi_offset 4, -8
 467              		.cfi_offset 14, -4
 468              	.LBB46:
 469              		.loc 1 252 0
 470 0002 2023     		movs	r3, #32
 471              	.LBE46:
 472              		.loc 1 250 0
 473 0004 0446     		mov	r4, r0
 474              	.LBB47:
 475              		.loc 1 252 0
 476              	@ 252 "../../../ChibiOS/os/kernel/src/chthreads.c" 1
 477 0006 83F31188 		msr     BASEPRI, r3
 478              	@ 0 "" 2
 479              		.thumb
 480              	.LBE47:
 481              		.loc 1 256 0
 482 000a 0021     		movs	r1, #0
 483 000c FFF7FEFF 		bl	chSchWakeupS
 484              	.LVL24:
 485              	.LBB48:
 486              		.loc 1 257 0
 487 0010 0023     		movs	r3, #0
 488              	@ 257 "../../../ChibiOS/os/kernel/src/chthreads.c" 1
 489 0012 83F31188 		msr     BASEPRI, r3
 490              	@ 0 "" 2
 491              		.thumb
 492              	.LBE48:
 493              		.loc 1 259 0
 494 0016 2046     		mov	r0, r4
 495 0018 10BD     		pop	{r4, pc}
 496              		.cfi_endproc
 497              	.LFE11:
 498              		.size	chThdResume, .-chThdResume
 499 001a 00BF     		.section	.text.chThdTerminate,"ax",%progbits
 500              		.align	2
 501              		.p2align 4,,15
 502              		.global	chThdTerminate
 503              		.thumb
 504              		.thumb_func
 505              		.type	chThdTerminate, %function
 506              	chThdTerminate:
 507              	.LFB12:
 508              		.loc 1 273 0
 509              		.cfi_startproc
 510              		@ args = 0, pretend = 0, frame = 0
 511              		@ frame_needed = 0, uses_anonymous_args = 0
 512              		@ link register save eliminated.
 513              	.LVL25:
ARM GAS  C:\Users\srich\AppData\Local\Temp\ccW2BIvs.s 			page 10


 514              	.LBB49:
 515              		.loc 1 275 0
 516 0000 2023     		movs	r3, #32
 517              	@ 275 "../../../ChibiOS/os/kernel/src/chthreads.c" 1
 518 0002 83F31188 		msr     BASEPRI, r3
 519              	@ 0 "" 2
 520              		.thumb
 521              	.LBE49:
 522              		.loc 1 276 0
 523 0006 437F     		ldrb	r3, [r0, #29]	@ zero_extendqisi2
 524 0008 43F00403 		orr	r3, r3, #4
 525 000c 4377     		strb	r3, [r0, #29]
 526              	.LBB50:
 527              		.loc 1 277 0
 528 000e 0023     		movs	r3, #0
 529              	@ 277 "../../../ChibiOS/os/kernel/src/chthreads.c" 1
 530 0010 83F31188 		msr     BASEPRI, r3
 531              	@ 0 "" 2
 532              		.thumb
 533 0014 7047     		bx	lr
 534              	.LBE50:
 535              		.cfi_endproc
 536              	.LFE12:
 537              		.size	chThdTerminate, .-chThdTerminate
 538 0016 00BF     		.section	.text.chThdSleep,"ax",%progbits
 539              		.align	2
 540              		.p2align 4,,15
 541              		.global	chThdSleep
 542              		.thumb
 543              		.thumb_func
 544              		.type	chThdSleep, %function
 545              	chThdSleep:
 546              	.LFB13:
 547              		.loc 1 292 0
 548              		.cfi_startproc
 549              		@ args = 0, pretend = 0, frame = 0
 550              		@ frame_needed = 0, uses_anonymous_args = 0
 551              	.LVL26:
 552 0000 08B5     		push	{r3, lr}
 553              		.cfi_def_cfa_offset 8
 554              		.cfi_offset 3, -8
 555              		.cfi_offset 14, -4
 556              		.loc 1 292 0
 557 0002 0146     		mov	r1, r0
 558              	.LBB51:
 559              		.loc 1 296 0
 560 0004 2023     		movs	r3, #32
 561              	@ 296 "../../../ChibiOS/os/kernel/src/chthreads.c" 1
 562 0006 83F31188 		msr     BASEPRI, r3
 563              	@ 0 "" 2
 564              		.thumb
 565              	.LBE51:
 566              		.loc 1 297 0
 567 000a 0620     		movs	r0, #6
 568              	.LVL27:
 569 000c FFF7FEFF 		bl	chSchGoSleepTimeoutS
 570              	.LVL28:
ARM GAS  C:\Users\srich\AppData\Local\Temp\ccW2BIvs.s 			page 11


 571              	.LBB52:
 572              		.loc 1 298 0
 573 0010 0023     		movs	r3, #0
 574              	@ 298 "../../../ChibiOS/os/kernel/src/chthreads.c" 1
 575 0012 83F31188 		msr     BASEPRI, r3
 576              	@ 0 "" 2
 577              		.thumb
 578 0016 08BD     		pop	{r3, pc}
 579              	.LBE52:
 580              		.cfi_endproc
 581              	.LFE13:
 582              		.size	chThdSleep, .-chThdSleep
 583              		.section	.text.chThdSleepUntil,"ax",%progbits
 584              		.align	2
 585              		.p2align 4,,15
 586              		.global	chThdSleepUntil
 587              		.thumb
 588              		.thumb_func
 589              		.type	chThdSleepUntil, %function
 590              	chThdSleepUntil:
 591              	.LFB14:
 592              		.loc 1 309 0
 593              		.cfi_startproc
 594              		@ args = 0, pretend = 0, frame = 0
 595              		@ frame_needed = 0, uses_anonymous_args = 0
 596              	.LVL29:
 597 0000 08B5     		push	{r3, lr}
 598              		.cfi_def_cfa_offset 8
 599              		.cfi_offset 3, -8
 600              		.cfi_offset 14, -4
 601              	.LBB53:
 602              		.loc 1 311 0
 603 0002 2023     		movs	r3, #32
 604              	@ 311 "../../../ChibiOS/os/kernel/src/chthreads.c" 1
 605 0004 83F31188 		msr     BASEPRI, r3
 606              	@ 0 "" 2
 607              		.thumb
 608              	.LBE53:
 609              		.loc 1 312 0
 610 0008 054B     		ldr	r3, .L31
 611 000a D968     		ldr	r1, [r3, #12]
 612              	.LVL30:
 613 000c 411A     		subs	r1, r0, r1
 614              	.LVL31:
 615 000e 02D0     		beq	.L26
 616              		.loc 1 313 0
 617 0010 0620     		movs	r0, #6
 618 0012 FFF7FEFF 		bl	chSchGoSleepTimeoutS
 619              	.LVL32:
 620              	.L26:
 621              	.LBB54:
 622              		.loc 1 314 0
 623 0016 0023     		movs	r3, #0
 624              	@ 314 "../../../ChibiOS/os/kernel/src/chthreads.c" 1
 625 0018 83F31188 		msr     BASEPRI, r3
 626              	@ 0 "" 2
 627              		.thumb
ARM GAS  C:\Users\srich\AppData\Local\Temp\ccW2BIvs.s 			page 12


 628 001c 08BD     		pop	{r3, pc}
 629              	.L32:
 630 001e 00BF     		.align	2
 631              	.L31:
 632 0020 00000000 		.word	vtlist
 633              	.LBE54:
 634              		.cfi_endproc
 635              	.LFE14:
 636              		.size	chThdSleepUntil, .-chThdSleepUntil
 637              		.section	.text.chThdYield,"ax",%progbits
 638              		.align	2
 639              		.p2align 4,,15
 640              		.global	chThdYield
 641              		.thumb
 642              		.thumb_func
 643              		.type	chThdYield, %function
 644              	chThdYield:
 645              	.LFB15:
 646              		.loc 1 324 0
 647              		.cfi_startproc
 648              		@ args = 0, pretend = 0, frame = 0
 649              		@ frame_needed = 0, uses_anonymous_args = 0
 650 0000 08B5     		push	{r3, lr}
 651              		.cfi_def_cfa_offset 8
 652              		.cfi_offset 3, -8
 653              		.cfi_offset 14, -4
 654              	.LBB55:
 655              		.loc 1 326 0
 656 0002 2023     		movs	r3, #32
 657              	@ 326 "../../../ChibiOS/os/kernel/src/chthreads.c" 1
 658 0004 83F31188 		msr     BASEPRI, r3
 659              	@ 0 "" 2
 660              		.thumb
 661              	.LBE55:
 662              		.loc 1 327 0
 663 0008 064B     		ldr	r3, .L36
 664 000a 1A68     		ldr	r2, [r3]
 665 000c 9B69     		ldr	r3, [r3, #24]
 666 000e 9268     		ldr	r2, [r2, #8]
 667 0010 9B68     		ldr	r3, [r3, #8]
 668 0012 9A42     		cmp	r2, r3
 669 0014 01D3     		bcc	.L34
 670              		.loc 1 327 0 is_stmt 0 discriminator 1
 671 0016 FFF7FEFF 		bl	chSchDoRescheduleBehind
 672              	.LVL33:
 673              	.L34:
 674              	.LBB56:
 675              		.loc 1 328 0 is_stmt 1
 676 001a 0023     		movs	r3, #0
 677              	@ 328 "../../../ChibiOS/os/kernel/src/chthreads.c" 1
 678 001c 83F31188 		msr     BASEPRI, r3
 679              	@ 0 "" 2
 680              		.thumb
 681 0020 08BD     		pop	{r3, pc}
 682              	.L37:
 683 0022 00BF     		.align	2
 684              	.L36:
ARM GAS  C:\Users\srich\AppData\Local\Temp\ccW2BIvs.s 			page 13


 685 0024 00000000 		.word	rlist
 686              	.LBE56:
 687              		.cfi_endproc
 688              	.LFE15:
 689              		.size	chThdYield, .-chThdYield
 690              		.section	.text.chThdExitS,"ax",%progbits
 691              		.align	2
 692              		.p2align 4,,15
 693              		.global	chThdExitS
 694              		.thumb
 695              		.thumb_func
 696              		.type	chThdExitS, %function
 697              	chThdExitS:
 698              	.LFB17:
 699              		.loc 1 366 0
 700              		.cfi_startproc
 701              		@ args = 0, pretend = 0, frame = 0
 702              		@ frame_needed = 0, uses_anonymous_args = 0
 703              	.LVL34:
 704 0000 38B5     		push	{r3, r4, r5, lr}
 705              		.cfi_def_cfa_offset 16
 706              		.cfi_offset 3, -16
 707              		.cfi_offset 4, -12
 708              		.cfi_offset 5, -8
 709              		.cfi_offset 14, -4
 710              		.loc 1 367 0
 711 0002 0E4B     		ldr	r3, .L46
 712 0004 9C69     		ldr	r4, [r3, #24]
 713              	.LVL35:
 714              		.loc 1 374 0
 715 0006 2546     		mov	r5, r4
 716              		.loc 1 369 0
 717 0008 6062     		str	r0, [r4, #36]
 718              		.loc 1 374 0
 719 000a 55F8280F 		ldr	r0, [r5, #40]!
 720              	.LVL36:
 721 000e A842     		cmp	r0, r5
 722 0010 06D0     		beq	.L43
 723              	.LVL37:
 724              	.L42:
 725              	.LBB57:
 726              	.LBB58:
 727              		.file 2 "../../../ChibiOS/os/kernel/include/chinline.h"
 728              		.loc 2 89 0
 729 0012 0368     		ldr	r3, [r0]
 730 0014 A362     		str	r3, [r4, #40]
 731              	.LBE58:
 732              	.LBE57:
 733              		.loc 1 375 0
 734 0016 FFF7FEFF 		bl	chSchReadyI
 735              	.LVL38:
 736              		.loc 1 374 0
 737 001a A06A     		ldr	r0, [r4, #40]
 738 001c A842     		cmp	r0, r5
 739 001e F8D1     		bne	.L42
 740              	.LVL39:
 741              	.L43:
ARM GAS  C:\Users\srich\AppData\Local\Temp\ccW2BIvs.s 			page 14


 742              		.loc 1 380 0
 743 0020 637F     		ldrb	r3, [r4, #29]	@ zero_extendqisi2
 744 0022 9B07     		lsls	r3, r3, #30
 745 0024 04D1     		bne	.L41
 746              		.loc 1 381 0
 747 0026 6369     		ldr	r3, [r4, #20]
 748 0028 2269     		ldr	r2, [r4, #16]
 749 002a 1A61     		str	r2, [r3, #16]
 750 002c 2269     		ldr	r2, [r4, #16]
 751 002e 5361     		str	r3, [r2, #20]
 752              	.L41:
 753              		.loc 1 383 0
 754 0030 0E20     		movs	r0, #14
 755              		.loc 1 386 0
 756 0032 BDE83840 		pop	{r3, r4, r5, lr}
 757              		.cfi_restore 14
 758              		.cfi_restore 5
 759              		.cfi_restore 4
 760              		.cfi_restore 3
 761              		.cfi_def_cfa_offset 0
 762              	.LVL40:
 763              		.loc 1 383 0
 764 0036 FFF7FEBF 		b	chSchGoSleepS
 765              	.LVL41:
 766              	.L47:
 767 003a 00BF     		.align	2
 768              	.L46:
 769 003c 00000000 		.word	rlist
 770              		.cfi_endproc
 771              	.LFE17:
 772              		.size	chThdExitS, .-chThdExitS
 773              		.section	.text.chThdExit,"ax",%progbits
 774              		.align	2
 775              		.p2align 4,,15
 776              		.global	chThdExit
 777              		.thumb
 778              		.thumb_func
 779              		.type	chThdExit, %function
 780              	chThdExit:
 781              	.LFB16:
 782              		.loc 1 345 0
 783              		.cfi_startproc
 784              		@ args = 0, pretend = 0, frame = 0
 785              		@ frame_needed = 0, uses_anonymous_args = 0
 786              		@ link register save eliminated.
 787              	.LVL42:
 788              	.LBB59:
 789              		.loc 1 347 0
 790 0000 2023     		movs	r3, #32
 791              	@ 347 "../../../ChibiOS/os/kernel/src/chthreads.c" 1
 792 0002 83F31188 		msr     BASEPRI, r3
 793              	@ 0 "" 2
 794              		.thumb
 795              	.LBE59:
 796              		.loc 1 348 0
 797 0006 FFF7FEBF 		b	chThdExitS
 798              	.LVL43:
ARM GAS  C:\Users\srich\AppData\Local\Temp\ccW2BIvs.s 			page 15


 799              		.cfi_endproc
 800              	.LFE16:
 801              		.size	chThdExit, .-chThdExit
 802 000a 00BF     		.section	.text.chThdWait,"ax",%progbits
 803              		.align	2
 804              		.p2align 4,,15
 805              		.global	chThdWait
 806              		.thumb
 807              		.thumb_func
 808              		.type	chThdWait, %function
 809              	chThdWait:
 810              	.LFB18:
 811              		.loc 1 420 0
 812              		.cfi_startproc
 813              		@ args = 0, pretend = 0, frame = 0
 814              		@ frame_needed = 0, uses_anonymous_args = 0
 815              	.LVL44:
 816 0000 38B5     		push	{r3, r4, r5, lr}
 817              		.cfi_def_cfa_offset 16
 818              		.cfi_offset 3, -16
 819              		.cfi_offset 4, -12
 820              		.cfi_offset 5, -8
 821              		.cfi_offset 14, -4
 822              		.loc 1 420 0
 823 0002 0446     		mov	r4, r0
 824              	.LBB60:
 825              		.loc 1 425 0
 826 0004 2023     		movs	r3, #32
 827              	@ 425 "../../../ChibiOS/os/kernel/src/chthreads.c" 1
 828 0006 83F31188 		msr     BASEPRI, r3
 829              	@ 0 "" 2
 830              		.thumb
 831              	.LBE60:
 832              		.loc 1 430 0
 833 000a 037F     		ldrb	r3, [r0, #28]	@ zero_extendqisi2
 834 000c 0E2B     		cmp	r3, #14
 835 000e 07D0     		beq	.L50
 836              		.loc 1 431 0
 837 0010 084B     		ldr	r3, .L55
 838              	.LBB61:
 839              	.LBB62:
 840              		.loc 2 82 0
 841 0012 826A     		ldr	r2, [r0, #40]
 842              	.LBE62:
 843              	.LBE61:
 844              		.loc 1 431 0
 845 0014 9B69     		ldr	r3, [r3, #24]
 846              	.LVL45:
 847              		.loc 1 432 0
 848 0016 0720     		movs	r0, #7
 849              	.LVL46:
 850              	.LBB64:
 851              	.LBB63:
 852              		.loc 2 82 0
 853 0018 1A60     		str	r2, [r3]
 854              		.loc 2 83 0
 855 001a A362     		str	r3, [r4, #40]
ARM GAS  C:\Users\srich\AppData\Local\Temp\ccW2BIvs.s 			page 16


 856              	.LBE63:
 857              	.LBE64:
 858              		.loc 1 432 0
 859 001c FFF7FEFF 		bl	chSchGoSleepS
 860              	.LVL47:
 861              	.L50:
 862              		.loc 1 434 0
 863 0020 656A     		ldr	r5, [r4, #36]
 864              	.LVL48:
 865              	.LBB65:
 866              		.loc 1 435 0
 867 0022 0023     		movs	r3, #0
 868              	@ 435 "../../../ChibiOS/os/kernel/src/chthreads.c" 1
 869 0024 83F31188 		msr     BASEPRI, r3
 870              	@ 0 "" 2
 871              		.thumb
 872              	.LBE65:
 873              		.loc 1 437 0
 874 0028 2046     		mov	r0, r4
 875 002a FFF7FEFF 		bl	chThdRelease
 876              	.LVL49:
 877              		.loc 1 440 0
 878 002e 2846     		mov	r0, r5
 879 0030 38BD     		pop	{r3, r4, r5, pc}
 880              	.LVL50:
 881              	.L56:
 882 0032 00BF     		.align	2
 883              	.L55:
 884 0034 00000000 		.word	rlist
 885              		.cfi_endproc
 886              	.LFE18:
 887              		.size	chThdWait, .-chThdWait
 888              		.text
 889              	.Letext0:
 890              		.file 3 "c:\\chibistudio\\tools\\gnu tools arm embedded\\4.9 2015q3\\lib\\gcc\\arm-none-eabi\\4.9.
 891              		.file 4 "c:\\chibistudio\\tools\\gnu tools arm embedded\\4.9 2015q3\\arm-none-eabi\\include\\machi
 892              		.file 5 "c:\\chibistudio\\tools\\gnu tools arm embedded\\4.9 2015q3\\arm-none-eabi\\include\\sys\\
 893              		.file 6 "../../../ChibiOS/os/ports/GCC/ARMCMx/chtypes.h"
 894              		.file 7 "../../../ChibiOS/os/kernel/include/chlists.h"
 895              		.file 8 "../../../ChibiOS/os/kernel/include/chthreads.h"
 896              		.file 9 "../../../ChibiOS/os/ports/GCC/ARMCMx/chcore_v7m.h"
 897              		.file 10 "../../../ChibiOS/os/kernel/include/chvt.h"
 898              		.file 11 "../../../ChibiOS/os/kernel/include/chschd.h"
 899              		.file 12 "../../../ChibiOS/os/kernel/include/chmtx.h"
 900              		.file 13 "../../../ChibiOS/os/kernel/include/chdynamic.h"