ARM GAS  C:\Users\DNIEL~1\AppData\Local\Temp\cc2Cya4E.s 			page 1


   1              		.syntax unified
   2              		.cpu cortex-m4
   3              		.fpu softvfp
   4              		.eabi_attribute 20, 1
   5              		.eabi_attribute 21, 1
   6              		.eabi_attribute 23, 3
   7              		.eabi_attribute 24, 1
   8              		.eabi_attribute 25, 1
   9              		.eabi_attribute 26, 1
  10              		.eabi_attribute 30, 2
  11              		.eabi_attribute 18, 4
  12              		.thumb
  13              		.file	"console.c"
  20 0000 DF050000 		.text
  20      02001804 
  20      00000201 
  20      FB0E0D00 
  20      01010101 
  21              	.Ltext0:
  22              		.cfi_sections	.debug_frame
  23              		.section	.text.chprintf,"ax",%progbits
  24              		.align	2
  25              		.p2align 4,,15
  26              		.thumb
  27              		.thumb_func
  28              		.type	chprintf, %function
  29              	chprintf:
  30              	.LFB118:
  31              		.file 1 "../../../ChibiOS/os/various/chprintf.h"
  32              		.loc 1 69 0
  33              		.cfi_startproc
  34              		@ args = 4, pretend = 12, frame = 8
  35              		@ frame_needed = 0, uses_anonymous_args = 1
  36              	.LVL0:
  37 0000 0EB4     		push	{r1, r2, r3}
  38              	.LCFI0:
  39              		.cfi_def_cfa_offset 12
  40 0002 00B5     		push	{lr}
  41              	.LCFI1:
  42              		.cfi_def_cfa_offset 16
  43 0004 82B0     		sub	sp, sp, #8
  44              	.LCFI2:
  45              		.cfi_def_cfa_offset 24
  46              		.loc 1 69 0
  47 0006 03AB     		add	r3, sp, #12
  48              		.cfi_offset 14, -16
  49              		.cfi_offset 3, -4
  50              		.cfi_offset 2, -8
  51              		.cfi_offset 1, -12
  52 0008 53F8041B 		ldr	r1, [r3], #4
  53              		.loc 1 73 0
ARM GAS  C:\Users\DNIEL~1\AppData\Local\Temp\cc2Cya4E.s 			page 2


  54 000c 1A46     		mov	r2, r3
  55              		.loc 1 72 0
  56 000e 0193     		str	r3, [sp, #4]
  57              		.loc 1 73 0
  58 0010 FFF7FEFF 		bl	chvprintf
  59              	.LVL1:
  60              		.loc 1 75 0
  61 0014 02B0     		add	sp, sp, #8
  62 0016 5DF804EB 		pop	{lr}
  63 001a 03B0     		add	sp, sp, #12
  64 001c 7047     		bx	lr
  65              		.cfi_endproc
  66              	.LFE118:
  67              		.size	chprintf, .-chprintf
  68 001e 00BF     		.section	.text.cmd_alarm,"ax",%progbits
  69              		.align	2
  70              		.p2align 4,,15
  71              		.global	cmd_alarm
  72              		.thumb
  73              		.thumb_func
  74              		.type	cmd_alarm, %function
  75              	cmd_alarm:
  76              	.LFB130:
  77              		.file 2 "src/console.c"
  78              		.loc 2 259 0
  79              		.cfi_startproc
  80              		@ args = 0, pretend = 0, frame = 0
  81              		@ frame_needed = 0, uses_anonymous_args = 0
  82              	.LVL2:
  83              		.loc 2 263 0
  84 0000 0029     		cmp	r1, #0
  85              		.loc 2 259 0
  86 0002 70B5     		push	{r4, r5, r6, lr}
  87              	.LCFI3:
  88              		.cfi_def_cfa_offset 16
  89              		.loc 2 259 0
  90 0004 0446     		mov	r4, r0
  91              		.cfi_offset 14, -4
  92              		.cfi_offset 6, -8
  93              		.cfi_offset 5, -12
  94              		.cfi_offset 4, -16
  95 0006 1546     		mov	r5, r2
  96              		.loc 2 263 0
  97 0008 03DD     		ble	.L3
  98              		.loc 2 267 0
  99 000a 0129     		cmp	r1, #1
 100 000c 34D0     		beq	.L6
 101              		.loc 2 273 0
 102 000e 0229     		cmp	r1, #2
 103 0010 0DD0     		beq	.L7
 104              	.LVL3:
 105              	.L3:
 106              		.loc 2 285 0
 107 0012 2046     		mov	r0, r4
 108 0014 2249     		ldr	r1, .L8
 109 0016 FFF7FEFF 		bl	chprintf
 110              		.loc 2 286 0
ARM GAS  C:\Users\DNIEL~1\AppData\Local\Temp\cc2Cya4E.s 			page 3


 111 001a 2046     		mov	r0, r4
 112 001c 2149     		ldr	r1, .L8+4
 113 001e FFF7FEFF 		bl	chprintf
 114              		.loc 2 287 0
 115 0022 2149     		ldr	r1, .L8+8
 116 0024 2046     		mov	r0, r4
 117              		.loc 2 288 0
 118 0026 BDE87040 		pop	{r4, r5, r6, lr}
 119              		.loc 2 287 0
 120 002a FFF7FEBF 		b	chprintf
 121              	.LVL4:
 122              	.L7:
 123              		.loc 2 273 0 discriminator 1
 124 002e 1068     		ldr	r0, [r2, #0]
 125 0030 1E49     		ldr	r1, .L8+12
 126              	.LVL5:
 127 0032 FFF7FEFF 		bl	strcmp
 128 0036 0646     		mov	r6, r0
 129 0038 0028     		cmp	r0, #0
 130 003a EAD1     		bne	.L3
 131              		.loc 2 274 0
 132 003c 6868     		ldr	r0, [r5, #4]
 133              		.loc 2 275 0
 134 003e 1C4C     		ldr	r4, .L8+16
 135              	.LVL6:
 136              		.loc 2 274 0
 137 0040 FFF7FEFF 		bl	atol
 138              		.loc 2 275 0
 139 0044 1B49     		ldr	r1, .L8+20
 140              		.loc 2 276 0
 141 0046 1C4B     		ldr	r3, .L8+24
 142              		.loc 2 274 0
 143 0048 0246     		mov	r2, r0
 144              	.LVL7:
 145              		.loc 2 275 0
 146 004a 81FB0215 		smull	r1, r5, r1, r2
 147              	.LVL8:
 148 004e D117     		asrs	r1, r2, #31
 149 0050 C1EBA50C 		rsb	ip, r1, r5, asr #2
 150 0054 0CEB8C05 		add	r5, ip, ip, lsl #2
 151 0058 0CF07001 		and	r1, ip, #112
 152 005c A2EB450C 		sub	ip, r2, r5, lsl #1
 153 0060 41EA0C02 		orr	r2, r1, ip
 154              		.loc 2 277 0
 155 0064 1548     		ldr	r0, .L8+28
 156              	.LVL9:
 157              		.loc 2 276 0
 158 0066 42EA0303 		orr	r3, r2, r3
 159              		.loc 2 277 0
 160 006a 3146     		mov	r1, r6
 161 006c 2246     		mov	r2, r4
 162              		.loc 2 275 0
 163 006e 2360     		str	r3, [r4, #0]
 164              		.loc 2 288 0
 165 0070 BDE87040 		pop	{r4, r5, r6, lr}
 166              		.loc 2 277 0
 167 0074 FFF7FEBF 		b	rtcSetAlarm
ARM GAS  C:\Users\DNIEL~1\AppData\Local\Temp\cc2Cya4E.s 			page 4


 168              	.LVL10:
 169              	.L6:
 170              		.loc 2 267 0 discriminator 1
 171 0078 1149     		ldr	r1, .L8+32
 172              	.LVL11:
 173 007a 1068     		ldr	r0, [r2, #0]
 174              	.LVL12:
 175 007c FFF7FEFF 		bl	strcmp
 176              	.LVL13:
 177 0080 0146     		mov	r1, r0
 178 0082 0028     		cmp	r0, #0
 179 0084 C5D1     		bne	.L3
 180              		.loc 2 268 0
 181 0086 0A4D     		ldr	r5, .L8+16
 182              	.LVL14:
 183 0088 0C48     		ldr	r0, .L8+28
 184 008a 2A46     		mov	r2, r5
 185 008c FFF7FEFF 		bl	rtcGetAlarm
 186              		.loc 2 269 0
 187 0090 0C49     		ldr	r1, .L8+36
 188 0092 2A68     		ldr	r2, [r5, #0]
 189 0094 0C4B     		ldr	r3, .L8+40
 190 0096 2046     		mov	r0, r4
 191              		.loc 2 288 0
 192 0098 BDE87040 		pop	{r4, r5, r6, lr}
 193              		.loc 2 269 0
 194 009c FFF7FEBF 		b	chprintf
 195              	.L9:
 196              		.align	2
 197              	.L8:
 198 00a0 34000000 		.word	.LC4
 199 00a4 48000000 		.word	.LC5
 200 00a8 60000000 		.word	.LC6
 201 00ac 30000000 		.word	.LC3
 202 00b0 00000000 		.word	.LANCHOR0
 203 00b4 67666666 		.word	1717986919
 204 00b8 00808080 		.word	-2139062272
 205 00bc 00000000 		.word	RTCD1
 206 00c0 00000000 		.word	.LC0
 207 00c4 04000000 		.word	.LC1
 208 00c8 0C000000 		.word	.LC2
 209              		.cfi_endproc
 210              	.LFE130:
 211              		.size	cmd_alarm, .-cmd_alarm
 212 00cc AFF30080 		.section	.text.cmd_date,"ax",%progbits
 213              		.align	2
 214              		.p2align 4,,15
 215              		.global	cmd_date
 216              		.thumb
 217              		.thumb_func
 218              		.type	cmd_date, %function
 219              	cmd_date:
 220              	.LFB127:
 221              		.loc 2 185 0
 222              		.cfi_startproc
 223              		@ args = 0, pretend = 0, frame = 56
 224              		@ frame_needed = 0, uses_anonymous_args = 0
ARM GAS  C:\Users\DNIEL~1\AppData\Local\Temp\cc2Cya4E.s 			page 5


 225              	.LVL15:
 226 0000 10B5     		push	{r4, lr}
 227              	.LCFI4:
 228              		.cfi_def_cfa_offset 8
 229 0002 0446     		mov	r4, r0
 230              		.cfi_offset 14, -4
 231              		.cfi_offset 4, -8
 232 0004 8EB0     		sub	sp, sp, #56
 233              	.LCFI5:
 234              		.cfi_def_cfa_offset 64
 235              		.loc 2 189 0
 236 0006 19B1     		cbz	r1, .L11
 237              		.loc 2 193 0
 238 0008 0129     		cmp	r1, #1
 239 000a 2CD0     		beq	.L15
 240              		.loc 2 207 0
 241 000c 0229     		cmp	r1, #2
 242 000e 16D0     		beq	.L16
 243              	.LVL16:
 244              	.L11:
 245              		.loc 2 222 0
 246 0010 2849     		ldr	r1, .L18
 247 0012 2046     		mov	r0, r4
 248 0014 FFF7FEFF 		bl	chprintf
 249              		.loc 2 223 0
 250 0018 2046     		mov	r0, r4
 251 001a 2749     		ldr	r1, .L18+4
 252 001c FFF7FEFF 		bl	chprintf
 253              		.loc 2 224 0
 254 0020 2046     		mov	r0, r4
 255 0022 2649     		ldr	r1, .L18+8
 256 0024 FFF7FEFF 		bl	chprintf
 257              		.loc 2 225 0
 258 0028 2046     		mov	r0, r4
 259 002a 2549     		ldr	r1, .L18+12
 260 002c FFF7FEFF 		bl	chprintf
 261              		.loc 2 226 0
 262 0030 2046     		mov	r0, r4
 263 0032 2449     		ldr	r1, .L18+16
 264 0034 244A     		ldr	r2, .L18+20
 265 0036 FFF7FEFF 		bl	chprintf
 266              	.L10:
 267              		.loc 2 228 0
 268 003a 0EB0     		add	sp, sp, #56
 269 003c 10BD     		pop	{r4, pc}
 270              	.LVL17:
 271              	.L16:
 272              		.loc 2 207 0 discriminator 1
 273 003e 1068     		ldr	r0, [r2, #0]
 274 0040 2249     		ldr	r1, .L18+24
 275              	.LVL18:
 276 0042 0192     		str	r2, [sp, #4]
 277 0044 FFF7FEFF 		bl	strcmp
 278              	.LVL19:
 279 0048 019A     		ldr	r2, [sp, #4]
 280              	.LVL20:
 281 004a 0028     		cmp	r0, #0
ARM GAS  C:\Users\DNIEL~1\AppData\Local\Temp\cc2Cya4E.s 			page 6


 282 004c E0D1     		bne	.L11
 283              		.loc 2 208 0
 284 004e 5068     		ldr	r0, [r2, #4]
 285 0050 FFF7FEFF 		bl	atol
 286              	.LVL21:
 287 0054 1E4A     		ldr	r2, .L18+28
 288              		.loc 2 209 0
 289 0056 0028     		cmp	r0, #0
 290              		.loc 2 208 0
 291 0058 0146     		mov	r1, r0
 292 005a 1060     		str	r0, [r2, #0]
 293              		.loc 2 209 0
 294 005c D8DD     		ble	.L11
 295              		.loc 2 210 0
 296 005e 1D48     		ldr	r0, .L18+32
 297 0060 FFF7FEFF 		bl	rtcSetTimeUnixSec
 298              		.loc 2 211 0
 299 0064 E9E7     		b	.L10
 300              	.LVL22:
 301              	.L15:
 302              		.loc 2 193 0 discriminator 1
 303 0066 1068     		ldr	r0, [r2, #0]
 304 0068 1B49     		ldr	r1, .L18+36
 305              	.LVL23:
 306 006a FFF7FEFF 		bl	strcmp
 307              	.LVL24:
 308 006e 0028     		cmp	r0, #0
 309 0070 CED1     		bne	.L11
 310              		.loc 2 194 0
 311 0072 1848     		ldr	r0, .L18+32
 312 0074 FFF7FEFF 		bl	rtcGetTimeUnixSec
 313 0078 154B     		ldr	r3, .L18+28
 314              		.loc 2 196 0
 315 007a B0F1FF3F 		cmp	r0, #-1
 316              		.loc 2 194 0
 317 007e 1860     		str	r0, [r3, #0]
 318              		.loc 2 196 0
 319 0080 13D0     		beq	.L17
 320              		.loc 2 200 0
 321 0082 0246     		mov	r2, r0
 322 0084 154B     		ldr	r3, .L18+40
 323 0086 1649     		ldr	r1, .L18+44
 324 0088 2046     		mov	r0, r4
 325 008a FFF7FEFF 		bl	chprintf
 326              		.loc 2 201 0
 327 008e 03A9     		add	r1, sp, #12
 328 0090 1048     		ldr	r0, .L18+32
 329 0092 FFF7FEFF 		bl	rtcGetTimeTm
 330              		.loc 2 202 0
 331 0096 03A8     		add	r0, sp, #12
 332 0098 FFF7FEFF 		bl	asctime
 333 009c 1149     		ldr	r1, .L18+48
 334 009e 124B     		ldr	r3, .L18+52
 335 00a0 0246     		mov	r2, r0
 336 00a2 2046     		mov	r0, r4
 337 00a4 FFF7FEFF 		bl	chprintf
 338 00a8 C7E7     		b	.L10
ARM GAS  C:\Users\DNIEL~1\AppData\Local\Temp\cc2Cya4E.s 			page 7


 339              	.L17:
 340              		.loc 2 197 0
 341 00aa 2046     		mov	r0, r4
 342 00ac 0F49     		ldr	r1, .L18+56
 343 00ae FFF7FEFF 		bl	chprintf
 344 00b2 C2E7     		b	.L10
 345              	.L19:
 346              		.align	2
 347              	.L18:
 348 00b4 D8000000 		.word	.LC11
 349 00b8 EC000000 		.word	.LC12
 350 00bc 00010000 		.word	.LC13
 351 00c0 30010000 		.word	.LC14
 352 00c4 70010000 		.word	.LC15
 353 00c8 74010000 		.word	.LC16
 354 00cc 30000000 		.word	.LC3
 355 00d0 00000000 		.word	.LANCHOR1
 356 00d4 00000000 		.word	RTCD1
 357 00d8 00000000 		.word	.LC0
 358 00dc A4000000 		.word	.LC8
 359 00e0 04000000 		.word	.LC1
 360 00e4 B4000000 		.word	.LC9
 361 00e8 BC000000 		.word	.LC10
 362 00ec 84000000 		.word	.LC7
 363              		.cfi_endproc
 364              	.LFE127:
 365              		.size	cmd_date, .-cmd_date
 366              		.section	.text.cmd_test,"ax",%progbits
 367              		.align	2
 368              		.p2align 4,,15
 369              		.global	cmd_test
 370              		.thumb
 371              		.thumb_func
 372              		.type	cmd_test, %function
 373              	cmd_test:
 374              	.LFB126:
 375              		.loc 2 165 0
 376              		.cfi_startproc
 377              		@ args = 0, pretend = 0, frame = 0
 378              		@ frame_needed = 0, uses_anonymous_args = 0
 379              	.LVL25:
 380 0000 10B5     		push	{r4, lr}
 381              	.LCFI6:
 382              		.cfi_def_cfa_offset 8
 383              		.loc 2 169 0
 384 0002 0029     		cmp	r1, #0
 385              		.loc 2 165 0
 386 0004 82B0     		sub	sp, sp, #8
 387              	.LCFI7:
 388              		.cfi_def_cfa_offset 16
 389              		.loc 2 165 0
 390 0006 0446     		mov	r4, r0
 391              		.cfi_offset 14, -4
 392              		.cfi_offset 4, -8
 393              		.loc 2 169 0
 394 0008 05DD     		ble	.L21
 395              		.loc 2 170 0
ARM GAS  C:\Users\DNIEL~1\AppData\Local\Temp\cc2Cya4E.s 			page 8


 396 000a 0E49     		ldr	r1, .L24
 397              	.LVL26:
 398              		.loc 2 180 0
 399 000c 02B0     		add	sp, sp, #8
 400 000e BDE81040 		pop	{r4, lr}
 401              		.loc 2 170 0
 402 0012 FFF7FEBF 		b	chprintf
 403              	.LVL27:
 404              	.L21:
 405              		.loc 2 173 0
 406 0016 0C49     		ldr	r1, .L24+4
 407              	.LVL28:
 408 0018 0C4B     		ldr	r3, .L24+8
 409 001a 8A69     		ldr	r2, [r1, #24]
 410              	.LVL29:
 411 001c 4FF4E871 		mov	r1, #464
 412 0020 9268     		ldr	r2, [r2, #8]
 413 0022 0090     		str	r0, [sp, #0]
 414 0024 0020     		movs	r0, #0
 415 0026 FFF7FEFF 		bl	chThdCreateFromHeap
 416              	.LVL30:
 417              		.loc 2 175 0
 418 002a 20B1     		cbz	r0, .L23
 419              		.loc 2 180 0
 420 002c 02B0     		add	sp, sp, #8
 421 002e BDE81040 		pop	{r4, lr}
 422              		.loc 2 179 0
 423 0032 FFF7FEBF 		b	chThdWait
 424              	.LVL31:
 425              	.L23:
 426              		.loc 2 176 0
 427 0036 0649     		ldr	r1, .L24+12
 428 0038 2046     		mov	r0, r4
 429              	.LVL32:
 430              		.loc 2 180 0
 431 003a 02B0     		add	sp, sp, #8
 432 003c BDE81040 		pop	{r4, lr}
 433              		.loc 2 176 0
 434 0040 FFF7FEBF 		b	chprintf
 435              	.L25:
 436              		.align	2
 437              	.L24:
 438 0044 80010000 		.word	.LC17
 439 0048 00000000 		.word	rlist
 440 004c 00000000 		.word	TestThread
 441 0050 90010000 		.word	.LC18
 442              		.cfi_endproc
 443              	.LFE126:
 444              		.size	cmd_test, .-cmd_test
 445 0054 AFF30080 		.section	.text.cmd_threads,"ax",%progbits
 445      AFF30080 
 445      AFF30080 
 446              		.align	2
 447              		.p2align 4,,15
 448              		.global	cmd_threads
 449              		.thumb
 450              		.thumb_func
ARM GAS  C:\Users\DNIEL~1\AppData\Local\Temp\cc2Cya4E.s 			page 9


 451              		.type	cmd_threads, %function
 452              	cmd_threads:
 453              	.LFB125:
 454              		.loc 2 145 0
 455              		.cfi_startproc
 456              		@ args = 0, pretend = 0, frame = 0
 457              		@ frame_needed = 0, uses_anonymous_args = 0
 458              	.LVL33:
 459 0000 F0B5     		push	{r4, r5, r6, r7, lr}
 460              	.LCFI8:
 461              		.cfi_def_cfa_offset 20
 462              		.loc 2 150 0
 463 0002 0029     		cmp	r1, #0
 464              		.loc 2 145 0
 465 0004 85B0     		sub	sp, sp, #20
 466              	.LCFI9:
 467              		.cfi_def_cfa_offset 40
 468              		.loc 2 145 0
 469 0006 0546     		mov	r5, r0
 470              		.cfi_offset 14, -4
 471              		.cfi_offset 7, -8
 472              		.cfi_offset 6, -12
 473              		.cfi_offset 5, -16
 474              		.cfi_offset 4, -20
 475              		.loc 2 150 0
 476 0008 05DD     		ble	.L27
 477              		.loc 2 151 0
 478 000a 1349     		ldr	r1, .L30
 479              	.LVL34:
 480              		.loc 2 163 0
 481 000c 05B0     		add	sp, sp, #20
 482 000e BDE8F040 		pop	{r4, r5, r6, r7, lr}
 483              		.loc 2 151 0
 484 0012 FFF7FEBF 		b	chprintf
 485              	.LVL35:
 486              	.L27:
 487              		.loc 2 154 0
 488 0016 1149     		ldr	r1, .L30+4
 489              	.LVL36:
 490 0018 114E     		ldr	r6, .L30+8
 491 001a FFF7FEFF 		bl	chprintf
 492              	.LVL37:
 493              		.loc 2 155 0
 494 001e FFF7FEFF 		bl	chRegFirstThread
 495 0022 0446     		mov	r4, r0
 496              	.LVL38:
 497              	.L28:
 498              		.loc 2 157 0 discriminator 1
 499 0024 A168     		ldr	r1, [r4, #8]
 500 0026 E368     		ldr	r3, [r4, #12]
 501 0028 206A     		ldr	r0, [r4, #32]
 502              	.LVL39:
 503 002a 0091     		str	r1, [sp, #0]
 504              		.loc 2 159 0 discriminator 1
 505 002c A27F     		ldrb	r2, [r4, #30]	@ zero_extendqisi2
 506              		.loc 2 157 0 discriminator 1
 507 002e 0D49     		ldr	r1, .L30+12
ARM GAS  C:\Users\DNIEL~1\AppData\Local\Temp\cc2Cya4E.s 			page 10


 508              		.loc 2 159 0 discriminator 1
 509 0030 571E     		subs	r7, r2, #1
 510              		.loc 2 157 0 discriminator 1
 511 0032 0197     		str	r7, [sp, #4]
 512 0034 227F     		ldrb	r2, [r4, #28]	@ zero_extendqisi2
 513 0036 0390     		str	r0, [sp, #12]
 514 0038 56F82270 		ldr	r7, [r6, r2, lsl #2]
 515 003c 2846     		mov	r0, r5
 516 003e 2246     		mov	r2, r4
 517 0040 0297     		str	r7, [sp, #8]
 518 0042 FFF7FEFF 		bl	chprintf
 519              		.loc 2 161 0 discriminator 1
 520 0046 2046     		mov	r0, r4
 521 0048 FFF7FEFF 		bl	chRegNextThread
 522              	.LVL40:
 523              		.loc 2 162 0 discriminator 1
 524 004c 0446     		mov	r4, r0
 525 004e 0028     		cmp	r0, #0
 526 0050 E8D1     		bne	.L28
 527              		.loc 2 163 0
 528 0052 05B0     		add	sp, sp, #20
 529 0054 F0BD     		pop	{r4, r5, r6, r7, pc}
 530              	.L31:
 531 0056 00BF     		.align	2
 532              	.L30:
 533 0058 A0010000 		.word	.LC19
 534 005c B4010000 		.word	.LC20
 535 0060 00000000 		.word	.LANCHOR2
 536 0064 E4010000 		.word	.LC21
 537              		.cfi_endproc
 538              	.LFE125:
 539              		.size	cmd_threads, .-cmd_threads
 540 0068 AFF30080 		.section	.text.cmd_mem,"ax",%progbits
 540      AFF30080 
 541              		.align	2
 542              		.p2align 4,,15
 543              		.global	cmd_mem
 544              		.thumb
 545              		.thumb_func
 546              		.type	cmd_mem, %function
 547              	cmd_mem:
 548              	.LFB124:
 549              		.loc 2 131 0
 550              		.cfi_startproc
 551              		@ args = 0, pretend = 0, frame = 8
 552              		@ frame_needed = 0, uses_anonymous_args = 0
 553              	.LVL41:
 554 0000 30B5     		push	{r4, r5, lr}
 555              	.LCFI10:
 556              		.cfi_def_cfa_offset 12
 557              		.loc 2 135 0
 558 0002 0029     		cmp	r1, #0
 559              		.loc 2 131 0
 560 0004 83B0     		sub	sp, sp, #12
 561              	.LCFI11:
 562              		.cfi_def_cfa_offset 24
 563              		.loc 2 131 0
ARM GAS  C:\Users\DNIEL~1\AppData\Local\Temp\cc2Cya4E.s 			page 11


 564 0006 0446     		mov	r4, r0
 565              		.cfi_offset 14, -4
 566              		.cfi_offset 5, -8
 567              		.cfi_offset 4, -12
 568              		.loc 2 135 0
 569 0008 04DD     		ble	.L33
 570              		.loc 2 136 0
 571 000a 0E49     		ldr	r1, .L35
 572              	.LVL42:
 573 000c FFF7FEFF 		bl	chprintf
 574              	.LVL43:
 575              	.L32:
 576              		.loc 2 143 0
 577 0010 03B0     		add	sp, sp, #12
 578 0012 30BD     		pop	{r4, r5, pc}
 579              	.LVL44:
 580              	.L33:
 581              		.loc 2 139 0
 582 0014 01A9     		add	r1, sp, #4
 583              	.LVL45:
 584 0016 0020     		movs	r0, #0
 585 0018 FFF7FEFF 		bl	chHeapStatus
 586              	.LVL46:
 587 001c 0546     		mov	r5, r0
 588              	.LVL47:
 589              		.loc 2 140 0
 590 001e FFF7FEFF 		bl	chCoreStatus
 591              	.LVL48:
 592 0022 0949     		ldr	r1, .L35+4
 593 0024 0246     		mov	r2, r0
 594 0026 2046     		mov	r0, r4
 595 0028 FFF7FEFF 		bl	chprintf
 596              		.loc 2 141 0
 597 002c 2046     		mov	r0, r4
 598 002e 2A46     		mov	r2, r5
 599 0030 0649     		ldr	r1, .L35+8
 600 0032 FFF7FEFF 		bl	chprintf
 601              		.loc 2 142 0
 602 0036 2046     		mov	r0, r4
 603 0038 0549     		ldr	r1, .L35+12
 604              	.LVL49:
 605 003a 019A     		ldr	r2, [sp, #4]
 606 003c FFF7FEFF 		bl	chprintf
 607 0040 E6E7     		b	.L32
 608              	.L36:
 609 0042 00BF     		.align	2
 610              	.L35:
 611 0044 04020000 		.word	.LC22
 612 0048 14020000 		.word	.LC23
 613 004c 34020000 		.word	.LC24
 614 0050 4C020000 		.word	.LC25
 615              		.cfi_endproc
 616              	.LFE124:
 617              		.size	cmd_mem, .-cmd_mem
 618 0054 AFF30080 		.section	.text._getpid,"ax",%progbits
 618      AFF30080 
 618      AFF30080 
ARM GAS  C:\Users\DNIEL~1\AppData\Local\Temp\cc2Cya4E.s 			page 12


 619              		.align	2
 620              		.p2align 4,,15
 621              		.global	_getpid
 622              		.thumb
 623              		.thumb_func
 624              		.type	_getpid, %function
 625              	_getpid:
 626              	.LFB119:
 627              		.loc 2 33 0
 628              		.cfi_startproc
 629              		@ args = 0, pretend = 0, frame = 0
 630              		@ frame_needed = 0, uses_anonymous_args = 0
 631              		@ link register save eliminated.
 632              		.loc 2 33 0
 633 0000 0120     		movs	r0, #1
 634 0002 7047     		bx	lr
 635              		.cfi_endproc
 636              	.LFE119:
 637              		.size	_getpid, .-_getpid
 638 0004 AFF30080 		.section	.text._exit,"ax",%progbits
 638      AFF30080 
 638      AFF30080 
 639              		.align	2
 640              		.p2align 4,,15
 641              		.global	_exit
 642              		.thumb
 643              		.thumb_func
 644              		.type	_exit, %function
 645              	_exit:
 646              	.LFB120:
 647              		.loc 2 35 0
 648              		.cfi_startproc
 649              		@ Volatile: function does not return.
 650              		@ args = 0, pretend = 0, frame = 0
 651              		@ frame_needed = 0, uses_anonymous_args = 0
 652              		@ link register save eliminated.
 653              	.LVL50:
 654              		.loc 2 35 0
 655 0000 7047     		bx	lr
 656              		.cfi_endproc
 657              	.LFE120:
 658              		.size	_exit, .-_exit
 659 0002 00BFAFF3 		.section	.text._kill,"ax",%progbits
 659      0080AFF3 
 659      0080AFF3 
 659      0080
 660              		.align	2
 661              		.p2align 4,,15
 662              		.global	_kill
 663              		.thumb
 664              		.thumb_func
 665              		.type	_kill, %function
 666              	_kill:
 667              	.LFB121:
 668              		.loc 2 40 0
 669              		.cfi_startproc
 670              		@ args = 0, pretend = 0, frame = 0
ARM GAS  C:\Users\DNIEL~1\AppData\Local\Temp\cc2Cya4E.s 			page 13


 671              		@ frame_needed = 0, uses_anonymous_args = 0
 672              		@ link register save eliminated.
 673              	.LVL51:
 674              		.loc 2 43 0
 675 0000 024B     		ldr	r3, .L40
 676 0002 1622     		movs	r2, #22
 677 0004 1A60     		str	r2, [r3, #0]
 678              		.loc 2 45 0
 679 0006 4FF0FF30 		mov	r0, #-1
 680              	.LVL52:
 681 000a 7047     		bx	lr
 682              	.L41:
 683              		.align	2
 684              	.L40:
 685 000c 00000000 		.word	errno
 686              		.cfi_endproc
 687              	.LFE121:
 688              		.size	_kill, .-_kill
 689              		.section	.text.consoleInit,"ax",%progbits
 690              		.align	2
 691              		.p2align 4,,15
 692              		.global	consoleInit
 693              		.thumb
 694              		.thumb_func
 695              		.type	consoleInit, %function
 696              	consoleInit:
 697              	.LFB122:
 698              		.loc 2 114 0
 699              		.cfi_startproc
 700              		@ args = 0, pretend = 0, frame = 0
 701              		@ frame_needed = 0, uses_anonymous_args = 0
 702 0000 08B5     		push	{r3, lr}
 703              	.LCFI12:
 704              		.cfi_def_cfa_offset 8
 705              		.loc 2 116 0
 706 0002 0548     		ldr	r0, .L43
 707 0004 0549     		ldr	r1, .L43+4
 708              		.cfi_offset 14, -4
 709              		.cfi_offset 3, -8
 710 0006 FFF7FEFF 		bl	sdStart
 711              		.loc 2 117 0
 712 000a FFF7FEFF 		bl	shellInit
 713              		.loc 2 118 0
 714 000e 044B     		ldr	r3, .L43+8
 715 0010 0022     		movs	r2, #0
 716 0012 1A60     		str	r2, [r3, #0]
 717              		.loc 2 119 0
 718 0014 08BD     		pop	{r3, pc}
 719              	.L44:
 720 0016 00BF     		.align	2
 721              	.L43:
 722 0018 00000000 		.word	SD1
 723 001c 00000000 		.word	.LANCHOR3
 724 0020 00000000 		.word	.LANCHOR4
 725              		.cfi_endproc
 726              	.LFE122:
 727              		.size	consoleInit, .-consoleInit
ARM GAS  C:\Users\DNIEL~1\AppData\Local\Temp\cc2Cya4E.s 			page 14


 728 0024 AFF30080 		.section	.text.consoleStart,"ax",%progbits
 728      AFF30080 
 728      AFF30080 
 729              		.align	2
 730              		.p2align 4,,15
 731              		.global	consoleStart
 732              		.thumb
 733              		.thumb_func
 734              		.type	consoleStart, %function
 735              	consoleStart:
 736              	.LFB123:
 737              		.loc 2 121 0
 738              		.cfi_startproc
 739              		@ args = 0, pretend = 0, frame = 0
 740              		@ frame_needed = 0, uses_anonymous_args = 0
 741 0000 10B5     		push	{r4, lr}
 742              	.LCFI13:
 743              		.cfi_def_cfa_offset 8
 744              		.loc 2 122 0
 745 0002 0A4C     		ldr	r4, .L50
 746              		.cfi_offset 14, -4
 747              		.cfi_offset 4, -8
 748 0004 2068     		ldr	r0, [r4, #0]
 749 0006 40B1     		cbz	r0, .L48
 750              		.loc 2 125 0
 751 0008 037F     		ldrb	r3, [r0, #28]	@ zero_extendqisi2
 752 000a 0E2B     		cmp	r3, #14
 753 000c 00D0     		beq	.L49
 754 000e 10BD     		pop	{r4, pc}
 755              	.L49:
 756              		.loc 2 126 0
 757 0010 FFF7FEFF 		bl	chThdRelease
 758              		.loc 2 127 0
 759 0014 0020     		movs	r0, #0
 760 0016 2060     		str	r0, [r4, #0]
 761 0018 10BD     		pop	{r4, pc}
 762              	.L48:
 763              		.loc 2 123 0
 764 001a 0548     		ldr	r0, .L50+4
 765 001c 4FF41D61 		mov	r1, #2512
 766 0020 4022     		movs	r2, #64
 767 0022 FFF7FEFF 		bl	shellCreate
 768 0026 2060     		str	r0, [r4, #0]
 769 0028 10BD     		pop	{r4, pc}
 770              	.L51:
 771 002a 00BF     		.align	2
 772              	.L50:
 773 002c 00000000 		.word	.LANCHOR4
 774 0030 00000000 		.word	.LANCHOR5
 775              		.cfi_endproc
 776              	.LFE123:
 777              		.size	consoleStart, .-consoleStart
 778 0034 AFF30080 		.section	.text.func_sleep,"ax",%progbits
 778      AFF30080 
 778      AFF30080 
 779              		.align	2
 780              		.p2align 4,,15
ARM GAS  C:\Users\DNIEL~1\AppData\Local\Temp\cc2Cya4E.s 			page 15


 781              		.global	func_sleep
 782              		.thumb
 783              		.thumb_func
 784              		.type	func_sleep, %function
 785              	func_sleep:
 786              	.LFB128:
 787              		.loc 2 233 0
 788              		.cfi_startproc
 789              		@ args = 0, pretend = 0, frame = 0
 790              		@ frame_needed = 0, uses_anonymous_args = 0
 791              		@ link register save eliminated.
 792              	.LBB5:
 793              		.loc 2 234 0
 794 0000 2023     		movs	r3, #32
 795              	.LVL53:
 796              	@ 234 "src/console.c" 1
 797 0002 83F31188 		msr     BASEPRI, r3
 798              	@ 0 "" 2
 799              	.LVL54:
 800              		.thumb
 801              	.LBE5:
 802              		.loc 2 235 0
 803 0006 0849     		ldr	r1, .L53
 804              		.loc 2 236 0
 805 0008 084A     		ldr	r2, .L53+4
 806              		.loc 2 235 0
 807 000a 0869     		ldr	r0, [r1, #16]
 808              		.loc 2 237 0
 809 000c 084B     		ldr	r3, .L53+8
 810              	.LVL55:
 811              		.loc 2 235 0
 812 000e 40F00400 		orr	r0, r0, #4
 813 0012 0861     		str	r0, [r1, #16]
 814              		.loc 2 236 0
 815 0014 1068     		ldr	r0, [r2, #0]
 816 0016 40F00F01 		orr	r1, r0, #15
 817 001a 1160     		str	r1, [r2, #0]
 818              		.loc 2 237 0
 819 001c D868     		ldr	r0, [r3, #12]
 820 001e 20F47C52 		bic	r2, r0, #16128
 821 0022 DA60     		str	r2, [r3, #12]
 822              	.LBB6:
 823              	.LBB7:
 824              		.file 3 "../../../ChibiOS/os/ports/common/ARMCMx/CMSIS/include/core_cmInstr.h"
 825              		.loc 3 299 0
 826              	@ 299 "../../../ChibiOS/os/ports/common/ARMCMx/CMSIS/include/core_cmInstr.h" 1
 827 0024 30BF     		wfi
 828              	@ 0 "" 2
 829              		.thumb
 830              	.LBE7:
 831              	.LBE6:
 832              		.loc 2 240 0
 833 0026 7047     		bx	lr
 834              	.L54:
 835              		.align	2
 836              	.L53:
 837 0028 00ED00E0 		.word	-536810240
ARM GAS  C:\Users\DNIEL~1\AppData\Local\Temp\cc2Cya4E.s 			page 16


 838 002c 00700040 		.word	1073770496
 839 0030 00280040 		.word	1073752064
 840              		.cfi_endproc
 841              	.LFE128:
 842              		.size	func_sleep, .-func_sleep
 843 0034 AFF30080 		.section	.text.cmd_sleep,"ax",%progbits
 843      AFF30080 
 843      AFF30080 
 844              		.align	2
 845              		.p2align 4,,15
 846              		.global	cmd_sleep
 847              		.thumb
 848              		.thumb_func
 849              		.type	cmd_sleep, %function
 850              	cmd_sleep:
 851              	.LFB129:
 852              		.loc 2 242 0
 853              		.cfi_startproc
 854              		@ args = 0, pretend = 0, frame = 0
 855              		@ frame_needed = 0, uses_anonymous_args = 0
 856              	.LVL56:
 857              		.loc 2 244 0
 858 0000 0029     		cmp	r1, #0
 859              		.loc 2 242 0
 860 0002 10B5     		push	{r4, lr}
 861              	.LCFI14:
 862              		.cfi_def_cfa_offset 8
 863              		.loc 2 244 0
 864 0004 04DD     		ble	.L56
 865              		.cfi_offset 14, -4
 866              		.cfi_offset 4, -8
 867              		.loc 2 245 0
 868 0006 0749     		ldr	r1, .L57
 869              	.LVL57:
 870              		.loc 2 254 0
 871 0008 BDE81040 		pop	{r4, lr}
 872              		.loc 2 245 0
 873 000c FFF7FEBF 		b	chprintf
 874              	.LVL58:
 875              	.L56:
 876              		.loc 2 248 0
 877 0010 0549     		ldr	r1, .L57+4
 878              	.LVL59:
 879 0012 FFF7FEFF 		bl	chprintf
 880              	.LVL60:
 881              		.loc 2 250 0
 882 0016 C820     		movs	r0, #200
 883 0018 FFF7FEFF 		bl	chThdSleep
 884              		.loc 2 254 0
 885 001c BDE81040 		pop	{r4, lr}
 886              		.loc 2 253 0
 887 0020 FFF7FEBF 		b	func_sleep
 888              	.L58:
 889              		.align	2
 890              	.L57:
 891 0024 6C020000 		.word	.LC26
 892 0028 7C020000 		.word	.LC27
ARM GAS  C:\Users\DNIEL~1\AppData\Local\Temp\cc2Cya4E.s 			page 17


 893              		.cfi_endproc
 894              	.LFE129:
 895              		.size	cmd_sleep, .-cmd_sleep
 896              		.global	consoleThread
 897 002c AFF30080 		.section	.rodata.commands,"a",%progbits
 898              		.align	2
 899              		.type	commands, %object
 900              		.size	commands, 280
 901              	commands:
 902 0000 14030000 		.word	.LC43
 903 0004 00000000 		.word	cmd_mem
 904 0008 18030000 		.word	.LC44
 905 000c 00000000 		.word	cmd_threads
 906 0010 20030000 		.word	.LC45
 907 0014 00000000 		.word	cmd_test
 908 0018 28030000 		.word	.LC46
 909 001c 00000000 		.word	cmd_date
 910 0020 30030000 		.word	.LC47
 911 0024 00000000 		.word	cmd_alarm
 912 0028 38030000 		.word	.LC48
 913 002c 00000000 		.word	cmd_sleep
 914 0030 40030000 		.word	.LC49
 915 0034 00000000 		.word	cmd_mountsd
 916 0038 48030000 		.word	.LC50
 917 003c 00000000 		.word	cmd_umountsd
 918 0040 54030000 		.word	.LC51
 919 0044 00000000 		.word	cmd_tree
 920 0048 5C030000 		.word	.LC52
 921 004c 00000000 		.word	cmd_cat
 922 0050 60030000 		.word	.LC53
 923 0054 00000000 		.word	cmd_sdiotest
 924 0058 6C030000 		.word	.LC54
 925 005c 00000000 		.word	cmd_testlog
 926 0060 74030000 		.word	.LC55
 927 0064 00000000 		.word	cmd_eepromTest
 928 0068 80030000 		.word	.LC56
 929 006c 00000000 		.word	cmd_can_commvalues
 930 0070 8C030000 		.word	.LC57
 931 0074 00000000 		.word	cmd_canall
 932 0078 94030000 		.word	.LC58
 933 007c 00000000 		.word	cmd_canmppttest
 934 0080 A0030000 		.word	.LC59
 935 0084 00000000 		.word	cmd_candata
 936 0088 A8030000 		.word	.LC60
 937 008c 00000000 		.word	cmd_lightvalues
 938 0090 B4030000 		.word	.LC61
 939 0094 00000000 		.word	cmd_lightblink
 940 0098 BC030000 		.word	.LC62
 941 009c 00000000 		.word	cmd_getLight
 942 00a0 C8030000 		.word	.LC63
 943 00a4 00000000 		.word	cmd_speedvalues
 944 00a8 D4030000 		.word	.LC64
 945 00ac 00000000 		.word	cmd_measvalues
 946 00b0 E0030000 		.word	.LC65
 947 00b4 00000000 		.word	cmd_getThrottle
 948 00b8 EC030000 		.word	.LC66
 949 00bc 00000000 		.word	cmd_getRegenBrake
ARM GAS  C:\Users\DNIEL~1\AppData\Local\Temp\cc2Cya4E.s 			page 18


 950 00c0 F4030000 		.word	.LC67
 951 00c4 00000000 		.word	cmd_brakevalues
 952 00c8 00040000 		.word	.LC68
 953 00cc 00000000 		.word	cmd_cruisevalues
 954 00d0 10040000 		.word	.LC69
 955 00d4 00000000 		.word	cmd_setcruisevalues
 956 00d8 20040000 		.word	.LC70
 957 00dc 00000000 		.word	cmd_cruise
 958 00e0 28040000 		.word	.LC71
 959 00e4 00000000 		.word	cmdfrappans_dspmessages
 960 00e8 30040000 		.word	.LC72
 961 00ec 00000000 		.word	cmd_lcSleep
 962 00f0 38040000 		.word	.LC73
 963 00f4 00000000 		.word	cmd_canmonitor
 964 00f8 44040000 		.word	.LC74
 965 00fc 00000000 		.word	cmd_dspvalues
 966 0100 50040000 		.word	.LC75
 967 0104 00000000 		.word	cmd_buttonvalues
 968 0108 60040000 		.word	.LC76
 969 010c 00000000 		.word	cmd_eepromAllData
 970 0110 00000000 		.word	0
 971 0114 00000000 		.word	0
 972              		.section	.bss.unix_time,"aw",%nobits
 973              		.align	2
 974              		.set	.LANCHOR1,. + 0
 975              		.type	unix_time, %object
 976              		.size	unix_time, 4
 977              	unix_time:
 978 0000 00000000 		.space	4
 979              		.section	.rodata.shell_cfg1,"a",%progbits
 980              		.align	2
 981              		.set	.LANCHOR5,. + 0
 982              		.type	shell_cfg1, %object
 983              		.size	shell_cfg1, 8
 984              	shell_cfg1:
 985 0000 00000000 		.word	SD1
 986 0004 00000000 		.word	commands
 987              		.section	.bss.consoleThread,"aw",%nobits
 988              		.align	2
 989              		.set	.LANCHOR4,. + 0
 990              		.type	consoleThread, %object
 991              		.size	consoleThread, 4
 992              	consoleThread:
 993 0000 00000000 		.space	4
 994              		.section	.bss.alarmspec,"aw",%nobits
 995              		.align	2
 996              		.set	.LANCHOR0,. + 0
 997              		.type	alarmspec, %object
 998              		.size	alarmspec, 4
 999              	alarmspec:
 1000 0000 00000000 		.space	4
 1001              		.section	.rodata.str1.4,"aMS",%progbits,1
 1002              		.align	2
 1003              	.LC0:
 1004 0000 67657400 		.ascii	"get\000"
 1005              	.LC1:
 1006 0004 25442573 		.ascii	"%D%s\000"
ARM GAS  C:\Users\DNIEL~1\AppData\Local\Temp\cc2Cya4E.s 			page 19


 1006      00
 1007 0009 000000   		.space	3
 1008              	.LC2:
 1009 000c 202D2061 		.ascii	" - alarm in STM internal format\015\012\000"
 1009      6C61726D 
 1009      20696E20 
 1009      53544D20 
 1009      696E7465 
 1010 002e 0000     		.space	2
 1011              	.LC3:
 1012 0030 73657400 		.ascii	"set\000"
 1013              	.LC4:
 1014 0034 55736167 		.ascii	"Usage: alarm get\015\012\000"
 1014      653A2061 
 1014      6C61726D 
 1014      20676574 
 1014      0D0A00
 1015 0047 00       		.space	1
 1016              	.LC5:
 1017 0048 20202020 		.ascii	"       alarm set N\015\012\000"
 1017      20202061 
 1017      6C61726D 
 1017      20736574 
 1017      204E0D0A 
 1018 005d 000000   		.space	3
 1019              	.LC6:
 1020 0060 77686572 		.ascii	"where N is alarm time in seconds\015\012\000"
 1020      65204E20 
 1020      69732061 
 1020      6C61726D 
 1020      2074696D 
 1021 0083 00       		.space	1
 1022              	.LC7:
 1023 0084 696E636F 		.ascii	"incorrect time in RTC cell\015\012\000"
 1023      72726563 
 1023      74207469 
 1023      6D652069 
 1023      6E205254 
 1024 00a1 000000   		.space	3
 1025              	.LC8:
 1026 00a4 202D2075 		.ascii	" - unix time\015\012\000"
 1026      6E697820 
 1026      74696D65 
 1026      0D0A00
 1027 00b3 00       		.space	1
 1028              	.LC9:
 1029 00b4 25732573 		.ascii	"%s%s\000"
 1029      00
 1030 00b9 000000   		.space	3
 1031              	.LC10:
 1032 00bc 202D2066 		.ascii	" - formatted time string\015\012\000"
 1032      6F726D61 
 1032      74746564 
 1032      2074696D 
 1032      65207374 
 1033 00d7 00       		.space	1
 1034              	.LC11:
ARM GAS  C:\Users\DNIEL~1\AppData\Local\Temp\cc2Cya4E.s 			page 20


 1035 00d8 55736167 		.ascii	"Usage: date get\015\012\000"
 1035      653A2064 
 1035      61746520 
 1035      6765740D 
 1035      0A00
 1036 00ea 0000     		.space	2
 1037              	.LC12:
 1038 00ec 20202020 		.ascii	"       date set N\015\012\000"
 1038      20202064 
 1038      61746520 
 1038      73657420 
 1038      4E0D0A00 
 1039              	.LC13:
 1040 0100 77686572 		.ascii	"where N is time in seconds sins Unix epoch\015\012\000"
 1040      65204E20 
 1040      69732074 
 1040      696D6520 
 1040      696E2073 
 1041 012d 000000   		.space	3
 1042              	.LC14:
 1043 0130 796F7520 		.ascii	"you can get current N value from unix console by th"
 1043      63616E20 
 1043      67657420 
 1043      63757272 
 1043      656E7420 
 1044 0163 6520636F 		.ascii	"e command\015\012\000"
 1044      6D6D616E 
 1044      640D0A00 
 1045 016f 00       		.space	1
 1046              	.LC15:
 1047 0170 257300   		.ascii	"%s\000"
 1048 0173 00       		.space	1
 1049              	.LC16:
 1050 0174 64617465 		.ascii	"date +%s\015\012\000"
 1050      202B2573 
 1050      0D0A00
 1051 017f 00       		.space	1
 1052              	.LC17:
 1053 0180 55736167 		.ascii	"Usage: test\015\012\000"
 1053      653A2074 
 1053      6573740D 
 1053      0A00
 1054 018e 0000     		.space	2
 1055              	.LC18:
 1056 0190 6F757420 		.ascii	"out of memory\015\012\000"
 1056      6F66206D 
 1056      656D6F72 
 1056      790D0A00 
 1057              	.LC19:
 1058 01a0 55736167 		.ascii	"Usage: threads\015\012\000"
 1058      653A2074 
 1058      68726561 
 1058      64730D0A 
 1058      00
 1059 01b1 000000   		.space	3
 1060              	.LC20:
 1061 01b4 20202020 		.ascii	"    addr    stack prio refs     state time\015\012\000"
ARM GAS  C:\Users\DNIEL~1\AppData\Local\Temp\cc2Cya4E.s 			page 21


 1061      61646472 
 1061      20202020 
 1061      73746163 
 1061      6B207072 
 1062 01e1 000000   		.space	3
 1063              	.LC21:
 1064 01e4 252E386C 		.ascii	"%.8lx %.8lx %4lu %4lu %9s %lu\015\012\000"
 1064      7820252E 
 1064      386C7820 
 1064      25346C75 
 1064      2025346C 
 1065              	.LC22:
 1066 0204 55736167 		.ascii	"Usage: mem\015\012\000"
 1066      653A206D 
 1066      656D0D0A 
 1066      00
 1067 0211 000000   		.space	3
 1068              	.LC23:
 1069 0214 636F7265 		.ascii	"core free memory : %u bytes\015\012\000"
 1069      20667265 
 1069      65206D65 
 1069      6D6F7279 
 1069      203A2025 
 1070 0232 0000     		.space	2
 1071              	.LC24:
 1072 0234 68656170 		.ascii	"heap fragments   : %u\015\012\000"
 1072      20667261 
 1072      676D656E 
 1072      74732020 
 1072      203A2025 
 1073              	.LC25:
 1074 024c 68656170 		.ascii	"heap free total  : %u bytes\015\012\000"
 1074      20667265 
 1074      6520746F 
 1074      74616C20 
 1074      203A2025 
 1075 026a 0000     		.space	2
 1076              	.LC26:
 1077 026c 55736167 		.ascii	"Usage: sleep\015\012\000"
 1077      653A2073 
 1077      6C656570 
 1077      0D0A00
 1078 027b 00       		.space	1
 1079              	.LC27:
 1080 027c 476F696E 		.ascii	"Going to sleep.\015\012\000"
 1080      6720746F 
 1080      20736C65 
 1080      65702E0D 
 1080      0A00
 1081 028e 0000     		.space	2
 1082              	.LC28:
 1083 0290 52454144 		.ascii	"READY\000"
 1083      5900
 1084 0296 0000     		.space	2
 1085              	.LC29:
 1086 0298 43555252 		.ascii	"CURRENT\000"
 1086      454E5400 
ARM GAS  C:\Users\DNIEL~1\AppData\Local\Temp\cc2Cya4E.s 			page 22


 1087              	.LC30:
 1088 02a0 53555350 		.ascii	"SUSPENDED\000"
 1088      454E4445 
 1088      4400
 1089 02aa 0000     		.space	2
 1090              	.LC31:
 1091 02ac 57545345 		.ascii	"WTSEM\000"
 1091      4D00
 1092 02b2 0000     		.space	2
 1093              	.LC32:
 1094 02b4 57544D54 		.ascii	"WTMTX\000"
 1094      5800
 1095 02ba 0000     		.space	2
 1096              	.LC33:
 1097 02bc 5754434F 		.ascii	"WTCOND\000"
 1097      4E4400
 1098 02c3 00       		.space	1
 1099              	.LC34:
 1100 02c4 534C4545 		.ascii	"SLEEPING\000"
 1100      50494E47 
 1100      00
 1101 02cd 000000   		.space	3
 1102              	.LC35:
 1103 02d0 57544558 		.ascii	"WTEXIT\000"
 1103      495400
 1104 02d7 00       		.space	1
 1105              	.LC36:
 1106 02d8 57544F52 		.ascii	"WTOREVT\000"
 1106      45565400 
 1107              	.LC37:
 1108 02e0 5754414E 		.ascii	"WTANDEVT\000"
 1108      44455654 
 1108      00
 1109 02e9 000000   		.space	3
 1110              	.LC38:
 1111 02ec 534E444D 		.ascii	"SNDMSGQ\000"
 1111      53475100 
 1112              	.LC39:
 1113 02f4 534E444D 		.ascii	"SNDMSG\000"
 1113      534700
 1114 02fb 00       		.space	1
 1115              	.LC40:
 1116 02fc 57544D53 		.ascii	"WTMSG\000"
 1116      4700
 1117 0302 0000     		.space	2
 1118              	.LC41:
 1119 0304 57545155 		.ascii	"WTQUEUE\000"
 1119      45554500 
 1120              	.LC42:
 1121 030c 46494E41 		.ascii	"FINAL\000"
 1121      4C00
 1122 0312 0000     		.space	2
 1123              	.LC43:
 1124 0314 6D656D00 		.ascii	"mem\000"
 1125              	.LC44:
 1126 0318 74687265 		.ascii	"threads\000"
 1126      61647300 
ARM GAS  C:\Users\DNIEL~1\AppData\Local\Temp\cc2Cya4E.s 			page 23


 1127              	.LC45:
 1128 0320 74657374 		.ascii	"test\000"
 1128      00
 1129 0325 000000   		.space	3
 1130              	.LC46:
 1131 0328 64617465 		.ascii	"date\000"
 1131      00
 1132 032d 000000   		.space	3
 1133              	.LC47:
 1134 0330 616C6172 		.ascii	"alarm\000"
 1134      6D00
 1135 0336 0000     		.space	2
 1136              	.LC48:
 1137 0338 736C6565 		.ascii	"sleep\000"
 1137      7000
 1138 033e 0000     		.space	2
 1139              	.LC49:
 1140 0340 6D6F756E 		.ascii	"mountsd\000"
 1140      74736400 
 1141              	.LC50:
 1142 0348 756D6F75 		.ascii	"umountsd\000"
 1142      6E747364 
 1142      00
 1143 0351 000000   		.space	3
 1144              	.LC51:
 1145 0354 74726565 		.ascii	"tree\000"
 1145      00
 1146 0359 000000   		.space	3
 1147              	.LC52:
 1148 035c 63617400 		.ascii	"cat\000"
 1149              	.LC53:
 1150 0360 7364696F 		.ascii	"sdiotest\000"
 1150      74657374 
 1150      00
 1151 0369 000000   		.space	3
 1152              	.LC54:
 1153 036c 74657374 		.ascii	"testlog\000"
 1153      6C6F6700 
 1154              	.LC55:
 1155 0374 65657072 		.ascii	"eepromtest\000"
 1155      6F6D7465 
 1155      737400
 1156 037f 00       		.space	1
 1157              	.LC56:
 1158 0380 63616E76 		.ascii	"canvalues\000"
 1158      616C7565 
 1158      7300
 1159 038a 0000     		.space	2
 1160              	.LC57:
 1161 038c 63616E61 		.ascii	"canall\000"
 1161      6C6C00
 1162 0393 00       		.space	1
 1163              	.LC58:
 1164 0394 63616E6D 		.ascii	"canmppttest\000"
 1164      70707474 
 1164      65737400 
 1165              	.LC59:
ARM GAS  C:\Users\DNIEL~1\AppData\Local\Temp\cc2Cya4E.s 			page 24


 1166 03a0 63616E64 		.ascii	"candata\000"
 1166      61746100 
 1167              	.LC60:
 1168 03a8 6C696768 		.ascii	"lightvalues\000"
 1168      7476616C 
 1168      75657300 
 1169              	.LC61:
 1170 03b4 6C696768 		.ascii	"light\000"
 1170      7400
 1171 03ba 0000     		.space	2
 1172              	.LC62:
 1173 03bc 6765746C 		.ascii	"getlight\000"
 1173      69676874 
 1173      00
 1174 03c5 000000   		.space	3
 1175              	.LC63:
 1176 03c8 73706565 		.ascii	"speedvalues\000"
 1176      6476616C 
 1176      75657300 
 1177              	.LC64:
 1178 03d4 6D656173 		.ascii	"measvalues\000"
 1178      76616C75 
 1178      657300
 1179 03df 00       		.space	1
 1180              	.LC65:
 1181 03e0 7468726F 		.ascii	"throttle\000"
 1181      74746C65 
 1181      00
 1182 03e9 000000   		.space	3
 1183              	.LC66:
 1184 03ec 6272616B 		.ascii	"brake\000"
 1184      6500
 1185 03f2 0000     		.space	2
 1186              	.LC67:
 1187 03f4 6272616B 		.ascii	"brakevalues\000"
 1187      6576616C 
 1187      75657300 
 1188              	.LC68:
 1189 0400 63727569 		.ascii	"cruisevalues\000"
 1189      73657661 
 1189      6C756573 
 1189      00
 1190 040d 000000   		.space	3
 1191              	.LC69:
 1192 0410 73657463 		.ascii	"setcruisevalues\000"
 1192      72756973 
 1192      6576616C 
 1192      75657300 
 1193              	.LC70:
 1194 0420 63727569 		.ascii	"cruise\000"
 1194      736500
 1195 0427 00       		.space	1
 1196              	.LC71:
 1197 0428 64627368 		.ascii	"dbshow\000"
 1197      6F7700
 1198 042f 00       		.space	1
 1199              	.LC72:
ARM GAS  C:\Users\DNIEL~1\AppData\Local\Temp\cc2Cya4E.s 			page 25


 1200 0430 6C63736C 		.ascii	"lcsleep\000"
 1200      65657000 
 1201              	.LC73:
 1202 0438 63616E6D 		.ascii	"canmonitor\000"
 1202      6F6E6974 
 1202      6F7200
 1203 0443 00       		.space	1
 1204              	.LC74:
 1205 0444 64737076 		.ascii	"dspvalues\000"
 1205      616C7565 
 1205      7300
 1206 044e 0000     		.space	2
 1207              	.LC75:
 1208 0450 62757474 		.ascii	"buttonvalues\000"
 1208      6F6E7661 
 1208      6C756573 
 1208      00
 1209 045d 000000   		.space	3
 1210              	.LC76:
 1211 0460 65657072 		.ascii	"eepromall\000"
 1211      6F6D616C 
 1211      6C00
 1212 046a 0000     		.section	.rodata.states.10069,"a",%progbits
 1213              		.align	2
 1214              		.set	.LANCHOR2,. + 0
 1215              		.type	states.10069, %object
 1216              		.size	states.10069, 60
 1217              	states.10069:
 1218 0000 90020000 		.word	.LC28
 1219 0004 98020000 		.word	.LC29
 1220 0008 A0020000 		.word	.LC30
 1221 000c AC020000 		.word	.LC31
 1222 0010 B4020000 		.word	.LC32
 1223 0014 BC020000 		.word	.LC33
 1224 0018 C4020000 		.word	.LC34
 1225 001c D0020000 		.word	.LC35
 1226 0020 D8020000 		.word	.LC36
 1227 0024 E0020000 		.word	.LC37
 1228 0028 EC020000 		.word	.LC38
 1229 002c F4020000 		.word	.LC39
 1230 0030 FC020000 		.word	.LC40
 1231 0034 04030000 		.word	.LC41
 1232 0038 0C030000 		.word	.LC42
 1233              		.section	.data.ser_cfg,"aw",%progbits
 1234              		.align	2
 1235              		.set	.LANCHOR3,. + 0
 1236              		.type	ser_cfg, %object
 1237              		.size	ser_cfg, 12
 1238              	ser_cfg:
 1239 0000 00C20100 		.word	115200
 1240 0004 0000     		.short	0
 1241 0006 0000     		.short	0
 1242 0008 0000     		.short	0
 1243 000a 0000     		.space	2
 1244              		.text
 1245              	.Letext0: