ARM GAS  C:\Users\srich\AppData\Local\Temp\cc32e3J8.s 			page 1


   1              		.syntax unified
   2              		.cpu cortex-m4
   3              		.fpu softvfp
   4              		.eabi_attribute 20, 1
   5              		.eabi_attribute 21, 1
   6              		.eabi_attribute 23, 3
   7              		.eabi_attribute 24, 1
   8              		.eabi_attribute 25, 1
   9              		.eabi_attribute 26, 1
  10              		.eabi_attribute 30, 2
  11              		.eabi_attribute 34, 1
  12              		.eabi_attribute 18, 4
  13              		.thumb
  14              		.file	"cruise.c"
  15              		.text
  16              	.Ltext0:
  17              		.cfi_sections	.debug_frame
  18              		.section	.text.chprintf,"ax",%progbits
  19              		.align	2
  20              		.p2align 4,,15
  21              		.thumb
  22              		.thumb_func
  23              		.type	chprintf, %function
  24              	chprintf:
  25              	.LFB118:
  26              		.file 1 "../../../ChibiOS/os/various/chprintf.h"
  27              		.loc 1 69 0
  28              		.cfi_startproc
  29              		@ args = 4, pretend = 12, frame = 8
  30              		@ frame_needed = 0, uses_anonymous_args = 1
  31              	.LVL0:
  32 0000 0EB4     		push	{r1, r2, r3}
  33              		.cfi_def_cfa_offset 12
  34              		.cfi_offset 1, -12
  35              		.cfi_offset 2, -8
  36              		.cfi_offset 3, -4
  37 0002 00B5     		push	{lr}
  38              		.cfi_def_cfa_offset 16
  39              		.cfi_offset 14, -16
  40 0004 82B0     		sub	sp, sp, #8
  41              		.cfi_def_cfa_offset 24
  42              		.loc 1 69 0
  43 0006 03AA     		add	r2, sp, #12
  44 0008 52F8041B 		ldr	r1, [r2], #4
  45              		.loc 1 72 0
  46 000c 0192     		str	r2, [sp, #4]
  47              		.loc 1 73 0
  48 000e FFF7FEFF 		bl	chvprintf
  49              	.LVL1:
  50              		.loc 1 75 0
  51 0012 02B0     		add	sp, sp, #8
  52              		.cfi_def_cfa_offset 16
  53              		@ sp needed
  54 0014 5DF804EB 		ldr	lr, [sp], #4
  55              		.cfi_restore 14
  56              		.cfi_def_cfa_offset 12
  57 0018 03B0     		add	sp, sp, #12
ARM GAS  C:\Users\srich\AppData\Local\Temp\cc32e3J8.s 			page 2


  58              		.cfi_restore 3
  59              		.cfi_restore 2
  60              		.cfi_restore 1
  61              		.cfi_def_cfa_offset 0
  62 001a 7047     		bx	lr
  63              		.cfi_endproc
  64              	.LFE118:
  65              		.size	chprintf, .-chprintf
  66              		.section	.text.cruiseInit,"ax",%progbits
  67              		.align	2
  68              		.p2align 4,,15
  69              		.global	cruiseInit
  70              		.thumb
  71              		.thumb_func
  72              		.type	cruiseInit, %function
  73              	cruiseInit:
  74              	.LFB119:
  75              		.file 2 "src/cruise.c"
  76              		.loc 2 99 0
  77              		.cfi_startproc
  78              		@ args = 0, pretend = 0, frame = 0
  79              		@ frame_needed = 0, uses_anonymous_args = 0
  80 0000 2DE9F84F 		push	{r3, r4, r5, r6, r7, r8, r9, r10, fp, lr}
  81              		.cfi_def_cfa_offset 40
  82              		.cfi_offset 3, -40
  83              		.cfi_offset 4, -36
  84              		.cfi_offset 5, -32
  85              		.cfi_offset 6, -28
  86              		.cfi_offset 7, -24
  87              		.cfi_offset 8, -20
  88              		.cfi_offset 9, -16
  89              		.cfi_offset 10, -12
  90              		.cfi_offset 11, -8
  91              		.cfi_offset 14, -4
  92              		.loc 2 117 0
  93 0004 36A3     		adr	r3, .L12
  94 0006 D3E90023 		ldrd	r2, [r3]
  95 000a DFF814A1 		ldr	r10, .L12+64
  96              		.loc 2 109 0
  97 000e 384D     		ldr	r5, .L12+16
  98              		.loc 2 101 0
  99 0010 3849     		ldr	r1, .L12+20
 100              		.loc 2 118 0
 101 0012 3948     		ldr	r0, .L12+24
 102              		.loc 2 102 0
 103 0014 DFF80C91 		ldr	r9, .L12+68
 104              		.loc 2 104 0
 105 0018 DFF80C81 		ldr	r8, .L12+72
 106              		.loc 2 105 0
 107 001c DFF80CC1 		ldr	ip, .L12+76
 108              		.loc 2 106 0
 109 0020 DFF80CE1 		ldr	lr, .L12+80
 110              		.loc 2 108 0
 111 0024 354F     		ldr	r7, .L12+28
 112              		.loc 2 128 0
 113 0026 364E     		ldr	r6, .L12+32
 114              		.loc 2 100 0
ARM GAS  C:\Users\srich\AppData\Local\Temp\cc32e3J8.s 			page 3


 115 0028 DFF808B1 		ldr	fp, .L12+84
 116              		.loc 2 117 0
 117 002c CAE90023 		strd	r2, [r10]
 118              		.loc 2 101 0
 119 0030 0023     		movs	r3, #0
 120              		.loc 2 109 0
 121 0032 2B70     		strb	r3, [r5]
 122              		.loc 2 118 0
 123 0034 2CA5     		adr	r5, .L12+8
 124 0036 D5E90045 		ldrd	r4, [r5]
 125              		.loc 2 111 0
 126 003a 324A     		ldr	r2, .L12+36
 127              		.loc 2 101 0
 128 003c 0B60     		str	r3, [r1]
 129              		.loc 2 112 0
 130 003e 3249     		ldr	r1, .L12+40
 131              		.loc 2 102 0
 132 0040 C9F80030 		str	r3, [r9]
 133              		.loc 2 118 0
 134 0044 C0E90045 		strd	r4, [r0]
 135              		.loc 2 104 0
 136 0048 C8F80030 		str	r3, [r8]
 137              		.loc 2 105 0
 138 004c ACF80030 		strh	r3, [ip]	@ movhi
 139              		.loc 2 106 0
 140 0050 8EF80030 		strb	r3, [lr]
 141              		.loc 2 108 0
 142 0054 3B80     		strh	r3, [r7]	@ movhi
 143              		.loc 2 111 0
 144 0056 1370     		strb	r3, [r2]
 145              		.loc 2 100 0
 146 0058 42F21075 		movw	r5, #10000
 147              		.loc 2 114 0
 148 005c DFF8D8A0 		ldr	r10, .L12+88
 149              		.loc 2 123 0
 150 0060 DFF8D890 		ldr	r9, .L12+92
 151              		.loc 2 124 0
 152 0064 DFF8D880 		ldr	r8, .L12+96
 153              		.loc 2 126 0
 154 0068 DFF8D8C0 		ldr	ip, .L12+100
 155              		.loc 2 119 0
 156 006c DFF8D8E0 		ldr	lr, .L12+104
 157              		.loc 2 120 0
 158 0070 264F     		ldr	r7, .L12+44
 159              		.loc 2 121 0
 160 0072 274A     		ldr	r2, .L12+48
 161              		.loc 2 112 0
 162 0074 0B60     		str	r3, [r1]
 163              		.loc 2 119 0
 164 0076 0024     		movs	r4, #0
 165              		.loc 2 100 0
 166 0078 CBF80050 		str	r5, [fp]
 167              		.loc 2 128 0
 168 007c 3146     		mov	r1, r6
 169              		.loc 2 119 0
 170 007e 0025     		movs	r5, #0
 171              		.loc 2 128 0
ARM GAS  C:\Users\srich\AppData\Local\Temp\cc32e3J8.s 			page 4


 172 0080 1846     		mov	r0, r3
 173              		.loc 2 114 0
 174 0082 AAF80030 		strh	r3, [r10]	@ movhi
 175              		.loc 2 123 0
 176 0086 89F80030 		strb	r3, [r9]
 177              		.loc 2 124 0
 178 008a 88F80030 		strb	r3, [r8]
 179              		.loc 2 126 0
 180 008e CCF80030 		str	r3, [ip]
 181              		.loc 2 119 0
 182 0092 CEE90045 		strd	r4, [lr]
 183              		.loc 2 120 0
 184 0096 C7E90045 		strd	r4, [r7]
 185              		.loc 2 121 0
 186 009a C2E90045 		strd	r4, [r2]
 187              		.loc 2 128 0
 188 009e FFF7FEFF 		bl	eepromRead
 189              	.LVL2:
 190 00a2 A8B9     		cbnz	r0, .L4
 191 00a4 3088     		ldrh	r0, [r6]
 192              	.L5:
 193              		.loc 2 131 0
 194 00a6 00B2     		sxth	r0, r0
 195 00a8 40F21453 		movw	r3, #1300
 196 00ac 9842     		cmp	r0, r3
 197 00ae 08DC     		bgt	.L9
 198              		.loc 2 135 0
 199 00b0 0028     		cmp	r0, #0
 200 00b2 05DB     		blt	.L11
 201              		.loc 2 140 0
 202 00b4 1748     		ldr	r0, .L12+52
 203 00b6 1849     		ldr	r1, .L12+56
 204              		.loc 2 141 0
 205 00b8 BDE8F84F 		pop	{r3, r4, r5, r6, r7, r8, r9, r10, fp, lr}
 206              		.cfi_remember_state
 207              		.cfi_restore 14
 208              		.cfi_restore 11
 209              		.cfi_restore 10
 210              		.cfi_restore 9
 211              		.cfi_restore 8
 212              		.cfi_restore 7
 213              		.cfi_restore 6
 214              		.cfi_restore 5
 215              		.cfi_restore 4
 216              		.cfi_restore 3
 217              		.cfi_def_cfa_offset 0
 218              		.loc 2 140 0
 219 00bc FFF7FEBF 		b	pwmStart
 220              	.LVL3:
 221              	.L11:
 222              		.cfi_restore_state
 223              		.loc 2 137 0
 224 00c0 0023     		movs	r3, #0
 225              	.L9:
 226 00c2 3380     		strh	r3, [r6]	@ movhi
 227              		.loc 2 140 0
 228 00c4 1348     		ldr	r0, .L12+52
ARM GAS  C:\Users\srich\AppData\Local\Temp\cc32e3J8.s 			page 5


 229 00c6 1449     		ldr	r1, .L12+56
 230              		.loc 2 141 0
 231 00c8 BDE8F84F 		pop	{r3, r4, r5, r6, r7, r8, r9, r10, fp, lr}
 232              		.cfi_remember_state
 233              		.cfi_restore 3
 234              		.cfi_restore 4
 235              		.cfi_restore 5
 236              		.cfi_restore 6
 237              		.cfi_restore 7
 238              		.cfi_restore 8
 239              		.cfi_restore 9
 240              		.cfi_restore 10
 241              		.cfi_restore 11
 242              		.cfi_restore 14
 243              		.cfi_def_cfa_offset 0
 244              		.loc 2 140 0
 245 00cc FFF7FEBF 		b	pwmStart
 246              	.LVL4:
 247              	.L4:
 248              		.cfi_restore_state
 249              		.loc 2 129 0
 250 00d0 0020     		movs	r0, #0
 251 00d2 1249     		ldr	r1, .L12+60
 252 00d4 FFF7FEFF 		bl	speedKMPH_TO_RPM
 253              	.LVL5:
 254 00d8 80B2     		uxth	r0, r0
 255 00da 3080     		strh	r0, [r6]	@ movhi
 256 00dc E3E7     		b	.L5
 257              	.L13:
 258 00de 00BF     		.align	3
 259              	.L12:
 260 00e0 00000000 		.word	0
 261 00e4 0052A740 		.word	1084707328
 262 00e8 00000000 		.word	0
 263 00ec 00701741 		.word	1092055040
 264 00f0 00000000 		.word	.LANCHOR7
 265 00f4 00000000 		.word	.LANCHOR1
 266 00f8 00000000 		.word	.LANCHOR12
 267 00fc 00000000 		.word	.LANCHOR6
 268 0100 00000000 		.word	.LANCHOR19
 269 0104 00000000 		.word	.LANCHOR8
 270 0108 00000000 		.word	.LANCHOR9
 271 010c 00000000 		.word	.LANCHOR14
 272 0110 00000000 		.word	.LANCHOR15
 273 0114 00000000 		.word	PWMD5
 274 0118 00000000 		.word	.LANCHOR20
 275 011c 00004940 		.word	1078525952
 276 0120 00000000 		.word	.LANCHOR11
 277 0124 00000000 		.word	.LANCHOR2
 278 0128 00000000 		.word	.LANCHOR3
 279 012c 00000000 		.word	.LANCHOR4
 280 0130 00000000 		.word	.LANCHOR5
 281 0134 00000000 		.word	.LANCHOR0
 282 0138 00000000 		.word	.LANCHOR10
 283 013c 00000000 		.word	.LANCHOR16
 284 0140 00000000 		.word	.LANCHOR17
 285 0144 00000000 		.word	.LANCHOR18
ARM GAS  C:\Users\srich\AppData\Local\Temp\cc32e3J8.s 			page 6


 286 0148 00000000 		.word	.LANCHOR13
 287              		.cfi_endproc
 288              	.LFE119:
 289              		.size	cruiseInit, .-cruiseInit
 290              		.section	.text.cruiseEnable,"ax",%progbits
 291              		.align	2
 292              		.p2align 4,,15
 293              		.global	cruiseEnable
 294              		.thumb
 295              		.thumb_func
 296              		.type	cruiseEnable, %function
 297              	cruiseEnable:
 298              	.LFB121:
 299              		.loc 2 301 0
 300              		.cfi_startproc
 301              		@ args = 0, pretend = 0, frame = 0
 302              		@ frame_needed = 0, uses_anonymous_args = 0
 303              		@ link register save eliminated.
 304              		.loc 2 302 0
 305 0000 0349     		ldr	r1, .L15
 306              		.loc 2 303 0
 307 0002 044B     		ldr	r3, .L15+4
 308              		.loc 2 302 0
 309 0004 0120     		movs	r0, #1
 310              		.loc 2 303 0
 311 0006 0022     		movs	r2, #0
 312              		.loc 2 302 0
 313 0008 0880     		strh	r0, [r1]	@ movhi
 314              		.loc 2 303 0
 315 000a 1A80     		strh	r2, [r3]	@ movhi
 316 000c 7047     		bx	lr
 317              	.L16:
 318 000e 00BF     		.align	2
 319              	.L15:
 320 0010 00000000 		.word	.LANCHOR6
 321 0014 00000000 		.word	.LANCHOR10
 322              		.cfi_endproc
 323              	.LFE121:
 324              		.size	cruiseEnable, .-cruiseEnable
 325              		.section	.text.cruiseDisable,"ax",%progbits
 326              		.align	2
 327              		.p2align 4,,15
 328              		.global	cruiseDisable
 329              		.thumb
 330              		.thumb_func
 331              		.type	cruiseDisable, %function
 332              	cruiseDisable:
 333              	.LFB122:
 334              		.loc 2 305 0
 335              		.cfi_startproc
 336              		@ args = 0, pretend = 0, frame = 0
 337              		@ frame_needed = 0, uses_anonymous_args = 0
 338              		@ link register save eliminated.
 339              		.loc 2 306 0
 340 0000 014B     		ldr	r3, .L18
 341 0002 0022     		movs	r2, #0
 342 0004 1A80     		strh	r2, [r3]	@ movhi
ARM GAS  C:\Users\srich\AppData\Local\Temp\cc32e3J8.s 			page 7


 343 0006 7047     		bx	lr
 344              	.L19:
 345              		.align	2
 346              	.L18:
 347 0008 00000000 		.word	.LANCHOR6
 348              		.cfi_endproc
 349              	.LFE122:
 350              		.size	cruiseDisable, .-cruiseDisable
 351              		.section	.text.regen_brakeEnable,"ax",%progbits
 352              		.align	2
 353              		.p2align 4,,15
 354              		.global	regen_brakeEnable
 355              		.thumb
 356              		.thumb_func
 357              		.type	regen_brakeEnable, %function
 358              	regen_brakeEnable:
 359              	.LFB123:
 360              		.loc 2 309 0
 361              		.cfi_startproc
 362              		@ args = 0, pretend = 0, frame = 0
 363              		@ frame_needed = 0, uses_anonymous_args = 0
 364              		@ link register save eliminated.
 365              		.loc 2 310 0
 366 0000 014B     		ldr	r3, .L21
 367 0002 0122     		movs	r2, #1
 368 0004 1A70     		strb	r2, [r3]
 369 0006 7047     		bx	lr
 370              	.L22:
 371              		.align	2
 372              	.L21:
 373 0008 00000000 		.word	.LANCHOR7
 374              		.cfi_endproc
 375              	.LFE123:
 376              		.size	regen_brakeEnable, .-regen_brakeEnable
 377              		.section	.text.regen_brakeDisable,"ax",%progbits
 378              		.align	2
 379              		.p2align 4,,15
 380              		.global	regen_brakeDisable
 381              		.thumb
 382              		.thumb_func
 383              		.type	regen_brakeDisable, %function
 384              	regen_brakeDisable:
 385              	.LFB124:
 386              		.loc 2 312 0
 387              		.cfi_startproc
 388              		@ args = 0, pretend = 0, frame = 0
 389              		@ frame_needed = 0, uses_anonymous_args = 0
 390              		@ link register save eliminated.
 391              		.loc 2 313 0
 392 0000 014B     		ldr	r3, .L24
 393 0002 0022     		movs	r2, #0
 394 0004 1A70     		strb	r2, [r3]
 395 0006 7047     		bx	lr
 396              	.L25:
 397              		.align	2
 398              	.L24:
 399 0008 00000000 		.word	.LANCHOR7
ARM GAS  C:\Users\srich\AppData\Local\Temp\cc32e3J8.s 			page 8


 400              		.cfi_endproc
 401              	.LFE124:
 402              		.size	regen_brakeDisable, .-regen_brakeDisable
 403              		.section	.text.cruiseStatus,"ax",%progbits
 404              		.align	2
 405              		.p2align 4,,15
 406              		.global	cruiseStatus
 407              		.thumb
 408              		.thumb_func
 409              		.type	cruiseStatus, %function
 410              	cruiseStatus:
 411              	.LFB125:
 412              		.loc 2 316 0
 413              		.cfi_startproc
 414              		@ args = 0, pretend = 0, frame = 0
 415              		@ frame_needed = 0, uses_anonymous_args = 0
 416              		@ link register save eliminated.
 417              		.loc 2 317 0
 418 0000 024B     		ldr	r3, .L27
 419 0002 1888     		ldrh	r0, [r3]
 420              		.loc 2 318 0
 421 0004 0030     		adds	r0, r0, #0
 422 0006 18BF     		it	ne
 423 0008 0120     		movne	r0, #1
 424 000a 7047     		bx	lr
 425              	.L28:
 426              		.align	2
 427              	.L27:
 428 000c 00000000 		.word	.LANCHOR6
 429              		.cfi_endproc
 430              	.LFE125:
 431              		.size	cruiseStatus, .-cruiseStatus
 432              		.section	.text.cruiseIndicator,"ax",%progbits
 433              		.align	2
 434              		.p2align 4,,15
 435              		.global	cruiseIndicator
 436              		.thumb
 437              		.thumb_func
 438              		.type	cruiseIndicator, %function
 439              	cruiseIndicator:
 440              	.LFB126:
 441              		.loc 2 320 0
 442              		.cfi_startproc
 443              		@ args = 0, pretend = 0, frame = 0
 444              		@ frame_needed = 0, uses_anonymous_args = 0
 445              		@ link register save eliminated.
 446              		.loc 2 321 0
 447 0000 014B     		ldr	r3, .L30
 448              		.loc 2 322 0
 449 0002 1878     		ldrb	r0, [r3]	@ zero_extendqisi2
 450 0004 7047     		bx	lr
 451              	.L31:
 452 0006 00BF     		.align	2
 453              	.L30:
 454 0008 00000000 		.word	.LANCHOR8
 455              		.cfi_endproc
 456              	.LFE126:
ARM GAS  C:\Users\srich\AppData\Local\Temp\cc32e3J8.s 			page 9


 457              		.size	cruiseIndicator, .-cruiseIndicator
 458              		.section	.text.cruiseAccel,"ax",%progbits
 459              		.align	2
 460              		.p2align 4,,15
 461              		.global	cruiseAccel
 462              		.thumb
 463              		.thumb_func
 464              		.type	cruiseAccel, %function
 465              	cruiseAccel:
 466              	.LFB127:
 467              		.loc 2 324 0
 468              		.cfi_startproc
 469              		@ args = 0, pretend = 0, frame = 0
 470              		@ frame_needed = 0, uses_anonymous_args = 0
 471              		@ link register save eliminated.
 472              		.loc 2 325 0
 473 0000 014B     		ldr	r3, .L33
 474 0002 0122     		movs	r2, #1
 475 0004 1A70     		strb	r2, [r3]
 476 0006 7047     		bx	lr
 477              	.L34:
 478              		.align	2
 479              	.L33:
 480 0008 00000000 		.word	.LANCHOR16
 481              		.cfi_endproc
 482              	.LFE127:
 483              		.size	cruiseAccel, .-cruiseAccel
 484              		.section	.text.cruiseAccelOk,"ax",%progbits
 485              		.align	2
 486              		.p2align 4,,15
 487              		.global	cruiseAccelOk
 488              		.thumb
 489              		.thumb_func
 490              		.type	cruiseAccelOk, %function
 491              	cruiseAccelOk:
 492              	.LFB128:
 493              		.loc 2 328 0
 494              		.cfi_startproc
 495              		@ args = 0, pretend = 0, frame = 0
 496              		@ frame_needed = 0, uses_anonymous_args = 0
 497 0000 08B5     		push	{r3, lr}
 498              		.cfi_def_cfa_offset 8
 499              		.cfi_offset 3, -8
 500              		.cfi_offset 14, -4
 501              		.loc 2 329 0
 502 0002 054B     		ldr	r3, .L41
 503 0004 1B88     		ldrh	r3, [r3]
 504 0006 1BB1     		cbz	r3, .L36
 505              		.loc 2 330 0
 506 0008 FFF7FEFF 		bl	speedGetRpm
 507              	.LVL6:
 508 000c 034B     		ldr	r3, .L41+4
 509 000e 1880     		strh	r0, [r3]	@ movhi
 510              	.L36:
 511              		.loc 2 332 0
 512 0010 034B     		ldr	r3, .L41+8
 513 0012 0022     		movs	r2, #0
ARM GAS  C:\Users\srich\AppData\Local\Temp\cc32e3J8.s 			page 10


 514 0014 1A70     		strb	r2, [r3]
 515 0016 08BD     		pop	{r3, pc}
 516              	.L42:
 517              		.align	2
 518              	.L41:
 519 0018 00000000 		.word	.LANCHOR6
 520 001c 00000000 		.word	.LANCHOR19
 521 0020 00000000 		.word	.LANCHOR16
 522              		.cfi_endproc
 523              	.LFE128:
 524              		.size	cruiseAccelOk, .-cruiseAccelOk
 525              		.section	.text.cruiseDecelerat,"ax",%progbits
 526              		.align	2
 527              		.p2align 4,,15
 528              		.global	cruiseDecelerat
 529              		.thumb
 530              		.thumb_func
 531              		.type	cruiseDecelerat, %function
 532              	cruiseDecelerat:
 533              	.LFB129:
 534              		.loc 2 335 0
 535              		.cfi_startproc
 536              		@ args = 0, pretend = 0, frame = 0
 537              		@ frame_needed = 0, uses_anonymous_args = 0
 538              		@ link register save eliminated.
 539              		.loc 2 336 0
 540 0000 014B     		ldr	r3, .L44
 541 0002 0122     		movs	r2, #1
 542 0004 1A70     		strb	r2, [r3]
 543 0006 7047     		bx	lr
 544              	.L45:
 545              		.align	2
 546              	.L44:
 547 0008 00000000 		.word	.LANCHOR17
 548              		.cfi_endproc
 549              	.LFE129:
 550              		.size	cruiseDecelerat, .-cruiseDecelerat
 551              		.section	.text.cruiseDeceleratOk,"ax",%progbits
 552              		.align	2
 553              		.p2align 4,,15
 554              		.global	cruiseDeceleratOk
 555              		.thumb
 556              		.thumb_func
 557              		.type	cruiseDeceleratOk, %function
 558              	cruiseDeceleratOk:
 559              	.LFB130:
 560              		.loc 2 339 0
 561              		.cfi_startproc
 562              		@ args = 0, pretend = 0, frame = 0
 563              		@ frame_needed = 0, uses_anonymous_args = 0
 564 0000 08B5     		push	{r3, lr}
 565              		.cfi_def_cfa_offset 8
 566              		.cfi_offset 3, -8
 567              		.cfi_offset 14, -4
 568              		.loc 2 340 0
 569 0002 054B     		ldr	r3, .L52
 570 0004 1B88     		ldrh	r3, [r3]
ARM GAS  C:\Users\srich\AppData\Local\Temp\cc32e3J8.s 			page 11


 571 0006 1BB1     		cbz	r3, .L47
 572              		.loc 2 341 0
 573 0008 FFF7FEFF 		bl	speedGetRpm
 574              	.LVL7:
 575 000c 034B     		ldr	r3, .L52+4
 576 000e 1880     		strh	r0, [r3]	@ movhi
 577              	.L47:
 578              		.loc 2 343 0
 579 0010 034B     		ldr	r3, .L52+8
 580 0012 0022     		movs	r2, #0
 581 0014 1A70     		strb	r2, [r3]
 582 0016 08BD     		pop	{r3, pc}
 583              	.L53:
 584              		.align	2
 585              	.L52:
 586 0018 00000000 		.word	.LANCHOR6
 587 001c 00000000 		.word	.LANCHOR19
 588 0020 00000000 		.word	.LANCHOR17
 589              		.cfi_endproc
 590              	.LFE130:
 591              		.size	cruiseDeceleratOk, .-cruiseDeceleratOk
 592              		.global	__aeabi_i2d
 593              		.global	__aeabi_dadd
 594              		.global	__aeabi_d2iz
 595              		.section	.text.cruiseIncrease,"ax",%progbits
 596              		.align	2
 597              		.p2align 4,,15
 598              		.global	cruiseIncrease
 599              		.thumb
 600              		.thumb_func
 601              		.type	cruiseIncrease, %function
 602              	cruiseIncrease:
 603              	.LFB131:
 604              		.loc 2 346 0
 605              		.cfi_startproc
 606              		@ args = 0, pretend = 0, frame = 0
 607              		@ frame_needed = 0, uses_anonymous_args = 0
 608              	.LVL8:
 609 0000 F8B5     		push	{r3, r4, r5, r6, r7, lr}
 610              		.cfi_def_cfa_offset 24
 611              		.cfi_offset 3, -24
 612              		.cfi_offset 4, -20
 613              		.cfi_offset 5, -16
 614              		.cfi_offset 6, -12
 615              		.cfi_offset 7, -8
 616              		.cfi_offset 14, -4
 617              		.loc 2 347 0
 618 0002 104D     		ldr	r5, .L59
 619              		.loc 2 346 0
 620 0004 0646     		mov	r6, r0
 621 0006 0F46     		mov	r7, r1
 622              		.loc 2 347 0
 623 0008 B5F90000 		ldrsh	r0, [r5]
 624              	.LVL9:
 625 000c FFF7FEFF 		bl	__aeabi_i2d
 626              	.LVL10:
 627 0010 3246     		mov	r2, r6
ARM GAS  C:\Users\srich\AppData\Local\Temp\cc32e3J8.s 			page 12


 628 0012 3B46     		mov	r3, r7
 629 0014 FFF7FEFF 		bl	__aeabi_dadd
 630              	.LVL11:
 631 0018 FFF7FEFF 		bl	__aeabi_d2iz
 632              	.LVL12:
 633              		.loc 2 348 0
 634 001c 0A49     		ldr	r1, .L59+4
 635              		.loc 2 347 0
 636 001e 84B2     		uxth	r4, r0
 637              		.loc 2 348 0
 638 0020 0020     		movs	r0, #0
 639              		.loc 2 347 0
 640 0022 2C80     		strh	r4, [r5]	@ movhi
 641              		.loc 2 348 0
 642 0024 FFF7FEFF 		bl	speedKMPH_TO_RPM
 643              	.LVL13:
 644 0028 24B2     		sxth	r4, r4
 645 002a 8442     		cmp	r4, r0
 646 002c 02D8     		bhi	.L58
 647              		.loc 2 348 0 is_stmt 0 discriminator 2
 648 002e 2888     		ldrh	r0, [r5]
 649 0030 2880     		strh	r0, [r5]	@ movhi
 650 0032 F8BD     		pop	{r3, r4, r5, r6, r7, pc}
 651              	.L58:
 652              		.loc 2 348 0 discriminator 1
 653 0034 0020     		movs	r0, #0
 654 0036 0449     		ldr	r1, .L59+4
 655 0038 FFF7FEFF 		bl	speedKMPH_TO_RPM
 656              	.LVL14:
 657 003c 80B2     		uxth	r0, r0
 658 003e 2880     		strh	r0, [r5]	@ movhi
 659 0040 F8BD     		pop	{r3, r4, r5, r6, r7, pc}
 660              	.L60:
 661 0042 00BF     		.align	2
 662              	.L59:
 663 0044 00000000 		.word	.LANCHOR19
 664 0048 00406040 		.word	1080049664
 665              		.cfi_endproc
 666              	.LFE131:
 667              		.size	cruiseIncrease, .-cruiseIncrease
 668              		.global	__aeabi_dsub
 669              		.section	.text.cruiseReduction,"ax",%progbits
 670              		.align	2
 671              		.p2align 4,,15
 672              		.global	cruiseReduction
 673              		.thumb
 674              		.thumb_func
 675              		.type	cruiseReduction, %function
 676              	cruiseReduction:
 677              	.LFB132:
 678              		.loc 2 350 0 is_stmt 1
 679              		.cfi_startproc
 680              		@ args = 0, pretend = 0, frame = 0
 681              		@ frame_needed = 0, uses_anonymous_args = 0
 682              	.LVL15:
 683 0000 D0B5     		push	{r4, r6, r7, lr}
 684              		.cfi_def_cfa_offset 16
ARM GAS  C:\Users\srich\AppData\Local\Temp\cc32e3J8.s 			page 13


 685              		.cfi_offset 4, -16
 686              		.cfi_offset 6, -12
 687              		.cfi_offset 7, -8
 688              		.cfi_offset 14, -4
 689              		.loc 2 352 0
 690 0002 094C     		ldr	r4, .L63
 691              		.loc 2 350 0
 692 0004 0646     		mov	r6, r0
 693 0006 0F46     		mov	r7, r1
 694              		.loc 2 351 0
 695 0008 B4F90000 		ldrsh	r0, [r4]
 696              	.LVL16:
 697 000c FFF7FEFF 		bl	__aeabi_i2d
 698              	.LVL17:
 699 0010 3246     		mov	r2, r6
 700 0012 3B46     		mov	r3, r7
 701 0014 FFF7FEFF 		bl	__aeabi_dsub
 702              	.LVL18:
 703 0018 FFF7FEFF 		bl	__aeabi_d2iz
 704              	.LVL19:
 705              		.loc 2 352 0
 706 001c 00B2     		sxth	r0, r0
 707 001e 20EAE070 		bic	r0, r0, r0, asr #31
 708 0022 2080     		strh	r0, [r4]	@ movhi
 709 0024 D0BD     		pop	{r4, r6, r7, pc}
 710              	.L64:
 711 0026 00BF     		.align	2
 712              	.L63:
 713 0028 00000000 		.word	.LANCHOR19
 714              		.cfi_endproc
 715              	.LFE132:
 716              		.size	cruiseReduction, .-cruiseReduction
 717              		.section	.text.cruiseGetPWM,"ax",%progbits
 718              		.align	2
 719              		.p2align 4,,15
 720              		.global	cruiseGetPWM
 721              		.thumb
 722              		.thumb_func
 723              		.type	cruiseGetPWM, %function
 724              	cruiseGetPWM:
 725              	.LFB133:
 726              		.loc 2 355 0
 727              		.cfi_startproc
 728              		@ args = 0, pretend = 0, frame = 0
 729              		@ frame_needed = 0, uses_anonymous_args = 0
 730              		@ link register save eliminated.
 731              		.loc 2 356 0
 732 0000 014B     		ldr	r3, .L66
 733              		.loc 2 357 0
 734 0002 1868     		ldr	r0, [r3]
 735 0004 7047     		bx	lr
 736              	.L67:
 737 0006 00BF     		.align	2
 738              	.L66:
 739 0008 00000000 		.word	.LANCHOR2
 740              		.cfi_endproc
 741              	.LFE133:
ARM GAS  C:\Users\srich\AppData\Local\Temp\cc32e3J8.s 			page 14


 742              		.size	cruiseGetPWM, .-cruiseGetPWM
 743              		.section	.text.cruiseGetCurrLimitSubstract,"ax",%progbits
 744              		.align	2
 745              		.p2align 4,,15
 746              		.global	cruiseGetCurrLimitSubstract
 747              		.thumb
 748              		.thumb_func
 749              		.type	cruiseGetCurrLimitSubstract, %function
 750              	cruiseGetCurrLimitSubstract:
 751              	.LFB134:
 752              		.loc 2 360 0
 753              		.cfi_startproc
 754              		@ args = 0, pretend = 0, frame = 0
 755              		@ frame_needed = 0, uses_anonymous_args = 0
 756              		@ link register save eliminated.
 757              		.loc 2 361 0
 758 0000 014B     		ldr	r3, .L69
 759              		.loc 2 362 0
 760 0002 1888     		ldrh	r0, [r3]
 761 0004 7047     		bx	lr
 762              	.L70:
 763 0006 00BF     		.align	2
 764              	.L69:
 765 0008 00000000 		.word	.LANCHOR21
 766              		.cfi_endproc
 767              	.LFE134:
 768              		.size	cruiseGetCurrLimitSubstract, .-cruiseGetCurrLimitSubstract
 769              		.section	.text.cruiseGet,"ax",%progbits
 770              		.align	2
 771              		.p2align 4,,15
 772              		.global	cruiseGet
 773              		.thumb
 774              		.thumb_func
 775              		.type	cruiseGet, %function
 776              	cruiseGet:
 777              	.LFB135:
 778              		.loc 2 365 0
 779              		.cfi_startproc
 780              		@ args = 0, pretend = 0, frame = 0
 781              		@ frame_needed = 0, uses_anonymous_args = 0
 782 0000 08B5     		push	{r3, lr}
 783              		.cfi_def_cfa_offset 8
 784              		.cfi_offset 3, -8
 785              		.cfi_offset 14, -4
 786              		.loc 2 366 0
 787 0002 044B     		ldr	r3, .L73
 788 0004 B3F90000 		ldrsh	r0, [r3]
 789 0008 FFF7FEFF 		bl	__aeabi_i2d
 790              	.LVL20:
 791 000c FFF7FEFF 		bl	speedRPM_TO_KMPH
 792              	.LVL21:
 793              		.loc 2 367 0
 794 0010 C0B2     		uxtb	r0, r0
 795 0012 08BD     		pop	{r3, pc}
 796              	.L74:
 797              		.align	2
 798              	.L73:
ARM GAS  C:\Users\srich\AppData\Local\Temp\cc32e3J8.s 			page 15


 799 0014 00000000 		.word	.LANCHOR19
 800              		.cfi_endproc
 801              	.LFE135:
 802              		.size	cruiseGet, .-cruiseGet
 803              		.section	.text.GetCurrentLimitIsOn,"ax",%progbits
 804              		.align	2
 805              		.p2align 4,,15
 806              		.global	GetCurrentLimitIsOn
 807              		.thumb
 808              		.thumb_func
 809              		.type	GetCurrentLimitIsOn, %function
 810              	GetCurrentLimitIsOn:
 811              	.LFB136:
 812              		.loc 2 369 0
 813              		.cfi_startproc
 814              		@ args = 0, pretend = 0, frame = 0
 815              		@ frame_needed = 0, uses_anonymous_args = 0
 816              		@ link register save eliminated.
 817              		.loc 2 370 0
 818 0000 014B     		ldr	r3, .L76
 819              		.loc 2 371 0
 820 0002 1878     		ldrb	r0, [r3]	@ zero_extendqisi2
 821 0004 7047     		bx	lr
 822              	.L77:
 823 0006 00BF     		.align	2
 824              	.L76:
 825 0008 00000000 		.word	.LANCHOR22
 826              		.cfi_endproc
 827              	.LFE136:
 828              		.size	GetCurrentLimitIsOn, .-GetCurrentLimitIsOn
 829              		.global	__aeabi_dmul
 830              		.global	__aeabi_dcmpgt
 831              		.global	__aeabi_dcmplt
 832              		.section	.text.cruisePID,"ax",%progbits
 833              		.align	2
 834              		.p2align 4,,15
 835              		.global	cruisePID
 836              		.thumb
 837              		.thumb_func
 838              		.type	cruisePID, %function
 839              	cruisePID:
 840              	.LFB137:
 841              		.loc 2 374 0
 842              		.cfi_startproc
 843              		@ args = 24, pretend = 0, frame = 24
 844              		@ frame_needed = 0, uses_anonymous_args = 0
 845              	.LVL22:
 846 0000 2DE9F04F 		push	{r4, r5, r6, r7, r8, r9, r10, fp, lr}
 847              		.cfi_def_cfa_offset 36
 848              		.cfi_offset 4, -36
 849              		.cfi_offset 5, -32
 850              		.cfi_offset 6, -28
 851              		.cfi_offset 7, -24
 852              		.cfi_offset 8, -20
 853              		.cfi_offset 9, -16
 854              		.cfi_offset 10, -12
 855              		.cfi_offset 11, -8
ARM GAS  C:\Users\srich\AppData\Local\Temp\cc32e3J8.s 			page 16


 856              		.cfi_offset 14, -4
 857 0004 87B0     		sub	sp, sp, #28
 858              		.cfi_def_cfa_offset 64
 859              		.loc 2 375 0
 860 0006 081A     		subs	r0, r1, r0
 861              	.LVL23:
 862              		.loc 2 374 0
 863 0008 BDF94810 		ldrsh	r1, [sp, #72]
 864              	.LVL24:
 865 000c 0592     		str	r2, [sp, #20]
 866 000e 1E46     		mov	r6, r3
 867 0010 0291     		str	r1, [sp, #8]
 868              		.loc 2 375 0
 869 0012 FFF7FEFF 		bl	__aeabi_i2d
 870              	.LVL25:
 871              		.loc 2 374 0
 872 0016 BDF94040 		ldrsh	r4, [sp, #64]
 873              		.loc 2 375 0
 874 001a 634B     		ldr	r3, .L104
 875              		.loc 2 374 0
 876 001c BDF94470 		ldrsh	r7, [sp, #68]
 877              		.loc 2 375 0
 878 0020 8246     		mov	r10, r0
 879 0022 8B46     		mov	fp, r1
 880              		.loc 2 378 0
 881 0024 2046     		mov	r0, r4
 882              		.loc 2 375 0
 883 0026 C3E900AB 		strd	r10, [r3]
 884              		.loc 2 378 0
 885 002a FFF7FEFF 		bl	__aeabi_i2d
 886              	.LVL26:
 887 002e 0246     		mov	r2, r0
 888 0030 0B46     		mov	r3, r1
 889 0032 5046     		mov	r0, r10
 890 0034 5946     		mov	r1, fp
 891 0036 FFF7FEFF 		bl	__aeabi_dmul
 892              	.LVL27:
 893 003a 0446     		mov	r4, r0
 894              		.loc 2 379 0
 895 003c 1398     		ldr	r0, [sp, #76]
 896              		.loc 2 378 0
 897 003e 0D46     		mov	r5, r1
 898              		.loc 2 379 0
 899 0040 FFF7FEFF 		bl	__aeabi_i2d
 900              	.LVL28:
 901 0044 0246     		mov	r2, r0
 902 0046 0B46     		mov	r3, r1
 903 0048 2046     		mov	r0, r4
 904 004a 2946     		mov	r1, r5
 905 004c CDE90023 		strd	r2, [sp]
 906 0050 FFF7FEFF 		bl	__aeabi_dcmpgt
 907              	.LVL29:
 908 0054 0028     		cmp	r0, #0
 909 0056 72D0     		beq	.L97
 910              		.loc 2 380 0
 911 0058 DDE90001 		ldrd	r0, [sp]
 912 005c 534B     		ldr	r3, .L104+4
ARM GAS  C:\Users\srich\AppData\Local\Temp\cc32e3J8.s 			page 17


 913 005e C3E90001 		strd	r0, [r3]
 914              	.L81:
 915              		.loc 2 388 0
 916 0062 3846     		mov	r0, r7
 917 0064 FFF7FEFF 		bl	__aeabi_i2d
 918              	.LVL30:
 919 0068 514F     		ldr	r7, .L104+8
 920 006a 0246     		mov	r2, r0
 921 006c 0B46     		mov	r3, r1
 922 006e 5046     		mov	r0, r10
 923 0070 5946     		mov	r1, fp
 924 0072 FFF7FEFF 		bl	__aeabi_dmul
 925              	.LVL31:
 926 0076 D7E90023 		ldrd	r2, [r7]
 927 007a FFF7FEFF 		bl	__aeabi_dadd
 928              	.LVL32:
 929 007e 0446     		mov	r4, r0
 930              		.loc 2 389 0
 931 0080 1498     		ldr	r0, [sp, #80]
 932              		.loc 2 388 0
 933 0082 0D46     		mov	r5, r1
 934              		.loc 2 389 0
 935 0084 FFF7FEFF 		bl	__aeabi_i2d
 936              	.LVL33:
 937 0088 8046     		mov	r8, r0
 938 008a 8946     		mov	r9, r1
 939 008c 2046     		mov	r0, r4
 940 008e 2946     		mov	r1, r5
 941 0090 4246     		mov	r2, r8
 942 0092 4B46     		mov	r3, r9
 943 0094 FFF7FEFF 		bl	__aeabi_dcmpgt
 944              	.LVL34:
 945 0098 68B9     		cbnz	r0, .L86
 946              		.loc 2 392 0
 947 009a 149B     		ldr	r3, [sp, #80]
 948 009c 5842     		negs	r0, r3
 949 009e FFF7FEFF 		bl	__aeabi_i2d
 950              	.LVL35:
 951 00a2 8046     		mov	r8, r0
 952 00a4 8946     		mov	r9, r1
 953 00a6 2046     		mov	r0, r4
 954 00a8 2946     		mov	r1, r5
 955 00aa 4246     		mov	r2, r8
 956 00ac 4B46     		mov	r3, r9
 957 00ae FFF7FEFF 		bl	__aeabi_dcmplt
 958              	.LVL36:
 959 00b2 0028     		cmp	r0, #0
 960 00b4 73D0     		beq	.L101
 961              	.L86:
 962              		.loc 2 393 0
 963 00b6 C7E90089 		strd	r8, [r7]
 964              	.L85:
 965              		.loc 2 398 0
 966 00ba 0298     		ldr	r0, [sp, #8]
 967 00bc 3D4F     		ldr	r7, .L104+12
 968 00be FFF7FEFF 		bl	__aeabi_i2d
 969              	.LVL37:
ARM GAS  C:\Users\srich\AppData\Local\Temp\cc32e3J8.s 			page 18


 970 00c2 D7E90023 		ldrd	r2, [r7]
 971 00c6 0446     		mov	r4, r0
 972 00c8 0D46     		mov	r5, r1
 973 00ca 5046     		mov	r0, r10
 974 00cc 5946     		mov	r1, fp
 975 00ce FFF7FEFF 		bl	__aeabi_dsub
 976              	.LVL38:
 977 00d2 0246     		mov	r2, r0
 978 00d4 0B46     		mov	r3, r1
 979 00d6 2046     		mov	r0, r4
 980 00d8 2946     		mov	r1, r5
 981 00da FFF7FEFF 		bl	__aeabi_dmul
 982              	.LVL39:
 983 00de CDE90201 		strd	r0, [sp, #8]
 984              		.loc 2 399 0
 985 00e2 1598     		ldr	r0, [sp, #84]
 986 00e4 FFF7FEFF 		bl	__aeabi_i2d
 987              	.LVL40:
 988 00e8 0446     		mov	r4, r0
 989 00ea 0D46     		mov	r5, r1
 990 00ec 2246     		mov	r2, r4
 991 00ee DDE90201 		ldrd	r0, [sp, #8]
 992 00f2 2B46     		mov	r3, r5
 993 00f4 FFF7FEFF 		bl	__aeabi_dcmpgt
 994              	.LVL41:
 995 00f8 0028     		cmp	r0, #0
 996 00fa 33D0     		beq	.L99
 997              		.loc 2 400 0
 998 00fc 2E4B     		ldr	r3, .L104+16
 999 00fe C3E90045 		strd	r4, [r3]
 1000              	.L89:
 1001              		.loc 2 408 0
 1002 0102 4246     		mov	r2, r8
 1003 0104 4B46     		mov	r3, r9
 1004 0106 DDE90001 		ldrd	r0, [sp]
 1005 010a FFF7FEFF 		bl	__aeabi_dadd
 1006              	.LVL42:
 1007 010e 2246     		mov	r2, r4
 1008 0110 2B46     		mov	r3, r5
 1009 0112 FFF7FEFF 		bl	__aeabi_dadd
 1010              	.LVL43:
 1011 0116 FFF7FEFF 		bl	__aeabi_d2iz
 1012              	.LVL44:
 1013              		.loc 2 410 0
 1014 011a 059B     		ldr	r3, [sp, #20]
 1015 011c 9842     		cmp	r0, r3
 1016              		.loc 2 411 0
 1017 011e C8BF     		it	gt
 1018 0120 059A     		ldrgt	r2, [sp, #20]
 1019 0122 264B     		ldr	r3, .L104+20
 1020 0124 C6BF     		itte	gt
 1021 0126 1046     		movgt	r0, r2
 1022 0128 1A60     		strgt	r2, [r3]
 1023              		.loc 2 408 0
 1024 012a 1860     		strle	r0, [r3]
 1025              		.loc 2 413 0
 1026 012c 8642     		cmp	r6, r0
ARM GAS  C:\Users\srich\AppData\Local\Temp\cc32e3J8.s 			page 19


 1027              		.loc 2 414 0
 1028 012e C4BF     		itt	gt
 1029 0130 3046     		movgt	r0, r6
 1030 0132 1E60     		strgt	r6, [r3]
 1031              		.loc 2 417 0
 1032 0134 C7E900AB 		strd	r10, [r7]
 1033              		.loc 2 420 0
 1034 0138 07B0     		add	sp, sp, #28
 1035              		.cfi_remember_state
 1036              		.cfi_def_cfa_offset 36
 1037              		@ sp needed
 1038 013a BDE8F08F 		pop	{r4, r5, r6, r7, r8, r9, r10, fp, pc}
 1039              	.LVL45:
 1040              	.L97:
 1041              		.cfi_restore_state
 1042              		.loc 2 382 0
 1043 013e 139B     		ldr	r3, [sp, #76]
 1044 0140 5842     		negs	r0, r3
 1045 0142 FFF7FEFF 		bl	__aeabi_i2d
 1046              	.LVL46:
 1047 0146 0B46     		mov	r3, r1
 1048 0148 0246     		mov	r2, r0
 1049 014a 2946     		mov	r1, r5
 1050 014c 2046     		mov	r0, r4
 1051 014e CDE90023 		strd	r2, [sp]
 1052 0152 FFF7FEFF 		bl	__aeabi_dcmplt
 1053              	.LVL47:
 1054              		.loc 2 383 0
 1055 0156 154B     		ldr	r3, .L104+4
 1056              		.loc 2 382 0
 1057 0158 E0B1     		cbz	r0, .L102
 1058              		.loc 2 383 0
 1059 015a DDE90001 		ldrd	r0, [sp]
 1060 015e C3E90001 		strd	r0, [r3]
 1061 0162 7EE7     		b	.L81
 1062              	.L99:
 1063              		.loc 2 402 0
 1064 0164 159B     		ldr	r3, [sp, #84]
 1065 0166 5842     		negs	r0, r3
 1066 0168 FFF7FEFF 		bl	__aeabi_i2d
 1067              	.LVL48:
 1068 016c 0446     		mov	r4, r0
 1069 016e 0D46     		mov	r5, r1
 1070 0170 2B46     		mov	r3, r5
 1071 0172 DDE90201 		ldrd	r0, [sp, #8]
 1072 0176 2246     		mov	r2, r4
 1073 0178 FFF7FEFF 		bl	__aeabi_dcmplt
 1074              	.LVL49:
 1075              		.loc 2 403 0
 1076 017c 0E4B     		ldr	r3, .L104+16
 1077              		.loc 2 402 0
 1078 017e 10B1     		cbz	r0, .L103
 1079              		.loc 2 403 0
 1080 0180 C3E90045 		strd	r4, [r3]
 1081 0184 BDE7     		b	.L89
 1082              	.L103:
 1083              		.loc 2 398 0
ARM GAS  C:\Users\srich\AppData\Local\Temp\cc32e3J8.s 			page 20


 1084 0186 DDE90201 		ldrd	r0, [sp, #8]
 1085 018a C3E90001 		strd	r0, [r3]
 1086 018e 0446     		mov	r4, r0
 1087 0190 0D46     		mov	r5, r1
 1088 0192 B6E7     		b	.L89
 1089              	.L102:
 1090              		.loc 2 378 0
 1091 0194 CDE90045 		strd	r4, [sp]
 1092 0198 C3E90045 		strd	r4, [r3]
 1093 019c 61E7     		b	.L81
 1094              	.L101:
 1095              		.loc 2 388 0
 1096 019e C7E90045 		strd	r4, [r7]
 1097 01a2 A046     		mov	r8, r4
 1098 01a4 A946     		mov	r9, r5
 1099 01a6 88E7     		b	.L85
 1100              	.L105:
 1101              		.align	2
 1102              	.L104:
 1103 01a8 00000000 		.word	.LANCHOR15
 1104 01ac 00000000 		.word	.LANCHOR11
 1105 01b0 00000000 		.word	.LANCHOR12
 1106 01b4 00000000 		.word	.LANCHOR14
 1107 01b8 00000000 		.word	.LANCHOR13
 1108 01bc 00000000 		.word	.LANCHOR23
 1109              		.cfi_endproc
 1110              	.LFE137:
 1111              		.size	cruisePID, .-cruisePID
 1112              		.section	.text.cruiseCalc,"ax",%progbits
 1113              		.align	2
 1114              		.p2align 4,,15
 1115              		.global	cruiseCalc
 1116              		.thumb
 1117              		.thumb_func
 1118              		.type	cruiseCalc, %function
 1119              	cruiseCalc:
 1120              	.LFB120:
 1121              		.loc 2 143 0
 1122              		.cfi_startproc
 1123              		@ args = 0, pretend = 0, frame = 0
 1124              		@ frame_needed = 0, uses_anonymous_args = 0
 1125 0000 2DE9F047 		push	{r4, r5, r6, r7, r8, r9, r10, lr}
 1126              		.cfi_def_cfa_offset 32
 1127              		.cfi_offset 4, -32
 1128              		.cfi_offset 5, -28
 1129              		.cfi_offset 6, -24
 1130              		.cfi_offset 7, -20
 1131              		.cfi_offset 8, -16
 1132              		.cfi_offset 9, -12
 1133              		.cfi_offset 10, -8
 1134              		.cfi_offset 14, -4
 1135              		.loc 2 145 0
 1136 0004 AA49     		ldr	r1, .L171
 1137              		.loc 2 147 0
 1138 0006 AB4F     		ldr	r7, .L171+4
 1139              		.loc 2 145 0
 1140 0008 0B68     		ldr	r3, [r1]
ARM GAS  C:\Users\srich\AppData\Local\Temp\cc32e3J8.s 			page 21


 1141              		.loc 2 148 0
 1142 000a 3A7F     		ldrb	r2, [r7, #28]	@ zero_extendqisi2
 1143 000c AA4E     		ldr	r6, .L171+8
 1144              		.loc 2 145 0
 1145 000e 0133     		adds	r3, r3, #1
 1146              		.loc 2 148 0
 1147 0010 02EB8202 		add	r2, r2, r2, lsl #2
 1148              		.loc 2 151 0
 1149 0014 FA2B     		cmp	r3, #250
 1150              		.loc 2 143 0
 1151 0016 86B0     		sub	sp, sp, #24
 1152              		.cfi_def_cfa_offset 56
 1153              		.loc 2 145 0
 1154 0018 0B60     		str	r3, [r1]
 1155              		.loc 2 148 0
 1156 001a 3260     		str	r2, [r6]
 1157              		.loc 2 151 0
 1158 001c 00F02B81 		beq	.L164
 1159              		.loc 2 164 0
 1160 0020 A64C     		ldr	r4, .L171+12
 1161 0022 A74B     		ldr	r3, .L171+16
 1162 0024 2288     		ldrh	r2, [r4]
 1163 0026 1888     		ldrh	r0, [r3]
 1164 0028 8242     		cmp	r2, r0
 1165 002a 05D0     		beq	.L109
 1166              		.loc 2 168 0
 1167 002c A548     		ldr	r0, .L171+20
 1168              		.loc 2 166 0
 1169 002e 1A80     		strh	r2, [r3]	@ movhi
 1170              		.loc 2 168 0
 1171 0030 0122     		movs	r2, #1
 1172              		.loc 2 167 0
 1173 0032 0023     		movs	r3, #0
 1174              		.loc 2 168 0
 1175 0034 0270     		strb	r2, [r0]
 1176              		.loc 2 167 0
 1177 0036 0B60     		str	r3, [r1]
 1178              	.L109:
 1179              		.loc 2 172 0
 1180 0038 A34D     		ldr	r5, .L171+24
 1181 003a 2B88     		ldrh	r3, [r5]
 1182 003c 002B     		cmp	r3, #0
 1183 003e 40F08780 		bne	.L165
 1184              	.L113:
 1185              	.LBB14:
 1186              		.loc 2 250 0
 1187 0042 DFF8CCE2 		ldr	lr, .L171+96
 1188              		.loc 2 251 0
 1189 0046 A149     		ldr	r1, .L171+28
 1190              		.loc 2 252 0
 1191 0048 A14A     		ldr	r2, .L171+32
 1192              		.loc 2 253 0
 1193 004a A24C     		ldr	r4, .L171+36
 1194              		.loc 2 255 0
 1195 004c A24D     		ldr	r5, .L171+40
 1196              		.loc 2 256 0
 1197 004e DFF8C4A2 		ldr	r10, .L171+100
ARM GAS  C:\Users\srich\AppData\Local\Temp\cc32e3J8.s 			page 22


 1198              		.loc 2 262 0
 1199 0052 DFF86092 		ldr	r9, .L171+4
 1200 0056 DFF86082 		ldr	r8, .L171+8
 1201              		.loc 2 250 0
 1202 005a 0023     		movs	r3, #0
 1203              		.loc 2 253 0
 1204 005c 0120     		movs	r0, #1
 1205              		.loc 2 250 0
 1206 005e AEF80030 		strh	r3, [lr]	@ movhi
 1207              		.loc 2 251 0
 1208 0062 0B70     		strb	r3, [r1]
 1209              		.loc 2 252 0
 1210 0064 1360     		str	r3, [r2]
 1211              		.loc 2 253 0
 1212 0066 FFF7FEFF 		bl	measGetValue_2
 1213              	.LVL50:
 1214              		.loc 2 254 0
 1215 006a DFF8ACE2 		ldr	lr, .L171+104
 1216 006e 9B4B     		ldr	r3, .L171+44
 1217              		.loc 2 253 0
 1218 0070 C0F51C51 		rsb	r1, r0, #9984
 1219              		.loc 2 254 0
 1220 0074 0022     		movs	r2, #0
 1221              		.loc 2 253 0
 1222 0076 1031     		adds	r1, r1, #16
 1223              		.loc 2 255 0
 1224 0078 0120     		movs	r0, #1
 1225              		.loc 2 254 0
 1226 007a CEE90023 		strd	r2, [lr]
 1227              		.loc 2 253 0
 1228 007e 2160     		str	r1, [r4]
 1229              		.loc 2 255 0
 1230 0080 FFF7FEFF 		bl	measGetValue_2
 1231              	.LVL51:
 1232 0084 6423     		movs	r3, #100
 1233 0086 03FB00F0 		mul	r0, r3, r0
 1234 008a FFF7FEFF 		bl	__aeabi_i2d
 1235              	.LVL52:
 1236              		.loc 2 262 0
 1237 008e B7F91870 		ldrsh	r7, [r7, #24]
 1238 0092 3668     		ldr	r6, [r6]
 1239              		.loc 2 257 0
 1240 0094 DFF884C2 		ldr	ip, .L171+108
 1241              		.loc 2 258 0
 1242 0098 DFF884E2 		ldr	lr, .L171+112
 1243              		.loc 2 256 0
 1244 009c 0022     		movs	r2, #0
 1245 009e 0023     		movs	r3, #0
 1246              		.loc 2 262 0
 1247 00a0 B742     		cmp	r7, r6
 1248              		.loc 2 255 0
 1249 00a2 C5E90001 		strd	r0, [r5]
 1250              		.loc 2 256 0
 1251 00a6 CAE90023 		strd	r2, [r10]
 1252              		.loc 2 257 0
 1253 00aa CCE90023 		strd	r2, [ip]
 1254              		.loc 2 258 0
ARM GAS  C:\Users\srich\AppData\Local\Temp\cc32e3J8.s 			page 23


 1255 00ae CEE90023 		strd	r2, [lr]
 1256              		.loc 2 262 0
 1257 00b2 00F33B81 		bgt	.L166
 1258              	.L128:
 1259              		.loc 2 273 0
 1260 00b6 8A4B     		ldr	r3, .L171+48
 1261 00b8 0022     		movs	r2, #0
 1262 00ba 1A70     		strb	r2, [r3]
 1263              	.L129:
 1264              		.loc 2 275 0
 1265 00bc FFF7FEFF 		bl	speedGetSpeed
 1266              	.LVL53:
 1267 00c0 1328     		cmp	r0, #19
 1268 00c2 40F25C81 		bls	.L132
 1269              	.L134:
 1270 00c6 2568     		ldr	r5, [r4]
 1271              	.L133:
 1272              		.loc 2 286 0
 1273 00c8 864E     		ldr	r6, .L171+52
 1274 00ca 874A     		ldr	r2, .L171+56
 1275 00cc 3389     		ldrh	r3, [r6, #8]
 1276              		.loc 2 283 0
 1277 00ce 42F21071 		movw	r1, #10000
 1278 00d2 8D42     		cmp	r5, r1
 1279 00d4 A8BF     		it	ge
 1280 00d6 0D46     		movge	r5, r1
 1281              		.loc 2 284 0
 1282 00d8 B5F57A7F 		cmp	r5, #1000
 1283 00dc B8BF     		it	lt
 1284 00de 4FF47A75 		movlt	r5, #1000
 1285              		.loc 2 286 0
 1286 00e2 03FB05F3 		mul	r3, r3, r5
 1287 00e6 82FB0312 		smull	r1, r2, r2, r3
 1288 00ea DB17     		asrs	r3, r3, #31
 1289 00ec C3EB2232 		rsb	r2, r3, r2, asr #12
 1290 00f0 92B2     		uxth	r2, r2
 1291 00f2 3046     		mov	r0, r6
 1292 00f4 0221     		movs	r1, #2
 1293              		.loc 2 284 0
 1294 00f6 2560     		str	r5, [r4]
 1295              		.loc 2 286 0
 1296 00f8 FFF7FEFF 		bl	pwmEnableChannel
 1297              	.LVL54:
 1298              	.L127:
 1299              	.LBE14:
 1300              	.LBB15:
 1301              		.loc 2 288 0
 1302 00fc 2023     		movs	r3, #32
 1303              	@ 288 "src/cruise.c" 1
 1304 00fe 83F31188 		msr     BASEPRI, r3
 1305              	@ 0 "" 2
 1306              		.thumb
 1307              	.LBE15:
 1308              		.loc 2 289 0
 1309 0102 7A4B     		ldr	r3, .L171+60
 1310 0104 2268     		ldr	r2, [r4]
 1311 0106 1A60     		str	r2, [r3]
ARM GAS  C:\Users\srich\AppData\Local\Temp\cc32e3J8.s 			page 24


 1312              		.loc 2 292 0
 1313 0108 0220     		movs	r0, #2
 1314 010a FFF7FEFF 		bl	measGetValue_2
 1315              	.LVL55:
 1316 010e 784A     		ldr	r2, .L171+64
 1317              	.LBB16:
 1318              		.loc 2 293 0
 1319 0110 0023     		movs	r3, #0
 1320              	.LBE16:
 1321              		.loc 2 292 0
 1322 0112 1060     		str	r0, [r2]
 1323              	.LBB17:
 1324              		.loc 2 293 0
 1325              	@ 293 "src/cruise.c" 1
 1326 0114 83F31188 		msr     BASEPRI, r3
 1327              	@ 0 "" 2
 1328              		.thumb
 1329              	.LBE17:
 1330              		.loc 2 295 0
 1331 0118 764B     		ldr	r3, .L171+68
 1332 011a 1B78     		ldrb	r3, [r3]	@ zero_extendqisi2
 1333 011c 13B9     		cbnz	r3, .L167
 1334              		.loc 2 299 0
 1335 011e 06B0     		add	sp, sp, #24
 1336              		.cfi_remember_state
 1337              		.cfi_def_cfa_offset 32
 1338              		@ sp needed
 1339 0120 BDE8F087 		pop	{r4, r5, r6, r7, r8, r9, r10, pc}
 1340              	.L167:
 1341              		.cfi_restore_state
 1342              		.loc 2 297 0
 1343 0124 1168     		ldr	r1, [r2]
 1344 0126 3489     		ldrh	r4, [r6, #8]
 1345 0128 6F4A     		ldr	r2, .L171+56
 1346 012a 6E48     		ldr	r0, .L171+52
 1347 012c C1F51C53 		rsb	r3, r1, #9984
 1348 0130 1033     		adds	r3, r3, #16
 1349 0132 9BB2     		uxth	r3, r3
 1350 0134 03FB04F3 		mul	r3, r3, r4
 1351 0138 82FB0312 		smull	r1, r2, r2, r3
 1352 013c DB17     		asrs	r3, r3, #31
 1353 013e C3EB2232 		rsb	r2, r3, r2, asr #12
 1354 0142 92B2     		uxth	r2, r2
 1355 0144 0121     		movs	r1, #1
 1356              		.loc 2 299 0
 1357 0146 06B0     		add	sp, sp, #24
 1358              		.cfi_remember_state
 1359              		.cfi_def_cfa_offset 32
 1360              		@ sp needed
 1361 0148 BDE8F047 		pop	{r4, r5, r6, r7, r8, r9, r10, lr}
 1362              		.cfi_restore 14
 1363              		.cfi_restore 10
 1364              		.cfi_restore 9
 1365              		.cfi_restore 8
 1366              		.cfi_restore 7
 1367              		.cfi_restore 6
 1368              		.cfi_restore 5
ARM GAS  C:\Users\srich\AppData\Local\Temp\cc32e3J8.s 			page 25


 1369              		.cfi_restore 4
 1370              		.cfi_def_cfa_offset 0
 1371              		.loc 2 297 0
 1372 014c FFF7FEBF 		b	pwmEnableChannel
 1373              	.LVL56:
 1374              	.L165:
 1375              		.cfi_restore_state
 1376              		.loc 2 172 0 discriminator 1
 1377 0150 FFF7FEFF 		bl	speedGetSpeed
 1378              	.LVL57:
 1379 0154 0928     		cmp	r0, #9
 1380 0156 40F2A880 		bls	.L168
 1381              		.loc 2 178 0
 1382 015a 2B88     		ldrh	r3, [r5]
 1383 015c 002B     		cmp	r3, #0
 1384 015e 3FF470AF 		beq	.L113
 1385              	.LBB18:
 1386              		.loc 2 180 0
 1387 0162 654B     		ldr	r3, .L171+72
 1388 0164 93F80080 		ldrb	r8, [r3]	@ zero_extendqisi2
 1389 0168 B8F1000F 		cmp	r8, #0
 1390 016c 40F02D81 		bne	.L169
 1391              		.loc 2 185 0
 1392 0170 624B     		ldr	r3, .L171+76
 1393 0172 93F80090 		ldrb	r9, [r3]	@ zero_extendqisi2
 1394 0176 B9F1000F 		cmp	r9, #0
 1395 017a 00F01281 		beq	.L116
 1396              		.loc 2 187 0
 1397 017e FFF7FEFF 		bl	speedGetRpm
 1398              	.LVL58:
 1399 0182 2080     		strh	r0, [r4]	@ movhi
 1400              		.loc 2 188 0
 1401 0184 FFF7FEFF 		bl	speedGetRpm
 1402              	.LVL59:
 1403 0188 5D4B     		ldr	r3, .L171+80
 1404 018a DFF898E1 		ldr	lr, .L171+116
 1405 018e DFF898C1 		ldr	ip, .L171+120
 1406 0192 B3F90030 		ldrsh	r3, [r3]
 1407 0196 5B4A     		ldr	r2, .L171+84
 1408 0198 B4F90010 		ldrsh	r1, [r4]
 1409 019c BEF900E0 		ldrsh	lr, [lr]
 1410 01a0 BCF90040 		ldrsh	r4, [ip]
 1411 01a4 0093     		str	r3, [sp]
 1412 01a6 C830     		adds	r0, r0, #200
 1413 01a8 00B2     		sxth	r0, r0
 1414 01aa 4346     		mov	r3, r8
 1415              	.L163:
 1416              		.loc 2 192 0
 1417 01ac CDF804E0 		str	lr, [sp, #4]
 1418 01b0 0294     		str	r4, [sp, #8]
 1419 01b2 0392     		str	r2, [sp, #12]
 1420 01b4 0492     		str	r2, [sp, #16]
 1421 01b6 0592     		str	r2, [sp, #20]
 1422              	.L162:
 1423 01b8 FFF7FEFF 		bl	cruisePID
 1424              	.LVL60:
 1425 01bc 524A     		ldr	r2, .L171+88
ARM GAS  C:\Users\srich\AppData\Local\Temp\cc32e3J8.s 			page 26


 1426              		.loc 2 194 0
 1427 01be 454C     		ldr	r4, .L171+36
 1428              		.loc 2 192 0
 1429 01c0 C317     		asrs	r3, r0, #31
 1430 01c2 82FB0020 		smull	r2, r0, r2, r0
 1431 01c6 C3EB6010 		rsb	r0, r3, r0, asr #5
 1432              		.loc 2 200 0
 1433 01ca B7F91820 		ldrsh	r2, [r7, #24]
 1434 01ce 3368     		ldr	r3, [r6]
 1435 01d0 384F     		ldr	r7, .L171+4
 1436 01d2 394E     		ldr	r6, .L171+8
 1437              		.loc 2 194 0
 1438 01d4 C0F51C50 		rsb	r0, r0, #9984
 1439 01d8 1030     		adds	r0, r0, #16
 1440              		.loc 2 200 0
 1441 01da 9A42     		cmp	r2, r3
 1442              		.loc 2 194 0
 1443 01dc 2060     		str	r0, [r4]
 1444              		.loc 2 200 0
 1445 01de 04DD     		ble	.L117
 1446              		.loc 2 200 0 is_stmt 0 discriminator 1
 1447 01e0 4A4B     		ldr	r3, .L171+92
 1448 01e2 1B78     		ldrb	r3, [r3]	@ zero_extendqisi2
 1449 01e4 002B     		cmp	r3, #0
 1450 01e6 40F00E81 		bne	.L170
 1451              	.L117:
 1452              		.loc 2 212 0 is_stmt 1
 1453 01ea 3D4B     		ldr	r3, .L171+48
 1454 01ec 0022     		movs	r2, #0
 1455 01ee 1A70     		strb	r2, [r3]
 1456              	.L118:
 1457              		.loc 2 214 0
 1458 01f0 FFF7FEFF 		bl	speedGetSpeed
 1459              	.LVL61:
 1460 01f4 1328     		cmp	r0, #19
 1461              		.loc 2 216 0
 1462 01f6 2768     		ldr	r7, [r4]
 1463              		.loc 2 214 0
 1464 01f8 07D8     		bhi	.L122
 1465              		.loc 2 214 0 is_stmt 0 discriminator 1
 1466 01fa 444B     		ldr	r3, .L171+92
 1467 01fc 1B78     		ldrb	r3, [r3]	@ zero_extendqisi2
 1468 01fe 23B1     		cbz	r3, .L122
 1469              		.loc 2 216 0 is_stmt 1
 1470 0200 41F65833 		movw	r3, #7000
 1471 0204 9F42     		cmp	r7, r3
 1472 0206 B8BF     		it	lt
 1473 0208 1F46     		movlt	r7, r3
 1474              	.L122:
 1475              		.loc 2 222 0
 1476 020a 42F21071 		movw	r1, #10000
 1477 020e 8F42     		cmp	r7, r1
 1478              		.loc 2 225 0
 1479 0210 344E     		ldr	r6, .L171+52
 1480 0212 354A     		ldr	r2, .L171+56
 1481 0214 3389     		ldrh	r3, [r6, #8]
 1482              		.loc 2 222 0
ARM GAS  C:\Users\srich\AppData\Local\Temp\cc32e3J8.s 			page 27


 1483 0216 A8BF     		it	ge
 1484 0218 0F46     		movge	r7, r1
 1485              		.loc 2 223 0
 1486 021a B7F57A7F 		cmp	r7, #1000
 1487 021e B8BF     		it	lt
 1488 0220 4FF47A77 		movlt	r7, #1000
 1489              		.loc 2 225 0
 1490 0224 03FB07F3 		mul	r3, r3, r7
 1491 0228 82FB0312 		smull	r1, r2, r2, r3
 1492 022c DB17     		asrs	r3, r3, #31
 1493 022e C3EB2232 		rsb	r2, r3, r2, asr #12
 1494 0232 92B2     		uxth	r2, r2
 1495 0234 3046     		mov	r0, r6
 1496 0236 0221     		movs	r1, #2
 1497              		.loc 2 223 0
 1498 0238 2760     		str	r7, [r4]
 1499              		.loc 2 225 0
 1500 023a FFF7FEFF 		bl	pwmEnableChannel
 1501              	.LVL62:
 1502              		.loc 2 228 0
 1503 023e 0120     		movs	r0, #1
 1504 0240 FFF7FEFF 		bl	measGetValue_2
 1505              	.LVL63:
 1506 0244 2368     		ldr	r3, [r4]
 1507 0246 C0F51C50 		rsb	r0, r0, #9984
 1508 024a 1030     		adds	r0, r0, #16
 1509 024c 9842     		cmp	r0, r3
 1510 024e 08DA     		bge	.L125
 1511              		.loc 2 230 0
 1512 0250 2F4A     		ldr	r2, .L171+96
 1513 0252 1388     		ldrh	r3, [r2]
 1514 0254 0133     		adds	r3, r3, #1
 1515 0256 9BB2     		uxth	r3, r3
 1516              		.loc 2 231 0
 1517 0258 962B     		cmp	r3, #150
 1518              		.loc 2 230 0
 1519 025a 1380     		strh	r3, [r2]	@ movhi
 1520              		.loc 2 233 0
 1521 025c 84BF     		itt	hi
 1522 025e 0023     		movhi	r3, #0
 1523 0260 2B80     		strhhi	r3, [r5]	@ movhi
 1524              	.L125:
 1525              		.loc 2 239 0
 1526 0262 0220     		movs	r0, #2
 1527 0264 FFF7FEFF 		bl	measGetValue_2
 1528              	.LVL64:
 1529 0268 B0F5FA7F 		cmp	r0, #500
 1530 026c 7FF746AF 		ble	.L127
 1531              		.loc 2 241 0
 1532 0270 0023     		movs	r3, #0
 1533 0272 2B80     		strh	r3, [r5]	@ movhi
 1534 0274 42E7     		b	.L127
 1535              	.L164:
 1536              	.LBE18:
 1537              		.loc 2 153 0
 1538 0276 124D     		ldr	r5, .L171+16
 1539 0278 104C     		ldr	r4, .L171+12
ARM GAS  C:\Users\srich\AppData\Local\Temp\cc32e3J8.s 			page 28


 1540 027a B5F90030 		ldrsh	r3, [r5]
 1541 027e B4F90010 		ldrsh	r1, [r4]
 1542 0282 9942     		cmp	r1, r3
 1543 0284 7FF4D8AE 		bne	.L109
 1544              		.loc 2 155 0
 1545 0288 0E4B     		ldr	r3, .L171+20
 1546 028a 1A78     		ldrb	r2, [r3]	@ zero_extendqisi2
 1547 028c 002A     		cmp	r2, #0
 1548 028e 3FF4D3AE 		beq	.L109
 1549              		.loc 2 157 0
 1550 0292 0022     		movs	r2, #0
 1551              		.loc 2 158 0
 1552 0294 1046     		mov	r0, r2
 1553              		.loc 2 157 0
 1554 0296 1A70     		strb	r2, [r3]
 1555              		.loc 2 158 0
 1556 0298 FFF7FEFF 		bl	eepromWrite
 1557              	.LVL65:
 1558 029c 0028     		cmp	r0, #0
 1559 029e 3FF4CBAE 		beq	.L109
 1560              		.loc 2 159 0
 1561 02a2 4FF6FF73 		movw	r3, #65535
 1562 02a6 2B80     		strh	r3, [r5]	@ movhi
 1563 02a8 C6E6     		b	.L109
 1564              	.L168:
 1565              		.loc 2 174 0
 1566 02aa 0023     		movs	r3, #0
 1567 02ac 2B80     		strh	r3, [r5]	@ movhi
 1568 02ae C8E6     		b	.L113
 1569              	.L172:
 1570              		.align	2
 1571              	.L171:
 1572 02b0 00000000 		.word	.LANCHOR3
 1573 02b4 00000000 		.word	bmsitems
 1574 02b8 00000000 		.word	.LANCHOR18
 1575 02bc 00000000 		.word	.LANCHOR19
 1576 02c0 00000000 		.word	.LANCHOR4
 1577 02c4 00000000 		.word	.LANCHOR5
 1578 02c8 00000000 		.word	.LANCHOR6
 1579 02cc 00000000 		.word	.LANCHOR8
 1580 02d0 00000000 		.word	.LANCHOR9
 1581 02d4 00000000 		.word	.LANCHOR0
 1582 02d8 00000000 		.word	.LANCHOR12
 1583 02dc 00002E40 		.word	1076756480
 1584 02e0 00000000 		.word	.LANCHOR22
 1585 02e4 00000000 		.word	PWMD5
 1586 02e8 AD8BDB68 		.word	1759218605
 1587 02ec 00000000 		.word	.LANCHOR2
 1588 02f0 00000000 		.word	.LANCHOR1
 1589 02f4 00000000 		.word	.LANCHOR7
 1590 02f8 00000000 		.word	.LANCHOR16
 1591 02fc 00000000 		.word	.LANCHOR17
 1592 0300 00000000 		.word	.LANCHOR24
 1593 0304 40420F00 		.word	1000000
 1594 0308 1F85EB51 		.word	1374389535
 1595 030c 00000000 		.word	.LANCHOR27
 1596 0310 00000000 		.word	.LANCHOR10
ARM GAS  C:\Users\srich\AppData\Local\Temp\cc32e3J8.s 			page 29


 1597 0314 00000000 		.word	.LANCHOR13
 1598 0318 00000000 		.word	.LANCHOR11
 1599 031c 00000000 		.word	.LANCHOR14
 1600 0320 00000000 		.word	.LANCHOR15
 1601 0324 00000000 		.word	.LANCHOR25
 1602 0328 00000000 		.word	.LANCHOR26
 1603              	.L166:
 1604              	.LBB19:
 1605              		.loc 2 262 0 discriminator 1
 1606 032c 484B     		ldr	r3, .L173
 1607 032e 1B78     		ldrb	r3, [r3]	@ zero_extendqisi2
 1608 0330 002B     		cmp	r3, #0
 1609 0332 3FF4C0AE 		beq	.L128
 1610              		.loc 2 262 0 is_stmt 0 discriminator 2
 1611 0336 0420     		movs	r0, #4
 1612 0338 FFF7FEFF 		bl	measGetValue
 1613              	.LVL66:
 1614 033c 0128     		cmp	r0, #1
 1615 033e 7FF4BAAE 		bne	.L128
 1616              		.loc 2 264 0 is_stmt 1
 1617 0342 FFF7FEFF 		bl	speedGetSpeed
 1618              	.LVL67:
 1619 0346 1428     		cmp	r0, #20
 1620 0348 7FF6B8AE 		bls	.L129
 1621              		.loc 2 266 0
 1622 034c B9F91830 		ldrsh	r3, [r9, #24]
 1623 0350 D8F80020 		ldr	r2, [r8]
 1624 0354 9B1A     		subs	r3, r3, r2
 1625 0356 03EB8303 		add	r3, r3, r3, lsl #2
 1626 035a 03EB8303 		add	r3, r3, r3, lsl #2
 1627 035e 5B00     		lsls	r3, r3, #1
 1628 0360 9BB2     		uxth	r3, r3
 1629              		.loc 2 267 0
 1630 0362 41F28831 		movw	r1, #5000
 1631 0366 8B42     		cmp	r3, r1
 1632 0368 6ED8     		bhi	.L130
 1633              		.loc 2 266 0
 1634 036a 3A49     		ldr	r1, .L173+4
 1635 036c 1A46     		mov	r2, r3
 1636 036e 0B80     		strh	r3, [r1]	@ movhi
 1637              	.L131:
 1638              		.loc 2 269 0
 1639 0370 2368     		ldr	r3, [r4]
 1640              		.loc 2 270 0
 1641 0372 3949     		ldr	r1, .L173+8
 1642              		.loc 2 269 0
 1643 0374 1344     		add	r3, r3, r2
 1644              		.loc 2 270 0
 1645 0376 0122     		movs	r2, #1
 1646              		.loc 2 269 0
 1647 0378 2360     		str	r3, [r4]
 1648              		.loc 2 270 0
 1649 037a 0A70     		strb	r2, [r1]
 1650 037c 9EE6     		b	.L129
 1651              	.L132:
 1652              		.loc 2 275 0 discriminator 1
 1653 037e 344B     		ldr	r3, .L173
ARM GAS  C:\Users\srich\AppData\Local\Temp\cc32e3J8.s 			page 30


 1654 0380 1B78     		ldrb	r3, [r3]	@ zero_extendqisi2
 1655 0382 002B     		cmp	r3, #0
 1656 0384 3FF49FAE 		beq	.L134
 1657              		.loc 2 275 0 is_stmt 0 discriminator 2
 1658 0388 0420     		movs	r0, #4
 1659 038a FFF7FEFF 		bl	measGetValue
 1660              	.LVL68:
 1661 038e 0128     		cmp	r0, #1
 1662              		.loc 2 277 0 is_stmt 1 discriminator 2
 1663 0390 2568     		ldr	r5, [r4]
 1664              		.loc 2 275 0 discriminator 2
 1665 0392 7FF499AE 		bne	.L133
 1666              		.loc 2 277 0
 1667 0396 41F65833 		movw	r3, #7000
 1668 039a 9D42     		cmp	r5, r3
 1669 039c B8BF     		it	lt
 1670 039e 1D46     		movlt	r5, r3
 1671 03a0 92E6     		b	.L133
 1672              	.L116:
 1673              	.LBE19:
 1674              	.LBB20:
 1675              		.loc 2 192 0
 1676 03a2 FFF7FEFF 		bl	speedGetRpm
 1677              	.LVL69:
 1678 03a6 2D4B     		ldr	r3, .L173+12
 1679 03a8 DFF8BCE0 		ldr	lr, .L173+24
 1680 03ac DFF8B4C0 		ldr	ip, .L173+20
 1681 03b0 B3F90030 		ldrsh	r3, [r3]
 1682 03b4 B4F90010 		ldrsh	r1, [r4]
 1683 03b8 BEF900E0 		ldrsh	lr, [lr]
 1684 03bc BCF90040 		ldrsh	r4, [ip]
 1685 03c0 274A     		ldr	r2, .L173+16
 1686 03c2 0093     		str	r3, [sp]
 1687 03c4 00B2     		sxth	r0, r0
 1688 03c6 4B46     		mov	r3, r9
 1689 03c8 F0E6     		b	.L163
 1690              	.L169:
 1691              		.loc 2 182 0
 1692 03ca FFF7FEFF 		bl	speedGetRpm
 1693              	.LVL70:
 1694 03ce 2080     		strh	r0, [r4]	@ movhi
 1695              		.loc 2 183 0
 1696 03d0 FFF7FEFF 		bl	speedGetRpm
 1697              	.LVL71:
 1698 03d4 DFF884E0 		ldr	lr, .L173+12
 1699 03d8 DFF88CC0 		ldr	ip, .L173+24
 1700 03dc 214B     		ldr	r3, .L173+20
 1701 03de B4F90010 		ldrsh	r1, [r4]
 1702 03e2 B3F90030 		ldrsh	r3, [r3]
 1703 03e6 BEF900E0 		ldrsh	lr, [lr]
 1704 03ea BCF90040 		ldrsh	r4, [ip]
 1705 03ee 1C4A     		ldr	r2, .L173+16
 1706 03f0 0293     		str	r3, [sp, #8]
 1707 03f2 C838     		subs	r0, r0, #200
 1708 03f4 CDF800E0 		str	lr, [sp]
 1709 03f8 00B2     		sxth	r0, r0
 1710 03fa 0194     		str	r4, [sp, #4]
ARM GAS  C:\Users\srich\AppData\Local\Temp\cc32e3J8.s 			page 31


 1711 03fc 0392     		str	r2, [sp, #12]
 1712 03fe 0492     		str	r2, [sp, #16]
 1713 0400 0592     		str	r2, [sp, #20]
 1714 0402 0023     		movs	r3, #0
 1715 0404 D8E6     		b	.L162
 1716              	.L170:
 1717              		.loc 2 202 0
 1718 0406 FFF7FEFF 		bl	speedGetSpeed
 1719              	.LVL72:
 1720 040a 1428     		cmp	r0, #20
 1721 040c 7FF6F0AE 		bls	.L118
 1722              		.loc 2 204 0
 1723 0410 B7F91830 		ldrsh	r3, [r7, #24]
 1724 0414 3268     		ldr	r2, [r6]
 1725 0416 9B1A     		subs	r3, r3, r2
 1726 0418 03EB8303 		add	r3, r3, r3, lsl #2
 1727 041c 03EB8303 		add	r3, r3, r3, lsl #2
 1728 0420 5B00     		lsls	r3, r3, #1
 1729 0422 9BB2     		uxth	r3, r3
 1730              		.loc 2 205 0
 1731 0424 41F28831 		movw	r1, #5000
 1732 0428 8B42     		cmp	r3, r1
 1733 042a 09D8     		bhi	.L119
 1734              		.loc 2 204 0
 1735 042c 0949     		ldr	r1, .L173+4
 1736 042e 1A46     		mov	r2, r3
 1737 0430 0B80     		strh	r3, [r1]	@ movhi
 1738              	.L120:
 1739              		.loc 2 207 0
 1740 0432 2368     		ldr	r3, [r4]
 1741              		.loc 2 208 0
 1742 0434 0849     		ldr	r1, .L173+8
 1743              		.loc 2 207 0
 1744 0436 1344     		add	r3, r3, r2
 1745              		.loc 2 208 0
 1746 0438 0122     		movs	r2, #1
 1747              		.loc 2 207 0
 1748 043a 2360     		str	r3, [r4]
 1749              		.loc 2 208 0
 1750 043c 0A70     		strb	r2, [r1]
 1751 043e D7E6     		b	.L118
 1752              	.L119:
 1753              		.loc 2 206 0
 1754 0440 044B     		ldr	r3, .L173+4
 1755 0442 0A46     		mov	r2, r1
 1756 0444 1980     		strh	r1, [r3]	@ movhi
 1757 0446 F4E7     		b	.L120
 1758              	.L130:
 1759              	.LBE20:
 1760              	.LBB21:
 1761              		.loc 2 268 0
 1762 0448 024B     		ldr	r3, .L173+4
 1763 044a 0A46     		mov	r2, r1
 1764 044c 1980     		strh	r1, [r3]	@ movhi
 1765 044e 8FE7     		b	.L131
 1766              	.L174:
 1767              		.align	2
ARM GAS  C:\Users\srich\AppData\Local\Temp\cc32e3J8.s 			page 32


 1768              	.L173:
 1769 0450 00000000 		.word	.LANCHOR27
 1770 0454 00000000 		.word	.LANCHOR21
 1771 0458 00000000 		.word	.LANCHOR22
 1772 045c 00000000 		.word	.LANCHOR24
 1773 0460 40420F00 		.word	1000000
 1774 0464 00000000 		.word	.LANCHOR26
 1775 0468 00000000 		.word	.LANCHOR25
 1776              	.LBE21:
 1777              		.cfi_endproc
 1778              	.LFE120:
 1779              		.size	cruiseCalc, .-cruiseCalc
 1780              		.section	.text.cmd_cruisevalues,"ax",%progbits
 1781              		.align	2
 1782              		.p2align 4,,15
 1783              		.global	cmd_cruisevalues
 1784              		.thumb
 1785              		.thumb_func
 1786              		.type	cmd_cruisevalues, %function
 1787              	cmd_cruisevalues:
 1788              	.LFB138:
 1789              		.loc 2 422 0
 1790              		.cfi_startproc
 1791              		@ args = 0, pretend = 0, frame = 0
 1792              		@ frame_needed = 0, uses_anonymous_args = 0
 1793              	.LVL73:
 1794 0000 2DE9F843 		push	{r3, r4, r5, r6, r7, r8, r9, lr}
 1795              		.cfi_def_cfa_offset 32
 1796              		.cfi_offset 3, -32
 1797              		.cfi_offset 4, -28
 1798              		.cfi_offset 5, -24
 1799              		.cfi_offset 6, -20
 1800              		.cfi_offset 7, -16
 1801              		.cfi_offset 8, -12
 1802              		.cfi_offset 9, -8
 1803              		.cfi_offset 14, -4
 1804              		.loc 2 426 0
 1805 0004 4A49     		ldr	r1, .L179
 1806              	.LVL74:
 1807              		.loc 2 431 0
 1808 0006 DFF8A481 		ldr	r8, .L179+124
 1809 000a 4A4F     		ldr	r7, .L179+4
 1810              		.loc 2 422 0
 1811 000c 0446     		mov	r4, r0
 1812              		.loc 2 426 0
 1813 000e FFF7FEFF 		bl	chprintf
 1814              	.LVL75:
 1815              		.loc 2 427 0
 1816 0012 2046     		mov	r0, r4
 1817 0014 4849     		ldr	r1, .L179+8
 1818 0016 FFF7FEFF 		bl	chprintf
 1819              	.LVL76:
 1820              		.loc 2 428 0
 1821 001a 7FE0     		b	.L176
 1822              	.L177:
 1823              		.loc 2 429 0
 1824 001c 0022     		movs	r2, #0
ARM GAS  C:\Users\srich\AppData\Local\Temp\cc32e3J8.s 			page 33


 1825 001e 1346     		mov	r3, r2
 1826 0020 2046     		mov	r0, r4
 1827 0022 4649     		ldr	r1, .L179+12
 1828              		.loc 2 433 0
 1829 0024 464E     		ldr	r6, .L179+16
 1830              		.loc 2 437 0
 1831 0026 474D     		ldr	r5, .L179+20
 1832              		.loc 2 429 0
 1833 0028 FFF7FEFF 		bl	chprintf
 1834              	.LVL77:
 1835              		.loc 2 431 0
 1836 002c D7E90001 		ldrd	r0, [r7]
 1837 0030 FFF7FEFF 		bl	__aeabi_d2iz
 1838              	.LVL78:
 1839 0034 B8F90090 		ldrsh	r9, [r8]
 1840 0038 4349     		ldr	r1, .L179+24
 1841 003a 0346     		mov	r3, r0
 1842 003c 4A46     		mov	r2, r9
 1843 003e 2046     		mov	r0, r4
 1844 0040 FFF7FEFF 		bl	chprintf
 1845              	.LVL79:
 1846              		.loc 2 432 0
 1847 0044 414B     		ldr	r3, .L179+28
 1848 0046 424A     		ldr	r2, .L179+32
 1849 0048 D3E90001 		ldrd	r0, [r3]
 1850 004c B2F90090 		ldrsh	r9, [r2]
 1851 0050 FFF7FEFF 		bl	__aeabi_d2iz
 1852              	.LVL80:
 1853 0054 4A46     		mov	r2, r9
 1854 0056 0346     		mov	r3, r0
 1855 0058 3E49     		ldr	r1, .L179+36
 1856 005a 2046     		mov	r0, r4
 1857 005c FFF7FEFF 		bl	chprintf
 1858              	.LVL81:
 1859              		.loc 2 433 0
 1860 0060 3D4B     		ldr	r3, .L179+40
 1861 0062 B6F90090 		ldrsh	r9, [r6]
 1862 0066 D3E90001 		ldrd	r0, [r3]
 1863 006a FFF7FEFF 		bl	__aeabi_d2iz
 1864              	.LVL82:
 1865 006e 4A46     		mov	r2, r9
 1866 0070 0346     		mov	r3, r0
 1867 0072 3A49     		ldr	r1, .L179+44
 1868 0074 2046     		mov	r0, r4
 1869 0076 FFF7FEFF 		bl	chprintf
 1870              	.LVL83:
 1871              		.loc 2 434 0
 1872 007a 394B     		ldr	r3, .L179+48
 1873 007c B6F90020 		ldrsh	r2, [r6]
 1874 0080 1B68     		ldr	r3, [r3]
 1875 0082 3849     		ldr	r1, .L179+52
 1876 0084 2046     		mov	r0, r4
 1877 0086 FFF7FEFF 		bl	chprintf
 1878              	.LVL84:
 1879              		.loc 2 435 0
 1880 008a 374B     		ldr	r3, .L179+56
 1881 008c 3749     		ldr	r1, .L179+60
ARM GAS  C:\Users\srich\AppData\Local\Temp\cc32e3J8.s 			page 34


 1882 008e 1A68     		ldr	r2, [r3]
 1883 0090 2046     		mov	r0, r4
 1884 0092 FFF7FEFF 		bl	chprintf
 1885              	.LVL85:
 1886              		.loc 2 436 0
 1887 0096 364B     		ldr	r3, .L179+64
 1888 0098 3649     		ldr	r1, .L179+68
 1889 009a 1A88     		ldrh	r2, [r3]
 1890 009c 2046     		mov	r0, r4
 1891 009e FFF7FEFF 		bl	chprintf
 1892              	.LVL86:
 1893              		.loc 2 437 0
 1894 00a2 B5F90020 		ldrsh	r2, [r5]
 1895 00a6 3449     		ldr	r1, .L179+72
 1896 00a8 2046     		mov	r0, r4
 1897 00aa FFF7FEFF 		bl	chprintf
 1898              	.LVL87:
 1899              		.loc 2 438 0
 1900 00ae FFF7FEFF 		bl	speedGetRpm
 1901              	.LVL88:
 1902 00b2 3249     		ldr	r1, .L179+76
 1903 00b4 0246     		mov	r2, r0
 1904 00b6 2046     		mov	r0, r4
 1905 00b8 FFF7FEFF 		bl	chprintf
 1906              	.LVL89:
 1907              		.loc 2 439 0
 1908 00bc B5F90050 		ldrsh	r5, [r5]
 1909 00c0 FFF7FEFF 		bl	speedGetRpm
 1910              	.LVL90:
 1911 00c4 2E49     		ldr	r1, .L179+80
 1912 00c6 2A1A     		subs	r2, r5, r0
 1913 00c8 2046     		mov	r0, r4
 1914 00ca FFF7FEFF 		bl	chprintf
 1915              	.LVL91:
 1916              		.loc 2 440 0
 1917 00ce 2046     		mov	r0, r4
 1918 00d0 2C49     		ldr	r1, .L179+84
 1919 00d2 FFF7FEFF 		bl	chprintf
 1920              	.LVL92:
 1921              		.loc 2 441 0
 1922 00d6 2C4B     		ldr	r3, .L179+88
 1923 00d8 2C49     		ldr	r1, .L179+92
 1924 00da 1A88     		ldrh	r2, [r3]
 1925 00dc 2046     		mov	r0, r4
 1926 00de FFF7FEFF 		bl	chprintf
 1927              	.LVL93:
 1928              		.loc 2 442 0
 1929 00e2 2046     		mov	r0, r4
 1930 00e4 2A49     		ldr	r1, .L179+96
 1931 00e6 0022     		movs	r2, #0
 1932 00e8 FFF7FEFF 		bl	chprintf
 1933              	.LVL94:
 1934              		.loc 2 443 0
 1935 00ec 294B     		ldr	r3, .L179+100
 1936 00ee 2A49     		ldr	r1, .L179+104
 1937 00f0 1A88     		ldrh	r2, [r3]
 1938 00f2 2046     		mov	r0, r4
ARM GAS  C:\Users\srich\AppData\Local\Temp\cc32e3J8.s 			page 35


 1939 00f4 FFF7FEFF 		bl	chprintf
 1940              	.LVL95:
 1941              		.loc 2 444 0
 1942 00f8 284B     		ldr	r3, .L179+108
 1943 00fa 2949     		ldr	r1, .L179+112
 1944 00fc 1A78     		ldrb	r2, [r3]	@ zero_extendqisi2
 1945 00fe 2046     		mov	r0, r4
 1946 0100 FFF7FEFF 		bl	chprintf
 1947              	.LVL96:
 1948              		.loc 2 445 0
 1949 0104 274B     		ldr	r3, .L179+116
 1950 0106 2849     		ldr	r1, .L179+120
 1951 0108 1A68     		ldr	r2, [r3]
 1952 010a C2F51C52 		rsb	r2, r2, #9984
 1953 010e 2046     		mov	r0, r4
 1954 0110 1032     		adds	r2, r2, #16
 1955 0112 FFF7FEFF 		bl	chprintf
 1956              	.LVL97:
 1957              		.loc 2 446 0
 1958 0116 6420     		movs	r0, #100
 1959 0118 FFF7FEFF 		bl	chThdSleep
 1960              	.LVL98:
 1961              	.L176:
 1962              		.loc 2 428 0
 1963 011c 2368     		ldr	r3, [r4]
 1964 011e 2046     		mov	r0, r4
 1965 0120 5B69     		ldr	r3, [r3, #20]
 1966 0122 0021     		movs	r1, #0
 1967 0124 9847     		blx	r3
 1968              	.LVL99:
 1969 0126 0130     		adds	r0, r0, #1
 1970 0128 3FF478AF 		beq	.L177
 1971              		.loc 2 448 0
 1972 012c BDE8F883 		pop	{r3, r4, r5, r6, r7, r8, r9, pc}
 1973              	.LVL100:
 1974              	.L180:
 1975              		.align	2
 1976              	.L179:
 1977 0130 00000000 		.word	.LC0
 1978 0134 00000000 		.word	.LANCHOR11
 1979 0138 04000000 		.word	.LC1
 1980 013c 0C000000 		.word	.LC2
 1981 0140 00000000 		.word	.LANCHOR26
 1982 0144 00000000 		.word	.LANCHOR19
 1983 0148 18000000 		.word	.LC3
 1984 014c 00000000 		.word	.LANCHOR12
 1985 0150 00000000 		.word	.LANCHOR25
 1986 0154 30000000 		.word	.LC4
 1987 0158 00000000 		.word	.LANCHOR13
 1988 015c 48000000 		.word	.LC5
 1989 0160 00000000 		.word	.LANCHOR23
 1990 0164 60000000 		.word	.LC6
 1991 0168 00000000 		.word	.LANCHOR0
 1992 016c 78000000 		.word	.LC7
 1993 0170 00000000 		.word	.LANCHOR21
 1994 0174 84000000 		.word	.LC8
 1995 0178 A4000000 		.word	.LC9
ARM GAS  C:\Users\srich\AppData\Local\Temp\cc32e3J8.s 			page 36


 1996 017c B4000000 		.word	.LC10
 1997 0180 C8000000 		.word	.LC11
 1998 0184 DC000000 		.word	.LC12
 1999 0188 00000000 		.word	.LANCHOR10
 2000 018c E0000000 		.word	.LC13
 2001 0190 00010000 		.word	.LC14
 2002 0194 00000000 		.word	.LANCHOR6
 2003 0198 14010000 		.word	.LC15
 2004 019c 00000000 		.word	.LANCHOR7
 2005 01a0 28010000 		.word	.LC16
 2006 01a4 00000000 		.word	.LANCHOR1
 2007 01a8 3C010000 		.word	.LC17
 2008 01ac 00000000 		.word	.LANCHOR24
 2009              		.cfi_endproc
 2010              	.LFE138:
 2011              		.size	cmd_cruisevalues, .-cmd_cruisevalues
 2012              		.section	.text.cmd_setcruisevalues,"ax",%progbits
 2013              		.align	2
 2014              		.p2align 4,,15
 2015              		.global	cmd_setcruisevalues
 2016              		.thumb
 2017              		.thumb_func
 2018              		.type	cmd_setcruisevalues, %function
 2019              	cmd_setcruisevalues:
 2020              	.LFB139:
 2021              		.loc 2 450 0
 2022              		.cfi_startproc
 2023              		@ args = 0, pretend = 0, frame = 0
 2024              		@ frame_needed = 0, uses_anonymous_args = 0
 2025              	.LVL101:
 2026 0000 F8B5     		push	{r3, r4, r5, r6, r7, lr}
 2027              		.cfi_def_cfa_offset 24
 2028              		.cfi_offset 3, -24
 2029              		.cfi_offset 4, -20
 2030              		.cfi_offset 5, -16
 2031              		.cfi_offset 6, -12
 2032              		.cfi_offset 7, -8
 2033              		.cfi_offset 14, -4
 2034              		.loc 2 450 0
 2035 0002 0446     		mov	r4, r0
 2036 0004 0D46     		mov	r5, r1
 2037              		.loc 2 456 0
 2038 0006 4D49     		ldr	r1, .L199
 2039              	.LVL102:
 2040              		.loc 2 450 0
 2041 0008 1646     		mov	r6, r2
 2042              		.loc 2 456 0
 2043 000a FFF7FEFF 		bl	chprintf
 2044              	.LVL103:
 2045              		.loc 2 457 0
 2046 000e 2046     		mov	r0, r4
 2047 0010 4B49     		ldr	r1, .L199+4
 2048 0012 FFF7FEFF 		bl	chprintf
 2049              	.LVL104:
 2050              		.loc 2 458 0
 2051 0016 2368     		ldr	r3, [r4]
 2052 0018 2046     		mov	r0, r4
ARM GAS  C:\Users\srich\AppData\Local\Temp\cc32e3J8.s 			page 37


 2053 001a 5B69     		ldr	r3, [r3, #20]
 2054 001c 0021     		movs	r1, #0
 2055 001e 9847     		blx	r3
 2056              	.LVL105:
 2057 0020 0130     		adds	r0, r0, #1
 2058 0022 00D0     		beq	.L192
 2059 0024 F8BD     		pop	{r3, r4, r5, r6, r7, pc}
 2060              	.LVL106:
 2061              	.L192:
 2062              		.loc 2 459 0
 2063 0026 0022     		movs	r2, #0
 2064 0028 1346     		mov	r3, r2
 2065 002a 2046     		mov	r0, r4
 2066 002c 4549     		ldr	r1, .L199+8
 2067 002e FFF7FEFF 		bl	chprintf
 2068              	.LVL107:
 2069              		.loc 2 461 0
 2070 0032 022D     		cmp	r5, #2
 2071 0034 07D0     		beq	.L193
 2072              		.loc 2 501 0
 2073 0036 012D     		cmp	r5, #1
 2074 0038 55D0     		beq	.L194
 2075              	.LVL108:
 2076              	.L188:
 2077              		.loc 2 522 0
 2078 003a 2046     		mov	r0, r4
 2079 003c 4249     		ldr	r1, .L199+12
 2080              		.loc 2 527 0
 2081 003e BDE8F840 		pop	{r3, r4, r5, r6, r7, lr}
 2082              		.cfi_remember_state
 2083              		.cfi_restore 14
 2084              		.cfi_restore 7
 2085              		.cfi_restore 6
 2086              		.cfi_restore 5
 2087              		.cfi_restore 4
 2088              		.cfi_restore 3
 2089              		.cfi_def_cfa_offset 0
 2090              	.LVL109:
 2091              		.loc 2 522 0
 2092 0042 FFF7FEBF 		b	chprintf
 2093              	.LVL110:
 2094              	.L193:
 2095              		.cfi_restore_state
 2096              		.loc 2 461 0 discriminator 1
 2097 0046 3568     		ldr	r5, [r6]
 2098              	.LVL111:
 2099 0048 4049     		ldr	r1, .L199+16
 2100 004a 2846     		mov	r0, r5
 2101 004c FFF7FEFF 		bl	strcmp
 2102              	.LVL112:
 2103 0050 0028     		cmp	r0, #0
 2104 0052 33D0     		beq	.L195
 2105              		.loc 2 471 0 discriminator 1
 2106 0054 2846     		mov	r0, r5
 2107 0056 3E49     		ldr	r1, .L199+20
 2108 0058 FFF7FEFF 		bl	strcmp
 2109              	.LVL113:
ARM GAS  C:\Users\srich\AppData\Local\Temp\cc32e3J8.s 			page 38


 2110 005c 0028     		cmp	r0, #0
 2111 005e 37D0     		beq	.L196
 2112              		.loc 2 481 0 discriminator 1
 2113 0060 2846     		mov	r0, r5
 2114 0062 3C49     		ldr	r1, .L199+24
 2115 0064 FFF7FEFF 		bl	strcmp
 2116              	.LVL114:
 2117 0068 0028     		cmp	r0, #0
 2118 006a 55D0     		beq	.L197
 2119              		.loc 2 491 0 discriminator 1
 2120 006c 2846     		mov	r0, r5
 2121 006e 3A49     		ldr	r1, .L199+28
 2122 0070 FFF7FEFF 		bl	strcmp
 2123              	.LVL115:
 2124 0074 0028     		cmp	r0, #0
 2125 0076 E0D1     		bne	.L188
 2126              		.loc 2 492 0
 2127 0078 7068     		ldr	r0, [r6, #4]
 2128              		.loc 2 494 0
 2129 007a 384F     		ldr	r7, .L199+32
 2130 007c 384D     		ldr	r5, .L199+36
 2131 007e 394E     		ldr	r6, .L199+40
 2132              	.LVL116:
 2133              		.loc 2 492 0
 2134 0080 FFF7FEFF 		bl	atol
 2135              	.LVL117:
 2136 0084 384B     		ldr	r3, .L199+44
 2137 0086 3880     		strh	r0, [r7]	@ movhi
 2138 0088 1A88     		ldrh	r2, [r3]
 2139              	.LVL118:
 2140              	.L185:
 2141              		.loc 2 515 0
 2142 008a 3849     		ldr	r1, .L199+48
 2143 008c 2046     		mov	r0, r4
 2144 008e 12B2     		sxth	r2, r2
 2145 0090 FFF7FEFF 		bl	chprintf
 2146              	.LVL119:
 2147              		.loc 2 516 0
 2148 0094 2046     		mov	r0, r4
 2149 0096 B6F90020 		ldrsh	r2, [r6]
 2150 009a 3549     		ldr	r1, .L199+52
 2151 009c FFF7FEFF 		bl	chprintf
 2152              	.LVL120:
 2153              		.loc 2 517 0
 2154 00a0 2046     		mov	r0, r4
 2155 00a2 B7F90020 		ldrsh	r2, [r7]
 2156 00a6 3349     		ldr	r1, .L199+56
 2157 00a8 FFF7FEFF 		bl	chprintf
 2158              	.LVL121:
 2159              		.loc 2 518 0
 2160 00ac 2046     		mov	r0, r4
 2161 00ae B5F90020 		ldrsh	r2, [r5]
 2162 00b2 3149     		ldr	r1, .L199+60
 2163              		.loc 2 527 0
 2164 00b4 BDE8F840 		pop	{r3, r4, r5, r6, r7, lr}
 2165              		.cfi_remember_state
 2166              		.cfi_restore 14
ARM GAS  C:\Users\srich\AppData\Local\Temp\cc32e3J8.s 			page 39


 2167              		.cfi_restore 7
 2168              		.cfi_restore 6
 2169              		.cfi_restore 5
 2170              		.cfi_restore 4
 2171              		.cfi_restore 3
 2172              		.cfi_def_cfa_offset 0
 2173              	.LVL122:
 2174              		.loc 2 518 0
 2175 00b8 FFF7FEBF 		b	chprintf
 2176              	.LVL123:
 2177              	.L195:
 2178              		.cfi_restore_state
 2179              		.loc 2 462 0
 2180 00bc 7068     		ldr	r0, [r6, #4]
 2181              		.loc 2 464 0
 2182 00be 284D     		ldr	r5, .L199+36
 2183 00c0 284E     		ldr	r6, .L199+40
 2184              	.LVL124:
 2185 00c2 264F     		ldr	r7, .L199+32
 2186              		.loc 2 462 0
 2187 00c4 FFF7FEFF 		bl	atol
 2188              	.LVL125:
 2189 00c8 274B     		ldr	r3, .L199+44
 2190 00ca 2880     		strh	r0, [r5]	@ movhi
 2191 00cc 1A88     		ldrh	r2, [r3]
 2192 00ce DCE7     		b	.L185
 2193              	.LVL126:
 2194              	.L196:
 2195              		.loc 2 472 0
 2196 00d0 7068     		ldr	r0, [r6, #4]
 2197 00d2 234D     		ldr	r5, .L199+36
 2198 00d4 234E     		ldr	r6, .L199+40
 2199              	.LVL127:
 2200 00d6 214F     		ldr	r7, .L199+32
 2201 00d8 FFF7FEFF 		bl	atol
 2202              	.LVL128:
 2203              		.loc 2 474 0
 2204 00dc 224B     		ldr	r3, .L199+44
 2205              		.loc 2 472 0
 2206 00de 80B2     		uxth	r0, r0
 2207              	.LVL129:
 2208              		.loc 2 474 0
 2209 00e0 1880     		strh	r0, [r3]	@ movhi
 2210 00e2 0246     		mov	r2, r0
 2211 00e4 D1E7     		b	.L185
 2212              	.LVL130:
 2213              	.L194:
 2214              		.loc 2 501 0 discriminator 1
 2215 00e6 3668     		ldr	r6, [r6]
 2216              	.LVL131:
 2217 00e8 2449     		ldr	r1, .L199+64
 2218 00ea 3046     		mov	r0, r6
 2219 00ec FFF7FEFF 		bl	strcmp
 2220              	.LVL132:
 2221 00f0 0346     		mov	r3, r0
 2222 00f2 D8B1     		cbz	r0, .L198
 2223              		.loc 2 506 0 discriminator 1
ARM GAS  C:\Users\srich\AppData\Local\Temp\cc32e3J8.s 			page 40


 2224 00f4 3046     		mov	r0, r6
 2225 00f6 2249     		ldr	r1, .L199+68
 2226 00f8 FFF7FEFF 		bl	strcmp
 2227              	.LVL133:
 2228 00fc 0028     		cmp	r0, #0
 2229 00fe 9CD1     		bne	.L188
 2230              	.LBB22:
 2231              	.LBB23:
 2232              		.loc 2 306 0
 2233 0100 204B     		ldr	r3, .L199+72
 2234              	.LBE23:
 2235              	.LBE22:
 2236              		.loc 2 508 0
 2237 0102 2149     		ldr	r1, .L199+76
 2238              	.LBB25:
 2239              	.LBB24:
 2240              		.loc 2 306 0
 2241 0104 1880     		strh	r0, [r3]	@ movhi
 2242              	.LBE24:
 2243              	.LBE25:
 2244              		.loc 2 508 0
 2245 0106 2046     		mov	r0, r4
 2246              	.LVL134:
 2247              	.L191:
 2248 0108 FFF7FEFF 		bl	chprintf
 2249              	.LVL135:
 2250 010c 164B     		ldr	r3, .L199+44
 2251 010e 144D     		ldr	r5, .L199+36
 2252              	.LVL136:
 2253 0110 1A88     		ldrh	r2, [r3]
 2254 0112 144E     		ldr	r6, .L199+40
 2255 0114 114F     		ldr	r7, .L199+32
 2256 0116 B8E7     		b	.L185
 2257              	.LVL137:
 2258              	.L197:
 2259              		.loc 2 482 0
 2260 0118 7068     		ldr	r0, [r6, #4]
 2261              		.loc 2 484 0
 2262 011a 124E     		ldr	r6, .L199+40
 2263              	.LVL138:
 2264 011c 104D     		ldr	r5, .L199+36
 2265 011e 0F4F     		ldr	r7, .L199+32
 2266              		.loc 2 482 0
 2267 0120 FFF7FEFF 		bl	atol
 2268              	.LVL139:
 2269 0124 104B     		ldr	r3, .L199+44
 2270 0126 3080     		strh	r0, [r6]	@ movhi
 2271 0128 1A88     		ldrh	r2, [r3]
 2272              		.loc 2 484 0
 2273 012a AEE7     		b	.L185
 2274              	.LVL140:
 2275              	.L198:
 2276              	.LBB26:
 2277              	.LBB27:
 2278              		.loc 2 302 0
 2279 012c 1548     		ldr	r0, .L199+72
 2280              		.loc 2 303 0
ARM GAS  C:\Users\srich\AppData\Local\Temp\cc32e3J8.s 			page 41


 2281 012e 174A     		ldr	r2, .L199+80
 2282              		.loc 2 302 0
 2283 0130 0580     		strh	r5, [r0]	@ movhi
 2284              	.LBE27:
 2285              	.LBE26:
 2286              		.loc 2 503 0
 2287 0132 1749     		ldr	r1, .L199+84
 2288              	.LBB29:
 2289              	.LBB28:
 2290              		.loc 2 303 0
 2291 0134 1380     		strh	r3, [r2]	@ movhi
 2292              	.LBE28:
 2293              	.LBE29:
 2294              		.loc 2 503 0
 2295 0136 2046     		mov	r0, r4
 2296 0138 E6E7     		b	.L191
 2297              	.L200:
 2298 013a 00BF     		.align	2
 2299              	.L199:
 2300 013c 00000000 		.word	.LC0
 2301 0140 04000000 		.word	.LC1
 2302 0144 0C000000 		.word	.LC2
 2303 0148 C8010000 		.word	.LC29
 2304 014c 50010000 		.word	.LC18
 2305 0150 54010000 		.word	.LC19
 2306 0154 58010000 		.word	.LC20
 2307 0158 5C010000 		.word	.LC21
 2308 015c 00000000 		.word	.LANCHOR26
 2309 0160 00000000 		.word	.LANCHOR19
 2310 0164 00000000 		.word	.LANCHOR25
 2311 0168 00000000 		.word	.LANCHOR24
 2312 016c A4010000 		.word	.LC26
 2313 0170 B0010000 		.word	.LC27
 2314 0174 BC010000 		.word	.LC28
 2315 0178 A4000000 		.word	.LC9
 2316 017c 60010000 		.word	.LC22
 2317 0180 80010000 		.word	.LC24
 2318 0184 00000000 		.word	.LANCHOR6
 2319 0188 84010000 		.word	.LC25
 2320 018c 00000000 		.word	.LANCHOR10
 2321 0190 64010000 		.word	.LC23
 2322              		.cfi_endproc
 2323              	.LFE139:
 2324              		.size	cmd_setcruisevalues, .-cmd_setcruisevalues
 2325              		.section	.text.cmd_cruise,"ax",%progbits
 2326              		.align	2
 2327              		.p2align 4,,15
 2328              		.global	cmd_cruise
 2329              		.thumb
 2330              		.thumb_func
 2331              		.type	cmd_cruise, %function
 2332              	cmd_cruise:
 2333              	.LFB140:
 2334              		.loc 2 529 0
 2335              		.cfi_startproc
 2336              		@ args = 0, pretend = 0, frame = 0
 2337              		@ frame_needed = 0, uses_anonymous_args = 0
ARM GAS  C:\Users\srich\AppData\Local\Temp\cc32e3J8.s 			page 42


 2338              	.LVL141:
 2339 0000 70B5     		push	{r4, r5, r6, lr}
 2340              		.cfi_def_cfa_offset 16
 2341              		.cfi_offset 4, -16
 2342              		.cfi_offset 5, -12
 2343              		.cfi_offset 6, -8
 2344              		.cfi_offset 14, -4
 2345              		.loc 2 529 0
 2346 0002 0446     		mov	r4, r0
 2347 0004 0D46     		mov	r5, r1
 2348              		.loc 2 533 0
 2349 0006 1C49     		ldr	r1, .L207
 2350              	.LVL142:
 2351              		.loc 2 529 0
 2352 0008 1646     		mov	r6, r2
 2353              		.loc 2 533 0
 2354 000a FFF7FEFF 		bl	chprintf
 2355              	.LVL143:
 2356              		.loc 2 534 0
 2357 000e 2046     		mov	r0, r4
 2358 0010 1A49     		ldr	r1, .L207+4
 2359 0012 FFF7FEFF 		bl	chprintf
 2360              	.LVL144:
 2361              		.loc 2 535 0
 2362 0016 0022     		movs	r2, #0
 2363 0018 2046     		mov	r0, r4
 2364 001a 1346     		mov	r3, r2
 2365 001c 1849     		ldr	r1, .L207+8
 2366 001e FFF7FEFF 		bl	chprintf
 2367              	.LVL145:
 2368              		.loc 2 537 0
 2369 0022 012D     		cmp	r5, #1
 2370 0024 09D0     		beq	.L205
 2371              	.LVL146:
 2372              	.L202:
 2373              		.loc 2 553 0
 2374 0026 2046     		mov	r0, r4
 2375 0028 1649     		ldr	r1, .L207+12
 2376 002a FFF7FEFF 		bl	chprintf
 2377              	.LVL147:
 2378              		.loc 2 554 0
 2379 002e 2046     		mov	r0, r4
 2380 0030 1549     		ldr	r1, .L207+16
 2381              		.loc 2 558 0
 2382 0032 BDE87040 		pop	{r4, r5, r6, lr}
 2383              		.cfi_remember_state
 2384              		.cfi_restore 14
 2385              		.cfi_restore 6
 2386              		.cfi_restore 5
 2387              		.cfi_restore 4
 2388              		.cfi_def_cfa_offset 0
 2389              	.LVL148:
 2390              		.loc 2 554 0
 2391 0036 FFF7FEBF 		b	chprintf
 2392              	.LVL149:
 2393              	.L205:
 2394              		.cfi_restore_state
ARM GAS  C:\Users\srich\AppData\Local\Temp\cc32e3J8.s 			page 43


 2395              		.loc 2 537 0 discriminator 1
 2396 003a 3668     		ldr	r6, [r6]
 2397              	.LVL150:
 2398 003c 1349     		ldr	r1, .L207+20
 2399 003e 3046     		mov	r0, r6
 2400 0040 FFF7FEFF 		bl	strcmp
 2401              	.LVL151:
 2402 0044 0346     		mov	r3, r0
 2403 0046 68B1     		cbz	r0, .L206
 2404              		.loc 2 542 0 discriminator 1
 2405 0048 3046     		mov	r0, r6
 2406 004a 1149     		ldr	r1, .L207+24
 2407 004c FFF7FEFF 		bl	strcmp
 2408              	.LVL152:
 2409 0050 0028     		cmp	r0, #0
 2410 0052 E8D1     		bne	.L202
 2411              	.LBB30:
 2412              	.LBB31:
 2413              		.loc 2 306 0
 2414 0054 0F4B     		ldr	r3, .L207+28
 2415              	.LBE31:
 2416              	.LBE30:
 2417              		.loc 2 544 0
 2418 0056 1049     		ldr	r1, .L207+32
 2419              	.LBB33:
 2420              	.LBB32:
 2421              		.loc 2 306 0
 2422 0058 1880     		strh	r0, [r3]	@ movhi
 2423              	.LBE32:
 2424              	.LBE33:
 2425              		.loc 2 544 0
 2426 005a 2046     		mov	r0, r4
 2427              		.loc 2 558 0
 2428 005c BDE87040 		pop	{r4, r5, r6, lr}
 2429              		.cfi_remember_state
 2430              		.cfi_restore 14
 2431              		.cfi_restore 6
 2432              		.cfi_restore 5
 2433              		.cfi_restore 4
 2434              		.cfi_def_cfa_offset 0
 2435              	.LVL153:
 2436              		.loc 2 544 0
 2437 0060 FFF7FEBF 		b	chprintf
 2438              	.LVL154:
 2439              	.L206:
 2440              		.cfi_restore_state
 2441              	.LBB34:
 2442              	.LBB35:
 2443              		.loc 2 302 0
 2444 0064 0B48     		ldr	r0, .L207+28
 2445              		.loc 2 303 0
 2446 0066 0D4A     		ldr	r2, .L207+36
 2447              		.loc 2 302 0
 2448 0068 0580     		strh	r5, [r0]	@ movhi
 2449              	.LBE35:
 2450              	.LBE34:
 2451              		.loc 2 539 0
ARM GAS  C:\Users\srich\AppData\Local\Temp\cc32e3J8.s 			page 44


 2452 006a 0D49     		ldr	r1, .L207+40
 2453              	.LBB37:
 2454              	.LBB36:
 2455              		.loc 2 303 0
 2456 006c 1380     		strh	r3, [r2]	@ movhi
 2457              	.LBE36:
 2458              	.LBE37:
 2459              		.loc 2 539 0
 2460 006e 2046     		mov	r0, r4
 2461              		.loc 2 558 0
 2462 0070 BDE87040 		pop	{r4, r5, r6, lr}
 2463              		.cfi_restore 14
 2464              		.cfi_restore 6
 2465              		.cfi_restore 5
 2466              		.cfi_restore 4
 2467              		.cfi_def_cfa_offset 0
 2468              	.LVL155:
 2469              		.loc 2 539 0
 2470 0074 FFF7FEBF 		b	chprintf
 2471              	.LVL156:
 2472              	.L208:
 2473              		.align	2
 2474              	.L207:
 2475 0078 00000000 		.word	.LC0
 2476 007c 04000000 		.word	.LC1
 2477 0080 0C000000 		.word	.LC2
 2478 0084 E4010000 		.word	.LC30
 2479 0088 F8010000 		.word	.LC31
 2480 008c 60010000 		.word	.LC22
 2481 0090 80010000 		.word	.LC24
 2482 0094 00000000 		.word	.LANCHOR6
 2483 0098 84010000 		.word	.LC25
 2484 009c 00000000 		.word	.LANCHOR10
 2485 00a0 64010000 		.word	.LC23
 2486              		.cfi_endproc
 2487              	.LFE140:
 2488              		.size	cmd_cruise, .-cmd_cruise
 2489              		.section	.text.cmd_current_limit_switch,"ax",%progbits
 2490              		.align	2
 2491              		.p2align 4,,15
 2492              		.global	cmd_current_limit_switch
 2493              		.thumb
 2494              		.thumb_func
 2495              		.type	cmd_current_limit_switch, %function
 2496              	cmd_current_limit_switch:
 2497              	.LFB141:
 2498              		.loc 2 561 0
 2499              		.cfi_startproc
 2500              		@ args = 0, pretend = 0, frame = 0
 2501              		@ frame_needed = 0, uses_anonymous_args = 0
 2502              	.LVL157:
 2503 0000 70B5     		push	{r4, r5, r6, lr}
 2504              		.cfi_def_cfa_offset 16
 2505              		.cfi_offset 4, -16
 2506              		.cfi_offset 5, -12
 2507              		.cfi_offset 6, -8
 2508              		.cfi_offset 14, -4
ARM GAS  C:\Users\srich\AppData\Local\Temp\cc32e3J8.s 			page 45


 2509              		.loc 2 561 0
 2510 0002 0446     		mov	r4, r0
 2511 0004 0D46     		mov	r5, r1
 2512              		.loc 2 562 0
 2513 0006 2349     		ldr	r1, .L218
 2514              	.LVL158:
 2515              		.loc 2 561 0
 2516 0008 1646     		mov	r6, r2
 2517              		.loc 2 562 0
 2518 000a FFF7FEFF 		bl	chprintf
 2519              	.LVL159:
 2520              		.loc 2 563 0
 2521 000e 2046     		mov	r0, r4
 2522 0010 2149     		ldr	r1, .L218+4
 2523 0012 FFF7FEFF 		bl	chprintf
 2524              	.LVL160:
 2525              		.loc 2 564 0
 2526 0016 0022     		movs	r2, #0
 2527 0018 2046     		mov	r0, r4
 2528 001a 1346     		mov	r3, r2
 2529 001c 1F49     		ldr	r1, .L218+8
 2530 001e FFF7FEFF 		bl	chprintf
 2531              	.LVL161:
 2532              		.loc 2 566 0
 2533 0022 012D     		cmp	r5, #1
 2534 0024 14D0     		beq	.L215
 2535              	.LVL162:
 2536              	.L210:
 2537              		.loc 2 583 0
 2538 0026 1E4B     		ldr	r3, .L218+12
 2539 0028 1B78     		ldrb	r3, [r3]	@ zero_extendqisi2
 2540              		.loc 2 584 0
 2541 002a 2046     		mov	r0, r4
 2542              		.loc 2 583 0
 2543 002c 63B9     		cbnz	r3, .L216
 2544              	.LVL163:
 2545              		.loc 2 586 0
 2546 002e 1D49     		ldr	r1, .L218+16
 2547 0030 FFF7FEFF 		bl	chprintf
 2548              	.LVL164:
 2549              	.L213:
 2550              		.loc 2 588 0
 2551 0034 2046     		mov	r0, r4
 2552 0036 1C49     		ldr	r1, .L218+20
 2553 0038 FFF7FEFF 		bl	chprintf
 2554              	.LVL165:
 2555              		.loc 2 589 0
 2556 003c 2046     		mov	r0, r4
 2557 003e 1B49     		ldr	r1, .L218+24
 2558              		.loc 2 592 0
 2559 0040 BDE87040 		pop	{r4, r5, r6, lr}
 2560              		.cfi_remember_state
 2561              		.cfi_restore 14
 2562              		.cfi_restore 6
 2563              		.cfi_restore 5
 2564              		.cfi_restore 4
 2565              		.cfi_def_cfa_offset 0
ARM GAS  C:\Users\srich\AppData\Local\Temp\cc32e3J8.s 			page 46


 2566              	.LVL166:
 2567              		.loc 2 589 0
 2568 0044 FFF7FEBF 		b	chprintf
 2569              	.LVL167:
 2570              	.L216:
 2571              		.cfi_restore_state
 2572              		.loc 2 584 0
 2573 0048 1949     		ldr	r1, .L218+28
 2574 004a FFF7FEFF 		bl	chprintf
 2575              	.LVL168:
 2576 004e F1E7     		b	.L213
 2577              	.LVL169:
 2578              	.L215:
 2579              		.loc 2 566 0 discriminator 1
 2580 0050 3668     		ldr	r6, [r6]
 2581              	.LVL170:
 2582 0052 1849     		ldr	r1, .L218+32
 2583 0054 3046     		mov	r0, r6
 2584 0056 FFF7FEFF 		bl	strcmp
 2585              	.LVL171:
 2586 005a 68B1     		cbz	r0, .L217
 2587              		.loc 2 572 0 discriminator 1
 2588 005c 3046     		mov	r0, r6
 2589 005e 1649     		ldr	r1, .L218+36
 2590 0060 FFF7FEFF 		bl	strcmp
 2591              	.LVL172:
 2592 0064 0028     		cmp	r0, #0
 2593 0066 DED1     		bne	.L210
 2594              		.loc 2 573 0
 2595 0068 0D4B     		ldr	r3, .L218+12
 2596              		.loc 2 574 0
 2597 006a 1449     		ldr	r1, .L218+40
 2598              		.loc 2 573 0
 2599 006c 1870     		strb	r0, [r3]
 2600              		.loc 2 574 0
 2601 006e 2046     		mov	r0, r4
 2602              		.loc 2 592 0
 2603 0070 BDE87040 		pop	{r4, r5, r6, lr}
 2604              		.cfi_remember_state
 2605              		.cfi_restore 14
 2606              		.cfi_restore 6
 2607              		.cfi_restore 5
 2608              		.cfi_restore 4
 2609              		.cfi_def_cfa_offset 0
 2610              	.LVL173:
 2611              		.loc 2 574 0
 2612 0074 FFF7FEBF 		b	chprintf
 2613              	.LVL174:
 2614              	.L217:
 2615              		.cfi_restore_state
 2616              		.loc 2 567 0
 2617 0078 094B     		ldr	r3, .L218+12
 2618              		.loc 2 568 0
 2619 007a 1149     		ldr	r1, .L218+44
 2620              		.loc 2 567 0
 2621 007c 1D70     		strb	r5, [r3]
 2622              		.loc 2 568 0
ARM GAS  C:\Users\srich\AppData\Local\Temp\cc32e3J8.s 			page 47


 2623 007e 2046     		mov	r0, r4
 2624 0080 FFF7FEFF 		bl	chprintf
 2625              	.LVL175:
 2626              		.loc 2 569 0
 2627 0084 0F4B     		ldr	r3, .L218+48
 2628 0086 1049     		ldr	r1, .L218+52
 2629 0088 1A7F     		ldrb	r2, [r3, #28]	@ zero_extendqisi2
 2630 008a 2046     		mov	r0, r4
 2631              		.loc 2 592 0
 2632 008c BDE87040 		pop	{r4, r5, r6, lr}
 2633              		.cfi_restore 14
 2634              		.cfi_restore 6
 2635              		.cfi_restore 5
 2636              		.cfi_restore 4
 2637              		.cfi_def_cfa_offset 0
 2638              	.LVL176:
 2639              		.loc 2 569 0
 2640 0090 FFF7FEBF 		b	chprintf
 2641              	.LVL177:
 2642              	.L219:
 2643              		.align	2
 2644              	.L218:
 2645 0094 00000000 		.word	.LC0
 2646 0098 04000000 		.word	.LC1
 2647 009c 0C000000 		.word	.LC2
 2648 00a0 00000000 		.word	.LANCHOR27
 2649 00a4 80020000 		.word	.LC36
 2650 00a8 9C020000 		.word	.LC37
 2651 00ac BC020000 		.word	.LC38
 2652 00b0 64020000 		.word	.LC35
 2653 00b4 60010000 		.word	.LC22
 2654 00b8 80010000 		.word	.LC24
 2655 00bc 48020000 		.word	.LC34
 2656 00c0 0C020000 		.word	.LC32
 2657 00c4 00000000 		.word	bmsitems
 2658 00c8 28020000 		.word	.LC33
 2659              		.cfi_endproc
 2660              	.LFE141:
 2661              		.size	cmd_current_limit_switch, .-cmd_current_limit_switch
 2662              		.section	.text.cmd_regen_brake,"ax",%progbits
 2663              		.align	2
 2664              		.p2align 4,,15
 2665              		.global	cmd_regen_brake
 2666              		.thumb
 2667              		.thumb_func
 2668              		.type	cmd_regen_brake, %function
 2669              	cmd_regen_brake:
 2670              	.LFB142:
 2671              		.loc 2 594 0
 2672              		.cfi_startproc
 2673              		@ args = 0, pretend = 0, frame = 0
 2674              		@ frame_needed = 0, uses_anonymous_args = 0
 2675              	.LVL178:
 2676 0000 70B5     		push	{r4, r5, r6, lr}
 2677              		.cfi_def_cfa_offset 16
 2678              		.cfi_offset 4, -16
 2679              		.cfi_offset 5, -12
ARM GAS  C:\Users\srich\AppData\Local\Temp\cc32e3J8.s 			page 48


 2680              		.cfi_offset 6, -8
 2681              		.cfi_offset 14, -4
 2682              		.loc 2 594 0
 2683 0002 0446     		mov	r4, r0
 2684 0004 0D46     		mov	r5, r1
 2685              		.loc 2 598 0
 2686 0006 1B49     		ldr	r1, .L226
 2687              	.LVL179:
 2688              		.loc 2 594 0
 2689 0008 1646     		mov	r6, r2
 2690              		.loc 2 598 0
 2691 000a FFF7FEFF 		bl	chprintf
 2692              	.LVL180:
 2693              		.loc 2 599 0
 2694 000e 2046     		mov	r0, r4
 2695 0010 1949     		ldr	r1, .L226+4
 2696 0012 FFF7FEFF 		bl	chprintf
 2697              	.LVL181:
 2698              		.loc 2 600 0
 2699 0016 0022     		movs	r2, #0
 2700 0018 2046     		mov	r0, r4
 2701 001a 1346     		mov	r3, r2
 2702 001c 1749     		ldr	r1, .L226+8
 2703 001e FFF7FEFF 		bl	chprintf
 2704              	.LVL182:
 2705              		.loc 2 602 0
 2706 0022 012D     		cmp	r5, #1
 2707 0024 09D0     		beq	.L224
 2708              	.LVL183:
 2709              	.L221:
 2710              		.loc 2 618 0
 2711 0026 2046     		mov	r0, r4
 2712 0028 1549     		ldr	r1, .L226+12
 2713 002a FFF7FEFF 		bl	chprintf
 2714              	.LVL184:
 2715              		.loc 2 619 0
 2716 002e 2046     		mov	r0, r4
 2717 0030 1449     		ldr	r1, .L226+16
 2718              		.loc 2 623 0
 2719 0032 BDE87040 		pop	{r4, r5, r6, lr}
 2720              		.cfi_remember_state
 2721              		.cfi_restore 14
 2722              		.cfi_restore 6
 2723              		.cfi_restore 5
 2724              		.cfi_restore 4
 2725              		.cfi_def_cfa_offset 0
 2726              	.LVL185:
 2727              		.loc 2 619 0
 2728 0036 FFF7FEBF 		b	chprintf
 2729              	.LVL186:
 2730              	.L224:
 2731              		.cfi_restore_state
 2732              		.loc 2 602 0 discriminator 1
 2733 003a 3668     		ldr	r6, [r6]
 2734              	.LVL187:
 2735 003c 1249     		ldr	r1, .L226+20
 2736 003e 3046     		mov	r0, r6
ARM GAS  C:\Users\srich\AppData\Local\Temp\cc32e3J8.s 			page 49


 2737 0040 FFF7FEFF 		bl	strcmp
 2738              	.LVL188:
 2739 0044 68B1     		cbz	r0, .L225
 2740              		.loc 2 607 0 discriminator 1
 2741 0046 3046     		mov	r0, r6
 2742 0048 1049     		ldr	r1, .L226+24
 2743 004a FFF7FEFF 		bl	strcmp
 2744              	.LVL189:
 2745 004e 0028     		cmp	r0, #0
 2746 0050 E9D1     		bne	.L221
 2747              	.LBB38:
 2748              	.LBB39:
 2749              		.loc 2 313 0
 2750 0052 0F4B     		ldr	r3, .L226+28
 2751              	.LBE39:
 2752              	.LBE38:
 2753              		.loc 2 609 0
 2754 0054 0F49     		ldr	r1, .L226+32
 2755              	.LBB41:
 2756              	.LBB40:
 2757              		.loc 2 313 0
 2758 0056 1870     		strb	r0, [r3]
 2759              	.LBE40:
 2760              	.LBE41:
 2761              		.loc 2 609 0
 2762 0058 2046     		mov	r0, r4
 2763              		.loc 2 623 0
 2764 005a BDE87040 		pop	{r4, r5, r6, lr}
 2765              		.cfi_remember_state
 2766              		.cfi_restore 14
 2767              		.cfi_restore 6
 2768              		.cfi_restore 5
 2769              		.cfi_restore 4
 2770              		.cfi_def_cfa_offset 0
 2771              	.LVL190:
 2772              		.loc 2 609 0
 2773 005e FFF7FEBF 		b	chprintf
 2774              	.LVL191:
 2775              	.L225:
 2776              		.cfi_restore_state
 2777              	.LBB42:
 2778              	.LBB43:
 2779              		.loc 2 310 0
 2780 0062 0B4B     		ldr	r3, .L226+28
 2781              	.LBE43:
 2782              	.LBE42:
 2783              		.loc 2 604 0
 2784 0064 0C49     		ldr	r1, .L226+36
 2785              	.LBB45:
 2786              	.LBB44:
 2787              		.loc 2 310 0
 2788 0066 1D70     		strb	r5, [r3]
 2789              	.LBE44:
 2790              	.LBE45:
 2791              		.loc 2 604 0
 2792 0068 2046     		mov	r0, r4
 2793              		.loc 2 623 0
ARM GAS  C:\Users\srich\AppData\Local\Temp\cc32e3J8.s 			page 50


 2794 006a BDE87040 		pop	{r4, r5, r6, lr}
 2795              		.cfi_restore 14
 2796              		.cfi_restore 6
 2797              		.cfi_restore 5
 2798              		.cfi_restore 4
 2799              		.cfi_def_cfa_offset 0
 2800              	.LVL192:
 2801              		.loc 2 604 0
 2802 006e FFF7FEBF 		b	chprintf
 2803              	.LVL193:
 2804              	.L227:
 2805 0072 00BF     		.align	2
 2806              	.L226:
 2807 0074 00000000 		.word	.LC0
 2808 0078 04000000 		.word	.LC1
 2809 007c 0C000000 		.word	.LC2
 2810 0080 20030000 		.word	.LC41
 2811 0084 38030000 		.word	.LC42
 2812 0088 60010000 		.word	.LC22
 2813 008c 80010000 		.word	.LC24
 2814 0090 00000000 		.word	.LANCHOR7
 2815 0094 FC020000 		.word	.LC40
 2816 0098 DC020000 		.word	.LC39
 2817              		.cfi_endproc
 2818              	.LFE142:
 2819              		.size	cmd_regen_brake, .-cmd_regen_brake
 2820              		.section	.data.K_D,"aw",%progbits
 2821              		.align	1
 2822              		.set	.LANCHOR26,. + 0
 2823              		.type	K_D, %object
 2824              		.size	K_D, 2
 2825              	K_D:
 2826 0000 F401     		.short	500
 2827              		.section	.bss.old_set,"aw",%nobits
 2828              		.align	1
 2829              		.set	.LANCHOR4,. + 0
 2830              		.type	old_set, %object
 2831              		.size	old_set, 2
 2832              	old_set:
 2833 0000 0000     		.space	2
 2834              		.section	.bss.regen_on,"aw",%nobits
 2835              		.set	.LANCHOR7,. + 0
 2836              		.type	regen_on, %object
 2837              		.size	regen_on, 1
 2838              	regen_on:
 2839 0000 00       		.space	1
 2840              		.section	.bss.eelozo,"aw",%nobits
 2841              		.align	3
 2842              		.set	.LANCHOR14,. + 0
 2843              		.type	eelozo, %object
 2844              		.size	eelozo, 8
 2845              	eelozo:
 2846 0000 00000000 		.space	8
 2846      00000000 
 2847              		.section	.bss.cruise_on,"aw",%nobits
 2848              		.align	1
 2849              		.set	.LANCHOR6,. + 0
ARM GAS  C:\Users\srich\AppData\Local\Temp\cc32e3J8.s 			page 51


 2850              		.type	cruise_on, %object
 2851              		.size	cruise_on, 2
 2852              	cruise_on:
 2853 0000 0000     		.space	2
 2854              		.section	.bss.brake_pwm,"aw",%nobits
 2855              		.align	2
 2856              		.set	.LANCHOR1,. + 0
 2857              		.type	brake_pwm, %object
 2858              		.size	brake_pwm, 4
 2859              	brake_pwm:
 2860 0000 00000000 		.space	4
 2861              		.section	.data.K_P,"aw",%progbits
 2862              		.align	1
 2863              		.set	.LANCHOR24,. + 0
 2864              		.type	K_P, %object
 2865              		.size	K_P, 2
 2866              	K_P:
 2867 0000 C800     		.short	200
 2868              		.section	.bss.pwm,"aw",%nobits
 2869              		.align	2
 2870              		.set	.LANCHOR0,. + 0
 2871              		.type	pwm, %object
 2872              		.size	pwm, 4
 2873              	pwm:
 2874 0000 00000000 		.space	4
 2875              		.section	.bss.eeprom_write_period,"aw",%nobits
 2876              		.align	2
 2877              		.set	.LANCHOR3,. + 0
 2878              		.type	eeprom_write_period, %object
 2879              		.size	eeprom_write_period, 4
 2880              	eeprom_write_period:
 2881 0000 00000000 		.space	4
 2882              		.section	.bss.cruise_indicator_index,"aw",%nobits
 2883              		.align	2
 2884              		.set	.LANCHOR9,. + 0
 2885              		.type	cruise_indicator_index, %object
 2886              		.size	cruise_indicator_index, 4
 2887              	cruise_indicator_index:
 2888 0000 00000000 		.space	4
 2889              		.section	.bss.set,"aw",%nobits
 2890              		.align	1
 2891              		.set	.LANCHOR19,. + 0
 2892              		.type	set, %object
 2893              		.size	set, 2
 2894              	set:
 2895 0000 0000     		.space	2
 2896              		.section	.bss.button_long_decelerat,"aw",%nobits
 2897              		.set	.LANCHOR17,. + 0
 2898              		.type	button_long_decelerat, %object
 2899              		.size	button_long_decelerat, 1
 2900              	button_long_decelerat:
 2901 0000 00       		.space	1
 2902              		.section	.data.K_I,"aw",%progbits
 2903              		.align	1
 2904              		.set	.LANCHOR25,. + 0
 2905              		.type	K_I, %object
 2906              		.size	K_I, 2
ARM GAS  C:\Users\srich\AppData\Local\Temp\cc32e3J8.s 			page 52


 2907              	K_I:
 2908 0000 0400     		.short	4
 2909              		.section	.rodata.str1.4,"aMS",%progbits,1
 2910              		.align	2
 2911              	.LC0:
 2912 0000 1B6300   		.ascii	"\033c\000"
 2913 0003 00       		.space	1
 2914              	.LC1:
 2915 0004 1B5B324A 		.ascii	"\033[2J\000"
 2915      00
 2916 0009 000000   		.space	3
 2917              	.LC2:
 2918 000c 1B5B2564 		.ascii	"\033[%d;%dH\000"
 2918      3B256448 
 2918      00
 2919 0015 000000   		.space	3
 2920              	.LC3:
 2921 0018 4B5F503A 		.ascii	"K_P: %15d - P: %15d\015\012\000"
 2921      20253135 
 2921      64202D20 
 2921      503A2025 
 2921      3135640D 
 2922 002e 0000     		.space	2
 2923              	.LC4:
 2924 0030 4B5F493A 		.ascii	"K_I: %15d - I: %15d\015\012\000"
 2924      20253135 
 2924      64202D20 
 2924      493A2025 
 2924      3135640D 
 2925 0046 0000     		.space	2
 2926              	.LC5:
 2927 0048 4B5F443A 		.ascii	"K_D: %15d - D: %15d\015\012\000"
 2927      20253135 
 2927      64202D20 
 2927      443A2025 
 2927      3135640D 
 2928 005e 0000     		.space	2
 2929              	.LC6:
 2930 0060 4B5F443A 		.ascii	"K_D: %15d - R: %15d\015\012\000"
 2930      20253135 
 2930      64202D20 
 2930      523A2025 
 2930      3135640D 
 2931 0076 0000     		.space	2
 2932              	.LC7:
 2933 0078 70776D3A 		.ascii	"pwm: %15d\015\012\000"
 2933      20253135 
 2933      640D0A00 
 2934              	.LC8:
 2935 0084 43757272 		.ascii	"Current limit substract: %15d\015\012\000"
 2935      656E7420 
 2935      6C696D69 
 2935      74207375 
 2935      62737472 
 2936              	.LC9:
 2937 00a4 73657420 		.ascii	"set rpm: %15d\015\012\000"
 2937      72706D3A 
ARM GAS  C:\Users\srich\AppData\Local\Temp\cc32e3J8.s 			page 53


 2937      20253135 
 2937      640D0A00 
 2938              	.LC10:
 2939 00b4 696E7075 		.ascii	"input rpm: %15d\015\012\000"
 2939      74207270 
 2939      6D3A2025 
 2939      3135640D 
 2939      0A00
 2940 00c6 0000     		.space	2
 2941              	.LC11:
 2942 00c8 73657420 		.ascii	"set - rpm: %15d\015\012\000"
 2942      2D207270 
 2942      6D3A2025 
 2942      3135640D 
 2942      0A00
 2943 00da 0000     		.space	2
 2944              	.LC12:
 2945 00dc 0D0A00   		.ascii	"\015\012\000"
 2946 00df 00       		.space	1
 2947              	.LC13:
 2948 00e0 63727569 		.ascii	"cruise_disable_period: %15d\015\012\000"
 2948      73655F64 
 2948      69736162 
 2948      6C655F70 
 2948      6572696F 
 2949 00fe 0000     		.space	2
 2950              	.LC14:
 2951 0100 70657269 		.ascii	"period_null: %15d\015\012\000"
 2951      6F645F6E 
 2951      756C6C3A 
 2951      20253135 
 2951      640D0A00 
 2952              	.LC15:
 2953 0114 63727569 		.ascii	"cruise_on: %15d\015\012\000"
 2953      73655F6F 
 2953      6E3A2025 
 2953      3135640D 
 2953      0A00
 2954 0126 0000     		.space	2
 2955              	.LC16:
 2956 0128 72656765 		.ascii	"regen_on: %15d\015\012\000"
 2956      6E5F6F6E 
 2956      3A202531 
 2956      35640D0A 
 2956      00
 2957 0139 000000   		.space	3
 2958              	.LC17:
 2959 013c 6272616B 		.ascii	"brake_pwm: %15d\015\012\000"
 2959      655F7077 
 2959      6D3A2025 
 2959      3135640D 
 2959      0A00
 2960 014e 0000     		.space	2
 2961              	.LC18:
 2962 0150 72706D00 		.ascii	"rpm\000"
 2963              	.LC19:
 2964 0154 4B5F5000 		.ascii	"K_P\000"
ARM GAS  C:\Users\srich\AppData\Local\Temp\cc32e3J8.s 			page 54


 2965              	.LC20:
 2966 0158 4B5F4900 		.ascii	"K_I\000"
 2967              	.LC21:
 2968 015c 4B5F4400 		.ascii	"K_D\000"
 2969              	.LC22:
 2970 0160 6F6E00   		.ascii	"on\000"
 2971 0163 00       		.space	1
 2972              	.LC23:
 2973 0164 43727569 		.ascii	"Cruise control switch ON!\015\012\000"
 2973      73652063 
 2973      6F6E7472 
 2973      6F6C2073 
 2973      77697463 
 2974              	.LC24:
 2975 0180 6F666600 		.ascii	"off\000"
 2976              	.LC25:
 2977 0184 43727569 		.ascii	"Cruise control switch OFF!\015\012\000"
 2977      73652063 
 2977      6F6E7472 
 2977      6F6C2073 
 2977      77697463 
 2978 01a1 000000   		.space	3
 2979              	.LC26:
 2980 01a4 4B5F503A 		.ascii	"K_P: %15d\015\012\000"
 2980      20253135 
 2980      640D0A00 
 2981              	.LC27:
 2982 01b0 4B5F493A 		.ascii	"K_I: %15d\015\012\000"
 2982      20253135 
 2982      640D0A00 
 2983              	.LC28:
 2984 01bc 4B5F443A 		.ascii	"K_D: %15d\015\012\000"
 2984      20253135 
 2984      640D0A00 
 2985              	.LC29:
 2986 01c8 54686973 		.ascii	"This not good command!\015\012\000"
 2986      206E6F74 
 2986      20676F6F 
 2986      6420636F 
 2986      6D6D616E 
 2987 01e1 000000   		.space	3
 2988              	.LC30:
 2989 01e4 55736167 		.ascii	"Usage: cruise on\015\012\000"
 2989      653A2063 
 2989      72756973 
 2989      65206F6E 
 2989      0D0A00
 2990 01f7 00       		.space	1
 2991              	.LC31:
 2992 01f8 20202020 		.ascii	"       cruise off\015\012\000"
 2992      20202063 
 2992      72756973 
 2992      65206F66 
 2992      660D0A00 
 2993              	.LC32:
 2994 020c 43757272 		.ascii	"Current limit switch ON!\015\012\000"
 2994      656E7420 
ARM GAS  C:\Users\srich\AppData\Local\Temp\cc32e3J8.s 			page 55


 2994      6C696D69 
 2994      74207377 
 2994      69746368 
 2995 0227 00       		.space	1
 2996              	.LC33:
 2997 0228 44697363 		.ascii	"Discharge Current Limit: %d\015\012\000"
 2997      68617267 
 2997      65204375 
 2997      7272656E 
 2997      74204C69 
 2998 0246 0000     		.space	2
 2999              	.LC34:
 3000 0248 43757272 		.ascii	"Current limit switch OFF!\015\012\000"
 3000      656E7420 
 3000      6C696D69 
 3000      74207377 
 3000      69746368 
 3001              	.LC35:
 3002 0264 43757272 		.ascii	"Current Limit Status: ON\015\012\000"
 3002      656E7420 
 3002      4C696D69 
 3002      74205374 
 3002      61747573 
 3003 027f 00       		.space	1
 3004              	.LC36:
 3005 0280 43757272 		.ascii	"Current Limit Status: OFF\015\012\000"
 3005      656E7420 
 3005      4C696D69 
 3005      74205374 
 3005      61747573 
 3006              	.LC37:
 3007 029c 55736167 		.ascii	"Usage: set_current_limit on\015\012\000"
 3007      653A2073 
 3007      65745F63 
 3007      75727265 
 3007      6E745F6C 
 3008 02ba 0000     		.space	2
 3009              	.LC38:
 3010 02bc 20202020 		.ascii	"       set_current_limit off\015\012\000"
 3010      20202073 
 3010      65745F63 
 3010      75727265 
 3010      6E745F6C 
 3011 02db 00       		.space	1
 3012              	.LC39:
 3013 02dc 52656765 		.ascii	"Regenerative brake switch ON!\015\012\000"
 3013      6E657261 
 3013      74697665 
 3013      20627261 
 3013      6B652073 
 3014              	.LC40:
 3015 02fc 52656765 		.ascii	"Regenerative brake switch OFF!\015\012\000"
 3015      6E657261 
 3015      74697665 
 3015      20627261 
 3015      6B652073 
 3016 031d 000000   		.space	3
ARM GAS  C:\Users\srich\AppData\Local\Temp\cc32e3J8.s 			page 56


 3017              	.LC41:
 3018 0320 55736167 		.ascii	"Usage: regen_brake on\015\012\000"
 3018      653A2072 
 3018      6567656E 
 3018      5F627261 
 3018      6B65206F 
 3019              	.LC42:
 3020 0338 20202020 		.ascii	"       regen_brake off\015\012\000"
 3020      20202072 
 3020      6567656E 
 3020      5F627261 
 3020      6B65206F 
 3021              		.section	.bss.d_tag,"aw",%nobits
 3022              		.align	3
 3023              		.set	.LANCHOR13,. + 0
 3024              		.type	d_tag, %object
 3025              		.size	d_tag, 8
 3026              	d_tag:
 3027 0000 00000000 		.space	8
 3027      00000000 
 3028              		.section	.bss.p_tag,"aw",%nobits
 3029              		.align	3
 3030              		.set	.LANCHOR11,. + 0
 3031              		.type	p_tag, %object
 3032              		.size	p_tag, 8
 3033              	p_tag:
 3034 0000 00000000 		.space	8
 3034      00000000 
 3035              		.section	.bss.result,"aw",%nobits
 3036              		.align	2
 3037              		.set	.LANCHOR23,. + 0
 3038              		.type	result, %object
 3039              		.size	result, 4
 3040              	result:
 3041 0000 00000000 		.space	4
 3042              		.section	.data.current_limit_status,"aw",%progbits
 3043              		.set	.LANCHOR27,. + 0
 3044              		.type	current_limit_status, %object
 3045              		.size	current_limit_status, 1
 3046              	current_limit_status:
 3047 0000 01       		.byte	1
 3048              		.section	.bss.cruise_indicator,"aw",%nobits
 3049              		.set	.LANCHOR8,. + 0
 3050              		.type	cruise_indicator, %object
 3051              		.size	cruise_indicator, 1
 3052              	cruise_indicator:
 3053 0000 00       		.space	1
 3054              		.section	.data.cruise_pwmcfg,"aw",%progbits
 3055              		.align	2
 3056              		.set	.LANCHOR20,. + 0
 3057              		.type	cruise_pwmcfg, %object
 3058              		.size	cruise_pwmcfg, 52
 3059              	cruise_pwmcfg:
 3060 0000 80969800 		.word	10000000
 3061 0004 1027     		.short	10000
 3062 0006 0000     		.space	2
 3063 0008 00000000 		.word	0
ARM GAS  C:\Users\srich\AppData\Local\Temp\cc32e3J8.s 			page 57


 3064 000c 00000000 		.word	0
 3065 0010 00000000 		.word	0
 3066 0014 01000000 		.word	1
 3067 0018 00000000 		.word	0
 3068 001c 01000000 		.word	1
 3069 0020 00000000 		.word	0
 3070 0024 00000000 		.word	0
 3071 0028 00000000 		.word	0
 3072 002c 00000000 		.word	0
 3073 0030 00000000 		.word	0
 3074              		.section	.bss.CurrentLimitIsOn,"aw",%nobits
 3075              		.set	.LANCHOR22,. + 0
 3076              		.type	CurrentLimitIsOn, %object
 3077              		.size	CurrentLimitIsOn, 1
 3078              	CurrentLimitIsOn:
 3079 0000 00       		.space	1
 3080              		.section	.bss.cruise_disable_period,"aw",%nobits
 3081              		.align	1
 3082              		.set	.LANCHOR10,. + 0
 3083              		.type	cruise_disable_period, %object
 3084              		.size	cruise_disable_period, 2
 3085              	cruise_disable_period:
 3086 0000 0000     		.space	2
 3087              		.section	.bss.substract,"aw",%nobits
 3088              		.align	1
 3089              		.set	.LANCHOR21,. + 0
 3090              		.type	substract, %object
 3091              		.size	substract, 2
 3092              	substract:
 3093 0000 0000     		.space	2
 3094              		.section	.bss.button_long_accel,"aw",%nobits
 3095              		.set	.LANCHOR16,. + 0
 3096              		.type	button_long_accel, %object
 3097              		.size	button_long_accel, 1
 3098              	button_long_accel:
 3099 0000 00       		.space	1
 3100              		.section	.bss.i_tag,"aw",%nobits
 3101              		.align	3
 3102              		.set	.LANCHOR12,. + 0
 3103              		.type	i_tag, %object
 3104              		.size	i_tag, 8
 3105              	i_tag:
 3106 0000 00000000 		.space	8
 3106      00000000 
 3107              		.section	.bss.e_tag,"aw",%nobits
 3108              		.align	3
 3109              		.set	.LANCHOR15,. + 0
 3110              		.type	e_tag, %object
 3111              		.size	e_tag, 8
 3112              	e_tag:
 3113 0000 00000000 		.space	8
 3113      00000000 
 3114              		.section	.bss.eeprom_write,"aw",%nobits
 3115              		.set	.LANCHOR5,. + 0
 3116              		.type	eeprom_write, %object
 3117              		.size	eeprom_write, 1
 3118              	eeprom_write:
ARM GAS  C:\Users\srich\AppData\Local\Temp\cc32e3J8.s 			page 58


 3119 0000 00       		.space	1
 3120              		.section	.bss.accel_limit,"aw",%nobits
 3121              		.align	2
 3122              		.set	.LANCHOR18,. + 0
 3123              		.type	accel_limit, %object
 3124              		.size	accel_limit, 4
 3125              	accel_limit:
 3126 0000 00000000 		.space	4
 3127              		.section	.bss.save_pwm,"aw",%nobits
 3128              		.align	2
 3129              		.set	.LANCHOR2,. + 0
 3130              		.type	save_pwm, %object
 3131              		.size	save_pwm, 4
 3132              	save_pwm:
 3133 0000 00000000 		.space	4
 3134              		.text
 3135              	.Letext0:
 3136              		.file 3 "c:\\chibistudio\\tools\\gnu tools arm embedded\\4.9 2015q3\\lib\\gcc\\arm-none-eabi\\4.9.
 3137              		.file 4 "c:\\chibistudio\\tools\\gnu tools arm embedded\\4.9 2015q3\\arm-none-eabi\\include\\machi
 3138              		.file 5 "c:\\chibistudio\\tools\\gnu tools arm embedded\\4.9 2015q3\\arm-none-eabi\\include\\sys\\
 3139              		.file 6 "../../../ChibiOS/os/ports/GCC/ARMCMx/chtypes.h"
 3140              		.file 7 "../../../ChibiOS/os/ports/GCC/ARMCMx/chcore_v7m.h"
 3141              		.file 8 "../../../ChibiOS/os/kernel/include/chstreams.h"
 3142              		.file 9 "../../../ChibiOS/os/hal/include/io_channel.h"
 3143              		.file 10 "../../../ChibiOS/os/hal/platforms/STM32/TIMv1/stm32_tim.h"
 3144              		.file 11 "../../../ChibiOS/os/hal/include/pwm.h"
 3145              		.file 12 "../../../ChibiOS/os/hal/platforms/STM32/TIMv1/pwm_lld.h"
 3146              		.file 13 "c:\\chibistudio\\tools\\gnu tools arm embedded\\4.9 2015q3\\lib\\gcc\\arm-none-eabi\\4.9
 3147              		.file 14 "<built-in>"
 3148              		.file 15 "include/eepromItems.h"
 3149              		.file 16 "include/meas.h"
 3150              		.file 17 "include/can_items.h"
 3151              		.file 18 "include/speed.h"
 3152              		.file 19 "../../../ChibiOS/os/ports/common/ARMCMx/CMSIS/include/core_cm4.h"
 3153              		.file 20 "include/can_comm.h"
 3154              		.file 21 "include/eeprom.h"
 3155              		.file 22 "../../../ChibiOS/os/kernel/include/chthreads.h"
 3156              		.file 23 "c:\\chibistudio\\tools\\gnu tools arm embedded\\4.9 2015q3\\arm-none-eabi\\include\\stri
 3157              		.file 24 "c:\\chibistudio\\tools\\gnu tools arm embedded\\4.9 2015q3\\arm-none-eabi\\include\\stdl
 3158              		.section	.debug_info,"",%progbits
 3159              	.Ldebug_info0:
 3160 0000 2A1B0000 		.4byte	0x1b2a
 3161 0004 0400     		.2byte	0x4
 3162 0006 00000000 		.4byte	.Ldebug_abbrev0
 3163 000a 04       		.byte	0x4
 3164 000b 01       		.uleb128 0x1
 3165 000c 4D050000 		.4byte	.LASF211
 3166 0010 01       		.byte	0x1
 3167 0011 70060000 		.4byte	.LASF212
 3168 0015 E1040000 		.4byte	.LASF213
 3169 0019 E0000000 		.4byte	.Ldebug_ranges0+0xe0
 3170 001d 00000000 		.4byte	0
 3171 0021 00000000 		.4byte	.Ldebug_line0
 3172 0025 02       		.uleb128 0x2
 3173 0026 08       		.byte	0x8
 3174 0027 04       		.byte	0x4
 3175 0028 F2070000 		.4byte	.LASF0
ARM GAS  C:\Users\srich\AppData\Local\Temp\cc32e3J8.s 			page 59


 3176 002c 03       		.uleb128 0x3
 3177 002d 04       		.byte	0x4
 3178 002e 05       		.byte	0x5
 3179 002f 696E7400 		.ascii	"int\000"
 3180 0033 04       		.uleb128 0x4
 3181 0034 61000000 		.4byte	.LASF3
 3182 0038 03       		.byte	0x3
 3183 0039 D4       		.byte	0xd4
 3184 003a 3E000000 		.4byte	0x3e
 3185 003e 02       		.uleb128 0x2
 3186 003f 04       		.byte	0x4
 3187 0040 07       		.byte	0x7
 3188 0041 B4010000 		.4byte	.LASF1
 3189 0045 02       		.uleb128 0x2
 3190 0046 01       		.byte	0x1
 3191 0047 06       		.byte	0x6
 3192 0048 4A010000 		.4byte	.LASF2
 3193 004c 04       		.uleb128 0x4
 3194 004d 8C000000 		.4byte	.LASF4
 3195 0051 04       		.byte	0x4
 3196 0052 1D       		.byte	0x1d
 3197 0053 57000000 		.4byte	0x57
 3198 0057 02       		.uleb128 0x2
 3199 0058 01       		.byte	0x1
 3200 0059 08       		.byte	0x8
 3201 005a 1F070000 		.4byte	.LASF5
 3202 005e 04       		.uleb128 0x4
 3203 005f 9D020000 		.4byte	.LASF6
 3204 0063 04       		.byte	0x4
 3205 0064 29       		.byte	0x29
 3206 0065 69000000 		.4byte	0x69
 3207 0069 02       		.uleb128 0x2
 3208 006a 02       		.byte	0x2
 3209 006b 05       		.byte	0x5
 3210 006c 61070000 		.4byte	.LASF7
 3211 0070 04       		.uleb128 0x4
 3212 0071 77080000 		.4byte	.LASF8
 3213 0075 04       		.byte	0x4
 3214 0076 2B       		.byte	0x2b
 3215 0077 7B000000 		.4byte	0x7b
 3216 007b 02       		.uleb128 0x2
 3217 007c 02       		.byte	0x2
 3218 007d 07       		.byte	0x7
 3219 007e AF030000 		.4byte	.LASF9
 3220 0082 04       		.uleb128 0x4
 3221 0083 14040000 		.4byte	.LASF10
 3222 0087 04       		.byte	0x4
 3223 0088 3F       		.byte	0x3f
 3224 0089 8D000000 		.4byte	0x8d
 3225 008d 02       		.uleb128 0x2
 3226 008e 04       		.byte	0x4
 3227 008f 05       		.byte	0x5
 3228 0090 A5000000 		.4byte	.LASF11
 3229 0094 04       		.uleb128 0x4
 3230 0095 6A020000 		.4byte	.LASF12
 3231 0099 04       		.byte	0x4
 3232 009a 41       		.byte	0x41
ARM GAS  C:\Users\srich\AppData\Local\Temp\cc32e3J8.s 			page 60


 3233 009b 9F000000 		.4byte	0x9f
 3234 009f 02       		.uleb128 0x2
 3235 00a0 04       		.byte	0x4
 3236 00a1 07       		.byte	0x7
 3237 00a2 24030000 		.4byte	.LASF13
 3238 00a6 02       		.uleb128 0x2
 3239 00a7 08       		.byte	0x8
 3240 00a8 05       		.byte	0x5
 3241 00a9 E2010000 		.4byte	.LASF14
 3242 00ad 04       		.uleb128 0x4
 3243 00ae 87060000 		.4byte	.LASF15
 3244 00b2 04       		.byte	0x4
 3245 00b3 5B       		.byte	0x5b
 3246 00b4 B8000000 		.4byte	0xb8
 3247 00b8 02       		.uleb128 0x2
 3248 00b9 08       		.byte	0x8
 3249 00ba 07       		.byte	0x7
 3250 00bb B5000000 		.4byte	.LASF16
 3251 00bf 02       		.uleb128 0x2
 3252 00c0 04       		.byte	0x4
 3253 00c1 07       		.byte	0x7
 3254 00c2 D2040000 		.4byte	.LASF17
 3255 00c6 05       		.uleb128 0x5
 3256 00c7 04       		.byte	0x4
 3257 00c8 06       		.uleb128 0x6
 3258 00c9 04       		.byte	0x4
 3259 00ca CE000000 		.4byte	0xce
 3260 00ce 02       		.uleb128 0x2
 3261 00cf 01       		.byte	0x1
 3262 00d0 08       		.byte	0x8
 3263 00d1 47080000 		.4byte	.LASF18
 3264 00d5 06       		.uleb128 0x6
 3265 00d6 04       		.byte	0x4
 3266 00d7 DB000000 		.4byte	0xdb
 3267 00db 07       		.uleb128 0x7
 3268 00dc CE000000 		.4byte	0xce
 3269 00e0 04       		.uleb128 0x4
 3270 00e1 9B090000 		.4byte	.LASF19
 3271 00e5 05       		.byte	0x5
 3272 00e6 14       		.byte	0x14
 3273 00e7 4C000000 		.4byte	0x4c
 3274 00eb 04       		.uleb128 0x4
 3275 00ec 2B010000 		.4byte	.LASF20
 3276 00f0 05       		.byte	0x5
 3277 00f1 19       		.byte	0x19
 3278 00f2 5E000000 		.4byte	0x5e
 3279 00f6 04       		.uleb128 0x4
 3280 00f7 F0010000 		.4byte	.LASF21
 3281 00fb 05       		.byte	0x5
 3282 00fc 1A       		.byte	0x1a
 3283 00fd 70000000 		.4byte	0x70
 3284 0101 04       		.uleb128 0x4
 3285 0102 CA040000 		.4byte	.LASF22
 3286 0106 05       		.byte	0x5
 3287 0107 1F       		.byte	0x1f
 3288 0108 82000000 		.4byte	0x82
 3289 010c 04       		.uleb128 0x4
ARM GAS  C:\Users\srich\AppData\Local\Temp\cc32e3J8.s 			page 61


 3290 010d F9070000 		.4byte	.LASF23
 3291 0111 05       		.byte	0x5
 3292 0112 20       		.byte	0x20
 3293 0113 94000000 		.4byte	0x94
 3294 0117 04       		.uleb128 0x4
 3295 0118 7D000000 		.4byte	.LASF24
 3296 011c 05       		.byte	0x5
 3297 011d 26       		.byte	0x26
 3298 011e AD000000 		.4byte	0xad
 3299 0122 04       		.uleb128 0x4
 3300 0123 6C010000 		.4byte	.LASF25
 3301 0127 06       		.byte	0x6
 3302 0128 2B       		.byte	0x2b
 3303 0129 2D010000 		.4byte	0x12d
 3304 012d 02       		.uleb128 0x2
 3305 012e 01       		.byte	0x1
 3306 012f 02       		.byte	0x2
 3307 0130 14070000 		.4byte	.LASF26
 3308 0134 04       		.uleb128 0x4
 3309 0135 FB030000 		.4byte	.LASF27
 3310 0139 06       		.byte	0x6
 3311 013a 31       		.byte	0x31
 3312 013b 01010000 		.4byte	0x101
 3313 013f 04       		.uleb128 0x4
 3314 0140 8C080000 		.4byte	.LASF28
 3315 0144 06       		.byte	0x6
 3316 0145 35       		.byte	0x35
 3317 0146 0C010000 		.4byte	0x10c
 3318 014a 04       		.uleb128 0x4
 3319 014b 9F060000 		.4byte	.LASF29
 3320 014f 07       		.byte	0x7
 3321 0150 EB       		.byte	0xeb
 3322 0151 17010000 		.4byte	0x117
 3323 0155 08       		.uleb128 0x8
 3324 0156 0C010000 		.4byte	0x10c
 3325 015a 06       		.uleb128 0x6
 3326 015b 04       		.byte	0x4
 3327 015c 60010000 		.4byte	0x160
 3328 0160 09       		.uleb128 0x9
 3329 0161 34010000 		.4byte	0x134
 3330 0165 6F010000 		.4byte	0x16f
 3331 0169 0A       		.uleb128 0xa
 3332 016a C6000000 		.4byte	0xc6
 3333 016e 00       		.byte	0
 3334 016f 06       		.uleb128 0x6
 3335 0170 04       		.byte	0x4
 3336 0171 E0000000 		.4byte	0xe0
 3337 0175 0B       		.uleb128 0xb
 3338 0176 87070000 		.4byte	.LASF33
 3339 017a 10       		.byte	0x10
 3340 017b 08       		.byte	0x8
 3341 017c 48       		.byte	0x48
 3342 017d B2010000 		.4byte	0x1b2
 3343 0181 0C       		.uleb128 0xc
 3344 0182 8F040000 		.4byte	.LASF30
 3345 0186 08       		.byte	0x8
 3346 0187 49       		.byte	0x49
ARM GAS  C:\Users\srich\AppData\Local\Temp\cc32e3J8.s 			page 62


 3347 0188 D6010000 		.4byte	0x1d6
 3348 018c 00       		.byte	0
 3349 018d 0C       		.uleb128 0xc
 3350 018e F0090000 		.4byte	.LASF31
 3351 0192 08       		.byte	0x8
 3352 0193 49       		.byte	0x49
 3353 0194 F5010000 		.4byte	0x1f5
 3354 0198 04       		.byte	0x4
 3355 0199 0D       		.uleb128 0xd
 3356 019a 70757400 		.ascii	"put\000"
 3357 019e 08       		.byte	0x8
 3358 019f 49       		.byte	0x49
 3359 01a0 0F020000 		.4byte	0x20f
 3360 01a4 08       		.byte	0x8
 3361 01a5 0D       		.uleb128 0xd
 3362 01a6 67657400 		.ascii	"get\000"
 3363 01aa 08       		.byte	0x8
 3364 01ab 49       		.byte	0x49
 3365 01ac 5A010000 		.4byte	0x15a
 3366 01b0 0C       		.byte	0xc
 3367 01b1 00       		.byte	0
 3368 01b2 09       		.uleb128 0x9
 3369 01b3 33000000 		.4byte	0x33
 3370 01b7 CB010000 		.4byte	0x1cb
 3371 01bb 0A       		.uleb128 0xa
 3372 01bc C6000000 		.4byte	0xc6
 3373 01c0 0A       		.uleb128 0xa
 3374 01c1 CB010000 		.4byte	0x1cb
 3375 01c5 0A       		.uleb128 0xa
 3376 01c6 33000000 		.4byte	0x33
 3377 01ca 00       		.byte	0
 3378 01cb 06       		.uleb128 0x6
 3379 01cc 04       		.byte	0x4
 3380 01cd D1010000 		.4byte	0x1d1
 3381 01d1 07       		.uleb128 0x7
 3382 01d2 E0000000 		.4byte	0xe0
 3383 01d6 06       		.uleb128 0x6
 3384 01d7 04       		.byte	0x4
 3385 01d8 B2010000 		.4byte	0x1b2
 3386 01dc 09       		.uleb128 0x9
 3387 01dd 33000000 		.4byte	0x33
 3388 01e1 F5010000 		.4byte	0x1f5
 3389 01e5 0A       		.uleb128 0xa
 3390 01e6 C6000000 		.4byte	0xc6
 3391 01ea 0A       		.uleb128 0xa
 3392 01eb 6F010000 		.4byte	0x16f
 3393 01ef 0A       		.uleb128 0xa
 3394 01f0 33000000 		.4byte	0x33
 3395 01f4 00       		.byte	0
 3396 01f5 06       		.uleb128 0x6
 3397 01f6 04       		.byte	0x4
 3398 01f7 DC010000 		.4byte	0x1dc
 3399 01fb 09       		.uleb128 0x9
 3400 01fc 34010000 		.4byte	0x134
 3401 0200 0F020000 		.4byte	0x20f
 3402 0204 0A       		.uleb128 0xa
 3403 0205 C6000000 		.4byte	0xc6
ARM GAS  C:\Users\srich\AppData\Local\Temp\cc32e3J8.s 			page 63


 3404 0209 0A       		.uleb128 0xa
 3405 020a E0000000 		.4byte	0xe0
 3406 020e 00       		.byte	0
 3407 020f 06       		.uleb128 0x6
 3408 0210 04       		.byte	0x4
 3409 0211 FB010000 		.4byte	0x1fb
 3410 0215 0E       		.uleb128 0xe
 3411 0216 04       		.byte	0x4
 3412 0217 08       		.byte	0x8
 3413 0218 51       		.byte	0x51
 3414 0219 2A020000 		.4byte	0x22a
 3415 021d 0D       		.uleb128 0xd
 3416 021e 766D7400 		.ascii	"vmt\000"
 3417 0222 08       		.byte	0x8
 3418 0223 53       		.byte	0x53
 3419 0224 2A020000 		.4byte	0x22a
 3420 0228 00       		.byte	0
 3421 0229 00       		.byte	0
 3422 022a 06       		.uleb128 0x6
 3423 022b 04       		.byte	0x4
 3424 022c 30020000 		.4byte	0x230
 3425 0230 07       		.uleb128 0x7
 3426 0231 75010000 		.4byte	0x175
 3427 0235 04       		.uleb128 0x4
 3428 0236 D8020000 		.4byte	.LASF32
 3429 023a 08       		.byte	0x8
 3430 023b 55       		.byte	0x55
 3431 023c 15020000 		.4byte	0x215
 3432 0240 0F       		.uleb128 0xf
 3433 0241 0C010000 		.4byte	0x10c
 3434 0245 50020000 		.4byte	0x250
 3435 0249 10       		.uleb128 0x10
 3436 024a BF000000 		.4byte	0xbf
 3437 024e 03       		.byte	0x3
 3438 024f 00       		.byte	0
 3439 0250 07       		.uleb128 0x7
 3440 0251 01010000 		.4byte	0x101
 3441 0255 08       		.uleb128 0x8
 3442 0256 01010000 		.4byte	0x101
 3443 025a 0B       		.uleb128 0xb
 3444 025b CC000000 		.4byte	.LASF34
 3445 025f 20       		.byte	0x20
 3446 0260 09       		.byte	0x9
 3447 0261 4E       		.byte	0x4e
 3448 0262 C7020000 		.4byte	0x2c7
 3449 0266 0C       		.uleb128 0xc
 3450 0267 8F040000 		.4byte	.LASF30
 3451 026b 09       		.byte	0x9
 3452 026c 4F       		.byte	0x4f
 3453 026d D6010000 		.4byte	0x1d6
 3454 0271 00       		.byte	0
 3455 0272 0C       		.uleb128 0xc
 3456 0273 F0090000 		.4byte	.LASF31
 3457 0277 09       		.byte	0x9
 3458 0278 4F       		.byte	0x4f
 3459 0279 F5010000 		.4byte	0x1f5
 3460 027d 04       		.byte	0x4
ARM GAS  C:\Users\srich\AppData\Local\Temp\cc32e3J8.s 			page 64


 3461 027e 0D       		.uleb128 0xd
 3462 027f 70757400 		.ascii	"put\000"
 3463 0283 09       		.byte	0x9
 3464 0284 4F       		.byte	0x4f
 3465 0285 0F020000 		.4byte	0x20f
 3466 0289 08       		.byte	0x8
 3467 028a 0D       		.uleb128 0xd
 3468 028b 67657400 		.ascii	"get\000"
 3469 028f 09       		.byte	0x9
 3470 0290 4F       		.byte	0x4f
 3471 0291 5A010000 		.4byte	0x15a
 3472 0295 0C       		.byte	0xc
 3473 0296 0C       		.uleb128 0xc
 3474 0297 9F040000 		.4byte	.LASF35
 3475 029b 09       		.byte	0x9
 3476 029c 4F       		.byte	0x4f
 3477 029d E0020000 		.4byte	0x2e0
 3478 02a1 10       		.byte	0x10
 3479 02a2 0C       		.uleb128 0xc
 3480 02a3 61030000 		.4byte	.LASF36
 3481 02a7 09       		.byte	0x9
 3482 02a8 4F       		.byte	0x4f
 3483 02a9 FA020000 		.4byte	0x2fa
 3484 02ad 14       		.byte	0x14
 3485 02ae 0C       		.uleb128 0xc
 3486 02af 2B040000 		.4byte	.LASF37
 3487 02b3 09       		.byte	0x9
 3488 02b4 4F       		.byte	0x4f
 3489 02b5 1E030000 		.4byte	0x31e
 3490 02b9 18       		.byte	0x18
 3491 02ba 0C       		.uleb128 0xc
 3492 02bb AD090000 		.4byte	.LASF38
 3493 02bf 09       		.byte	0x9
 3494 02c0 4F       		.byte	0x4f
 3495 02c1 42030000 		.4byte	0x342
 3496 02c5 1C       		.byte	0x1c
 3497 02c6 00       		.byte	0
 3498 02c7 09       		.uleb128 0x9
 3499 02c8 34010000 		.4byte	0x134
 3500 02cc E0020000 		.4byte	0x2e0
 3501 02d0 0A       		.uleb128 0xa
 3502 02d1 C6000000 		.4byte	0xc6
 3503 02d5 0A       		.uleb128 0xa
 3504 02d6 E0000000 		.4byte	0xe0
 3505 02da 0A       		.uleb128 0xa
 3506 02db 3F010000 		.4byte	0x13f
 3507 02df 00       		.byte	0
 3508 02e0 06       		.uleb128 0x6
 3509 02e1 04       		.byte	0x4
 3510 02e2 C7020000 		.4byte	0x2c7
 3511 02e6 09       		.uleb128 0x9
 3512 02e7 34010000 		.4byte	0x134
 3513 02eb FA020000 		.4byte	0x2fa
 3514 02ef 0A       		.uleb128 0xa
 3515 02f0 C6000000 		.4byte	0xc6
 3516 02f4 0A       		.uleb128 0xa
 3517 02f5 3F010000 		.4byte	0x13f
ARM GAS  C:\Users\srich\AppData\Local\Temp\cc32e3J8.s 			page 65


 3518 02f9 00       		.byte	0
 3519 02fa 06       		.uleb128 0x6
 3520 02fb 04       		.byte	0x4
 3521 02fc E6020000 		.4byte	0x2e6
 3522 0300 09       		.uleb128 0x9
 3523 0301 33000000 		.4byte	0x33
 3524 0305 1E030000 		.4byte	0x31e
 3525 0309 0A       		.uleb128 0xa
 3526 030a C6000000 		.4byte	0xc6
 3527 030e 0A       		.uleb128 0xa
 3528 030f CB010000 		.4byte	0x1cb
 3529 0313 0A       		.uleb128 0xa
 3530 0314 33000000 		.4byte	0x33
 3531 0318 0A       		.uleb128 0xa
 3532 0319 3F010000 		.4byte	0x13f
 3533 031d 00       		.byte	0
 3534 031e 06       		.uleb128 0x6
 3535 031f 04       		.byte	0x4
 3536 0320 00030000 		.4byte	0x300
 3537 0324 09       		.uleb128 0x9
 3538 0325 33000000 		.4byte	0x33
 3539 0329 42030000 		.4byte	0x342
 3540 032d 0A       		.uleb128 0xa
 3541 032e C6000000 		.4byte	0xc6
 3542 0332 0A       		.uleb128 0xa
 3543 0333 6F010000 		.4byte	0x16f
 3544 0337 0A       		.uleb128 0xa
 3545 0338 33000000 		.4byte	0x33
 3546 033c 0A       		.uleb128 0xa
 3547 033d 3F010000 		.4byte	0x13f
 3548 0341 00       		.byte	0
 3549 0342 06       		.uleb128 0x6
 3550 0343 04       		.byte	0x4
 3551 0344 24030000 		.4byte	0x324
 3552 0348 0E       		.uleb128 0xe
 3553 0349 04       		.byte	0x4
 3554 034a 09       		.byte	0x9
 3555 034b 59       		.byte	0x59
 3556 034c 5D030000 		.4byte	0x35d
 3557 0350 0D       		.uleb128 0xd
 3558 0351 766D7400 		.ascii	"vmt\000"
 3559 0355 09       		.byte	0x9
 3560 0356 5B       		.byte	0x5b
 3561 0357 5D030000 		.4byte	0x35d
 3562 035b 00       		.byte	0
 3563 035c 00       		.byte	0
 3564 035d 06       		.uleb128 0x6
 3565 035e 04       		.byte	0x4
 3566 035f 63030000 		.4byte	0x363
 3567 0363 07       		.uleb128 0x7
 3568 0364 5A020000 		.4byte	0x25a
 3569 0368 04       		.uleb128 0x4
 3570 0369 B3090000 		.4byte	.LASF39
 3571 036d 09       		.byte	0x9
 3572 036e 5D       		.byte	0x5d
 3573 036f 48030000 		.4byte	0x348
 3574 0373 11       		.uleb128 0x11
ARM GAS  C:\Users\srich\AppData\Local\Temp\cc32e3J8.s 			page 66


 3575 0374 60       		.byte	0x60
 3576 0375 0A       		.byte	0xa
 3577 0376 9E01     		.2byte	0x19e
 3578 0378 8C040000 		.4byte	0x48c
 3579 037c 12       		.uleb128 0x12
 3580 037d 43523100 		.ascii	"CR1\000"
 3581 0381 0A       		.byte	0xa
 3582 0382 9F01     		.2byte	0x19f
 3583 0384 55010000 		.4byte	0x155
 3584 0388 00       		.byte	0
 3585 0389 12       		.uleb128 0x12
 3586 038a 43523200 		.ascii	"CR2\000"
 3587 038e 0A       		.byte	0xa
 3588 038f A001     		.2byte	0x1a0
 3589 0391 55010000 		.4byte	0x155
 3590 0395 04       		.byte	0x4
 3591 0396 13       		.uleb128 0x13
 3592 0397 0A050000 		.4byte	.LASF40
 3593 039b 0A       		.byte	0xa
 3594 039c A101     		.2byte	0x1a1
 3595 039e 55010000 		.4byte	0x155
 3596 03a2 08       		.byte	0x8
 3597 03a3 13       		.uleb128 0x13
 3598 03a4 5C000000 		.4byte	.LASF41
 3599 03a8 0A       		.byte	0xa
 3600 03a9 A201     		.2byte	0x1a2
 3601 03ab 55010000 		.4byte	0x155
 3602 03af 0C       		.byte	0xc
 3603 03b0 12       		.uleb128 0x12
 3604 03b1 535200   		.ascii	"SR\000"
 3605 03b4 0A       		.byte	0xa
 3606 03b5 A301     		.2byte	0x1a3
 3607 03b7 55010000 		.4byte	0x155
 3608 03bb 10       		.byte	0x10
 3609 03bc 12       		.uleb128 0x12
 3610 03bd 45475200 		.ascii	"EGR\000"
 3611 03c1 0A       		.byte	0xa
 3612 03c2 A401     		.2byte	0x1a4
 3613 03c4 55010000 		.4byte	0x155
 3614 03c8 14       		.byte	0x14
 3615 03c9 13       		.uleb128 0x13
 3616 03ca DF080000 		.4byte	.LASF42
 3617 03ce 0A       		.byte	0xa
 3618 03cf A501     		.2byte	0x1a5
 3619 03d1 55010000 		.4byte	0x155
 3620 03d5 18       		.byte	0x18
 3621 03d6 13       		.uleb128 0x13
 3622 03d7 33010000 		.4byte	.LASF43
 3623 03db 0A       		.byte	0xa
 3624 03dc A601     		.2byte	0x1a6
 3625 03de 55010000 		.4byte	0x155
 3626 03e2 1C       		.byte	0x1c
 3627 03e3 13       		.uleb128 0x13
 3628 03e4 CF010000 		.4byte	.LASF44
 3629 03e8 0A       		.byte	0xa
 3630 03e9 A701     		.2byte	0x1a7
 3631 03eb 55010000 		.4byte	0x155
ARM GAS  C:\Users\srich\AppData\Local\Temp\cc32e3J8.s 			page 67


 3632 03ef 20       		.byte	0x20
 3633 03f0 12       		.uleb128 0x12
 3634 03f1 434E5400 		.ascii	"CNT\000"
 3635 03f5 0A       		.byte	0xa
 3636 03f6 A801     		.2byte	0x1a8
 3637 03f8 55010000 		.4byte	0x155
 3638 03fc 24       		.byte	0x24
 3639 03fd 12       		.uleb128 0x12
 3640 03fe 50534300 		.ascii	"PSC\000"
 3641 0402 0A       		.byte	0xa
 3642 0403 A901     		.2byte	0x1a9
 3643 0405 55010000 		.4byte	0x155
 3644 0409 28       		.byte	0x28
 3645 040a 12       		.uleb128 0x12
 3646 040b 41525200 		.ascii	"ARR\000"
 3647 040f 0A       		.byte	0xa
 3648 0410 AA01     		.2byte	0x1aa
 3649 0412 55010000 		.4byte	0x155
 3650 0416 2C       		.byte	0x2c
 3651 0417 12       		.uleb128 0x12
 3652 0418 52435200 		.ascii	"RCR\000"
 3653 041c 0A       		.byte	0xa
 3654 041d AB01     		.2byte	0x1ab
 3655 041f 55010000 		.4byte	0x155
 3656 0423 30       		.byte	0x30
 3657 0424 12       		.uleb128 0x12
 3658 0425 43435200 		.ascii	"CCR\000"
 3659 0429 0A       		.byte	0xa
 3660 042a AC01     		.2byte	0x1ac
 3661 042c 8C040000 		.4byte	0x48c
 3662 0430 34       		.byte	0x34
 3663 0431 13       		.uleb128 0x13
 3664 0432 08010000 		.4byte	.LASF45
 3665 0436 0A       		.byte	0xa
 3666 0437 AD01     		.2byte	0x1ad
 3667 0439 55010000 		.4byte	0x155
 3668 043d 44       		.byte	0x44
 3669 043e 12       		.uleb128 0x12
 3670 043f 44435200 		.ascii	"DCR\000"
 3671 0443 0A       		.byte	0xa
 3672 0444 AE01     		.2byte	0x1ae
 3673 0446 55010000 		.4byte	0x155
 3674 044a 48       		.byte	0x48
 3675 044b 13       		.uleb128 0x13
 3676 044c 6B060000 		.4byte	.LASF46
 3677 0450 0A       		.byte	0xa
 3678 0451 AF01     		.2byte	0x1af
 3679 0453 55010000 		.4byte	0x155
 3680 0457 4C       		.byte	0x4c
 3681 0458 12       		.uleb128 0x12
 3682 0459 4F5200   		.ascii	"OR\000"
 3683 045c 0A       		.byte	0xa
 3684 045d B001     		.2byte	0x1b0
 3685 045f 55010000 		.4byte	0x155
 3686 0463 50       		.byte	0x50
 3687 0464 13       		.uleb128 0x13
 3688 0465 9F000000 		.4byte	.LASF47
ARM GAS  C:\Users\srich\AppData\Local\Temp\cc32e3J8.s 			page 68


 3689 0469 0A       		.byte	0xa
 3690 046a B101     		.2byte	0x1b1
 3691 046c 55010000 		.4byte	0x155
 3692 0470 54       		.byte	0x54
 3693 0471 13       		.uleb128 0x13
 3694 0472 6F090000 		.4byte	.LASF48
 3695 0476 0A       		.byte	0xa
 3696 0477 B201     		.2byte	0x1b2
 3697 0479 55010000 		.4byte	0x155
 3698 047d 58       		.byte	0x58
 3699 047e 13       		.uleb128 0x13
 3700 047f E4000000 		.4byte	.LASF49
 3701 0483 0A       		.byte	0xa
 3702 0484 B301     		.2byte	0x1b3
 3703 0486 55010000 		.4byte	0x155
 3704 048a 5C       		.byte	0x5c
 3705 048b 00       		.byte	0
 3706 048c 08       		.uleb128 0x8
 3707 048d 40020000 		.4byte	0x240
 3708 0491 14       		.uleb128 0x14
 3709 0492 60010000 		.4byte	.LASF50
 3710 0496 0A       		.byte	0xa
 3711 0497 B401     		.2byte	0x1b4
 3712 0499 73030000 		.4byte	0x373
 3713 049d 06       		.uleb128 0x6
 3714 049e 04       		.byte	0x4
 3715 049f 91040000 		.4byte	0x491
 3716 04a3 15       		.uleb128 0x15
 3717 04a4 01       		.byte	0x1
 3718 04a5 0B       		.byte	0xb
 3719 04a6 55       		.byte	0x55
 3720 04a7 BE040000 		.4byte	0x4be
 3721 04ab 16       		.uleb128 0x16
 3722 04ac 790A0000 		.4byte	.LASF51
 3723 04b0 00       		.sleb128 0
 3724 04b1 16       		.uleb128 0x16
 3725 04b2 3E080000 		.4byte	.LASF52
 3726 04b6 01       		.sleb128 1
 3727 04b7 16       		.uleb128 0x16
 3728 04b8 17010000 		.4byte	.LASF53
 3729 04bc 02       		.sleb128 2
 3730 04bd 00       		.byte	0
 3731 04be 04       		.uleb128 0x4
 3732 04bf BF090000 		.4byte	.LASF54
 3733 04c3 0B       		.byte	0xb
 3734 04c4 59       		.byte	0x59
 3735 04c5 A3040000 		.4byte	0x4a3
 3736 04c9 04       		.uleb128 0x4
 3737 04ca 21010000 		.4byte	.LASF55
 3738 04ce 0B       		.byte	0xb
 3739 04cf 5E       		.byte	0x5e
 3740 04d0 D4040000 		.4byte	0x4d4
 3741 04d4 17       		.uleb128 0x17
 3742 04d5 21010000 		.4byte	.LASF55
 3743 04d9 14       		.byte	0x14
 3744 04da 0C       		.byte	0xc
 3745 04db 6F01     		.2byte	0x16f
ARM GAS  C:\Users\srich\AppData\Local\Temp\cc32e3J8.s 			page 69


 3746 04dd 23050000 		.4byte	0x523
 3747 04e1 13       		.uleb128 0x13
 3748 04e2 99010000 		.4byte	.LASF56
 3749 04e6 0C       		.byte	0xc
 3750 04e7 7301     		.2byte	0x173
 3751 04e9 BE040000 		.4byte	0x4be
 3752 04ed 00       		.byte	0
 3753 04ee 13       		.uleb128 0x13
 3754 04ef 60080000 		.4byte	.LASF57
 3755 04f3 0C       		.byte	0xc
 3756 04f4 7701     		.2byte	0x177
 3757 04f6 0D060000 		.4byte	0x60d
 3758 04fa 04       		.byte	0x4
 3759 04fb 13       		.uleb128 0x13
 3760 04fc AE000000 		.4byte	.LASF58
 3761 0500 0C       		.byte	0xc
 3762 0501 7B01     		.2byte	0x17b
 3763 0503 5D050000 		.4byte	0x55d
 3764 0507 08       		.byte	0x8
 3765 0508 13       		.uleb128 0x13
 3766 0509 4A0A0000 		.4byte	.LASF59
 3767 050d 0C       		.byte	0xc
 3768 050e 8301     		.2byte	0x183
 3769 0510 0C010000 		.4byte	0x10c
 3770 0514 0C       		.byte	0xc
 3771 0515 12       		.uleb128 0x12
 3772 0516 74696D00 		.ascii	"tim\000"
 3773 051a 0C       		.byte	0xc
 3774 051b 8701     		.2byte	0x187
 3775 051d 9D040000 		.4byte	0x49d
 3776 0521 10       		.byte	0x10
 3777 0522 00       		.byte	0
 3778 0523 04       		.uleb128 0x4
 3779 0524 B5060000 		.4byte	.LASF60
 3780 0528 0B       		.byte	0xb
 3781 0529 65       		.byte	0x65
 3782 052a 2E050000 		.4byte	0x52e
 3783 052e 06       		.uleb128 0x6
 3784 052f 04       		.byte	0x4
 3785 0530 34050000 		.4byte	0x534
 3786 0534 18       		.uleb128 0x18
 3787 0535 3F050000 		.4byte	0x53f
 3788 0539 0A       		.uleb128 0xa
 3789 053a 3F050000 		.4byte	0x53f
 3790 053e 00       		.byte	0
 3791 053f 06       		.uleb128 0x6
 3792 0540 04       		.byte	0x4
 3793 0541 C9040000 		.4byte	0x4c9
 3794 0545 14       		.uleb128 0x14
 3795 0546 7D060000 		.4byte	.LASF61
 3796 054a 0C       		.byte	0xc
 3797 054b 2001     		.2byte	0x120
 3798 054d 0C010000 		.4byte	0x10c
 3799 0551 14       		.uleb128 0x14
 3800 0552 20000000 		.4byte	.LASF62
 3801 0556 0C       		.byte	0xc
 3802 0557 2501     		.2byte	0x125
ARM GAS  C:\Users\srich\AppData\Local\Temp\cc32e3J8.s 			page 70


 3803 0559 E0000000 		.4byte	0xe0
 3804 055d 14       		.uleb128 0x14
 3805 055e F9010000 		.4byte	.LASF63
 3806 0562 0C       		.byte	0xc
 3807 0563 2A01     		.2byte	0x12a
 3808 0565 F6000000 		.4byte	0xf6
 3809 0569 11       		.uleb128 0x11
 3810 056a 08       		.byte	0x8
 3811 056b 0C       		.byte	0xc
 3812 056c 2F01     		.2byte	0x12f
 3813 056e 8D050000 		.4byte	0x58d
 3814 0572 13       		.uleb128 0x13
 3815 0573 4C080000 		.4byte	.LASF64
 3816 0577 0C       		.byte	0xc
 3817 0578 3301     		.2byte	0x133
 3818 057a 45050000 		.4byte	0x545
 3819 057e 00       		.byte	0
 3820 057f 13       		.uleb128 0x13
 3821 0580 96000000 		.4byte	.LASF65
 3822 0584 0C       		.byte	0xc
 3823 0585 3901     		.2byte	0x139
 3824 0587 23050000 		.4byte	0x523
 3825 058b 04       		.byte	0x4
 3826 058c 00       		.byte	0
 3827 058d 14       		.uleb128 0x14
 3828 058e FB080000 		.4byte	.LASF66
 3829 0592 0C       		.byte	0xc
 3830 0593 3B01     		.2byte	0x13b
 3831 0595 69050000 		.4byte	0x569
 3832 0599 11       		.uleb128 0x11
 3833 059a 34       		.byte	0x34
 3834 059b 0C       		.byte	0xc
 3835 059c 4001     		.2byte	0x140
 3836 059e F1050000 		.4byte	0x5f1
 3837 05a2 13       		.uleb128 0x13
 3838 05a3 0D010000 		.4byte	.LASF67
 3839 05a7 0C       		.byte	0xc
 3840 05a8 4601     		.2byte	0x146
 3841 05aa 0C010000 		.4byte	0x10c
 3842 05ae 00       		.byte	0
 3843 05af 13       		.uleb128 0x13
 3844 05b0 AE000000 		.4byte	.LASF58
 3845 05b4 0C       		.byte	0xc
 3846 05b5 4C01     		.2byte	0x14c
 3847 05b7 5D050000 		.4byte	0x55d
 3848 05bb 04       		.byte	0x4
 3849 05bc 13       		.uleb128 0x13
 3850 05bd 96000000 		.4byte	.LASF65
 3851 05c1 0C       		.byte	0xc
 3852 05c2 5201     		.2byte	0x152
 3853 05c4 23050000 		.4byte	0x523
 3854 05c8 08       		.byte	0x8
 3855 05c9 13       		.uleb128 0x13
 3856 05ca 9F010000 		.4byte	.LASF68
 3857 05ce 0C       		.byte	0xc
 3858 05cf 5601     		.2byte	0x156
 3859 05d1 F1050000 		.4byte	0x5f1
ARM GAS  C:\Users\srich\AppData\Local\Temp\cc32e3J8.s 			page 71


 3860 05d5 0C       		.byte	0xc
 3861 05d6 12       		.uleb128 0x12
 3862 05d7 63723200 		.ascii	"cr2\000"
 3863 05db 0C       		.byte	0xc
 3864 05dc 5C01     		.2byte	0x15c
 3865 05de 0C010000 		.4byte	0x10c
 3866 05e2 2C       		.byte	0x2c
 3867 05e3 13       		.uleb128 0x13
 3868 05e4 910A0000 		.4byte	.LASF69
 3869 05e8 0C       		.byte	0xc
 3870 05e9 6901     		.2byte	0x169
 3871 05eb 0C010000 		.4byte	0x10c
 3872 05ef 30       		.byte	0x30
 3873 05f0 00       		.byte	0
 3874 05f1 0F       		.uleb128 0xf
 3875 05f2 8D050000 		.4byte	0x58d
 3876 05f6 01060000 		.4byte	0x601
 3877 05fa 10       		.uleb128 0x10
 3878 05fb BF000000 		.4byte	0xbf
 3879 05ff 03       		.byte	0x3
 3880 0600 00       		.byte	0
 3881 0601 14       		.uleb128 0x14
 3882 0602 12080000 		.4byte	.LASF70
 3883 0606 0C       		.byte	0xc
 3884 0607 6A01     		.2byte	0x16a
 3885 0609 99050000 		.4byte	0x599
 3886 060d 06       		.uleb128 0x6
 3887 060e 04       		.byte	0x4
 3888 060f 13060000 		.4byte	0x613
 3889 0613 07       		.uleb128 0x7
 3890 0614 01060000 		.4byte	0x601
 3891 0618 04       		.uleb128 0x4
 3892 0619 2C050000 		.4byte	.LASF71
 3893 061d 0D       		.byte	0xd
 3894 061e 28       		.byte	0x28
 3895 061f 23060000 		.4byte	0x623
 3896 0623 0B       		.uleb128 0xb
 3897 0624 02020000 		.4byte	.LASF72
 3898 0628 04       		.byte	0x4
 3899 0629 0E       		.byte	0xe
 3900 062a 00       		.byte	0
 3901 062b 3A060000 		.4byte	0x63a
 3902 062f 19       		.uleb128 0x19
 3903 0630 DA080000 		.4byte	.LASF214
 3904 0634 C6000000 		.4byte	0xc6
 3905 0638 00       		.byte	0
 3906 0639 00       		.byte	0
 3907 063a 04       		.uleb128 0x4
 3908 063b 95020000 		.4byte	.LASF73
 3909 063f 0D       		.byte	0xd
 3910 0640 62       		.byte	0x62
 3911 0641 18060000 		.4byte	0x618
 3912 0645 1A       		.uleb128 0x1a
 3913 0646 ED060000 		.4byte	.LASF90
 3914 064a 01       		.byte	0x1
 3915 064b 0F       		.byte	0xf
 3916 064c 06       		.byte	0x6
ARM GAS  C:\Users\srich\AppData\Local\Temp\cc32e3J8.s 			page 72


 3917 064d 9A060000 		.4byte	0x69a
 3918 0651 16       		.uleb128 0x16
 3919 0652 67080000 		.4byte	.LASF74
 3920 0656 00       		.sleb128 0
 3921 0657 16       		.uleb128 0x16
 3922 0658 38070000 		.4byte	.LASF75
 3923 065c 01       		.sleb128 1
 3924 065d 16       		.uleb128 0x16
 3925 065e 0C020000 		.4byte	.LASF76
 3926 0662 02       		.sleb128 2
 3927 0663 16       		.uleb128 0x16
 3928 0664 68000000 		.4byte	.LASF77
 3929 0668 03       		.sleb128 3
 3930 0669 16       		.uleb128 0x16
 3931 066a 12090000 		.4byte	.LASF78
 3932 066e 04       		.sleb128 4
 3933 066f 16       		.uleb128 0x16
 3934 0670 DB090000 		.4byte	.LASF79
 3935 0674 05       		.sleb128 5
 3936 0675 16       		.uleb128 0x16
 3937 0676 3B090000 		.4byte	.LASF80
 3938 067a 06       		.sleb128 6
 3939 067b 16       		.uleb128 0x16
 3940 067c 83030000 		.4byte	.LASF81
 3941 0680 07       		.sleb128 7
 3942 0681 16       		.uleb128 0x16
 3943 0682 CA020000 		.4byte	.LASF82
 3944 0686 08       		.sleb128 8
 3945 0687 16       		.uleb128 0x16
 3946 0688 D4010000 		.4byte	.LASF83
 3947 068c 09       		.sleb128 9
 3948 068d 16       		.uleb128 0x16
 3949 068e 10030000 		.4byte	.LASF84
 3950 0692 0A       		.sleb128 10
 3951 0693 16       		.uleb128 0x16
 3952 0694 2C060000 		.4byte	.LASF85
 3953 0698 0B       		.sleb128 11
 3954 0699 00       		.byte	0
 3955 069a 0B       		.uleb128 0xb
 3956 069b A4040000 		.4byte	.LASF86
 3957 069f 06       		.byte	0x6
 3958 06a0 0F       		.byte	0xf
 3959 06a1 16       		.byte	0x16
 3960 06a2 D6060000 		.4byte	0x6d6
 3961 06a6 0D       		.uleb128 0xd
 3962 06a7 696400   		.ascii	"id\000"
 3963 06aa 0F       		.byte	0xf
 3964 06ab 18       		.byte	0x18
 3965 06ac F6000000 		.4byte	0xf6
 3966 06b0 00       		.byte	0
 3967 06b1 0C       		.uleb128 0xc
 3968 06b2 02050000 		.4byte	.LASF87
 3969 06b6 0F       		.byte	0xf
 3970 06b7 19       		.byte	0x19
 3971 06b8 F6000000 		.4byte	0xf6
 3972 06bc 02       		.byte	0x2
 3973 06bd 0C       		.uleb128 0xc
ARM GAS  C:\Users\srich\AppData\Local\Temp\cc32e3J8.s 			page 73


 3974 06be AA030000 		.4byte	.LASF88
 3975 06c2 0F       		.byte	0xf
 3976 06c3 1A       		.byte	0x1a
 3977 06c4 E0000000 		.4byte	0xe0
 3978 06c8 04       		.byte	0x4
 3979 06c9 0C       		.uleb128 0xc
 3980 06ca 99030000 		.4byte	.LASF89
 3981 06ce 0F       		.byte	0xf
 3982 06cf 1B       		.byte	0x1b
 3983 06d0 45060000 		.4byte	0x645
 3984 06d4 05       		.byte	0x5
 3985 06d5 00       		.byte	0
 3986 06d6 1A       		.uleb128 0x1a
 3987 06d7 D8070000 		.4byte	.LASF91
 3988 06db 01       		.byte	0x1
 3989 06dc 10       		.byte	0x10
 3990 06dd 0C       		.byte	0xc
 3991 06de 13070000 		.4byte	0x713
 3992 06e2 16       		.uleb128 0x16
 3993 06e3 2D000000 		.4byte	.LASF92
 3994 06e7 00       		.sleb128 0
 3995 06e8 16       		.uleb128 0x16
 3996 06e9 B4040000 		.4byte	.LASF93
 3997 06ed 01       		.sleb128 1
 3998 06ee 16       		.uleb128 0x16
 3999 06ef BF040000 		.4byte	.LASF94
 4000 06f3 02       		.sleb128 2
 4001 06f4 16       		.uleb128 0x16
 4002 06f5 8D090000 		.4byte	.LASF95
 4003 06f9 03       		.sleb128 3
 4004 06fa 16       		.uleb128 0x16
 4005 06fb 53090000 		.4byte	.LASF96
 4006 06ff 04       		.sleb128 4
 4007 0700 16       		.uleb128 0x16
 4008 0701 2E0A0000 		.4byte	.LASF97
 4009 0705 05       		.sleb128 5
 4010 0706 16       		.uleb128 0x16
 4011 0707 5F0A0000 		.4byte	.LASF98
 4012 070b 06       		.sleb128 6
 4013 070c 16       		.uleb128 0x16
 4014 070d A7020000 		.4byte	.LASF99
 4015 0711 07       		.sleb128 7
 4016 0712 00       		.byte	0
 4017 0713 1A       		.uleb128 0x1a
 4018 0714 BF080000 		.4byte	.LASF100
 4019 0718 01       		.byte	0x1
 4020 0719 10       		.byte	0x10
 4021 071a 18       		.byte	0x18
 4022 071b 38070000 		.4byte	0x738
 4023 071f 16       		.uleb128 0x16
 4024 0720 A8010000 		.4byte	.LASF101
 4025 0724 00       		.sleb128 0
 4026 0725 16       		.uleb128 0x16
 4027 0726 500A0000 		.4byte	.LASF102
 4028 072a 01       		.sleb128 1
 4029 072b 16       		.uleb128 0x16
 4030 072c 3D060000 		.4byte	.LASF103
ARM GAS  C:\Users\srich\AppData\Local\Temp\cc32e3J8.s 			page 74


 4031 0730 02       		.sleb128 2
 4032 0731 16       		.uleb128 0x16
 4033 0732 CD080000 		.4byte	.LASF104
 4034 0736 03       		.sleb128 3
 4035 0737 00       		.byte	0
 4036 0738 0B       		.uleb128 0xb
 4037 0739 8C020000 		.4byte	.LASF105
 4038 073d 2C       		.byte	0x2c
 4039 073e 11       		.byte	0x11
 4040 073f 15       		.byte	0x15
 4041 0740 64080000 		.4byte	0x864
 4042 0744 0D       		.uleb128 0xd
 4043 0745 696400   		.ascii	"id\000"
 4044 0748 11       		.byte	0x11
 4045 0749 17       		.byte	0x17
 4046 074a 0C010000 		.4byte	0x10c
 4047 074e 00       		.byte	0
 4048 074f 0C       		.uleb128 0xc
 4049 0750 A3080000 		.4byte	.LASF106
 4050 0754 11       		.byte	0x11
 4051 0755 18       		.byte	0x18
 4052 0756 E0000000 		.4byte	0xe0
 4053 075a 04       		.byte	0x4
 4054 075b 0C       		.uleb128 0xc
 4055 075c 52030000 		.4byte	.LASF107
 4056 0760 11       		.byte	0x11
 4057 0761 19       		.byte	0x19
 4058 0762 F6000000 		.4byte	0xf6
 4059 0766 06       		.byte	0x6
 4060 0767 0C       		.uleb128 0xc
 4061 0768 DB000000 		.4byte	.LASF108
 4062 076c 11       		.byte	0x11
 4063 076d 1A       		.byte	0x1a
 4064 076e F6000000 		.4byte	0xf6
 4065 0772 08       		.byte	0x8
 4066 0773 0C       		.uleb128 0xc
 4067 0774 AA060000 		.4byte	.LASF109
 4068 0778 11       		.byte	0x11
 4069 0779 1B       		.byte	0x1b
 4070 077a E0000000 		.4byte	0xe0
 4071 077e 0A       		.byte	0xa
 4072 077f 0C       		.uleb128 0xc
 4073 0780 75020000 		.4byte	.LASF110
 4074 0784 11       		.byte	0x11
 4075 0785 1C       		.byte	0x1c
 4076 0786 F6000000 		.4byte	0xf6
 4077 078a 0C       		.byte	0xc
 4078 078b 0C       		.uleb128 0xc
 4079 078c CC070000 		.4byte	.LASF111
 4080 0790 11       		.byte	0x11
 4081 0791 1D       		.byte	0x1d
 4082 0792 E0000000 		.4byte	0xe0
 4083 0796 0E       		.byte	0xe
 4084 0797 0C       		.uleb128 0xc
 4085 0798 07040000 		.4byte	.LASF112
 4086 079c 11       		.byte	0x11
 4087 079d 1E       		.byte	0x1e
ARM GAS  C:\Users\srich\AppData\Local\Temp\cc32e3J8.s 			page 75


 4088 079e E0000000 		.4byte	0xe0
 4089 07a2 0F       		.byte	0xf
 4090 07a3 0C       		.uleb128 0xc
 4091 07a4 C1010000 		.4byte	.LASF113
 4092 07a8 11       		.byte	0x11
 4093 07a9 1F       		.byte	0x1f
 4094 07aa E0000000 		.4byte	0xe0
 4095 07ae 10       		.byte	0x10
 4096 07af 0C       		.uleb128 0xc
 4097 07b0 19020000 		.4byte	.LASF114
 4098 07b4 11       		.byte	0x11
 4099 07b5 20       		.byte	0x20
 4100 07b6 F6000000 		.4byte	0xf6
 4101 07ba 12       		.byte	0x12
 4102 07bb 0C       		.uleb128 0xc
 4103 07bc 05070000 		.4byte	.LASF115
 4104 07c0 11       		.byte	0x11
 4105 07c1 21       		.byte	0x21
 4106 07c2 F6000000 		.4byte	0xf6
 4107 07c6 14       		.byte	0x14
 4108 07c7 0C       		.uleb128 0xc
 4109 07c8 76070000 		.4byte	.LASF116
 4110 07cc 11       		.byte	0x11
 4111 07cd 22       		.byte	0x22
 4112 07ce F6000000 		.4byte	0xf6
 4113 07d2 16       		.byte	0x16
 4114 07d3 0C       		.uleb128 0xc
 4115 07d4 E5070000 		.4byte	.LASF117
 4116 07d8 11       		.byte	0x11
 4117 07d9 23       		.byte	0x23
 4118 07da EB000000 		.4byte	0xeb
 4119 07de 18       		.byte	0x18
 4120 07df 0C       		.uleb128 0xc
 4121 07e0 C2030000 		.4byte	.LASF118
 4122 07e4 11       		.byte	0x11
 4123 07e5 24       		.byte	0x24
 4124 07e6 E0000000 		.4byte	0xe0
 4125 07ea 1A       		.byte	0x1a
 4126 07eb 0C       		.uleb128 0xc
 4127 07ec 38040000 		.4byte	.LASF119
 4128 07f0 11       		.byte	0x11
 4129 07f1 25       		.byte	0x25
 4130 07f2 E0000000 		.4byte	0xe0
 4131 07f6 1B       		.byte	0x1b
 4132 07f7 0C       		.uleb128 0xc
 4133 07f8 30020000 		.4byte	.LASF120
 4134 07fc 11       		.byte	0x11
 4135 07fd 26       		.byte	0x26
 4136 07fe E0000000 		.4byte	0xe0
 4137 0802 1C       		.byte	0x1c
 4138 0803 0C       		.uleb128 0xc
 4139 0804 92060000 		.4byte	.LASF121
 4140 0808 11       		.byte	0x11
 4141 0809 27       		.byte	0x27
 4142 080a F6000000 		.4byte	0xf6
 4143 080e 1E       		.byte	0x1e
 4144 080f 0C       		.uleb128 0xc
ARM GAS  C:\Users\srich\AppData\Local\Temp\cc32e3J8.s 			page 76


 4145 0810 B1080000 		.4byte	.LASF122
 4146 0814 11       		.byte	0x11
 4147 0815 28       		.byte	0x28
 4148 0816 E0000000 		.4byte	0xe0
 4149 081a 20       		.byte	0x20
 4150 081b 0C       		.uleb128 0xc
 4151 081c 43020000 		.4byte	.LASF123
 4152 0820 11       		.byte	0x11
 4153 0821 29       		.byte	0x29
 4154 0822 F6000000 		.4byte	0xf6
 4155 0826 22       		.byte	0x22
 4156 0827 0C       		.uleb128 0xc
 4157 0828 49000000 		.4byte	.LASF124
 4158 082c 11       		.byte	0x11
 4159 082d 2A       		.byte	0x2a
 4160 082e E0000000 		.4byte	0xe0
 4161 0832 24       		.byte	0x24
 4162 0833 0C       		.uleb128 0xc
 4163 0834 3B050000 		.4byte	.LASF125
 4164 0838 11       		.byte	0x11
 4165 0839 2B       		.byte	0x2b
 4166 083a E0000000 		.4byte	0xe0
 4167 083e 25       		.byte	0x25
 4168 083f 0C       		.uleb128 0xc
 4169 0840 E7030000 		.4byte	.LASF126
 4170 0844 11       		.byte	0x11
 4171 0845 2C       		.byte	0x2c
 4172 0846 E0000000 		.4byte	0xe0
 4173 084a 26       		.byte	0x26
 4174 084b 0C       		.uleb128 0xc
 4175 084c 6F0A0000 		.4byte	.LASF127
 4176 0850 11       		.byte	0x11
 4177 0851 2D       		.byte	0x2d
 4178 0852 E0000000 		.4byte	0xe0
 4179 0856 27       		.byte	0x27
 4180 0857 0C       		.uleb128 0xc
 4181 0858 F6000000 		.4byte	.LASF128
 4182 085c 11       		.byte	0x11
 4183 085d 2E       		.byte	0x2e
 4184 085e F6000000 		.4byte	0xf6
 4185 0862 28       		.byte	0x28
 4186 0863 00       		.byte	0
 4187 0864 1B       		.uleb128 0x1b
 4188 0865 7F020000 		.4byte	.LASF129
 4189 0869 02       		.byte	0x2
 4190 086a 2D01     		.2byte	0x12d
 4191 086c 01       		.byte	0x1
 4192 086d 1B       		.uleb128 0x1b
 4193 086e 81040000 		.4byte	.LASF130
 4194 0872 02       		.byte	0x2
 4195 0873 3101     		.2byte	0x131
 4196 0875 01       		.byte	0x1
 4197 0876 1B       		.uleb128 0x1b
 4198 0877 71030000 		.4byte	.LASF131
 4199 087b 02       		.byte	0x2
 4200 087c 3501     		.2byte	0x135
 4201 087e 01       		.byte	0x1
ARM GAS  C:\Users\srich\AppData\Local\Temp\cc32e3J8.s 			page 77


 4202 087f 1B       		.uleb128 0x1b
 4203 0880 4B040000 		.4byte	.LASF132
 4204 0884 02       		.byte	0x2
 4205 0885 3801     		.2byte	0x138
 4206 0887 01       		.byte	0x1
 4207 0888 1C       		.uleb128 0x1c
 4208 0889 960A0000 		.4byte	.LASF215
 4209 088d 01       		.byte	0x1
 4210 088e 45       		.byte	0x45
 4211 088f 00000000 		.4byte	.LFB118
 4212 0893 1C000000 		.4byte	.LFE118-.LFB118
 4213 0897 01       		.uleb128 0x1
 4214 0898 9C       		.byte	0x9c
 4215 0899 E7080000 		.4byte	0x8e7
 4216 089d 1D       		.uleb128 0x1d
 4217 089e 63687000 		.ascii	"chp\000"
 4218 08a2 01       		.byte	0x1
 4219 08a3 45       		.byte	0x45
 4220 08a4 E7080000 		.4byte	0x8e7
 4221 08a8 00000000 		.4byte	.LLST0
 4222 08ac 1E       		.uleb128 0x1e
 4223 08ad 666D7400 		.ascii	"fmt\000"
 4224 08b1 01       		.byte	0x1
 4225 08b2 45       		.byte	0x45
 4226 08b3 D5000000 		.4byte	0xd5
 4227 08b7 02       		.uleb128 0x2
 4228 08b8 91       		.byte	0x91
 4229 08b9 74       		.sleb128 -12
 4230 08ba 1F       		.uleb128 0x1f
 4231 08bb 20       		.uleb128 0x20
 4232 08bc 617000   		.ascii	"ap\000"
 4233 08bf 01       		.byte	0x1
 4234 08c0 46       		.byte	0x46
 4235 08c1 3A060000 		.4byte	0x63a
 4236 08c5 02       		.uleb128 0x2
 4237 08c6 91       		.byte	0x91
 4238 08c7 6C       		.sleb128 -20
 4239 08c8 21       		.uleb128 0x21
 4240 08c9 12000000 		.4byte	.LVL1
 4241 08cd 041A0000 		.4byte	0x1a04
 4242 08d1 22       		.uleb128 0x22
 4243 08d2 01       		.uleb128 0x1
 4244 08d3 52       		.byte	0x52
 4245 08d4 02       		.uleb128 0x2
 4246 08d5 91       		.byte	0x91
 4247 08d6 60       		.sleb128 -32
 4248 08d7 22       		.uleb128 0x22
 4249 08d8 01       		.uleb128 0x1
 4250 08d9 51       		.byte	0x51
 4251 08da 03       		.uleb128 0x3
 4252 08db 91       		.byte	0x91
 4253 08dc 5C       		.sleb128 -36
 4254 08dd 06       		.byte	0x6
 4255 08de 22       		.uleb128 0x22
 4256 08df 01       		.uleb128 0x1
 4257 08e0 50       		.byte	0x50
 4258 08e1 03       		.uleb128 0x3
ARM GAS  C:\Users\srich\AppData\Local\Temp\cc32e3J8.s 			page 78


 4259 08e2 F3       		.byte	0xf3
 4260 08e3 01       		.uleb128 0x1
 4261 08e4 50       		.byte	0x50
 4262 08e5 00       		.byte	0
 4263 08e6 00       		.byte	0
 4264 08e7 06       		.uleb128 0x6
 4265 08e8 04       		.byte	0x4
 4266 08e9 35020000 		.4byte	0x235
 4267 08ed 23       		.uleb128 0x23
 4268 08ee 2D070000 		.4byte	.LASF139
 4269 08f2 02       		.byte	0x2
 4270 08f3 63       		.byte	0x63
 4271 08f4 00000000 		.4byte	.LFB119
 4272 08f8 4C010000 		.4byte	.LFE119-.LFB119
 4273 08fc 01       		.uleb128 0x1
 4274 08fd 9C       		.byte	0x9c
 4275 08fe 54090000 		.4byte	0x954
 4276 0902 24       		.uleb128 0x24
 4277 0903 A2000000 		.4byte	.LVL2
 4278 0907 1F1A0000 		.4byte	0x1a1f
 4279 090b 1C090000 		.4byte	0x91c
 4280 090f 22       		.uleb128 0x22
 4281 0910 01       		.uleb128 0x1
 4282 0911 51       		.byte	0x51
 4283 0912 02       		.uleb128 0x2
 4284 0913 76       		.byte	0x76
 4285 0914 00       		.sleb128 0
 4286 0915 22       		.uleb128 0x22
 4287 0916 01       		.uleb128 0x1
 4288 0917 50       		.byte	0x50
 4289 0918 02       		.uleb128 0x2
 4290 0919 74       		.byte	0x74
 4291 091a 00       		.sleb128 0
 4292 091b 00       		.byte	0
 4293 091c 25       		.uleb128 0x25
 4294 091d C0000000 		.4byte	.LVL3
 4295 0921 3F1A0000 		.4byte	0x1a3f
 4296 0925 33090000 		.4byte	0x933
 4297 0929 22       		.uleb128 0x22
 4298 092a 01       		.uleb128 0x1
 4299 092b 51       		.byte	0x51
 4300 092c 05       		.uleb128 0x5
 4301 092d 03       		.byte	0x3
 4302 092e 00000000 		.4byte	.LANCHOR20
 4303 0932 00       		.byte	0
 4304 0933 25       		.uleb128 0x25
 4305 0934 D0000000 		.4byte	.LVL4
 4306 0938 3F1A0000 		.4byte	0x1a3f
 4307 093c 4A090000 		.4byte	0x94a
 4308 0940 22       		.uleb128 0x22
 4309 0941 01       		.uleb128 0x1
 4310 0942 51       		.byte	0x51
 4311 0943 05       		.uleb128 0x5
 4312 0944 03       		.byte	0x3
 4313 0945 00000000 		.4byte	.LANCHOR20
 4314 0949 00       		.byte	0
 4315 094a 26       		.uleb128 0x26
ARM GAS  C:\Users\srich\AppData\Local\Temp\cc32e3J8.s 			page 79


 4316 094b D8000000 		.4byte	.LVL5
 4317 094f 551A0000 		.4byte	0x1a55
 4318 0953 00       		.byte	0
 4319 0954 27       		.uleb128 0x27
 4320 0955 64080000 		.4byte	0x864
 4321 0959 00000000 		.4byte	.LFB121
 4322 095d 18000000 		.4byte	.LFE121-.LFB121
 4323 0961 01       		.uleb128 0x1
 4324 0962 9C       		.byte	0x9c
 4325 0963 27       		.uleb128 0x27
 4326 0964 6D080000 		.4byte	0x86d
 4327 0968 00000000 		.4byte	.LFB122
 4328 096c 0C000000 		.4byte	.LFE122-.LFB122
 4329 0970 01       		.uleb128 0x1
 4330 0971 9C       		.byte	0x9c
 4331 0972 27       		.uleb128 0x27
 4332 0973 76080000 		.4byte	0x876
 4333 0977 00000000 		.4byte	.LFB123
 4334 097b 0C000000 		.4byte	.LFE123-.LFB123
 4335 097f 01       		.uleb128 0x1
 4336 0980 9C       		.byte	0x9c
 4337 0981 27       		.uleb128 0x27
 4338 0982 7F080000 		.4byte	0x87f
 4339 0986 00000000 		.4byte	.LFB124
 4340 098a 0C000000 		.4byte	.LFE124-.LFB124
 4341 098e 01       		.uleb128 0x1
 4342 098f 9C       		.byte	0x9c
 4343 0990 28       		.uleb128 0x28
 4344 0991 F5090000 		.4byte	.LASF133
 4345 0995 02       		.byte	0x2
 4346 0996 3C01     		.2byte	0x13c
 4347 0998 22010000 		.4byte	0x122
 4348 099c 00000000 		.4byte	.LFB125
 4349 09a0 10000000 		.4byte	.LFE125-.LFB125
 4350 09a4 01       		.uleb128 0x1
 4351 09a5 9C       		.byte	0x9c
 4352 09a6 28       		.uleb128 0x28
 4353 09a7 BC070000 		.4byte	.LASF134
 4354 09ab 02       		.byte	0x2
 4355 09ac 4001     		.2byte	0x140
 4356 09ae 22010000 		.4byte	0x122
 4357 09b2 00000000 		.4byte	.LFB126
 4358 09b6 0C000000 		.4byte	.LFE126-.LFB126
 4359 09ba 01       		.uleb128 0x1
 4360 09bb 9C       		.byte	0x9c
 4361 09bc 29       		.uleb128 0x29
 4362 09bd 00000000 		.4byte	.LASF135
 4363 09c1 02       		.byte	0x2
 4364 09c2 4401     		.2byte	0x144
 4365 09c4 00000000 		.4byte	.LFB127
 4366 09c8 0C000000 		.4byte	.LFE127-.LFB127
 4367 09cc 01       		.uleb128 0x1
 4368 09cd 9C       		.byte	0x9c
 4369 09ce 2A       		.uleb128 0x2a
 4370 09cf 8B010000 		.4byte	.LASF137
 4371 09d3 02       		.byte	0x2
 4372 09d4 4801     		.2byte	0x148
ARM GAS  C:\Users\srich\AppData\Local\Temp\cc32e3J8.s 			page 80


 4373 09d6 00000000 		.4byte	.LFB128
 4374 09da 24000000 		.4byte	.LFE128-.LFB128
 4375 09de 01       		.uleb128 0x1
 4376 09df 9C       		.byte	0x9c
 4377 09e0 EE090000 		.4byte	0x9ee
 4378 09e4 26       		.uleb128 0x26
 4379 09e5 0C000000 		.4byte	.LVL6
 4380 09e9 6A1A0000 		.4byte	0x1a6a
 4381 09ed 00       		.byte	0
 4382 09ee 29       		.uleb128 0x29
 4383 09ef 0F050000 		.4byte	.LASF136
 4384 09f3 02       		.byte	0x2
 4385 09f4 4F01     		.2byte	0x14f
 4386 09f6 00000000 		.4byte	.LFB129
 4387 09fa 0C000000 		.4byte	.LFE129-.LFB129
 4388 09fe 01       		.uleb128 0x1
 4389 09ff 9C       		.byte	0x9c
 4390 0a00 2A       		.uleb128 0x2a
 4391 0a01 27080000 		.4byte	.LASF138
 4392 0a05 02       		.byte	0x2
 4393 0a06 5301     		.2byte	0x153
 4394 0a08 00000000 		.4byte	.LFB130
 4395 0a0c 24000000 		.4byte	.LFE130-.LFB130
 4396 0a10 01       		.uleb128 0x1
 4397 0a11 9C       		.byte	0x9c
 4398 0a12 200A0000 		.4byte	0xa20
 4399 0a16 26       		.uleb128 0x26
 4400 0a17 0C000000 		.4byte	.LVL7
 4401 0a1b 6A1A0000 		.4byte	0x1a6a
 4402 0a1f 00       		.byte	0
 4403 0a20 2B       		.uleb128 0x2b
 4404 0a21 51080000 		.4byte	.LASF140
 4405 0a25 02       		.byte	0x2
 4406 0a26 5A01     		.2byte	0x15a
 4407 0a28 00000000 		.4byte	.LFB131
 4408 0a2c 4C000000 		.4byte	.LFE131-.LFB131
 4409 0a30 01       		.uleb128 0x1
 4410 0a31 9C       		.byte	0x9c
 4411 0a32 590A0000 		.4byte	0xa59
 4412 0a36 2C       		.uleb128 0x2c
 4413 0a37 72706D00 		.ascii	"rpm\000"
 4414 0a3b 02       		.byte	0x2
 4415 0a3c 5A01     		.2byte	0x15a
 4416 0a3e 25000000 		.4byte	0x25
 4417 0a42 21000000 		.4byte	.LLST1
 4418 0a46 26       		.uleb128 0x26
 4419 0a47 28000000 		.4byte	.LVL13
 4420 0a4b 551A0000 		.4byte	0x1a55
 4421 0a4f 26       		.uleb128 0x26
 4422 0a50 3C000000 		.4byte	.LVL14
 4423 0a54 551A0000 		.4byte	0x1a55
 4424 0a58 00       		.byte	0
 4425 0a59 2B       		.uleb128 0x2b
 4426 0a5a 02080000 		.4byte	.LASF141
 4427 0a5e 02       		.byte	0x2
 4428 0a5f 5E01     		.2byte	0x15e
 4429 0a61 00000000 		.4byte	.LFB132
ARM GAS  C:\Users\srich\AppData\Local\Temp\cc32e3J8.s 			page 81


 4430 0a65 2C000000 		.4byte	.LFE132-.LFB132
 4431 0a69 01       		.uleb128 0x1
 4432 0a6a 9C       		.byte	0x9c
 4433 0a6b 800A0000 		.4byte	0xa80
 4434 0a6f 2C       		.uleb128 0x2c
 4435 0a70 72706D00 		.ascii	"rpm\000"
 4436 0a74 02       		.byte	0x2
 4437 0a75 5E01     		.2byte	0x15e
 4438 0a77 25000000 		.4byte	0x25
 4439 0a7b 49000000 		.4byte	.LLST2
 4440 0a7f 00       		.byte	0
 4441 0a80 28       		.uleb128 0x28
 4442 0a81 1F050000 		.4byte	.LASF142
 4443 0a85 02       		.byte	0x2
 4444 0a86 6301     		.2byte	0x163
 4445 0a88 01010000 		.4byte	0x101
 4446 0a8c 00000000 		.4byte	.LFB133
 4447 0a90 0C000000 		.4byte	.LFE133-.LFB133
 4448 0a94 01       		.uleb128 0x1
 4449 0a95 9C       		.byte	0x9c
 4450 0a96 2D       		.uleb128 0x2d
 4451 0a97 45070000 		.4byte	.LASF143
 4452 0a9b 02       		.byte	0x2
 4453 0a9c 6701     		.2byte	0x167
 4454 0a9e F6000000 		.4byte	0xf6
 4455 0aa2 00000000 		.4byte	.LFB134
 4456 0aa6 0C000000 		.4byte	.LFE134-.LFB134
 4457 0aaa 01       		.uleb128 0x1
 4458 0aab 9C       		.byte	0x9c
 4459 0aac 2E       		.uleb128 0x2e
 4460 0aad 8F030000 		.4byte	.LASF145
 4461 0ab1 02       		.byte	0x2
 4462 0ab2 6D01     		.2byte	0x16d
 4463 0ab4 E0000000 		.4byte	0xe0
 4464 0ab8 00000000 		.4byte	.LFB135
 4465 0abc 18000000 		.4byte	.LFE135-.LFB135
 4466 0ac0 01       		.uleb128 0x1
 4467 0ac1 9C       		.byte	0x9c
 4468 0ac2 D00A0000 		.4byte	0xad0
 4469 0ac6 26       		.uleb128 0x26
 4470 0ac7 10000000 		.4byte	.LVL21
 4471 0acb 751A0000 		.4byte	0x1a75
 4472 0acf 00       		.byte	0
 4473 0ad0 2D       		.uleb128 0x2d
 4474 0ad1 50020000 		.4byte	.LASF144
 4475 0ad5 02       		.byte	0x2
 4476 0ad6 7101     		.2byte	0x171
 4477 0ad8 22010000 		.4byte	0x122
 4478 0adc 00000000 		.4byte	.LFB136
 4479 0ae0 0C000000 		.4byte	.LFE136-.LFB136
 4480 0ae4 01       		.uleb128 0x1
 4481 0ae5 9C       		.byte	0x9c
 4482 0ae6 2E       		.uleb128 0x2e
 4483 0ae7 56010000 		.4byte	.LASF146
 4484 0aeb 02       		.byte	0x2
 4485 0aec 7501     		.2byte	0x175
 4486 0aee 01010000 		.4byte	0x101
ARM GAS  C:\Users\srich\AppData\Local\Temp\cc32e3J8.s 			page 82


 4487 0af2 00000000 		.4byte	.LFB137
 4488 0af6 C0010000 		.4byte	.LFE137-.LFB137
 4489 0afa 01       		.uleb128 0x1
 4490 0afb 9C       		.byte	0x9c
 4491 0afc A10B0000 		.4byte	0xba1
 4492 0b00 2F       		.uleb128 0x2f
 4493 0b01 0A030000 		.4byte	.LASF147
 4494 0b05 02       		.byte	0x2
 4495 0b06 7501     		.2byte	0x175
 4496 0b08 EB000000 		.4byte	0xeb
 4497 0b0c 71000000 		.4byte	.LLST3
 4498 0b10 2C       		.uleb128 0x2c
 4499 0b11 53657400 		.ascii	"Set\000"
 4500 0b15 02       		.byte	0x2
 4501 0b16 7501     		.2byte	0x175
 4502 0b18 EB000000 		.4byte	0xeb
 4503 0b1c 92000000 		.4byte	.LLST4
 4504 0b20 2F       		.uleb128 0x2f
 4505 0b21 82080000 		.4byte	.LASF148
 4506 0b25 02       		.byte	0x2
 4507 0b26 7501     		.2byte	0x175
 4508 0b28 01010000 		.4byte	0x101
 4509 0b2c B3000000 		.4byte	.LLST5
 4510 0b30 2F       		.uleb128 0x2f
 4511 0b31 39020000 		.4byte	.LASF149
 4512 0b35 02       		.byte	0x2
 4513 0b36 7501     		.2byte	0x175
 4514 0b38 01010000 		.4byte	0x101
 4515 0b3c D2000000 		.4byte	.LLST6
 4516 0b40 2C       		.uleb128 0x2c
 4517 0b41 6B5F7000 		.ascii	"k_p\000"
 4518 0b45 02       		.byte	0x2
 4519 0b46 7501     		.2byte	0x175
 4520 0b48 EB000000 		.4byte	0xeb
 4521 0b4c F0000000 		.4byte	.LLST7
 4522 0b50 2C       		.uleb128 0x2c
 4523 0b51 6B5F6900 		.ascii	"k_i\000"
 4524 0b55 02       		.byte	0x2
 4525 0b56 7501     		.2byte	0x175
 4526 0b58 EB000000 		.4byte	0xeb
 4527 0b5c 10010000 		.4byte	.LLST8
 4528 0b60 2C       		.uleb128 0x2c
 4529 0b61 6B5F6400 		.ascii	"k_d\000"
 4530 0b65 02       		.byte	0x2
 4531 0b66 7501     		.2byte	0x175
 4532 0b68 EB000000 		.4byte	0xeb
 4533 0b6c 30010000 		.4byte	.LLST9
 4534 0b70 2F       		.uleb128 0x2f
 4535 0b71 27060000 		.4byte	.LASF150
 4536 0b75 02       		.byte	0x2
 4537 0b76 7501     		.2byte	0x175
 4538 0b78 01010000 		.4byte	0x101
 4539 0b7c 50010000 		.4byte	.LLST10
 4540 0b80 2F       		.uleb128 0x2f
 4541 0b81 39080000 		.4byte	.LASF151
 4542 0b85 02       		.byte	0x2
 4543 0b86 7501     		.2byte	0x175
ARM GAS  C:\Users\srich\AppData\Local\Temp\cc32e3J8.s 			page 83


 4544 0b88 01010000 		.4byte	0x101
 4545 0b8c 70010000 		.4byte	.LLST11
 4546 0b90 2F       		.uleb128 0x2f
 4547 0b91 AF040000 		.4byte	.LASF152
 4548 0b95 02       		.byte	0x2
 4549 0b96 7501     		.2byte	0x175
 4550 0b98 01010000 		.4byte	0x101
 4551 0b9c 90010000 		.4byte	.LLST12
 4552 0ba0 00       		.byte	0
 4553 0ba1 30       		.uleb128 0x30
 4554 0ba2 64090000 		.4byte	.LASF153
 4555 0ba6 02       		.byte	0x2
 4556 0ba7 8F       		.byte	0x8f
 4557 0ba8 00000000 		.4byte	.LFB120
 4558 0bac 6C040000 		.4byte	.LFE120-.LFB120
 4559 0bb0 01       		.uleb128 0x1
 4560 0bb1 9C       		.byte	0x9c
 4561 0bb2 6A0D0000 		.4byte	0xd6a
 4562 0bb6 31       		.uleb128 0x31
 4563 0bb7 73010000 		.4byte	.LASF154
 4564 0bbb 02       		.byte	0x2
 4565 0bbc E4       		.byte	0xe4
 4566 0bbd 2C000000 		.4byte	0x2c
 4567 0bc1 C70B0000 		.4byte	0xbc7
 4568 0bc5 1F       		.uleb128 0x1f
 4569 0bc6 00       		.byte	0
 4570 0bc7 32       		.uleb128 0x32
 4571 0bc8 00000000 		.4byte	.Ldebug_ranges0+0
 4572 0bcc 550C0000 		.4byte	0xc55
 4573 0bd0 31       		.uleb128 0x31
 4574 0bd1 73010000 		.4byte	.LASF154
 4575 0bd5 02       		.byte	0x2
 4576 0bd6 E4       		.byte	0xe4
 4577 0bd7 2C000000 		.4byte	0x2c
 4578 0bdb E10B0000 		.4byte	0xbe1
 4579 0bdf 1F       		.uleb128 0x1f
 4580 0be0 00       		.byte	0
 4581 0be1 24       		.uleb128 0x24
 4582 0be2 6A000000 		.4byte	.LVL50
 4583 0be6 8A1A0000 		.4byte	0x1a8a
 4584 0bea F40B0000 		.4byte	0xbf4
 4585 0bee 22       		.uleb128 0x22
 4586 0bef 01       		.uleb128 0x1
 4587 0bf0 50       		.byte	0x50
 4588 0bf1 01       		.uleb128 0x1
 4589 0bf2 31       		.byte	0x31
 4590 0bf3 00       		.byte	0
 4591 0bf4 24       		.uleb128 0x24
 4592 0bf5 84000000 		.4byte	.LVL51
 4593 0bf9 8A1A0000 		.4byte	0x1a8a
 4594 0bfd 070C0000 		.4byte	0xc07
 4595 0c01 22       		.uleb128 0x22
 4596 0c02 01       		.uleb128 0x1
 4597 0c03 50       		.byte	0x50
 4598 0c04 01       		.uleb128 0x1
 4599 0c05 31       		.byte	0x31
 4600 0c06 00       		.byte	0
ARM GAS  C:\Users\srich\AppData\Local\Temp\cc32e3J8.s 			page 84


 4601 0c07 26       		.uleb128 0x26
 4602 0c08 C0000000 		.4byte	.LVL53
 4603 0c0c 9B1A0000 		.4byte	0x1a9b
 4604 0c10 24       		.uleb128 0x24
 4605 0c11 FC000000 		.4byte	.LVL54
 4606 0c15 A61A0000 		.4byte	0x1aa6
 4607 0c19 290C0000 		.4byte	0xc29
 4608 0c1d 22       		.uleb128 0x22
 4609 0c1e 01       		.uleb128 0x1
 4610 0c1f 51       		.byte	0x51
 4611 0c20 01       		.uleb128 0x1
 4612 0c21 32       		.byte	0x32
 4613 0c22 22       		.uleb128 0x22
 4614 0c23 01       		.uleb128 0x1
 4615 0c24 50       		.byte	0x50
 4616 0c25 02       		.uleb128 0x2
 4617 0c26 76       		.byte	0x76
 4618 0c27 00       		.sleb128 0
 4619 0c28 00       		.byte	0
 4620 0c29 24       		.uleb128 0x24
 4621 0c2a 3C030000 		.4byte	.LVL66
 4622 0c2e C11A0000 		.4byte	0x1ac1
 4623 0c32 3C0C0000 		.4byte	0xc3c
 4624 0c36 22       		.uleb128 0x22
 4625 0c37 01       		.uleb128 0x1
 4626 0c38 50       		.byte	0x50
 4627 0c39 01       		.uleb128 0x1
 4628 0c3a 34       		.byte	0x34
 4629 0c3b 00       		.byte	0
 4630 0c3c 26       		.uleb128 0x26
 4631 0c3d 46030000 		.4byte	.LVL67
 4632 0c41 9B1A0000 		.4byte	0x1a9b
 4633 0c45 21       		.uleb128 0x21
 4634 0c46 8E030000 		.4byte	.LVL68
 4635 0c4a C11A0000 		.4byte	0x1ac1
 4636 0c4e 22       		.uleb128 0x22
 4637 0c4f 01       		.uleb128 0x1
 4638 0c50 50       		.byte	0x50
 4639 0c51 01       		.uleb128 0x1
 4640 0c52 34       		.byte	0x34
 4641 0c53 00       		.byte	0
 4642 0c54 00       		.byte	0
 4643 0c55 33       		.uleb128 0x33
 4644 0c56 FC000000 		.4byte	.LBB15
 4645 0c5a 06000000 		.4byte	.LBE15-.LBB15
 4646 0c5e 710C0000 		.4byte	0xc71
 4647 0c62 34       		.uleb128 0x34
 4648 0c63 746D7000 		.ascii	"tmp\000"
 4649 0c67 02       		.byte	0x2
 4650 0c68 2001     		.2byte	0x120
 4651 0c6a 0C010000 		.4byte	0x10c
 4652 0c6e 01       		.uleb128 0x1
 4653 0c6f 53       		.byte	0x53
 4654 0c70 00       		.byte	0
 4655 0c71 32       		.uleb128 0x32
 4656 0c72 20000000 		.4byte	.Ldebug_ranges0+0x20
 4657 0c76 890C0000 		.4byte	0xc89
ARM GAS  C:\Users\srich\AppData\Local\Temp\cc32e3J8.s 			page 85


 4658 0c7a 34       		.uleb128 0x34
 4659 0c7b 746D7000 		.ascii	"tmp\000"
 4660 0c7f 02       		.byte	0x2
 4661 0c80 2501     		.2byte	0x125
 4662 0c82 0C010000 		.4byte	0x10c
 4663 0c86 01       		.uleb128 0x1
 4664 0c87 53       		.byte	0x53
 4665 0c88 00       		.byte	0
 4666 0c89 32       		.uleb128 0x32
 4667 0c8a 38000000 		.4byte	.Ldebug_ranges0+0x38
 4668 0c8e 2B0D0000 		.4byte	0xd2b
 4669 0c92 31       		.uleb128 0x31
 4670 0c93 73010000 		.4byte	.LASF154
 4671 0c97 02       		.byte	0x2
 4672 0c98 E4       		.byte	0xe4
 4673 0c99 2C000000 		.4byte	0x2c
 4674 0c9d A30C0000 		.4byte	0xca3
 4675 0ca1 1F       		.uleb128 0x1f
 4676 0ca2 00       		.byte	0
 4677 0ca3 26       		.uleb128 0x26
 4678 0ca4 82010000 		.4byte	.LVL58
 4679 0ca8 6A1A0000 		.4byte	0x1a6a
 4680 0cac 26       		.uleb128 0x26
 4681 0cad 88010000 		.4byte	.LVL59
 4682 0cb1 6A1A0000 		.4byte	0x1a6a
 4683 0cb5 26       		.uleb128 0x26
 4684 0cb6 BC010000 		.4byte	.LVL60
 4685 0cba E60A0000 		.4byte	0xae6
 4686 0cbe 26       		.uleb128 0x26
 4687 0cbf F4010000 		.4byte	.LVL61
 4688 0cc3 9B1A0000 		.4byte	0x1a9b
 4689 0cc7 24       		.uleb128 0x24
 4690 0cc8 3E020000 		.4byte	.LVL62
 4691 0ccc A61A0000 		.4byte	0x1aa6
 4692 0cd0 E00C0000 		.4byte	0xce0
 4693 0cd4 22       		.uleb128 0x22
 4694 0cd5 01       		.uleb128 0x1
 4695 0cd6 51       		.byte	0x51
 4696 0cd7 01       		.uleb128 0x1
 4697 0cd8 32       		.byte	0x32
 4698 0cd9 22       		.uleb128 0x22
 4699 0cda 01       		.uleb128 0x1
 4700 0cdb 50       		.byte	0x50
 4701 0cdc 02       		.uleb128 0x2
 4702 0cdd 76       		.byte	0x76
 4703 0cde 00       		.sleb128 0
 4704 0cdf 00       		.byte	0
 4705 0ce0 24       		.uleb128 0x24
 4706 0ce1 44020000 		.4byte	.LVL63
 4707 0ce5 8A1A0000 		.4byte	0x1a8a
 4708 0ce9 F30C0000 		.4byte	0xcf3
 4709 0ced 22       		.uleb128 0x22
 4710 0cee 01       		.uleb128 0x1
 4711 0cef 50       		.byte	0x50
 4712 0cf0 01       		.uleb128 0x1
 4713 0cf1 31       		.byte	0x31
 4714 0cf2 00       		.byte	0
ARM GAS  C:\Users\srich\AppData\Local\Temp\cc32e3J8.s 			page 86


 4715 0cf3 24       		.uleb128 0x24
 4716 0cf4 68020000 		.4byte	.LVL64
 4717 0cf8 8A1A0000 		.4byte	0x1a8a
 4718 0cfc 060D0000 		.4byte	0xd06
 4719 0d00 22       		.uleb128 0x22
 4720 0d01 01       		.uleb128 0x1
 4721 0d02 50       		.byte	0x50
 4722 0d03 01       		.uleb128 0x1
 4723 0d04 32       		.byte	0x32
 4724 0d05 00       		.byte	0
 4725 0d06 26       		.uleb128 0x26
 4726 0d07 A6030000 		.4byte	.LVL69
 4727 0d0b 6A1A0000 		.4byte	0x1a6a
 4728 0d0f 26       		.uleb128 0x26
 4729 0d10 CE030000 		.4byte	.LVL70
 4730 0d14 6A1A0000 		.4byte	0x1a6a
 4731 0d18 26       		.uleb128 0x26
 4732 0d19 D4030000 		.4byte	.LVL71
 4733 0d1d 6A1A0000 		.4byte	0x1a6a
 4734 0d21 26       		.uleb128 0x26
 4735 0d22 0A040000 		.4byte	.LVL72
 4736 0d26 9B1A0000 		.4byte	0x1a9b
 4737 0d2a 00       		.byte	0
 4738 0d2b 24       		.uleb128 0x24
 4739 0d2c 0E010000 		.4byte	.LVL55
 4740 0d30 8A1A0000 		.4byte	0x1a8a
 4741 0d34 3E0D0000 		.4byte	0xd3e
 4742 0d38 22       		.uleb128 0x22
 4743 0d39 01       		.uleb128 0x1
 4744 0d3a 50       		.byte	0x50
 4745 0d3b 01       		.uleb128 0x1
 4746 0d3c 32       		.byte	0x32
 4747 0d3d 00       		.byte	0
 4748 0d3e 25       		.uleb128 0x25
 4749 0d3f 50010000 		.4byte	.LVL56
 4750 0d43 A61A0000 		.4byte	0x1aa6
 4751 0d47 510D0000 		.4byte	0xd51
 4752 0d4b 22       		.uleb128 0x22
 4753 0d4c 01       		.uleb128 0x1
 4754 0d4d 51       		.byte	0x51
 4755 0d4e 01       		.uleb128 0x1
 4756 0d4f 31       		.byte	0x31
 4757 0d50 00       		.byte	0
 4758 0d51 26       		.uleb128 0x26
 4759 0d52 54010000 		.4byte	.LVL57
 4760 0d56 9B1A0000 		.4byte	0x1a9b
 4761 0d5a 21       		.uleb128 0x21
 4762 0d5b 9C020000 		.4byte	.LVL65
 4763 0d5f D61A0000 		.4byte	0x1ad6
 4764 0d63 22       		.uleb128 0x22
 4765 0d64 01       		.uleb128 0x1
 4766 0d65 50       		.byte	0x50
 4767 0d66 01       		.uleb128 0x1
 4768 0d67 30       		.byte	0x30
 4769 0d68 00       		.byte	0
 4770 0d69 00       		.byte	0
 4771 0d6a 2B       		.uleb128 0x2b
ARM GAS  C:\Users\srich\AppData\Local\Temp\cc32e3J8.s 			page 87


 4772 0d6b 9F070000 		.4byte	.LASF155
 4773 0d6f 02       		.byte	0x2
 4774 0d70 A601     		.2byte	0x1a6
 4775 0d72 00000000 		.4byte	.LFB138
 4776 0d76 B0010000 		.4byte	.LFE138-.LFB138
 4777 0d7a 01       		.uleb128 0x1
 4778 0d7b 9C       		.byte	0x9c
 4779 0d7c 13100000 		.4byte	0x1013
 4780 0d80 2C       		.uleb128 0x2c
 4781 0d81 63687000 		.ascii	"chp\000"
 4782 0d85 02       		.byte	0x2
 4783 0d86 A601     		.2byte	0x1a6
 4784 0d88 E7080000 		.4byte	0x8e7
 4785 0d8c B0010000 		.4byte	.LLST13
 4786 0d90 2F       		.uleb128 0x2f
 4787 0d91 020A0000 		.4byte	.LASF156
 4788 0d95 02       		.byte	0x2
 4789 0d96 A601     		.2byte	0x1a6
 4790 0d98 2C000000 		.4byte	0x2c
 4791 0d9c DC010000 		.4byte	.LLST14
 4792 0da0 2F       		.uleb128 0x2f
 4793 0da1 6A0A0000 		.4byte	.LASF157
 4794 0da5 02       		.byte	0x2
 4795 0da6 A601     		.2byte	0x1a6
 4796 0da8 13100000 		.4byte	0x1013
 4797 0dac FD010000 		.4byte	.LLST15
 4798 0db0 24       		.uleb128 0x24
 4799 0db1 12000000 		.4byte	.LVL75
 4800 0db5 88080000 		.4byte	0x888
 4801 0db9 CD0D0000 		.4byte	0xdcd
 4802 0dbd 22       		.uleb128 0x22
 4803 0dbe 01       		.uleb128 0x1
 4804 0dbf 51       		.byte	0x51
 4805 0dc0 05       		.uleb128 0x5
 4806 0dc1 03       		.byte	0x3
 4807 0dc2 00000000 		.4byte	.LC0
 4808 0dc6 22       		.uleb128 0x22
 4809 0dc7 01       		.uleb128 0x1
 4810 0dc8 50       		.byte	0x50
 4811 0dc9 02       		.uleb128 0x2
 4812 0dca 74       		.byte	0x74
 4813 0dcb 00       		.sleb128 0
 4814 0dcc 00       		.byte	0
 4815 0dcd 24       		.uleb128 0x24
 4816 0dce 1A000000 		.4byte	.LVL76
 4817 0dd2 88080000 		.4byte	0x888
 4818 0dd6 EA0D0000 		.4byte	0xdea
 4819 0dda 22       		.uleb128 0x22
 4820 0ddb 01       		.uleb128 0x1
 4821 0ddc 51       		.byte	0x51
 4822 0ddd 05       		.uleb128 0x5
 4823 0dde 03       		.byte	0x3
 4824 0ddf 04000000 		.4byte	.LC1
 4825 0de3 22       		.uleb128 0x22
 4826 0de4 01       		.uleb128 0x1
 4827 0de5 50       		.byte	0x50
 4828 0de6 02       		.uleb128 0x2
ARM GAS  C:\Users\srich\AppData\Local\Temp\cc32e3J8.s 			page 88


 4829 0de7 74       		.byte	0x74
 4830 0de8 00       		.sleb128 0
 4831 0de9 00       		.byte	0
 4832 0dea 24       		.uleb128 0x24
 4833 0deb 2C000000 		.4byte	.LVL77
 4834 0def 88080000 		.4byte	0x888
 4835 0df3 110E0000 		.4byte	0xe11
 4836 0df7 22       		.uleb128 0x22
 4837 0df8 01       		.uleb128 0x1
 4838 0df9 53       		.byte	0x53
 4839 0dfa 01       		.uleb128 0x1
 4840 0dfb 30       		.byte	0x30
 4841 0dfc 22       		.uleb128 0x22
 4842 0dfd 01       		.uleb128 0x1
 4843 0dfe 52       		.byte	0x52
 4844 0dff 01       		.uleb128 0x1
 4845 0e00 30       		.byte	0x30
 4846 0e01 22       		.uleb128 0x22
 4847 0e02 01       		.uleb128 0x1
 4848 0e03 51       		.byte	0x51
 4849 0e04 05       		.uleb128 0x5
 4850 0e05 03       		.byte	0x3
 4851 0e06 0C000000 		.4byte	.LC2
 4852 0e0a 22       		.uleb128 0x22
 4853 0e0b 01       		.uleb128 0x1
 4854 0e0c 50       		.byte	0x50
 4855 0e0d 02       		.uleb128 0x2
 4856 0e0e 74       		.byte	0x74
 4857 0e0f 00       		.sleb128 0
 4858 0e10 00       		.byte	0
 4859 0e11 24       		.uleb128 0x24
 4860 0e12 44000000 		.4byte	.LVL79
 4861 0e16 88080000 		.4byte	0x888
 4862 0e1a 340E0000 		.4byte	0xe34
 4863 0e1e 22       		.uleb128 0x22
 4864 0e1f 01       		.uleb128 0x1
 4865 0e20 52       		.byte	0x52
 4866 0e21 02       		.uleb128 0x2
 4867 0e22 79       		.byte	0x79
 4868 0e23 00       		.sleb128 0
 4869 0e24 22       		.uleb128 0x22
 4870 0e25 01       		.uleb128 0x1
 4871 0e26 51       		.byte	0x51
 4872 0e27 05       		.uleb128 0x5
 4873 0e28 03       		.byte	0x3
 4874 0e29 18000000 		.4byte	.LC3
 4875 0e2d 22       		.uleb128 0x22
 4876 0e2e 01       		.uleb128 0x1
 4877 0e2f 50       		.byte	0x50
 4878 0e30 02       		.uleb128 0x2
 4879 0e31 74       		.byte	0x74
 4880 0e32 00       		.sleb128 0
 4881 0e33 00       		.byte	0
 4882 0e34 24       		.uleb128 0x24
 4883 0e35 60000000 		.4byte	.LVL81
 4884 0e39 88080000 		.4byte	0x888
 4885 0e3d 570E0000 		.4byte	0xe57
ARM GAS  C:\Users\srich\AppData\Local\Temp\cc32e3J8.s 			page 89


 4886 0e41 22       		.uleb128 0x22
 4887 0e42 01       		.uleb128 0x1
 4888 0e43 52       		.byte	0x52
 4889 0e44 02       		.uleb128 0x2
 4890 0e45 79       		.byte	0x79
 4891 0e46 00       		.sleb128 0
 4892 0e47 22       		.uleb128 0x22
 4893 0e48 01       		.uleb128 0x1
 4894 0e49 51       		.byte	0x51
 4895 0e4a 05       		.uleb128 0x5
 4896 0e4b 03       		.byte	0x3
 4897 0e4c 30000000 		.4byte	.LC4
 4898 0e50 22       		.uleb128 0x22
 4899 0e51 01       		.uleb128 0x1
 4900 0e52 50       		.byte	0x50
 4901 0e53 02       		.uleb128 0x2
 4902 0e54 74       		.byte	0x74
 4903 0e55 00       		.sleb128 0
 4904 0e56 00       		.byte	0
 4905 0e57 24       		.uleb128 0x24
 4906 0e58 7A000000 		.4byte	.LVL83
 4907 0e5c 88080000 		.4byte	0x888
 4908 0e60 7A0E0000 		.4byte	0xe7a
 4909 0e64 22       		.uleb128 0x22
 4910 0e65 01       		.uleb128 0x1
 4911 0e66 52       		.byte	0x52
 4912 0e67 02       		.uleb128 0x2
 4913 0e68 79       		.byte	0x79
 4914 0e69 00       		.sleb128 0
 4915 0e6a 22       		.uleb128 0x22
 4916 0e6b 01       		.uleb128 0x1
 4917 0e6c 51       		.byte	0x51
 4918 0e6d 05       		.uleb128 0x5
 4919 0e6e 03       		.byte	0x3
 4920 0e6f 48000000 		.4byte	.LC5
 4921 0e73 22       		.uleb128 0x22
 4922 0e74 01       		.uleb128 0x1
 4923 0e75 50       		.byte	0x50
 4924 0e76 02       		.uleb128 0x2
 4925 0e77 74       		.byte	0x74
 4926 0e78 00       		.sleb128 0
 4927 0e79 00       		.byte	0
 4928 0e7a 24       		.uleb128 0x24
 4929 0e7b 8A000000 		.4byte	.LVL84
 4930 0e7f 88080000 		.4byte	0x888
 4931 0e83 970E0000 		.4byte	0xe97
 4932 0e87 22       		.uleb128 0x22
 4933 0e88 01       		.uleb128 0x1
 4934 0e89 51       		.byte	0x51
 4935 0e8a 05       		.uleb128 0x5
 4936 0e8b 03       		.byte	0x3
 4937 0e8c 60000000 		.4byte	.LC6
 4938 0e90 22       		.uleb128 0x22
 4939 0e91 01       		.uleb128 0x1
 4940 0e92 50       		.byte	0x50
 4941 0e93 02       		.uleb128 0x2
 4942 0e94 74       		.byte	0x74
ARM GAS  C:\Users\srich\AppData\Local\Temp\cc32e3J8.s 			page 90


 4943 0e95 00       		.sleb128 0
 4944 0e96 00       		.byte	0
 4945 0e97 24       		.uleb128 0x24
 4946 0e98 96000000 		.4byte	.LVL85
 4947 0e9c 88080000 		.4byte	0x888
 4948 0ea0 B40E0000 		.4byte	0xeb4
 4949 0ea4 22       		.uleb128 0x22
 4950 0ea5 01       		.uleb128 0x1
 4951 0ea6 51       		.byte	0x51
 4952 0ea7 05       		.uleb128 0x5
 4953 0ea8 03       		.byte	0x3
 4954 0ea9 78000000 		.4byte	.LC7
 4955 0ead 22       		.uleb128 0x22
 4956 0eae 01       		.uleb128 0x1
 4957 0eaf 50       		.byte	0x50
 4958 0eb0 02       		.uleb128 0x2
 4959 0eb1 74       		.byte	0x74
 4960 0eb2 00       		.sleb128 0
 4961 0eb3 00       		.byte	0
 4962 0eb4 24       		.uleb128 0x24
 4963 0eb5 A2000000 		.4byte	.LVL86
 4964 0eb9 88080000 		.4byte	0x888
 4965 0ebd D10E0000 		.4byte	0xed1
 4966 0ec1 22       		.uleb128 0x22
 4967 0ec2 01       		.uleb128 0x1
 4968 0ec3 51       		.byte	0x51
 4969 0ec4 05       		.uleb128 0x5
 4970 0ec5 03       		.byte	0x3
 4971 0ec6 84000000 		.4byte	.LC8
 4972 0eca 22       		.uleb128 0x22
 4973 0ecb 01       		.uleb128 0x1
 4974 0ecc 50       		.byte	0x50
 4975 0ecd 02       		.uleb128 0x2
 4976 0ece 74       		.byte	0x74
 4977 0ecf 00       		.sleb128 0
 4978 0ed0 00       		.byte	0
 4979 0ed1 24       		.uleb128 0x24
 4980 0ed2 AE000000 		.4byte	.LVL87
 4981 0ed6 88080000 		.4byte	0x888
 4982 0eda EE0E0000 		.4byte	0xeee
 4983 0ede 22       		.uleb128 0x22
 4984 0edf 01       		.uleb128 0x1
 4985 0ee0 51       		.byte	0x51
 4986 0ee1 05       		.uleb128 0x5
 4987 0ee2 03       		.byte	0x3
 4988 0ee3 A4000000 		.4byte	.LC9
 4989 0ee7 22       		.uleb128 0x22
 4990 0ee8 01       		.uleb128 0x1
 4991 0ee9 50       		.byte	0x50
 4992 0eea 02       		.uleb128 0x2
 4993 0eeb 74       		.byte	0x74
 4994 0eec 00       		.sleb128 0
 4995 0eed 00       		.byte	0
 4996 0eee 26       		.uleb128 0x26
 4997 0eef B2000000 		.4byte	.LVL88
 4998 0ef3 6A1A0000 		.4byte	0x1a6a
 4999 0ef7 24       		.uleb128 0x24
ARM GAS  C:\Users\srich\AppData\Local\Temp\cc32e3J8.s 			page 91


 5000 0ef8 BC000000 		.4byte	.LVL89
 5001 0efc 88080000 		.4byte	0x888
 5002 0f00 140F0000 		.4byte	0xf14
 5003 0f04 22       		.uleb128 0x22
 5004 0f05 01       		.uleb128 0x1
 5005 0f06 51       		.byte	0x51
 5006 0f07 05       		.uleb128 0x5
 5007 0f08 03       		.byte	0x3
 5008 0f09 B4000000 		.4byte	.LC10
 5009 0f0d 22       		.uleb128 0x22
 5010 0f0e 01       		.uleb128 0x1
 5011 0f0f 50       		.byte	0x50
 5012 0f10 02       		.uleb128 0x2
 5013 0f11 74       		.byte	0x74
 5014 0f12 00       		.sleb128 0
 5015 0f13 00       		.byte	0
 5016 0f14 26       		.uleb128 0x26
 5017 0f15 C4000000 		.4byte	.LVL90
 5018 0f19 6A1A0000 		.4byte	0x1a6a
 5019 0f1d 24       		.uleb128 0x24
 5020 0f1e CE000000 		.4byte	.LVL91
 5021 0f22 88080000 		.4byte	0x888
 5022 0f26 3A0F0000 		.4byte	0xf3a
 5023 0f2a 22       		.uleb128 0x22
 5024 0f2b 01       		.uleb128 0x1
 5025 0f2c 51       		.byte	0x51
 5026 0f2d 05       		.uleb128 0x5
 5027 0f2e 03       		.byte	0x3
 5028 0f2f C8000000 		.4byte	.LC11
 5029 0f33 22       		.uleb128 0x22
 5030 0f34 01       		.uleb128 0x1
 5031 0f35 50       		.byte	0x50
 5032 0f36 02       		.uleb128 0x2
 5033 0f37 74       		.byte	0x74
 5034 0f38 00       		.sleb128 0
 5035 0f39 00       		.byte	0
 5036 0f3a 24       		.uleb128 0x24
 5037 0f3b D6000000 		.4byte	.LVL92
 5038 0f3f 88080000 		.4byte	0x888
 5039 0f43 570F0000 		.4byte	0xf57
 5040 0f47 22       		.uleb128 0x22
 5041 0f48 01       		.uleb128 0x1
 5042 0f49 51       		.byte	0x51
 5043 0f4a 05       		.uleb128 0x5
 5044 0f4b 03       		.byte	0x3
 5045 0f4c DC000000 		.4byte	.LC12
 5046 0f50 22       		.uleb128 0x22
 5047 0f51 01       		.uleb128 0x1
 5048 0f52 50       		.byte	0x50
 5049 0f53 02       		.uleb128 0x2
 5050 0f54 74       		.byte	0x74
 5051 0f55 00       		.sleb128 0
 5052 0f56 00       		.byte	0
 5053 0f57 24       		.uleb128 0x24
 5054 0f58 E2000000 		.4byte	.LVL93
 5055 0f5c 88080000 		.4byte	0x888
 5056 0f60 740F0000 		.4byte	0xf74
ARM GAS  C:\Users\srich\AppData\Local\Temp\cc32e3J8.s 			page 92


 5057 0f64 22       		.uleb128 0x22
 5058 0f65 01       		.uleb128 0x1
 5059 0f66 51       		.byte	0x51
 5060 0f67 05       		.uleb128 0x5
 5061 0f68 03       		.byte	0x3
 5062 0f69 E0000000 		.4byte	.LC13
 5063 0f6d 22       		.uleb128 0x22
 5064 0f6e 01       		.uleb128 0x1
 5065 0f6f 50       		.byte	0x50
 5066 0f70 02       		.uleb128 0x2
 5067 0f71 74       		.byte	0x74
 5068 0f72 00       		.sleb128 0
 5069 0f73 00       		.byte	0
 5070 0f74 24       		.uleb128 0x24
 5071 0f75 EC000000 		.4byte	.LVL94
 5072 0f79 88080000 		.4byte	0x888
 5073 0f7d 960F0000 		.4byte	0xf96
 5074 0f81 22       		.uleb128 0x22
 5075 0f82 01       		.uleb128 0x1
 5076 0f83 52       		.byte	0x52
 5077 0f84 01       		.uleb128 0x1
 5078 0f85 30       		.byte	0x30
 5079 0f86 22       		.uleb128 0x22
 5080 0f87 01       		.uleb128 0x1
 5081 0f88 51       		.byte	0x51
 5082 0f89 05       		.uleb128 0x5
 5083 0f8a 03       		.byte	0x3
 5084 0f8b 00010000 		.4byte	.LC14
 5085 0f8f 22       		.uleb128 0x22
 5086 0f90 01       		.uleb128 0x1
 5087 0f91 50       		.byte	0x50
 5088 0f92 02       		.uleb128 0x2
 5089 0f93 74       		.byte	0x74
 5090 0f94 00       		.sleb128 0
 5091 0f95 00       		.byte	0
 5092 0f96 24       		.uleb128 0x24
 5093 0f97 F8000000 		.4byte	.LVL95
 5094 0f9b 88080000 		.4byte	0x888
 5095 0f9f B30F0000 		.4byte	0xfb3
 5096 0fa3 22       		.uleb128 0x22
 5097 0fa4 01       		.uleb128 0x1
 5098 0fa5 51       		.byte	0x51
 5099 0fa6 05       		.uleb128 0x5
 5100 0fa7 03       		.byte	0x3
 5101 0fa8 14010000 		.4byte	.LC15
 5102 0fac 22       		.uleb128 0x22
 5103 0fad 01       		.uleb128 0x1
 5104 0fae 50       		.byte	0x50
 5105 0faf 02       		.uleb128 0x2
 5106 0fb0 74       		.byte	0x74
 5107 0fb1 00       		.sleb128 0
 5108 0fb2 00       		.byte	0
 5109 0fb3 24       		.uleb128 0x24
 5110 0fb4 04010000 		.4byte	.LVL96
 5111 0fb8 88080000 		.4byte	0x888
 5112 0fbc D00F0000 		.4byte	0xfd0
 5113 0fc0 22       		.uleb128 0x22
ARM GAS  C:\Users\srich\AppData\Local\Temp\cc32e3J8.s 			page 93


 5114 0fc1 01       		.uleb128 0x1
 5115 0fc2 51       		.byte	0x51
 5116 0fc3 05       		.uleb128 0x5
 5117 0fc4 03       		.byte	0x3
 5118 0fc5 28010000 		.4byte	.LC16
 5119 0fc9 22       		.uleb128 0x22
 5120 0fca 01       		.uleb128 0x1
 5121 0fcb 50       		.byte	0x50
 5122 0fcc 02       		.uleb128 0x2
 5123 0fcd 74       		.byte	0x74
 5124 0fce 00       		.sleb128 0
 5125 0fcf 00       		.byte	0
 5126 0fd0 24       		.uleb128 0x24
 5127 0fd1 16010000 		.4byte	.LVL97
 5128 0fd5 88080000 		.4byte	0x888
 5129 0fd9 ED0F0000 		.4byte	0xfed
 5130 0fdd 22       		.uleb128 0x22
 5131 0fde 01       		.uleb128 0x1
 5132 0fdf 51       		.byte	0x51
 5133 0fe0 05       		.uleb128 0x5
 5134 0fe1 03       		.byte	0x3
 5135 0fe2 3C010000 		.4byte	.LC17
 5136 0fe6 22       		.uleb128 0x22
 5137 0fe7 01       		.uleb128 0x1
 5138 0fe8 50       		.byte	0x50
 5139 0fe9 02       		.uleb128 0x2
 5140 0fea 74       		.byte	0x74
 5141 0feb 00       		.sleb128 0
 5142 0fec 00       		.byte	0
 5143 0fed 24       		.uleb128 0x24
 5144 0fee 1C010000 		.4byte	.LVL98
 5145 0ff2 F01A0000 		.4byte	0x1af0
 5146 0ff6 01100000 		.4byte	0x1001
 5147 0ffa 22       		.uleb128 0x22
 5148 0ffb 01       		.uleb128 0x1
 5149 0ffc 50       		.byte	0x50
 5150 0ffd 02       		.uleb128 0x2
 5151 0ffe 08       		.byte	0x8
 5152 0fff 64       		.byte	0x64
 5153 1000 00       		.byte	0
 5154 1001 35       		.uleb128 0x35
 5155 1002 26010000 		.4byte	.LVL99
 5156 1006 22       		.uleb128 0x22
 5157 1007 01       		.uleb128 0x1
 5158 1008 51       		.byte	0x51
 5159 1009 01       		.uleb128 0x1
 5160 100a 30       		.byte	0x30
 5161 100b 22       		.uleb128 0x22
 5162 100c 01       		.uleb128 0x1
 5163 100d 50       		.byte	0x50
 5164 100e 02       		.uleb128 0x2
 5165 100f 74       		.byte	0x74
 5166 1010 00       		.sleb128 0
 5167 1011 00       		.byte	0
 5168 1012 00       		.byte	0
 5169 1013 06       		.uleb128 0x6
 5170 1014 04       		.byte	0x4
ARM GAS  C:\Users\srich\AppData\Local\Temp\cc32e3J8.s 			page 94


 5171 1015 C8000000 		.4byte	0xc8
 5172 1019 36       		.uleb128 0x36
 5173 101a D3030000 		.4byte	.LASF158
 5174 101e 02       		.byte	0x2
 5175 101f C201     		.2byte	0x1c2
 5176 1021 00000000 		.4byte	.LFB139
 5177 1025 94010000 		.4byte	.LFE139-.LFB139
 5178 1029 01       		.uleb128 0x1
 5179 102a 9C       		.byte	0x9c
 5180 102b 80120000 		.4byte	0x1280
 5181 102f 2C       		.uleb128 0x2c
 5182 1030 63687000 		.ascii	"chp\000"
 5183 1034 02       		.byte	0x2
 5184 1035 C201     		.2byte	0x1c2
 5185 1037 E7080000 		.4byte	0x8e7
 5186 103b 1E020000 		.4byte	.LLST16
 5187 103f 2F       		.uleb128 0x2f
 5188 1040 020A0000 		.4byte	.LASF156
 5189 1044 02       		.byte	0x2
 5190 1045 C201     		.2byte	0x1c2
 5191 1047 2C000000 		.4byte	0x2c
 5192 104b 9A020000 		.4byte	.LLST17
 5193 104f 2F       		.uleb128 0x2f
 5194 1050 6A0A0000 		.4byte	.LASF157
 5195 1054 02       		.byte	0x2
 5196 1055 C201     		.2byte	0x1c2
 5197 1057 13100000 		.4byte	0x1013
 5198 105b 03030000 		.4byte	.LLST18
 5199 105f 37       		.uleb128 0x37
 5200 1060 78000000 		.4byte	.LASF159
 5201 1064 02       		.byte	0x2
 5202 1065 C601     		.2byte	0x1c6
 5203 1067 EB000000 		.4byte	0xeb
 5204 106b AC030000 		.4byte	.LLST19
 5205 106f 38       		.uleb128 0x38
 5206 1070 DB040000 		.4byte	.LASF161
 5207 1074 02       		.byte	0x2
 5208 1075 0902     		.2byte	0x209
 5209 1077 3A000000 		.4byte	.L188
 5210 107b 39       		.uleb128 0x39
 5211 107c 6D080000 		.4byte	0x86d
 5212 1080 00010000 		.4byte	.LBB22
 5213 1084 50000000 		.4byte	.Ldebug_ranges0+0x50
 5214 1088 02       		.byte	0x2
 5215 1089 FB01     		.2byte	0x1fb
 5216 108b 39       		.uleb128 0x39
 5217 108c 64080000 		.4byte	0x864
 5218 1090 2C010000 		.4byte	.LBB26
 5219 1094 68000000 		.4byte	.Ldebug_ranges0+0x68
 5220 1098 02       		.byte	0x2
 5221 1099 F601     		.2byte	0x1f6
 5222 109b 24       		.uleb128 0x24
 5223 109c 0E000000 		.4byte	.LVL103
 5224 10a0 88080000 		.4byte	0x888
 5225 10a4 B8100000 		.4byte	0x10b8
 5226 10a8 22       		.uleb128 0x22
 5227 10a9 01       		.uleb128 0x1
ARM GAS  C:\Users\srich\AppData\Local\Temp\cc32e3J8.s 			page 95


 5228 10aa 51       		.byte	0x51
 5229 10ab 05       		.uleb128 0x5
 5230 10ac 03       		.byte	0x3
 5231 10ad 00000000 		.4byte	.LC0
 5232 10b1 22       		.uleb128 0x22
 5233 10b2 01       		.uleb128 0x1
 5234 10b3 50       		.byte	0x50
 5235 10b4 02       		.uleb128 0x2
 5236 10b5 74       		.byte	0x74
 5237 10b6 00       		.sleb128 0
 5238 10b7 00       		.byte	0
 5239 10b8 24       		.uleb128 0x24
 5240 10b9 16000000 		.4byte	.LVL104
 5241 10bd 88080000 		.4byte	0x888
 5242 10c1 D5100000 		.4byte	0x10d5
 5243 10c5 22       		.uleb128 0x22
 5244 10c6 01       		.uleb128 0x1
 5245 10c7 51       		.byte	0x51
 5246 10c8 05       		.uleb128 0x5
 5247 10c9 03       		.byte	0x3
 5248 10ca 04000000 		.4byte	.LC1
 5249 10ce 22       		.uleb128 0x22
 5250 10cf 01       		.uleb128 0x1
 5251 10d0 50       		.byte	0x50
 5252 10d1 02       		.uleb128 0x2
 5253 10d2 74       		.byte	0x74
 5254 10d3 00       		.sleb128 0
 5255 10d4 00       		.byte	0
 5256 10d5 3A       		.uleb128 0x3a
 5257 10d6 20000000 		.4byte	.LVL105
 5258 10da EA100000 		.4byte	0x10ea
 5259 10de 22       		.uleb128 0x22
 5260 10df 01       		.uleb128 0x1
 5261 10e0 51       		.byte	0x51
 5262 10e1 01       		.uleb128 0x1
 5263 10e2 30       		.byte	0x30
 5264 10e3 22       		.uleb128 0x22
 5265 10e4 01       		.uleb128 0x1
 5266 10e5 50       		.byte	0x50
 5267 10e6 02       		.uleb128 0x2
 5268 10e7 74       		.byte	0x74
 5269 10e8 00       		.sleb128 0
 5270 10e9 00       		.byte	0
 5271 10ea 24       		.uleb128 0x24
 5272 10eb 32000000 		.4byte	.LVL107
 5273 10ef 88080000 		.4byte	0x888
 5274 10f3 11110000 		.4byte	0x1111
 5275 10f7 22       		.uleb128 0x22
 5276 10f8 01       		.uleb128 0x1
 5277 10f9 53       		.byte	0x53
 5278 10fa 01       		.uleb128 0x1
 5279 10fb 30       		.byte	0x30
 5280 10fc 22       		.uleb128 0x22
 5281 10fd 01       		.uleb128 0x1
 5282 10fe 52       		.byte	0x52
 5283 10ff 01       		.uleb128 0x1
 5284 1100 30       		.byte	0x30
ARM GAS  C:\Users\srich\AppData\Local\Temp\cc32e3J8.s 			page 96


 5285 1101 22       		.uleb128 0x22
 5286 1102 01       		.uleb128 0x1
 5287 1103 51       		.byte	0x51
 5288 1104 05       		.uleb128 0x5
 5289 1105 03       		.byte	0x3
 5290 1106 0C000000 		.4byte	.LC2
 5291 110a 22       		.uleb128 0x22
 5292 110b 01       		.uleb128 0x1
 5293 110c 50       		.byte	0x50
 5294 110d 02       		.uleb128 0x2
 5295 110e 74       		.byte	0x74
 5296 110f 00       		.sleb128 0
 5297 1110 00       		.byte	0
 5298 1111 25       		.uleb128 0x25
 5299 1112 46000000 		.4byte	.LVL110
 5300 1116 88080000 		.4byte	0x888
 5301 111a 2F110000 		.4byte	0x112f
 5302 111e 22       		.uleb128 0x22
 5303 111f 01       		.uleb128 0x1
 5304 1120 51       		.byte	0x51
 5305 1121 05       		.uleb128 0x5
 5306 1122 03       		.byte	0x3
 5307 1123 C8010000 		.4byte	.LC29
 5308 1127 22       		.uleb128 0x22
 5309 1128 01       		.uleb128 0x1
 5310 1129 50       		.byte	0x50
 5311 112a 03       		.uleb128 0x3
 5312 112b F3       		.byte	0xf3
 5313 112c 01       		.uleb128 0x1
 5314 112d 50       		.byte	0x50
 5315 112e 00       		.byte	0
 5316 112f 24       		.uleb128 0x24
 5317 1130 50000000 		.4byte	.LVL112
 5318 1134 021B0000 		.4byte	0x1b02
 5319 1138 4C110000 		.4byte	0x114c
 5320 113c 22       		.uleb128 0x22
 5321 113d 01       		.uleb128 0x1
 5322 113e 51       		.byte	0x51
 5323 113f 05       		.uleb128 0x5
 5324 1140 03       		.byte	0x3
 5325 1141 50010000 		.4byte	.LC18
 5326 1145 22       		.uleb128 0x22
 5327 1146 01       		.uleb128 0x1
 5328 1147 50       		.byte	0x50
 5329 1148 02       		.uleb128 0x2
 5330 1149 75       		.byte	0x75
 5331 114a 00       		.sleb128 0
 5332 114b 00       		.byte	0
 5333 114c 24       		.uleb128 0x24
 5334 114d 5C000000 		.4byte	.LVL113
 5335 1151 021B0000 		.4byte	0x1b02
 5336 1155 69110000 		.4byte	0x1169
 5337 1159 22       		.uleb128 0x22
 5338 115a 01       		.uleb128 0x1
 5339 115b 51       		.byte	0x51
 5340 115c 05       		.uleb128 0x5
 5341 115d 03       		.byte	0x3
ARM GAS  C:\Users\srich\AppData\Local\Temp\cc32e3J8.s 			page 97


 5342 115e 54010000 		.4byte	.LC19
 5343 1162 22       		.uleb128 0x22
 5344 1163 01       		.uleb128 0x1
 5345 1164 50       		.byte	0x50
 5346 1165 02       		.uleb128 0x2
 5347 1166 75       		.byte	0x75
 5348 1167 00       		.sleb128 0
 5349 1168 00       		.byte	0
 5350 1169 24       		.uleb128 0x24
 5351 116a 68000000 		.4byte	.LVL114
 5352 116e 021B0000 		.4byte	0x1b02
 5353 1172 86110000 		.4byte	0x1186
 5354 1176 22       		.uleb128 0x22
 5355 1177 01       		.uleb128 0x1
 5356 1178 51       		.byte	0x51
 5357 1179 05       		.uleb128 0x5
 5358 117a 03       		.byte	0x3
 5359 117b 58010000 		.4byte	.LC20
 5360 117f 22       		.uleb128 0x22
 5361 1180 01       		.uleb128 0x1
 5362 1181 50       		.byte	0x50
 5363 1182 02       		.uleb128 0x2
 5364 1183 75       		.byte	0x75
 5365 1184 00       		.sleb128 0
 5366 1185 00       		.byte	0
 5367 1186 24       		.uleb128 0x24
 5368 1187 74000000 		.4byte	.LVL115
 5369 118b 021B0000 		.4byte	0x1b02
 5370 118f A3110000 		.4byte	0x11a3
 5371 1193 22       		.uleb128 0x22
 5372 1194 01       		.uleb128 0x1
 5373 1195 51       		.byte	0x51
 5374 1196 05       		.uleb128 0x5
 5375 1197 03       		.byte	0x3
 5376 1198 5C010000 		.4byte	.LC21
 5377 119c 22       		.uleb128 0x22
 5378 119d 01       		.uleb128 0x1
 5379 119e 50       		.byte	0x50
 5380 119f 02       		.uleb128 0x2
 5381 11a0 75       		.byte	0x75
 5382 11a1 00       		.sleb128 0
 5383 11a2 00       		.byte	0
 5384 11a3 26       		.uleb128 0x26
 5385 11a4 84000000 		.4byte	.LVL117
 5386 11a8 1C1B0000 		.4byte	0x1b1c
 5387 11ac 24       		.uleb128 0x24
 5388 11ad 94000000 		.4byte	.LVL119
 5389 11b1 88080000 		.4byte	0x888
 5390 11b5 C9110000 		.4byte	0x11c9
 5391 11b9 22       		.uleb128 0x22
 5392 11ba 01       		.uleb128 0x1
 5393 11bb 51       		.byte	0x51
 5394 11bc 05       		.uleb128 0x5
 5395 11bd 03       		.byte	0x3
 5396 11be A4010000 		.4byte	.LC26
 5397 11c2 22       		.uleb128 0x22
 5398 11c3 01       		.uleb128 0x1
ARM GAS  C:\Users\srich\AppData\Local\Temp\cc32e3J8.s 			page 98


 5399 11c4 50       		.byte	0x50
 5400 11c5 02       		.uleb128 0x2
 5401 11c6 74       		.byte	0x74
 5402 11c7 00       		.sleb128 0
 5403 11c8 00       		.byte	0
 5404 11c9 24       		.uleb128 0x24
 5405 11ca A0000000 		.4byte	.LVL120
 5406 11ce 88080000 		.4byte	0x888
 5407 11d2 E6110000 		.4byte	0x11e6
 5408 11d6 22       		.uleb128 0x22
 5409 11d7 01       		.uleb128 0x1
 5410 11d8 51       		.byte	0x51
 5411 11d9 05       		.uleb128 0x5
 5412 11da 03       		.byte	0x3
 5413 11db B0010000 		.4byte	.LC27
 5414 11df 22       		.uleb128 0x22
 5415 11e0 01       		.uleb128 0x1
 5416 11e1 50       		.byte	0x50
 5417 11e2 02       		.uleb128 0x2
 5418 11e3 74       		.byte	0x74
 5419 11e4 00       		.sleb128 0
 5420 11e5 00       		.byte	0
 5421 11e6 24       		.uleb128 0x24
 5422 11e7 AC000000 		.4byte	.LVL121
 5423 11eb 88080000 		.4byte	0x888
 5424 11ef 03120000 		.4byte	0x1203
 5425 11f3 22       		.uleb128 0x22
 5426 11f4 01       		.uleb128 0x1
 5427 11f5 51       		.byte	0x51
 5428 11f6 05       		.uleb128 0x5
 5429 11f7 03       		.byte	0x3
 5430 11f8 BC010000 		.4byte	.LC28
 5431 11fc 22       		.uleb128 0x22
 5432 11fd 01       		.uleb128 0x1
 5433 11fe 50       		.byte	0x50
 5434 11ff 02       		.uleb128 0x2
 5435 1200 74       		.byte	0x74
 5436 1201 00       		.sleb128 0
 5437 1202 00       		.byte	0
 5438 1203 25       		.uleb128 0x25
 5439 1204 BC000000 		.4byte	.LVL123
 5440 1208 88080000 		.4byte	0x888
 5441 120c 21120000 		.4byte	0x1221
 5442 1210 22       		.uleb128 0x22
 5443 1211 01       		.uleb128 0x1
 5444 1212 51       		.byte	0x51
 5445 1213 05       		.uleb128 0x5
 5446 1214 03       		.byte	0x3
 5447 1215 A4000000 		.4byte	.LC9
 5448 1219 22       		.uleb128 0x22
 5449 121a 01       		.uleb128 0x1
 5450 121b 50       		.byte	0x50
 5451 121c 03       		.uleb128 0x3
 5452 121d F3       		.byte	0xf3
 5453 121e 01       		.uleb128 0x1
 5454 121f 50       		.byte	0x50
 5455 1220 00       		.byte	0
ARM GAS  C:\Users\srich\AppData\Local\Temp\cc32e3J8.s 			page 99


 5456 1221 26       		.uleb128 0x26
 5457 1222 C8000000 		.4byte	.LVL125
 5458 1226 1C1B0000 		.4byte	0x1b1c
 5459 122a 26       		.uleb128 0x26
 5460 122b DC000000 		.4byte	.LVL128
 5461 122f 1C1B0000 		.4byte	0x1b1c
 5462 1233 24       		.uleb128 0x24
 5463 1234 F0000000 		.4byte	.LVL132
 5464 1238 021B0000 		.4byte	0x1b02
 5465 123c 50120000 		.4byte	0x1250
 5466 1240 22       		.uleb128 0x22
 5467 1241 01       		.uleb128 0x1
 5468 1242 51       		.byte	0x51
 5469 1243 05       		.uleb128 0x5
 5470 1244 03       		.byte	0x3
 5471 1245 60010000 		.4byte	.LC22
 5472 1249 22       		.uleb128 0x22
 5473 124a 01       		.uleb128 0x1
 5474 124b 50       		.byte	0x50
 5475 124c 02       		.uleb128 0x2
 5476 124d 76       		.byte	0x76
 5477 124e 00       		.sleb128 0
 5478 124f 00       		.byte	0
 5479 1250 24       		.uleb128 0x24
 5480 1251 FC000000 		.4byte	.LVL133
 5481 1255 021B0000 		.4byte	0x1b02
 5482 1259 6D120000 		.4byte	0x126d
 5483 125d 22       		.uleb128 0x22
 5484 125e 01       		.uleb128 0x1
 5485 125f 51       		.byte	0x51
 5486 1260 05       		.uleb128 0x5
 5487 1261 03       		.byte	0x3
 5488 1262 80010000 		.4byte	.LC24
 5489 1266 22       		.uleb128 0x22
 5490 1267 01       		.uleb128 0x1
 5491 1268 50       		.byte	0x50
 5492 1269 02       		.uleb128 0x2
 5493 126a 76       		.byte	0x76
 5494 126b 00       		.sleb128 0
 5495 126c 00       		.byte	0
 5496 126d 26       		.uleb128 0x26
 5497 126e 0C010000 		.4byte	.LVL135
 5498 1272 88080000 		.4byte	0x888
 5499 1276 26       		.uleb128 0x26
 5500 1277 24010000 		.4byte	.LVL139
 5501 127b 1C1B0000 		.4byte	0x1b1c
 5502 127f 00       		.byte	0
 5503 1280 36       		.uleb128 0x36
 5504 1281 66030000 		.4byte	.LASF160
 5505 1285 02       		.byte	0x2
 5506 1286 1102     		.2byte	0x211
 5507 1288 00000000 		.4byte	.LFB140
 5508 128c A4000000 		.4byte	.LFE140-.LFB140
 5509 1290 01       		.uleb128 0x1
 5510 1291 9C       		.byte	0x9c
 5511 1292 01140000 		.4byte	0x1401
 5512 1296 2C       		.uleb128 0x2c
ARM GAS  C:\Users\srich\AppData\Local\Temp\cc32e3J8.s 			page 100


 5513 1297 63687000 		.ascii	"chp\000"
 5514 129b 02       		.byte	0x2
 5515 129c 1102     		.2byte	0x211
 5516 129e E7080000 		.4byte	0x8e7
 5517 12a2 E0030000 		.4byte	.LLST20
 5518 12a6 2F       		.uleb128 0x2f
 5519 12a7 020A0000 		.4byte	.LASF156
 5520 12ab 02       		.byte	0x2
 5521 12ac 1102     		.2byte	0x211
 5522 12ae 2C000000 		.4byte	0x2c
 5523 12b2 5F040000 		.4byte	.LLST21
 5524 12b6 2F       		.uleb128 0x2f
 5525 12b7 6A0A0000 		.4byte	.LASF157
 5526 12bb 02       		.byte	0x2
 5527 12bc 1102     		.2byte	0x211
 5528 12be 13100000 		.4byte	0x1013
 5529 12c2 BD040000 		.4byte	.LLST22
 5530 12c6 38       		.uleb128 0x38
 5531 12c7 DB040000 		.4byte	.LASF161
 5532 12cb 02       		.byte	0x2
 5533 12cc 2802     		.2byte	0x228
 5534 12ce 26000000 		.4byte	.L202
 5535 12d2 39       		.uleb128 0x39
 5536 12d3 6D080000 		.4byte	0x86d
 5537 12d7 54000000 		.4byte	.LBB30
 5538 12db 80000000 		.4byte	.Ldebug_ranges0+0x80
 5539 12df 02       		.byte	0x2
 5540 12e0 1F02     		.2byte	0x21f
 5541 12e2 39       		.uleb128 0x39
 5542 12e3 64080000 		.4byte	0x864
 5543 12e7 64000000 		.4byte	.LBB34
 5544 12eb 98000000 		.4byte	.Ldebug_ranges0+0x98
 5545 12ef 02       		.byte	0x2
 5546 12f0 1A02     		.2byte	0x21a
 5547 12f2 24       		.uleb128 0x24
 5548 12f3 0E000000 		.4byte	.LVL143
 5549 12f7 88080000 		.4byte	0x888
 5550 12fb 0F130000 		.4byte	0x130f
 5551 12ff 22       		.uleb128 0x22
 5552 1300 01       		.uleb128 0x1
 5553 1301 51       		.byte	0x51
 5554 1302 05       		.uleb128 0x5
 5555 1303 03       		.byte	0x3
 5556 1304 00000000 		.4byte	.LC0
 5557 1308 22       		.uleb128 0x22
 5558 1309 01       		.uleb128 0x1
 5559 130a 50       		.byte	0x50
 5560 130b 02       		.uleb128 0x2
 5561 130c 74       		.byte	0x74
 5562 130d 00       		.sleb128 0
 5563 130e 00       		.byte	0
 5564 130f 24       		.uleb128 0x24
 5565 1310 16000000 		.4byte	.LVL144
 5566 1314 88080000 		.4byte	0x888
 5567 1318 2C130000 		.4byte	0x132c
 5568 131c 22       		.uleb128 0x22
 5569 131d 01       		.uleb128 0x1
ARM GAS  C:\Users\srich\AppData\Local\Temp\cc32e3J8.s 			page 101


 5570 131e 51       		.byte	0x51
 5571 131f 05       		.uleb128 0x5
 5572 1320 03       		.byte	0x3
 5573 1321 04000000 		.4byte	.LC1
 5574 1325 22       		.uleb128 0x22
 5575 1326 01       		.uleb128 0x1
 5576 1327 50       		.byte	0x50
 5577 1328 02       		.uleb128 0x2
 5578 1329 74       		.byte	0x74
 5579 132a 00       		.sleb128 0
 5580 132b 00       		.byte	0
 5581 132c 24       		.uleb128 0x24
 5582 132d 22000000 		.4byte	.LVL145
 5583 1331 88080000 		.4byte	0x888
 5584 1335 53130000 		.4byte	0x1353
 5585 1339 22       		.uleb128 0x22
 5586 133a 01       		.uleb128 0x1
 5587 133b 53       		.byte	0x53
 5588 133c 01       		.uleb128 0x1
 5589 133d 30       		.byte	0x30
 5590 133e 22       		.uleb128 0x22
 5591 133f 01       		.uleb128 0x1
 5592 1340 52       		.byte	0x52
 5593 1341 01       		.uleb128 0x1
 5594 1342 30       		.byte	0x30
 5595 1343 22       		.uleb128 0x22
 5596 1344 01       		.uleb128 0x1
 5597 1345 51       		.byte	0x51
 5598 1346 05       		.uleb128 0x5
 5599 1347 03       		.byte	0x3
 5600 1348 0C000000 		.4byte	.LC2
 5601 134c 22       		.uleb128 0x22
 5602 134d 01       		.uleb128 0x1
 5603 134e 50       		.byte	0x50
 5604 134f 02       		.uleb128 0x2
 5605 1350 74       		.byte	0x74
 5606 1351 00       		.sleb128 0
 5607 1352 00       		.byte	0
 5608 1353 24       		.uleb128 0x24
 5609 1354 2E000000 		.4byte	.LVL147
 5610 1358 88080000 		.4byte	0x888
 5611 135c 70130000 		.4byte	0x1370
 5612 1360 22       		.uleb128 0x22
 5613 1361 01       		.uleb128 0x1
 5614 1362 51       		.byte	0x51
 5615 1363 05       		.uleb128 0x5
 5616 1364 03       		.byte	0x3
 5617 1365 E4010000 		.4byte	.LC30
 5618 1369 22       		.uleb128 0x22
 5619 136a 01       		.uleb128 0x1
 5620 136b 50       		.byte	0x50
 5621 136c 02       		.uleb128 0x2
 5622 136d 74       		.byte	0x74
 5623 136e 00       		.sleb128 0
 5624 136f 00       		.byte	0
 5625 1370 25       		.uleb128 0x25
 5626 1371 3A000000 		.4byte	.LVL149
ARM GAS  C:\Users\srich\AppData\Local\Temp\cc32e3J8.s 			page 102


 5627 1375 88080000 		.4byte	0x888
 5628 1379 8E130000 		.4byte	0x138e
 5629 137d 22       		.uleb128 0x22
 5630 137e 01       		.uleb128 0x1
 5631 137f 51       		.byte	0x51
 5632 1380 05       		.uleb128 0x5
 5633 1381 03       		.byte	0x3
 5634 1382 F8010000 		.4byte	.LC31
 5635 1386 22       		.uleb128 0x22
 5636 1387 01       		.uleb128 0x1
 5637 1388 50       		.byte	0x50
 5638 1389 03       		.uleb128 0x3
 5639 138a F3       		.byte	0xf3
 5640 138b 01       		.uleb128 0x1
 5641 138c 50       		.byte	0x50
 5642 138d 00       		.byte	0
 5643 138e 24       		.uleb128 0x24
 5644 138f 44000000 		.4byte	.LVL151
 5645 1393 021B0000 		.4byte	0x1b02
 5646 1397 AB130000 		.4byte	0x13ab
 5647 139b 22       		.uleb128 0x22
 5648 139c 01       		.uleb128 0x1
 5649 139d 51       		.byte	0x51
 5650 139e 05       		.uleb128 0x5
 5651 139f 03       		.byte	0x3
 5652 13a0 60010000 		.4byte	.LC22
 5653 13a4 22       		.uleb128 0x22
 5654 13a5 01       		.uleb128 0x1
 5655 13a6 50       		.byte	0x50
 5656 13a7 02       		.uleb128 0x2
 5657 13a8 76       		.byte	0x76
 5658 13a9 00       		.sleb128 0
 5659 13aa 00       		.byte	0
 5660 13ab 24       		.uleb128 0x24
 5661 13ac 50000000 		.4byte	.LVL152
 5662 13b0 021B0000 		.4byte	0x1b02
 5663 13b4 C8130000 		.4byte	0x13c8
 5664 13b8 22       		.uleb128 0x22
 5665 13b9 01       		.uleb128 0x1
 5666 13ba 51       		.byte	0x51
 5667 13bb 05       		.uleb128 0x5
 5668 13bc 03       		.byte	0x3
 5669 13bd 80010000 		.4byte	.LC24
 5670 13c1 22       		.uleb128 0x22
 5671 13c2 01       		.uleb128 0x1
 5672 13c3 50       		.byte	0x50
 5673 13c4 02       		.uleb128 0x2
 5674 13c5 76       		.byte	0x76
 5675 13c6 00       		.sleb128 0
 5676 13c7 00       		.byte	0
 5677 13c8 25       		.uleb128 0x25
 5678 13c9 64000000 		.4byte	.LVL154
 5679 13cd 88080000 		.4byte	0x888
 5680 13d1 E6130000 		.4byte	0x13e6
 5681 13d5 22       		.uleb128 0x22
 5682 13d6 01       		.uleb128 0x1
 5683 13d7 51       		.byte	0x51
ARM GAS  C:\Users\srich\AppData\Local\Temp\cc32e3J8.s 			page 103


 5684 13d8 05       		.uleb128 0x5
 5685 13d9 03       		.byte	0x3
 5686 13da 84010000 		.4byte	.LC25
 5687 13de 22       		.uleb128 0x22
 5688 13df 01       		.uleb128 0x1
 5689 13e0 50       		.byte	0x50
 5690 13e1 03       		.uleb128 0x3
 5691 13e2 F3       		.byte	0xf3
 5692 13e3 01       		.uleb128 0x1
 5693 13e4 50       		.byte	0x50
 5694 13e5 00       		.byte	0
 5695 13e6 3B       		.uleb128 0x3b
 5696 13e7 78000000 		.4byte	.LVL156
 5697 13eb 88080000 		.4byte	0x888
 5698 13ef 22       		.uleb128 0x22
 5699 13f0 01       		.uleb128 0x1
 5700 13f1 51       		.byte	0x51
 5701 13f2 05       		.uleb128 0x5
 5702 13f3 03       		.byte	0x3
 5703 13f4 64010000 		.4byte	.LC23
 5704 13f8 22       		.uleb128 0x22
 5705 13f9 01       		.uleb128 0x1
 5706 13fa 50       		.byte	0x50
 5707 13fb 03       		.uleb128 0x3
 5708 13fc F3       		.byte	0xf3
 5709 13fd 01       		.uleb128 0x1
 5710 13fe 50       		.byte	0x50
 5711 13ff 00       		.byte	0
 5712 1400 00       		.byte	0
 5713 1401 36       		.uleb128 0x36
 5714 1402 22090000 		.4byte	.LASF162
 5715 1406 02       		.byte	0x2
 5716 1407 3002     		.2byte	0x230
 5717 1409 00000000 		.4byte	.LFB141
 5718 140d CC000000 		.4byte	.LFE141-.LFB141
 5719 1411 01       		.uleb128 0x1
 5720 1412 9C       		.byte	0x9c
 5721 1413 B3150000 		.4byte	0x15b3
 5722 1417 2C       		.uleb128 0x2c
 5723 1418 63687000 		.ascii	"chp\000"
 5724 141c 02       		.byte	0x2
 5725 141d 3002     		.2byte	0x230
 5726 141f E7080000 		.4byte	0x8e7
 5727 1423 02050000 		.4byte	.LLST23
 5728 1427 2F       		.uleb128 0x2f
 5729 1428 020A0000 		.4byte	.LASF156
 5730 142c 02       		.byte	0x2
 5731 142d 3002     		.2byte	0x230
 5732 142f 2C000000 		.4byte	0x2c
 5733 1433 A2050000 		.4byte	.LLST24
 5734 1437 2F       		.uleb128 0x2f
 5735 1438 6A0A0000 		.4byte	.LASF157
 5736 143c 02       		.byte	0x2
 5737 143d 3002     		.2byte	0x230
 5738 143f 13100000 		.4byte	0x1013
 5739 1443 00060000 		.4byte	.LLST25
 5740 1447 38       		.uleb128 0x38
ARM GAS  C:\Users\srich\AppData\Local\Temp\cc32e3J8.s 			page 104


 5741 1448 DB040000 		.4byte	.LASF161
 5742 144c 02       		.byte	0x2
 5743 144d 4602     		.2byte	0x246
 5744 144f 26000000 		.4byte	.L210
 5745 1453 24       		.uleb128 0x24
 5746 1454 0E000000 		.4byte	.LVL159
 5747 1458 88080000 		.4byte	0x888
 5748 145c 70140000 		.4byte	0x1470
 5749 1460 22       		.uleb128 0x22
 5750 1461 01       		.uleb128 0x1
 5751 1462 51       		.byte	0x51
 5752 1463 05       		.uleb128 0x5
 5753 1464 03       		.byte	0x3
 5754 1465 00000000 		.4byte	.LC0
 5755 1469 22       		.uleb128 0x22
 5756 146a 01       		.uleb128 0x1
 5757 146b 50       		.byte	0x50
 5758 146c 02       		.uleb128 0x2
 5759 146d 74       		.byte	0x74
 5760 146e 00       		.sleb128 0
 5761 146f 00       		.byte	0
 5762 1470 24       		.uleb128 0x24
 5763 1471 16000000 		.4byte	.LVL160
 5764 1475 88080000 		.4byte	0x888
 5765 1479 8D140000 		.4byte	0x148d
 5766 147d 22       		.uleb128 0x22
 5767 147e 01       		.uleb128 0x1
 5768 147f 51       		.byte	0x51
 5769 1480 05       		.uleb128 0x5
 5770 1481 03       		.byte	0x3
 5771 1482 04000000 		.4byte	.LC1
 5772 1486 22       		.uleb128 0x22
 5773 1487 01       		.uleb128 0x1
 5774 1488 50       		.byte	0x50
 5775 1489 02       		.uleb128 0x2
 5776 148a 74       		.byte	0x74
 5777 148b 00       		.sleb128 0
 5778 148c 00       		.byte	0
 5779 148d 24       		.uleb128 0x24
 5780 148e 22000000 		.4byte	.LVL161
 5781 1492 88080000 		.4byte	0x888
 5782 1496 B4140000 		.4byte	0x14b4
 5783 149a 22       		.uleb128 0x22
 5784 149b 01       		.uleb128 0x1
 5785 149c 53       		.byte	0x53
 5786 149d 01       		.uleb128 0x1
 5787 149e 30       		.byte	0x30
 5788 149f 22       		.uleb128 0x22
 5789 14a0 01       		.uleb128 0x1
 5790 14a1 52       		.byte	0x52
 5791 14a2 01       		.uleb128 0x1
 5792 14a3 30       		.byte	0x30
 5793 14a4 22       		.uleb128 0x22
 5794 14a5 01       		.uleb128 0x1
 5795 14a6 51       		.byte	0x51
 5796 14a7 05       		.uleb128 0x5
 5797 14a8 03       		.byte	0x3
ARM GAS  C:\Users\srich\AppData\Local\Temp\cc32e3J8.s 			page 105


 5798 14a9 0C000000 		.4byte	.LC2
 5799 14ad 22       		.uleb128 0x22
 5800 14ae 01       		.uleb128 0x1
 5801 14af 50       		.byte	0x50
 5802 14b0 02       		.uleb128 0x2
 5803 14b1 74       		.byte	0x74
 5804 14b2 00       		.sleb128 0
 5805 14b3 00       		.byte	0
 5806 14b4 24       		.uleb128 0x24
 5807 14b5 34000000 		.4byte	.LVL164
 5808 14b9 88080000 		.4byte	0x888
 5809 14bd D1140000 		.4byte	0x14d1
 5810 14c1 22       		.uleb128 0x22
 5811 14c2 01       		.uleb128 0x1
 5812 14c3 51       		.byte	0x51
 5813 14c4 05       		.uleb128 0x5
 5814 14c5 03       		.byte	0x3
 5815 14c6 80020000 		.4byte	.LC36
 5816 14ca 22       		.uleb128 0x22
 5817 14cb 01       		.uleb128 0x1
 5818 14cc 50       		.byte	0x50
 5819 14cd 02       		.uleb128 0x2
 5820 14ce 74       		.byte	0x74
 5821 14cf 00       		.sleb128 0
 5822 14d0 00       		.byte	0
 5823 14d1 24       		.uleb128 0x24
 5824 14d2 3C000000 		.4byte	.LVL165
 5825 14d6 88080000 		.4byte	0x888
 5826 14da EE140000 		.4byte	0x14ee
 5827 14de 22       		.uleb128 0x22
 5828 14df 01       		.uleb128 0x1
 5829 14e0 51       		.byte	0x51
 5830 14e1 05       		.uleb128 0x5
 5831 14e2 03       		.byte	0x3
 5832 14e3 9C020000 		.4byte	.LC37
 5833 14e7 22       		.uleb128 0x22
 5834 14e8 01       		.uleb128 0x1
 5835 14e9 50       		.byte	0x50
 5836 14ea 02       		.uleb128 0x2
 5837 14eb 74       		.byte	0x74
 5838 14ec 00       		.sleb128 0
 5839 14ed 00       		.byte	0
 5840 14ee 25       		.uleb128 0x25
 5841 14ef 48000000 		.4byte	.LVL167
 5842 14f3 88080000 		.4byte	0x888
 5843 14f7 0C150000 		.4byte	0x150c
 5844 14fb 22       		.uleb128 0x22
 5845 14fc 01       		.uleb128 0x1
 5846 14fd 51       		.byte	0x51
 5847 14fe 05       		.uleb128 0x5
 5848 14ff 03       		.byte	0x3
 5849 1500 BC020000 		.4byte	.LC38
 5850 1504 22       		.uleb128 0x22
 5851 1505 01       		.uleb128 0x1
 5852 1506 50       		.byte	0x50
 5853 1507 03       		.uleb128 0x3
 5854 1508 F3       		.byte	0xf3
ARM GAS  C:\Users\srich\AppData\Local\Temp\cc32e3J8.s 			page 106


 5855 1509 01       		.uleb128 0x1
 5856 150a 50       		.byte	0x50
 5857 150b 00       		.byte	0
 5858 150c 24       		.uleb128 0x24
 5859 150d 4E000000 		.4byte	.LVL168
 5860 1511 88080000 		.4byte	0x888
 5861 1515 23150000 		.4byte	0x1523
 5862 1519 22       		.uleb128 0x22
 5863 151a 01       		.uleb128 0x1
 5864 151b 51       		.byte	0x51
 5865 151c 05       		.uleb128 0x5
 5866 151d 03       		.byte	0x3
 5867 151e 64020000 		.4byte	.LC35
 5868 1522 00       		.byte	0
 5869 1523 24       		.uleb128 0x24
 5870 1524 5A000000 		.4byte	.LVL171
 5871 1528 021B0000 		.4byte	0x1b02
 5872 152c 40150000 		.4byte	0x1540
 5873 1530 22       		.uleb128 0x22
 5874 1531 01       		.uleb128 0x1
 5875 1532 51       		.byte	0x51
 5876 1533 05       		.uleb128 0x5
 5877 1534 03       		.byte	0x3
 5878 1535 60010000 		.4byte	.LC22
 5879 1539 22       		.uleb128 0x22
 5880 153a 01       		.uleb128 0x1
 5881 153b 50       		.byte	0x50
 5882 153c 02       		.uleb128 0x2
 5883 153d 76       		.byte	0x76
 5884 153e 00       		.sleb128 0
 5885 153f 00       		.byte	0
 5886 1540 24       		.uleb128 0x24
 5887 1541 64000000 		.4byte	.LVL172
 5888 1545 021B0000 		.4byte	0x1b02
 5889 1549 5D150000 		.4byte	0x155d
 5890 154d 22       		.uleb128 0x22
 5891 154e 01       		.uleb128 0x1
 5892 154f 51       		.byte	0x51
 5893 1550 05       		.uleb128 0x5
 5894 1551 03       		.byte	0x3
 5895 1552 80010000 		.4byte	.LC24
 5896 1556 22       		.uleb128 0x22
 5897 1557 01       		.uleb128 0x1
 5898 1558 50       		.byte	0x50
 5899 1559 02       		.uleb128 0x2
 5900 155a 76       		.byte	0x76
 5901 155b 00       		.sleb128 0
 5902 155c 00       		.byte	0
 5903 155d 25       		.uleb128 0x25
 5904 155e 78000000 		.4byte	.LVL174
 5905 1562 88080000 		.4byte	0x888
 5906 1566 7B150000 		.4byte	0x157b
 5907 156a 22       		.uleb128 0x22
 5908 156b 01       		.uleb128 0x1
 5909 156c 51       		.byte	0x51
 5910 156d 05       		.uleb128 0x5
 5911 156e 03       		.byte	0x3
ARM GAS  C:\Users\srich\AppData\Local\Temp\cc32e3J8.s 			page 107


 5912 156f 48020000 		.4byte	.LC34
 5913 1573 22       		.uleb128 0x22
 5914 1574 01       		.uleb128 0x1
 5915 1575 50       		.byte	0x50
 5916 1576 03       		.uleb128 0x3
 5917 1577 F3       		.byte	0xf3
 5918 1578 01       		.uleb128 0x1
 5919 1579 50       		.byte	0x50
 5920 157a 00       		.byte	0
 5921 157b 24       		.uleb128 0x24
 5922 157c 84000000 		.4byte	.LVL175
 5923 1580 88080000 		.4byte	0x888
 5924 1584 98150000 		.4byte	0x1598
 5925 1588 22       		.uleb128 0x22
 5926 1589 01       		.uleb128 0x1
 5927 158a 51       		.byte	0x51
 5928 158b 05       		.uleb128 0x5
 5929 158c 03       		.byte	0x3
 5930 158d 0C020000 		.4byte	.LC32
 5931 1591 22       		.uleb128 0x22
 5932 1592 01       		.uleb128 0x1
 5933 1593 50       		.byte	0x50
 5934 1594 02       		.uleb128 0x2
 5935 1595 74       		.byte	0x74
 5936 1596 00       		.sleb128 0
 5937 1597 00       		.byte	0
 5938 1598 3B       		.uleb128 0x3b
 5939 1599 94000000 		.4byte	.LVL177
 5940 159d 88080000 		.4byte	0x888
 5941 15a1 22       		.uleb128 0x22
 5942 15a2 01       		.uleb128 0x1
 5943 15a3 51       		.byte	0x51
 5944 15a4 05       		.uleb128 0x5
 5945 15a5 03       		.byte	0x3
 5946 15a6 28020000 		.4byte	.LC33
 5947 15aa 22       		.uleb128 0x22
 5948 15ab 01       		.uleb128 0x1
 5949 15ac 50       		.byte	0x50
 5950 15ad 03       		.uleb128 0x3
 5951 15ae F3       		.byte	0xf3
 5952 15af 01       		.uleb128 0x1
 5953 15b0 50       		.byte	0x50
 5954 15b1 00       		.byte	0
 5955 15b2 00       		.byte	0
 5956 15b3 36       		.uleb128 0x36
 5957 15b4 4F060000 		.4byte	.LASF163
 5958 15b8 02       		.byte	0x2
 5959 15b9 5202     		.2byte	0x252
 5960 15bb 00000000 		.4byte	.LFB142
 5961 15bf 9C000000 		.4byte	.LFE142-.LFB142
 5962 15c3 01       		.uleb128 0x1
 5963 15c4 9C       		.byte	0x9c
 5964 15c5 34170000 		.4byte	0x1734
 5965 15c9 2C       		.uleb128 0x2c
 5966 15ca 63687000 		.ascii	"chp\000"
 5967 15ce 02       		.byte	0x2
 5968 15cf 5202     		.2byte	0x252
ARM GAS  C:\Users\srich\AppData\Local\Temp\cc32e3J8.s 			page 108


 5969 15d1 E7080000 		.4byte	0x8e7
 5970 15d5 45060000 		.4byte	.LLST26
 5971 15d9 2F       		.uleb128 0x2f
 5972 15da 020A0000 		.4byte	.LASF156
 5973 15de 02       		.byte	0x2
 5974 15df 5202     		.2byte	0x252
 5975 15e1 2C000000 		.4byte	0x2c
 5976 15e5 C4060000 		.4byte	.LLST27
 5977 15e9 2F       		.uleb128 0x2f
 5978 15ea 6A0A0000 		.4byte	.LASF157
 5979 15ee 02       		.byte	0x2
 5980 15ef 5202     		.2byte	0x252
 5981 15f1 13100000 		.4byte	0x1013
 5982 15f5 22070000 		.4byte	.LLST28
 5983 15f9 38       		.uleb128 0x38
 5984 15fa DB040000 		.4byte	.LASF161
 5985 15fe 02       		.byte	0x2
 5986 15ff 6902     		.2byte	0x269
 5987 1601 26000000 		.4byte	.L221
 5988 1605 39       		.uleb128 0x39
 5989 1606 7F080000 		.4byte	0x87f
 5990 160a 52000000 		.4byte	.LBB38
 5991 160e B0000000 		.4byte	.Ldebug_ranges0+0xb0
 5992 1612 02       		.byte	0x2
 5993 1613 6002     		.2byte	0x260
 5994 1615 39       		.uleb128 0x39
 5995 1616 76080000 		.4byte	0x876
 5996 161a 62000000 		.4byte	.LBB42
 5997 161e C8000000 		.4byte	.Ldebug_ranges0+0xc8
 5998 1622 02       		.byte	0x2
 5999 1623 5B02     		.2byte	0x25b
 6000 1625 24       		.uleb128 0x24
 6001 1626 0E000000 		.4byte	.LVL180
 6002 162a 88080000 		.4byte	0x888
 6003 162e 42160000 		.4byte	0x1642
 6004 1632 22       		.uleb128 0x22
 6005 1633 01       		.uleb128 0x1
 6006 1634 51       		.byte	0x51
 6007 1635 05       		.uleb128 0x5
 6008 1636 03       		.byte	0x3
 6009 1637 00000000 		.4byte	.LC0
 6010 163b 22       		.uleb128 0x22
 6011 163c 01       		.uleb128 0x1
 6012 163d 50       		.byte	0x50
 6013 163e 02       		.uleb128 0x2
 6014 163f 74       		.byte	0x74
 6015 1640 00       		.sleb128 0
 6016 1641 00       		.byte	0
 6017 1642 24       		.uleb128 0x24
 6018 1643 16000000 		.4byte	.LVL181
 6019 1647 88080000 		.4byte	0x888
 6020 164b 5F160000 		.4byte	0x165f
 6021 164f 22       		.uleb128 0x22
 6022 1650 01       		.uleb128 0x1
 6023 1651 51       		.byte	0x51
 6024 1652 05       		.uleb128 0x5
 6025 1653 03       		.byte	0x3
ARM GAS  C:\Users\srich\AppData\Local\Temp\cc32e3J8.s 			page 109


 6026 1654 04000000 		.4byte	.LC1
 6027 1658 22       		.uleb128 0x22
 6028 1659 01       		.uleb128 0x1
 6029 165a 50       		.byte	0x50
 6030 165b 02       		.uleb128 0x2
 6031 165c 74       		.byte	0x74
 6032 165d 00       		.sleb128 0
 6033 165e 00       		.byte	0
 6034 165f 24       		.uleb128 0x24
 6035 1660 22000000 		.4byte	.LVL182
 6036 1664 88080000 		.4byte	0x888
 6037 1668 86160000 		.4byte	0x1686
 6038 166c 22       		.uleb128 0x22
 6039 166d 01       		.uleb128 0x1
 6040 166e 53       		.byte	0x53
 6041 166f 01       		.uleb128 0x1
 6042 1670 30       		.byte	0x30
 6043 1671 22       		.uleb128 0x22
 6044 1672 01       		.uleb128 0x1
 6045 1673 52       		.byte	0x52
 6046 1674 01       		.uleb128 0x1
 6047 1675 30       		.byte	0x30
 6048 1676 22       		.uleb128 0x22
 6049 1677 01       		.uleb128 0x1
 6050 1678 51       		.byte	0x51
 6051 1679 05       		.uleb128 0x5
 6052 167a 03       		.byte	0x3
 6053 167b 0C000000 		.4byte	.LC2
 6054 167f 22       		.uleb128 0x22
 6055 1680 01       		.uleb128 0x1
 6056 1681 50       		.byte	0x50
 6057 1682 02       		.uleb128 0x2
 6058 1683 74       		.byte	0x74
 6059 1684 00       		.sleb128 0
 6060 1685 00       		.byte	0
 6061 1686 24       		.uleb128 0x24
 6062 1687 2E000000 		.4byte	.LVL184
 6063 168b 88080000 		.4byte	0x888
 6064 168f A3160000 		.4byte	0x16a3
 6065 1693 22       		.uleb128 0x22
 6066 1694 01       		.uleb128 0x1
 6067 1695 51       		.byte	0x51
 6068 1696 05       		.uleb128 0x5
 6069 1697 03       		.byte	0x3
 6070 1698 20030000 		.4byte	.LC41
 6071 169c 22       		.uleb128 0x22
 6072 169d 01       		.uleb128 0x1
 6073 169e 50       		.byte	0x50
 6074 169f 02       		.uleb128 0x2
 6075 16a0 74       		.byte	0x74
 6076 16a1 00       		.sleb128 0
 6077 16a2 00       		.byte	0
 6078 16a3 25       		.uleb128 0x25
 6079 16a4 3A000000 		.4byte	.LVL186
 6080 16a8 88080000 		.4byte	0x888
 6081 16ac C1160000 		.4byte	0x16c1
 6082 16b0 22       		.uleb128 0x22
ARM GAS  C:\Users\srich\AppData\Local\Temp\cc32e3J8.s 			page 110


 6083 16b1 01       		.uleb128 0x1
 6084 16b2 51       		.byte	0x51
 6085 16b3 05       		.uleb128 0x5
 6086 16b4 03       		.byte	0x3
 6087 16b5 38030000 		.4byte	.LC42
 6088 16b9 22       		.uleb128 0x22
 6089 16ba 01       		.uleb128 0x1
 6090 16bb 50       		.byte	0x50
 6091 16bc 03       		.uleb128 0x3
 6092 16bd F3       		.byte	0xf3
 6093 16be 01       		.uleb128 0x1
 6094 16bf 50       		.byte	0x50
 6095 16c0 00       		.byte	0
 6096 16c1 24       		.uleb128 0x24
 6097 16c2 44000000 		.4byte	.LVL188
 6098 16c6 021B0000 		.4byte	0x1b02
 6099 16ca DE160000 		.4byte	0x16de
 6100 16ce 22       		.uleb128 0x22
 6101 16cf 01       		.uleb128 0x1
 6102 16d0 51       		.byte	0x51
 6103 16d1 05       		.uleb128 0x5
 6104 16d2 03       		.byte	0x3
 6105 16d3 60010000 		.4byte	.LC22
 6106 16d7 22       		.uleb128 0x22
 6107 16d8 01       		.uleb128 0x1
 6108 16d9 50       		.byte	0x50
 6109 16da 02       		.uleb128 0x2
 6110 16db 76       		.byte	0x76
 6111 16dc 00       		.sleb128 0
 6112 16dd 00       		.byte	0
 6113 16de 24       		.uleb128 0x24
 6114 16df 4E000000 		.4byte	.LVL189
 6115 16e3 021B0000 		.4byte	0x1b02
 6116 16e7 FB160000 		.4byte	0x16fb
 6117 16eb 22       		.uleb128 0x22
 6118 16ec 01       		.uleb128 0x1
 6119 16ed 51       		.byte	0x51
 6120 16ee 05       		.uleb128 0x5
 6121 16ef 03       		.byte	0x3
 6122 16f0 80010000 		.4byte	.LC24
 6123 16f4 22       		.uleb128 0x22
 6124 16f5 01       		.uleb128 0x1
 6125 16f6 50       		.byte	0x50
 6126 16f7 02       		.uleb128 0x2
 6127 16f8 76       		.byte	0x76
 6128 16f9 00       		.sleb128 0
 6129 16fa 00       		.byte	0
 6130 16fb 25       		.uleb128 0x25
 6131 16fc 62000000 		.4byte	.LVL191
 6132 1700 88080000 		.4byte	0x888
 6133 1704 19170000 		.4byte	0x1719
 6134 1708 22       		.uleb128 0x22
 6135 1709 01       		.uleb128 0x1
 6136 170a 51       		.byte	0x51
 6137 170b 05       		.uleb128 0x5
 6138 170c 03       		.byte	0x3
 6139 170d FC020000 		.4byte	.LC40
ARM GAS  C:\Users\srich\AppData\Local\Temp\cc32e3J8.s 			page 111


 6140 1711 22       		.uleb128 0x22
 6141 1712 01       		.uleb128 0x1
 6142 1713 50       		.byte	0x50
 6143 1714 03       		.uleb128 0x3
 6144 1715 F3       		.byte	0xf3
 6145 1716 01       		.uleb128 0x1
 6146 1717 50       		.byte	0x50
 6147 1718 00       		.byte	0
 6148 1719 3B       		.uleb128 0x3b
 6149 171a 72000000 		.4byte	.LVL193
 6150 171e 88080000 		.4byte	0x888
 6151 1722 22       		.uleb128 0x22
 6152 1723 01       		.uleb128 0x1
 6153 1724 51       		.byte	0x51
 6154 1725 05       		.uleb128 0x5
 6155 1726 03       		.byte	0x3
 6156 1727 DC020000 		.4byte	.LC39
 6157 172b 22       		.uleb128 0x22
 6158 172c 01       		.uleb128 0x1
 6159 172d 50       		.byte	0x50
 6160 172e 03       		.uleb128 0x3
 6161 172f F3       		.byte	0xf3
 6162 1730 01       		.uleb128 0x1
 6163 1731 50       		.byte	0x50
 6164 1732 00       		.byte	0
 6165 1733 00       		.byte	0
 6166 1734 0F       		.uleb128 0xf
 6167 1735 4A010000 		.4byte	0x14a
 6168 1739 44170000 		.4byte	0x1744
 6169 173d 10       		.uleb128 0x10
 6170 173e BF000000 		.4byte	0xbf
 6171 1742 59       		.byte	0x59
 6172 1743 00       		.byte	0
 6173 1744 3C       		.uleb128 0x3c
 6174 1745 D8060000 		.4byte	.LASF184
 6175 1749 12       		.byte	0x12
 6176 174a 1D       		.byte	0x1d
 6177 174b 34170000 		.4byte	0x1734
 6178 174f 0F       		.uleb128 0xf
 6179 1750 9A060000 		.4byte	0x69a
 6180 1754 5F170000 		.4byte	0x175f
 6181 1758 10       		.uleb128 0x10
 6182 1759 BF000000 		.4byte	0xbf
 6183 175d 0A       		.byte	0xa
 6184 175e 00       		.byte	0
 6185 175f 3D       		.uleb128 0x3d
 6186 1760 9E030000 		.4byte	.LASF164
 6187 1764 0F       		.byte	0xf
 6188 1765 23       		.byte	0x23
 6189 1766 4F170000 		.4byte	0x174f
 6190 176a 42       		.byte	0x42
 6191 176b 10       		.byte	0x10
 6192 176c 00       		.byte	0
 6193 176d 10       		.byte	0x10
 6194 176e 00       		.byte	0
 6195 176f 04       		.byte	0x4
 6196 1770 00       		.byte	0
ARM GAS  C:\Users\srich\AppData\Local\Temp\cc32e3J8.s 			page 112


 6197 1771 11       		.byte	0x11
 6198 1772 00       		.byte	0
 6199 1773 14       		.byte	0x14
 6200 1774 00       		.byte	0
 6201 1775 04       		.byte	0x4
 6202 1776 01       		.byte	0x1
 6203 1777 12       		.byte	0x12
 6204 1778 00       		.byte	0
 6205 1779 18       		.byte	0x18
 6206 177a 00       		.byte	0
 6207 177b 04       		.byte	0x4
 6208 177c 02       		.byte	0x2
 6209 177d 13       		.byte	0x13
 6210 177e 00       		.byte	0
 6211 177f 1C       		.byte	0x1c
 6212 1780 00       		.byte	0
 6213 1781 04       		.byte	0x4
 6214 1782 03       		.byte	0x3
 6215 1783 14       		.byte	0x14
 6216 1784 00       		.byte	0
 6217 1785 20       		.byte	0x20
 6218 1786 00       		.byte	0
 6219 1787 04       		.byte	0x4
 6220 1788 04       		.byte	0x4
 6221 1789 15       		.byte	0x15
 6222 178a 00       		.byte	0
 6223 178b 24       		.byte	0x24
 6224 178c 00       		.byte	0
 6225 178d 04       		.byte	0x4
 6226 178e 05       		.byte	0x5
 6227 178f 16       		.byte	0x16
 6228 1790 00       		.byte	0
 6229 1791 28       		.byte	0x28
 6230 1792 00       		.byte	0
 6231 1793 04       		.byte	0x4
 6232 1794 06       		.byte	0x6
 6233 1795 17       		.byte	0x17
 6234 1796 00       		.byte	0
 6235 1797 3C       		.byte	0x3c
 6236 1798 00       		.byte	0
 6237 1799 04       		.byte	0x4
 6238 179a 07       		.byte	0x7
 6239 179b 18       		.byte	0x18
 6240 179c 00       		.byte	0
 6241 179d 40       		.byte	0x40
 6242 179e 00       		.byte	0
 6243 179f 04       		.byte	0x4
 6244 17a0 08       		.byte	0x8
 6245 17a1 19       		.byte	0x19
 6246 17a2 00       		.byte	0
 6247 17a3 44       		.byte	0x44
 6248 17a4 00       		.byte	0
 6249 17a5 04       		.byte	0x4
 6250 17a6 09       		.byte	0x9
 6251 17a7 FB       		.byte	0xfb
 6252 17a8 FF       		.byte	0xff
 6253 17a9 FB       		.byte	0xfb
ARM GAS  C:\Users\srich\AppData\Local\Temp\cc32e3J8.s 			page 113


 6254 17aa FF       		.byte	0xff
 6255 17ab 04       		.byte	0x4
 6256 17ac 0A       		.byte	0xa
 6257 17ad 20       		.uleb128 0x20
 6258 17ae 4B5F5000 		.ascii	"K_P\000"
 6259 17b2 02       		.byte	0x2
 6260 17b3 27       		.byte	0x27
 6261 17b4 EB000000 		.4byte	0xeb
 6262 17b8 05       		.uleb128 0x5
 6263 17b9 03       		.byte	0x3
 6264 17ba 00000000 		.4byte	K_P
 6265 17be 20       		.uleb128 0x20
 6266 17bf 4B5F4900 		.ascii	"K_I\000"
 6267 17c3 02       		.byte	0x2
 6268 17c4 28       		.byte	0x28
 6269 17c5 EB000000 		.4byte	0xeb
 6270 17c9 05       		.uleb128 0x5
 6271 17ca 03       		.byte	0x3
 6272 17cb 00000000 		.4byte	K_I
 6273 17cf 20       		.uleb128 0x20
 6274 17d0 4B5F4400 		.ascii	"K_D\000"
 6275 17d4 02       		.byte	0x2
 6276 17d5 29       		.byte	0x29
 6277 17d6 EB000000 		.4byte	0xeb
 6278 17da 05       		.uleb128 0x5
 6279 17db 03       		.byte	0x3
 6280 17dc 00000000 		.4byte	K_D
 6281 17e0 3E       		.uleb128 0x3e
 6282 17e1 1C080000 		.4byte	.LASF165
 6283 17e5 02       		.byte	0x2
 6284 17e6 2B       		.byte	0x2b
 6285 17e7 50020000 		.4byte	0x250
 6286 17eb 40420F00 		.4byte	0xf4240
 6287 17ef 3F       		.uleb128 0x3f
 6288 17f0 76040000 		.4byte	.LASF166
 6289 17f4 02       		.byte	0x2
 6290 17f5 2C       		.byte	0x2c
 6291 17f6 50020000 		.4byte	0x250
 6292 17fa 00       		.byte	0
 6293 17fb 3E       		.uleb128 0x3e
 6294 17fc 32040000 		.4byte	.LASF167
 6295 1800 02       		.byte	0x2
 6296 1801 2E       		.byte	0x2e
 6297 1802 50020000 		.4byte	0x250
 6298 1806 40420F00 		.4byte	0xf4240
 6299 180a 3E       		.uleb128 0x3e
 6300 180b 01040000 		.4byte	.LASF168
 6301 180f 02       		.byte	0x2
 6302 1810 2F       		.byte	0x2f
 6303 1811 50020000 		.4byte	0x250
 6304 1815 40420F00 		.4byte	0xf4240
 6305 1819 3E       		.uleb128 0x3e
 6306 181a 86000000 		.4byte	.LASF169
 6307 181e 02       		.byte	0x2
 6308 181f 30       		.byte	0x30
 6309 1820 50020000 		.4byte	0x250
 6310 1824 40420F00 		.4byte	0xf4240
ARM GAS  C:\Users\srich\AppData\Local\Temp\cc32e3J8.s 			page 114


 6311 1828 40       		.uleb128 0x40
 6312 1829 95040000 		.4byte	.LASF170
 6313 182d 02       		.byte	0x2
 6314 182e 32       		.byte	0x32
 6315 182f 01010000 		.4byte	0x101
 6316 1833 05       		.uleb128 0x5
 6317 1834 03       		.byte	0x3
 6318 1835 00000000 		.4byte	brake_pwm
 6319 1839 40       		.uleb128 0x40
 6320 183a 4A090000 		.4byte	.LASF171
 6321 183e 02       		.byte	0x2
 6322 183f 33       		.byte	0x33
 6323 1840 22010000 		.4byte	0x122
 6324 1844 05       		.uleb128 0x5
 6325 1845 03       		.byte	0x3
 6326 1846 00000000 		.4byte	regen_on
 6327 184a 40       		.uleb128 0x40
 6328 184b ED020000 		.4byte	.LASF172
 6329 184f 02       		.byte	0x2
 6330 1850 34       		.byte	0x34
 6331 1851 22010000 		.4byte	0x122
 6332 1855 05       		.uleb128 0x5
 6333 1856 03       		.byte	0x3
 6334 1857 00000000 		.4byte	CurrentLimitIsOn
 6335 185b 40       		.uleb128 0x40
 6336 185c 82010000 		.4byte	.LASF173
 6337 1860 02       		.byte	0x2
 6338 1861 36       		.byte	0x36
 6339 1862 01010000 		.4byte	0x101
 6340 1866 05       		.uleb128 0x5
 6341 1867 03       		.byte	0x3
 6342 1868 00000000 		.4byte	save_pwm
 6343 186c 20       		.uleb128 0x20
 6344 186d 70776D00 		.ascii	"pwm\000"
 6345 1871 02       		.byte	0x2
 6346 1872 37       		.byte	0x37
 6347 1873 01010000 		.4byte	0x101
 6348 1877 05       		.uleb128 0x5
 6349 1878 03       		.byte	0x3
 6350 1879 00000000 		.4byte	pwm
 6351 187d 40       		.uleb128 0x40
 6352 187e 6A040000 		.4byte	.LASF174
 6353 1882 02       		.byte	0x2
 6354 1883 38       		.byte	0x38
 6355 1884 25000000 		.4byte	0x25
 6356 1888 05       		.uleb128 0x5
 6357 1889 03       		.byte	0x3
 6358 188a 00000000 		.4byte	p_tag
 6359 188e 40       		.uleb128 0x40
 6360 188f 840A0000 		.4byte	.LASF175
 6361 1893 02       		.byte	0x2
 6362 1894 39       		.byte	0x39
 6363 1895 25000000 		.4byte	0x25
 6364 1899 05       		.uleb128 0x5
 6365 189a 03       		.byte	0x3
 6366 189b 00000000 		.4byte	i_tag
 6367 189f 40       		.uleb128 0x40
ARM GAS  C:\Users\srich\AppData\Local\Temp\cc32e3J8.s 			page 115


 6368 18a0 0C090000 		.4byte	.LASF176
 6369 18a4 02       		.byte	0x2
 6370 18a5 3A       		.byte	0x3a
 6371 18a6 25000000 		.4byte	0x25
 6372 18aa 05       		.uleb128 0x5
 6373 18ab 03       		.byte	0x3
 6374 18ac 00000000 		.4byte	d_tag
 6375 18b0 40       		.uleb128 0x40
 6376 18b1 8A0A0000 		.4byte	.LASF177
 6377 18b5 02       		.byte	0x2
 6378 18b6 3B       		.byte	0x3b
 6379 18b7 01010000 		.4byte	0x101
 6380 18bb 05       		.uleb128 0x5
 6381 18bc 03       		.byte	0x3
 6382 18bd 00000000 		.4byte	result
 6383 18c1 40       		.uleb128 0x40
 6384 18c2 74090000 		.4byte	.LASF178
 6385 18c6 02       		.byte	0x2
 6386 18c7 3C       		.byte	0x3c
 6387 18c8 25000000 		.4byte	0x25
 6388 18cc 05       		.uleb128 0x5
 6389 18cd 03       		.byte	0x3
 6390 18ce 00000000 		.4byte	eelozo
 6391 18d2 40       		.uleb128 0x40
 6392 18d3 70040000 		.4byte	.LASF179
 6393 18d7 02       		.byte	0x2
 6394 18d8 3D       		.byte	0x3d
 6395 18d9 25000000 		.4byte	0x25
 6396 18dd 05       		.uleb128 0x5
 6397 18de 03       		.byte	0x3
 6398 18df 00000000 		.4byte	e_tag
 6399 18e3 40       		.uleb128 0x40
 6400 18e4 1A030000 		.4byte	.LASF180
 6401 18e8 02       		.byte	0x2
 6402 18e9 3E       		.byte	0x3e
 6403 18ea F6000000 		.4byte	0xf6
 6404 18ee 05       		.uleb128 0x5
 6405 18ef 03       		.byte	0x3
 6406 18f0 00000000 		.4byte	cruise_on
 6407 18f4 40       		.uleb128 0x40
 6408 18f5 390A0000 		.4byte	.LASF181
 6409 18f9 02       		.byte	0x2
 6410 18fa 3F       		.byte	0x3f
 6411 18fb 22010000 		.4byte	0x122
 6412 18ff 05       		.uleb128 0x5
 6413 1900 03       		.byte	0x3
 6414 1901 00000000 		.4byte	cruise_indicator
 6415 1905 40       		.uleb128 0x40
 6416 1906 B3020000 		.4byte	.LASF182
 6417 190a 02       		.byte	0x2
 6418 190b 40       		.byte	0x40
 6419 190c 0C010000 		.4byte	0x10c
 6420 1910 05       		.uleb128 0x5
 6421 1911 03       		.byte	0x3
 6422 1912 00000000 		.4byte	cruise_indicator_index
 6423 1916 40       		.uleb128 0x40
 6424 1917 E5080000 		.4byte	.LASF183
ARM GAS  C:\Users\srich\AppData\Local\Temp\cc32e3J8.s 			page 116


 6425 191b 02       		.byte	0x2
 6426 191c 42       		.byte	0x42
 6427 191d F6000000 		.4byte	0xf6
 6428 1921 05       		.uleb128 0x5
 6429 1922 03       		.byte	0x3
 6430 1923 00000000 		.4byte	cruise_disable_period
 6431 1927 3C       		.uleb128 0x3c
 6432 1928 5F060000 		.4byte	.LASF185
 6433 192c 02       		.byte	0x2
 6434 192d 43       		.byte	0x43
 6435 192e 32190000 		.4byte	0x1932
 6436 1932 07       		.uleb128 0x7
 6437 1933 22010000 		.4byte	0x122
 6438 1937 20       		.uleb128 0x20
 6439 1938 73657400 		.ascii	"set\000"
 6440 193c 02       		.byte	0x2
 6441 193d 45       		.byte	0x45
 6442 193e EB000000 		.4byte	0xeb
 6443 1942 05       		.uleb128 0x5
 6444 1943 03       		.byte	0x3
 6445 1944 00000000 		.4byte	set
 6446 1948 40       		.uleb128 0x40
 6447 1949 FD060000 		.4byte	.LASF186
 6448 194d 02       		.byte	0x2
 6449 194e 46       		.byte	0x46
 6450 194f EB000000 		.4byte	0xeb
 6451 1953 05       		.uleb128 0x5
 6452 1954 03       		.byte	0x3
 6453 1955 00000000 		.4byte	old_set
 6454 1959 40       		.uleb128 0x40
 6455 195a 0C000000 		.4byte	.LASF187
 6456 195e 02       		.byte	0x2
 6457 195f 47       		.byte	0x47
 6458 1960 0C010000 		.4byte	0x10c
 6459 1964 05       		.uleb128 0x5
 6460 1965 03       		.byte	0x3
 6461 1966 00000000 		.4byte	eeprom_write_period
 6462 196a 40       		.uleb128 0x40
 6463 196b 96080000 		.4byte	.LASF188
 6464 196f 02       		.byte	0x2
 6465 1970 48       		.byte	0x48
 6466 1971 22010000 		.4byte	0x122
 6467 1975 05       		.uleb128 0x5
 6468 1976 03       		.byte	0x3
 6469 1977 00000000 		.4byte	eeprom_write
 6470 197b 40       		.uleb128 0x40
 6471 197c 7B090000 		.4byte	.LASF189
 6472 1980 02       		.byte	0x2
 6473 1981 4A       		.byte	0x4a
 6474 1982 22010000 		.4byte	0x122
 6475 1986 05       		.uleb128 0x5
 6476 1987 03       		.byte	0x3
 6477 1988 00000000 		.4byte	button_long_accel
 6478 198c 40       		.uleb128 0x40
 6479 198d 070A0000 		.4byte	.LASF190
 6480 1991 02       		.byte	0x2
 6481 1992 4B       		.byte	0x4b
ARM GAS  C:\Users\srich\AppData\Local\Temp\cc32e3J8.s 			page 117


 6482 1993 22010000 		.4byte	0x122
 6483 1997 05       		.uleb128 0x5
 6484 1998 03       		.byte	0x3
 6485 1999 00000000 		.4byte	button_long_decelerat
 6486 199d 40       		.uleb128 0x40
 6487 199e FE020000 		.4byte	.LASF191
 6488 19a2 02       		.byte	0x2
 6489 19a3 50       		.byte	0x50
 6490 19a4 01010000 		.4byte	0x101
 6491 19a8 05       		.uleb128 0x5
 6492 19a9 03       		.byte	0x3
 6493 19aa 00000000 		.4byte	accel_limit
 6494 19ae 40       		.uleb128 0x40
 6495 19af 41040000 		.4byte	.LASF192
 6496 19b3 02       		.byte	0x2
 6497 19b4 51       		.byte	0x51
 6498 19b5 F6000000 		.4byte	0xf6
 6499 19b9 05       		.uleb128 0x5
 6500 19ba 03       		.byte	0x3
 6501 19bb 00000000 		.4byte	substract
 6502 19bf 40       		.uleb128 0x40
 6503 19c0 C3060000 		.4byte	.LASF193
 6504 19c4 02       		.byte	0x2
 6505 19c5 52       		.byte	0x52
 6506 19c6 2D010000 		.4byte	0x12d
 6507 19ca 05       		.uleb128 0x5
 6508 19cb 03       		.byte	0x3
 6509 19cc 00000000 		.4byte	current_limit_status
 6510 19d0 40       		.uleb128 0x40
 6511 19d1 44030000 		.4byte	.LASF194
 6512 19d5 02       		.byte	0x2
 6513 19d6 55       		.byte	0x55
 6514 19d7 01060000 		.4byte	0x601
 6515 19db 05       		.uleb128 0x5
 6516 19dc 03       		.byte	0x3
 6517 19dd 00000000 		.4byte	cruise_pwmcfg
 6518 19e1 41       		.uleb128 0x41
 6519 19e2 E9000000 		.4byte	.LASF195
 6520 19e6 13       		.byte	0x13
 6521 19e7 9806     		.2byte	0x698
 6522 19e9 55020000 		.4byte	0x255
 6523 19ed 41       		.uleb128 0x41
 6524 19ee 64020000 		.4byte	.LASF196
 6525 19f2 0C       		.byte	0xc
 6526 19f3 C301     		.2byte	0x1c3
 6527 19f5 C9040000 		.4byte	0x4c9
 6528 19f9 42       		.uleb128 0x42
 6529 19fa F2030000 		.4byte	.LASF197
 6530 19fe 14       		.byte	0x14
 6531 19ff 0A       		.byte	0xa
 6532 1a00 38070000 		.4byte	0x738
 6533 1a04 43       		.uleb128 0x43
 6534 1a05 A3090000 		.4byte	.LASF198
 6535 1a09 01       		.byte	0x1
 6536 1a0a 28       		.byte	0x28
 6537 1a0b 1F1A0000 		.4byte	0x1a1f
 6538 1a0f 0A       		.uleb128 0xa
ARM GAS  C:\Users\srich\AppData\Local\Temp\cc32e3J8.s 			page 118


 6539 1a10 E7080000 		.4byte	0x8e7
 6540 1a14 0A       		.uleb128 0xa
 6541 1a15 D5000000 		.4byte	0xd5
 6542 1a19 0A       		.uleb128 0xa
 6543 1a1a 3A060000 		.4byte	0x63a
 6544 1a1e 00       		.byte	0
 6545 1a1f 44       		.uleb128 0x44
 6546 1a20 6B070000 		.4byte	.LASF200
 6547 1a24 15       		.byte	0x15
 6548 1a25 0E       		.byte	0xe
 6549 1a26 E0000000 		.4byte	0xe0
 6550 1a2a 391A0000 		.4byte	0x1a39
 6551 1a2e 0A       		.uleb128 0xa
 6552 1a2f 45060000 		.4byte	0x645
 6553 1a33 0A       		.uleb128 0xa
 6554 1a34 391A0000 		.4byte	0x1a39
 6555 1a38 00       		.byte	0
 6556 1a39 06       		.uleb128 0x6
 6557 1a3a 04       		.byte	0x4
 6558 1a3b 0C010000 		.4byte	0x10c
 6559 1a3f 43       		.uleb128 0x43
 6560 1a40 27020000 		.4byte	.LASF199
 6561 1a44 0B       		.byte	0xb
 6562 1a45 F4       		.byte	0xf4
 6563 1a46 551A0000 		.4byte	0x1a55
 6564 1a4a 0A       		.uleb128 0xa
 6565 1a4b 3F050000 		.4byte	0x53f
 6566 1a4f 0A       		.uleb128 0xa
 6567 1a50 0D060000 		.4byte	0x60d
 6568 1a54 00       		.byte	0
 6569 1a55 44       		.uleb128 0x44
 6570 1a56 CA090000 		.4byte	.LASF201
 6571 1a5a 12       		.byte	0x12
 6572 1a5b 14       		.byte	0x14
 6573 1a5c 0C010000 		.4byte	0x10c
 6574 1a60 6A1A0000 		.4byte	0x1a6a
 6575 1a64 0A       		.uleb128 0xa
 6576 1a65 25000000 		.4byte	0x25
 6577 1a69 00       		.byte	0
 6578 1a6a 45       		.uleb128 0x45
 6579 1a6b B0070000 		.4byte	.LASF203
 6580 1a6f 12       		.byte	0x12
 6581 1a70 11       		.byte	0x11
 6582 1a71 0C010000 		.4byte	0x10c
 6583 1a75 44       		.uleb128 0x44
 6584 1a76 39010000 		.4byte	.LASF202
 6585 1a7a 12       		.byte	0x12
 6586 1a7b 13       		.byte	0x13
 6587 1a7c 0C010000 		.4byte	0x10c
 6588 1a80 8A1A0000 		.4byte	0x1a8a
 6589 1a84 0A       		.uleb128 0xa
 6590 1a85 25000000 		.4byte	0x25
 6591 1a89 00       		.byte	0
 6592 1a8a 31       		.uleb128 0x31
 6593 1a8b 73010000 		.4byte	.LASF154
 6594 1a8f 02       		.byte	0x2
 6595 1a90 E4       		.byte	0xe4
ARM GAS  C:\Users\srich\AppData\Local\Temp\cc32e3J8.s 			page 119


 6596 1a91 2C000000 		.4byte	0x2c
 6597 1a95 9B1A0000 		.4byte	0x1a9b
 6598 1a99 1F       		.uleb128 0x1f
 6599 1a9a 00       		.byte	0
 6600 1a9b 45       		.uleb128 0x45
 6601 1a9c 36030000 		.4byte	.LASF204
 6602 1aa0 12       		.byte	0x12
 6603 1aa1 12       		.byte	0x12
 6604 1aa2 0C010000 		.4byte	0x10c
 6605 1aa6 43       		.uleb128 0x43
 6606 1aa7 1D0A0000 		.4byte	.LASF205
 6607 1aab 0B       		.byte	0xb
 6608 1aac F7       		.byte	0xf7
 6609 1aad C11A0000 		.4byte	0x1ac1
 6610 1ab1 0A       		.uleb128 0xa
 6611 1ab2 3F050000 		.4byte	0x53f
 6612 1ab6 0A       		.uleb128 0xa
 6613 1ab7 51050000 		.4byte	0x551
 6614 1abb 0A       		.uleb128 0xa
 6615 1abc 5D050000 		.4byte	0x55d
 6616 1ac0 00       		.byte	0
 6617 1ac1 44       		.uleb128 0x44
 6618 1ac2 1E040000 		.4byte	.LASF206
 6619 1ac6 10       		.byte	0x10
 6620 1ac7 25       		.byte	0x25
 6621 1ac8 EB000000 		.4byte	0xeb
 6622 1acc D61A0000 		.4byte	0x1ad6
 6623 1ad0 0A       		.uleb128 0xa
 6624 1ad1 D6060000 		.4byte	0x6d6
 6625 1ad5 00       		.byte	0
 6626 1ad6 44       		.uleb128 0x44
 6627 1ad7 5E040000 		.4byte	.LASF207
 6628 1adb 15       		.byte	0x15
 6629 1adc 0D       		.byte	0xd
 6630 1add E0000000 		.4byte	0xe0
 6631 1ae1 F01A0000 		.4byte	0x1af0
 6632 1ae5 0A       		.uleb128 0xa
 6633 1ae6 45060000 		.4byte	0x645
 6634 1aea 0A       		.uleb128 0xa
 6635 1aeb 0C010000 		.4byte	0x10c
 6636 1aef 00       		.byte	0
 6637 1af0 46       		.uleb128 0x46
 6638 1af1 37000000 		.4byte	.LASF208
 6639 1af5 16       		.byte	0x16
 6640 1af6 7501     		.2byte	0x175
 6641 1af8 021B0000 		.4byte	0x1b02
 6642 1afc 0A       		.uleb128 0xa
 6643 1afd 3F010000 		.4byte	0x13f
 6644 1b01 00       		.byte	0
 6645 1b02 44       		.uleb128 0x44
 6646 1b03 42000000 		.4byte	.LASF209
 6647 1b07 17       		.byte	0x17
 6648 1b08 1C       		.byte	0x1c
 6649 1b09 2C000000 		.4byte	0x2c
 6650 1b0d 1C1B0000 		.4byte	0x1b1c
 6651 1b11 0A       		.uleb128 0xa
 6652 1b12 D5000000 		.4byte	0xd5
ARM GAS  C:\Users\srich\AppData\Local\Temp\cc32e3J8.s 			page 120


 6653 1b16 0A       		.uleb128 0xa
 6654 1b17 D5000000 		.4byte	0xd5
 6655 1b1b 00       		.byte	0
 6656 1b1c 47       		.uleb128 0x47
 6657 1b1d 1A070000 		.4byte	.LASF210
 6658 1b21 18       		.byte	0x18
 6659 1b22 4C       		.byte	0x4c
 6660 1b23 8D000000 		.4byte	0x8d
 6661 1b27 0A       		.uleb128 0xa
 6662 1b28 D5000000 		.4byte	0xd5
 6663 1b2c 00       		.byte	0
 6664 1b2d 00       		.byte	0
 6665              		.section	.debug_abbrev,"",%progbits
 6666              	.Ldebug_abbrev0:
 6667 0000 01       		.uleb128 0x1
 6668 0001 11       		.uleb128 0x11
 6669 0002 01       		.byte	0x1
 6670 0003 25       		.uleb128 0x25
 6671 0004 0E       		.uleb128 0xe
 6672 0005 13       		.uleb128 0x13
 6673 0006 0B       		.uleb128 0xb
 6674 0007 03       		.uleb128 0x3
 6675 0008 0E       		.uleb128 0xe
 6676 0009 1B       		.uleb128 0x1b
 6677 000a 0E       		.uleb128 0xe
 6678 000b 55       		.uleb128 0x55
 6679 000c 17       		.uleb128 0x17
 6680 000d 11       		.uleb128 0x11
 6681 000e 01       		.uleb128 0x1
 6682 000f 10       		.uleb128 0x10
 6683 0010 17       		.uleb128 0x17
 6684 0011 00       		.byte	0
 6685 0012 00       		.byte	0
 6686 0013 02       		.uleb128 0x2
 6687 0014 24       		.uleb128 0x24
 6688 0015 00       		.byte	0
 6689 0016 0B       		.uleb128 0xb
 6690 0017 0B       		.uleb128 0xb
 6691 0018 3E       		.uleb128 0x3e
 6692 0019 0B       		.uleb128 0xb
 6693 001a 03       		.uleb128 0x3
 6694 001b 0E       		.uleb128 0xe
 6695 001c 00       		.byte	0
 6696 001d 00       		.byte	0
 6697 001e 03       		.uleb128 0x3
 6698 001f 24       		.uleb128 0x24
 6699 0020 00       		.byte	0
 6700 0021 0B       		.uleb128 0xb
 6701 0022 0B       		.uleb128 0xb
 6702 0023 3E       		.uleb128 0x3e
 6703 0024 0B       		.uleb128 0xb
 6704 0025 03       		.uleb128 0x3
 6705 0026 08       		.uleb128 0x8
 6706 0027 00       		.byte	0
 6707 0028 00       		.byte	0
 6708 0029 04       		.uleb128 0x4
 6709 002a 16       		.uleb128 0x16
ARM GAS  C:\Users\srich\AppData\Local\Temp\cc32e3J8.s 			page 121


 6710 002b 00       		.byte	0
 6711 002c 03       		.uleb128 0x3
 6712 002d 0E       		.uleb128 0xe
 6713 002e 3A       		.uleb128 0x3a
 6714 002f 0B       		.uleb128 0xb
 6715 0030 3B       		.uleb128 0x3b
 6716 0031 0B       		.uleb128 0xb
 6717 0032 49       		.uleb128 0x49
 6718 0033 13       		.uleb128 0x13
 6719 0034 00       		.byte	0
 6720 0035 00       		.byte	0
 6721 0036 05       		.uleb128 0x5
 6722 0037 0F       		.uleb128 0xf
 6723 0038 00       		.byte	0
 6724 0039 0B       		.uleb128 0xb
 6725 003a 0B       		.uleb128 0xb
 6726 003b 00       		.byte	0
 6727 003c 00       		.byte	0
 6728 003d 06       		.uleb128 0x6
 6729 003e 0F       		.uleb128 0xf
 6730 003f 00       		.byte	0
 6731 0040 0B       		.uleb128 0xb
 6732 0041 0B       		.uleb128 0xb
 6733 0042 49       		.uleb128 0x49
 6734 0043 13       		.uleb128 0x13
 6735 0044 00       		.byte	0
 6736 0045 00       		.byte	0
 6737 0046 07       		.uleb128 0x7
 6738 0047 26       		.uleb128 0x26
 6739 0048 00       		.byte	0
 6740 0049 49       		.uleb128 0x49
 6741 004a 13       		.uleb128 0x13
 6742 004b 00       		.byte	0
 6743 004c 00       		.byte	0
 6744 004d 08       		.uleb128 0x8
 6745 004e 35       		.uleb128 0x35
 6746 004f 00       		.byte	0
 6747 0050 49       		.uleb128 0x49
 6748 0051 13       		.uleb128 0x13
 6749 0052 00       		.byte	0
 6750 0053 00       		.byte	0
 6751 0054 09       		.uleb128 0x9
 6752 0055 15       		.uleb128 0x15
 6753 0056 01       		.byte	0x1
 6754 0057 27       		.uleb128 0x27
 6755 0058 19       		.uleb128 0x19
 6756 0059 49       		.uleb128 0x49
 6757 005a 13       		.uleb128 0x13
 6758 005b 01       		.uleb128 0x1
 6759 005c 13       		.uleb128 0x13
 6760 005d 00       		.byte	0
 6761 005e 00       		.byte	0
 6762 005f 0A       		.uleb128 0xa
 6763 0060 05       		.uleb128 0x5
 6764 0061 00       		.byte	0
 6765 0062 49       		.uleb128 0x49
 6766 0063 13       		.uleb128 0x13
ARM GAS  C:\Users\srich\AppData\Local\Temp\cc32e3J8.s 			page 122


 6767 0064 00       		.byte	0
 6768 0065 00       		.byte	0
 6769 0066 0B       		.uleb128 0xb
 6770 0067 13       		.uleb128 0x13
 6771 0068 01       		.byte	0x1
 6772 0069 03       		.uleb128 0x3
 6773 006a 0E       		.uleb128 0xe
 6774 006b 0B       		.uleb128 0xb
 6775 006c 0B       		.uleb128 0xb
 6776 006d 3A       		.uleb128 0x3a
 6777 006e 0B       		.uleb128 0xb
 6778 006f 3B       		.uleb128 0x3b
 6779 0070 0B       		.uleb128 0xb
 6780 0071 01       		.uleb128 0x1
 6781 0072 13       		.uleb128 0x13
 6782 0073 00       		.byte	0
 6783 0074 00       		.byte	0
 6784 0075 0C       		.uleb128 0xc
 6785 0076 0D       		.uleb128 0xd
 6786 0077 00       		.byte	0
 6787 0078 03       		.uleb128 0x3
 6788 0079 0E       		.uleb128 0xe
 6789 007a 3A       		.uleb128 0x3a
 6790 007b 0B       		.uleb128 0xb
 6791 007c 3B       		.uleb128 0x3b
 6792 007d 0B       		.uleb128 0xb
 6793 007e 49       		.uleb128 0x49
 6794 007f 13       		.uleb128 0x13
 6795 0080 38       		.uleb128 0x38
 6796 0081 0B       		.uleb128 0xb
 6797 0082 00       		.byte	0
 6798 0083 00       		.byte	0
 6799 0084 0D       		.uleb128 0xd
 6800 0085 0D       		.uleb128 0xd
 6801 0086 00       		.byte	0
 6802 0087 03       		.uleb128 0x3
 6803 0088 08       		.uleb128 0x8
 6804 0089 3A       		.uleb128 0x3a
 6805 008a 0B       		.uleb128 0xb
 6806 008b 3B       		.uleb128 0x3b
 6807 008c 0B       		.uleb128 0xb
 6808 008d 49       		.uleb128 0x49
 6809 008e 13       		.uleb128 0x13
 6810 008f 38       		.uleb128 0x38
 6811 0090 0B       		.uleb128 0xb
 6812 0091 00       		.byte	0
 6813 0092 00       		.byte	0
 6814 0093 0E       		.uleb128 0xe
 6815 0094 13       		.uleb128 0x13
 6816 0095 01       		.byte	0x1
 6817 0096 0B       		.uleb128 0xb
 6818 0097 0B       		.uleb128 0xb
 6819 0098 3A       		.uleb128 0x3a
 6820 0099 0B       		.uleb128 0xb
 6821 009a 3B       		.uleb128 0x3b
 6822 009b 0B       		.uleb128 0xb
 6823 009c 01       		.uleb128 0x1
ARM GAS  C:\Users\srich\AppData\Local\Temp\cc32e3J8.s 			page 123


 6824 009d 13       		.uleb128 0x13
 6825 009e 00       		.byte	0
 6826 009f 00       		.byte	0
 6827 00a0 0F       		.uleb128 0xf
 6828 00a1 01       		.uleb128 0x1
 6829 00a2 01       		.byte	0x1
 6830 00a3 49       		.uleb128 0x49
 6831 00a4 13       		.uleb128 0x13
 6832 00a5 01       		.uleb128 0x1
 6833 00a6 13       		.uleb128 0x13
 6834 00a7 00       		.byte	0
 6835 00a8 00       		.byte	0
 6836 00a9 10       		.uleb128 0x10
 6837 00aa 21       		.uleb128 0x21
 6838 00ab 00       		.byte	0
 6839 00ac 49       		.uleb128 0x49
 6840 00ad 13       		.uleb128 0x13
 6841 00ae 2F       		.uleb128 0x2f
 6842 00af 0B       		.uleb128 0xb
 6843 00b0 00       		.byte	0
 6844 00b1 00       		.byte	0
 6845 00b2 11       		.uleb128 0x11
 6846 00b3 13       		.uleb128 0x13
 6847 00b4 01       		.byte	0x1
 6848 00b5 0B       		.uleb128 0xb
 6849 00b6 0B       		.uleb128 0xb
 6850 00b7 3A       		.uleb128 0x3a
 6851 00b8 0B       		.uleb128 0xb
 6852 00b9 3B       		.uleb128 0x3b
 6853 00ba 05       		.uleb128 0x5
 6854 00bb 01       		.uleb128 0x1
 6855 00bc 13       		.uleb128 0x13
 6856 00bd 00       		.byte	0
 6857 00be 00       		.byte	0
 6858 00bf 12       		.uleb128 0x12
 6859 00c0 0D       		.uleb128 0xd
 6860 00c1 00       		.byte	0
 6861 00c2 03       		.uleb128 0x3
 6862 00c3 08       		.uleb128 0x8
 6863 00c4 3A       		.uleb128 0x3a
 6864 00c5 0B       		.uleb128 0xb
 6865 00c6 3B       		.uleb128 0x3b
 6866 00c7 05       		.uleb128 0x5
 6867 00c8 49       		.uleb128 0x49
 6868 00c9 13       		.uleb128 0x13
 6869 00ca 38       		.uleb128 0x38
 6870 00cb 0B       		.uleb128 0xb
 6871 00cc 00       		.byte	0
 6872 00cd 00       		.byte	0
 6873 00ce 13       		.uleb128 0x13
 6874 00cf 0D       		.uleb128 0xd
 6875 00d0 00       		.byte	0
 6876 00d1 03       		.uleb128 0x3
 6877 00d2 0E       		.uleb128 0xe
 6878 00d3 3A       		.uleb128 0x3a
 6879 00d4 0B       		.uleb128 0xb
 6880 00d5 3B       		.uleb128 0x3b
ARM GAS  C:\Users\srich\AppData\Local\Temp\cc32e3J8.s 			page 124


 6881 00d6 05       		.uleb128 0x5
 6882 00d7 49       		.uleb128 0x49
 6883 00d8 13       		.uleb128 0x13
 6884 00d9 38       		.uleb128 0x38
 6885 00da 0B       		.uleb128 0xb
 6886 00db 00       		.byte	0
 6887 00dc 00       		.byte	0
 6888 00dd 14       		.uleb128 0x14
 6889 00de 16       		.uleb128 0x16
 6890 00df 00       		.byte	0
 6891 00e0 03       		.uleb128 0x3
 6892 00e1 0E       		.uleb128 0xe
 6893 00e2 3A       		.uleb128 0x3a
 6894 00e3 0B       		.uleb128 0xb
 6895 00e4 3B       		.uleb128 0x3b
 6896 00e5 05       		.uleb128 0x5
 6897 00e6 49       		.uleb128 0x49
 6898 00e7 13       		.uleb128 0x13
 6899 00e8 00       		.byte	0
 6900 00e9 00       		.byte	0
 6901 00ea 15       		.uleb128 0x15
 6902 00eb 04       		.uleb128 0x4
 6903 00ec 01       		.byte	0x1
 6904 00ed 0B       		.uleb128 0xb
 6905 00ee 0B       		.uleb128 0xb
 6906 00ef 3A       		.uleb128 0x3a
 6907 00f0 0B       		.uleb128 0xb
 6908 00f1 3B       		.uleb128 0x3b
 6909 00f2 0B       		.uleb128 0xb
 6910 00f3 01       		.uleb128 0x1
 6911 00f4 13       		.uleb128 0x13
 6912 00f5 00       		.byte	0
 6913 00f6 00       		.byte	0
 6914 00f7 16       		.uleb128 0x16
 6915 00f8 28       		.uleb128 0x28
 6916 00f9 00       		.byte	0
 6917 00fa 03       		.uleb128 0x3
 6918 00fb 0E       		.uleb128 0xe
 6919 00fc 1C       		.uleb128 0x1c
 6920 00fd 0D       		.uleb128 0xd
 6921 00fe 00       		.byte	0
 6922 00ff 00       		.byte	0
 6923 0100 17       		.uleb128 0x17
 6924 0101 13       		.uleb128 0x13
 6925 0102 01       		.byte	0x1
 6926 0103 03       		.uleb128 0x3
 6927 0104 0E       		.uleb128 0xe
 6928 0105 0B       		.uleb128 0xb
 6929 0106 0B       		.uleb128 0xb
 6930 0107 3A       		.uleb128 0x3a
 6931 0108 0B       		.uleb128 0xb
 6932 0109 3B       		.uleb128 0x3b
 6933 010a 05       		.uleb128 0x5
 6934 010b 01       		.uleb128 0x1
 6935 010c 13       		.uleb128 0x13
 6936 010d 00       		.byte	0
 6937 010e 00       		.byte	0
ARM GAS  C:\Users\srich\AppData\Local\Temp\cc32e3J8.s 			page 125


 6938 010f 18       		.uleb128 0x18
 6939 0110 15       		.uleb128 0x15
 6940 0111 01       		.byte	0x1
 6941 0112 27       		.uleb128 0x27
 6942 0113 19       		.uleb128 0x19
 6943 0114 01       		.uleb128 0x1
 6944 0115 13       		.uleb128 0x13
 6945 0116 00       		.byte	0
 6946 0117 00       		.byte	0
 6947 0118 19       		.uleb128 0x19
 6948 0119 0D       		.uleb128 0xd
 6949 011a 00       		.byte	0
 6950 011b 03       		.uleb128 0x3
 6951 011c 0E       		.uleb128 0xe
 6952 011d 49       		.uleb128 0x49
 6953 011e 13       		.uleb128 0x13
 6954 011f 38       		.uleb128 0x38
 6955 0120 0B       		.uleb128 0xb
 6956 0121 34       		.uleb128 0x34
 6957 0122 19       		.uleb128 0x19
 6958 0123 00       		.byte	0
 6959 0124 00       		.byte	0
 6960 0125 1A       		.uleb128 0x1a
 6961 0126 04       		.uleb128 0x4
 6962 0127 01       		.byte	0x1
 6963 0128 03       		.uleb128 0x3
 6964 0129 0E       		.uleb128 0xe
 6965 012a 0B       		.uleb128 0xb
 6966 012b 0B       		.uleb128 0xb
 6967 012c 3A       		.uleb128 0x3a
 6968 012d 0B       		.uleb128 0xb
 6969 012e 3B       		.uleb128 0x3b
 6970 012f 0B       		.uleb128 0xb
 6971 0130 01       		.uleb128 0x1
 6972 0131 13       		.uleb128 0x13
 6973 0132 00       		.byte	0
 6974 0133 00       		.byte	0
 6975 0134 1B       		.uleb128 0x1b
 6976 0135 2E       		.uleb128 0x2e
 6977 0136 00       		.byte	0
 6978 0137 3F       		.uleb128 0x3f
 6979 0138 19       		.uleb128 0x19
 6980 0139 03       		.uleb128 0x3
 6981 013a 0E       		.uleb128 0xe
 6982 013b 3A       		.uleb128 0x3a
 6983 013c 0B       		.uleb128 0xb
 6984 013d 3B       		.uleb128 0x3b
 6985 013e 05       		.uleb128 0x5
 6986 013f 27       		.uleb128 0x27
 6987 0140 19       		.uleb128 0x19
 6988 0141 20       		.uleb128 0x20
 6989 0142 0B       		.uleb128 0xb
 6990 0143 00       		.byte	0
 6991 0144 00       		.byte	0
 6992 0145 1C       		.uleb128 0x1c
 6993 0146 2E       		.uleb128 0x2e
 6994 0147 01       		.byte	0x1
ARM GAS  C:\Users\srich\AppData\Local\Temp\cc32e3J8.s 			page 126


 6995 0148 03       		.uleb128 0x3
 6996 0149 0E       		.uleb128 0xe
 6997 014a 3A       		.uleb128 0x3a
 6998 014b 0B       		.uleb128 0xb
 6999 014c 3B       		.uleb128 0x3b
 7000 014d 0B       		.uleb128 0xb
 7001 014e 27       		.uleb128 0x27
 7002 014f 19       		.uleb128 0x19
 7003 0150 11       		.uleb128 0x11
 7004 0151 01       		.uleb128 0x1
 7005 0152 12       		.uleb128 0x12
 7006 0153 06       		.uleb128 0x6
 7007 0154 40       		.uleb128 0x40
 7008 0155 18       		.uleb128 0x18
 7009 0156 9742     		.uleb128 0x2117
 7010 0158 19       		.uleb128 0x19
 7011 0159 01       		.uleb128 0x1
 7012 015a 13       		.uleb128 0x13
 7013 015b 00       		.byte	0
 7014 015c 00       		.byte	0
 7015 015d 1D       		.uleb128 0x1d
 7016 015e 05       		.uleb128 0x5
 7017 015f 00       		.byte	0
 7018 0160 03       		.uleb128 0x3
 7019 0161 08       		.uleb128 0x8
 7020 0162 3A       		.uleb128 0x3a
 7021 0163 0B       		.uleb128 0xb
 7022 0164 3B       		.uleb128 0x3b
 7023 0165 0B       		.uleb128 0xb
 7024 0166 49       		.uleb128 0x49
 7025 0167 13       		.uleb128 0x13
 7026 0168 02       		.uleb128 0x2
 7027 0169 17       		.uleb128 0x17
 7028 016a 00       		.byte	0
 7029 016b 00       		.byte	0
 7030 016c 1E       		.uleb128 0x1e
 7031 016d 05       		.uleb128 0x5
 7032 016e 00       		.byte	0
 7033 016f 03       		.uleb128 0x3
 7034 0170 08       		.uleb128 0x8
 7035 0171 3A       		.uleb128 0x3a
 7036 0172 0B       		.uleb128 0xb
 7037 0173 3B       		.uleb128 0x3b
 7038 0174 0B       		.uleb128 0xb
 7039 0175 49       		.uleb128 0x49
 7040 0176 13       		.uleb128 0x13
 7041 0177 02       		.uleb128 0x2
 7042 0178 18       		.uleb128 0x18
 7043 0179 00       		.byte	0
 7044 017a 00       		.byte	0
 7045 017b 1F       		.uleb128 0x1f
 7046 017c 18       		.uleb128 0x18
 7047 017d 00       		.byte	0
 7048 017e 00       		.byte	0
 7049 017f 00       		.byte	0
 7050 0180 20       		.uleb128 0x20
 7051 0181 34       		.uleb128 0x34
ARM GAS  C:\Users\srich\AppData\Local\Temp\cc32e3J8.s 			page 127


 7052 0182 00       		.byte	0
 7053 0183 03       		.uleb128 0x3
 7054 0184 08       		.uleb128 0x8
 7055 0185 3A       		.uleb128 0x3a
 7056 0186 0B       		.uleb128 0xb
 7057 0187 3B       		.uleb128 0x3b
 7058 0188 0B       		.uleb128 0xb
 7059 0189 49       		.uleb128 0x49
 7060 018a 13       		.uleb128 0x13
 7061 018b 02       		.uleb128 0x2
 7062 018c 18       		.uleb128 0x18
 7063 018d 00       		.byte	0
 7064 018e 00       		.byte	0
 7065 018f 21       		.uleb128 0x21
 7066 0190 898201   		.uleb128 0x4109
 7067 0193 01       		.byte	0x1
 7068 0194 11       		.uleb128 0x11
 7069 0195 01       		.uleb128 0x1
 7070 0196 31       		.uleb128 0x31
 7071 0197 13       		.uleb128 0x13
 7072 0198 00       		.byte	0
 7073 0199 00       		.byte	0
 7074 019a 22       		.uleb128 0x22
 7075 019b 8A8201   		.uleb128 0x410a
 7076 019e 00       		.byte	0
 7077 019f 02       		.uleb128 0x2
 7078 01a0 18       		.uleb128 0x18
 7079 01a1 9142     		.uleb128 0x2111
 7080 01a3 18       		.uleb128 0x18
 7081 01a4 00       		.byte	0
 7082 01a5 00       		.byte	0
 7083 01a6 23       		.uleb128 0x23
 7084 01a7 2E       		.uleb128 0x2e
 7085 01a8 01       		.byte	0x1
 7086 01a9 3F       		.uleb128 0x3f
 7087 01aa 19       		.uleb128 0x19
 7088 01ab 03       		.uleb128 0x3
 7089 01ac 0E       		.uleb128 0xe
 7090 01ad 3A       		.uleb128 0x3a
 7091 01ae 0B       		.uleb128 0xb
 7092 01af 3B       		.uleb128 0x3b
 7093 01b0 0B       		.uleb128 0xb
 7094 01b1 27       		.uleb128 0x27
 7095 01b2 19       		.uleb128 0x19
 7096 01b3 11       		.uleb128 0x11
 7097 01b4 01       		.uleb128 0x1
 7098 01b5 12       		.uleb128 0x12
 7099 01b6 06       		.uleb128 0x6
 7100 01b7 40       		.uleb128 0x40
 7101 01b8 18       		.uleb128 0x18
 7102 01b9 9742     		.uleb128 0x2117
 7103 01bb 19       		.uleb128 0x19
 7104 01bc 01       		.uleb128 0x1
 7105 01bd 13       		.uleb128 0x13
 7106 01be 00       		.byte	0
 7107 01bf 00       		.byte	0
 7108 01c0 24       		.uleb128 0x24
ARM GAS  C:\Users\srich\AppData\Local\Temp\cc32e3J8.s 			page 128


 7109 01c1 898201   		.uleb128 0x4109
 7110 01c4 01       		.byte	0x1
 7111 01c5 11       		.uleb128 0x11
 7112 01c6 01       		.uleb128 0x1
 7113 01c7 31       		.uleb128 0x31
 7114 01c8 13       		.uleb128 0x13
 7115 01c9 01       		.uleb128 0x1
 7116 01ca 13       		.uleb128 0x13
 7117 01cb 00       		.byte	0
 7118 01cc 00       		.byte	0
 7119 01cd 25       		.uleb128 0x25
 7120 01ce 898201   		.uleb128 0x4109
 7121 01d1 01       		.byte	0x1
 7122 01d2 11       		.uleb128 0x11
 7123 01d3 01       		.uleb128 0x1
 7124 01d4 9542     		.uleb128 0x2115
 7125 01d6 19       		.uleb128 0x19
 7126 01d7 31       		.uleb128 0x31
 7127 01d8 13       		.uleb128 0x13
 7128 01d9 01       		.uleb128 0x1
 7129 01da 13       		.uleb128 0x13
 7130 01db 00       		.byte	0
 7131 01dc 00       		.byte	0
 7132 01dd 26       		.uleb128 0x26
 7133 01de 898201   		.uleb128 0x4109
 7134 01e1 00       		.byte	0
 7135 01e2 11       		.uleb128 0x11
 7136 01e3 01       		.uleb128 0x1
 7137 01e4 31       		.uleb128 0x31
 7138 01e5 13       		.uleb128 0x13
 7139 01e6 00       		.byte	0
 7140 01e7 00       		.byte	0
 7141 01e8 27       		.uleb128 0x27
 7142 01e9 2E       		.uleb128 0x2e
 7143 01ea 00       		.byte	0
 7144 01eb 31       		.uleb128 0x31
 7145 01ec 13       		.uleb128 0x13
 7146 01ed 11       		.uleb128 0x11
 7147 01ee 01       		.uleb128 0x1
 7148 01ef 12       		.uleb128 0x12
 7149 01f0 06       		.uleb128 0x6
 7150 01f1 40       		.uleb128 0x40
 7151 01f2 18       		.uleb128 0x18
 7152 01f3 9742     		.uleb128 0x2117
 7153 01f5 19       		.uleb128 0x19
 7154 01f6 00       		.byte	0
 7155 01f7 00       		.byte	0
 7156 01f8 28       		.uleb128 0x28
 7157 01f9 2E       		.uleb128 0x2e
 7158 01fa 00       		.byte	0
 7159 01fb 3F       		.uleb128 0x3f
 7160 01fc 19       		.uleb128 0x19
 7161 01fd 03       		.uleb128 0x3
 7162 01fe 0E       		.uleb128 0xe
 7163 01ff 3A       		.uleb128 0x3a
 7164 0200 0B       		.uleb128 0xb
 7165 0201 3B       		.uleb128 0x3b
ARM GAS  C:\Users\srich\AppData\Local\Temp\cc32e3J8.s 			page 129


 7166 0202 05       		.uleb128 0x5
 7167 0203 27       		.uleb128 0x27
 7168 0204 19       		.uleb128 0x19
 7169 0205 49       		.uleb128 0x49
 7170 0206 13       		.uleb128 0x13
 7171 0207 11       		.uleb128 0x11
 7172 0208 01       		.uleb128 0x1
 7173 0209 12       		.uleb128 0x12
 7174 020a 06       		.uleb128 0x6
 7175 020b 40       		.uleb128 0x40
 7176 020c 18       		.uleb128 0x18
 7177 020d 9742     		.uleb128 0x2117
 7178 020f 19       		.uleb128 0x19
 7179 0210 00       		.byte	0
 7180 0211 00       		.byte	0
 7181 0212 29       		.uleb128 0x29
 7182 0213 2E       		.uleb128 0x2e
 7183 0214 00       		.byte	0
 7184 0215 3F       		.uleb128 0x3f
 7185 0216 19       		.uleb128 0x19
 7186 0217 03       		.uleb128 0x3
 7187 0218 0E       		.uleb128 0xe
 7188 0219 3A       		.uleb128 0x3a
 7189 021a 0B       		.uleb128 0xb
 7190 021b 3B       		.uleb128 0x3b
 7191 021c 05       		.uleb128 0x5
 7192 021d 11       		.uleb128 0x11
 7193 021e 01       		.uleb128 0x1
 7194 021f 12       		.uleb128 0x12
 7195 0220 06       		.uleb128 0x6
 7196 0221 40       		.uleb128 0x40
 7197 0222 18       		.uleb128 0x18
 7198 0223 9742     		.uleb128 0x2117
 7199 0225 19       		.uleb128 0x19
 7200 0226 00       		.byte	0
 7201 0227 00       		.byte	0
 7202 0228 2A       		.uleb128 0x2a
 7203 0229 2E       		.uleb128 0x2e
 7204 022a 01       		.byte	0x1
 7205 022b 3F       		.uleb128 0x3f
 7206 022c 19       		.uleb128 0x19
 7207 022d 03       		.uleb128 0x3
 7208 022e 0E       		.uleb128 0xe
 7209 022f 3A       		.uleb128 0x3a
 7210 0230 0B       		.uleb128 0xb
 7211 0231 3B       		.uleb128 0x3b
 7212 0232 05       		.uleb128 0x5
 7213 0233 11       		.uleb128 0x11
 7214 0234 01       		.uleb128 0x1
 7215 0235 12       		.uleb128 0x12
 7216 0236 06       		.uleb128 0x6
 7217 0237 40       		.uleb128 0x40
 7218 0238 18       		.uleb128 0x18
 7219 0239 9742     		.uleb128 0x2117
 7220 023b 19       		.uleb128 0x19
 7221 023c 01       		.uleb128 0x1
 7222 023d 13       		.uleb128 0x13
ARM GAS  C:\Users\srich\AppData\Local\Temp\cc32e3J8.s 			page 130


 7223 023e 00       		.byte	0
 7224 023f 00       		.byte	0
 7225 0240 2B       		.uleb128 0x2b
 7226 0241 2E       		.uleb128 0x2e
 7227 0242 01       		.byte	0x1
 7228 0243 3F       		.uleb128 0x3f
 7229 0244 19       		.uleb128 0x19
 7230 0245 03       		.uleb128 0x3
 7231 0246 0E       		.uleb128 0xe
 7232 0247 3A       		.uleb128 0x3a
 7233 0248 0B       		.uleb128 0xb
 7234 0249 3B       		.uleb128 0x3b
 7235 024a 05       		.uleb128 0x5
 7236 024b 27       		.uleb128 0x27
 7237 024c 19       		.uleb128 0x19
 7238 024d 11       		.uleb128 0x11
 7239 024e 01       		.uleb128 0x1
 7240 024f 12       		.uleb128 0x12
 7241 0250 06       		.uleb128 0x6
 7242 0251 40       		.uleb128 0x40
 7243 0252 18       		.uleb128 0x18
 7244 0253 9642     		.uleb128 0x2116
 7245 0255 19       		.uleb128 0x19
 7246 0256 01       		.uleb128 0x1
 7247 0257 13       		.uleb128 0x13
 7248 0258 00       		.byte	0
 7249 0259 00       		.byte	0
 7250 025a 2C       		.uleb128 0x2c
 7251 025b 05       		.uleb128 0x5
 7252 025c 00       		.byte	0
 7253 025d 03       		.uleb128 0x3
 7254 025e 08       		.uleb128 0x8
 7255 025f 3A       		.uleb128 0x3a
 7256 0260 0B       		.uleb128 0xb
 7257 0261 3B       		.uleb128 0x3b
 7258 0262 05       		.uleb128 0x5
 7259 0263 49       		.uleb128 0x49
 7260 0264 13       		.uleb128 0x13
 7261 0265 02       		.uleb128 0x2
 7262 0266 17       		.uleb128 0x17
 7263 0267 00       		.byte	0
 7264 0268 00       		.byte	0
 7265 0269 2D       		.uleb128 0x2d
 7266 026a 2E       		.uleb128 0x2e
 7267 026b 00       		.byte	0
 7268 026c 3F       		.uleb128 0x3f
 7269 026d 19       		.uleb128 0x19
 7270 026e 03       		.uleb128 0x3
 7271 026f 0E       		.uleb128 0xe
 7272 0270 3A       		.uleb128 0x3a
 7273 0271 0B       		.uleb128 0xb
 7274 0272 3B       		.uleb128 0x3b
 7275 0273 05       		.uleb128 0x5
 7276 0274 49       		.uleb128 0x49
 7277 0275 13       		.uleb128 0x13
 7278 0276 11       		.uleb128 0x11
 7279 0277 01       		.uleb128 0x1
ARM GAS  C:\Users\srich\AppData\Local\Temp\cc32e3J8.s 			page 131


 7280 0278 12       		.uleb128 0x12
 7281 0279 06       		.uleb128 0x6
 7282 027a 40       		.uleb128 0x40
 7283 027b 18       		.uleb128 0x18
 7284 027c 9742     		.uleb128 0x2117
 7285 027e 19       		.uleb128 0x19
 7286 027f 00       		.byte	0
 7287 0280 00       		.byte	0
 7288 0281 2E       		.uleb128 0x2e
 7289 0282 2E       		.uleb128 0x2e
 7290 0283 01       		.byte	0x1
 7291 0284 3F       		.uleb128 0x3f
 7292 0285 19       		.uleb128 0x19
 7293 0286 03       		.uleb128 0x3
 7294 0287 0E       		.uleb128 0xe
 7295 0288 3A       		.uleb128 0x3a
 7296 0289 0B       		.uleb128 0xb
 7297 028a 3B       		.uleb128 0x3b
 7298 028b 05       		.uleb128 0x5
 7299 028c 27       		.uleb128 0x27
 7300 028d 19       		.uleb128 0x19
 7301 028e 49       		.uleb128 0x49
 7302 028f 13       		.uleb128 0x13
 7303 0290 11       		.uleb128 0x11
 7304 0291 01       		.uleb128 0x1
 7305 0292 12       		.uleb128 0x12
 7306 0293 06       		.uleb128 0x6
 7307 0294 40       		.uleb128 0x40
 7308 0295 18       		.uleb128 0x18
 7309 0296 9642     		.uleb128 0x2116
 7310 0298 19       		.uleb128 0x19
 7311 0299 01       		.uleb128 0x1
 7312 029a 13       		.uleb128 0x13
 7313 029b 00       		.byte	0
 7314 029c 00       		.byte	0
 7315 029d 2F       		.uleb128 0x2f
 7316 029e 05       		.uleb128 0x5
 7317 029f 00       		.byte	0
 7318 02a0 03       		.uleb128 0x3
 7319 02a1 0E       		.uleb128 0xe
 7320 02a2 3A       		.uleb128 0x3a
 7321 02a3 0B       		.uleb128 0xb
 7322 02a4 3B       		.uleb128 0x3b
 7323 02a5 05       		.uleb128 0x5
 7324 02a6 49       		.uleb128 0x49
 7325 02a7 13       		.uleb128 0x13
 7326 02a8 02       		.uleb128 0x2
 7327 02a9 17       		.uleb128 0x17
 7328 02aa 00       		.byte	0
 7329 02ab 00       		.byte	0
 7330 02ac 30       		.uleb128 0x30
 7331 02ad 2E       		.uleb128 0x2e
 7332 02ae 01       		.byte	0x1
 7333 02af 3F       		.uleb128 0x3f
 7334 02b0 19       		.uleb128 0x19
 7335 02b1 03       		.uleb128 0x3
 7336 02b2 0E       		.uleb128 0xe
ARM GAS  C:\Users\srich\AppData\Local\Temp\cc32e3J8.s 			page 132


 7337 02b3 3A       		.uleb128 0x3a
 7338 02b4 0B       		.uleb128 0xb
 7339 02b5 3B       		.uleb128 0x3b
 7340 02b6 0B       		.uleb128 0xb
 7341 02b7 27       		.uleb128 0x27
 7342 02b8 19       		.uleb128 0x19
 7343 02b9 11       		.uleb128 0x11
 7344 02ba 01       		.uleb128 0x1
 7345 02bb 12       		.uleb128 0x12
 7346 02bc 06       		.uleb128 0x6
 7347 02bd 40       		.uleb128 0x40
 7348 02be 18       		.uleb128 0x18
 7349 02bf 9642     		.uleb128 0x2116
 7350 02c1 19       		.uleb128 0x19
 7351 02c2 01       		.uleb128 0x1
 7352 02c3 13       		.uleb128 0x13
 7353 02c4 00       		.byte	0
 7354 02c5 00       		.byte	0
 7355 02c6 31       		.uleb128 0x31
 7356 02c7 2E       		.uleb128 0x2e
 7357 02c8 01       		.byte	0x1
 7358 02c9 3F       		.uleb128 0x3f
 7359 02ca 19       		.uleb128 0x19
 7360 02cb 03       		.uleb128 0x3
 7361 02cc 0E       		.uleb128 0xe
 7362 02cd 3A       		.uleb128 0x3a
 7363 02ce 0B       		.uleb128 0xb
 7364 02cf 3B       		.uleb128 0x3b
 7365 02d0 0B       		.uleb128 0xb
 7366 02d1 49       		.uleb128 0x49
 7367 02d2 13       		.uleb128 0x13
 7368 02d3 3C       		.uleb128 0x3c
 7369 02d4 19       		.uleb128 0x19
 7370 02d5 01       		.uleb128 0x1
 7371 02d6 13       		.uleb128 0x13
 7372 02d7 00       		.byte	0
 7373 02d8 00       		.byte	0
 7374 02d9 32       		.uleb128 0x32
 7375 02da 0B       		.uleb128 0xb
 7376 02db 01       		.byte	0x1
 7377 02dc 55       		.uleb128 0x55
 7378 02dd 17       		.uleb128 0x17
 7379 02de 01       		.uleb128 0x1
 7380 02df 13       		.uleb128 0x13
 7381 02e0 00       		.byte	0
 7382 02e1 00       		.byte	0
 7383 02e2 33       		.uleb128 0x33
 7384 02e3 0B       		.uleb128 0xb
 7385 02e4 01       		.byte	0x1
 7386 02e5 11       		.uleb128 0x11
 7387 02e6 01       		.uleb128 0x1
 7388 02e7 12       		.uleb128 0x12
 7389 02e8 06       		.uleb128 0x6
 7390 02e9 01       		.uleb128 0x1
 7391 02ea 13       		.uleb128 0x13
 7392 02eb 00       		.byte	0
 7393 02ec 00       		.byte	0
ARM GAS  C:\Users\srich\AppData\Local\Temp\cc32e3J8.s 			page 133


 7394 02ed 34       		.uleb128 0x34
 7395 02ee 34       		.uleb128 0x34
 7396 02ef 00       		.byte	0
 7397 02f0 03       		.uleb128 0x3
 7398 02f1 08       		.uleb128 0x8
 7399 02f2 3A       		.uleb128 0x3a
 7400 02f3 0B       		.uleb128 0xb
 7401 02f4 3B       		.uleb128 0x3b
 7402 02f5 05       		.uleb128 0x5
 7403 02f6 49       		.uleb128 0x49
 7404 02f7 13       		.uleb128 0x13
 7405 02f8 02       		.uleb128 0x2
 7406 02f9 18       		.uleb128 0x18
 7407 02fa 00       		.byte	0
 7408 02fb 00       		.byte	0
 7409 02fc 35       		.uleb128 0x35
 7410 02fd 898201   		.uleb128 0x4109
 7411 0300 01       		.byte	0x1
 7412 0301 11       		.uleb128 0x11
 7413 0302 01       		.uleb128 0x1
 7414 0303 00       		.byte	0
 7415 0304 00       		.byte	0
 7416 0305 36       		.uleb128 0x36
 7417 0306 2E       		.uleb128 0x2e
 7418 0307 01       		.byte	0x1
 7419 0308 3F       		.uleb128 0x3f
 7420 0309 19       		.uleb128 0x19
 7421 030a 03       		.uleb128 0x3
 7422 030b 0E       		.uleb128 0xe
 7423 030c 3A       		.uleb128 0x3a
 7424 030d 0B       		.uleb128 0xb
 7425 030e 3B       		.uleb128 0x3b
 7426 030f 05       		.uleb128 0x5
 7427 0310 27       		.uleb128 0x27
 7428 0311 19       		.uleb128 0x19
 7429 0312 11       		.uleb128 0x11
 7430 0313 01       		.uleb128 0x1
 7431 0314 12       		.uleb128 0x12
 7432 0315 06       		.uleb128 0x6
 7433 0316 40       		.uleb128 0x40
 7434 0317 18       		.uleb128 0x18
 7435 0318 9742     		.uleb128 0x2117
 7436 031a 19       		.uleb128 0x19
 7437 031b 01       		.uleb128 0x1
 7438 031c 13       		.uleb128 0x13
 7439 031d 00       		.byte	0
 7440 031e 00       		.byte	0
 7441 031f 37       		.uleb128 0x37
 7442 0320 34       		.uleb128 0x34
 7443 0321 00       		.byte	0
 7444 0322 03       		.uleb128 0x3
 7445 0323 0E       		.uleb128 0xe
 7446 0324 3A       		.uleb128 0x3a
 7447 0325 0B       		.uleb128 0xb
 7448 0326 3B       		.uleb128 0x3b
 7449 0327 05       		.uleb128 0x5
 7450 0328 49       		.uleb128 0x49
ARM GAS  C:\Users\srich\AppData\Local\Temp\cc32e3J8.s 			page 134


 7451 0329 13       		.uleb128 0x13
 7452 032a 02       		.uleb128 0x2
 7453 032b 17       		.uleb128 0x17
 7454 032c 00       		.byte	0
 7455 032d 00       		.byte	0
 7456 032e 38       		.uleb128 0x38
 7457 032f 0A       		.uleb128 0xa
 7458 0330 00       		.byte	0
 7459 0331 03       		.uleb128 0x3
 7460 0332 0E       		.uleb128 0xe
 7461 0333 3A       		.uleb128 0x3a
 7462 0334 0B       		.uleb128 0xb
 7463 0335 3B       		.uleb128 0x3b
 7464 0336 05       		.uleb128 0x5
 7465 0337 11       		.uleb128 0x11
 7466 0338 01       		.uleb128 0x1
 7467 0339 00       		.byte	0
 7468 033a 00       		.byte	0
 7469 033b 39       		.uleb128 0x39
 7470 033c 1D       		.uleb128 0x1d
 7471 033d 00       		.byte	0
 7472 033e 31       		.uleb128 0x31
 7473 033f 13       		.uleb128 0x13
 7474 0340 52       		.uleb128 0x52
 7475 0341 01       		.uleb128 0x1
 7476 0342 55       		.uleb128 0x55
 7477 0343 17       		.uleb128 0x17
 7478 0344 58       		.uleb128 0x58
 7479 0345 0B       		.uleb128 0xb
 7480 0346 59       		.uleb128 0x59
 7481 0347 05       		.uleb128 0x5
 7482 0348 00       		.byte	0
 7483 0349 00       		.byte	0
 7484 034a 3A       		.uleb128 0x3a
 7485 034b 898201   		.uleb128 0x4109
 7486 034e 01       		.byte	0x1
 7487 034f 11       		.uleb128 0x11
 7488 0350 01       		.uleb128 0x1
 7489 0351 01       		.uleb128 0x1
 7490 0352 13       		.uleb128 0x13
 7491 0353 00       		.byte	0
 7492 0354 00       		.byte	0
 7493 0355 3B       		.uleb128 0x3b
 7494 0356 898201   		.uleb128 0x4109
 7495 0359 01       		.byte	0x1
 7496 035a 11       		.uleb128 0x11
 7497 035b 01       		.uleb128 0x1
 7498 035c 9542     		.uleb128 0x2115
 7499 035e 19       		.uleb128 0x19
 7500 035f 31       		.uleb128 0x31
 7501 0360 13       		.uleb128 0x13
 7502 0361 00       		.byte	0
 7503 0362 00       		.byte	0
 7504 0363 3C       		.uleb128 0x3c
 7505 0364 34       		.uleb128 0x34
 7506 0365 00       		.byte	0
 7507 0366 03       		.uleb128 0x3
ARM GAS  C:\Users\srich\AppData\Local\Temp\cc32e3J8.s 			page 135


 7508 0367 0E       		.uleb128 0xe
 7509 0368 3A       		.uleb128 0x3a
 7510 0369 0B       		.uleb128 0xb
 7511 036a 3B       		.uleb128 0x3b
 7512 036b 0B       		.uleb128 0xb
 7513 036c 49       		.uleb128 0x49
 7514 036d 13       		.uleb128 0x13
 7515 036e 00       		.byte	0
 7516 036f 00       		.byte	0
 7517 0370 3D       		.uleb128 0x3d
 7518 0371 34       		.uleb128 0x34
 7519 0372 00       		.byte	0
 7520 0373 03       		.uleb128 0x3
 7521 0374 0E       		.uleb128 0xe
 7522 0375 3A       		.uleb128 0x3a
 7523 0376 0B       		.uleb128 0xb
 7524 0377 3B       		.uleb128 0x3b
 7525 0378 0B       		.uleb128 0xb
 7526 0379 49       		.uleb128 0x49
 7527 037a 13       		.uleb128 0x13
 7528 037b 1C       		.uleb128 0x1c
 7529 037c 0A       		.uleb128 0xa
 7530 037d 00       		.byte	0
 7531 037e 00       		.byte	0
 7532 037f 3E       		.uleb128 0x3e
 7533 0380 34       		.uleb128 0x34
 7534 0381 00       		.byte	0
 7535 0382 03       		.uleb128 0x3
 7536 0383 0E       		.uleb128 0xe
 7537 0384 3A       		.uleb128 0x3a
 7538 0385 0B       		.uleb128 0xb
 7539 0386 3B       		.uleb128 0x3b
 7540 0387 0B       		.uleb128 0xb
 7541 0388 49       		.uleb128 0x49
 7542 0389 13       		.uleb128 0x13
 7543 038a 1C       		.uleb128 0x1c
 7544 038b 06       		.uleb128 0x6
 7545 038c 00       		.byte	0
 7546 038d 00       		.byte	0
 7547 038e 3F       		.uleb128 0x3f
 7548 038f 34       		.uleb128 0x34
 7549 0390 00       		.byte	0
 7550 0391 03       		.uleb128 0x3
 7551 0392 0E       		.uleb128 0xe
 7552 0393 3A       		.uleb128 0x3a
 7553 0394 0B       		.uleb128 0xb
 7554 0395 3B       		.uleb128 0x3b
 7555 0396 0B       		.uleb128 0xb
 7556 0397 49       		.uleb128 0x49
 7557 0398 13       		.uleb128 0x13
 7558 0399 1C       		.uleb128 0x1c
 7559 039a 0B       		.uleb128 0xb
 7560 039b 00       		.byte	0
 7561 039c 00       		.byte	0
 7562 039d 40       		.uleb128 0x40
 7563 039e 34       		.uleb128 0x34
 7564 039f 00       		.byte	0
ARM GAS  C:\Users\srich\AppData\Local\Temp\cc32e3J8.s 			page 136


 7565 03a0 03       		.uleb128 0x3
 7566 03a1 0E       		.uleb128 0xe
 7567 03a2 3A       		.uleb128 0x3a
 7568 03a3 0B       		.uleb128 0xb
 7569 03a4 3B       		.uleb128 0x3b
 7570 03a5 0B       		.uleb128 0xb
 7571 03a6 49       		.uleb128 0x49
 7572 03a7 13       		.uleb128 0x13
 7573 03a8 02       		.uleb128 0x2
 7574 03a9 18       		.uleb128 0x18
 7575 03aa 00       		.byte	0
 7576 03ab 00       		.byte	0
 7577 03ac 41       		.uleb128 0x41
 7578 03ad 34       		.uleb128 0x34
 7579 03ae 00       		.byte	0
 7580 03af 03       		.uleb128 0x3
 7581 03b0 0E       		.uleb128 0xe
 7582 03b1 3A       		.uleb128 0x3a
 7583 03b2 0B       		.uleb128 0xb
 7584 03b3 3B       		.uleb128 0x3b
 7585 03b4 05       		.uleb128 0x5
 7586 03b5 49       		.uleb128 0x49
 7587 03b6 13       		.uleb128 0x13
 7588 03b7 3F       		.uleb128 0x3f
 7589 03b8 19       		.uleb128 0x19
 7590 03b9 3C       		.uleb128 0x3c
 7591 03ba 19       		.uleb128 0x19
 7592 03bb 00       		.byte	0
 7593 03bc 00       		.byte	0
 7594 03bd 42       		.uleb128 0x42
 7595 03be 34       		.uleb128 0x34
 7596 03bf 00       		.byte	0
 7597 03c0 03       		.uleb128 0x3
 7598 03c1 0E       		.uleb128 0xe
 7599 03c2 3A       		.uleb128 0x3a
 7600 03c3 0B       		.uleb128 0xb
 7601 03c4 3B       		.uleb128 0x3b
 7602 03c5 0B       		.uleb128 0xb
 7603 03c6 49       		.uleb128 0x49
 7604 03c7 13       		.uleb128 0x13
 7605 03c8 3F       		.uleb128 0x3f
 7606 03c9 19       		.uleb128 0x19
 7607 03ca 3C       		.uleb128 0x3c
 7608 03cb 19       		.uleb128 0x19
 7609 03cc 00       		.byte	0
 7610 03cd 00       		.byte	0
 7611 03ce 43       		.uleb128 0x43
 7612 03cf 2E       		.uleb128 0x2e
 7613 03d0 01       		.byte	0x1
 7614 03d1 3F       		.uleb128 0x3f
 7615 03d2 19       		.uleb128 0x19
 7616 03d3 03       		.uleb128 0x3
 7617 03d4 0E       		.uleb128 0xe
 7618 03d5 3A       		.uleb128 0x3a
 7619 03d6 0B       		.uleb128 0xb
 7620 03d7 3B       		.uleb128 0x3b
 7621 03d8 0B       		.uleb128 0xb
ARM GAS  C:\Users\srich\AppData\Local\Temp\cc32e3J8.s 			page 137


 7622 03d9 27       		.uleb128 0x27
 7623 03da 19       		.uleb128 0x19
 7624 03db 3C       		.uleb128 0x3c
 7625 03dc 19       		.uleb128 0x19
 7626 03dd 01       		.uleb128 0x1
 7627 03de 13       		.uleb128 0x13
 7628 03df 00       		.byte	0
 7629 03e0 00       		.byte	0
 7630 03e1 44       		.uleb128 0x44
 7631 03e2 2E       		.uleb128 0x2e
 7632 03e3 01       		.byte	0x1
 7633 03e4 3F       		.uleb128 0x3f
 7634 03e5 19       		.uleb128 0x19
 7635 03e6 03       		.uleb128 0x3
 7636 03e7 0E       		.uleb128 0xe
 7637 03e8 3A       		.uleb128 0x3a
 7638 03e9 0B       		.uleb128 0xb
 7639 03ea 3B       		.uleb128 0x3b
 7640 03eb 0B       		.uleb128 0xb
 7641 03ec 27       		.uleb128 0x27
 7642 03ed 19       		.uleb128 0x19
 7643 03ee 49       		.uleb128 0x49
 7644 03ef 13       		.uleb128 0x13
 7645 03f0 3C       		.uleb128 0x3c
 7646 03f1 19       		.uleb128 0x19
 7647 03f2 01       		.uleb128 0x1
 7648 03f3 13       		.uleb128 0x13
 7649 03f4 00       		.byte	0
 7650 03f5 00       		.byte	0
 7651 03f6 45       		.uleb128 0x45
 7652 03f7 2E       		.uleb128 0x2e
 7653 03f8 00       		.byte	0
 7654 03f9 3F       		.uleb128 0x3f
 7655 03fa 19       		.uleb128 0x19
 7656 03fb 03       		.uleb128 0x3
 7657 03fc 0E       		.uleb128 0xe
 7658 03fd 3A       		.uleb128 0x3a
 7659 03fe 0B       		.uleb128 0xb
 7660 03ff 3B       		.uleb128 0x3b
 7661 0400 0B       		.uleb128 0xb
 7662 0401 27       		.uleb128 0x27
 7663 0402 19       		.uleb128 0x19
 7664 0403 49       		.uleb128 0x49
 7665 0404 13       		.uleb128 0x13
 7666 0405 3C       		.uleb128 0x3c
 7667 0406 19       		.uleb128 0x19
 7668 0407 00       		.byte	0
 7669 0408 00       		.byte	0
 7670 0409 46       		.uleb128 0x46
 7671 040a 2E       		.uleb128 0x2e
 7672 040b 01       		.byte	0x1
 7673 040c 3F       		.uleb128 0x3f
 7674 040d 19       		.uleb128 0x19
 7675 040e 03       		.uleb128 0x3
 7676 040f 0E       		.uleb128 0xe
 7677 0410 3A       		.uleb128 0x3a
 7678 0411 0B       		.uleb128 0xb
ARM GAS  C:\Users\srich\AppData\Local\Temp\cc32e3J8.s 			page 138


 7679 0412 3B       		.uleb128 0x3b
 7680 0413 05       		.uleb128 0x5
 7681 0414 27       		.uleb128 0x27
 7682 0415 19       		.uleb128 0x19
 7683 0416 3C       		.uleb128 0x3c
 7684 0417 19       		.uleb128 0x19
 7685 0418 01       		.uleb128 0x1
 7686 0419 13       		.uleb128 0x13
 7687 041a 00       		.byte	0
 7688 041b 00       		.byte	0
 7689 041c 47       		.uleb128 0x47
 7690 041d 2E       		.uleb128 0x2e
 7691 041e 01       		.byte	0x1
 7692 041f 3F       		.uleb128 0x3f
 7693 0420 19       		.uleb128 0x19
 7694 0421 03       		.uleb128 0x3
 7695 0422 0E       		.uleb128 0xe
 7696 0423 3A       		.uleb128 0x3a
 7697 0424 0B       		.uleb128 0xb
 7698 0425 3B       		.uleb128 0x3b
 7699 0426 0B       		.uleb128 0xb
 7700 0427 27       		.uleb128 0x27
 7701 0428 19       		.uleb128 0x19
 7702 0429 49       		.uleb128 0x49
 7703 042a 13       		.uleb128 0x13
 7704 042b 3C       		.uleb128 0x3c
 7705 042c 19       		.uleb128 0x19
 7706 042d 00       		.byte	0
 7707 042e 00       		.byte	0
 7708 042f 00       		.byte	0
 7709              		.section	.debug_loc,"",%progbits
 7710              	.Ldebug_loc0:
 7711              	.LLST0:
 7712 0000 00000000 		.4byte	.LVL0
 7713 0004 11000000 		.4byte	.LVL1-1
 7714 0008 0100     		.2byte	0x1
 7715 000a 50       		.byte	0x50
 7716 000b 11000000 		.4byte	.LVL1-1
 7717 000f 1C000000 		.4byte	.LFE118
 7718 0013 0400     		.2byte	0x4
 7719 0015 F3       		.byte	0xf3
 7720 0016 01       		.uleb128 0x1
 7721 0017 50       		.byte	0x50
 7722 0018 9F       		.byte	0x9f
 7723 0019 00000000 		.4byte	0
 7724 001d 00000000 		.4byte	0
 7725              	.LLST1:
 7726 0021 00000000 		.4byte	.LVL8
 7727 0025 0C000000 		.4byte	.LVL9
 7728 0029 0600     		.2byte	0x6
 7729 002b 50       		.byte	0x50
 7730 002c 93       		.byte	0x93
 7731 002d 04       		.uleb128 0x4
 7732 002e 51       		.byte	0x51
 7733 002f 93       		.byte	0x93
 7734 0030 04       		.uleb128 0x4
 7735 0031 0C000000 		.4byte	.LVL9
ARM GAS  C:\Users\srich\AppData\Local\Temp\cc32e3J8.s 			page 139


 7736 0035 4C000000 		.4byte	.LFE131
 7737 0039 0600     		.2byte	0x6
 7738 003b F3       		.byte	0xf3
 7739 003c 03       		.uleb128 0x3
 7740 003d F5       		.byte	0xf5
 7741 003e 00       		.uleb128 0
 7742 003f 25       		.uleb128 0x25
 7743 0040 9F       		.byte	0x9f
 7744 0041 00000000 		.4byte	0
 7745 0045 00000000 		.4byte	0
 7746              	.LLST2:
 7747 0049 00000000 		.4byte	.LVL15
 7748 004d 0C000000 		.4byte	.LVL16
 7749 0051 0600     		.2byte	0x6
 7750 0053 50       		.byte	0x50
 7751 0054 93       		.byte	0x93
 7752 0055 04       		.uleb128 0x4
 7753 0056 51       		.byte	0x51
 7754 0057 93       		.byte	0x93
 7755 0058 04       		.uleb128 0x4
 7756 0059 0C000000 		.4byte	.LVL16
 7757 005d 2C000000 		.4byte	.LFE132
 7758 0061 0600     		.2byte	0x6
 7759 0063 F3       		.byte	0xf3
 7760 0064 03       		.uleb128 0x3
 7761 0065 F5       		.byte	0xf5
 7762 0066 00       		.uleb128 0
 7763 0067 25       		.uleb128 0x25
 7764 0068 9F       		.byte	0x9f
 7765 0069 00000000 		.4byte	0
 7766 006d 00000000 		.4byte	0
 7767              	.LLST3:
 7768 0071 00000000 		.4byte	.LVL22
 7769 0075 08000000 		.4byte	.LVL23
 7770 0079 0100     		.2byte	0x1
 7771 007b 50       		.byte	0x50
 7772 007c 08000000 		.4byte	.LVL23
 7773 0080 C0010000 		.4byte	.LFE137
 7774 0084 0400     		.2byte	0x4
 7775 0086 F3       		.byte	0xf3
 7776 0087 01       		.uleb128 0x1
 7777 0088 50       		.byte	0x50
 7778 0089 9F       		.byte	0x9f
 7779 008a 00000000 		.4byte	0
 7780 008e 00000000 		.4byte	0
 7781              	.LLST4:
 7782 0092 00000000 		.4byte	.LVL22
 7783 0096 0C000000 		.4byte	.LVL24
 7784 009a 0100     		.2byte	0x1
 7785 009c 51       		.byte	0x51
 7786 009d 0C000000 		.4byte	.LVL24
 7787 00a1 C0010000 		.4byte	.LFE137
 7788 00a5 0400     		.2byte	0x4
 7789 00a7 F3       		.byte	0xf3
 7790 00a8 01       		.uleb128 0x1
 7791 00a9 51       		.byte	0x51
 7792 00aa 9F       		.byte	0x9f
ARM GAS  C:\Users\srich\AppData\Local\Temp\cc32e3J8.s 			page 140


 7793 00ab 00000000 		.4byte	0
 7794 00af 00000000 		.4byte	0
 7795              	.LLST5:
 7796 00b3 00000000 		.4byte	.LVL22
 7797 00b7 15000000 		.4byte	.LVL25-1
 7798 00bb 0100     		.2byte	0x1
 7799 00bd 52       		.byte	0x52
 7800 00be 15000000 		.4byte	.LVL25-1
 7801 00c2 C0010000 		.4byte	.LFE137
 7802 00c6 0200     		.2byte	0x2
 7803 00c8 91       		.byte	0x91
 7804 00c9 54       		.sleb128 -44
 7805 00ca 00000000 		.4byte	0
 7806 00ce 00000000 		.4byte	0
 7807              	.LLST6:
 7808 00d2 00000000 		.4byte	.LVL22
 7809 00d6 15000000 		.4byte	.LVL25-1
 7810 00da 0100     		.2byte	0x1
 7811 00dc 53       		.byte	0x53
 7812 00dd 15000000 		.4byte	.LVL25-1
 7813 00e1 C0010000 		.4byte	.LFE137
 7814 00e5 0100     		.2byte	0x1
 7815 00e7 56       		.byte	0x56
 7816 00e8 00000000 		.4byte	0
 7817 00ec 00000000 		.4byte	0
 7818              	.LLST7:
 7819 00f0 00000000 		.4byte	.LVL22
 7820 00f4 3E010000 		.4byte	.LVL45
 7821 00f8 0200     		.2byte	0x2
 7822 00fa 91       		.byte	0x91
 7823 00fb 00       		.sleb128 0
 7824 00fc 3E010000 		.4byte	.LVL45
 7825 0100 C0010000 		.4byte	.LFE137
 7826 0104 0200     		.2byte	0x2
 7827 0106 91       		.byte	0x91
 7828 0107 00       		.sleb128 0
 7829 0108 00000000 		.4byte	0
 7830 010c 00000000 		.4byte	0
 7831              	.LLST8:
 7832 0110 00000000 		.4byte	.LVL22
 7833 0114 3E010000 		.4byte	.LVL45
 7834 0118 0200     		.2byte	0x2
 7835 011a 91       		.byte	0x91
 7836 011b 04       		.sleb128 4
 7837 011c 3E010000 		.4byte	.LVL45
 7838 0120 C0010000 		.4byte	.LFE137
 7839 0124 0200     		.2byte	0x2
 7840 0126 91       		.byte	0x91
 7841 0127 04       		.sleb128 4
 7842 0128 00000000 		.4byte	0
 7843 012c 00000000 		.4byte	0
 7844              	.LLST9:
 7845 0130 00000000 		.4byte	.LVL22
 7846 0134 3E010000 		.4byte	.LVL45
 7847 0138 0200     		.2byte	0x2
 7848 013a 91       		.byte	0x91
 7849 013b 08       		.sleb128 8
ARM GAS  C:\Users\srich\AppData\Local\Temp\cc32e3J8.s 			page 141


 7850 013c 3E010000 		.4byte	.LVL45
 7851 0140 C0010000 		.4byte	.LFE137
 7852 0144 0200     		.2byte	0x2
 7853 0146 91       		.byte	0x91
 7854 0147 08       		.sleb128 8
 7855 0148 00000000 		.4byte	0
 7856 014c 00000000 		.4byte	0
 7857              	.LLST10:
 7858 0150 00000000 		.4byte	.LVL22
 7859 0154 3E010000 		.4byte	.LVL45
 7860 0158 0200     		.2byte	0x2
 7861 015a 91       		.byte	0x91
 7862 015b 0C       		.sleb128 12
 7863 015c 3E010000 		.4byte	.LVL45
 7864 0160 C0010000 		.4byte	.LFE137
 7865 0164 0200     		.2byte	0x2
 7866 0166 91       		.byte	0x91
 7867 0167 0C       		.sleb128 12
 7868 0168 00000000 		.4byte	0
 7869 016c 00000000 		.4byte	0
 7870              	.LLST11:
 7871 0170 00000000 		.4byte	.LVL22
 7872 0174 3E010000 		.4byte	.LVL45
 7873 0178 0200     		.2byte	0x2
 7874 017a 91       		.byte	0x91
 7875 017b 10       		.sleb128 16
 7876 017c 3E010000 		.4byte	.LVL45
 7877 0180 C0010000 		.4byte	.LFE137
 7878 0184 0200     		.2byte	0x2
 7879 0186 91       		.byte	0x91
 7880 0187 10       		.sleb128 16
 7881 0188 00000000 		.4byte	0
 7882 018c 00000000 		.4byte	0
 7883              	.LLST12:
 7884 0190 00000000 		.4byte	.LVL22
 7885 0194 3E010000 		.4byte	.LVL45
 7886 0198 0200     		.2byte	0x2
 7887 019a 91       		.byte	0x91
 7888 019b 14       		.sleb128 20
 7889 019c 3E010000 		.4byte	.LVL45
 7890 01a0 C0010000 		.4byte	.LFE137
 7891 01a4 0200     		.2byte	0x2
 7892 01a6 91       		.byte	0x91
 7893 01a7 14       		.sleb128 20
 7894 01a8 00000000 		.4byte	0
 7895 01ac 00000000 		.4byte	0
 7896              	.LLST13:
 7897 01b0 00000000 		.4byte	.LVL73
 7898 01b4 11000000 		.4byte	.LVL75-1
 7899 01b8 0100     		.2byte	0x1
 7900 01ba 50       		.byte	0x50
 7901 01bb 11000000 		.4byte	.LVL75-1
 7902 01bf 30010000 		.4byte	.LVL100
 7903 01c3 0100     		.2byte	0x1
 7904 01c5 54       		.byte	0x54
 7905 01c6 30010000 		.4byte	.LVL100
 7906 01ca B0010000 		.4byte	.LFE138
ARM GAS  C:\Users\srich\AppData\Local\Temp\cc32e3J8.s 			page 142


 7907 01ce 0400     		.2byte	0x4
 7908 01d0 F3       		.byte	0xf3
 7909 01d1 01       		.uleb128 0x1
 7910 01d2 50       		.byte	0x50
 7911 01d3 9F       		.byte	0x9f
 7912 01d4 00000000 		.4byte	0
 7913 01d8 00000000 		.4byte	0
 7914              	.LLST14:
 7915 01dc 00000000 		.4byte	.LVL73
 7916 01e0 06000000 		.4byte	.LVL74
 7917 01e4 0100     		.2byte	0x1
 7918 01e6 51       		.byte	0x51
 7919 01e7 06000000 		.4byte	.LVL74
 7920 01eb B0010000 		.4byte	.LFE138
 7921 01ef 0400     		.2byte	0x4
 7922 01f1 F3       		.byte	0xf3
 7923 01f2 01       		.uleb128 0x1
 7924 01f3 51       		.byte	0x51
 7925 01f4 9F       		.byte	0x9f
 7926 01f5 00000000 		.4byte	0
 7927 01f9 00000000 		.4byte	0
 7928              	.LLST15:
 7929 01fd 00000000 		.4byte	.LVL73
 7930 0201 11000000 		.4byte	.LVL75-1
 7931 0205 0100     		.2byte	0x1
 7932 0207 52       		.byte	0x52
 7933 0208 11000000 		.4byte	.LVL75-1
 7934 020c B0010000 		.4byte	.LFE138
 7935 0210 0400     		.2byte	0x4
 7936 0212 F3       		.byte	0xf3
 7937 0213 01       		.uleb128 0x1
 7938 0214 52       		.byte	0x52
 7939 0215 9F       		.byte	0x9f
 7940 0216 00000000 		.4byte	0
 7941 021a 00000000 		.4byte	0
 7942              	.LLST16:
 7943 021e 00000000 		.4byte	.LVL101
 7944 0222 0D000000 		.4byte	.LVL103-1
 7945 0226 0100     		.2byte	0x1
 7946 0228 50       		.byte	0x50
 7947 0229 0D000000 		.4byte	.LVL103-1
 7948 022d 42000000 		.4byte	.LVL109
 7949 0231 0100     		.2byte	0x1
 7950 0233 54       		.byte	0x54
 7951 0234 42000000 		.4byte	.LVL109
 7952 0238 45000000 		.4byte	.LVL110-1
 7953 023c 0100     		.2byte	0x1
 7954 023e 50       		.byte	0x50
 7955 023f 45000000 		.4byte	.LVL110-1
 7956 0243 46000000 		.4byte	.LVL110
 7957 0247 0400     		.2byte	0x4
 7958 0249 F3       		.byte	0xf3
 7959 024a 01       		.uleb128 0x1
 7960 024b 50       		.byte	0x50
 7961 024c 9F       		.byte	0x9f
 7962 024d 46000000 		.4byte	.LVL110
 7963 0251 B8000000 		.4byte	.LVL122
ARM GAS  C:\Users\srich\AppData\Local\Temp\cc32e3J8.s 			page 143


 7964 0255 0100     		.2byte	0x1
 7965 0257 54       		.byte	0x54
 7966 0258 B8000000 		.4byte	.LVL122
 7967 025c BB000000 		.4byte	.LVL123-1
 7968 0260 0100     		.2byte	0x1
 7969 0262 50       		.byte	0x50
 7970 0263 BB000000 		.4byte	.LVL123-1
 7971 0267 BC000000 		.4byte	.LVL123
 7972 026b 0400     		.2byte	0x4
 7973 026d F3       		.byte	0xf3
 7974 026e 01       		.uleb128 0x1
 7975 026f 50       		.byte	0x50
 7976 0270 9F       		.byte	0x9f
 7977 0271 BC000000 		.4byte	.LVL123
 7978 0275 08010000 		.4byte	.LVL134
 7979 0279 0100     		.2byte	0x1
 7980 027b 54       		.byte	0x54
 7981 027c 08010000 		.4byte	.LVL134
 7982 0280 0B010000 		.4byte	.LVL135-1
 7983 0284 0100     		.2byte	0x1
 7984 0286 50       		.byte	0x50
 7985 0287 0B010000 		.4byte	.LVL135-1
 7986 028b 94010000 		.4byte	.LFE139
 7987 028f 0100     		.2byte	0x1
 7988 0291 54       		.byte	0x54
 7989 0292 00000000 		.4byte	0
 7990 0296 00000000 		.4byte	0
 7991              	.LLST17:
 7992 029a 00000000 		.4byte	.LVL101
 7993 029e 08000000 		.4byte	.LVL102
 7994 02a2 0100     		.2byte	0x1
 7995 02a4 51       		.byte	0x51
 7996 02a5 08000000 		.4byte	.LVL102
 7997 02a9 3A000000 		.4byte	.LVL108
 7998 02ad 0100     		.2byte	0x1
 7999 02af 55       		.byte	0x55
 8000 02b0 3A000000 		.4byte	.LVL108
 8001 02b4 46000000 		.4byte	.LVL110
 8002 02b8 0400     		.2byte	0x4
 8003 02ba F3       		.byte	0xf3
 8004 02bb 01       		.uleb128 0x1
 8005 02bc 51       		.byte	0x51
 8006 02bd 9F       		.byte	0x9f
 8007 02be 46000000 		.4byte	.LVL110
 8008 02c2 48000000 		.4byte	.LVL111
 8009 02c6 0100     		.2byte	0x1
 8010 02c8 55       		.byte	0x55
 8011 02c9 48000000 		.4byte	.LVL111
 8012 02cd E6000000 		.4byte	.LVL130
 8013 02d1 0400     		.2byte	0x4
 8014 02d3 F3       		.byte	0xf3
 8015 02d4 01       		.uleb128 0x1
 8016 02d5 51       		.byte	0x51
 8017 02d6 9F       		.byte	0x9f
 8018 02d7 E6000000 		.4byte	.LVL130
 8019 02db 10010000 		.4byte	.LVL136
 8020 02df 0100     		.2byte	0x1
ARM GAS  C:\Users\srich\AppData\Local\Temp\cc32e3J8.s 			page 144


 8021 02e1 55       		.byte	0x55
 8022 02e2 10010000 		.4byte	.LVL136
 8023 02e6 2C010000 		.4byte	.LVL140
 8024 02ea 0400     		.2byte	0x4
 8025 02ec F3       		.byte	0xf3
 8026 02ed 01       		.uleb128 0x1
 8027 02ee 51       		.byte	0x51
 8028 02ef 9F       		.byte	0x9f
 8029 02f0 2C010000 		.4byte	.LVL140
 8030 02f4 94010000 		.4byte	.LFE139
 8031 02f8 0100     		.2byte	0x1
 8032 02fa 55       		.byte	0x55
 8033 02fb 00000000 		.4byte	0
 8034 02ff 00000000 		.4byte	0
 8035              	.LLST18:
 8036 0303 00000000 		.4byte	.LVL101
 8037 0307 0D000000 		.4byte	.LVL103-1
 8038 030b 0100     		.2byte	0x1
 8039 030d 52       		.byte	0x52
 8040 030e 0D000000 		.4byte	.LVL103-1
 8041 0312 3A000000 		.4byte	.LVL108
 8042 0316 0100     		.2byte	0x1
 8043 0318 56       		.byte	0x56
 8044 0319 3A000000 		.4byte	.LVL108
 8045 031d 46000000 		.4byte	.LVL110
 8046 0321 0400     		.2byte	0x4
 8047 0323 F3       		.byte	0xf3
 8048 0324 01       		.uleb128 0x1
 8049 0325 52       		.byte	0x52
 8050 0326 9F       		.byte	0x9f
 8051 0327 46000000 		.4byte	.LVL110
 8052 032b 80000000 		.4byte	.LVL116
 8053 032f 0100     		.2byte	0x1
 8054 0331 56       		.byte	0x56
 8055 0332 80000000 		.4byte	.LVL116
 8056 0336 BC000000 		.4byte	.LVL123
 8057 033a 0400     		.2byte	0x4
 8058 033c F3       		.byte	0xf3
 8059 033d 01       		.uleb128 0x1
 8060 033e 52       		.byte	0x52
 8061 033f 9F       		.byte	0x9f
 8062 0340 BC000000 		.4byte	.LVL123
 8063 0344 C2000000 		.4byte	.LVL124
 8064 0348 0100     		.2byte	0x1
 8065 034a 56       		.byte	0x56
 8066 034b C2000000 		.4byte	.LVL124
 8067 034f D0000000 		.4byte	.LVL126
 8068 0353 0400     		.2byte	0x4
 8069 0355 F3       		.byte	0xf3
 8070 0356 01       		.uleb128 0x1
 8071 0357 52       		.byte	0x52
 8072 0358 9F       		.byte	0x9f
 8073 0359 D0000000 		.4byte	.LVL126
 8074 035d D6000000 		.4byte	.LVL127
 8075 0361 0100     		.2byte	0x1
 8076 0363 56       		.byte	0x56
 8077 0364 D6000000 		.4byte	.LVL127
ARM GAS  C:\Users\srich\AppData\Local\Temp\cc32e3J8.s 			page 145


 8078 0368 E6000000 		.4byte	.LVL130
 8079 036c 0400     		.2byte	0x4
 8080 036e F3       		.byte	0xf3
 8081 036f 01       		.uleb128 0x1
 8082 0370 52       		.byte	0x52
 8083 0371 9F       		.byte	0x9f
 8084 0372 E6000000 		.4byte	.LVL130
 8085 0376 E8000000 		.4byte	.LVL131
 8086 037a 0100     		.2byte	0x1
 8087 037c 56       		.byte	0x56
 8088 037d E8000000 		.4byte	.LVL131
 8089 0381 18010000 		.4byte	.LVL137
 8090 0385 0400     		.2byte	0x4
 8091 0387 F3       		.byte	0xf3
 8092 0388 01       		.uleb128 0x1
 8093 0389 52       		.byte	0x52
 8094 038a 9F       		.byte	0x9f
 8095 038b 18010000 		.4byte	.LVL137
 8096 038f 1C010000 		.4byte	.LVL138
 8097 0393 0100     		.2byte	0x1
 8098 0395 56       		.byte	0x56
 8099 0396 1C010000 		.4byte	.LVL138
 8100 039a 94010000 		.4byte	.LFE139
 8101 039e 0400     		.2byte	0x4
 8102 03a0 F3       		.byte	0xf3
 8103 03a1 01       		.uleb128 0x1
 8104 03a2 52       		.byte	0x52
 8105 03a3 9F       		.byte	0x9f
 8106 03a4 00000000 		.4byte	0
 8107 03a8 00000000 		.4byte	0
 8108              	.LLST19:
 8109 03ac 84000000 		.4byte	.LVL117
 8110 03b0 8A000000 		.4byte	.LVL118
 8111 03b4 0100     		.2byte	0x1
 8112 03b6 50       		.byte	0x50
 8113 03b7 C8000000 		.4byte	.LVL125
 8114 03bb D0000000 		.4byte	.LVL126
 8115 03bf 0100     		.2byte	0x1
 8116 03c1 50       		.byte	0x50
 8117 03c2 E0000000 		.4byte	.LVL129
 8118 03c6 E6000000 		.4byte	.LVL130
 8119 03ca 0100     		.2byte	0x1
 8120 03cc 50       		.byte	0x50
 8121 03cd 24010000 		.4byte	.LVL139
 8122 03d1 2C010000 		.4byte	.LVL140
 8123 03d5 0100     		.2byte	0x1
 8124 03d7 50       		.byte	0x50
 8125 03d8 00000000 		.4byte	0
 8126 03dc 00000000 		.4byte	0
 8127              	.LLST20:
 8128 03e0 00000000 		.4byte	.LVL141
 8129 03e4 0D000000 		.4byte	.LVL143-1
 8130 03e8 0100     		.2byte	0x1
 8131 03ea 50       		.byte	0x50
 8132 03eb 0D000000 		.4byte	.LVL143-1
 8133 03ef 36000000 		.4byte	.LVL148
 8134 03f3 0100     		.2byte	0x1
ARM GAS  C:\Users\srich\AppData\Local\Temp\cc32e3J8.s 			page 146


 8135 03f5 54       		.byte	0x54
 8136 03f6 36000000 		.4byte	.LVL148
 8137 03fa 39000000 		.4byte	.LVL149-1
 8138 03fe 0100     		.2byte	0x1
 8139 0400 50       		.byte	0x50
 8140 0401 39000000 		.4byte	.LVL149-1
 8141 0405 3A000000 		.4byte	.LVL149
 8142 0409 0400     		.2byte	0x4
 8143 040b F3       		.byte	0xf3
 8144 040c 01       		.uleb128 0x1
 8145 040d 50       		.byte	0x50
 8146 040e 9F       		.byte	0x9f
 8147 040f 3A000000 		.4byte	.LVL149
 8148 0413 60000000 		.4byte	.LVL153
 8149 0417 0100     		.2byte	0x1
 8150 0419 54       		.byte	0x54
 8151 041a 60000000 		.4byte	.LVL153
 8152 041e 63000000 		.4byte	.LVL154-1
 8153 0422 0100     		.2byte	0x1
 8154 0424 50       		.byte	0x50
 8155 0425 63000000 		.4byte	.LVL154-1
 8156 0429 64000000 		.4byte	.LVL154
 8157 042d 0400     		.2byte	0x4
 8158 042f F3       		.byte	0xf3
 8159 0430 01       		.uleb128 0x1
 8160 0431 50       		.byte	0x50
 8161 0432 9F       		.byte	0x9f
 8162 0433 64000000 		.4byte	.LVL154
 8163 0437 74000000 		.4byte	.LVL155
 8164 043b 0100     		.2byte	0x1
 8165 043d 54       		.byte	0x54
 8166 043e 74000000 		.4byte	.LVL155
 8167 0442 77000000 		.4byte	.LVL156-1
 8168 0446 0100     		.2byte	0x1
 8169 0448 50       		.byte	0x50
 8170 0449 77000000 		.4byte	.LVL156-1
 8171 044d A4000000 		.4byte	.LFE140
 8172 0451 0400     		.2byte	0x4
 8173 0453 F3       		.byte	0xf3
 8174 0454 01       		.uleb128 0x1
 8175 0455 50       		.byte	0x50
 8176 0456 9F       		.byte	0x9f
 8177 0457 00000000 		.4byte	0
 8178 045b 00000000 		.4byte	0
 8179              	.LLST21:
 8180 045f 00000000 		.4byte	.LVL141
 8181 0463 08000000 		.4byte	.LVL142
 8182 0467 0100     		.2byte	0x1
 8183 0469 51       		.byte	0x51
 8184 046a 08000000 		.4byte	.LVL142
 8185 046e 36000000 		.4byte	.LVL148
 8186 0472 0100     		.2byte	0x1
 8187 0474 55       		.byte	0x55
 8188 0475 36000000 		.4byte	.LVL148
 8189 0479 3A000000 		.4byte	.LVL149
 8190 047d 0400     		.2byte	0x4
 8191 047f F3       		.byte	0xf3
ARM GAS  C:\Users\srich\AppData\Local\Temp\cc32e3J8.s 			page 147


 8192 0480 01       		.uleb128 0x1
 8193 0481 51       		.byte	0x51
 8194 0482 9F       		.byte	0x9f
 8195 0483 3A000000 		.4byte	.LVL149
 8196 0487 60000000 		.4byte	.LVL153
 8197 048b 0100     		.2byte	0x1
 8198 048d 55       		.byte	0x55
 8199 048e 60000000 		.4byte	.LVL153
 8200 0492 64000000 		.4byte	.LVL154
 8201 0496 0400     		.2byte	0x4
 8202 0498 F3       		.byte	0xf3
 8203 0499 01       		.uleb128 0x1
 8204 049a 51       		.byte	0x51
 8205 049b 9F       		.byte	0x9f
 8206 049c 64000000 		.4byte	.LVL154
 8207 04a0 74000000 		.4byte	.LVL155
 8208 04a4 0100     		.2byte	0x1
 8209 04a6 55       		.byte	0x55
 8210 04a7 74000000 		.4byte	.LVL155
 8211 04ab A4000000 		.4byte	.LFE140
 8212 04af 0400     		.2byte	0x4
 8213 04b1 F3       		.byte	0xf3
 8214 04b2 01       		.uleb128 0x1
 8215 04b3 51       		.byte	0x51
 8216 04b4 9F       		.byte	0x9f
 8217 04b5 00000000 		.4byte	0
 8218 04b9 00000000 		.4byte	0
 8219              	.LLST22:
 8220 04bd 00000000 		.4byte	.LVL141
 8221 04c1 0D000000 		.4byte	.LVL143-1
 8222 04c5 0100     		.2byte	0x1
 8223 04c7 52       		.byte	0x52
 8224 04c8 0D000000 		.4byte	.LVL143-1
 8225 04cc 26000000 		.4byte	.LVL146
 8226 04d0 0100     		.2byte	0x1
 8227 04d2 56       		.byte	0x56
 8228 04d3 26000000 		.4byte	.LVL146
 8229 04d7 3A000000 		.4byte	.LVL149
 8230 04db 0400     		.2byte	0x4
 8231 04dd F3       		.byte	0xf3
 8232 04de 01       		.uleb128 0x1
 8233 04df 52       		.byte	0x52
 8234 04e0 9F       		.byte	0x9f
 8235 04e1 3A000000 		.4byte	.LVL149
 8236 04e5 3C000000 		.4byte	.LVL150
 8237 04e9 0100     		.2byte	0x1
 8238 04eb 56       		.byte	0x56
 8239 04ec 3C000000 		.4byte	.LVL150
 8240 04f0 A4000000 		.4byte	.LFE140
 8241 04f4 0400     		.2byte	0x4
 8242 04f6 F3       		.byte	0xf3
 8243 04f7 01       		.uleb128 0x1
 8244 04f8 52       		.byte	0x52
 8245 04f9 9F       		.byte	0x9f
 8246 04fa 00000000 		.4byte	0
 8247 04fe 00000000 		.4byte	0
 8248              	.LLST23:
ARM GAS  C:\Users\srich\AppData\Local\Temp\cc32e3J8.s 			page 148


 8249 0502 00000000 		.4byte	.LVL157
 8250 0506 0D000000 		.4byte	.LVL159-1
 8251 050a 0100     		.2byte	0x1
 8252 050c 50       		.byte	0x50
 8253 050d 0D000000 		.4byte	.LVL159-1
 8254 0511 2E000000 		.4byte	.LVL163
 8255 0515 0100     		.2byte	0x1
 8256 0517 54       		.byte	0x54
 8257 0518 2E000000 		.4byte	.LVL163
 8258 051c 33000000 		.4byte	.LVL164-1
 8259 0520 0100     		.2byte	0x1
 8260 0522 50       		.byte	0x50
 8261 0523 33000000 		.4byte	.LVL164-1
 8262 0527 44000000 		.4byte	.LVL166
 8263 052b 0100     		.2byte	0x1
 8264 052d 54       		.byte	0x54
 8265 052e 44000000 		.4byte	.LVL166
 8266 0532 47000000 		.4byte	.LVL167-1
 8267 0536 0100     		.2byte	0x1
 8268 0538 50       		.byte	0x50
 8269 0539 47000000 		.4byte	.LVL167-1
 8270 053d 48000000 		.4byte	.LVL167
 8271 0541 0400     		.2byte	0x4
 8272 0543 F3       		.byte	0xf3
 8273 0544 01       		.uleb128 0x1
 8274 0545 50       		.byte	0x50
 8275 0546 9F       		.byte	0x9f
 8276 0547 48000000 		.4byte	.LVL167
 8277 054b 4D000000 		.4byte	.LVL168-1
 8278 054f 0100     		.2byte	0x1
 8279 0551 50       		.byte	0x50
 8280 0552 4D000000 		.4byte	.LVL168-1
 8281 0556 74000000 		.4byte	.LVL173
 8282 055a 0100     		.2byte	0x1
 8283 055c 54       		.byte	0x54
 8284 055d 74000000 		.4byte	.LVL173
 8285 0561 77000000 		.4byte	.LVL174-1
 8286 0565 0100     		.2byte	0x1
 8287 0567 50       		.byte	0x50
 8288 0568 77000000 		.4byte	.LVL174-1
 8289 056c 78000000 		.4byte	.LVL174
 8290 0570 0400     		.2byte	0x4
 8291 0572 F3       		.byte	0xf3
 8292 0573 01       		.uleb128 0x1
 8293 0574 50       		.byte	0x50
 8294 0575 9F       		.byte	0x9f
 8295 0576 78000000 		.4byte	.LVL174
 8296 057a 90000000 		.4byte	.LVL176
 8297 057e 0100     		.2byte	0x1
 8298 0580 54       		.byte	0x54
 8299 0581 90000000 		.4byte	.LVL176
 8300 0585 93000000 		.4byte	.LVL177-1
 8301 0589 0100     		.2byte	0x1
 8302 058b 50       		.byte	0x50
 8303 058c 93000000 		.4byte	.LVL177-1
 8304 0590 CC000000 		.4byte	.LFE141
 8305 0594 0400     		.2byte	0x4
ARM GAS  C:\Users\srich\AppData\Local\Temp\cc32e3J8.s 			page 149


 8306 0596 F3       		.byte	0xf3
 8307 0597 01       		.uleb128 0x1
 8308 0598 50       		.byte	0x50
 8309 0599 9F       		.byte	0x9f
 8310 059a 00000000 		.4byte	0
 8311 059e 00000000 		.4byte	0
 8312              	.LLST24:
 8313 05a2 00000000 		.4byte	.LVL157
 8314 05a6 08000000 		.4byte	.LVL158
 8315 05aa 0100     		.2byte	0x1
 8316 05ac 51       		.byte	0x51
 8317 05ad 08000000 		.4byte	.LVL158
 8318 05b1 44000000 		.4byte	.LVL166
 8319 05b5 0100     		.2byte	0x1
 8320 05b7 55       		.byte	0x55
 8321 05b8 44000000 		.4byte	.LVL166
 8322 05bc 48000000 		.4byte	.LVL167
 8323 05c0 0400     		.2byte	0x4
 8324 05c2 F3       		.byte	0xf3
 8325 05c3 01       		.uleb128 0x1
 8326 05c4 51       		.byte	0x51
 8327 05c5 9F       		.byte	0x9f
 8328 05c6 48000000 		.4byte	.LVL167
 8329 05ca 74000000 		.4byte	.LVL173
 8330 05ce 0100     		.2byte	0x1
 8331 05d0 55       		.byte	0x55
 8332 05d1 74000000 		.4byte	.LVL173
 8333 05d5 78000000 		.4byte	.LVL174
 8334 05d9 0400     		.2byte	0x4
 8335 05db F3       		.byte	0xf3
 8336 05dc 01       		.uleb128 0x1
 8337 05dd 51       		.byte	0x51
 8338 05de 9F       		.byte	0x9f
 8339 05df 78000000 		.4byte	.LVL174
 8340 05e3 90000000 		.4byte	.LVL176
 8341 05e7 0100     		.2byte	0x1
 8342 05e9 55       		.byte	0x55
 8343 05ea 90000000 		.4byte	.LVL176
 8344 05ee CC000000 		.4byte	.LFE141
 8345 05f2 0400     		.2byte	0x4
 8346 05f4 F3       		.byte	0xf3
 8347 05f5 01       		.uleb128 0x1
 8348 05f6 51       		.byte	0x51
 8349 05f7 9F       		.byte	0x9f
 8350 05f8 00000000 		.4byte	0
 8351 05fc 00000000 		.4byte	0
 8352              	.LLST25:
 8353 0600 00000000 		.4byte	.LVL157
 8354 0604 0D000000 		.4byte	.LVL159-1
 8355 0608 0100     		.2byte	0x1
 8356 060a 52       		.byte	0x52
 8357 060b 0D000000 		.4byte	.LVL159-1
 8358 060f 26000000 		.4byte	.LVL162
 8359 0613 0100     		.2byte	0x1
 8360 0615 56       		.byte	0x56
 8361 0616 26000000 		.4byte	.LVL162
 8362 061a 50000000 		.4byte	.LVL169
ARM GAS  C:\Users\srich\AppData\Local\Temp\cc32e3J8.s 			page 150


 8363 061e 0400     		.2byte	0x4
 8364 0620 F3       		.byte	0xf3
 8365 0621 01       		.uleb128 0x1
 8366 0622 52       		.byte	0x52
 8367 0623 9F       		.byte	0x9f
 8368 0624 50000000 		.4byte	.LVL169
 8369 0628 52000000 		.4byte	.LVL170
 8370 062c 0100     		.2byte	0x1
 8371 062e 56       		.byte	0x56
 8372 062f 52000000 		.4byte	.LVL170
 8373 0633 CC000000 		.4byte	.LFE141
 8374 0637 0400     		.2byte	0x4
 8375 0639 F3       		.byte	0xf3
 8376 063a 01       		.uleb128 0x1
 8377 063b 52       		.byte	0x52
 8378 063c 9F       		.byte	0x9f
 8379 063d 00000000 		.4byte	0
 8380 0641 00000000 		.4byte	0
 8381              	.LLST26:
 8382 0645 00000000 		.4byte	.LVL178
 8383 0649 0D000000 		.4byte	.LVL180-1
 8384 064d 0100     		.2byte	0x1
 8385 064f 50       		.byte	0x50
 8386 0650 0D000000 		.4byte	.LVL180-1
 8387 0654 36000000 		.4byte	.LVL185
 8388 0658 0100     		.2byte	0x1
 8389 065a 54       		.byte	0x54
 8390 065b 36000000 		.4byte	.LVL185
 8391 065f 39000000 		.4byte	.LVL186-1
 8392 0663 0100     		.2byte	0x1
 8393 0665 50       		.byte	0x50
 8394 0666 39000000 		.4byte	.LVL186-1
 8395 066a 3A000000 		.4byte	.LVL186
 8396 066e 0400     		.2byte	0x4
 8397 0670 F3       		.byte	0xf3
 8398 0671 01       		.uleb128 0x1
 8399 0672 50       		.byte	0x50
 8400 0673 9F       		.byte	0x9f
 8401 0674 3A000000 		.4byte	.LVL186
 8402 0678 5E000000 		.4byte	.LVL190
 8403 067c 0100     		.2byte	0x1
 8404 067e 54       		.byte	0x54
 8405 067f 5E000000 		.4byte	.LVL190
 8406 0683 61000000 		.4byte	.LVL191-1
 8407 0687 0100     		.2byte	0x1
 8408 0689 50       		.byte	0x50
 8409 068a 61000000 		.4byte	.LVL191-1
 8410 068e 62000000 		.4byte	.LVL191
 8411 0692 0400     		.2byte	0x4
 8412 0694 F3       		.byte	0xf3
 8413 0695 01       		.uleb128 0x1
 8414 0696 50       		.byte	0x50
 8415 0697 9F       		.byte	0x9f
 8416 0698 62000000 		.4byte	.LVL191
 8417 069c 6E000000 		.4byte	.LVL192
 8418 06a0 0100     		.2byte	0x1
 8419 06a2 54       		.byte	0x54
ARM GAS  C:\Users\srich\AppData\Local\Temp\cc32e3J8.s 			page 151


 8420 06a3 6E000000 		.4byte	.LVL192
 8421 06a7 71000000 		.4byte	.LVL193-1
 8422 06ab 0100     		.2byte	0x1
 8423 06ad 50       		.byte	0x50
 8424 06ae 71000000 		.4byte	.LVL193-1
 8425 06b2 9C000000 		.4byte	.LFE142
 8426 06b6 0400     		.2byte	0x4
 8427 06b8 F3       		.byte	0xf3
 8428 06b9 01       		.uleb128 0x1
 8429 06ba 50       		.byte	0x50
 8430 06bb 9F       		.byte	0x9f
 8431 06bc 00000000 		.4byte	0
 8432 06c0 00000000 		.4byte	0
 8433              	.LLST27:
 8434 06c4 00000000 		.4byte	.LVL178
 8435 06c8 08000000 		.4byte	.LVL179
 8436 06cc 0100     		.2byte	0x1
 8437 06ce 51       		.byte	0x51
 8438 06cf 08000000 		.4byte	.LVL179
 8439 06d3 36000000 		.4byte	.LVL185
 8440 06d7 0100     		.2byte	0x1
 8441 06d9 55       		.byte	0x55
 8442 06da 36000000 		.4byte	.LVL185
 8443 06de 3A000000 		.4byte	.LVL186
 8444 06e2 0400     		.2byte	0x4
 8445 06e4 F3       		.byte	0xf3
 8446 06e5 01       		.uleb128 0x1
 8447 06e6 51       		.byte	0x51
 8448 06e7 9F       		.byte	0x9f
 8449 06e8 3A000000 		.4byte	.LVL186
 8450 06ec 5E000000 		.4byte	.LVL190
 8451 06f0 0100     		.2byte	0x1
 8452 06f2 55       		.byte	0x55
 8453 06f3 5E000000 		.4byte	.LVL190
 8454 06f7 62000000 		.4byte	.LVL191
 8455 06fb 0400     		.2byte	0x4
 8456 06fd F3       		.byte	0xf3
 8457 06fe 01       		.uleb128 0x1
 8458 06ff 51       		.byte	0x51
 8459 0700 9F       		.byte	0x9f
 8460 0701 62000000 		.4byte	.LVL191
 8461 0705 6E000000 		.4byte	.LVL192
 8462 0709 0100     		.2byte	0x1
 8463 070b 55       		.byte	0x55
 8464 070c 6E000000 		.4byte	.LVL192
 8465 0710 9C000000 		.4byte	.LFE142
 8466 0714 0400     		.2byte	0x4
 8467 0716 F3       		.byte	0xf3
 8468 0717 01       		.uleb128 0x1
 8469 0718 51       		.byte	0x51
 8470 0719 9F       		.byte	0x9f
 8471 071a 00000000 		.4byte	0
 8472 071e 00000000 		.4byte	0
 8473              	.LLST28:
 8474 0722 00000000 		.4byte	.LVL178
 8475 0726 0D000000 		.4byte	.LVL180-1
 8476 072a 0100     		.2byte	0x1
ARM GAS  C:\Users\srich\AppData\Local\Temp\cc32e3J8.s 			page 152


 8477 072c 52       		.byte	0x52
 8478 072d 0D000000 		.4byte	.LVL180-1
 8479 0731 26000000 		.4byte	.LVL183
 8480 0735 0100     		.2byte	0x1
 8481 0737 56       		.byte	0x56
 8482 0738 26000000 		.4byte	.LVL183
 8483 073c 3A000000 		.4byte	.LVL186
 8484 0740 0400     		.2byte	0x4
 8485 0742 F3       		.byte	0xf3
 8486 0743 01       		.uleb128 0x1
 8487 0744 52       		.byte	0x52
 8488 0745 9F       		.byte	0x9f
 8489 0746 3A000000 		.4byte	.LVL186
 8490 074a 3C000000 		.4byte	.LVL187
 8491 074e 0100     		.2byte	0x1
 8492 0750 56       		.byte	0x56
 8493 0751 3C000000 		.4byte	.LVL187
 8494 0755 9C000000 		.4byte	.LFE142
 8495 0759 0400     		.2byte	0x4
 8496 075b F3       		.byte	0xf3
 8497 075c 01       		.uleb128 0x1
 8498 075d 52       		.byte	0x52
 8499 075e 9F       		.byte	0x9f
 8500 075f 00000000 		.4byte	0
 8501 0763 00000000 		.4byte	0
 8502              		.section	.debug_aranges,"",%progbits
 8503 0000 DC000000 		.4byte	0xdc
 8504 0004 0200     		.2byte	0x2
 8505 0006 00000000 		.4byte	.Ldebug_info0
 8506 000a 04       		.byte	0x4
 8507 000b 00       		.byte	0
 8508 000c 0000     		.2byte	0
 8509 000e 0000     		.2byte	0
 8510 0010 00000000 		.4byte	.LFB118
 8511 0014 1C000000 		.4byte	.LFE118-.LFB118
 8512 0018 00000000 		.4byte	.LFB119
 8513 001c 4C010000 		.4byte	.LFE119-.LFB119
 8514 0020 00000000 		.4byte	.LFB121
 8515 0024 18000000 		.4byte	.LFE121-.LFB121
 8516 0028 00000000 		.4byte	.LFB122
 8517 002c 0C000000 		.4byte	.LFE122-.LFB122
 8518 0030 00000000 		.4byte	.LFB123
 8519 0034 0C000000 		.4byte	.LFE123-.LFB123
 8520 0038 00000000 		.4byte	.LFB124
 8521 003c 0C000000 		.4byte	.LFE124-.LFB124
 8522 0040 00000000 		.4byte	.LFB125
 8523 0044 10000000 		.4byte	.LFE125-.LFB125
 8524 0048 00000000 		.4byte	.LFB126
 8525 004c 0C000000 		.4byte	.LFE126-.LFB126
 8526 0050 00000000 		.4byte	.LFB127
 8527 0054 0C000000 		.4byte	.LFE127-.LFB127
 8528 0058 00000000 		.4byte	.LFB128
 8529 005c 24000000 		.4byte	.LFE128-.LFB128
 8530 0060 00000000 		.4byte	.LFB129
 8531 0064 0C000000 		.4byte	.LFE129-.LFB129
 8532 0068 00000000 		.4byte	.LFB130
 8533 006c 24000000 		.4byte	.LFE130-.LFB130
ARM GAS  C:\Users\srich\AppData\Local\Temp\cc32e3J8.s 			page 153


 8534 0070 00000000 		.4byte	.LFB131
 8535 0074 4C000000 		.4byte	.LFE131-.LFB131
 8536 0078 00000000 		.4byte	.LFB132
 8537 007c 2C000000 		.4byte	.LFE132-.LFB132
 8538 0080 00000000 		.4byte	.LFB133
 8539 0084 0C000000 		.4byte	.LFE133-.LFB133
 8540 0088 00000000 		.4byte	.LFB134
 8541 008c 0C000000 		.4byte	.LFE134-.LFB134
 8542 0090 00000000 		.4byte	.LFB135
 8543 0094 18000000 		.4byte	.LFE135-.LFB135
 8544 0098 00000000 		.4byte	.LFB136
 8545 009c 0C000000 		.4byte	.LFE136-.LFB136
 8546 00a0 00000000 		.4byte	.LFB137
 8547 00a4 C0010000 		.4byte	.LFE137-.LFB137
 8548 00a8 00000000 		.4byte	.LFB120
 8549 00ac 6C040000 		.4byte	.LFE120-.LFB120
 8550 00b0 00000000 		.4byte	.LFB138
 8551 00b4 B0010000 		.4byte	.LFE138-.LFB138
 8552 00b8 00000000 		.4byte	.LFB139
 8553 00bc 94010000 		.4byte	.LFE139-.LFB139
 8554 00c0 00000000 		.4byte	.LFB140
 8555 00c4 A4000000 		.4byte	.LFE140-.LFB140
 8556 00c8 00000000 		.4byte	.LFB141
 8557 00cc CC000000 		.4byte	.LFE141-.LFB141
 8558 00d0 00000000 		.4byte	.LFB142
 8559 00d4 9C000000 		.4byte	.LFE142-.LFB142
 8560 00d8 00000000 		.4byte	0
 8561 00dc 00000000 		.4byte	0
 8562              		.section	.debug_ranges,"",%progbits
 8563              	.Ldebug_ranges0:
 8564 0000 42000000 		.4byte	.LBB14
 8565 0004 FC000000 		.4byte	.LBE14
 8566 0008 2C030000 		.4byte	.LBB19
 8567 000c A2030000 		.4byte	.LBE19
 8568 0010 48040000 		.4byte	.LBB21
 8569 0014 6C040000 		.4byte	.LBE21
 8570 0018 00000000 		.4byte	0
 8571 001c 00000000 		.4byte	0
 8572 0020 10010000 		.4byte	.LBB16
 8573 0024 12010000 		.4byte	.LBE16
 8574 0028 14010000 		.4byte	.LBB17
 8575 002c 18010000 		.4byte	.LBE17
 8576 0030 00000000 		.4byte	0
 8577 0034 00000000 		.4byte	0
 8578 0038 62010000 		.4byte	.LBB18
 8579 003c 76020000 		.4byte	.LBE18
 8580 0040 A2030000 		.4byte	.LBB20
 8581 0044 48040000 		.4byte	.LBE20
 8582 0048 00000000 		.4byte	0
 8583 004c 00000000 		.4byte	0
 8584 0050 00010000 		.4byte	.LBB22
 8585 0054 02010000 		.4byte	.LBE22
 8586 0058 04010000 		.4byte	.LBB25
 8587 005c 06010000 		.4byte	.LBE25
 8588 0060 00000000 		.4byte	0
 8589 0064 00000000 		.4byte	0
 8590 0068 2C010000 		.4byte	.LBB26
ARM GAS  C:\Users\srich\AppData\Local\Temp\cc32e3J8.s 			page 154


 8591 006c 32010000 		.4byte	.LBE26
 8592 0070 34010000 		.4byte	.LBB29
 8593 0074 36010000 		.4byte	.LBE29
 8594 0078 00000000 		.4byte	0
 8595 007c 00000000 		.4byte	0
 8596 0080 54000000 		.4byte	.LBB30
 8597 0084 56000000 		.4byte	.LBE30
 8598 0088 58000000 		.4byte	.LBB33
 8599 008c 5A000000 		.4byte	.LBE33
 8600 0090 00000000 		.4byte	0
 8601 0094 00000000 		.4byte	0
 8602 0098 64000000 		.4byte	.LBB34
 8603 009c 6A000000 		.4byte	.LBE34
 8604 00a0 6C000000 		.4byte	.LBB37
 8605 00a4 6E000000 		.4byte	.LBE37
 8606 00a8 00000000 		.4byte	0
 8607 00ac 00000000 		.4byte	0
 8608 00b0 52000000 		.4byte	.LBB38
 8609 00b4 54000000 		.4byte	.LBE38
 8610 00b8 56000000 		.4byte	.LBB41
 8611 00bc 58000000 		.4byte	.LBE41
 8612 00c0 00000000 		.4byte	0
 8613 00c4 00000000 		.4byte	0
 8614 00c8 62000000 		.4byte	.LBB42
 8615 00cc 64000000 		.4byte	.LBE42
 8616 00d0 66000000 		.4byte	.LBB45
 8617 00d4 68000000 		.4byte	.LBE45
 8618 00d8 00000000 		.4byte	0
 8619 00dc 00000000 		.4byte	0
 8620 00e0 00000000 		.4byte	.LFB118
 8621 00e4 1C000000 		.4byte	.LFE118
 8622 00e8 00000000 		.4byte	.LFB119
 8623 00ec 4C010000 		.4byte	.LFE119
 8624 00f0 00000000 		.4byte	.LFB121
 8625 00f4 18000000 		.4byte	.LFE121
 8626 00f8 00000000 		.4byte	.LFB122
 8627 00fc 0C000000 		.4byte	.LFE122
 8628 0100 00000000 		.4byte	.LFB123
 8629 0104 0C000000 		.4byte	.LFE123
 8630 0108 00000000 		.4byte	.LFB124
 8631 010c 0C000000 		.4byte	.LFE124
 8632 0110 00000000 		.4byte	.LFB125
 8633 0114 10000000 		.4byte	.LFE125
 8634 0118 00000000 		.4byte	.LFB126
 8635 011c 0C000000 		.4byte	.LFE126
 8636 0120 00000000 		.4byte	.LFB127
 8637 0124 0C000000 		.4byte	.LFE127
 8638 0128 00000000 		.4byte	.LFB128
 8639 012c 24000000 		.4byte	.LFE128
 8640 0130 00000000 		.4byte	.LFB129
 8641 0134 0C000000 		.4byte	.LFE129
 8642 0138 00000000 		.4byte	.LFB130
 8643 013c 24000000 		.4byte	.LFE130
 8644 0140 00000000 		.4byte	.LFB131
 8645 0144 4C000000 		.4byte	.LFE131
 8646 0148 00000000 		.4byte	.LFB132
 8647 014c 2C000000 		.4byte	.LFE132
ARM GAS  C:\Users\srich\AppData\Local\Temp\cc32e3J8.s 			page 155


 8648 0150 00000000 		.4byte	.LFB133
 8649 0154 0C000000 		.4byte	.LFE133
 8650 0158 00000000 		.4byte	.LFB134
 8651 015c 0C000000 		.4byte	.LFE134
 8652 0160 00000000 		.4byte	.LFB135
 8653 0164 18000000 		.4byte	.LFE135
 8654 0168 00000000 		.4byte	.LFB136
 8655 016c 0C000000 		.4byte	.LFE136
 8656 0170 00000000 		.4byte	.LFB137
 8657 0174 C0010000 		.4byte	.LFE137
 8658 0178 00000000 		.4byte	.LFB120
 8659 017c 6C040000 		.4byte	.LFE120
 8660 0180 00000000 		.4byte	.LFB138
 8661 0184 B0010000 		.4byte	.LFE138
 8662 0188 00000000 		.4byte	.LFB139
 8663 018c 94010000 		.4byte	.LFE139
 8664 0190 00000000 		.4byte	.LFB140
 8665 0194 A4000000 		.4byte	.LFE140
 8666 0198 00000000 		.4byte	.LFB141
 8667 019c CC000000 		.4byte	.LFE141
 8668 01a0 00000000 		.4byte	.LFB142
 8669 01a4 9C000000 		.4byte	.LFE142
 8670 01a8 00000000 		.4byte	0
 8671 01ac 00000000 		.4byte	0
 8672              		.section	.debug_line,"",%progbits
 8673              	.Ldebug_line0:
 8674 0000 8A080000 		.section	.debug_str,"MS",%progbits,1
 8674      02009B03 
 8674      00000201 
 8674      FB0E0D00 
 8674      01010101 
 8675              	.LASF135:
 8676 0000 63727569 		.ascii	"cruiseAccel\000"
 8676      73654163 
 8676      63656C00 
 8677              	.LASF187:
 8678 000c 65657072 		.ascii	"eeprom_write_period\000"
 8678      6F6D5F77 
 8678      72697465 
 8678      5F706572 
 8678      696F6400 
 8679              	.LASF62:
 8680 0020 70776D63 		.ascii	"pwmchannel_t\000"
 8680      68616E6E 
 8680      656C5F74 
 8680      00
 8681              	.LASF92:
 8682 002d 4D454153 		.ascii	"MEAS_UBAT\000"
 8682      5F554241 
 8682      5400
 8683              	.LASF208:
 8684 0037 63685468 		.ascii	"chThdSleep\000"
 8684      64536C65 
 8684      657000
 8685              	.LASF209:
 8686 0042 73747263 		.ascii	"strcmp\000"
 8686      6D7000
ARM GAS  C:\Users\srich\AppData\Local\Temp\cc32e3J8.s 			page 156


 8687              	.LASF124:
 8688 0049 68696768 		.ascii	"high_cell_volt_num\000"
 8688      5F63656C 
 8688      6C5F766F 
 8688      6C745F6E 
 8688      756D00
 8689              	.LASF41:
 8690 005c 44494552 		.ascii	"DIER\000"
 8690      00
 8691              	.LASF3:
 8692 0061 73697A65 		.ascii	"size_t\000"
 8692      5F7400
 8693              	.LASF77:
 8694 0068 4D494E5F 		.ascii	"MIN_REGEN_BRAKE\000"
 8694      52454745 
 8694      4E5F4252 
 8694      414B4500 
 8695              	.LASF159:
 8696 0078 737A616D 		.ascii	"szam\000"
 8696      00
 8697              	.LASF24:
 8698 007d 75696E74 		.ascii	"uint64_t\000"
 8698      36345F74 
 8698      00
 8699              	.LASF169:
 8700 0086 4D41585F 		.ascii	"MAX_D\000"
 8700      4400
 8701              	.LASF4:
 8702 008c 5F5F7569 		.ascii	"__uint8_t\000"
 8702      6E74385F 
 8702      7400
 8703              	.LASF65:
 8704 0096 63616C6C 		.ascii	"callback\000"
 8704      6261636B 
 8704      00
 8705              	.LASF47:
 8706 009f 43434D52 		.ascii	"CCMR3\000"
 8706      3300
 8707              	.LASF11:
 8708 00a5 6C6F6E67 		.ascii	"long int\000"
 8708      20696E74 
 8708      00
 8709              	.LASF58:
 8710 00ae 70657269 		.ascii	"period\000"
 8710      6F6400
 8711              	.LASF16:
 8712 00b5 6C6F6E67 		.ascii	"long long unsigned int\000"
 8712      206C6F6E 
 8712      6720756E 
 8712      7369676E 
 8712      65642069 
 8713              	.LASF34:
 8714 00cc 42617365 		.ascii	"BaseChannelVMT\000"
 8714      4368616E 
 8714      6E656C56 
 8714      4D5400
 8715              	.LASF108:
ARM GAS  C:\Users\srich\AppData\Local\Temp\cc32e3J8.s 			page 157


 8716 00db 7061636B 		.ascii	"pack_soc\000"
 8716      5F736F63 
 8716      00
 8717              	.LASF49:
 8718 00e4 43435236 		.ascii	"CCR6\000"
 8718      00
 8719              	.LASF195:
 8720 00e9 49544D5F 		.ascii	"ITM_RxBuffer\000"
 8720      52784275 
 8720      66666572 
 8720      00
 8721              	.LASF128:
 8722 00f6 7061636B 		.ascii	"pack_open_voltage\000"
 8722      5F6F7065 
 8722      6E5F766F 
 8722      6C746167 
 8722      6500
 8723              	.LASF45:
 8724 0108 42445452 		.ascii	"BDTR\000"
 8724      00
 8725              	.LASF67:
 8726 010d 66726571 		.ascii	"frequency\000"
 8726      75656E63 
 8726      7900
 8727              	.LASF53:
 8728 0117 50574D5F 		.ascii	"PWM_READY\000"
 8728      52454144 
 8728      5900
 8729              	.LASF55:
 8730 0121 50574D44 		.ascii	"PWMDriver\000"
 8730      72697665 
 8730      7200
 8731              	.LASF20:
 8732 012b 696E7431 		.ascii	"int16_t\000"
 8732      365F7400 
 8733              	.LASF43:
 8734 0133 43434D52 		.ascii	"CCMR2\000"
 8734      3200
 8735              	.LASF202:
 8736 0139 73706565 		.ascii	"speedRPM_TO_KMPH\000"
 8736      6452504D 
 8736      5F544F5F 
 8736      4B4D5048 
 8736      00
 8737              	.LASF2:
 8738 014a 7369676E 		.ascii	"signed char\000"
 8738      65642063 
 8738      68617200 
 8739              	.LASF146:
 8740 0156 63727569 		.ascii	"cruisePID\000"
 8740      73655049 
 8740      4400
 8741              	.LASF50:
 8742 0160 73746D33 		.ascii	"stm32_tim_t\000"
 8742      325F7469 
 8742      6D5F7400 
 8743              	.LASF25:
ARM GAS  C:\Users\srich\AppData\Local\Temp\cc32e3J8.s 			page 158


 8744 016c 626F6F6C 		.ascii	"bool_t\000"
 8744      5F7400
 8745              	.LASF154:
 8746 0173 6D656173 		.ascii	"measGetValue_2\000"
 8746      47657456 
 8746      616C7565 
 8746      5F3200
 8747              	.LASF173:
 8748 0182 73617665 		.ascii	"save_pwm\000"
 8748      5F70776D 
 8748      00
 8749              	.LASF137:
 8750 018b 63727569 		.ascii	"cruiseAccelOk\000"
 8750      73654163 
 8750      63656C4F 
 8750      6B00
 8751              	.LASF56:
 8752 0199 73746174 		.ascii	"state\000"
 8752      6500
 8753              	.LASF68:
 8754 019f 6368616E 		.ascii	"channels\000"
 8754      6E656C73 
 8754      00
 8755              	.LASF101:
 8756 01a8 4D454153 		.ascii	"MEAS2_CURR1\000"
 8756      325F4355 
 8756      52523100 
 8757              	.LASF1:
 8758 01b4 756E7369 		.ascii	"unsigned int\000"
 8758      676E6564 
 8758      20696E74 
 8758      00
 8759              	.LASF113:
 8760 01c1 696E7465 		.ascii	"internal_temp\000"
 8760      726E616C 
 8760      5F74656D 
 8760      7000
 8761              	.LASF44:
 8762 01cf 43434552 		.ascii	"CCER\000"
 8762      00
 8763              	.LASF83:
 8764 01d4 4D41585F 		.ascii	"MAX_STR_ANGLE\000"
 8764      5354525F 
 8764      414E474C 
 8764      4500
 8765              	.LASF14:
 8766 01e2 6C6F6E67 		.ascii	"long long int\000"
 8766      206C6F6E 
 8766      6720696E 
 8766      7400
 8767              	.LASF21:
 8768 01f0 75696E74 		.ascii	"uint16_t\000"
 8768      31365F74 
 8768      00
 8769              	.LASF63:
 8770 01f9 70776D63 		.ascii	"pwmcnt_t\000"
 8770      6E745F74 
ARM GAS  C:\Users\srich\AppData\Local\Temp\cc32e3J8.s 			page 159


 8770      00
 8771              	.LASF72:
 8772 0202 5F5F7661 		.ascii	"__va_list\000"
 8772      5F6C6973 
 8772      7400
 8773              	.LASF76:
 8774 020c 4D41585F 		.ascii	"MAX_THROTTLE\000"
 8774      5448524F 
 8774      54544C45 
 8774      00
 8775              	.LASF114:
 8776 0219 6C6F775F 		.ascii	"low_cell_volt\000"
 8776      63656C6C 
 8776      5F766F6C 
 8776      7400
 8777              	.LASF199:
 8778 0227 70776D53 		.ascii	"pwmStart\000"
 8778      74617274 
 8778      00
 8779              	.LASF120:
 8780 0230 7061636B 		.ascii	"pack_dcl\000"
 8780      5F64636C 
 8780      00
 8781              	.LASF149:
 8782 0239 4D696E52 		.ascii	"MinResult\000"
 8782      6573756C 
 8782      7400
 8783              	.LASF123:
 8784 0243 6D696E69 		.ascii	"minimum_cell\000"
 8784      6D756D5F 
 8784      63656C6C 
 8784      00
 8785              	.LASF144:
 8786 0250 47657443 		.ascii	"GetCurrentLimitIsOn\000"
 8786      75727265 
 8786      6E744C69 
 8786      6D697449 
 8786      734F6E00 
 8787              	.LASF196:
 8788 0264 50574D44 		.ascii	"PWMD5\000"
 8788      3500
 8789              	.LASF12:
 8790 026a 5F5F7569 		.ascii	"__uint32_t\000"
 8790      6E743332 
 8790      5F7400
 8791              	.LASF110:
 8792 0275 7061636B 		.ascii	"pack_amps\000"
 8792      5F616D70 
 8792      7300
 8793              	.LASF129:
 8794 027f 63727569 		.ascii	"cruiseEnable\000"
 8794      7365456E 
 8794      61626C65 
 8794      00
 8795              	.LASF105:
 8796 028c 626D7349 		.ascii	"bmsItems\000"
 8796      74656D73 
ARM GAS  C:\Users\srich\AppData\Local\Temp\cc32e3J8.s 			page 160


 8796      00
 8797              	.LASF73:
 8798 0295 76615F6C 		.ascii	"va_list\000"
 8798      69737400 
 8799              	.LASF6:
 8800 029d 5F5F696E 		.ascii	"__int16_t\000"
 8800      7431365F 
 8800      7400
 8801              	.LASF99:
 8802 02a7 4D454153 		.ascii	"MEAS_NUM_CH\000"
 8802      5F4E554D 
 8802      5F434800 
 8803              	.LASF182:
 8804 02b3 63727569 		.ascii	"cruise_indicator_index\000"
 8804      73655F69 
 8804      6E646963 
 8804      61746F72 
 8804      5F696E64 
 8805              	.LASF82:
 8806 02ca 4D494E5F 		.ascii	"MIN_STR_ANGLE\000"
 8806      5354525F 
 8806      414E474C 
 8806      4500
 8807              	.LASF32:
 8808 02d8 42617365 		.ascii	"BaseSequentialStream\000"
 8808      53657175 
 8808      656E7469 
 8808      616C5374 
 8808      7265616D 
 8809              	.LASF172:
 8810 02ed 43757272 		.ascii	"CurrentLimitIsOn\000"
 8810      656E744C 
 8810      696D6974 
 8810      49734F6E 
 8810      00
 8811              	.LASF191:
 8812 02fe 61636365 		.ascii	"accel_limit\000"
 8812      6C5F6C69 
 8812      6D697400 
 8813              	.LASF147:
 8814 030a 496E7075 		.ascii	"Input\000"
 8814      7400
 8815              	.LASF84:
 8816 0310 4C415354 		.ascii	"LAST_ITEM\000"
 8816      5F495445 
 8816      4D00
 8817              	.LASF180:
 8818 031a 63727569 		.ascii	"cruise_on\000"
 8818      73655F6F 
 8818      6E00
 8819              	.LASF13:
 8820 0324 6C6F6E67 		.ascii	"long unsigned int\000"
 8820      20756E73 
 8820      69676E65 
 8820      6420696E 
 8820      7400
 8821              	.LASF204:
ARM GAS  C:\Users\srich\AppData\Local\Temp\cc32e3J8.s 			page 161


 8822 0336 73706565 		.ascii	"speedGetSpeed\000"
 8822      64476574 
 8822      53706565 
 8822      6400
 8823              	.LASF194:
 8824 0344 63727569 		.ascii	"cruise_pwmcfg\000"
 8824      73655F70 
 8824      776D6366 
 8824      6700
 8825              	.LASF107:
 8826 0352 7061636B 		.ascii	"pack_inst_volt\000"
 8826      5F696E73 
 8826      745F766F 
 8826      6C7400
 8827              	.LASF36:
 8828 0361 67657474 		.ascii	"gett\000"
 8828      00
 8829              	.LASF160:
 8830 0366 636D645F 		.ascii	"cmd_cruise\000"
 8830      63727569 
 8830      736500
 8831              	.LASF131:
 8832 0371 72656765 		.ascii	"regen_brakeEnable\000"
 8832      6E5F6272 
 8832      616B6545 
 8832      6E61626C 
 8832      6500
 8833              	.LASF81:
 8834 0383 544F5441 		.ascii	"TOTAL_METER\000"
 8834      4C5F4D45 
 8834      54455200 
 8835              	.LASF145:
 8836 038f 63727569 		.ascii	"cruiseGet\000"
 8836      73654765 
 8836      7400
 8837              	.LASF89:
 8838 0399 6E616D65 		.ascii	"name\000"
 8838      00
 8839              	.LASF164:
 8840 039e 65657072 		.ascii	"eepromitems\000"
 8840      6F6D6974 
 8840      656D7300 
 8841              	.LASF88:
 8842 03aa 73697A65 		.ascii	"size\000"
 8842      00
 8843              	.LASF9:
 8844 03af 73686F72 		.ascii	"short unsigned int\000"
 8844      7420756E 
 8844      7369676E 
 8844      65642069 
 8844      6E7400
 8845              	.LASF118:
 8846 03c2 746F7461 		.ascii	"total_pack_cycle\000"
 8846      6C5F7061 
 8846      636B5F63 
 8846      79636C65 
 8846      00
ARM GAS  C:\Users\srich\AppData\Local\Temp\cc32e3J8.s 			page 162


 8847              	.LASF158:
 8848 03d3 636D645F 		.ascii	"cmd_setcruisevalues\000"
 8848      73657463 
 8848      72756973 
 8848      6576616C 
 8848      75657300 
 8849              	.LASF126:
 8850 03e7 73757070 		.ascii	"supply_12v\000"
 8850      6C795F31 
 8850      327600
 8851              	.LASF197:
 8852 03f2 626D7369 		.ascii	"bmsitems\000"
 8852      74656D73 
 8852      00
 8853              	.LASF27:
 8854 03fb 6D73675F 		.ascii	"msg_t\000"
 8854      7400
 8855              	.LASF168:
 8856 0401 4D41585F 		.ascii	"MAX_I\000"
 8856      4900
 8857              	.LASF112:
 8858 0407 61766572 		.ascii	"average_temp\000"
 8858      6167655F 
 8858      74656D70 
 8858      00
 8859              	.LASF10:
 8860 0414 5F5F696E 		.ascii	"__int32_t\000"
 8860      7433325F 
 8860      7400
 8861              	.LASF206:
 8862 041e 6D656173 		.ascii	"measGetValue\000"
 8862      47657456 
 8862      616C7565 
 8862      00
 8863              	.LASF37:
 8864 042b 77726974 		.ascii	"writet\000"
 8864      657400
 8865              	.LASF167:
 8866 0432 4D41585F 		.ascii	"MAX_P\000"
 8866      5000
 8867              	.LASF119:
 8868 0438 7061636B 		.ascii	"pack_ccl\000"
 8868      5F63636C 
 8868      00
 8869              	.LASF192:
 8870 0441 73756273 		.ascii	"substract\000"
 8870      74726163 
 8870      7400
 8871              	.LASF132:
 8872 044b 72656765 		.ascii	"regen_brakeDisable\000"
 8872      6E5F6272 
 8872      616B6544 
 8872      69736162 
 8872      6C6500
 8873              	.LASF207:
 8874 045e 65657072 		.ascii	"eepromWrite\000"
 8874      6F6D5772 
ARM GAS  C:\Users\srich\AppData\Local\Temp\cc32e3J8.s 			page 163


 8874      69746500 
 8875              	.LASF174:
 8876 046a 705F7461 		.ascii	"p_tag\000"
 8876      6700
 8877              	.LASF179:
 8878 0470 655F7461 		.ascii	"e_tag\000"
 8878      6700
 8879              	.LASF166:
 8880 0476 4D494E5F 		.ascii	"MIN_Result\000"
 8880      52657375 
 8880      6C7400
 8881              	.LASF130:
 8882 0481 63727569 		.ascii	"cruiseDisable\000"
 8882      73654469 
 8882      7361626C 
 8882      6500
 8883              	.LASF30:
 8884 048f 77726974 		.ascii	"write\000"
 8884      6500
 8885              	.LASF170:
 8886 0495 6272616B 		.ascii	"brake_pwm\000"
 8886      655F7077 
 8886      6D00
 8887              	.LASF35:
 8888 049f 70757474 		.ascii	"putt\000"
 8888      00
 8889              	.LASF86:
 8890 04a4 65657072 		.ascii	"eepromItem\000"
 8890      6F6D4974 
 8890      656D00
 8891              	.LASF152:
 8892 04af 4D617844 		.ascii	"MaxD\000"
 8892      00
 8893              	.LASF93:
 8894 04b4 4D454153 		.ascii	"MEAS_TEMP1\000"
 8894      5F54454D 
 8894      503100
 8895              	.LASF94:
 8896 04bf 4D454153 		.ascii	"MEAS_TEMP2\000"
 8896      5F54454D 
 8896      503200
 8897              	.LASF22:
 8898 04ca 696E7433 		.ascii	"int32_t\000"
 8898      325F7400 
 8899              	.LASF17:
 8900 04d2 73697A65 		.ascii	"sizetype\000"
 8900      74797065 
 8900      00
 8901              	.LASF161:
 8902 04db 4552524F 		.ascii	"ERROR\000"
 8902      5200
 8903              	.LASF213:
 8904 04e1 443A5C47 		.ascii	"D:\\GitHub\\Smarty\\smarty\\firmware\000"
 8904      69744875 
 8904      625C536D 
 8904      61727479 
 8904      5C736D61 
ARM GAS  C:\Users\srich\AppData\Local\Temp\cc32e3J8.s 			page 164


 8905              	.LASF87:
 8906 0502 61646472 		.ascii	"address\000"
 8906      65737300 
 8907              	.LASF40:
 8908 050a 534D4352 		.ascii	"SMCR\000"
 8908      00
 8909              	.LASF136:
 8910 050f 63727569 		.ascii	"cruiseDecelerat\000"
 8910      73654465 
 8910      63656C65 
 8910      72617400 
 8911              	.LASF142:
 8912 051f 63727569 		.ascii	"cruiseGetPWM\000"
 8912      73654765 
 8912      7450574D 
 8912      00
 8913              	.LASF71:
 8914 052c 5F5F676E 		.ascii	"__gnuc_va_list\000"
 8914      75635F76 
 8914      615F6C69 
 8914      737400
 8915              	.LASF125:
 8916 053b 6C6F775F 		.ascii	"low_cell_volt_num\000"
 8916      63656C6C 
 8916      5F766F6C 
 8916      745F6E75 
 8916      6D00
 8917              	.LASF211:
 8918 054d 474E5520 		.ascii	"GNU C 4.9.3 20150529 (release) [ARM/embedded-4_9-br"
 8918      4320342E 
 8918      392E3320 
 8918      32303135 
 8918      30353239 
 8919 0580 616E6368 		.ascii	"anch revision 227977] -mcpu=cortex-m4 -mno-thumb-in"
 8919      20726576 
 8919      6973696F 
 8919      6E203232 
 8919      37393737 
 8920 05b3 74657277 		.ascii	"terwork -mthumb -ggdb -O2 -fomit-frame-pointer -fal"
 8920      6F726B20 
 8920      2D6D7468 
 8920      756D6220 
 8920      2D676764 
 8921 05e6 69676E2D 		.ascii	"ign-functions=16 -ffunction-sections -fdata-section"
 8921      66756E63 
 8921      74696F6E 
 8921      733D3136 
 8921      202D6666 
 8922 0619 73202D66 		.ascii	"s -fno-common\000"
 8922      6E6F2D63 
 8922      6F6D6D6F 
 8922      6E00
 8923              	.LASF150:
 8924 0627 4D617850 		.ascii	"MaxP\000"
 8924      00
 8925              	.LASF85:
 8926 062c 45455052 		.ascii	"EEPROM_ITEMS_NUM\000"
ARM GAS  C:\Users\srich\AppData\Local\Temp\cc32e3J8.s 			page 165


 8926      4F4D5F49 
 8926      54454D53 
 8926      5F4E554D 
 8926      00
 8927              	.LASF103:
 8928 063d 4D454153 		.ascii	"MEAS2_REGEN_BRAKE\000"
 8928      325F5245 
 8928      47454E5F 
 8928      4252414B 
 8928      4500
 8929              	.LASF163:
 8930 064f 636D645F 		.ascii	"cmd_regen_brake\000"
 8930      72656765 
 8930      6E5F6272 
 8930      616B6500 
 8931              	.LASF185:
 8932 065f 70657269 		.ascii	"period_null\000"
 8932      6F645F6E 
 8932      756C6C00 
 8933              	.LASF46:
 8934 066b 444D4152 		.ascii	"DMAR\000"
 8934      00
 8935              	.LASF212:
 8936 0670 7372632F 		.ascii	"src/cruise.c\000"
 8936      63727569 
 8936      73652E63 
 8936      00
 8937              	.LASF61:
 8938 067d 70776D6D 		.ascii	"pwmmode_t\000"
 8938      6F64655F 
 8938      7400
 8939              	.LASF15:
 8940 0687 5F5F7569 		.ascii	"__uint64_t\000"
 8940      6E743634 
 8940      5F7400
 8941              	.LASF121:
 8942 0692 6D617869 		.ascii	"maximum_cell\000"
 8942      6D756D5F 
 8942      63656C6C 
 8942      00
 8943              	.LASF29:
 8944 069f 73746B61 		.ascii	"stkalign_t\000"
 8944      6C69676E 
 8944      5F7400
 8945              	.LASF109:
 8946 06aa 7061636B 		.ascii	"pack_healt\000"
 8946      5F686561 
 8946      6C7400
 8947              	.LASF60:
 8948 06b5 70776D63 		.ascii	"pwmcallback_t\000"
 8948      616C6C62 
 8948      61636B5F 
 8948      7400
 8949              	.LASF193:
 8950 06c3 63757272 		.ascii	"current_limit_status\000"
 8950      656E745F 
 8950      6C696D69 
ARM GAS  C:\Users\srich\AppData\Local\Temp\cc32e3J8.s 			page 166


 8950      745F7374 
 8950      61747573 
 8951              	.LASF184:
 8952 06d8 77617361 		.ascii	"wasave_kmeter_eeprom\000"
 8952      76655F6B 
 8952      6D657465 
 8952      725F6565 
 8952      70726F6D 
 8953              	.LASF90:
 8954 06ed 65657072 		.ascii	"eepromItemNames\000"
 8954      6F6D4974 
 8954      656D4E61 
 8954      6D657300 
 8955              	.LASF186:
 8956 06fd 6F6C645F 		.ascii	"old_set\000"
 8956      73657400 
 8957              	.LASF115:
 8958 0705 68696768 		.ascii	"high_cell_volt\000"
 8958      5F63656C 
 8958      6C5F766F 
 8958      6C7400
 8959              	.LASF26:
 8960 0714 5F426F6F 		.ascii	"_Bool\000"
 8960      6C00
 8961              	.LASF210:
 8962 071a 61746F6C 		.ascii	"atol\000"
 8962      00
 8963              	.LASF5:
 8964 071f 756E7369 		.ascii	"unsigned char\000"
 8964      676E6564 
 8964      20636861 
 8964      7200
 8965              	.LASF139:
 8966 072d 63727569 		.ascii	"cruiseInit\000"
 8966      7365496E 
 8966      697400
 8967              	.LASF75:
 8968 0738 4D494E5F 		.ascii	"MIN_THROTTLE\000"
 8968      5448524F 
 8968      54544C45 
 8968      00
 8969              	.LASF143:
 8970 0745 63727569 		.ascii	"cruiseGetCurrLimitSubstract\000"
 8970      73654765 
 8970      74437572 
 8970      724C696D 
 8970      69745375 
 8971              	.LASF7:
 8972 0761 73686F72 		.ascii	"short int\000"
 8972      7420696E 
 8972      7400
 8973              	.LASF200:
 8974 076b 65657072 		.ascii	"eepromRead\000"
 8974      6F6D5265 
 8974      616400
 8975              	.LASF116:
 8976 0776 6176675F 		.ascii	"avg_cell_voltage\000"
ARM GAS  C:\Users\srich\AppData\Local\Temp\cc32e3J8.s 			page 167


 8976      63656C6C 
 8976      5F766F6C 
 8976      74616765 
 8976      00
 8977              	.LASF33:
 8978 0787 42617365 		.ascii	"BaseSequentialStreamVMT\000"
 8978      53657175 
 8978      656E7469 
 8978      616C5374 
 8978      7265616D 
 8979              	.LASF155:
 8980 079f 636D645F 		.ascii	"cmd_cruisevalues\000"
 8980      63727569 
 8980      73657661 
 8980      6C756573 
 8980      00
 8981              	.LASF203:
 8982 07b0 73706565 		.ascii	"speedGetRpm\000"
 8982      64476574 
 8982      52706D00 
 8983              	.LASF134:
 8984 07bc 63727569 		.ascii	"cruiseIndicator\000"
 8984      7365496E 
 8984      64696361 
 8984      746F7200 
 8985              	.LASF111:
 8986 07cc 7061636B 		.ascii	"pack_resist\000"
 8986      5F726573 
 8986      69737400 
 8987              	.LASF91:
 8988 07d8 6D656173 		.ascii	"measChannels\000"
 8988      4368616E 
 8988      6E656C73 
 8988      00
 8989              	.LASF117:
 8990 07e5 7061636B 		.ascii	"pack_current\000"
 8990      5F637572 
 8990      72656E74 
 8990      00
 8991              	.LASF0:
 8992 07f2 646F7562 		.ascii	"double\000"
 8992      6C6500
 8993              	.LASF23:
 8994 07f9 75696E74 		.ascii	"uint32_t\000"
 8994      33325F74 
 8994      00
 8995              	.LASF141:
 8996 0802 63727569 		.ascii	"cruiseReduction\000"
 8996      73655265 
 8996      64756374 
 8996      696F6E00 
 8997              	.LASF70:
 8998 0812 50574D43 		.ascii	"PWMConfig\000"
 8998      6F6E6669 
 8998      6700
 8999              	.LASF165:
 9000 081c 4D41585F 		.ascii	"MAX_Result\000"
ARM GAS  C:\Users\srich\AppData\Local\Temp\cc32e3J8.s 			page 168


 9000      52657375 
 9000      6C7400
 9001              	.LASF138:
 9002 0827 63727569 		.ascii	"cruiseDeceleratOk\000"
 9002      73654465 
 9002      63656C65 
 9002      7261744F 
 9002      6B00
 9003              	.LASF151:
 9004 0839 4D617849 		.ascii	"MaxI\000"
 9004      00
 9005              	.LASF52:
 9006 083e 50574D5F 		.ascii	"PWM_STOP\000"
 9006      53544F50 
 9006      00
 9007              	.LASF18:
 9008 0847 63686172 		.ascii	"char\000"
 9008      00
 9009              	.LASF64:
 9010 084c 6D6F6465 		.ascii	"mode\000"
 9010      00
 9011              	.LASF140:
 9012 0851 63727569 		.ascii	"cruiseIncrease\000"
 9012      7365496E 
 9012      63726561 
 9012      736500
 9013              	.LASF57:
 9014 0860 636F6E66 		.ascii	"config\000"
 9014      696700
 9015              	.LASF74:
 9016 0867 43525549 		.ascii	"CRUISE_CONTROLL\000"
 9016      53455F43 
 9016      4F4E5452 
 9016      4F4C4C00 
 9017              	.LASF8:
 9018 0877 5F5F7569 		.ascii	"__uint16_t\000"
 9018      6E743136 
 9018      5F7400
 9019              	.LASF148:
 9020 0882 4D617852 		.ascii	"MaxResult\000"
 9020      6573756C 
 9020      7400
 9021              	.LASF28:
 9022 088c 73797374 		.ascii	"systime_t\000"
 9022      696D655F 
 9022      7400
 9023              	.LASF188:
 9024 0896 65657072 		.ascii	"eeprom_write\000"
 9024      6F6D5F77 
 9024      72697465 
 9024      00
 9025              	.LASF106:
 9026 08a3 63757374 		.ascii	"custom_flag_1\000"
 9026      6F6D5F66 
 9026      6C61675F 
 9026      3100
 9027              	.LASF122:
ARM GAS  C:\Users\srich\AppData\Local\Temp\cc32e3J8.s 			page 169


 9028 08b1 63757374 		.ascii	"custom_flag_2\000"
 9028      6F6D5F66 
 9028      6C61675F 
 9028      3200
 9029              	.LASF100:
 9030 08bf 6D656173 		.ascii	"measChannels2\000"
 9030      4368616E 
 9030      6E656C73 
 9030      3200
 9031              	.LASF104:
 9032 08cd 4D454153 		.ascii	"MEAS2_NUM_CH\000"
 9032      325F4E55 
 9032      4D5F4348 
 9032      00
 9033              	.LASF214:
 9034 08da 5F5F6170 		.ascii	"__ap\000"
 9034      00
 9035              	.LASF42:
 9036 08df 43434D52 		.ascii	"CCMR1\000"
 9036      3100
 9037              	.LASF183:
 9038 08e5 63727569 		.ascii	"cruise_disable_period\000"
 9038      73655F64 
 9038      69736162 
 9038      6C655F70 
 9038      6572696F 
 9039              	.LASF66:
 9040 08fb 50574D43 		.ascii	"PWMChannelConfig\000"
 9040      68616E6E 
 9040      656C436F 
 9040      6E666967 
 9040      00
 9041              	.LASF176:
 9042 090c 645F7461 		.ascii	"d_tag\000"
 9042      6700
 9043              	.LASF78:
 9044 0912 4D41585F 		.ascii	"MAX_REGEN_BRAKE\000"
 9044      52454745 
 9044      4E5F4252 
 9044      414B4500 
 9045              	.LASF162:
 9046 0922 636D645F 		.ascii	"cmd_current_limit_switch\000"
 9046      63757272 
 9046      656E745F 
 9046      6C696D69 
 9046      745F7377 
 9047              	.LASF80:
 9048 093b 4B4D4554 		.ascii	"KMETER_COUNTER\000"
 9048      45525F43 
 9048      4F554E54 
 9048      455200
 9049              	.LASF171:
 9050 094a 72656765 		.ascii	"regen_on\000"
 9050      6E5F6F6E 
 9050      00
 9051              	.LASF96:
 9052 0953 4D454153 		.ascii	"MEAS_IS_IN_DRIVE\000"
ARM GAS  C:\Users\srich\AppData\Local\Temp\cc32e3J8.s 			page 170


 9052      5F49535F 
 9052      494E5F44 
 9052      52495645 
 9052      00
 9053              	.LASF153:
 9054 0964 63727569 		.ascii	"cruiseCalc\000"
 9054      73654361 
 9054      6C6300
 9055              	.LASF48:
 9056 096f 43435235 		.ascii	"CCR5\000"
 9056      00
 9057              	.LASF178:
 9058 0974 65656C6F 		.ascii	"eelozo\000"
 9058      7A6F00
 9059              	.LASF189:
 9060 097b 62757474 		.ascii	"button_long_accel\000"
 9060      6F6E5F6C 
 9060      6F6E675F 
 9060      61636365 
 9060      6C00
 9061              	.LASF95:
 9062 098d 4D454153 		.ascii	"MEAS_STEERING\000"
 9062      5F535445 
 9062      4552494E 
 9062      4700
 9063              	.LASF19:
 9064 099b 75696E74 		.ascii	"uint8_t\000"
 9064      385F7400 
 9065              	.LASF198:
 9066 09a3 63687670 		.ascii	"chvprintf\000"
 9066      72696E74 
 9066      6600
 9067              	.LASF38:
 9068 09ad 72656164 		.ascii	"readt\000"
 9068      7400
 9069              	.LASF39:
 9070 09b3 42617365 		.ascii	"BaseChannel\000"
 9070      4368616E 
 9070      6E656C00 
 9071              	.LASF54:
 9072 09bf 70776D73 		.ascii	"pwmstate_t\000"
 9072      74617465 
 9072      5F7400
 9073              	.LASF201:
 9074 09ca 73706565 		.ascii	"speedKMPH_TO_RPM\000"
 9074      644B4D50 
 9074      485F544F 
 9074      5F52504D 
 9074      00
 9075              	.LASF79:
 9076 09db 544F5441 		.ascii	"TOTAL_KMETER_COUNTER\000"
 9076      4C5F4B4D 
 9076      45544552 
 9076      5F434F55 
 9076      4E544552 
 9077              	.LASF31:
 9078 09f0 72656164 		.ascii	"read\000"
ARM GAS  C:\Users\srich\AppData\Local\Temp\cc32e3J8.s 			page 171


 9078      00
 9079              	.LASF133:
 9080 09f5 63727569 		.ascii	"cruiseStatus\000"
 9080      73655374 
 9080      61747573 
 9080      00
 9081              	.LASF156:
 9082 0a02 61726763 		.ascii	"argc\000"
 9082      00
 9083              	.LASF190:
 9084 0a07 62757474 		.ascii	"button_long_decelerat\000"
 9084      6F6E5F6C 
 9084      6F6E675F 
 9084      64656365 
 9084      6C657261 
 9085              	.LASF205:
 9086 0a1d 70776D45 		.ascii	"pwmEnableChannel\000"
 9086      6E61626C 
 9086      65436861 
 9086      6E6E656C 
 9086      00
 9087              	.LASF97:
 9088 0a2e 4D454153 		.ascii	"MEAS_CHP_B\000"
 9088      5F434850 
 9088      5F4200
 9089              	.LASF181:
 9090 0a39 63727569 		.ascii	"cruise_indicator\000"
 9090      73655F69 
 9090      6E646963 
 9090      61746F72 
 9090      00
 9091              	.LASF59:
 9092 0a4a 636C6F63 		.ascii	"clock\000"
 9092      6B00
 9093              	.LASF102:
 9094 0a50 4D454153 		.ascii	"MEAS2_THROTTLE\000"
 9094      325F5448 
 9094      524F5454 
 9094      4C4500
 9095              	.LASF98:
 9096 0a5f 4D454153 		.ascii	"MEAS_CHP_J\000"
 9096      5F434850 
 9096      5F4A00
 9097              	.LASF157:
 9098 0a6a 61726776 		.ascii	"argv\000"
 9098      00
 9099              	.LASF127:
 9100 0a6f 66616E5F 		.ascii	"fan_speed\000"
 9100      73706565 
 9100      6400
 9101              	.LASF51:
 9102 0a79 50574D5F 		.ascii	"PWM_UNINIT\000"
 9102      554E494E 
 9102      495400
 9103              	.LASF175:
 9104 0a84 695F7461 		.ascii	"i_tag\000"
 9104      6700
ARM GAS  C:\Users\srich\AppData\Local\Temp\cc32e3J8.s 			page 172


 9105              	.LASF177:
 9106 0a8a 72657375 		.ascii	"result\000"
 9106      6C7400
 9107              	.LASF69:
 9108 0a91 64696572 		.ascii	"dier\000"
 9108      00
 9109              	.LASF215:
 9110 0a96 63687072 		.ascii	"chprintf\000"
 9110      696E7466 
 9110      00
 9111              		.ident	"GCC: (GNU Tools for ARM Embedded Processors) 4.9.3 20150529 (release) [ARM/embedded-4_9-br
ARM GAS  C:\Users\srich\AppData\Local\Temp\cc32e3J8.s 			page 173


DEFINED SYMBOLS
                            *ABS*:00000000 cruise.c
C:\Users\srich\AppData\Local\Temp\cc32e3J8.s:19     .text.chprintf:00000000 $t
C:\Users\srich\AppData\Local\Temp\cc32e3J8.s:24     .text.chprintf:00000000 chprintf
C:\Users\srich\AppData\Local\Temp\cc32e3J8.s:67     .text.cruiseInit:00000000 $t
C:\Users\srich\AppData\Local\Temp\cc32e3J8.s:73     .text.cruiseInit:00000000 cruiseInit
C:\Users\srich\AppData\Local\Temp\cc32e3J8.s:260    .text.cruiseInit:000000e0 $d
C:\Users\srich\AppData\Local\Temp\cc32e3J8.s:291    .text.cruiseEnable:00000000 $t
C:\Users\srich\AppData\Local\Temp\cc32e3J8.s:297    .text.cruiseEnable:00000000 cruiseEnable
C:\Users\srich\AppData\Local\Temp\cc32e3J8.s:320    .text.cruiseEnable:00000010 $d
C:\Users\srich\AppData\Local\Temp\cc32e3J8.s:326    .text.cruiseDisable:00000000 $t
C:\Users\srich\AppData\Local\Temp\cc32e3J8.s:332    .text.cruiseDisable:00000000 cruiseDisable
C:\Users\srich\AppData\Local\Temp\cc32e3J8.s:347    .text.cruiseDisable:00000008 $d
C:\Users\srich\AppData\Local\Temp\cc32e3J8.s:352    .text.regen_brakeEnable:00000000 $t
C:\Users\srich\AppData\Local\Temp\cc32e3J8.s:358    .text.regen_brakeEnable:00000000 regen_brakeEnable
C:\Users\srich\AppData\Local\Temp\cc32e3J8.s:373    .text.regen_brakeEnable:00000008 $d
C:\Users\srich\AppData\Local\Temp\cc32e3J8.s:378    .text.regen_brakeDisable:00000000 $t
C:\Users\srich\AppData\Local\Temp\cc32e3J8.s:384    .text.regen_brakeDisable:00000000 regen_brakeDisable
C:\Users\srich\AppData\Local\Temp\cc32e3J8.s:399    .text.regen_brakeDisable:00000008 $d
C:\Users\srich\AppData\Local\Temp\cc32e3J8.s:404    .text.cruiseStatus:00000000 $t
C:\Users\srich\AppData\Local\Temp\cc32e3J8.s:410    .text.cruiseStatus:00000000 cruiseStatus
C:\Users\srich\AppData\Local\Temp\cc32e3J8.s:428    .text.cruiseStatus:0000000c $d
C:\Users\srich\AppData\Local\Temp\cc32e3J8.s:433    .text.cruiseIndicator:00000000 $t
C:\Users\srich\AppData\Local\Temp\cc32e3J8.s:439    .text.cruiseIndicator:00000000 cruiseIndicator
C:\Users\srich\AppData\Local\Temp\cc32e3J8.s:454    .text.cruiseIndicator:00000008 $d
C:\Users\srich\AppData\Local\Temp\cc32e3J8.s:459    .text.cruiseAccel:00000000 $t
C:\Users\srich\AppData\Local\Temp\cc32e3J8.s:465    .text.cruiseAccel:00000000 cruiseAccel
C:\Users\srich\AppData\Local\Temp\cc32e3J8.s:480    .text.cruiseAccel:00000008 $d
C:\Users\srich\AppData\Local\Temp\cc32e3J8.s:485    .text.cruiseAccelOk:00000000 $t
C:\Users\srich\AppData\Local\Temp\cc32e3J8.s:491    .text.cruiseAccelOk:00000000 cruiseAccelOk
C:\Users\srich\AppData\Local\Temp\cc32e3J8.s:519    .text.cruiseAccelOk:00000018 $d
C:\Users\srich\AppData\Local\Temp\cc32e3J8.s:526    .text.cruiseDecelerat:00000000 $t
C:\Users\srich\AppData\Local\Temp\cc32e3J8.s:532    .text.cruiseDecelerat:00000000 cruiseDecelerat
C:\Users\srich\AppData\Local\Temp\cc32e3J8.s:547    .text.cruiseDecelerat:00000008 $d
C:\Users\srich\AppData\Local\Temp\cc32e3J8.s:552    .text.cruiseDeceleratOk:00000000 $t
C:\Users\srich\AppData\Local\Temp\cc32e3J8.s:558    .text.cruiseDeceleratOk:00000000 cruiseDeceleratOk
C:\Users\srich\AppData\Local\Temp\cc32e3J8.s:586    .text.cruiseDeceleratOk:00000018 $d
C:\Users\srich\AppData\Local\Temp\cc32e3J8.s:596    .text.cruiseIncrease:00000000 $t
C:\Users\srich\AppData\Local\Temp\cc32e3J8.s:602    .text.cruiseIncrease:00000000 cruiseIncrease
C:\Users\srich\AppData\Local\Temp\cc32e3J8.s:663    .text.cruiseIncrease:00000044 $d
C:\Users\srich\AppData\Local\Temp\cc32e3J8.s:670    .text.cruiseReduction:00000000 $t
C:\Users\srich\AppData\Local\Temp\cc32e3J8.s:676    .text.cruiseReduction:00000000 cruiseReduction
C:\Users\srich\AppData\Local\Temp\cc32e3J8.s:713    .text.cruiseReduction:00000028 $d
C:\Users\srich\AppData\Local\Temp\cc32e3J8.s:718    .text.cruiseGetPWM:00000000 $t
C:\Users\srich\AppData\Local\Temp\cc32e3J8.s:724    .text.cruiseGetPWM:00000000 cruiseGetPWM
C:\Users\srich\AppData\Local\Temp\cc32e3J8.s:739    .text.cruiseGetPWM:00000008 $d
C:\Users\srich\AppData\Local\Temp\cc32e3J8.s:744    .text.cruiseGetCurrLimitSubstract:00000000 $t
C:\Users\srich\AppData\Local\Temp\cc32e3J8.s:750    .text.cruiseGetCurrLimitSubstract:00000000 cruiseGetCurrLimitSubstract
C:\Users\srich\AppData\Local\Temp\cc32e3J8.s:765    .text.cruiseGetCurrLimitSubstract:00000008 $d
C:\Users\srich\AppData\Local\Temp\cc32e3J8.s:770    .text.cruiseGet:00000000 $t
C:\Users\srich\AppData\Local\Temp\cc32e3J8.s:776    .text.cruiseGet:00000000 cruiseGet
C:\Users\srich\AppData\Local\Temp\cc32e3J8.s:799    .text.cruiseGet:00000014 $d
C:\Users\srich\AppData\Local\Temp\cc32e3J8.s:804    .text.GetCurrentLimitIsOn:00000000 $t
C:\Users\srich\AppData\Local\Temp\cc32e3J8.s:810    .text.GetCurrentLimitIsOn:00000000 GetCurrentLimitIsOn
C:\Users\srich\AppData\Local\Temp\cc32e3J8.s:825    .text.GetCurrentLimitIsOn:00000008 $d
C:\Users\srich\AppData\Local\Temp\cc32e3J8.s:833    .text.cruisePID:00000000 $t
C:\Users\srich\AppData\Local\Temp\cc32e3J8.s:839    .text.cruisePID:00000000 cruisePID
ARM GAS  C:\Users\srich\AppData\Local\Temp\cc32e3J8.s 			page 174


C:\Users\srich\AppData\Local\Temp\cc32e3J8.s:1103   .text.cruisePID:000001a8 $d
C:\Users\srich\AppData\Local\Temp\cc32e3J8.s:1113   .text.cruiseCalc:00000000 $t
C:\Users\srich\AppData\Local\Temp\cc32e3J8.s:1119   .text.cruiseCalc:00000000 cruiseCalc
C:\Users\srich\AppData\Local\Temp\cc32e3J8.s:1572   .text.cruiseCalc:000002b0 $d
C:\Users\srich\AppData\Local\Temp\cc32e3J8.s:1606   .text.cruiseCalc:0000032c $t
C:\Users\srich\AppData\Local\Temp\cc32e3J8.s:1769   .text.cruiseCalc:00000450 $d
C:\Users\srich\AppData\Local\Temp\cc32e3J8.s:1781   .text.cmd_cruisevalues:00000000 $t
C:\Users\srich\AppData\Local\Temp\cc32e3J8.s:1787   .text.cmd_cruisevalues:00000000 cmd_cruisevalues
C:\Users\srich\AppData\Local\Temp\cc32e3J8.s:1977   .text.cmd_cruisevalues:00000130 $d
C:\Users\srich\AppData\Local\Temp\cc32e3J8.s:2013   .text.cmd_setcruisevalues:00000000 $t
C:\Users\srich\AppData\Local\Temp\cc32e3J8.s:2019   .text.cmd_setcruisevalues:00000000 cmd_setcruisevalues
C:\Users\srich\AppData\Local\Temp\cc32e3J8.s:2300   .text.cmd_setcruisevalues:0000013c $d
C:\Users\srich\AppData\Local\Temp\cc32e3J8.s:2326   .text.cmd_cruise:00000000 $t
C:\Users\srich\AppData\Local\Temp\cc32e3J8.s:2332   .text.cmd_cruise:00000000 cmd_cruise
C:\Users\srich\AppData\Local\Temp\cc32e3J8.s:2475   .text.cmd_cruise:00000078 $d
C:\Users\srich\AppData\Local\Temp\cc32e3J8.s:2490   .text.cmd_current_limit_switch:00000000 $t
C:\Users\srich\AppData\Local\Temp\cc32e3J8.s:2496   .text.cmd_current_limit_switch:00000000 cmd_current_limit_switch
C:\Users\srich\AppData\Local\Temp\cc32e3J8.s:2645   .text.cmd_current_limit_switch:00000094 $d
C:\Users\srich\AppData\Local\Temp\cc32e3J8.s:2663   .text.cmd_regen_brake:00000000 $t
C:\Users\srich\AppData\Local\Temp\cc32e3J8.s:2669   .text.cmd_regen_brake:00000000 cmd_regen_brake
C:\Users\srich\AppData\Local\Temp\cc32e3J8.s:2807   .text.cmd_regen_brake:00000074 $d
C:\Users\srich\AppData\Local\Temp\cc32e3J8.s:2821   .data.K_D:00000000 $d
C:\Users\srich\AppData\Local\Temp\cc32e3J8.s:2825   .data.K_D:00000000 K_D
C:\Users\srich\AppData\Local\Temp\cc32e3J8.s:2828   .bss.old_set:00000000 $d
C:\Users\srich\AppData\Local\Temp\cc32e3J8.s:2832   .bss.old_set:00000000 old_set
C:\Users\srich\AppData\Local\Temp\cc32e3J8.s:2838   .bss.regen_on:00000000 regen_on
C:\Users\srich\AppData\Local\Temp\cc32e3J8.s:2839   .bss.regen_on:00000000 $d
C:\Users\srich\AppData\Local\Temp\cc32e3J8.s:2841   .bss.eelozo:00000000 $d
C:\Users\srich\AppData\Local\Temp\cc32e3J8.s:2845   .bss.eelozo:00000000 eelozo
C:\Users\srich\AppData\Local\Temp\cc32e3J8.s:2848   .bss.cruise_on:00000000 $d
C:\Users\srich\AppData\Local\Temp\cc32e3J8.s:2852   .bss.cruise_on:00000000 cruise_on
C:\Users\srich\AppData\Local\Temp\cc32e3J8.s:2855   .bss.brake_pwm:00000000 $d
C:\Users\srich\AppData\Local\Temp\cc32e3J8.s:2859   .bss.brake_pwm:00000000 brake_pwm
C:\Users\srich\AppData\Local\Temp\cc32e3J8.s:2862   .data.K_P:00000000 $d
C:\Users\srich\AppData\Local\Temp\cc32e3J8.s:2866   .data.K_P:00000000 K_P
C:\Users\srich\AppData\Local\Temp\cc32e3J8.s:2869   .bss.pwm:00000000 $d
C:\Users\srich\AppData\Local\Temp\cc32e3J8.s:2873   .bss.pwm:00000000 pwm
C:\Users\srich\AppData\Local\Temp\cc32e3J8.s:2876   .bss.eeprom_write_period:00000000 $d
C:\Users\srich\AppData\Local\Temp\cc32e3J8.s:2880   .bss.eeprom_write_period:00000000 eeprom_write_period
C:\Users\srich\AppData\Local\Temp\cc32e3J8.s:2883   .bss.cruise_indicator_index:00000000 $d
C:\Users\srich\AppData\Local\Temp\cc32e3J8.s:2887   .bss.cruise_indicator_index:00000000 cruise_indicator_index
C:\Users\srich\AppData\Local\Temp\cc32e3J8.s:2890   .bss.set:00000000 $d
C:\Users\srich\AppData\Local\Temp\cc32e3J8.s:2894   .bss.set:00000000 set
C:\Users\srich\AppData\Local\Temp\cc32e3J8.s:2900   .bss.button_long_decelerat:00000000 button_long_decelerat
C:\Users\srich\AppData\Local\Temp\cc32e3J8.s:2901   .bss.button_long_decelerat:00000000 $d
C:\Users\srich\AppData\Local\Temp\cc32e3J8.s:2903   .data.K_I:00000000 $d
C:\Users\srich\AppData\Local\Temp\cc32e3J8.s:2907   .data.K_I:00000000 K_I
C:\Users\srich\AppData\Local\Temp\cc32e3J8.s:2910   .rodata.str1.4:00000000 $d
C:\Users\srich\AppData\Local\Temp\cc32e3J8.s:3022   .bss.d_tag:00000000 $d
C:\Users\srich\AppData\Local\Temp\cc32e3J8.s:3026   .bss.d_tag:00000000 d_tag
C:\Users\srich\AppData\Local\Temp\cc32e3J8.s:3029   .bss.p_tag:00000000 $d
C:\Users\srich\AppData\Local\Temp\cc32e3J8.s:3033   .bss.p_tag:00000000 p_tag
C:\Users\srich\AppData\Local\Temp\cc32e3J8.s:3036   .bss.result:00000000 $d
C:\Users\srich\AppData\Local\Temp\cc32e3J8.s:3040   .bss.result:00000000 result
C:\Users\srich\AppData\Local\Temp\cc32e3J8.s:3046   .data.current_limit_status:00000000 current_limit_status
C:\Users\srich\AppData\Local\Temp\cc32e3J8.s:3052   .bss.cruise_indicator:00000000 cruise_indicator
C:\Users\srich\AppData\Local\Temp\cc32e3J8.s:3053   .bss.cruise_indicator:00000000 $d
ARM GAS  C:\Users\srich\AppData\Local\Temp\cc32e3J8.s 			page 175


C:\Users\srich\AppData\Local\Temp\cc32e3J8.s:3055   .data.cruise_pwmcfg:00000000 $d
C:\Users\srich\AppData\Local\Temp\cc32e3J8.s:3059   .data.cruise_pwmcfg:00000000 cruise_pwmcfg
C:\Users\srich\AppData\Local\Temp\cc32e3J8.s:3078   .bss.CurrentLimitIsOn:00000000 CurrentLimitIsOn
C:\Users\srich\AppData\Local\Temp\cc32e3J8.s:3079   .bss.CurrentLimitIsOn:00000000 $d
C:\Users\srich\AppData\Local\Temp\cc32e3J8.s:3081   .bss.cruise_disable_period:00000000 $d
C:\Users\srich\AppData\Local\Temp\cc32e3J8.s:3085   .bss.cruise_disable_period:00000000 cruise_disable_period
C:\Users\srich\AppData\Local\Temp\cc32e3J8.s:3088   .bss.substract:00000000 $d
C:\Users\srich\AppData\Local\Temp\cc32e3J8.s:3092   .bss.substract:00000000 substract
C:\Users\srich\AppData\Local\Temp\cc32e3J8.s:3098   .bss.button_long_accel:00000000 button_long_accel
C:\Users\srich\AppData\Local\Temp\cc32e3J8.s:3099   .bss.button_long_accel:00000000 $d
C:\Users\srich\AppData\Local\Temp\cc32e3J8.s:3101   .bss.i_tag:00000000 $d
C:\Users\srich\AppData\Local\Temp\cc32e3J8.s:3105   .bss.i_tag:00000000 i_tag
C:\Users\srich\AppData\Local\Temp\cc32e3J8.s:3108   .bss.e_tag:00000000 $d
C:\Users\srich\AppData\Local\Temp\cc32e3J8.s:3112   .bss.e_tag:00000000 e_tag
C:\Users\srich\AppData\Local\Temp\cc32e3J8.s:3118   .bss.eeprom_write:00000000 eeprom_write
C:\Users\srich\AppData\Local\Temp\cc32e3J8.s:3119   .bss.eeprom_write:00000000 $d
C:\Users\srich\AppData\Local\Temp\cc32e3J8.s:3121   .bss.accel_limit:00000000 $d
C:\Users\srich\AppData\Local\Temp\cc32e3J8.s:3125   .bss.accel_limit:00000000 accel_limit
C:\Users\srich\AppData\Local\Temp\cc32e3J8.s:3128   .bss.save_pwm:00000000 $d
C:\Users\srich\AppData\Local\Temp\cc32e3J8.s:3132   .bss.save_pwm:00000000 save_pwm
                     .debug_frame:00000010 $d

UNDEFINED SYMBOLS
chvprintf
eepromRead
pwmStart
speedKMPH_TO_RPM
PWMD5
speedGetRpm
__aeabi_i2d
__aeabi_dadd
__aeabi_d2iz
__aeabi_dsub
speedRPM_TO_KMPH
__aeabi_dmul
__aeabi_dcmpgt
__aeabi_dcmplt
measGetValue_2
speedGetSpeed
pwmEnableChannel
eepromWrite
bmsitems
measGetValue
chThdSleep
strcmp
atol
