ARM GAS  C:\Users\DNIEL~1\AppData\Local\Temp\cc7TYfMd.s 			page 1


   1              		.syntax unified
   2              		.cpu cortex-m4
   3              		.fpu softvfp
   4              		.eabi_attribute 20, 1
   5              		.eabi_attribute 21, 1
   6              		.eabi_attribute 23, 3
   7              		.eabi_attribute 24, 1
   8              		.eabi_attribute 25, 1
   9              		.eabi_attribute 26, 1
  10              		.eabi_attribute 30, 2
  11              		.eabi_attribute 18, 4
  12              		.thumb
  13              		.file	"cruise.c"
  14              		.section	.debug_abbrev,"",%progbits
  15              	.Ldebug_abbrev0:
  16              		.section	.debug_info,"",%progbits
  17              	.Ldebug_info0:
  18              		.section	.debug_line,"",%progbits
  19              	.Ldebug_line0:
  20 0000 81050000 		.text
  20      0200A902 
  20      00000201 
  20      FB0E0D00 
  20      01010101 
  21              	.Ltext0:
  22              		.cfi_sections	.debug_frame
  23              		.section	.text.chprintf,"ax",%progbits
  24              		.align	2
  25              		.p2align 4,,15
  26              		.thumb
  27              		.thumb_func
  28              		.type	chprintf, %function
  29              	chprintf:
  30              	.LFB118:
  31              		.file 1 "../../../ChibiOS/os/various/chprintf.h"
  32              		.loc 1 69 0
  33              		.cfi_startproc
  34              		@ args = 4, pretend = 12, frame = 8
  35              		@ frame_needed = 0, uses_anonymous_args = 1
  36              	.LVL0:
  37 0000 0EB4     		push	{r1, r2, r3}
  38              	.LCFI0:
  39              		.cfi_def_cfa_offset 12
  40 0002 00B5     		push	{lr}
  41              	.LCFI1:
  42              		.cfi_def_cfa_offset 16
  43 0004 82B0     		sub	sp, sp, #8
  44              	.LCFI2:
  45              		.cfi_def_cfa_offset 24
  46              		.loc 1 69 0
  47 0006 03AB     		add	r3, sp, #12
  48              		.cfi_offset 14, -16
  49              		.cfi_offset 3, -4
  50              		.cfi_offset 2, -8
  51              		.cfi_offset 1, -12
  52 0008 53F8041B 		ldr	r1, [r3], #4
  53              		.loc 1 73 0
ARM GAS  C:\Users\DNIEL~1\AppData\Local\Temp\cc7TYfMd.s 			page 2


  54 000c 1A46     		mov	r2, r3
  55              		.loc 1 72 0
  56 000e 0193     		str	r3, [sp, #4]
  57              		.loc 1 73 0
  58 0010 FFF7FEFF 		bl	chvprintf
  59              	.LVL1:
  60              		.loc 1 75 0
  61 0014 02B0     		add	sp, sp, #8
  62 0016 5DF804EB 		pop	{lr}
  63 001a 03B0     		add	sp, sp, #12
  64 001c 7047     		bx	lr
  65              		.cfi_endproc
  66              	.LFE118:
  67              		.size	chprintf, .-chprintf
  68 001e 00BF     		.section	.text.cruiseInit,"ax",%progbits
  69              		.align	2
  70              		.p2align 4,,15
  71              		.global	cruiseInit
  72              		.thumb
  73              		.thumb_func
  74              		.type	cruiseInit, %function
  75              	cruiseInit:
  76              	.LFB119:
  77              		.file 2 "src/cruise.c"
  78              		.loc 2 64 0
  79              		.cfi_startproc
  80              		@ args = 0, pretend = 0, frame = 0
  81              		@ frame_needed = 0, uses_anonymous_args = 0
  82 0000 2DE9F041 		push	{r4, r5, r6, r7, r8, lr}
  83              	.LCFI3:
  84              		.cfi_def_cfa_offset 24
  85              		.loc 2 65 0
  86 0004 284F     		ldr	r7, .L10+16
  87              		.cfi_offset 14, -4
  88              		.cfi_offset 8, -8
  89              		.cfi_offset 7, -12
  90              		.cfi_offset 6, -16
  91              		.cfi_offset 5, -20
  92              		.cfi_offset 4, -24
  93              		.loc 2 74 0
  94 0006 294D     		ldr	r5, .L10+20
  95              		.loc 2 85 0
  96 0008 294E     		ldr	r6, .L10+24
  97              		.loc 2 65 0
  98 000a 42F2107E 		movw	lr, #10000
  99 000e C7F800E0 		str	lr, [r7, #0]
 100              		.loc 2 67 0
 101 0012 284F     		ldr	r7, .L10+28
 102 0014 0024     		movs	r4, #0
 103 0016 3C60     		str	r4, [r7, #0]
 104              		.loc 2 68 0
 105 0018 274F     		ldr	r7, .L10+32
 106              		.loc 2 74 0
 107 001a 2C60     		str	r4, [r5, #0]
 108              		.loc 2 68 0
 109 001c 3C80     		strh	r4, [r7, #0]	@ movhi
 110              		.loc 2 69 0
ARM GAS  C:\Users\DNIEL~1\AppData\Local\Temp\cc7TYfMd.s 			page 3


 111 001e 274F     		ldr	r7, .L10+36
 112              		.loc 2 76 0
 113 0020 274D     		ldr	r5, .L10+40
 114              		.loc 2 69 0
 115 0022 3C70     		strb	r4, [r7, #0]
 116              		.loc 2 71 0
 117 0024 274F     		ldr	r7, .L10+44
 118              		.loc 2 76 0
 119 0026 2C80     		strh	r4, [r5, #0]	@ movhi
 120              		.loc 2 71 0
 121 0028 3C70     		strb	r4, [r7, #0]
 122              		.loc 2 73 0
 123 002a 274F     		ldr	r7, .L10+48
 124              		.loc 2 85 0
 125 002c 2046     		mov	r0, r4
 126              		.loc 2 73 0
 127 002e 3C70     		strb	r4, [r7, #0]
 128              		.loc 2 79 0
 129 0030 19A5     		adr	r5, .L10
 130 0032 D5E90045 		ldrd	r4, [r5]
 131 0036 254F     		ldr	r7, .L10+52
 132 0038 C7E90045 		strd	r4, [r7]
 133              		.loc 2 80 0
 134 003c 18A5     		adr	r5, .L10+8
 135 003e D5E90045 		ldrd	r4, [r5]
 136 0042 234F     		ldr	r7, .L10+56
 137 0044 C7E90045 		strd	r4, [r7]
 138              		.loc 2 81 0
 139 0048 224C     		ldr	r4, .L10+60
 140 004a 0022     		movs	r2, #0
 141 004c 0023     		movs	r3, #0
 142 004e C4E90023 		strd	r2, [r4]
 143              		.loc 2 82 0
 144 0052 214C     		ldr	r4, .L10+64
 145 0054 C4E90023 		strd	r2, [r4]
 146              		.loc 2 83 0
 147 0058 204C     		ldr	r4, .L10+68
 148              		.loc 2 85 0
 149 005a 3146     		mov	r1, r6
 150              		.loc 2 83 0
 151 005c C4E90023 		strd	r2, [r4]
 152              		.loc 2 85 0
 153 0060 FFF7FEFF 		bl	eepromRead
 154 0064 80B9     		cbnz	r0, .L3
 155 0066 3088     		ldrh	r0, [r6, #0]
 156              	.L4:
 157              		.loc 2 88 0
 158 0068 00B2     		sxth	r0, r0
 159 006a 40F21453 		movw	r3, #1300
 160 006e 9842     		cmp	r0, r3
 161 0070 08DC     		bgt	.L7
 162              		.loc 2 92 0
 163 0072 0028     		cmp	r0, #0
 164 0074 05DB     		blt	.L9
 165              	.L6:
 166              		.loc 2 97 0
 167 0076 1A48     		ldr	r0, .L10+72
ARM GAS  C:\Users\DNIEL~1\AppData\Local\Temp\cc7TYfMd.s 			page 4


 168 0078 1A49     		ldr	r1, .L10+76
 169              		.loc 2 98 0
 170 007a BDE8F041 		pop	{r4, r5, r6, r7, r8, lr}
 171              		.loc 2 97 0
 172 007e FFF7FEBF 		b	pwmStart
 173              	.L9:
 174              		.loc 2 94 0
 175 0082 0023     		movs	r3, #0
 176              	.L7:
 177 0084 3380     		strh	r3, [r6, #0]	@ movhi
 178 0086 F6E7     		b	.L6
 179              	.L3:
 180              		.loc 2 86 0
 181 0088 0020     		movs	r0, #0
 182 008a 1749     		ldr	r1, .L10+80
 183 008c FFF7FEFF 		bl	speedKMPH_TO_RPM
 184 0090 3080     		strh	r0, [r6, #0]	@ movhi
 185 0092 E9E7     		b	.L4
 186              	.L11:
 187 0094 AFF30080 		.align	3
 188              	.L10:
 189 0098 00000000 		.word	0
 190 009c 0052A740 		.word	1084707328
 191 00a0 00000000 		.word	0
 192 00a4 00701741 		.word	1092055040
 193 00a8 00000000 		.word	.LANCHOR0
 194 00ac 00000000 		.word	.LANCHOR6
 195 00b0 00000000 		.word	.LANCHOR13
 196 00b4 00000000 		.word	.LANCHOR1
 197 00b8 00000000 		.word	.LANCHOR2
 198 00bc 00000000 		.word	.LANCHOR3
 199 00c0 00000000 		.word	.LANCHOR7
 200 00c4 00000000 		.word	.LANCHOR4
 201 00c8 00000000 		.word	.LANCHOR5
 202 00cc 00000000 		.word	.LANCHOR8
 203 00d0 00000000 		.word	.LANCHOR9
 204 00d4 00000000 		.word	.LANCHOR10
 205 00d8 00000000 		.word	.LANCHOR11
 206 00dc 00000000 		.word	.LANCHOR12
 207 00e0 00000000 		.word	PWMD5
 208 00e4 00000000 		.word	.LANCHOR14
 209 00e8 00004940 		.word	1078525952
 210              		.cfi_endproc
 211              	.LFE119:
 212              		.size	cruiseInit, .-cruiseInit
 213 00ec AFF30080 		.section	.text.cruiseEnable,"ax",%progbits
 214              		.align	2
 215              		.p2align 4,,15
 216              		.global	cruiseEnable
 217              		.thumb
 218              		.thumb_func
 219              		.type	cruiseEnable, %function
 220              	cruiseEnable:
 221              	.LFB121:
 222              		.loc 2 184 0
 223              		.cfi_startproc
 224              		@ args = 0, pretend = 0, frame = 0
ARM GAS  C:\Users\DNIEL~1\AppData\Local\Temp\cc7TYfMd.s 			page 5


 225              		@ frame_needed = 0, uses_anonymous_args = 0
 226              		@ link register save eliminated.
 227              		.loc 2 185 0
 228 0000 0349     		ldr	r1, .L13
 229              		.loc 2 186 0
 230 0002 044B     		ldr	r3, .L13+4
 231              		.loc 2 185 0
 232 0004 0120     		movs	r0, #1
 233              		.loc 2 186 0
 234 0006 0022     		movs	r2, #0
 235              		.loc 2 185 0
 236 0008 0870     		strb	r0, [r1, #0]
 237              		.loc 2 186 0
 238 000a 1A80     		strh	r2, [r3, #0]	@ movhi
 239              		.loc 2 187 0
 240 000c 7047     		bx	lr
 241              	.L14:
 242 000e 00BF     		.align	2
 243              	.L13:
 244 0010 00000000 		.word	.LANCHOR4
 245 0014 00000000 		.word	.LANCHOR7
 246              		.cfi_endproc
 247              	.LFE121:
 248              		.size	cruiseEnable, .-cruiseEnable
 249 0018 AFF30080 		.section	.text.cruiseDisable,"ax",%progbits
 249      AFF30080 
 250              		.align	2
 251              		.p2align 4,,15
 252              		.global	cruiseDisable
 253              		.thumb
 254              		.thumb_func
 255              		.type	cruiseDisable, %function
 256              	cruiseDisable:
 257              	.LFB122:
 258              		.loc 2 189 0
 259              		.cfi_startproc
 260              		@ args = 0, pretend = 0, frame = 0
 261              		@ frame_needed = 0, uses_anonymous_args = 0
 262              		@ link register save eliminated.
 263              		.loc 2 190 0
 264 0000 014B     		ldr	r3, .L16
 265 0002 0022     		movs	r2, #0
 266 0004 1A70     		strb	r2, [r3, #0]
 267              		.loc 2 191 0
 268 0006 7047     		bx	lr
 269              	.L17:
 270              		.align	2
 271              	.L16:
 272 0008 00000000 		.word	.LANCHOR4
 273              		.cfi_endproc
 274              	.LFE122:
 275              		.size	cruiseDisable, .-cruiseDisable
 276 000c AFF30080 		.section	.text.cruiseStatus,"ax",%progbits
 277              		.align	2
 278              		.p2align 4,,15
 279              		.global	cruiseStatus
 280              		.thumb
ARM GAS  C:\Users\DNIEL~1\AppData\Local\Temp\cc7TYfMd.s 			page 6


 281              		.thumb_func
 282              		.type	cruiseStatus, %function
 283              	cruiseStatus:
 284              	.LFB123:
 285              		.loc 2 193 0
 286              		.cfi_startproc
 287              		@ args = 0, pretend = 0, frame = 0
 288              		@ frame_needed = 0, uses_anonymous_args = 0
 289              		@ link register save eliminated.
 290              		.loc 2 193 0
 291 0000 014B     		ldr	r3, .L19
 292              		.loc 2 195 0
 293 0002 1878     		ldrb	r0, [r3, #0]	@ zero_extendqisi2
 294 0004 7047     		bx	lr
 295              	.L20:
 296 0006 00BF     		.align	2
 297              	.L19:
 298 0008 00000000 		.word	.LANCHOR4
 299              		.cfi_endproc
 300              	.LFE123:
 301              		.size	cruiseStatus, .-cruiseStatus
 302 000c AFF30080 		.section	.text.cruiseIndicator,"ax",%progbits
 303              		.align	2
 304              		.p2align 4,,15
 305              		.global	cruiseIndicator
 306              		.thumb
 307              		.thumb_func
 308              		.type	cruiseIndicator, %function
 309              	cruiseIndicator:
 310              	.LFB124:
 311              		.loc 2 197 0
 312              		.cfi_startproc
 313              		@ args = 0, pretend = 0, frame = 0
 314              		@ frame_needed = 0, uses_anonymous_args = 0
 315              		@ link register save eliminated.
 316              		.loc 2 197 0
 317 0000 014B     		ldr	r3, .L22
 318              		.loc 2 199 0
 319 0002 1878     		ldrb	r0, [r3, #0]	@ zero_extendqisi2
 320 0004 7047     		bx	lr
 321              	.L23:
 322 0006 00BF     		.align	2
 323              	.L22:
 324 0008 00000000 		.word	.LANCHOR5
 325              		.cfi_endproc
 326              	.LFE124:
 327              		.size	cruiseIndicator, .-cruiseIndicator
 328              		.global	__aeabi_i2d
 329              		.global	__aeabi_dadd
 330              		.global	__aeabi_d2iz
 331 000c AFF30080 		.section	.text.cruiseIncrease,"ax",%progbits
 332              		.align	2
 333              		.p2align 4,,15
 334              		.global	cruiseIncrease
 335              		.thumb
 336              		.thumb_func
 337              		.type	cruiseIncrease, %function
ARM GAS  C:\Users\DNIEL~1\AppData\Local\Temp\cc7TYfMd.s 			page 7


 338              	cruiseIncrease:
 339              	.LFB125:
 340              		.loc 2 201 0
 341              		.cfi_startproc
 342              		@ args = 0, pretend = 0, frame = 0
 343              		@ frame_needed = 0, uses_anonymous_args = 0
 344              	.LVL2:
 345 0000 70B5     		push	{r4, r5, r6, lr}
 346              	.LCFI4:
 347              		.cfi_def_cfa_offset 16
 348              		.loc 2 202 0
 349 0002 134E     		ldr	r6, .L28+8
 350              		.cfi_offset 14, -4
 351              		.cfi_offset 6, -8
 352              		.cfi_offset 5, -12
 353              		.cfi_offset 4, -16
 354              		.loc 2 201 0
 355 0004 0446     		mov	r4, r0
 356 0006 0D46     		mov	r5, r1
 357              		.loc 2 202 0
 358 0008 B6F90000 		ldrsh	r0, [r6, #0]
 359              	.LVL3:
 360 000c FFF7FEFF 		bl	__aeabi_i2d
 361 0010 2246     		mov	r2, r4
 362 0012 2B46     		mov	r3, r5
 363 0014 FFF7FEFF 		bl	__aeabi_dadd
 364 0018 FFF7FEFF 		bl	__aeabi_d2iz
 365 001c 0346     		mov	r3, r0
 366              		.loc 2 203 0
 367 001e 0AA1     		adr	r1, .L28
 368 0020 D1E90001 		ldrd	r0, [r1]
 369              		.loc 2 202 0
 370 0024 1C46     		mov	r4, r3	@ movhi
 371 0026 3380     		strh	r3, [r6, #0]	@ movhi
 372              		.loc 2 203 0
 373 0028 FFF7FEFF 		bl	speedKMPH_TO_RPM
 374 002c 24B2     		sxth	r4, r4
 375 002e 8442     		cmp	r4, r0
 376 0030 02D8     		bhi	.L27
 377              		.loc 2 203 0 is_stmt 0 discriminator 2
 378 0032 3088     		ldrh	r0, [r6, #0]
 379 0034 3080     		strh	r0, [r6, #0]	@ movhi
 380              		.loc 2 204 0 is_stmt 1 discriminator 2
 381 0036 70BD     		pop	{r4, r5, r6, pc}
 382              	.L27:
 383              		.loc 2 203 0 discriminator 1
 384 0038 03A1     		adr	r1, .L28
 385 003a D1E90001 		ldrd	r0, [r1]
 386 003e FFF7FEFF 		bl	speedKMPH_TO_RPM
 387 0042 3080     		strh	r0, [r6, #0]	@ movhi
 388              		.loc 2 204 0 discriminator 1
 389 0044 70BD     		pop	{r4, r5, r6, pc}
 390              	.L29:
 391 0046 00BF     		.align	3
 392              	.L28:
 393 0048 00000000 		.word	0
 394 004c 00406040 		.word	1080049664
ARM GAS  C:\Users\DNIEL~1\AppData\Local\Temp\cc7TYfMd.s 			page 8


 395 0050 00000000 		.word	.LANCHOR13
 396              		.cfi_endproc
 397              	.LFE125:
 398              		.size	cruiseIncrease, .-cruiseIncrease
 399              		.global	__aeabi_dsub
 400 0054 AFF30080 		.section	.text.cruiseReduction,"ax",%progbits
 400      AFF30080 
 400      AFF30080 
 401              		.align	2
 402              		.p2align 4,,15
 403              		.global	cruiseReduction
 404              		.thumb
 405              		.thumb_func
 406              		.type	cruiseReduction, %function
 407              	cruiseReduction:
 408              	.LFB126:
 409              		.loc 2 205 0
 410              		.cfi_startproc
 411              		@ args = 0, pretend = 0, frame = 0
 412              		@ frame_needed = 0, uses_anonymous_args = 0
 413              	.LVL4:
 414 0000 70B5     		push	{r4, r5, r6, lr}
 415              	.LCFI5:
 416              		.cfi_def_cfa_offset 16
 417              		.loc 2 207 0
 418 0002 094E     		ldr	r6, .L31
 419              		.cfi_offset 14, -4
 420              		.cfi_offset 6, -8
 421              		.cfi_offset 5, -12
 422              		.cfi_offset 4, -16
 423              		.loc 2 205 0
 424 0004 0446     		mov	r4, r0
 425 0006 0D46     		mov	r5, r1
 426              		.loc 2 206 0
 427 0008 B6F90000 		ldrsh	r0, [r6, #0]
 428              	.LVL5:
 429 000c FFF7FEFF 		bl	__aeabi_i2d
 430 0010 2246     		mov	r2, r4
 431 0012 2B46     		mov	r3, r5
 432 0014 FFF7FEFF 		bl	__aeabi_dsub
 433 0018 FFF7FEFF 		bl	__aeabi_d2iz
 434              		.loc 2 207 0
 435 001c 0FFA80FC 		sxth	ip, r0
 436 0020 2CEAEC70 		bic	r0, ip, ip, asr #31
 437 0024 3080     		strh	r0, [r6, #0]	@ movhi
 438              		.loc 2 208 0
 439 0026 70BD     		pop	{r4, r5, r6, pc}
 440              	.L32:
 441              		.align	2
 442              	.L31:
 443 0028 00000000 		.word	.LANCHOR13
 444              		.cfi_endproc
 445              	.LFE126:
 446              		.size	cruiseReduction, .-cruiseReduction
 447 002c AFF30080 		.section	.text.cruiseGet,"ax",%progbits
 448              		.align	2
 449              		.p2align 4,,15
ARM GAS  C:\Users\DNIEL~1\AppData\Local\Temp\cc7TYfMd.s 			page 9


 450              		.global	cruiseGet
 451              		.thumb
 452              		.thumb_func
 453              		.type	cruiseGet, %function
 454              	cruiseGet:
 455              	.LFB127:
 456              		.loc 2 210 0
 457              		.cfi_startproc
 458              		@ args = 0, pretend = 0, frame = 0
 459              		@ frame_needed = 0, uses_anonymous_args = 0
 460 0000 08B5     		push	{r3, lr}
 461              	.LCFI6:
 462              		.cfi_def_cfa_offset 8
 463              		.loc 2 211 0
 464 0002 044B     		ldr	r3, .L34
 465              		.cfi_offset 14, -4
 466              		.cfi_offset 3, -8
 467 0004 B3F90000 		ldrsh	r0, [r3, #0]
 468 0008 FFF7FEFF 		bl	__aeabi_i2d
 469 000c FFF7FEFF 		bl	speedRPM_TO_KMPH
 470              		.loc 2 212 0
 471 0010 C0B2     		uxtb	r0, r0
 472 0012 08BD     		pop	{r3, pc}
 473              	.L35:
 474              		.align	2
 475              	.L34:
 476 0014 00000000 		.word	.LANCHOR13
 477              		.cfi_endproc
 478              	.LFE127:
 479              		.size	cruiseGet, .-cruiseGet
 480              		.global	__aeabi_dmul
 481              		.global	__aeabi_dcmpgt
 482              		.global	__aeabi_dcmplt
 483 0018 AFF30080 		.section	.text.cruisePID,"ax",%progbits
 483      AFF30080 
 484              		.align	2
 485              		.p2align 4,,15
 486              		.global	cruisePID
 487              		.thumb
 488              		.thumb_func
 489              		.type	cruisePID, %function
 490              	cruisePID:
 491              	.LFB128:
 492              		.loc 2 215 0
 493              		.cfi_startproc
 494              		@ args = 36, pretend = 0, frame = 24
 495              		@ frame_needed = 0, uses_anonymous_args = 0
 496              	.LVL6:
 497 0000 2DE9F04F 		push	{r4, r5, r6, r7, r8, r9, sl, fp, lr}
 498              	.LCFI7:
 499              		.cfi_def_cfa_offset 36
 500 0004 87B0     		sub	sp, sp, #28
 501              	.LCFI8:
 502              		.cfi_def_cfa_offset 64
 503              		.loc 2 216 0
 504 0006 081A     		subs	r0, r1, r0
 505              	.LVL7:
ARM GAS  C:\Users\DNIEL~1\AppData\Local\Temp\cc7TYfMd.s 			page 10


 506              		.loc 2 215 0
 507 0008 9346     		mov	fp, r2
 508              		.cfi_offset 14, -4
 509              		.cfi_offset 11, -8
 510              		.cfi_offset 10, -12
 511              		.cfi_offset 9, -16
 512              		.cfi_offset 8, -20
 513              		.cfi_offset 7, -24
 514              		.cfi_offset 6, -28
 515              		.cfi_offset 5, -32
 516              		.cfi_offset 4, -36
 517 000a 0593     		str	r3, [sp, #20]
 518              		.loc 2 216 0
 519 000c FFF7FEFF 		bl	__aeabi_i2d
 520              	.LVL8:
 521 0010 5E4E     		ldr	r6, .L61
 522              		.loc 2 215 0
 523 0012 169C     		ldr	r4, [sp, #88]
 524              		.loc 2 219 0
 525 0014 5E4D     		ldr	r5, .L61+4
 526              		.loc 2 215 0
 527 0016 DDF85CA0 		ldr	sl, [sp, #92]
 528              		.loc 2 219 0
 529 001a DDE91023 		ldrd	r2, [sp, #64]
 530              		.loc 2 216 0
 531 001e CDE90001 		strd	r0, [sp]
 532 0022 C6E90001 		strd	r0, [r6]
 533              		.loc 2 219 0
 534 0026 FFF7FEFF 		bl	__aeabi_dmul
 535 002a 8046     		mov	r8, r0
 536 002c 8946     		mov	r9, r1
 537              		.loc 2 220 0
 538 002e 2046     		mov	r0, r4
 539              		.loc 2 219 0
 540 0030 C5E90089 		strd	r8, [r5]
 541              		.loc 2 220 0
 542 0034 FFF7FEFF 		bl	__aeabi_i2d
 543 0038 CDE90201 		strd	r0, [sp, #8]
 544 003c DDE90223 		ldrd	r2, [sp, #8]
 545 0040 4046     		mov	r0, r8
 546 0042 4946     		mov	r1, r9
 547 0044 FFF7FEFF 		bl	__aeabi_dcmpgt
 548 0048 0028     		cmp	r0, #0
 549 004a 63D0     		beq	.L57
 550              		.loc 2 221 0
 551 004c DDE90223 		ldrd	r2, [sp, #8]
 552 0050 C5E90023 		strd	r2, [r5]
 553              	.L39:
 554              		.loc 2 229 0
 555 0054 4F4C     		ldr	r4, .L61+8
 556 0056 DDE91223 		ldrd	r2, [sp, #72]
 557 005a DDE90001 		ldrd	r0, [sp]
 558 005e FFF7FEFF 		bl	__aeabi_dmul
 559 0062 D4E90023 		ldrd	r2, [r4]
 560 0066 FFF7FEFF 		bl	__aeabi_dadd
 561 006a 8046     		mov	r8, r0
 562 006c 8946     		mov	r9, r1
ARM GAS  C:\Users\DNIEL~1\AppData\Local\Temp\cc7TYfMd.s 			page 11


 563              		.loc 2 230 0
 564 006e 5046     		mov	r0, sl
 565              		.loc 2 229 0
 566 0070 C4E90089 		strd	r8, [r4]
 567              		.loc 2 230 0
 568 0074 FFF7FEFF 		bl	__aeabi_i2d
 569 0078 CDE90201 		strd	r0, [sp, #8]
 570 007c DDE90223 		ldrd	r2, [sp, #8]
 571 0080 4046     		mov	r0, r8
 572 0082 4946     		mov	r1, r9
 573 0084 FFF7FEFF 		bl	__aeabi_dcmpgt
 574 0088 0028     		cmp	r0, #0
 575 008a 68D0     		beq	.L58
 576              		.loc 2 231 0
 577 008c DDE90223 		ldrd	r2, [sp, #8]
 578 0090 C4E90023 		strd	r2, [r4]
 579              	.L43:
 580              		.loc 2 239 0
 581 0094 404F     		ldr	r7, .L61+12
 582 0096 DFF808A1 		ldr	sl, .L61+20
 583 009a DDE90001 		ldrd	r0, [sp]
 584 009e D7E90023 		ldrd	r2, [r7]
 585 00a2 FFF7FEFF 		bl	__aeabi_dsub
 586 00a6 DDE91423 		ldrd	r2, [sp, #80]
 587 00aa FFF7FEFF 		bl	__aeabi_dmul
 588 00ae 8046     		mov	r8, r0
 589 00b0 8946     		mov	r9, r1
 590              		.loc 2 240 0
 591 00b2 1898     		ldr	r0, [sp, #96]
 592              		.loc 2 239 0
 593 00b4 CAE90089 		strd	r8, [sl]
 594              		.loc 2 240 0
 595 00b8 FFF7FEFF 		bl	__aeabi_i2d
 596 00bc CDE90001 		strd	r0, [sp]
 597 00c0 DDE90023 		ldrd	r2, [sp]
 598 00c4 4046     		mov	r0, r8
 599 00c6 4946     		mov	r1, r9
 600 00c8 FFF7FEFF 		bl	__aeabi_dcmpgt
 601 00cc 0028     		cmp	r0, #0
 602 00ce 33D0     		beq	.L59
 603              		.loc 2 241 0
 604 00d0 DDE90023 		ldrd	r2, [sp]
 605 00d4 CAE90023 		strd	r2, [sl]
 606 00d8 9046     		mov	r8, r2
 607 00da 9946     		mov	r9, r3
 608              	.L47:
 609              		.loc 2 249 0
 610 00dc D4E90023 		ldrd	r2, [r4]
 611 00e0 D5E90001 		ldrd	r0, [r5]
 612 00e4 FFF7FEFF 		bl	__aeabi_dadd
 613 00e8 4B46     		mov	r3, r9
 614 00ea 4246     		mov	r2, r8
 615 00ec FFF7FEFF 		bl	__aeabi_dadd
 616 00f0 FFF7FEFF 		bl	__aeabi_d2iz
 617 00f4 294B     		ldr	r3, .L61+16
 618              		.loc 2 251 0
 619 00f6 5845     		cmp	r0, fp
ARM GAS  C:\Users\DNIEL~1\AppData\Local\Temp\cc7TYfMd.s 			page 12


 620              		.loc 2 249 0
 621 00f8 1860     		str	r0, [r3, #0]
 622              		.loc 2 251 0
 623 00fa 43DC     		bgt	.L60
 624              		.loc 2 254 0
 625 00fc 059A     		ldr	r2, [sp, #20]
 626 00fe 9042     		cmp	r0, r2
 627              		.loc 2 255 0
 628 0100 BCBF     		itt	lt
 629 0102 1A60     		strlt	r2, [r3, #0]
 630 0104 1046     		movlt	r0, r2
 631              	.L50:
 632              		.loc 2 257 0
 633 0106 D6E90023 		ldrd	r2, [r6]
 634 010a C7E90023 		strd	r2, [r7]
 635              		.loc 2 260 0
 636 010e 07B0     		add	sp, sp, #28
 637 0110 BDE8F08F 		pop	{r4, r5, r6, r7, r8, r9, sl, fp, pc}
 638              	.L57:
 639              		.loc 2 223 0
 640 0114 6042     		negs	r0, r4
 641 0116 FFF7FEFF 		bl	__aeabi_i2d
 642 011a CDE90201 		strd	r0, [sp, #8]
 643 011e DDE90223 		ldrd	r2, [sp, #8]
 644 0122 4046     		mov	r0, r8
 645 0124 4946     		mov	r1, r9
 646 0126 FFF7FEFF 		bl	__aeabi_dcmplt
 647 012a 0028     		cmp	r0, #0
 648 012c 92D0     		beq	.L39
 649              		.loc 2 224 0
 650 012e DDE90289 		ldrd	r8, [sp, #8]
 651 0132 C5E90089 		strd	r8, [r5]
 652 0136 8DE7     		b	.L39
 653              	.L59:
 654              		.loc 2 243 0
 655 0138 189B     		ldr	r3, [sp, #96]
 656 013a 5842     		negs	r0, r3
 657 013c FFF7FEFF 		bl	__aeabi_i2d
 658 0140 CDE90001 		strd	r0, [sp]
 659 0144 DDE90023 		ldrd	r2, [sp]
 660 0148 4046     		mov	r0, r8
 661 014a 4946     		mov	r1, r9
 662 014c FFF7FEFF 		bl	__aeabi_dcmplt
 663 0150 0028     		cmp	r0, #0
 664 0152 C3D0     		beq	.L47
 665              		.loc 2 244 0
 666 0154 DDE90089 		ldrd	r8, [sp]
 667 0158 CAE90089 		strd	r8, [sl]
 668 015c BEE7     		b	.L47
 669              	.L58:
 670              		.loc 2 233 0
 671 015e CAF10000 		rsb	r0, sl, #0
 672 0162 FFF7FEFF 		bl	__aeabi_i2d
 673 0166 CDE90201 		strd	r0, [sp, #8]
 674 016a DDE90223 		ldrd	r2, [sp, #8]
 675 016e 4046     		mov	r0, r8
 676 0170 4946     		mov	r1, r9
ARM GAS  C:\Users\DNIEL~1\AppData\Local\Temp\cc7TYfMd.s 			page 13


 677 0172 FFF7FEFF 		bl	__aeabi_dcmplt
 678 0176 0028     		cmp	r0, #0
 679 0178 8CD0     		beq	.L43
 680              		.loc 2 234 0
 681 017a DDE90289 		ldrd	r8, [sp, #8]
 682 017e C4E90089 		strd	r8, [r4]
 683 0182 87E7     		b	.L43
 684              	.L60:
 685              		.loc 2 252 0
 686 0184 C3F800B0 		str	fp, [r3, #0]
 687 0188 5846     		mov	r0, fp
 688 018a BCE7     		b	.L50
 689              	.L62:
 690              		.align	2
 691              	.L61:
 692 018c 00000000 		.word	.LANCHOR12
 693 0190 00000000 		.word	.LANCHOR8
 694 0194 00000000 		.word	.LANCHOR9
 695 0198 00000000 		.word	.LANCHOR11
 696 019c 00000000 		.word	.LANCHOR15
 697 01a0 00000000 		.word	.LANCHOR10
 698              		.cfi_endproc
 699              	.LFE128:
 700              		.size	cruisePID, .-cruisePID
 701 01a4 AFF30080 		.section	.text.cruiseCalc,"ax",%progbits
 701      AFF30080 
 701      AFF30080 
 702              		.align	2
 703              		.p2align 4,,15
 704              		.global	cruiseCalc
 705              		.thumb
 706              		.thumb_func
 707              		.type	cruiseCalc, %function
 708              	cruiseCalc:
 709              	.LFB120:
 710              		.loc 2 100 0
 711              		.cfi_startproc
 712              		@ args = 0, pretend = 0, frame = 0
 713              		@ frame_needed = 0, uses_anonymous_args = 0
 714              		.loc 2 101 0
 715 0000 6D4B     		ldr	r3, .L73+8
 716              		.loc 2 100 0
 717 0002 2DE9F041 		push	{r4, r5, r6, r7, r8, lr}
 718              	.LCFI9:
 719              		.cfi_def_cfa_offset 24
 720              		.loc 2 101 0
 721 0006 1868     		ldr	r0, [r3, #0]
 722 0008 421C     		adds	r2, r0, #1
 723              		.loc 2 104 0
 724 000a FA2A     		cmp	r2, #250
 725              		.loc 2 100 0
 726 000c 8AB0     		sub	sp, sp, #40
 727              	.LCFI10:
 728              		.cfi_def_cfa_offset 64
 729              		.loc 2 101 0
 730 000e 1A60     		str	r2, [r3, #0]
 731              		.loc 2 104 0
ARM GAS  C:\Users\DNIEL~1\AppData\Local\Temp\cc7TYfMd.s 			page 14


 732 0010 00F0AF80 		beq	.L70
 733              		.cfi_offset 14, -4
 734              		.cfi_offset 8, -8
 735              		.cfi_offset 7, -12
 736              		.cfi_offset 6, -16
 737              		.cfi_offset 5, -20
 738              		.cfi_offset 4, -24
 739              		.loc 2 117 0
 740 0014 694E     		ldr	r6, .L73+12
 741 0016 6A4A     		ldr	r2, .L73+16
 742 0018 3188     		ldrh	r1, [r6, #0]
 743 001a 1488     		ldrh	r4, [r2, #0]
 744 001c A142     		cmp	r1, r4
 745 001e 05D0     		beq	.L65
 746              		.loc 2 121 0
 747 0020 6848     		ldr	r0, .L73+20
 748              		.loc 2 119 0
 749 0022 1180     		strh	r1, [r2, #0]	@ movhi
 750              		.loc 2 120 0
 751 0024 0025     		movs	r5, #0
 752              		.loc 2 121 0
 753 0026 0122     		movs	r2, #1
 754              		.loc 2 120 0
 755 0028 1D60     		str	r5, [r3, #0]
 756              		.loc 2 121 0
 757 002a 0270     		strb	r2, [r0, #0]
 758              	.L65:
 759              		.loc 2 125 0
 760 002c 664D     		ldr	r5, .L73+24
 761 002e 2B78     		ldrb	r3, [r5, #0]	@ zero_extendqisi2
 762 0030 002B     		cmp	r3, #0
 763 0032 38D1     		bne	.L71
 764              	.L68:
 765              	.LBB10:
 766              		.loc 2 168 0
 767 0034 6548     		ldr	r0, .L73+28
 768              		.loc 2 169 0
 769 0036 664D     		ldr	r5, .L73+32
 770              		.loc 2 170 0
 771 0038 664F     		ldr	r7, .L73+36
 772              		.loc 2 179 0
 773 003a 674C     		ldr	r4, .L73+40
 774              		.loc 2 168 0
 775 003c 0021     		movs	r1, #0
 776 003e 0180     		strh	r1, [r0, #0]	@ movhi
 777              		.loc 2 169 0
 778 0040 2970     		strb	r1, [r5, #0]
 779              		.loc 2 170 0
 780 0042 3960     		str	r1, [r7, #0]
 781              		.loc 2 171 0
 782 0044 0120     		movs	r0, #1
 783 0046 FFF7FEFF 		bl	measGetValue_2
 784              		.loc 2 179 0
 785 004a 6449     		ldr	r1, .L73+44
 786              		.loc 2 171 0
 787 004c C0F51C57 		rsb	r7, r0, #9984
 788              		.loc 2 179 0
ARM GAS  C:\Users\DNIEL~1\AppData\Local\Temp\cc7TYfMd.s 			page 15


 789 0050 0B89     		ldrh	r3, [r1, #8]
 790              		.loc 2 171 0
 791 0052 1037     		adds	r7, r7, #16
 792              		.loc 2 179 0
 793 0054 BEB2     		uxth	r6, r7
 794 0056 03FB06F2 		mul	r2, r3, r6
 795              		.loc 2 171 0
 796 005a 614E     		ldr	r6, .L73+48
 797              		.loc 2 172 0
 798 005c 614B     		ldr	r3, .L73+52
 799              		.loc 2 171 0
 800 005e 3760     		str	r7, [r6, #0]
 801              		.loc 2 172 0
 802 0060 614F     		ldr	r7, .L73+56
 803 0062 0026     		movs	r6, #0
 804 0064 C3E90067 		strd	r6, [r3]
 805              		.loc 2 174 0
 806 0068 51A7     		adr	r7, .L73
 807 006a D7E90067 		ldrd	r6, [r7]
 808 006e 5F4B     		ldr	r3, .L73+60
 809              		.loc 2 179 0
 810 0070 84FB0240 		smull	r4, r0, r4, r2
 811              		.loc 2 174 0
 812 0074 C3E90067 		strd	r6, [r3]
 813              		.loc 2 179 0
 814 0078 D517     		asrs	r5, r2, #31
 815              		.loc 2 175 0
 816 007a 5D4B     		ldr	r3, .L73+64
 817              		.loc 2 179 0
 818 007c C5EB203C 		rsb	ip, r5, r0, asr #12
 819              		.loc 2 175 0
 820 0080 0024     		movs	r4, #0
 821 0082 0025     		movs	r5, #0
 822 0084 C3E90045 		strd	r4, [r3]
 823              		.loc 2 176 0
 824 0088 5A4B     		ldr	r3, .L73+68
 825 008a C3E90045 		strd	r4, [r3]
 826              		.loc 2 177 0
 827 008e 5A4B     		ldr	r3, .L73+72
 828              		.loc 2 179 0
 829 0090 0846     		mov	r0, r1
 830 0092 1FFA8CF2 		uxth	r2, ip
 831 0096 0221     		movs	r1, #2
 832              		.loc 2 177 0
 833 0098 C3E90045 		strd	r4, [r3]
 834              	.LBE10:
 835              		.loc 2 181 0
 836 009c 0AB0     		add	sp, sp, #40
 837 009e BDE8F041 		pop	{r4, r5, r6, r7, r8, lr}
 838              	.LBB11:
 839              		.loc 2 179 0
 840 00a2 FFF7FEBF 		b	pwmEnableChannel
 841              	.L71:
 842              	.LBE11:
 843              		.loc 2 125 0 discriminator 1
 844 00a6 FFF7FEFF 		bl	speedGetSpeed
 845 00aa 0928     		cmp	r0, #9
ARM GAS  C:\Users\DNIEL~1\AppData\Local\Temp\cc7TYfMd.s 			page 16


 846 00ac 7BD9     		bls	.L72
 847              		.loc 2 132 0
 848 00ae 2F78     		ldrb	r7, [r5, #0]	@ zero_extendqisi2
 849 00b0 002F     		cmp	r7, #0
 850 00b2 BFD0     		beq	.L68
 851              	.LBB12:
 852              		.loc 2 148 0
 853 00b4 FFF7FEFF 		bl	speedGetRpm
 854 00b8 5049     		ldr	r1, .L73+76
 855 00ba B6F90070 		ldrsh	r7, [r6, #0]
 856 00be 504C     		ldr	r4, .L73+80
 857              		.loc 2 150 0
 858 00c0 474E     		ldr	r6, .L73+48
 859              		.loc 2 148 0
 860 00c2 0FFA80F8 		sxth	r8, r0
 861 00c6 B1F90000 		ldrsh	r0, [r1, #0]
 862 00ca FFF7FEFF 		bl	__aeabi_i2d
 863 00ce CDE90001 		strd	r0, [sp]
 864 00d2 4C4B     		ldr	r3, .L73+84
 865 00d4 B3F90000 		ldrsh	r0, [r3, #0]
 866 00d8 FFF7FEFF 		bl	__aeabi_i2d
 867 00dc CDE90201 		strd	r0, [sp, #8]
 868 00e0 494A     		ldr	r2, .L73+88
 869 00e2 B2F90000 		ldrsh	r0, [r2, #0]
 870 00e6 FFF7FEFF 		bl	__aeabi_i2d
 871 00ea 2246     		mov	r2, r4
 872 00ec 0023     		movs	r3, #0
 873 00ee CDE90401 		strd	r0, [sp, #16]
 874 00f2 3946     		mov	r1, r7
 875 00f4 4046     		mov	r0, r8
 876 00f6 0694     		str	r4, [sp, #24]
 877 00f8 0794     		str	r4, [sp, #28]
 878 00fa 0894     		str	r4, [sp, #32]
 879 00fc FFF7FEFF 		bl	cruisePID
 880 0100 424B     		ldr	r3, .L73+92
 881              		.loc 2 152 0
 882 0102 3649     		ldr	r1, .L73+44
 883              		.loc 2 148 0
 884 0104 83FB002C 		smull	r2, ip, r3, r0
 885 0108 C217     		asrs	r2, r0, #31
 886 010a C2EB6C13 		rsb	r3, r2, ip, asr #5
 887              		.loc 2 149 0
 888 010e C3F51C53 		rsb	r3, r3, #9984
 889 0112 1033     		adds	r3, r3, #16
 890              		.loc 2 150 0
 891 0114 B3F57A7F 		cmp	r3, #1000
 892 0118 B8BF     		it	lt
 893 011a 4FF47A73 		movlt	r3, #1000
 894              		.loc 2 152 0
 895 011e 0C89     		ldrh	r4, [r1, #8]
 896              		.loc 2 150 0
 897 0120 3360     		str	r3, [r6, #0]
 898              		.loc 2 152 0
 899 0122 1FFA83FC 		uxth	ip, r3
 900 0126 04FB0CF0 		mul	r0, r4, ip
 901 012a 2B4C     		ldr	r4, .L73+40
 902 012c 84FB0042 		smull	r4, r2, r4, r0
ARM GAS  C:\Users\DNIEL~1\AppData\Local\Temp\cc7TYfMd.s 			page 17


 903 0130 C017     		asrs	r0, r0, #31
 904 0132 C0EB223C 		rsb	ip, r0, r2, asr #12
 905 0136 1FFA8CF2 		uxth	r2, ip
 906 013a 0846     		mov	r0, r1
 907 013c 0221     		movs	r1, #2
 908 013e FFF7FEFF 		bl	pwmEnableChannel
 909              		.loc 2 154 0
 910 0142 0120     		movs	r0, #1
 911 0144 FFF7FEFF 		bl	measGetValue_2
 912 0148 3268     		ldr	r2, [r6, #0]
 913 014a C0F51C51 		rsb	r1, r0, #9984
 914 014e 1031     		adds	r1, r1, #16
 915 0150 9142     		cmp	r1, r2
 916 0152 0BDA     		bge	.L63
 917              		.loc 2 156 0
 918 0154 1D48     		ldr	r0, .L73+28
 919 0156 0388     		ldrh	r3, [r0, #0]
 920 0158 5A1C     		adds	r2, r3, #1
 921 015a 1FFA82FE 		uxth	lr, r2
 922              		.loc 2 157 0
 923 015e BEF14B0F 		cmp	lr, #75
 924              		.loc 2 156 0
 925 0162 A0F800E0 		strh	lr, [r0, #0]	@ movhi
 926              		.loc 2 157 0
 927 0166 01D9     		bls	.L63
 928              		.loc 2 159 0
 929 0168 0021     		movs	r1, #0
 930 016a 2970     		strb	r1, [r5, #0]
 931              	.L63:
 932              	.LBE12:
 933              		.loc 2 181 0
 934 016c 0AB0     		add	sp, sp, #40
 935 016e BDE8F081 		pop	{r4, r5, r6, r7, r8, pc}
 936              	.L70:
 937              		.loc 2 106 0
 938 0172 134C     		ldr	r4, .L73+16
 939 0174 114E     		ldr	r6, .L73+12
 940 0176 B4F90030 		ldrsh	r3, [r4, #0]
 941 017a B6F90010 		ldrsh	r1, [r6, #0]
 942 017e 9942     		cmp	r1, r3
 943 0180 7FF454AF 		bne	.L65
 944              		.loc 2 108 0
 945 0184 0F4B     		ldr	r3, .L73+20
 946 0186 1D78     		ldrb	r5, [r3, #0]	@ zero_extendqisi2
 947 0188 002D     		cmp	r5, #0
 948 018a 3FF44FAF 		beq	.L65
 949              		.loc 2 110 0
 950 018e 0027     		movs	r7, #0
 951              		.loc 2 111 0
 952 0190 3846     		mov	r0, r7
 953              		.loc 2 110 0
 954 0192 1F70     		strb	r7, [r3, #0]
 955              		.loc 2 111 0
 956 0194 FFF7FEFF 		bl	eepromWrite
 957 0198 0028     		cmp	r0, #0
 958 019a 3FF447AF 		beq	.L65
 959              		.loc 2 112 0
ARM GAS  C:\Users\DNIEL~1\AppData\Local\Temp\cc7TYfMd.s 			page 18


 960 019e 4FF0FF31 		mov	r1, #-1	@ movhi
 961 01a2 2180     		strh	r1, [r4, #0]	@ movhi
 962 01a4 42E7     		b	.L65
 963              	.L72:
 964              		.loc 2 127 0
 965 01a6 0026     		movs	r6, #0
 966 01a8 2E70     		strb	r6, [r5, #0]
 967 01aa 43E7     		b	.L68
 968              	.L74:
 969 01ac AFF30080 		.align	3
 970              	.L73:
 971 01b0 00000000 		.word	0
 972 01b4 D8832241 		.word	1092781016
 973 01b8 00000000 		.word	.LANCHOR1
 974 01bc 00000000 		.word	.LANCHOR13
 975 01c0 00000000 		.word	.LANCHOR2
 976 01c4 00000000 		.word	.LANCHOR3
 977 01c8 00000000 		.word	.LANCHOR4
 978 01cc 00000000 		.word	.LANCHOR7
 979 01d0 00000000 		.word	.LANCHOR5
 980 01d4 00000000 		.word	.LANCHOR6
 981 01d8 AD8BDB68 		.word	1759218605
 982 01dc 00000000 		.word	PWMD5
 983 01e0 00000000 		.word	.LANCHOR0
 984 01e4 00000000 		.word	.LANCHOR8
 985 01e8 00002E40 		.word	1076756480
 986 01ec 00000000 		.word	.LANCHOR9
 987 01f0 00000000 		.word	.LANCHOR10
 988 01f4 00000000 		.word	.LANCHOR11
 989 01f8 00000000 		.word	.LANCHOR12
 990 01fc 00000000 		.word	.LANCHOR16
 991 0200 40420F00 		.word	1000000
 992 0204 00000000 		.word	.LANCHOR17
 993 0208 00000000 		.word	.LANCHOR18
 994 020c 1F85EB51 		.word	1374389535
 995              		.cfi_endproc
 996              	.LFE120:
 997              		.size	cruiseCalc, .-cruiseCalc
 998              		.section	.text.cmd_cruisevalues,"ax",%progbits
 999              		.align	2
 1000              		.p2align 4,,15
 1001              		.global	cmd_cruisevalues
 1002              		.thumb
 1003              		.thumb_func
 1004              		.type	cmd_cruisevalues, %function
 1005              	cmd_cruisevalues:
 1006              	.LFB129:
 1007              		.loc 2 262 0
 1008              		.cfi_startproc
 1009              		@ args = 0, pretend = 0, frame = 0
 1010              		@ frame_needed = 0, uses_anonymous_args = 0
 1011              	.LVL9:
 1012 0000 2DE9F047 		push	{r4, r5, r6, r7, r8, r9, sl, lr}
 1013              	.LCFI11:
 1014              		.cfi_def_cfa_offset 32
 1015              		.loc 2 266 0
 1016 0004 3D49     		ldr	r1, .L78
ARM GAS  C:\Users\DNIEL~1\AppData\Local\Temp\cc7TYfMd.s 			page 19


 1017              	.LVL10:
 1018              		.loc 2 271 0
 1019 0006 3E4F     		ldr	r7, .L78+4
 1020              		.cfi_offset 14, -4
 1021              		.cfi_offset 10, -8
 1022              		.cfi_offset 9, -12
 1023              		.cfi_offset 8, -16
 1024              		.cfi_offset 7, -20
 1025              		.cfi_offset 6, -24
 1026              		.cfi_offset 5, -28
 1027              		.cfi_offset 4, -32
 1028 0008 DFF84881 		ldr	r8, .L78+88
 1029              		.loc 2 272 0
 1030 000c DFF84891 		ldr	r9, .L78+92
 1031              		.loc 2 262 0
 1032 0010 0446     		mov	r4, r0
 1033              		.loc 2 266 0
 1034 0012 FFF7FEFF 		bl	chprintf
 1035              	.LVL11:
 1036              		.loc 2 267 0
 1037 0016 2046     		mov	r0, r4
 1038 0018 3A49     		ldr	r1, .L78+8
 1039 001a FFF7FEFF 		bl	chprintf
 1040              		.loc 2 268 0
 1041 001e 63E0     		b	.L76
 1042              	.L77:
 1043              		.loc 2 269 0
 1044 0020 0022     		movs	r2, #0
 1045 0022 1346     		mov	r3, r2
 1046 0024 2046     		mov	r0, r4
 1047 0026 3849     		ldr	r1, .L78+12
 1048              		.loc 2 273 0
 1049 0028 384E     		ldr	r6, .L78+16
 1050              		.loc 2 276 0
 1051 002a 394D     		ldr	r5, .L78+20
 1052              		.loc 2 269 0
 1053 002c FFF7FEFF 		bl	chprintf
 1054              		.loc 2 271 0
 1055 0030 D8E90001 		ldrd	r0, [r8]
 1056 0034 FFF7FEFF 		bl	__aeabi_d2iz
 1057 0038 B7F900A0 		ldrsh	sl, [r7, #0]
 1058 003c 3549     		ldr	r1, .L78+24
 1059 003e 5246     		mov	r2, sl
 1060 0040 0346     		mov	r3, r0
 1061 0042 2046     		mov	r0, r4
 1062 0044 FFF7FEFF 		bl	chprintf
 1063              		.loc 2 272 0
 1064 0048 334B     		ldr	r3, .L78+28
 1065 004a B9F900A0 		ldrsh	sl, [r9, #0]
 1066 004e D3E90001 		ldrd	r0, [r3]
 1067 0052 FFF7FEFF 		bl	__aeabi_d2iz
 1068 0056 5246     		mov	r2, sl
 1069 0058 0346     		mov	r3, r0
 1070 005a 3049     		ldr	r1, .L78+32
 1071 005c 2046     		mov	r0, r4
 1072 005e FFF7FEFF 		bl	chprintf
 1073              		.loc 2 273 0
ARM GAS  C:\Users\DNIEL~1\AppData\Local\Temp\cc7TYfMd.s 			page 20


 1074 0062 2F4B     		ldr	r3, .L78+36
 1075 0064 B6F900A0 		ldrsh	sl, [r6, #0]
 1076 0068 D3E90001 		ldrd	r0, [r3]
 1077 006c FFF7FEFF 		bl	__aeabi_d2iz
 1078 0070 2C49     		ldr	r1, .L78+40
 1079 0072 0346     		mov	r3, r0
 1080 0074 5246     		mov	r2, sl
 1081 0076 2046     		mov	r0, r4
 1082 0078 FFF7FEFF 		bl	chprintf
 1083              		.loc 2 274 0
 1084 007c 2A4B     		ldr	r3, .L78+44
 1085 007e 2B49     		ldr	r1, .L78+48
 1086 0080 1B68     		ldr	r3, [r3, #0]
 1087 0082 B6F90020 		ldrsh	r2, [r6, #0]
 1088 0086 2046     		mov	r0, r4
 1089 0088 FFF7FEFF 		bl	chprintf
 1090              		.loc 2 275 0
 1091 008c 284B     		ldr	r3, .L78+52
 1092 008e 2949     		ldr	r1, .L78+56
 1093 0090 1A68     		ldr	r2, [r3, #0]
 1094 0092 2046     		mov	r0, r4
 1095 0094 FFF7FEFF 		bl	chprintf
 1096              		.loc 2 276 0
 1097 0098 B5F90020 		ldrsh	r2, [r5, #0]
 1098 009c 2649     		ldr	r1, .L78+60
 1099 009e 2046     		mov	r0, r4
 1100 00a0 FFF7FEFF 		bl	chprintf
 1101              		.loc 2 277 0
 1102 00a4 FFF7FEFF 		bl	speedGetRpm
 1103 00a8 2449     		ldr	r1, .L78+64
 1104 00aa 0246     		mov	r2, r0
 1105 00ac 2046     		mov	r0, r4
 1106 00ae FFF7FEFF 		bl	chprintf
 1107              		.loc 2 278 0
 1108 00b2 B5F90050 		ldrsh	r5, [r5, #0]
 1109 00b6 FFF7FEFF 		bl	speedGetRpm
 1110 00ba 2149     		ldr	r1, .L78+68
 1111 00bc 2A1A     		subs	r2, r5, r0
 1112 00be 2046     		mov	r0, r4
 1113 00c0 FFF7FEFF 		bl	chprintf
 1114              		.loc 2 279 0
 1115 00c4 2046     		mov	r0, r4
 1116 00c6 1F49     		ldr	r1, .L78+72
 1117 00c8 FFF7FEFF 		bl	chprintf
 1118              		.loc 2 280 0
 1119 00cc 1E4B     		ldr	r3, .L78+76
 1120 00ce 1F49     		ldr	r1, .L78+80
 1121 00d0 1A88     		ldrh	r2, [r3, #0]
 1122 00d2 2046     		mov	r0, r4
 1123 00d4 FFF7FEFF 		bl	chprintf
 1124              		.loc 2 281 0
 1125 00d8 2046     		mov	r0, r4
 1126 00da 1D49     		ldr	r1, .L78+84
 1127 00dc 0022     		movs	r2, #0
 1128 00de FFF7FEFF 		bl	chprintf
 1129              		.loc 2 283 0
 1130 00e2 6420     		movs	r0, #100
ARM GAS  C:\Users\DNIEL~1\AppData\Local\Temp\cc7TYfMd.s 			page 21


 1131 00e4 FFF7FEFF 		bl	chThdSleep
 1132              	.L76:
 1133              		.loc 2 268 0 discriminator 1
 1134 00e8 2168     		ldr	r1, [r4, #0]
 1135 00ea 2046     		mov	r0, r4
 1136 00ec 4B69     		ldr	r3, [r1, #20]
 1137 00ee 0021     		movs	r1, #0
 1138 00f0 9847     		blx	r3
 1139 00f2 B0F1FF3F 		cmp	r0, #-1
 1140 00f6 93D0     		beq	.L77
 1141              		.loc 2 285 0
 1142 00f8 BDE8F087 		pop	{r4, r5, r6, r7, r8, r9, sl, pc}
 1143              	.L79:
 1144              		.align	2
 1145              	.L78:
 1146 00fc 00000000 		.word	.LC0
 1147 0100 00000000 		.word	.LANCHOR16
 1148 0104 04000000 		.word	.LC1
 1149 0108 0C000000 		.word	.LC2
 1150 010c 00000000 		.word	.LANCHOR18
 1151 0110 00000000 		.word	.LANCHOR13
 1152 0114 18000000 		.word	.LC3
 1153 0118 00000000 		.word	.LANCHOR9
 1154 011c 30000000 		.word	.LC4
 1155 0120 00000000 		.word	.LANCHOR10
 1156 0124 48000000 		.word	.LC5
 1157 0128 00000000 		.word	.LANCHOR15
 1158 012c 60000000 		.word	.LC6
 1159 0130 00000000 		.word	.LANCHOR0
 1160 0134 78000000 		.word	.LC7
 1161 0138 84000000 		.word	.LC8
 1162 013c 94000000 		.word	.LC9
 1163 0140 A8000000 		.word	.LC10
 1164 0144 BC000000 		.word	.LC11
 1165 0148 00000000 		.word	.LANCHOR7
 1166 014c C0000000 		.word	.LC12
 1167 0150 E0000000 		.word	.LC13
 1168 0154 00000000 		.word	.LANCHOR8
 1169 0158 00000000 		.word	.LANCHOR17
 1170              		.cfi_endproc
 1171              	.LFE129:
 1172              		.size	cmd_cruisevalues, .-cmd_cruisevalues
 1173 015c AFF30080 		.section	.text.cmd_setcruisevalues,"ax",%progbits
 1174              		.align	2
 1175              		.p2align 4,,15
 1176              		.global	cmd_setcruisevalues
 1177              		.thumb
 1178              		.thumb_func
 1179              		.type	cmd_setcruisevalues, %function
 1180              	cmd_setcruisevalues:
 1181              	.LFB130:
 1182              		.loc 2 287 0
 1183              		.cfi_startproc
 1184              		@ args = 0, pretend = 0, frame = 0
 1185              		@ frame_needed = 0, uses_anonymous_args = 0
 1186              	.LVL12:
 1187 0000 2DE9F041 		push	{r4, r5, r6, r7, r8, lr}
ARM GAS  C:\Users\DNIEL~1\AppData\Local\Temp\cc7TYfMd.s 			page 22


 1188              	.LCFI12:
 1189              		.cfi_def_cfa_offset 24
 1190              		.loc 2 287 0
 1191 0004 0446     		mov	r4, r0
 1192              		.cfi_offset 14, -4
 1193              		.cfi_offset 8, -8
 1194              		.cfi_offset 7, -12
 1195              		.cfi_offset 6, -16
 1196              		.cfi_offset 5, -20
 1197              		.cfi_offset 4, -24
 1198 0006 0D46     		mov	r5, r1
 1199              		.loc 2 293 0
 1200 0008 6749     		ldr	r1, .L114+8
 1201              	.LVL13:
 1202              		.loc 2 287 0
 1203 000a 1646     		mov	r6, r2
 1204              		.loc 2 293 0
 1205 000c FFF7FEFF 		bl	chprintf
 1206              	.LVL14:
 1207              		.loc 2 294 0
 1208 0010 2046     		mov	r0, r4
 1209 0012 6649     		ldr	r1, .L114+12
 1210 0014 FFF7FEFF 		bl	chprintf
 1211              		.loc 2 295 0
 1212 0018 2168     		ldr	r1, [r4, #0]
 1213 001a 2046     		mov	r0, r4
 1214 001c 4B69     		ldr	r3, [r1, #20]
 1215 001e 0021     		movs	r1, #0
 1216 0020 9847     		blx	r3
 1217 0022 B0F1FF3F 		cmp	r0, #-1
 1218 0026 01D0     		beq	.L106
 1219 0028 BDE8F081 		pop	{r4, r5, r6, r7, r8, pc}
 1220              	.L106:
 1221              		.loc 2 296 0
 1222 002c 0022     		movs	r2, #0
 1223 002e 2046     		mov	r0, r4
 1224 0030 5F49     		ldr	r1, .L114+16
 1225 0032 1346     		mov	r3, r2
 1226 0034 FFF7FEFF 		bl	chprintf
 1227              		.loc 2 298 0
 1228 0038 022D     		cmp	r5, #2
 1229 003a 07D0     		beq	.L107
 1230              		.loc 2 338 0
 1231 003c 012D     		cmp	r5, #1
 1232 003e 28D0     		beq	.L108
 1233              	.LVL15:
 1234              	.L98:
 1235              		.loc 2 359 0
 1236 0040 5C49     		ldr	r1, .L114+20
 1237 0042 2046     		mov	r0, r4
 1238              		.loc 2 364 0
 1239 0044 BDE8F041 		pop	{r4, r5, r6, r7, r8, lr}
 1240              		.loc 2 359 0
 1241 0048 FFF7FEBF 		b	chprintf
 1242              	.LVL16:
 1243              	.L107:
 1244              		.loc 2 298 0 discriminator 1
ARM GAS  C:\Users\DNIEL~1\AppData\Local\Temp\cc7TYfMd.s 			page 23


 1245 004c 3768     		ldr	r7, [r6, #0]
 1246 004e 5A49     		ldr	r1, .L114+24
 1247 0050 3846     		mov	r0, r7
 1248 0052 FFF7FEFF 		bl	strcmp
 1249 0056 0028     		cmp	r0, #0
 1250 0058 62D0     		beq	.L109
 1251              	.L83:
 1252              		.loc 2 308 0
 1253 005a 3846     		mov	r0, r7
 1254 005c 5749     		ldr	r1, .L114+28
 1255 005e FFF7FEFF 		bl	strcmp
 1256 0062 0028     		cmp	r0, #0
 1257 0064 63D0     		beq	.L99
 1258              	.LVL17:
 1259              	.L87:
 1260              		.loc 2 318 0
 1261 0066 3846     		mov	r0, r7
 1262 0068 5549     		ldr	r1, .L114+32
 1263 006a FFF7FEFF 		bl	strcmp
 1264 006e 0028     		cmp	r0, #0
 1265 0070 4BD0     		beq	.L100
 1266              	.L91:
 1267              		.loc 2 328 0
 1268 0072 3846     		mov	r0, r7
 1269 0074 5349     		ldr	r1, .L114+36
 1270 0076 FFF7FEFF 		bl	strcmp
 1271 007a 0028     		cmp	r0, #0
 1272 007c E0D1     		bne	.L98
 1273              		.loc 2 329 0
 1274 007e 7068     		ldr	r0, [r6, #4]
 1275 0080 FFF7FEFF 		bl	atol
 1276 0084 0546     		mov	r5, r0	@ movhi
 1277              	.LVL18:
 1278              		.loc 2 330 0
 1279 0086 00B2     		sxth	r0, r0
 1280 0088 0028     		cmp	r0, #0
 1281 008a 5BDD     		ble	.L110
 1282              	.L92:
 1283              		.loc 2 331 0
 1284 008c 4E49     		ldr	r1, .L114+40
 1285 008e 0D80     		strh	r5, [r1, #0]	@ movhi
 1286 0090 D6E7     		b	.L98
 1287              	.LVL19:
 1288              	.L108:
 1289              		.loc 2 338 0 discriminator 1
 1290 0092 3768     		ldr	r7, [r6, #0]
 1291 0094 4D49     		ldr	r1, .L114+44
 1292 0096 3846     		mov	r0, r7
 1293 0098 FFF7FEFF 		bl	strcmp
 1294 009c 0346     		mov	r3, r0
 1295 009e 0028     		cmp	r0, #0
 1296 00a0 29D0     		beq	.L111
 1297              	.L97:
 1298              		.loc 2 343 0
 1299 00a2 3846     		mov	r0, r7
 1300 00a4 4A49     		ldr	r1, .L114+48
 1301 00a6 FFF7FEFF 		bl	strcmp
ARM GAS  C:\Users\DNIEL~1\AppData\Local\Temp\cc7TYfMd.s 			page 24


 1302 00aa 0028     		cmp	r0, #0
 1303 00ac C8D1     		bne	.L98
 1304              	.LBB13:
 1305              	.LBB14:
 1306              		.loc 2 190 0
 1307 00ae 494B     		ldr	r3, .L114+52
 1308              	.LBE14:
 1309              	.LBE13:
 1310              		.loc 2 345 0
 1311 00b0 4949     		ldr	r1, .L114+56
 1312              	.LBB16:
 1313              	.LBB15:
 1314              		.loc 2 190 0
 1315 00b2 1870     		strb	r0, [r3, #0]
 1316              	.LBE15:
 1317              	.LBE16:
 1318              		.loc 2 345 0
 1319 00b4 2046     		mov	r0, r4
 1320 00b6 FFF7FEFF 		bl	chprintf
 1321              		.loc 2 352 0
 1322 00ba 4848     		ldr	r0, .L114+60
 1323 00bc 4849     		ldr	r1, .L114+64
 1324 00be B0F90020 		ldrsh	r2, [r0, #0]
 1325 00c2 2046     		mov	r0, r4
 1326 00c4 FFF7FEFF 		bl	chprintf
 1327              		.loc 2 353 0
 1328 00c8 464A     		ldr	r2, .L114+68
 1329 00ca 4749     		ldr	r1, .L114+72
 1330 00cc B2F90020 		ldrsh	r2, [r2, #0]
 1331 00d0 2046     		mov	r0, r4
 1332 00d2 FFF7FEFF 		bl	chprintf
 1333              		.loc 2 354 0
 1334 00d6 3C4B     		ldr	r3, .L114+40
 1335 00d8 4449     		ldr	r1, .L114+76
 1336 00da B3F90020 		ldrsh	r2, [r3, #0]
 1337 00de 2046     		mov	r0, r4
 1338 00e0 FFF7FEFF 		bl	chprintf
 1339              		.loc 2 355 0
 1340 00e4 4248     		ldr	r0, .L114+80
 1341 00e6 4349     		ldr	r1, .L114+84
 1342 00e8 B0F90020 		ldrsh	r2, [r0, #0]
 1343 00ec 2046     		mov	r0, r4
 1344              		.loc 2 364 0
 1345 00ee BDE8F041 		pop	{r4, r5, r6, r7, r8, lr}
 1346              		.loc 2 355 0
 1347 00f2 FFF7FEBF 		b	chprintf
 1348              	.L111:
 1349              	.LBB17:
 1350              	.LBB18:
 1351              		.loc 2 185 0
 1352 00f6 374A     		ldr	r2, .L114+52
 1353              		.loc 2 186 0
 1354 00f8 3F4F     		ldr	r7, .L114+88
 1355              	.LBE18:
 1356              	.LBE17:
 1357              		.loc 2 340 0
 1358 00fa 4049     		ldr	r1, .L114+92
ARM GAS  C:\Users\DNIEL~1\AppData\Local\Temp\cc7TYfMd.s 			page 25


 1359              	.LBB20:
 1360              	.LBB19:
 1361              		.loc 2 186 0
 1362 00fc 3B80     		strh	r3, [r7, #0]	@ movhi
 1363              		.loc 2 185 0
 1364 00fe 1570     		strb	r5, [r2, #0]
 1365              	.LBE19:
 1366              	.LBE20:
 1367              		.loc 2 340 0
 1368 0100 2046     		mov	r0, r4
 1369 0102 FFF7FEFF 		bl	chprintf
 1370 0106 3768     		ldr	r7, [r6, #0]
 1371 0108 CBE7     		b	.L97
 1372              	.LVL20:
 1373              	.L100:
 1374              		.loc 2 319 0
 1375 010a 7068     		ldr	r0, [r6, #4]
 1376 010c FFF7FEFF 		bl	atol
 1377 0110 0546     		mov	r5, r0	@ movhi
 1378              	.LVL21:
 1379              		.loc 2 320 0
 1380 0112 00B2     		sxth	r0, r0
 1381 0114 0028     		cmp	r0, #0
 1382 0116 23DD     		ble	.L112
 1383              	.L88:
 1384              		.loc 2 321 0
 1385 0118 324B     		ldr	r3, .L114+68
 1386 011a 3768     		ldr	r7, [r6, #0]
 1387 011c 1D80     		strh	r5, [r3, #0]	@ movhi
 1388 011e A8E7     		b	.L91
 1389              	.LVL22:
 1390              	.L109:
 1391              		.loc 2 299 0
 1392 0120 7068     		ldr	r0, [r6, #4]
 1393 0122 FFF7FEFF 		bl	atol
 1394              	.LVL23:
 1395 0126 324A     		ldr	r2, .L114+80
 1396              		.loc 2 301 0
 1397 0128 3768     		ldr	r7, [r6, #0]
 1398              		.loc 2 299 0
 1399 012a 1080     		strh	r0, [r2, #0]	@ movhi
 1400 012c 95E7     		b	.L83
 1401              	.LVL24:
 1402              	.L99:
 1403              		.loc 2 309 0
 1404 012e 7068     		ldr	r0, [r6, #4]
 1405 0130 FFF7FEFF 		bl	atol
 1406 0134 0546     		mov	r5, r0	@ movhi
 1407              	.LVL25:
 1408              		.loc 2 310 0
 1409 0136 00B2     		sxth	r0, r0
 1410 0138 0028     		cmp	r0, #0
 1411 013a 20DD     		ble	.L113
 1412              	.L84:
 1413              		.loc 2 311 0
 1414 013c 2748     		ldr	r0, .L114+60
 1415 013e 3768     		ldr	r7, [r6, #0]
ARM GAS  C:\Users\DNIEL~1\AppData\Local\Temp\cc7TYfMd.s 			page 26


 1416 0140 0580     		strh	r5, [r0, #0]	@ movhi
 1417 0142 90E7     		b	.L87
 1418              	.L110:
 1419              		.loc 2 330 0 discriminator 1
 1420 0144 FFF7FEFF 		bl	__aeabi_i2d
 1421 0148 15A3     		adr	r3, .L114
 1422 014a D3E90023 		ldrd	r2, [r3]
 1423 014e FFF7FEFF 		bl	__aeabi_dcmplt
 1424 0152 0028     		cmp	r0, #0
 1425 0154 9AD1     		bne	.L92
 1426              		.loc 2 334 0
 1427 0156 2046     		mov	r0, r4
 1428 0158 2949     		ldr	r1, .L114+96
 1429 015a FFF7FEFF 		bl	chprintf
 1430 015e 6FE7     		b	.L98
 1431              	.L112:
 1432              		.loc 2 320 0 discriminator 1
 1433 0160 FFF7FEFF 		bl	__aeabi_i2d
 1434 0164 0EA3     		adr	r3, .L114
 1435 0166 D3E90023 		ldrd	r2, [r3]
 1436 016a FFF7FEFF 		bl	__aeabi_dcmplt
 1437 016e 0028     		cmp	r0, #0
 1438 0170 D2D1     		bne	.L88
 1439              		.loc 2 324 0
 1440 0172 2046     		mov	r0, r4
 1441 0174 2349     		ldr	r1, .L114+100
 1442 0176 FFF7FEFF 		bl	chprintf
 1443 017a 3768     		ldr	r7, [r6, #0]
 1444 017c 79E7     		b	.L91
 1445              	.L113:
 1446              		.loc 2 310 0 discriminator 1
 1447 017e FFF7FEFF 		bl	__aeabi_i2d
 1448 0182 07A3     		adr	r3, .L114
 1449 0184 D3E90023 		ldrd	r2, [r3]
 1450 0188 FFF7FEFF 		bl	__aeabi_dcmplt
 1451 018c 0028     		cmp	r0, #0
 1452 018e D5D1     		bne	.L84
 1453              		.loc 2 314 0
 1454 0190 2046     		mov	r0, r4
 1455 0192 1D49     		ldr	r1, .L114+104
 1456 0194 FFF7FEFF 		bl	chprintf
 1457 0198 3768     		ldr	r7, [r6, #0]
 1458 019a 64E7     		b	.L87
 1459              	.L115:
 1460 019c AFF30080 		.align	3
 1461              	.L114:
 1462 01a0 00000000 		.word	0
 1463 01a4 80842E41 		.word	1093567616
 1464 01a8 00000000 		.word	.LC0
 1465 01ac 04000000 		.word	.LC1
 1466 01b0 0C000000 		.word	.LC2
 1467 01b4 A4010000 		.word	.LC24
 1468 01b8 F4000000 		.word	.LC14
 1469 01bc C0010000 		.word	.LC25
 1470 01c0 C4010000 		.word	.LC26
 1471 01c4 C8010000 		.word	.LC27
 1472 01c8 00000000 		.word	.LANCHOR18
ARM GAS  C:\Users\DNIEL~1\AppData\Local\Temp\cc7TYfMd.s 			page 27


 1473 01cc 40010000 		.word	.LC18
 1474 01d0 CC010000 		.word	.LC28
 1475 01d4 00000000 		.word	.LANCHOR4
 1476 01d8 60010000 		.word	.LC20
 1477 01dc 00000000 		.word	.LANCHOR16
 1478 01e0 80010000 		.word	.LC21
 1479 01e4 00000000 		.word	.LANCHOR17
 1480 01e8 8C010000 		.word	.LC22
 1481 01ec 98010000 		.word	.LC23
 1482 01f0 00000000 		.word	.LANCHOR13
 1483 01f4 84000000 		.word	.LC8
 1484 01f8 00000000 		.word	.LANCHOR7
 1485 01fc 44010000 		.word	.LC19
 1486 0200 28010000 		.word	.LC17
 1487 0204 10010000 		.word	.LC16
 1488 0208 F8000000 		.word	.LC15
 1489              		.cfi_endproc
 1490              	.LFE130:
 1491              		.size	cmd_setcruisevalues, .-cmd_setcruisevalues
 1492 020c AFF30080 		.section	.text.cmd_cruise,"ax",%progbits
 1493              		.align	2
 1494              		.p2align 4,,15
 1495              		.global	cmd_cruise
 1496              		.thumb
 1497              		.thumb_func
 1498              		.type	cmd_cruise, %function
 1499              	cmd_cruise:
 1500              	.LFB131:
 1501              		.loc 2 366 0
 1502              		.cfi_startproc
 1503              		@ args = 0, pretend = 0, frame = 0
 1504              		@ frame_needed = 0, uses_anonymous_args = 0
 1505              	.LVL26:
 1506 0000 2DE9F041 		push	{r4, r5, r6, r7, r8, lr}
 1507              	.LCFI13:
 1508              		.cfi_def_cfa_offset 24
 1509              		.loc 2 366 0
 1510 0004 0446     		mov	r4, r0
 1511              		.cfi_offset 14, -4
 1512              		.cfi_offset 8, -8
 1513              		.cfi_offset 7, -12
 1514              		.cfi_offset 6, -16
 1515              		.cfi_offset 5, -20
 1516              		.cfi_offset 4, -24
 1517 0006 0D46     		mov	r5, r1
 1518              		.loc 2 370 0
 1519 0008 1C49     		ldr	r1, .L122
 1520              	.LVL27:
 1521              		.loc 2 366 0
 1522 000a 1646     		mov	r6, r2
 1523              		.loc 2 370 0
 1524 000c FFF7FEFF 		bl	chprintf
 1525              	.LVL28:
 1526              		.loc 2 371 0
 1527 0010 2046     		mov	r0, r4
 1528 0012 1B49     		ldr	r1, .L122+4
 1529 0014 FFF7FEFF 		bl	chprintf
ARM GAS  C:\Users\DNIEL~1\AppData\Local\Temp\cc7TYfMd.s 			page 28


 1530              		.loc 2 372 0
 1531 0018 0022     		movs	r2, #0
 1532 001a 2046     		mov	r0, r4
 1533 001c 1949     		ldr	r1, .L122+8
 1534 001e 1346     		mov	r3, r2
 1535 0020 FFF7FEFF 		bl	chprintf
 1536              		.loc 2 374 0
 1537 0024 012D     		cmp	r5, #1
 1538 0026 09D0     		beq	.L120
 1539              	.L117:
 1540              		.loc 2 390 0
 1541 0028 2046     		mov	r0, r4
 1542 002a 1749     		ldr	r1, .L122+12
 1543 002c FFF7FEFF 		bl	chprintf
 1544              		.loc 2 391 0
 1545 0030 1649     		ldr	r1, .L122+16
 1546 0032 2046     		mov	r0, r4
 1547              		.loc 2 395 0
 1548 0034 BDE8F041 		pop	{r4, r5, r6, r7, r8, lr}
 1549              		.loc 2 391 0
 1550 0038 FFF7FEBF 		b	chprintf
 1551              	.L120:
 1552              		.loc 2 374 0 discriminator 1
 1553 003c 3768     		ldr	r7, [r6, #0]
 1554 003e 1449     		ldr	r1, .L122+20
 1555 0040 3846     		mov	r0, r7
 1556 0042 FFF7FEFF 		bl	strcmp
 1557 0046 0346     		mov	r3, r0
 1558 0048 68B1     		cbz	r0, .L121
 1559              	.L118:
 1560              		.loc 2 379 0
 1561 004a 3846     		mov	r0, r7
 1562 004c 1149     		ldr	r1, .L122+24
 1563 004e FFF7FEFF 		bl	strcmp
 1564 0052 0028     		cmp	r0, #0
 1565 0054 E8D1     		bne	.L117
 1566              	.LBB21:
 1567              	.LBB22:
 1568              		.loc 2 190 0
 1569 0056 104B     		ldr	r3, .L122+28
 1570              	.LBE22:
 1571              	.LBE21:
 1572              		.loc 2 381 0
 1573 0058 1049     		ldr	r1, .L122+32
 1574              	.LBB24:
 1575              	.LBB23:
 1576              		.loc 2 190 0
 1577 005a 1870     		strb	r0, [r3, #0]
 1578              	.LBE23:
 1579              	.LBE24:
 1580              		.loc 2 381 0
 1581 005c 2046     		mov	r0, r4
 1582              		.loc 2 395 0
 1583 005e BDE8F041 		pop	{r4, r5, r6, r7, r8, lr}
 1584              		.loc 2 381 0
 1585 0062 FFF7FEBF 		b	chprintf
 1586              	.L121:
ARM GAS  C:\Users\DNIEL~1\AppData\Local\Temp\cc7TYfMd.s 			page 29


 1587              	.LBB25:
 1588              	.LBB26:
 1589              		.loc 2 185 0
 1590 0066 0C48     		ldr	r0, .L122+28
 1591              		.loc 2 186 0
 1592 0068 0D4A     		ldr	r2, .L122+36
 1593              		.loc 2 185 0
 1594 006a 0570     		strb	r5, [r0, #0]
 1595              	.LBE26:
 1596              	.LBE25:
 1597              		.loc 2 376 0
 1598 006c 0D49     		ldr	r1, .L122+40
 1599              	.LBB28:
 1600              	.LBB27:
 1601              		.loc 2 186 0
 1602 006e 1380     		strh	r3, [r2, #0]	@ movhi
 1603              	.LBE27:
 1604              	.LBE28:
 1605              		.loc 2 376 0
 1606 0070 2046     		mov	r0, r4
 1607 0072 FFF7FEFF 		bl	chprintf
 1608 0076 3768     		ldr	r7, [r6, #0]
 1609 0078 E7E7     		b	.L118
 1610              	.L123:
 1611 007a 00BF     		.align	2
 1612              	.L122:
 1613 007c 00000000 		.word	.LC0
 1614 0080 04000000 		.word	.LC1
 1615 0084 0C000000 		.word	.LC2
 1616 0088 D0010000 		.word	.LC29
 1617 008c E4010000 		.word	.LC30
 1618 0090 40010000 		.word	.LC18
 1619 0094 CC010000 		.word	.LC28
 1620 0098 00000000 		.word	.LANCHOR4
 1621 009c 60010000 		.word	.LC20
 1622 00a0 00000000 		.word	.LANCHOR7
 1623 00a4 44010000 		.word	.LC19
 1624              		.cfi_endproc
 1625              	.LFE131:
 1626              		.size	cmd_cruise, .-cmd_cruise
 1627 00a8 AFF30080 		.section	.bss.cruise_indicator_index,"aw",%nobits
 1627      AFF30080 
 1628              		.align	2
 1629              		.set	.LANCHOR6,. + 0
 1630              		.type	cruise_indicator_index, %object
 1631              		.size	cruise_indicator_index, 4
 1632              	cruise_indicator_index:
 1633 0000 00000000 		.space	4
 1634              		.section	.bss.P,"aw",%nobits
 1635              		.align	3
 1636              		.set	.LANCHOR8,. + 0
 1637              		.type	P, %object
 1638              		.size	P, 8
 1639              	P:
 1640 0000 00000000 		.space	8
 1640      00000000 
 1641              		.section	.bss.cruise_indicator,"aw",%nobits
ARM GAS  C:\Users\DNIEL~1\AppData\Local\Temp\cc7TYfMd.s 			page 30


 1642              		.set	.LANCHOR5,. + 0
 1643              		.type	cruise_indicator, %object
 1644              		.size	cruise_indicator, 1
 1645              	cruise_indicator:
 1646 0000 00       		.space	1
 1647              		.section	.data.K_D,"aw",%progbits
 1648              		.align	1
 1649              		.set	.LANCHOR18,. + 0
 1650              		.type	K_D, %object
 1651              		.size	K_D, 2
 1652              	K_D:
 1653 0000 F401     		.short	500
 1654              		.section	.data.K_P,"aw",%progbits
 1655              		.align	1
 1656              		.set	.LANCHOR16,. + 0
 1657              		.type	K_P, %object
 1658              		.size	K_P, 2
 1659              	K_P:
 1660 0000 0500     		.short	5
 1661              		.section	.bss.eeprom_write,"aw",%nobits
 1662              		.set	.LANCHOR3,. + 0
 1663              		.type	eeprom_write, %object
 1664              		.size	eeprom_write, 1
 1665              	eeprom_write:
 1666 0000 00       		.space	1
 1667              		.section	.bss.U,"aw",%nobits
 1668              		.align	2
 1669              		.set	.LANCHOR15,. + 0
 1670              		.type	U, %object
 1671              		.size	U, 4
 1672              	U:
 1673 0000 00000000 		.space	4
 1674              		.section	.bss.set,"aw",%nobits
 1675              		.align	1
 1676              		.set	.LANCHOR13,. + 0
 1677              		.type	set, %object
 1678              		.size	set, 2
 1679              	set:
 1680 0000 0000     		.space	2
 1681              		.section	.data.K_I,"aw",%progbits
 1682              		.align	1
 1683              		.set	.LANCHOR17,. + 0
 1684              		.type	K_I, %object
 1685              		.size	K_I, 2
 1686              	K_I:
 1687 0000 0200     		.short	2
 1688              		.section	.bss.old_set,"aw",%nobits
 1689              		.align	1
 1690              		.set	.LANCHOR2,. + 0
 1691              		.type	old_set, %object
 1692              		.size	old_set, 2
 1693              	old_set:
 1694 0000 0000     		.space	2
 1695              		.section	.rodata.str1.4,"aMS",%progbits,1
 1696              		.align	2
 1697              	.LC0:
 1698 0000 1B6300   		.ascii	"\033c\000"
ARM GAS  C:\Users\DNIEL~1\AppData\Local\Temp\cc7TYfMd.s 			page 31


 1699 0003 00       		.space	1
 1700              	.LC1:
 1701 0004 1B5B324A 		.ascii	"\033[2J\000"
 1701      00
 1702 0009 000000   		.space	3
 1703              	.LC2:
 1704 000c 1B5B2564 		.ascii	"\033[%d;%dH\000"
 1704      3B256448 
 1704      00
 1705 0015 000000   		.space	3
 1706              	.LC3:
 1707 0018 4B5F503A 		.ascii	"K_P: %15d - P: %15d\015\012\000"
 1707      20253135 
 1707      64202D20 
 1707      503A2025 
 1707      3135640D 
 1708 002e 0000     		.space	2
 1709              	.LC4:
 1710 0030 4B5F493A 		.ascii	"K_I: %15d - I: %15d\015\012\000"
 1710      20253135 
 1710      64202D20 
 1710      493A2025 
 1710      3135640D 
 1711 0046 0000     		.space	2
 1712              	.LC5:
 1713 0048 4B5F443A 		.ascii	"K_D: %15d - D: %15d\015\012\000"
 1713      20253135 
 1713      64202D20 
 1713      443A2025 
 1713      3135640D 
 1714 005e 0000     		.space	2
 1715              	.LC6:
 1716 0060 4B5F553A 		.ascii	"K_U: %15d - U: %15d\015\012\000"
 1716      20253135 
 1716      64202D20 
 1716      553A2025 
 1716      3135640D 
 1717 0076 0000     		.space	2
 1718              	.LC7:
 1719 0078 70776D3A 		.ascii	"pwm: %15d\015\012\000"
 1719      20253135 
 1719      640D0A00 
 1720              	.LC8:
 1721 0084 73657420 		.ascii	"set rpm: %15d\015\012\000"
 1721      72706D3A 
 1721      20253135 
 1721      640D0A00 
 1722              	.LC9:
 1723 0094 696E7075 		.ascii	"input rpm: %15d\015\012\000"
 1723      74207270 
 1723      6D3A2025 
 1723      3135640D 
 1723      0A00
 1724 00a6 0000     		.space	2
 1725              	.LC10:
 1726 00a8 73657420 		.ascii	"set - rpm: %15d\015\012\000"
 1726      2D207270 
ARM GAS  C:\Users\DNIEL~1\AppData\Local\Temp\cc7TYfMd.s 			page 32


 1726      6D3A2025 
 1726      3135640D 
 1726      0A00
 1727 00ba 0000     		.space	2
 1728              	.LC11:
 1729 00bc 0D0A00   		.ascii	"\015\012\000"
 1730 00bf 00       		.space	1
 1731              	.LC12:
 1732 00c0 63727569 		.ascii	"cruise_disable_period: %15d\015\012\000"
 1732      73655F64 
 1732      69736162 
 1732      6C655F70 
 1732      6572696F 
 1733 00de 0000     		.space	2
 1734              	.LC13:
 1735 00e0 70657269 		.ascii	"period_null: %15d\015\012\000"
 1735      6F645F6E 
 1735      756C6C3A 
 1735      20253135 
 1735      640D0A00 
 1736              	.LC14:
 1737 00f4 72706D00 		.ascii	"rpm\000"
 1738              	.LC15:
 1739 00f8 54686973 		.ascii	"This not good K_P!\015\012\000"
 1739      206E6F74 
 1739      20676F6F 
 1739      64204B5F 
 1739      50210D0A 
 1740 010d 000000   		.space	3
 1741              	.LC16:
 1742 0110 54686973 		.ascii	"This not good K_I!\015\012\000"
 1742      206E6F74 
 1742      20676F6F 
 1742      64204B5F 
 1742      49210D0A 
 1743 0125 000000   		.space	3
 1744              	.LC17:
 1745 0128 54686973 		.ascii	"This not good K_D!\015\012\000"
 1745      206E6F74 
 1745      20676F6F 
 1745      64204B5F 
 1745      44210D0A 
 1746 013d 000000   		.space	3
 1747              	.LC18:
 1748 0140 6F6E00   		.ascii	"on\000"
 1749 0143 00       		.space	1
 1750              	.LC19:
 1751 0144 43727569 		.ascii	"Cruise control switch ON!\015\012\000"
 1751      73652063 
 1751      6F6E7472 
 1751      6F6C2073 
 1751      77697463 
 1752              	.LC20:
 1753 0160 43727569 		.ascii	"Cruise control switch OFF!\015\012\000"
 1753      73652063 
 1753      6F6E7472 
 1753      6F6C2073 
ARM GAS  C:\Users\DNIEL~1\AppData\Local\Temp\cc7TYfMd.s 			page 33


 1753      77697463 
 1754 017d 000000   		.space	3
 1755              	.LC21:
 1756 0180 4B5F503A 		.ascii	"K_P: %15d\015\012\000"
 1756      20253135 
 1756      640D0A00 
 1757              	.LC22:
 1758 018c 4B5F493A 		.ascii	"K_I: %15d\015\012\000"
 1758      20253135 
 1758      640D0A00 
 1759              	.LC23:
 1760 0198 4B5F443A 		.ascii	"K_D: %15d\015\012\000"
 1760      20253135 
 1760      640D0A00 
 1761              	.LC24:
 1762 01a4 54686973 		.ascii	"This not good command!\015\012\000"
 1762      206E6F74 
 1762      20676F6F 
 1762      6420636F 
 1762      6D6D616E 
 1763 01bd 000000   		.space	3
 1764              	.LC25:
 1765 01c0 4B5F5000 		.ascii	"K_P\000"
 1766              	.LC26:
 1767 01c4 4B5F4900 		.ascii	"K_I\000"
 1768              	.LC27:
 1769 01c8 4B5F4400 		.ascii	"K_D\000"
 1770              	.LC28:
 1771 01cc 6F666600 		.ascii	"off\000"
 1772              	.LC29:
 1773 01d0 55736167 		.ascii	"Usage: cruise on\015\012\000"
 1773      653A2063 
 1773      72756973 
 1773      65206F6E 
 1773      0D0A00
 1774 01e3 00       		.space	1
 1775              	.LC30:
 1776 01e4 20202020 		.ascii	"       cruise off\015\012\000"
 1776      20202063 
 1776      72756973 
 1776      65206F66 
 1776      660D0A00 
 1777              		.section	.bss.I,"aw",%nobits
 1778              		.align	3
 1779              		.set	.LANCHOR9,. + 0
 1780              		.type	I, %object
 1781              		.size	I, 8
 1782              	I:
 1783 0000 00000000 		.space	8
 1783      00000000 
 1784              		.section	.bss.pwm,"aw",%nobits
 1785              		.align	2
 1786              		.set	.LANCHOR0,. + 0
 1787              		.type	pwm, %object
 1788              		.size	pwm, 4
 1789              	pwm:
 1790 0000 00000000 		.space	4
ARM GAS  C:\Users\DNIEL~1\AppData\Local\Temp\cc7TYfMd.s 			page 34


 1791              		.section	.data.cruise_pwmcfg,"aw",%progbits
 1792              		.align	2
 1793              		.set	.LANCHOR14,. + 0
 1794              		.type	cruise_pwmcfg, %object
 1795              		.size	cruise_pwmcfg, 52
 1796              	cruise_pwmcfg:
 1797 0000 80969800 		.word	10000000
 1798 0004 1027     		.short	10000
 1799 0006 0000     		.space	2
 1800 0008 00000000 		.word	0
 1801 000c 00000000 		.word	0
 1802 0010 00000000 		.word	0
 1803 0014 00000000 		.word	0
 1804 0018 00000000 		.word	0
 1805 001c 01000000 		.word	1
 1806 0020 00000000 		.word	0
 1807 0024 00000000 		.word	0
 1808 0028 00000000 		.word	0
 1809 002c 00000000 		.word	0
 1810 0030 00000000 		.word	0
 1811              		.section	.bss.eeprom_read_period,"aw",%nobits
 1812              		.align	2
 1813              		.set	.LANCHOR1,. + 0
 1814              		.type	eeprom_read_period, %object
 1815              		.size	eeprom_read_period, 4
 1816              	eeprom_read_period:
 1817 0000 00000000 		.space	4
 1818              		.section	.bss.cruise_on,"aw",%nobits
 1819              		.set	.LANCHOR4,. + 0
 1820              		.type	cruise_on, %object
 1821              		.size	cruise_on, 1
 1822              	cruise_on:
 1823 0000 00       		.space	1
 1824              		.section	.bss.D,"aw",%nobits
 1825              		.align	3
 1826              		.set	.LANCHOR10,. + 0
 1827              		.type	D, %object
 1828              		.size	D, 8
 1829              	D:
 1830 0000 00000000 		.space	8
 1830      00000000 
 1831              		.section	.bss.e,"aw",%nobits
 1832              		.align	3
 1833              		.set	.LANCHOR12,. + 0
 1834              		.type	e, %object
 1835              		.size	e, 8
 1836              	e:
 1837 0000 00000000 		.space	8
 1837      00000000 
 1838              		.section	.bss.eelozo,"aw",%nobits
 1839              		.align	3
 1840              		.set	.LANCHOR11,. + 0
 1841              		.type	eelozo, %object
 1842              		.size	eelozo, 8
 1843              	eelozo:
 1844 0000 00000000 		.space	8
 1844      00000000 
ARM GAS  C:\Users\DNIEL~1\AppData\Local\Temp\cc7TYfMd.s 			page 35


 1845              		.section	.bss.cruise_disable_period,"aw",%nobits
 1846              		.align	1
 1847              		.set	.LANCHOR7,. + 0
 1848              		.type	cruise_disable_period, %object
 1849              		.size	cruise_disable_period, 2
 1850              	cruise_disable_period:
 1851 0000 0000     		.space	2
 1852              		.text
 1853              	.Letext0:
 1854              		.section	.debug_loc,"",%progbits
 1855              	.Ldebug_loc0:
 1856              	.LLST0:
 1857 0000 00000000 		.4byte	.LFB118
 1858 0004 02000000 		.4byte	.LCFI0
 1859 0008 0200     		.2byte	0x2
 1860 000a 7D       		.byte	0x7d
 1861 000b 00       		.sleb128 0
 1862 000c 02000000 		.4byte	.LCFI0
 1863 0010 04000000 		.4byte	.LCFI1
 1864 0014 0200     		.2byte	0x2
 1865 0016 7D       		.byte	0x7d
 1866 0017 0C       		.sleb128 12
 1867 0018 04000000 		.4byte	.LCFI1
 1868 001c 06000000 		.4byte	.LCFI2
 1869 0020 0200     		.2byte	0x2
 1870 0022 7D       		.byte	0x7d
 1871 0023 10       		.sleb128 16
 1872 0024 06000000 		.4byte	.LCFI2
 1873 0028 1E000000 		.4byte	.LFE118
 1874 002c 0200     		.2byte	0x2
 1875 002e 7D       		.byte	0x7d
 1876 002f 18       		.sleb128 24
 1877 0030 00000000 		.4byte	0x0
 1878 0034 00000000 		.4byte	0x0
 1879              	.LLST1:
 1880 0038 00000000 		.4byte	.LVL0
 1881 003c 13000000 		.4byte	.LVL1-1
 1882 0040 0100     		.2byte	0x1
 1883 0042 50       		.byte	0x50
 1884 0043 00000000 		.4byte	0x0
 1885 0047 00000000 		.4byte	0x0
 1886              	.LLST2:
 1887 004b 00000000 		.4byte	.LFB119
 1888 004f 04000000 		.4byte	.LCFI3
 1889 0053 0200     		.2byte	0x2
 1890 0055 7D       		.byte	0x7d
 1891 0056 00       		.sleb128 0
 1892 0057 04000000 		.4byte	.LCFI3
 1893 005b EC000000 		.4byte	.LFE119
 1894 005f 0200     		.2byte	0x2
 1895 0061 7D       		.byte	0x7d
 1896 0062 18       		.sleb128 24
 1897 0063 00000000 		.4byte	0x0
 1898 0067 00000000 		.4byte	0x0
 1899              	.LLST3:
 1900 006b 00000000 		.4byte	.LFB125
 1901 006f 02000000 		.4byte	.LCFI4
ARM GAS  C:\Users\DNIEL~1\AppData\Local\Temp\cc7TYfMd.s 			page 36


 1902 0073 0200     		.2byte	0x2
 1903 0075 7D       		.byte	0x7d
 1904 0076 00       		.sleb128 0
 1905 0077 02000000 		.4byte	.LCFI4
 1906 007b 54000000 		.4byte	.LFE125
 1907 007f 0200     		.2byte	0x2
 1908 0081 7D       		.byte	0x7d
 1909 0082 10       		.sleb128 16
 1910 0083 00000000 		.4byte	0x0
 1911 0087 00000000 		.4byte	0x0
 1912              	.LLST4:
 1913 008b 00000000 		.4byte	.LVL2
 1914 008f 0C000000 		.4byte	.LVL3
 1915 0093 0600     		.2byte	0x6
 1916 0095 50       		.byte	0x50
 1917 0096 93       		.byte	0x93
 1918 0097 04       		.uleb128 0x4
 1919 0098 51       		.byte	0x51
 1920 0099 93       		.byte	0x93
 1921 009a 04       		.uleb128 0x4
 1922 009b 00000000 		.4byte	0x0
 1923 009f 00000000 		.4byte	0x0
 1924              	.LLST5:
 1925 00a3 00000000 		.4byte	.LFB126
 1926 00a7 02000000 		.4byte	.LCFI5
 1927 00ab 0200     		.2byte	0x2
 1928 00ad 7D       		.byte	0x7d
 1929 00ae 00       		.sleb128 0
 1930 00af 02000000 		.4byte	.LCFI5
 1931 00b3 2C000000 		.4byte	.LFE126
 1932 00b7 0200     		.2byte	0x2
 1933 00b9 7D       		.byte	0x7d
 1934 00ba 10       		.sleb128 16
 1935 00bb 00000000 		.4byte	0x0
 1936 00bf 00000000 		.4byte	0x0
 1937              	.LLST6:
 1938 00c3 00000000 		.4byte	.LVL4
 1939 00c7 0C000000 		.4byte	.LVL5
 1940 00cb 0600     		.2byte	0x6
 1941 00cd 50       		.byte	0x50
 1942 00ce 93       		.byte	0x93
 1943 00cf 04       		.uleb128 0x4
 1944 00d0 51       		.byte	0x51
 1945 00d1 93       		.byte	0x93
 1946 00d2 04       		.uleb128 0x4
 1947 00d3 00000000 		.4byte	0x0
 1948 00d7 00000000 		.4byte	0x0
 1949              	.LLST7:
 1950 00db 00000000 		.4byte	.LFB127
 1951 00df 02000000 		.4byte	.LCFI6
 1952 00e3 0200     		.2byte	0x2
 1953 00e5 7D       		.byte	0x7d
 1954 00e6 00       		.sleb128 0
 1955 00e7 02000000 		.4byte	.LCFI6
 1956 00eb 18000000 		.4byte	.LFE127
 1957 00ef 0200     		.2byte	0x2
 1958 00f1 7D       		.byte	0x7d
ARM GAS  C:\Users\DNIEL~1\AppData\Local\Temp\cc7TYfMd.s 			page 37


 1959 00f2 08       		.sleb128 8
 1960 00f3 00000000 		.4byte	0x0
 1961 00f7 00000000 		.4byte	0x0
 1962              	.LLST8:
 1963 00fb 00000000 		.4byte	.LFB128
 1964 00ff 04000000 		.4byte	.LCFI7
 1965 0103 0200     		.2byte	0x2
 1966 0105 7D       		.byte	0x7d
 1967 0106 00       		.sleb128 0
 1968 0107 04000000 		.4byte	.LCFI7
 1969 010b 06000000 		.4byte	.LCFI8
 1970 010f 0200     		.2byte	0x2
 1971 0111 7D       		.byte	0x7d
 1972 0112 24       		.sleb128 36
 1973 0113 06000000 		.4byte	.LCFI8
 1974 0117 A4010000 		.4byte	.LFE128
 1975 011b 0300     		.2byte	0x3
 1976 011d 7D       		.byte	0x7d
 1977 011e C000     		.sleb128 64
 1978 0120 00000000 		.4byte	0x0
 1979 0124 00000000 		.4byte	0x0
 1980              	.LLST9:
 1981 0128 00000000 		.4byte	.LVL6
 1982 012c 08000000 		.4byte	.LVL7
 1983 0130 0100     		.2byte	0x1
 1984 0132 50       		.byte	0x50
 1985 0133 00000000 		.4byte	0x0
 1986 0137 00000000 		.4byte	0x0
 1987              	.LLST10:
 1988 013b 00000000 		.4byte	.LVL6
 1989 013f 0F000000 		.4byte	.LVL8-1
 1990 0143 0100     		.2byte	0x1
 1991 0145 51       		.byte	0x51
 1992 0146 00000000 		.4byte	0x0
 1993 014a 00000000 		.4byte	0x0
 1994              	.LLST11:
 1995 014e 00000000 		.4byte	.LVL6
 1996 0152 0F000000 		.4byte	.LVL8-1
 1997 0156 0100     		.2byte	0x1
 1998 0158 52       		.byte	0x52
 1999 0159 0F000000 		.4byte	.LVL8-1
 2000 015d A4010000 		.4byte	.LFE128
 2001 0161 0100     		.2byte	0x1
 2002 0163 5B       		.byte	0x5b
 2003 0164 00000000 		.4byte	0x0
 2004 0168 00000000 		.4byte	0x0
 2005              	.LLST12:
 2006 016c 00000000 		.4byte	.LVL6
 2007 0170 0F000000 		.4byte	.LVL8-1
 2008 0174 0100     		.2byte	0x1
 2009 0176 53       		.byte	0x53
 2010 0177 0F000000 		.4byte	.LVL8-1
 2011 017b A4010000 		.4byte	.LFE128
 2012 017f 0200     		.2byte	0x2
 2013 0181 91       		.byte	0x91
 2014 0182 54       		.sleb128 -44
 2015 0183 00000000 		.4byte	0x0
ARM GAS  C:\Users\DNIEL~1\AppData\Local\Temp\cc7TYfMd.s 			page 38


 2016 0187 00000000 		.4byte	0x0
 2017              	.LLST13:
 2018 018b 00000000 		.4byte	.LFB120
 2019 018f 06000000 		.4byte	.LCFI9
 2020 0193 0200     		.2byte	0x2
 2021 0195 7D       		.byte	0x7d
 2022 0196 00       		.sleb128 0
 2023 0197 06000000 		.4byte	.LCFI9
 2024 019b 0E000000 		.4byte	.LCFI10
 2025 019f 0200     		.2byte	0x2
 2026 01a1 7D       		.byte	0x7d
 2027 01a2 18       		.sleb128 24
 2028 01a3 0E000000 		.4byte	.LCFI10
 2029 01a7 10020000 		.4byte	.LFE120
 2030 01ab 0300     		.2byte	0x3
 2031 01ad 7D       		.byte	0x7d
 2032 01ae C000     		.sleb128 64
 2033 01b0 00000000 		.4byte	0x0
 2034 01b4 00000000 		.4byte	0x0
 2035              	.LLST14:
 2036 01b8 00000000 		.4byte	.LFB129
 2037 01bc 04000000 		.4byte	.LCFI11
 2038 01c0 0200     		.2byte	0x2
 2039 01c2 7D       		.byte	0x7d
 2040 01c3 00       		.sleb128 0
 2041 01c4 04000000 		.4byte	.LCFI11
 2042 01c8 5C010000 		.4byte	.LFE129
 2043 01cc 0200     		.2byte	0x2
 2044 01ce 7D       		.byte	0x7d
 2045 01cf 20       		.sleb128 32
 2046 01d0 00000000 		.4byte	0x0
 2047 01d4 00000000 		.4byte	0x0
 2048              	.LLST15:
 2049 01d8 00000000 		.4byte	.LVL9
 2050 01dc 15000000 		.4byte	.LVL11-1
 2051 01e0 0100     		.2byte	0x1
 2052 01e2 50       		.byte	0x50
 2053 01e3 15000000 		.4byte	.LVL11-1
 2054 01e7 5C010000 		.4byte	.LFE129
 2055 01eb 0100     		.2byte	0x1
 2056 01ed 54       		.byte	0x54
 2057 01ee 00000000 		.4byte	0x0
 2058 01f2 00000000 		.4byte	0x0
 2059              	.LLST16:
 2060 01f6 00000000 		.4byte	.LVL9
 2061 01fa 06000000 		.4byte	.LVL10
 2062 01fe 0100     		.2byte	0x1
 2063 0200 51       		.byte	0x51
 2064 0201 00000000 		.4byte	0x0
 2065 0205 00000000 		.4byte	0x0
 2066              	.LLST17:
 2067 0209 00000000 		.4byte	.LVL9
 2068 020d 15000000 		.4byte	.LVL11-1
 2069 0211 0100     		.2byte	0x1
 2070 0213 52       		.byte	0x52
 2071 0214 00000000 		.4byte	0x0
 2072 0218 00000000 		.4byte	0x0
ARM GAS  C:\Users\DNIEL~1\AppData\Local\Temp\cc7TYfMd.s 			page 39


 2073              	.LLST18:
 2074 021c 00000000 		.4byte	.LFB130
 2075 0220 04000000 		.4byte	.LCFI12
 2076 0224 0200     		.2byte	0x2
 2077 0226 7D       		.byte	0x7d
 2078 0227 00       		.sleb128 0
 2079 0228 04000000 		.4byte	.LCFI12
 2080 022c 0C020000 		.4byte	.LFE130
 2081 0230 0200     		.2byte	0x2
 2082 0232 7D       		.byte	0x7d
 2083 0233 18       		.sleb128 24
 2084 0234 00000000 		.4byte	0x0
 2085 0238 00000000 		.4byte	0x0
 2086              	.LLST19:
 2087 023c 00000000 		.4byte	.LVL12
 2088 0240 0F000000 		.4byte	.LVL14-1
 2089 0244 0100     		.2byte	0x1
 2090 0246 50       		.byte	0x50
 2091 0247 0F000000 		.4byte	.LVL14-1
 2092 024b 0C020000 		.4byte	.LFE130
 2093 024f 0100     		.2byte	0x1
 2094 0251 54       		.byte	0x54
 2095 0252 00000000 		.4byte	0x0
 2096 0256 00000000 		.4byte	0x0
 2097              	.LLST20:
 2098 025a 00000000 		.4byte	.LVL12
 2099 025e 0A000000 		.4byte	.LVL13
 2100 0262 0100     		.2byte	0x1
 2101 0264 51       		.byte	0x51
 2102 0265 0A000000 		.4byte	.LVL13
 2103 0269 40000000 		.4byte	.LVL15
 2104 026d 0100     		.2byte	0x1
 2105 026f 55       		.byte	0x55
 2106 0270 4C000000 		.4byte	.LVL16
 2107 0274 66000000 		.4byte	.LVL17
 2108 0278 0100     		.2byte	0x1
 2109 027a 55       		.byte	0x55
 2110 027b 92000000 		.4byte	.LVL19
 2111 027f 0A010000 		.4byte	.LVL20
 2112 0283 0100     		.2byte	0x1
 2113 0285 55       		.byte	0x55
 2114 0286 20010000 		.4byte	.LVL22
 2115 028a 36010000 		.4byte	.LVL25
 2116 028e 0100     		.2byte	0x1
 2117 0290 55       		.byte	0x55
 2118 0291 00000000 		.4byte	0x0
 2119 0295 00000000 		.4byte	0x0
 2120              	.LLST21:
 2121 0299 00000000 		.4byte	.LVL12
 2122 029d 0F000000 		.4byte	.LVL14-1
 2123 02a1 0100     		.2byte	0x1
 2124 02a3 52       		.byte	0x52
 2125 02a4 0F000000 		.4byte	.LVL14-1
 2126 02a8 0C020000 		.4byte	.LFE130
 2127 02ac 0100     		.2byte	0x1
 2128 02ae 56       		.byte	0x56
 2129 02af 00000000 		.4byte	0x0
ARM GAS  C:\Users\DNIEL~1\AppData\Local\Temp\cc7TYfMd.s 			page 40


 2130 02b3 00000000 		.4byte	0x0
 2131              	.LLST22:
 2132 02b7 86000000 		.4byte	.LVL18
 2133 02bb 92000000 		.4byte	.LVL19
 2134 02bf 0100     		.2byte	0x1
 2135 02c1 55       		.byte	0x55
 2136 02c2 12010000 		.4byte	.LVL21
 2137 02c6 20010000 		.4byte	.LVL22
 2138 02ca 0100     		.2byte	0x1
 2139 02cc 55       		.byte	0x55
 2140 02cd 26010000 		.4byte	.LVL23
 2141 02d1 2E010000 		.4byte	.LVL24
 2142 02d5 0100     		.2byte	0x1
 2143 02d7 50       		.byte	0x50
 2144 02d8 36010000 		.4byte	.LVL25
 2145 02dc 0C020000 		.4byte	.LFE130
 2146 02e0 0100     		.2byte	0x1
 2147 02e2 55       		.byte	0x55
 2148 02e3 00000000 		.4byte	0x0
 2149 02e7 00000000 		.4byte	0x0
 2150              	.LLST23:
 2151 02eb 00000000 		.4byte	.LFB131
 2152 02ef 04000000 		.4byte	.LCFI13
 2153 02f3 0200     		.2byte	0x2
 2154 02f5 7D       		.byte	0x7d
 2155 02f6 00       		.sleb128 0
 2156 02f7 04000000 		.4byte	.LCFI13
 2157 02fb A8000000 		.4byte	.LFE131
 2158 02ff 0200     		.2byte	0x2
 2159 0301 7D       		.byte	0x7d
 2160 0302 18       		.sleb128 24
 2161 0303 00000000 		.4byte	0x0
 2162 0307 00000000 		.4byte	0x0
 2163              	.LLST24:
 2164 030b 00000000 		.4byte	.LVL26
 2165 030f 0F000000 		.4byte	.LVL28-1
 2166 0313 0100     		.2byte	0x1
 2167 0315 50       		.byte	0x50
 2168 0316 0F000000 		.4byte	.LVL28-1
 2169 031a A8000000 		.4byte	.LFE131
 2170 031e 0100     		.2byte	0x1
 2171 0320 54       		.byte	0x54
 2172 0321 00000000 		.4byte	0x0
 2173 0325 00000000 		.4byte	0x0
 2174              	.LLST25:
 2175 0329 00000000 		.4byte	.LVL26
 2176 032d 0A000000 		.4byte	.LVL27
 2177 0331 0100     		.2byte	0x1
 2178 0333 51       		.byte	0x51
 2179 0334 0A000000 		.4byte	.LVL27
 2180 0338 A8000000 		.4byte	.LFE131
 2181 033c 0100     		.2byte	0x1
 2182 033e 55       		.byte	0x55
 2183 033f 00000000 		.4byte	0x0
 2184 0343 00000000 		.4byte	0x0
 2185              	.LLST26:
 2186 0347 00000000 		.4byte	.LVL26
ARM GAS  C:\Users\DNIEL~1\AppData\Local\Temp\cc7TYfMd.s 			page 41


 2187 034b 0F000000 		.4byte	.LVL28-1
 2188 034f 0100     		.2byte	0x1
 2189 0351 52       		.byte	0x52
 2190 0352 0F000000 		.4byte	.LVL28-1
 2191 0356 A8000000 		.4byte	.LFE131
 2192 035a 0100     		.2byte	0x1
 2193 035c 56       		.byte	0x56
 2194 035d 00000000 		.4byte	0x0
 2195 0361 00000000 		.4byte	0x0
 2196              		.file 3 "c:\\program files (x86)\\codesourcery\\sourcery g++ lite\\bin\\../lib/gcc/arm-none-eabi/4
 2197              		.file 4 "c:\\program files (x86)\\codesourcery\\sourcery g++ lite\\bin\\../lib/gcc/arm-none-eabi/4
 2198              		.file 5 "../../../ChibiOS/os/ports/GCC/ARMCMx/chtypes.h"
 2199              		.file 6 "../../../ChibiOS/os/kernel/include/chstreams.h"
 2200              		.file 7 "../../../ChibiOS/os/hal/include/io_channel.h"
 2201              		.file 8 "../../../ChibiOS/os/hal/platforms/STM32/TIMv1/stm32_tim.h"
 2202              		.file 9 "../../../ChibiOS/os/hal/include/pwm.h"
 2203              		.file 10 "../../../ChibiOS/os/hal/platforms/STM32/TIMv1/pwm_lld.h"
 2204              		.file 11 "c:\\program files (x86)\\codesourcery\\sourcery g++ lite\\bin\\../lib/gcc/arm-none-eabi/
 2205              		.file 12 "<built-in>"
 2206              		.file 13 "include/eepromItems.h"
 2207              		.file 14 "include/meas.h"
 2208              		.file 15 "../../../ChibiOS/os/ports/common/ARMCMx/CMSIS/include/core_cm4.h"
 2209              		.section	.debug_info
 2210 0000 5D0C0000 		.4byte	0xc5d
 2211 0004 0200     		.2byte	0x2
 2212 0006 00000000 		.4byte	.Ldebug_abbrev0
 2213 000a 04       		.byte	0x4
 2214 000b 01       		.uleb128 0x1
 2215 000c 97040000 		.4byte	.LASF118
 2216 0010 01       		.byte	0x1
 2217 0011 D9020000 		.4byte	.LASF119
 2218 0015 CA000000 		.4byte	.LASF120
 2219 0019 00000000 		.4byte	0x0
 2220 001d 00000000 		.4byte	0x0
 2221 0021 78000000 		.4byte	.Ldebug_ranges0+0x78
 2222 0025 00000000 		.4byte	.Ldebug_line0
 2223 0029 02       		.uleb128 0x2
 2224 002a 01       		.byte	0x1
 2225 002b 06       		.byte	0x6
 2226 002c 9C000000 		.4byte	.LASF0
 2227 0030 02       		.uleb128 0x2
 2228 0031 01       		.byte	0x1
 2229 0032 08       		.byte	0x8
 2230 0033 20030000 		.4byte	.LASF1
 2231 0037 02       		.uleb128 0x2
 2232 0038 02       		.byte	0x2
 2233 0039 05       		.byte	0x5
 2234 003a 4B030000 		.4byte	.LASF2
 2235 003e 02       		.uleb128 0x2
 2236 003f 02       		.byte	0x2
 2237 0040 07       		.byte	0x7
 2238 0041 13020000 		.4byte	.LASF3
 2239 0045 03       		.uleb128 0x3
 2240 0046 04       		.byte	0x4
 2241 0047 05       		.byte	0x5
 2242 0048 696E7400 		.ascii	"int\000"
 2243 004c 02       		.uleb128 0x2
ARM GAS  C:\Users\DNIEL~1\AppData\Local\Temp\cc7TYfMd.s 			page 42


 2244 004d 04       		.byte	0x4
 2245 004e 07       		.byte	0x7
 2246 004f 97010000 		.4byte	.LASF4
 2247 0053 02       		.uleb128 0x2
 2248 0054 08       		.byte	0x8
 2249 0055 05       		.byte	0x5
 2250 0056 2C010000 		.4byte	.LASF5
 2251 005a 02       		.uleb128 0x2
 2252 005b 08       		.byte	0x8
 2253 005c 07       		.byte	0x7
 2254 005d 38000000 		.4byte	.LASF6
 2255 0061 02       		.uleb128 0x2
 2256 0062 04       		.byte	0x4
 2257 0063 05       		.byte	0x5
 2258 0064 28000000 		.4byte	.LASF7
 2259 0068 04       		.uleb128 0x4
 2260 0069 04       		.byte	0x4
 2261 006a 02       		.uleb128 0x2
 2262 006b 04       		.byte	0x4
 2263 006c 07       		.byte	0x7
 2264 006d B8010000 		.4byte	.LASF8
 2265 0071 05       		.uleb128 0x5
 2266 0072 04       		.byte	0x4
 2267 0073 77000000 		.4byte	0x77
 2268 0077 02       		.uleb128 0x2
 2269 0078 01       		.byte	0x1
 2270 0079 08       		.byte	0x8
 2271 007a BA030000 		.4byte	.LASF9
 2272 007e 05       		.uleb128 0x5
 2273 007f 04       		.byte	0x4
 2274 0080 84000000 		.4byte	0x84
 2275 0084 06       		.uleb128 0x6
 2276 0085 77000000 		.4byte	0x77
 2277 0089 07       		.uleb128 0x7
 2278 008a 05000000 		.4byte	.LASF10
 2279 008e 03       		.byte	0x3
 2280 008f D3       		.byte	0xd3
 2281 0090 4C000000 		.4byte	0x4c
 2282 0094 07       		.uleb128 0x7
 2283 0095 5A040000 		.4byte	.LASF11
 2284 0099 04       		.byte	0x4
 2285 009a 2A       		.byte	0x2a
 2286 009b 30000000 		.4byte	0x30
 2287 009f 07       		.uleb128 0x7
 2288 00a0 89000000 		.4byte	.LASF12
 2289 00a4 04       		.byte	0x4
 2290 00a5 35       		.byte	0x35
 2291 00a6 37000000 		.4byte	0x37
 2292 00aa 07       		.uleb128 0x7
 2293 00ab 3A010000 		.4byte	.LASF13
 2294 00af 04       		.byte	0x4
 2295 00b0 36       		.byte	0x36
 2296 00b1 3E000000 		.4byte	0x3e
 2297 00b5 07       		.uleb128 0x7
 2298 00b6 18030000 		.4byte	.LASF14
 2299 00ba 04       		.byte	0x4
 2300 00bb 4F       		.byte	0x4f
ARM GAS  C:\Users\DNIEL~1\AppData\Local\Temp\cc7TYfMd.s 			page 43


 2301 00bc 61000000 		.4byte	0x61
 2302 00c0 07       		.uleb128 0x7
 2303 00c1 8E030000 		.4byte	.LASF15
 2304 00c5 04       		.byte	0x4
 2305 00c6 50       		.byte	0x50
 2306 00c7 6A000000 		.4byte	0x6a
 2307 00cb 07       		.uleb128 0x7
 2308 00cc B4000000 		.4byte	.LASF16
 2309 00d0 05       		.byte	0x5
 2310 00d1 2B       		.byte	0x2b
 2311 00d2 D6000000 		.4byte	0xd6
 2312 00d6 02       		.uleb128 0x2
 2313 00d7 01       		.byte	0x1
 2314 00d8 02       		.byte	0x2
 2315 00d9 12030000 		.4byte	.LASF17
 2316 00dd 07       		.uleb128 0x7
 2317 00de 3F020000 		.4byte	.LASF18
 2318 00e2 05       		.byte	0x5
 2319 00e3 31       		.byte	0x31
 2320 00e4 B5000000 		.4byte	0xb5
 2321 00e8 07       		.uleb128 0x7
 2322 00e9 F8030000 		.4byte	.LASF19
 2323 00ed 05       		.byte	0x5
 2324 00ee 35       		.byte	0x35
 2325 00ef C0000000 		.4byte	0xc0
 2326 00f3 08       		.uleb128 0x8
 2327 00f4 C0000000 		.4byte	0xc0
 2328 00f8 05       		.uleb128 0x5
 2329 00f9 04       		.byte	0x4
 2330 00fa FE000000 		.4byte	0xfe
 2331 00fe 09       		.uleb128 0x9
 2332 00ff 01       		.byte	0x1
 2333 0100 DD000000 		.4byte	0xdd
 2334 0104 0E010000 		.4byte	0x10e
 2335 0108 0A       		.uleb128 0xa
 2336 0109 68000000 		.4byte	0x68
 2337 010d 00       		.byte	0x0
 2338 010e 05       		.uleb128 0x5
 2339 010f 04       		.byte	0x4
 2340 0110 94000000 		.4byte	0x94
 2341 0114 0B       		.uleb128 0xb
 2342 0115 55030000 		.4byte	.LASF23
 2343 0119 10       		.byte	0x10
 2344 011a 06       		.byte	0x6
 2345 011b 48       		.byte	0x48
 2346 011c 59010000 		.4byte	0x159
 2347 0120 0C       		.uleb128 0xc
 2348 0121 75020000 		.4byte	.LASF20
 2349 0125 06       		.byte	0x6
 2350 0126 49       		.byte	0x49
 2351 0127 7E010000 		.4byte	0x17e
 2352 012b 02       		.byte	0x2
 2353 012c 23       		.byte	0x23
 2354 012d 00       		.uleb128 0x0
 2355 012e 0C       		.uleb128 0xc
 2356 012f 92040000 		.4byte	.LASF21
 2357 0133 06       		.byte	0x6
ARM GAS  C:\Users\DNIEL~1\AppData\Local\Temp\cc7TYfMd.s 			page 44


 2358 0134 49       		.byte	0x49
 2359 0135 9E010000 		.4byte	0x19e
 2360 0139 02       		.byte	0x2
 2361 013a 23       		.byte	0x23
 2362 013b 04       		.uleb128 0x4
 2363 013c 0D       		.uleb128 0xd
 2364 013d 70757400 		.ascii	"put\000"
 2365 0141 06       		.byte	0x6
 2366 0142 49       		.byte	0x49
 2367 0143 B9010000 		.4byte	0x1b9
 2368 0147 02       		.byte	0x2
 2369 0148 23       		.byte	0x23
 2370 0149 08       		.uleb128 0x8
 2371 014a 0D       		.uleb128 0xd
 2372 014b 67657400 		.ascii	"get\000"
 2373 014f 06       		.byte	0x6
 2374 0150 49       		.byte	0x49
 2375 0151 F8000000 		.4byte	0xf8
 2376 0155 02       		.byte	0x2
 2377 0156 23       		.byte	0x23
 2378 0157 0C       		.uleb128 0xc
 2379 0158 00       		.byte	0x0
 2380 0159 09       		.uleb128 0x9
 2381 015a 01       		.byte	0x1
 2382 015b 89000000 		.4byte	0x89
 2383 015f 73010000 		.4byte	0x173
 2384 0163 0A       		.uleb128 0xa
 2385 0164 68000000 		.4byte	0x68
 2386 0168 0A       		.uleb128 0xa
 2387 0169 73010000 		.4byte	0x173
 2388 016d 0A       		.uleb128 0xa
 2389 016e 89000000 		.4byte	0x89
 2390 0172 00       		.byte	0x0
 2391 0173 05       		.uleb128 0x5
 2392 0174 04       		.byte	0x4
 2393 0175 79010000 		.4byte	0x179
 2394 0179 06       		.uleb128 0x6
 2395 017a 94000000 		.4byte	0x94
 2396 017e 05       		.uleb128 0x5
 2397 017f 04       		.byte	0x4
 2398 0180 59010000 		.4byte	0x159
 2399 0184 09       		.uleb128 0x9
 2400 0185 01       		.byte	0x1
 2401 0186 89000000 		.4byte	0x89
 2402 018a 9E010000 		.4byte	0x19e
 2403 018e 0A       		.uleb128 0xa
 2404 018f 68000000 		.4byte	0x68
 2405 0193 0A       		.uleb128 0xa
 2406 0194 0E010000 		.4byte	0x10e
 2407 0198 0A       		.uleb128 0xa
 2408 0199 89000000 		.4byte	0x89
 2409 019d 00       		.byte	0x0
 2410 019e 05       		.uleb128 0x5
 2411 019f 04       		.byte	0x4
 2412 01a0 84010000 		.4byte	0x184
 2413 01a4 09       		.uleb128 0x9
 2414 01a5 01       		.byte	0x1
ARM GAS  C:\Users\DNIEL~1\AppData\Local\Temp\cc7TYfMd.s 			page 45


 2415 01a6 DD000000 		.4byte	0xdd
 2416 01aa B9010000 		.4byte	0x1b9
 2417 01ae 0A       		.uleb128 0xa
 2418 01af 68000000 		.4byte	0x68
 2419 01b3 0A       		.uleb128 0xa
 2420 01b4 94000000 		.4byte	0x94
 2421 01b8 00       		.byte	0x0
 2422 01b9 05       		.uleb128 0x5
 2423 01ba 04       		.byte	0x4
 2424 01bb A4010000 		.4byte	0x1a4
 2425 01bf 0E       		.uleb128 0xe
 2426 01c0 04       		.byte	0x4
 2427 01c1 06       		.byte	0x6
 2428 01c2 51       		.byte	0x51
 2429 01c3 D6010000 		.4byte	0x1d6
 2430 01c7 0D       		.uleb128 0xd
 2431 01c8 766D7400 		.ascii	"vmt\000"
 2432 01cc 06       		.byte	0x6
 2433 01cd 53       		.byte	0x53
 2434 01ce D6010000 		.4byte	0x1d6
 2435 01d2 02       		.byte	0x2
 2436 01d3 23       		.byte	0x23
 2437 01d4 00       		.uleb128 0x0
 2438 01d5 00       		.byte	0x0
 2439 01d6 05       		.uleb128 0x5
 2440 01d7 04       		.byte	0x4
 2441 01d8 DC010000 		.4byte	0x1dc
 2442 01dc 06       		.uleb128 0x6
 2443 01dd 14010000 		.4byte	0x114
 2444 01e1 07       		.uleb128 0x7
 2445 01e2 82010000 		.4byte	.LASF22
 2446 01e6 06       		.byte	0x6
 2447 01e7 55       		.byte	0x55
 2448 01e8 BF010000 		.4byte	0x1bf
 2449 01ec 0F       		.uleb128 0xf
 2450 01ed C0000000 		.4byte	0xc0
 2451 01f1 FC010000 		.4byte	0x1fc
 2452 01f5 10       		.uleb128 0x10
 2453 01f6 4C000000 		.4byte	0x4c
 2454 01fa 03       		.byte	0x3
 2455 01fb 00       		.byte	0x0
 2456 01fc 08       		.uleb128 0x8
 2457 01fd B5000000 		.4byte	0xb5
 2458 0201 0B       		.uleb128 0xb
 2459 0202 4F000000 		.4byte	.LASF24
 2460 0206 20       		.byte	0x20
 2461 0207 07       		.byte	0x7
 2462 0208 4E       		.byte	0x4e
 2463 0209 7E020000 		.4byte	0x27e
 2464 020d 0C       		.uleb128 0xc
 2465 020e 75020000 		.4byte	.LASF20
 2466 0212 07       		.byte	0x7
 2467 0213 4F       		.byte	0x4f
 2468 0214 7E010000 		.4byte	0x17e
 2469 0218 02       		.byte	0x2
 2470 0219 23       		.byte	0x23
 2471 021a 00       		.uleb128 0x0
ARM GAS  C:\Users\DNIEL~1\AppData\Local\Temp\cc7TYfMd.s 			page 46


 2472 021b 0C       		.uleb128 0xc
 2473 021c 92040000 		.4byte	.LASF21
 2474 0220 07       		.byte	0x7
 2475 0221 4F       		.byte	0x4f
 2476 0222 9E010000 		.4byte	0x19e
 2477 0226 02       		.byte	0x2
 2478 0227 23       		.byte	0x23
 2479 0228 04       		.uleb128 0x4
 2480 0229 0D       		.uleb128 0xd
 2481 022a 70757400 		.ascii	"put\000"
 2482 022e 07       		.byte	0x7
 2483 022f 4F       		.byte	0x4f
 2484 0230 B9010000 		.4byte	0x1b9
 2485 0234 02       		.byte	0x2
 2486 0235 23       		.byte	0x23
 2487 0236 08       		.uleb128 0x8
 2488 0237 0D       		.uleb128 0xd
 2489 0238 67657400 		.ascii	"get\000"
 2490 023c 07       		.byte	0x7
 2491 023d 4F       		.byte	0x4f
 2492 023e F8000000 		.4byte	0xf8
 2493 0242 02       		.byte	0x2
 2494 0243 23       		.byte	0x23
 2495 0244 0C       		.uleb128 0xc
 2496 0245 0C       		.uleb128 0xc
 2497 0246 7B020000 		.4byte	.LASF25
 2498 024a 07       		.byte	0x7
 2499 024b 4F       		.byte	0x4f
 2500 024c 98020000 		.4byte	0x298
 2501 0250 02       		.byte	0x2
 2502 0251 23       		.byte	0x23
 2503 0252 10       		.uleb128 0x10
 2504 0253 0C       		.uleb128 0xc
 2505 0254 18010000 		.4byte	.LASF26
 2506 0258 07       		.byte	0x7
 2507 0259 4F       		.byte	0x4f
 2508 025a B3020000 		.4byte	0x2b3
 2509 025e 02       		.byte	0x2
 2510 025f 23       		.byte	0x23
 2511 0260 14       		.uleb128 0x14
 2512 0261 0C       		.uleb128 0xc
 2513 0262 54020000 		.4byte	.LASF27
 2514 0266 07       		.byte	0x7
 2515 0267 4F       		.byte	0x4f
 2516 0268 D8020000 		.4byte	0x2d8
 2517 026c 02       		.byte	0x2
 2518 026d 23       		.byte	0x23
 2519 026e 18       		.uleb128 0x18
 2520 026f 0C       		.uleb128 0xc
 2521 0270 6C040000 		.4byte	.LASF28
 2522 0274 07       		.byte	0x7
 2523 0275 4F       		.byte	0x4f
 2524 0276 FD020000 		.4byte	0x2fd
 2525 027a 02       		.byte	0x2
 2526 027b 23       		.byte	0x23
 2527 027c 1C       		.uleb128 0x1c
 2528 027d 00       		.byte	0x0
ARM GAS  C:\Users\DNIEL~1\AppData\Local\Temp\cc7TYfMd.s 			page 47


 2529 027e 09       		.uleb128 0x9
 2530 027f 01       		.byte	0x1
 2531 0280 DD000000 		.4byte	0xdd
 2532 0284 98020000 		.4byte	0x298
 2533 0288 0A       		.uleb128 0xa
 2534 0289 68000000 		.4byte	0x68
 2535 028d 0A       		.uleb128 0xa
 2536 028e 94000000 		.4byte	0x94
 2537 0292 0A       		.uleb128 0xa
 2538 0293 E8000000 		.4byte	0xe8
 2539 0297 00       		.byte	0x0
 2540 0298 05       		.uleb128 0x5
 2541 0299 04       		.byte	0x4
 2542 029a 7E020000 		.4byte	0x27e
 2543 029e 09       		.uleb128 0x9
 2544 029f 01       		.byte	0x1
 2545 02a0 DD000000 		.4byte	0xdd
 2546 02a4 B3020000 		.4byte	0x2b3
 2547 02a8 0A       		.uleb128 0xa
 2548 02a9 68000000 		.4byte	0x68
 2549 02ad 0A       		.uleb128 0xa
 2550 02ae E8000000 		.4byte	0xe8
 2551 02b2 00       		.byte	0x0
 2552 02b3 05       		.uleb128 0x5
 2553 02b4 04       		.byte	0x4
 2554 02b5 9E020000 		.4byte	0x29e
 2555 02b9 09       		.uleb128 0x9
 2556 02ba 01       		.byte	0x1
 2557 02bb 89000000 		.4byte	0x89
 2558 02bf D8020000 		.4byte	0x2d8
 2559 02c3 0A       		.uleb128 0xa
 2560 02c4 68000000 		.4byte	0x68
 2561 02c8 0A       		.uleb128 0xa
 2562 02c9 73010000 		.4byte	0x173
 2563 02cd 0A       		.uleb128 0xa
 2564 02ce 89000000 		.4byte	0x89
 2565 02d2 0A       		.uleb128 0xa
 2566 02d3 E8000000 		.4byte	0xe8
 2567 02d7 00       		.byte	0x0
 2568 02d8 05       		.uleb128 0x5
 2569 02d9 04       		.byte	0x4
 2570 02da B9020000 		.4byte	0x2b9
 2571 02de 09       		.uleb128 0x9
 2572 02df 01       		.byte	0x1
 2573 02e0 89000000 		.4byte	0x89
 2574 02e4 FD020000 		.4byte	0x2fd
 2575 02e8 0A       		.uleb128 0xa
 2576 02e9 68000000 		.4byte	0x68
 2577 02ed 0A       		.uleb128 0xa
 2578 02ee 0E010000 		.4byte	0x10e
 2579 02f2 0A       		.uleb128 0xa
 2580 02f3 89000000 		.4byte	0x89
 2581 02f7 0A       		.uleb128 0xa
 2582 02f8 E8000000 		.4byte	0xe8
 2583 02fc 00       		.byte	0x0
 2584 02fd 05       		.uleb128 0x5
 2585 02fe 04       		.byte	0x4
ARM GAS  C:\Users\DNIEL~1\AppData\Local\Temp\cc7TYfMd.s 			page 48


 2586 02ff DE020000 		.4byte	0x2de
 2587 0303 0E       		.uleb128 0xe
 2588 0304 04       		.byte	0x4
 2589 0305 07       		.byte	0x7
 2590 0306 59       		.byte	0x59
 2591 0307 1A030000 		.4byte	0x31a
 2592 030b 0D       		.uleb128 0xd
 2593 030c 766D7400 		.ascii	"vmt\000"
 2594 0310 07       		.byte	0x7
 2595 0311 5B       		.byte	0x5b
 2596 0312 1A030000 		.4byte	0x31a
 2597 0316 02       		.byte	0x2
 2598 0317 23       		.byte	0x23
 2599 0318 00       		.uleb128 0x0
 2600 0319 00       		.byte	0x0
 2601 031a 05       		.uleb128 0x5
 2602 031b 04       		.byte	0x4
 2603 031c 20030000 		.4byte	0x320
 2604 0320 06       		.uleb128 0x6
 2605 0321 01020000 		.4byte	0x201
 2606 0325 07       		.uleb128 0x7
 2607 0326 72040000 		.4byte	.LASF29
 2608 032a 07       		.byte	0x7
 2609 032b 5D       		.byte	0x5d
 2610 032c 03030000 		.4byte	0x303
 2611 0330 11       		.uleb128 0x11
 2612 0331 60       		.byte	0x60
 2613 0332 08       		.byte	0x8
 2614 0333 9E01     		.2byte	0x19e
 2615 0335 73040000 		.4byte	0x473
 2616 0339 12       		.uleb128 0x12
 2617 033a 43523100 		.ascii	"CR1\000"
 2618 033e 08       		.byte	0x8
 2619 033f 9F01     		.2byte	0x19f
 2620 0341 F3000000 		.4byte	0xf3
 2621 0345 02       		.byte	0x2
 2622 0346 23       		.byte	0x23
 2623 0347 00       		.uleb128 0x0
 2624 0348 12       		.uleb128 0x12
 2625 0349 43523200 		.ascii	"CR2\000"
 2626 034d 08       		.byte	0x8
 2627 034e A001     		.2byte	0x1a0
 2628 0350 F3000000 		.4byte	0xf3
 2629 0354 02       		.byte	0x2
 2630 0355 23       		.byte	0x23
 2631 0356 04       		.uleb128 0x4
 2632 0357 13       		.uleb128 0x13
 2633 0358 97000000 		.4byte	.LASF30
 2634 035c 08       		.byte	0x8
 2635 035d A101     		.2byte	0x1a1
 2636 035f F3000000 		.4byte	0xf3
 2637 0363 02       		.byte	0x2
 2638 0364 23       		.byte	0x23
 2639 0365 08       		.uleb128 0x8
 2640 0366 13       		.uleb128 0x13
 2641 0367 00000000 		.4byte	.LASF31
 2642 036b 08       		.byte	0x8
ARM GAS  C:\Users\DNIEL~1\AppData\Local\Temp\cc7TYfMd.s 			page 49


 2643 036c A201     		.2byte	0x1a2
 2644 036e F3000000 		.4byte	0xf3
 2645 0372 02       		.byte	0x2
 2646 0373 23       		.byte	0x23
 2647 0374 0C       		.uleb128 0xc
 2648 0375 12       		.uleb128 0x12
 2649 0376 535200   		.ascii	"SR\000"
 2650 0379 08       		.byte	0x8
 2651 037a A301     		.2byte	0x1a3
 2652 037c F3000000 		.4byte	0xf3
 2653 0380 02       		.byte	0x2
 2654 0381 23       		.byte	0x23
 2655 0382 10       		.uleb128 0x10
 2656 0383 12       		.uleb128 0x12
 2657 0384 45475200 		.ascii	"EGR\000"
 2658 0388 08       		.byte	0x8
 2659 0389 A401     		.2byte	0x1a4
 2660 038b F3000000 		.4byte	0xf3
 2661 038f 02       		.byte	0x2
 2662 0390 23       		.byte	0x23
 2663 0391 14       		.uleb128 0x14
 2664 0392 13       		.uleb128 0x13
 2665 0393 21040000 		.4byte	.LASF32
 2666 0397 08       		.byte	0x8
 2667 0398 A501     		.2byte	0x1a5
 2668 039a F3000000 		.4byte	0xf3
 2669 039e 02       		.byte	0x2
 2670 039f 23       		.byte	0x23
 2671 03a0 18       		.uleb128 0x18
 2672 03a1 13       		.uleb128 0x13
 2673 03a2 91000000 		.4byte	.LASF33
 2674 03a6 08       		.byte	0x8
 2675 03a7 A601     		.2byte	0x1a6
 2676 03a9 F3000000 		.4byte	0xf3
 2677 03ad 02       		.byte	0x2
 2678 03ae 23       		.byte	0x23
 2679 03af 1C       		.uleb128 0x1c
 2680 03b0 13       		.uleb128 0x13
 2681 03b1 27010000 		.4byte	.LASF34
 2682 03b5 08       		.byte	0x8
 2683 03b6 A701     		.2byte	0x1a7
 2684 03b8 F3000000 		.4byte	0xf3
 2685 03bc 02       		.byte	0x2
 2686 03bd 23       		.byte	0x23
 2687 03be 20       		.uleb128 0x20
 2688 03bf 12       		.uleb128 0x12
 2689 03c0 434E5400 		.ascii	"CNT\000"
 2690 03c4 08       		.byte	0x8
 2691 03c5 A801     		.2byte	0x1a8
 2692 03c7 F3000000 		.4byte	0xf3
 2693 03cb 02       		.byte	0x2
 2694 03cc 23       		.byte	0x23
 2695 03cd 24       		.uleb128 0x24
 2696 03ce 12       		.uleb128 0x12
 2697 03cf 50534300 		.ascii	"PSC\000"
 2698 03d3 08       		.byte	0x8
 2699 03d4 A901     		.2byte	0x1a9
ARM GAS  C:\Users\DNIEL~1\AppData\Local\Temp\cc7TYfMd.s 			page 50


 2700 03d6 F3000000 		.4byte	0xf3
 2701 03da 02       		.byte	0x2
 2702 03db 23       		.byte	0x23
 2703 03dc 28       		.uleb128 0x28
 2704 03dd 12       		.uleb128 0x12
 2705 03de 41525200 		.ascii	"ARR\000"
 2706 03e2 08       		.byte	0x8
 2707 03e3 AA01     		.2byte	0x1aa
 2708 03e5 F3000000 		.4byte	0xf3
 2709 03e9 02       		.byte	0x2
 2710 03ea 23       		.byte	0x23
 2711 03eb 2C       		.uleb128 0x2c
 2712 03ec 12       		.uleb128 0x12
 2713 03ed 52435200 		.ascii	"RCR\000"
 2714 03f1 08       		.byte	0x8
 2715 03f2 AB01     		.2byte	0x1ab
 2716 03f4 F3000000 		.4byte	0xf3
 2717 03f8 02       		.byte	0x2
 2718 03f9 23       		.byte	0x23
 2719 03fa 30       		.uleb128 0x30
 2720 03fb 12       		.uleb128 0x12
 2721 03fc 43435200 		.ascii	"CCR\000"
 2722 0400 08       		.byte	0x8
 2723 0401 AC01     		.2byte	0x1ac
 2724 0403 73040000 		.4byte	0x473
 2725 0407 02       		.byte	0x2
 2726 0408 23       		.byte	0x23
 2727 0409 34       		.uleb128 0x34
 2728 040a 13       		.uleb128 0x13
 2729 040b 70000000 		.4byte	.LASF35
 2730 040f 08       		.byte	0x8
 2731 0410 AD01     		.2byte	0x1ad
 2732 0412 F3000000 		.4byte	0xf3
 2733 0416 02       		.byte	0x2
 2734 0417 23       		.byte	0x23
 2735 0418 44       		.uleb128 0x44
 2736 0419 12       		.uleb128 0x12
 2737 041a 44435200 		.ascii	"DCR\000"
 2738 041e 08       		.byte	0x8
 2739 041f AE01     		.2byte	0x1ae
 2740 0421 F3000000 		.4byte	0xf3
 2741 0425 02       		.byte	0x2
 2742 0426 23       		.byte	0x23
 2743 0427 48       		.uleb128 0x48
 2744 0428 13       		.uleb128 0x13
 2745 0429 D4020000 		.4byte	.LASF36
 2746 042d 08       		.byte	0x8
 2747 042e AF01     		.2byte	0x1af
 2748 0430 F3000000 		.4byte	0xf3
 2749 0434 02       		.byte	0x2
 2750 0435 23       		.byte	0x23
 2751 0436 4C       		.uleb128 0x4c
 2752 0437 12       		.uleb128 0x12
 2753 0438 4F5200   		.ascii	"OR\000"
 2754 043b 08       		.byte	0x8
 2755 043c B001     		.2byte	0x1b0
 2756 043e F3000000 		.4byte	0xf3
ARM GAS  C:\Users\DNIEL~1\AppData\Local\Temp\cc7TYfMd.s 			page 51


 2757 0442 02       		.byte	0x2
 2758 0443 23       		.byte	0x23
 2759 0444 50       		.uleb128 0x50
 2760 0445 13       		.uleb128 0x13
 2761 0446 22000000 		.4byte	.LASF37
 2762 044a 08       		.byte	0x8
 2763 044b B101     		.2byte	0x1b1
 2764 044d F3000000 		.4byte	0xf3
 2765 0451 02       		.byte	0x2
 2766 0452 23       		.byte	0x23
 2767 0453 54       		.uleb128 0x54
 2768 0454 13       		.uleb128 0x13
 2769 0455 4E040000 		.4byte	.LASF38
 2770 0459 08       		.byte	0x8
 2771 045a B201     		.2byte	0x1b2
 2772 045c F3000000 		.4byte	0xf3
 2773 0460 02       		.byte	0x2
 2774 0461 23       		.byte	0x23
 2775 0462 58       		.uleb128 0x58
 2776 0463 13       		.uleb128 0x13
 2777 0464 5E000000 		.4byte	.LASF39
 2778 0468 08       		.byte	0x8
 2779 0469 B301     		.2byte	0x1b3
 2780 046b F3000000 		.4byte	0xf3
 2781 046f 02       		.byte	0x2
 2782 0470 23       		.byte	0x23
 2783 0471 5C       		.uleb128 0x5c
 2784 0472 00       		.byte	0x0
 2785 0473 08       		.uleb128 0x8
 2786 0474 EC010000 		.4byte	0x1ec
 2787 0478 14       		.uleb128 0x14
 2788 0479 A8000000 		.4byte	.LASF40
 2789 047d 08       		.byte	0x8
 2790 047e B401     		.2byte	0x1b4
 2791 0480 30030000 		.4byte	0x330
 2792 0484 05       		.uleb128 0x5
 2793 0485 04       		.byte	0x4
 2794 0486 78040000 		.4byte	0x478
 2795 048a 15       		.uleb128 0x15
 2796 048b 01       		.byte	0x1
 2797 048c 09       		.byte	0x9
 2798 048d 55       		.byte	0x55
 2799 048e A5040000 		.4byte	0x4a5
 2800 0492 16       		.uleb128 0x16
 2801 0493 FD040000 		.4byte	.LASF41
 2802 0497 00       		.sleb128 0
 2803 0498 16       		.uleb128 0x16
 2804 0499 B1030000 		.4byte	.LASF42
 2805 049d 01       		.sleb128 1
 2806 049e 16       		.uleb128 0x16
 2807 049f 7F000000 		.4byte	.LASF43
 2808 04a3 02       		.sleb128 2
 2809 04a4 00       		.byte	0x0
 2810 04a5 07       		.uleb128 0x7
 2811 04a6 7E040000 		.4byte	.LASF44
 2812 04aa 09       		.byte	0x9
 2813 04ab 59       		.byte	0x59
ARM GAS  C:\Users\DNIEL~1\AppData\Local\Temp\cc7TYfMd.s 			page 52


 2814 04ac 8A040000 		.4byte	0x48a
 2815 04b0 07       		.uleb128 0x7
 2816 04b1 62040000 		.4byte	.LASF45
 2817 04b5 09       		.byte	0x9
 2818 04b6 5E       		.byte	0x5e
 2819 04b7 BB040000 		.4byte	0x4bb
 2820 04bb 17       		.uleb128 0x17
 2821 04bc 62040000 		.4byte	.LASF45
 2822 04c0 14       		.byte	0x14
 2823 04c1 0A       		.byte	0xa
 2824 04c2 6F01     		.2byte	0x16f
 2825 04c4 14050000 		.4byte	0x514
 2826 04c8 13       		.uleb128 0x13
 2827 04c9 FD000000 		.4byte	.LASF46
 2828 04cd 0A       		.byte	0xa
 2829 04ce 7301     		.2byte	0x173
 2830 04d0 A5040000 		.4byte	0x4a5
 2831 04d4 02       		.byte	0x2
 2832 04d5 23       		.byte	0x23
 2833 04d6 00       		.uleb128 0x0
 2834 04d7 13       		.uleb128 0x13
 2835 04d8 D3030000 		.4byte	.LASF47
 2836 04dc 0A       		.byte	0xa
 2837 04dd 7701     		.2byte	0x177
 2838 04df 03060000 		.4byte	0x603
 2839 04e3 02       		.byte	0x2
 2840 04e4 23       		.byte	0x23
 2841 04e5 04       		.uleb128 0x4
 2842 04e6 13       		.uleb128 0x13
 2843 04e7 31000000 		.4byte	.LASF48
 2844 04eb 0A       		.byte	0xa
 2845 04ec 7B01     		.2byte	0x17b
 2846 04ee 43050000 		.4byte	0x543
 2847 04f2 02       		.byte	0x2
 2848 04f3 23       		.byte	0x23
 2849 04f4 08       		.uleb128 0x8
 2850 04f5 13       		.uleb128 0x13
 2851 04f6 C6040000 		.4byte	.LASF49
 2852 04fa 0A       		.byte	0xa
 2853 04fb 8301     		.2byte	0x183
 2854 04fd C0000000 		.4byte	0xc0
 2855 0501 02       		.byte	0x2
 2856 0502 23       		.byte	0x23
 2857 0503 0C       		.uleb128 0xc
 2858 0504 12       		.uleb128 0x12
 2859 0505 74696D00 		.ascii	"tim\000"
 2860 0509 0A       		.byte	0xa
 2861 050a 8701     		.2byte	0x187
 2862 050c 84040000 		.4byte	0x484
 2863 0510 02       		.byte	0x2
 2864 0511 23       		.byte	0x23
 2865 0512 10       		.uleb128 0x10
 2866 0513 00       		.byte	0x0
 2867 0514 07       		.uleb128 0x7
 2868 0515 EC020000 		.4byte	.LASF50
 2869 0519 09       		.byte	0x9
 2870 051a 65       		.byte	0x65
ARM GAS  C:\Users\DNIEL~1\AppData\Local\Temp\cc7TYfMd.s 			page 53


 2871 051b 1F050000 		.4byte	0x51f
 2872 051f 05       		.uleb128 0x5
 2873 0520 04       		.byte	0x4
 2874 0521 25050000 		.4byte	0x525
 2875 0525 18       		.uleb128 0x18
 2876 0526 01       		.byte	0x1
 2877 0527 31050000 		.4byte	0x531
 2878 052b 0A       		.uleb128 0xa
 2879 052c 31050000 		.4byte	0x531
 2880 0530 00       		.byte	0x0
 2881 0531 05       		.uleb128 0x5
 2882 0532 04       		.byte	0x4
 2883 0533 B0040000 		.4byte	0x4b0
 2884 0537 14       		.uleb128 0x14
 2885 0538 E9010000 		.4byte	.LASF51
 2886 053c 0A       		.byte	0xa
 2887 053d 2001     		.2byte	0x120
 2888 053f C0000000 		.4byte	0xc0
 2889 0543 14       		.uleb128 0x14
 2890 0544 89040000 		.4byte	.LASF52
 2891 0548 0A       		.byte	0xa
 2892 0549 2A01     		.2byte	0x12a
 2893 054b AA000000 		.4byte	0xaa
 2894 054f 11       		.uleb128 0x11
 2895 0550 08       		.byte	0x8
 2896 0551 0A       		.byte	0xa
 2897 0552 2F01     		.2byte	0x12f
 2898 0554 77050000 		.4byte	0x577
 2899 0558 13       		.uleb128 0x13
 2900 0559 BF030000 		.4byte	.LASF53
 2901 055d 0A       		.byte	0xa
 2902 055e 3301     		.2byte	0x133
 2903 0560 37050000 		.4byte	0x537
 2904 0564 02       		.byte	0x2
 2905 0565 23       		.byte	0x23
 2906 0566 00       		.uleb128 0x0
 2907 0567 13       		.uleb128 0x13
 2908 0568 4B020000 		.4byte	.LASF54
 2909 056c 0A       		.byte	0xa
 2910 056d 3901     		.2byte	0x139
 2911 056f 14050000 		.4byte	0x514
 2912 0573 02       		.byte	0x2
 2913 0574 23       		.byte	0x23
 2914 0575 04       		.uleb128 0x4
 2915 0576 00       		.byte	0x0
 2916 0577 14       		.uleb128 0x14
 2917 0578 3D040000 		.4byte	.LASF55
 2918 057c 0A       		.byte	0xa
 2919 057d 3B01     		.2byte	0x13b
 2920 057f 4F050000 		.4byte	0x54f
 2921 0583 11       		.uleb128 0x11
 2922 0584 34       		.byte	0x34
 2923 0585 0A       		.byte	0xa
 2924 0586 4001     		.2byte	0x140
 2925 0588 E7050000 		.4byte	0x5e7
 2926 058c 13       		.uleb128 0x13
 2927 058d 75000000 		.4byte	.LASF56
ARM GAS  C:\Users\DNIEL~1\AppData\Local\Temp\cc7TYfMd.s 			page 54


 2928 0591 0A       		.byte	0xa
 2929 0592 4601     		.2byte	0x146
 2930 0594 C0000000 		.4byte	0xc0
 2931 0598 02       		.byte	0x2
 2932 0599 23       		.byte	0x23
 2933 059a 00       		.uleb128 0x0
 2934 059b 13       		.uleb128 0x13
 2935 059c 31000000 		.4byte	.LASF48
 2936 05a0 0A       		.byte	0xa
 2937 05a1 4C01     		.2byte	0x14c
 2938 05a3 43050000 		.4byte	0x543
 2939 05a7 02       		.byte	0x2
 2940 05a8 23       		.byte	0x23
 2941 05a9 04       		.uleb128 0x4
 2942 05aa 13       		.uleb128 0x13
 2943 05ab 4B020000 		.4byte	.LASF54
 2944 05af 0A       		.byte	0xa
 2945 05b0 5201     		.2byte	0x152
 2946 05b2 14050000 		.4byte	0x514
 2947 05b6 02       		.byte	0x2
 2948 05b7 23       		.byte	0x23
 2949 05b8 08       		.uleb128 0x8
 2950 05b9 13       		.uleb128 0x13
 2951 05ba 03010000 		.4byte	.LASF57
 2952 05be 0A       		.byte	0xa
 2953 05bf 5601     		.2byte	0x156
 2954 05c1 E7050000 		.4byte	0x5e7
 2955 05c5 02       		.byte	0x2
 2956 05c6 23       		.byte	0x23
 2957 05c7 0C       		.uleb128 0xc
 2958 05c8 12       		.uleb128 0x12
 2959 05c9 63723200 		.ascii	"cr2\000"
 2960 05cd 0A       		.byte	0xa
 2961 05ce 5C01     		.2byte	0x15c
 2962 05d0 C0000000 		.4byte	0xc0
 2963 05d4 02       		.byte	0x2
 2964 05d5 23       		.byte	0x23
 2965 05d6 2C       		.uleb128 0x2c
 2966 05d7 13       		.uleb128 0x13
 2967 05d8 0F050000 		.4byte	.LASF58
 2968 05dc 0A       		.byte	0xa
 2969 05dd 6901     		.2byte	0x169
 2970 05df C0000000 		.4byte	0xc0
 2971 05e3 02       		.byte	0x2
 2972 05e4 23       		.byte	0x23
 2973 05e5 30       		.uleb128 0x30
 2974 05e6 00       		.byte	0x0
 2975 05e7 0F       		.uleb128 0xf
 2976 05e8 77050000 		.4byte	0x577
 2977 05ec F7050000 		.4byte	0x5f7
 2978 05f0 10       		.uleb128 0x10
 2979 05f1 4C000000 		.4byte	0x4c
 2980 05f5 03       		.byte	0x3
 2981 05f6 00       		.byte	0x0
 2982 05f7 14       		.uleb128 0x14
 2983 05f8 A7030000 		.4byte	.LASF59
 2984 05fc 0A       		.byte	0xa
ARM GAS  C:\Users\DNIEL~1\AppData\Local\Temp\cc7TYfMd.s 			page 55


 2985 05fd 6A01     		.2byte	0x16a
 2986 05ff 83050000 		.4byte	0x583
 2987 0603 05       		.uleb128 0x5
 2988 0604 04       		.byte	0x4
 2989 0605 09060000 		.4byte	0x609
 2990 0609 06       		.uleb128 0x6
 2991 060a F7050000 		.4byte	0x5f7
 2992 060e 07       		.uleb128 0x7
 2993 060f 9E020000 		.4byte	.LASF60
 2994 0613 0B       		.byte	0xb
 2995 0614 28       		.byte	0x28
 2996 0615 19060000 		.4byte	0x619
 2997 0619 0B       		.uleb128 0xb
 2998 061a 1D010000 		.4byte	.LASF61
 2999 061e 04       		.byte	0x4
 3000 061f 0C       		.byte	0xc
 3001 0620 00       		.byte	0x0
 3002 0621 33060000 		.4byte	0x633
 3003 0625 19       		.uleb128 0x19
 3004 0626 1C040000 		.4byte	.LASF121
 3005 062a 68000000 		.4byte	0x68
 3006 062e 02       		.byte	0x2
 3007 062f 23       		.byte	0x23
 3008 0630 00       		.uleb128 0x0
 3009 0631 01       		.byte	0x1
 3010 0632 00       		.byte	0x0
 3011 0633 07       		.uleb128 0x7
 3012 0634 63010000 		.4byte	.LASF62
 3013 0638 0B       		.byte	0xb
 3014 0639 66       		.byte	0x66
 3015 063a 0E060000 		.4byte	0x60e
 3016 063e 1A       		.uleb128 0x1a
 3017 063f FA020000 		.4byte	.LASF72
 3018 0643 01       		.byte	0x1
 3019 0644 0D       		.byte	0xd
 3020 0645 06       		.byte	0x6
 3021 0646 69060000 		.4byte	0x669
 3022 064a 16       		.uleb128 0x16
 3023 064b DA030000 		.4byte	.LASF63
 3024 064f 00       		.sleb128 0
 3025 0650 16       		.uleb128 0x16
 3026 0651 2E030000 		.4byte	.LASF64
 3027 0655 01       		.sleb128 1
 3028 0656 16       		.uleb128 0x16
 3029 0657 43010000 		.4byte	.LASF65
 3030 065b 02       		.sleb128 2
 3031 065c 16       		.uleb128 0x16
 3032 065d A4010000 		.4byte	.LASF66
 3033 0661 03       		.sleb128 3
 3034 0662 16       		.uleb128 0x16
 3035 0663 B2020000 		.4byte	.LASF67
 3036 0667 04       		.sleb128 4
 3037 0668 00       		.byte	0x0
 3038 0669 0B       		.uleb128 0xb
 3039 066a 80020000 		.4byte	.LASF68
 3040 066e 06       		.byte	0x6
 3041 066f 0D       		.byte	0xd
ARM GAS  C:\Users\DNIEL~1\AppData\Local\Temp\cc7TYfMd.s 			page 56


 3042 0670 0F       		.byte	0xf
 3043 0671 AD060000 		.4byte	0x6ad
 3044 0675 0D       		.uleb128 0xd
 3045 0676 696400   		.ascii	"id\000"
 3046 0679 0D       		.byte	0xd
 3047 067a 11       		.byte	0x11
 3048 067b 94000000 		.4byte	0x94
 3049 067f 02       		.byte	0x2
 3050 0680 23       		.byte	0x23
 3051 0681 00       		.uleb128 0x0
 3052 0682 0C       		.uleb128 0xc
 3053 0683 96020000 		.4byte	.LASF69
 3054 0687 0D       		.byte	0xd
 3055 0688 12       		.byte	0x12
 3056 0689 AA000000 		.4byte	0xaa
 3057 068d 02       		.byte	0x2
 3058 068e 23       		.byte	0x23
 3059 068f 02       		.uleb128 0x2
 3060 0690 0C       		.uleb128 0xc
 3061 0691 0E020000 		.4byte	.LASF70
 3062 0695 0D       		.byte	0xd
 3063 0696 13       		.byte	0x13
 3064 0697 94000000 		.4byte	0x94
 3065 069b 02       		.byte	0x2
 3066 069c 23       		.byte	0x23
 3067 069d 04       		.uleb128 0x4
 3068 069e 0C       		.uleb128 0xc
 3069 069f FD010000 		.4byte	.LASF71
 3070 06a3 0D       		.byte	0xd
 3071 06a4 14       		.byte	0x14
 3072 06a5 3E060000 		.4byte	0x63e
 3073 06a9 02       		.byte	0x2
 3074 06aa 23       		.byte	0x23
 3075 06ab 05       		.uleb128 0x5
 3076 06ac 00       		.byte	0x0
 3077 06ad 1A       		.uleb128 0x1a
 3078 06ae EA030000 		.4byte	.LASF73
 3079 06b2 01       		.byte	0x1
 3080 06b3 0E       		.byte	0xe
 3081 06b4 18       		.byte	0x18
 3082 06b5 CC060000 		.4byte	0x6cc
 3083 06b9 16       		.uleb128 0x16
 3084 06ba 0C010000 		.4byte	.LASF74
 3085 06be 00       		.sleb128 0
 3086 06bf 16       		.uleb128 0x16
 3087 06c0 CC040000 		.4byte	.LASF75
 3088 06c4 01       		.sleb128 1
 3089 06c5 16       		.uleb128 0x16
 3090 06c6 0F040000 		.4byte	.LASF76
 3091 06ca 02       		.sleb128 2
 3092 06cb 00       		.byte	0x0
 3093 06cc 1B       		.uleb128 0x1b
 3094 06cd 01       		.byte	0x1
 3095 06ce 56010000 		.4byte	.LASF77
 3096 06d2 02       		.byte	0x2
 3097 06d3 B8       		.byte	0xb8
 3098 06d4 01       		.byte	0x1
ARM GAS  C:\Users\DNIEL~1\AppData\Local\Temp\cc7TYfMd.s 			page 57


 3099 06d5 01       		.byte	0x1
 3100 06d6 1B       		.uleb128 0x1b
 3101 06d7 01       		.byte	0x1
 3102 06d8 67020000 		.4byte	.LASF78
 3103 06dc 02       		.byte	0x2
 3104 06dd BD       		.byte	0xbd
 3105 06de 01       		.byte	0x1
 3106 06df 01       		.byte	0x1
 3107 06e0 1C       		.uleb128 0x1c
 3108 06e1 14050000 		.4byte	.LASF122
 3109 06e5 01       		.byte	0x1
 3110 06e6 45       		.byte	0x45
 3111 06e7 01       		.byte	0x1
 3112 06e8 00000000 		.4byte	.LFB118
 3113 06ec 1E000000 		.4byte	.LFE118
 3114 06f0 00000000 		.4byte	.LLST0
 3115 06f4 24070000 		.4byte	0x724
 3116 06f8 1D       		.uleb128 0x1d
 3117 06f9 63687000 		.ascii	"chp\000"
 3118 06fd 01       		.byte	0x1
 3119 06fe 45       		.byte	0x45
 3120 06ff 24070000 		.4byte	0x724
 3121 0703 38000000 		.4byte	.LLST1
 3122 0707 1E       		.uleb128 0x1e
 3123 0708 666D7400 		.ascii	"fmt\000"
 3124 070c 01       		.byte	0x1
 3125 070d 45       		.byte	0x45
 3126 070e 7E000000 		.4byte	0x7e
 3127 0712 02       		.byte	0x2
 3128 0713 91       		.byte	0x91
 3129 0714 74       		.sleb128 -12
 3130 0715 1F       		.uleb128 0x1f
 3131 0716 20       		.uleb128 0x20
 3132 0717 617000   		.ascii	"ap\000"
 3133 071a 01       		.byte	0x1
 3134 071b 46       		.byte	0x46
 3135 071c 33060000 		.4byte	0x633
 3136 0720 02       		.byte	0x2
 3137 0721 91       		.byte	0x91
 3138 0722 6C       		.sleb128 -20
 3139 0723 00       		.byte	0x0
 3140 0724 05       		.uleb128 0x5
 3141 0725 04       		.byte	0x4
 3142 0726 E1010000 		.4byte	0x1e1
 3143 072a 21       		.uleb128 0x21
 3144 072b 01       		.byte	0x1
 3145 072c 40030000 		.4byte	.LASF123
 3146 0730 02       		.byte	0x2
 3147 0731 40       		.byte	0x40
 3148 0732 01       		.byte	0x1
 3149 0733 00000000 		.4byte	.LFB119
 3150 0737 EC000000 		.4byte	.LFE119
 3151 073b 4B000000 		.4byte	.LLST2
 3152 073f 22       		.uleb128 0x22
 3153 0740 CC060000 		.4byte	0x6cc
 3154 0744 00000000 		.4byte	.LFB121
 3155 0748 18000000 		.4byte	.LFE121
ARM GAS  C:\Users\DNIEL~1\AppData\Local\Temp\cc7TYfMd.s 			page 58


 3156 074c 02       		.byte	0x2
 3157 074d 7D       		.byte	0x7d
 3158 074e 00       		.sleb128 0
 3159 074f 22       		.uleb128 0x22
 3160 0750 D6060000 		.4byte	0x6d6
 3161 0754 00000000 		.4byte	.LFB122
 3162 0758 0C000000 		.4byte	.LFE122
 3163 075c 02       		.byte	0x2
 3164 075d 7D       		.byte	0x7d
 3165 075e 00       		.sleb128 0
 3166 075f 23       		.uleb128 0x23
 3167 0760 01       		.byte	0x1
 3168 0761 A3040000 		.4byte	.LASF79
 3169 0765 02       		.byte	0x2
 3170 0766 C1       		.byte	0xc1
 3171 0767 01       		.byte	0x1
 3172 0768 CB000000 		.4byte	0xcb
 3173 076c 00000000 		.4byte	.LFB123
 3174 0770 0C000000 		.4byte	.LFE123
 3175 0774 02       		.byte	0x2
 3176 0775 7D       		.byte	0x7d
 3177 0776 00       		.sleb128 0
 3178 0777 23       		.uleb128 0x23
 3179 0778 01       		.byte	0x1
 3180 0779 7E030000 		.4byte	.LASF80
 3181 077d 02       		.byte	0x2
 3182 077e C5       		.byte	0xc5
 3183 077f 01       		.byte	0x1
 3184 0780 CB000000 		.4byte	0xcb
 3185 0784 00000000 		.4byte	.LFB124
 3186 0788 0C000000 		.4byte	.LFE124
 3187 078c 02       		.byte	0x2
 3188 078d 7D       		.byte	0x7d
 3189 078e 00       		.sleb128 0
 3190 078f 24       		.uleb128 0x24
 3191 0790 01       		.byte	0x1
 3192 0791 C4030000 		.4byte	.LASF82
 3193 0795 02       		.byte	0x2
 3194 0796 C9       		.byte	0xc9
 3195 0797 01       		.byte	0x1
 3196 0798 00000000 		.4byte	.LFB125
 3197 079c 54000000 		.4byte	.LFE125
 3198 07a0 6B000000 		.4byte	.LLST3
 3199 07a4 B8070000 		.4byte	0x7b8
 3200 07a8 1D       		.uleb128 0x1d
 3201 07a9 72706D00 		.ascii	"rpm\000"
 3202 07ad 02       		.byte	0x2
 3203 07ae C9       		.byte	0xc9
 3204 07af B8070000 		.4byte	0x7b8
 3205 07b3 8B000000 		.4byte	.LLST4
 3206 07b7 00       		.byte	0x0
 3207 07b8 02       		.uleb128 0x2
 3208 07b9 08       		.byte	0x8
 3209 07ba 04       		.byte	0x4
 3210 07bb 08050000 		.4byte	.LASF81
 3211 07bf 24       		.uleb128 0x24
 3212 07c0 01       		.byte	0x1
ARM GAS  C:\Users\DNIEL~1\AppData\Local\Temp\cc7TYfMd.s 			page 59


 3213 07c1 97030000 		.4byte	.LASF83
 3214 07c5 02       		.byte	0x2
 3215 07c6 CD       		.byte	0xcd
 3216 07c7 01       		.byte	0x1
 3217 07c8 00000000 		.4byte	.LFB126
 3218 07cc 2C000000 		.4byte	.LFE126
 3219 07d0 A3000000 		.4byte	.LLST5
 3220 07d4 E8070000 		.4byte	0x7e8
 3221 07d8 1D       		.uleb128 0x1d
 3222 07d9 72706D00 		.ascii	"rpm\000"
 3223 07dd 02       		.byte	0x2
 3224 07de CD       		.byte	0xcd
 3225 07df B8070000 		.4byte	0x7b8
 3226 07e3 C3000000 		.4byte	.LLST6
 3227 07e7 00       		.byte	0x0
 3228 07e8 25       		.uleb128 0x25
 3229 07e9 01       		.byte	0x1
 3230 07ea F3010000 		.4byte	.LASF84
 3231 07ee 02       		.byte	0x2
 3232 07ef D2       		.byte	0xd2
 3233 07f0 01       		.byte	0x1
 3234 07f1 94000000 		.4byte	0x94
 3235 07f5 00000000 		.4byte	.LFB127
 3236 07f9 18000000 		.4byte	.LFE127
 3237 07fd DB000000 		.4byte	.LLST7
 3238 0801 26       		.uleb128 0x26
 3239 0802 01       		.byte	0x1
 3240 0803 F3040000 		.4byte	.LASF124
 3241 0807 02       		.byte	0x2
 3242 0808 D6       		.byte	0xd6
 3243 0809 01       		.byte	0x1
 3244 080a B5000000 		.4byte	0xb5
 3245 080e 00000000 		.4byte	.LFB128
 3246 0812 A4010000 		.4byte	.LFE128
 3247 0816 FB000000 		.4byte	.LLST8
 3248 081a AC080000 		.4byte	0x8ac
 3249 081e 27       		.uleb128 0x27
 3250 081f E6020000 		.4byte	.LASF85
 3251 0823 02       		.byte	0x2
 3252 0824 D6       		.byte	0xd6
 3253 0825 9F000000 		.4byte	0x9f
 3254 0829 28010000 		.4byte	.LLST9
 3255 082d 1D       		.uleb128 0x1d
 3256 082e 53657400 		.ascii	"Set\000"
 3257 0832 02       		.byte	0x2
 3258 0833 D6       		.byte	0xd6
 3259 0834 9F000000 		.4byte	0x9f
 3260 0838 3B010000 		.4byte	.LLST10
 3261 083c 27       		.uleb128 0x27
 3262 083d C3020000 		.4byte	.LASF86
 3263 0841 02       		.byte	0x2
 3264 0842 D6       		.byte	0xd6
 3265 0843 B5000000 		.4byte	0xb5
 3266 0847 4E010000 		.4byte	.LLST11
 3267 084b 27       		.uleb128 0x27
 3268 084c 3B030000 		.4byte	.LASF87
 3269 0850 02       		.byte	0x2
ARM GAS  C:\Users\DNIEL~1\AppData\Local\Temp\cc7TYfMd.s 			page 60


 3270 0851 D6       		.byte	0xd6
 3271 0852 B5000000 		.4byte	0xb5
 3272 0856 6C010000 		.4byte	.LLST12
 3273 085a 1E       		.uleb128 0x1e
 3274 085b 4B7000   		.ascii	"Kp\000"
 3275 085e 02       		.byte	0x2
 3276 085f D6       		.byte	0xd6
 3277 0860 B8070000 		.4byte	0x7b8
 3278 0864 02       		.byte	0x2
 3279 0865 91       		.byte	0x91
 3280 0866 00       		.sleb128 0
 3281 0867 1E       		.uleb128 0x1e
 3282 0868 4B6900   		.ascii	"Ki\000"
 3283 086b 02       		.byte	0x2
 3284 086c D6       		.byte	0xd6
 3285 086d B8070000 		.4byte	0x7b8
 3286 0871 02       		.byte	0x2
 3287 0872 91       		.byte	0x91
 3288 0873 08       		.sleb128 8
 3289 0874 1E       		.uleb128 0x1e
 3290 0875 4B6400   		.ascii	"Kd\000"
 3291 0878 02       		.byte	0x2
 3292 0879 D6       		.byte	0xd6
 3293 087a B8070000 		.4byte	0x7b8
 3294 087e 02       		.byte	0x2
 3295 087f 91       		.byte	0x91
 3296 0880 10       		.sleb128 16
 3297 0881 28       		.uleb128 0x28
 3298 0882 AD020000 		.4byte	.LASF88
 3299 0886 02       		.byte	0x2
 3300 0887 D6       		.byte	0xd6
 3301 0888 B5000000 		.4byte	0xb5
 3302 088c 02       		.byte	0x2
 3303 088d 91       		.byte	0x91
 3304 088e 18       		.sleb128 24
 3305 088f 28       		.uleb128 0x28
 3306 0890 26020000 		.4byte	.LASF89
 3307 0894 02       		.byte	0x2
 3308 0895 D6       		.byte	0xd6
 3309 0896 B5000000 		.4byte	0xb5
 3310 089a 02       		.byte	0x2
 3311 089b 91       		.byte	0x91
 3312 089c 1C       		.sleb128 28
 3313 089d 28       		.uleb128 0x28
 3314 089e 8B020000 		.4byte	.LASF90
 3315 08a2 02       		.byte	0x2
 3316 08a3 D6       		.byte	0xd6
 3317 08a4 B5000000 		.4byte	0xb5
 3318 08a8 02       		.byte	0x2
 3319 08a9 91       		.byte	0x91
 3320 08aa 20       		.sleb128 32
 3321 08ab 00       		.byte	0x0
 3322 08ac 24       		.uleb128 0x24
 3323 08ad 01       		.byte	0x1
 3324 08ae 0C000000 		.4byte	.LASF91
 3325 08b2 02       		.byte	0x2
 3326 08b3 64       		.byte	0x64
ARM GAS  C:\Users\DNIEL~1\AppData\Local\Temp\cc7TYfMd.s 			page 61


 3327 08b4 01       		.byte	0x1
 3328 08b5 00000000 		.4byte	.LFB120
 3329 08b9 10020000 		.4byte	.LFE120
 3330 08bd 8B010000 		.4byte	.LLST13
 3331 08c1 F8080000 		.4byte	0x8f8
 3332 08c5 29       		.uleb128 0x29
 3333 08c6 00000000 		.4byte	.Ldebug_ranges0+0x0
 3334 08ca DE080000 		.4byte	0x8de
 3335 08ce 2A       		.uleb128 0x2a
 3336 08cf 01       		.byte	0x1
 3337 08d0 BB000000 		.4byte	.LASF92
 3338 08d4 02       		.byte	0x2
 3339 08d5 9A       		.byte	0x9a
 3340 08d6 45000000 		.4byte	0x45
 3341 08da 01       		.byte	0x1
 3342 08db 1F       		.uleb128 0x1f
 3343 08dc 00       		.byte	0x0
 3344 08dd 00       		.byte	0x0
 3345 08de 2B       		.uleb128 0x2b
 3346 08df B4000000 		.4byte	.LBB12
 3347 08e3 6C010000 		.4byte	.LBE12
 3348 08e7 2A       		.uleb128 0x2a
 3349 08e8 01       		.byte	0x1
 3350 08e9 BB000000 		.4byte	.LASF92
 3351 08ed 02       		.byte	0x2
 3352 08ee 9A       		.byte	0x9a
 3353 08ef 45000000 		.4byte	0x45
 3354 08f3 01       		.byte	0x1
 3355 08f4 1F       		.uleb128 0x1f
 3356 08f5 00       		.byte	0x0
 3357 08f6 00       		.byte	0x0
 3358 08f7 00       		.byte	0x0
 3359 08f8 2C       		.uleb128 0x2c
 3360 08f9 01       		.byte	0x1
 3361 08fa 6D030000 		.4byte	.LASF93
 3362 08fe 02       		.byte	0x2
 3363 08ff 0601     		.2byte	0x106
 3364 0901 01       		.byte	0x1
 3365 0902 00000000 		.4byte	.LFB129
 3366 0906 5C010000 		.4byte	.LFE129
 3367 090a B8010000 		.4byte	.LLST14
 3368 090e 43090000 		.4byte	0x943
 3369 0912 2D       		.uleb128 0x2d
 3370 0913 63687000 		.ascii	"chp\000"
 3371 0917 02       		.byte	0x2
 3372 0918 0601     		.2byte	0x106
 3373 091a 24070000 		.4byte	0x724
 3374 091e D8010000 		.4byte	.LLST15
 3375 0922 2E       		.uleb128 0x2e
 3376 0923 B0040000 		.4byte	.LASF94
 3377 0927 02       		.byte	0x2
 3378 0928 0601     		.2byte	0x106
 3379 092a 45000000 		.4byte	0x45
 3380 092e F6010000 		.4byte	.LLST16
 3381 0932 2E       		.uleb128 0x2e
 3382 0933 EE040000 		.4byte	.LASF95
 3383 0937 02       		.byte	0x2
ARM GAS  C:\Users\DNIEL~1\AppData\Local\Temp\cc7TYfMd.s 			page 62


 3384 0938 0601     		.2byte	0x106
 3385 093a 43090000 		.4byte	0x943
 3386 093e 09020000 		.4byte	.LLST17
 3387 0942 00       		.byte	0x0
 3388 0943 05       		.uleb128 0x5
 3389 0944 04       		.byte	0x4
 3390 0945 71000000 		.4byte	0x71
 3391 0949 2C       		.uleb128 0x2c
 3392 094a 01       		.byte	0x1
 3393 094b 2B020000 		.4byte	.LASF96
 3394 094f 02       		.byte	0x2
 3395 0950 1F01     		.2byte	0x11f
 3396 0952 01       		.byte	0x1
 3397 0953 00000000 		.4byte	.LFB130
 3398 0957 0C020000 		.4byte	.LFE130
 3399 095b 1C020000 		.4byte	.LLST18
 3400 095f D0090000 		.4byte	0x9d0
 3401 0963 2D       		.uleb128 0x2d
 3402 0964 63687000 		.ascii	"chp\000"
 3403 0968 02       		.byte	0x2
 3404 0969 1F01     		.2byte	0x11f
 3405 096b 24070000 		.4byte	0x724
 3406 096f 3C020000 		.4byte	.LLST19
 3407 0973 2E       		.uleb128 0x2e
 3408 0974 B0040000 		.4byte	.LASF94
 3409 0978 02       		.byte	0x2
 3410 0979 1F01     		.2byte	0x11f
 3411 097b 45000000 		.4byte	0x45
 3412 097f 5A020000 		.4byte	.LLST20
 3413 0983 2E       		.uleb128 0x2e
 3414 0984 EE040000 		.4byte	.LASF95
 3415 0988 02       		.byte	0x2
 3416 0989 1F01     		.2byte	0x11f
 3417 098b 43090000 		.4byte	0x943
 3418 098f 99020000 		.4byte	.LLST21
 3419 0993 2F       		.uleb128 0x2f
 3420 0994 17000000 		.4byte	.LASF97
 3421 0998 02       		.byte	0x2
 3422 0999 2301     		.2byte	0x123
 3423 099b 9F000000 		.4byte	0x9f
 3424 099f B7020000 		.4byte	.LLST22
 3425 09a3 30       		.uleb128 0x30
 3426 09a4 90020000 		.4byte	.LASF99
 3427 09a8 02       		.byte	0x2
 3428 09a9 6601     		.2byte	0x166
 3429 09ab 40000000 		.4byte	.L98
 3430 09af 31       		.uleb128 0x31
 3431 09b0 D6060000 		.4byte	0x6d6
 3432 09b4 AE000000 		.4byte	.LBB13
 3433 09b8 18000000 		.4byte	.Ldebug_ranges0+0x18
 3434 09bc 02       		.byte	0x2
 3435 09bd 5801     		.2byte	0x158
 3436 09bf 31       		.uleb128 0x31
 3437 09c0 CC060000 		.4byte	0x6cc
 3438 09c4 F6000000 		.4byte	.LBB17
 3439 09c8 30000000 		.4byte	.Ldebug_ranges0+0x30
 3440 09cc 02       		.byte	0x2
ARM GAS  C:\Users\DNIEL~1\AppData\Local\Temp\cc7TYfMd.s 			page 63


 3441 09cd 5301     		.2byte	0x153
 3442 09cf 00       		.byte	0x0
 3443 09d0 2C       		.uleb128 0x2c
 3444 09d1 01       		.byte	0x1
 3445 09d2 DE010000 		.4byte	.LASF98
 3446 09d6 02       		.byte	0x2
 3447 09d7 6E01     		.2byte	0x16e
 3448 09d9 01       		.byte	0x1
 3449 09da 00000000 		.4byte	.LFB131
 3450 09de A8000000 		.4byte	.LFE131
 3451 09e2 EB020000 		.4byte	.LLST23
 3452 09e6 470A0000 		.4byte	0xa47
 3453 09ea 2D       		.uleb128 0x2d
 3454 09eb 63687000 		.ascii	"chp\000"
 3455 09ef 02       		.byte	0x2
 3456 09f0 6E01     		.2byte	0x16e
 3457 09f2 24070000 		.4byte	0x724
 3458 09f6 0B030000 		.4byte	.LLST24
 3459 09fa 2E       		.uleb128 0x2e
 3460 09fb B0040000 		.4byte	.LASF94
 3461 09ff 02       		.byte	0x2
 3462 0a00 6E01     		.2byte	0x16e
 3463 0a02 45000000 		.4byte	0x45
 3464 0a06 29030000 		.4byte	.LLST25
 3465 0a0a 2E       		.uleb128 0x2e
 3466 0a0b EE040000 		.4byte	.LASF95
 3467 0a0f 02       		.byte	0x2
 3468 0a10 6E01     		.2byte	0x16e
 3469 0a12 43090000 		.4byte	0x943
 3470 0a16 47030000 		.4byte	.LLST26
 3471 0a1a 30       		.uleb128 0x30
 3472 0a1b 90020000 		.4byte	.LASF99
 3473 0a1f 02       		.byte	0x2
 3474 0a20 8501     		.2byte	0x185
 3475 0a22 28000000 		.4byte	.L117
 3476 0a26 31       		.uleb128 0x31
 3477 0a27 D6060000 		.4byte	0x6d6
 3478 0a2b 56000000 		.4byte	.LBB21
 3479 0a2f 48000000 		.4byte	.Ldebug_ranges0+0x48
 3480 0a33 02       		.byte	0x2
 3481 0a34 7C01     		.2byte	0x17c
 3482 0a36 31       		.uleb128 0x31
 3483 0a37 CC060000 		.4byte	0x6cc
 3484 0a3b 66000000 		.4byte	.LBB25
 3485 0a3f 60000000 		.4byte	.Ldebug_ranges0+0x60
 3486 0a43 02       		.byte	0x2
 3487 0a44 7701     		.2byte	0x177
 3488 0a46 00       		.byte	0x0
 3489 0a47 32       		.uleb128 0x32
 3490 0a48 63000000 		.4byte	.LASF100
 3491 0a4c 0F       		.byte	0xf
 3492 0a4d 9806     		.2byte	0x698
 3493 0a4f FC010000 		.4byte	0x1fc
 3494 0a53 01       		.byte	0x1
 3495 0a54 01       		.byte	0x1
 3496 0a55 32       		.uleb128 0x32
 3497 0a56 50010000 		.4byte	.LASF101
ARM GAS  C:\Users\DNIEL~1\AppData\Local\Temp\cc7TYfMd.s 			page 64


 3498 0a5a 0A       		.byte	0xa
 3499 0a5b C301     		.2byte	0x1c3
 3500 0a5d B0040000 		.4byte	0x4b0
 3501 0a61 01       		.byte	0x1
 3502 0a62 01       		.byte	0x1
 3503 0a63 0F       		.uleb128 0xf
 3504 0a64 69060000 		.4byte	0x669
 3505 0a68 730A0000 		.4byte	0xa73
 3506 0a6c 10       		.uleb128 0x10
 3507 0a6d 4C000000 		.4byte	0x4c
 3508 0a71 03       		.byte	0x3
 3509 0a72 00       		.byte	0x0
 3510 0a73 33       		.uleb128 0x33
 3511 0a74 02020000 		.4byte	.LASF112
 3512 0a78 0D       		.byte	0xd
 3513 0a79 1C       		.byte	0x1c
 3514 0a7a 630A0000 		.4byte	0xa63
 3515 0a7e 20       		.uleb128 0x20
 3516 0a7f 4B5F5000 		.ascii	"K_P\000"
 3517 0a83 02       		.byte	0x2
 3518 0a84 14       		.byte	0x14
 3519 0a85 9F000000 		.4byte	0x9f
 3520 0a89 05       		.byte	0x5
 3521 0a8a 03       		.byte	0x3
 3522 0a8b 00000000 		.4byte	K_P
 3523 0a8f 20       		.uleb128 0x20
 3524 0a90 4B5F4900 		.ascii	"K_I\000"
 3525 0a94 02       		.byte	0x2
 3526 0a95 15       		.byte	0x15
 3527 0a96 9F000000 		.4byte	0x9f
 3528 0a9a 05       		.byte	0x5
 3529 0a9b 03       		.byte	0x3
 3530 0a9c 00000000 		.4byte	K_I
 3531 0aa0 20       		.uleb128 0x20
 3532 0aa1 4B5F4400 		.ascii	"K_D\000"
 3533 0aa5 02       		.byte	0x2
 3534 0aa6 16       		.byte	0x16
 3535 0aa7 9F000000 		.4byte	0x9f
 3536 0aab 05       		.byte	0x5
 3537 0aac 03       		.byte	0x3
 3538 0aad 00000000 		.4byte	K_D
 3539 0ab1 34       		.uleb128 0x34
 3540 0ab2 61020000 		.4byte	.LASF102
 3541 0ab6 02       		.byte	0x2
 3542 0ab7 18       		.byte	0x18
 3543 0ab8 C50A0000 		.4byte	0xac5
 3544 0abc 08       		.byte	0x8
 3545 0abd 00000000 		.4byte	0x0
 3546 0ac1 80842E41 		.4byte	0x412e8480
 3547 0ac5 06       		.uleb128 0x6
 3548 0ac6 B8070000 		.4byte	0x7b8
 3549 0aca 34       		.uleb128 0x34
 3550 0acb D8010000 		.4byte	.LASF103
 3551 0acf 02       		.byte	0x2
 3552 0ad0 19       		.byte	0x19
 3553 0ad1 DE0A0000 		.4byte	0xade
 3554 0ad5 08       		.byte	0x8
ARM GAS  C:\Users\DNIEL~1\AppData\Local\Temp\cc7TYfMd.s 			page 65


 3555 0ad6 00000000 		.4byte	0x0
 3556 0ada 00000000 		.4byte	0x0
 3557 0ade 06       		.uleb128 0x6
 3558 0adf B8070000 		.4byte	0x7b8
 3559 0ae3 34       		.uleb128 0x34
 3560 0ae4 5B020000 		.4byte	.LASF104
 3561 0ae8 02       		.byte	0x2
 3562 0ae9 1B       		.byte	0x1b
 3563 0aea F70A0000 		.4byte	0xaf7
 3564 0aee 08       		.byte	0x8
 3565 0aef 00000000 		.4byte	0x0
 3566 0af3 80842E41 		.4byte	0x412e8480
 3567 0af7 06       		.uleb128 0x6
 3568 0af8 B8070000 		.4byte	0x7b8
 3569 0afc 34       		.uleb128 0x34
 3570 0afd 45020000 		.4byte	.LASF105
 3571 0b01 02       		.byte	0x2
 3572 0b02 1C       		.byte	0x1c
 3573 0b03 100B0000 		.4byte	0xb10
 3574 0b07 08       		.byte	0x8
 3575 0b08 00000000 		.4byte	0x0
 3576 0b0c 80842E41 		.4byte	0x412e8480
 3577 0b10 06       		.uleb128 0x6
 3578 0b11 B8070000 		.4byte	0x7b8
 3579 0b15 34       		.uleb128 0x34
 3580 0b16 1C000000 		.4byte	.LASF106
 3581 0b1a 02       		.byte	0x2
 3582 0b1b 1D       		.byte	0x1d
 3583 0b1c 290B0000 		.4byte	0xb29
 3584 0b20 08       		.byte	0x8
 3585 0b21 00000000 		.4byte	0x0
 3586 0b25 80842E41 		.4byte	0x412e8480
 3587 0b29 06       		.uleb128 0x6
 3588 0b2a B8070000 		.4byte	0x7b8
 3589 0b2e 20       		.uleb128 0x20
 3590 0b2f 70776D00 		.ascii	"pwm\000"
 3591 0b33 02       		.byte	0x2
 3592 0b34 1F       		.byte	0x1f
 3593 0b35 B5000000 		.4byte	0xb5
 3594 0b39 05       		.byte	0x5
 3595 0b3a 03       		.byte	0x3
 3596 0b3b 00000000 		.4byte	pwm
 3597 0b3f 20       		.uleb128 0x20
 3598 0b40 5000     		.ascii	"P\000"
 3599 0b42 02       		.byte	0x2
 3600 0b43 20       		.byte	0x20
 3601 0b44 B8070000 		.4byte	0x7b8
 3602 0b48 05       		.byte	0x5
 3603 0b49 03       		.byte	0x3
 3604 0b4a 00000000 		.4byte	P
 3605 0b4e 20       		.uleb128 0x20
 3606 0b4f 4900     		.ascii	"I\000"
 3607 0b51 02       		.byte	0x2
 3608 0b52 21       		.byte	0x21
 3609 0b53 B8070000 		.4byte	0x7b8
 3610 0b57 05       		.byte	0x5
 3611 0b58 03       		.byte	0x3
ARM GAS  C:\Users\DNIEL~1\AppData\Local\Temp\cc7TYfMd.s 			page 66


 3612 0b59 00000000 		.4byte	I
 3613 0b5d 20       		.uleb128 0x20
 3614 0b5e 4400     		.ascii	"D\000"
 3615 0b60 02       		.byte	0x2
 3616 0b61 22       		.byte	0x22
 3617 0b62 B8070000 		.4byte	0x7b8
 3618 0b66 05       		.byte	0x5
 3619 0b67 03       		.byte	0x3
 3620 0b68 00000000 		.4byte	D
 3621 0b6c 20       		.uleb128 0x20
 3622 0b6d 5500     		.ascii	"U\000"
 3623 0b6f 02       		.byte	0x2
 3624 0b70 23       		.byte	0x23
 3625 0b71 B5000000 		.4byte	0xb5
 3626 0b75 05       		.byte	0x5
 3627 0b76 03       		.byte	0x3
 3628 0b77 00000000 		.4byte	U
 3629 0b7b 35       		.uleb128 0x35
 3630 0b7c 53040000 		.4byte	.LASF107
 3631 0b80 02       		.byte	0x2
 3632 0b81 24       		.byte	0x24
 3633 0b82 B8070000 		.4byte	0x7b8
 3634 0b86 05       		.byte	0x5
 3635 0b87 03       		.byte	0x3
 3636 0b88 00000000 		.4byte	eelozo
 3637 0b8c 20       		.uleb128 0x20
 3638 0b8d 6500     		.ascii	"e\000"
 3639 0b8f 02       		.byte	0x2
 3640 0b90 25       		.byte	0x25
 3641 0b91 B8070000 		.4byte	0x7b8
 3642 0b95 05       		.byte	0x5
 3643 0b96 03       		.byte	0x3
 3644 0b97 00000000 		.4byte	e
 3645 0b9b 35       		.uleb128 0x35
 3646 0b9c AE010000 		.4byte	.LASF108
 3647 0ba0 02       		.byte	0x2
 3648 0ba1 26       		.byte	0x26
 3649 0ba2 CB000000 		.4byte	0xcb
 3650 0ba6 05       		.byte	0x5
 3651 0ba7 03       		.byte	0x3
 3652 0ba8 00000000 		.4byte	cruise_on
 3653 0bac 35       		.uleb128 0x35
 3654 0bad B5040000 		.4byte	.LASF109
 3655 0bb1 02       		.byte	0x2
 3656 0bb2 27       		.byte	0x27
 3657 0bb3 CB000000 		.4byte	0xcb
 3658 0bb7 05       		.byte	0x5
 3659 0bb8 03       		.byte	0x3
 3660 0bb9 00000000 		.4byte	cruise_indicator
 3661 0bbd 35       		.uleb128 0x35
 3662 0bbe 6B010000 		.4byte	.LASF110
 3663 0bc2 02       		.byte	0x2
 3664 0bc3 28       		.byte	0x28
 3665 0bc4 C0000000 		.4byte	0xc0
 3666 0bc8 05       		.byte	0x5
 3667 0bc9 03       		.byte	0x3
 3668 0bca 00000000 		.4byte	cruise_indicator_index
ARM GAS  C:\Users\DNIEL~1\AppData\Local\Temp\cc7TYfMd.s 			page 67


 3669 0bce 35       		.uleb128 0x35
 3670 0bcf 27040000 		.4byte	.LASF111
 3671 0bd3 02       		.byte	0x2
 3672 0bd4 2A       		.byte	0x2a
 3673 0bd5 AA000000 		.4byte	0xaa
 3674 0bd9 05       		.byte	0x5
 3675 0bda 03       		.byte	0x3
 3676 0bdb 00000000 		.4byte	cruise_disable_period
 3677 0bdf 33       		.uleb128 0x33
 3678 0be0 C8020000 		.4byte	.LASF113
 3679 0be4 02       		.byte	0x2
 3680 0be5 2B       		.byte	0x2b
 3681 0be6 EA0B0000 		.4byte	0xbea
 3682 0bea 06       		.uleb128 0x6
 3683 0beb CB000000 		.4byte	0xcb
 3684 0bef 20       		.uleb128 0x20
 3685 0bf0 73657400 		.ascii	"set\000"
 3686 0bf4 02       		.byte	0x2
 3687 0bf5 2D       		.byte	0x2d
 3688 0bf6 9F000000 		.4byte	0x9f
 3689 0bfa 05       		.byte	0x5
 3690 0bfb 03       		.byte	0x3
 3691 0bfc 00000000 		.4byte	set
 3692 0c00 35       		.uleb128 0x35
 3693 0c01 0A030000 		.4byte	.LASF114
 3694 0c05 02       		.byte	0x2
 3695 0c06 2E       		.byte	0x2e
 3696 0c07 9F000000 		.4byte	0x9f
 3697 0c0b 05       		.byte	0x5
 3698 0c0c 03       		.byte	0x3
 3699 0c0d 00000000 		.4byte	old_set
 3700 0c11 35       		.uleb128 0x35
 3701 0c12 DB040000 		.4byte	.LASF115
 3702 0c16 02       		.byte	0x2
 3703 0c17 2F       		.byte	0x2f
 3704 0c18 C0000000 		.4byte	0xc0
 3705 0c1c 05       		.byte	0x5
 3706 0c1d 03       		.byte	0x3
 3707 0c1e 00000000 		.4byte	eeprom_read_period
 3708 0c22 35       		.uleb128 0x35
 3709 0c23 02040000 		.4byte	.LASF116
 3710 0c27 02       		.byte	0x2
 3711 0c28 30       		.byte	0x30
 3712 0c29 CB000000 		.4byte	0xcb
 3713 0c2d 05       		.byte	0x5
 3714 0c2e 03       		.byte	0x3
 3715 0c2f 00000000 		.4byte	eeprom_write
 3716 0c33 35       		.uleb128 0x35
 3717 0c34 CA010000 		.4byte	.LASF117
 3718 0c38 02       		.byte	0x2
 3719 0c39 32       		.byte	0x32
 3720 0c3a F7050000 		.4byte	0x5f7
 3721 0c3e 05       		.byte	0x5
 3722 0c3f 03       		.byte	0x3
 3723 0c40 00000000 		.4byte	cruise_pwmcfg
 3724 0c44 32       		.uleb128 0x32
 3725 0c45 63000000 		.4byte	.LASF100
ARM GAS  C:\Users\DNIEL~1\AppData\Local\Temp\cc7TYfMd.s 			page 68


 3726 0c49 0F       		.byte	0xf
 3727 0c4a 9806     		.2byte	0x698
 3728 0c4c FC010000 		.4byte	0x1fc
 3729 0c50 01       		.byte	0x1
 3730 0c51 01       		.byte	0x1
 3731 0c52 32       		.uleb128 0x32
 3732 0c53 50010000 		.4byte	.LASF101
 3733 0c57 0A       		.byte	0xa
 3734 0c58 C301     		.2byte	0x1c3
 3735 0c5a B0040000 		.4byte	0x4b0
 3736 0c5e 01       		.byte	0x1
 3737 0c5f 01       		.byte	0x1
 3738 0c60 00       		.byte	0x0
 3739              		.section	.debug_abbrev
 3740 0000 01       		.uleb128 0x1
 3741 0001 11       		.uleb128 0x11
 3742 0002 01       		.byte	0x1
 3743 0003 25       		.uleb128 0x25
 3744 0004 0E       		.uleb128 0xe
 3745 0005 13       		.uleb128 0x13
 3746 0006 0B       		.uleb128 0xb
 3747 0007 03       		.uleb128 0x3
 3748 0008 0E       		.uleb128 0xe
 3749 0009 1B       		.uleb128 0x1b
 3750 000a 0E       		.uleb128 0xe
 3751 000b 11       		.uleb128 0x11
 3752 000c 01       		.uleb128 0x1
 3753 000d 52       		.uleb128 0x52
 3754 000e 01       		.uleb128 0x1
 3755 000f 55       		.uleb128 0x55
 3756 0010 06       		.uleb128 0x6
 3757 0011 10       		.uleb128 0x10
 3758 0012 06       		.uleb128 0x6
 3759 0013 00       		.byte	0x0
 3760 0014 00       		.byte	0x0
 3761 0015 02       		.uleb128 0x2
 3762 0016 24       		.uleb128 0x24
 3763 0017 00       		.byte	0x0
 3764 0018 0B       		.uleb128 0xb
 3765 0019 0B       		.uleb128 0xb
 3766 001a 3E       		.uleb128 0x3e
 3767 001b 0B       		.uleb128 0xb
 3768 001c 03       		.uleb128 0x3
 3769 001d 0E       		.uleb128 0xe
 3770 001e 00       		.byte	0x0
 3771 001f 00       		.byte	0x0
 3772 0020 03       		.uleb128 0x3
 3773 0021 24       		.uleb128 0x24
 3774 0022 00       		.byte	0x0
 3775 0023 0B       		.uleb128 0xb
 3776 0024 0B       		.uleb128 0xb
 3777 0025 3E       		.uleb128 0x3e
 3778 0026 0B       		.uleb128 0xb
 3779 0027 03       		.uleb128 0x3
 3780 0028 08       		.uleb128 0x8
 3781 0029 00       		.byte	0x0
 3782 002a 00       		.byte	0x0
ARM GAS  C:\Users\DNIEL~1\AppData\Local\Temp\cc7TYfMd.s 			page 69


 3783 002b 04       		.uleb128 0x4
 3784 002c 0F       		.uleb128 0xf
 3785 002d 00       		.byte	0x0
 3786 002e 0B       		.uleb128 0xb
 3787 002f 0B       		.uleb128 0xb
 3788 0030 00       		.byte	0x0
 3789 0031 00       		.byte	0x0
 3790 0032 05       		.uleb128 0x5
 3791 0033 0F       		.uleb128 0xf
 3792 0034 00       		.byte	0x0
 3793 0035 0B       		.uleb128 0xb
 3794 0036 0B       		.uleb128 0xb
 3795 0037 49       		.uleb128 0x49
 3796 0038 13       		.uleb128 0x13
 3797 0039 00       		.byte	0x0
 3798 003a 00       		.byte	0x0
 3799 003b 06       		.uleb128 0x6
 3800 003c 26       		.uleb128 0x26
 3801 003d 00       		.byte	0x0
 3802 003e 49       		.uleb128 0x49
 3803 003f 13       		.uleb128 0x13
 3804 0040 00       		.byte	0x0
 3805 0041 00       		.byte	0x0
 3806 0042 07       		.uleb128 0x7
 3807 0043 16       		.uleb128 0x16
 3808 0044 00       		.byte	0x0
 3809 0045 03       		.uleb128 0x3
 3810 0046 0E       		.uleb128 0xe
 3811 0047 3A       		.uleb128 0x3a
 3812 0048 0B       		.uleb128 0xb
 3813 0049 3B       		.uleb128 0x3b
 3814 004a 0B       		.uleb128 0xb
 3815 004b 49       		.uleb128 0x49
 3816 004c 13       		.uleb128 0x13
 3817 004d 00       		.byte	0x0
 3818 004e 00       		.byte	0x0
 3819 004f 08       		.uleb128 0x8
 3820 0050 35       		.uleb128 0x35
 3821 0051 00       		.byte	0x0
 3822 0052 49       		.uleb128 0x49
 3823 0053 13       		.uleb128 0x13
 3824 0054 00       		.byte	0x0
 3825 0055 00       		.byte	0x0
 3826 0056 09       		.uleb128 0x9
 3827 0057 15       		.uleb128 0x15
 3828 0058 01       		.byte	0x1
 3829 0059 27       		.uleb128 0x27
 3830 005a 0C       		.uleb128 0xc
 3831 005b 49       		.uleb128 0x49
 3832 005c 13       		.uleb128 0x13
 3833 005d 01       		.uleb128 0x1
 3834 005e 13       		.uleb128 0x13
 3835 005f 00       		.byte	0x0
 3836 0060 00       		.byte	0x0
 3837 0061 0A       		.uleb128 0xa
 3838 0062 05       		.uleb128 0x5
 3839 0063 00       		.byte	0x0
ARM GAS  C:\Users\DNIEL~1\AppData\Local\Temp\cc7TYfMd.s 			page 70


 3840 0064 49       		.uleb128 0x49
 3841 0065 13       		.uleb128 0x13
 3842 0066 00       		.byte	0x0
 3843 0067 00       		.byte	0x0
 3844 0068 0B       		.uleb128 0xb
 3845 0069 13       		.uleb128 0x13
 3846 006a 01       		.byte	0x1
 3847 006b 03       		.uleb128 0x3
 3848 006c 0E       		.uleb128 0xe
 3849 006d 0B       		.uleb128 0xb
 3850 006e 0B       		.uleb128 0xb
 3851 006f 3A       		.uleb128 0x3a
 3852 0070 0B       		.uleb128 0xb
 3853 0071 3B       		.uleb128 0x3b
 3854 0072 0B       		.uleb128 0xb
 3855 0073 01       		.uleb128 0x1
 3856 0074 13       		.uleb128 0x13
 3857 0075 00       		.byte	0x0
 3858 0076 00       		.byte	0x0
 3859 0077 0C       		.uleb128 0xc
 3860 0078 0D       		.uleb128 0xd
 3861 0079 00       		.byte	0x0
 3862 007a 03       		.uleb128 0x3
 3863 007b 0E       		.uleb128 0xe
 3864 007c 3A       		.uleb128 0x3a
 3865 007d 0B       		.uleb128 0xb
 3866 007e 3B       		.uleb128 0x3b
 3867 007f 0B       		.uleb128 0xb
 3868 0080 49       		.uleb128 0x49
 3869 0081 13       		.uleb128 0x13
 3870 0082 38       		.uleb128 0x38
 3871 0083 0A       		.uleb128 0xa
 3872 0084 00       		.byte	0x0
 3873 0085 00       		.byte	0x0
 3874 0086 0D       		.uleb128 0xd
 3875 0087 0D       		.uleb128 0xd
 3876 0088 00       		.byte	0x0
 3877 0089 03       		.uleb128 0x3
 3878 008a 08       		.uleb128 0x8
 3879 008b 3A       		.uleb128 0x3a
 3880 008c 0B       		.uleb128 0xb
 3881 008d 3B       		.uleb128 0x3b
 3882 008e 0B       		.uleb128 0xb
 3883 008f 49       		.uleb128 0x49
 3884 0090 13       		.uleb128 0x13
 3885 0091 38       		.uleb128 0x38
 3886 0092 0A       		.uleb128 0xa
 3887 0093 00       		.byte	0x0
 3888 0094 00       		.byte	0x0
 3889 0095 0E       		.uleb128 0xe
 3890 0096 13       		.uleb128 0x13
 3891 0097 01       		.byte	0x1
 3892 0098 0B       		.uleb128 0xb
 3893 0099 0B       		.uleb128 0xb
 3894 009a 3A       		.uleb128 0x3a
 3895 009b 0B       		.uleb128 0xb
 3896 009c 3B       		.uleb128 0x3b
ARM GAS  C:\Users\DNIEL~1\AppData\Local\Temp\cc7TYfMd.s 			page 71


 3897 009d 0B       		.uleb128 0xb
 3898 009e 01       		.uleb128 0x1
 3899 009f 13       		.uleb128 0x13
 3900 00a0 00       		.byte	0x0
 3901 00a1 00       		.byte	0x0
 3902 00a2 0F       		.uleb128 0xf
 3903 00a3 01       		.uleb128 0x1
 3904 00a4 01       		.byte	0x1
 3905 00a5 49       		.uleb128 0x49
 3906 00a6 13       		.uleb128 0x13
 3907 00a7 01       		.uleb128 0x1
 3908 00a8 13       		.uleb128 0x13
 3909 00a9 00       		.byte	0x0
 3910 00aa 00       		.byte	0x0
 3911 00ab 10       		.uleb128 0x10
 3912 00ac 21       		.uleb128 0x21
 3913 00ad 00       		.byte	0x0
 3914 00ae 49       		.uleb128 0x49
 3915 00af 13       		.uleb128 0x13
 3916 00b0 2F       		.uleb128 0x2f
 3917 00b1 0B       		.uleb128 0xb
 3918 00b2 00       		.byte	0x0
 3919 00b3 00       		.byte	0x0
 3920 00b4 11       		.uleb128 0x11
 3921 00b5 13       		.uleb128 0x13
 3922 00b6 01       		.byte	0x1
 3923 00b7 0B       		.uleb128 0xb
 3924 00b8 0B       		.uleb128 0xb
 3925 00b9 3A       		.uleb128 0x3a
 3926 00ba 0B       		.uleb128 0xb
 3927 00bb 3B       		.uleb128 0x3b
 3928 00bc 05       		.uleb128 0x5
 3929 00bd 01       		.uleb128 0x1
 3930 00be 13       		.uleb128 0x13
 3931 00bf 00       		.byte	0x0
 3932 00c0 00       		.byte	0x0
 3933 00c1 12       		.uleb128 0x12
 3934 00c2 0D       		.uleb128 0xd
 3935 00c3 00       		.byte	0x0
 3936 00c4 03       		.uleb128 0x3
 3937 00c5 08       		.uleb128 0x8
 3938 00c6 3A       		.uleb128 0x3a
 3939 00c7 0B       		.uleb128 0xb
 3940 00c8 3B       		.uleb128 0x3b
 3941 00c9 05       		.uleb128 0x5
 3942 00ca 49       		.uleb128 0x49
 3943 00cb 13       		.uleb128 0x13
 3944 00cc 38       		.uleb128 0x38
 3945 00cd 0A       		.uleb128 0xa
 3946 00ce 00       		.byte	0x0
 3947 00cf 00       		.byte	0x0
 3948 00d0 13       		.uleb128 0x13
 3949 00d1 0D       		.uleb128 0xd
 3950 00d2 00       		.byte	0x0
 3951 00d3 03       		.uleb128 0x3
 3952 00d4 0E       		.uleb128 0xe
 3953 00d5 3A       		.uleb128 0x3a
ARM GAS  C:\Users\DNIEL~1\AppData\Local\Temp\cc7TYfMd.s 			page 72


 3954 00d6 0B       		.uleb128 0xb
 3955 00d7 3B       		.uleb128 0x3b
 3956 00d8 05       		.uleb128 0x5
 3957 00d9 49       		.uleb128 0x49
 3958 00da 13       		.uleb128 0x13
 3959 00db 38       		.uleb128 0x38
 3960 00dc 0A       		.uleb128 0xa
 3961 00dd 00       		.byte	0x0
 3962 00de 00       		.byte	0x0
 3963 00df 14       		.uleb128 0x14
 3964 00e0 16       		.uleb128 0x16
 3965 00e1 00       		.byte	0x0
 3966 00e2 03       		.uleb128 0x3
 3967 00e3 0E       		.uleb128 0xe
 3968 00e4 3A       		.uleb128 0x3a
 3969 00e5 0B       		.uleb128 0xb
 3970 00e6 3B       		.uleb128 0x3b
 3971 00e7 05       		.uleb128 0x5
 3972 00e8 49       		.uleb128 0x49
 3973 00e9 13       		.uleb128 0x13
 3974 00ea 00       		.byte	0x0
 3975 00eb 00       		.byte	0x0
 3976 00ec 15       		.uleb128 0x15
 3977 00ed 04       		.uleb128 0x4
 3978 00ee 01       		.byte	0x1
 3979 00ef 0B       		.uleb128 0xb
 3980 00f0 0B       		.uleb128 0xb
 3981 00f1 3A       		.uleb128 0x3a
 3982 00f2 0B       		.uleb128 0xb
 3983 00f3 3B       		.uleb128 0x3b
 3984 00f4 0B       		.uleb128 0xb
 3985 00f5 01       		.uleb128 0x1
 3986 00f6 13       		.uleb128 0x13
 3987 00f7 00       		.byte	0x0
 3988 00f8 00       		.byte	0x0
 3989 00f9 16       		.uleb128 0x16
 3990 00fa 28       		.uleb128 0x28
 3991 00fb 00       		.byte	0x0
 3992 00fc 03       		.uleb128 0x3
 3993 00fd 0E       		.uleb128 0xe
 3994 00fe 1C       		.uleb128 0x1c
 3995 00ff 0D       		.uleb128 0xd
 3996 0100 00       		.byte	0x0
 3997 0101 00       		.byte	0x0
 3998 0102 17       		.uleb128 0x17
 3999 0103 13       		.uleb128 0x13
 4000 0104 01       		.byte	0x1
 4001 0105 03       		.uleb128 0x3
 4002 0106 0E       		.uleb128 0xe
 4003 0107 0B       		.uleb128 0xb
 4004 0108 0B       		.uleb128 0xb
 4005 0109 3A       		.uleb128 0x3a
 4006 010a 0B       		.uleb128 0xb
 4007 010b 3B       		.uleb128 0x3b
 4008 010c 05       		.uleb128 0x5
 4009 010d 01       		.uleb128 0x1
 4010 010e 13       		.uleb128 0x13
ARM GAS  C:\Users\DNIEL~1\AppData\Local\Temp\cc7TYfMd.s 			page 73


 4011 010f 00       		.byte	0x0
 4012 0110 00       		.byte	0x0
 4013 0111 18       		.uleb128 0x18
 4014 0112 15       		.uleb128 0x15
 4015 0113 01       		.byte	0x1
 4016 0114 27       		.uleb128 0x27
 4017 0115 0C       		.uleb128 0xc
 4018 0116 01       		.uleb128 0x1
 4019 0117 13       		.uleb128 0x13
 4020 0118 00       		.byte	0x0
 4021 0119 00       		.byte	0x0
 4022 011a 19       		.uleb128 0x19
 4023 011b 0D       		.uleb128 0xd
 4024 011c 00       		.byte	0x0
 4025 011d 03       		.uleb128 0x3
 4026 011e 0E       		.uleb128 0xe
 4027 011f 49       		.uleb128 0x49
 4028 0120 13       		.uleb128 0x13
 4029 0121 38       		.uleb128 0x38
 4030 0122 0A       		.uleb128 0xa
 4031 0123 34       		.uleb128 0x34
 4032 0124 0C       		.uleb128 0xc
 4033 0125 00       		.byte	0x0
 4034 0126 00       		.byte	0x0
 4035 0127 1A       		.uleb128 0x1a
 4036 0128 04       		.uleb128 0x4
 4037 0129 01       		.byte	0x1
 4038 012a 03       		.uleb128 0x3
 4039 012b 0E       		.uleb128 0xe
 4040 012c 0B       		.uleb128 0xb
 4041 012d 0B       		.uleb128 0xb
 4042 012e 3A       		.uleb128 0x3a
 4043 012f 0B       		.uleb128 0xb
 4044 0130 3B       		.uleb128 0x3b
 4045 0131 0B       		.uleb128 0xb
 4046 0132 01       		.uleb128 0x1
 4047 0133 13       		.uleb128 0x13
 4048 0134 00       		.byte	0x0
 4049 0135 00       		.byte	0x0
 4050 0136 1B       		.uleb128 0x1b
 4051 0137 2E       		.uleb128 0x2e
 4052 0138 00       		.byte	0x0
 4053 0139 3F       		.uleb128 0x3f
 4054 013a 0C       		.uleb128 0xc
 4055 013b 03       		.uleb128 0x3
 4056 013c 0E       		.uleb128 0xe
 4057 013d 3A       		.uleb128 0x3a
 4058 013e 0B       		.uleb128 0xb
 4059 013f 3B       		.uleb128 0x3b
 4060 0140 0B       		.uleb128 0xb
 4061 0141 27       		.uleb128 0x27
 4062 0142 0C       		.uleb128 0xc
 4063 0143 20       		.uleb128 0x20
 4064 0144 0B       		.uleb128 0xb
 4065 0145 00       		.byte	0x0
 4066 0146 00       		.byte	0x0
 4067 0147 1C       		.uleb128 0x1c
ARM GAS  C:\Users\DNIEL~1\AppData\Local\Temp\cc7TYfMd.s 			page 74


 4068 0148 2E       		.uleb128 0x2e
 4069 0149 01       		.byte	0x1
 4070 014a 03       		.uleb128 0x3
 4071 014b 0E       		.uleb128 0xe
 4072 014c 3A       		.uleb128 0x3a
 4073 014d 0B       		.uleb128 0xb
 4074 014e 3B       		.uleb128 0x3b
 4075 014f 0B       		.uleb128 0xb
 4076 0150 27       		.uleb128 0x27
 4077 0151 0C       		.uleb128 0xc
 4078 0152 11       		.uleb128 0x11
 4079 0153 01       		.uleb128 0x1
 4080 0154 12       		.uleb128 0x12
 4081 0155 01       		.uleb128 0x1
 4082 0156 40       		.uleb128 0x40
 4083 0157 06       		.uleb128 0x6
 4084 0158 01       		.uleb128 0x1
 4085 0159 13       		.uleb128 0x13
 4086 015a 00       		.byte	0x0
 4087 015b 00       		.byte	0x0
 4088 015c 1D       		.uleb128 0x1d
 4089 015d 05       		.uleb128 0x5
 4090 015e 00       		.byte	0x0
 4091 015f 03       		.uleb128 0x3
 4092 0160 08       		.uleb128 0x8
 4093 0161 3A       		.uleb128 0x3a
 4094 0162 0B       		.uleb128 0xb
 4095 0163 3B       		.uleb128 0x3b
 4096 0164 0B       		.uleb128 0xb
 4097 0165 49       		.uleb128 0x49
 4098 0166 13       		.uleb128 0x13
 4099 0167 02       		.uleb128 0x2
 4100 0168 06       		.uleb128 0x6
 4101 0169 00       		.byte	0x0
 4102 016a 00       		.byte	0x0
 4103 016b 1E       		.uleb128 0x1e
 4104 016c 05       		.uleb128 0x5
 4105 016d 00       		.byte	0x0
 4106 016e 03       		.uleb128 0x3
 4107 016f 08       		.uleb128 0x8
 4108 0170 3A       		.uleb128 0x3a
 4109 0171 0B       		.uleb128 0xb
 4110 0172 3B       		.uleb128 0x3b
 4111 0173 0B       		.uleb128 0xb
 4112 0174 49       		.uleb128 0x49
 4113 0175 13       		.uleb128 0x13
 4114 0176 02       		.uleb128 0x2
 4115 0177 0A       		.uleb128 0xa
 4116 0178 00       		.byte	0x0
 4117 0179 00       		.byte	0x0
 4118 017a 1F       		.uleb128 0x1f
 4119 017b 18       		.uleb128 0x18
 4120 017c 00       		.byte	0x0
 4121 017d 00       		.byte	0x0
 4122 017e 00       		.byte	0x0
 4123 017f 20       		.uleb128 0x20
 4124 0180 34       		.uleb128 0x34
ARM GAS  C:\Users\DNIEL~1\AppData\Local\Temp\cc7TYfMd.s 			page 75


 4125 0181 00       		.byte	0x0
 4126 0182 03       		.uleb128 0x3
 4127 0183 08       		.uleb128 0x8
 4128 0184 3A       		.uleb128 0x3a
 4129 0185 0B       		.uleb128 0xb
 4130 0186 3B       		.uleb128 0x3b
 4131 0187 0B       		.uleb128 0xb
 4132 0188 49       		.uleb128 0x49
 4133 0189 13       		.uleb128 0x13
 4134 018a 02       		.uleb128 0x2
 4135 018b 0A       		.uleb128 0xa
 4136 018c 00       		.byte	0x0
 4137 018d 00       		.byte	0x0
 4138 018e 21       		.uleb128 0x21
 4139 018f 2E       		.uleb128 0x2e
 4140 0190 00       		.byte	0x0
 4141 0191 3F       		.uleb128 0x3f
 4142 0192 0C       		.uleb128 0xc
 4143 0193 03       		.uleb128 0x3
 4144 0194 0E       		.uleb128 0xe
 4145 0195 3A       		.uleb128 0x3a
 4146 0196 0B       		.uleb128 0xb
 4147 0197 3B       		.uleb128 0x3b
 4148 0198 0B       		.uleb128 0xb
 4149 0199 27       		.uleb128 0x27
 4150 019a 0C       		.uleb128 0xc
 4151 019b 11       		.uleb128 0x11
 4152 019c 01       		.uleb128 0x1
 4153 019d 12       		.uleb128 0x12
 4154 019e 01       		.uleb128 0x1
 4155 019f 40       		.uleb128 0x40
 4156 01a0 06       		.uleb128 0x6
 4157 01a1 00       		.byte	0x0
 4158 01a2 00       		.byte	0x0
 4159 01a3 22       		.uleb128 0x22
 4160 01a4 2E       		.uleb128 0x2e
 4161 01a5 00       		.byte	0x0
 4162 01a6 31       		.uleb128 0x31
 4163 01a7 13       		.uleb128 0x13
 4164 01a8 11       		.uleb128 0x11
 4165 01a9 01       		.uleb128 0x1
 4166 01aa 12       		.uleb128 0x12
 4167 01ab 01       		.uleb128 0x1
 4168 01ac 40       		.uleb128 0x40
 4169 01ad 0A       		.uleb128 0xa
 4170 01ae 00       		.byte	0x0
 4171 01af 00       		.byte	0x0
 4172 01b0 23       		.uleb128 0x23
 4173 01b1 2E       		.uleb128 0x2e
 4174 01b2 00       		.byte	0x0
 4175 01b3 3F       		.uleb128 0x3f
 4176 01b4 0C       		.uleb128 0xc
 4177 01b5 03       		.uleb128 0x3
 4178 01b6 0E       		.uleb128 0xe
 4179 01b7 3A       		.uleb128 0x3a
 4180 01b8 0B       		.uleb128 0xb
 4181 01b9 3B       		.uleb128 0x3b
ARM GAS  C:\Users\DNIEL~1\AppData\Local\Temp\cc7TYfMd.s 			page 76


 4182 01ba 0B       		.uleb128 0xb
 4183 01bb 27       		.uleb128 0x27
 4184 01bc 0C       		.uleb128 0xc
 4185 01bd 49       		.uleb128 0x49
 4186 01be 13       		.uleb128 0x13
 4187 01bf 11       		.uleb128 0x11
 4188 01c0 01       		.uleb128 0x1
 4189 01c1 12       		.uleb128 0x12
 4190 01c2 01       		.uleb128 0x1
 4191 01c3 40       		.uleb128 0x40
 4192 01c4 0A       		.uleb128 0xa
 4193 01c5 00       		.byte	0x0
 4194 01c6 00       		.byte	0x0
 4195 01c7 24       		.uleb128 0x24
 4196 01c8 2E       		.uleb128 0x2e
 4197 01c9 01       		.byte	0x1
 4198 01ca 3F       		.uleb128 0x3f
 4199 01cb 0C       		.uleb128 0xc
 4200 01cc 03       		.uleb128 0x3
 4201 01cd 0E       		.uleb128 0xe
 4202 01ce 3A       		.uleb128 0x3a
 4203 01cf 0B       		.uleb128 0xb
 4204 01d0 3B       		.uleb128 0x3b
 4205 01d1 0B       		.uleb128 0xb
 4206 01d2 27       		.uleb128 0x27
 4207 01d3 0C       		.uleb128 0xc
 4208 01d4 11       		.uleb128 0x11
 4209 01d5 01       		.uleb128 0x1
 4210 01d6 12       		.uleb128 0x12
 4211 01d7 01       		.uleb128 0x1
 4212 01d8 40       		.uleb128 0x40
 4213 01d9 06       		.uleb128 0x6
 4214 01da 01       		.uleb128 0x1
 4215 01db 13       		.uleb128 0x13
 4216 01dc 00       		.byte	0x0
 4217 01dd 00       		.byte	0x0
 4218 01de 25       		.uleb128 0x25
 4219 01df 2E       		.uleb128 0x2e
 4220 01e0 00       		.byte	0x0
 4221 01e1 3F       		.uleb128 0x3f
 4222 01e2 0C       		.uleb128 0xc
 4223 01e3 03       		.uleb128 0x3
 4224 01e4 0E       		.uleb128 0xe
 4225 01e5 3A       		.uleb128 0x3a
 4226 01e6 0B       		.uleb128 0xb
 4227 01e7 3B       		.uleb128 0x3b
 4228 01e8 0B       		.uleb128 0xb
 4229 01e9 27       		.uleb128 0x27
 4230 01ea 0C       		.uleb128 0xc
 4231 01eb 49       		.uleb128 0x49
 4232 01ec 13       		.uleb128 0x13
 4233 01ed 11       		.uleb128 0x11
 4234 01ee 01       		.uleb128 0x1
 4235 01ef 12       		.uleb128 0x12
 4236 01f0 01       		.uleb128 0x1
 4237 01f1 40       		.uleb128 0x40
 4238 01f2 06       		.uleb128 0x6
ARM GAS  C:\Users\DNIEL~1\AppData\Local\Temp\cc7TYfMd.s 			page 77


 4239 01f3 00       		.byte	0x0
 4240 01f4 00       		.byte	0x0
 4241 01f5 26       		.uleb128 0x26
 4242 01f6 2E       		.uleb128 0x2e
 4243 01f7 01       		.byte	0x1
 4244 01f8 3F       		.uleb128 0x3f
 4245 01f9 0C       		.uleb128 0xc
 4246 01fa 03       		.uleb128 0x3
 4247 01fb 0E       		.uleb128 0xe
 4248 01fc 3A       		.uleb128 0x3a
 4249 01fd 0B       		.uleb128 0xb
 4250 01fe 3B       		.uleb128 0x3b
 4251 01ff 0B       		.uleb128 0xb
 4252 0200 27       		.uleb128 0x27
 4253 0201 0C       		.uleb128 0xc
 4254 0202 49       		.uleb128 0x49
 4255 0203 13       		.uleb128 0x13
 4256 0204 11       		.uleb128 0x11
 4257 0205 01       		.uleb128 0x1
 4258 0206 12       		.uleb128 0x12
 4259 0207 01       		.uleb128 0x1
 4260 0208 40       		.uleb128 0x40
 4261 0209 06       		.uleb128 0x6
 4262 020a 01       		.uleb128 0x1
 4263 020b 13       		.uleb128 0x13
 4264 020c 00       		.byte	0x0
 4265 020d 00       		.byte	0x0
 4266 020e 27       		.uleb128 0x27
 4267 020f 05       		.uleb128 0x5
 4268 0210 00       		.byte	0x0
 4269 0211 03       		.uleb128 0x3
 4270 0212 0E       		.uleb128 0xe
 4271 0213 3A       		.uleb128 0x3a
 4272 0214 0B       		.uleb128 0xb
 4273 0215 3B       		.uleb128 0x3b
 4274 0216 0B       		.uleb128 0xb
 4275 0217 49       		.uleb128 0x49
 4276 0218 13       		.uleb128 0x13
 4277 0219 02       		.uleb128 0x2
 4278 021a 06       		.uleb128 0x6
 4279 021b 00       		.byte	0x0
 4280 021c 00       		.byte	0x0
 4281 021d 28       		.uleb128 0x28
 4282 021e 05       		.uleb128 0x5
 4283 021f 00       		.byte	0x0
 4284 0220 03       		.uleb128 0x3
 4285 0221 0E       		.uleb128 0xe
 4286 0222 3A       		.uleb128 0x3a
 4287 0223 0B       		.uleb128 0xb
 4288 0224 3B       		.uleb128 0x3b
 4289 0225 0B       		.uleb128 0xb
 4290 0226 49       		.uleb128 0x49
 4291 0227 13       		.uleb128 0x13
 4292 0228 02       		.uleb128 0x2
 4293 0229 0A       		.uleb128 0xa
 4294 022a 00       		.byte	0x0
 4295 022b 00       		.byte	0x0
ARM GAS  C:\Users\DNIEL~1\AppData\Local\Temp\cc7TYfMd.s 			page 78


 4296 022c 29       		.uleb128 0x29
 4297 022d 0B       		.uleb128 0xb
 4298 022e 01       		.byte	0x1
 4299 022f 55       		.uleb128 0x55
 4300 0230 06       		.uleb128 0x6
 4301 0231 01       		.uleb128 0x1
 4302 0232 13       		.uleb128 0x13
 4303 0233 00       		.byte	0x0
 4304 0234 00       		.byte	0x0
 4305 0235 2A       		.uleb128 0x2a
 4306 0236 2E       		.uleb128 0x2e
 4307 0237 01       		.byte	0x1
 4308 0238 3F       		.uleb128 0x3f
 4309 0239 0C       		.uleb128 0xc
 4310 023a 03       		.uleb128 0x3
 4311 023b 0E       		.uleb128 0xe
 4312 023c 3A       		.uleb128 0x3a
 4313 023d 0B       		.uleb128 0xb
 4314 023e 3B       		.uleb128 0x3b
 4315 023f 0B       		.uleb128 0xb
 4316 0240 49       		.uleb128 0x49
 4317 0241 13       		.uleb128 0x13
 4318 0242 3C       		.uleb128 0x3c
 4319 0243 0C       		.uleb128 0xc
 4320 0244 00       		.byte	0x0
 4321 0245 00       		.byte	0x0
 4322 0246 2B       		.uleb128 0x2b
 4323 0247 0B       		.uleb128 0xb
 4324 0248 01       		.byte	0x1
 4325 0249 11       		.uleb128 0x11
 4326 024a 01       		.uleb128 0x1
 4327 024b 12       		.uleb128 0x12
 4328 024c 01       		.uleb128 0x1
 4329 024d 00       		.byte	0x0
 4330 024e 00       		.byte	0x0
 4331 024f 2C       		.uleb128 0x2c
 4332 0250 2E       		.uleb128 0x2e
 4333 0251 01       		.byte	0x1
 4334 0252 3F       		.uleb128 0x3f
 4335 0253 0C       		.uleb128 0xc
 4336 0254 03       		.uleb128 0x3
 4337 0255 0E       		.uleb128 0xe
 4338 0256 3A       		.uleb128 0x3a
 4339 0257 0B       		.uleb128 0xb
 4340 0258 3B       		.uleb128 0x3b
 4341 0259 05       		.uleb128 0x5
 4342 025a 27       		.uleb128 0x27
 4343 025b 0C       		.uleb128 0xc
 4344 025c 11       		.uleb128 0x11
 4345 025d 01       		.uleb128 0x1
 4346 025e 12       		.uleb128 0x12
 4347 025f 01       		.uleb128 0x1
 4348 0260 40       		.uleb128 0x40
 4349 0261 06       		.uleb128 0x6
 4350 0262 01       		.uleb128 0x1
 4351 0263 13       		.uleb128 0x13
 4352 0264 00       		.byte	0x0
ARM GAS  C:\Users\DNIEL~1\AppData\Local\Temp\cc7TYfMd.s 			page 79


 4353 0265 00       		.byte	0x0
 4354 0266 2D       		.uleb128 0x2d
 4355 0267 05       		.uleb128 0x5
 4356 0268 00       		.byte	0x0
 4357 0269 03       		.uleb128 0x3
 4358 026a 08       		.uleb128 0x8
 4359 026b 3A       		.uleb128 0x3a
 4360 026c 0B       		.uleb128 0xb
 4361 026d 3B       		.uleb128 0x3b
 4362 026e 05       		.uleb128 0x5
 4363 026f 49       		.uleb128 0x49
 4364 0270 13       		.uleb128 0x13
 4365 0271 02       		.uleb128 0x2
 4366 0272 06       		.uleb128 0x6
 4367 0273 00       		.byte	0x0
 4368 0274 00       		.byte	0x0
 4369 0275 2E       		.uleb128 0x2e
 4370 0276 05       		.uleb128 0x5
 4371 0277 00       		.byte	0x0
 4372 0278 03       		.uleb128 0x3
 4373 0279 0E       		.uleb128 0xe
 4374 027a 3A       		.uleb128 0x3a
 4375 027b 0B       		.uleb128 0xb
 4376 027c 3B       		.uleb128 0x3b
 4377 027d 05       		.uleb128 0x5
 4378 027e 49       		.uleb128 0x49
 4379 027f 13       		.uleb128 0x13
 4380 0280 02       		.uleb128 0x2
 4381 0281 06       		.uleb128 0x6
 4382 0282 00       		.byte	0x0
 4383 0283 00       		.byte	0x0
 4384 0284 2F       		.uleb128 0x2f
 4385 0285 34       		.uleb128 0x34
 4386 0286 00       		.byte	0x0
 4387 0287 03       		.uleb128 0x3
 4388 0288 0E       		.uleb128 0xe
 4389 0289 3A       		.uleb128 0x3a
 4390 028a 0B       		.uleb128 0xb
 4391 028b 3B       		.uleb128 0x3b
 4392 028c 05       		.uleb128 0x5
 4393 028d 49       		.uleb128 0x49
 4394 028e 13       		.uleb128 0x13
 4395 028f 02       		.uleb128 0x2
 4396 0290 06       		.uleb128 0x6
 4397 0291 00       		.byte	0x0
 4398 0292 00       		.byte	0x0
 4399 0293 30       		.uleb128 0x30
 4400 0294 0A       		.uleb128 0xa
 4401 0295 00       		.byte	0x0
 4402 0296 03       		.uleb128 0x3
 4403 0297 0E       		.uleb128 0xe
 4404 0298 3A       		.uleb128 0x3a
 4405 0299 0B       		.uleb128 0xb
 4406 029a 3B       		.uleb128 0x3b
 4407 029b 05       		.uleb128 0x5
 4408 029c 11       		.uleb128 0x11
 4409 029d 01       		.uleb128 0x1
ARM GAS  C:\Users\DNIEL~1\AppData\Local\Temp\cc7TYfMd.s 			page 80


 4410 029e 00       		.byte	0x0
 4411 029f 00       		.byte	0x0
 4412 02a0 31       		.uleb128 0x31
 4413 02a1 1D       		.uleb128 0x1d
 4414 02a2 00       		.byte	0x0
 4415 02a3 31       		.uleb128 0x31
 4416 02a4 13       		.uleb128 0x13
 4417 02a5 52       		.uleb128 0x52
 4418 02a6 01       		.uleb128 0x1
 4419 02a7 55       		.uleb128 0x55
 4420 02a8 06       		.uleb128 0x6
 4421 02a9 58       		.uleb128 0x58
 4422 02aa 0B       		.uleb128 0xb
 4423 02ab 59       		.uleb128 0x59
 4424 02ac 05       		.uleb128 0x5
 4425 02ad 00       		.byte	0x0
 4426 02ae 00       		.byte	0x0
 4427 02af 32       		.uleb128 0x32
 4428 02b0 34       		.uleb128 0x34
 4429 02b1 00       		.byte	0x0
 4430 02b2 03       		.uleb128 0x3
 4431 02b3 0E       		.uleb128 0xe
 4432 02b4 3A       		.uleb128 0x3a
 4433 02b5 0B       		.uleb128 0xb
 4434 02b6 3B       		.uleb128 0x3b
 4435 02b7 05       		.uleb128 0x5
 4436 02b8 49       		.uleb128 0x49
 4437 02b9 13       		.uleb128 0x13
 4438 02ba 3F       		.uleb128 0x3f
 4439 02bb 0C       		.uleb128 0xc
 4440 02bc 3C       		.uleb128 0x3c
 4441 02bd 0C       		.uleb128 0xc
 4442 02be 00       		.byte	0x0
 4443 02bf 00       		.byte	0x0
 4444 02c0 33       		.uleb128 0x33
 4445 02c1 34       		.uleb128 0x34
 4446 02c2 00       		.byte	0x0
 4447 02c3 03       		.uleb128 0x3
 4448 02c4 0E       		.uleb128 0xe
 4449 02c5 3A       		.uleb128 0x3a
 4450 02c6 0B       		.uleb128 0xb
 4451 02c7 3B       		.uleb128 0x3b
 4452 02c8 0B       		.uleb128 0xb
 4453 02c9 49       		.uleb128 0x49
 4454 02ca 13       		.uleb128 0x13
 4455 02cb 00       		.byte	0x0
 4456 02cc 00       		.byte	0x0
 4457 02cd 34       		.uleb128 0x34
 4458 02ce 34       		.uleb128 0x34
 4459 02cf 00       		.byte	0x0
 4460 02d0 03       		.uleb128 0x3
 4461 02d1 0E       		.uleb128 0xe
 4462 02d2 3A       		.uleb128 0x3a
 4463 02d3 0B       		.uleb128 0xb
 4464 02d4 3B       		.uleb128 0x3b
 4465 02d5 0B       		.uleb128 0xb
 4466 02d6 49       		.uleb128 0x49
ARM GAS  C:\Users\DNIEL~1\AppData\Local\Temp\cc7TYfMd.s 			page 81


 4467 02d7 13       		.uleb128 0x13
 4468 02d8 1C       		.uleb128 0x1c
 4469 02d9 0A       		.uleb128 0xa
 4470 02da 00       		.byte	0x0
 4471 02db 00       		.byte	0x0
 4472 02dc 35       		.uleb128 0x35
 4473 02dd 34       		.uleb128 0x34
 4474 02de 00       		.byte	0x0
 4475 02df 03       		.uleb128 0x3
 4476 02e0 0E       		.uleb128 0xe
 4477 02e1 3A       		.uleb128 0x3a
 4478 02e2 0B       		.uleb128 0xb
 4479 02e3 3B       		.uleb128 0x3b
 4480 02e4 0B       		.uleb128 0xb
 4481 02e5 49       		.uleb128 0x49
 4482 02e6 13       		.uleb128 0x13
 4483 02e7 02       		.uleb128 0x2
 4484 02e8 0A       		.uleb128 0xa
 4485 02e9 00       		.byte	0x0
 4486 02ea 00       		.byte	0x0
 4487 02eb 00       		.byte	0x0
 4488              		.section	.debug_pubnames,"",%progbits
 4489 0000 F3000000 		.4byte	0xf3
 4490 0004 0200     		.2byte	0x2
 4491 0006 00000000 		.4byte	.Ldebug_info0
 4492 000a 610C0000 		.4byte	0xc61
 4493 000e 2A070000 		.4byte	0x72a
 4494 0012 63727569 		.ascii	"cruiseInit\000"
 4494      7365496E 
 4494      697400
 4495 001d 3F070000 		.4byte	0x73f
 4496 0021 63727569 		.ascii	"cruiseEnable\000"
 4496      7365456E 
 4496      61626C65 
 4496      00
 4497 002e 4F070000 		.4byte	0x74f
 4498 0032 63727569 		.ascii	"cruiseDisable\000"
 4498      73654469 
 4498      7361626C 
 4498      6500
 4499 0040 5F070000 		.4byte	0x75f
 4500 0044 63727569 		.ascii	"cruiseStatus\000"
 4500      73655374 
 4500      61747573 
 4500      00
 4501 0051 77070000 		.4byte	0x777
 4502 0055 63727569 		.ascii	"cruiseIndicator\000"
 4502      7365496E 
 4502      64696361 
 4502      746F7200 
 4503 0065 8F070000 		.4byte	0x78f
 4504 0069 63727569 		.ascii	"cruiseIncrease\000"
 4504      7365496E 
 4504      63726561 
 4504      736500
 4505 0078 BF070000 		.4byte	0x7bf
 4506 007c 63727569 		.ascii	"cruiseReduction\000"
ARM GAS  C:\Users\DNIEL~1\AppData\Local\Temp\cc7TYfMd.s 			page 82


 4506      73655265 
 4506      64756374 
 4506      696F6E00 
 4507 008c E8070000 		.4byte	0x7e8
 4508 0090 63727569 		.ascii	"cruiseGet\000"
 4508      73654765 
 4508      7400
 4509 009a 01080000 		.4byte	0x801
 4510 009e 63727569 		.ascii	"cruisePID\000"
 4510      73655049 
 4510      4400
 4511 00a8 AC080000 		.4byte	0x8ac
 4512 00ac 63727569 		.ascii	"cruiseCalc\000"
 4512      73654361 
 4512      6C6300
 4513 00b7 F8080000 		.4byte	0x8f8
 4514 00bb 636D645F 		.ascii	"cmd_cruisevalues\000"
 4514      63727569 
 4514      73657661 
 4514      6C756573 
 4514      00
 4515 00cc 49090000 		.4byte	0x949
 4516 00d0 636D645F 		.ascii	"cmd_setcruisevalues\000"
 4516      73657463 
 4516      72756973 
 4516      6576616C 
 4516      75657300 
 4517 00e4 D0090000 		.4byte	0x9d0
 4518 00e8 636D645F 		.ascii	"cmd_cruise\000"
 4518      63727569 
 4518      736500
 4519 00f3 00000000 		.4byte	0x0
 4520              		.section	.debug_pubtypes,"",%progbits
 4521 0000 BF010000 		.4byte	0x1bf
 4522 0004 0200     		.2byte	0x2
 4523 0006 00000000 		.4byte	.Ldebug_info0
 4524 000a 610C0000 		.4byte	0xc61
 4525 000e 89000000 		.4byte	0x89
 4526 0012 73697A65 		.ascii	"size_t\000"
 4526      5F7400
 4527 0019 94000000 		.4byte	0x94
 4528 001d 75696E74 		.ascii	"uint8_t\000"
 4528      385F7400 
 4529 0025 9F000000 		.4byte	0x9f
 4530 0029 696E7431 		.ascii	"int16_t\000"
 4530      365F7400 
 4531 0031 AA000000 		.4byte	0xaa
 4532 0035 75696E74 		.ascii	"uint16_t\000"
 4532      31365F74 
 4532      00
 4533 003e B5000000 		.4byte	0xb5
 4534 0042 696E7433 		.ascii	"int32_t\000"
 4534      325F7400 
 4535 004a C0000000 		.4byte	0xc0
 4536 004e 75696E74 		.ascii	"uint32_t\000"
 4536      33325F74 
 4536      00
ARM GAS  C:\Users\DNIEL~1\AppData\Local\Temp\cc7TYfMd.s 			page 83


 4537 0057 CB000000 		.4byte	0xcb
 4538 005b 626F6F6C 		.ascii	"bool_t\000"
 4538      5F7400
 4539 0062 DD000000 		.4byte	0xdd
 4540 0066 6D73675F 		.ascii	"msg_t\000"
 4540      7400
 4541 006c E8000000 		.4byte	0xe8
 4542 0070 73797374 		.ascii	"systime_t\000"
 4542      696D655F 
 4542      7400
 4543 007a 14010000 		.4byte	0x114
 4544 007e 42617365 		.ascii	"BaseSequentialStreamVMT\000"
 4544      53657175 
 4544      656E7469 
 4544      616C5374 
 4544      7265616D 
 4545 0096 E1010000 		.4byte	0x1e1
 4546 009a 42617365 		.ascii	"BaseSequentialStream\000"
 4546      53657175 
 4546      656E7469 
 4546      616C5374 
 4546      7265616D 
 4547 00af 01020000 		.4byte	0x201
 4548 00b3 42617365 		.ascii	"BaseChannelVMT\000"
 4548      4368616E 
 4548      6E656C56 
 4548      4D5400
 4549 00c2 25030000 		.4byte	0x325
 4550 00c6 42617365 		.ascii	"BaseChannel\000"
 4550      4368616E 
 4550      6E656C00 
 4551 00d2 78040000 		.4byte	0x478
 4552 00d6 73746D33 		.ascii	"stm32_tim_t\000"
 4552      325F7469 
 4552      6D5F7400 
 4553 00e2 A5040000 		.4byte	0x4a5
 4554 00e6 70776D73 		.ascii	"pwmstate_t\000"
 4554      74617465 
 4554      5F7400
 4555 00f1 B0040000 		.4byte	0x4b0
 4556 00f5 50574D44 		.ascii	"PWMDriver\000"
 4556      72697665 
 4556      7200
 4557 00ff 14050000 		.4byte	0x514
 4558 0103 70776D63 		.ascii	"pwmcallback_t\000"
 4558      616C6C62 
 4558      61636B5F 
 4558      7400
 4559 0111 37050000 		.4byte	0x537
 4560 0115 70776D6D 		.ascii	"pwmmode_t\000"
 4560      6F64655F 
 4560      7400
 4561 011f 43050000 		.4byte	0x543
 4562 0123 70776D63 		.ascii	"pwmcnt_t\000"
 4562      6E745F74 
 4562      00
 4563 012c 77050000 		.4byte	0x577
ARM GAS  C:\Users\DNIEL~1\AppData\Local\Temp\cc7TYfMd.s 			page 84


 4564 0130 50574D43 		.ascii	"PWMChannelConfig\000"
 4564      68616E6E 
 4564      656C436F 
 4564      6E666967 
 4564      00
 4565 0141 F7050000 		.4byte	0x5f7
 4566 0145 50574D43 		.ascii	"PWMConfig\000"
 4566      6F6E6669 
 4566      6700
 4567 014f BB040000 		.4byte	0x4bb
 4568 0153 50574D44 		.ascii	"PWMDriver\000"
 4568      72697665 
 4568      7200
 4569 015d 19060000 		.4byte	0x619
 4570 0161 5F5F7661 		.ascii	"__va_list\000"
 4570      5F6C6973 
 4570      7400
 4571 016b 0E060000 		.4byte	0x60e
 4572 016f 5F5F676E 		.ascii	"__gnuc_va_list\000"
 4572      75635F76 
 4572      615F6C69 
 4572      737400
 4573 017e 33060000 		.4byte	0x633
 4574 0182 76615F6C 		.ascii	"va_list\000"
 4574      69737400 
 4575 018a 3E060000 		.4byte	0x63e
 4576 018e 65657072 		.ascii	"eepromItemNames\000"
 4576      6F6D4974 
 4576      656D4E61 
 4576      6D657300 
 4577 019e 69060000 		.4byte	0x669
 4578 01a2 65657072 		.ascii	"eepromItem\000"
 4578      6F6D4974 
 4578      656D00
 4579 01ad AD060000 		.4byte	0x6ad
 4580 01b1 6D656173 		.ascii	"measChannels2\000"
 4580      4368616E 
 4580      6E656C73 
 4580      3200
 4581 01bf 00000000 		.4byte	0x0
 4582              		.section	.debug_aranges,"",%progbits
 4583 0000 84000000 		.4byte	0x84
 4584 0004 0200     		.2byte	0x2
 4585 0006 00000000 		.4byte	.Ldebug_info0
 4586 000a 04       		.byte	0x4
 4587 000b 00       		.byte	0x0
 4588 000c 0000     		.2byte	0x0
 4589 000e 0000     		.2byte	0x0
 4590 0010 00000000 		.4byte	.LFB118
 4591 0014 1E000000 		.4byte	.LFE118-.LFB118
 4592 0018 00000000 		.4byte	.LFB119
 4593 001c EC000000 		.4byte	.LFE119-.LFB119
 4594 0020 00000000 		.4byte	.LFB121
 4595 0024 18000000 		.4byte	.LFE121-.LFB121
 4596 0028 00000000 		.4byte	.LFB122
 4597 002c 0C000000 		.4byte	.LFE122-.LFB122
 4598 0030 00000000 		.4byte	.LFB123
ARM GAS  C:\Users\DNIEL~1\AppData\Local\Temp\cc7TYfMd.s 			page 85


 4599 0034 0C000000 		.4byte	.LFE123-.LFB123
 4600 0038 00000000 		.4byte	.LFB124
 4601 003c 0C000000 		.4byte	.LFE124-.LFB124
 4602 0040 00000000 		.4byte	.LFB125
 4603 0044 54000000 		.4byte	.LFE125-.LFB125
 4604 0048 00000000 		.4byte	.LFB126
 4605 004c 2C000000 		.4byte	.LFE126-.LFB126
 4606 0050 00000000 		.4byte	.LFB127
 4607 0054 18000000 		.4byte	.LFE127-.LFB127
 4608 0058 00000000 		.4byte	.LFB128
 4609 005c A4010000 		.4byte	.LFE128-.LFB128
 4610 0060 00000000 		.4byte	.LFB120
 4611 0064 10020000 		.4byte	.LFE120-.LFB120
 4612 0068 00000000 		.4byte	.LFB129
 4613 006c 5C010000 		.4byte	.LFE129-.LFB129
 4614 0070 00000000 		.4byte	.LFB130
 4615 0074 0C020000 		.4byte	.LFE130-.LFB130
 4616 0078 00000000 		.4byte	.LFB131
 4617 007c A8000000 		.4byte	.LFE131-.LFB131
 4618 0080 00000000 		.4byte	0x0
 4619 0084 00000000 		.4byte	0x0
 4620              		.section	.debug_ranges,"",%progbits
 4621              	.Ldebug_ranges0:
 4622 0000 34000000 		.4byte	.LBB10
 4623 0004 9C000000 		.4byte	.LBE10
 4624 0008 A2000000 		.4byte	.LBB11
 4625 000c A6000000 		.4byte	.LBE11
 4626 0010 00000000 		.4byte	0x0
 4627 0014 00000000 		.4byte	0x0
 4628 0018 AE000000 		.4byte	.LBB13
 4629 001c B0000000 		.4byte	.LBE13
 4630 0020 B2000000 		.4byte	.LBB16
 4631 0024 B4000000 		.4byte	.LBE16
 4632 0028 00000000 		.4byte	0x0
 4633 002c 00000000 		.4byte	0x0
 4634 0030 F6000000 		.4byte	.LBB17
 4635 0034 FA000000 		.4byte	.LBE17
 4636 0038 FC000000 		.4byte	.LBB20
 4637 003c 00010000 		.4byte	.LBE20
 4638 0040 00000000 		.4byte	0x0
 4639 0044 00000000 		.4byte	0x0
 4640 0048 56000000 		.4byte	.LBB21
 4641 004c 58000000 		.4byte	.LBE21
 4642 0050 5A000000 		.4byte	.LBB24
 4643 0054 5C000000 		.4byte	.LBE24
 4644 0058 00000000 		.4byte	0x0
 4645 005c 00000000 		.4byte	0x0
 4646 0060 66000000 		.4byte	.LBB25
 4647 0064 6C000000 		.4byte	.LBE25
 4648 0068 6E000000 		.4byte	.LBB28
 4649 006c 70000000 		.4byte	.LBE28
 4650 0070 00000000 		.4byte	0x0
 4651 0074 00000000 		.4byte	0x0
 4652 0078 00000000 		.4byte	.LFB118
 4653 007c 1E000000 		.4byte	.LFE118
 4654 0080 00000000 		.4byte	.LFB119
 4655 0084 EC000000 		.4byte	.LFE119
ARM GAS  C:\Users\DNIEL~1\AppData\Local\Temp\cc7TYfMd.s 			page 86


 4656 0088 00000000 		.4byte	.LFB121
 4657 008c 18000000 		.4byte	.LFE121
 4658 0090 00000000 		.4byte	.LFB122
 4659 0094 0C000000 		.4byte	.LFE122
 4660 0098 00000000 		.4byte	.LFB123
 4661 009c 0C000000 		.4byte	.LFE123
 4662 00a0 00000000 		.4byte	.LFB124
 4663 00a4 0C000000 		.4byte	.LFE124
 4664 00a8 00000000 		.4byte	.LFB125
 4665 00ac 54000000 		.4byte	.LFE125
 4666 00b0 00000000 		.4byte	.LFB126
 4667 00b4 2C000000 		.4byte	.LFE126
 4668 00b8 00000000 		.4byte	.LFB127
 4669 00bc 18000000 		.4byte	.LFE127
 4670 00c0 00000000 		.4byte	.LFB128
 4671 00c4 A4010000 		.4byte	.LFE128
 4672 00c8 00000000 		.4byte	.LFB120
 4673 00cc 10020000 		.4byte	.LFE120
 4674 00d0 00000000 		.4byte	.LFB129
 4675 00d4 5C010000 		.4byte	.LFE129
 4676 00d8 00000000 		.4byte	.LFB130
 4677 00dc 0C020000 		.4byte	.LFE130
 4678 00e0 00000000 		.4byte	.LFB131
 4679 00e4 A8000000 		.4byte	.LFE131
 4680 00e8 00000000 		.4byte	0x0
 4681 00ec 00000000 		.4byte	0x0
 4682              		.section	.debug_str,"MS",%progbits,1
 4683              	.LASF31:
 4684 0000 44494552 		.ascii	"DIER\000"
 4684      00
 4685              	.LASF10:
 4686 0005 73697A65 		.ascii	"size_t\000"
 4686      5F7400
 4687              	.LASF91:
 4688 000c 63727569 		.ascii	"cruiseCalc\000"
 4688      73654361 
 4688      6C6300
 4689              	.LASF97:
 4690 0017 737A616D 		.ascii	"szam\000"
 4690      00
 4691              	.LASF106:
 4692 001c 4D41585F 		.ascii	"MAX_D\000"
 4692      4400
 4693              	.LASF37:
 4694 0022 43434D52 		.ascii	"CCMR3\000"
 4694      3300
 4695              	.LASF7:
 4696 0028 6C6F6E67 		.ascii	"long int\000"
 4696      20696E74 
 4696      00
 4697              	.LASF48:
 4698 0031 70657269 		.ascii	"period\000"
 4698      6F6400
 4699              	.LASF6:
 4700 0038 6C6F6E67 		.ascii	"long long unsigned int\000"
 4700      206C6F6E 
 4700      6720756E 
ARM GAS  C:\Users\DNIEL~1\AppData\Local\Temp\cc7TYfMd.s 			page 87


 4700      7369676E 
 4700      65642069 
 4701              	.LASF24:
 4702 004f 42617365 		.ascii	"BaseChannelVMT\000"
 4702      4368616E 
 4702      6E656C56 
 4702      4D5400
 4703              	.LASF39:
 4704 005e 43435236 		.ascii	"CCR6\000"
 4704      00
 4705              	.LASF100:
 4706 0063 49544D5F 		.ascii	"ITM_RxBuffer\000"
 4706      52784275 
 4706      66666572 
 4706      00
 4707              	.LASF35:
 4708 0070 42445452 		.ascii	"BDTR\000"
 4708      00
 4709              	.LASF56:
 4710 0075 66726571 		.ascii	"frequency\000"
 4710      75656E63 
 4710      7900
 4711              	.LASF43:
 4712 007f 50574D5F 		.ascii	"PWM_READY\000"
 4712      52454144 
 4712      5900
 4713              	.LASF12:
 4714 0089 696E7431 		.ascii	"int16_t\000"
 4714      365F7400 
 4715              	.LASF33:
 4716 0091 43434D52 		.ascii	"CCMR2\000"
 4716      3200
 4717              	.LASF30:
 4718 0097 534D4352 		.ascii	"SMCR\000"
 4718      00
 4719              	.LASF0:
 4720 009c 7369676E 		.ascii	"signed char\000"
 4720      65642063 
 4720      68617200 
 4721              	.LASF40:
 4722 00a8 73746D33 		.ascii	"stm32_tim_t\000"
 4722      325F7469 
 4722      6D5F7400 
 4723              	.LASF16:
 4724 00b4 626F6F6C 		.ascii	"bool_t\000"
 4724      5F7400
 4725              	.LASF92:
 4726 00bb 6D656173 		.ascii	"measGetValue_2\000"
 4726      47657456 
 4726      616C7565 
 4726      5F3200
 4727              	.LASF120:
 4728 00ca 433A5C44 		.ascii	"C:\\Dani\\MegaLux\\Repo\\Smarty\\Smarty\\smarty\\fi"
 4728      616E695C 
 4728      4D656761 
 4728      4C75785C 
 4728      5265706F 
ARM GAS  C:\Users\DNIEL~1\AppData\Local\Temp\cc7TYfMd.s 			page 88


 4729 00f6 726D7761 		.ascii	"rmware\000"
 4729      726500
 4730              	.LASF46:
 4731 00fd 73746174 		.ascii	"state\000"
 4731      6500
 4732              	.LASF57:
 4733 0103 6368616E 		.ascii	"channels\000"
 4733      6E656C73 
 4733      00
 4734              	.LASF74:
 4735 010c 4D454153 		.ascii	"MEAS2_CURR1\000"
 4735      325F4355 
 4735      52523100 
 4736              	.LASF26:
 4737 0118 67657474 		.ascii	"gett\000"
 4737      00
 4738              	.LASF61:
 4739 011d 5F5F7661 		.ascii	"__va_list\000"
 4739      5F6C6973 
 4739      7400
 4740              	.LASF34:
 4741 0127 43434552 		.ascii	"CCER\000"
 4741      00
 4742              	.LASF5:
 4743 012c 6C6F6E67 		.ascii	"long long int\000"
 4743      206C6F6E 
 4743      6720696E 
 4743      7400
 4744              	.LASF13:
 4745 013a 75696E74 		.ascii	"uint16_t\000"
 4745      31365F74 
 4745      00
 4746              	.LASF65:
 4747 0143 4D41585F 		.ascii	"MAX_THROTTLE\000"
 4747      5448524F 
 4747      54544C45 
 4747      00
 4748              	.LASF101:
 4749 0150 50574D44 		.ascii	"PWMD5\000"
 4749      3500
 4750              	.LASF77:
 4751 0156 63727569 		.ascii	"cruiseEnable\000"
 4751      7365456E 
 4751      61626C65 
 4751      00
 4752              	.LASF62:
 4753 0163 76615F6C 		.ascii	"va_list\000"
 4753      69737400 
 4754              	.LASF110:
 4755 016b 63727569 		.ascii	"cruise_indicator_index\000"
 4755      73655F69 
 4755      6E646963 
 4755      61746F72 
 4755      5F696E64 
 4756              	.LASF22:
 4757 0182 42617365 		.ascii	"BaseSequentialStream\000"
 4757      53657175 
ARM GAS  C:\Users\DNIEL~1\AppData\Local\Temp\cc7TYfMd.s 			page 89


 4757      656E7469 
 4757      616C5374 
 4757      7265616D 
 4758              	.LASF4:
 4759 0197 756E7369 		.ascii	"unsigned int\000"
 4759      676E6564 
 4759      20696E74 
 4759      00
 4760              	.LASF66:
 4761 01a4 4C415354 		.ascii	"LAST_ITEM\000"
 4761      5F495445 
 4761      4D00
 4762              	.LASF108:
 4763 01ae 63727569 		.ascii	"cruise_on\000"
 4763      73655F6F 
 4763      6E00
 4764              	.LASF8:
 4765 01b8 6C6F6E67 		.ascii	"long unsigned int\000"
 4765      20756E73 
 4765      69676E65 
 4765      6420696E 
 4765      7400
 4766              	.LASF117:
 4767 01ca 63727569 		.ascii	"cruise_pwmcfg\000"
 4767      73655F70 
 4767      776D6366 
 4767      6700
 4768              	.LASF103:
 4769 01d8 4D494E5F 		.ascii	"MIN_U\000"
 4769      5500
 4770              	.LASF98:
 4771 01de 636D645F 		.ascii	"cmd_cruise\000"
 4771      63727569 
 4771      736500
 4772              	.LASF51:
 4773 01e9 70776D6D 		.ascii	"pwmmode_t\000"
 4773      6F64655F 
 4773      7400
 4774              	.LASF84:
 4775 01f3 63727569 		.ascii	"cruiseGet\000"
 4775      73654765 
 4775      7400
 4776              	.LASF71:
 4777 01fd 6E616D65 		.ascii	"name\000"
 4777      00
 4778              	.LASF112:
 4779 0202 65657072 		.ascii	"eepromitems\000"
 4779      6F6D6974 
 4779      656D7300 
 4780              	.LASF70:
 4781 020e 73697A65 		.ascii	"size\000"
 4781      00
 4782              	.LASF3:
 4783 0213 73686F72 		.ascii	"short unsigned int\000"
 4783      7420756E 
 4783      7369676E 
 4783      65642069 
ARM GAS  C:\Users\DNIEL~1\AppData\Local\Temp\cc7TYfMd.s 			page 90


 4783      6E7400
 4784              	.LASF89:
 4785 0226 4D617849 		.ascii	"MaxI\000"
 4785      00
 4786              	.LASF96:
 4787 022b 636D645F 		.ascii	"cmd_setcruisevalues\000"
 4787      73657463 
 4787      72756973 
 4787      6576616C 
 4787      75657300 
 4788              	.LASF18:
 4789 023f 6D73675F 		.ascii	"msg_t\000"
 4789      7400
 4790              	.LASF105:
 4791 0245 4D41585F 		.ascii	"MAX_I\000"
 4791      4900
 4792              	.LASF54:
 4793 024b 63616C6C 		.ascii	"callback\000"
 4793      6261636B 
 4793      00
 4794              	.LASF27:
 4795 0254 77726974 		.ascii	"writet\000"
 4795      657400
 4796              	.LASF104:
 4797 025b 4D41585F 		.ascii	"MAX_P\000"
 4797      5000
 4798              	.LASF102:
 4799 0261 4D41585F 		.ascii	"MAX_U\000"
 4799      5500
 4800              	.LASF78:
 4801 0267 63727569 		.ascii	"cruiseDisable\000"
 4801      73654469 
 4801      7361626C 
 4801      6500
 4802              	.LASF20:
 4803 0275 77726974 		.ascii	"write\000"
 4803      6500
 4804              	.LASF25:
 4805 027b 70757474 		.ascii	"putt\000"
 4805      00
 4806              	.LASF68:
 4807 0280 65657072 		.ascii	"eepromItem\000"
 4807      6F6D4974 
 4807      656D00
 4808              	.LASF90:
 4809 028b 4D617844 		.ascii	"MaxD\000"
 4809      00
 4810              	.LASF99:
 4811 0290 4552524F 		.ascii	"ERROR\000"
 4811      5200
 4812              	.LASF69:
 4813 0296 61646472 		.ascii	"address\000"
 4813      65737300 
 4814              	.LASF60:
 4815 029e 5F5F676E 		.ascii	"__gnuc_va_list\000"
 4815      75635F76 
 4815      615F6C69 
ARM GAS  C:\Users\DNIEL~1\AppData\Local\Temp\cc7TYfMd.s 			page 91


 4815      737400
 4816              	.LASF88:
 4817 02ad 4D617850 		.ascii	"MaxP\000"
 4817      00
 4818              	.LASF67:
 4819 02b2 45455052 		.ascii	"EEPROM_ITEMS_NUM\000"
 4819      4F4D5F49 
 4819      54454D53 
 4819      5F4E554D 
 4819      00
 4820              	.LASF86:
 4821 02c3 4D617855 		.ascii	"MaxU\000"
 4821      00
 4822              	.LASF113:
 4823 02c8 70657269 		.ascii	"period_null\000"
 4823      6F645F6E 
 4823      756C6C00 
 4824              	.LASF36:
 4825 02d4 444D4152 		.ascii	"DMAR\000"
 4825      00
 4826              	.LASF119:
 4827 02d9 7372632F 		.ascii	"src/cruise.c\000"
 4827      63727569 
 4827      73652E63 
 4827      00
 4828              	.LASF85:
 4829 02e6 496E7075 		.ascii	"Input\000"
 4829      7400
 4830              	.LASF50:
 4831 02ec 70776D63 		.ascii	"pwmcallback_t\000"
 4831      616C6C62 
 4831      61636B5F 
 4831      7400
 4832              	.LASF72:
 4833 02fa 65657072 		.ascii	"eepromItemNames\000"
 4833      6F6D4974 
 4833      656D4E61 
 4833      6D657300 
 4834              	.LASF114:
 4835 030a 6F6C645F 		.ascii	"old_set\000"
 4835      73657400 
 4836              	.LASF17:
 4837 0312 5F426F6F 		.ascii	"_Bool\000"
 4837      6C00
 4838              	.LASF14:
 4839 0318 696E7433 		.ascii	"int32_t\000"
 4839      325F7400 
 4840              	.LASF1:
 4841 0320 756E7369 		.ascii	"unsigned char\000"
 4841      676E6564 
 4841      20636861 
 4841      7200
 4842              	.LASF64:
 4843 032e 4D494E5F 		.ascii	"MIN_THROTTLE\000"
 4843      5448524F 
 4843      54544C45 
 4843      00
ARM GAS  C:\Users\DNIEL~1\AppData\Local\Temp\cc7TYfMd.s 			page 92


 4844              	.LASF87:
 4845 033b 4D696E55 		.ascii	"MinU\000"
 4845      00
 4846              	.LASF123:
 4847 0340 63727569 		.ascii	"cruiseInit\000"
 4847      7365496E 
 4847      697400
 4848              	.LASF2:
 4849 034b 73686F72 		.ascii	"short int\000"
 4849      7420696E 
 4849      7400
 4850              	.LASF23:
 4851 0355 42617365 		.ascii	"BaseSequentialStreamVMT\000"
 4851      53657175 
 4851      656E7469 
 4851      616C5374 
 4851      7265616D 
 4852              	.LASF93:
 4853 036d 636D645F 		.ascii	"cmd_cruisevalues\000"
 4853      63727569 
 4853      73657661 
 4853      6C756573 
 4853      00
 4854              	.LASF80:
 4855 037e 63727569 		.ascii	"cruiseIndicator\000"
 4855      7365496E 
 4855      64696361 
 4855      746F7200 
 4856              	.LASF15:
 4857 038e 75696E74 		.ascii	"uint32_t\000"
 4857      33325F74 
 4857      00
 4858              	.LASF83:
 4859 0397 63727569 		.ascii	"cruiseReduction\000"
 4859      73655265 
 4859      64756374 
 4859      696F6E00 
 4860              	.LASF59:
 4861 03a7 50574D43 		.ascii	"PWMConfig\000"
 4861      6F6E6669 
 4861      6700
 4862              	.LASF42:
 4863 03b1 50574D5F 		.ascii	"PWM_STOP\000"
 4863      53544F50 
 4863      00
 4864              	.LASF9:
 4865 03ba 63686172 		.ascii	"char\000"
 4865      00
 4866              	.LASF53:
 4867 03bf 6D6F6465 		.ascii	"mode\000"
 4867      00
 4868              	.LASF82:
 4869 03c4 63727569 		.ascii	"cruiseIncrease\000"
 4869      7365496E 
 4869      63726561 
 4869      736500
 4870              	.LASF47:
ARM GAS  C:\Users\DNIEL~1\AppData\Local\Temp\cc7TYfMd.s 			page 93


 4871 03d3 636F6E66 		.ascii	"config\000"
 4871      696700
 4872              	.LASF63:
 4873 03da 43525549 		.ascii	"CRUISE_CONTROLL\000"
 4873      53455F43 
 4873      4F4E5452 
 4873      4F4C4C00 
 4874              	.LASF73:
 4875 03ea 6D656173 		.ascii	"measChannels2\000"
 4875      4368616E 
 4875      6E656C73 
 4875      3200
 4876              	.LASF19:
 4877 03f8 73797374 		.ascii	"systime_t\000"
 4877      696D655F 
 4877      7400
 4878              	.LASF116:
 4879 0402 65657072 		.ascii	"eeprom_write\000"
 4879      6F6D5F77 
 4879      72697465 
 4879      00
 4880              	.LASF76:
 4881 040f 4D454153 		.ascii	"MEAS2_NUM_CH\000"
 4881      325F4E55 
 4881      4D5F4348 
 4881      00
 4882              	.LASF121:
 4883 041c 5F5F6170 		.ascii	"__ap\000"
 4883      00
 4884              	.LASF32:
 4885 0421 43434D52 		.ascii	"CCMR1\000"
 4885      3100
 4886              	.LASF111:
 4887 0427 63727569 		.ascii	"cruise_disable_period\000"
 4887      73655F64 
 4887      69736162 
 4887      6C655F70 
 4887      6572696F 
 4888              	.LASF55:
 4889 043d 50574D43 		.ascii	"PWMChannelConfig\000"
 4889      68616E6E 
 4889      656C436F 
 4889      6E666967 
 4889      00
 4890              	.LASF38:
 4891 044e 43435235 		.ascii	"CCR5\000"
 4891      00
 4892              	.LASF107:
 4893 0453 65656C6F 		.ascii	"eelozo\000"
 4893      7A6F00
 4894              	.LASF11:
 4895 045a 75696E74 		.ascii	"uint8_t\000"
 4895      385F7400 
 4896              	.LASF45:
 4897 0462 50574D44 		.ascii	"PWMDriver\000"
 4897      72697665 
 4897      7200
ARM GAS  C:\Users\DNIEL~1\AppData\Local\Temp\cc7TYfMd.s 			page 94


 4898              	.LASF28:
 4899 046c 72656164 		.ascii	"readt\000"
 4899      7400
 4900              	.LASF29:
 4901 0472 42617365 		.ascii	"BaseChannel\000"
 4901      4368616E 
 4901      6E656C00 
 4902              	.LASF44:
 4903 047e 70776D73 		.ascii	"pwmstate_t\000"
 4903      74617465 
 4903      5F7400
 4904              	.LASF52:
 4905 0489 70776D63 		.ascii	"pwmcnt_t\000"
 4905      6E745F74 
 4905      00
 4906              	.LASF21:
 4907 0492 72656164 		.ascii	"read\000"
 4907      00
 4908              	.LASF118:
 4909 0497 474E5520 		.ascii	"GNU C 4.5.2\000"
 4909      4320342E 
 4909      352E3200 
 4910              	.LASF79:
 4911 04a3 63727569 		.ascii	"cruiseStatus\000"
 4911      73655374 
 4911      61747573 
 4911      00
 4912              	.LASF94:
 4913 04b0 61726763 		.ascii	"argc\000"
 4913      00
 4914              	.LASF109:
 4915 04b5 63727569 		.ascii	"cruise_indicator\000"
 4915      73655F69 
 4915      6E646963 
 4915      61746F72 
 4915      00
 4916              	.LASF49:
 4917 04c6 636C6F63 		.ascii	"clock\000"
 4917      6B00
 4918              	.LASF75:
 4919 04cc 4D454153 		.ascii	"MEAS2_THROTTLE\000"
 4919      325F5448 
 4919      524F5454 
 4919      4C4500
 4920              	.LASF115:
 4921 04db 65657072 		.ascii	"eeprom_read_period\000"
 4921      6F6D5F72 
 4921      6561645F 
 4921      70657269 
 4921      6F6400
 4922              	.LASF95:
 4923 04ee 61726776 		.ascii	"argv\000"
 4923      00
 4924              	.LASF124:
 4925 04f3 63727569 		.ascii	"cruisePID\000"
 4925      73655049 
 4925      4400
ARM GAS  C:\Users\DNIEL~1\AppData\Local\Temp\cc7TYfMd.s 			page 95


 4926              	.LASF41:
 4927 04fd 50574D5F 		.ascii	"PWM_UNINIT\000"
 4927      554E494E 
 4927      495400
 4928              	.LASF81:
 4929 0508 646F7562 		.ascii	"double\000"
 4929      6C6500
 4930              	.LASF58:
 4931 050f 64696572 		.ascii	"dier\000"
 4931      00
 4932              	.LASF122:
 4933 0514 63687072 		.ascii	"chprintf\000"
 4933      696E7466 
 4933      00
 4934              		.ident	"GCC: (Sourcery G++ Lite 2011.03-42) 4.5.2"
ARM GAS  C:\Users\DNIEL~1\AppData\Local\Temp\cc7TYfMd.s 			page 96


DEFINED SYMBOLS
                            *ABS*:00000000 cruise.c
C:\Users\DNIEL~1\AppData\Local\Temp\cc7TYfMd.s:24     .text.chprintf:00000000 $t
C:\Users\DNIEL~1\AppData\Local\Temp\cc7TYfMd.s:29     .text.chprintf:00000000 chprintf
C:\Users\DNIEL~1\AppData\Local\Temp\cc7TYfMd.s:69     .text.cruiseInit:00000000 $t
C:\Users\DNIEL~1\AppData\Local\Temp\cc7TYfMd.s:75     .text.cruiseInit:00000000 cruiseInit
C:\Users\DNIEL~1\AppData\Local\Temp\cc7TYfMd.s:189    .text.cruiseInit:00000098 $d
C:\Users\DNIEL~1\AppData\Local\Temp\cc7TYfMd.s:214    .text.cruiseEnable:00000000 $t
C:\Users\DNIEL~1\AppData\Local\Temp\cc7TYfMd.s:220    .text.cruiseEnable:00000000 cruiseEnable
C:\Users\DNIEL~1\AppData\Local\Temp\cc7TYfMd.s:244    .text.cruiseEnable:00000010 $d
C:\Users\DNIEL~1\AppData\Local\Temp\cc7TYfMd.s:250    .text.cruiseDisable:00000000 $t
C:\Users\DNIEL~1\AppData\Local\Temp\cc7TYfMd.s:256    .text.cruiseDisable:00000000 cruiseDisable
C:\Users\DNIEL~1\AppData\Local\Temp\cc7TYfMd.s:272    .text.cruiseDisable:00000008 $d
C:\Users\DNIEL~1\AppData\Local\Temp\cc7TYfMd.s:277    .text.cruiseStatus:00000000 $t
C:\Users\DNIEL~1\AppData\Local\Temp\cc7TYfMd.s:283    .text.cruiseStatus:00000000 cruiseStatus
C:\Users\DNIEL~1\AppData\Local\Temp\cc7TYfMd.s:298    .text.cruiseStatus:00000008 $d
C:\Users\DNIEL~1\AppData\Local\Temp\cc7TYfMd.s:303    .text.cruiseIndicator:00000000 $t
C:\Users\DNIEL~1\AppData\Local\Temp\cc7TYfMd.s:309    .text.cruiseIndicator:00000000 cruiseIndicator
C:\Users\DNIEL~1\AppData\Local\Temp\cc7TYfMd.s:324    .text.cruiseIndicator:00000008 $d
C:\Users\DNIEL~1\AppData\Local\Temp\cc7TYfMd.s:332    .text.cruiseIncrease:00000000 $t
C:\Users\DNIEL~1\AppData\Local\Temp\cc7TYfMd.s:338    .text.cruiseIncrease:00000000 cruiseIncrease
C:\Users\DNIEL~1\AppData\Local\Temp\cc7TYfMd.s:393    .text.cruiseIncrease:00000048 $d
C:\Users\DNIEL~1\AppData\Local\Temp\cc7TYfMd.s:401    .text.cruiseReduction:00000000 $t
C:\Users\DNIEL~1\AppData\Local\Temp\cc7TYfMd.s:407    .text.cruiseReduction:00000000 cruiseReduction
C:\Users\DNIEL~1\AppData\Local\Temp\cc7TYfMd.s:443    .text.cruiseReduction:00000028 $d
C:\Users\DNIEL~1\AppData\Local\Temp\cc7TYfMd.s:448    .text.cruiseGet:00000000 $t
C:\Users\DNIEL~1\AppData\Local\Temp\cc7TYfMd.s:454    .text.cruiseGet:00000000 cruiseGet
C:\Users\DNIEL~1\AppData\Local\Temp\cc7TYfMd.s:476    .text.cruiseGet:00000014 $d
C:\Users\DNIEL~1\AppData\Local\Temp\cc7TYfMd.s:484    .text.cruisePID:00000000 $t
C:\Users\DNIEL~1\AppData\Local\Temp\cc7TYfMd.s:490    .text.cruisePID:00000000 cruisePID
C:\Users\DNIEL~1\AppData\Local\Temp\cc7TYfMd.s:692    .text.cruisePID:0000018c $d
C:\Users\DNIEL~1\AppData\Local\Temp\cc7TYfMd.s:702    .text.cruiseCalc:00000000 $t
C:\Users\DNIEL~1\AppData\Local\Temp\cc7TYfMd.s:708    .text.cruiseCalc:00000000 cruiseCalc
C:\Users\DNIEL~1\AppData\Local\Temp\cc7TYfMd.s:971    .text.cruiseCalc:000001b0 $d
C:\Users\DNIEL~1\AppData\Local\Temp\cc7TYfMd.s:999    .text.cmd_cruisevalues:00000000 $t
C:\Users\DNIEL~1\AppData\Local\Temp\cc7TYfMd.s:1005   .text.cmd_cruisevalues:00000000 cmd_cruisevalues
C:\Users\DNIEL~1\AppData\Local\Temp\cc7TYfMd.s:1146   .text.cmd_cruisevalues:000000fc $d
C:\Users\DNIEL~1\AppData\Local\Temp\cc7TYfMd.s:1174   .text.cmd_setcruisevalues:00000000 $t
C:\Users\DNIEL~1\AppData\Local\Temp\cc7TYfMd.s:1180   .text.cmd_setcruisevalues:00000000 cmd_setcruisevalues
C:\Users\DNIEL~1\AppData\Local\Temp\cc7TYfMd.s:1462   .text.cmd_setcruisevalues:000001a0 $d
C:\Users\DNIEL~1\AppData\Local\Temp\cc7TYfMd.s:1493   .text.cmd_cruise:00000000 $t
C:\Users\DNIEL~1\AppData\Local\Temp\cc7TYfMd.s:1499   .text.cmd_cruise:00000000 cmd_cruise
C:\Users\DNIEL~1\AppData\Local\Temp\cc7TYfMd.s:1613   .text.cmd_cruise:0000007c $d
C:\Users\DNIEL~1\AppData\Local\Temp\cc7TYfMd.s:1628   .bss.cruise_indicator_index:00000000 $d
C:\Users\DNIEL~1\AppData\Local\Temp\cc7TYfMd.s:1632   .bss.cruise_indicator_index:00000000 cruise_indicator_index
C:\Users\DNIEL~1\AppData\Local\Temp\cc7TYfMd.s:1635   .bss.P:00000000 $d
C:\Users\DNIEL~1\AppData\Local\Temp\cc7TYfMd.s:1639   .bss.P:00000000 P
C:\Users\DNIEL~1\AppData\Local\Temp\cc7TYfMd.s:1645   .bss.cruise_indicator:00000000 cruise_indicator
C:\Users\DNIEL~1\AppData\Local\Temp\cc7TYfMd.s:1646   .bss.cruise_indicator:00000000 $d
C:\Users\DNIEL~1\AppData\Local\Temp\cc7TYfMd.s:1648   .data.K_D:00000000 $d
C:\Users\DNIEL~1\AppData\Local\Temp\cc7TYfMd.s:1652   .data.K_D:00000000 K_D
C:\Users\DNIEL~1\AppData\Local\Temp\cc7TYfMd.s:1655   .data.K_P:00000000 $d
C:\Users\DNIEL~1\AppData\Local\Temp\cc7TYfMd.s:1659   .data.K_P:00000000 K_P
C:\Users\DNIEL~1\AppData\Local\Temp\cc7TYfMd.s:1665   .bss.eeprom_write:00000000 eeprom_write
C:\Users\DNIEL~1\AppData\Local\Temp\cc7TYfMd.s:1666   .bss.eeprom_write:00000000 $d
C:\Users\DNIEL~1\AppData\Local\Temp\cc7TYfMd.s:1668   .bss.U:00000000 $d
C:\Users\DNIEL~1\AppData\Local\Temp\cc7TYfMd.s:1672   .bss.U:00000000 U
ARM GAS  C:\Users\DNIEL~1\AppData\Local\Temp\cc7TYfMd.s 			page 97


C:\Users\DNIEL~1\AppData\Local\Temp\cc7TYfMd.s:1675   .bss.set:00000000 $d
C:\Users\DNIEL~1\AppData\Local\Temp\cc7TYfMd.s:1679   .bss.set:00000000 set
C:\Users\DNIEL~1\AppData\Local\Temp\cc7TYfMd.s:1682   .data.K_I:00000000 $d
C:\Users\DNIEL~1\AppData\Local\Temp\cc7TYfMd.s:1686   .data.K_I:00000000 K_I
C:\Users\DNIEL~1\AppData\Local\Temp\cc7TYfMd.s:1689   .bss.old_set:00000000 $d
C:\Users\DNIEL~1\AppData\Local\Temp\cc7TYfMd.s:1693   .bss.old_set:00000000 old_set
C:\Users\DNIEL~1\AppData\Local\Temp\cc7TYfMd.s:1696   .rodata.str1.4:00000000 $d
C:\Users\DNIEL~1\AppData\Local\Temp\cc7TYfMd.s:1778   .bss.I:00000000 $d
C:\Users\DNIEL~1\AppData\Local\Temp\cc7TYfMd.s:1782   .bss.I:00000000 I
C:\Users\DNIEL~1\AppData\Local\Temp\cc7TYfMd.s:1785   .bss.pwm:00000000 $d
C:\Users\DNIEL~1\AppData\Local\Temp\cc7TYfMd.s:1789   .bss.pwm:00000000 pwm
C:\Users\DNIEL~1\AppData\Local\Temp\cc7TYfMd.s:1792   .data.cruise_pwmcfg:00000000 $d
C:\Users\DNIEL~1\AppData\Local\Temp\cc7TYfMd.s:1796   .data.cruise_pwmcfg:00000000 cruise_pwmcfg
C:\Users\DNIEL~1\AppData\Local\Temp\cc7TYfMd.s:1812   .bss.eeprom_read_period:00000000 $d
C:\Users\DNIEL~1\AppData\Local\Temp\cc7TYfMd.s:1816   .bss.eeprom_read_period:00000000 eeprom_read_period
C:\Users\DNIEL~1\AppData\Local\Temp\cc7TYfMd.s:1822   .bss.cruise_on:00000000 cruise_on
C:\Users\DNIEL~1\AppData\Local\Temp\cc7TYfMd.s:1823   .bss.cruise_on:00000000 $d
C:\Users\DNIEL~1\AppData\Local\Temp\cc7TYfMd.s:1825   .bss.D:00000000 $d
C:\Users\DNIEL~1\AppData\Local\Temp\cc7TYfMd.s:1829   .bss.D:00000000 D
C:\Users\DNIEL~1\AppData\Local\Temp\cc7TYfMd.s:1832   .bss.e:00000000 $d
C:\Users\DNIEL~1\AppData\Local\Temp\cc7TYfMd.s:1836   .bss.e:00000000 e
C:\Users\DNIEL~1\AppData\Local\Temp\cc7TYfMd.s:1839   .bss.eelozo:00000000 $d
C:\Users\DNIEL~1\AppData\Local\Temp\cc7TYfMd.s:1843   .bss.eelozo:00000000 eelozo
C:\Users\DNIEL~1\AppData\Local\Temp\cc7TYfMd.s:1846   .bss.cruise_disable_period:00000000 $d
C:\Users\DNIEL~1\AppData\Local\Temp\cc7TYfMd.s:1850   .bss.cruise_disable_period:00000000 cruise_disable_period
                     .debug_frame:00000010 $d
C:\Users\DNIEL~1\AppData\Local\Temp\cc7TYfMd.s:213    .text.cruiseInit:000000ec $t
C:\Users\DNIEL~1\AppData\Local\Temp\cc7TYfMd.s:249    .text.cruiseEnable:00000018 $t
C:\Users\DNIEL~1\AppData\Local\Temp\cc7TYfMd.s:276    .text.cruiseDisable:0000000c $t
C:\Users\DNIEL~1\AppData\Local\Temp\cc7TYfMd.s:302    .text.cruiseStatus:0000000c $t
C:\Users\DNIEL~1\AppData\Local\Temp\cc7TYfMd.s:331    .text.cruiseIndicator:0000000c $t
C:\Users\DNIEL~1\AppData\Local\Temp\cc7TYfMd.s:400    .text.cruiseIncrease:00000054 $t
C:\Users\DNIEL~1\AppData\Local\Temp\cc7TYfMd.s:447    .text.cruiseReduction:0000002c $t
C:\Users\DNIEL~1\AppData\Local\Temp\cc7TYfMd.s:483    .text.cruiseGet:00000018 $t
C:\Users\DNIEL~1\AppData\Local\Temp\cc7TYfMd.s:701    .text.cruisePID:000001a4 $t
C:\Users\DNIEL~1\AppData\Local\Temp\cc7TYfMd.s:1173   .text.cmd_cruisevalues:0000015c $t
C:\Users\DNIEL~1\AppData\Local\Temp\cc7TYfMd.s:1492   .text.cmd_setcruisevalues:0000020c $t
C:\Users\DNIEL~1\AppData\Local\Temp\cc7TYfMd.s:1627   .text.cmd_cruise:000000a8 $t

UNDEFINED SYMBOLS
chvprintf
eepromRead
pwmStart
speedKMPH_TO_RPM
PWMD5
__aeabi_i2d
__aeabi_dadd
__aeabi_d2iz
__aeabi_dsub
speedRPM_TO_KMPH
__aeabi_dmul
__aeabi_dcmpgt
__aeabi_dcmplt
measGetValue_2
pwmEnableChannel
speedGetSpeed
speedGetRpm
ARM GAS  C:\Users\DNIEL~1\AppData\Local\Temp\cc7TYfMd.s 			page 98


eepromWrite
chThdSleep
strcmp
atol
