ARM GAS  C:\Users\danit\AppData\Local\Temp\ccBFeYtw.s 			page 1


   1              		.syntax unified
   2              		.cpu cortex-m4
   3              		.fpu softvfp
   4              		.eabi_attribute 20, 1
   5              		.eabi_attribute 21, 1
   6              		.eabi_attribute 23, 3
   7              		.eabi_attribute 24, 1
   8              		.eabi_attribute 25, 1
   9              		.eabi_attribute 26, 1
  10              		.eabi_attribute 30, 2
  11              		.eabi_attribute 34, 1
  12              		.eabi_attribute 18, 4
  13              		.thumb
  14              		.file	"cruise.c"
  15              		.text
  16              	.Ltext0:
  17              		.cfi_sections	.debug_frame
  18              		.section	.text.chprintf,"ax",%progbits
  19              		.align	2
  20              		.p2align 4,,15
  21              		.thumb
  22              		.thumb_func
  23              		.type	chprintf, %function
  24              	chprintf:
  25              	.LFB118:
  26              		.file 1 "../../../ChibiOS/os/various/chprintf.h"
  27              		.loc 1 69 0
  28              		.cfi_startproc
  29              		@ args = 4, pretend = 12, frame = 8
  30              		@ frame_needed = 0, uses_anonymous_args = 1
  31              	.LVL0:
  32 0000 0EB4     		push	{r1, r2, r3}
  33              		.cfi_def_cfa_offset 12
  34              		.cfi_offset 1, -12
  35              		.cfi_offset 2, -8
  36              		.cfi_offset 3, -4
  37 0002 00B5     		push	{lr}
  38              		.cfi_def_cfa_offset 16
  39              		.cfi_offset 14, -16
  40 0004 82B0     		sub	sp, sp, #8
  41              		.cfi_def_cfa_offset 24
  42              		.loc 1 69 0
  43 0006 03AA     		add	r2, sp, #12
  44 0008 52F8041B 		ldr	r1, [r2], #4
  45              		.loc 1 72 0
  46 000c 0192     		str	r2, [sp, #4]
  47              		.loc 1 73 0
  48 000e FFF7FEFF 		bl	chvprintf
  49              	.LVL1:
  50              		.loc 1 75 0
  51 0012 02B0     		add	sp, sp, #8
  52              		.cfi_def_cfa_offset 16
  53              		@ sp needed
  54 0014 5DF804EB 		ldr	lr, [sp], #4
  55              		.cfi_restore 14
  56              		.cfi_def_cfa_offset 12
  57 0018 03B0     		add	sp, sp, #12
ARM GAS  C:\Users\danit\AppData\Local\Temp\ccBFeYtw.s 			page 2


  58              		.cfi_restore 3
  59              		.cfi_restore 2
  60              		.cfi_restore 1
  61              		.cfi_def_cfa_offset 0
  62 001a 7047     		bx	lr
  63              		.cfi_endproc
  64              	.LFE118:
  65              		.size	chprintf, .-chprintf
  66              		.section	.text.cruiseInit,"ax",%progbits
  67              		.align	2
  68              		.p2align 4,,15
  69              		.global	cruiseInit
  70              		.thumb
  71              		.thumb_func
  72              		.type	cruiseInit, %function
  73              	cruiseInit:
  74              	.LFB119:
  75              		.file 2 "src/cruise.c"
  76              		.loc 2 94 0
  77              		.cfi_startproc
  78              		@ args = 0, pretend = 0, frame = 0
  79              		@ frame_needed = 0, uses_anonymous_args = 0
  80 0000 2DE9F84F 		push	{r3, r4, r5, r6, r7, r8, r9, r10, fp, lr}
  81              		.cfi_def_cfa_offset 40
  82              		.cfi_offset 3, -40
  83              		.cfi_offset 4, -36
  84              		.cfi_offset 5, -32
  85              		.cfi_offset 6, -28
  86              		.cfi_offset 7, -24
  87              		.cfi_offset 8, -20
  88              		.cfi_offset 9, -16
  89              		.cfi_offset 10, -12
  90              		.cfi_offset 11, -8
  91              		.cfi_offset 14, -4
  92              		.loc 2 112 0
  93 0004 36A3     		adr	r3, .L12
  94 0006 D3E90023 		ldrd	r2, [r3]
  95 000a DFF814A1 		ldr	r10, .L12+64
  96              		.loc 2 104 0
  97 000e 384D     		ldr	r5, .L12+16
  98              		.loc 2 96 0
  99 0010 3849     		ldr	r1, .L12+20
 100              		.loc 2 113 0
 101 0012 3948     		ldr	r0, .L12+24
 102              		.loc 2 97 0
 103 0014 DFF80C91 		ldr	r9, .L12+68
 104              		.loc 2 99 0
 105 0018 DFF80C81 		ldr	r8, .L12+72
 106              		.loc 2 100 0
 107 001c DFF80CC1 		ldr	ip, .L12+76
 108              		.loc 2 101 0
 109 0020 DFF80CE1 		ldr	lr, .L12+80
 110              		.loc 2 103 0
 111 0024 354F     		ldr	r7, .L12+28
 112              		.loc 2 123 0
 113 0026 364E     		ldr	r6, .L12+32
 114              		.loc 2 95 0
ARM GAS  C:\Users\danit\AppData\Local\Temp\ccBFeYtw.s 			page 3


 115 0028 DFF808B1 		ldr	fp, .L12+84
 116              		.loc 2 112 0
 117 002c CAE90023 		strd	r2, [r10]
 118              		.loc 2 96 0
 119 0030 0023     		movs	r3, #0
 120              		.loc 2 104 0
 121 0032 2B70     		strb	r3, [r5]
 122              		.loc 2 113 0
 123 0034 2CA5     		adr	r5, .L12+8
 124 0036 D5E90045 		ldrd	r4, [r5]
 125              		.loc 2 106 0
 126 003a 324A     		ldr	r2, .L12+36
 127              		.loc 2 96 0
 128 003c 0B60     		str	r3, [r1]
 129              		.loc 2 107 0
 130 003e 3249     		ldr	r1, .L12+40
 131              		.loc 2 97 0
 132 0040 C9F80030 		str	r3, [r9]
 133              		.loc 2 113 0
 134 0044 C0E90045 		strd	r4, [r0]
 135              		.loc 2 99 0
 136 0048 C8F80030 		str	r3, [r8]
 137              		.loc 2 100 0
 138 004c ACF80030 		strh	r3, [ip]	@ movhi
 139              		.loc 2 101 0
 140 0050 8EF80030 		strb	r3, [lr]
 141              		.loc 2 103 0
 142 0054 3B80     		strh	r3, [r7]	@ movhi
 143              		.loc 2 106 0
 144 0056 1370     		strb	r3, [r2]
 145              		.loc 2 95 0
 146 0058 42F21075 		movw	r5, #10000
 147              		.loc 2 109 0
 148 005c DFF8D8A0 		ldr	r10, .L12+88
 149              		.loc 2 118 0
 150 0060 DFF8D890 		ldr	r9, .L12+92
 151              		.loc 2 119 0
 152 0064 DFF8D880 		ldr	r8, .L12+96
 153              		.loc 2 121 0
 154 0068 DFF8D8C0 		ldr	ip, .L12+100
 155              		.loc 2 114 0
 156 006c DFF8D8E0 		ldr	lr, .L12+104
 157              		.loc 2 115 0
 158 0070 264F     		ldr	r7, .L12+44
 159              		.loc 2 116 0
 160 0072 274A     		ldr	r2, .L12+48
 161              		.loc 2 107 0
 162 0074 0B60     		str	r3, [r1]
 163              		.loc 2 114 0
 164 0076 0024     		movs	r4, #0
 165              		.loc 2 95 0
 166 0078 CBF80050 		str	r5, [fp]
 167              		.loc 2 123 0
 168 007c 3146     		mov	r1, r6
 169              		.loc 2 114 0
 170 007e 0025     		movs	r5, #0
 171              		.loc 2 123 0
ARM GAS  C:\Users\danit\AppData\Local\Temp\ccBFeYtw.s 			page 4


 172 0080 1846     		mov	r0, r3
 173              		.loc 2 109 0
 174 0082 AAF80030 		strh	r3, [r10]	@ movhi
 175              		.loc 2 118 0
 176 0086 89F80030 		strb	r3, [r9]
 177              		.loc 2 119 0
 178 008a 88F80030 		strb	r3, [r8]
 179              		.loc 2 121 0
 180 008e CCF80030 		str	r3, [ip]
 181              		.loc 2 114 0
 182 0092 CEE90045 		strd	r4, [lr]
 183              		.loc 2 115 0
 184 0096 C7E90045 		strd	r4, [r7]
 185              		.loc 2 116 0
 186 009a C2E90045 		strd	r4, [r2]
 187              		.loc 2 123 0
 188 009e FFF7FEFF 		bl	eepromRead
 189              	.LVL2:
 190 00a2 A8B9     		cbnz	r0, .L4
 191 00a4 3088     		ldrh	r0, [r6]
 192              	.L5:
 193              		.loc 2 126 0
 194 00a6 00B2     		sxth	r0, r0
 195 00a8 40F21453 		movw	r3, #1300
 196 00ac 9842     		cmp	r0, r3
 197 00ae 08DC     		bgt	.L9
 198              		.loc 2 130 0
 199 00b0 0028     		cmp	r0, #0
 200 00b2 05DB     		blt	.L11
 201              		.loc 2 135 0
 202 00b4 1748     		ldr	r0, .L12+52
 203 00b6 1849     		ldr	r1, .L12+56
 204              		.loc 2 136 0
 205 00b8 BDE8F84F 		pop	{r3, r4, r5, r6, r7, r8, r9, r10, fp, lr}
 206              		.cfi_remember_state
 207              		.cfi_restore 14
 208              		.cfi_restore 11
 209              		.cfi_restore 10
 210              		.cfi_restore 9
 211              		.cfi_restore 8
 212              		.cfi_restore 7
 213              		.cfi_restore 6
 214              		.cfi_restore 5
 215              		.cfi_restore 4
 216              		.cfi_restore 3
 217              		.cfi_def_cfa_offset 0
 218              		.loc 2 135 0
 219 00bc FFF7FEBF 		b	pwmStart
 220              	.LVL3:
 221              	.L11:
 222              		.cfi_restore_state
 223              		.loc 2 132 0
 224 00c0 0023     		movs	r3, #0
 225              	.L9:
 226 00c2 3380     		strh	r3, [r6]	@ movhi
 227              		.loc 2 135 0
 228 00c4 1348     		ldr	r0, .L12+52
ARM GAS  C:\Users\danit\AppData\Local\Temp\ccBFeYtw.s 			page 5


 229 00c6 1449     		ldr	r1, .L12+56
 230              		.loc 2 136 0
 231 00c8 BDE8F84F 		pop	{r3, r4, r5, r6, r7, r8, r9, r10, fp, lr}
 232              		.cfi_remember_state
 233              		.cfi_restore 3
 234              		.cfi_restore 4
 235              		.cfi_restore 5
 236              		.cfi_restore 6
 237              		.cfi_restore 7
 238              		.cfi_restore 8
 239              		.cfi_restore 9
 240              		.cfi_restore 10
 241              		.cfi_restore 11
 242              		.cfi_restore 14
 243              		.cfi_def_cfa_offset 0
 244              		.loc 2 135 0
 245 00cc FFF7FEBF 		b	pwmStart
 246              	.LVL4:
 247              	.L4:
 248              		.cfi_restore_state
 249              		.loc 2 124 0
 250 00d0 0020     		movs	r0, #0
 251 00d2 1249     		ldr	r1, .L12+60
 252 00d4 FFF7FEFF 		bl	speedKMPH_TO_RPM
 253              	.LVL5:
 254 00d8 80B2     		uxth	r0, r0
 255 00da 3080     		strh	r0, [r6]	@ movhi
 256 00dc E3E7     		b	.L5
 257              	.L13:
 258 00de 00BF     		.align	3
 259              	.L12:
 260 00e0 00000000 		.word	0
 261 00e4 0052A740 		.word	1084707328
 262 00e8 00000000 		.word	0
 263 00ec 00701741 		.word	1092055040
 264 00f0 00000000 		.word	.LANCHOR7
 265 00f4 00000000 		.word	.LANCHOR1
 266 00f8 00000000 		.word	.LANCHOR12
 267 00fc 00000000 		.word	.LANCHOR6
 268 0100 00000000 		.word	.LANCHOR19
 269 0104 00000000 		.word	.LANCHOR8
 270 0108 00000000 		.word	.LANCHOR9
 271 010c 00000000 		.word	.LANCHOR14
 272 0110 00000000 		.word	.LANCHOR15
 273 0114 00000000 		.word	PWMD5
 274 0118 00000000 		.word	.LANCHOR20
 275 011c 00004940 		.word	1078525952
 276 0120 00000000 		.word	.LANCHOR11
 277 0124 00000000 		.word	.LANCHOR2
 278 0128 00000000 		.word	.LANCHOR3
 279 012c 00000000 		.word	.LANCHOR4
 280 0130 00000000 		.word	.LANCHOR5
 281 0134 00000000 		.word	.LANCHOR0
 282 0138 00000000 		.word	.LANCHOR10
 283 013c 00000000 		.word	.LANCHOR16
 284 0140 00000000 		.word	.LANCHOR17
 285 0144 00000000 		.word	.LANCHOR18
ARM GAS  C:\Users\danit\AppData\Local\Temp\ccBFeYtw.s 			page 6


 286 0148 00000000 		.word	.LANCHOR13
 287              		.cfi_endproc
 288              	.LFE119:
 289              		.size	cruiseInit, .-cruiseInit
 290              		.section	.text.cruiseEnable,"ax",%progbits
 291              		.align	2
 292              		.p2align 4,,15
 293              		.global	cruiseEnable
 294              		.thumb
 295              		.thumb_func
 296              		.type	cruiseEnable, %function
 297              	cruiseEnable:
 298              	.LFB121:
 299              		.loc 2 277 0
 300              		.cfi_startproc
 301              		@ args = 0, pretend = 0, frame = 0
 302              		@ frame_needed = 0, uses_anonymous_args = 0
 303              		@ link register save eliminated.
 304              		.loc 2 278 0
 305 0000 0349     		ldr	r1, .L15
 306              		.loc 2 279 0
 307 0002 044B     		ldr	r3, .L15+4
 308              		.loc 2 278 0
 309 0004 0120     		movs	r0, #1
 310              		.loc 2 279 0
 311 0006 0022     		movs	r2, #0
 312              		.loc 2 278 0
 313 0008 0880     		strh	r0, [r1]	@ movhi
 314              		.loc 2 279 0
 315 000a 1A80     		strh	r2, [r3]	@ movhi
 316 000c 7047     		bx	lr
 317              	.L16:
 318 000e 00BF     		.align	2
 319              	.L15:
 320 0010 00000000 		.word	.LANCHOR6
 321 0014 00000000 		.word	.LANCHOR10
 322              		.cfi_endproc
 323              	.LFE121:
 324              		.size	cruiseEnable, .-cruiseEnable
 325              		.section	.text.cruiseDisable,"ax",%progbits
 326              		.align	2
 327              		.p2align 4,,15
 328              		.global	cruiseDisable
 329              		.thumb
 330              		.thumb_func
 331              		.type	cruiseDisable, %function
 332              	cruiseDisable:
 333              	.LFB122:
 334              		.loc 2 281 0
 335              		.cfi_startproc
 336              		@ args = 0, pretend = 0, frame = 0
 337              		@ frame_needed = 0, uses_anonymous_args = 0
 338              		@ link register save eliminated.
 339              		.loc 2 282 0
 340 0000 014B     		ldr	r3, .L18
 341 0002 0022     		movs	r2, #0
 342 0004 1A80     		strh	r2, [r3]	@ movhi
ARM GAS  C:\Users\danit\AppData\Local\Temp\ccBFeYtw.s 			page 7


 343 0006 7047     		bx	lr
 344              	.L19:
 345              		.align	2
 346              	.L18:
 347 0008 00000000 		.word	.LANCHOR6
 348              		.cfi_endproc
 349              	.LFE122:
 350              		.size	cruiseDisable, .-cruiseDisable
 351              		.section	.text.regen_brakeEnable,"ax",%progbits
 352              		.align	2
 353              		.p2align 4,,15
 354              		.global	regen_brakeEnable
 355              		.thumb
 356              		.thumb_func
 357              		.type	regen_brakeEnable, %function
 358              	regen_brakeEnable:
 359              	.LFB123:
 360              		.loc 2 285 0
 361              		.cfi_startproc
 362              		@ args = 0, pretend = 0, frame = 0
 363              		@ frame_needed = 0, uses_anonymous_args = 0
 364              		@ link register save eliminated.
 365              		.loc 2 286 0
 366 0000 014B     		ldr	r3, .L21
 367 0002 0122     		movs	r2, #1
 368 0004 1A70     		strb	r2, [r3]
 369 0006 7047     		bx	lr
 370              	.L22:
 371              		.align	2
 372              	.L21:
 373 0008 00000000 		.word	.LANCHOR7
 374              		.cfi_endproc
 375              	.LFE123:
 376              		.size	regen_brakeEnable, .-regen_brakeEnable
 377              		.section	.text.regen_brakeDisable,"ax",%progbits
 378              		.align	2
 379              		.p2align 4,,15
 380              		.global	regen_brakeDisable
 381              		.thumb
 382              		.thumb_func
 383              		.type	regen_brakeDisable, %function
 384              	regen_brakeDisable:
 385              	.LFB124:
 386              		.loc 2 288 0
 387              		.cfi_startproc
 388              		@ args = 0, pretend = 0, frame = 0
 389              		@ frame_needed = 0, uses_anonymous_args = 0
 390              		@ link register save eliminated.
 391              		.loc 2 289 0
 392 0000 014B     		ldr	r3, .L24
 393 0002 0022     		movs	r2, #0
 394 0004 1A70     		strb	r2, [r3]
 395 0006 7047     		bx	lr
 396              	.L25:
 397              		.align	2
 398              	.L24:
 399 0008 00000000 		.word	.LANCHOR7
ARM GAS  C:\Users\danit\AppData\Local\Temp\ccBFeYtw.s 			page 8


 400              		.cfi_endproc
 401              	.LFE124:
 402              		.size	regen_brakeDisable, .-regen_brakeDisable
 403              		.section	.text.cruiseStatus,"ax",%progbits
 404              		.align	2
 405              		.p2align 4,,15
 406              		.global	cruiseStatus
 407              		.thumb
 408              		.thumb_func
 409              		.type	cruiseStatus, %function
 410              	cruiseStatus:
 411              	.LFB125:
 412              		.loc 2 292 0
 413              		.cfi_startproc
 414              		@ args = 0, pretend = 0, frame = 0
 415              		@ frame_needed = 0, uses_anonymous_args = 0
 416              		@ link register save eliminated.
 417              		.loc 2 293 0
 418 0000 024B     		ldr	r3, .L27
 419 0002 1888     		ldrh	r0, [r3]
 420              		.loc 2 294 0
 421 0004 0030     		adds	r0, r0, #0
 422 0006 18BF     		it	ne
 423 0008 0120     		movne	r0, #1
 424 000a 7047     		bx	lr
 425              	.L28:
 426              		.align	2
 427              	.L27:
 428 000c 00000000 		.word	.LANCHOR6
 429              		.cfi_endproc
 430              	.LFE125:
 431              		.size	cruiseStatus, .-cruiseStatus
 432              		.section	.text.cruiseIndicator,"ax",%progbits
 433              		.align	2
 434              		.p2align 4,,15
 435              		.global	cruiseIndicator
 436              		.thumb
 437              		.thumb_func
 438              		.type	cruiseIndicator, %function
 439              	cruiseIndicator:
 440              	.LFB126:
 441              		.loc 2 296 0
 442              		.cfi_startproc
 443              		@ args = 0, pretend = 0, frame = 0
 444              		@ frame_needed = 0, uses_anonymous_args = 0
 445              		@ link register save eliminated.
 446              		.loc 2 297 0
 447 0000 014B     		ldr	r3, .L30
 448              		.loc 2 298 0
 449 0002 1878     		ldrb	r0, [r3]	@ zero_extendqisi2
 450 0004 7047     		bx	lr
 451              	.L31:
 452 0006 00BF     		.align	2
 453              	.L30:
 454 0008 00000000 		.word	.LANCHOR8
 455              		.cfi_endproc
 456              	.LFE126:
ARM GAS  C:\Users\danit\AppData\Local\Temp\ccBFeYtw.s 			page 9


 457              		.size	cruiseIndicator, .-cruiseIndicator
 458              		.section	.text.cruiseAccel,"ax",%progbits
 459              		.align	2
 460              		.p2align 4,,15
 461              		.global	cruiseAccel
 462              		.thumb
 463              		.thumb_func
 464              		.type	cruiseAccel, %function
 465              	cruiseAccel:
 466              	.LFB127:
 467              		.loc 2 300 0
 468              		.cfi_startproc
 469              		@ args = 0, pretend = 0, frame = 0
 470              		@ frame_needed = 0, uses_anonymous_args = 0
 471              		@ link register save eliminated.
 472              		.loc 2 301 0
 473 0000 014B     		ldr	r3, .L33
 474 0002 0122     		movs	r2, #1
 475 0004 1A70     		strb	r2, [r3]
 476 0006 7047     		bx	lr
 477              	.L34:
 478              		.align	2
 479              	.L33:
 480 0008 00000000 		.word	.LANCHOR16
 481              		.cfi_endproc
 482              	.LFE127:
 483              		.size	cruiseAccel, .-cruiseAccel
 484              		.section	.text.cruiseAccelOk,"ax",%progbits
 485              		.align	2
 486              		.p2align 4,,15
 487              		.global	cruiseAccelOk
 488              		.thumb
 489              		.thumb_func
 490              		.type	cruiseAccelOk, %function
 491              	cruiseAccelOk:
 492              	.LFB128:
 493              		.loc 2 304 0
 494              		.cfi_startproc
 495              		@ args = 0, pretend = 0, frame = 0
 496              		@ frame_needed = 0, uses_anonymous_args = 0
 497 0000 08B5     		push	{r3, lr}
 498              		.cfi_def_cfa_offset 8
 499              		.cfi_offset 3, -8
 500              		.cfi_offset 14, -4
 501              		.loc 2 305 0
 502 0002 054B     		ldr	r3, .L41
 503 0004 1B88     		ldrh	r3, [r3]
 504 0006 1BB1     		cbz	r3, .L36
 505              		.loc 2 306 0
 506 0008 FFF7FEFF 		bl	speedGetRpm
 507              	.LVL6:
 508 000c 034B     		ldr	r3, .L41+4
 509 000e 1880     		strh	r0, [r3]	@ movhi
 510              	.L36:
 511              		.loc 2 308 0
 512 0010 034B     		ldr	r3, .L41+8
 513 0012 0022     		movs	r2, #0
ARM GAS  C:\Users\danit\AppData\Local\Temp\ccBFeYtw.s 			page 10


 514 0014 1A70     		strb	r2, [r3]
 515 0016 08BD     		pop	{r3, pc}
 516              	.L42:
 517              		.align	2
 518              	.L41:
 519 0018 00000000 		.word	.LANCHOR6
 520 001c 00000000 		.word	.LANCHOR19
 521 0020 00000000 		.word	.LANCHOR16
 522              		.cfi_endproc
 523              	.LFE128:
 524              		.size	cruiseAccelOk, .-cruiseAccelOk
 525              		.section	.text.cruiseDecelerat,"ax",%progbits
 526              		.align	2
 527              		.p2align 4,,15
 528              		.global	cruiseDecelerat
 529              		.thumb
 530              		.thumb_func
 531              		.type	cruiseDecelerat, %function
 532              	cruiseDecelerat:
 533              	.LFB129:
 534              		.loc 2 311 0
 535              		.cfi_startproc
 536              		@ args = 0, pretend = 0, frame = 0
 537              		@ frame_needed = 0, uses_anonymous_args = 0
 538              		@ link register save eliminated.
 539              		.loc 2 312 0
 540 0000 014B     		ldr	r3, .L44
 541 0002 0122     		movs	r2, #1
 542 0004 1A70     		strb	r2, [r3]
 543 0006 7047     		bx	lr
 544              	.L45:
 545              		.align	2
 546              	.L44:
 547 0008 00000000 		.word	.LANCHOR17
 548              		.cfi_endproc
 549              	.LFE129:
 550              		.size	cruiseDecelerat, .-cruiseDecelerat
 551              		.section	.text.cruiseDeceleratOk,"ax",%progbits
 552              		.align	2
 553              		.p2align 4,,15
 554              		.global	cruiseDeceleratOk
 555              		.thumb
 556              		.thumb_func
 557              		.type	cruiseDeceleratOk, %function
 558              	cruiseDeceleratOk:
 559              	.LFB130:
 560              		.loc 2 315 0
 561              		.cfi_startproc
 562              		@ args = 0, pretend = 0, frame = 0
 563              		@ frame_needed = 0, uses_anonymous_args = 0
 564 0000 08B5     		push	{r3, lr}
 565              		.cfi_def_cfa_offset 8
 566              		.cfi_offset 3, -8
 567              		.cfi_offset 14, -4
 568              		.loc 2 316 0
 569 0002 054B     		ldr	r3, .L52
 570 0004 1B88     		ldrh	r3, [r3]
ARM GAS  C:\Users\danit\AppData\Local\Temp\ccBFeYtw.s 			page 11


 571 0006 1BB1     		cbz	r3, .L47
 572              		.loc 2 317 0
 573 0008 FFF7FEFF 		bl	speedGetRpm
 574              	.LVL7:
 575 000c 034B     		ldr	r3, .L52+4
 576 000e 1880     		strh	r0, [r3]	@ movhi
 577              	.L47:
 578              		.loc 2 319 0
 579 0010 034B     		ldr	r3, .L52+8
 580 0012 0022     		movs	r2, #0
 581 0014 1A70     		strb	r2, [r3]
 582 0016 08BD     		pop	{r3, pc}
 583              	.L53:
 584              		.align	2
 585              	.L52:
 586 0018 00000000 		.word	.LANCHOR6
 587 001c 00000000 		.word	.LANCHOR19
 588 0020 00000000 		.word	.LANCHOR17
 589              		.cfi_endproc
 590              	.LFE130:
 591              		.size	cruiseDeceleratOk, .-cruiseDeceleratOk
 592              		.global	__aeabi_i2d
 593              		.global	__aeabi_dadd
 594              		.global	__aeabi_d2iz
 595              		.section	.text.cruiseIncrease,"ax",%progbits
 596              		.align	2
 597              		.p2align 4,,15
 598              		.global	cruiseIncrease
 599              		.thumb
 600              		.thumb_func
 601              		.type	cruiseIncrease, %function
 602              	cruiseIncrease:
 603              	.LFB131:
 604              		.loc 2 322 0
 605              		.cfi_startproc
 606              		@ args = 0, pretend = 0, frame = 0
 607              		@ frame_needed = 0, uses_anonymous_args = 0
 608              	.LVL8:
 609 0000 F8B5     		push	{r3, r4, r5, r6, r7, lr}
 610              		.cfi_def_cfa_offset 24
 611              		.cfi_offset 3, -24
 612              		.cfi_offset 4, -20
 613              		.cfi_offset 5, -16
 614              		.cfi_offset 6, -12
 615              		.cfi_offset 7, -8
 616              		.cfi_offset 14, -4
 617              		.loc 2 323 0
 618 0002 104D     		ldr	r5, .L59
 619              		.loc 2 322 0
 620 0004 0646     		mov	r6, r0
 621 0006 0F46     		mov	r7, r1
 622              		.loc 2 323 0
 623 0008 B5F90000 		ldrsh	r0, [r5]
 624              	.LVL9:
 625 000c FFF7FEFF 		bl	__aeabi_i2d
 626              	.LVL10:
 627 0010 3246     		mov	r2, r6
ARM GAS  C:\Users\danit\AppData\Local\Temp\ccBFeYtw.s 			page 12


 628 0012 3B46     		mov	r3, r7
 629 0014 FFF7FEFF 		bl	__aeabi_dadd
 630              	.LVL11:
 631 0018 FFF7FEFF 		bl	__aeabi_d2iz
 632              	.LVL12:
 633              		.loc 2 324 0
 634 001c 0A49     		ldr	r1, .L59+4
 635              		.loc 2 323 0
 636 001e 84B2     		uxth	r4, r0
 637              		.loc 2 324 0
 638 0020 0020     		movs	r0, #0
 639              		.loc 2 323 0
 640 0022 2C80     		strh	r4, [r5]	@ movhi
 641              		.loc 2 324 0
 642 0024 FFF7FEFF 		bl	speedKMPH_TO_RPM
 643              	.LVL13:
 644 0028 24B2     		sxth	r4, r4
 645 002a 8442     		cmp	r4, r0
 646 002c 02D8     		bhi	.L58
 647              		.loc 2 324 0 is_stmt 0 discriminator 2
 648 002e 2888     		ldrh	r0, [r5]
 649 0030 2880     		strh	r0, [r5]	@ movhi
 650 0032 F8BD     		pop	{r3, r4, r5, r6, r7, pc}
 651              	.L58:
 652              		.loc 2 324 0 discriminator 1
 653 0034 0020     		movs	r0, #0
 654 0036 0449     		ldr	r1, .L59+4
 655 0038 FFF7FEFF 		bl	speedKMPH_TO_RPM
 656              	.LVL14:
 657 003c 80B2     		uxth	r0, r0
 658 003e 2880     		strh	r0, [r5]	@ movhi
 659 0040 F8BD     		pop	{r3, r4, r5, r6, r7, pc}
 660              	.L60:
 661 0042 00BF     		.align	2
 662              	.L59:
 663 0044 00000000 		.word	.LANCHOR19
 664 0048 00406040 		.word	1080049664
 665              		.cfi_endproc
 666              	.LFE131:
 667              		.size	cruiseIncrease, .-cruiseIncrease
 668              		.global	__aeabi_dsub
 669              		.section	.text.cruiseReduction,"ax",%progbits
 670              		.align	2
 671              		.p2align 4,,15
 672              		.global	cruiseReduction
 673              		.thumb
 674              		.thumb_func
 675              		.type	cruiseReduction, %function
 676              	cruiseReduction:
 677              	.LFB132:
 678              		.loc 2 326 0 is_stmt 1
 679              		.cfi_startproc
 680              		@ args = 0, pretend = 0, frame = 0
 681              		@ frame_needed = 0, uses_anonymous_args = 0
 682              	.LVL15:
 683 0000 D0B5     		push	{r4, r6, r7, lr}
 684              		.cfi_def_cfa_offset 16
ARM GAS  C:\Users\danit\AppData\Local\Temp\ccBFeYtw.s 			page 13


 685              		.cfi_offset 4, -16
 686              		.cfi_offset 6, -12
 687              		.cfi_offset 7, -8
 688              		.cfi_offset 14, -4
 689              		.loc 2 328 0
 690 0002 094C     		ldr	r4, .L63
 691              		.loc 2 326 0
 692 0004 0646     		mov	r6, r0
 693 0006 0F46     		mov	r7, r1
 694              		.loc 2 327 0
 695 0008 B4F90000 		ldrsh	r0, [r4]
 696              	.LVL16:
 697 000c FFF7FEFF 		bl	__aeabi_i2d
 698              	.LVL17:
 699 0010 3246     		mov	r2, r6
 700 0012 3B46     		mov	r3, r7
 701 0014 FFF7FEFF 		bl	__aeabi_dsub
 702              	.LVL18:
 703 0018 FFF7FEFF 		bl	__aeabi_d2iz
 704              	.LVL19:
 705              		.loc 2 328 0
 706 001c 00B2     		sxth	r0, r0
 707 001e 20EAE070 		bic	r0, r0, r0, asr #31
 708 0022 2080     		strh	r0, [r4]	@ movhi
 709 0024 D0BD     		pop	{r4, r6, r7, pc}
 710              	.L64:
 711 0026 00BF     		.align	2
 712              	.L63:
 713 0028 00000000 		.word	.LANCHOR19
 714              		.cfi_endproc
 715              	.LFE132:
 716              		.size	cruiseReduction, .-cruiseReduction
 717              		.section	.text.cruiseGetPWM,"ax",%progbits
 718              		.align	2
 719              		.p2align 4,,15
 720              		.global	cruiseGetPWM
 721              		.thumb
 722              		.thumb_func
 723              		.type	cruiseGetPWM, %function
 724              	cruiseGetPWM:
 725              	.LFB133:
 726              		.loc 2 331 0
 727              		.cfi_startproc
 728              		@ args = 0, pretend = 0, frame = 0
 729              		@ frame_needed = 0, uses_anonymous_args = 0
 730              		@ link register save eliminated.
 731              		.loc 2 332 0
 732 0000 014B     		ldr	r3, .L66
 733              		.loc 2 333 0
 734 0002 1868     		ldr	r0, [r3]
 735 0004 7047     		bx	lr
 736              	.L67:
 737 0006 00BF     		.align	2
 738              	.L66:
 739 0008 00000000 		.word	.LANCHOR2
 740              		.cfi_endproc
 741              	.LFE133:
ARM GAS  C:\Users\danit\AppData\Local\Temp\ccBFeYtw.s 			page 14


 742              		.size	cruiseGetPWM, .-cruiseGetPWM
 743              		.section	.text.cruiseGetCurrLimitSubstract,"ax",%progbits
 744              		.align	2
 745              		.p2align 4,,15
 746              		.global	cruiseGetCurrLimitSubstract
 747              		.thumb
 748              		.thumb_func
 749              		.type	cruiseGetCurrLimitSubstract, %function
 750              	cruiseGetCurrLimitSubstract:
 751              	.LFB134:
 752              		.loc 2 336 0
 753              		.cfi_startproc
 754              		@ args = 0, pretend = 0, frame = 0
 755              		@ frame_needed = 0, uses_anonymous_args = 0
 756              		@ link register save eliminated.
 757              		.loc 2 337 0
 758 0000 014B     		ldr	r3, .L69
 759              		.loc 2 338 0
 760 0002 1888     		ldrh	r0, [r3]
 761 0004 7047     		bx	lr
 762              	.L70:
 763 0006 00BF     		.align	2
 764              	.L69:
 765 0008 00000000 		.word	.LANCHOR21
 766              		.cfi_endproc
 767              	.LFE134:
 768              		.size	cruiseGetCurrLimitSubstract, .-cruiseGetCurrLimitSubstract
 769              		.section	.text.cruiseGet,"ax",%progbits
 770              		.align	2
 771              		.p2align 4,,15
 772              		.global	cruiseGet
 773              		.thumb
 774              		.thumb_func
 775              		.type	cruiseGet, %function
 776              	cruiseGet:
 777              	.LFB135:
 778              		.loc 2 341 0
 779              		.cfi_startproc
 780              		@ args = 0, pretend = 0, frame = 0
 781              		@ frame_needed = 0, uses_anonymous_args = 0
 782 0000 08B5     		push	{r3, lr}
 783              		.cfi_def_cfa_offset 8
 784              		.cfi_offset 3, -8
 785              		.cfi_offset 14, -4
 786              		.loc 2 342 0
 787 0002 044B     		ldr	r3, .L73
 788 0004 B3F90000 		ldrsh	r0, [r3]
 789 0008 FFF7FEFF 		bl	__aeabi_i2d
 790              	.LVL20:
 791 000c FFF7FEFF 		bl	speedRPM_TO_KMPH
 792              	.LVL21:
 793              		.loc 2 343 0
 794 0010 C0B2     		uxtb	r0, r0
 795 0012 08BD     		pop	{r3, pc}
 796              	.L74:
 797              		.align	2
 798              	.L73:
ARM GAS  C:\Users\danit\AppData\Local\Temp\ccBFeYtw.s 			page 15


 799 0014 00000000 		.word	.LANCHOR19
 800              		.cfi_endproc
 801              	.LFE135:
 802              		.size	cruiseGet, .-cruiseGet
 803              		.global	__aeabi_dmul
 804              		.global	__aeabi_dcmpgt
 805              		.global	__aeabi_dcmplt
 806              		.section	.text.cruisePID,"ax",%progbits
 807              		.align	2
 808              		.p2align 4,,15
 809              		.global	cruisePID
 810              		.thumb
 811              		.thumb_func
 812              		.type	cruisePID, %function
 813              	cruisePID:
 814              	.LFB136:
 815              		.loc 2 346 0
 816              		.cfi_startproc
 817              		@ args = 24, pretend = 0, frame = 24
 818              		@ frame_needed = 0, uses_anonymous_args = 0
 819              	.LVL22:
 820 0000 2DE9F04F 		push	{r4, r5, r6, r7, r8, r9, r10, fp, lr}
 821              		.cfi_def_cfa_offset 36
 822              		.cfi_offset 4, -36
 823              		.cfi_offset 5, -32
 824              		.cfi_offset 6, -28
 825              		.cfi_offset 7, -24
 826              		.cfi_offset 8, -20
 827              		.cfi_offset 9, -16
 828              		.cfi_offset 10, -12
 829              		.cfi_offset 11, -8
 830              		.cfi_offset 14, -4
 831 0004 87B0     		sub	sp, sp, #28
 832              		.cfi_def_cfa_offset 64
 833              		.loc 2 347 0
 834 0006 081A     		subs	r0, r1, r0
 835              	.LVL23:
 836              		.loc 2 346 0
 837 0008 BDF94810 		ldrsh	r1, [sp, #72]
 838              	.LVL24:
 839 000c 0592     		str	r2, [sp, #20]
 840 000e 1E46     		mov	r6, r3
 841 0010 0291     		str	r1, [sp, #8]
 842              		.loc 2 347 0
 843 0012 FFF7FEFF 		bl	__aeabi_i2d
 844              	.LVL25:
 845              		.loc 2 346 0
 846 0016 BDF94040 		ldrsh	r4, [sp, #64]
 847              		.loc 2 347 0
 848 001a 634B     		ldr	r3, .L101
 849              		.loc 2 346 0
 850 001c BDF94470 		ldrsh	r7, [sp, #68]
 851              		.loc 2 347 0
 852 0020 8246     		mov	r10, r0
 853 0022 8B46     		mov	fp, r1
 854              		.loc 2 350 0
 855 0024 2046     		mov	r0, r4
ARM GAS  C:\Users\danit\AppData\Local\Temp\ccBFeYtw.s 			page 16


 856              		.loc 2 347 0
 857 0026 C3E900AB 		strd	r10, [r3]
 858              		.loc 2 350 0
 859 002a FFF7FEFF 		bl	__aeabi_i2d
 860              	.LVL26:
 861 002e 0246     		mov	r2, r0
 862 0030 0B46     		mov	r3, r1
 863 0032 5046     		mov	r0, r10
 864 0034 5946     		mov	r1, fp
 865 0036 FFF7FEFF 		bl	__aeabi_dmul
 866              	.LVL27:
 867 003a 0446     		mov	r4, r0
 868              		.loc 2 351 0
 869 003c 1398     		ldr	r0, [sp, #76]
 870              		.loc 2 350 0
 871 003e 0D46     		mov	r5, r1
 872              		.loc 2 351 0
 873 0040 FFF7FEFF 		bl	__aeabi_i2d
 874              	.LVL28:
 875 0044 0246     		mov	r2, r0
 876 0046 0B46     		mov	r3, r1
 877 0048 2046     		mov	r0, r4
 878 004a 2946     		mov	r1, r5
 879 004c CDE90023 		strd	r2, [sp]
 880 0050 FFF7FEFF 		bl	__aeabi_dcmpgt
 881              	.LVL29:
 882 0054 0028     		cmp	r0, #0
 883 0056 72D0     		beq	.L94
 884              		.loc 2 352 0
 885 0058 DDE90001 		ldrd	r0, [sp]
 886 005c 534B     		ldr	r3, .L101+4
 887 005e C3E90001 		strd	r0, [r3]
 888              	.L78:
 889              		.loc 2 360 0
 890 0062 3846     		mov	r0, r7
 891 0064 FFF7FEFF 		bl	__aeabi_i2d
 892              	.LVL30:
 893 0068 514F     		ldr	r7, .L101+8
 894 006a 0246     		mov	r2, r0
 895 006c 0B46     		mov	r3, r1
 896 006e 5046     		mov	r0, r10
 897 0070 5946     		mov	r1, fp
 898 0072 FFF7FEFF 		bl	__aeabi_dmul
 899              	.LVL31:
 900 0076 D7E90023 		ldrd	r2, [r7]
 901 007a FFF7FEFF 		bl	__aeabi_dadd
 902              	.LVL32:
 903 007e 0446     		mov	r4, r0
 904              		.loc 2 361 0
 905 0080 1498     		ldr	r0, [sp, #80]
 906              		.loc 2 360 0
 907 0082 0D46     		mov	r5, r1
 908              		.loc 2 361 0
 909 0084 FFF7FEFF 		bl	__aeabi_i2d
 910              	.LVL33:
 911 0088 8046     		mov	r8, r0
 912 008a 8946     		mov	r9, r1
ARM GAS  C:\Users\danit\AppData\Local\Temp\ccBFeYtw.s 			page 17


 913 008c 2046     		mov	r0, r4
 914 008e 2946     		mov	r1, r5
 915 0090 4246     		mov	r2, r8
 916 0092 4B46     		mov	r3, r9
 917 0094 FFF7FEFF 		bl	__aeabi_dcmpgt
 918              	.LVL34:
 919 0098 68B9     		cbnz	r0, .L83
 920              		.loc 2 364 0
 921 009a 149B     		ldr	r3, [sp, #80]
 922 009c 5842     		negs	r0, r3
 923 009e FFF7FEFF 		bl	__aeabi_i2d
 924              	.LVL35:
 925 00a2 8046     		mov	r8, r0
 926 00a4 8946     		mov	r9, r1
 927 00a6 2046     		mov	r0, r4
 928 00a8 2946     		mov	r1, r5
 929 00aa 4246     		mov	r2, r8
 930 00ac 4B46     		mov	r3, r9
 931 00ae FFF7FEFF 		bl	__aeabi_dcmplt
 932              	.LVL36:
 933 00b2 0028     		cmp	r0, #0
 934 00b4 73D0     		beq	.L98
 935              	.L83:
 936              		.loc 2 365 0
 937 00b6 C7E90089 		strd	r8, [r7]
 938              	.L82:
 939              		.loc 2 370 0
 940 00ba 0298     		ldr	r0, [sp, #8]
 941 00bc 3D4F     		ldr	r7, .L101+12
 942 00be FFF7FEFF 		bl	__aeabi_i2d
 943              	.LVL37:
 944 00c2 D7E90023 		ldrd	r2, [r7]
 945 00c6 0446     		mov	r4, r0
 946 00c8 0D46     		mov	r5, r1
 947 00ca 5046     		mov	r0, r10
 948 00cc 5946     		mov	r1, fp
 949 00ce FFF7FEFF 		bl	__aeabi_dsub
 950              	.LVL38:
 951 00d2 0246     		mov	r2, r0
 952 00d4 0B46     		mov	r3, r1
 953 00d6 2046     		mov	r0, r4
 954 00d8 2946     		mov	r1, r5
 955 00da FFF7FEFF 		bl	__aeabi_dmul
 956              	.LVL39:
 957 00de CDE90201 		strd	r0, [sp, #8]
 958              		.loc 2 371 0
 959 00e2 1598     		ldr	r0, [sp, #84]
 960 00e4 FFF7FEFF 		bl	__aeabi_i2d
 961              	.LVL40:
 962 00e8 0446     		mov	r4, r0
 963 00ea 0D46     		mov	r5, r1
 964 00ec 2246     		mov	r2, r4
 965 00ee DDE90201 		ldrd	r0, [sp, #8]
 966 00f2 2B46     		mov	r3, r5
 967 00f4 FFF7FEFF 		bl	__aeabi_dcmpgt
 968              	.LVL41:
 969 00f8 0028     		cmp	r0, #0
ARM GAS  C:\Users\danit\AppData\Local\Temp\ccBFeYtw.s 			page 18


 970 00fa 33D0     		beq	.L96
 971              		.loc 2 372 0
 972 00fc 2E4B     		ldr	r3, .L101+16
 973 00fe C3E90045 		strd	r4, [r3]
 974              	.L86:
 975              		.loc 2 380 0
 976 0102 4246     		mov	r2, r8
 977 0104 4B46     		mov	r3, r9
 978 0106 DDE90001 		ldrd	r0, [sp]
 979 010a FFF7FEFF 		bl	__aeabi_dadd
 980              	.LVL42:
 981 010e 2246     		mov	r2, r4
 982 0110 2B46     		mov	r3, r5
 983 0112 FFF7FEFF 		bl	__aeabi_dadd
 984              	.LVL43:
 985 0116 FFF7FEFF 		bl	__aeabi_d2iz
 986              	.LVL44:
 987              		.loc 2 382 0
 988 011a 059B     		ldr	r3, [sp, #20]
 989 011c 9842     		cmp	r0, r3
 990              		.loc 2 383 0
 991 011e C8BF     		it	gt
 992 0120 059A     		ldrgt	r2, [sp, #20]
 993 0122 264B     		ldr	r3, .L101+20
 994 0124 C6BF     		itte	gt
 995 0126 1046     		movgt	r0, r2
 996 0128 1A60     		strgt	r2, [r3]
 997              		.loc 2 380 0
 998 012a 1860     		strle	r0, [r3]
 999              		.loc 2 385 0
 1000 012c 8642     		cmp	r6, r0
 1001              		.loc 2 386 0
 1002 012e C4BF     		itt	gt
 1003 0130 3046     		movgt	r0, r6
 1004 0132 1E60     		strgt	r6, [r3]
 1005              		.loc 2 389 0
 1006 0134 C7E900AB 		strd	r10, [r7]
 1007              		.loc 2 392 0
 1008 0138 07B0     		add	sp, sp, #28
 1009              		.cfi_remember_state
 1010              		.cfi_def_cfa_offset 36
 1011              		@ sp needed
 1012 013a BDE8F08F 		pop	{r4, r5, r6, r7, r8, r9, r10, fp, pc}
 1013              	.LVL45:
 1014              	.L94:
 1015              		.cfi_restore_state
 1016              		.loc 2 354 0
 1017 013e 139B     		ldr	r3, [sp, #76]
 1018 0140 5842     		negs	r0, r3
 1019 0142 FFF7FEFF 		bl	__aeabi_i2d
 1020              	.LVL46:
 1021 0146 0B46     		mov	r3, r1
 1022 0148 0246     		mov	r2, r0
 1023 014a 2946     		mov	r1, r5
 1024 014c 2046     		mov	r0, r4
 1025 014e CDE90023 		strd	r2, [sp]
 1026 0152 FFF7FEFF 		bl	__aeabi_dcmplt
ARM GAS  C:\Users\danit\AppData\Local\Temp\ccBFeYtw.s 			page 19


 1027              	.LVL47:
 1028              		.loc 2 355 0
 1029 0156 154B     		ldr	r3, .L101+4
 1030              		.loc 2 354 0
 1031 0158 E0B1     		cbz	r0, .L99
 1032              		.loc 2 355 0
 1033 015a DDE90001 		ldrd	r0, [sp]
 1034 015e C3E90001 		strd	r0, [r3]
 1035 0162 7EE7     		b	.L78
 1036              	.L96:
 1037              		.loc 2 374 0
 1038 0164 159B     		ldr	r3, [sp, #84]
 1039 0166 5842     		negs	r0, r3
 1040 0168 FFF7FEFF 		bl	__aeabi_i2d
 1041              	.LVL48:
 1042 016c 0446     		mov	r4, r0
 1043 016e 0D46     		mov	r5, r1
 1044 0170 2B46     		mov	r3, r5
 1045 0172 DDE90201 		ldrd	r0, [sp, #8]
 1046 0176 2246     		mov	r2, r4
 1047 0178 FFF7FEFF 		bl	__aeabi_dcmplt
 1048              	.LVL49:
 1049              		.loc 2 375 0
 1050 017c 0E4B     		ldr	r3, .L101+16
 1051              		.loc 2 374 0
 1052 017e 10B1     		cbz	r0, .L100
 1053              		.loc 2 375 0
 1054 0180 C3E90045 		strd	r4, [r3]
 1055 0184 BDE7     		b	.L86
 1056              	.L100:
 1057              		.loc 2 370 0
 1058 0186 DDE90201 		ldrd	r0, [sp, #8]
 1059 018a C3E90001 		strd	r0, [r3]
 1060 018e 0446     		mov	r4, r0
 1061 0190 0D46     		mov	r5, r1
 1062 0192 B6E7     		b	.L86
 1063              	.L99:
 1064              		.loc 2 350 0
 1065 0194 CDE90045 		strd	r4, [sp]
 1066 0198 C3E90045 		strd	r4, [r3]
 1067 019c 61E7     		b	.L78
 1068              	.L98:
 1069              		.loc 2 360 0
 1070 019e C7E90045 		strd	r4, [r7]
 1071 01a2 A046     		mov	r8, r4
 1072 01a4 A946     		mov	r9, r5
 1073 01a6 88E7     		b	.L82
 1074              	.L102:
 1075              		.align	2
 1076              	.L101:
 1077 01a8 00000000 		.word	.LANCHOR15
 1078 01ac 00000000 		.word	.LANCHOR11
 1079 01b0 00000000 		.word	.LANCHOR12
 1080 01b4 00000000 		.word	.LANCHOR14
 1081 01b8 00000000 		.word	.LANCHOR13
 1082 01bc 00000000 		.word	.LANCHOR22
 1083              		.cfi_endproc
ARM GAS  C:\Users\danit\AppData\Local\Temp\ccBFeYtw.s 			page 20


 1084              	.LFE136:
 1085              		.size	cruisePID, .-cruisePID
 1086              		.section	.text.cruiseCalc,"ax",%progbits
 1087              		.align	2
 1088              		.p2align 4,,15
 1089              		.global	cruiseCalc
 1090              		.thumb
 1091              		.thumb_func
 1092              		.type	cruiseCalc, %function
 1093              	cruiseCalc:
 1094              	.LFB120:
 1095              		.loc 2 138 0
 1096              		.cfi_startproc
 1097              		@ args = 0, pretend = 0, frame = 0
 1098              		@ frame_needed = 0, uses_anonymous_args = 0
 1099 0000 2DE9F04F 		push	{r4, r5, r6, r7, r8, r9, r10, fp, lr}
 1100              		.cfi_def_cfa_offset 36
 1101              		.cfi_offset 4, -36
 1102              		.cfi_offset 5, -32
 1103              		.cfi_offset 6, -28
 1104              		.cfi_offset 7, -24
 1105              		.cfi_offset 8, -20
 1106              		.cfi_offset 9, -16
 1107              		.cfi_offset 10, -12
 1108              		.cfi_offset 11, -8
 1109              		.cfi_offset 14, -4
 1110              		.loc 2 140 0
 1111 0004 B649     		ldr	r1, .L153
 1112              		.loc 2 142 0
 1113 0006 B74F     		ldr	r7, .L153+4
 1114              		.loc 2 140 0
 1115 0008 0B68     		ldr	r3, [r1]
 1116              		.loc 2 143 0
 1117 000a 3A7F     		ldrb	r2, [r7, #28]	@ zero_extendqisi2
 1118 000c B64D     		ldr	r5, .L153+8
 1119              		.loc 2 140 0
 1120 000e 0133     		adds	r3, r3, #1
 1121              		.loc 2 143 0
 1122 0010 02EB8202 		add	r2, r2, r2, lsl #2
 1123              		.loc 2 146 0
 1124 0014 FA2B     		cmp	r3, #250
 1125              		.loc 2 138 0
 1126 0016 87B0     		sub	sp, sp, #28
 1127              		.cfi_def_cfa_offset 64
 1128              		.loc 2 140 0
 1129 0018 0B60     		str	r3, [r1]
 1130              		.loc 2 143 0
 1131 001a 2A60     		str	r2, [r5]
 1132              		.loc 2 146 0
 1133 001c 00F01981 		beq	.L148
 1134              		.loc 2 159 0
 1135 0020 B24C     		ldr	r4, .L153+12
 1136 0022 B34B     		ldr	r3, .L153+16
 1137 0024 2288     		ldrh	r2, [r4]
 1138 0026 1888     		ldrh	r0, [r3]
 1139 0028 8242     		cmp	r2, r0
 1140 002a 05D0     		beq	.L106
ARM GAS  C:\Users\danit\AppData\Local\Temp\ccBFeYtw.s 			page 21


 1141              		.loc 2 163 0
 1142 002c B148     		ldr	r0, .L153+20
 1143              		.loc 2 161 0
 1144 002e 1A80     		strh	r2, [r3]	@ movhi
 1145              		.loc 2 163 0
 1146 0030 0122     		movs	r2, #1
 1147              		.loc 2 162 0
 1148 0032 0023     		movs	r3, #0
 1149              		.loc 2 163 0
 1150 0034 0270     		strb	r2, [r0]
 1151              		.loc 2 162 0
 1152 0036 0B60     		str	r3, [r1]
 1153              	.L106:
 1154              		.loc 2 167 0
 1155 0038 AF4E     		ldr	r6, .L153+24
 1156 003a 3388     		ldrh	r3, [r6]
 1157 003c 002B     		cmp	r3, #0
 1158 003e 79D1     		bne	.L149
 1159              	.L110:
 1160              	.LBB14:
 1161              		.loc 2 235 0
 1162 0040 AE49     		ldr	r1, .L153+28
 1163              		.loc 2 236 0
 1164 0042 AF4A     		ldr	r2, .L153+32
 1165              		.loc 2 234 0
 1166 0044 AF4E     		ldr	r6, .L153+36
 1167              		.loc 2 237 0
 1168 0046 B04C     		ldr	r4, .L153+40
 1169              		.loc 2 238 0
 1170 0048 DFF8F8B2 		ldr	fp, .L153+100
 1171              		.loc 2 239 0
 1172 004c DFF8F882 		ldr	r8, .L153+104
 1173              		.loc 2 234 0
 1174 0050 0023     		movs	r3, #0
 1175              		.loc 2 237 0
 1176 0052 0120     		movs	r0, #1
 1177              		.loc 2 235 0
 1178 0054 0B70     		strb	r3, [r1]
 1179              		.loc 2 234 0
 1180 0056 3380     		strh	r3, [r6]	@ movhi
 1181              		.loc 2 236 0
 1182 0058 1360     		str	r3, [r2]
 1183              		.loc 2 237 0
 1184 005a FFF7FEFF 		bl	measGetValue_2
 1185              	.LVL50:
 1186              		.loc 2 238 0
 1187 005e AB4A     		ldr	r2, .L153+44
 1188              		.loc 2 237 0
 1189 0060 C0F51C53 		rsb	r3, r0, #9984
 1190 0064 1033     		adds	r3, r3, #16
 1191              		.loc 2 238 0
 1192 0066 4FF0000A 		mov	r10, #0
 1193              		.loc 2 239 0
 1194 006a 0120     		movs	r0, #1
 1195              		.loc 2 238 0
 1196 006c C2E900AB 		strd	r10, [r2]
 1197              		.loc 2 237 0
ARM GAS  C:\Users\danit\AppData\Local\Temp\ccBFeYtw.s 			page 22


 1198 0070 2360     		str	r3, [r4]
 1199              		.loc 2 239 0
 1200 0072 FFF7FEFF 		bl	measGetValue_2
 1201              	.LVL51:
 1202 0076 6423     		movs	r3, #100
 1203 0078 03FB00F0 		mul	r0, r3, r0
 1204 007c FFF7FEFF 		bl	__aeabi_i2d
 1205              	.LVL52:
 1206              		.loc 2 246 0
 1207 0080 2A68     		ldr	r2, [r5]
 1208 0082 B7F91830 		ldrsh	r3, [r7, #24]
 1209              		.loc 2 240 0
 1210 0086 DFF8C4C2 		ldr	ip, .L153+108
 1211              		.loc 2 241 0
 1212 008a DFF8C4E2 		ldr	lr, .L153+112
 1213              		.loc 2 242 0
 1214 008e A04D     		ldr	r5, .L153+48
 1215              		.loc 2 240 0
 1216 0090 0026     		movs	r6, #0
 1217 0092 0027     		movs	r7, #0
 1218              		.loc 2 246 0
 1219 0094 9342     		cmp	r3, r2
 1220              		.loc 2 239 0
 1221 0096 C8E90001 		strd	r0, [r8]
 1222              		.loc 2 240 0
 1223 009a CCE90067 		strd	r6, [ip]
 1224              		.loc 2 241 0
 1225 009e CEE90067 		strd	r6, [lr]
 1226              		.loc 2 242 0
 1227 00a2 C5E90067 		strd	r6, [r5]
 1228              		.loc 2 246 0
 1229 00a6 00F3F180 		bgt	.L121
 1230              	.L123:
 1231 00aa 2668     		ldr	r6, [r4]
 1232              	.L122:
 1233              		.loc 2 262 0
 1234 00ac 994D     		ldr	r5, .L153+52
 1235 00ae 9A4A     		ldr	r2, .L153+56
 1236 00b0 2B89     		ldrh	r3, [r5, #8]
 1237              		.loc 2 259 0
 1238 00b2 42F21071 		movw	r1, #10000
 1239 00b6 8E42     		cmp	r6, r1
 1240 00b8 A8BF     		it	ge
 1241 00ba 0E46     		movge	r6, r1
 1242              		.loc 2 260 0
 1243 00bc B6F57A7F 		cmp	r6, #1000
 1244 00c0 B8BF     		it	lt
 1245 00c2 4FF47A76 		movlt	r6, #1000
 1246              		.loc 2 262 0
 1247 00c6 03FB06F3 		mul	r3, r3, r6
 1248 00ca 82FB0312 		smull	r1, r2, r2, r3
 1249 00ce DB17     		asrs	r3, r3, #31
 1250 00d0 C3EB2232 		rsb	r2, r3, r2, asr #12
 1251 00d4 92B2     		uxth	r2, r2
 1252 00d6 2846     		mov	r0, r5
 1253 00d8 0221     		movs	r1, #2
 1254              		.loc 2 260 0
ARM GAS  C:\Users\danit\AppData\Local\Temp\ccBFeYtw.s 			page 23


 1255 00da 2660     		str	r6, [r4]
 1256              		.loc 2 262 0
 1257 00dc FFF7FEFF 		bl	pwmEnableChannel
 1258              	.LVL53:
 1259              	.L120:
 1260              	.LBE14:
 1261              	.LBB15:
 1262              		.loc 2 264 0
 1263 00e0 2023     		movs	r3, #32
 1264              	@ 264 "src/cruise.c" 1
 1265 00e2 83F31188 		msr     BASEPRI, r3
 1266              	@ 0 "" 2
 1267              		.thumb
 1268              	.LBE15:
 1269              		.loc 2 265 0
 1270 00e6 8D4B     		ldr	r3, .L153+60
 1271 00e8 2268     		ldr	r2, [r4]
 1272 00ea 1A60     		str	r2, [r3]
 1273              		.loc 2 268 0
 1274 00ec 0220     		movs	r0, #2
 1275 00ee FFF7FEFF 		bl	measGetValue_2
 1276              	.LVL54:
 1277 00f2 8B4A     		ldr	r2, .L153+64
 1278              	.LBB16:
 1279              		.loc 2 269 0
 1280 00f4 0023     		movs	r3, #0
 1281              	.LBE16:
 1282              		.loc 2 268 0
 1283 00f6 1060     		str	r0, [r2]
 1284              	.LBB17:
 1285              		.loc 2 269 0
 1286              	@ 269 "src/cruise.c" 1
 1287 00f8 83F31188 		msr     BASEPRI, r3
 1288              	@ 0 "" 2
 1289              		.thumb
 1290              	.LBE17:
 1291              		.loc 2 271 0
 1292 00fc 894B     		ldr	r3, .L153+68
 1293 00fe 1B78     		ldrb	r3, [r3]	@ zero_extendqisi2
 1294 0100 13B9     		cbnz	r3, .L150
 1295              		.loc 2 275 0
 1296 0102 07B0     		add	sp, sp, #28
 1297              		.cfi_remember_state
 1298              		.cfi_def_cfa_offset 36
 1299              		@ sp needed
 1300 0104 BDE8F08F 		pop	{r4, r5, r6, r7, r8, r9, r10, fp, pc}
 1301              	.L150:
 1302              		.cfi_restore_state
 1303              		.loc 2 273 0
 1304 0108 1168     		ldr	r1, [r2]
 1305 010a 2C89     		ldrh	r4, [r5, #8]
 1306 010c 824A     		ldr	r2, .L153+56
 1307 010e 8148     		ldr	r0, .L153+52
 1308 0110 C1F51C53 		rsb	r3, r1, #9984
 1309 0114 1033     		adds	r3, r3, #16
 1310 0116 9BB2     		uxth	r3, r3
 1311 0118 03FB04F3 		mul	r3, r3, r4
ARM GAS  C:\Users\danit\AppData\Local\Temp\ccBFeYtw.s 			page 24


 1312 011c 82FB0312 		smull	r1, r2, r2, r3
 1313 0120 DB17     		asrs	r3, r3, #31
 1314 0122 C3EB2232 		rsb	r2, r3, r2, asr #12
 1315 0126 92B2     		uxth	r2, r2
 1316 0128 0121     		movs	r1, #1
 1317              		.loc 2 275 0
 1318 012a 07B0     		add	sp, sp, #28
 1319              		.cfi_remember_state
 1320              		.cfi_def_cfa_offset 36
 1321              		@ sp needed
 1322 012c BDE8F04F 		pop	{r4, r5, r6, r7, r8, r9, r10, fp, lr}
 1323              		.cfi_restore 14
 1324              		.cfi_restore 11
 1325              		.cfi_restore 10
 1326              		.cfi_restore 9
 1327              		.cfi_restore 8
 1328              		.cfi_restore 7
 1329              		.cfi_restore 6
 1330              		.cfi_restore 5
 1331              		.cfi_restore 4
 1332              		.cfi_def_cfa_offset 0
 1333              		.loc 2 273 0
 1334 0130 FFF7FEBF 		b	pwmEnableChannel
 1335              	.LVL55:
 1336              	.L149:
 1337              		.cfi_restore_state
 1338              		.loc 2 167 0 discriminator 1
 1339 0134 FFF7FEFF 		bl	speedGetSpeed
 1340              	.LVL56:
 1341 0138 0928     		cmp	r0, #9
 1342 013a 40F2A480 		bls	.L151
 1343              		.loc 2 173 0
 1344 013e 3388     		ldrh	r3, [r6]
 1345 0140 002B     		cmp	r3, #0
 1346 0142 3FF47DAF 		beq	.L110
 1347              	.LBB18:
 1348              		.loc 2 175 0
 1349 0146 784B     		ldr	r3, .L153+72
 1350 0148 93F80080 		ldrb	r8, [r3]	@ zero_extendqisi2
 1351 014c B8F1000F 		cmp	r8, #0
 1352 0150 40F00481 		bne	.L152
 1353              		.loc 2 180 0
 1354 0154 754B     		ldr	r3, .L153+76
 1355 0156 93F80090 		ldrb	r9, [r3]	@ zero_extendqisi2
 1356 015a B9F1000F 		cmp	r9, #0
 1357 015e 00F0AB80 		beq	.L113
 1358              		.loc 2 182 0
 1359 0162 FFF7FEFF 		bl	speedGetRpm
 1360              	.LVL57:
 1361 0166 2080     		strh	r0, [r4]	@ movhi
 1362              		.loc 2 183 0
 1363 0168 FFF7FEFF 		bl	speedGetRpm
 1364              	.LVL58:
 1365 016c 704B     		ldr	r3, .L153+80
 1366 016e DFF8E4E1 		ldr	lr, .L153+116
 1367 0172 DFF8E4C1 		ldr	ip, .L153+120
 1368 0176 B3F90030 		ldrsh	r3, [r3]
ARM GAS  C:\Users\danit\AppData\Local\Temp\ccBFeYtw.s 			page 25


 1369 017a 6E4A     		ldr	r2, .L153+84
 1370 017c B4F90010 		ldrsh	r1, [r4]
 1371 0180 BEF900E0 		ldrsh	lr, [lr]
 1372 0184 BCF90040 		ldrsh	r4, [ip]
 1373 0188 0093     		str	r3, [sp]
 1374 018a C830     		adds	r0, r0, #200
 1375 018c 00B2     		sxth	r0, r0
 1376 018e 4346     		mov	r3, r8
 1377              	.L147:
 1378              		.loc 2 187 0
 1379 0190 CDF804E0 		str	lr, [sp, #4]
 1380 0194 0294     		str	r4, [sp, #8]
 1381 0196 0392     		str	r2, [sp, #12]
 1382 0198 0492     		str	r2, [sp, #16]
 1383 019a 0592     		str	r2, [sp, #20]
 1384              	.L146:
 1385 019c FFF7FEFF 		bl	cruisePID
 1386              	.LVL59:
 1387 01a0 654A     		ldr	r2, .L153+88
 1388              		.loc 2 189 0
 1389 01a2 594C     		ldr	r4, .L153+40
 1390              		.loc 2 187 0
 1391 01a4 C317     		asrs	r3, r0, #31
 1392 01a6 82FB0020 		smull	r2, r0, r2, r0
 1393 01aa C3EB6010 		rsb	r0, r3, r0, asr #5
 1394              		.loc 2 195 0
 1395 01ae 2A68     		ldr	r2, [r5]
 1396 01b0 B7F91830 		ldrsh	r3, [r7, #24]
 1397              		.loc 2 189 0
 1398 01b4 C0F51C50 		rsb	r0, r0, #9984
 1399 01b8 1030     		adds	r0, r0, #16
 1400              		.loc 2 195 0
 1401 01ba 9342     		cmp	r3, r2
 1402              		.loc 2 189 0
 1403 01bc 2060     		str	r0, [r4]
 1404              		.loc 2 195 0
 1405 01be 12DD     		ble	.L114
 1406              		.loc 2 195 0 is_stmt 0 discriminator 1
 1407 01c0 5E49     		ldr	r1, .L153+92
 1408 01c2 0978     		ldrb	r1, [r1]	@ zero_extendqisi2
 1409 01c4 79B1     		cbz	r1, .L114
 1410              		.loc 2 197 0 is_stmt 1
 1411 01c6 9B1A     		subs	r3, r3, r2
 1412 01c8 03EB8303 		add	r3, r3, r3, lsl #2
 1413 01cc 03EB8303 		add	r3, r3, r3, lsl #2
 1414 01d0 5B00     		lsls	r3, r3, #1
 1415 01d2 9BB2     		uxth	r3, r3
 1416              		.loc 2 198 0
 1417 01d4 41F28832 		movw	r2, #5000
 1418 01d8 9342     		cmp	r3, r2
 1419 01da 00F2DD80 		bhi	.L115
 1420              		.loc 2 197 0
 1421 01de 584A     		ldr	r2, .L153+96
 1422 01e0 1946     		mov	r1, r3
 1423 01e2 1380     		strh	r3, [r2]	@ movhi
 1424              	.L116:
 1425              		.loc 2 200 0
ARM GAS  C:\Users\danit\AppData\Local\Temp\ccBFeYtw.s 			page 26


 1426 01e4 0844     		add	r0, r0, r1
 1427              	.L114:
 1428              		.loc 2 206 0
 1429 01e6 42F21077 		movw	r7, #10000
 1430 01ea 8742     		cmp	r7, r0
 1431              		.loc 2 209 0
 1432 01ec 494D     		ldr	r5, .L153+52
 1433 01ee 4A4A     		ldr	r2, .L153+56
 1434 01f0 2B89     		ldrh	r3, [r5, #8]
 1435              		.loc 2 206 0
 1436 01f2 A8BF     		it	ge
 1437 01f4 0746     		movge	r7, r0
 1438              		.loc 2 207 0
 1439 01f6 B7F57A7F 		cmp	r7, #1000
 1440 01fa B8BF     		it	lt
 1441 01fc 4FF47A77 		movlt	r7, #1000
 1442              		.loc 2 209 0
 1443 0200 03FB07F3 		mul	r3, r3, r7
 1444 0204 82FB0312 		smull	r1, r2, r2, r3
 1445 0208 DB17     		asrs	r3, r3, #31
 1446 020a C3EB2232 		rsb	r2, r3, r2, asr #12
 1447 020e 92B2     		uxth	r2, r2
 1448 0210 2846     		mov	r0, r5
 1449 0212 0221     		movs	r1, #2
 1450              		.loc 2 207 0
 1451 0214 2760     		str	r7, [r4]
 1452              		.loc 2 209 0
 1453 0216 FFF7FEFF 		bl	pwmEnableChannel
 1454              	.LVL60:
 1455              		.loc 2 212 0
 1456 021a 0120     		movs	r0, #1
 1457 021c FFF7FEFF 		bl	measGetValue_2
 1458              	.LVL61:
 1459 0220 2368     		ldr	r3, [r4]
 1460 0222 C0F51C50 		rsb	r0, r0, #9984
 1461 0226 1030     		adds	r0, r0, #16
 1462 0228 9842     		cmp	r0, r3
 1463 022a 08DA     		bge	.L118
 1464              		.loc 2 214 0
 1465 022c 354A     		ldr	r2, .L153+36
 1466 022e 1388     		ldrh	r3, [r2]
 1467 0230 0133     		adds	r3, r3, #1
 1468 0232 9BB2     		uxth	r3, r3
 1469              		.loc 2 215 0
 1470 0234 962B     		cmp	r3, #150
 1471              		.loc 2 214 0
 1472 0236 1380     		strh	r3, [r2]	@ movhi
 1473              		.loc 2 217 0
 1474 0238 84BF     		itt	hi
 1475 023a 0023     		movhi	r3, #0
 1476 023c 3380     		strhhi	r3, [r6]	@ movhi
 1477              	.L118:
 1478              		.loc 2 223 0
 1479 023e 0220     		movs	r0, #2
 1480 0240 FFF7FEFF 		bl	measGetValue_2
 1481              	.LVL62:
 1482 0244 B0F5FA7F 		cmp	r0, #500
ARM GAS  C:\Users\danit\AppData\Local\Temp\ccBFeYtw.s 			page 27


 1483 0248 7FF74AAF 		ble	.L120
 1484              		.loc 2 225 0
 1485 024c 0023     		movs	r3, #0
 1486 024e 3380     		strh	r3, [r6]	@ movhi
 1487 0250 46E7     		b	.L120
 1488              	.L148:
 1489              	.LBE18:
 1490              		.loc 2 148 0
 1491 0252 274E     		ldr	r6, .L153+16
 1492 0254 254C     		ldr	r4, .L153+12
 1493 0256 B6F90030 		ldrsh	r3, [r6]
 1494 025a B4F90010 		ldrsh	r1, [r4]
 1495 025e 9942     		cmp	r1, r3
 1496 0260 7FF4EAAE 		bne	.L106
 1497              		.loc 2 150 0
 1498 0264 234B     		ldr	r3, .L153+20
 1499 0266 1A78     		ldrb	r2, [r3]	@ zero_extendqisi2
 1500 0268 002A     		cmp	r2, #0
 1501 026a 3FF4E5AE 		beq	.L106
 1502              		.loc 2 152 0
 1503 026e 0022     		movs	r2, #0
 1504              		.loc 2 153 0
 1505 0270 1046     		mov	r0, r2
 1506              		.loc 2 152 0
 1507 0272 1A70     		strb	r2, [r3]
 1508              		.loc 2 153 0
 1509 0274 FFF7FEFF 		bl	eepromWrite
 1510              	.LVL63:
 1511 0278 0028     		cmp	r0, #0
 1512 027a 3FF4DDAE 		beq	.L106
 1513              		.loc 2 154 0
 1514 027e 4FF6FF73 		movw	r3, #65535
 1515 0282 3380     		strh	r3, [r6]	@ movhi
 1516 0284 D8E6     		b	.L106
 1517              	.L151:
 1518              		.loc 2 169 0
 1519 0286 0023     		movs	r3, #0
 1520 0288 3380     		strh	r3, [r6]	@ movhi
 1521 028a D9E6     		b	.L110
 1522              	.L121:
 1523              	.LBB19:
 1524              		.loc 2 246 0 discriminator 1
 1525 028c 2B49     		ldr	r1, .L153+92
 1526 028e 0978     		ldrb	r1, [r1]	@ zero_extendqisi2
 1527 0290 0029     		cmp	r1, #0
 1528 0292 3FF40AAF 		beq	.L123
 1529              		.loc 2 248 0
 1530 0296 9B1A     		subs	r3, r3, r2
 1531 0298 03EB8303 		add	r3, r3, r3, lsl #2
 1532 029c 03EB8303 		add	r3, r3, r3, lsl #2
 1533 02a0 5B00     		lsls	r3, r3, #1
 1534 02a2 9BB2     		uxth	r3, r3
 1535              		.loc 2 249 0
 1536 02a4 41F28832 		movw	r2, #5000
 1537 02a8 9342     		cmp	r3, r2
 1538 02aa 79D8     		bhi	.L124
 1539              		.loc 2 248 0
ARM GAS  C:\Users\danit\AppData\Local\Temp\ccBFeYtw.s 			page 28


 1540 02ac 244A     		ldr	r2, .L153+96
 1541 02ae 1E46     		mov	r6, r3
 1542 02b0 1380     		strh	r3, [r2]	@ movhi
 1543              	.L125:
 1544              		.loc 2 251 0
 1545 02b2 2368     		ldr	r3, [r4]
 1546 02b4 1E44     		add	r6, r6, r3
 1547 02b6 F9E6     		b	.L122
 1548              	.L113:
 1549              	.LBE19:
 1550              	.LBB20:
 1551              		.loc 2 187 0
 1552 02b8 FFF7FEFF 		bl	speedGetRpm
 1553              	.LVL64:
 1554 02bc 1C4B     		ldr	r3, .L153+80
 1555 02be DFF894E0 		ldr	lr, .L153+116
 1556 02c2 DFF894C0 		ldr	ip, .L153+120
 1557 02c6 B3F90030 		ldrsh	r3, [r3]
 1558 02ca B4F90010 		ldrsh	r1, [r4]
 1559 02ce BEF900E0 		ldrsh	lr, [lr]
 1560 02d2 BCF90040 		ldrsh	r4, [ip]
 1561 02d6 174A     		ldr	r2, .L153+84
 1562 02d8 0093     		str	r3, [sp]
 1563 02da 00B2     		sxth	r0, r0
 1564 02dc 4B46     		mov	r3, r9
 1565 02de 57E7     		b	.L147
 1566              	.L154:
 1567              		.align	2
 1568              	.L153:
 1569 02e0 00000000 		.word	.LANCHOR3
 1570 02e4 00000000 		.word	bmsitems
 1571 02e8 00000000 		.word	.LANCHOR18
 1572 02ec 00000000 		.word	.LANCHOR19
 1573 02f0 00000000 		.word	.LANCHOR4
 1574 02f4 00000000 		.word	.LANCHOR5
 1575 02f8 00000000 		.word	.LANCHOR6
 1576 02fc 00000000 		.word	.LANCHOR8
 1577 0300 00000000 		.word	.LANCHOR9
 1578 0304 00000000 		.word	.LANCHOR10
 1579 0308 00000000 		.word	.LANCHOR0
 1580 030c 00000000 		.word	.LANCHOR11
 1581 0310 00000000 		.word	.LANCHOR15
 1582 0314 00000000 		.word	PWMD5
 1583 0318 AD8BDB68 		.word	1759218605
 1584 031c 00000000 		.word	.LANCHOR2
 1585 0320 00000000 		.word	.LANCHOR1
 1586 0324 00000000 		.word	.LANCHOR7
 1587 0328 00000000 		.word	.LANCHOR16
 1588 032c 00000000 		.word	.LANCHOR17
 1589 0330 00000000 		.word	.LANCHOR23
 1590 0334 40420F00 		.word	1000000
 1591 0338 1F85EB51 		.word	1374389535
 1592 033c 00000000 		.word	.LANCHOR26
 1593 0340 00000000 		.word	.LANCHOR21
 1594 0344 00002E40 		.word	1076756480
 1595 0348 00000000 		.word	.LANCHOR12
 1596 034c 00000000 		.word	.LANCHOR13
ARM GAS  C:\Users\danit\AppData\Local\Temp\ccBFeYtw.s 			page 29


 1597 0350 00000000 		.word	.LANCHOR14
 1598 0354 00000000 		.word	.LANCHOR24
 1599 0358 00000000 		.word	.LANCHOR25
 1600              	.L152:
 1601              		.loc 2 177 0
 1602 035c FFF7FEFF 		bl	speedGetRpm
 1603              	.LVL65:
 1604 0360 2080     		strh	r0, [r4]	@ movhi
 1605              		.loc 2 178 0
 1606 0362 FFF7FEFF 		bl	speedGetRpm
 1607              	.LVL66:
 1608 0366 DFF84CE0 		ldr	lr, .L155+12
 1609 036a DFF84CC0 		ldr	ip, .L155+16
 1610 036e 0E4B     		ldr	r3, .L155
 1611 0370 B4F90010 		ldrsh	r1, [r4]
 1612 0374 B3F90030 		ldrsh	r3, [r3]
 1613 0378 BEF900E0 		ldrsh	lr, [lr]
 1614 037c BCF90040 		ldrsh	r4, [ip]
 1615 0380 0A4A     		ldr	r2, .L155+4
 1616 0382 0293     		str	r3, [sp, #8]
 1617 0384 C838     		subs	r0, r0, #200
 1618 0386 CDF800E0 		str	lr, [sp]
 1619 038a 00B2     		sxth	r0, r0
 1620 038c 0194     		str	r4, [sp, #4]
 1621 038e 0392     		str	r2, [sp, #12]
 1622 0390 0492     		str	r2, [sp, #16]
 1623 0392 0592     		str	r2, [sp, #20]
 1624 0394 0023     		movs	r3, #0
 1625 0396 01E7     		b	.L146
 1626              	.L115:
 1627              		.loc 2 199 0
 1628 0398 054B     		ldr	r3, .L155+8
 1629 039a 1146     		mov	r1, r2
 1630 039c 1A80     		strh	r2, [r3]	@ movhi
 1631 039e 21E7     		b	.L116
 1632              	.L124:
 1633              	.LBE20:
 1634              	.LBB21:
 1635              		.loc 2 250 0
 1636 03a0 034B     		ldr	r3, .L155+8
 1637 03a2 1646     		mov	r6, r2
 1638 03a4 1A80     		strh	r2, [r3]	@ movhi
 1639 03a6 84E7     		b	.L125
 1640              	.L156:
 1641              		.align	2
 1642              	.L155:
 1643 03a8 00000000 		.word	.LANCHOR25
 1644 03ac 40420F00 		.word	1000000
 1645 03b0 00000000 		.word	.LANCHOR21
 1646 03b4 00000000 		.word	.LANCHOR23
 1647 03b8 00000000 		.word	.LANCHOR24
 1648              	.LBE21:
 1649              		.cfi_endproc
 1650              	.LFE120:
 1651              		.size	cruiseCalc, .-cruiseCalc
 1652              		.section	.text.cmd_cruisevalues,"ax",%progbits
 1653              		.align	2
ARM GAS  C:\Users\danit\AppData\Local\Temp\ccBFeYtw.s 			page 30


 1654              		.p2align 4,,15
 1655              		.global	cmd_cruisevalues
 1656              		.thumb
 1657              		.thumb_func
 1658              		.type	cmd_cruisevalues, %function
 1659              	cmd_cruisevalues:
 1660              	.LFB137:
 1661              		.loc 2 394 0
 1662              		.cfi_startproc
 1663              		@ args = 0, pretend = 0, frame = 0
 1664              		@ frame_needed = 0, uses_anonymous_args = 0
 1665              	.LVL67:
 1666 0000 2DE9F843 		push	{r3, r4, r5, r6, r7, r8, r9, lr}
 1667              		.cfi_def_cfa_offset 32
 1668              		.cfi_offset 3, -32
 1669              		.cfi_offset 4, -28
 1670              		.cfi_offset 5, -24
 1671              		.cfi_offset 6, -20
 1672              		.cfi_offset 7, -16
 1673              		.cfi_offset 8, -12
 1674              		.cfi_offset 9, -8
 1675              		.cfi_offset 14, -4
 1676              		.loc 2 398 0
 1677 0004 4A49     		ldr	r1, .L161
 1678              	.LVL68:
 1679              		.loc 2 403 0
 1680 0006 DFF8A481 		ldr	r8, .L161+124
 1681 000a 4A4F     		ldr	r7, .L161+4
 1682              		.loc 2 394 0
 1683 000c 0446     		mov	r4, r0
 1684              		.loc 2 398 0
 1685 000e FFF7FEFF 		bl	chprintf
 1686              	.LVL69:
 1687              		.loc 2 399 0
 1688 0012 2046     		mov	r0, r4
 1689 0014 4849     		ldr	r1, .L161+8
 1690 0016 FFF7FEFF 		bl	chprintf
 1691              	.LVL70:
 1692              		.loc 2 400 0
 1693 001a 7FE0     		b	.L158
 1694              	.L159:
 1695              		.loc 2 401 0
 1696 001c 0022     		movs	r2, #0
 1697 001e 1346     		mov	r3, r2
 1698 0020 2046     		mov	r0, r4
 1699 0022 4649     		ldr	r1, .L161+12
 1700              		.loc 2 405 0
 1701 0024 464E     		ldr	r6, .L161+16
 1702              		.loc 2 409 0
 1703 0026 474D     		ldr	r5, .L161+20
 1704              		.loc 2 401 0
 1705 0028 FFF7FEFF 		bl	chprintf
 1706              	.LVL71:
 1707              		.loc 2 403 0
 1708 002c D7E90001 		ldrd	r0, [r7]
 1709 0030 FFF7FEFF 		bl	__aeabi_d2iz
 1710              	.LVL72:
ARM GAS  C:\Users\danit\AppData\Local\Temp\ccBFeYtw.s 			page 31


 1711 0034 B8F90090 		ldrsh	r9, [r8]
 1712 0038 4349     		ldr	r1, .L161+24
 1713 003a 0346     		mov	r3, r0
 1714 003c 4A46     		mov	r2, r9
 1715 003e 2046     		mov	r0, r4
 1716 0040 FFF7FEFF 		bl	chprintf
 1717              	.LVL73:
 1718              		.loc 2 404 0
 1719 0044 414B     		ldr	r3, .L161+28
 1720 0046 424A     		ldr	r2, .L161+32
 1721 0048 D3E90001 		ldrd	r0, [r3]
 1722 004c B2F90090 		ldrsh	r9, [r2]
 1723 0050 FFF7FEFF 		bl	__aeabi_d2iz
 1724              	.LVL74:
 1725 0054 4A46     		mov	r2, r9
 1726 0056 0346     		mov	r3, r0
 1727 0058 3E49     		ldr	r1, .L161+36
 1728 005a 2046     		mov	r0, r4
 1729 005c FFF7FEFF 		bl	chprintf
 1730              	.LVL75:
 1731              		.loc 2 405 0
 1732 0060 3D4B     		ldr	r3, .L161+40
 1733 0062 B6F90090 		ldrsh	r9, [r6]
 1734 0066 D3E90001 		ldrd	r0, [r3]
 1735 006a FFF7FEFF 		bl	__aeabi_d2iz
 1736              	.LVL76:
 1737 006e 4A46     		mov	r2, r9
 1738 0070 0346     		mov	r3, r0
 1739 0072 3A49     		ldr	r1, .L161+44
 1740 0074 2046     		mov	r0, r4
 1741 0076 FFF7FEFF 		bl	chprintf
 1742              	.LVL77:
 1743              		.loc 2 406 0
 1744 007a 394B     		ldr	r3, .L161+48
 1745 007c B6F90020 		ldrsh	r2, [r6]
 1746 0080 1B68     		ldr	r3, [r3]
 1747 0082 3849     		ldr	r1, .L161+52
 1748 0084 2046     		mov	r0, r4
 1749 0086 FFF7FEFF 		bl	chprintf
 1750              	.LVL78:
 1751              		.loc 2 407 0
 1752 008a 374B     		ldr	r3, .L161+56
 1753 008c 3749     		ldr	r1, .L161+60
 1754 008e 1A68     		ldr	r2, [r3]
 1755 0090 2046     		mov	r0, r4
 1756 0092 FFF7FEFF 		bl	chprintf
 1757              	.LVL79:
 1758              		.loc 2 408 0
 1759 0096 364B     		ldr	r3, .L161+64
 1760 0098 3649     		ldr	r1, .L161+68
 1761 009a 1A88     		ldrh	r2, [r3]
 1762 009c 2046     		mov	r0, r4
 1763 009e FFF7FEFF 		bl	chprintf
 1764              	.LVL80:
 1765              		.loc 2 409 0
 1766 00a2 B5F90020 		ldrsh	r2, [r5]
 1767 00a6 3449     		ldr	r1, .L161+72
ARM GAS  C:\Users\danit\AppData\Local\Temp\ccBFeYtw.s 			page 32


 1768 00a8 2046     		mov	r0, r4
 1769 00aa FFF7FEFF 		bl	chprintf
 1770              	.LVL81:
 1771              		.loc 2 410 0
 1772 00ae FFF7FEFF 		bl	speedGetRpm
 1773              	.LVL82:
 1774 00b2 3249     		ldr	r1, .L161+76
 1775 00b4 0246     		mov	r2, r0
 1776 00b6 2046     		mov	r0, r4
 1777 00b8 FFF7FEFF 		bl	chprintf
 1778              	.LVL83:
 1779              		.loc 2 411 0
 1780 00bc B5F90050 		ldrsh	r5, [r5]
 1781 00c0 FFF7FEFF 		bl	speedGetRpm
 1782              	.LVL84:
 1783 00c4 2E49     		ldr	r1, .L161+80
 1784 00c6 2A1A     		subs	r2, r5, r0
 1785 00c8 2046     		mov	r0, r4
 1786 00ca FFF7FEFF 		bl	chprintf
 1787              	.LVL85:
 1788              		.loc 2 412 0
 1789 00ce 2046     		mov	r0, r4
 1790 00d0 2C49     		ldr	r1, .L161+84
 1791 00d2 FFF7FEFF 		bl	chprintf
 1792              	.LVL86:
 1793              		.loc 2 413 0
 1794 00d6 2C4B     		ldr	r3, .L161+88
 1795 00d8 2C49     		ldr	r1, .L161+92
 1796 00da 1A88     		ldrh	r2, [r3]
 1797 00dc 2046     		mov	r0, r4
 1798 00de FFF7FEFF 		bl	chprintf
 1799              	.LVL87:
 1800              		.loc 2 414 0
 1801 00e2 2046     		mov	r0, r4
 1802 00e4 2A49     		ldr	r1, .L161+96
 1803 00e6 0022     		movs	r2, #0
 1804 00e8 FFF7FEFF 		bl	chprintf
 1805              	.LVL88:
 1806              		.loc 2 415 0
 1807 00ec 294B     		ldr	r3, .L161+100
 1808 00ee 2A49     		ldr	r1, .L161+104
 1809 00f0 1A88     		ldrh	r2, [r3]
 1810 00f2 2046     		mov	r0, r4
 1811 00f4 FFF7FEFF 		bl	chprintf
 1812              	.LVL89:
 1813              		.loc 2 416 0
 1814 00f8 284B     		ldr	r3, .L161+108
 1815 00fa 2949     		ldr	r1, .L161+112
 1816 00fc 1A78     		ldrb	r2, [r3]	@ zero_extendqisi2
 1817 00fe 2046     		mov	r0, r4
 1818 0100 FFF7FEFF 		bl	chprintf
 1819              	.LVL90:
 1820              		.loc 2 417 0
 1821 0104 274B     		ldr	r3, .L161+116
 1822 0106 2849     		ldr	r1, .L161+120
 1823 0108 1A68     		ldr	r2, [r3]
 1824 010a C2F51C52 		rsb	r2, r2, #9984
ARM GAS  C:\Users\danit\AppData\Local\Temp\ccBFeYtw.s 			page 33


 1825 010e 2046     		mov	r0, r4
 1826 0110 1032     		adds	r2, r2, #16
 1827 0112 FFF7FEFF 		bl	chprintf
 1828              	.LVL91:
 1829              		.loc 2 418 0
 1830 0116 6420     		movs	r0, #100
 1831 0118 FFF7FEFF 		bl	chThdSleep
 1832              	.LVL92:
 1833              	.L158:
 1834              		.loc 2 400 0
 1835 011c 2368     		ldr	r3, [r4]
 1836 011e 2046     		mov	r0, r4
 1837 0120 5B69     		ldr	r3, [r3, #20]
 1838 0122 0021     		movs	r1, #0
 1839 0124 9847     		blx	r3
 1840              	.LVL93:
 1841 0126 0130     		adds	r0, r0, #1
 1842 0128 3FF478AF 		beq	.L159
 1843              		.loc 2 420 0
 1844 012c BDE8F883 		pop	{r3, r4, r5, r6, r7, r8, r9, pc}
 1845              	.LVL94:
 1846              	.L162:
 1847              		.align	2
 1848              	.L161:
 1849 0130 00000000 		.word	.LC0
 1850 0134 00000000 		.word	.LANCHOR11
 1851 0138 04000000 		.word	.LC1
 1852 013c 0C000000 		.word	.LC2
 1853 0140 00000000 		.word	.LANCHOR25
 1854 0144 00000000 		.word	.LANCHOR19
 1855 0148 18000000 		.word	.LC3
 1856 014c 00000000 		.word	.LANCHOR12
 1857 0150 00000000 		.word	.LANCHOR24
 1858 0154 30000000 		.word	.LC4
 1859 0158 00000000 		.word	.LANCHOR13
 1860 015c 48000000 		.word	.LC5
 1861 0160 00000000 		.word	.LANCHOR22
 1862 0164 60000000 		.word	.LC6
 1863 0168 00000000 		.word	.LANCHOR0
 1864 016c 78000000 		.word	.LC7
 1865 0170 00000000 		.word	.LANCHOR21
 1866 0174 84000000 		.word	.LC8
 1867 0178 A4000000 		.word	.LC9
 1868 017c B4000000 		.word	.LC10
 1869 0180 C8000000 		.word	.LC11
 1870 0184 DC000000 		.word	.LC12
 1871 0188 00000000 		.word	.LANCHOR10
 1872 018c E0000000 		.word	.LC13
 1873 0190 00010000 		.word	.LC14
 1874 0194 00000000 		.word	.LANCHOR6
 1875 0198 14010000 		.word	.LC15
 1876 019c 00000000 		.word	.LANCHOR7
 1877 01a0 28010000 		.word	.LC16
 1878 01a4 00000000 		.word	.LANCHOR1
 1879 01a8 3C010000 		.word	.LC17
 1880 01ac 00000000 		.word	.LANCHOR23
 1881              		.cfi_endproc
ARM GAS  C:\Users\danit\AppData\Local\Temp\ccBFeYtw.s 			page 34


 1882              	.LFE137:
 1883              		.size	cmd_cruisevalues, .-cmd_cruisevalues
 1884              		.section	.text.cmd_setcruisevalues,"ax",%progbits
 1885              		.align	2
 1886              		.p2align 4,,15
 1887              		.global	cmd_setcruisevalues
 1888              		.thumb
 1889              		.thumb_func
 1890              		.type	cmd_setcruisevalues, %function
 1891              	cmd_setcruisevalues:
 1892              	.LFB138:
 1893              		.loc 2 422 0
 1894              		.cfi_startproc
 1895              		@ args = 0, pretend = 0, frame = 0
 1896              		@ frame_needed = 0, uses_anonymous_args = 0
 1897              	.LVL95:
 1898 0000 F8B5     		push	{r3, r4, r5, r6, r7, lr}
 1899              		.cfi_def_cfa_offset 24
 1900              		.cfi_offset 3, -24
 1901              		.cfi_offset 4, -20
 1902              		.cfi_offset 5, -16
 1903              		.cfi_offset 6, -12
 1904              		.cfi_offset 7, -8
 1905              		.cfi_offset 14, -4
 1906              		.loc 2 422 0
 1907 0002 0446     		mov	r4, r0
 1908 0004 0D46     		mov	r5, r1
 1909              		.loc 2 428 0
 1910 0006 4D49     		ldr	r1, .L181
 1911              	.LVL96:
 1912              		.loc 2 422 0
 1913 0008 1646     		mov	r6, r2
 1914              		.loc 2 428 0
 1915 000a FFF7FEFF 		bl	chprintf
 1916              	.LVL97:
 1917              		.loc 2 429 0
 1918 000e 2046     		mov	r0, r4
 1919 0010 4B49     		ldr	r1, .L181+4
 1920 0012 FFF7FEFF 		bl	chprintf
 1921              	.LVL98:
 1922              		.loc 2 430 0
 1923 0016 2368     		ldr	r3, [r4]
 1924 0018 2046     		mov	r0, r4
 1925 001a 5B69     		ldr	r3, [r3, #20]
 1926 001c 0021     		movs	r1, #0
 1927 001e 9847     		blx	r3
 1928              	.LVL99:
 1929 0020 0130     		adds	r0, r0, #1
 1930 0022 00D0     		beq	.L174
 1931 0024 F8BD     		pop	{r3, r4, r5, r6, r7, pc}
 1932              	.LVL100:
 1933              	.L174:
 1934              		.loc 2 431 0
 1935 0026 0022     		movs	r2, #0
 1936 0028 1346     		mov	r3, r2
 1937 002a 2046     		mov	r0, r4
 1938 002c 4549     		ldr	r1, .L181+8
ARM GAS  C:\Users\danit\AppData\Local\Temp\ccBFeYtw.s 			page 35


 1939 002e FFF7FEFF 		bl	chprintf
 1940              	.LVL101:
 1941              		.loc 2 433 0
 1942 0032 022D     		cmp	r5, #2
 1943 0034 07D0     		beq	.L175
 1944              		.loc 2 473 0
 1945 0036 012D     		cmp	r5, #1
 1946 0038 55D0     		beq	.L176
 1947              	.LVL102:
 1948              	.L170:
 1949              		.loc 2 494 0
 1950 003a 2046     		mov	r0, r4
 1951 003c 4249     		ldr	r1, .L181+12
 1952              		.loc 2 499 0
 1953 003e BDE8F840 		pop	{r3, r4, r5, r6, r7, lr}
 1954              		.cfi_remember_state
 1955              		.cfi_restore 14
 1956              		.cfi_restore 7
 1957              		.cfi_restore 6
 1958              		.cfi_restore 5
 1959              		.cfi_restore 4
 1960              		.cfi_restore 3
 1961              		.cfi_def_cfa_offset 0
 1962              	.LVL103:
 1963              		.loc 2 494 0
 1964 0042 FFF7FEBF 		b	chprintf
 1965              	.LVL104:
 1966              	.L175:
 1967              		.cfi_restore_state
 1968              		.loc 2 433 0 discriminator 1
 1969 0046 3568     		ldr	r5, [r6]
 1970              	.LVL105:
 1971 0048 4049     		ldr	r1, .L181+16
 1972 004a 2846     		mov	r0, r5
 1973 004c FFF7FEFF 		bl	strcmp
 1974              	.LVL106:
 1975 0050 0028     		cmp	r0, #0
 1976 0052 33D0     		beq	.L177
 1977              		.loc 2 443 0 discriminator 1
 1978 0054 2846     		mov	r0, r5
 1979 0056 3E49     		ldr	r1, .L181+20
 1980 0058 FFF7FEFF 		bl	strcmp
 1981              	.LVL107:
 1982 005c 0028     		cmp	r0, #0
 1983 005e 37D0     		beq	.L178
 1984              		.loc 2 453 0 discriminator 1
 1985 0060 2846     		mov	r0, r5
 1986 0062 3C49     		ldr	r1, .L181+24
 1987 0064 FFF7FEFF 		bl	strcmp
 1988              	.LVL108:
 1989 0068 0028     		cmp	r0, #0
 1990 006a 55D0     		beq	.L179
 1991              		.loc 2 463 0 discriminator 1
 1992 006c 2846     		mov	r0, r5
 1993 006e 3A49     		ldr	r1, .L181+28
 1994 0070 FFF7FEFF 		bl	strcmp
 1995              	.LVL109:
ARM GAS  C:\Users\danit\AppData\Local\Temp\ccBFeYtw.s 			page 36


 1996 0074 0028     		cmp	r0, #0
 1997 0076 E0D1     		bne	.L170
 1998              		.loc 2 464 0
 1999 0078 7068     		ldr	r0, [r6, #4]
 2000              		.loc 2 466 0
 2001 007a 384F     		ldr	r7, .L181+32
 2002 007c 384D     		ldr	r5, .L181+36
 2003 007e 394E     		ldr	r6, .L181+40
 2004              	.LVL110:
 2005              		.loc 2 464 0
 2006 0080 FFF7FEFF 		bl	atol
 2007              	.LVL111:
 2008 0084 384B     		ldr	r3, .L181+44
 2009 0086 3880     		strh	r0, [r7]	@ movhi
 2010 0088 1A88     		ldrh	r2, [r3]
 2011              	.LVL112:
 2012              	.L167:
 2013              		.loc 2 487 0
 2014 008a 3849     		ldr	r1, .L181+48
 2015 008c 2046     		mov	r0, r4
 2016 008e 12B2     		sxth	r2, r2
 2017 0090 FFF7FEFF 		bl	chprintf
 2018              	.LVL113:
 2019              		.loc 2 488 0
 2020 0094 2046     		mov	r0, r4
 2021 0096 B6F90020 		ldrsh	r2, [r6]
 2022 009a 3549     		ldr	r1, .L181+52
 2023 009c FFF7FEFF 		bl	chprintf
 2024              	.LVL114:
 2025              		.loc 2 489 0
 2026 00a0 2046     		mov	r0, r4
 2027 00a2 B7F90020 		ldrsh	r2, [r7]
 2028 00a6 3349     		ldr	r1, .L181+56
 2029 00a8 FFF7FEFF 		bl	chprintf
 2030              	.LVL115:
 2031              		.loc 2 490 0
 2032 00ac 2046     		mov	r0, r4
 2033 00ae B5F90020 		ldrsh	r2, [r5]
 2034 00b2 3149     		ldr	r1, .L181+60
 2035              		.loc 2 499 0
 2036 00b4 BDE8F840 		pop	{r3, r4, r5, r6, r7, lr}
 2037              		.cfi_remember_state
 2038              		.cfi_restore 14
 2039              		.cfi_restore 7
 2040              		.cfi_restore 6
 2041              		.cfi_restore 5
 2042              		.cfi_restore 4
 2043              		.cfi_restore 3
 2044              		.cfi_def_cfa_offset 0
 2045              	.LVL116:
 2046              		.loc 2 490 0
 2047 00b8 FFF7FEBF 		b	chprintf
 2048              	.LVL117:
 2049              	.L177:
 2050              		.cfi_restore_state
 2051              		.loc 2 434 0
 2052 00bc 7068     		ldr	r0, [r6, #4]
ARM GAS  C:\Users\danit\AppData\Local\Temp\ccBFeYtw.s 			page 37


 2053              		.loc 2 436 0
 2054 00be 284D     		ldr	r5, .L181+36
 2055 00c0 284E     		ldr	r6, .L181+40
 2056              	.LVL118:
 2057 00c2 264F     		ldr	r7, .L181+32
 2058              		.loc 2 434 0
 2059 00c4 FFF7FEFF 		bl	atol
 2060              	.LVL119:
 2061 00c8 274B     		ldr	r3, .L181+44
 2062 00ca 2880     		strh	r0, [r5]	@ movhi
 2063 00cc 1A88     		ldrh	r2, [r3]
 2064 00ce DCE7     		b	.L167
 2065              	.LVL120:
 2066              	.L178:
 2067              		.loc 2 444 0
 2068 00d0 7068     		ldr	r0, [r6, #4]
 2069 00d2 234D     		ldr	r5, .L181+36
 2070 00d4 234E     		ldr	r6, .L181+40
 2071              	.LVL121:
 2072 00d6 214F     		ldr	r7, .L181+32
 2073 00d8 FFF7FEFF 		bl	atol
 2074              	.LVL122:
 2075              		.loc 2 446 0
 2076 00dc 224B     		ldr	r3, .L181+44
 2077              		.loc 2 444 0
 2078 00de 80B2     		uxth	r0, r0
 2079              	.LVL123:
 2080              		.loc 2 446 0
 2081 00e0 1880     		strh	r0, [r3]	@ movhi
 2082 00e2 0246     		mov	r2, r0
 2083 00e4 D1E7     		b	.L167
 2084              	.LVL124:
 2085              	.L176:
 2086              		.loc 2 473 0 discriminator 1
 2087 00e6 3668     		ldr	r6, [r6]
 2088              	.LVL125:
 2089 00e8 2449     		ldr	r1, .L181+64
 2090 00ea 3046     		mov	r0, r6
 2091 00ec FFF7FEFF 		bl	strcmp
 2092              	.LVL126:
 2093 00f0 0346     		mov	r3, r0
 2094 00f2 D8B1     		cbz	r0, .L180
 2095              		.loc 2 478 0 discriminator 1
 2096 00f4 3046     		mov	r0, r6
 2097 00f6 2249     		ldr	r1, .L181+68
 2098 00f8 FFF7FEFF 		bl	strcmp
 2099              	.LVL127:
 2100 00fc 0028     		cmp	r0, #0
 2101 00fe 9CD1     		bne	.L170
 2102              	.LBB22:
 2103              	.LBB23:
 2104              		.loc 2 282 0
 2105 0100 204B     		ldr	r3, .L181+72
 2106              	.LBE23:
 2107              	.LBE22:
 2108              		.loc 2 480 0
 2109 0102 2149     		ldr	r1, .L181+76
ARM GAS  C:\Users\danit\AppData\Local\Temp\ccBFeYtw.s 			page 38


 2110              	.LBB25:
 2111              	.LBB24:
 2112              		.loc 2 282 0
 2113 0104 1880     		strh	r0, [r3]	@ movhi
 2114              	.LBE24:
 2115              	.LBE25:
 2116              		.loc 2 480 0
 2117 0106 2046     		mov	r0, r4
 2118              	.LVL128:
 2119              	.L173:
 2120 0108 FFF7FEFF 		bl	chprintf
 2121              	.LVL129:
 2122 010c 164B     		ldr	r3, .L181+44
 2123 010e 144D     		ldr	r5, .L181+36
 2124              	.LVL130:
 2125 0110 1A88     		ldrh	r2, [r3]
 2126 0112 144E     		ldr	r6, .L181+40
 2127 0114 114F     		ldr	r7, .L181+32
 2128 0116 B8E7     		b	.L167
 2129              	.LVL131:
 2130              	.L179:
 2131              		.loc 2 454 0
 2132 0118 7068     		ldr	r0, [r6, #4]
 2133              		.loc 2 456 0
 2134 011a 124E     		ldr	r6, .L181+40
 2135              	.LVL132:
 2136 011c 104D     		ldr	r5, .L181+36
 2137 011e 0F4F     		ldr	r7, .L181+32
 2138              		.loc 2 454 0
 2139 0120 FFF7FEFF 		bl	atol
 2140              	.LVL133:
 2141 0124 104B     		ldr	r3, .L181+44
 2142 0126 3080     		strh	r0, [r6]	@ movhi
 2143 0128 1A88     		ldrh	r2, [r3]
 2144              		.loc 2 456 0
 2145 012a AEE7     		b	.L167
 2146              	.LVL134:
 2147              	.L180:
 2148              	.LBB26:
 2149              	.LBB27:
 2150              		.loc 2 278 0
 2151 012c 1548     		ldr	r0, .L181+72
 2152              		.loc 2 279 0
 2153 012e 174A     		ldr	r2, .L181+80
 2154              		.loc 2 278 0
 2155 0130 0580     		strh	r5, [r0]	@ movhi
 2156              	.LBE27:
 2157              	.LBE26:
 2158              		.loc 2 475 0
 2159 0132 1749     		ldr	r1, .L181+84
 2160              	.LBB29:
 2161              	.LBB28:
 2162              		.loc 2 279 0
 2163 0134 1380     		strh	r3, [r2]	@ movhi
 2164              	.LBE28:
 2165              	.LBE29:
 2166              		.loc 2 475 0
ARM GAS  C:\Users\danit\AppData\Local\Temp\ccBFeYtw.s 			page 39


 2167 0136 2046     		mov	r0, r4
 2168 0138 E6E7     		b	.L173
 2169              	.L182:
 2170 013a 00BF     		.align	2
 2171              	.L181:
 2172 013c 00000000 		.word	.LC0
 2173 0140 04000000 		.word	.LC1
 2174 0144 0C000000 		.word	.LC2
 2175 0148 C8010000 		.word	.LC29
 2176 014c 50010000 		.word	.LC18
 2177 0150 54010000 		.word	.LC19
 2178 0154 58010000 		.word	.LC20
 2179 0158 5C010000 		.word	.LC21
 2180 015c 00000000 		.word	.LANCHOR25
 2181 0160 00000000 		.word	.LANCHOR19
 2182 0164 00000000 		.word	.LANCHOR24
 2183 0168 00000000 		.word	.LANCHOR23
 2184 016c A4010000 		.word	.LC26
 2185 0170 B0010000 		.word	.LC27
 2186 0174 BC010000 		.word	.LC28
 2187 0178 A4000000 		.word	.LC9
 2188 017c 60010000 		.word	.LC22
 2189 0180 80010000 		.word	.LC24
 2190 0184 00000000 		.word	.LANCHOR6
 2191 0188 84010000 		.word	.LC25
 2192 018c 00000000 		.word	.LANCHOR10
 2193 0190 64010000 		.word	.LC23
 2194              		.cfi_endproc
 2195              	.LFE138:
 2196              		.size	cmd_setcruisevalues, .-cmd_setcruisevalues
 2197              		.section	.text.cmd_cruise,"ax",%progbits
 2198              		.align	2
 2199              		.p2align 4,,15
 2200              		.global	cmd_cruise
 2201              		.thumb
 2202              		.thumb_func
 2203              		.type	cmd_cruise, %function
 2204              	cmd_cruise:
 2205              	.LFB139:
 2206              		.loc 2 501 0
 2207              		.cfi_startproc
 2208              		@ args = 0, pretend = 0, frame = 0
 2209              		@ frame_needed = 0, uses_anonymous_args = 0
 2210              	.LVL135:
 2211 0000 70B5     		push	{r4, r5, r6, lr}
 2212              		.cfi_def_cfa_offset 16
 2213              		.cfi_offset 4, -16
 2214              		.cfi_offset 5, -12
 2215              		.cfi_offset 6, -8
 2216              		.cfi_offset 14, -4
 2217              		.loc 2 501 0
 2218 0002 0446     		mov	r4, r0
 2219 0004 0D46     		mov	r5, r1
 2220              		.loc 2 505 0
 2221 0006 1C49     		ldr	r1, .L189
 2222              	.LVL136:
 2223              		.loc 2 501 0
ARM GAS  C:\Users\danit\AppData\Local\Temp\ccBFeYtw.s 			page 40


 2224 0008 1646     		mov	r6, r2
 2225              		.loc 2 505 0
 2226 000a FFF7FEFF 		bl	chprintf
 2227              	.LVL137:
 2228              		.loc 2 506 0
 2229 000e 2046     		mov	r0, r4
 2230 0010 1A49     		ldr	r1, .L189+4
 2231 0012 FFF7FEFF 		bl	chprintf
 2232              	.LVL138:
 2233              		.loc 2 507 0
 2234 0016 0022     		movs	r2, #0
 2235 0018 2046     		mov	r0, r4
 2236 001a 1346     		mov	r3, r2
 2237 001c 1849     		ldr	r1, .L189+8
 2238 001e FFF7FEFF 		bl	chprintf
 2239              	.LVL139:
 2240              		.loc 2 509 0
 2241 0022 012D     		cmp	r5, #1
 2242 0024 09D0     		beq	.L187
 2243              	.LVL140:
 2244              	.L184:
 2245              		.loc 2 525 0
 2246 0026 2046     		mov	r0, r4
 2247 0028 1649     		ldr	r1, .L189+12
 2248 002a FFF7FEFF 		bl	chprintf
 2249              	.LVL141:
 2250              		.loc 2 526 0
 2251 002e 2046     		mov	r0, r4
 2252 0030 1549     		ldr	r1, .L189+16
 2253              		.loc 2 530 0
 2254 0032 BDE87040 		pop	{r4, r5, r6, lr}
 2255              		.cfi_remember_state
 2256              		.cfi_restore 14
 2257              		.cfi_restore 6
 2258              		.cfi_restore 5
 2259              		.cfi_restore 4
 2260              		.cfi_def_cfa_offset 0
 2261              	.LVL142:
 2262              		.loc 2 526 0
 2263 0036 FFF7FEBF 		b	chprintf
 2264              	.LVL143:
 2265              	.L187:
 2266              		.cfi_restore_state
 2267              		.loc 2 509 0 discriminator 1
 2268 003a 3668     		ldr	r6, [r6]
 2269              	.LVL144:
 2270 003c 1349     		ldr	r1, .L189+20
 2271 003e 3046     		mov	r0, r6
 2272 0040 FFF7FEFF 		bl	strcmp
 2273              	.LVL145:
 2274 0044 0346     		mov	r3, r0
 2275 0046 68B1     		cbz	r0, .L188
 2276              		.loc 2 514 0 discriminator 1
 2277 0048 3046     		mov	r0, r6
 2278 004a 1149     		ldr	r1, .L189+24
 2279 004c FFF7FEFF 		bl	strcmp
 2280              	.LVL146:
ARM GAS  C:\Users\danit\AppData\Local\Temp\ccBFeYtw.s 			page 41


 2281 0050 0028     		cmp	r0, #0
 2282 0052 E8D1     		bne	.L184
 2283              	.LBB30:
 2284              	.LBB31:
 2285              		.loc 2 282 0
 2286 0054 0F4B     		ldr	r3, .L189+28
 2287              	.LBE31:
 2288              	.LBE30:
 2289              		.loc 2 516 0
 2290 0056 1049     		ldr	r1, .L189+32
 2291              	.LBB33:
 2292              	.LBB32:
 2293              		.loc 2 282 0
 2294 0058 1880     		strh	r0, [r3]	@ movhi
 2295              	.LBE32:
 2296              	.LBE33:
 2297              		.loc 2 516 0
 2298 005a 2046     		mov	r0, r4
 2299              		.loc 2 530 0
 2300 005c BDE87040 		pop	{r4, r5, r6, lr}
 2301              		.cfi_remember_state
 2302              		.cfi_restore 14
 2303              		.cfi_restore 6
 2304              		.cfi_restore 5
 2305              		.cfi_restore 4
 2306              		.cfi_def_cfa_offset 0
 2307              	.LVL147:
 2308              		.loc 2 516 0
 2309 0060 FFF7FEBF 		b	chprintf
 2310              	.LVL148:
 2311              	.L188:
 2312              		.cfi_restore_state
 2313              	.LBB34:
 2314              	.LBB35:
 2315              		.loc 2 278 0
 2316 0064 0B48     		ldr	r0, .L189+28
 2317              		.loc 2 279 0
 2318 0066 0D4A     		ldr	r2, .L189+36
 2319              		.loc 2 278 0
 2320 0068 0580     		strh	r5, [r0]	@ movhi
 2321              	.LBE35:
 2322              	.LBE34:
 2323              		.loc 2 511 0
 2324 006a 0D49     		ldr	r1, .L189+40
 2325              	.LBB37:
 2326              	.LBB36:
 2327              		.loc 2 279 0
 2328 006c 1380     		strh	r3, [r2]	@ movhi
 2329              	.LBE36:
 2330              	.LBE37:
 2331              		.loc 2 511 0
 2332 006e 2046     		mov	r0, r4
 2333              		.loc 2 530 0
 2334 0070 BDE87040 		pop	{r4, r5, r6, lr}
 2335              		.cfi_restore 14
 2336              		.cfi_restore 6
 2337              		.cfi_restore 5
ARM GAS  C:\Users\danit\AppData\Local\Temp\ccBFeYtw.s 			page 42


 2338              		.cfi_restore 4
 2339              		.cfi_def_cfa_offset 0
 2340              	.LVL149:
 2341              		.loc 2 511 0
 2342 0074 FFF7FEBF 		b	chprintf
 2343              	.LVL150:
 2344              	.L190:
 2345              		.align	2
 2346              	.L189:
 2347 0078 00000000 		.word	.LC0
 2348 007c 04000000 		.word	.LC1
 2349 0080 0C000000 		.word	.LC2
 2350 0084 E4010000 		.word	.LC30
 2351 0088 F8010000 		.word	.LC31
 2352 008c 60010000 		.word	.LC22
 2353 0090 80010000 		.word	.LC24
 2354 0094 00000000 		.word	.LANCHOR6
 2355 0098 84010000 		.word	.LC25
 2356 009c 00000000 		.word	.LANCHOR10
 2357 00a0 64010000 		.word	.LC23
 2358              		.cfi_endproc
 2359              	.LFE139:
 2360              		.size	cmd_cruise, .-cmd_cruise
 2361              		.section	.text.cmd_current_limit_switch,"ax",%progbits
 2362              		.align	2
 2363              		.p2align 4,,15
 2364              		.global	cmd_current_limit_switch
 2365              		.thumb
 2366              		.thumb_func
 2367              		.type	cmd_current_limit_switch, %function
 2368              	cmd_current_limit_switch:
 2369              	.LFB140:
 2370              		.loc 2 533 0
 2371              		.cfi_startproc
 2372              		@ args = 0, pretend = 0, frame = 0
 2373              		@ frame_needed = 0, uses_anonymous_args = 0
 2374              	.LVL151:
 2375 0000 70B5     		push	{r4, r5, r6, lr}
 2376              		.cfi_def_cfa_offset 16
 2377              		.cfi_offset 4, -16
 2378              		.cfi_offset 5, -12
 2379              		.cfi_offset 6, -8
 2380              		.cfi_offset 14, -4
 2381              		.loc 2 533 0
 2382 0002 0446     		mov	r4, r0
 2383 0004 0D46     		mov	r5, r1
 2384              		.loc 2 534 0
 2385 0006 2349     		ldr	r1, .L200
 2386              	.LVL152:
 2387              		.loc 2 533 0
 2388 0008 1646     		mov	r6, r2
 2389              		.loc 2 534 0
 2390 000a FFF7FEFF 		bl	chprintf
 2391              	.LVL153:
 2392              		.loc 2 535 0
 2393 000e 2046     		mov	r0, r4
 2394 0010 2149     		ldr	r1, .L200+4
ARM GAS  C:\Users\danit\AppData\Local\Temp\ccBFeYtw.s 			page 43


 2395 0012 FFF7FEFF 		bl	chprintf
 2396              	.LVL154:
 2397              		.loc 2 536 0
 2398 0016 0022     		movs	r2, #0
 2399 0018 2046     		mov	r0, r4
 2400 001a 1346     		mov	r3, r2
 2401 001c 1F49     		ldr	r1, .L200+8
 2402 001e FFF7FEFF 		bl	chprintf
 2403              	.LVL155:
 2404              		.loc 2 538 0
 2405 0022 012D     		cmp	r5, #1
 2406 0024 14D0     		beq	.L197
 2407              	.LVL156:
 2408              	.L192:
 2409              		.loc 2 555 0
 2410 0026 1E4B     		ldr	r3, .L200+12
 2411 0028 1B78     		ldrb	r3, [r3]	@ zero_extendqisi2
 2412              		.loc 2 556 0
 2413 002a 2046     		mov	r0, r4
 2414              		.loc 2 555 0
 2415 002c 63B9     		cbnz	r3, .L198
 2416              	.LVL157:
 2417              		.loc 2 558 0
 2418 002e 1D49     		ldr	r1, .L200+16
 2419 0030 FFF7FEFF 		bl	chprintf
 2420              	.LVL158:
 2421              	.L195:
 2422              		.loc 2 560 0
 2423 0034 2046     		mov	r0, r4
 2424 0036 1C49     		ldr	r1, .L200+20
 2425 0038 FFF7FEFF 		bl	chprintf
 2426              	.LVL159:
 2427              		.loc 2 561 0
 2428 003c 2046     		mov	r0, r4
 2429 003e 1B49     		ldr	r1, .L200+24
 2430              		.loc 2 564 0
 2431 0040 BDE87040 		pop	{r4, r5, r6, lr}
 2432              		.cfi_remember_state
 2433              		.cfi_restore 14
 2434              		.cfi_restore 6
 2435              		.cfi_restore 5
 2436              		.cfi_restore 4
 2437              		.cfi_def_cfa_offset 0
 2438              	.LVL160:
 2439              		.loc 2 561 0
 2440 0044 FFF7FEBF 		b	chprintf
 2441              	.LVL161:
 2442              	.L198:
 2443              		.cfi_restore_state
 2444              		.loc 2 556 0
 2445 0048 1949     		ldr	r1, .L200+28
 2446 004a FFF7FEFF 		bl	chprintf
 2447              	.LVL162:
 2448 004e F1E7     		b	.L195
 2449              	.LVL163:
 2450              	.L197:
 2451              		.loc 2 538 0 discriminator 1
ARM GAS  C:\Users\danit\AppData\Local\Temp\ccBFeYtw.s 			page 44


 2452 0050 3668     		ldr	r6, [r6]
 2453              	.LVL164:
 2454 0052 1849     		ldr	r1, .L200+32
 2455 0054 3046     		mov	r0, r6
 2456 0056 FFF7FEFF 		bl	strcmp
 2457              	.LVL165:
 2458 005a 68B1     		cbz	r0, .L199
 2459              		.loc 2 544 0 discriminator 1
 2460 005c 3046     		mov	r0, r6
 2461 005e 1649     		ldr	r1, .L200+36
 2462 0060 FFF7FEFF 		bl	strcmp
 2463              	.LVL166:
 2464 0064 0028     		cmp	r0, #0
 2465 0066 DED1     		bne	.L192
 2466              		.loc 2 545 0
 2467 0068 0D4B     		ldr	r3, .L200+12
 2468              		.loc 2 546 0
 2469 006a 1449     		ldr	r1, .L200+40
 2470              		.loc 2 545 0
 2471 006c 1870     		strb	r0, [r3]
 2472              		.loc 2 546 0
 2473 006e 2046     		mov	r0, r4
 2474              		.loc 2 564 0
 2475 0070 BDE87040 		pop	{r4, r5, r6, lr}
 2476              		.cfi_remember_state
 2477              		.cfi_restore 14
 2478              		.cfi_restore 6
 2479              		.cfi_restore 5
 2480              		.cfi_restore 4
 2481              		.cfi_def_cfa_offset 0
 2482              	.LVL167:
 2483              		.loc 2 546 0
 2484 0074 FFF7FEBF 		b	chprintf
 2485              	.LVL168:
 2486              	.L199:
 2487              		.cfi_restore_state
 2488              		.loc 2 539 0
 2489 0078 094B     		ldr	r3, .L200+12
 2490              		.loc 2 540 0
 2491 007a 1149     		ldr	r1, .L200+44
 2492              		.loc 2 539 0
 2493 007c 1D70     		strb	r5, [r3]
 2494              		.loc 2 540 0
 2495 007e 2046     		mov	r0, r4
 2496 0080 FFF7FEFF 		bl	chprintf
 2497              	.LVL169:
 2498              		.loc 2 541 0
 2499 0084 0F4B     		ldr	r3, .L200+48
 2500 0086 1049     		ldr	r1, .L200+52
 2501 0088 1A7F     		ldrb	r2, [r3, #28]	@ zero_extendqisi2
 2502 008a 2046     		mov	r0, r4
 2503              		.loc 2 564 0
 2504 008c BDE87040 		pop	{r4, r5, r6, lr}
 2505              		.cfi_restore 14
 2506              		.cfi_restore 6
 2507              		.cfi_restore 5
 2508              		.cfi_restore 4
ARM GAS  C:\Users\danit\AppData\Local\Temp\ccBFeYtw.s 			page 45


 2509              		.cfi_def_cfa_offset 0
 2510              	.LVL170:
 2511              		.loc 2 541 0
 2512 0090 FFF7FEBF 		b	chprintf
 2513              	.LVL171:
 2514              	.L201:
 2515              		.align	2
 2516              	.L200:
 2517 0094 00000000 		.word	.LC0
 2518 0098 04000000 		.word	.LC1
 2519 009c 0C000000 		.word	.LC2
 2520 00a0 00000000 		.word	.LANCHOR26
 2521 00a4 80020000 		.word	.LC36
 2522 00a8 9C020000 		.word	.LC37
 2523 00ac BC020000 		.word	.LC38
 2524 00b0 64020000 		.word	.LC35
 2525 00b4 60010000 		.word	.LC22
 2526 00b8 80010000 		.word	.LC24
 2527 00bc 48020000 		.word	.LC34
 2528 00c0 0C020000 		.word	.LC32
 2529 00c4 00000000 		.word	bmsitems
 2530 00c8 28020000 		.word	.LC33
 2531              		.cfi_endproc
 2532              	.LFE140:
 2533              		.size	cmd_current_limit_switch, .-cmd_current_limit_switch
 2534              		.section	.text.cmd_regen_brake,"ax",%progbits
 2535              		.align	2
 2536              		.p2align 4,,15
 2537              		.global	cmd_regen_brake
 2538              		.thumb
 2539              		.thumb_func
 2540              		.type	cmd_regen_brake, %function
 2541              	cmd_regen_brake:
 2542              	.LFB141:
 2543              		.loc 2 566 0
 2544              		.cfi_startproc
 2545              		@ args = 0, pretend = 0, frame = 0
 2546              		@ frame_needed = 0, uses_anonymous_args = 0
 2547              	.LVL172:
 2548 0000 70B5     		push	{r4, r5, r6, lr}
 2549              		.cfi_def_cfa_offset 16
 2550              		.cfi_offset 4, -16
 2551              		.cfi_offset 5, -12
 2552              		.cfi_offset 6, -8
 2553              		.cfi_offset 14, -4
 2554              		.loc 2 566 0
 2555 0002 0446     		mov	r4, r0
 2556 0004 0D46     		mov	r5, r1
 2557              		.loc 2 570 0
 2558 0006 1B49     		ldr	r1, .L208
 2559              	.LVL173:
 2560              		.loc 2 566 0
 2561 0008 1646     		mov	r6, r2
 2562              		.loc 2 570 0
 2563 000a FFF7FEFF 		bl	chprintf
 2564              	.LVL174:
 2565              		.loc 2 571 0
ARM GAS  C:\Users\danit\AppData\Local\Temp\ccBFeYtw.s 			page 46


 2566 000e 2046     		mov	r0, r4
 2567 0010 1949     		ldr	r1, .L208+4
 2568 0012 FFF7FEFF 		bl	chprintf
 2569              	.LVL175:
 2570              		.loc 2 572 0
 2571 0016 0022     		movs	r2, #0
 2572 0018 2046     		mov	r0, r4
 2573 001a 1346     		mov	r3, r2
 2574 001c 1749     		ldr	r1, .L208+8
 2575 001e FFF7FEFF 		bl	chprintf
 2576              	.LVL176:
 2577              		.loc 2 574 0
 2578 0022 012D     		cmp	r5, #1
 2579 0024 09D0     		beq	.L206
 2580              	.LVL177:
 2581              	.L203:
 2582              		.loc 2 590 0
 2583 0026 2046     		mov	r0, r4
 2584 0028 1549     		ldr	r1, .L208+12
 2585 002a FFF7FEFF 		bl	chprintf
 2586              	.LVL178:
 2587              		.loc 2 591 0
 2588 002e 2046     		mov	r0, r4
 2589 0030 1449     		ldr	r1, .L208+16
 2590              		.loc 2 595 0
 2591 0032 BDE87040 		pop	{r4, r5, r6, lr}
 2592              		.cfi_remember_state
 2593              		.cfi_restore 14
 2594              		.cfi_restore 6
 2595              		.cfi_restore 5
 2596              		.cfi_restore 4
 2597              		.cfi_def_cfa_offset 0
 2598              	.LVL179:
 2599              		.loc 2 591 0
 2600 0036 FFF7FEBF 		b	chprintf
 2601              	.LVL180:
 2602              	.L206:
 2603              		.cfi_restore_state
 2604              		.loc 2 574 0 discriminator 1
 2605 003a 3668     		ldr	r6, [r6]
 2606              	.LVL181:
 2607 003c 1249     		ldr	r1, .L208+20
 2608 003e 3046     		mov	r0, r6
 2609 0040 FFF7FEFF 		bl	strcmp
 2610              	.LVL182:
 2611 0044 68B1     		cbz	r0, .L207
 2612              		.loc 2 579 0 discriminator 1
 2613 0046 3046     		mov	r0, r6
 2614 0048 1049     		ldr	r1, .L208+24
 2615 004a FFF7FEFF 		bl	strcmp
 2616              	.LVL183:
 2617 004e 0028     		cmp	r0, #0
 2618 0050 E9D1     		bne	.L203
 2619              	.LBB38:
 2620              	.LBB39:
 2621              		.loc 2 289 0
 2622 0052 0F4B     		ldr	r3, .L208+28
ARM GAS  C:\Users\danit\AppData\Local\Temp\ccBFeYtw.s 			page 47


 2623              	.LBE39:
 2624              	.LBE38:
 2625              		.loc 2 581 0
 2626 0054 0F49     		ldr	r1, .L208+32
 2627              	.LBB41:
 2628              	.LBB40:
 2629              		.loc 2 289 0
 2630 0056 1870     		strb	r0, [r3]
 2631              	.LBE40:
 2632              	.LBE41:
 2633              		.loc 2 581 0
 2634 0058 2046     		mov	r0, r4
 2635              		.loc 2 595 0
 2636 005a BDE87040 		pop	{r4, r5, r6, lr}
 2637              		.cfi_remember_state
 2638              		.cfi_restore 14
 2639              		.cfi_restore 6
 2640              		.cfi_restore 5
 2641              		.cfi_restore 4
 2642              		.cfi_def_cfa_offset 0
 2643              	.LVL184:
 2644              		.loc 2 581 0
 2645 005e FFF7FEBF 		b	chprintf
 2646              	.LVL185:
 2647              	.L207:
 2648              		.cfi_restore_state
 2649              	.LBB42:
 2650              	.LBB43:
 2651              		.loc 2 286 0
 2652 0062 0B4B     		ldr	r3, .L208+28
 2653              	.LBE43:
 2654              	.LBE42:
 2655              		.loc 2 576 0
 2656 0064 0C49     		ldr	r1, .L208+36
 2657              	.LBB45:
 2658              	.LBB44:
 2659              		.loc 2 286 0
 2660 0066 1D70     		strb	r5, [r3]
 2661              	.LBE44:
 2662              	.LBE45:
 2663              		.loc 2 576 0
 2664 0068 2046     		mov	r0, r4
 2665              		.loc 2 595 0
 2666 006a BDE87040 		pop	{r4, r5, r6, lr}
 2667              		.cfi_restore 14
 2668              		.cfi_restore 6
 2669              		.cfi_restore 5
 2670              		.cfi_restore 4
 2671              		.cfi_def_cfa_offset 0
 2672              	.LVL186:
 2673              		.loc 2 576 0
 2674 006e FFF7FEBF 		b	chprintf
 2675              	.LVL187:
 2676              	.L209:
 2677 0072 00BF     		.align	2
 2678              	.L208:
 2679 0074 00000000 		.word	.LC0
ARM GAS  C:\Users\danit\AppData\Local\Temp\ccBFeYtw.s 			page 48


 2680 0078 04000000 		.word	.LC1
 2681 007c 0C000000 		.word	.LC2
 2682 0080 20030000 		.word	.LC41
 2683 0084 38030000 		.word	.LC42
 2684 0088 60010000 		.word	.LC22
 2685 008c 80010000 		.word	.LC24
 2686 0090 00000000 		.word	.LANCHOR7
 2687 0094 FC020000 		.word	.LC40
 2688 0098 DC020000 		.word	.LC39
 2689              		.cfi_endproc
 2690              	.LFE141:
 2691              		.size	cmd_regen_brake, .-cmd_regen_brake
 2692              		.section	.data.K_D,"aw",%progbits
 2693              		.align	1
 2694              		.set	.LANCHOR25,. + 0
 2695              		.type	K_D, %object
 2696              		.size	K_D, 2
 2697              	K_D:
 2698 0000 F401     		.short	500
 2699              		.section	.bss.old_set,"aw",%nobits
 2700              		.align	1
 2701              		.set	.LANCHOR4,. + 0
 2702              		.type	old_set, %object
 2703              		.size	old_set, 2
 2704              	old_set:
 2705 0000 0000     		.space	2
 2706              		.section	.bss.regen_on,"aw",%nobits
 2707              		.set	.LANCHOR7,. + 0
 2708              		.type	regen_on, %object
 2709              		.size	regen_on, 1
 2710              	regen_on:
 2711 0000 00       		.space	1
 2712              		.section	.bss.eelozo,"aw",%nobits
 2713              		.align	3
 2714              		.set	.LANCHOR14,. + 0
 2715              		.type	eelozo, %object
 2716              		.size	eelozo, 8
 2717              	eelozo:
 2718 0000 00000000 		.space	8
 2718      00000000 
 2719              		.section	.bss.cruise_on,"aw",%nobits
 2720              		.align	1
 2721              		.set	.LANCHOR6,. + 0
 2722              		.type	cruise_on, %object
 2723              		.size	cruise_on, 2
 2724              	cruise_on:
 2725 0000 0000     		.space	2
 2726              		.section	.bss.brake_pwm,"aw",%nobits
 2727              		.align	2
 2728              		.set	.LANCHOR1,. + 0
 2729              		.type	brake_pwm, %object
 2730              		.size	brake_pwm, 4
 2731              	brake_pwm:
 2732 0000 00000000 		.space	4
 2733              		.section	.data.K_P,"aw",%progbits
 2734              		.align	1
 2735              		.set	.LANCHOR23,. + 0
ARM GAS  C:\Users\danit\AppData\Local\Temp\ccBFeYtw.s 			page 49


 2736              		.type	K_P, %object
 2737              		.size	K_P, 2
 2738              	K_P:
 2739 0000 1E00     		.short	30
 2740              		.section	.bss.pwm,"aw",%nobits
 2741              		.align	2
 2742              		.set	.LANCHOR0,. + 0
 2743              		.type	pwm, %object
 2744              		.size	pwm, 4
 2745              	pwm:
 2746 0000 00000000 		.space	4
 2747              		.section	.bss.eeprom_write_period,"aw",%nobits
 2748              		.align	2
 2749              		.set	.LANCHOR3,. + 0
 2750              		.type	eeprom_write_period, %object
 2751              		.size	eeprom_write_period, 4
 2752              	eeprom_write_period:
 2753 0000 00000000 		.space	4
 2754              		.section	.bss.cruise_indicator_index,"aw",%nobits
 2755              		.align	2
 2756              		.set	.LANCHOR9,. + 0
 2757              		.type	cruise_indicator_index, %object
 2758              		.size	cruise_indicator_index, 4
 2759              	cruise_indicator_index:
 2760 0000 00000000 		.space	4
 2761              		.section	.bss.set,"aw",%nobits
 2762              		.align	1
 2763              		.set	.LANCHOR19,. + 0
 2764              		.type	set, %object
 2765              		.size	set, 2
 2766              	set:
 2767 0000 0000     		.space	2
 2768              		.section	.bss.button_long_decelerat,"aw",%nobits
 2769              		.set	.LANCHOR17,. + 0
 2770              		.type	button_long_decelerat, %object
 2771              		.size	button_long_decelerat, 1
 2772              	button_long_decelerat:
 2773 0000 00       		.space	1
 2774              		.section	.data.K_I,"aw",%progbits
 2775              		.align	1
 2776              		.set	.LANCHOR24,. + 0
 2777              		.type	K_I, %object
 2778              		.size	K_I, 2
 2779              	K_I:
 2780 0000 0400     		.short	4
 2781              		.section	.rodata.str1.4,"aMS",%progbits,1
 2782              		.align	2
 2783              	.LC0:
 2784 0000 1B6300   		.ascii	"\033c\000"
 2785 0003 00       		.space	1
 2786              	.LC1:
 2787 0004 1B5B324A 		.ascii	"\033[2J\000"
 2787      00
 2788 0009 000000   		.space	3
 2789              	.LC2:
 2790 000c 1B5B2564 		.ascii	"\033[%d;%dH\000"
 2790      3B256448 
ARM GAS  C:\Users\danit\AppData\Local\Temp\ccBFeYtw.s 			page 50


 2790      00
 2791 0015 000000   		.space	3
 2792              	.LC3:
 2793 0018 4B5F503A 		.ascii	"K_P: %15d - P: %15d\015\012\000"
 2793      20253135 
 2793      64202D20 
 2793      503A2025 
 2793      3135640D 
 2794 002e 0000     		.space	2
 2795              	.LC4:
 2796 0030 4B5F493A 		.ascii	"K_I: %15d - I: %15d\015\012\000"
 2796      20253135 
 2796      64202D20 
 2796      493A2025 
 2796      3135640D 
 2797 0046 0000     		.space	2
 2798              	.LC5:
 2799 0048 4B5F443A 		.ascii	"K_D: %15d - D: %15d\015\012\000"
 2799      20253135 
 2799      64202D20 
 2799      443A2025 
 2799      3135640D 
 2800 005e 0000     		.space	2
 2801              	.LC6:
 2802 0060 4B5F443A 		.ascii	"K_D: %15d - R: %15d\015\012\000"
 2802      20253135 
 2802      64202D20 
 2802      523A2025 
 2802      3135640D 
 2803 0076 0000     		.space	2
 2804              	.LC7:
 2805 0078 70776D3A 		.ascii	"pwm: %15d\015\012\000"
 2805      20253135 
 2805      640D0A00 
 2806              	.LC8:
 2807 0084 43757272 		.ascii	"Current limit substract: %15d\015\012\000"
 2807      656E7420 
 2807      6C696D69 
 2807      74207375 
 2807      62737472 
 2808              	.LC9:
 2809 00a4 73657420 		.ascii	"set rpm: %15d\015\012\000"
 2809      72706D3A 
 2809      20253135 
 2809      640D0A00 
 2810              	.LC10:
 2811 00b4 696E7075 		.ascii	"input rpm: %15d\015\012\000"
 2811      74207270 
 2811      6D3A2025 
 2811      3135640D 
 2811      0A00
 2812 00c6 0000     		.space	2
 2813              	.LC11:
 2814 00c8 73657420 		.ascii	"set - rpm: %15d\015\012\000"
 2814      2D207270 
 2814      6D3A2025 
 2814      3135640D 
ARM GAS  C:\Users\danit\AppData\Local\Temp\ccBFeYtw.s 			page 51


 2814      0A00
 2815 00da 0000     		.space	2
 2816              	.LC12:
 2817 00dc 0D0A00   		.ascii	"\015\012\000"
 2818 00df 00       		.space	1
 2819              	.LC13:
 2820 00e0 63727569 		.ascii	"cruise_disable_period: %15d\015\012\000"
 2820      73655F64 
 2820      69736162 
 2820      6C655F70 
 2820      6572696F 
 2821 00fe 0000     		.space	2
 2822              	.LC14:
 2823 0100 70657269 		.ascii	"period_null: %15d\015\012\000"
 2823      6F645F6E 
 2823      756C6C3A 
 2823      20253135 
 2823      640D0A00 
 2824              	.LC15:
 2825 0114 63727569 		.ascii	"cruise_on: %15d\015\012\000"
 2825      73655F6F 
 2825      6E3A2025 
 2825      3135640D 
 2825      0A00
 2826 0126 0000     		.space	2
 2827              	.LC16:
 2828 0128 72656765 		.ascii	"regen_on: %15d\015\012\000"
 2828      6E5F6F6E 
 2828      3A202531 
 2828      35640D0A 
 2828      00
 2829 0139 000000   		.space	3
 2830              	.LC17:
 2831 013c 6272616B 		.ascii	"brake_pwm: %15d\015\012\000"
 2831      655F7077 
 2831      6D3A2025 
 2831      3135640D 
 2831      0A00
 2832 014e 0000     		.space	2
 2833              	.LC18:
 2834 0150 72706D00 		.ascii	"rpm\000"
 2835              	.LC19:
 2836 0154 4B5F5000 		.ascii	"K_P\000"
 2837              	.LC20:
 2838 0158 4B5F4900 		.ascii	"K_I\000"
 2839              	.LC21:
 2840 015c 4B5F4400 		.ascii	"K_D\000"
 2841              	.LC22:
 2842 0160 6F6E00   		.ascii	"on\000"
 2843 0163 00       		.space	1
 2844              	.LC23:
 2845 0164 43727569 		.ascii	"Cruise control switch ON!\015\012\000"
 2845      73652063 
 2845      6F6E7472 
 2845      6F6C2073 
 2845      77697463 
 2846              	.LC24:
ARM GAS  C:\Users\danit\AppData\Local\Temp\ccBFeYtw.s 			page 52


 2847 0180 6F666600 		.ascii	"off\000"
 2848              	.LC25:
 2849 0184 43727569 		.ascii	"Cruise control switch OFF!\015\012\000"
 2849      73652063 
 2849      6F6E7472 
 2849      6F6C2073 
 2849      77697463 
 2850 01a1 000000   		.space	3
 2851              	.LC26:
 2852 01a4 4B5F503A 		.ascii	"K_P: %15d\015\012\000"
 2852      20253135 
 2852      640D0A00 
 2853              	.LC27:
 2854 01b0 4B5F493A 		.ascii	"K_I: %15d\015\012\000"
 2854      20253135 
 2854      640D0A00 
 2855              	.LC28:
 2856 01bc 4B5F443A 		.ascii	"K_D: %15d\015\012\000"
 2856      20253135 
 2856      640D0A00 
 2857              	.LC29:
 2858 01c8 54686973 		.ascii	"This not good command!\015\012\000"
 2858      206E6F74 
 2858      20676F6F 
 2858      6420636F 
 2858      6D6D616E 
 2859 01e1 000000   		.space	3
 2860              	.LC30:
 2861 01e4 55736167 		.ascii	"Usage: cruise on\015\012\000"
 2861      653A2063 
 2861      72756973 
 2861      65206F6E 
 2861      0D0A00
 2862 01f7 00       		.space	1
 2863              	.LC31:
 2864 01f8 20202020 		.ascii	"       cruise off\015\012\000"
 2864      20202063 
 2864      72756973 
 2864      65206F66 
 2864      660D0A00 
 2865              	.LC32:
 2866 020c 43757272 		.ascii	"Current limit switch ON!\015\012\000"
 2866      656E7420 
 2866      6C696D69 
 2866      74207377 
 2866      69746368 
 2867 0227 00       		.space	1
 2868              	.LC33:
 2869 0228 44697363 		.ascii	"Discharge Current Limit: %d\015\012\000"
 2869      68617267 
 2869      65204375 
 2869      7272656E 
 2869      74204C69 
 2870 0246 0000     		.space	2
 2871              	.LC34:
 2872 0248 43757272 		.ascii	"Current limit switch OFF!\015\012\000"
 2872      656E7420 
ARM GAS  C:\Users\danit\AppData\Local\Temp\ccBFeYtw.s 			page 53


 2872      6C696D69 
 2872      74207377 
 2872      69746368 
 2873              	.LC35:
 2874 0264 43757272 		.ascii	"Current Limit Status: ON\015\012\000"
 2874      656E7420 
 2874      4C696D69 
 2874      74205374 
 2874      61747573 
 2875 027f 00       		.space	1
 2876              	.LC36:
 2877 0280 43757272 		.ascii	"Current Limit Status: OFF\015\012\000"
 2877      656E7420 
 2877      4C696D69 
 2877      74205374 
 2877      61747573 
 2878              	.LC37:
 2879 029c 55736167 		.ascii	"Usage: set_current_limit on\015\012\000"
 2879      653A2073 
 2879      65745F63 
 2879      75727265 
 2879      6E745F6C 
 2880 02ba 0000     		.space	2
 2881              	.LC38:
 2882 02bc 20202020 		.ascii	"       set_current_limit off\015\012\000"
 2882      20202073 
 2882      65745F63 
 2882      75727265 
 2882      6E745F6C 
 2883 02db 00       		.space	1
 2884              	.LC39:
 2885 02dc 52656765 		.ascii	"Regenerative brake switch ON!\015\012\000"
 2885      6E657261 
 2885      74697665 
 2885      20627261 
 2885      6B652073 
 2886              	.LC40:
 2887 02fc 52656765 		.ascii	"Regenerative brake switch OFF!\015\012\000"
 2887      6E657261 
 2887      74697665 
 2887      20627261 
 2887      6B652073 
 2888 031d 000000   		.space	3
 2889              	.LC41:
 2890 0320 55736167 		.ascii	"Usage: regen_brake on\015\012\000"
 2890      653A2072 
 2890      6567656E 
 2890      5F627261 
 2890      6B65206F 
 2891              	.LC42:
 2892 0338 20202020 		.ascii	"       regen_brake off\015\012\000"
 2892      20202072 
 2892      6567656E 
 2892      5F627261 
 2892      6B65206F 
 2893              		.section	.bss.d_tag,"aw",%nobits
 2894              		.align	3
ARM GAS  C:\Users\danit\AppData\Local\Temp\ccBFeYtw.s 			page 54


 2895              		.set	.LANCHOR13,. + 0
 2896              		.type	d_tag, %object
 2897              		.size	d_tag, 8
 2898              	d_tag:
 2899 0000 00000000 		.space	8
 2899      00000000 
 2900              		.section	.bss.p_tag,"aw",%nobits
 2901              		.align	3
 2902              		.set	.LANCHOR11,. + 0
 2903              		.type	p_tag, %object
 2904              		.size	p_tag, 8
 2905              	p_tag:
 2906 0000 00000000 		.space	8
 2906      00000000 
 2907              		.section	.bss.result,"aw",%nobits
 2908              		.align	2
 2909              		.set	.LANCHOR22,. + 0
 2910              		.type	result, %object
 2911              		.size	result, 4
 2912              	result:
 2913 0000 00000000 		.space	4
 2914              		.section	.data.current_limit_status,"aw",%progbits
 2915              		.set	.LANCHOR26,. + 0
 2916              		.type	current_limit_status, %object
 2917              		.size	current_limit_status, 1
 2918              	current_limit_status:
 2919 0000 01       		.byte	1
 2920              		.section	.bss.cruise_indicator,"aw",%nobits
 2921              		.set	.LANCHOR8,. + 0
 2922              		.type	cruise_indicator, %object
 2923              		.size	cruise_indicator, 1
 2924              	cruise_indicator:
 2925 0000 00       		.space	1
 2926              		.section	.data.cruise_pwmcfg,"aw",%progbits
 2927              		.align	2
 2928              		.set	.LANCHOR20,. + 0
 2929              		.type	cruise_pwmcfg, %object
 2930              		.size	cruise_pwmcfg, 52
 2931              	cruise_pwmcfg:
 2932 0000 80969800 		.word	10000000
 2933 0004 1027     		.short	10000
 2934 0006 0000     		.space	2
 2935 0008 00000000 		.word	0
 2936 000c 00000000 		.word	0
 2937 0010 00000000 		.word	0
 2938 0014 01000000 		.word	1
 2939 0018 00000000 		.word	0
 2940 001c 01000000 		.word	1
 2941 0020 00000000 		.word	0
 2942 0024 00000000 		.word	0
 2943 0028 00000000 		.word	0
 2944 002c 00000000 		.word	0
 2945 0030 00000000 		.word	0
 2946              		.section	.bss.cruise_disable_period,"aw",%nobits
 2947              		.align	1
 2948              		.set	.LANCHOR10,. + 0
 2949              		.type	cruise_disable_period, %object
ARM GAS  C:\Users\danit\AppData\Local\Temp\ccBFeYtw.s 			page 55


 2950              		.size	cruise_disable_period, 2
 2951              	cruise_disable_period:
 2952 0000 0000     		.space	2
 2953              		.section	.bss.substract,"aw",%nobits
 2954              		.align	1
 2955              		.set	.LANCHOR21,. + 0
 2956              		.type	substract, %object
 2957              		.size	substract, 2
 2958              	substract:
 2959 0000 0000     		.space	2
 2960              		.section	.bss.button_long_accel,"aw",%nobits
 2961              		.set	.LANCHOR16,. + 0
 2962              		.type	button_long_accel, %object
 2963              		.size	button_long_accel, 1
 2964              	button_long_accel:
 2965 0000 00       		.space	1
 2966              		.section	.bss.i_tag,"aw",%nobits
 2967              		.align	3
 2968              		.set	.LANCHOR12,. + 0
 2969              		.type	i_tag, %object
 2970              		.size	i_tag, 8
 2971              	i_tag:
 2972 0000 00000000 		.space	8
 2972      00000000 
 2973              		.section	.bss.e_tag,"aw",%nobits
 2974              		.align	3
 2975              		.set	.LANCHOR15,. + 0
 2976              		.type	e_tag, %object
 2977              		.size	e_tag, 8
 2978              	e_tag:
 2979 0000 00000000 		.space	8
 2979      00000000 
 2980              		.section	.bss.eeprom_write,"aw",%nobits
 2981              		.set	.LANCHOR5,. + 0
 2982              		.type	eeprom_write, %object
 2983              		.size	eeprom_write, 1
 2984              	eeprom_write:
 2985 0000 00       		.space	1
 2986              		.section	.bss.accel_limit,"aw",%nobits
 2987              		.align	2
 2988              		.set	.LANCHOR18,. + 0
 2989              		.type	accel_limit, %object
 2990              		.size	accel_limit, 4
 2991              	accel_limit:
 2992 0000 00000000 		.space	4
 2993              		.section	.bss.save_pwm,"aw",%nobits
 2994              		.align	2
 2995              		.set	.LANCHOR2,. + 0
 2996              		.type	save_pwm, %object
 2997              		.size	save_pwm, 4
 2998              	save_pwm:
 2999 0000 00000000 		.space	4
 3000              		.text
 3001              	.Letext0:
 3002              		.file 3 "c:\\program files (x86)\\gnu tools arm embedded\\4.9 2015q2\\lib\\gcc\\arm-none-eabi\\4.9
 3003              		.file 4 "c:\\program files (x86)\\gnu tools arm embedded\\4.9 2015q2\\arm-none-eabi\\include\\mach
 3004              		.file 5 "c:\\program files (x86)\\gnu tools arm embedded\\4.9 2015q2\\arm-none-eabi\\include\\sys\
ARM GAS  C:\Users\danit\AppData\Local\Temp\ccBFeYtw.s 			page 56


 3005              		.file 6 "../../../ChibiOS/os/ports/GCC/ARMCMx/chtypes.h"
 3006              		.file 7 "../../../ChibiOS/os/ports/GCC/ARMCMx/chcore_v7m.h"
 3007              		.file 8 "../../../ChibiOS/os/kernel/include/chstreams.h"
 3008              		.file 9 "../../../ChibiOS/os/hal/include/io_channel.h"
 3009              		.file 10 "../../../ChibiOS/os/hal/platforms/STM32/TIMv1/stm32_tim.h"
 3010              		.file 11 "../../../ChibiOS/os/hal/include/pwm.h"
 3011              		.file 12 "../../../ChibiOS/os/hal/platforms/STM32/TIMv1/pwm_lld.h"
 3012              		.file 13 "c:\\program files (x86)\\gnu tools arm embedded\\4.9 2015q2\\lib\\gcc\\arm-none-eabi\\4.
 3013              		.file 14 "<built-in>"
 3014              		.file 15 "include/eepromItems.h"
 3015              		.file 16 "include/meas.h"
 3016              		.file 17 "include/can_items.h"
 3017              		.file 18 "include/speed.h"
 3018              		.file 19 "../../../ChibiOS/os/ports/common/ARMCMx/CMSIS/include/core_cm4.h"
 3019              		.file 20 "include/can_comm.h"
 3020              		.file 21 "include/eeprom.h"
 3021              		.file 22 "../../../ChibiOS/os/kernel/include/chthreads.h"
 3022              		.file 23 "c:\\program files (x86)\\gnu tools arm embedded\\4.9 2015q2\\arm-none-eabi\\include\\str
 3023              		.file 24 "c:\\program files (x86)\\gnu tools arm embedded\\4.9 2015q2\\arm-none-eabi\\include\\std
 3024              		.section	.debug_info,"",%progbits
 3025              	.Ldebug_info0:
 3026 0000 671A0000 		.4byte	0x1a67
 3027 0004 0400     		.2byte	0x4
 3028 0006 00000000 		.4byte	.Ldebug_abbrev0
 3029 000a 04       		.byte	0x4
 3030 000b 01       		.uleb128 0x1
 3031 000c CE040000 		.4byte	.LASF198
 3032 0010 01       		.byte	0x1
 3033 0011 F1050000 		.4byte	.LASF199
 3034 0015 A9090000 		.4byte	.LASF200
 3035 0019 E0000000 		.4byte	.Ldebug_ranges0+0xe0
 3036 001d 00000000 		.4byte	0
 3037 0021 00000000 		.4byte	.Ldebug_line0
 3038 0025 02       		.uleb128 0x2
 3039 0026 08       		.byte	0x8
 3040 0027 04       		.byte	0x4
 3041 0028 66070000 		.4byte	.LASF0
 3042 002c 03       		.uleb128 0x3
 3043 002d 04       		.byte	0x4
 3044 002e 05       		.byte	0x5
 3045 002f 696E7400 		.ascii	"int\000"
 3046 0033 04       		.uleb128 0x4
 3047 0034 57000000 		.4byte	.LASF3
 3048 0038 03       		.byte	0x3
 3049 0039 D4       		.byte	0xd4
 3050 003a 3E000000 		.4byte	0x3e
 3051 003e 02       		.uleb128 0x2
 3052 003f 04       		.byte	0x4
 3053 0040 07       		.byte	0x7
 3054 0041 AD020000 		.4byte	.LASF1
 3055 0045 02       		.uleb128 0x2
 3056 0046 01       		.byte	0x1
 3057 0047 06       		.byte	0x6
 3058 0048 37010000 		.4byte	.LASF2
 3059 004c 04       		.uleb128 0x4
 3060 004d 82000000 		.4byte	.LASF4
 3061 0051 04       		.byte	0x4
ARM GAS  C:\Users\danit\AppData\Local\Temp\ccBFeYtw.s 			page 57


 3062 0052 1D       		.byte	0x1d
 3063 0053 57000000 		.4byte	0x57
 3064 0057 02       		.uleb128 0x2
 3065 0058 01       		.byte	0x1
 3066 0059 08       		.byte	0x8
 3067 005a A0060000 		.4byte	.LASF5
 3068 005e 04       		.uleb128 0x4
 3069 005f 69020000 		.4byte	.LASF6
 3070 0063 04       		.byte	0x4
 3071 0064 29       		.byte	0x29
 3072 0065 69000000 		.4byte	0x69
 3073 0069 02       		.uleb128 0x2
 3074 006a 02       		.byte	0x2
 3075 006b 05       		.byte	0x5
 3076 006c E2060000 		.4byte	.LASF7
 3077 0070 04       		.uleb128 0x4
 3078 0071 EB070000 		.4byte	.LASF8
 3079 0075 04       		.byte	0x4
 3080 0076 2B       		.byte	0x2b
 3081 0077 7B000000 		.4byte	0x7b
 3082 007b 02       		.uleb128 0x2
 3083 007c 02       		.byte	0x2
 3084 007d 07       		.byte	0x7
 3085 007e 6B030000 		.4byte	.LASF9
 3086 0082 04       		.uleb128 0x4
 3087 0083 D0030000 		.4byte	.LASF10
 3088 0087 04       		.byte	0x4
 3089 0088 3F       		.byte	0x3f
 3090 0089 8D000000 		.4byte	0x8d
 3091 008d 02       		.uleb128 0x2
 3092 008e 04       		.byte	0x4
 3093 008f 05       		.byte	0x5
 3094 0090 92000000 		.4byte	.LASF11
 3095 0094 04       		.uleb128 0x4
 3096 0095 36020000 		.4byte	.LASF12
 3097 0099 04       		.byte	0x4
 3098 009a 41       		.byte	0x41
 3099 009b 9F000000 		.4byte	0x9f
 3100 009f 02       		.uleb128 0x2
 3101 00a0 04       		.byte	0x4
 3102 00a1 07       		.byte	0x7
 3103 00a2 E0020000 		.4byte	.LASF13
 3104 00a6 02       		.uleb128 0x2
 3105 00a7 08       		.byte	0x8
 3106 00a8 05       		.byte	0x5
 3107 00a9 CC010000 		.4byte	.LASF14
 3108 00ad 04       		.uleb128 0x4
 3109 00ae 08060000 		.4byte	.LASF15
 3110 00b2 04       		.byte	0x4
 3111 00b3 5B       		.byte	0x5b
 3112 00b4 B8000000 		.4byte	0xb8
 3113 00b8 02       		.uleb128 0x2
 3114 00b9 08       		.byte	0x8
 3115 00ba 07       		.byte	0x7
 3116 00bb A2000000 		.4byte	.LASF16
 3117 00bf 02       		.uleb128 0x2
 3118 00c0 04       		.byte	0x4
ARM GAS  C:\Users\danit\AppData\Local\Temp\ccBFeYtw.s 			page 58


 3119 00c1 07       		.byte	0x7
 3120 00c2 74040000 		.4byte	.LASF17
 3121 00c6 05       		.uleb128 0x5
 3122 00c7 04       		.byte	0x4
 3123 00c8 06       		.uleb128 0x6
 3124 00c9 04       		.byte	0x4
 3125 00ca CE000000 		.4byte	0xce
 3126 00ce 02       		.uleb128 0x2
 3127 00cf 01       		.byte	0x1
 3128 00d0 08       		.byte	0x8
 3129 00d1 BB070000 		.4byte	.LASF18
 3130 00d5 06       		.uleb128 0x6
 3131 00d6 04       		.byte	0x4
 3132 00d7 DB000000 		.4byte	0xdb
 3133 00db 07       		.uleb128 0x7
 3134 00dc CE000000 		.4byte	0xce
 3135 00e0 04       		.uleb128 0x4
 3136 00e1 F0080000 		.4byte	.LASF19
 3137 00e5 05       		.byte	0x5
 3138 00e6 14       		.byte	0x14
 3139 00e7 4C000000 		.4byte	0x4c
 3140 00eb 04       		.uleb128 0x4
 3141 00ec 18010000 		.4byte	.LASF20
 3142 00f0 05       		.byte	0x5
 3143 00f1 19       		.byte	0x19
 3144 00f2 5E000000 		.4byte	0x5e
 3145 00f6 04       		.uleb128 0x4
 3146 00f7 DA010000 		.4byte	.LASF21
 3147 00fb 05       		.byte	0x5
 3148 00fc 1A       		.byte	0x1a
 3149 00fd 70000000 		.4byte	0x70
 3150 0101 04       		.uleb128 0x4
 3151 0102 6C040000 		.4byte	.LASF22
 3152 0106 05       		.byte	0x5
 3153 0107 1F       		.byte	0x1f
 3154 0108 82000000 		.4byte	0x82
 3155 010c 04       		.uleb128 0x4
 3156 010d 6D070000 		.4byte	.LASF23
 3157 0111 05       		.byte	0x5
 3158 0112 20       		.byte	0x20
 3159 0113 94000000 		.4byte	0x94
 3160 0117 04       		.uleb128 0x4
 3161 0118 73000000 		.4byte	.LASF24
 3162 011c 05       		.byte	0x5
 3163 011d 26       		.byte	0x26
 3164 011e AD000000 		.4byte	0xad
 3165 0122 04       		.uleb128 0x4
 3166 0123 59010000 		.4byte	.LASF25
 3167 0127 06       		.byte	0x6
 3168 0128 2B       		.byte	0x2b
 3169 0129 2D010000 		.4byte	0x12d
 3170 012d 02       		.uleb128 0x2
 3171 012e 01       		.byte	0x1
 3172 012f 02       		.byte	0x2
 3173 0130 95060000 		.4byte	.LASF26
 3174 0134 04       		.uleb128 0x4
 3175 0135 B7030000 		.4byte	.LASF27
ARM GAS  C:\Users\danit\AppData\Local\Temp\ccBFeYtw.s 			page 59


 3176 0139 06       		.byte	0x6
 3177 013a 31       		.byte	0x31
 3178 013b 01010000 		.4byte	0x101
 3179 013f 04       		.uleb128 0x4
 3180 0140 00080000 		.4byte	.LASF28
 3181 0144 06       		.byte	0x6
 3182 0145 35       		.byte	0x35
 3183 0146 0C010000 		.4byte	0x10c
 3184 014a 04       		.uleb128 0x4
 3185 014b 20060000 		.4byte	.LASF29
 3186 014f 07       		.byte	0x7
 3187 0150 EB       		.byte	0xeb
 3188 0151 17010000 		.4byte	0x117
 3189 0155 08       		.uleb128 0x8
 3190 0156 0C010000 		.4byte	0x10c
 3191 015a 06       		.uleb128 0x6
 3192 015b 04       		.byte	0x4
 3193 015c 60010000 		.4byte	0x160
 3194 0160 09       		.uleb128 0x9
 3195 0161 34010000 		.4byte	0x134
 3196 0165 6F010000 		.4byte	0x16f
 3197 0169 0A       		.uleb128 0xa
 3198 016a C6000000 		.4byte	0xc6
 3199 016e 00       		.byte	0
 3200 016f 06       		.uleb128 0x6
 3201 0170 04       		.byte	0x4
 3202 0171 E0000000 		.4byte	0xe0
 3203 0175 0B       		.uleb128 0xb
 3204 0176 08070000 		.4byte	.LASF33
 3205 017a 10       		.byte	0x10
 3206 017b 08       		.byte	0x8
 3207 017c 48       		.byte	0x48
 3208 017d B2010000 		.4byte	0x1b2
 3209 0181 0C       		.uleb128 0xc
 3210 0182 47040000 		.4byte	.LASF30
 3211 0186 08       		.byte	0x8
 3212 0187 49       		.byte	0x49
 3213 0188 D6010000 		.4byte	0x1d6
 3214 018c 00       		.byte	0
 3215 018d 0C       		.uleb128 0xc
 3216 018e 45090000 		.4byte	.LASF31
 3217 0192 08       		.byte	0x8
 3218 0193 49       		.byte	0x49
 3219 0194 F5010000 		.4byte	0x1f5
 3220 0198 04       		.byte	0x4
 3221 0199 0D       		.uleb128 0xd
 3222 019a 70757400 		.ascii	"put\000"
 3223 019e 08       		.byte	0x8
 3224 019f 49       		.byte	0x49
 3225 01a0 0F020000 		.4byte	0x20f
 3226 01a4 08       		.byte	0x8
 3227 01a5 0D       		.uleb128 0xd
 3228 01a6 67657400 		.ascii	"get\000"
 3229 01aa 08       		.byte	0x8
 3230 01ab 49       		.byte	0x49
 3231 01ac 5A010000 		.4byte	0x15a
 3232 01b0 0C       		.byte	0xc
ARM GAS  C:\Users\danit\AppData\Local\Temp\ccBFeYtw.s 			page 60


 3233 01b1 00       		.byte	0
 3234 01b2 09       		.uleb128 0x9
 3235 01b3 33000000 		.4byte	0x33
 3236 01b7 CB010000 		.4byte	0x1cb
 3237 01bb 0A       		.uleb128 0xa
 3238 01bc C6000000 		.4byte	0xc6
 3239 01c0 0A       		.uleb128 0xa
 3240 01c1 CB010000 		.4byte	0x1cb
 3241 01c5 0A       		.uleb128 0xa
 3242 01c6 33000000 		.4byte	0x33
 3243 01ca 00       		.byte	0
 3244 01cb 06       		.uleb128 0x6
 3245 01cc 04       		.byte	0x4
 3246 01cd D1010000 		.4byte	0x1d1
 3247 01d1 07       		.uleb128 0x7
 3248 01d2 E0000000 		.4byte	0xe0
 3249 01d6 06       		.uleb128 0x6
 3250 01d7 04       		.byte	0x4
 3251 01d8 B2010000 		.4byte	0x1b2
 3252 01dc 09       		.uleb128 0x9
 3253 01dd 33000000 		.4byte	0x33
 3254 01e1 F5010000 		.4byte	0x1f5
 3255 01e5 0A       		.uleb128 0xa
 3256 01e6 C6000000 		.4byte	0xc6
 3257 01ea 0A       		.uleb128 0xa
 3258 01eb 6F010000 		.4byte	0x16f
 3259 01ef 0A       		.uleb128 0xa
 3260 01f0 33000000 		.4byte	0x33
 3261 01f4 00       		.byte	0
 3262 01f5 06       		.uleb128 0x6
 3263 01f6 04       		.byte	0x4
 3264 01f7 DC010000 		.4byte	0x1dc
 3265 01fb 09       		.uleb128 0x9
 3266 01fc 34010000 		.4byte	0x134
 3267 0200 0F020000 		.4byte	0x20f
 3268 0204 0A       		.uleb128 0xa
 3269 0205 C6000000 		.4byte	0xc6
 3270 0209 0A       		.uleb128 0xa
 3271 020a E0000000 		.4byte	0xe0
 3272 020e 00       		.byte	0
 3273 020f 06       		.uleb128 0x6
 3274 0210 04       		.byte	0x4
 3275 0211 FB010000 		.4byte	0x1fb
 3276 0215 0E       		.uleb128 0xe
 3277 0216 04       		.byte	0x4
 3278 0217 08       		.byte	0x8
 3279 0218 51       		.byte	0x51
 3280 0219 2A020000 		.4byte	0x22a
 3281 021d 0D       		.uleb128 0xd
 3282 021e 766D7400 		.ascii	"vmt\000"
 3283 0222 08       		.byte	0x8
 3284 0223 53       		.byte	0x53
 3285 0224 2A020000 		.4byte	0x22a
 3286 0228 00       		.byte	0
 3287 0229 00       		.byte	0
 3288 022a 06       		.uleb128 0x6
 3289 022b 04       		.byte	0x4
ARM GAS  C:\Users\danit\AppData\Local\Temp\ccBFeYtw.s 			page 61


 3290 022c 30020000 		.4byte	0x230
 3291 0230 07       		.uleb128 0x7
 3292 0231 75010000 		.4byte	0x175
 3293 0235 04       		.uleb128 0x4
 3294 0236 98020000 		.4byte	.LASF32
 3295 023a 08       		.byte	0x8
 3296 023b 55       		.byte	0x55
 3297 023c 15020000 		.4byte	0x215
 3298 0240 0F       		.uleb128 0xf
 3299 0241 0C010000 		.4byte	0x10c
 3300 0245 50020000 		.4byte	0x250
 3301 0249 10       		.uleb128 0x10
 3302 024a BF000000 		.4byte	0xbf
 3303 024e 03       		.byte	0x3
 3304 024f 00       		.byte	0
 3305 0250 07       		.uleb128 0x7
 3306 0251 01010000 		.4byte	0x101
 3307 0255 08       		.uleb128 0x8
 3308 0256 01010000 		.4byte	0x101
 3309 025a 0B       		.uleb128 0xb
 3310 025b B9000000 		.4byte	.LASF34
 3311 025f 20       		.byte	0x20
 3312 0260 09       		.byte	0x9
 3313 0261 4E       		.byte	0x4e
 3314 0262 C7020000 		.4byte	0x2c7
 3315 0266 0C       		.uleb128 0xc
 3316 0267 47040000 		.4byte	.LASF30
 3317 026b 09       		.byte	0x9
 3318 026c 4F       		.byte	0x4f
 3319 026d D6010000 		.4byte	0x1d6
 3320 0271 00       		.byte	0
 3321 0272 0C       		.uleb128 0xc
 3322 0273 45090000 		.4byte	.LASF31
 3323 0277 09       		.byte	0x9
 3324 0278 4F       		.byte	0x4f
 3325 0279 F5010000 		.4byte	0x1f5
 3326 027d 04       		.byte	0x4
 3327 027e 0D       		.uleb128 0xd
 3328 027f 70757400 		.ascii	"put\000"
 3329 0283 09       		.byte	0x9
 3330 0284 4F       		.byte	0x4f
 3331 0285 0F020000 		.4byte	0x20f
 3332 0289 08       		.byte	0x8
 3333 028a 0D       		.uleb128 0xd
 3334 028b 67657400 		.ascii	"get\000"
 3335 028f 09       		.byte	0x9
 3336 0290 4F       		.byte	0x4f
 3337 0291 5A010000 		.4byte	0x15a
 3338 0295 0C       		.byte	0xc
 3339 0296 0C       		.uleb128 0xc
 3340 0297 57040000 		.4byte	.LASF35
 3341 029b 09       		.byte	0x9
 3342 029c 4F       		.byte	0x4f
 3343 029d E0020000 		.4byte	0x2e0
 3344 02a1 10       		.byte	0x10
 3345 02a2 0C       		.uleb128 0xc
 3346 02a3 1D030000 		.4byte	.LASF36
ARM GAS  C:\Users\danit\AppData\Local\Temp\ccBFeYtw.s 			page 62


 3347 02a7 09       		.byte	0x9
 3348 02a8 4F       		.byte	0x4f
 3349 02a9 FA020000 		.4byte	0x2fa
 3350 02ad 14       		.byte	0x14
 3351 02ae 0C       		.uleb128 0xc
 3352 02af E3030000 		.4byte	.LASF37
 3353 02b3 09       		.byte	0x9
 3354 02b4 4F       		.byte	0x4f
 3355 02b5 1E030000 		.4byte	0x31e
 3356 02b9 18       		.byte	0x18
 3357 02ba 0C       		.uleb128 0xc
 3358 02bb 02090000 		.4byte	.LASF38
 3359 02bf 09       		.byte	0x9
 3360 02c0 4F       		.byte	0x4f
 3361 02c1 42030000 		.4byte	0x342
 3362 02c5 1C       		.byte	0x1c
 3363 02c6 00       		.byte	0
 3364 02c7 09       		.uleb128 0x9
 3365 02c8 34010000 		.4byte	0x134
 3366 02cc E0020000 		.4byte	0x2e0
 3367 02d0 0A       		.uleb128 0xa
 3368 02d1 C6000000 		.4byte	0xc6
 3369 02d5 0A       		.uleb128 0xa
 3370 02d6 E0000000 		.4byte	0xe0
 3371 02da 0A       		.uleb128 0xa
 3372 02db 3F010000 		.4byte	0x13f
 3373 02df 00       		.byte	0
 3374 02e0 06       		.uleb128 0x6
 3375 02e1 04       		.byte	0x4
 3376 02e2 C7020000 		.4byte	0x2c7
 3377 02e6 09       		.uleb128 0x9
 3378 02e7 34010000 		.4byte	0x134
 3379 02eb FA020000 		.4byte	0x2fa
 3380 02ef 0A       		.uleb128 0xa
 3381 02f0 C6000000 		.4byte	0xc6
 3382 02f4 0A       		.uleb128 0xa
 3383 02f5 3F010000 		.4byte	0x13f
 3384 02f9 00       		.byte	0
 3385 02fa 06       		.uleb128 0x6
 3386 02fb 04       		.byte	0x4
 3387 02fc E6020000 		.4byte	0x2e6
 3388 0300 09       		.uleb128 0x9
 3389 0301 33000000 		.4byte	0x33
 3390 0305 1E030000 		.4byte	0x31e
 3391 0309 0A       		.uleb128 0xa
 3392 030a C6000000 		.4byte	0xc6
 3393 030e 0A       		.uleb128 0xa
 3394 030f CB010000 		.4byte	0x1cb
 3395 0313 0A       		.uleb128 0xa
 3396 0314 33000000 		.4byte	0x33
 3397 0318 0A       		.uleb128 0xa
 3398 0319 3F010000 		.4byte	0x13f
 3399 031d 00       		.byte	0
 3400 031e 06       		.uleb128 0x6
 3401 031f 04       		.byte	0x4
 3402 0320 00030000 		.4byte	0x300
 3403 0324 09       		.uleb128 0x9
ARM GAS  C:\Users\danit\AppData\Local\Temp\ccBFeYtw.s 			page 63


 3404 0325 33000000 		.4byte	0x33
 3405 0329 42030000 		.4byte	0x342
 3406 032d 0A       		.uleb128 0xa
 3407 032e C6000000 		.4byte	0xc6
 3408 0332 0A       		.uleb128 0xa
 3409 0333 6F010000 		.4byte	0x16f
 3410 0337 0A       		.uleb128 0xa
 3411 0338 33000000 		.4byte	0x33
 3412 033c 0A       		.uleb128 0xa
 3413 033d 3F010000 		.4byte	0x13f
 3414 0341 00       		.byte	0
 3415 0342 06       		.uleb128 0x6
 3416 0343 04       		.byte	0x4
 3417 0344 24030000 		.4byte	0x324
 3418 0348 0E       		.uleb128 0xe
 3419 0349 04       		.byte	0x4
 3420 034a 09       		.byte	0x9
 3421 034b 59       		.byte	0x59
 3422 034c 5D030000 		.4byte	0x35d
 3423 0350 0D       		.uleb128 0xd
 3424 0351 766D7400 		.ascii	"vmt\000"
 3425 0355 09       		.byte	0x9
 3426 0356 5B       		.byte	0x5b
 3427 0357 5D030000 		.4byte	0x35d
 3428 035b 00       		.byte	0
 3429 035c 00       		.byte	0
 3430 035d 06       		.uleb128 0x6
 3431 035e 04       		.byte	0x4
 3432 035f 63030000 		.4byte	0x363
 3433 0363 07       		.uleb128 0x7
 3434 0364 5A020000 		.4byte	0x25a
 3435 0368 04       		.uleb128 0x4
 3436 0369 08090000 		.4byte	.LASF39
 3437 036d 09       		.byte	0x9
 3438 036e 5D       		.byte	0x5d
 3439 036f 48030000 		.4byte	0x348
 3440 0373 11       		.uleb128 0x11
 3441 0374 60       		.byte	0x60
 3442 0375 0A       		.byte	0xa
 3443 0376 9E01     		.2byte	0x19e
 3444 0378 8C040000 		.4byte	0x48c
 3445 037c 12       		.uleb128 0x12
 3446 037d 43523100 		.ascii	"CR1\000"
 3447 0381 0A       		.byte	0xa
 3448 0382 9F01     		.2byte	0x19f
 3449 0384 55010000 		.4byte	0x155
 3450 0388 00       		.byte	0
 3451 0389 12       		.uleb128 0x12
 3452 038a 43523200 		.ascii	"CR2\000"
 3453 038e 0A       		.byte	0xa
 3454 038f A001     		.2byte	0x1a0
 3455 0391 55010000 		.4byte	0x155
 3456 0395 04       		.byte	0x4
 3457 0396 13       		.uleb128 0x13
 3458 0397 8B040000 		.4byte	.LASF40
 3459 039b 0A       		.byte	0xa
 3460 039c A101     		.2byte	0x1a1
ARM GAS  C:\Users\danit\AppData\Local\Temp\ccBFeYtw.s 			page 64


 3461 039e 55010000 		.4byte	0x155
 3462 03a2 08       		.byte	0x8
 3463 03a3 13       		.uleb128 0x13
 3464 03a4 52000000 		.4byte	.LASF41
 3465 03a8 0A       		.byte	0xa
 3466 03a9 A201     		.2byte	0x1a2
 3467 03ab 55010000 		.4byte	0x155
 3468 03af 0C       		.byte	0xc
 3469 03b0 12       		.uleb128 0x12
 3470 03b1 535200   		.ascii	"SR\000"
 3471 03b4 0A       		.byte	0xa
 3472 03b5 A301     		.2byte	0x1a3
 3473 03b7 55010000 		.4byte	0x155
 3474 03bb 10       		.byte	0x10
 3475 03bc 12       		.uleb128 0x12
 3476 03bd 45475200 		.ascii	"EGR\000"
 3477 03c1 0A       		.byte	0xa
 3478 03c2 A401     		.2byte	0x1a4
 3479 03c4 55010000 		.4byte	0x155
 3480 03c8 14       		.byte	0x14
 3481 03c9 13       		.uleb128 0x13
 3482 03ca 53080000 		.4byte	.LASF42
 3483 03ce 0A       		.byte	0xa
 3484 03cf A501     		.2byte	0x1a5
 3485 03d1 55010000 		.4byte	0x155
 3486 03d5 18       		.byte	0x18
 3487 03d6 13       		.uleb128 0x13
 3488 03d7 20010000 		.4byte	.LASF43
 3489 03db 0A       		.byte	0xa
 3490 03dc A601     		.2byte	0x1a6
 3491 03de 55010000 		.4byte	0x155
 3492 03e2 1C       		.byte	0x1c
 3493 03e3 13       		.uleb128 0x13
 3494 03e4 B9010000 		.4byte	.LASF44
 3495 03e8 0A       		.byte	0xa
 3496 03e9 A701     		.2byte	0x1a7
 3497 03eb 55010000 		.4byte	0x155
 3498 03ef 20       		.byte	0x20
 3499 03f0 12       		.uleb128 0x12
 3500 03f1 434E5400 		.ascii	"CNT\000"
 3501 03f5 0A       		.byte	0xa
 3502 03f6 A801     		.2byte	0x1a8
 3503 03f8 55010000 		.4byte	0x155
 3504 03fc 24       		.byte	0x24
 3505 03fd 12       		.uleb128 0x12
 3506 03fe 50534300 		.ascii	"PSC\000"
 3507 0402 0A       		.byte	0xa
 3508 0403 A901     		.2byte	0x1a9
 3509 0405 55010000 		.4byte	0x155
 3510 0409 28       		.byte	0x28
 3511 040a 12       		.uleb128 0x12
 3512 040b 41525200 		.ascii	"ARR\000"
 3513 040f 0A       		.byte	0xa
 3514 0410 AA01     		.2byte	0x1aa
 3515 0412 55010000 		.4byte	0x155
 3516 0416 2C       		.byte	0x2c
 3517 0417 12       		.uleb128 0x12
ARM GAS  C:\Users\danit\AppData\Local\Temp\ccBFeYtw.s 			page 65


 3518 0418 52435200 		.ascii	"RCR\000"
 3519 041c 0A       		.byte	0xa
 3520 041d AB01     		.2byte	0x1ab
 3521 041f 55010000 		.4byte	0x155
 3522 0423 30       		.byte	0x30
 3523 0424 12       		.uleb128 0x12
 3524 0425 43435200 		.ascii	"CCR\000"
 3525 0429 0A       		.byte	0xa
 3526 042a AC01     		.2byte	0x1ac
 3527 042c 8C040000 		.4byte	0x48c
 3528 0430 34       		.byte	0x34
 3529 0431 13       		.uleb128 0x13
 3530 0432 F5000000 		.4byte	.LASF45
 3531 0436 0A       		.byte	0xa
 3532 0437 AD01     		.2byte	0x1ad
 3533 0439 55010000 		.4byte	0x155
 3534 043d 44       		.byte	0x44
 3535 043e 12       		.uleb128 0x12
 3536 043f 44435200 		.ascii	"DCR\000"
 3537 0443 0A       		.byte	0xa
 3538 0444 AE01     		.2byte	0x1ae
 3539 0446 55010000 		.4byte	0x155
 3540 044a 48       		.byte	0x48
 3541 044b 13       		.uleb128 0x13
 3542 044c EC050000 		.4byte	.LASF46
 3543 0450 0A       		.byte	0xa
 3544 0451 AF01     		.2byte	0x1af
 3545 0453 55010000 		.4byte	0x155
 3546 0457 4C       		.byte	0x4c
 3547 0458 12       		.uleb128 0x12
 3548 0459 4F5200   		.ascii	"OR\000"
 3549 045c 0A       		.byte	0xa
 3550 045d B001     		.2byte	0x1b0
 3551 045f 55010000 		.4byte	0x155
 3552 0463 50       		.byte	0x50
 3553 0464 13       		.uleb128 0x13
 3554 0465 8C000000 		.4byte	.LASF47
 3555 0469 0A       		.byte	0xa
 3556 046a B101     		.2byte	0x1b1
 3557 046c 55010000 		.4byte	0x155
 3558 0470 54       		.byte	0x54
 3559 0471 13       		.uleb128 0x13
 3560 0472 D2080000 		.4byte	.LASF48
 3561 0476 0A       		.byte	0xa
 3562 0477 B201     		.2byte	0x1b2
 3563 0479 55010000 		.4byte	0x155
 3564 047d 58       		.byte	0x58
 3565 047e 13       		.uleb128 0x13
 3566 047f D1000000 		.4byte	.LASF49
 3567 0483 0A       		.byte	0xa
 3568 0484 B301     		.2byte	0x1b3
 3569 0486 55010000 		.4byte	0x155
 3570 048a 5C       		.byte	0x5c
 3571 048b 00       		.byte	0
 3572 048c 08       		.uleb128 0x8
 3573 048d 40020000 		.4byte	0x240
 3574 0491 14       		.uleb128 0x14
ARM GAS  C:\Users\danit\AppData\Local\Temp\ccBFeYtw.s 			page 66


 3575 0492 4D010000 		.4byte	.LASF50
 3576 0496 0A       		.byte	0xa
 3577 0497 B401     		.2byte	0x1b4
 3578 0499 73030000 		.4byte	0x373
 3579 049d 06       		.uleb128 0x6
 3580 049e 04       		.byte	0x4
 3581 049f 91040000 		.4byte	0x491
 3582 04a3 15       		.uleb128 0x15
 3583 04a4 01       		.byte	0x1
 3584 04a5 0B       		.byte	0xb
 3585 04a6 55       		.byte	0x55
 3586 04a7 BE040000 		.4byte	0x4be
 3587 04ab 16       		.uleb128 0x16
 3588 04ac EB090000 		.4byte	.LASF51
 3589 04b0 00       		.sleb128 0
 3590 04b1 16       		.uleb128 0x16
 3591 04b2 B2070000 		.4byte	.LASF52
 3592 04b6 01       		.sleb128 1
 3593 04b7 16       		.uleb128 0x16
 3594 04b8 04010000 		.4byte	.LASF53
 3595 04bc 02       		.sleb128 2
 3596 04bd 00       		.byte	0
 3597 04be 04       		.uleb128 0x4
 3598 04bf 14090000 		.4byte	.LASF54
 3599 04c3 0B       		.byte	0xb
 3600 04c4 59       		.byte	0x59
 3601 04c5 A3040000 		.4byte	0x4a3
 3602 04c9 04       		.uleb128 0x4
 3603 04ca 0E010000 		.4byte	.LASF55
 3604 04ce 0B       		.byte	0xb
 3605 04cf 5E       		.byte	0x5e
 3606 04d0 D4040000 		.4byte	0x4d4
 3607 04d4 17       		.uleb128 0x17
 3608 04d5 0E010000 		.4byte	.LASF55
 3609 04d9 14       		.byte	0x14
 3610 04da 0C       		.byte	0xc
 3611 04db 6F01     		.2byte	0x16f
 3612 04dd 23050000 		.4byte	0x523
 3613 04e1 13       		.uleb128 0x13
 3614 04e2 86010000 		.4byte	.LASF56
 3615 04e6 0C       		.byte	0xc
 3616 04e7 7301     		.2byte	0x173
 3617 04e9 BE040000 		.4byte	0x4be
 3618 04ed 00       		.byte	0
 3619 04ee 13       		.uleb128 0x13
 3620 04ef D4070000 		.4byte	.LASF57
 3621 04f3 0C       		.byte	0xc
 3622 04f4 7701     		.2byte	0x177
 3623 04f6 0D060000 		.4byte	0x60d
 3624 04fa 04       		.byte	0x4
 3625 04fb 13       		.uleb128 0x13
 3626 04fc 9B000000 		.4byte	.LASF58
 3627 0500 0C       		.byte	0xc
 3628 0501 7B01     		.2byte	0x17b
 3629 0503 5D050000 		.4byte	0x55d
 3630 0507 08       		.byte	0x8
 3631 0508 13       		.uleb128 0x13
ARM GAS  C:\Users\danit\AppData\Local\Temp\ccBFeYtw.s 			page 67


 3632 0509 94090000 		.4byte	.LASF59
 3633 050d 0C       		.byte	0xc
 3634 050e 8301     		.2byte	0x183
 3635 0510 0C010000 		.4byte	0x10c
 3636 0514 0C       		.byte	0xc
 3637 0515 12       		.uleb128 0x12
 3638 0516 74696D00 		.ascii	"tim\000"
 3639 051a 0C       		.byte	0xc
 3640 051b 8701     		.2byte	0x187
 3641 051d 9D040000 		.4byte	0x49d
 3642 0521 10       		.byte	0x10
 3643 0522 00       		.byte	0
 3644 0523 04       		.uleb128 0x4
 3645 0524 36060000 		.4byte	.LASF60
 3646 0528 0B       		.byte	0xb
 3647 0529 65       		.byte	0x65
 3648 052a 2E050000 		.4byte	0x52e
 3649 052e 06       		.uleb128 0x6
 3650 052f 04       		.byte	0x4
 3651 0530 34050000 		.4byte	0x534
 3652 0534 18       		.uleb128 0x18
 3653 0535 3F050000 		.4byte	0x53f
 3654 0539 0A       		.uleb128 0xa
 3655 053a 3F050000 		.4byte	0x53f
 3656 053e 00       		.byte	0
 3657 053f 06       		.uleb128 0x6
 3658 0540 04       		.byte	0x4
 3659 0541 C9040000 		.4byte	0x4c9
 3660 0545 14       		.uleb128 0x14
 3661 0546 FE050000 		.4byte	.LASF61
 3662 054a 0C       		.byte	0xc
 3663 054b 2001     		.2byte	0x120
 3664 054d 0C010000 		.4byte	0x10c
 3665 0551 14       		.uleb128 0x14
 3666 0552 20000000 		.4byte	.LASF62
 3667 0556 0C       		.byte	0xc
 3668 0557 2501     		.2byte	0x125
 3669 0559 E0000000 		.4byte	0xe0
 3670 055d 14       		.uleb128 0x14
 3671 055e E3010000 		.4byte	.LASF63
 3672 0562 0C       		.byte	0xc
 3673 0563 2A01     		.2byte	0x12a
 3674 0565 F6000000 		.4byte	0xf6
 3675 0569 11       		.uleb128 0x11
 3676 056a 08       		.byte	0x8
 3677 056b 0C       		.byte	0xc
 3678 056c 2F01     		.2byte	0x12f
 3679 056e 8D050000 		.4byte	0x58d
 3680 0572 13       		.uleb128 0x13
 3681 0573 C0070000 		.4byte	.LASF64
 3682 0577 0C       		.byte	0xc
 3683 0578 3301     		.2byte	0x133
 3684 057a 45050000 		.4byte	0x545
 3685 057e 00       		.byte	0
 3686 057f 13       		.uleb128 0x13
 3687 0580 DA030000 		.4byte	.LASF65
 3688 0584 0C       		.byte	0xc
ARM GAS  C:\Users\danit\AppData\Local\Temp\ccBFeYtw.s 			page 68


 3689 0585 3901     		.2byte	0x139
 3690 0587 23050000 		.4byte	0x523
 3691 058b 04       		.byte	0x4
 3692 058c 00       		.byte	0
 3693 058d 14       		.uleb128 0x14
 3694 058e 6F080000 		.4byte	.LASF66
 3695 0592 0C       		.byte	0xc
 3696 0593 3B01     		.2byte	0x13b
 3697 0595 69050000 		.4byte	0x569
 3698 0599 11       		.uleb128 0x11
 3699 059a 34       		.byte	0x34
 3700 059b 0C       		.byte	0xc
 3701 059c 4001     		.2byte	0x140
 3702 059e F1050000 		.4byte	0x5f1
 3703 05a2 13       		.uleb128 0x13
 3704 05a3 FA000000 		.4byte	.LASF67
 3705 05a7 0C       		.byte	0xc
 3706 05a8 4601     		.2byte	0x146
 3707 05aa 0C010000 		.4byte	0x10c
 3708 05ae 00       		.byte	0
 3709 05af 13       		.uleb128 0x13
 3710 05b0 9B000000 		.4byte	.LASF58
 3711 05b4 0C       		.byte	0xc
 3712 05b5 4C01     		.2byte	0x14c
 3713 05b7 5D050000 		.4byte	0x55d
 3714 05bb 04       		.byte	0x4
 3715 05bc 13       		.uleb128 0x13
 3716 05bd DA030000 		.4byte	.LASF65
 3717 05c1 0C       		.byte	0xc
 3718 05c2 5201     		.2byte	0x152
 3719 05c4 23050000 		.4byte	0x523
 3720 05c8 08       		.byte	0x8
 3721 05c9 13       		.uleb128 0x13
 3722 05ca 8C010000 		.4byte	.LASF68
 3723 05ce 0C       		.byte	0xc
 3724 05cf 5601     		.2byte	0x156
 3725 05d1 F1050000 		.4byte	0x5f1
 3726 05d5 0C       		.byte	0xc
 3727 05d6 12       		.uleb128 0x12
 3728 05d7 63723200 		.ascii	"cr2\000"
 3729 05db 0C       		.byte	0xc
 3730 05dc 5C01     		.2byte	0x15c
 3731 05de 0C010000 		.4byte	0x10c
 3732 05e2 2C       		.byte	0x2c
 3733 05e3 13       		.uleb128 0x13
 3734 05e4 030A0000 		.4byte	.LASF69
 3735 05e8 0C       		.byte	0xc
 3736 05e9 6901     		.2byte	0x169
 3737 05eb 0C010000 		.4byte	0x10c
 3738 05ef 30       		.byte	0x30
 3739 05f0 00       		.byte	0
 3740 05f1 0F       		.uleb128 0xf
 3741 05f2 8D050000 		.4byte	0x58d
 3742 05f6 01060000 		.4byte	0x601
 3743 05fa 10       		.uleb128 0x10
 3744 05fb BF000000 		.4byte	0xbf
 3745 05ff 03       		.byte	0x3
ARM GAS  C:\Users\danit\AppData\Local\Temp\ccBFeYtw.s 			page 69


 3746 0600 00       		.byte	0
 3747 0601 14       		.uleb128 0x14
 3748 0602 86070000 		.4byte	.LASF70
 3749 0606 0C       		.byte	0xc
 3750 0607 6A01     		.2byte	0x16a
 3751 0609 99050000 		.4byte	0x599
 3752 060d 06       		.uleb128 0x6
 3753 060e 04       		.byte	0x4
 3754 060f 13060000 		.4byte	0x613
 3755 0613 07       		.uleb128 0x7
 3756 0614 01060000 		.4byte	0x601
 3757 0618 04       		.uleb128 0x4
 3758 0619 AD040000 		.4byte	.LASF71
 3759 061d 0D       		.byte	0xd
 3760 061e 28       		.byte	0x28
 3761 061f 23060000 		.4byte	0x623
 3762 0623 0B       		.uleb128 0xb
 3763 0624 A1010000 		.4byte	.LASF72
 3764 0628 04       		.byte	0x4
 3765 0629 0E       		.byte	0xe
 3766 062a 00       		.byte	0
 3767 062b 3A060000 		.4byte	0x63a
 3768 062f 19       		.uleb128 0x19
 3769 0630 4E080000 		.4byte	.LASF201
 3770 0634 C6000000 		.4byte	0xc6
 3771 0638 00       		.byte	0
 3772 0639 00       		.byte	0
 3773 063a 04       		.uleb128 0x4
 3774 063b 61020000 		.4byte	.LASF73
 3775 063f 0D       		.byte	0xd
 3776 0640 62       		.byte	0x62
 3777 0641 18060000 		.4byte	0x618
 3778 0645 1A       		.uleb128 0x1a
 3779 0646 6E060000 		.4byte	.LASF90
 3780 064a 01       		.byte	0x1
 3781 064b 0F       		.byte	0xf
 3782 064c 06       		.byte	0x6
 3783 064d 9A060000 		.4byte	0x69a
 3784 0651 16       		.uleb128 0x16
 3785 0652 DB070000 		.4byte	.LASF74
 3786 0656 00       		.sleb128 0
 3787 0657 16       		.uleb128 0x16
 3788 0658 B9060000 		.4byte	.LASF75
 3789 065c 01       		.sleb128 1
 3790 065d 16       		.uleb128 0x16
 3791 065e EC010000 		.4byte	.LASF76
 3792 0662 02       		.sleb128 2
 3793 0663 16       		.uleb128 0x16
 3794 0664 5E000000 		.4byte	.LASF77
 3795 0668 03       		.sleb128 3
 3796 0669 16       		.uleb128 0x16
 3797 066a 86080000 		.4byte	.LASF78
 3798 066e 04       		.sleb128 4
 3799 066f 16       		.uleb128 0x16
 3800 0670 30090000 		.4byte	.LASF79
 3801 0674 05       		.sleb128 5
 3802 0675 16       		.uleb128 0x16
ARM GAS  C:\Users\danit\AppData\Local\Temp\ccBFeYtw.s 			page 70


 3803 0676 AF080000 		.4byte	.LASF80
 3804 067a 06       		.sleb128 6
 3805 067b 16       		.uleb128 0x16
 3806 067c 3F030000 		.4byte	.LASF81
 3807 0680 07       		.sleb128 7
 3808 0681 16       		.uleb128 0x16
 3809 0682 8A020000 		.4byte	.LASF82
 3810 0686 08       		.sleb128 8
 3811 0687 16       		.uleb128 0x16
 3812 0688 BE010000 		.4byte	.LASF83
 3813 068c 09       		.sleb128 9
 3814 068d 16       		.uleb128 0x16
 3815 068e CC020000 		.4byte	.LASF84
 3816 0692 0A       		.sleb128 10
 3817 0693 16       		.uleb128 0x16
 3818 0694 AD050000 		.4byte	.LASF85
 3819 0698 0B       		.sleb128 11
 3820 0699 00       		.byte	0
 3821 069a 0B       		.uleb128 0xb
 3822 069b 5C040000 		.4byte	.LASF86
 3823 069f 06       		.byte	0x6
 3824 06a0 0F       		.byte	0xf
 3825 06a1 16       		.byte	0x16
 3826 06a2 D6060000 		.4byte	0x6d6
 3827 06a6 0D       		.uleb128 0xd
 3828 06a7 696400   		.ascii	"id\000"
 3829 06aa 0F       		.byte	0xf
 3830 06ab 18       		.byte	0x18
 3831 06ac F6000000 		.4byte	0xf6
 3832 06b0 00       		.byte	0
 3833 06b1 0C       		.uleb128 0xc
 3834 06b2 83040000 		.4byte	.LASF87
 3835 06b6 0F       		.byte	0xf
 3836 06b7 19       		.byte	0x19
 3837 06b8 F6000000 		.4byte	0xf6
 3838 06bc 02       		.byte	0x2
 3839 06bd 0C       		.uleb128 0xc
 3840 06be 66030000 		.4byte	.LASF88
 3841 06c2 0F       		.byte	0xf
 3842 06c3 1A       		.byte	0x1a
 3843 06c4 E0000000 		.4byte	0xe0
 3844 06c8 04       		.byte	0x4
 3845 06c9 0C       		.uleb128 0xc
 3846 06ca 55030000 		.4byte	.LASF89
 3847 06ce 0F       		.byte	0xf
 3848 06cf 1B       		.byte	0x1b
 3849 06d0 45060000 		.4byte	0x645
 3850 06d4 05       		.byte	0x5
 3851 06d5 00       		.byte	0
 3852 06d6 1A       		.uleb128 0x1a
 3853 06d7 33080000 		.4byte	.LASF91
 3854 06db 01       		.byte	0x1
 3855 06dc 10       		.byte	0x10
 3856 06dd 18       		.byte	0x18
 3857 06de FB060000 		.4byte	0x6fb
 3858 06e2 16       		.uleb128 0x16
 3859 06e3 95010000 		.4byte	.LASF92
ARM GAS  C:\Users\danit\AppData\Local\Temp\ccBFeYtw.s 			page 71


 3860 06e7 00       		.sleb128 0
 3861 06e8 16       		.uleb128 0x16
 3862 06e9 9A090000 		.4byte	.LASF93
 3863 06ed 01       		.sleb128 1
 3864 06ee 16       		.uleb128 0x16
 3865 06ef BE050000 		.4byte	.LASF94
 3866 06f3 02       		.sleb128 2
 3867 06f4 16       		.uleb128 0x16
 3868 06f5 41080000 		.4byte	.LASF95
 3869 06f9 03       		.sleb128 3
 3870 06fa 00       		.byte	0
 3871 06fb 0B       		.uleb128 0xb
 3872 06fc 58020000 		.4byte	.LASF96
 3873 0700 2C       		.byte	0x2c
 3874 0701 11       		.byte	0x11
 3875 0702 15       		.byte	0x15
 3876 0703 27080000 		.4byte	0x827
 3877 0707 0D       		.uleb128 0xd
 3878 0708 696400   		.ascii	"id\000"
 3879 070b 11       		.byte	0x11
 3880 070c 17       		.byte	0x17
 3881 070d 0C010000 		.4byte	0x10c
 3882 0711 00       		.byte	0
 3883 0712 0C       		.uleb128 0xc
 3884 0713 17080000 		.4byte	.LASF97
 3885 0717 11       		.byte	0x11
 3886 0718 18       		.byte	0x18
 3887 0719 E0000000 		.4byte	0xe0
 3888 071d 04       		.byte	0x4
 3889 071e 0C       		.uleb128 0xc
 3890 071f 0E030000 		.4byte	.LASF98
 3891 0723 11       		.byte	0x11
 3892 0724 19       		.byte	0x19
 3893 0725 F6000000 		.4byte	0xf6
 3894 0729 06       		.byte	0x6
 3895 072a 0C       		.uleb128 0xc
 3896 072b C8000000 		.4byte	.LASF99
 3897 072f 11       		.byte	0x11
 3898 0730 1A       		.byte	0x1a
 3899 0731 F6000000 		.4byte	0xf6
 3900 0735 08       		.byte	0x8
 3901 0736 0C       		.uleb128 0xc
 3902 0737 2B060000 		.4byte	.LASF100
 3903 073b 11       		.byte	0x11
 3904 073c 1B       		.byte	0x1b
 3905 073d E0000000 		.4byte	0xe0
 3906 0741 0A       		.byte	0xa
 3907 0742 0C       		.uleb128 0xc
 3908 0743 41020000 		.4byte	.LASF101
 3909 0747 11       		.byte	0x11
 3910 0748 1C       		.byte	0x1c
 3911 0749 F6000000 		.4byte	0xf6
 3912 074d 0C       		.byte	0xc
 3913 074e 0C       		.uleb128 0xc
 3914 074f 4D070000 		.4byte	.LASF102
 3915 0753 11       		.byte	0x11
 3916 0754 1D       		.byte	0x1d
ARM GAS  C:\Users\danit\AppData\Local\Temp\ccBFeYtw.s 			page 72


 3917 0755 E0000000 		.4byte	0xe0
 3918 0759 0E       		.byte	0xe
 3919 075a 0C       		.uleb128 0xc
 3920 075b C3030000 		.4byte	.LASF103
 3921 075f 11       		.byte	0x11
 3922 0760 1E       		.byte	0x1e
 3923 0761 E0000000 		.4byte	0xe0
 3924 0765 0F       		.byte	0xf
 3925 0766 0C       		.uleb128 0xc
 3926 0767 AB010000 		.4byte	.LASF104
 3927 076b 11       		.byte	0x11
 3928 076c 1F       		.byte	0x1f
 3929 076d E0000000 		.4byte	0xe0
 3930 0771 10       		.byte	0x10
 3931 0772 0C       		.uleb128 0xc
 3932 0773 F9010000 		.4byte	.LASF105
 3933 0777 11       		.byte	0x11
 3934 0778 20       		.byte	0x20
 3935 0779 F6000000 		.4byte	0xf6
 3936 077d 12       		.byte	0x12
 3937 077e 0C       		.uleb128 0xc
 3938 077f 86060000 		.4byte	.LASF106
 3939 0783 11       		.byte	0x11
 3940 0784 21       		.byte	0x21
 3941 0785 F6000000 		.4byte	0xf6
 3942 0789 14       		.byte	0x14
 3943 078a 0C       		.uleb128 0xc
 3944 078b F7060000 		.4byte	.LASF107
 3945 078f 11       		.byte	0x11
 3946 0790 22       		.byte	0x22
 3947 0791 F6000000 		.4byte	0xf6
 3948 0795 16       		.byte	0x16
 3949 0796 0C       		.uleb128 0xc
 3950 0797 59070000 		.4byte	.LASF108
 3951 079b 11       		.byte	0x11
 3952 079c 23       		.byte	0x23
 3953 079d EB000000 		.4byte	0xeb
 3954 07a1 18       		.byte	0x18
 3955 07a2 0C       		.uleb128 0xc
 3956 07a3 7E030000 		.4byte	.LASF109
 3957 07a7 11       		.byte	0x11
 3958 07a8 24       		.byte	0x24
 3959 07a9 E0000000 		.4byte	0xe0
 3960 07ad 1A       		.byte	0x1a
 3961 07ae 0C       		.uleb128 0xc
 3962 07af F0030000 		.4byte	.LASF110
 3963 07b3 11       		.byte	0x11
 3964 07b4 25       		.byte	0x25
 3965 07b5 E0000000 		.4byte	0xe0
 3966 07b9 1B       		.byte	0x1b
 3967 07ba 0C       		.uleb128 0xc
 3968 07bb 10020000 		.4byte	.LASF111
 3969 07bf 11       		.byte	0x11
 3970 07c0 26       		.byte	0x26
 3971 07c1 E0000000 		.4byte	0xe0
 3972 07c5 1C       		.byte	0x1c
 3973 07c6 0C       		.uleb128 0xc
ARM GAS  C:\Users\danit\AppData\Local\Temp\ccBFeYtw.s 			page 73


 3974 07c7 13060000 		.4byte	.LASF112
 3975 07cb 11       		.byte	0x11
 3976 07cc 27       		.byte	0x27
 3977 07cd F6000000 		.4byte	0xf6
 3978 07d1 1E       		.byte	0x1e
 3979 07d2 0C       		.uleb128 0xc
 3980 07d3 25080000 		.4byte	.LASF113
 3981 07d7 11       		.byte	0x11
 3982 07d8 28       		.byte	0x28
 3983 07d9 E0000000 		.4byte	0xe0
 3984 07dd 20       		.byte	0x20
 3985 07de 0C       		.uleb128 0xc
 3986 07df 23020000 		.4byte	.LASF114
 3987 07e3 11       		.byte	0x11
 3988 07e4 29       		.byte	0x29
 3989 07e5 F6000000 		.4byte	0xf6
 3990 07e9 22       		.byte	0x22
 3991 07ea 0C       		.uleb128 0xc
 3992 07eb 3F000000 		.4byte	.LASF115
 3993 07ef 11       		.byte	0x11
 3994 07f0 2A       		.byte	0x2a
 3995 07f1 E0000000 		.4byte	0xe0
 3996 07f5 24       		.byte	0x24
 3997 07f6 0C       		.uleb128 0xc
 3998 07f7 BC040000 		.4byte	.LASF116
 3999 07fb 11       		.byte	0x11
 4000 07fc 2B       		.byte	0x2b
 4001 07fd E0000000 		.4byte	0xe0
 4002 0801 25       		.byte	0x25
 4003 0802 0C       		.uleb128 0xc
 4004 0803 A3030000 		.4byte	.LASF117
 4005 0807 11       		.byte	0x11
 4006 0808 2C       		.byte	0x2c
 4007 0809 E0000000 		.4byte	0xe0
 4008 080d 26       		.byte	0x26
 4009 080e 0C       		.uleb128 0xc
 4010 080f E1090000 		.4byte	.LASF118
 4011 0813 11       		.byte	0x11
 4012 0814 2D       		.byte	0x2d
 4013 0815 E0000000 		.4byte	0xe0
 4014 0819 27       		.byte	0x27
 4015 081a 0C       		.uleb128 0xc
 4016 081b E3000000 		.4byte	.LASF119
 4017 081f 11       		.byte	0x11
 4018 0820 2E       		.byte	0x2e
 4019 0821 F6000000 		.4byte	0xf6
 4020 0825 28       		.byte	0x28
 4021 0826 00       		.byte	0
 4022 0827 1B       		.uleb128 0x1b
 4023 0828 4B020000 		.4byte	.LASF120
 4024 082c 02       		.byte	0x2
 4025 082d 1501     		.2byte	0x115
 4026 082f 01       		.byte	0x1
 4027 0830 1B       		.uleb128 0x1b
 4028 0831 39040000 		.4byte	.LASF121
 4029 0835 02       		.byte	0x2
 4030 0836 1901     		.2byte	0x119
ARM GAS  C:\Users\danit\AppData\Local\Temp\ccBFeYtw.s 			page 74


 4031 0838 01       		.byte	0x1
 4032 0839 1B       		.uleb128 0x1b
 4033 083a 2D030000 		.4byte	.LASF122
 4034 083e 02       		.byte	0x2
 4035 083f 1D01     		.2byte	0x11d
 4036 0841 01       		.byte	0x1
 4037 0842 1B       		.uleb128 0x1b
 4038 0843 03040000 		.4byte	.LASF123
 4039 0847 02       		.byte	0x2
 4040 0848 2001     		.2byte	0x120
 4041 084a 01       		.byte	0x1
 4042 084b 1C       		.uleb128 0x1c
 4043 084c 080A0000 		.4byte	.LASF202
 4044 0850 01       		.byte	0x1
 4045 0851 45       		.byte	0x45
 4046 0852 00000000 		.4byte	.LFB118
 4047 0856 1C000000 		.4byte	.LFE118-.LFB118
 4048 085a 01       		.uleb128 0x1
 4049 085b 9C       		.byte	0x9c
 4050 085c AA080000 		.4byte	0x8aa
 4051 0860 1D       		.uleb128 0x1d
 4052 0861 63687000 		.ascii	"chp\000"
 4053 0865 01       		.byte	0x1
 4054 0866 45       		.byte	0x45
 4055 0867 AA080000 		.4byte	0x8aa
 4056 086b 00000000 		.4byte	.LLST0
 4057 086f 1E       		.uleb128 0x1e
 4058 0870 666D7400 		.ascii	"fmt\000"
 4059 0874 01       		.byte	0x1
 4060 0875 45       		.byte	0x45
 4061 0876 D5000000 		.4byte	0xd5
 4062 087a 02       		.uleb128 0x2
 4063 087b 91       		.byte	0x91
 4064 087c 74       		.sleb128 -12
 4065 087d 1F       		.uleb128 0x1f
 4066 087e 20       		.uleb128 0x20
 4067 087f 617000   		.ascii	"ap\000"
 4068 0882 01       		.byte	0x1
 4069 0883 46       		.byte	0x46
 4070 0884 3A060000 		.4byte	0x63a
 4071 0888 02       		.uleb128 0x2
 4072 0889 91       		.byte	0x91
 4073 088a 6C       		.sleb128 -20
 4074 088b 21       		.uleb128 0x21
 4075 088c 12000000 		.4byte	.LVL1
 4076 0890 56190000 		.4byte	0x1956
 4077 0894 22       		.uleb128 0x22
 4078 0895 01       		.uleb128 0x1
 4079 0896 52       		.byte	0x52
 4080 0897 02       		.uleb128 0x2
 4081 0898 91       		.byte	0x91
 4082 0899 60       		.sleb128 -32
 4083 089a 22       		.uleb128 0x22
 4084 089b 01       		.uleb128 0x1
 4085 089c 51       		.byte	0x51
 4086 089d 03       		.uleb128 0x3
 4087 089e 91       		.byte	0x91
ARM GAS  C:\Users\danit\AppData\Local\Temp\ccBFeYtw.s 			page 75


 4088 089f 5C       		.sleb128 -36
 4089 08a0 06       		.byte	0x6
 4090 08a1 22       		.uleb128 0x22
 4091 08a2 01       		.uleb128 0x1
 4092 08a3 50       		.byte	0x50
 4093 08a4 03       		.uleb128 0x3
 4094 08a5 F3       		.byte	0xf3
 4095 08a6 01       		.uleb128 0x1
 4096 08a7 50       		.byte	0x50
 4097 08a8 00       		.byte	0
 4098 08a9 00       		.byte	0
 4099 08aa 06       		.uleb128 0x6
 4100 08ab 04       		.byte	0x4
 4101 08ac 35020000 		.4byte	0x235
 4102 08b0 23       		.uleb128 0x23
 4103 08b1 AE060000 		.4byte	.LASF130
 4104 08b5 02       		.byte	0x2
 4105 08b6 5E       		.byte	0x5e
 4106 08b7 00000000 		.4byte	.LFB119
 4107 08bb 4C010000 		.4byte	.LFE119-.LFB119
 4108 08bf 01       		.uleb128 0x1
 4109 08c0 9C       		.byte	0x9c
 4110 08c1 17090000 		.4byte	0x917
 4111 08c5 24       		.uleb128 0x24
 4112 08c6 A2000000 		.4byte	.LVL2
 4113 08ca 71190000 		.4byte	0x1971
 4114 08ce DF080000 		.4byte	0x8df
 4115 08d2 22       		.uleb128 0x22
 4116 08d3 01       		.uleb128 0x1
 4117 08d4 51       		.byte	0x51
 4118 08d5 02       		.uleb128 0x2
 4119 08d6 76       		.byte	0x76
 4120 08d7 00       		.sleb128 0
 4121 08d8 22       		.uleb128 0x22
 4122 08d9 01       		.uleb128 0x1
 4123 08da 50       		.byte	0x50
 4124 08db 02       		.uleb128 0x2
 4125 08dc 74       		.byte	0x74
 4126 08dd 00       		.sleb128 0
 4127 08de 00       		.byte	0
 4128 08df 25       		.uleb128 0x25
 4129 08e0 C0000000 		.4byte	.LVL3
 4130 08e4 91190000 		.4byte	0x1991
 4131 08e8 F6080000 		.4byte	0x8f6
 4132 08ec 22       		.uleb128 0x22
 4133 08ed 01       		.uleb128 0x1
 4134 08ee 51       		.byte	0x51
 4135 08ef 05       		.uleb128 0x5
 4136 08f0 03       		.byte	0x3
 4137 08f1 00000000 		.4byte	.LANCHOR20
 4138 08f5 00       		.byte	0
 4139 08f6 25       		.uleb128 0x25
 4140 08f7 D0000000 		.4byte	.LVL4
 4141 08fb 91190000 		.4byte	0x1991
 4142 08ff 0D090000 		.4byte	0x90d
 4143 0903 22       		.uleb128 0x22
 4144 0904 01       		.uleb128 0x1
ARM GAS  C:\Users\danit\AppData\Local\Temp\ccBFeYtw.s 			page 76


 4145 0905 51       		.byte	0x51
 4146 0906 05       		.uleb128 0x5
 4147 0907 03       		.byte	0x3
 4148 0908 00000000 		.4byte	.LANCHOR20
 4149 090c 00       		.byte	0
 4150 090d 26       		.uleb128 0x26
 4151 090e D8000000 		.4byte	.LVL5
 4152 0912 A7190000 		.4byte	0x19a7
 4153 0916 00       		.byte	0
 4154 0917 27       		.uleb128 0x27
 4155 0918 27080000 		.4byte	0x827
 4156 091c 00000000 		.4byte	.LFB121
 4157 0920 18000000 		.4byte	.LFE121-.LFB121
 4158 0924 01       		.uleb128 0x1
 4159 0925 9C       		.byte	0x9c
 4160 0926 27       		.uleb128 0x27
 4161 0927 30080000 		.4byte	0x830
 4162 092b 00000000 		.4byte	.LFB122
 4163 092f 0C000000 		.4byte	.LFE122-.LFB122
 4164 0933 01       		.uleb128 0x1
 4165 0934 9C       		.byte	0x9c
 4166 0935 27       		.uleb128 0x27
 4167 0936 39080000 		.4byte	0x839
 4168 093a 00000000 		.4byte	.LFB123
 4169 093e 0C000000 		.4byte	.LFE123-.LFB123
 4170 0942 01       		.uleb128 0x1
 4171 0943 9C       		.byte	0x9c
 4172 0944 27       		.uleb128 0x27
 4173 0945 42080000 		.4byte	0x842
 4174 0949 00000000 		.4byte	.LFB124
 4175 094d 0C000000 		.4byte	.LFE124-.LFB124
 4176 0951 01       		.uleb128 0x1
 4177 0952 9C       		.byte	0x9c
 4178 0953 28       		.uleb128 0x28
 4179 0954 4A090000 		.4byte	.LASF124
 4180 0958 02       		.byte	0x2
 4181 0959 2401     		.2byte	0x124
 4182 095b 22010000 		.4byte	0x122
 4183 095f 00000000 		.4byte	.LFB125
 4184 0963 10000000 		.4byte	.LFE125-.LFB125
 4185 0967 01       		.uleb128 0x1
 4186 0968 9C       		.byte	0x9c
 4187 0969 28       		.uleb128 0x28
 4188 096a 3D070000 		.4byte	.LASF125
 4189 096e 02       		.byte	0x2
 4190 096f 2801     		.2byte	0x128
 4191 0971 22010000 		.4byte	0x122
 4192 0975 00000000 		.4byte	.LFB126
 4193 0979 0C000000 		.4byte	.LFE126-.LFB126
 4194 097d 01       		.uleb128 0x1
 4195 097e 9C       		.byte	0x9c
 4196 097f 29       		.uleb128 0x29
 4197 0980 00000000 		.4byte	.LASF126
 4198 0984 02       		.byte	0x2
 4199 0985 2C01     		.2byte	0x12c
 4200 0987 00000000 		.4byte	.LFB127
 4201 098b 0C000000 		.4byte	.LFE127-.LFB127
ARM GAS  C:\Users\danit\AppData\Local\Temp\ccBFeYtw.s 			page 77


 4202 098f 01       		.uleb128 0x1
 4203 0990 9C       		.byte	0x9c
 4204 0991 2A       		.uleb128 0x2a
 4205 0992 78010000 		.4byte	.LASF128
 4206 0996 02       		.byte	0x2
 4207 0997 3001     		.2byte	0x130
 4208 0999 00000000 		.4byte	.LFB128
 4209 099d 24000000 		.4byte	.LFE128-.LFB128
 4210 09a1 01       		.uleb128 0x1
 4211 09a2 9C       		.byte	0x9c
 4212 09a3 B1090000 		.4byte	0x9b1
 4213 09a7 26       		.uleb128 0x26
 4214 09a8 0C000000 		.4byte	.LVL6
 4215 09ac BC190000 		.4byte	0x19bc
 4216 09b0 00       		.byte	0
 4217 09b1 29       		.uleb128 0x29
 4218 09b2 90040000 		.4byte	.LASF127
 4219 09b6 02       		.byte	0x2
 4220 09b7 3701     		.2byte	0x137
 4221 09b9 00000000 		.4byte	.LFB129
 4222 09bd 0C000000 		.4byte	.LFE129-.LFB129
 4223 09c1 01       		.uleb128 0x1
 4224 09c2 9C       		.byte	0x9c
 4225 09c3 2A       		.uleb128 0x2a
 4226 09c4 9B070000 		.4byte	.LASF129
 4227 09c8 02       		.byte	0x2
 4228 09c9 3B01     		.2byte	0x13b
 4229 09cb 00000000 		.4byte	.LFB130
 4230 09cf 24000000 		.4byte	.LFE130-.LFB130
 4231 09d3 01       		.uleb128 0x1
 4232 09d4 9C       		.byte	0x9c
 4233 09d5 E3090000 		.4byte	0x9e3
 4234 09d9 26       		.uleb128 0x26
 4235 09da 0C000000 		.4byte	.LVL7
 4236 09de BC190000 		.4byte	0x19bc
 4237 09e2 00       		.byte	0
 4238 09e3 2B       		.uleb128 0x2b
 4239 09e4 C5070000 		.4byte	.LASF131
 4240 09e8 02       		.byte	0x2
 4241 09e9 4201     		.2byte	0x142
 4242 09eb 00000000 		.4byte	.LFB131
 4243 09ef 4C000000 		.4byte	.LFE131-.LFB131
 4244 09f3 01       		.uleb128 0x1
 4245 09f4 9C       		.byte	0x9c
 4246 09f5 1C0A0000 		.4byte	0xa1c
 4247 09f9 2C       		.uleb128 0x2c
 4248 09fa 72706D00 		.ascii	"rpm\000"
 4249 09fe 02       		.byte	0x2
 4250 09ff 4201     		.2byte	0x142
 4251 0a01 25000000 		.4byte	0x25
 4252 0a05 21000000 		.4byte	.LLST1
 4253 0a09 26       		.uleb128 0x26
 4254 0a0a 28000000 		.4byte	.LVL13
 4255 0a0e A7190000 		.4byte	0x19a7
 4256 0a12 26       		.uleb128 0x26
 4257 0a13 3C000000 		.4byte	.LVL14
 4258 0a17 A7190000 		.4byte	0x19a7
ARM GAS  C:\Users\danit\AppData\Local\Temp\ccBFeYtw.s 			page 78


 4259 0a1b 00       		.byte	0
 4260 0a1c 2B       		.uleb128 0x2b
 4261 0a1d 76070000 		.4byte	.LASF132
 4262 0a21 02       		.byte	0x2
 4263 0a22 4601     		.2byte	0x146
 4264 0a24 00000000 		.4byte	.LFB132
 4265 0a28 2C000000 		.4byte	.LFE132-.LFB132
 4266 0a2c 01       		.uleb128 0x1
 4267 0a2d 9C       		.byte	0x9c
 4268 0a2e 430A0000 		.4byte	0xa43
 4269 0a32 2C       		.uleb128 0x2c
 4270 0a33 72706D00 		.ascii	"rpm\000"
 4271 0a37 02       		.byte	0x2
 4272 0a38 4601     		.2byte	0x146
 4273 0a3a 25000000 		.4byte	0x25
 4274 0a3e 49000000 		.4byte	.LLST2
 4275 0a42 00       		.byte	0
 4276 0a43 28       		.uleb128 0x28
 4277 0a44 A0040000 		.4byte	.LASF133
 4278 0a48 02       		.byte	0x2
 4279 0a49 4B01     		.2byte	0x14b
 4280 0a4b 01010000 		.4byte	0x101
 4281 0a4f 00000000 		.4byte	.LFB133
 4282 0a53 0C000000 		.4byte	.LFE133-.LFB133
 4283 0a57 01       		.uleb128 0x1
 4284 0a58 9C       		.byte	0x9c
 4285 0a59 2D       		.uleb128 0x2d
 4286 0a5a C6060000 		.4byte	.LASF203
 4287 0a5e 02       		.byte	0x2
 4288 0a5f 4F01     		.2byte	0x14f
 4289 0a61 F6000000 		.4byte	0xf6
 4290 0a65 00000000 		.4byte	.LFB134
 4291 0a69 0C000000 		.4byte	.LFE134-.LFB134
 4292 0a6d 01       		.uleb128 0x1
 4293 0a6e 9C       		.byte	0x9c
 4294 0a6f 2E       		.uleb128 0x2e
 4295 0a70 4B030000 		.4byte	.LASF134
 4296 0a74 02       		.byte	0x2
 4297 0a75 5501     		.2byte	0x155
 4298 0a77 E0000000 		.4byte	0xe0
 4299 0a7b 00000000 		.4byte	.LFB135
 4300 0a7f 18000000 		.4byte	.LFE135-.LFB135
 4301 0a83 01       		.uleb128 0x1
 4302 0a84 9C       		.byte	0x9c
 4303 0a85 930A0000 		.4byte	0xa93
 4304 0a89 26       		.uleb128 0x26
 4305 0a8a 10000000 		.4byte	.LVL21
 4306 0a8e C7190000 		.4byte	0x19c7
 4307 0a92 00       		.byte	0
 4308 0a93 2E       		.uleb128 0x2e
 4309 0a94 43010000 		.4byte	.LASF135
 4310 0a98 02       		.byte	0x2
 4311 0a99 5901     		.2byte	0x159
 4312 0a9b 01010000 		.4byte	0x101
 4313 0a9f 00000000 		.4byte	.LFB136
 4314 0aa3 C0010000 		.4byte	.LFE136-.LFB136
 4315 0aa7 01       		.uleb128 0x1
ARM GAS  C:\Users\danit\AppData\Local\Temp\ccBFeYtw.s 			page 79


 4316 0aa8 9C       		.byte	0x9c
 4317 0aa9 4E0B0000 		.4byte	0xb4e
 4318 0aad 2F       		.uleb128 0x2f
 4319 0aae C6020000 		.4byte	.LASF136
 4320 0ab2 02       		.byte	0x2
 4321 0ab3 5901     		.2byte	0x159
 4322 0ab5 EB000000 		.4byte	0xeb
 4323 0ab9 71000000 		.4byte	.LLST3
 4324 0abd 2C       		.uleb128 0x2c
 4325 0abe 53657400 		.ascii	"Set\000"
 4326 0ac2 02       		.byte	0x2
 4327 0ac3 5901     		.2byte	0x159
 4328 0ac5 EB000000 		.4byte	0xeb
 4329 0ac9 92000000 		.4byte	.LLST4
 4330 0acd 2F       		.uleb128 0x2f
 4331 0ace F6070000 		.4byte	.LASF137
 4332 0ad2 02       		.byte	0x2
 4333 0ad3 5901     		.2byte	0x159
 4334 0ad5 01010000 		.4byte	0x101
 4335 0ad9 B3000000 		.4byte	.LLST5
 4336 0add 2F       		.uleb128 0x2f
 4337 0ade 19020000 		.4byte	.LASF138
 4338 0ae2 02       		.byte	0x2
 4339 0ae3 5901     		.2byte	0x159
 4340 0ae5 01010000 		.4byte	0x101
 4341 0ae9 D2000000 		.4byte	.LLST6
 4342 0aed 2C       		.uleb128 0x2c
 4343 0aee 6B5F7000 		.ascii	"k_p\000"
 4344 0af2 02       		.byte	0x2
 4345 0af3 5901     		.2byte	0x159
 4346 0af5 EB000000 		.4byte	0xeb
 4347 0af9 F0000000 		.4byte	.LLST7
 4348 0afd 2C       		.uleb128 0x2c
 4349 0afe 6B5F6900 		.ascii	"k_i\000"
 4350 0b02 02       		.byte	0x2
 4351 0b03 5901     		.2byte	0x159
 4352 0b05 EB000000 		.4byte	0xeb
 4353 0b09 10010000 		.4byte	.LLST8
 4354 0b0d 2C       		.uleb128 0x2c
 4355 0b0e 6B5F6400 		.ascii	"k_d\000"
 4356 0b12 02       		.byte	0x2
 4357 0b13 5901     		.2byte	0x159
 4358 0b15 EB000000 		.4byte	0xeb
 4359 0b19 30010000 		.4byte	.LLST9
 4360 0b1d 2F       		.uleb128 0x2f
 4361 0b1e A8050000 		.4byte	.LASF139
 4362 0b22 02       		.byte	0x2
 4363 0b23 5901     		.2byte	0x159
 4364 0b25 01010000 		.4byte	0x101
 4365 0b29 50010000 		.4byte	.LLST10
 4366 0b2d 2F       		.uleb128 0x2f
 4367 0b2e AD070000 		.4byte	.LASF140
 4368 0b32 02       		.byte	0x2
 4369 0b33 5901     		.2byte	0x159
 4370 0b35 01010000 		.4byte	0x101
 4371 0b39 70010000 		.4byte	.LLST11
 4372 0b3d 2F       		.uleb128 0x2f
ARM GAS  C:\Users\danit\AppData\Local\Temp\ccBFeYtw.s 			page 80


 4373 0b3e 67040000 		.4byte	.LASF141
 4374 0b42 02       		.byte	0x2
 4375 0b43 5901     		.2byte	0x159
 4376 0b45 01010000 		.4byte	0x101
 4377 0b49 90010000 		.4byte	.LLST12
 4378 0b4d 00       		.byte	0
 4379 0b4e 30       		.uleb128 0x30
 4380 0b4f C7080000 		.4byte	.LASF142
 4381 0b53 02       		.byte	0x2
 4382 0b54 8A       		.byte	0x8a
 4383 0b55 00000000 		.4byte	.LFB120
 4384 0b59 BC030000 		.4byte	.LFE120-.LFB120
 4385 0b5d 01       		.uleb128 0x1
 4386 0b5e 9C       		.byte	0x9c
 4387 0b5f CD0C0000 		.4byte	0xccd
 4388 0b63 31       		.uleb128 0x31
 4389 0b64 60010000 		.4byte	.LASF143
 4390 0b68 02       		.byte	0x2
 4391 0b69 D4       		.byte	0xd4
 4392 0b6a 2C000000 		.4byte	0x2c
 4393 0b6e 740B0000 		.4byte	0xb74
 4394 0b72 1F       		.uleb128 0x1f
 4395 0b73 00       		.byte	0
 4396 0b74 32       		.uleb128 0x32
 4397 0b75 00000000 		.4byte	.Ldebug_ranges0+0
 4398 0b79 CA0B0000 		.4byte	0xbca
 4399 0b7d 31       		.uleb128 0x31
 4400 0b7e 60010000 		.4byte	.LASF143
 4401 0b82 02       		.byte	0x2
 4402 0b83 D4       		.byte	0xd4
 4403 0b84 2C000000 		.4byte	0x2c
 4404 0b88 8E0B0000 		.4byte	0xb8e
 4405 0b8c 1F       		.uleb128 0x1f
 4406 0b8d 00       		.byte	0
 4407 0b8e 24       		.uleb128 0x24
 4408 0b8f 5E000000 		.4byte	.LVL50
 4409 0b93 DC190000 		.4byte	0x19dc
 4410 0b97 A10B0000 		.4byte	0xba1
 4411 0b9b 22       		.uleb128 0x22
 4412 0b9c 01       		.uleb128 0x1
 4413 0b9d 50       		.byte	0x50
 4414 0b9e 01       		.uleb128 0x1
 4415 0b9f 31       		.byte	0x31
 4416 0ba0 00       		.byte	0
 4417 0ba1 24       		.uleb128 0x24
 4418 0ba2 76000000 		.4byte	.LVL51
 4419 0ba6 DC190000 		.4byte	0x19dc
 4420 0baa B40B0000 		.4byte	0xbb4
 4421 0bae 22       		.uleb128 0x22
 4422 0baf 01       		.uleb128 0x1
 4423 0bb0 50       		.byte	0x50
 4424 0bb1 01       		.uleb128 0x1
 4425 0bb2 31       		.byte	0x31
 4426 0bb3 00       		.byte	0
 4427 0bb4 21       		.uleb128 0x21
 4428 0bb5 E0000000 		.4byte	.LVL53
 4429 0bb9 ED190000 		.4byte	0x19ed
ARM GAS  C:\Users\danit\AppData\Local\Temp\ccBFeYtw.s 			page 81


 4430 0bbd 22       		.uleb128 0x22
 4431 0bbe 01       		.uleb128 0x1
 4432 0bbf 51       		.byte	0x51
 4433 0bc0 01       		.uleb128 0x1
 4434 0bc1 32       		.byte	0x32
 4435 0bc2 22       		.uleb128 0x22
 4436 0bc3 01       		.uleb128 0x1
 4437 0bc4 50       		.byte	0x50
 4438 0bc5 02       		.uleb128 0x2
 4439 0bc6 75       		.byte	0x75
 4440 0bc7 00       		.sleb128 0
 4441 0bc8 00       		.byte	0
 4442 0bc9 00       		.byte	0
 4443 0bca 33       		.uleb128 0x33
 4444 0bcb E0000000 		.4byte	.LBB15
 4445 0bcf 06000000 		.4byte	.LBE15-.LBB15
 4446 0bd3 E60B0000 		.4byte	0xbe6
 4447 0bd7 34       		.uleb128 0x34
 4448 0bd8 746D7000 		.ascii	"tmp\000"
 4449 0bdc 02       		.byte	0x2
 4450 0bdd 0801     		.2byte	0x108
 4451 0bdf 0C010000 		.4byte	0x10c
 4452 0be3 01       		.uleb128 0x1
 4453 0be4 53       		.byte	0x53
 4454 0be5 00       		.byte	0
 4455 0be6 32       		.uleb128 0x32
 4456 0be7 20000000 		.4byte	.Ldebug_ranges0+0x20
 4457 0beb FE0B0000 		.4byte	0xbfe
 4458 0bef 34       		.uleb128 0x34
 4459 0bf0 746D7000 		.ascii	"tmp\000"
 4460 0bf4 02       		.byte	0x2
 4461 0bf5 0D01     		.2byte	0x10d
 4462 0bf7 0C010000 		.4byte	0x10c
 4463 0bfb 01       		.uleb128 0x1
 4464 0bfc 53       		.byte	0x53
 4465 0bfd 00       		.byte	0
 4466 0bfe 32       		.uleb128 0x32
 4467 0bff 38000000 		.4byte	.Ldebug_ranges0+0x38
 4468 0c03 8E0C0000 		.4byte	0xc8e
 4469 0c07 31       		.uleb128 0x31
 4470 0c08 60010000 		.4byte	.LASF143
 4471 0c0c 02       		.byte	0x2
 4472 0c0d D4       		.byte	0xd4
 4473 0c0e 2C000000 		.4byte	0x2c
 4474 0c12 180C0000 		.4byte	0xc18
 4475 0c16 1F       		.uleb128 0x1f
 4476 0c17 00       		.byte	0
 4477 0c18 26       		.uleb128 0x26
 4478 0c19 66010000 		.4byte	.LVL57
 4479 0c1d BC190000 		.4byte	0x19bc
 4480 0c21 26       		.uleb128 0x26
 4481 0c22 6C010000 		.4byte	.LVL58
 4482 0c26 BC190000 		.4byte	0x19bc
 4483 0c2a 26       		.uleb128 0x26
 4484 0c2b A0010000 		.4byte	.LVL59
 4485 0c2f 930A0000 		.4byte	0xa93
 4486 0c33 24       		.uleb128 0x24
ARM GAS  C:\Users\danit\AppData\Local\Temp\ccBFeYtw.s 			page 82


 4487 0c34 1A020000 		.4byte	.LVL60
 4488 0c38 ED190000 		.4byte	0x19ed
 4489 0c3c 4C0C0000 		.4byte	0xc4c
 4490 0c40 22       		.uleb128 0x22
 4491 0c41 01       		.uleb128 0x1
 4492 0c42 51       		.byte	0x51
 4493 0c43 01       		.uleb128 0x1
 4494 0c44 32       		.byte	0x32
 4495 0c45 22       		.uleb128 0x22
 4496 0c46 01       		.uleb128 0x1
 4497 0c47 50       		.byte	0x50
 4498 0c48 02       		.uleb128 0x2
 4499 0c49 75       		.byte	0x75
 4500 0c4a 00       		.sleb128 0
 4501 0c4b 00       		.byte	0
 4502 0c4c 24       		.uleb128 0x24
 4503 0c4d 20020000 		.4byte	.LVL61
 4504 0c51 DC190000 		.4byte	0x19dc
 4505 0c55 5F0C0000 		.4byte	0xc5f
 4506 0c59 22       		.uleb128 0x22
 4507 0c5a 01       		.uleb128 0x1
 4508 0c5b 50       		.byte	0x50
 4509 0c5c 01       		.uleb128 0x1
 4510 0c5d 31       		.byte	0x31
 4511 0c5e 00       		.byte	0
 4512 0c5f 24       		.uleb128 0x24
 4513 0c60 44020000 		.4byte	.LVL62
 4514 0c64 DC190000 		.4byte	0x19dc
 4515 0c68 720C0000 		.4byte	0xc72
 4516 0c6c 22       		.uleb128 0x22
 4517 0c6d 01       		.uleb128 0x1
 4518 0c6e 50       		.byte	0x50
 4519 0c6f 01       		.uleb128 0x1
 4520 0c70 32       		.byte	0x32
 4521 0c71 00       		.byte	0
 4522 0c72 26       		.uleb128 0x26
 4523 0c73 BC020000 		.4byte	.LVL64
 4524 0c77 BC190000 		.4byte	0x19bc
 4525 0c7b 26       		.uleb128 0x26
 4526 0c7c 60030000 		.4byte	.LVL65
 4527 0c80 BC190000 		.4byte	0x19bc
 4528 0c84 26       		.uleb128 0x26
 4529 0c85 66030000 		.4byte	.LVL66
 4530 0c89 BC190000 		.4byte	0x19bc
 4531 0c8d 00       		.byte	0
 4532 0c8e 24       		.uleb128 0x24
 4533 0c8f F2000000 		.4byte	.LVL54
 4534 0c93 DC190000 		.4byte	0x19dc
 4535 0c97 A10C0000 		.4byte	0xca1
 4536 0c9b 22       		.uleb128 0x22
 4537 0c9c 01       		.uleb128 0x1
 4538 0c9d 50       		.byte	0x50
 4539 0c9e 01       		.uleb128 0x1
 4540 0c9f 32       		.byte	0x32
 4541 0ca0 00       		.byte	0
 4542 0ca1 25       		.uleb128 0x25
 4543 0ca2 34010000 		.4byte	.LVL55
ARM GAS  C:\Users\danit\AppData\Local\Temp\ccBFeYtw.s 			page 83


 4544 0ca6 ED190000 		.4byte	0x19ed
 4545 0caa B40C0000 		.4byte	0xcb4
 4546 0cae 22       		.uleb128 0x22
 4547 0caf 01       		.uleb128 0x1
 4548 0cb0 51       		.byte	0x51
 4549 0cb1 01       		.uleb128 0x1
 4550 0cb2 31       		.byte	0x31
 4551 0cb3 00       		.byte	0
 4552 0cb4 26       		.uleb128 0x26
 4553 0cb5 38010000 		.4byte	.LVL56
 4554 0cb9 081A0000 		.4byte	0x1a08
 4555 0cbd 21       		.uleb128 0x21
 4556 0cbe 78020000 		.4byte	.LVL63
 4557 0cc2 131A0000 		.4byte	0x1a13
 4558 0cc6 22       		.uleb128 0x22
 4559 0cc7 01       		.uleb128 0x1
 4560 0cc8 50       		.byte	0x50
 4561 0cc9 01       		.uleb128 0x1
 4562 0cca 30       		.byte	0x30
 4563 0ccb 00       		.byte	0
 4564 0ccc 00       		.byte	0
 4565 0ccd 2B       		.uleb128 0x2b
 4566 0cce 20070000 		.4byte	.LASF144
 4567 0cd2 02       		.byte	0x2
 4568 0cd3 8A01     		.2byte	0x18a
 4569 0cd5 00000000 		.4byte	.LFB137
 4570 0cd9 B0010000 		.4byte	.LFE137-.LFB137
 4571 0cdd 01       		.uleb128 0x1
 4572 0cde 9C       		.byte	0x9c
 4573 0cdf 760F0000 		.4byte	0xf76
 4574 0ce3 2C       		.uleb128 0x2c
 4575 0ce4 63687000 		.ascii	"chp\000"
 4576 0ce8 02       		.byte	0x2
 4577 0ce9 8A01     		.2byte	0x18a
 4578 0ceb AA080000 		.4byte	0x8aa
 4579 0cef B0010000 		.4byte	.LLST13
 4580 0cf3 2F       		.uleb128 0x2f
 4581 0cf4 57090000 		.4byte	.LASF145
 4582 0cf8 02       		.byte	0x2
 4583 0cf9 8A01     		.2byte	0x18a
 4584 0cfb 2C000000 		.4byte	0x2c
 4585 0cff DC010000 		.4byte	.LLST14
 4586 0d03 2F       		.uleb128 0x2f
 4587 0d04 DC090000 		.4byte	.LASF146
 4588 0d08 02       		.byte	0x2
 4589 0d09 8A01     		.2byte	0x18a
 4590 0d0b 760F0000 		.4byte	0xf76
 4591 0d0f FD010000 		.4byte	.LLST15
 4592 0d13 24       		.uleb128 0x24
 4593 0d14 12000000 		.4byte	.LVL69
 4594 0d18 4B080000 		.4byte	0x84b
 4595 0d1c 300D0000 		.4byte	0xd30
 4596 0d20 22       		.uleb128 0x22
 4597 0d21 01       		.uleb128 0x1
 4598 0d22 51       		.byte	0x51
 4599 0d23 05       		.uleb128 0x5
 4600 0d24 03       		.byte	0x3
ARM GAS  C:\Users\danit\AppData\Local\Temp\ccBFeYtw.s 			page 84


 4601 0d25 00000000 		.4byte	.LC0
 4602 0d29 22       		.uleb128 0x22
 4603 0d2a 01       		.uleb128 0x1
 4604 0d2b 50       		.byte	0x50
 4605 0d2c 02       		.uleb128 0x2
 4606 0d2d 74       		.byte	0x74
 4607 0d2e 00       		.sleb128 0
 4608 0d2f 00       		.byte	0
 4609 0d30 24       		.uleb128 0x24
 4610 0d31 1A000000 		.4byte	.LVL70
 4611 0d35 4B080000 		.4byte	0x84b
 4612 0d39 4D0D0000 		.4byte	0xd4d
 4613 0d3d 22       		.uleb128 0x22
 4614 0d3e 01       		.uleb128 0x1
 4615 0d3f 51       		.byte	0x51
 4616 0d40 05       		.uleb128 0x5
 4617 0d41 03       		.byte	0x3
 4618 0d42 04000000 		.4byte	.LC1
 4619 0d46 22       		.uleb128 0x22
 4620 0d47 01       		.uleb128 0x1
 4621 0d48 50       		.byte	0x50
 4622 0d49 02       		.uleb128 0x2
 4623 0d4a 74       		.byte	0x74
 4624 0d4b 00       		.sleb128 0
 4625 0d4c 00       		.byte	0
 4626 0d4d 24       		.uleb128 0x24
 4627 0d4e 2C000000 		.4byte	.LVL71
 4628 0d52 4B080000 		.4byte	0x84b
 4629 0d56 740D0000 		.4byte	0xd74
 4630 0d5a 22       		.uleb128 0x22
 4631 0d5b 01       		.uleb128 0x1
 4632 0d5c 53       		.byte	0x53
 4633 0d5d 01       		.uleb128 0x1
 4634 0d5e 30       		.byte	0x30
 4635 0d5f 22       		.uleb128 0x22
 4636 0d60 01       		.uleb128 0x1
 4637 0d61 52       		.byte	0x52
 4638 0d62 01       		.uleb128 0x1
 4639 0d63 30       		.byte	0x30
 4640 0d64 22       		.uleb128 0x22
 4641 0d65 01       		.uleb128 0x1
 4642 0d66 51       		.byte	0x51
 4643 0d67 05       		.uleb128 0x5
 4644 0d68 03       		.byte	0x3
 4645 0d69 0C000000 		.4byte	.LC2
 4646 0d6d 22       		.uleb128 0x22
 4647 0d6e 01       		.uleb128 0x1
 4648 0d6f 50       		.byte	0x50
 4649 0d70 02       		.uleb128 0x2
 4650 0d71 74       		.byte	0x74
 4651 0d72 00       		.sleb128 0
 4652 0d73 00       		.byte	0
 4653 0d74 24       		.uleb128 0x24
 4654 0d75 44000000 		.4byte	.LVL73
 4655 0d79 4B080000 		.4byte	0x84b
 4656 0d7d 970D0000 		.4byte	0xd97
 4657 0d81 22       		.uleb128 0x22
ARM GAS  C:\Users\danit\AppData\Local\Temp\ccBFeYtw.s 			page 85


 4658 0d82 01       		.uleb128 0x1
 4659 0d83 52       		.byte	0x52
 4660 0d84 02       		.uleb128 0x2
 4661 0d85 79       		.byte	0x79
 4662 0d86 00       		.sleb128 0
 4663 0d87 22       		.uleb128 0x22
 4664 0d88 01       		.uleb128 0x1
 4665 0d89 51       		.byte	0x51
 4666 0d8a 05       		.uleb128 0x5
 4667 0d8b 03       		.byte	0x3
 4668 0d8c 18000000 		.4byte	.LC3
 4669 0d90 22       		.uleb128 0x22
 4670 0d91 01       		.uleb128 0x1
 4671 0d92 50       		.byte	0x50
 4672 0d93 02       		.uleb128 0x2
 4673 0d94 74       		.byte	0x74
 4674 0d95 00       		.sleb128 0
 4675 0d96 00       		.byte	0
 4676 0d97 24       		.uleb128 0x24
 4677 0d98 60000000 		.4byte	.LVL75
 4678 0d9c 4B080000 		.4byte	0x84b
 4679 0da0 BA0D0000 		.4byte	0xdba
 4680 0da4 22       		.uleb128 0x22
 4681 0da5 01       		.uleb128 0x1
 4682 0da6 52       		.byte	0x52
 4683 0da7 02       		.uleb128 0x2
 4684 0da8 79       		.byte	0x79
 4685 0da9 00       		.sleb128 0
 4686 0daa 22       		.uleb128 0x22
 4687 0dab 01       		.uleb128 0x1
 4688 0dac 51       		.byte	0x51
 4689 0dad 05       		.uleb128 0x5
 4690 0dae 03       		.byte	0x3
 4691 0daf 30000000 		.4byte	.LC4
 4692 0db3 22       		.uleb128 0x22
 4693 0db4 01       		.uleb128 0x1
 4694 0db5 50       		.byte	0x50
 4695 0db6 02       		.uleb128 0x2
 4696 0db7 74       		.byte	0x74
 4697 0db8 00       		.sleb128 0
 4698 0db9 00       		.byte	0
 4699 0dba 24       		.uleb128 0x24
 4700 0dbb 7A000000 		.4byte	.LVL77
 4701 0dbf 4B080000 		.4byte	0x84b
 4702 0dc3 DD0D0000 		.4byte	0xddd
 4703 0dc7 22       		.uleb128 0x22
 4704 0dc8 01       		.uleb128 0x1
 4705 0dc9 52       		.byte	0x52
 4706 0dca 02       		.uleb128 0x2
 4707 0dcb 79       		.byte	0x79
 4708 0dcc 00       		.sleb128 0
 4709 0dcd 22       		.uleb128 0x22
 4710 0dce 01       		.uleb128 0x1
 4711 0dcf 51       		.byte	0x51
 4712 0dd0 05       		.uleb128 0x5
 4713 0dd1 03       		.byte	0x3
 4714 0dd2 48000000 		.4byte	.LC5
ARM GAS  C:\Users\danit\AppData\Local\Temp\ccBFeYtw.s 			page 86


 4715 0dd6 22       		.uleb128 0x22
 4716 0dd7 01       		.uleb128 0x1
 4717 0dd8 50       		.byte	0x50
 4718 0dd9 02       		.uleb128 0x2
 4719 0dda 74       		.byte	0x74
 4720 0ddb 00       		.sleb128 0
 4721 0ddc 00       		.byte	0
 4722 0ddd 24       		.uleb128 0x24
 4723 0dde 8A000000 		.4byte	.LVL78
 4724 0de2 4B080000 		.4byte	0x84b
 4725 0de6 FA0D0000 		.4byte	0xdfa
 4726 0dea 22       		.uleb128 0x22
 4727 0deb 01       		.uleb128 0x1
 4728 0dec 51       		.byte	0x51
 4729 0ded 05       		.uleb128 0x5
 4730 0dee 03       		.byte	0x3
 4731 0def 60000000 		.4byte	.LC6
 4732 0df3 22       		.uleb128 0x22
 4733 0df4 01       		.uleb128 0x1
 4734 0df5 50       		.byte	0x50
 4735 0df6 02       		.uleb128 0x2
 4736 0df7 74       		.byte	0x74
 4737 0df8 00       		.sleb128 0
 4738 0df9 00       		.byte	0
 4739 0dfa 24       		.uleb128 0x24
 4740 0dfb 96000000 		.4byte	.LVL79
 4741 0dff 4B080000 		.4byte	0x84b
 4742 0e03 170E0000 		.4byte	0xe17
 4743 0e07 22       		.uleb128 0x22
 4744 0e08 01       		.uleb128 0x1
 4745 0e09 51       		.byte	0x51
 4746 0e0a 05       		.uleb128 0x5
 4747 0e0b 03       		.byte	0x3
 4748 0e0c 78000000 		.4byte	.LC7
 4749 0e10 22       		.uleb128 0x22
 4750 0e11 01       		.uleb128 0x1
 4751 0e12 50       		.byte	0x50
 4752 0e13 02       		.uleb128 0x2
 4753 0e14 74       		.byte	0x74
 4754 0e15 00       		.sleb128 0
 4755 0e16 00       		.byte	0
 4756 0e17 24       		.uleb128 0x24
 4757 0e18 A2000000 		.4byte	.LVL80
 4758 0e1c 4B080000 		.4byte	0x84b
 4759 0e20 340E0000 		.4byte	0xe34
 4760 0e24 22       		.uleb128 0x22
 4761 0e25 01       		.uleb128 0x1
 4762 0e26 51       		.byte	0x51
 4763 0e27 05       		.uleb128 0x5
 4764 0e28 03       		.byte	0x3
 4765 0e29 84000000 		.4byte	.LC8
 4766 0e2d 22       		.uleb128 0x22
 4767 0e2e 01       		.uleb128 0x1
 4768 0e2f 50       		.byte	0x50
 4769 0e30 02       		.uleb128 0x2
 4770 0e31 74       		.byte	0x74
 4771 0e32 00       		.sleb128 0
ARM GAS  C:\Users\danit\AppData\Local\Temp\ccBFeYtw.s 			page 87


 4772 0e33 00       		.byte	0
 4773 0e34 24       		.uleb128 0x24
 4774 0e35 AE000000 		.4byte	.LVL81
 4775 0e39 4B080000 		.4byte	0x84b
 4776 0e3d 510E0000 		.4byte	0xe51
 4777 0e41 22       		.uleb128 0x22
 4778 0e42 01       		.uleb128 0x1
 4779 0e43 51       		.byte	0x51
 4780 0e44 05       		.uleb128 0x5
 4781 0e45 03       		.byte	0x3
 4782 0e46 A4000000 		.4byte	.LC9
 4783 0e4a 22       		.uleb128 0x22
 4784 0e4b 01       		.uleb128 0x1
 4785 0e4c 50       		.byte	0x50
 4786 0e4d 02       		.uleb128 0x2
 4787 0e4e 74       		.byte	0x74
 4788 0e4f 00       		.sleb128 0
 4789 0e50 00       		.byte	0
 4790 0e51 26       		.uleb128 0x26
 4791 0e52 B2000000 		.4byte	.LVL82
 4792 0e56 BC190000 		.4byte	0x19bc
 4793 0e5a 24       		.uleb128 0x24
 4794 0e5b BC000000 		.4byte	.LVL83
 4795 0e5f 4B080000 		.4byte	0x84b
 4796 0e63 770E0000 		.4byte	0xe77
 4797 0e67 22       		.uleb128 0x22
 4798 0e68 01       		.uleb128 0x1
 4799 0e69 51       		.byte	0x51
 4800 0e6a 05       		.uleb128 0x5
 4801 0e6b 03       		.byte	0x3
 4802 0e6c B4000000 		.4byte	.LC10
 4803 0e70 22       		.uleb128 0x22
 4804 0e71 01       		.uleb128 0x1
 4805 0e72 50       		.byte	0x50
 4806 0e73 02       		.uleb128 0x2
 4807 0e74 74       		.byte	0x74
 4808 0e75 00       		.sleb128 0
 4809 0e76 00       		.byte	0
 4810 0e77 26       		.uleb128 0x26
 4811 0e78 C4000000 		.4byte	.LVL84
 4812 0e7c BC190000 		.4byte	0x19bc
 4813 0e80 24       		.uleb128 0x24
 4814 0e81 CE000000 		.4byte	.LVL85
 4815 0e85 4B080000 		.4byte	0x84b
 4816 0e89 9D0E0000 		.4byte	0xe9d
 4817 0e8d 22       		.uleb128 0x22
 4818 0e8e 01       		.uleb128 0x1
 4819 0e8f 51       		.byte	0x51
 4820 0e90 05       		.uleb128 0x5
 4821 0e91 03       		.byte	0x3
 4822 0e92 C8000000 		.4byte	.LC11
 4823 0e96 22       		.uleb128 0x22
 4824 0e97 01       		.uleb128 0x1
 4825 0e98 50       		.byte	0x50
 4826 0e99 02       		.uleb128 0x2
 4827 0e9a 74       		.byte	0x74
 4828 0e9b 00       		.sleb128 0
ARM GAS  C:\Users\danit\AppData\Local\Temp\ccBFeYtw.s 			page 88


 4829 0e9c 00       		.byte	0
 4830 0e9d 24       		.uleb128 0x24
 4831 0e9e D6000000 		.4byte	.LVL86
 4832 0ea2 4B080000 		.4byte	0x84b
 4833 0ea6 BA0E0000 		.4byte	0xeba
 4834 0eaa 22       		.uleb128 0x22
 4835 0eab 01       		.uleb128 0x1
 4836 0eac 51       		.byte	0x51
 4837 0ead 05       		.uleb128 0x5
 4838 0eae 03       		.byte	0x3
 4839 0eaf DC000000 		.4byte	.LC12
 4840 0eb3 22       		.uleb128 0x22
 4841 0eb4 01       		.uleb128 0x1
 4842 0eb5 50       		.byte	0x50
 4843 0eb6 02       		.uleb128 0x2
 4844 0eb7 74       		.byte	0x74
 4845 0eb8 00       		.sleb128 0
 4846 0eb9 00       		.byte	0
 4847 0eba 24       		.uleb128 0x24
 4848 0ebb E2000000 		.4byte	.LVL87
 4849 0ebf 4B080000 		.4byte	0x84b
 4850 0ec3 D70E0000 		.4byte	0xed7
 4851 0ec7 22       		.uleb128 0x22
 4852 0ec8 01       		.uleb128 0x1
 4853 0ec9 51       		.byte	0x51
 4854 0eca 05       		.uleb128 0x5
 4855 0ecb 03       		.byte	0x3
 4856 0ecc E0000000 		.4byte	.LC13
 4857 0ed0 22       		.uleb128 0x22
 4858 0ed1 01       		.uleb128 0x1
 4859 0ed2 50       		.byte	0x50
 4860 0ed3 02       		.uleb128 0x2
 4861 0ed4 74       		.byte	0x74
 4862 0ed5 00       		.sleb128 0
 4863 0ed6 00       		.byte	0
 4864 0ed7 24       		.uleb128 0x24
 4865 0ed8 EC000000 		.4byte	.LVL88
 4866 0edc 4B080000 		.4byte	0x84b
 4867 0ee0 F90E0000 		.4byte	0xef9
 4868 0ee4 22       		.uleb128 0x22
 4869 0ee5 01       		.uleb128 0x1
 4870 0ee6 52       		.byte	0x52
 4871 0ee7 01       		.uleb128 0x1
 4872 0ee8 30       		.byte	0x30
 4873 0ee9 22       		.uleb128 0x22
 4874 0eea 01       		.uleb128 0x1
 4875 0eeb 51       		.byte	0x51
 4876 0eec 05       		.uleb128 0x5
 4877 0eed 03       		.byte	0x3
 4878 0eee 00010000 		.4byte	.LC14
 4879 0ef2 22       		.uleb128 0x22
 4880 0ef3 01       		.uleb128 0x1
 4881 0ef4 50       		.byte	0x50
 4882 0ef5 02       		.uleb128 0x2
 4883 0ef6 74       		.byte	0x74
 4884 0ef7 00       		.sleb128 0
 4885 0ef8 00       		.byte	0
ARM GAS  C:\Users\danit\AppData\Local\Temp\ccBFeYtw.s 			page 89


 4886 0ef9 24       		.uleb128 0x24
 4887 0efa F8000000 		.4byte	.LVL89
 4888 0efe 4B080000 		.4byte	0x84b
 4889 0f02 160F0000 		.4byte	0xf16
 4890 0f06 22       		.uleb128 0x22
 4891 0f07 01       		.uleb128 0x1
 4892 0f08 51       		.byte	0x51
 4893 0f09 05       		.uleb128 0x5
 4894 0f0a 03       		.byte	0x3
 4895 0f0b 14010000 		.4byte	.LC15
 4896 0f0f 22       		.uleb128 0x22
 4897 0f10 01       		.uleb128 0x1
 4898 0f11 50       		.byte	0x50
 4899 0f12 02       		.uleb128 0x2
 4900 0f13 74       		.byte	0x74
 4901 0f14 00       		.sleb128 0
 4902 0f15 00       		.byte	0
 4903 0f16 24       		.uleb128 0x24
 4904 0f17 04010000 		.4byte	.LVL90
 4905 0f1b 4B080000 		.4byte	0x84b
 4906 0f1f 330F0000 		.4byte	0xf33
 4907 0f23 22       		.uleb128 0x22
 4908 0f24 01       		.uleb128 0x1
 4909 0f25 51       		.byte	0x51
 4910 0f26 05       		.uleb128 0x5
 4911 0f27 03       		.byte	0x3
 4912 0f28 28010000 		.4byte	.LC16
 4913 0f2c 22       		.uleb128 0x22
 4914 0f2d 01       		.uleb128 0x1
 4915 0f2e 50       		.byte	0x50
 4916 0f2f 02       		.uleb128 0x2
 4917 0f30 74       		.byte	0x74
 4918 0f31 00       		.sleb128 0
 4919 0f32 00       		.byte	0
 4920 0f33 24       		.uleb128 0x24
 4921 0f34 16010000 		.4byte	.LVL91
 4922 0f38 4B080000 		.4byte	0x84b
 4923 0f3c 500F0000 		.4byte	0xf50
 4924 0f40 22       		.uleb128 0x22
 4925 0f41 01       		.uleb128 0x1
 4926 0f42 51       		.byte	0x51
 4927 0f43 05       		.uleb128 0x5
 4928 0f44 03       		.byte	0x3
 4929 0f45 3C010000 		.4byte	.LC17
 4930 0f49 22       		.uleb128 0x22
 4931 0f4a 01       		.uleb128 0x1
 4932 0f4b 50       		.byte	0x50
 4933 0f4c 02       		.uleb128 0x2
 4934 0f4d 74       		.byte	0x74
 4935 0f4e 00       		.sleb128 0
 4936 0f4f 00       		.byte	0
 4937 0f50 24       		.uleb128 0x24
 4938 0f51 1C010000 		.4byte	.LVL92
 4939 0f55 2D1A0000 		.4byte	0x1a2d
 4940 0f59 640F0000 		.4byte	0xf64
 4941 0f5d 22       		.uleb128 0x22
 4942 0f5e 01       		.uleb128 0x1
ARM GAS  C:\Users\danit\AppData\Local\Temp\ccBFeYtw.s 			page 90


 4943 0f5f 50       		.byte	0x50
 4944 0f60 02       		.uleb128 0x2
 4945 0f61 08       		.byte	0x8
 4946 0f62 64       		.byte	0x64
 4947 0f63 00       		.byte	0
 4948 0f64 35       		.uleb128 0x35
 4949 0f65 26010000 		.4byte	.LVL93
 4950 0f69 22       		.uleb128 0x22
 4951 0f6a 01       		.uleb128 0x1
 4952 0f6b 51       		.byte	0x51
 4953 0f6c 01       		.uleb128 0x1
 4954 0f6d 30       		.byte	0x30
 4955 0f6e 22       		.uleb128 0x22
 4956 0f6f 01       		.uleb128 0x1
 4957 0f70 50       		.byte	0x50
 4958 0f71 02       		.uleb128 0x2
 4959 0f72 74       		.byte	0x74
 4960 0f73 00       		.sleb128 0
 4961 0f74 00       		.byte	0
 4962 0f75 00       		.byte	0
 4963 0f76 06       		.uleb128 0x6
 4964 0f77 04       		.byte	0x4
 4965 0f78 C8000000 		.4byte	0xc8
 4966 0f7c 36       		.uleb128 0x36
 4967 0f7d 8F030000 		.4byte	.LASF147
 4968 0f81 02       		.byte	0x2
 4969 0f82 A601     		.2byte	0x1a6
 4970 0f84 00000000 		.4byte	.LFB138
 4971 0f88 94010000 		.4byte	.LFE138-.LFB138
 4972 0f8c 01       		.uleb128 0x1
 4973 0f8d 9C       		.byte	0x9c
 4974 0f8e E3110000 		.4byte	0x11e3
 4975 0f92 2C       		.uleb128 0x2c
 4976 0f93 63687000 		.ascii	"chp\000"
 4977 0f97 02       		.byte	0x2
 4978 0f98 A601     		.2byte	0x1a6
 4979 0f9a AA080000 		.4byte	0x8aa
 4980 0f9e 1E020000 		.4byte	.LLST16
 4981 0fa2 2F       		.uleb128 0x2f
 4982 0fa3 57090000 		.4byte	.LASF145
 4983 0fa7 02       		.byte	0x2
 4984 0fa8 A601     		.2byte	0x1a6
 4985 0faa 2C000000 		.4byte	0x2c
 4986 0fae 9A020000 		.4byte	.LLST17
 4987 0fb2 2F       		.uleb128 0x2f
 4988 0fb3 DC090000 		.4byte	.LASF146
 4989 0fb7 02       		.byte	0x2
 4990 0fb8 A601     		.2byte	0x1a6
 4991 0fba 760F0000 		.4byte	0xf76
 4992 0fbe 03030000 		.4byte	.LLST18
 4993 0fc2 37       		.uleb128 0x37
 4994 0fc3 6E000000 		.4byte	.LASF148
 4995 0fc7 02       		.byte	0x2
 4996 0fc8 AA01     		.2byte	0x1aa
 4997 0fca EB000000 		.4byte	0xeb
 4998 0fce AC030000 		.4byte	.LLST19
 4999 0fd2 38       		.uleb128 0x38
ARM GAS  C:\Users\danit\AppData\Local\Temp\ccBFeYtw.s 			page 91


 5000 0fd3 7D040000 		.4byte	.LASF150
 5001 0fd7 02       		.byte	0x2
 5002 0fd8 ED01     		.2byte	0x1ed
 5003 0fda 3A000000 		.4byte	.L170
 5004 0fde 39       		.uleb128 0x39
 5005 0fdf 30080000 		.4byte	0x830
 5006 0fe3 00010000 		.4byte	.LBB22
 5007 0fe7 50000000 		.4byte	.Ldebug_ranges0+0x50
 5008 0feb 02       		.byte	0x2
 5009 0fec DF01     		.2byte	0x1df
 5010 0fee 39       		.uleb128 0x39
 5011 0fef 27080000 		.4byte	0x827
 5012 0ff3 2C010000 		.4byte	.LBB26
 5013 0ff7 68000000 		.4byte	.Ldebug_ranges0+0x68
 5014 0ffb 02       		.byte	0x2
 5015 0ffc DA01     		.2byte	0x1da
 5016 0ffe 24       		.uleb128 0x24
 5017 0fff 0E000000 		.4byte	.LVL97
 5018 1003 4B080000 		.4byte	0x84b
 5019 1007 1B100000 		.4byte	0x101b
 5020 100b 22       		.uleb128 0x22
 5021 100c 01       		.uleb128 0x1
 5022 100d 51       		.byte	0x51
 5023 100e 05       		.uleb128 0x5
 5024 100f 03       		.byte	0x3
 5025 1010 00000000 		.4byte	.LC0
 5026 1014 22       		.uleb128 0x22
 5027 1015 01       		.uleb128 0x1
 5028 1016 50       		.byte	0x50
 5029 1017 02       		.uleb128 0x2
 5030 1018 74       		.byte	0x74
 5031 1019 00       		.sleb128 0
 5032 101a 00       		.byte	0
 5033 101b 24       		.uleb128 0x24
 5034 101c 16000000 		.4byte	.LVL98
 5035 1020 4B080000 		.4byte	0x84b
 5036 1024 38100000 		.4byte	0x1038
 5037 1028 22       		.uleb128 0x22
 5038 1029 01       		.uleb128 0x1
 5039 102a 51       		.byte	0x51
 5040 102b 05       		.uleb128 0x5
 5041 102c 03       		.byte	0x3
 5042 102d 04000000 		.4byte	.LC1
 5043 1031 22       		.uleb128 0x22
 5044 1032 01       		.uleb128 0x1
 5045 1033 50       		.byte	0x50
 5046 1034 02       		.uleb128 0x2
 5047 1035 74       		.byte	0x74
 5048 1036 00       		.sleb128 0
 5049 1037 00       		.byte	0
 5050 1038 3A       		.uleb128 0x3a
 5051 1039 20000000 		.4byte	.LVL99
 5052 103d 4D100000 		.4byte	0x104d
 5053 1041 22       		.uleb128 0x22
 5054 1042 01       		.uleb128 0x1
 5055 1043 51       		.byte	0x51
 5056 1044 01       		.uleb128 0x1
ARM GAS  C:\Users\danit\AppData\Local\Temp\ccBFeYtw.s 			page 92


 5057 1045 30       		.byte	0x30
 5058 1046 22       		.uleb128 0x22
 5059 1047 01       		.uleb128 0x1
 5060 1048 50       		.byte	0x50
 5061 1049 02       		.uleb128 0x2
 5062 104a 74       		.byte	0x74
 5063 104b 00       		.sleb128 0
 5064 104c 00       		.byte	0
 5065 104d 24       		.uleb128 0x24
 5066 104e 32000000 		.4byte	.LVL101
 5067 1052 4B080000 		.4byte	0x84b
 5068 1056 74100000 		.4byte	0x1074
 5069 105a 22       		.uleb128 0x22
 5070 105b 01       		.uleb128 0x1
 5071 105c 53       		.byte	0x53
 5072 105d 01       		.uleb128 0x1
 5073 105e 30       		.byte	0x30
 5074 105f 22       		.uleb128 0x22
 5075 1060 01       		.uleb128 0x1
 5076 1061 52       		.byte	0x52
 5077 1062 01       		.uleb128 0x1
 5078 1063 30       		.byte	0x30
 5079 1064 22       		.uleb128 0x22
 5080 1065 01       		.uleb128 0x1
 5081 1066 51       		.byte	0x51
 5082 1067 05       		.uleb128 0x5
 5083 1068 03       		.byte	0x3
 5084 1069 0C000000 		.4byte	.LC2
 5085 106d 22       		.uleb128 0x22
 5086 106e 01       		.uleb128 0x1
 5087 106f 50       		.byte	0x50
 5088 1070 02       		.uleb128 0x2
 5089 1071 74       		.byte	0x74
 5090 1072 00       		.sleb128 0
 5091 1073 00       		.byte	0
 5092 1074 25       		.uleb128 0x25
 5093 1075 46000000 		.4byte	.LVL104
 5094 1079 4B080000 		.4byte	0x84b
 5095 107d 92100000 		.4byte	0x1092
 5096 1081 22       		.uleb128 0x22
 5097 1082 01       		.uleb128 0x1
 5098 1083 51       		.byte	0x51
 5099 1084 05       		.uleb128 0x5
 5100 1085 03       		.byte	0x3
 5101 1086 C8010000 		.4byte	.LC29
 5102 108a 22       		.uleb128 0x22
 5103 108b 01       		.uleb128 0x1
 5104 108c 50       		.byte	0x50
 5105 108d 03       		.uleb128 0x3
 5106 108e F3       		.byte	0xf3
 5107 108f 01       		.uleb128 0x1
 5108 1090 50       		.byte	0x50
 5109 1091 00       		.byte	0
 5110 1092 24       		.uleb128 0x24
 5111 1093 50000000 		.4byte	.LVL106
 5112 1097 3F1A0000 		.4byte	0x1a3f
 5113 109b AF100000 		.4byte	0x10af
ARM GAS  C:\Users\danit\AppData\Local\Temp\ccBFeYtw.s 			page 93


 5114 109f 22       		.uleb128 0x22
 5115 10a0 01       		.uleb128 0x1
 5116 10a1 51       		.byte	0x51
 5117 10a2 05       		.uleb128 0x5
 5118 10a3 03       		.byte	0x3
 5119 10a4 50010000 		.4byte	.LC18
 5120 10a8 22       		.uleb128 0x22
 5121 10a9 01       		.uleb128 0x1
 5122 10aa 50       		.byte	0x50
 5123 10ab 02       		.uleb128 0x2
 5124 10ac 75       		.byte	0x75
 5125 10ad 00       		.sleb128 0
 5126 10ae 00       		.byte	0
 5127 10af 24       		.uleb128 0x24
 5128 10b0 5C000000 		.4byte	.LVL107
 5129 10b4 3F1A0000 		.4byte	0x1a3f
 5130 10b8 CC100000 		.4byte	0x10cc
 5131 10bc 22       		.uleb128 0x22
 5132 10bd 01       		.uleb128 0x1
 5133 10be 51       		.byte	0x51
 5134 10bf 05       		.uleb128 0x5
 5135 10c0 03       		.byte	0x3
 5136 10c1 54010000 		.4byte	.LC19
 5137 10c5 22       		.uleb128 0x22
 5138 10c6 01       		.uleb128 0x1
 5139 10c7 50       		.byte	0x50
 5140 10c8 02       		.uleb128 0x2
 5141 10c9 75       		.byte	0x75
 5142 10ca 00       		.sleb128 0
 5143 10cb 00       		.byte	0
 5144 10cc 24       		.uleb128 0x24
 5145 10cd 68000000 		.4byte	.LVL108
 5146 10d1 3F1A0000 		.4byte	0x1a3f
 5147 10d5 E9100000 		.4byte	0x10e9
 5148 10d9 22       		.uleb128 0x22
 5149 10da 01       		.uleb128 0x1
 5150 10db 51       		.byte	0x51
 5151 10dc 05       		.uleb128 0x5
 5152 10dd 03       		.byte	0x3
 5153 10de 58010000 		.4byte	.LC20
 5154 10e2 22       		.uleb128 0x22
 5155 10e3 01       		.uleb128 0x1
 5156 10e4 50       		.byte	0x50
 5157 10e5 02       		.uleb128 0x2
 5158 10e6 75       		.byte	0x75
 5159 10e7 00       		.sleb128 0
 5160 10e8 00       		.byte	0
 5161 10e9 24       		.uleb128 0x24
 5162 10ea 74000000 		.4byte	.LVL109
 5163 10ee 3F1A0000 		.4byte	0x1a3f
 5164 10f2 06110000 		.4byte	0x1106
 5165 10f6 22       		.uleb128 0x22
 5166 10f7 01       		.uleb128 0x1
 5167 10f8 51       		.byte	0x51
 5168 10f9 05       		.uleb128 0x5
 5169 10fa 03       		.byte	0x3
 5170 10fb 5C010000 		.4byte	.LC21
ARM GAS  C:\Users\danit\AppData\Local\Temp\ccBFeYtw.s 			page 94


 5171 10ff 22       		.uleb128 0x22
 5172 1100 01       		.uleb128 0x1
 5173 1101 50       		.byte	0x50
 5174 1102 02       		.uleb128 0x2
 5175 1103 75       		.byte	0x75
 5176 1104 00       		.sleb128 0
 5177 1105 00       		.byte	0
 5178 1106 26       		.uleb128 0x26
 5179 1107 84000000 		.4byte	.LVL111
 5180 110b 591A0000 		.4byte	0x1a59
 5181 110f 24       		.uleb128 0x24
 5182 1110 94000000 		.4byte	.LVL113
 5183 1114 4B080000 		.4byte	0x84b
 5184 1118 2C110000 		.4byte	0x112c
 5185 111c 22       		.uleb128 0x22
 5186 111d 01       		.uleb128 0x1
 5187 111e 51       		.byte	0x51
 5188 111f 05       		.uleb128 0x5
 5189 1120 03       		.byte	0x3
 5190 1121 A4010000 		.4byte	.LC26
 5191 1125 22       		.uleb128 0x22
 5192 1126 01       		.uleb128 0x1
 5193 1127 50       		.byte	0x50
 5194 1128 02       		.uleb128 0x2
 5195 1129 74       		.byte	0x74
 5196 112a 00       		.sleb128 0
 5197 112b 00       		.byte	0
 5198 112c 24       		.uleb128 0x24
 5199 112d A0000000 		.4byte	.LVL114
 5200 1131 4B080000 		.4byte	0x84b
 5201 1135 49110000 		.4byte	0x1149
 5202 1139 22       		.uleb128 0x22
 5203 113a 01       		.uleb128 0x1
 5204 113b 51       		.byte	0x51
 5205 113c 05       		.uleb128 0x5
 5206 113d 03       		.byte	0x3
 5207 113e B0010000 		.4byte	.LC27
 5208 1142 22       		.uleb128 0x22
 5209 1143 01       		.uleb128 0x1
 5210 1144 50       		.byte	0x50
 5211 1145 02       		.uleb128 0x2
 5212 1146 74       		.byte	0x74
 5213 1147 00       		.sleb128 0
 5214 1148 00       		.byte	0
 5215 1149 24       		.uleb128 0x24
 5216 114a AC000000 		.4byte	.LVL115
 5217 114e 4B080000 		.4byte	0x84b
 5218 1152 66110000 		.4byte	0x1166
 5219 1156 22       		.uleb128 0x22
 5220 1157 01       		.uleb128 0x1
 5221 1158 51       		.byte	0x51
 5222 1159 05       		.uleb128 0x5
 5223 115a 03       		.byte	0x3
 5224 115b BC010000 		.4byte	.LC28
 5225 115f 22       		.uleb128 0x22
 5226 1160 01       		.uleb128 0x1
 5227 1161 50       		.byte	0x50
ARM GAS  C:\Users\danit\AppData\Local\Temp\ccBFeYtw.s 			page 95


 5228 1162 02       		.uleb128 0x2
 5229 1163 74       		.byte	0x74
 5230 1164 00       		.sleb128 0
 5231 1165 00       		.byte	0
 5232 1166 25       		.uleb128 0x25
 5233 1167 BC000000 		.4byte	.LVL117
 5234 116b 4B080000 		.4byte	0x84b
 5235 116f 84110000 		.4byte	0x1184
 5236 1173 22       		.uleb128 0x22
 5237 1174 01       		.uleb128 0x1
 5238 1175 51       		.byte	0x51
 5239 1176 05       		.uleb128 0x5
 5240 1177 03       		.byte	0x3
 5241 1178 A4000000 		.4byte	.LC9
 5242 117c 22       		.uleb128 0x22
 5243 117d 01       		.uleb128 0x1
 5244 117e 50       		.byte	0x50
 5245 117f 03       		.uleb128 0x3
 5246 1180 F3       		.byte	0xf3
 5247 1181 01       		.uleb128 0x1
 5248 1182 50       		.byte	0x50
 5249 1183 00       		.byte	0
 5250 1184 26       		.uleb128 0x26
 5251 1185 C8000000 		.4byte	.LVL119
 5252 1189 591A0000 		.4byte	0x1a59
 5253 118d 26       		.uleb128 0x26
 5254 118e DC000000 		.4byte	.LVL122
 5255 1192 591A0000 		.4byte	0x1a59
 5256 1196 24       		.uleb128 0x24
 5257 1197 F0000000 		.4byte	.LVL126
 5258 119b 3F1A0000 		.4byte	0x1a3f
 5259 119f B3110000 		.4byte	0x11b3
 5260 11a3 22       		.uleb128 0x22
 5261 11a4 01       		.uleb128 0x1
 5262 11a5 51       		.byte	0x51
 5263 11a6 05       		.uleb128 0x5
 5264 11a7 03       		.byte	0x3
 5265 11a8 60010000 		.4byte	.LC22
 5266 11ac 22       		.uleb128 0x22
 5267 11ad 01       		.uleb128 0x1
 5268 11ae 50       		.byte	0x50
 5269 11af 02       		.uleb128 0x2
 5270 11b0 76       		.byte	0x76
 5271 11b1 00       		.sleb128 0
 5272 11b2 00       		.byte	0
 5273 11b3 24       		.uleb128 0x24
 5274 11b4 FC000000 		.4byte	.LVL127
 5275 11b8 3F1A0000 		.4byte	0x1a3f
 5276 11bc D0110000 		.4byte	0x11d0
 5277 11c0 22       		.uleb128 0x22
 5278 11c1 01       		.uleb128 0x1
 5279 11c2 51       		.byte	0x51
 5280 11c3 05       		.uleb128 0x5
 5281 11c4 03       		.byte	0x3
 5282 11c5 80010000 		.4byte	.LC24
 5283 11c9 22       		.uleb128 0x22
 5284 11ca 01       		.uleb128 0x1
ARM GAS  C:\Users\danit\AppData\Local\Temp\ccBFeYtw.s 			page 96


 5285 11cb 50       		.byte	0x50
 5286 11cc 02       		.uleb128 0x2
 5287 11cd 76       		.byte	0x76
 5288 11ce 00       		.sleb128 0
 5289 11cf 00       		.byte	0
 5290 11d0 26       		.uleb128 0x26
 5291 11d1 0C010000 		.4byte	.LVL129
 5292 11d5 4B080000 		.4byte	0x84b
 5293 11d9 26       		.uleb128 0x26
 5294 11da 24010000 		.4byte	.LVL133
 5295 11de 591A0000 		.4byte	0x1a59
 5296 11e2 00       		.byte	0
 5297 11e3 36       		.uleb128 0x36
 5298 11e4 22030000 		.4byte	.LASF149
 5299 11e8 02       		.byte	0x2
 5300 11e9 F501     		.2byte	0x1f5
 5301 11eb 00000000 		.4byte	.LFB139
 5302 11ef A4000000 		.4byte	.LFE139-.LFB139
 5303 11f3 01       		.uleb128 0x1
 5304 11f4 9C       		.byte	0x9c
 5305 11f5 64130000 		.4byte	0x1364
 5306 11f9 2C       		.uleb128 0x2c
 5307 11fa 63687000 		.ascii	"chp\000"
 5308 11fe 02       		.byte	0x2
 5309 11ff F501     		.2byte	0x1f5
 5310 1201 AA080000 		.4byte	0x8aa
 5311 1205 E0030000 		.4byte	.LLST20
 5312 1209 2F       		.uleb128 0x2f
 5313 120a 57090000 		.4byte	.LASF145
 5314 120e 02       		.byte	0x2
 5315 120f F501     		.2byte	0x1f5
 5316 1211 2C000000 		.4byte	0x2c
 5317 1215 5F040000 		.4byte	.LLST21
 5318 1219 2F       		.uleb128 0x2f
 5319 121a DC090000 		.4byte	.LASF146
 5320 121e 02       		.byte	0x2
 5321 121f F501     		.2byte	0x1f5
 5322 1221 760F0000 		.4byte	0xf76
 5323 1225 BD040000 		.4byte	.LLST22
 5324 1229 38       		.uleb128 0x38
 5325 122a 7D040000 		.4byte	.LASF150
 5326 122e 02       		.byte	0x2
 5327 122f 0C02     		.2byte	0x20c
 5328 1231 26000000 		.4byte	.L184
 5329 1235 39       		.uleb128 0x39
 5330 1236 30080000 		.4byte	0x830
 5331 123a 54000000 		.4byte	.LBB30
 5332 123e 80000000 		.4byte	.Ldebug_ranges0+0x80
 5333 1242 02       		.byte	0x2
 5334 1243 0302     		.2byte	0x203
 5335 1245 39       		.uleb128 0x39
 5336 1246 27080000 		.4byte	0x827
 5337 124a 64000000 		.4byte	.LBB34
 5338 124e 98000000 		.4byte	.Ldebug_ranges0+0x98
 5339 1252 02       		.byte	0x2
 5340 1253 FE01     		.2byte	0x1fe
 5341 1255 24       		.uleb128 0x24
ARM GAS  C:\Users\danit\AppData\Local\Temp\ccBFeYtw.s 			page 97


 5342 1256 0E000000 		.4byte	.LVL137
 5343 125a 4B080000 		.4byte	0x84b
 5344 125e 72120000 		.4byte	0x1272
 5345 1262 22       		.uleb128 0x22
 5346 1263 01       		.uleb128 0x1
 5347 1264 51       		.byte	0x51
 5348 1265 05       		.uleb128 0x5
 5349 1266 03       		.byte	0x3
 5350 1267 00000000 		.4byte	.LC0
 5351 126b 22       		.uleb128 0x22
 5352 126c 01       		.uleb128 0x1
 5353 126d 50       		.byte	0x50
 5354 126e 02       		.uleb128 0x2
 5355 126f 74       		.byte	0x74
 5356 1270 00       		.sleb128 0
 5357 1271 00       		.byte	0
 5358 1272 24       		.uleb128 0x24
 5359 1273 16000000 		.4byte	.LVL138
 5360 1277 4B080000 		.4byte	0x84b
 5361 127b 8F120000 		.4byte	0x128f
 5362 127f 22       		.uleb128 0x22
 5363 1280 01       		.uleb128 0x1
 5364 1281 51       		.byte	0x51
 5365 1282 05       		.uleb128 0x5
 5366 1283 03       		.byte	0x3
 5367 1284 04000000 		.4byte	.LC1
 5368 1288 22       		.uleb128 0x22
 5369 1289 01       		.uleb128 0x1
 5370 128a 50       		.byte	0x50
 5371 128b 02       		.uleb128 0x2
 5372 128c 74       		.byte	0x74
 5373 128d 00       		.sleb128 0
 5374 128e 00       		.byte	0
 5375 128f 24       		.uleb128 0x24
 5376 1290 22000000 		.4byte	.LVL139
 5377 1294 4B080000 		.4byte	0x84b
 5378 1298 B6120000 		.4byte	0x12b6
 5379 129c 22       		.uleb128 0x22
 5380 129d 01       		.uleb128 0x1
 5381 129e 53       		.byte	0x53
 5382 129f 01       		.uleb128 0x1
 5383 12a0 30       		.byte	0x30
 5384 12a1 22       		.uleb128 0x22
 5385 12a2 01       		.uleb128 0x1
 5386 12a3 52       		.byte	0x52
 5387 12a4 01       		.uleb128 0x1
 5388 12a5 30       		.byte	0x30
 5389 12a6 22       		.uleb128 0x22
 5390 12a7 01       		.uleb128 0x1
 5391 12a8 51       		.byte	0x51
 5392 12a9 05       		.uleb128 0x5
 5393 12aa 03       		.byte	0x3
 5394 12ab 0C000000 		.4byte	.LC2
 5395 12af 22       		.uleb128 0x22
 5396 12b0 01       		.uleb128 0x1
 5397 12b1 50       		.byte	0x50
 5398 12b2 02       		.uleb128 0x2
ARM GAS  C:\Users\danit\AppData\Local\Temp\ccBFeYtw.s 			page 98


 5399 12b3 74       		.byte	0x74
 5400 12b4 00       		.sleb128 0
 5401 12b5 00       		.byte	0
 5402 12b6 24       		.uleb128 0x24
 5403 12b7 2E000000 		.4byte	.LVL141
 5404 12bb 4B080000 		.4byte	0x84b
 5405 12bf D3120000 		.4byte	0x12d3
 5406 12c3 22       		.uleb128 0x22
 5407 12c4 01       		.uleb128 0x1
 5408 12c5 51       		.byte	0x51
 5409 12c6 05       		.uleb128 0x5
 5410 12c7 03       		.byte	0x3
 5411 12c8 E4010000 		.4byte	.LC30
 5412 12cc 22       		.uleb128 0x22
 5413 12cd 01       		.uleb128 0x1
 5414 12ce 50       		.byte	0x50
 5415 12cf 02       		.uleb128 0x2
 5416 12d0 74       		.byte	0x74
 5417 12d1 00       		.sleb128 0
 5418 12d2 00       		.byte	0
 5419 12d3 25       		.uleb128 0x25
 5420 12d4 3A000000 		.4byte	.LVL143
 5421 12d8 4B080000 		.4byte	0x84b
 5422 12dc F1120000 		.4byte	0x12f1
 5423 12e0 22       		.uleb128 0x22
 5424 12e1 01       		.uleb128 0x1
 5425 12e2 51       		.byte	0x51
 5426 12e3 05       		.uleb128 0x5
 5427 12e4 03       		.byte	0x3
 5428 12e5 F8010000 		.4byte	.LC31
 5429 12e9 22       		.uleb128 0x22
 5430 12ea 01       		.uleb128 0x1
 5431 12eb 50       		.byte	0x50
 5432 12ec 03       		.uleb128 0x3
 5433 12ed F3       		.byte	0xf3
 5434 12ee 01       		.uleb128 0x1
 5435 12ef 50       		.byte	0x50
 5436 12f0 00       		.byte	0
 5437 12f1 24       		.uleb128 0x24
 5438 12f2 44000000 		.4byte	.LVL145
 5439 12f6 3F1A0000 		.4byte	0x1a3f
 5440 12fa 0E130000 		.4byte	0x130e
 5441 12fe 22       		.uleb128 0x22
 5442 12ff 01       		.uleb128 0x1
 5443 1300 51       		.byte	0x51
 5444 1301 05       		.uleb128 0x5
 5445 1302 03       		.byte	0x3
 5446 1303 60010000 		.4byte	.LC22
 5447 1307 22       		.uleb128 0x22
 5448 1308 01       		.uleb128 0x1
 5449 1309 50       		.byte	0x50
 5450 130a 02       		.uleb128 0x2
 5451 130b 76       		.byte	0x76
 5452 130c 00       		.sleb128 0
 5453 130d 00       		.byte	0
 5454 130e 24       		.uleb128 0x24
 5455 130f 50000000 		.4byte	.LVL146
ARM GAS  C:\Users\danit\AppData\Local\Temp\ccBFeYtw.s 			page 99


 5456 1313 3F1A0000 		.4byte	0x1a3f
 5457 1317 2B130000 		.4byte	0x132b
 5458 131b 22       		.uleb128 0x22
 5459 131c 01       		.uleb128 0x1
 5460 131d 51       		.byte	0x51
 5461 131e 05       		.uleb128 0x5
 5462 131f 03       		.byte	0x3
 5463 1320 80010000 		.4byte	.LC24
 5464 1324 22       		.uleb128 0x22
 5465 1325 01       		.uleb128 0x1
 5466 1326 50       		.byte	0x50
 5467 1327 02       		.uleb128 0x2
 5468 1328 76       		.byte	0x76
 5469 1329 00       		.sleb128 0
 5470 132a 00       		.byte	0
 5471 132b 25       		.uleb128 0x25
 5472 132c 64000000 		.4byte	.LVL148
 5473 1330 4B080000 		.4byte	0x84b
 5474 1334 49130000 		.4byte	0x1349
 5475 1338 22       		.uleb128 0x22
 5476 1339 01       		.uleb128 0x1
 5477 133a 51       		.byte	0x51
 5478 133b 05       		.uleb128 0x5
 5479 133c 03       		.byte	0x3
 5480 133d 84010000 		.4byte	.LC25
 5481 1341 22       		.uleb128 0x22
 5482 1342 01       		.uleb128 0x1
 5483 1343 50       		.byte	0x50
 5484 1344 03       		.uleb128 0x3
 5485 1345 F3       		.byte	0xf3
 5486 1346 01       		.uleb128 0x1
 5487 1347 50       		.byte	0x50
 5488 1348 00       		.byte	0
 5489 1349 3B       		.uleb128 0x3b
 5490 134a 78000000 		.4byte	.LVL150
 5491 134e 4B080000 		.4byte	0x84b
 5492 1352 22       		.uleb128 0x22
 5493 1353 01       		.uleb128 0x1
 5494 1354 51       		.byte	0x51
 5495 1355 05       		.uleb128 0x5
 5496 1356 03       		.byte	0x3
 5497 1357 64010000 		.4byte	.LC23
 5498 135b 22       		.uleb128 0x22
 5499 135c 01       		.uleb128 0x1
 5500 135d 50       		.byte	0x50
 5501 135e 03       		.uleb128 0x3
 5502 135f F3       		.byte	0xf3
 5503 1360 01       		.uleb128 0x1
 5504 1361 50       		.byte	0x50
 5505 1362 00       		.byte	0
 5506 1363 00       		.byte	0
 5507 1364 36       		.uleb128 0x36
 5508 1365 96080000 		.4byte	.LASF151
 5509 1369 02       		.byte	0x2
 5510 136a 1402     		.2byte	0x214
 5511 136c 00000000 		.4byte	.LFB140
 5512 1370 CC000000 		.4byte	.LFE140-.LFB140
ARM GAS  C:\Users\danit\AppData\Local\Temp\ccBFeYtw.s 			page 100


 5513 1374 01       		.uleb128 0x1
 5514 1375 9C       		.byte	0x9c
 5515 1376 16150000 		.4byte	0x1516
 5516 137a 2C       		.uleb128 0x2c
 5517 137b 63687000 		.ascii	"chp\000"
 5518 137f 02       		.byte	0x2
 5519 1380 1402     		.2byte	0x214
 5520 1382 AA080000 		.4byte	0x8aa
 5521 1386 02050000 		.4byte	.LLST23
 5522 138a 2F       		.uleb128 0x2f
 5523 138b 57090000 		.4byte	.LASF145
 5524 138f 02       		.byte	0x2
 5525 1390 1402     		.2byte	0x214
 5526 1392 2C000000 		.4byte	0x2c
 5527 1396 A2050000 		.4byte	.LLST24
 5528 139a 2F       		.uleb128 0x2f
 5529 139b DC090000 		.4byte	.LASF146
 5530 139f 02       		.byte	0x2
 5531 13a0 1402     		.2byte	0x214
 5532 13a2 760F0000 		.4byte	0xf76
 5533 13a6 00060000 		.4byte	.LLST25
 5534 13aa 38       		.uleb128 0x38
 5535 13ab 7D040000 		.4byte	.LASF150
 5536 13af 02       		.byte	0x2
 5537 13b0 2A02     		.2byte	0x22a
 5538 13b2 26000000 		.4byte	.L192
 5539 13b6 24       		.uleb128 0x24
 5540 13b7 0E000000 		.4byte	.LVL153
 5541 13bb 4B080000 		.4byte	0x84b
 5542 13bf D3130000 		.4byte	0x13d3
 5543 13c3 22       		.uleb128 0x22
 5544 13c4 01       		.uleb128 0x1
 5545 13c5 51       		.byte	0x51
 5546 13c6 05       		.uleb128 0x5
 5547 13c7 03       		.byte	0x3
 5548 13c8 00000000 		.4byte	.LC0
 5549 13cc 22       		.uleb128 0x22
 5550 13cd 01       		.uleb128 0x1
 5551 13ce 50       		.byte	0x50
 5552 13cf 02       		.uleb128 0x2
 5553 13d0 74       		.byte	0x74
 5554 13d1 00       		.sleb128 0
 5555 13d2 00       		.byte	0
 5556 13d3 24       		.uleb128 0x24
 5557 13d4 16000000 		.4byte	.LVL154
 5558 13d8 4B080000 		.4byte	0x84b
 5559 13dc F0130000 		.4byte	0x13f0
 5560 13e0 22       		.uleb128 0x22
 5561 13e1 01       		.uleb128 0x1
 5562 13e2 51       		.byte	0x51
 5563 13e3 05       		.uleb128 0x5
 5564 13e4 03       		.byte	0x3
 5565 13e5 04000000 		.4byte	.LC1
 5566 13e9 22       		.uleb128 0x22
 5567 13ea 01       		.uleb128 0x1
 5568 13eb 50       		.byte	0x50
 5569 13ec 02       		.uleb128 0x2
ARM GAS  C:\Users\danit\AppData\Local\Temp\ccBFeYtw.s 			page 101


 5570 13ed 74       		.byte	0x74
 5571 13ee 00       		.sleb128 0
 5572 13ef 00       		.byte	0
 5573 13f0 24       		.uleb128 0x24
 5574 13f1 22000000 		.4byte	.LVL155
 5575 13f5 4B080000 		.4byte	0x84b
 5576 13f9 17140000 		.4byte	0x1417
 5577 13fd 22       		.uleb128 0x22
 5578 13fe 01       		.uleb128 0x1
 5579 13ff 53       		.byte	0x53
 5580 1400 01       		.uleb128 0x1
 5581 1401 30       		.byte	0x30
 5582 1402 22       		.uleb128 0x22
 5583 1403 01       		.uleb128 0x1
 5584 1404 52       		.byte	0x52
 5585 1405 01       		.uleb128 0x1
 5586 1406 30       		.byte	0x30
 5587 1407 22       		.uleb128 0x22
 5588 1408 01       		.uleb128 0x1
 5589 1409 51       		.byte	0x51
 5590 140a 05       		.uleb128 0x5
 5591 140b 03       		.byte	0x3
 5592 140c 0C000000 		.4byte	.LC2
 5593 1410 22       		.uleb128 0x22
 5594 1411 01       		.uleb128 0x1
 5595 1412 50       		.byte	0x50
 5596 1413 02       		.uleb128 0x2
 5597 1414 74       		.byte	0x74
 5598 1415 00       		.sleb128 0
 5599 1416 00       		.byte	0
 5600 1417 24       		.uleb128 0x24
 5601 1418 34000000 		.4byte	.LVL158
 5602 141c 4B080000 		.4byte	0x84b
 5603 1420 34140000 		.4byte	0x1434
 5604 1424 22       		.uleb128 0x22
 5605 1425 01       		.uleb128 0x1
 5606 1426 51       		.byte	0x51
 5607 1427 05       		.uleb128 0x5
 5608 1428 03       		.byte	0x3
 5609 1429 80020000 		.4byte	.LC36
 5610 142d 22       		.uleb128 0x22
 5611 142e 01       		.uleb128 0x1
 5612 142f 50       		.byte	0x50
 5613 1430 02       		.uleb128 0x2
 5614 1431 74       		.byte	0x74
 5615 1432 00       		.sleb128 0
 5616 1433 00       		.byte	0
 5617 1434 24       		.uleb128 0x24
 5618 1435 3C000000 		.4byte	.LVL159
 5619 1439 4B080000 		.4byte	0x84b
 5620 143d 51140000 		.4byte	0x1451
 5621 1441 22       		.uleb128 0x22
 5622 1442 01       		.uleb128 0x1
 5623 1443 51       		.byte	0x51
 5624 1444 05       		.uleb128 0x5
 5625 1445 03       		.byte	0x3
 5626 1446 9C020000 		.4byte	.LC37
ARM GAS  C:\Users\danit\AppData\Local\Temp\ccBFeYtw.s 			page 102


 5627 144a 22       		.uleb128 0x22
 5628 144b 01       		.uleb128 0x1
 5629 144c 50       		.byte	0x50
 5630 144d 02       		.uleb128 0x2
 5631 144e 74       		.byte	0x74
 5632 144f 00       		.sleb128 0
 5633 1450 00       		.byte	0
 5634 1451 25       		.uleb128 0x25
 5635 1452 48000000 		.4byte	.LVL161
 5636 1456 4B080000 		.4byte	0x84b
 5637 145a 6F140000 		.4byte	0x146f
 5638 145e 22       		.uleb128 0x22
 5639 145f 01       		.uleb128 0x1
 5640 1460 51       		.byte	0x51
 5641 1461 05       		.uleb128 0x5
 5642 1462 03       		.byte	0x3
 5643 1463 BC020000 		.4byte	.LC38
 5644 1467 22       		.uleb128 0x22
 5645 1468 01       		.uleb128 0x1
 5646 1469 50       		.byte	0x50
 5647 146a 03       		.uleb128 0x3
 5648 146b F3       		.byte	0xf3
 5649 146c 01       		.uleb128 0x1
 5650 146d 50       		.byte	0x50
 5651 146e 00       		.byte	0
 5652 146f 24       		.uleb128 0x24
 5653 1470 4E000000 		.4byte	.LVL162
 5654 1474 4B080000 		.4byte	0x84b
 5655 1478 86140000 		.4byte	0x1486
 5656 147c 22       		.uleb128 0x22
 5657 147d 01       		.uleb128 0x1
 5658 147e 51       		.byte	0x51
 5659 147f 05       		.uleb128 0x5
 5660 1480 03       		.byte	0x3
 5661 1481 64020000 		.4byte	.LC35
 5662 1485 00       		.byte	0
 5663 1486 24       		.uleb128 0x24
 5664 1487 5A000000 		.4byte	.LVL165
 5665 148b 3F1A0000 		.4byte	0x1a3f
 5666 148f A3140000 		.4byte	0x14a3
 5667 1493 22       		.uleb128 0x22
 5668 1494 01       		.uleb128 0x1
 5669 1495 51       		.byte	0x51
 5670 1496 05       		.uleb128 0x5
 5671 1497 03       		.byte	0x3
 5672 1498 60010000 		.4byte	.LC22
 5673 149c 22       		.uleb128 0x22
 5674 149d 01       		.uleb128 0x1
 5675 149e 50       		.byte	0x50
 5676 149f 02       		.uleb128 0x2
 5677 14a0 76       		.byte	0x76
 5678 14a1 00       		.sleb128 0
 5679 14a2 00       		.byte	0
 5680 14a3 24       		.uleb128 0x24
 5681 14a4 64000000 		.4byte	.LVL166
 5682 14a8 3F1A0000 		.4byte	0x1a3f
 5683 14ac C0140000 		.4byte	0x14c0
ARM GAS  C:\Users\danit\AppData\Local\Temp\ccBFeYtw.s 			page 103


 5684 14b0 22       		.uleb128 0x22
 5685 14b1 01       		.uleb128 0x1
 5686 14b2 51       		.byte	0x51
 5687 14b3 05       		.uleb128 0x5
 5688 14b4 03       		.byte	0x3
 5689 14b5 80010000 		.4byte	.LC24
 5690 14b9 22       		.uleb128 0x22
 5691 14ba 01       		.uleb128 0x1
 5692 14bb 50       		.byte	0x50
 5693 14bc 02       		.uleb128 0x2
 5694 14bd 76       		.byte	0x76
 5695 14be 00       		.sleb128 0
 5696 14bf 00       		.byte	0
 5697 14c0 25       		.uleb128 0x25
 5698 14c1 78000000 		.4byte	.LVL168
 5699 14c5 4B080000 		.4byte	0x84b
 5700 14c9 DE140000 		.4byte	0x14de
 5701 14cd 22       		.uleb128 0x22
 5702 14ce 01       		.uleb128 0x1
 5703 14cf 51       		.byte	0x51
 5704 14d0 05       		.uleb128 0x5
 5705 14d1 03       		.byte	0x3
 5706 14d2 48020000 		.4byte	.LC34
 5707 14d6 22       		.uleb128 0x22
 5708 14d7 01       		.uleb128 0x1
 5709 14d8 50       		.byte	0x50
 5710 14d9 03       		.uleb128 0x3
 5711 14da F3       		.byte	0xf3
 5712 14db 01       		.uleb128 0x1
 5713 14dc 50       		.byte	0x50
 5714 14dd 00       		.byte	0
 5715 14de 24       		.uleb128 0x24
 5716 14df 84000000 		.4byte	.LVL169
 5717 14e3 4B080000 		.4byte	0x84b
 5718 14e7 FB140000 		.4byte	0x14fb
 5719 14eb 22       		.uleb128 0x22
 5720 14ec 01       		.uleb128 0x1
 5721 14ed 51       		.byte	0x51
 5722 14ee 05       		.uleb128 0x5
 5723 14ef 03       		.byte	0x3
 5724 14f0 0C020000 		.4byte	.LC32
 5725 14f4 22       		.uleb128 0x22
 5726 14f5 01       		.uleb128 0x1
 5727 14f6 50       		.byte	0x50
 5728 14f7 02       		.uleb128 0x2
 5729 14f8 74       		.byte	0x74
 5730 14f9 00       		.sleb128 0
 5731 14fa 00       		.byte	0
 5732 14fb 3B       		.uleb128 0x3b
 5733 14fc 94000000 		.4byte	.LVL171
 5734 1500 4B080000 		.4byte	0x84b
 5735 1504 22       		.uleb128 0x22
 5736 1505 01       		.uleb128 0x1
 5737 1506 51       		.byte	0x51
 5738 1507 05       		.uleb128 0x5
 5739 1508 03       		.byte	0x3
 5740 1509 28020000 		.4byte	.LC33
ARM GAS  C:\Users\danit\AppData\Local\Temp\ccBFeYtw.s 			page 104


 5741 150d 22       		.uleb128 0x22
 5742 150e 01       		.uleb128 0x1
 5743 150f 50       		.byte	0x50
 5744 1510 03       		.uleb128 0x3
 5745 1511 F3       		.byte	0xf3
 5746 1512 01       		.uleb128 0x1
 5747 1513 50       		.byte	0x50
 5748 1514 00       		.byte	0
 5749 1515 00       		.byte	0
 5750 1516 36       		.uleb128 0x36
 5751 1517 D0050000 		.4byte	.LASF152
 5752 151b 02       		.byte	0x2
 5753 151c 3602     		.2byte	0x236
 5754 151e 00000000 		.4byte	.LFB141
 5755 1522 9C000000 		.4byte	.LFE141-.LFB141
 5756 1526 01       		.uleb128 0x1
 5757 1527 9C       		.byte	0x9c
 5758 1528 97160000 		.4byte	0x1697
 5759 152c 2C       		.uleb128 0x2c
 5760 152d 63687000 		.ascii	"chp\000"
 5761 1531 02       		.byte	0x2
 5762 1532 3602     		.2byte	0x236
 5763 1534 AA080000 		.4byte	0x8aa
 5764 1538 45060000 		.4byte	.LLST26
 5765 153c 2F       		.uleb128 0x2f
 5766 153d 57090000 		.4byte	.LASF145
 5767 1541 02       		.byte	0x2
 5768 1542 3602     		.2byte	0x236
 5769 1544 2C000000 		.4byte	0x2c
 5770 1548 C4060000 		.4byte	.LLST27
 5771 154c 2F       		.uleb128 0x2f
 5772 154d DC090000 		.4byte	.LASF146
 5773 1551 02       		.byte	0x2
 5774 1552 3602     		.2byte	0x236
 5775 1554 760F0000 		.4byte	0xf76
 5776 1558 22070000 		.4byte	.LLST28
 5777 155c 38       		.uleb128 0x38
 5778 155d 7D040000 		.4byte	.LASF150
 5779 1561 02       		.byte	0x2
 5780 1562 4D02     		.2byte	0x24d
 5781 1564 26000000 		.4byte	.L203
 5782 1568 39       		.uleb128 0x39
 5783 1569 42080000 		.4byte	0x842
 5784 156d 52000000 		.4byte	.LBB38
 5785 1571 B0000000 		.4byte	.Ldebug_ranges0+0xb0
 5786 1575 02       		.byte	0x2
 5787 1576 4402     		.2byte	0x244
 5788 1578 39       		.uleb128 0x39
 5789 1579 39080000 		.4byte	0x839
 5790 157d 62000000 		.4byte	.LBB42
 5791 1581 C8000000 		.4byte	.Ldebug_ranges0+0xc8
 5792 1585 02       		.byte	0x2
 5793 1586 3F02     		.2byte	0x23f
 5794 1588 24       		.uleb128 0x24
 5795 1589 0E000000 		.4byte	.LVL174
 5796 158d 4B080000 		.4byte	0x84b
 5797 1591 A5150000 		.4byte	0x15a5
ARM GAS  C:\Users\danit\AppData\Local\Temp\ccBFeYtw.s 			page 105


 5798 1595 22       		.uleb128 0x22
 5799 1596 01       		.uleb128 0x1
 5800 1597 51       		.byte	0x51
 5801 1598 05       		.uleb128 0x5
 5802 1599 03       		.byte	0x3
 5803 159a 00000000 		.4byte	.LC0
 5804 159e 22       		.uleb128 0x22
 5805 159f 01       		.uleb128 0x1
 5806 15a0 50       		.byte	0x50
 5807 15a1 02       		.uleb128 0x2
 5808 15a2 74       		.byte	0x74
 5809 15a3 00       		.sleb128 0
 5810 15a4 00       		.byte	0
 5811 15a5 24       		.uleb128 0x24
 5812 15a6 16000000 		.4byte	.LVL175
 5813 15aa 4B080000 		.4byte	0x84b
 5814 15ae C2150000 		.4byte	0x15c2
 5815 15b2 22       		.uleb128 0x22
 5816 15b3 01       		.uleb128 0x1
 5817 15b4 51       		.byte	0x51
 5818 15b5 05       		.uleb128 0x5
 5819 15b6 03       		.byte	0x3
 5820 15b7 04000000 		.4byte	.LC1
 5821 15bb 22       		.uleb128 0x22
 5822 15bc 01       		.uleb128 0x1
 5823 15bd 50       		.byte	0x50
 5824 15be 02       		.uleb128 0x2
 5825 15bf 74       		.byte	0x74
 5826 15c0 00       		.sleb128 0
 5827 15c1 00       		.byte	0
 5828 15c2 24       		.uleb128 0x24
 5829 15c3 22000000 		.4byte	.LVL176
 5830 15c7 4B080000 		.4byte	0x84b
 5831 15cb E9150000 		.4byte	0x15e9
 5832 15cf 22       		.uleb128 0x22
 5833 15d0 01       		.uleb128 0x1
 5834 15d1 53       		.byte	0x53
 5835 15d2 01       		.uleb128 0x1
 5836 15d3 30       		.byte	0x30
 5837 15d4 22       		.uleb128 0x22
 5838 15d5 01       		.uleb128 0x1
 5839 15d6 52       		.byte	0x52
 5840 15d7 01       		.uleb128 0x1
 5841 15d8 30       		.byte	0x30
 5842 15d9 22       		.uleb128 0x22
 5843 15da 01       		.uleb128 0x1
 5844 15db 51       		.byte	0x51
 5845 15dc 05       		.uleb128 0x5
 5846 15dd 03       		.byte	0x3
 5847 15de 0C000000 		.4byte	.LC2
 5848 15e2 22       		.uleb128 0x22
 5849 15e3 01       		.uleb128 0x1
 5850 15e4 50       		.byte	0x50
 5851 15e5 02       		.uleb128 0x2
 5852 15e6 74       		.byte	0x74
 5853 15e7 00       		.sleb128 0
 5854 15e8 00       		.byte	0
ARM GAS  C:\Users\danit\AppData\Local\Temp\ccBFeYtw.s 			page 106


 5855 15e9 24       		.uleb128 0x24
 5856 15ea 2E000000 		.4byte	.LVL178
 5857 15ee 4B080000 		.4byte	0x84b
 5858 15f2 06160000 		.4byte	0x1606
 5859 15f6 22       		.uleb128 0x22
 5860 15f7 01       		.uleb128 0x1
 5861 15f8 51       		.byte	0x51
 5862 15f9 05       		.uleb128 0x5
 5863 15fa 03       		.byte	0x3
 5864 15fb 20030000 		.4byte	.LC41
 5865 15ff 22       		.uleb128 0x22
 5866 1600 01       		.uleb128 0x1
 5867 1601 50       		.byte	0x50
 5868 1602 02       		.uleb128 0x2
 5869 1603 74       		.byte	0x74
 5870 1604 00       		.sleb128 0
 5871 1605 00       		.byte	0
 5872 1606 25       		.uleb128 0x25
 5873 1607 3A000000 		.4byte	.LVL180
 5874 160b 4B080000 		.4byte	0x84b
 5875 160f 24160000 		.4byte	0x1624
 5876 1613 22       		.uleb128 0x22
 5877 1614 01       		.uleb128 0x1
 5878 1615 51       		.byte	0x51
 5879 1616 05       		.uleb128 0x5
 5880 1617 03       		.byte	0x3
 5881 1618 38030000 		.4byte	.LC42
 5882 161c 22       		.uleb128 0x22
 5883 161d 01       		.uleb128 0x1
 5884 161e 50       		.byte	0x50
 5885 161f 03       		.uleb128 0x3
 5886 1620 F3       		.byte	0xf3
 5887 1621 01       		.uleb128 0x1
 5888 1622 50       		.byte	0x50
 5889 1623 00       		.byte	0
 5890 1624 24       		.uleb128 0x24
 5891 1625 44000000 		.4byte	.LVL182
 5892 1629 3F1A0000 		.4byte	0x1a3f
 5893 162d 41160000 		.4byte	0x1641
 5894 1631 22       		.uleb128 0x22
 5895 1632 01       		.uleb128 0x1
 5896 1633 51       		.byte	0x51
 5897 1634 05       		.uleb128 0x5
 5898 1635 03       		.byte	0x3
 5899 1636 60010000 		.4byte	.LC22
 5900 163a 22       		.uleb128 0x22
 5901 163b 01       		.uleb128 0x1
 5902 163c 50       		.byte	0x50
 5903 163d 02       		.uleb128 0x2
 5904 163e 76       		.byte	0x76
 5905 163f 00       		.sleb128 0
 5906 1640 00       		.byte	0
 5907 1641 24       		.uleb128 0x24
 5908 1642 4E000000 		.4byte	.LVL183
 5909 1646 3F1A0000 		.4byte	0x1a3f
 5910 164a 5E160000 		.4byte	0x165e
 5911 164e 22       		.uleb128 0x22
ARM GAS  C:\Users\danit\AppData\Local\Temp\ccBFeYtw.s 			page 107


 5912 164f 01       		.uleb128 0x1
 5913 1650 51       		.byte	0x51
 5914 1651 05       		.uleb128 0x5
 5915 1652 03       		.byte	0x3
 5916 1653 80010000 		.4byte	.LC24
 5917 1657 22       		.uleb128 0x22
 5918 1658 01       		.uleb128 0x1
 5919 1659 50       		.byte	0x50
 5920 165a 02       		.uleb128 0x2
 5921 165b 76       		.byte	0x76
 5922 165c 00       		.sleb128 0
 5923 165d 00       		.byte	0
 5924 165e 25       		.uleb128 0x25
 5925 165f 62000000 		.4byte	.LVL185
 5926 1663 4B080000 		.4byte	0x84b
 5927 1667 7C160000 		.4byte	0x167c
 5928 166b 22       		.uleb128 0x22
 5929 166c 01       		.uleb128 0x1
 5930 166d 51       		.byte	0x51
 5931 166e 05       		.uleb128 0x5
 5932 166f 03       		.byte	0x3
 5933 1670 FC020000 		.4byte	.LC40
 5934 1674 22       		.uleb128 0x22
 5935 1675 01       		.uleb128 0x1
 5936 1676 50       		.byte	0x50
 5937 1677 03       		.uleb128 0x3
 5938 1678 F3       		.byte	0xf3
 5939 1679 01       		.uleb128 0x1
 5940 167a 50       		.byte	0x50
 5941 167b 00       		.byte	0
 5942 167c 3B       		.uleb128 0x3b
 5943 167d 72000000 		.4byte	.LVL187
 5944 1681 4B080000 		.4byte	0x84b
 5945 1685 22       		.uleb128 0x22
 5946 1686 01       		.uleb128 0x1
 5947 1687 51       		.byte	0x51
 5948 1688 05       		.uleb128 0x5
 5949 1689 03       		.byte	0x3
 5950 168a DC020000 		.4byte	.LC39
 5951 168e 22       		.uleb128 0x22
 5952 168f 01       		.uleb128 0x1
 5953 1690 50       		.byte	0x50
 5954 1691 03       		.uleb128 0x3
 5955 1692 F3       		.byte	0xf3
 5956 1693 01       		.uleb128 0x1
 5957 1694 50       		.byte	0x50
 5958 1695 00       		.byte	0
 5959 1696 00       		.byte	0
 5960 1697 0F       		.uleb128 0xf
 5961 1698 4A010000 		.4byte	0x14a
 5962 169c A7160000 		.4byte	0x16a7
 5963 16a0 10       		.uleb128 0x10
 5964 16a1 BF000000 		.4byte	0xbf
 5965 16a5 59       		.byte	0x59
 5966 16a6 00       		.byte	0
 5967 16a7 3C       		.uleb128 0x3c
 5968 16a8 59060000 		.4byte	.LASF172
ARM GAS  C:\Users\danit\AppData\Local\Temp\ccBFeYtw.s 			page 108


 5969 16ac 12       		.byte	0x12
 5970 16ad 1C       		.byte	0x1c
 5971 16ae 97160000 		.4byte	0x1697
 5972 16b2 0F       		.uleb128 0xf
 5973 16b3 9A060000 		.4byte	0x69a
 5974 16b7 C2160000 		.4byte	0x16c2
 5975 16bb 10       		.uleb128 0x10
 5976 16bc BF000000 		.4byte	0xbf
 5977 16c0 0A       		.byte	0xa
 5978 16c1 00       		.byte	0
 5979 16c2 3D       		.uleb128 0x3d
 5980 16c3 5A030000 		.4byte	.LASF153
 5981 16c7 0F       		.byte	0xf
 5982 16c8 23       		.byte	0x23
 5983 16c9 B2160000 		.4byte	0x16b2
 5984 16cd 42       		.byte	0x42
 5985 16ce 10       		.byte	0x10
 5986 16cf 00       		.byte	0
 5987 16d0 10       		.byte	0x10
 5988 16d1 00       		.byte	0
 5989 16d2 04       		.byte	0x4
 5990 16d3 00       		.byte	0
 5991 16d4 11       		.byte	0x11
 5992 16d5 00       		.byte	0
 5993 16d6 14       		.byte	0x14
 5994 16d7 00       		.byte	0
 5995 16d8 04       		.byte	0x4
 5996 16d9 01       		.byte	0x1
 5997 16da 12       		.byte	0x12
 5998 16db 00       		.byte	0
 5999 16dc 18       		.byte	0x18
 6000 16dd 00       		.byte	0
 6001 16de 04       		.byte	0x4
 6002 16df 02       		.byte	0x2
 6003 16e0 13       		.byte	0x13
 6004 16e1 00       		.byte	0
 6005 16e2 1C       		.byte	0x1c
 6006 16e3 00       		.byte	0
 6007 16e4 04       		.byte	0x4
 6008 16e5 03       		.byte	0x3
 6009 16e6 14       		.byte	0x14
 6010 16e7 00       		.byte	0
 6011 16e8 20       		.byte	0x20
 6012 16e9 00       		.byte	0
 6013 16ea 04       		.byte	0x4
 6014 16eb 04       		.byte	0x4
 6015 16ec 15       		.byte	0x15
 6016 16ed 00       		.byte	0
 6017 16ee 24       		.byte	0x24
 6018 16ef 00       		.byte	0
 6019 16f0 04       		.byte	0x4
 6020 16f1 05       		.byte	0x5
 6021 16f2 16       		.byte	0x16
 6022 16f3 00       		.byte	0
 6023 16f4 28       		.byte	0x28
 6024 16f5 00       		.byte	0
 6025 16f6 04       		.byte	0x4
ARM GAS  C:\Users\danit\AppData\Local\Temp\ccBFeYtw.s 			page 109


 6026 16f7 06       		.byte	0x6
 6027 16f8 17       		.byte	0x17
 6028 16f9 00       		.byte	0
 6029 16fa 3C       		.byte	0x3c
 6030 16fb 00       		.byte	0
 6031 16fc 04       		.byte	0x4
 6032 16fd 07       		.byte	0x7
 6033 16fe 18       		.byte	0x18
 6034 16ff 00       		.byte	0
 6035 1700 40       		.byte	0x40
 6036 1701 00       		.byte	0
 6037 1702 04       		.byte	0x4
 6038 1703 08       		.byte	0x8
 6039 1704 19       		.byte	0x19
 6040 1705 00       		.byte	0
 6041 1706 44       		.byte	0x44
 6042 1707 00       		.byte	0
 6043 1708 04       		.byte	0x4
 6044 1709 09       		.byte	0x9
 6045 170a FB       		.byte	0xfb
 6046 170b FF       		.byte	0xff
 6047 170c FB       		.byte	0xfb
 6048 170d FF       		.byte	0xff
 6049 170e 04       		.byte	0x4
 6050 170f 0A       		.byte	0xa
 6051 1710 20       		.uleb128 0x20
 6052 1711 4B5F5000 		.ascii	"K_P\000"
 6053 1715 02       		.byte	0x2
 6054 1716 23       		.byte	0x23
 6055 1717 EB000000 		.4byte	0xeb
 6056 171b 05       		.uleb128 0x5
 6057 171c 03       		.byte	0x3
 6058 171d 00000000 		.4byte	K_P
 6059 1721 20       		.uleb128 0x20
 6060 1722 4B5F4900 		.ascii	"K_I\000"
 6061 1726 02       		.byte	0x2
 6062 1727 24       		.byte	0x24
 6063 1728 EB000000 		.4byte	0xeb
 6064 172c 05       		.uleb128 0x5
 6065 172d 03       		.byte	0x3
 6066 172e 00000000 		.4byte	K_I
 6067 1732 20       		.uleb128 0x20
 6068 1733 4B5F4400 		.ascii	"K_D\000"
 6069 1737 02       		.byte	0x2
 6070 1738 25       		.byte	0x25
 6071 1739 EB000000 		.4byte	0xeb
 6072 173d 05       		.uleb128 0x5
 6073 173e 03       		.byte	0x3
 6074 173f 00000000 		.4byte	K_D
 6075 1743 3E       		.uleb128 0x3e
 6076 1744 90070000 		.4byte	.LASF154
 6077 1748 02       		.byte	0x2
 6078 1749 27       		.byte	0x27
 6079 174a 50020000 		.4byte	0x250
 6080 174e 40420F00 		.4byte	0xf4240
 6081 1752 3F       		.uleb128 0x3f
 6082 1753 2E040000 		.4byte	.LASF155
ARM GAS  C:\Users\danit\AppData\Local\Temp\ccBFeYtw.s 			page 110


 6083 1757 02       		.byte	0x2
 6084 1758 28       		.byte	0x28
 6085 1759 50020000 		.4byte	0x250
 6086 175d 00       		.byte	0
 6087 175e 3E       		.uleb128 0x3e
 6088 175f EA030000 		.4byte	.LASF156
 6089 1763 02       		.byte	0x2
 6090 1764 2A       		.byte	0x2a
 6091 1765 50020000 		.4byte	0x250
 6092 1769 40420F00 		.4byte	0xf4240
 6093 176d 3E       		.uleb128 0x3e
 6094 176e BD030000 		.4byte	.LASF157
 6095 1772 02       		.byte	0x2
 6096 1773 2B       		.byte	0x2b
 6097 1774 50020000 		.4byte	0x250
 6098 1778 40420F00 		.4byte	0xf4240
 6099 177c 3E       		.uleb128 0x3e
 6100 177d 7C000000 		.4byte	.LASF158
 6101 1781 02       		.byte	0x2
 6102 1782 2C       		.byte	0x2c
 6103 1783 50020000 		.4byte	0x250
 6104 1787 40420F00 		.4byte	0xf4240
 6105 178b 40       		.uleb128 0x40
 6106 178c 4D040000 		.4byte	.LASF159
 6107 1790 02       		.byte	0x2
 6108 1791 2E       		.byte	0x2e
 6109 1792 01010000 		.4byte	0x101
 6110 1796 05       		.uleb128 0x5
 6111 1797 03       		.byte	0x3
 6112 1798 00000000 		.4byte	brake_pwm
 6113 179c 40       		.uleb128 0x40
 6114 179d BE080000 		.4byte	.LASF160
 6115 17a1 02       		.byte	0x2
 6116 17a2 2F       		.byte	0x2f
 6117 17a3 22010000 		.4byte	0x122
 6118 17a7 05       		.uleb128 0x5
 6119 17a8 03       		.byte	0x3
 6120 17a9 00000000 		.4byte	regen_on
 6121 17ad 40       		.uleb128 0x40
 6122 17ae 6F010000 		.4byte	.LASF161
 6123 17b2 02       		.byte	0x2
 6124 17b3 31       		.byte	0x31
 6125 17b4 01010000 		.4byte	0x101
 6126 17b8 05       		.uleb128 0x5
 6127 17b9 03       		.byte	0x3
 6128 17ba 00000000 		.4byte	save_pwm
 6129 17be 20       		.uleb128 0x20
 6130 17bf 70776D00 		.ascii	"pwm\000"
 6131 17c3 02       		.byte	0x2
 6132 17c4 32       		.byte	0x32
 6133 17c5 01010000 		.4byte	0x101
 6134 17c9 05       		.uleb128 0x5
 6135 17ca 03       		.byte	0x3
 6136 17cb 00000000 		.4byte	pwm
 6137 17cf 40       		.uleb128 0x40
 6138 17d0 22040000 		.4byte	.LASF162
 6139 17d4 02       		.byte	0x2
ARM GAS  C:\Users\danit\AppData\Local\Temp\ccBFeYtw.s 			page 111


 6140 17d5 33       		.byte	0x33
 6141 17d6 25000000 		.4byte	0x25
 6142 17da 05       		.uleb128 0x5
 6143 17db 03       		.byte	0x3
 6144 17dc 00000000 		.4byte	p_tag
 6145 17e0 40       		.uleb128 0x40
 6146 17e1 F6090000 		.4byte	.LASF163
 6147 17e5 02       		.byte	0x2
 6148 17e6 34       		.byte	0x34
 6149 17e7 25000000 		.4byte	0x25
 6150 17eb 05       		.uleb128 0x5
 6151 17ec 03       		.byte	0x3
 6152 17ed 00000000 		.4byte	i_tag
 6153 17f1 40       		.uleb128 0x40
 6154 17f2 80080000 		.4byte	.LASF164
 6155 17f6 02       		.byte	0x2
 6156 17f7 35       		.byte	0x35
 6157 17f8 25000000 		.4byte	0x25
 6158 17fc 05       		.uleb128 0x5
 6159 17fd 03       		.byte	0x3
 6160 17fe 00000000 		.4byte	d_tag
 6161 1802 40       		.uleb128 0x40
 6162 1803 FC090000 		.4byte	.LASF165
 6163 1807 02       		.byte	0x2
 6164 1808 36       		.byte	0x36
 6165 1809 01010000 		.4byte	0x101
 6166 180d 05       		.uleb128 0x5
 6167 180e 03       		.byte	0x3
 6168 180f 00000000 		.4byte	result
 6169 1813 40       		.uleb128 0x40
 6170 1814 D7080000 		.4byte	.LASF166
 6171 1818 02       		.byte	0x2
 6172 1819 37       		.byte	0x37
 6173 181a 25000000 		.4byte	0x25
 6174 181e 05       		.uleb128 0x5
 6175 181f 03       		.byte	0x3
 6176 1820 00000000 		.4byte	eelozo
 6177 1824 40       		.uleb128 0x40
 6178 1825 28040000 		.4byte	.LASF167
 6179 1829 02       		.byte	0x2
 6180 182a 38       		.byte	0x38
 6181 182b 25000000 		.4byte	0x25
 6182 182f 05       		.uleb128 0x5
 6183 1830 03       		.byte	0x3
 6184 1831 00000000 		.4byte	e_tag
 6185 1835 40       		.uleb128 0x40
 6186 1836 D6020000 		.4byte	.LASF168
 6187 183a 02       		.byte	0x2
 6188 183b 39       		.byte	0x39
 6189 183c F6000000 		.4byte	0xf6
 6190 1840 05       		.uleb128 0x5
 6191 1841 03       		.byte	0x3
 6192 1842 00000000 		.4byte	cruise_on
 6193 1846 40       		.uleb128 0x40
 6194 1847 83090000 		.4byte	.LASF169
 6195 184b 02       		.byte	0x2
 6196 184c 3A       		.byte	0x3a
ARM GAS  C:\Users\danit\AppData\Local\Temp\ccBFeYtw.s 			page 112


 6197 184d 22010000 		.4byte	0x122
 6198 1851 05       		.uleb128 0x5
 6199 1852 03       		.byte	0x3
 6200 1853 00000000 		.4byte	cruise_indicator
 6201 1857 40       		.uleb128 0x40
 6202 1858 73020000 		.4byte	.LASF170
 6203 185c 02       		.byte	0x2
 6204 185d 3B       		.byte	0x3b
 6205 185e 0C010000 		.4byte	0x10c
 6206 1862 05       		.uleb128 0x5
 6207 1863 03       		.byte	0x3
 6208 1864 00000000 		.4byte	cruise_indicator_index
 6209 1868 40       		.uleb128 0x40
 6210 1869 59080000 		.4byte	.LASF171
 6211 186d 02       		.byte	0x2
 6212 186e 3D       		.byte	0x3d
 6213 186f F6000000 		.4byte	0xf6
 6214 1873 05       		.uleb128 0x5
 6215 1874 03       		.byte	0x3
 6216 1875 00000000 		.4byte	cruise_disable_period
 6217 1879 3C       		.uleb128 0x3c
 6218 187a E0050000 		.4byte	.LASF173
 6219 187e 02       		.byte	0x2
 6220 187f 3E       		.byte	0x3e
 6221 1880 84180000 		.4byte	0x1884
 6222 1884 07       		.uleb128 0x7
 6223 1885 22010000 		.4byte	0x122
 6224 1889 20       		.uleb128 0x20
 6225 188a 73657400 		.ascii	"set\000"
 6226 188e 02       		.byte	0x2
 6227 188f 40       		.byte	0x40
 6228 1890 EB000000 		.4byte	0xeb
 6229 1894 05       		.uleb128 0x5
 6230 1895 03       		.byte	0x3
 6231 1896 00000000 		.4byte	set
 6232 189a 40       		.uleb128 0x40
 6233 189b 7E060000 		.4byte	.LASF174
 6234 189f 02       		.byte	0x2
 6235 18a0 41       		.byte	0x41
 6236 18a1 EB000000 		.4byte	0xeb
 6237 18a5 05       		.uleb128 0x5
 6238 18a6 03       		.byte	0x3
 6239 18a7 00000000 		.4byte	old_set
 6240 18ab 40       		.uleb128 0x40
 6241 18ac 0C000000 		.4byte	.LASF175
 6242 18b0 02       		.byte	0x2
 6243 18b1 42       		.byte	0x42
 6244 18b2 0C010000 		.4byte	0x10c
 6245 18b6 05       		.uleb128 0x5
 6246 18b7 03       		.byte	0x3
 6247 18b8 00000000 		.4byte	eeprom_write_period
 6248 18bc 40       		.uleb128 0x40
 6249 18bd 0A080000 		.4byte	.LASF176
 6250 18c1 02       		.byte	0x2
 6251 18c2 43       		.byte	0x43
 6252 18c3 22010000 		.4byte	0x122
 6253 18c7 05       		.uleb128 0x5
ARM GAS  C:\Users\danit\AppData\Local\Temp\ccBFeYtw.s 			page 113


 6254 18c8 03       		.byte	0x3
 6255 18c9 00000000 		.4byte	eeprom_write
 6256 18cd 40       		.uleb128 0x40
 6257 18ce DE080000 		.4byte	.LASF177
 6258 18d2 02       		.byte	0x2
 6259 18d3 45       		.byte	0x45
 6260 18d4 22010000 		.4byte	0x122
 6261 18d8 05       		.uleb128 0x5
 6262 18d9 03       		.byte	0x3
 6263 18da 00000000 		.4byte	button_long_accel
 6264 18de 40       		.uleb128 0x40
 6265 18df 5C090000 		.4byte	.LASF178
 6266 18e3 02       		.byte	0x2
 6267 18e4 46       		.byte	0x46
 6268 18e5 22010000 		.4byte	0x122
 6269 18e9 05       		.uleb128 0x5
 6270 18ea 03       		.byte	0x3
 6271 18eb 00000000 		.4byte	button_long_decelerat
 6272 18ef 40       		.uleb128 0x40
 6273 18f0 BA020000 		.4byte	.LASF179
 6274 18f4 02       		.byte	0x2
 6275 18f5 4B       		.byte	0x4b
 6276 18f6 01010000 		.4byte	0x101
 6277 18fa 05       		.uleb128 0x5
 6278 18fb 03       		.byte	0x3
 6279 18fc 00000000 		.4byte	accel_limit
 6280 1900 40       		.uleb128 0x40
 6281 1901 F9030000 		.4byte	.LASF180
 6282 1905 02       		.byte	0x2
 6283 1906 4C       		.byte	0x4c
 6284 1907 F6000000 		.4byte	0xf6
 6285 190b 05       		.uleb128 0x5
 6286 190c 03       		.byte	0x3
 6287 190d 00000000 		.4byte	substract
 6288 1911 40       		.uleb128 0x40
 6289 1912 44060000 		.4byte	.LASF181
 6290 1916 02       		.byte	0x2
 6291 1917 4D       		.byte	0x4d
 6292 1918 2D010000 		.4byte	0x12d
 6293 191c 05       		.uleb128 0x5
 6294 191d 03       		.byte	0x3
 6295 191e 00000000 		.4byte	current_limit_status
 6296 1922 40       		.uleb128 0x40
 6297 1923 00030000 		.4byte	.LASF182
 6298 1927 02       		.byte	0x2
 6299 1928 50       		.byte	0x50
 6300 1929 01060000 		.4byte	0x601
 6301 192d 05       		.uleb128 0x5
 6302 192e 03       		.byte	0x3
 6303 192f 00000000 		.4byte	cruise_pwmcfg
 6304 1933 41       		.uleb128 0x41
 6305 1934 D6000000 		.4byte	.LASF183
 6306 1938 13       		.byte	0x13
 6307 1939 9806     		.2byte	0x698
 6308 193b 55020000 		.4byte	0x255
 6309 193f 41       		.uleb128 0x41
 6310 1940 30020000 		.4byte	.LASF184
ARM GAS  C:\Users\danit\AppData\Local\Temp\ccBFeYtw.s 			page 114


 6311 1944 0C       		.byte	0xc
 6312 1945 C301     		.2byte	0x1c3
 6313 1947 C9040000 		.4byte	0x4c9
 6314 194b 42       		.uleb128 0x42
 6315 194c AE030000 		.4byte	.LASF185
 6316 1950 14       		.byte	0x14
 6317 1951 0A       		.byte	0xa
 6318 1952 FB060000 		.4byte	0x6fb
 6319 1956 43       		.uleb128 0x43
 6320 1957 F8080000 		.4byte	.LASF186
 6321 195b 01       		.byte	0x1
 6322 195c 28       		.byte	0x28
 6323 195d 71190000 		.4byte	0x1971
 6324 1961 0A       		.uleb128 0xa
 6325 1962 AA080000 		.4byte	0x8aa
 6326 1966 0A       		.uleb128 0xa
 6327 1967 D5000000 		.4byte	0xd5
 6328 196b 0A       		.uleb128 0xa
 6329 196c 3A060000 		.4byte	0x63a
 6330 1970 00       		.byte	0
 6331 1971 44       		.uleb128 0x44
 6332 1972 EC060000 		.4byte	.LASF188
 6333 1976 15       		.byte	0x15
 6334 1977 0E       		.byte	0xe
 6335 1978 E0000000 		.4byte	0xe0
 6336 197c 8B190000 		.4byte	0x198b
 6337 1980 0A       		.uleb128 0xa
 6338 1981 45060000 		.4byte	0x645
 6339 1985 0A       		.uleb128 0xa
 6340 1986 8B190000 		.4byte	0x198b
 6341 198a 00       		.byte	0
 6342 198b 06       		.uleb128 0x6
 6343 198c 04       		.byte	0x4
 6344 198d 0C010000 		.4byte	0x10c
 6345 1991 43       		.uleb128 0x43
 6346 1992 07020000 		.4byte	.LASF187
 6347 1996 0B       		.byte	0xb
 6348 1997 F4       		.byte	0xf4
 6349 1998 A7190000 		.4byte	0x19a7
 6350 199c 0A       		.uleb128 0xa
 6351 199d 3F050000 		.4byte	0x53f
 6352 19a1 0A       		.uleb128 0xa
 6353 19a2 0D060000 		.4byte	0x60d
 6354 19a6 00       		.byte	0
 6355 19a7 44       		.uleb128 0x44
 6356 19a8 1F090000 		.4byte	.LASF189
 6357 19ac 12       		.byte	0x12
 6358 19ad 14       		.byte	0x14
 6359 19ae 0C010000 		.4byte	0x10c
 6360 19b2 BC190000 		.4byte	0x19bc
 6361 19b6 0A       		.uleb128 0xa
 6362 19b7 25000000 		.4byte	0x25
 6363 19bb 00       		.byte	0
 6364 19bc 45       		.uleb128 0x45
 6365 19bd 31070000 		.4byte	.LASF192
 6366 19c1 12       		.byte	0x12
 6367 19c2 11       		.byte	0x11
ARM GAS  C:\Users\danit\AppData\Local\Temp\ccBFeYtw.s 			page 115


 6368 19c3 0C010000 		.4byte	0x10c
 6369 19c7 44       		.uleb128 0x44
 6370 19c8 26010000 		.4byte	.LASF190
 6371 19cc 12       		.byte	0x12
 6372 19cd 13       		.byte	0x13
 6373 19ce 0C010000 		.4byte	0x10c
 6374 19d2 DC190000 		.4byte	0x19dc
 6375 19d6 0A       		.uleb128 0xa
 6376 19d7 25000000 		.4byte	0x25
 6377 19db 00       		.byte	0
 6378 19dc 31       		.uleb128 0x31
 6379 19dd 60010000 		.4byte	.LASF143
 6380 19e1 02       		.byte	0x2
 6381 19e2 D4       		.byte	0xd4
 6382 19e3 2C000000 		.4byte	0x2c
 6383 19e7 ED190000 		.4byte	0x19ed
 6384 19eb 1F       		.uleb128 0x1f
 6385 19ec 00       		.byte	0
 6386 19ed 43       		.uleb128 0x43
 6387 19ee 72090000 		.4byte	.LASF191
 6388 19f2 0B       		.byte	0xb
 6389 19f3 F7       		.byte	0xf7
 6390 19f4 081A0000 		.4byte	0x1a08
 6391 19f8 0A       		.uleb128 0xa
 6392 19f9 3F050000 		.4byte	0x53f
 6393 19fd 0A       		.uleb128 0xa
 6394 19fe 51050000 		.4byte	0x551
 6395 1a02 0A       		.uleb128 0xa
 6396 1a03 5D050000 		.4byte	0x55d
 6397 1a07 00       		.byte	0
 6398 1a08 45       		.uleb128 0x45
 6399 1a09 F2020000 		.4byte	.LASF193
 6400 1a0d 12       		.byte	0x12
 6401 1a0e 12       		.byte	0x12
 6402 1a0f 0C010000 		.4byte	0x10c
 6403 1a13 44       		.uleb128 0x44
 6404 1a14 16040000 		.4byte	.LASF194
 6405 1a18 15       		.byte	0x15
 6406 1a19 0D       		.byte	0xd
 6407 1a1a E0000000 		.4byte	0xe0
 6408 1a1e 2D1A0000 		.4byte	0x1a2d
 6409 1a22 0A       		.uleb128 0xa
 6410 1a23 45060000 		.4byte	0x645
 6411 1a27 0A       		.uleb128 0xa
 6412 1a28 0C010000 		.4byte	0x10c
 6413 1a2c 00       		.byte	0
 6414 1a2d 46       		.uleb128 0x46
 6415 1a2e 2D000000 		.4byte	.LASF195
 6416 1a32 16       		.byte	0x16
 6417 1a33 7501     		.2byte	0x175
 6418 1a35 3F1A0000 		.4byte	0x1a3f
 6419 1a39 0A       		.uleb128 0xa
 6420 1a3a 3F010000 		.4byte	0x13f
 6421 1a3e 00       		.byte	0
 6422 1a3f 44       		.uleb128 0x44
 6423 1a40 38000000 		.4byte	.LASF196
 6424 1a44 17       		.byte	0x17
ARM GAS  C:\Users\danit\AppData\Local\Temp\ccBFeYtw.s 			page 116


 6425 1a45 1C       		.byte	0x1c
 6426 1a46 2C000000 		.4byte	0x2c
 6427 1a4a 591A0000 		.4byte	0x1a59
 6428 1a4e 0A       		.uleb128 0xa
 6429 1a4f D5000000 		.4byte	0xd5
 6430 1a53 0A       		.uleb128 0xa
 6431 1a54 D5000000 		.4byte	0xd5
 6432 1a58 00       		.byte	0
 6433 1a59 47       		.uleb128 0x47
 6434 1a5a 9B060000 		.4byte	.LASF197
 6435 1a5e 18       		.byte	0x18
 6436 1a5f 4C       		.byte	0x4c
 6437 1a60 8D000000 		.4byte	0x8d
 6438 1a64 0A       		.uleb128 0xa
 6439 1a65 D5000000 		.4byte	0xd5
 6440 1a69 00       		.byte	0
 6441 1a6a 00       		.byte	0
 6442              		.section	.debug_abbrev,"",%progbits
 6443              	.Ldebug_abbrev0:
 6444 0000 01       		.uleb128 0x1
 6445 0001 11       		.uleb128 0x11
 6446 0002 01       		.byte	0x1
 6447 0003 25       		.uleb128 0x25
 6448 0004 0E       		.uleb128 0xe
 6449 0005 13       		.uleb128 0x13
 6450 0006 0B       		.uleb128 0xb
 6451 0007 03       		.uleb128 0x3
 6452 0008 0E       		.uleb128 0xe
 6453 0009 1B       		.uleb128 0x1b
 6454 000a 0E       		.uleb128 0xe
 6455 000b 55       		.uleb128 0x55
 6456 000c 17       		.uleb128 0x17
 6457 000d 11       		.uleb128 0x11
 6458 000e 01       		.uleb128 0x1
 6459 000f 10       		.uleb128 0x10
 6460 0010 17       		.uleb128 0x17
 6461 0011 00       		.byte	0
 6462 0012 00       		.byte	0
 6463 0013 02       		.uleb128 0x2
 6464 0014 24       		.uleb128 0x24
 6465 0015 00       		.byte	0
 6466 0016 0B       		.uleb128 0xb
 6467 0017 0B       		.uleb128 0xb
 6468 0018 3E       		.uleb128 0x3e
 6469 0019 0B       		.uleb128 0xb
 6470 001a 03       		.uleb128 0x3
 6471 001b 0E       		.uleb128 0xe
 6472 001c 00       		.byte	0
 6473 001d 00       		.byte	0
 6474 001e 03       		.uleb128 0x3
 6475 001f 24       		.uleb128 0x24
 6476 0020 00       		.byte	0
 6477 0021 0B       		.uleb128 0xb
 6478 0022 0B       		.uleb128 0xb
 6479 0023 3E       		.uleb128 0x3e
 6480 0024 0B       		.uleb128 0xb
 6481 0025 03       		.uleb128 0x3
ARM GAS  C:\Users\danit\AppData\Local\Temp\ccBFeYtw.s 			page 117


 6482 0026 08       		.uleb128 0x8
 6483 0027 00       		.byte	0
 6484 0028 00       		.byte	0
 6485 0029 04       		.uleb128 0x4
 6486 002a 16       		.uleb128 0x16
 6487 002b 00       		.byte	0
 6488 002c 03       		.uleb128 0x3
 6489 002d 0E       		.uleb128 0xe
 6490 002e 3A       		.uleb128 0x3a
 6491 002f 0B       		.uleb128 0xb
 6492 0030 3B       		.uleb128 0x3b
 6493 0031 0B       		.uleb128 0xb
 6494 0032 49       		.uleb128 0x49
 6495 0033 13       		.uleb128 0x13
 6496 0034 00       		.byte	0
 6497 0035 00       		.byte	0
 6498 0036 05       		.uleb128 0x5
 6499 0037 0F       		.uleb128 0xf
 6500 0038 00       		.byte	0
 6501 0039 0B       		.uleb128 0xb
 6502 003a 0B       		.uleb128 0xb
 6503 003b 00       		.byte	0
 6504 003c 00       		.byte	0
 6505 003d 06       		.uleb128 0x6
 6506 003e 0F       		.uleb128 0xf
 6507 003f 00       		.byte	0
 6508 0040 0B       		.uleb128 0xb
 6509 0041 0B       		.uleb128 0xb
 6510 0042 49       		.uleb128 0x49
 6511 0043 13       		.uleb128 0x13
 6512 0044 00       		.byte	0
 6513 0045 00       		.byte	0
 6514 0046 07       		.uleb128 0x7
 6515 0047 26       		.uleb128 0x26
 6516 0048 00       		.byte	0
 6517 0049 49       		.uleb128 0x49
 6518 004a 13       		.uleb128 0x13
 6519 004b 00       		.byte	0
 6520 004c 00       		.byte	0
 6521 004d 08       		.uleb128 0x8
 6522 004e 35       		.uleb128 0x35
 6523 004f 00       		.byte	0
 6524 0050 49       		.uleb128 0x49
 6525 0051 13       		.uleb128 0x13
 6526 0052 00       		.byte	0
 6527 0053 00       		.byte	0
 6528 0054 09       		.uleb128 0x9
 6529 0055 15       		.uleb128 0x15
 6530 0056 01       		.byte	0x1
 6531 0057 27       		.uleb128 0x27
 6532 0058 19       		.uleb128 0x19
 6533 0059 49       		.uleb128 0x49
 6534 005a 13       		.uleb128 0x13
 6535 005b 01       		.uleb128 0x1
 6536 005c 13       		.uleb128 0x13
 6537 005d 00       		.byte	0
 6538 005e 00       		.byte	0
ARM GAS  C:\Users\danit\AppData\Local\Temp\ccBFeYtw.s 			page 118


 6539 005f 0A       		.uleb128 0xa
 6540 0060 05       		.uleb128 0x5
 6541 0061 00       		.byte	0
 6542 0062 49       		.uleb128 0x49
 6543 0063 13       		.uleb128 0x13
 6544 0064 00       		.byte	0
 6545 0065 00       		.byte	0
 6546 0066 0B       		.uleb128 0xb
 6547 0067 13       		.uleb128 0x13
 6548 0068 01       		.byte	0x1
 6549 0069 03       		.uleb128 0x3
 6550 006a 0E       		.uleb128 0xe
 6551 006b 0B       		.uleb128 0xb
 6552 006c 0B       		.uleb128 0xb
 6553 006d 3A       		.uleb128 0x3a
 6554 006e 0B       		.uleb128 0xb
 6555 006f 3B       		.uleb128 0x3b
 6556 0070 0B       		.uleb128 0xb
 6557 0071 01       		.uleb128 0x1
 6558 0072 13       		.uleb128 0x13
 6559 0073 00       		.byte	0
 6560 0074 00       		.byte	0
 6561 0075 0C       		.uleb128 0xc
 6562 0076 0D       		.uleb128 0xd
 6563 0077 00       		.byte	0
 6564 0078 03       		.uleb128 0x3
 6565 0079 0E       		.uleb128 0xe
 6566 007a 3A       		.uleb128 0x3a
 6567 007b 0B       		.uleb128 0xb
 6568 007c 3B       		.uleb128 0x3b
 6569 007d 0B       		.uleb128 0xb
 6570 007e 49       		.uleb128 0x49
 6571 007f 13       		.uleb128 0x13
 6572 0080 38       		.uleb128 0x38
 6573 0081 0B       		.uleb128 0xb
 6574 0082 00       		.byte	0
 6575 0083 00       		.byte	0
 6576 0084 0D       		.uleb128 0xd
 6577 0085 0D       		.uleb128 0xd
 6578 0086 00       		.byte	0
 6579 0087 03       		.uleb128 0x3
 6580 0088 08       		.uleb128 0x8
 6581 0089 3A       		.uleb128 0x3a
 6582 008a 0B       		.uleb128 0xb
 6583 008b 3B       		.uleb128 0x3b
 6584 008c 0B       		.uleb128 0xb
 6585 008d 49       		.uleb128 0x49
 6586 008e 13       		.uleb128 0x13
 6587 008f 38       		.uleb128 0x38
 6588 0090 0B       		.uleb128 0xb
 6589 0091 00       		.byte	0
 6590 0092 00       		.byte	0
 6591 0093 0E       		.uleb128 0xe
 6592 0094 13       		.uleb128 0x13
 6593 0095 01       		.byte	0x1
 6594 0096 0B       		.uleb128 0xb
 6595 0097 0B       		.uleb128 0xb
ARM GAS  C:\Users\danit\AppData\Local\Temp\ccBFeYtw.s 			page 119


 6596 0098 3A       		.uleb128 0x3a
 6597 0099 0B       		.uleb128 0xb
 6598 009a 3B       		.uleb128 0x3b
 6599 009b 0B       		.uleb128 0xb
 6600 009c 01       		.uleb128 0x1
 6601 009d 13       		.uleb128 0x13
 6602 009e 00       		.byte	0
 6603 009f 00       		.byte	0
 6604 00a0 0F       		.uleb128 0xf
 6605 00a1 01       		.uleb128 0x1
 6606 00a2 01       		.byte	0x1
 6607 00a3 49       		.uleb128 0x49
 6608 00a4 13       		.uleb128 0x13
 6609 00a5 01       		.uleb128 0x1
 6610 00a6 13       		.uleb128 0x13
 6611 00a7 00       		.byte	0
 6612 00a8 00       		.byte	0
 6613 00a9 10       		.uleb128 0x10
 6614 00aa 21       		.uleb128 0x21
 6615 00ab 00       		.byte	0
 6616 00ac 49       		.uleb128 0x49
 6617 00ad 13       		.uleb128 0x13
 6618 00ae 2F       		.uleb128 0x2f
 6619 00af 0B       		.uleb128 0xb
 6620 00b0 00       		.byte	0
 6621 00b1 00       		.byte	0
 6622 00b2 11       		.uleb128 0x11
 6623 00b3 13       		.uleb128 0x13
 6624 00b4 01       		.byte	0x1
 6625 00b5 0B       		.uleb128 0xb
 6626 00b6 0B       		.uleb128 0xb
 6627 00b7 3A       		.uleb128 0x3a
 6628 00b8 0B       		.uleb128 0xb
 6629 00b9 3B       		.uleb128 0x3b
 6630 00ba 05       		.uleb128 0x5
 6631 00bb 01       		.uleb128 0x1
 6632 00bc 13       		.uleb128 0x13
 6633 00bd 00       		.byte	0
 6634 00be 00       		.byte	0
 6635 00bf 12       		.uleb128 0x12
 6636 00c0 0D       		.uleb128 0xd
 6637 00c1 00       		.byte	0
 6638 00c2 03       		.uleb128 0x3
 6639 00c3 08       		.uleb128 0x8
 6640 00c4 3A       		.uleb128 0x3a
 6641 00c5 0B       		.uleb128 0xb
 6642 00c6 3B       		.uleb128 0x3b
 6643 00c7 05       		.uleb128 0x5
 6644 00c8 49       		.uleb128 0x49
 6645 00c9 13       		.uleb128 0x13
 6646 00ca 38       		.uleb128 0x38
 6647 00cb 0B       		.uleb128 0xb
 6648 00cc 00       		.byte	0
 6649 00cd 00       		.byte	0
 6650 00ce 13       		.uleb128 0x13
 6651 00cf 0D       		.uleb128 0xd
 6652 00d0 00       		.byte	0
ARM GAS  C:\Users\danit\AppData\Local\Temp\ccBFeYtw.s 			page 120


 6653 00d1 03       		.uleb128 0x3
 6654 00d2 0E       		.uleb128 0xe
 6655 00d3 3A       		.uleb128 0x3a
 6656 00d4 0B       		.uleb128 0xb
 6657 00d5 3B       		.uleb128 0x3b
 6658 00d6 05       		.uleb128 0x5
 6659 00d7 49       		.uleb128 0x49
 6660 00d8 13       		.uleb128 0x13
 6661 00d9 38       		.uleb128 0x38
 6662 00da 0B       		.uleb128 0xb
 6663 00db 00       		.byte	0
 6664 00dc 00       		.byte	0
 6665 00dd 14       		.uleb128 0x14
 6666 00de 16       		.uleb128 0x16
 6667 00df 00       		.byte	0
 6668 00e0 03       		.uleb128 0x3
 6669 00e1 0E       		.uleb128 0xe
 6670 00e2 3A       		.uleb128 0x3a
 6671 00e3 0B       		.uleb128 0xb
 6672 00e4 3B       		.uleb128 0x3b
 6673 00e5 05       		.uleb128 0x5
 6674 00e6 49       		.uleb128 0x49
 6675 00e7 13       		.uleb128 0x13
 6676 00e8 00       		.byte	0
 6677 00e9 00       		.byte	0
 6678 00ea 15       		.uleb128 0x15
 6679 00eb 04       		.uleb128 0x4
 6680 00ec 01       		.byte	0x1
 6681 00ed 0B       		.uleb128 0xb
 6682 00ee 0B       		.uleb128 0xb
 6683 00ef 3A       		.uleb128 0x3a
 6684 00f0 0B       		.uleb128 0xb
 6685 00f1 3B       		.uleb128 0x3b
 6686 00f2 0B       		.uleb128 0xb
 6687 00f3 01       		.uleb128 0x1
 6688 00f4 13       		.uleb128 0x13
 6689 00f5 00       		.byte	0
 6690 00f6 00       		.byte	0
 6691 00f7 16       		.uleb128 0x16
 6692 00f8 28       		.uleb128 0x28
 6693 00f9 00       		.byte	0
 6694 00fa 03       		.uleb128 0x3
 6695 00fb 0E       		.uleb128 0xe
 6696 00fc 1C       		.uleb128 0x1c
 6697 00fd 0D       		.uleb128 0xd
 6698 00fe 00       		.byte	0
 6699 00ff 00       		.byte	0
 6700 0100 17       		.uleb128 0x17
 6701 0101 13       		.uleb128 0x13
 6702 0102 01       		.byte	0x1
 6703 0103 03       		.uleb128 0x3
 6704 0104 0E       		.uleb128 0xe
 6705 0105 0B       		.uleb128 0xb
 6706 0106 0B       		.uleb128 0xb
 6707 0107 3A       		.uleb128 0x3a
 6708 0108 0B       		.uleb128 0xb
 6709 0109 3B       		.uleb128 0x3b
ARM GAS  C:\Users\danit\AppData\Local\Temp\ccBFeYtw.s 			page 121


 6710 010a 05       		.uleb128 0x5
 6711 010b 01       		.uleb128 0x1
 6712 010c 13       		.uleb128 0x13
 6713 010d 00       		.byte	0
 6714 010e 00       		.byte	0
 6715 010f 18       		.uleb128 0x18
 6716 0110 15       		.uleb128 0x15
 6717 0111 01       		.byte	0x1
 6718 0112 27       		.uleb128 0x27
 6719 0113 19       		.uleb128 0x19
 6720 0114 01       		.uleb128 0x1
 6721 0115 13       		.uleb128 0x13
 6722 0116 00       		.byte	0
 6723 0117 00       		.byte	0
 6724 0118 19       		.uleb128 0x19
 6725 0119 0D       		.uleb128 0xd
 6726 011a 00       		.byte	0
 6727 011b 03       		.uleb128 0x3
 6728 011c 0E       		.uleb128 0xe
 6729 011d 49       		.uleb128 0x49
 6730 011e 13       		.uleb128 0x13
 6731 011f 38       		.uleb128 0x38
 6732 0120 0B       		.uleb128 0xb
 6733 0121 34       		.uleb128 0x34
 6734 0122 19       		.uleb128 0x19
 6735 0123 00       		.byte	0
 6736 0124 00       		.byte	0
 6737 0125 1A       		.uleb128 0x1a
 6738 0126 04       		.uleb128 0x4
 6739 0127 01       		.byte	0x1
 6740 0128 03       		.uleb128 0x3
 6741 0129 0E       		.uleb128 0xe
 6742 012a 0B       		.uleb128 0xb
 6743 012b 0B       		.uleb128 0xb
 6744 012c 3A       		.uleb128 0x3a
 6745 012d 0B       		.uleb128 0xb
 6746 012e 3B       		.uleb128 0x3b
 6747 012f 0B       		.uleb128 0xb
 6748 0130 01       		.uleb128 0x1
 6749 0131 13       		.uleb128 0x13
 6750 0132 00       		.byte	0
 6751 0133 00       		.byte	0
 6752 0134 1B       		.uleb128 0x1b
 6753 0135 2E       		.uleb128 0x2e
 6754 0136 00       		.byte	0
 6755 0137 3F       		.uleb128 0x3f
 6756 0138 19       		.uleb128 0x19
 6757 0139 03       		.uleb128 0x3
 6758 013a 0E       		.uleb128 0xe
 6759 013b 3A       		.uleb128 0x3a
 6760 013c 0B       		.uleb128 0xb
 6761 013d 3B       		.uleb128 0x3b
 6762 013e 05       		.uleb128 0x5
 6763 013f 27       		.uleb128 0x27
 6764 0140 19       		.uleb128 0x19
 6765 0141 20       		.uleb128 0x20
 6766 0142 0B       		.uleb128 0xb
ARM GAS  C:\Users\danit\AppData\Local\Temp\ccBFeYtw.s 			page 122


 6767 0143 00       		.byte	0
 6768 0144 00       		.byte	0
 6769 0145 1C       		.uleb128 0x1c
 6770 0146 2E       		.uleb128 0x2e
 6771 0147 01       		.byte	0x1
 6772 0148 03       		.uleb128 0x3
 6773 0149 0E       		.uleb128 0xe
 6774 014a 3A       		.uleb128 0x3a
 6775 014b 0B       		.uleb128 0xb
 6776 014c 3B       		.uleb128 0x3b
 6777 014d 0B       		.uleb128 0xb
 6778 014e 27       		.uleb128 0x27
 6779 014f 19       		.uleb128 0x19
 6780 0150 11       		.uleb128 0x11
 6781 0151 01       		.uleb128 0x1
 6782 0152 12       		.uleb128 0x12
 6783 0153 06       		.uleb128 0x6
 6784 0154 40       		.uleb128 0x40
 6785 0155 18       		.uleb128 0x18
 6786 0156 9742     		.uleb128 0x2117
 6787 0158 19       		.uleb128 0x19
 6788 0159 01       		.uleb128 0x1
 6789 015a 13       		.uleb128 0x13
 6790 015b 00       		.byte	0
 6791 015c 00       		.byte	0
 6792 015d 1D       		.uleb128 0x1d
 6793 015e 05       		.uleb128 0x5
 6794 015f 00       		.byte	0
 6795 0160 03       		.uleb128 0x3
 6796 0161 08       		.uleb128 0x8
 6797 0162 3A       		.uleb128 0x3a
 6798 0163 0B       		.uleb128 0xb
 6799 0164 3B       		.uleb128 0x3b
 6800 0165 0B       		.uleb128 0xb
 6801 0166 49       		.uleb128 0x49
 6802 0167 13       		.uleb128 0x13
 6803 0168 02       		.uleb128 0x2
 6804 0169 17       		.uleb128 0x17
 6805 016a 00       		.byte	0
 6806 016b 00       		.byte	0
 6807 016c 1E       		.uleb128 0x1e
 6808 016d 05       		.uleb128 0x5
 6809 016e 00       		.byte	0
 6810 016f 03       		.uleb128 0x3
 6811 0170 08       		.uleb128 0x8
 6812 0171 3A       		.uleb128 0x3a
 6813 0172 0B       		.uleb128 0xb
 6814 0173 3B       		.uleb128 0x3b
 6815 0174 0B       		.uleb128 0xb
 6816 0175 49       		.uleb128 0x49
 6817 0176 13       		.uleb128 0x13
 6818 0177 02       		.uleb128 0x2
 6819 0178 18       		.uleb128 0x18
 6820 0179 00       		.byte	0
 6821 017a 00       		.byte	0
 6822 017b 1F       		.uleb128 0x1f
 6823 017c 18       		.uleb128 0x18
ARM GAS  C:\Users\danit\AppData\Local\Temp\ccBFeYtw.s 			page 123


 6824 017d 00       		.byte	0
 6825 017e 00       		.byte	0
 6826 017f 00       		.byte	0
 6827 0180 20       		.uleb128 0x20
 6828 0181 34       		.uleb128 0x34
 6829 0182 00       		.byte	0
 6830 0183 03       		.uleb128 0x3
 6831 0184 08       		.uleb128 0x8
 6832 0185 3A       		.uleb128 0x3a
 6833 0186 0B       		.uleb128 0xb
 6834 0187 3B       		.uleb128 0x3b
 6835 0188 0B       		.uleb128 0xb
 6836 0189 49       		.uleb128 0x49
 6837 018a 13       		.uleb128 0x13
 6838 018b 02       		.uleb128 0x2
 6839 018c 18       		.uleb128 0x18
 6840 018d 00       		.byte	0
 6841 018e 00       		.byte	0
 6842 018f 21       		.uleb128 0x21
 6843 0190 898201   		.uleb128 0x4109
 6844 0193 01       		.byte	0x1
 6845 0194 11       		.uleb128 0x11
 6846 0195 01       		.uleb128 0x1
 6847 0196 31       		.uleb128 0x31
 6848 0197 13       		.uleb128 0x13
 6849 0198 00       		.byte	0
 6850 0199 00       		.byte	0
 6851 019a 22       		.uleb128 0x22
 6852 019b 8A8201   		.uleb128 0x410a
 6853 019e 00       		.byte	0
 6854 019f 02       		.uleb128 0x2
 6855 01a0 18       		.uleb128 0x18
 6856 01a1 9142     		.uleb128 0x2111
 6857 01a3 18       		.uleb128 0x18
 6858 01a4 00       		.byte	0
 6859 01a5 00       		.byte	0
 6860 01a6 23       		.uleb128 0x23
 6861 01a7 2E       		.uleb128 0x2e
 6862 01a8 01       		.byte	0x1
 6863 01a9 3F       		.uleb128 0x3f
 6864 01aa 19       		.uleb128 0x19
 6865 01ab 03       		.uleb128 0x3
 6866 01ac 0E       		.uleb128 0xe
 6867 01ad 3A       		.uleb128 0x3a
 6868 01ae 0B       		.uleb128 0xb
 6869 01af 3B       		.uleb128 0x3b
 6870 01b0 0B       		.uleb128 0xb
 6871 01b1 27       		.uleb128 0x27
 6872 01b2 19       		.uleb128 0x19
 6873 01b3 11       		.uleb128 0x11
 6874 01b4 01       		.uleb128 0x1
 6875 01b5 12       		.uleb128 0x12
 6876 01b6 06       		.uleb128 0x6
 6877 01b7 40       		.uleb128 0x40
 6878 01b8 18       		.uleb128 0x18
 6879 01b9 9742     		.uleb128 0x2117
 6880 01bb 19       		.uleb128 0x19
ARM GAS  C:\Users\danit\AppData\Local\Temp\ccBFeYtw.s 			page 124


 6881 01bc 01       		.uleb128 0x1
 6882 01bd 13       		.uleb128 0x13
 6883 01be 00       		.byte	0
 6884 01bf 00       		.byte	0
 6885 01c0 24       		.uleb128 0x24
 6886 01c1 898201   		.uleb128 0x4109
 6887 01c4 01       		.byte	0x1
 6888 01c5 11       		.uleb128 0x11
 6889 01c6 01       		.uleb128 0x1
 6890 01c7 31       		.uleb128 0x31
 6891 01c8 13       		.uleb128 0x13
 6892 01c9 01       		.uleb128 0x1
 6893 01ca 13       		.uleb128 0x13
 6894 01cb 00       		.byte	0
 6895 01cc 00       		.byte	0
 6896 01cd 25       		.uleb128 0x25
 6897 01ce 898201   		.uleb128 0x4109
 6898 01d1 01       		.byte	0x1
 6899 01d2 11       		.uleb128 0x11
 6900 01d3 01       		.uleb128 0x1
 6901 01d4 9542     		.uleb128 0x2115
 6902 01d6 19       		.uleb128 0x19
 6903 01d7 31       		.uleb128 0x31
 6904 01d8 13       		.uleb128 0x13
 6905 01d9 01       		.uleb128 0x1
 6906 01da 13       		.uleb128 0x13
 6907 01db 00       		.byte	0
 6908 01dc 00       		.byte	0
 6909 01dd 26       		.uleb128 0x26
 6910 01de 898201   		.uleb128 0x4109
 6911 01e1 00       		.byte	0
 6912 01e2 11       		.uleb128 0x11
 6913 01e3 01       		.uleb128 0x1
 6914 01e4 31       		.uleb128 0x31
 6915 01e5 13       		.uleb128 0x13
 6916 01e6 00       		.byte	0
 6917 01e7 00       		.byte	0
 6918 01e8 27       		.uleb128 0x27
 6919 01e9 2E       		.uleb128 0x2e
 6920 01ea 00       		.byte	0
 6921 01eb 31       		.uleb128 0x31
 6922 01ec 13       		.uleb128 0x13
 6923 01ed 11       		.uleb128 0x11
 6924 01ee 01       		.uleb128 0x1
 6925 01ef 12       		.uleb128 0x12
 6926 01f0 06       		.uleb128 0x6
 6927 01f1 40       		.uleb128 0x40
 6928 01f2 18       		.uleb128 0x18
 6929 01f3 9742     		.uleb128 0x2117
 6930 01f5 19       		.uleb128 0x19
 6931 01f6 00       		.byte	0
 6932 01f7 00       		.byte	0
 6933 01f8 28       		.uleb128 0x28
 6934 01f9 2E       		.uleb128 0x2e
 6935 01fa 00       		.byte	0
 6936 01fb 3F       		.uleb128 0x3f
 6937 01fc 19       		.uleb128 0x19
ARM GAS  C:\Users\danit\AppData\Local\Temp\ccBFeYtw.s 			page 125


 6938 01fd 03       		.uleb128 0x3
 6939 01fe 0E       		.uleb128 0xe
 6940 01ff 3A       		.uleb128 0x3a
 6941 0200 0B       		.uleb128 0xb
 6942 0201 3B       		.uleb128 0x3b
 6943 0202 05       		.uleb128 0x5
 6944 0203 27       		.uleb128 0x27
 6945 0204 19       		.uleb128 0x19
 6946 0205 49       		.uleb128 0x49
 6947 0206 13       		.uleb128 0x13
 6948 0207 11       		.uleb128 0x11
 6949 0208 01       		.uleb128 0x1
 6950 0209 12       		.uleb128 0x12
 6951 020a 06       		.uleb128 0x6
 6952 020b 40       		.uleb128 0x40
 6953 020c 18       		.uleb128 0x18
 6954 020d 9742     		.uleb128 0x2117
 6955 020f 19       		.uleb128 0x19
 6956 0210 00       		.byte	0
 6957 0211 00       		.byte	0
 6958 0212 29       		.uleb128 0x29
 6959 0213 2E       		.uleb128 0x2e
 6960 0214 00       		.byte	0
 6961 0215 3F       		.uleb128 0x3f
 6962 0216 19       		.uleb128 0x19
 6963 0217 03       		.uleb128 0x3
 6964 0218 0E       		.uleb128 0xe
 6965 0219 3A       		.uleb128 0x3a
 6966 021a 0B       		.uleb128 0xb
 6967 021b 3B       		.uleb128 0x3b
 6968 021c 05       		.uleb128 0x5
 6969 021d 11       		.uleb128 0x11
 6970 021e 01       		.uleb128 0x1
 6971 021f 12       		.uleb128 0x12
 6972 0220 06       		.uleb128 0x6
 6973 0221 40       		.uleb128 0x40
 6974 0222 18       		.uleb128 0x18
 6975 0223 9742     		.uleb128 0x2117
 6976 0225 19       		.uleb128 0x19
 6977 0226 00       		.byte	0
 6978 0227 00       		.byte	0
 6979 0228 2A       		.uleb128 0x2a
 6980 0229 2E       		.uleb128 0x2e
 6981 022a 01       		.byte	0x1
 6982 022b 3F       		.uleb128 0x3f
 6983 022c 19       		.uleb128 0x19
 6984 022d 03       		.uleb128 0x3
 6985 022e 0E       		.uleb128 0xe
 6986 022f 3A       		.uleb128 0x3a
 6987 0230 0B       		.uleb128 0xb
 6988 0231 3B       		.uleb128 0x3b
 6989 0232 05       		.uleb128 0x5
 6990 0233 11       		.uleb128 0x11
 6991 0234 01       		.uleb128 0x1
 6992 0235 12       		.uleb128 0x12
 6993 0236 06       		.uleb128 0x6
 6994 0237 40       		.uleb128 0x40
ARM GAS  C:\Users\danit\AppData\Local\Temp\ccBFeYtw.s 			page 126


 6995 0238 18       		.uleb128 0x18
 6996 0239 9742     		.uleb128 0x2117
 6997 023b 19       		.uleb128 0x19
 6998 023c 01       		.uleb128 0x1
 6999 023d 13       		.uleb128 0x13
 7000 023e 00       		.byte	0
 7001 023f 00       		.byte	0
 7002 0240 2B       		.uleb128 0x2b
 7003 0241 2E       		.uleb128 0x2e
 7004 0242 01       		.byte	0x1
 7005 0243 3F       		.uleb128 0x3f
 7006 0244 19       		.uleb128 0x19
 7007 0245 03       		.uleb128 0x3
 7008 0246 0E       		.uleb128 0xe
 7009 0247 3A       		.uleb128 0x3a
 7010 0248 0B       		.uleb128 0xb
 7011 0249 3B       		.uleb128 0x3b
 7012 024a 05       		.uleb128 0x5
 7013 024b 27       		.uleb128 0x27
 7014 024c 19       		.uleb128 0x19
 7015 024d 11       		.uleb128 0x11
 7016 024e 01       		.uleb128 0x1
 7017 024f 12       		.uleb128 0x12
 7018 0250 06       		.uleb128 0x6
 7019 0251 40       		.uleb128 0x40
 7020 0252 18       		.uleb128 0x18
 7021 0253 9642     		.uleb128 0x2116
 7022 0255 19       		.uleb128 0x19
 7023 0256 01       		.uleb128 0x1
 7024 0257 13       		.uleb128 0x13
 7025 0258 00       		.byte	0
 7026 0259 00       		.byte	0
 7027 025a 2C       		.uleb128 0x2c
 7028 025b 05       		.uleb128 0x5
 7029 025c 00       		.byte	0
 7030 025d 03       		.uleb128 0x3
 7031 025e 08       		.uleb128 0x8
 7032 025f 3A       		.uleb128 0x3a
 7033 0260 0B       		.uleb128 0xb
 7034 0261 3B       		.uleb128 0x3b
 7035 0262 05       		.uleb128 0x5
 7036 0263 49       		.uleb128 0x49
 7037 0264 13       		.uleb128 0x13
 7038 0265 02       		.uleb128 0x2
 7039 0266 17       		.uleb128 0x17
 7040 0267 00       		.byte	0
 7041 0268 00       		.byte	0
 7042 0269 2D       		.uleb128 0x2d
 7043 026a 2E       		.uleb128 0x2e
 7044 026b 00       		.byte	0
 7045 026c 3F       		.uleb128 0x3f
 7046 026d 19       		.uleb128 0x19
 7047 026e 03       		.uleb128 0x3
 7048 026f 0E       		.uleb128 0xe
 7049 0270 3A       		.uleb128 0x3a
 7050 0271 0B       		.uleb128 0xb
 7051 0272 3B       		.uleb128 0x3b
ARM GAS  C:\Users\danit\AppData\Local\Temp\ccBFeYtw.s 			page 127


 7052 0273 05       		.uleb128 0x5
 7053 0274 49       		.uleb128 0x49
 7054 0275 13       		.uleb128 0x13
 7055 0276 11       		.uleb128 0x11
 7056 0277 01       		.uleb128 0x1
 7057 0278 12       		.uleb128 0x12
 7058 0279 06       		.uleb128 0x6
 7059 027a 40       		.uleb128 0x40
 7060 027b 18       		.uleb128 0x18
 7061 027c 9742     		.uleb128 0x2117
 7062 027e 19       		.uleb128 0x19
 7063 027f 00       		.byte	0
 7064 0280 00       		.byte	0
 7065 0281 2E       		.uleb128 0x2e
 7066 0282 2E       		.uleb128 0x2e
 7067 0283 01       		.byte	0x1
 7068 0284 3F       		.uleb128 0x3f
 7069 0285 19       		.uleb128 0x19
 7070 0286 03       		.uleb128 0x3
 7071 0287 0E       		.uleb128 0xe
 7072 0288 3A       		.uleb128 0x3a
 7073 0289 0B       		.uleb128 0xb
 7074 028a 3B       		.uleb128 0x3b
 7075 028b 05       		.uleb128 0x5
 7076 028c 27       		.uleb128 0x27
 7077 028d 19       		.uleb128 0x19
 7078 028e 49       		.uleb128 0x49
 7079 028f 13       		.uleb128 0x13
 7080 0290 11       		.uleb128 0x11
 7081 0291 01       		.uleb128 0x1
 7082 0292 12       		.uleb128 0x12
 7083 0293 06       		.uleb128 0x6
 7084 0294 40       		.uleb128 0x40
 7085 0295 18       		.uleb128 0x18
 7086 0296 9642     		.uleb128 0x2116
 7087 0298 19       		.uleb128 0x19
 7088 0299 01       		.uleb128 0x1
 7089 029a 13       		.uleb128 0x13
 7090 029b 00       		.byte	0
 7091 029c 00       		.byte	0
 7092 029d 2F       		.uleb128 0x2f
 7093 029e 05       		.uleb128 0x5
 7094 029f 00       		.byte	0
 7095 02a0 03       		.uleb128 0x3
 7096 02a1 0E       		.uleb128 0xe
 7097 02a2 3A       		.uleb128 0x3a
 7098 02a3 0B       		.uleb128 0xb
 7099 02a4 3B       		.uleb128 0x3b
 7100 02a5 05       		.uleb128 0x5
 7101 02a6 49       		.uleb128 0x49
 7102 02a7 13       		.uleb128 0x13
 7103 02a8 02       		.uleb128 0x2
 7104 02a9 17       		.uleb128 0x17
 7105 02aa 00       		.byte	0
 7106 02ab 00       		.byte	0
 7107 02ac 30       		.uleb128 0x30
 7108 02ad 2E       		.uleb128 0x2e
ARM GAS  C:\Users\danit\AppData\Local\Temp\ccBFeYtw.s 			page 128


 7109 02ae 01       		.byte	0x1
 7110 02af 3F       		.uleb128 0x3f
 7111 02b0 19       		.uleb128 0x19
 7112 02b1 03       		.uleb128 0x3
 7113 02b2 0E       		.uleb128 0xe
 7114 02b3 3A       		.uleb128 0x3a
 7115 02b4 0B       		.uleb128 0xb
 7116 02b5 3B       		.uleb128 0x3b
 7117 02b6 0B       		.uleb128 0xb
 7118 02b7 27       		.uleb128 0x27
 7119 02b8 19       		.uleb128 0x19
 7120 02b9 11       		.uleb128 0x11
 7121 02ba 01       		.uleb128 0x1
 7122 02bb 12       		.uleb128 0x12
 7123 02bc 06       		.uleb128 0x6
 7124 02bd 40       		.uleb128 0x40
 7125 02be 18       		.uleb128 0x18
 7126 02bf 9642     		.uleb128 0x2116
 7127 02c1 19       		.uleb128 0x19
 7128 02c2 01       		.uleb128 0x1
 7129 02c3 13       		.uleb128 0x13
 7130 02c4 00       		.byte	0
 7131 02c5 00       		.byte	0
 7132 02c6 31       		.uleb128 0x31
 7133 02c7 2E       		.uleb128 0x2e
 7134 02c8 01       		.byte	0x1
 7135 02c9 3F       		.uleb128 0x3f
 7136 02ca 19       		.uleb128 0x19
 7137 02cb 03       		.uleb128 0x3
 7138 02cc 0E       		.uleb128 0xe
 7139 02cd 3A       		.uleb128 0x3a
 7140 02ce 0B       		.uleb128 0xb
 7141 02cf 3B       		.uleb128 0x3b
 7142 02d0 0B       		.uleb128 0xb
 7143 02d1 49       		.uleb128 0x49
 7144 02d2 13       		.uleb128 0x13
 7145 02d3 3C       		.uleb128 0x3c
 7146 02d4 19       		.uleb128 0x19
 7147 02d5 01       		.uleb128 0x1
 7148 02d6 13       		.uleb128 0x13
 7149 02d7 00       		.byte	0
 7150 02d8 00       		.byte	0
 7151 02d9 32       		.uleb128 0x32
 7152 02da 0B       		.uleb128 0xb
 7153 02db 01       		.byte	0x1
 7154 02dc 55       		.uleb128 0x55
 7155 02dd 17       		.uleb128 0x17
 7156 02de 01       		.uleb128 0x1
 7157 02df 13       		.uleb128 0x13
 7158 02e0 00       		.byte	0
 7159 02e1 00       		.byte	0
 7160 02e2 33       		.uleb128 0x33
 7161 02e3 0B       		.uleb128 0xb
 7162 02e4 01       		.byte	0x1
 7163 02e5 11       		.uleb128 0x11
 7164 02e6 01       		.uleb128 0x1
 7165 02e7 12       		.uleb128 0x12
ARM GAS  C:\Users\danit\AppData\Local\Temp\ccBFeYtw.s 			page 129


 7166 02e8 06       		.uleb128 0x6
 7167 02e9 01       		.uleb128 0x1
 7168 02ea 13       		.uleb128 0x13
 7169 02eb 00       		.byte	0
 7170 02ec 00       		.byte	0
 7171 02ed 34       		.uleb128 0x34
 7172 02ee 34       		.uleb128 0x34
 7173 02ef 00       		.byte	0
 7174 02f0 03       		.uleb128 0x3
 7175 02f1 08       		.uleb128 0x8
 7176 02f2 3A       		.uleb128 0x3a
 7177 02f3 0B       		.uleb128 0xb
 7178 02f4 3B       		.uleb128 0x3b
 7179 02f5 05       		.uleb128 0x5
 7180 02f6 49       		.uleb128 0x49
 7181 02f7 13       		.uleb128 0x13
 7182 02f8 02       		.uleb128 0x2
 7183 02f9 18       		.uleb128 0x18
 7184 02fa 00       		.byte	0
 7185 02fb 00       		.byte	0
 7186 02fc 35       		.uleb128 0x35
 7187 02fd 898201   		.uleb128 0x4109
 7188 0300 01       		.byte	0x1
 7189 0301 11       		.uleb128 0x11
 7190 0302 01       		.uleb128 0x1
 7191 0303 00       		.byte	0
 7192 0304 00       		.byte	0
 7193 0305 36       		.uleb128 0x36
 7194 0306 2E       		.uleb128 0x2e
 7195 0307 01       		.byte	0x1
 7196 0308 3F       		.uleb128 0x3f
 7197 0309 19       		.uleb128 0x19
 7198 030a 03       		.uleb128 0x3
 7199 030b 0E       		.uleb128 0xe
 7200 030c 3A       		.uleb128 0x3a
 7201 030d 0B       		.uleb128 0xb
 7202 030e 3B       		.uleb128 0x3b
 7203 030f 05       		.uleb128 0x5
 7204 0310 27       		.uleb128 0x27
 7205 0311 19       		.uleb128 0x19
 7206 0312 11       		.uleb128 0x11
 7207 0313 01       		.uleb128 0x1
 7208 0314 12       		.uleb128 0x12
 7209 0315 06       		.uleb128 0x6
 7210 0316 40       		.uleb128 0x40
 7211 0317 18       		.uleb128 0x18
 7212 0318 9742     		.uleb128 0x2117
 7213 031a 19       		.uleb128 0x19
 7214 031b 01       		.uleb128 0x1
 7215 031c 13       		.uleb128 0x13
 7216 031d 00       		.byte	0
 7217 031e 00       		.byte	0
 7218 031f 37       		.uleb128 0x37
 7219 0320 34       		.uleb128 0x34
 7220 0321 00       		.byte	0
 7221 0322 03       		.uleb128 0x3
 7222 0323 0E       		.uleb128 0xe
ARM GAS  C:\Users\danit\AppData\Local\Temp\ccBFeYtw.s 			page 130


 7223 0324 3A       		.uleb128 0x3a
 7224 0325 0B       		.uleb128 0xb
 7225 0326 3B       		.uleb128 0x3b
 7226 0327 05       		.uleb128 0x5
 7227 0328 49       		.uleb128 0x49
 7228 0329 13       		.uleb128 0x13
 7229 032a 02       		.uleb128 0x2
 7230 032b 17       		.uleb128 0x17
 7231 032c 00       		.byte	0
 7232 032d 00       		.byte	0
 7233 032e 38       		.uleb128 0x38
 7234 032f 0A       		.uleb128 0xa
 7235 0330 00       		.byte	0
 7236 0331 03       		.uleb128 0x3
 7237 0332 0E       		.uleb128 0xe
 7238 0333 3A       		.uleb128 0x3a
 7239 0334 0B       		.uleb128 0xb
 7240 0335 3B       		.uleb128 0x3b
 7241 0336 05       		.uleb128 0x5
 7242 0337 11       		.uleb128 0x11
 7243 0338 01       		.uleb128 0x1
 7244 0339 00       		.byte	0
 7245 033a 00       		.byte	0
 7246 033b 39       		.uleb128 0x39
 7247 033c 1D       		.uleb128 0x1d
 7248 033d 00       		.byte	0
 7249 033e 31       		.uleb128 0x31
 7250 033f 13       		.uleb128 0x13
 7251 0340 52       		.uleb128 0x52
 7252 0341 01       		.uleb128 0x1
 7253 0342 55       		.uleb128 0x55
 7254 0343 17       		.uleb128 0x17
 7255 0344 58       		.uleb128 0x58
 7256 0345 0B       		.uleb128 0xb
 7257 0346 59       		.uleb128 0x59
 7258 0347 05       		.uleb128 0x5
 7259 0348 00       		.byte	0
 7260 0349 00       		.byte	0
 7261 034a 3A       		.uleb128 0x3a
 7262 034b 898201   		.uleb128 0x4109
 7263 034e 01       		.byte	0x1
 7264 034f 11       		.uleb128 0x11
 7265 0350 01       		.uleb128 0x1
 7266 0351 01       		.uleb128 0x1
 7267 0352 13       		.uleb128 0x13
 7268 0353 00       		.byte	0
 7269 0354 00       		.byte	0
 7270 0355 3B       		.uleb128 0x3b
 7271 0356 898201   		.uleb128 0x4109
 7272 0359 01       		.byte	0x1
 7273 035a 11       		.uleb128 0x11
 7274 035b 01       		.uleb128 0x1
 7275 035c 9542     		.uleb128 0x2115
 7276 035e 19       		.uleb128 0x19
 7277 035f 31       		.uleb128 0x31
 7278 0360 13       		.uleb128 0x13
 7279 0361 00       		.byte	0
ARM GAS  C:\Users\danit\AppData\Local\Temp\ccBFeYtw.s 			page 131


 7280 0362 00       		.byte	0
 7281 0363 3C       		.uleb128 0x3c
 7282 0364 34       		.uleb128 0x34
 7283 0365 00       		.byte	0
 7284 0366 03       		.uleb128 0x3
 7285 0367 0E       		.uleb128 0xe
 7286 0368 3A       		.uleb128 0x3a
 7287 0369 0B       		.uleb128 0xb
 7288 036a 3B       		.uleb128 0x3b
 7289 036b 0B       		.uleb128 0xb
 7290 036c 49       		.uleb128 0x49
 7291 036d 13       		.uleb128 0x13
 7292 036e 00       		.byte	0
 7293 036f 00       		.byte	0
 7294 0370 3D       		.uleb128 0x3d
 7295 0371 34       		.uleb128 0x34
 7296 0372 00       		.byte	0
 7297 0373 03       		.uleb128 0x3
 7298 0374 0E       		.uleb128 0xe
 7299 0375 3A       		.uleb128 0x3a
 7300 0376 0B       		.uleb128 0xb
 7301 0377 3B       		.uleb128 0x3b
 7302 0378 0B       		.uleb128 0xb
 7303 0379 49       		.uleb128 0x49
 7304 037a 13       		.uleb128 0x13
 7305 037b 1C       		.uleb128 0x1c
 7306 037c 0A       		.uleb128 0xa
 7307 037d 00       		.byte	0
 7308 037e 00       		.byte	0
 7309 037f 3E       		.uleb128 0x3e
 7310 0380 34       		.uleb128 0x34
 7311 0381 00       		.byte	0
 7312 0382 03       		.uleb128 0x3
 7313 0383 0E       		.uleb128 0xe
 7314 0384 3A       		.uleb128 0x3a
 7315 0385 0B       		.uleb128 0xb
 7316 0386 3B       		.uleb128 0x3b
 7317 0387 0B       		.uleb128 0xb
 7318 0388 49       		.uleb128 0x49
 7319 0389 13       		.uleb128 0x13
 7320 038a 1C       		.uleb128 0x1c
 7321 038b 06       		.uleb128 0x6
 7322 038c 00       		.byte	0
 7323 038d 00       		.byte	0
 7324 038e 3F       		.uleb128 0x3f
 7325 038f 34       		.uleb128 0x34
 7326 0390 00       		.byte	0
 7327 0391 03       		.uleb128 0x3
 7328 0392 0E       		.uleb128 0xe
 7329 0393 3A       		.uleb128 0x3a
 7330 0394 0B       		.uleb128 0xb
 7331 0395 3B       		.uleb128 0x3b
 7332 0396 0B       		.uleb128 0xb
 7333 0397 49       		.uleb128 0x49
 7334 0398 13       		.uleb128 0x13
 7335 0399 1C       		.uleb128 0x1c
 7336 039a 0B       		.uleb128 0xb
ARM GAS  C:\Users\danit\AppData\Local\Temp\ccBFeYtw.s 			page 132


 7337 039b 00       		.byte	0
 7338 039c 00       		.byte	0
 7339 039d 40       		.uleb128 0x40
 7340 039e 34       		.uleb128 0x34
 7341 039f 00       		.byte	0
 7342 03a0 03       		.uleb128 0x3
 7343 03a1 0E       		.uleb128 0xe
 7344 03a2 3A       		.uleb128 0x3a
 7345 03a3 0B       		.uleb128 0xb
 7346 03a4 3B       		.uleb128 0x3b
 7347 03a5 0B       		.uleb128 0xb
 7348 03a6 49       		.uleb128 0x49
 7349 03a7 13       		.uleb128 0x13
 7350 03a8 02       		.uleb128 0x2
 7351 03a9 18       		.uleb128 0x18
 7352 03aa 00       		.byte	0
 7353 03ab 00       		.byte	0
 7354 03ac 41       		.uleb128 0x41
 7355 03ad 34       		.uleb128 0x34
 7356 03ae 00       		.byte	0
 7357 03af 03       		.uleb128 0x3
 7358 03b0 0E       		.uleb128 0xe
 7359 03b1 3A       		.uleb128 0x3a
 7360 03b2 0B       		.uleb128 0xb
 7361 03b3 3B       		.uleb128 0x3b
 7362 03b4 05       		.uleb128 0x5
 7363 03b5 49       		.uleb128 0x49
 7364 03b6 13       		.uleb128 0x13
 7365 03b7 3F       		.uleb128 0x3f
 7366 03b8 19       		.uleb128 0x19
 7367 03b9 3C       		.uleb128 0x3c
 7368 03ba 19       		.uleb128 0x19
 7369 03bb 00       		.byte	0
 7370 03bc 00       		.byte	0
 7371 03bd 42       		.uleb128 0x42
 7372 03be 34       		.uleb128 0x34
 7373 03bf 00       		.byte	0
 7374 03c0 03       		.uleb128 0x3
 7375 03c1 0E       		.uleb128 0xe
 7376 03c2 3A       		.uleb128 0x3a
 7377 03c3 0B       		.uleb128 0xb
 7378 03c4 3B       		.uleb128 0x3b
 7379 03c5 0B       		.uleb128 0xb
 7380 03c6 49       		.uleb128 0x49
 7381 03c7 13       		.uleb128 0x13
 7382 03c8 3F       		.uleb128 0x3f
 7383 03c9 19       		.uleb128 0x19
 7384 03ca 3C       		.uleb128 0x3c
 7385 03cb 19       		.uleb128 0x19
 7386 03cc 00       		.byte	0
 7387 03cd 00       		.byte	0
 7388 03ce 43       		.uleb128 0x43
 7389 03cf 2E       		.uleb128 0x2e
 7390 03d0 01       		.byte	0x1
 7391 03d1 3F       		.uleb128 0x3f
 7392 03d2 19       		.uleb128 0x19
 7393 03d3 03       		.uleb128 0x3
ARM GAS  C:\Users\danit\AppData\Local\Temp\ccBFeYtw.s 			page 133


 7394 03d4 0E       		.uleb128 0xe
 7395 03d5 3A       		.uleb128 0x3a
 7396 03d6 0B       		.uleb128 0xb
 7397 03d7 3B       		.uleb128 0x3b
 7398 03d8 0B       		.uleb128 0xb
 7399 03d9 27       		.uleb128 0x27
 7400 03da 19       		.uleb128 0x19
 7401 03db 3C       		.uleb128 0x3c
 7402 03dc 19       		.uleb128 0x19
 7403 03dd 01       		.uleb128 0x1
 7404 03de 13       		.uleb128 0x13
 7405 03df 00       		.byte	0
 7406 03e0 00       		.byte	0
 7407 03e1 44       		.uleb128 0x44
 7408 03e2 2E       		.uleb128 0x2e
 7409 03e3 01       		.byte	0x1
 7410 03e4 3F       		.uleb128 0x3f
 7411 03e5 19       		.uleb128 0x19
 7412 03e6 03       		.uleb128 0x3
 7413 03e7 0E       		.uleb128 0xe
 7414 03e8 3A       		.uleb128 0x3a
 7415 03e9 0B       		.uleb128 0xb
 7416 03ea 3B       		.uleb128 0x3b
 7417 03eb 0B       		.uleb128 0xb
 7418 03ec 27       		.uleb128 0x27
 7419 03ed 19       		.uleb128 0x19
 7420 03ee 49       		.uleb128 0x49
 7421 03ef 13       		.uleb128 0x13
 7422 03f0 3C       		.uleb128 0x3c
 7423 03f1 19       		.uleb128 0x19
 7424 03f2 01       		.uleb128 0x1
 7425 03f3 13       		.uleb128 0x13
 7426 03f4 00       		.byte	0
 7427 03f5 00       		.byte	0
 7428 03f6 45       		.uleb128 0x45
 7429 03f7 2E       		.uleb128 0x2e
 7430 03f8 00       		.byte	0
 7431 03f9 3F       		.uleb128 0x3f
 7432 03fa 19       		.uleb128 0x19
 7433 03fb 03       		.uleb128 0x3
 7434 03fc 0E       		.uleb128 0xe
 7435 03fd 3A       		.uleb128 0x3a
 7436 03fe 0B       		.uleb128 0xb
 7437 03ff 3B       		.uleb128 0x3b
 7438 0400 0B       		.uleb128 0xb
 7439 0401 27       		.uleb128 0x27
 7440 0402 19       		.uleb128 0x19
 7441 0403 49       		.uleb128 0x49
 7442 0404 13       		.uleb128 0x13
 7443 0405 3C       		.uleb128 0x3c
 7444 0406 19       		.uleb128 0x19
 7445 0407 00       		.byte	0
 7446 0408 00       		.byte	0
 7447 0409 46       		.uleb128 0x46
 7448 040a 2E       		.uleb128 0x2e
 7449 040b 01       		.byte	0x1
 7450 040c 3F       		.uleb128 0x3f
ARM GAS  C:\Users\danit\AppData\Local\Temp\ccBFeYtw.s 			page 134


 7451 040d 19       		.uleb128 0x19
 7452 040e 03       		.uleb128 0x3
 7453 040f 0E       		.uleb128 0xe
 7454 0410 3A       		.uleb128 0x3a
 7455 0411 0B       		.uleb128 0xb
 7456 0412 3B       		.uleb128 0x3b
 7457 0413 05       		.uleb128 0x5
 7458 0414 27       		.uleb128 0x27
 7459 0415 19       		.uleb128 0x19
 7460 0416 3C       		.uleb128 0x3c
 7461 0417 19       		.uleb128 0x19
 7462 0418 01       		.uleb128 0x1
 7463 0419 13       		.uleb128 0x13
 7464 041a 00       		.byte	0
 7465 041b 00       		.byte	0
 7466 041c 47       		.uleb128 0x47
 7467 041d 2E       		.uleb128 0x2e
 7468 041e 01       		.byte	0x1
 7469 041f 3F       		.uleb128 0x3f
 7470 0420 19       		.uleb128 0x19
 7471 0421 03       		.uleb128 0x3
 7472 0422 0E       		.uleb128 0xe
 7473 0423 3A       		.uleb128 0x3a
 7474 0424 0B       		.uleb128 0xb
 7475 0425 3B       		.uleb128 0x3b
 7476 0426 0B       		.uleb128 0xb
 7477 0427 27       		.uleb128 0x27
 7478 0428 19       		.uleb128 0x19
 7479 0429 49       		.uleb128 0x49
 7480 042a 13       		.uleb128 0x13
 7481 042b 3C       		.uleb128 0x3c
 7482 042c 19       		.uleb128 0x19
 7483 042d 00       		.byte	0
 7484 042e 00       		.byte	0
 7485 042f 00       		.byte	0
 7486              		.section	.debug_loc,"",%progbits
 7487              	.Ldebug_loc0:
 7488              	.LLST0:
 7489 0000 00000000 		.4byte	.LVL0
 7490 0004 11000000 		.4byte	.LVL1-1
 7491 0008 0100     		.2byte	0x1
 7492 000a 50       		.byte	0x50
 7493 000b 11000000 		.4byte	.LVL1-1
 7494 000f 1C000000 		.4byte	.LFE118
 7495 0013 0400     		.2byte	0x4
 7496 0015 F3       		.byte	0xf3
 7497 0016 01       		.uleb128 0x1
 7498 0017 50       		.byte	0x50
 7499 0018 9F       		.byte	0x9f
 7500 0019 00000000 		.4byte	0
 7501 001d 00000000 		.4byte	0
 7502              	.LLST1:
 7503 0021 00000000 		.4byte	.LVL8
 7504 0025 0C000000 		.4byte	.LVL9
 7505 0029 0600     		.2byte	0x6
 7506 002b 50       		.byte	0x50
 7507 002c 93       		.byte	0x93
ARM GAS  C:\Users\danit\AppData\Local\Temp\ccBFeYtw.s 			page 135


 7508 002d 04       		.uleb128 0x4
 7509 002e 51       		.byte	0x51
 7510 002f 93       		.byte	0x93
 7511 0030 04       		.uleb128 0x4
 7512 0031 0C000000 		.4byte	.LVL9
 7513 0035 4C000000 		.4byte	.LFE131
 7514 0039 0600     		.2byte	0x6
 7515 003b F3       		.byte	0xf3
 7516 003c 03       		.uleb128 0x3
 7517 003d F5       		.byte	0xf5
 7518 003e 00       		.uleb128 0
 7519 003f 25       		.uleb128 0x25
 7520 0040 9F       		.byte	0x9f
 7521 0041 00000000 		.4byte	0
 7522 0045 00000000 		.4byte	0
 7523              	.LLST2:
 7524 0049 00000000 		.4byte	.LVL15
 7525 004d 0C000000 		.4byte	.LVL16
 7526 0051 0600     		.2byte	0x6
 7527 0053 50       		.byte	0x50
 7528 0054 93       		.byte	0x93
 7529 0055 04       		.uleb128 0x4
 7530 0056 51       		.byte	0x51
 7531 0057 93       		.byte	0x93
 7532 0058 04       		.uleb128 0x4
 7533 0059 0C000000 		.4byte	.LVL16
 7534 005d 2C000000 		.4byte	.LFE132
 7535 0061 0600     		.2byte	0x6
 7536 0063 F3       		.byte	0xf3
 7537 0064 03       		.uleb128 0x3
 7538 0065 F5       		.byte	0xf5
 7539 0066 00       		.uleb128 0
 7540 0067 25       		.uleb128 0x25
 7541 0068 9F       		.byte	0x9f
 7542 0069 00000000 		.4byte	0
 7543 006d 00000000 		.4byte	0
 7544              	.LLST3:
 7545 0071 00000000 		.4byte	.LVL22
 7546 0075 08000000 		.4byte	.LVL23
 7547 0079 0100     		.2byte	0x1
 7548 007b 50       		.byte	0x50
 7549 007c 08000000 		.4byte	.LVL23
 7550 0080 C0010000 		.4byte	.LFE136
 7551 0084 0400     		.2byte	0x4
 7552 0086 F3       		.byte	0xf3
 7553 0087 01       		.uleb128 0x1
 7554 0088 50       		.byte	0x50
 7555 0089 9F       		.byte	0x9f
 7556 008a 00000000 		.4byte	0
 7557 008e 00000000 		.4byte	0
 7558              	.LLST4:
 7559 0092 00000000 		.4byte	.LVL22
 7560 0096 0C000000 		.4byte	.LVL24
 7561 009a 0100     		.2byte	0x1
 7562 009c 51       		.byte	0x51
 7563 009d 0C000000 		.4byte	.LVL24
 7564 00a1 C0010000 		.4byte	.LFE136
ARM GAS  C:\Users\danit\AppData\Local\Temp\ccBFeYtw.s 			page 136


 7565 00a5 0400     		.2byte	0x4
 7566 00a7 F3       		.byte	0xf3
 7567 00a8 01       		.uleb128 0x1
 7568 00a9 51       		.byte	0x51
 7569 00aa 9F       		.byte	0x9f
 7570 00ab 00000000 		.4byte	0
 7571 00af 00000000 		.4byte	0
 7572              	.LLST5:
 7573 00b3 00000000 		.4byte	.LVL22
 7574 00b7 15000000 		.4byte	.LVL25-1
 7575 00bb 0100     		.2byte	0x1
 7576 00bd 52       		.byte	0x52
 7577 00be 15000000 		.4byte	.LVL25-1
 7578 00c2 C0010000 		.4byte	.LFE136
 7579 00c6 0200     		.2byte	0x2
 7580 00c8 91       		.byte	0x91
 7581 00c9 54       		.sleb128 -44
 7582 00ca 00000000 		.4byte	0
 7583 00ce 00000000 		.4byte	0
 7584              	.LLST6:
 7585 00d2 00000000 		.4byte	.LVL22
 7586 00d6 15000000 		.4byte	.LVL25-1
 7587 00da 0100     		.2byte	0x1
 7588 00dc 53       		.byte	0x53
 7589 00dd 15000000 		.4byte	.LVL25-1
 7590 00e1 C0010000 		.4byte	.LFE136
 7591 00e5 0100     		.2byte	0x1
 7592 00e7 56       		.byte	0x56
 7593 00e8 00000000 		.4byte	0
 7594 00ec 00000000 		.4byte	0
 7595              	.LLST7:
 7596 00f0 00000000 		.4byte	.LVL22
 7597 00f4 3E010000 		.4byte	.LVL45
 7598 00f8 0200     		.2byte	0x2
 7599 00fa 91       		.byte	0x91
 7600 00fb 00       		.sleb128 0
 7601 00fc 3E010000 		.4byte	.LVL45
 7602 0100 C0010000 		.4byte	.LFE136
 7603 0104 0200     		.2byte	0x2
 7604 0106 91       		.byte	0x91
 7605 0107 00       		.sleb128 0
 7606 0108 00000000 		.4byte	0
 7607 010c 00000000 		.4byte	0
 7608              	.LLST8:
 7609 0110 00000000 		.4byte	.LVL22
 7610 0114 3E010000 		.4byte	.LVL45
 7611 0118 0200     		.2byte	0x2
 7612 011a 91       		.byte	0x91
 7613 011b 04       		.sleb128 4
 7614 011c 3E010000 		.4byte	.LVL45
 7615 0120 C0010000 		.4byte	.LFE136
 7616 0124 0200     		.2byte	0x2
 7617 0126 91       		.byte	0x91
 7618 0127 04       		.sleb128 4
 7619 0128 00000000 		.4byte	0
 7620 012c 00000000 		.4byte	0
 7621              	.LLST9:
ARM GAS  C:\Users\danit\AppData\Local\Temp\ccBFeYtw.s 			page 137


 7622 0130 00000000 		.4byte	.LVL22
 7623 0134 3E010000 		.4byte	.LVL45
 7624 0138 0200     		.2byte	0x2
 7625 013a 91       		.byte	0x91
 7626 013b 08       		.sleb128 8
 7627 013c 3E010000 		.4byte	.LVL45
 7628 0140 C0010000 		.4byte	.LFE136
 7629 0144 0200     		.2byte	0x2
 7630 0146 91       		.byte	0x91
 7631 0147 08       		.sleb128 8
 7632 0148 00000000 		.4byte	0
 7633 014c 00000000 		.4byte	0
 7634              	.LLST10:
 7635 0150 00000000 		.4byte	.LVL22
 7636 0154 3E010000 		.4byte	.LVL45
 7637 0158 0200     		.2byte	0x2
 7638 015a 91       		.byte	0x91
 7639 015b 0C       		.sleb128 12
 7640 015c 3E010000 		.4byte	.LVL45
 7641 0160 C0010000 		.4byte	.LFE136
 7642 0164 0200     		.2byte	0x2
 7643 0166 91       		.byte	0x91
 7644 0167 0C       		.sleb128 12
 7645 0168 00000000 		.4byte	0
 7646 016c 00000000 		.4byte	0
 7647              	.LLST11:
 7648 0170 00000000 		.4byte	.LVL22
 7649 0174 3E010000 		.4byte	.LVL45
 7650 0178 0200     		.2byte	0x2
 7651 017a 91       		.byte	0x91
 7652 017b 10       		.sleb128 16
 7653 017c 3E010000 		.4byte	.LVL45
 7654 0180 C0010000 		.4byte	.LFE136
 7655 0184 0200     		.2byte	0x2
 7656 0186 91       		.byte	0x91
 7657 0187 10       		.sleb128 16
 7658 0188 00000000 		.4byte	0
 7659 018c 00000000 		.4byte	0
 7660              	.LLST12:
 7661 0190 00000000 		.4byte	.LVL22
 7662 0194 3E010000 		.4byte	.LVL45
 7663 0198 0200     		.2byte	0x2
 7664 019a 91       		.byte	0x91
 7665 019b 14       		.sleb128 20
 7666 019c 3E010000 		.4byte	.LVL45
 7667 01a0 C0010000 		.4byte	.LFE136
 7668 01a4 0200     		.2byte	0x2
 7669 01a6 91       		.byte	0x91
 7670 01a7 14       		.sleb128 20
 7671 01a8 00000000 		.4byte	0
 7672 01ac 00000000 		.4byte	0
 7673              	.LLST13:
 7674 01b0 00000000 		.4byte	.LVL67
 7675 01b4 11000000 		.4byte	.LVL69-1
 7676 01b8 0100     		.2byte	0x1
 7677 01ba 50       		.byte	0x50
 7678 01bb 11000000 		.4byte	.LVL69-1
ARM GAS  C:\Users\danit\AppData\Local\Temp\ccBFeYtw.s 			page 138


 7679 01bf 30010000 		.4byte	.LVL94
 7680 01c3 0100     		.2byte	0x1
 7681 01c5 54       		.byte	0x54
 7682 01c6 30010000 		.4byte	.LVL94
 7683 01ca B0010000 		.4byte	.LFE137
 7684 01ce 0400     		.2byte	0x4
 7685 01d0 F3       		.byte	0xf3
 7686 01d1 01       		.uleb128 0x1
 7687 01d2 50       		.byte	0x50
 7688 01d3 9F       		.byte	0x9f
 7689 01d4 00000000 		.4byte	0
 7690 01d8 00000000 		.4byte	0
 7691              	.LLST14:
 7692 01dc 00000000 		.4byte	.LVL67
 7693 01e0 06000000 		.4byte	.LVL68
 7694 01e4 0100     		.2byte	0x1
 7695 01e6 51       		.byte	0x51
 7696 01e7 06000000 		.4byte	.LVL68
 7697 01eb B0010000 		.4byte	.LFE137
 7698 01ef 0400     		.2byte	0x4
 7699 01f1 F3       		.byte	0xf3
 7700 01f2 01       		.uleb128 0x1
 7701 01f3 51       		.byte	0x51
 7702 01f4 9F       		.byte	0x9f
 7703 01f5 00000000 		.4byte	0
 7704 01f9 00000000 		.4byte	0
 7705              	.LLST15:
 7706 01fd 00000000 		.4byte	.LVL67
 7707 0201 11000000 		.4byte	.LVL69-1
 7708 0205 0100     		.2byte	0x1
 7709 0207 52       		.byte	0x52
 7710 0208 11000000 		.4byte	.LVL69-1
 7711 020c B0010000 		.4byte	.LFE137
 7712 0210 0400     		.2byte	0x4
 7713 0212 F3       		.byte	0xf3
 7714 0213 01       		.uleb128 0x1
 7715 0214 52       		.byte	0x52
 7716 0215 9F       		.byte	0x9f
 7717 0216 00000000 		.4byte	0
 7718 021a 00000000 		.4byte	0
 7719              	.LLST16:
 7720 021e 00000000 		.4byte	.LVL95
 7721 0222 0D000000 		.4byte	.LVL97-1
 7722 0226 0100     		.2byte	0x1
 7723 0228 50       		.byte	0x50
 7724 0229 0D000000 		.4byte	.LVL97-1
 7725 022d 42000000 		.4byte	.LVL103
 7726 0231 0100     		.2byte	0x1
 7727 0233 54       		.byte	0x54
 7728 0234 42000000 		.4byte	.LVL103
 7729 0238 45000000 		.4byte	.LVL104-1
 7730 023c 0100     		.2byte	0x1
 7731 023e 50       		.byte	0x50
 7732 023f 45000000 		.4byte	.LVL104-1
 7733 0243 46000000 		.4byte	.LVL104
 7734 0247 0400     		.2byte	0x4
 7735 0249 F3       		.byte	0xf3
ARM GAS  C:\Users\danit\AppData\Local\Temp\ccBFeYtw.s 			page 139


 7736 024a 01       		.uleb128 0x1
 7737 024b 50       		.byte	0x50
 7738 024c 9F       		.byte	0x9f
 7739 024d 46000000 		.4byte	.LVL104
 7740 0251 B8000000 		.4byte	.LVL116
 7741 0255 0100     		.2byte	0x1
 7742 0257 54       		.byte	0x54
 7743 0258 B8000000 		.4byte	.LVL116
 7744 025c BB000000 		.4byte	.LVL117-1
 7745 0260 0100     		.2byte	0x1
 7746 0262 50       		.byte	0x50
 7747 0263 BB000000 		.4byte	.LVL117-1
 7748 0267 BC000000 		.4byte	.LVL117
 7749 026b 0400     		.2byte	0x4
 7750 026d F3       		.byte	0xf3
 7751 026e 01       		.uleb128 0x1
 7752 026f 50       		.byte	0x50
 7753 0270 9F       		.byte	0x9f
 7754 0271 BC000000 		.4byte	.LVL117
 7755 0275 08010000 		.4byte	.LVL128
 7756 0279 0100     		.2byte	0x1
 7757 027b 54       		.byte	0x54
 7758 027c 08010000 		.4byte	.LVL128
 7759 0280 0B010000 		.4byte	.LVL129-1
 7760 0284 0100     		.2byte	0x1
 7761 0286 50       		.byte	0x50
 7762 0287 0B010000 		.4byte	.LVL129-1
 7763 028b 94010000 		.4byte	.LFE138
 7764 028f 0100     		.2byte	0x1
 7765 0291 54       		.byte	0x54
 7766 0292 00000000 		.4byte	0
 7767 0296 00000000 		.4byte	0
 7768              	.LLST17:
 7769 029a 00000000 		.4byte	.LVL95
 7770 029e 08000000 		.4byte	.LVL96
 7771 02a2 0100     		.2byte	0x1
 7772 02a4 51       		.byte	0x51
 7773 02a5 08000000 		.4byte	.LVL96
 7774 02a9 3A000000 		.4byte	.LVL102
 7775 02ad 0100     		.2byte	0x1
 7776 02af 55       		.byte	0x55
 7777 02b0 3A000000 		.4byte	.LVL102
 7778 02b4 46000000 		.4byte	.LVL104
 7779 02b8 0400     		.2byte	0x4
 7780 02ba F3       		.byte	0xf3
 7781 02bb 01       		.uleb128 0x1
 7782 02bc 51       		.byte	0x51
 7783 02bd 9F       		.byte	0x9f
 7784 02be 46000000 		.4byte	.LVL104
 7785 02c2 48000000 		.4byte	.LVL105
 7786 02c6 0100     		.2byte	0x1
 7787 02c8 55       		.byte	0x55
 7788 02c9 48000000 		.4byte	.LVL105
 7789 02cd E6000000 		.4byte	.LVL124
 7790 02d1 0400     		.2byte	0x4
 7791 02d3 F3       		.byte	0xf3
 7792 02d4 01       		.uleb128 0x1
ARM GAS  C:\Users\danit\AppData\Local\Temp\ccBFeYtw.s 			page 140


 7793 02d5 51       		.byte	0x51
 7794 02d6 9F       		.byte	0x9f
 7795 02d7 E6000000 		.4byte	.LVL124
 7796 02db 10010000 		.4byte	.LVL130
 7797 02df 0100     		.2byte	0x1
 7798 02e1 55       		.byte	0x55
 7799 02e2 10010000 		.4byte	.LVL130
 7800 02e6 2C010000 		.4byte	.LVL134
 7801 02ea 0400     		.2byte	0x4
 7802 02ec F3       		.byte	0xf3
 7803 02ed 01       		.uleb128 0x1
 7804 02ee 51       		.byte	0x51
 7805 02ef 9F       		.byte	0x9f
 7806 02f0 2C010000 		.4byte	.LVL134
 7807 02f4 94010000 		.4byte	.LFE138
 7808 02f8 0100     		.2byte	0x1
 7809 02fa 55       		.byte	0x55
 7810 02fb 00000000 		.4byte	0
 7811 02ff 00000000 		.4byte	0
 7812              	.LLST18:
 7813 0303 00000000 		.4byte	.LVL95
 7814 0307 0D000000 		.4byte	.LVL97-1
 7815 030b 0100     		.2byte	0x1
 7816 030d 52       		.byte	0x52
 7817 030e 0D000000 		.4byte	.LVL97-1
 7818 0312 3A000000 		.4byte	.LVL102
 7819 0316 0100     		.2byte	0x1
 7820 0318 56       		.byte	0x56
 7821 0319 3A000000 		.4byte	.LVL102
 7822 031d 46000000 		.4byte	.LVL104
 7823 0321 0400     		.2byte	0x4
 7824 0323 F3       		.byte	0xf3
 7825 0324 01       		.uleb128 0x1
 7826 0325 52       		.byte	0x52
 7827 0326 9F       		.byte	0x9f
 7828 0327 46000000 		.4byte	.LVL104
 7829 032b 80000000 		.4byte	.LVL110
 7830 032f 0100     		.2byte	0x1
 7831 0331 56       		.byte	0x56
 7832 0332 80000000 		.4byte	.LVL110
 7833 0336 BC000000 		.4byte	.LVL117
 7834 033a 0400     		.2byte	0x4
 7835 033c F3       		.byte	0xf3
 7836 033d 01       		.uleb128 0x1
 7837 033e 52       		.byte	0x52
 7838 033f 9F       		.byte	0x9f
 7839 0340 BC000000 		.4byte	.LVL117
 7840 0344 C2000000 		.4byte	.LVL118
 7841 0348 0100     		.2byte	0x1
 7842 034a 56       		.byte	0x56
 7843 034b C2000000 		.4byte	.LVL118
 7844 034f D0000000 		.4byte	.LVL120
 7845 0353 0400     		.2byte	0x4
 7846 0355 F3       		.byte	0xf3
 7847 0356 01       		.uleb128 0x1
 7848 0357 52       		.byte	0x52
 7849 0358 9F       		.byte	0x9f
ARM GAS  C:\Users\danit\AppData\Local\Temp\ccBFeYtw.s 			page 141


 7850 0359 D0000000 		.4byte	.LVL120
 7851 035d D6000000 		.4byte	.LVL121
 7852 0361 0100     		.2byte	0x1
 7853 0363 56       		.byte	0x56
 7854 0364 D6000000 		.4byte	.LVL121
 7855 0368 E6000000 		.4byte	.LVL124
 7856 036c 0400     		.2byte	0x4
 7857 036e F3       		.byte	0xf3
 7858 036f 01       		.uleb128 0x1
 7859 0370 52       		.byte	0x52
 7860 0371 9F       		.byte	0x9f
 7861 0372 E6000000 		.4byte	.LVL124
 7862 0376 E8000000 		.4byte	.LVL125
 7863 037a 0100     		.2byte	0x1
 7864 037c 56       		.byte	0x56
 7865 037d E8000000 		.4byte	.LVL125
 7866 0381 18010000 		.4byte	.LVL131
 7867 0385 0400     		.2byte	0x4
 7868 0387 F3       		.byte	0xf3
 7869 0388 01       		.uleb128 0x1
 7870 0389 52       		.byte	0x52
 7871 038a 9F       		.byte	0x9f
 7872 038b 18010000 		.4byte	.LVL131
 7873 038f 1C010000 		.4byte	.LVL132
 7874 0393 0100     		.2byte	0x1
 7875 0395 56       		.byte	0x56
 7876 0396 1C010000 		.4byte	.LVL132
 7877 039a 94010000 		.4byte	.LFE138
 7878 039e 0400     		.2byte	0x4
 7879 03a0 F3       		.byte	0xf3
 7880 03a1 01       		.uleb128 0x1
 7881 03a2 52       		.byte	0x52
 7882 03a3 9F       		.byte	0x9f
 7883 03a4 00000000 		.4byte	0
 7884 03a8 00000000 		.4byte	0
 7885              	.LLST19:
 7886 03ac 84000000 		.4byte	.LVL111
 7887 03b0 8A000000 		.4byte	.LVL112
 7888 03b4 0100     		.2byte	0x1
 7889 03b6 50       		.byte	0x50
 7890 03b7 C8000000 		.4byte	.LVL119
 7891 03bb D0000000 		.4byte	.LVL120
 7892 03bf 0100     		.2byte	0x1
 7893 03c1 50       		.byte	0x50
 7894 03c2 E0000000 		.4byte	.LVL123
 7895 03c6 E6000000 		.4byte	.LVL124
 7896 03ca 0100     		.2byte	0x1
 7897 03cc 50       		.byte	0x50
 7898 03cd 24010000 		.4byte	.LVL133
 7899 03d1 2C010000 		.4byte	.LVL134
 7900 03d5 0100     		.2byte	0x1
 7901 03d7 50       		.byte	0x50
 7902 03d8 00000000 		.4byte	0
 7903 03dc 00000000 		.4byte	0
 7904              	.LLST20:
 7905 03e0 00000000 		.4byte	.LVL135
 7906 03e4 0D000000 		.4byte	.LVL137-1
ARM GAS  C:\Users\danit\AppData\Local\Temp\ccBFeYtw.s 			page 142


 7907 03e8 0100     		.2byte	0x1
 7908 03ea 50       		.byte	0x50
 7909 03eb 0D000000 		.4byte	.LVL137-1
 7910 03ef 36000000 		.4byte	.LVL142
 7911 03f3 0100     		.2byte	0x1
 7912 03f5 54       		.byte	0x54
 7913 03f6 36000000 		.4byte	.LVL142
 7914 03fa 39000000 		.4byte	.LVL143-1
 7915 03fe 0100     		.2byte	0x1
 7916 0400 50       		.byte	0x50
 7917 0401 39000000 		.4byte	.LVL143-1
 7918 0405 3A000000 		.4byte	.LVL143
 7919 0409 0400     		.2byte	0x4
 7920 040b F3       		.byte	0xf3
 7921 040c 01       		.uleb128 0x1
 7922 040d 50       		.byte	0x50
 7923 040e 9F       		.byte	0x9f
 7924 040f 3A000000 		.4byte	.LVL143
 7925 0413 60000000 		.4byte	.LVL147
 7926 0417 0100     		.2byte	0x1
 7927 0419 54       		.byte	0x54
 7928 041a 60000000 		.4byte	.LVL147
 7929 041e 63000000 		.4byte	.LVL148-1
 7930 0422 0100     		.2byte	0x1
 7931 0424 50       		.byte	0x50
 7932 0425 63000000 		.4byte	.LVL148-1
 7933 0429 64000000 		.4byte	.LVL148
 7934 042d 0400     		.2byte	0x4
 7935 042f F3       		.byte	0xf3
 7936 0430 01       		.uleb128 0x1
 7937 0431 50       		.byte	0x50
 7938 0432 9F       		.byte	0x9f
 7939 0433 64000000 		.4byte	.LVL148
 7940 0437 74000000 		.4byte	.LVL149
 7941 043b 0100     		.2byte	0x1
 7942 043d 54       		.byte	0x54
 7943 043e 74000000 		.4byte	.LVL149
 7944 0442 77000000 		.4byte	.LVL150-1
 7945 0446 0100     		.2byte	0x1
 7946 0448 50       		.byte	0x50
 7947 0449 77000000 		.4byte	.LVL150-1
 7948 044d A4000000 		.4byte	.LFE139
 7949 0451 0400     		.2byte	0x4
 7950 0453 F3       		.byte	0xf3
 7951 0454 01       		.uleb128 0x1
 7952 0455 50       		.byte	0x50
 7953 0456 9F       		.byte	0x9f
 7954 0457 00000000 		.4byte	0
 7955 045b 00000000 		.4byte	0
 7956              	.LLST21:
 7957 045f 00000000 		.4byte	.LVL135
 7958 0463 08000000 		.4byte	.LVL136
 7959 0467 0100     		.2byte	0x1
 7960 0469 51       		.byte	0x51
 7961 046a 08000000 		.4byte	.LVL136
 7962 046e 36000000 		.4byte	.LVL142
 7963 0472 0100     		.2byte	0x1
ARM GAS  C:\Users\danit\AppData\Local\Temp\ccBFeYtw.s 			page 143


 7964 0474 55       		.byte	0x55
 7965 0475 36000000 		.4byte	.LVL142
 7966 0479 3A000000 		.4byte	.LVL143
 7967 047d 0400     		.2byte	0x4
 7968 047f F3       		.byte	0xf3
 7969 0480 01       		.uleb128 0x1
 7970 0481 51       		.byte	0x51
 7971 0482 9F       		.byte	0x9f
 7972 0483 3A000000 		.4byte	.LVL143
 7973 0487 60000000 		.4byte	.LVL147
 7974 048b 0100     		.2byte	0x1
 7975 048d 55       		.byte	0x55
 7976 048e 60000000 		.4byte	.LVL147
 7977 0492 64000000 		.4byte	.LVL148
 7978 0496 0400     		.2byte	0x4
 7979 0498 F3       		.byte	0xf3
 7980 0499 01       		.uleb128 0x1
 7981 049a 51       		.byte	0x51
 7982 049b 9F       		.byte	0x9f
 7983 049c 64000000 		.4byte	.LVL148
 7984 04a0 74000000 		.4byte	.LVL149
 7985 04a4 0100     		.2byte	0x1
 7986 04a6 55       		.byte	0x55
 7987 04a7 74000000 		.4byte	.LVL149
 7988 04ab A4000000 		.4byte	.LFE139
 7989 04af 0400     		.2byte	0x4
 7990 04b1 F3       		.byte	0xf3
 7991 04b2 01       		.uleb128 0x1
 7992 04b3 51       		.byte	0x51
 7993 04b4 9F       		.byte	0x9f
 7994 04b5 00000000 		.4byte	0
 7995 04b9 00000000 		.4byte	0
 7996              	.LLST22:
 7997 04bd 00000000 		.4byte	.LVL135
 7998 04c1 0D000000 		.4byte	.LVL137-1
 7999 04c5 0100     		.2byte	0x1
 8000 04c7 52       		.byte	0x52
 8001 04c8 0D000000 		.4byte	.LVL137-1
 8002 04cc 26000000 		.4byte	.LVL140
 8003 04d0 0100     		.2byte	0x1
 8004 04d2 56       		.byte	0x56
 8005 04d3 26000000 		.4byte	.LVL140
 8006 04d7 3A000000 		.4byte	.LVL143
 8007 04db 0400     		.2byte	0x4
 8008 04dd F3       		.byte	0xf3
 8009 04de 01       		.uleb128 0x1
 8010 04df 52       		.byte	0x52
 8011 04e0 9F       		.byte	0x9f
 8012 04e1 3A000000 		.4byte	.LVL143
 8013 04e5 3C000000 		.4byte	.LVL144
 8014 04e9 0100     		.2byte	0x1
 8015 04eb 56       		.byte	0x56
 8016 04ec 3C000000 		.4byte	.LVL144
 8017 04f0 A4000000 		.4byte	.LFE139
 8018 04f4 0400     		.2byte	0x4
 8019 04f6 F3       		.byte	0xf3
 8020 04f7 01       		.uleb128 0x1
ARM GAS  C:\Users\danit\AppData\Local\Temp\ccBFeYtw.s 			page 144


 8021 04f8 52       		.byte	0x52
 8022 04f9 9F       		.byte	0x9f
 8023 04fa 00000000 		.4byte	0
 8024 04fe 00000000 		.4byte	0
 8025              	.LLST23:
 8026 0502 00000000 		.4byte	.LVL151
 8027 0506 0D000000 		.4byte	.LVL153-1
 8028 050a 0100     		.2byte	0x1
 8029 050c 50       		.byte	0x50
 8030 050d 0D000000 		.4byte	.LVL153-1
 8031 0511 2E000000 		.4byte	.LVL157
 8032 0515 0100     		.2byte	0x1
 8033 0517 54       		.byte	0x54
 8034 0518 2E000000 		.4byte	.LVL157
 8035 051c 33000000 		.4byte	.LVL158-1
 8036 0520 0100     		.2byte	0x1
 8037 0522 50       		.byte	0x50
 8038 0523 33000000 		.4byte	.LVL158-1
 8039 0527 44000000 		.4byte	.LVL160
 8040 052b 0100     		.2byte	0x1
 8041 052d 54       		.byte	0x54
 8042 052e 44000000 		.4byte	.LVL160
 8043 0532 47000000 		.4byte	.LVL161-1
 8044 0536 0100     		.2byte	0x1
 8045 0538 50       		.byte	0x50
 8046 0539 47000000 		.4byte	.LVL161-1
 8047 053d 48000000 		.4byte	.LVL161
 8048 0541 0400     		.2byte	0x4
 8049 0543 F3       		.byte	0xf3
 8050 0544 01       		.uleb128 0x1
 8051 0545 50       		.byte	0x50
 8052 0546 9F       		.byte	0x9f
 8053 0547 48000000 		.4byte	.LVL161
 8054 054b 4D000000 		.4byte	.LVL162-1
 8055 054f 0100     		.2byte	0x1
 8056 0551 50       		.byte	0x50
 8057 0552 4D000000 		.4byte	.LVL162-1
 8058 0556 74000000 		.4byte	.LVL167
 8059 055a 0100     		.2byte	0x1
 8060 055c 54       		.byte	0x54
 8061 055d 74000000 		.4byte	.LVL167
 8062 0561 77000000 		.4byte	.LVL168-1
 8063 0565 0100     		.2byte	0x1
 8064 0567 50       		.byte	0x50
 8065 0568 77000000 		.4byte	.LVL168-1
 8066 056c 78000000 		.4byte	.LVL168
 8067 0570 0400     		.2byte	0x4
 8068 0572 F3       		.byte	0xf3
 8069 0573 01       		.uleb128 0x1
 8070 0574 50       		.byte	0x50
 8071 0575 9F       		.byte	0x9f
 8072 0576 78000000 		.4byte	.LVL168
 8073 057a 90000000 		.4byte	.LVL170
 8074 057e 0100     		.2byte	0x1
 8075 0580 54       		.byte	0x54
 8076 0581 90000000 		.4byte	.LVL170
 8077 0585 93000000 		.4byte	.LVL171-1
ARM GAS  C:\Users\danit\AppData\Local\Temp\ccBFeYtw.s 			page 145


 8078 0589 0100     		.2byte	0x1
 8079 058b 50       		.byte	0x50
 8080 058c 93000000 		.4byte	.LVL171-1
 8081 0590 CC000000 		.4byte	.LFE140
 8082 0594 0400     		.2byte	0x4
 8083 0596 F3       		.byte	0xf3
 8084 0597 01       		.uleb128 0x1
 8085 0598 50       		.byte	0x50
 8086 0599 9F       		.byte	0x9f
 8087 059a 00000000 		.4byte	0
 8088 059e 00000000 		.4byte	0
 8089              	.LLST24:
 8090 05a2 00000000 		.4byte	.LVL151
 8091 05a6 08000000 		.4byte	.LVL152
 8092 05aa 0100     		.2byte	0x1
 8093 05ac 51       		.byte	0x51
 8094 05ad 08000000 		.4byte	.LVL152
 8095 05b1 44000000 		.4byte	.LVL160
 8096 05b5 0100     		.2byte	0x1
 8097 05b7 55       		.byte	0x55
 8098 05b8 44000000 		.4byte	.LVL160
 8099 05bc 48000000 		.4byte	.LVL161
 8100 05c0 0400     		.2byte	0x4
 8101 05c2 F3       		.byte	0xf3
 8102 05c3 01       		.uleb128 0x1
 8103 05c4 51       		.byte	0x51
 8104 05c5 9F       		.byte	0x9f
 8105 05c6 48000000 		.4byte	.LVL161
 8106 05ca 74000000 		.4byte	.LVL167
 8107 05ce 0100     		.2byte	0x1
 8108 05d0 55       		.byte	0x55
 8109 05d1 74000000 		.4byte	.LVL167
 8110 05d5 78000000 		.4byte	.LVL168
 8111 05d9 0400     		.2byte	0x4
 8112 05db F3       		.byte	0xf3
 8113 05dc 01       		.uleb128 0x1
 8114 05dd 51       		.byte	0x51
 8115 05de 9F       		.byte	0x9f
 8116 05df 78000000 		.4byte	.LVL168
 8117 05e3 90000000 		.4byte	.LVL170
 8118 05e7 0100     		.2byte	0x1
 8119 05e9 55       		.byte	0x55
 8120 05ea 90000000 		.4byte	.LVL170
 8121 05ee CC000000 		.4byte	.LFE140
 8122 05f2 0400     		.2byte	0x4
 8123 05f4 F3       		.byte	0xf3
 8124 05f5 01       		.uleb128 0x1
 8125 05f6 51       		.byte	0x51
 8126 05f7 9F       		.byte	0x9f
 8127 05f8 00000000 		.4byte	0
 8128 05fc 00000000 		.4byte	0
 8129              	.LLST25:
 8130 0600 00000000 		.4byte	.LVL151
 8131 0604 0D000000 		.4byte	.LVL153-1
 8132 0608 0100     		.2byte	0x1
 8133 060a 52       		.byte	0x52
 8134 060b 0D000000 		.4byte	.LVL153-1
ARM GAS  C:\Users\danit\AppData\Local\Temp\ccBFeYtw.s 			page 146


 8135 060f 26000000 		.4byte	.LVL156
 8136 0613 0100     		.2byte	0x1
 8137 0615 56       		.byte	0x56
 8138 0616 26000000 		.4byte	.LVL156
 8139 061a 50000000 		.4byte	.LVL163
 8140 061e 0400     		.2byte	0x4
 8141 0620 F3       		.byte	0xf3
 8142 0621 01       		.uleb128 0x1
 8143 0622 52       		.byte	0x52
 8144 0623 9F       		.byte	0x9f
 8145 0624 50000000 		.4byte	.LVL163
 8146 0628 52000000 		.4byte	.LVL164
 8147 062c 0100     		.2byte	0x1
 8148 062e 56       		.byte	0x56
 8149 062f 52000000 		.4byte	.LVL164
 8150 0633 CC000000 		.4byte	.LFE140
 8151 0637 0400     		.2byte	0x4
 8152 0639 F3       		.byte	0xf3
 8153 063a 01       		.uleb128 0x1
 8154 063b 52       		.byte	0x52
 8155 063c 9F       		.byte	0x9f
 8156 063d 00000000 		.4byte	0
 8157 0641 00000000 		.4byte	0
 8158              	.LLST26:
 8159 0645 00000000 		.4byte	.LVL172
 8160 0649 0D000000 		.4byte	.LVL174-1
 8161 064d 0100     		.2byte	0x1
 8162 064f 50       		.byte	0x50
 8163 0650 0D000000 		.4byte	.LVL174-1
 8164 0654 36000000 		.4byte	.LVL179
 8165 0658 0100     		.2byte	0x1
 8166 065a 54       		.byte	0x54
 8167 065b 36000000 		.4byte	.LVL179
 8168 065f 39000000 		.4byte	.LVL180-1
 8169 0663 0100     		.2byte	0x1
 8170 0665 50       		.byte	0x50
 8171 0666 39000000 		.4byte	.LVL180-1
 8172 066a 3A000000 		.4byte	.LVL180
 8173 066e 0400     		.2byte	0x4
 8174 0670 F3       		.byte	0xf3
 8175 0671 01       		.uleb128 0x1
 8176 0672 50       		.byte	0x50
 8177 0673 9F       		.byte	0x9f
 8178 0674 3A000000 		.4byte	.LVL180
 8179 0678 5E000000 		.4byte	.LVL184
 8180 067c 0100     		.2byte	0x1
 8181 067e 54       		.byte	0x54
 8182 067f 5E000000 		.4byte	.LVL184
 8183 0683 61000000 		.4byte	.LVL185-1
 8184 0687 0100     		.2byte	0x1
 8185 0689 50       		.byte	0x50
 8186 068a 61000000 		.4byte	.LVL185-1
 8187 068e 62000000 		.4byte	.LVL185
 8188 0692 0400     		.2byte	0x4
 8189 0694 F3       		.byte	0xf3
 8190 0695 01       		.uleb128 0x1
 8191 0696 50       		.byte	0x50
ARM GAS  C:\Users\danit\AppData\Local\Temp\ccBFeYtw.s 			page 147


 8192 0697 9F       		.byte	0x9f
 8193 0698 62000000 		.4byte	.LVL185
 8194 069c 6E000000 		.4byte	.LVL186
 8195 06a0 0100     		.2byte	0x1
 8196 06a2 54       		.byte	0x54
 8197 06a3 6E000000 		.4byte	.LVL186
 8198 06a7 71000000 		.4byte	.LVL187-1
 8199 06ab 0100     		.2byte	0x1
 8200 06ad 50       		.byte	0x50
 8201 06ae 71000000 		.4byte	.LVL187-1
 8202 06b2 9C000000 		.4byte	.LFE141
 8203 06b6 0400     		.2byte	0x4
 8204 06b8 F3       		.byte	0xf3
 8205 06b9 01       		.uleb128 0x1
 8206 06ba 50       		.byte	0x50
 8207 06bb 9F       		.byte	0x9f
 8208 06bc 00000000 		.4byte	0
 8209 06c0 00000000 		.4byte	0
 8210              	.LLST27:
 8211 06c4 00000000 		.4byte	.LVL172
 8212 06c8 08000000 		.4byte	.LVL173
 8213 06cc 0100     		.2byte	0x1
 8214 06ce 51       		.byte	0x51
 8215 06cf 08000000 		.4byte	.LVL173
 8216 06d3 36000000 		.4byte	.LVL179
 8217 06d7 0100     		.2byte	0x1
 8218 06d9 55       		.byte	0x55
 8219 06da 36000000 		.4byte	.LVL179
 8220 06de 3A000000 		.4byte	.LVL180
 8221 06e2 0400     		.2byte	0x4
 8222 06e4 F3       		.byte	0xf3
 8223 06e5 01       		.uleb128 0x1
 8224 06e6 51       		.byte	0x51
 8225 06e7 9F       		.byte	0x9f
 8226 06e8 3A000000 		.4byte	.LVL180
 8227 06ec 5E000000 		.4byte	.LVL184
 8228 06f0 0100     		.2byte	0x1
 8229 06f2 55       		.byte	0x55
 8230 06f3 5E000000 		.4byte	.LVL184
 8231 06f7 62000000 		.4byte	.LVL185
 8232 06fb 0400     		.2byte	0x4
 8233 06fd F3       		.byte	0xf3
 8234 06fe 01       		.uleb128 0x1
 8235 06ff 51       		.byte	0x51
 8236 0700 9F       		.byte	0x9f
 8237 0701 62000000 		.4byte	.LVL185
 8238 0705 6E000000 		.4byte	.LVL186
 8239 0709 0100     		.2byte	0x1
 8240 070b 55       		.byte	0x55
 8241 070c 6E000000 		.4byte	.LVL186
 8242 0710 9C000000 		.4byte	.LFE141
 8243 0714 0400     		.2byte	0x4
 8244 0716 F3       		.byte	0xf3
 8245 0717 01       		.uleb128 0x1
 8246 0718 51       		.byte	0x51
 8247 0719 9F       		.byte	0x9f
 8248 071a 00000000 		.4byte	0
ARM GAS  C:\Users\danit\AppData\Local\Temp\ccBFeYtw.s 			page 148


 8249 071e 00000000 		.4byte	0
 8250              	.LLST28:
 8251 0722 00000000 		.4byte	.LVL172
 8252 0726 0D000000 		.4byte	.LVL174-1
 8253 072a 0100     		.2byte	0x1
 8254 072c 52       		.byte	0x52
 8255 072d 0D000000 		.4byte	.LVL174-1
 8256 0731 26000000 		.4byte	.LVL177
 8257 0735 0100     		.2byte	0x1
 8258 0737 56       		.byte	0x56
 8259 0738 26000000 		.4byte	.LVL177
 8260 073c 3A000000 		.4byte	.LVL180
 8261 0740 0400     		.2byte	0x4
 8262 0742 F3       		.byte	0xf3
 8263 0743 01       		.uleb128 0x1
 8264 0744 52       		.byte	0x52
 8265 0745 9F       		.byte	0x9f
 8266 0746 3A000000 		.4byte	.LVL180
 8267 074a 3C000000 		.4byte	.LVL181
 8268 074e 0100     		.2byte	0x1
 8269 0750 56       		.byte	0x56
 8270 0751 3C000000 		.4byte	.LVL181
 8271 0755 9C000000 		.4byte	.LFE141
 8272 0759 0400     		.2byte	0x4
 8273 075b F3       		.byte	0xf3
 8274 075c 01       		.uleb128 0x1
 8275 075d 52       		.byte	0x52
 8276 075e 9F       		.byte	0x9f
 8277 075f 00000000 		.4byte	0
 8278 0763 00000000 		.4byte	0
 8279              		.section	.debug_aranges,"",%progbits
 8280 0000 D4000000 		.4byte	0xd4
 8281 0004 0200     		.2byte	0x2
 8282 0006 00000000 		.4byte	.Ldebug_info0
 8283 000a 04       		.byte	0x4
 8284 000b 00       		.byte	0
 8285 000c 0000     		.2byte	0
 8286 000e 0000     		.2byte	0
 8287 0010 00000000 		.4byte	.LFB118
 8288 0014 1C000000 		.4byte	.LFE118-.LFB118
 8289 0018 00000000 		.4byte	.LFB119
 8290 001c 4C010000 		.4byte	.LFE119-.LFB119
 8291 0020 00000000 		.4byte	.LFB121
 8292 0024 18000000 		.4byte	.LFE121-.LFB121
 8293 0028 00000000 		.4byte	.LFB122
 8294 002c 0C000000 		.4byte	.LFE122-.LFB122
 8295 0030 00000000 		.4byte	.LFB123
 8296 0034 0C000000 		.4byte	.LFE123-.LFB123
 8297 0038 00000000 		.4byte	.LFB124
 8298 003c 0C000000 		.4byte	.LFE124-.LFB124
 8299 0040 00000000 		.4byte	.LFB125
 8300 0044 10000000 		.4byte	.LFE125-.LFB125
 8301 0048 00000000 		.4byte	.LFB126
 8302 004c 0C000000 		.4byte	.LFE126-.LFB126
 8303 0050 00000000 		.4byte	.LFB127
 8304 0054 0C000000 		.4byte	.LFE127-.LFB127
 8305 0058 00000000 		.4byte	.LFB128
ARM GAS  C:\Users\danit\AppData\Local\Temp\ccBFeYtw.s 			page 149


 8306 005c 24000000 		.4byte	.LFE128-.LFB128
 8307 0060 00000000 		.4byte	.LFB129
 8308 0064 0C000000 		.4byte	.LFE129-.LFB129
 8309 0068 00000000 		.4byte	.LFB130
 8310 006c 24000000 		.4byte	.LFE130-.LFB130
 8311 0070 00000000 		.4byte	.LFB131
 8312 0074 4C000000 		.4byte	.LFE131-.LFB131
 8313 0078 00000000 		.4byte	.LFB132
 8314 007c 2C000000 		.4byte	.LFE132-.LFB132
 8315 0080 00000000 		.4byte	.LFB133
 8316 0084 0C000000 		.4byte	.LFE133-.LFB133
 8317 0088 00000000 		.4byte	.LFB134
 8318 008c 0C000000 		.4byte	.LFE134-.LFB134
 8319 0090 00000000 		.4byte	.LFB135
 8320 0094 18000000 		.4byte	.LFE135-.LFB135
 8321 0098 00000000 		.4byte	.LFB136
 8322 009c C0010000 		.4byte	.LFE136-.LFB136
 8323 00a0 00000000 		.4byte	.LFB120
 8324 00a4 BC030000 		.4byte	.LFE120-.LFB120
 8325 00a8 00000000 		.4byte	.LFB137
 8326 00ac B0010000 		.4byte	.LFE137-.LFB137
 8327 00b0 00000000 		.4byte	.LFB138
 8328 00b4 94010000 		.4byte	.LFE138-.LFB138
 8329 00b8 00000000 		.4byte	.LFB139
 8330 00bc A4000000 		.4byte	.LFE139-.LFB139
 8331 00c0 00000000 		.4byte	.LFB140
 8332 00c4 CC000000 		.4byte	.LFE140-.LFB140
 8333 00c8 00000000 		.4byte	.LFB141
 8334 00cc 9C000000 		.4byte	.LFE141-.LFB141
 8335 00d0 00000000 		.4byte	0
 8336 00d4 00000000 		.4byte	0
 8337              		.section	.debug_ranges,"",%progbits
 8338              	.Ldebug_ranges0:
 8339 0000 40000000 		.4byte	.LBB14
 8340 0004 E0000000 		.4byte	.LBE14
 8341 0008 8C020000 		.4byte	.LBB19
 8342 000c B8020000 		.4byte	.LBE19
 8343 0010 A0030000 		.4byte	.LBB21
 8344 0014 BC030000 		.4byte	.LBE21
 8345 0018 00000000 		.4byte	0
 8346 001c 00000000 		.4byte	0
 8347 0020 F4000000 		.4byte	.LBB16
 8348 0024 F6000000 		.4byte	.LBE16
 8349 0028 F8000000 		.4byte	.LBB17
 8350 002c FC000000 		.4byte	.LBE17
 8351 0030 00000000 		.4byte	0
 8352 0034 00000000 		.4byte	0
 8353 0038 46010000 		.4byte	.LBB18
 8354 003c 52020000 		.4byte	.LBE18
 8355 0040 B8020000 		.4byte	.LBB20
 8356 0044 A0030000 		.4byte	.LBE20
 8357 0048 00000000 		.4byte	0
 8358 004c 00000000 		.4byte	0
 8359 0050 00010000 		.4byte	.LBB22
 8360 0054 02010000 		.4byte	.LBE22
 8361 0058 04010000 		.4byte	.LBB25
 8362 005c 06010000 		.4byte	.LBE25
ARM GAS  C:\Users\danit\AppData\Local\Temp\ccBFeYtw.s 			page 150


 8363 0060 00000000 		.4byte	0
 8364 0064 00000000 		.4byte	0
 8365 0068 2C010000 		.4byte	.LBB26
 8366 006c 32010000 		.4byte	.LBE26
 8367 0070 34010000 		.4byte	.LBB29
 8368 0074 36010000 		.4byte	.LBE29
 8369 0078 00000000 		.4byte	0
 8370 007c 00000000 		.4byte	0
 8371 0080 54000000 		.4byte	.LBB30
 8372 0084 56000000 		.4byte	.LBE30
 8373 0088 58000000 		.4byte	.LBB33
 8374 008c 5A000000 		.4byte	.LBE33
 8375 0090 00000000 		.4byte	0
 8376 0094 00000000 		.4byte	0
 8377 0098 64000000 		.4byte	.LBB34
 8378 009c 6A000000 		.4byte	.LBE34
 8379 00a0 6C000000 		.4byte	.LBB37
 8380 00a4 6E000000 		.4byte	.LBE37
 8381 00a8 00000000 		.4byte	0
 8382 00ac 00000000 		.4byte	0
 8383 00b0 52000000 		.4byte	.LBB38
 8384 00b4 54000000 		.4byte	.LBE38
 8385 00b8 56000000 		.4byte	.LBB41
 8386 00bc 58000000 		.4byte	.LBE41
 8387 00c0 00000000 		.4byte	0
 8388 00c4 00000000 		.4byte	0
 8389 00c8 62000000 		.4byte	.LBB42
 8390 00cc 64000000 		.4byte	.LBE42
 8391 00d0 66000000 		.4byte	.LBB45
 8392 00d4 68000000 		.4byte	.LBE45
 8393 00d8 00000000 		.4byte	0
 8394 00dc 00000000 		.4byte	0
 8395 00e0 00000000 		.4byte	.LFB118
 8396 00e4 1C000000 		.4byte	.LFE118
 8397 00e8 00000000 		.4byte	.LFB119
 8398 00ec 4C010000 		.4byte	.LFE119
 8399 00f0 00000000 		.4byte	.LFB121
 8400 00f4 18000000 		.4byte	.LFE121
 8401 00f8 00000000 		.4byte	.LFB122
 8402 00fc 0C000000 		.4byte	.LFE122
 8403 0100 00000000 		.4byte	.LFB123
 8404 0104 0C000000 		.4byte	.LFE123
 8405 0108 00000000 		.4byte	.LFB124
 8406 010c 0C000000 		.4byte	.LFE124
 8407 0110 00000000 		.4byte	.LFB125
 8408 0114 10000000 		.4byte	.LFE125
 8409 0118 00000000 		.4byte	.LFB126
 8410 011c 0C000000 		.4byte	.LFE126
 8411 0120 00000000 		.4byte	.LFB127
 8412 0124 0C000000 		.4byte	.LFE127
 8413 0128 00000000 		.4byte	.LFB128
 8414 012c 24000000 		.4byte	.LFE128
 8415 0130 00000000 		.4byte	.LFB129
 8416 0134 0C000000 		.4byte	.LFE129
 8417 0138 00000000 		.4byte	.LFB130
 8418 013c 24000000 		.4byte	.LFE130
 8419 0140 00000000 		.4byte	.LFB131
ARM GAS  C:\Users\danit\AppData\Local\Temp\ccBFeYtw.s 			page 151


 8420 0144 4C000000 		.4byte	.LFE131
 8421 0148 00000000 		.4byte	.LFB132
 8422 014c 2C000000 		.4byte	.LFE132
 8423 0150 00000000 		.4byte	.LFB133
 8424 0154 0C000000 		.4byte	.LFE133
 8425 0158 00000000 		.4byte	.LFB134
 8426 015c 0C000000 		.4byte	.LFE134
 8427 0160 00000000 		.4byte	.LFB135
 8428 0164 18000000 		.4byte	.LFE135
 8429 0168 00000000 		.4byte	.LFB136
 8430 016c C0010000 		.4byte	.LFE136
 8431 0170 00000000 		.4byte	.LFB120
 8432 0174 BC030000 		.4byte	.LFE120
 8433 0178 00000000 		.4byte	.LFB137
 8434 017c B0010000 		.4byte	.LFE137
 8435 0180 00000000 		.4byte	.LFB138
 8436 0184 94010000 		.4byte	.LFE138
 8437 0188 00000000 		.4byte	.LFB139
 8438 018c A4000000 		.4byte	.LFE139
 8439 0190 00000000 		.4byte	.LFB140
 8440 0194 CC000000 		.4byte	.LFE140
 8441 0198 00000000 		.4byte	.LFB141
 8442 019c 9C000000 		.4byte	.LFE141
 8443 01a0 00000000 		.4byte	0
 8444 01a4 00000000 		.4byte	0
 8445              		.section	.debug_line,"",%progbits
 8446              	.Ldebug_line0:
 8447 0000 3F080000 		.section	.debug_str,"MS",%progbits,1
 8447      0200A303 
 8447      00000201 
 8447      FB0E0D00 
 8447      01010101 
 8448              	.LASF126:
 8449 0000 63727569 		.ascii	"cruiseAccel\000"
 8449      73654163 
 8449      63656C00 
 8450              	.LASF175:
 8451 000c 65657072 		.ascii	"eeprom_write_period\000"
 8451      6F6D5F77 
 8451      72697465 
 8451      5F706572 
 8451      696F6400 
 8452              	.LASF62:
 8453 0020 70776D63 		.ascii	"pwmchannel_t\000"
 8453      68616E6E 
 8453      656C5F74 
 8453      00
 8454              	.LASF195:
 8455 002d 63685468 		.ascii	"chThdSleep\000"
 8455      64536C65 
 8455      657000
 8456              	.LASF196:
 8457 0038 73747263 		.ascii	"strcmp\000"
 8457      6D7000
 8458              	.LASF115:
 8459 003f 68696768 		.ascii	"high_cell_volt_num\000"
 8459      5F63656C 
ARM GAS  C:\Users\danit\AppData\Local\Temp\ccBFeYtw.s 			page 152


 8459      6C5F766F 
 8459      6C745F6E 
 8459      756D00
 8460              	.LASF41:
 8461 0052 44494552 		.ascii	"DIER\000"
 8461      00
 8462              	.LASF3:
 8463 0057 73697A65 		.ascii	"size_t\000"
 8463      5F7400
 8464              	.LASF77:
 8465 005e 4D494E5F 		.ascii	"MIN_REGEN_BRAKE\000"
 8465      52454745 
 8465      4E5F4252 
 8465      414B4500 
 8466              	.LASF148:
 8467 006e 737A616D 		.ascii	"szam\000"
 8467      00
 8468              	.LASF24:
 8469 0073 75696E74 		.ascii	"uint64_t\000"
 8469      36345F74 
 8469      00
 8470              	.LASF158:
 8471 007c 4D41585F 		.ascii	"MAX_D\000"
 8471      4400
 8472              	.LASF4:
 8473 0082 5F5F7569 		.ascii	"__uint8_t\000"
 8473      6E74385F 
 8473      7400
 8474              	.LASF47:
 8475 008c 43434D52 		.ascii	"CCMR3\000"
 8475      3300
 8476              	.LASF11:
 8477 0092 6C6F6E67 		.ascii	"long int\000"
 8477      20696E74 
 8477      00
 8478              	.LASF58:
 8479 009b 70657269 		.ascii	"period\000"
 8479      6F6400
 8480              	.LASF16:
 8481 00a2 6C6F6E67 		.ascii	"long long unsigned int\000"
 8481      206C6F6E 
 8481      6720756E 
 8481      7369676E 
 8481      65642069 
 8482              	.LASF34:
 8483 00b9 42617365 		.ascii	"BaseChannelVMT\000"
 8483      4368616E 
 8483      6E656C56 
 8483      4D5400
 8484              	.LASF99:
 8485 00c8 7061636B 		.ascii	"pack_soc\000"
 8485      5F736F63 
 8485      00
 8486              	.LASF49:
 8487 00d1 43435236 		.ascii	"CCR6\000"
 8487      00
 8488              	.LASF183:
ARM GAS  C:\Users\danit\AppData\Local\Temp\ccBFeYtw.s 			page 153


 8489 00d6 49544D5F 		.ascii	"ITM_RxBuffer\000"
 8489      52784275 
 8489      66666572 
 8489      00
 8490              	.LASF119:
 8491 00e3 7061636B 		.ascii	"pack_open_voltage\000"
 8491      5F6F7065 
 8491      6E5F766F 
 8491      6C746167 
 8491      6500
 8492              	.LASF45:
 8493 00f5 42445452 		.ascii	"BDTR\000"
 8493      00
 8494              	.LASF67:
 8495 00fa 66726571 		.ascii	"frequency\000"
 8495      75656E63 
 8495      7900
 8496              	.LASF53:
 8497 0104 50574D5F 		.ascii	"PWM_READY\000"
 8497      52454144 
 8497      5900
 8498              	.LASF55:
 8499 010e 50574D44 		.ascii	"PWMDriver\000"
 8499      72697665 
 8499      7200
 8500              	.LASF20:
 8501 0118 696E7431 		.ascii	"int16_t\000"
 8501      365F7400 
 8502              	.LASF43:
 8503 0120 43434D52 		.ascii	"CCMR2\000"
 8503      3200
 8504              	.LASF190:
 8505 0126 73706565 		.ascii	"speedRPM_TO_KMPH\000"
 8505      6452504D 
 8505      5F544F5F 
 8505      4B4D5048 
 8505      00
 8506              	.LASF2:
 8507 0137 7369676E 		.ascii	"signed char\000"
 8507      65642063 
 8507      68617200 
 8508              	.LASF135:
 8509 0143 63727569 		.ascii	"cruisePID\000"
 8509      73655049 
 8509      4400
 8510              	.LASF50:
 8511 014d 73746D33 		.ascii	"stm32_tim_t\000"
 8511      325F7469 
 8511      6D5F7400 
 8512              	.LASF25:
 8513 0159 626F6F6C 		.ascii	"bool_t\000"
 8513      5F7400
 8514              	.LASF143:
 8515 0160 6D656173 		.ascii	"measGetValue_2\000"
 8515      47657456 
 8515      616C7565 
 8515      5F3200
ARM GAS  C:\Users\danit\AppData\Local\Temp\ccBFeYtw.s 			page 154


 8516              	.LASF161:
 8517 016f 73617665 		.ascii	"save_pwm\000"
 8517      5F70776D 
 8517      00
 8518              	.LASF128:
 8519 0178 63727569 		.ascii	"cruiseAccelOk\000"
 8519      73654163 
 8519      63656C4F 
 8519      6B00
 8520              	.LASF56:
 8521 0186 73746174 		.ascii	"state\000"
 8521      6500
 8522              	.LASF68:
 8523 018c 6368616E 		.ascii	"channels\000"
 8523      6E656C73 
 8523      00
 8524              	.LASF92:
 8525 0195 4D454153 		.ascii	"MEAS2_CURR1\000"
 8525      325F4355 
 8525      52523100 
 8526              	.LASF72:
 8527 01a1 5F5F7661 		.ascii	"__va_list\000"
 8527      5F6C6973 
 8527      7400
 8528              	.LASF104:
 8529 01ab 696E7465 		.ascii	"internal_temp\000"
 8529      726E616C 
 8529      5F74656D 
 8529      7000
 8530              	.LASF44:
 8531 01b9 43434552 		.ascii	"CCER\000"
 8531      00
 8532              	.LASF83:
 8533 01be 4D41585F 		.ascii	"MAX_STR_ANGLE\000"
 8533      5354525F 
 8533      414E474C 
 8533      4500
 8534              	.LASF14:
 8535 01cc 6C6F6E67 		.ascii	"long long int\000"
 8535      206C6F6E 
 8535      6720696E 
 8535      7400
 8536              	.LASF21:
 8537 01da 75696E74 		.ascii	"uint16_t\000"
 8537      31365F74 
 8537      00
 8538              	.LASF63:
 8539 01e3 70776D63 		.ascii	"pwmcnt_t\000"
 8539      6E745F74 
 8539      00
 8540              	.LASF76:
 8541 01ec 4D41585F 		.ascii	"MAX_THROTTLE\000"
 8541      5448524F 
 8541      54544C45 
 8541      00
 8542              	.LASF105:
 8543 01f9 6C6F775F 		.ascii	"low_cell_volt\000"
ARM GAS  C:\Users\danit\AppData\Local\Temp\ccBFeYtw.s 			page 155


 8543      63656C6C 
 8543      5F766F6C 
 8543      7400
 8544              	.LASF187:
 8545 0207 70776D53 		.ascii	"pwmStart\000"
 8545      74617274 
 8545      00
 8546              	.LASF111:
 8547 0210 7061636B 		.ascii	"pack_dcl\000"
 8547      5F64636C 
 8547      00
 8548              	.LASF138:
 8549 0219 4D696E52 		.ascii	"MinResult\000"
 8549      6573756C 
 8549      7400
 8550              	.LASF114:
 8551 0223 6D696E69 		.ascii	"minimum_cell\000"
 8551      6D756D5F 
 8551      63656C6C 
 8551      00
 8552              	.LASF184:
 8553 0230 50574D44 		.ascii	"PWMD5\000"
 8553      3500
 8554              	.LASF12:
 8555 0236 5F5F7569 		.ascii	"__uint32_t\000"
 8555      6E743332 
 8555      5F7400
 8556              	.LASF101:
 8557 0241 7061636B 		.ascii	"pack_amps\000"
 8557      5F616D70 
 8557      7300
 8558              	.LASF120:
 8559 024b 63727569 		.ascii	"cruiseEnable\000"
 8559      7365456E 
 8559      61626C65 
 8559      00
 8560              	.LASF96:
 8561 0258 626D7349 		.ascii	"bmsItems\000"
 8561      74656D73 
 8561      00
 8562              	.LASF73:
 8563 0261 76615F6C 		.ascii	"va_list\000"
 8563      69737400 
 8564              	.LASF6:
 8565 0269 5F5F696E 		.ascii	"__int16_t\000"
 8565      7431365F 
 8565      7400
 8566              	.LASF170:
 8567 0273 63727569 		.ascii	"cruise_indicator_index\000"
 8567      73655F69 
 8567      6E646963 
 8567      61746F72 
 8567      5F696E64 
 8568              	.LASF82:
 8569 028a 4D494E5F 		.ascii	"MIN_STR_ANGLE\000"
 8569      5354525F 
 8569      414E474C 
ARM GAS  C:\Users\danit\AppData\Local\Temp\ccBFeYtw.s 			page 156


 8569      4500
 8570              	.LASF32:
 8571 0298 42617365 		.ascii	"BaseSequentialStream\000"
 8571      53657175 
 8571      656E7469 
 8571      616C5374 
 8571      7265616D 
 8572              	.LASF1:
 8573 02ad 756E7369 		.ascii	"unsigned int\000"
 8573      676E6564 
 8573      20696E74 
 8573      00
 8574              	.LASF179:
 8575 02ba 61636365 		.ascii	"accel_limit\000"
 8575      6C5F6C69 
 8575      6D697400 
 8576              	.LASF136:
 8577 02c6 496E7075 		.ascii	"Input\000"
 8577      7400
 8578              	.LASF84:
 8579 02cc 4C415354 		.ascii	"LAST_ITEM\000"
 8579      5F495445 
 8579      4D00
 8580              	.LASF168:
 8581 02d6 63727569 		.ascii	"cruise_on\000"
 8581      73655F6F 
 8581      6E00
 8582              	.LASF13:
 8583 02e0 6C6F6E67 		.ascii	"long unsigned int\000"
 8583      20756E73 
 8583      69676E65 
 8583      6420696E 
 8583      7400
 8584              	.LASF193:
 8585 02f2 73706565 		.ascii	"speedGetSpeed\000"
 8585      64476574 
 8585      53706565 
 8585      6400
 8586              	.LASF182:
 8587 0300 63727569 		.ascii	"cruise_pwmcfg\000"
 8587      73655F70 
 8587      776D6366 
 8587      6700
 8588              	.LASF98:
 8589 030e 7061636B 		.ascii	"pack_inst_volt\000"
 8589      5F696E73 
 8589      745F766F 
 8589      6C7400
 8590              	.LASF36:
 8591 031d 67657474 		.ascii	"gett\000"
 8591      00
 8592              	.LASF149:
 8593 0322 636D645F 		.ascii	"cmd_cruise\000"
 8593      63727569 
 8593      736500
 8594              	.LASF122:
 8595 032d 72656765 		.ascii	"regen_brakeEnable\000"
ARM GAS  C:\Users\danit\AppData\Local\Temp\ccBFeYtw.s 			page 157


 8595      6E5F6272 
 8595      616B6545 
 8595      6E61626C 
 8595      6500
 8596              	.LASF81:
 8597 033f 544F5441 		.ascii	"TOTAL_METER\000"
 8597      4C5F4D45 
 8597      54455200 
 8598              	.LASF134:
 8599 034b 63727569 		.ascii	"cruiseGet\000"
 8599      73654765 
 8599      7400
 8600              	.LASF89:
 8601 0355 6E616D65 		.ascii	"name\000"
 8601      00
 8602              	.LASF153:
 8603 035a 65657072 		.ascii	"eepromitems\000"
 8603      6F6D6974 
 8603      656D7300 
 8604              	.LASF88:
 8605 0366 73697A65 		.ascii	"size\000"
 8605      00
 8606              	.LASF9:
 8607 036b 73686F72 		.ascii	"short unsigned int\000"
 8607      7420756E 
 8607      7369676E 
 8607      65642069 
 8607      6E7400
 8608              	.LASF109:
 8609 037e 746F7461 		.ascii	"total_pack_cycle\000"
 8609      6C5F7061 
 8609      636B5F63 
 8609      79636C65 
 8609      00
 8610              	.LASF147:
 8611 038f 636D645F 		.ascii	"cmd_setcruisevalues\000"
 8611      73657463 
 8611      72756973 
 8611      6576616C 
 8611      75657300 
 8612              	.LASF117:
 8613 03a3 73757070 		.ascii	"supply_12v\000"
 8613      6C795F31 
 8613      327600
 8614              	.LASF185:
 8615 03ae 626D7369 		.ascii	"bmsitems\000"
 8615      74656D73 
 8615      00
 8616              	.LASF27:
 8617 03b7 6D73675F 		.ascii	"msg_t\000"
 8617      7400
 8618              	.LASF157:
 8619 03bd 4D41585F 		.ascii	"MAX_I\000"
 8619      4900
 8620              	.LASF103:
 8621 03c3 61766572 		.ascii	"average_temp\000"
 8621      6167655F 
ARM GAS  C:\Users\danit\AppData\Local\Temp\ccBFeYtw.s 			page 158


 8621      74656D70 
 8621      00
 8622              	.LASF10:
 8623 03d0 5F5F696E 		.ascii	"__int32_t\000"
 8623      7433325F 
 8623      7400
 8624              	.LASF65:
 8625 03da 63616C6C 		.ascii	"callback\000"
 8625      6261636B 
 8625      00
 8626              	.LASF37:
 8627 03e3 77726974 		.ascii	"writet\000"
 8627      657400
 8628              	.LASF156:
 8629 03ea 4D41585F 		.ascii	"MAX_P\000"
 8629      5000
 8630              	.LASF110:
 8631 03f0 7061636B 		.ascii	"pack_ccl\000"
 8631      5F63636C 
 8631      00
 8632              	.LASF180:
 8633 03f9 73756273 		.ascii	"substract\000"
 8633      74726163 
 8633      7400
 8634              	.LASF123:
 8635 0403 72656765 		.ascii	"regen_brakeDisable\000"
 8635      6E5F6272 
 8635      616B6544 
 8635      69736162 
 8635      6C6500
 8636              	.LASF194:
 8637 0416 65657072 		.ascii	"eepromWrite\000"
 8637      6F6D5772 
 8637      69746500 
 8638              	.LASF162:
 8639 0422 705F7461 		.ascii	"p_tag\000"
 8639      6700
 8640              	.LASF167:
 8641 0428 655F7461 		.ascii	"e_tag\000"
 8641      6700
 8642              	.LASF155:
 8643 042e 4D494E5F 		.ascii	"MIN_Result\000"
 8643      52657375 
 8643      6C7400
 8644              	.LASF121:
 8645 0439 63727569 		.ascii	"cruiseDisable\000"
 8645      73654469 
 8645      7361626C 
 8645      6500
 8646              	.LASF30:
 8647 0447 77726974 		.ascii	"write\000"
 8647      6500
 8648              	.LASF159:
 8649 044d 6272616B 		.ascii	"brake_pwm\000"
 8649      655F7077 
 8649      6D00
 8650              	.LASF35:
ARM GAS  C:\Users\danit\AppData\Local\Temp\ccBFeYtw.s 			page 159


 8651 0457 70757474 		.ascii	"putt\000"
 8651      00
 8652              	.LASF86:
 8653 045c 65657072 		.ascii	"eepromItem\000"
 8653      6F6D4974 
 8653      656D00
 8654              	.LASF141:
 8655 0467 4D617844 		.ascii	"MaxD\000"
 8655      00
 8656              	.LASF22:
 8657 046c 696E7433 		.ascii	"int32_t\000"
 8657      325F7400 
 8658              	.LASF17:
 8659 0474 73697A65 		.ascii	"sizetype\000"
 8659      74797065 
 8659      00
 8660              	.LASF150:
 8661 047d 4552524F 		.ascii	"ERROR\000"
 8661      5200
 8662              	.LASF87:
 8663 0483 61646472 		.ascii	"address\000"
 8663      65737300 
 8664              	.LASF40:
 8665 048b 534D4352 		.ascii	"SMCR\000"
 8665      00
 8666              	.LASF127:
 8667 0490 63727569 		.ascii	"cruiseDecelerat\000"
 8667      73654465 
 8667      63656C65 
 8667      72617400 
 8668              	.LASF133:
 8669 04a0 63727569 		.ascii	"cruiseGetPWM\000"
 8669      73654765 
 8669      7450574D 
 8669      00
 8670              	.LASF71:
 8671 04ad 5F5F676E 		.ascii	"__gnuc_va_list\000"
 8671      75635F76 
 8671      615F6C69 
 8671      737400
 8672              	.LASF116:
 8673 04bc 6C6F775F 		.ascii	"low_cell_volt_num\000"
 8673      63656C6C 
 8673      5F766F6C 
 8673      745F6E75 
 8673      6D00
 8674              	.LASF198:
 8675 04ce 474E5520 		.ascii	"GNU C 4.9.3 20150529 (release) [ARM/embedded-4_9-br"
 8675      4320342E 
 8675      392E3320 
 8675      32303135 
 8675      30353239 
 8676 0501 616E6368 		.ascii	"anch revision 224288] -mcpu=cortex-m4 -mno-thumb-in"
 8676      20726576 
 8676      6973696F 
 8676      6E203232 
 8676      34323838 
ARM GAS  C:\Users\danit\AppData\Local\Temp\ccBFeYtw.s 			page 160


 8677 0534 74657277 		.ascii	"terwork -mthumb -ggdb -O2 -fomit-frame-pointer -fal"
 8677      6F726B20 
 8677      2D6D7468 
 8677      756D6220 
 8677      2D676764 
 8678 0567 69676E2D 		.ascii	"ign-functions=16 -ffunction-sections -fdata-section"
 8678      66756E63 
 8678      74696F6E 
 8678      733D3136 
 8678      202D6666 
 8679 059a 73202D66 		.ascii	"s -fno-common\000"
 8679      6E6F2D63 
 8679      6F6D6D6F 
 8679      6E00
 8680              	.LASF139:
 8681 05a8 4D617850 		.ascii	"MaxP\000"
 8681      00
 8682              	.LASF85:
 8683 05ad 45455052 		.ascii	"EEPROM_ITEMS_NUM\000"
 8683      4F4D5F49 
 8683      54454D53 
 8683      5F4E554D 
 8683      00
 8684              	.LASF94:
 8685 05be 4D454153 		.ascii	"MEAS2_REGEN_BRAKE\000"
 8685      325F5245 
 8685      47454E5F 
 8685      4252414B 
 8685      4500
 8686              	.LASF152:
 8687 05d0 636D645F 		.ascii	"cmd_regen_brake\000"
 8687      72656765 
 8687      6E5F6272 
 8687      616B6500 
 8688              	.LASF173:
 8689 05e0 70657269 		.ascii	"period_null\000"
 8689      6F645F6E 
 8689      756C6C00 
 8690              	.LASF46:
 8691 05ec 444D4152 		.ascii	"DMAR\000"
 8691      00
 8692              	.LASF199:
 8693 05f1 7372632F 		.ascii	"src/cruise.c\000"
 8693      63727569 
 8693      73652E63 
 8693      00
 8694              	.LASF61:
 8695 05fe 70776D6D 		.ascii	"pwmmode_t\000"
 8695      6F64655F 
 8695      7400
 8696              	.LASF15:
 8697 0608 5F5F7569 		.ascii	"__uint64_t\000"
 8697      6E743634 
 8697      5F7400
 8698              	.LASF112:
 8699 0613 6D617869 		.ascii	"maximum_cell\000"
 8699      6D756D5F 
ARM GAS  C:\Users\danit\AppData\Local\Temp\ccBFeYtw.s 			page 161


 8699      63656C6C 
 8699      00
 8700              	.LASF29:
 8701 0620 73746B61 		.ascii	"stkalign_t\000"
 8701      6C69676E 
 8701      5F7400
 8702              	.LASF100:
 8703 062b 7061636B 		.ascii	"pack_healt\000"
 8703      5F686561 
 8703      6C7400
 8704              	.LASF60:
 8705 0636 70776D63 		.ascii	"pwmcallback_t\000"
 8705      616C6C62 
 8705      61636B5F 
 8705      7400
 8706              	.LASF181:
 8707 0644 63757272 		.ascii	"current_limit_status\000"
 8707      656E745F 
 8707      6C696D69 
 8707      745F7374 
 8707      61747573 
 8708              	.LASF172:
 8709 0659 77617361 		.ascii	"wasave_kmeter_eeprom\000"
 8709      76655F6B 
 8709      6D657465 
 8709      725F6565 
 8709      70726F6D 
 8710              	.LASF90:
 8711 066e 65657072 		.ascii	"eepromItemNames\000"
 8711      6F6D4974 
 8711      656D4E61 
 8711      6D657300 
 8712              	.LASF174:
 8713 067e 6F6C645F 		.ascii	"old_set\000"
 8713      73657400 
 8714              	.LASF106:
 8715 0686 68696768 		.ascii	"high_cell_volt\000"
 8715      5F63656C 
 8715      6C5F766F 
 8715      6C7400
 8716              	.LASF26:
 8717 0695 5F426F6F 		.ascii	"_Bool\000"
 8717      6C00
 8718              	.LASF197:
 8719 069b 61746F6C 		.ascii	"atol\000"
 8719      00
 8720              	.LASF5:
 8721 06a0 756E7369 		.ascii	"unsigned char\000"
 8721      676E6564 
 8721      20636861 
 8721      7200
 8722              	.LASF130:
 8723 06ae 63727569 		.ascii	"cruiseInit\000"
 8723      7365496E 
 8723      697400
 8724              	.LASF75:
 8725 06b9 4D494E5F 		.ascii	"MIN_THROTTLE\000"
ARM GAS  C:\Users\danit\AppData\Local\Temp\ccBFeYtw.s 			page 162


 8725      5448524F 
 8725      54544C45 
 8725      00
 8726              	.LASF203:
 8727 06c6 63727569 		.ascii	"cruiseGetCurrLimitSubstract\000"
 8727      73654765 
 8727      74437572 
 8727      724C696D 
 8727      69745375 
 8728              	.LASF7:
 8729 06e2 73686F72 		.ascii	"short int\000"
 8729      7420696E 
 8729      7400
 8730              	.LASF188:
 8731 06ec 65657072 		.ascii	"eepromRead\000"
 8731      6F6D5265 
 8731      616400
 8732              	.LASF107:
 8733 06f7 6176675F 		.ascii	"avg_cell_voltage\000"
 8733      63656C6C 
 8733      5F766F6C 
 8733      74616765 
 8733      00
 8734              	.LASF33:
 8735 0708 42617365 		.ascii	"BaseSequentialStreamVMT\000"
 8735      53657175 
 8735      656E7469 
 8735      616C5374 
 8735      7265616D 
 8736              	.LASF144:
 8737 0720 636D645F 		.ascii	"cmd_cruisevalues\000"
 8737      63727569 
 8737      73657661 
 8737      6C756573 
 8737      00
 8738              	.LASF192:
 8739 0731 73706565 		.ascii	"speedGetRpm\000"
 8739      64476574 
 8739      52706D00 
 8740              	.LASF125:
 8741 073d 63727569 		.ascii	"cruiseIndicator\000"
 8741      7365496E 
 8741      64696361 
 8741      746F7200 
 8742              	.LASF102:
 8743 074d 7061636B 		.ascii	"pack_resist\000"
 8743      5F726573 
 8743      69737400 
 8744              	.LASF108:
 8745 0759 7061636B 		.ascii	"pack_current\000"
 8745      5F637572 
 8745      72656E74 
 8745      00
 8746              	.LASF0:
 8747 0766 646F7562 		.ascii	"double\000"
 8747      6C6500
 8748              	.LASF23:
ARM GAS  C:\Users\danit\AppData\Local\Temp\ccBFeYtw.s 			page 163


 8749 076d 75696E74 		.ascii	"uint32_t\000"
 8749      33325F74 
 8749      00
 8750              	.LASF132:
 8751 0776 63727569 		.ascii	"cruiseReduction\000"
 8751      73655265 
 8751      64756374 
 8751      696F6E00 
 8752              	.LASF70:
 8753 0786 50574D43 		.ascii	"PWMConfig\000"
 8753      6F6E6669 
 8753      6700
 8754              	.LASF154:
 8755 0790 4D41585F 		.ascii	"MAX_Result\000"
 8755      52657375 
 8755      6C7400
 8756              	.LASF129:
 8757 079b 63727569 		.ascii	"cruiseDeceleratOk\000"
 8757      73654465 
 8757      63656C65 
 8757      7261744F 
 8757      6B00
 8758              	.LASF140:
 8759 07ad 4D617849 		.ascii	"MaxI\000"
 8759      00
 8760              	.LASF52:
 8761 07b2 50574D5F 		.ascii	"PWM_STOP\000"
 8761      53544F50 
 8761      00
 8762              	.LASF18:
 8763 07bb 63686172 		.ascii	"char\000"
 8763      00
 8764              	.LASF64:
 8765 07c0 6D6F6465 		.ascii	"mode\000"
 8765      00
 8766              	.LASF131:
 8767 07c5 63727569 		.ascii	"cruiseIncrease\000"
 8767      7365496E 
 8767      63726561 
 8767      736500
 8768              	.LASF57:
 8769 07d4 636F6E66 		.ascii	"config\000"
 8769      696700
 8770              	.LASF74:
 8771 07db 43525549 		.ascii	"CRUISE_CONTROLL\000"
 8771      53455F43 
 8771      4F4E5452 
 8771      4F4C4C00 
 8772              	.LASF8:
 8773 07eb 5F5F7569 		.ascii	"__uint16_t\000"
 8773      6E743136 
 8773      5F7400
 8774              	.LASF137:
 8775 07f6 4D617852 		.ascii	"MaxResult\000"
 8775      6573756C 
 8775      7400
 8776              	.LASF28:
ARM GAS  C:\Users\danit\AppData\Local\Temp\ccBFeYtw.s 			page 164


 8777 0800 73797374 		.ascii	"systime_t\000"
 8777      696D655F 
 8777      7400
 8778              	.LASF176:
 8779 080a 65657072 		.ascii	"eeprom_write\000"
 8779      6F6D5F77 
 8779      72697465 
 8779      00
 8780              	.LASF97:
 8781 0817 63757374 		.ascii	"custom_flag_1\000"
 8781      6F6D5F66 
 8781      6C61675F 
 8781      3100
 8782              	.LASF113:
 8783 0825 63757374 		.ascii	"custom_flag_2\000"
 8783      6F6D5F66 
 8783      6C61675F 
 8783      3200
 8784              	.LASF91:
 8785 0833 6D656173 		.ascii	"measChannels2\000"
 8785      4368616E 
 8785      6E656C73 
 8785      3200
 8786              	.LASF95:
 8787 0841 4D454153 		.ascii	"MEAS2_NUM_CH\000"
 8787      325F4E55 
 8787      4D5F4348 
 8787      00
 8788              	.LASF201:
 8789 084e 5F5F6170 		.ascii	"__ap\000"
 8789      00
 8790              	.LASF42:
 8791 0853 43434D52 		.ascii	"CCMR1\000"
 8791      3100
 8792              	.LASF171:
 8793 0859 63727569 		.ascii	"cruise_disable_period\000"
 8793      73655F64 
 8793      69736162 
 8793      6C655F70 
 8793      6572696F 
 8794              	.LASF66:
 8795 086f 50574D43 		.ascii	"PWMChannelConfig\000"
 8795      68616E6E 
 8795      656C436F 
 8795      6E666967 
 8795      00
 8796              	.LASF164:
 8797 0880 645F7461 		.ascii	"d_tag\000"
 8797      6700
 8798              	.LASF78:
 8799 0886 4D41585F 		.ascii	"MAX_REGEN_BRAKE\000"
 8799      52454745 
 8799      4E5F4252 
 8799      414B4500 
 8800              	.LASF151:
 8801 0896 636D645F 		.ascii	"cmd_current_limit_switch\000"
 8801      63757272 
ARM GAS  C:\Users\danit\AppData\Local\Temp\ccBFeYtw.s 			page 165


 8801      656E745F 
 8801      6C696D69 
 8801      745F7377 
 8802              	.LASF80:
 8803 08af 4B4D4554 		.ascii	"KMETER_COUNTER\000"
 8803      45525F43 
 8803      4F554E54 
 8803      455200
 8804              	.LASF160:
 8805 08be 72656765 		.ascii	"regen_on\000"
 8805      6E5F6F6E 
 8805      00
 8806              	.LASF142:
 8807 08c7 63727569 		.ascii	"cruiseCalc\000"
 8807      73654361 
 8807      6C6300
 8808              	.LASF48:
 8809 08d2 43435235 		.ascii	"CCR5\000"
 8809      00
 8810              	.LASF166:
 8811 08d7 65656C6F 		.ascii	"eelozo\000"
 8811      7A6F00
 8812              	.LASF177:
 8813 08de 62757474 		.ascii	"button_long_accel\000"
 8813      6F6E5F6C 
 8813      6F6E675F 
 8813      61636365 
 8813      6C00
 8814              	.LASF19:
 8815 08f0 75696E74 		.ascii	"uint8_t\000"
 8815      385F7400 
 8816              	.LASF186:
 8817 08f8 63687670 		.ascii	"chvprintf\000"
 8817      72696E74 
 8817      6600
 8818              	.LASF38:
 8819 0902 72656164 		.ascii	"readt\000"
 8819      7400
 8820              	.LASF39:
 8821 0908 42617365 		.ascii	"BaseChannel\000"
 8821      4368616E 
 8821      6E656C00 
 8822              	.LASF54:
 8823 0914 70776D73 		.ascii	"pwmstate_t\000"
 8823      74617465 
 8823      5F7400
 8824              	.LASF189:
 8825 091f 73706565 		.ascii	"speedKMPH_TO_RPM\000"
 8825      644B4D50 
 8825      485F544F 
 8825      5F52504D 
 8825      00
 8826              	.LASF79:
 8827 0930 544F5441 		.ascii	"TOTAL_KMETER_COUNTER\000"
 8827      4C5F4B4D 
 8827      45544552 
 8827      5F434F55 
ARM GAS  C:\Users\danit\AppData\Local\Temp\ccBFeYtw.s 			page 166


 8827      4E544552 
 8828              	.LASF31:
 8829 0945 72656164 		.ascii	"read\000"
 8829      00
 8830              	.LASF124:
 8831 094a 63727569 		.ascii	"cruiseStatus\000"
 8831      73655374 
 8831      61747573 
 8831      00
 8832              	.LASF145:
 8833 0957 61726763 		.ascii	"argc\000"
 8833      00
 8834              	.LASF178:
 8835 095c 62757474 		.ascii	"button_long_decelerat\000"
 8835      6F6E5F6C 
 8835      6F6E675F 
 8835      64656365 
 8835      6C657261 
 8836              	.LASF191:
 8837 0972 70776D45 		.ascii	"pwmEnableChannel\000"
 8837      6E61626C 
 8837      65436861 
 8837      6E6E656C 
 8837      00
 8838              	.LASF169:
 8839 0983 63727569 		.ascii	"cruise_indicator\000"
 8839      73655F69 
 8839      6E646963 
 8839      61746F72 
 8839      00
 8840              	.LASF59:
 8841 0994 636C6F63 		.ascii	"clock\000"
 8841      6B00
 8842              	.LASF93:
 8843 099a 4D454153 		.ascii	"MEAS2_THROTTLE\000"
 8843      325F5448 
 8843      524F5454 
 8843      4C4500
 8844              	.LASF200:
 8845 09a9 443A5C44 		.ascii	"D:\\Dani\\MegaLux\\Repo\\Smarty\\Smarty\\smarty\\fi"
 8845      616E695C 
 8845      4D656761 
 8845      4C75785C 
 8845      5265706F 
 8846 09d5 726D7761 		.ascii	"rmware\000"
 8846      726500
 8847              	.LASF146:
 8848 09dc 61726776 		.ascii	"argv\000"
 8848      00
 8849              	.LASF118:
 8850 09e1 66616E5F 		.ascii	"fan_speed\000"
 8850      73706565 
 8850      6400
 8851              	.LASF51:
 8852 09eb 50574D5F 		.ascii	"PWM_UNINIT\000"
 8852      554E494E 
 8852      495400
ARM GAS  C:\Users\danit\AppData\Local\Temp\ccBFeYtw.s 			page 167


 8853              	.LASF163:
 8854 09f6 695F7461 		.ascii	"i_tag\000"
 8854      6700
 8855              	.LASF165:
 8856 09fc 72657375 		.ascii	"result\000"
 8856      6C7400
 8857              	.LASF69:
 8858 0a03 64696572 		.ascii	"dier\000"
 8858      00
 8859              	.LASF202:
 8860 0a08 63687072 		.ascii	"chprintf\000"
 8860      696E7466 
 8860      00
 8861              		.ident	"GCC: (GNU Tools for ARM Embedded Processors) 4.9.3 20150529 (release) [ARM/embedded-4_9-br
ARM GAS  C:\Users\danit\AppData\Local\Temp\ccBFeYtw.s 			page 168


DEFINED SYMBOLS
                            *ABS*:00000000 cruise.c
C:\Users\danit\AppData\Local\Temp\ccBFeYtw.s:19     .text.chprintf:00000000 $t
C:\Users\danit\AppData\Local\Temp\ccBFeYtw.s:24     .text.chprintf:00000000 chprintf
C:\Users\danit\AppData\Local\Temp\ccBFeYtw.s:67     .text.cruiseInit:00000000 $t
C:\Users\danit\AppData\Local\Temp\ccBFeYtw.s:73     .text.cruiseInit:00000000 cruiseInit
C:\Users\danit\AppData\Local\Temp\ccBFeYtw.s:260    .text.cruiseInit:000000e0 $d
C:\Users\danit\AppData\Local\Temp\ccBFeYtw.s:291    .text.cruiseEnable:00000000 $t
C:\Users\danit\AppData\Local\Temp\ccBFeYtw.s:297    .text.cruiseEnable:00000000 cruiseEnable
C:\Users\danit\AppData\Local\Temp\ccBFeYtw.s:320    .text.cruiseEnable:00000010 $d
C:\Users\danit\AppData\Local\Temp\ccBFeYtw.s:326    .text.cruiseDisable:00000000 $t
C:\Users\danit\AppData\Local\Temp\ccBFeYtw.s:332    .text.cruiseDisable:00000000 cruiseDisable
C:\Users\danit\AppData\Local\Temp\ccBFeYtw.s:347    .text.cruiseDisable:00000008 $d
C:\Users\danit\AppData\Local\Temp\ccBFeYtw.s:352    .text.regen_brakeEnable:00000000 $t
C:\Users\danit\AppData\Local\Temp\ccBFeYtw.s:358    .text.regen_brakeEnable:00000000 regen_brakeEnable
C:\Users\danit\AppData\Local\Temp\ccBFeYtw.s:373    .text.regen_brakeEnable:00000008 $d
C:\Users\danit\AppData\Local\Temp\ccBFeYtw.s:378    .text.regen_brakeDisable:00000000 $t
C:\Users\danit\AppData\Local\Temp\ccBFeYtw.s:384    .text.regen_brakeDisable:00000000 regen_brakeDisable
C:\Users\danit\AppData\Local\Temp\ccBFeYtw.s:399    .text.regen_brakeDisable:00000008 $d
C:\Users\danit\AppData\Local\Temp\ccBFeYtw.s:404    .text.cruiseStatus:00000000 $t
C:\Users\danit\AppData\Local\Temp\ccBFeYtw.s:410    .text.cruiseStatus:00000000 cruiseStatus
C:\Users\danit\AppData\Local\Temp\ccBFeYtw.s:428    .text.cruiseStatus:0000000c $d
C:\Users\danit\AppData\Local\Temp\ccBFeYtw.s:433    .text.cruiseIndicator:00000000 $t
C:\Users\danit\AppData\Local\Temp\ccBFeYtw.s:439    .text.cruiseIndicator:00000000 cruiseIndicator
C:\Users\danit\AppData\Local\Temp\ccBFeYtw.s:454    .text.cruiseIndicator:00000008 $d
C:\Users\danit\AppData\Local\Temp\ccBFeYtw.s:459    .text.cruiseAccel:00000000 $t
C:\Users\danit\AppData\Local\Temp\ccBFeYtw.s:465    .text.cruiseAccel:00000000 cruiseAccel
C:\Users\danit\AppData\Local\Temp\ccBFeYtw.s:480    .text.cruiseAccel:00000008 $d
C:\Users\danit\AppData\Local\Temp\ccBFeYtw.s:485    .text.cruiseAccelOk:00000000 $t
C:\Users\danit\AppData\Local\Temp\ccBFeYtw.s:491    .text.cruiseAccelOk:00000000 cruiseAccelOk
C:\Users\danit\AppData\Local\Temp\ccBFeYtw.s:519    .text.cruiseAccelOk:00000018 $d
C:\Users\danit\AppData\Local\Temp\ccBFeYtw.s:526    .text.cruiseDecelerat:00000000 $t
C:\Users\danit\AppData\Local\Temp\ccBFeYtw.s:532    .text.cruiseDecelerat:00000000 cruiseDecelerat
C:\Users\danit\AppData\Local\Temp\ccBFeYtw.s:547    .text.cruiseDecelerat:00000008 $d
C:\Users\danit\AppData\Local\Temp\ccBFeYtw.s:552    .text.cruiseDeceleratOk:00000000 $t
C:\Users\danit\AppData\Local\Temp\ccBFeYtw.s:558    .text.cruiseDeceleratOk:00000000 cruiseDeceleratOk
C:\Users\danit\AppData\Local\Temp\ccBFeYtw.s:586    .text.cruiseDeceleratOk:00000018 $d
C:\Users\danit\AppData\Local\Temp\ccBFeYtw.s:596    .text.cruiseIncrease:00000000 $t
C:\Users\danit\AppData\Local\Temp\ccBFeYtw.s:602    .text.cruiseIncrease:00000000 cruiseIncrease
C:\Users\danit\AppData\Local\Temp\ccBFeYtw.s:663    .text.cruiseIncrease:00000044 $d
C:\Users\danit\AppData\Local\Temp\ccBFeYtw.s:670    .text.cruiseReduction:00000000 $t
C:\Users\danit\AppData\Local\Temp\ccBFeYtw.s:676    .text.cruiseReduction:00000000 cruiseReduction
C:\Users\danit\AppData\Local\Temp\ccBFeYtw.s:713    .text.cruiseReduction:00000028 $d
C:\Users\danit\AppData\Local\Temp\ccBFeYtw.s:718    .text.cruiseGetPWM:00000000 $t
C:\Users\danit\AppData\Local\Temp\ccBFeYtw.s:724    .text.cruiseGetPWM:00000000 cruiseGetPWM
C:\Users\danit\AppData\Local\Temp\ccBFeYtw.s:739    .text.cruiseGetPWM:00000008 $d
C:\Users\danit\AppData\Local\Temp\ccBFeYtw.s:744    .text.cruiseGetCurrLimitSubstract:00000000 $t
C:\Users\danit\AppData\Local\Temp\ccBFeYtw.s:750    .text.cruiseGetCurrLimitSubstract:00000000 cruiseGetCurrLimitSubstract
C:\Users\danit\AppData\Local\Temp\ccBFeYtw.s:765    .text.cruiseGetCurrLimitSubstract:00000008 $d
C:\Users\danit\AppData\Local\Temp\ccBFeYtw.s:770    .text.cruiseGet:00000000 $t
C:\Users\danit\AppData\Local\Temp\ccBFeYtw.s:776    .text.cruiseGet:00000000 cruiseGet
C:\Users\danit\AppData\Local\Temp\ccBFeYtw.s:799    .text.cruiseGet:00000014 $d
C:\Users\danit\AppData\Local\Temp\ccBFeYtw.s:807    .text.cruisePID:00000000 $t
C:\Users\danit\AppData\Local\Temp\ccBFeYtw.s:813    .text.cruisePID:00000000 cruisePID
C:\Users\danit\AppData\Local\Temp\ccBFeYtw.s:1077   .text.cruisePID:000001a8 $d
C:\Users\danit\AppData\Local\Temp\ccBFeYtw.s:1087   .text.cruiseCalc:00000000 $t
C:\Users\danit\AppData\Local\Temp\ccBFeYtw.s:1093   .text.cruiseCalc:00000000 cruiseCalc
ARM GAS  C:\Users\danit\AppData\Local\Temp\ccBFeYtw.s 			page 169


C:\Users\danit\AppData\Local\Temp\ccBFeYtw.s:1569   .text.cruiseCalc:000002e0 $d
C:\Users\danit\AppData\Local\Temp\ccBFeYtw.s:1602   .text.cruiseCalc:0000035c $t
C:\Users\danit\AppData\Local\Temp\ccBFeYtw.s:1643   .text.cruiseCalc:000003a8 $d
C:\Users\danit\AppData\Local\Temp\ccBFeYtw.s:1653   .text.cmd_cruisevalues:00000000 $t
C:\Users\danit\AppData\Local\Temp\ccBFeYtw.s:1659   .text.cmd_cruisevalues:00000000 cmd_cruisevalues
C:\Users\danit\AppData\Local\Temp\ccBFeYtw.s:1849   .text.cmd_cruisevalues:00000130 $d
C:\Users\danit\AppData\Local\Temp\ccBFeYtw.s:1885   .text.cmd_setcruisevalues:00000000 $t
C:\Users\danit\AppData\Local\Temp\ccBFeYtw.s:1891   .text.cmd_setcruisevalues:00000000 cmd_setcruisevalues
C:\Users\danit\AppData\Local\Temp\ccBFeYtw.s:2172   .text.cmd_setcruisevalues:0000013c $d
C:\Users\danit\AppData\Local\Temp\ccBFeYtw.s:2198   .text.cmd_cruise:00000000 $t
C:\Users\danit\AppData\Local\Temp\ccBFeYtw.s:2204   .text.cmd_cruise:00000000 cmd_cruise
C:\Users\danit\AppData\Local\Temp\ccBFeYtw.s:2347   .text.cmd_cruise:00000078 $d
C:\Users\danit\AppData\Local\Temp\ccBFeYtw.s:2362   .text.cmd_current_limit_switch:00000000 $t
C:\Users\danit\AppData\Local\Temp\ccBFeYtw.s:2368   .text.cmd_current_limit_switch:00000000 cmd_current_limit_switch
C:\Users\danit\AppData\Local\Temp\ccBFeYtw.s:2517   .text.cmd_current_limit_switch:00000094 $d
C:\Users\danit\AppData\Local\Temp\ccBFeYtw.s:2535   .text.cmd_regen_brake:00000000 $t
C:\Users\danit\AppData\Local\Temp\ccBFeYtw.s:2541   .text.cmd_regen_brake:00000000 cmd_regen_brake
C:\Users\danit\AppData\Local\Temp\ccBFeYtw.s:2679   .text.cmd_regen_brake:00000074 $d
C:\Users\danit\AppData\Local\Temp\ccBFeYtw.s:2693   .data.K_D:00000000 $d
C:\Users\danit\AppData\Local\Temp\ccBFeYtw.s:2697   .data.K_D:00000000 K_D
C:\Users\danit\AppData\Local\Temp\ccBFeYtw.s:2700   .bss.old_set:00000000 $d
C:\Users\danit\AppData\Local\Temp\ccBFeYtw.s:2704   .bss.old_set:00000000 old_set
C:\Users\danit\AppData\Local\Temp\ccBFeYtw.s:2710   .bss.regen_on:00000000 regen_on
C:\Users\danit\AppData\Local\Temp\ccBFeYtw.s:2711   .bss.regen_on:00000000 $d
C:\Users\danit\AppData\Local\Temp\ccBFeYtw.s:2713   .bss.eelozo:00000000 $d
C:\Users\danit\AppData\Local\Temp\ccBFeYtw.s:2717   .bss.eelozo:00000000 eelozo
C:\Users\danit\AppData\Local\Temp\ccBFeYtw.s:2720   .bss.cruise_on:00000000 $d
C:\Users\danit\AppData\Local\Temp\ccBFeYtw.s:2724   .bss.cruise_on:00000000 cruise_on
C:\Users\danit\AppData\Local\Temp\ccBFeYtw.s:2727   .bss.brake_pwm:00000000 $d
C:\Users\danit\AppData\Local\Temp\ccBFeYtw.s:2731   .bss.brake_pwm:00000000 brake_pwm
C:\Users\danit\AppData\Local\Temp\ccBFeYtw.s:2734   .data.K_P:00000000 $d
C:\Users\danit\AppData\Local\Temp\ccBFeYtw.s:2738   .data.K_P:00000000 K_P
C:\Users\danit\AppData\Local\Temp\ccBFeYtw.s:2741   .bss.pwm:00000000 $d
C:\Users\danit\AppData\Local\Temp\ccBFeYtw.s:2745   .bss.pwm:00000000 pwm
C:\Users\danit\AppData\Local\Temp\ccBFeYtw.s:2748   .bss.eeprom_write_period:00000000 $d
C:\Users\danit\AppData\Local\Temp\ccBFeYtw.s:2752   .bss.eeprom_write_period:00000000 eeprom_write_period
C:\Users\danit\AppData\Local\Temp\ccBFeYtw.s:2755   .bss.cruise_indicator_index:00000000 $d
C:\Users\danit\AppData\Local\Temp\ccBFeYtw.s:2759   .bss.cruise_indicator_index:00000000 cruise_indicator_index
C:\Users\danit\AppData\Local\Temp\ccBFeYtw.s:2762   .bss.set:00000000 $d
C:\Users\danit\AppData\Local\Temp\ccBFeYtw.s:2766   .bss.set:00000000 set
C:\Users\danit\AppData\Local\Temp\ccBFeYtw.s:2772   .bss.button_long_decelerat:00000000 button_long_decelerat
C:\Users\danit\AppData\Local\Temp\ccBFeYtw.s:2773   .bss.button_long_decelerat:00000000 $d
C:\Users\danit\AppData\Local\Temp\ccBFeYtw.s:2775   .data.K_I:00000000 $d
C:\Users\danit\AppData\Local\Temp\ccBFeYtw.s:2779   .data.K_I:00000000 K_I
C:\Users\danit\AppData\Local\Temp\ccBFeYtw.s:2782   .rodata.str1.4:00000000 $d
C:\Users\danit\AppData\Local\Temp\ccBFeYtw.s:2894   .bss.d_tag:00000000 $d
C:\Users\danit\AppData\Local\Temp\ccBFeYtw.s:2898   .bss.d_tag:00000000 d_tag
C:\Users\danit\AppData\Local\Temp\ccBFeYtw.s:2901   .bss.p_tag:00000000 $d
C:\Users\danit\AppData\Local\Temp\ccBFeYtw.s:2905   .bss.p_tag:00000000 p_tag
C:\Users\danit\AppData\Local\Temp\ccBFeYtw.s:2908   .bss.result:00000000 $d
C:\Users\danit\AppData\Local\Temp\ccBFeYtw.s:2912   .bss.result:00000000 result
C:\Users\danit\AppData\Local\Temp\ccBFeYtw.s:2918   .data.current_limit_status:00000000 current_limit_status
C:\Users\danit\AppData\Local\Temp\ccBFeYtw.s:2924   .bss.cruise_indicator:00000000 cruise_indicator
C:\Users\danit\AppData\Local\Temp\ccBFeYtw.s:2925   .bss.cruise_indicator:00000000 $d
C:\Users\danit\AppData\Local\Temp\ccBFeYtw.s:2927   .data.cruise_pwmcfg:00000000 $d
C:\Users\danit\AppData\Local\Temp\ccBFeYtw.s:2931   .data.cruise_pwmcfg:00000000 cruise_pwmcfg
C:\Users\danit\AppData\Local\Temp\ccBFeYtw.s:2947   .bss.cruise_disable_period:00000000 $d
ARM GAS  C:\Users\danit\AppData\Local\Temp\ccBFeYtw.s 			page 170


C:\Users\danit\AppData\Local\Temp\ccBFeYtw.s:2951   .bss.cruise_disable_period:00000000 cruise_disable_period
C:\Users\danit\AppData\Local\Temp\ccBFeYtw.s:2954   .bss.substract:00000000 $d
C:\Users\danit\AppData\Local\Temp\ccBFeYtw.s:2958   .bss.substract:00000000 substract
C:\Users\danit\AppData\Local\Temp\ccBFeYtw.s:2964   .bss.button_long_accel:00000000 button_long_accel
C:\Users\danit\AppData\Local\Temp\ccBFeYtw.s:2965   .bss.button_long_accel:00000000 $d
C:\Users\danit\AppData\Local\Temp\ccBFeYtw.s:2967   .bss.i_tag:00000000 $d
C:\Users\danit\AppData\Local\Temp\ccBFeYtw.s:2971   .bss.i_tag:00000000 i_tag
C:\Users\danit\AppData\Local\Temp\ccBFeYtw.s:2974   .bss.e_tag:00000000 $d
C:\Users\danit\AppData\Local\Temp\ccBFeYtw.s:2978   .bss.e_tag:00000000 e_tag
C:\Users\danit\AppData\Local\Temp\ccBFeYtw.s:2984   .bss.eeprom_write:00000000 eeprom_write
C:\Users\danit\AppData\Local\Temp\ccBFeYtw.s:2985   .bss.eeprom_write:00000000 $d
C:\Users\danit\AppData\Local\Temp\ccBFeYtw.s:2987   .bss.accel_limit:00000000 $d
C:\Users\danit\AppData\Local\Temp\ccBFeYtw.s:2991   .bss.accel_limit:00000000 accel_limit
C:\Users\danit\AppData\Local\Temp\ccBFeYtw.s:2994   .bss.save_pwm:00000000 $d
C:\Users\danit\AppData\Local\Temp\ccBFeYtw.s:2998   .bss.save_pwm:00000000 save_pwm
                     .debug_frame:00000010 $d

UNDEFINED SYMBOLS
chvprintf
eepromRead
pwmStart
speedKMPH_TO_RPM
PWMD5
speedGetRpm
__aeabi_i2d
__aeabi_dadd
__aeabi_d2iz
__aeabi_dsub
speedRPM_TO_KMPH
__aeabi_dmul
__aeabi_dcmpgt
__aeabi_dcmplt
measGetValue_2
pwmEnableChannel
speedGetSpeed
eepromWrite
bmsitems
chThdSleep
strcmp
atol
