ARM GAS  C:\Users\danit\AppData\Local\Temp\ccBFeYtw.s 			page 1


   1              		.syntax unified
   2              		.cpu cortex-m4
   3              		.fpu softvfp
   4              		.eabi_attribute 20, 1
   5              		.eabi_attribute 21, 1
   6              		.eabi_attribute 23, 3
   7              		.eabi_attribute 24, 1
   8              		.eabi_attribute 25, 1
   9              		.eabi_attribute 26, 1
  10              		.eabi_attribute 30, 2
  11              		.eabi_attribute 34, 1
  12              		.eabi_attribute 18, 4
  13              		.thumb
  14              		.file	"cruise.c"
  15              		.text
  16              	.Ltext0:
  17              		.cfi_sections	.debug_frame
  18              		.section	.text.chprintf,"ax",%progbits
  19              		.align	2
  20              		.p2align 4,,15
  21              		.thumb
  22              		.thumb_func
  23              		.type	chprintf, %function
  24              	chprintf:
  25              	.LFB118:
  26              		.file 1 "../../../ChibiOS/os/various/chprintf.h"
  27              		.loc 1 69 0
  28              		.cfi_startproc
  29              		@ args = 4, pretend = 12, frame = 8
  30              		@ frame_needed = 0, uses_anonymous_args = 1
  31              	.LVL0:
  32 0000 0EB4     		push	{r1, r2, r3}
  33              		.cfi_def_cfa_offset 12
  34              		.cfi_offset 1, -12
  35              		.cfi_offset 2, -8
  36              		.cfi_offset 3, -4
  37 0002 00B5     		push	{lr}
  38              		.cfi_def_cfa_offset 16
  39              		.cfi_offset 14, -16
  40 0004 82B0     		sub	sp, sp, #8
  41              		.cfi_def_cfa_offset 24
  42              		.loc 1 69 0
  43 0006 03AA     		add	r2, sp, #12
  44 0008 52F8041B 		ldr	r1, [r2], #4
  45              		.loc 1 72 0
  46 000c 0192     		str	r2, [sp, #4]
  47              		.loc 1 73 0
  48 000e FFF7FEFF 		bl	chvprintf
  49              	.LVL1:
  50              		.loc 1 75 0
  51 0012 02B0     		add	sp, sp, #8
  52              		.cfi_def_cfa_offset 16
  53              		@ sp needed
  54 0014 5DF804EB 		ldr	lr, [sp], #4
  55              		.cfi_restore 14
  56              		.cfi_def_cfa_offset 12
  57 0018 03B0     		add	sp, sp, #12
ARM GAS  C:\Users\danit\AppData\Local\Temp\ccBFeYtw.s 			page 2


  58              		.cfi_restore 3
  59              		.cfi_restore 2
  60              		.cfi_restore 1
  61              		.cfi_def_cfa_offset 0
  62 001a 7047     		bx	lr
  63              		.cfi_endproc
  64              	.LFE118:
  65              		.size	chprintf, .-chprintf
  66              		.section	.text.cruiseInit,"ax",%progbits
  67              		.align	2
  68              		.p2align 4,,15
  69              		.global	cruiseInit
  70              		.thumb
  71              		.thumb_func
  72              		.type	cruiseInit, %function
  73              	cruiseInit:
  74              	.LFB119:
  75              		.file 2 "src/cruise.c"
  76              		.loc 2 94 0
  77              		.cfi_startproc
  78              		@ args = 0, pretend = 0, frame = 0
  79              		@ frame_needed = 0, uses_anonymous_args = 0
  80 0000 2DE9F84F 		push	{r3, r4, r5, r6, r7, r8, r9, r10, fp, lr}
  81              		.cfi_def_cfa_offset 40
  82              		.cfi_offset 3, -40
  83              		.cfi_offset 4, -36
  84              		.cfi_offset 5, -32
  85              		.cfi_offset 6, -28
  86              		.cfi_offset 7, -24
  87              		.cfi_offset 8, -20
  88              		.cfi_offset 9, -16
  89              		.cfi_offset 10, -12
  90              		.cfi_offset 11, -8
  91              		.cfi_offset 14, -4
  92              		.loc 2 112 0
  93 0004 36A3     		adr	r3, .L12
  94 0006 D3E90023 		ldrd	r2, [r3]
  95 000a DFF814A1 		ldr	r10, .L12+64
  96              		.loc 2 104 0
  97 000e 384D     		ldr	r5, .L12+16
  98              		.loc 2 96 0
  99 0010 3849     		ldr	r1, .L12+20
 100              		.loc 2 113 0
 101 0012 3948     		ldr	r0, .L12+24
 102              		.loc 2 97 0
 103 0014 DFF80C91 		ldr	r9, .L12+68
 104              		.loc 2 99 0
 105 0018 DFF80C81 		ldr	r8, .L12+72
 106              		.loc 2 100 0
 107 001c DFF80CC1 		ldr	ip, .L12+76
 108              		.loc 2 101 0
 109 0020 DFF80CE1 		ldr	lr, .L12+80
 110              		.loc 2 103 0
 111 0024 354F     		ldr	r7, .L12+28
 112              		.loc 2 123 0
 113 0026 364E     		ldr	r6, .L12+32
 114              		.loc 2 95 0
ARM GAS  C:\Users\danit\AppData\Local\Temp\ccBFeYtw.s 			page 3


 115 0028 DFF808B1 		ldr	fp, .L12+84
 116              		.loc 2 112 0
 117 002c CAE90023 		strd	r2, [r10]
 118              		.loc 2 96 0
 119 0030 0023     		movs	r3, #0
 120              		.loc 2 104 0
 121 0032 2B70     		strb	r3, [r5]
 122              		.loc 2 113 0
 123 0034 2CA5     		adr	r5, .L12+8
 124 0036 D5E90045 		ldrd	r4, [r5]
 125              		.loc 2 106 0
 126 003a 324A     		ldr	r2, .L12+36
 127              		.loc 2 96 0
 128 003c 0B60     		str	r3, [r1]
 129              		.loc 2 107 0
 130 003e 3249     		ldr	r1, .L12+40
 131              		.loc 2 97 0
 132 0040 C9F80030 		str	r3, [r9]
 133              		.loc 2 113 0
 134 0044 C0E90045 		strd	r4, [r0]
 135              		.loc 2 99 0
 136 0048 C8F80030 		str	r3, [r8]
 137              		.loc 2 100 0
 138 004c ACF80030 		strh	r3, [ip]	@ movhi
 139              		.loc 2 101 0
 140 0050 8EF80030 		strb	r3, [lr]
 141              		.loc 2 103 0
 142 0054 3B80     		strh	r3, [r7]	@ movhi
 143              		.loc 2 106 0
 144 0056 1370     		strb	r3, [r2]
 145              		.loc 2 95 0
 146 0058 42F21075 		movw	r5, #10000
 147              		.loc 2 109 0
 148 005c DFF8D8A0 		ldr	r10, .L12+88
 149              		.loc 2 118 0
 150 0060 DFF8D890 		ldr	r9, .L12+92
 151              		.loc 2 119 0
 152 0064 DFF8D880 		ldr	r8, .L12+96
 153              		.loc 2 121 0
 154 0068 DFF8D8C0 		ldr	ip, .L12+100
 155              		.loc 2 114 0
 156 006c DFF8D8E0 		ldr	lr, .L12+104
 157              		.loc 2 115 0
 158 0070 264F     		ldr	r7, .L12+44
 159              		.loc 2 116 0
 160 0072 274A     		ldr	r2, .L12+48
 161              		.loc 2 107 0
 162 0074 0B60     		str	r3, [r1]
 163              		.loc 2 114 0
 164 0076 0024     		movs	r4, #0
 165              		.loc 2 95 0
 166 0078 CBF80050 		str	r5, [fp]
 167              		.loc 2 123 0
 168 007c 3146     		mov	r1, r6
 169              		.loc 2 114 0
 170 007e 0025     		movs	r5, #0
 171              		.loc 2 123 0
ARM GAS  C:\Users\danit\AppData\Local\Temp\ccBFeYtw.s 			page 4


 172 0080 1846     		mov	r0, r3
 173              		.loc 2 109 0
 174 0082 AAF80030 		strh	r3, [r10]	@ movhi
 175              		.loc 2 118 0
 176 0086 89F80030 		strb	r3, [r9]
 177              		.loc 2 119 0
 178 008a 88F80030 		strb	r3, [r8]
 179              		.loc 2 121 0
 180 008e CCF80030 		str	r3, [ip]
 181              		.loc 2 114 0
 182 0092 CEE90045 		strd	r4, [lr]
 183              		.loc 2 115 0
 184 0096 C7E90045 		strd	r4, [r7]
 185              		.loc 2 116 0
 186 009a C2E90045 		strd	r4, [r2]
 187              		.loc 2 123 0
 188 009e FFF7FEFF 		bl	eepromRead
 189              	.LVL2:
 190 00a2 A8B9     		cbnz	r0, .L4
 191 00a4 3088     		ldrh	r0, [r6]
 192              	.L5:
 193              		.loc 2 126 0
 194 00a6 00B2     		sxth	r0, r0
 195 00a8 40F21453 		movw	r3, #1300
 196 00ac 9842     		cmp	r0, r3
 197 00ae 08DC     		bgt	.L9
 198              		.loc 2 130 0
 199 00b0 0028     		cmp	r0, #0
 200 00b2 05DB     		blt	.L11
 201              		.loc 2 135 0
 202 00b4 1748     		ldr	r0, .L12+52
 203 00b6 1849     		ldr	r1, .L12+56
 204              		.loc 2 136 0
 205 00b8 BDE8F84F 		pop	{r3, r4, r5, r6, r7, r8, r9, r10, fp, lr}
 206              		.cfi_remember_state
 207              		.cfi_restore 14
 208              		.cfi_restore 11
 209              		.cfi_restore 10
 210              		.cfi_restore 9
 211              		.cfi_restore 8
 212              		.cfi_restore 7
 213              		.cfi_restore 6
 214              		.cfi_restore 5
 215              		.cfi_restore 4
 216              		.cfi_restore 3
 217              		.cfi_def_cfa_offset 0
 218              		.loc 2 135 0
 219 00bc FFF7FEBF 		b	pwmStart
 220              	.LVL3:
 221              	.L11:
 222              		.cfi_restore_state
 223              		.loc 2 132 0
 224 00c0 0023     		movs	r3, #0
 225              	.L9:
 226 00c2 3380     		strh	r3, [r6]	@ movhi
 227              		.loc 2 135 0
 228 00c4 1348     		ldr	r0, .L12+52
ARM GAS  C:\Users\danit\AppData\Local\Temp\ccBFeYtw.s 			page 5


 229 00c6 1449     		ldr	r1, .L12+56
 230              		.loc 2 136 0
 231 00c8 BDE8F84F 		pop	{r3, r4, r5, r6, r7, r8, r9, r10, fp, lr}
 232              		.cfi_remember_state
 233              		.cfi_restore 3
 234              		.cfi_restore 4
 235              		.cfi_restore 5
 236              		.cfi_restore 6
 237              		.cfi_restore 7
 238              		.cfi_restore 8
 239              		.cfi_restore 9
 240              		.cfi_restore 10
 241              		.cfi_restore 11
 242              		.cfi_restore 14
 243              		.cfi_def_cfa_offset 0
 244              		.loc 2 135 0
 245 00cc FFF7FEBF 		b	pwmStart
 246              	.LVL4:
 247              	.L4:
 248              		.cfi_restore_state
 249              		.loc 2 124 0
 250 00d0 0020     		movs	r0, #0
 251 00d2 1249     		ldr	r1, .L12+60
 252 00d4 FFF7FEFF 		bl	speedKMPH_TO_RPM
 253              	.LVL5:
 254 00d8 80B2     		uxth	r0, r0
 255 00da 3080     		strh	r0, [r6]	@ movhi
 256 00dc E3E7     		b	.L5
 257              	.L13:
 258 00de 00BF     		.align	3
 259              	.L12:
 260 00e0 00000000 		.word	0
 261 00e4 0052A740 		.word	1084707328
 262 00e8 00000000 		.word	0
 263 00ec 00701741 		.word	1092055040
 264 00f0 00000000 		.word	.LANCHOR7
 265 00f4 00000000 		.word	.LANCHOR1
 266 00f8 00000000 		.word	.LANCHOR12
 267 00fc 00000000 		.word	.LANCHOR6
 268 0100 00000000 		.word	.LANCHOR19
 269 0104 00000000 		.word	.LANCHOR8
 270 0108 00000000 		.word	.LANCHOR9
 271 010c 00000000 		.word	.LANCHOR14
 272 0110 00000000 		.word	.LANCHOR15
 273 0114 00000000 		.word	PWMD5
 274 0118 00000000 		.word	.LANCHOR20
 275 011c 00004940 		.word	1078525952
 276 0120 00000000 		.word	.LANCHOR11
 277 0124 00000000 		.word	.LANCHOR2
 278 0128 00000000 		.word	.LANCHOR3
 279 012c 00000000 		.word	.LANCHOR4
 280 0130 00000000 		.word	.LANCHOR5
 281 0134 00000000 		.word	.LANCHOR0
 282 0138 00000000 		.word	.LANCHOR10
 283 013c 00000000 		.word	.LANCHOR16
 284 0140 00000000 		.word	.LANCHOR17
 285 0144 00000000 		.word	.LANCHOR18
ARM GAS  C:\Users\danit\AppData\Local\Temp\ccBFeYtw.s 			page 6


 286 0148 00000000 		.word	.LANCHOR13
 287              		.cfi_endproc
 288              	.LFE119:
 289              		.size	cruiseInit, .-cruiseInit
 290              		.section	.text.cruiseEnable,"ax",%progbits
 291              		.align	2
 292              		.p2align 4,,15
 293              		.global	cruiseEnable
 294              		.thumb
 295              		.thumb_func
 296              		.type	cruiseEnable, %function
 297              	cruiseEnable:
 298              	.LFB121:
 299              		.loc 2 277 0
 300              		.cfi_startproc
 301              		@ args = 0, pretend = 0, frame = 0
 302              		@ frame_needed = 0, uses_anonymous_args = 0
 303              		@ link register save eliminated.
 304              		.loc 2 278 0
 305 0000 0349     		ldr	r1, .L15
 306              		.loc 2 279 0
 307 0002 044B     		ldr	r3, .L15+4
 308              		.loc 2 278 0
 309 0004 0120     		movs	r0, #1
 310              		.loc 2 279 0
 311 0006 0022     		movs	r2, #0
 312              		.loc 2 278 0
 313 0008 0880     		strh	r0, [r1]	@ movhi
 314              		.loc 2 279 0
 315 000a 1A80     		strh	r2, [r3]	@ movhi
 316 000c 7047     		bx	lr
 317              	.L16:
 318 000e 00BF     		.align	2
 319              	.L15:
 320 0010 00000000 		.word	.LANCHOR6
 321 0014 00000000 		.word	.LANCHOR10
 322              		.cfi_endproc
 323              	.LFE121:
 324              		.size	cruiseEnable, .-cruiseEnable
 325              		.section	.text.cruiseDisable,"ax",%progbits
 326              		.align	2
 327              		.p2align 4,,15
 328              		.global	cruiseDisable
 329              		.thumb
 330              		.thumb_func
 331              		.type	cruiseDisable, %function
 332              	cruiseDisable:
 333              	.LFB122:
 334              		.loc 2 281 0
 335              		.cfi_startproc
 336              		@ args = 0, pretend = 0, frame = 0
 337              		@ frame_needed = 0, uses_anonymous_args = 0
 338              		@ link register save eliminated.
 339              		.loc 2 282 0
 340 0000 014B     		ldr	r3, .L18
 341 0002 0022     		movs	r2, #0
 342 0004 1A80     		strh	r2, [r3]	@ movhi
ARM GAS  C:\Users\danit\AppData\Local\Temp\ccBFeYtw.s 			page 7


 343 0006 7047     		bx	lr
 344              	.L19:
 345              		.align	2
 346              	.L18:
 347 0008 00000000 		.word	.LANCHOR6
 348              		.cfi_endproc
 349              	.LFE122:
 350              		.size	cruiseDisable, .-cruiseDisable
 351              		.section	.text.regen_brakeEnable,"ax",%progbits
 352              		.align	2
 353              		.p2align 4,,15
 354              		.global	regen_brakeEnable
 355              		.thumb
 356              		.thumb_func
 357              		.type	regen_brakeEnable, %function
 358              	regen_brakeEnable:
 359              	.LFB123:
 360              		.loc 2 285 0
 361              		.cfi_startproc
 362              		@ args = 0, pretend = 0, frame = 0
 363              		@ frame_needed = 0, uses_anonymous_args = 0
 364              		@ link register save eliminated.
 365              		.loc 2 286 0
 366 0000 014B     		ldr	r3, .L21
 367 0002 0122     		movs	r2, #1
 368 0004 1A70     		strb	r2, [r3]
 369 0006 7047     		bx	lr
 370              	.L22:
 371              		.align	2
 372              	.L21:
 373 0008 00000000 		.word	.LANCHOR7
 374              		.cfi_endproc
 375              	.LFE123:
 376              		.size	regen_brakeEnable, .-regen_brakeEnable
 377              		.section	.text.regen_brakeDisable,"ax",%progbits
 378              		.align	2
 379              		.p2align 4,,15
 380              		.global	regen_brakeDisable
 381              		.thumb
 382              		.thumb_func
 383              		.type	regen_brakeDisable, %function
 384              	regen_brakeDisable:
 385              	.LFB124:
 386              		.loc 2 288 0
 387              		.cfi_startproc
 388              		@ args = 0, pretend = 0, frame = 0
 389              		@ frame_needed = 0, uses_anonymous_args = 0
 390              		@ link register save eliminated.
 391              		.loc 2 289 0
 392 0000 014B     		ldr	r3, .L24
 393 0002 0022     		movs	r2, #0
 394 0004 1A70     		strb	r2, [r3]
 395 0006 7047     		bx	lr
 396              	.L25:
 397              		.align	2
 398              	.L24:
 399 0008 00000000 		.word	.LANCHOR7
ARM GAS  C:\Users\danit\AppData\Local\Temp\ccBFeYtw.s 			page 8


 400              		.cfi_endproc
 401              	.LFE124:
 402              		.size	regen_brakeDisable, .-regen_brakeDisable
 403              		.section	.text.cruiseStatus,"ax",%progbits
 404              		.align	2
 405              		.p2align 4,,15
 406              		.global	cruiseStatus
 407              		.thumb
 408              		.thumb_func
 409              		.type	cruiseStatus, %function
 410              	cruiseStatus:
 411              	.LFB125:
 412              		.loc 2 292 0
 413              		.cfi_startproc
 414              		@ args = 0, pretend = 0, frame = 0
 415              		@ frame_needed = 0, uses_anonymous_args = 0
 416              		@ link register save eliminated.
 417              		.loc 2 293 0
 418 0000 024B     		ldr	r3, .L27
 419 0002 1888     		ldrh	r0, [r3]
 420              		.loc 2 294 0
 421 0004 0030     		adds	r0, r0, #0
 422 0006 18BF     		it	ne
 423 0008 0120     		movne	r0, #1
 424 000a 7047     		bx	lr
 425              	.L28:
 426              		.align	2
 427              	.L27:
 428 000c 00000000 		.word	.LANCHOR6
 429              		.cfi_endproc
 430              	.LFE125:
 431              		.size	cruiseStatus, .-cruiseStatus
 432              		.section	.text.cruiseIndicator,"ax",%progbits
 433              		.align	2
 434              		.p2align 4,,15
 435              		.global	cruiseIndicator
 436              		.thumb
 437              		.thumb_func
 438              		.type	cruiseIndicator, %function
 439              	cruiseIndicator:
 440              	.LFB126:
 441              		.loc 2 296 0
 442              		.cfi_startproc
 443              		@ args = 0, pretend = 0, frame = 0
 444              		@ frame_needed = 0, uses_anonymous_args = 0
 445              		@ link register save eliminated.
 446              		.loc 2 297 0
 447 0000 014B     		ldr	r3, .L30
 448              		.loc 2 298 0
 449 0002 1878     		ldrb	r0, [r3]	@ zero_extendqisi2
 450 0004 7047     		bx	lr
 451              	.L31:
 452 0006 00BF     		.align	2
 453              	.L30:
 454 0008 00000000 		.word	.LANCHOR8
 455              		.cfi_endproc
 456              	.LFE126:
ARM GAS  C:\Users\danit\AppData\Local\Temp\ccBFeYtw.s 			page 9


 457              		.size	cruiseIndicator, .-cruiseIndicator
 458              		.section	.text.cruiseAccel,"ax",%progbits
 459              		.align	2
 460              		.p2align 4,,15
 461              		.global	cruiseAccel
 462              		.thumb
 463              		.thumb_func
 464              		.type	cruiseAccel, %function
 465              	cruiseAccel:
 466              	.LFB127:
 467              		.loc 2 300 0
 468              		.cfi_startproc
 469              		@ args = 0, pretend = 0, frame = 0
 470              		@ frame_needed = 0, uses_anonymous_args = 0
 471              		@ link register save eliminated.
 472              		.loc 2 301 0
 473 0000 014B     		ldr	r3, .L33
 474 0002 0122     		movs	r2, #1
 475 0004 1A70     		strb	r2, [r3]
 476 0006 7047     		bx	lr
 477              	.L34:
 478              		.align	2
 479              	.L33:
 480 0008 00000000 		.word	.LANCHOR16
 481              		.cfi_endproc
 482              	.LFE127:
 483              		.size	cruiseAccel, .-cruiseAccel
 484              		.section	.text.cruiseAccelOk,"ax",%progbits
 485              		.align	2
 486              		.p2align 4,,15
 487              		.global	cruiseAccelOk
 488              		.thumb
 489              		.thumb_func
 490              		.type	cruiseAccelOk, %function
 491              	cruiseAccelOk:
 492              	.LFB128:
 493              		.loc 2 304 0
 494              		.cfi_startproc
 495              		@ args = 0, pretend = 0, frame = 0
 496              		@ frame_needed = 0, uses_anonymous_args = 0
 497 0000 08B5     		push	{r3, lr}
 498              		.cfi_def_cfa_offset 8
 499              		.cfi_offset 3, -8
 500              		.cfi_offset 14, -4
 501              		.loc 2 305 0
 502 0002 054B     		ldr	r3, .L41
 503 0004 1B88     		ldrh	r3, [r3]
 504 0006 1BB1     		cbz	r3, .L36
 505              		.loc 2 306 0
 506 0008 FFF7FEFF 		bl	speedGetRpm
 507              	.LVL6:
 508 000c 034B     		ldr	r3, .L41+4
 509 000e 1880     		strh	r0, [r3]	@ movhi
 510              	.L36:
 511              		.loc 2 308 0
 512 0010 034B     		ldr	r3, .L41+8
 513 0012 0022     		movs	r2, #0
ARM GAS  C:\Users\danit\AppData\Local\Temp\ccBFeYtw.s 			page 10


 514 0014 1A70     		strb	r2, [r3]
 515 0016 08BD     		pop	{r3, pc}
 516              	.L42:
 517              		.align	2
 518              	.L41:
 519 0018 00000000 		.word	.LANCHOR6
 520 001c 00000000 		.word	.LANCHOR19
 521 0020 00000000 		.word	.LANCHOR16
 522              		.cfi_endproc
 523              	.LFE128:
 524              		.size	cruiseAccelOk, .-cruiseAccelOk
 525              		.section	.text.cruiseDecelerat,"ax",%progbits
 526              		.align	2
 527              		.p2align 4,,15
 528              		.global	cruiseDecelerat
 529              		.thumb
 530              		.thumb_func
 531              		.type	cruiseDecelerat, %function
 532              	cruiseDecelerat:
 533              	.LFB129:
 534              		.loc 2 311 0
 535              		.cfi_startproc
 536              		@ args = 0, pretend = 0, frame = 0
 537              		@ frame_needed = 0, uses_anonymous_args = 0
 538              		@ link register save eliminated.
 539              		.loc 2 312 0
 540 0000 014B     		ldr	r3, .L44
 541 0002 0122     		movs	r2, #1
 542 0004 1A70     		strb	r2, [r3]
 543 0006 7047     		bx	lr
 544              	.L45:
 545              		.align	2
 546              	.L44:
 547 0008 00000000 		.word	.LANCHOR17
 548              		.cfi_endproc
 549              	.LFE129:
 550              		.size	cruiseDecelerat, .-cruiseDecelerat
 551              		.section	.text.cruiseDeceleratOk,"ax",%progbits
 552              		.align	2
 553              		.p2align 4,,15
 554              		.global	cruiseDeceleratOk
 555              		.thumb
 556              		.thumb_func
 557              		.type	cruiseDeceleratOk, %function
 558              	cruiseDeceleratOk:
 559              	.LFB130:
 560              		.loc 2 315 0
 561              		.cfi_startproc
 562              		@ args = 0, pretend = 0, frame = 0
 563              		@ frame_needed = 0, uses_anonymous_args = 0
 564 0000 08B5     		push	{r3, lr}
 565              		.cfi_def_cfa_offset 8
 566              		.cfi_offset 3, -8
 567              		.cfi_offset 14, -4
 568              		.loc 2 316 0
 569 0002 054B     		ldr	r3, .L52
 570 0004 1B88     		ldrh	r3, [r3]
ARM GAS  C:\Users\danit\AppData\Local\Temp\ccBFeYtw.s 			page 11


 571 0006 1BB1     		cbz	r3, .L47
 572              		.loc 2 317 0
 573 0008 FFF7FEFF 		bl	speedGetRpm
 574              	.LVL7:
 575 000c 034B     		ldr	r3, .L52+4
 576 000e 1880     		strh	r0, [r3]	@ movhi
 577              	.L47:
 578              		.loc 2 319 0
 579 0010 034B     		ldr	r3, .L52+8
 580 0012 0022     		movs	r2, #0
 581 0014 1A70     		strb	r2, [r3]
 582 0016 08BD     		pop	{r3, pc}
 583              	.L53:
 584              		.align	2
 585              	.L52:
 586 0018 00000000 		.word	.LANCHOR6
 587 001c 00000000 		.word	.LANCHOR19
 588 0020 00000000 		.word	.LANCHOR17
 589              		.cfi_endproc
 590              	.LFE130:
 591              		.size	cruiseDeceleratOk, .-cruiseDeceleratOk
 592              		.global	__aeabi_i2d
 593              		.global	__aeabi_dadd
 594              		.global	__aeabi_d2iz
 595              		.section	.text.cruiseIncrease,"ax",%progbits
 596              		.align	2
 597              		.p2align 4,,15
 598              		.global	cruiseIncrease
 599              		.thumb
 600              		.thumb_func
 601              		.type	cruiseIncrease, %function
 602              	cruiseIncrease:
 603              	.LFB131:
 604              		.loc 2 322 0
 605              		.cfi_startproc
 606              		@ args = 0, pretend = 0, frame = 0
 607              		@ frame_needed = 0, uses_anonymous_args = 0
 608              	.LVL8:
 609 0000 F8B5     		push	{r3, r4, r5, r6, r7, lr}
 610              		.cfi_def_cfa_offset 24
 611              		.cfi_offset 3, -24
 612              		.cfi_offset 4, -20
 613              		.cfi_offset 5, -16
 614              		.cfi_offset 6, -12
 615              		.cfi_offset 7, -8
 616              		.cfi_offset 14, -4
 617              		.loc 2 323 0
 618 0002 104D     		ldr	r5, .L59
 619              		.loc 2 322 0
 620 0004 0646     		mov	r6, r0
 621 0006 0F46     		mov	r7, r1
 622              		.loc 2 323 0
 623 0008 B5F90000 		ldrsh	r0, [r5]
 624              	.LVL9:
 625 000c FFF7FEFF 		bl	__aeabi_i2d
 626              	.LVL10:
 627 0010 3246     		mov	r2, r6
ARM GAS  C:\Users\danit\AppData\Local\Temp\ccBFeYtw.s 			page 12


 628 0012 3B46     		mov	r3, r7
 629 0014 FFF7FEFF 		bl	__aeabi_dadd
 630              	.LVL11:
 631 0018 FFF7FEFF 		bl	__aeabi_d2iz
 632              	.LVL12:
 633              		.loc 2 324 0
 634 001c 0A49     		ldr	r1, .L59+4
 635              		.loc 2 323 0
 636 001e 84B2     		uxth	r4, r0
 637              		.loc 2 324 0
 638 0020 0020     		movs	r0, #0
 639              		.loc 2 323 0
 640 0022 2C80     		strh	r4, [r5]	@ movhi
 641              		.loc 2 324 0
 642 0024 FFF7FEFF 		bl	speedKMPH_TO_RPM
 643              	.LVL13:
 644 0028 24B2     		sxth	r4, r4
 645 002a 8442     		cmp	r4, r0
 646 002c 02D8     		bhi	.L58
 647              		.loc 2 324 0 is_stmt 0 discriminator 2
 648 002e 2888     		ldrh	r0, [r5]
 649 0030 2880     		strh	r0, [r5]	@ movhi
 650 0032 F8BD     		pop	{r3, r4, r5, r6, r7, pc}
 651              	.L58:
 652              		.loc 2 324 0 discriminator 1
 653 0034 0020     		movs	r0, #0
 654 0036 0449     		ldr	r1, .L59+4
 655 0038 FFF7FEFF 		bl	speedKMPH_TO_RPM
 656              	.LVL14:
 657 003c 80B2     		uxth	r0, r0
 658 003e 2880     		strh	r0, [r5]	@ movhi
 659 0040 F8BD     		pop	{r3, r4, r5, r6, r7, pc}
 660              	.L60:
 661 0042 00BF     		.align	2
 662              	.L59:
 663 0044 00000000 		.word	.LANCHOR19
 664 0048 00406040 		.word	1080049664
 665              		.cfi_endproc
 666              	.LFE131:
 667              		.size	cruiseIncrease, .-cruiseIncrease
 668              		.global	__aeabi_dsub
 669              		.section	.text.cruiseReduction,"ax",%progbits
 670              		.align	2
 671              		.p2align 4,,15
 672              		.global	cruiseReduction
 673              		.thumb
 674              		.thumb_func
 675              		.type	cruiseReduction, %function
 676              	cruiseReduction:
 677              	.LFB132:
 678              		.loc 2 326 0 is_stmt 1
 679              		.cfi_startproc
 680              		@ args = 0, pretend = 0, frame = 0
 681              		@ frame_needed = 0, uses_anonymous_args = 0
 682              	.LVL15:
 683 0000 D0B5     		push	{r4, r6, r7, lr}
 684              		.cfi_def_cfa_offset 16
ARM GAS  C:\Users\danit\AppData\Local\Temp\ccBFeYtw.s 			page 13


 685              		.cfi_offset 4, -16
 686              		.cfi_offset 6, -12
 687              		.cfi_offset 7, -8
 688              		.cfi_offset 14, -4
 689              		.loc 2 328 0
 690 0002 094C     		ldr	r4, .L63
 691              		.loc 2 326 0
 692 0004 0646     		mov	r6, r0
 693 0006 0F46     		mov	r7, r1
 694              		.loc 2 327 0
 695 0008 B4F90000 		ldrsh	r0, [r4]
 696              	.LVL16:
 697 000c FFF7FEFF 		bl	__aeabi_i2d
 698              	.LVL17:
 699 0010 3246     		mov	r2, r6
 700 0012 3B46     		mov	r3, r7
 701 0014 FFF7FEFF 		bl	__aeabi_dsub
 702              	.LVL18:
 703 0018 FFF7FEFF 		bl	__aeabi_d2iz
 704              	.LVL19:
 705              		.loc 2 328 0
 706 001c 00B2     		sxth	r0, r0
 707 001e 20EAE070 		bic	r0, r0, r0, asr #31
 708 0022 2080     		strh	r0, [r4]	@ movhi
 709 0024 D0BD     		pop	{r4, r6, r7, pc}
 710              	.L64:
 711 0026 00BF     		.align	2
 712              	.L63:
 713 0028 00000000 		.word	.LANCHOR19
 714              		.cfi_endproc
 715              	.LFE132:
 716              		.size	cruiseReduction, .-cruiseReduction
 717              		.section	.text.cruiseGetPWM,"ax",%progbits
 718              		.align	2
 719              		.p2align 4,,15
 720              		.global	cruiseGetPWM
 721              		.thumb
 722              		.thumb_func
 723              		.type	cruiseGetPWM, %function
 724              	cruiseGetPWM:
 725              	.LFB133:
 726              		.loc 2 331 0
 727              		.cfi_startproc
 728              		@ args = 0, pretend = 0, frame = 0
 729              		@ frame_needed = 0, uses_anonymous_args = 0
 730              		@ link register save eliminated.
 731              		.loc 2 332 0
 732 0000 014B     		ldr	r3, .L66
 733              		.loc 2 333 0
 734 0002 1868     		ldr	r0, [r3]
 735 0004 7047     		bx	lr
 736              	.L67:
 737 0006 00BF     		.align	2
 738              	.L66:
 739 0008 00000000 		.word	.LANCHOR2
 740              		.cfi_endproc
 741              	.LFE133:
ARM GAS  C:\Users\danit\AppData\Local\Temp\ccBFeYtw.s 			page 14


 742              		.size	cruiseGetPWM, .-cruiseGetPWM
 743              		.section	.text.cruiseGetCurrLimitSubstract,"ax",%progbits
 744              		.align	2
 745              		.p2align 4,,15
 746              		.global	cruiseGetCurrLimitSubstract
 747              		.thumb
 748              		.thumb_func
 749              		.type	cruiseGetCurrLimitSubstract, %function
 750              	cruiseGetCurrLimitSubstract:
 751              	.LFB134:
 752              		.loc 2 336 0
 753              		.cfi_startproc
 754              		@ args = 0, pretend = 0, frame = 0
 755              		@ frame_needed = 0, uses_anonymous_args = 0
 756              		@ link register save eliminated.
 757              		.loc 2 337 0
 758 0000 014B     		ldr	r3, .L69
 759              		.loc 2 338 0
 760 0002 1888     		ldrh	r0, [r3]
 761 0004 7047     		bx	lr
 762              	.L70:
 763 0006 00BF     		.align	2
 764              	.L69:
 765 0008 00000000 		.word	.LANCHOR21
 766              		.cfi_endproc
 767              	.LFE134:
 768              		.size	cruiseGetCurrLimitSubstract, .-cruiseGetCurrLimitSubstract
 769              		.section	.text.cruiseGet,"ax",%progbits
 770              		.align	2
 771              		.p2align 4,,15
 772              		.global	cruiseGet
 773              		.thumb
 774              		.thumb_func
 775              		.type	cruiseGet, %function
 776              	cruiseGet:
 777              	.LFB135:
 778              		.loc 2 341 0
 779              		.cfi_startproc
 780              		@ args = 0, pretend = 0, frame = 0
 781              		@ frame_needed = 0, uses_anonymous_args = 0
 782 0000 08B5     		push	{r3, lr}
 783              		.cfi_def_cfa_offset 8
 784              		.cfi_offset 3, -8
 785              		.cfi_offset 14, -4
 786              		.loc 2 342 0
 787 0002 044B     		ldr	r3, .L73
 788 0004 B3F90000 		ldrsh	r0, [r3]
 789 0008 FFF7FEFF 		bl	__aeabi_i2d
 790              	.LVL20:
 791 000c FFF7FEFF 		bl	speedRPM_TO_KMPH
 792              	.LVL21:
 793              		.loc 2 343 0
 794 0010 C0B2     		uxtb	r0, r0
 795 0012 08BD     		pop	{r3, pc}
 796              	.L74:
 797              		.align	2
 798              	.L73:
ARM GAS  C:\Users\danit\AppData\Local\Temp\ccBFeYtw.s 			page 15


 799 0014 00000000 		.word	.LANCHOR19
 800              		.cfi_endproc
 801              	.LFE135:
 802              		.size	cruiseGet, .-cruiseGet
 803              		.global	__aeabi_dmul
 804              		.global	__aeabi_dcmpgt
 805              		.global	__aeabi_dcmplt
 806              		.section	.text.cruisePID,"ax",%progbits
 807              		.align	2
 808              		.p2align 4,,15
 809              		.global	cruisePID
 810              		.thumb
 811              		.thumb_func
 812              		.type	cruisePID, %function
 813              	cruisePID:
 814              	.LFB136:
 815              		.loc 2 346 0
 816              		.cfi_startproc
 817              		@ args = 24, pretend = 0, frame = 24
 818              		@ frame_needed = 0, uses_anonymous_args = 0
 819              	.LVL22:
 820 0000 2DE9F04F 		push	{r4, r5, r6, r7, r8, r9, r10, fp, lr}
 821              		.cfi_def_cfa_offset 36
 822              		.cfi_offset 4, -36
 823              		.cfi_offset 5, -32
 824              		.cfi_offset 6, -28
 825              		.cfi_offset 7, -24
 826              		.cfi_offset 8, -20
 827              		.cfi_offset 9, -16
 828              		.cfi_offset 10, -12
 829              		.cfi_offset 11, -8
 830              		.cfi_offset 14, -4
 831 0004 87B0     		sub	sp, sp, #28
 832              		.cfi_def_cfa_offset 64
 833              		.loc 2 347 0
 834 0006 081A     		subs	r0, r1, r0
 835              	.LVL23:
 836              		.loc 2 346 0
 837 0008 BDF94810 		ldrsh	r1, [sp, #72]
 838              	.LVL24:
 839 000c 0592     		str	r2, [sp, #20]
 840 000e 1E46     		mov	r6, r3
 841 0010 0291     		str	r1, [sp, #8]
 842              		.loc 2 347 0
 843 0012 FFF7FEFF 		bl	__aeabi_i2d
 844              	.LVL25:
 845              		.loc 2 346 0
 846 0016 BDF94040 		ldrsh	r4, [sp, #64]
 847              		.loc 2 347 0
 848 001a 634B     		ldr	r3, .L101
 849              		.loc 2 346 0
 850 001c BDF94470 		ldrsh	r7, [sp, #68]
 851              		.loc 2 347 0
 852 0020 8246     		mov	r10, r0
 853 0022 8B46     		mov	fp, r1
 854              		.loc 2 350 0
 855 0024 2046     		mov	r0, r4
ARM GAS  C:\Users\danit\AppData\Local\Temp\ccBFeYtw.s 			page 16


 856              		.loc 2 347 0
 857 0026 C3E900AB 		strd	r10, [r3]
 858              		.loc 2 350 0
 859 002a FFF7FEFF 		bl	__aeabi_i2d
 860              	.LVL26:
 861 002e 0246     		mov	r2, r0
 862 0030 0B46     		mov	r3, r1
 863 0032 5046     		mov	r0, r10
 864 0034 5946     		mov	r1, fp
 865 0036 FFF7FEFF 		bl	__aeabi_dmul
 866              	.LVL27:
 867 003a 0446     		mov	r4, r0
 868              		.loc 2 351 0
 869 003c 1398     		ldr	r0, [sp, #76]
 870              		.loc 2 350 0
 871 003e 0D46     		mov	r5, r1
 872              		.loc 2 351 0
 873 0040 FFF7FEFF 		bl	__aeabi_i2d
 874              	.LVL28:
 875 0044 0246     		mov	r2, r0
 876 0046 0B46     		mov	r3, r1
 877 0048 2046     		mov	r0, r4
 878 004a 2946     		mov	r1, r5
 879 004c CDE90023 		strd	r2, [sp]
 880 0050 FFF7FEFF 		bl	__aeabi_dcmpgt
 881              	.LVL29:
 882 0054 0028     		cmp	r0, #0
 883 0056 72D0     		beq	.L94
 884              		.loc 2 352 0
 885 0058 DDE90001 		ldrd	r0, [sp]
 886 005c 534B     		ldr	r3, .L101+4
 887 005e C3E90001 		strd	r0, [r3]
 888              	.L78:
 889              		.loc 2 360 0
 890 0062 3846     		mov	r0, r7
 891 0064 FFF7FEFF 		bl	__aeabi_i2d
 892              	.LVL30:
 893 0068 514F     		ldr	r7, .L101+8
 894 006a 0246     		mov	r2, r0
 895 006c 0B46     		mov	r3, r1
 896 006e 5046     		mov	r0, r10
 897 0070 5946     		mov	r1, fp
 898 0072 FFF7FEFF 		bl	__aeabi_dmul
 899              	.LVL31:
 900 0076 D7E90023 		ldrd	r2, [r7]
 901 007a FFF7FEFF 		bl	__aeabi_dadd
 902              	.LVL32:
 903 007e 0446     		mov	r4, r0
 904              		.loc 2 361 0
 905 0080 1498     		ldr	r0, [sp, #80]
 906              		.loc 2 360 0
 907 0082 0D46     		mov	r5, r1
 908              		.loc 2 361 0
 909 0084 FFF7FEFF 		bl	__aeabi_i2d
 910              	.LVL33:
 911 0088 8046     		mov	r8, r0
 912 008a 8946     		mov	r9, r1
ARM GAS  C:\Users\danit\AppData\Local\Temp\ccBFeYtw.s 			page 17


 913 008c 2046     		mov	r0, r4
 914 008e 2946     		mov	r1, r5
 915 0090 4246     		mov	r2, r8
 916 0092 4B46     		mov	r3, r9
 917 0094 FFF7FEFF 		bl	__aeabi_dcmpgt
 918              	.LVL34:
 919 0098 68B9     		cbnz	r0, .L83
 920              		.loc 2 364 0
 921 009a 149B     		ldr	r3, [sp, #80]
 922 009c 5842     		negs	r0, r3
 923 009e FFF7FEFF 		bl	__aeabi_i2d
 924              	.LVL35:
 925 00a2 8046     		mov	r8, r0
 926 00a4 8946     		mov	r9, r1
 927 00a6 2046     		mov	r0, r4
 928 00a8 2946     		mov	r1, r5
 929 00aa 4246     		mov	r2, r8
 930 00ac 4B46     		mov	r3, r9
 931 00ae FFF7FEFF 		bl	__aeabi_dcmplt
 932              	.LVL36:
 933 00b2 0028     		cmp	r0, #0
 934 00b4 73D0     		beq	.L98
 935              	.L83:
 936              		.loc 2 365 0
 937 00b6 C7E90089 		strd	r8, [r7]
 938              	.L82:
 939              		.loc 2 370 0
 940 00ba 0298     		ldr	r0, [sp, #8]
 941 00bc 3D4F     		ldr	r7, .L101+12
 942 00be FFF7FEFF 		bl	__aeabi_i2d
 943              	.LVL37:
 944 00c2 D7E90023 		ldrd	r2, [r7]
 945 00c6 0446     		mov	r4, r0
 946 00c8 0D46     		mov	r5, r1
 947 00ca 5046     		mov	r0, r10
 948 00cc 5946     		mov	r1, fp
 949 00ce FFF7FEFF 		bl	__aeabi_dsub
 950              	.LVL38:
 951 00d2 0246     		mov	r2, r0
 952 00d4 0B46     		mov	r3, r1
 953 00d6 2046     		mov	r0, r4
 954 00d8 2946     		mov	r1, r5
 955 00da FFF7FEFF 		bl	__aeabi_dmul
 956              	.LVL39:
 957 00de CDE90201 		strd	r0, [sp, #8]
 958              		.loc 2 371 0
 959 00e2 1598     		ldr	r0, [sp, #84]
 960 00e4 FFF7FEFF 		bl	__aeabi_i2d
 961              	.LVL40:
 962 00e8 0446     		mov	r4, r0
 963 00ea 0D46     		mov	r5, r1
 964 00ec 2246     		mov	r2, r4
 965 00ee DDE90201 		ldrd	r0, [sp, #8]
 966 00f2 2B46     		mov	r3, r5
 967 00f4 FFF7FEFF 		bl	__aeabi_dcmpgt
 968              	.LVL41:
 969 00f8 0028     		cmp	r0, #0
ARM GAS  C:\Users\danit\AppData\Local\Temp\ccBFeYtw.s 			page 18


 970 00fa 33D0     		beq	.L96
 971              		.loc 2 372 0
 972 00fc 2E4B     		ldr	r3, .L101+16
 973 00fe C3E90045 		strd	r4, [r3]
 974              	.L86:
 975              		.loc 2 380 0
 976 0102 4246     		mov	r2, r8
 977 0104 4B46     		mov	r3, r9
 978 0106 DDE90001 		ldrd	r0, [sp]
 979 010a FFF7FEFF 		bl	__aeabi_dadd
 980              	.LVL42:
 981 010e 2246     		mov	r2, r4
 982 0110 2B46     		mov	r3, r5
 983 0112 FFF7FEFF 		bl	__aeabi_dadd
 984              	.LVL43:
 985 0116 FFF7FEFF 		bl	__aeabi_d2iz
 986              	.LVL44:
 987              		.loc 2 382 0
 988 011a 059B     		ldr	r3, [sp, #20]
 989 011c 9842     		cmp	r0, r3
 990              		.loc 2 383 0
 991 011e C8BF     		it	gt
 992 0120 059A     		ldrgt	r2, [sp, #20]
 993 0122 264B     		ldr	r3, .L101+20
 994 0124 C6BF     		itte	gt
 995 0126 1046     		movgt	r0, r2
 996 0128 1A60     		strgt	r2, [r3]
 997              		.loc 2 380 0
 998 012a 1860     		strle	r0, [r3]
 999              		.loc 2 385 0
 1000 012c 8642     		cmp	r6, r0
 1001              		.loc 2 386 0
 1002 012e C4BF     		itt	gt
 1003 0130 3046     		movgt	r0, r6
 1004 0132 1E60     		strgt	r6, [r3]
 1005              		.loc 2 389 0
 1006 0134 C7E900AB 		strd	r10, [r7]
 1007              		.loc 2 392 0
 1008 0138 07B0     		add	sp, sp, #28
 1009              		.cfi_remember_state
 1010              		.cfi_def_cfa_offset 36
 1011              		@ sp needed
 1012 013a BDE8F08F 		pop	{r4, r5, r6, r7, r8, r9, r10, fp, pc}
 1013              	.LVL45:
 1014              	.L94:
 1015              		.cfi_restore_state
 1016              		.loc 2 354 0
 1017 013e 139B     		ldr	r3, [sp, #76]
 1018 0140 5842     		negs	r0, r3
 1019 0142 FFF7FEFF 		bl	__aeabi_i2d
 1020              	.LVL46:
 1021 0146 0B46     		mov	r3, r1
 1022 0148 0246     		mov	r2, r0
 1023 014a 2946     		mov	r1, r5
 1024 014c 2046     		mov	r0, r4
 1025 014e CDE90023 		strd	r2, [sp]
 1026 0152 FFF7FEFF 		bl	__aeabi_dcmplt
ARM GAS  C:\Users\danit\AppData\Local\Temp\ccBFeYtw.s 			page 19


 1027              	.LVL47:
 1028              		.loc 2 355 0
 1029 0156 154B     		ldr	r3, .L101+4
 1030              		.loc 2 354 0
 1031 0158 E0B1     		cbz	r0, .L99
 1032              		.loc 2 355 0
 1033 015a DDE90001 		ldrd	r0, [sp]
 1034 015e C3E90001 		strd	r0, [r3]
 1035 0162 7EE7     		b	.L78
 1036              	.L96:
 1037              		.loc 2 374 0
 1038 0164 159B     		ldr	r3, [sp, #84]
 1039 0166 5842     		negs	r0, r3
 1040 0168 FFF7FEFF 		bl	__aeabi_i2d
 1041              	.LVL48:
 1042 016c 0446     		mov	r4, r0
 1043 016e 0D46     		mov	r5, r1
 1044 0170 2B46     		mov	r3, r5
 1045 0172 DDE90201 		ldrd	r0, [sp, #8]
 1046 0176 2246     		mov	r2, r4
 1047 0178 FFF7FEFF 		bl	__aeabi_dcmplt
 1048              	.LVL49:
 1049              		.loc 2 375 0
 1050 017c 0E4B     		ldr	r3, .L101+16
 1051              		.loc 2 374 0
 1052 017e 10B1     		cbz	r0, .L100
 1053              		.loc 2 375 0
 1054 0180 C3E90045 		strd	r4, [r3]
 1055 0184 BDE7     		b	.L86
 1056              	.L100:
 1057              		.loc 2 370 0
 1058 0186 DDE90201 		ldrd	r0, [sp, #8]
 1059 018a C3E90001 		strd	r0, [r3]
 1060 018e 0446     		mov	r4, r0
 1061 0190 0D46     		mov	r5, r1
 1062 0192 B6E7     		b	.L86
 1063              	.L99:
 1064              		.loc 2 350 0
 1065 0194 CDE90045 		strd	r4, [sp]
 1066 0198 C3E90045 		strd	r4, [r3]
 1067 019c 61E7     		b	.L78
 1068              	.L98:
 1069              		.loc 2 360 0
 1070 019e C7E90045 		strd	r4, [r7]
 1071 01a2 A046     		mov	r8, r4
 1072 01a4 A946     		mov	r9, r5
 1073 01a6 88E7     		b	.L82
 1074              	.L102:
 1075              		.align	2
 1076              	.L101:
 1077 01a8 00000000 		.word	.LANCHOR15
 1078 01ac 00000000 		.word	.LANCHOR11
 1079 01b0 00000000 		.word	.LANCHOR12
 1080 01b4 00000000 		.word	.LANCHOR14
 1081 01b8 00000000 		.word	.LANCHOR13
 1082 01bc 00000000 		.word	.LANCHOR22
 1083              		.cfi_endproc
ARM GAS  C:\Users\danit\AppData\Local\Temp\ccBFeYtw.s 			page 20


 1084              	.LFE136:
 1085              		.size	cruisePID, .-cruisePID
 1086              		.section	.text.cruiseCalc,"ax",%progbits
 1087              		.align	2
 1088              		.p2align 4,,15
 1089              		.global	cruiseCalc
 1090              		.thumb
 1091              		.thumb_func
 1092              		.type	cruiseCalc, %function
 1093              	cruiseCalc:
 1094              	.LFB120:
 1095              		.loc 2 138 0
 1096              		.cfi_startproc
 1097              		@ args = 0, pretend = 0, frame = 0
 1098              		@ frame_needed = 0, uses_anonymous_args = 0
 1099 0000 2DE9F04F 		push	{r4, r5, r6, r7, r8, r9, r10, fp, lr}
 1100              		.cfi_def_cfa_offset 36
 1101              		.cfi_offset 4, -36
 1102              		.cfi_offset 5, -32
 1103              		.cfi_offset 6, -28
 1104              		.cfi_offset 7, -24
 1105              		.cfi_offset 8, -20
 1106              		.cfi_offset 9, -16
 1107              		.cfi_offset 10, -12
 1108              		.cfi_offset 11, -8
 1109              		.cfi_offset 14, -4
 1110              		.loc 2 140 0
 1111 0004 B649     		ldr	r1, .L153
 1112              		.loc 2 142 0
 1113 0006 B74F     		ldr	r7, .L153+4
 1114              		.loc 2 140 0
 1115 0008 0B68     		ldr	r3, [r1]
 1116              		.loc 2 143 0
 1117 000a 3A7F     		ldrb	r2, [r7, #28]	@ zero_extendqisi2
 1118 000c B64D     		ldr	r5, .L153+8
 1119              		.loc 2 140 0
 1120 000e 0133     		adds	r3, r3, #1
 1121              		.loc 2 143 0
 1122 0010 02EB8202 		add	r2, r2, r2, lsl #2
 1123              		.loc 2 146 0
 1124 0014 FA2B     		cmp	r3, #250
 1125              		.loc 2 138 0
 1126 0016 87B0     		sub	sp, sp, #28
 1127              		.cfi_def_cfa_offset 64
 1128              		.loc 2 140 0
 1129 0018 0B60     		str	r3, [r1]
 1130              		.loc 2 143 0
 1131 001a 2A60     		str	r2, [r5]
 1132              		.loc 2 146 0
 1133 001c 00F01981 		beq	.L148
 1134              		.loc 2 159 0
 1135 0020 B24C     		ldr	r4, .L153+12
 1136 0022 B34B     		ldr	r3, .L153+16
 1137 0024 2288     		ldrh	r2, [r4]
 1138 0026 1888     		ldrh	r0, [r3]
 1139 0028 8242     		cmp	r2, r0
 1140 002a 05D0     		beq	.L106
ARM GAS  C:\Users\danit\AppData\Local\Temp\ccBFeYtw.s 			page 21


 1141              		.loc 2 163 0
 1142 002c B148     		ldr	r0, .L153+20
 1143              		.loc 2 161 0
 1144 002e 1A80     		strh	r2, [r3]	@ movhi
 1145              		.loc 2 163 0
 1146 0030 0122     		movs	r2, #1
 1147              		.loc 2 162 0
 1148 0032 0023     		movs	r3, #0
 1149              		.loc 2 163 0
 1150 0034 0270     		strb	r2, [r0]
 1151              		.loc 2 162 0
 1152 0036 0B60     		str	r3, [r1]
 1153              	.L106:
 1154              		.loc 2 167 0
 1155 0038 AF4E     		ldr	r6, .L153+24
 1156 003a 3388     		ldrh	r3, [r6]
 1157 003c 002B     		cmp	r3, #0
 1158 003e 79D1     		bne	.L149
 1159              	.L110:
 1160              	.LBB14:
 1161              		.loc 2 235 0
 1162 0040 AE49     		ldr	r1, .L153+28
 1163              		.loc 2 236 0
 1164 0042 AF4A     		ldr	r2, .L153+32
 1165              		.loc 2 234 0
 1166 0044 AF4E     		ldr	r6, .L153+36
 1167              		.loc 2 237 0
 1168 0046 B04C     		ldr	r4, .L153+40
 1169              		.loc 2 238 0
 1170 0048 DFF8F8B2 		ldr	fp, .L153+100
 1171              		.loc 2 239 0
 1172 004c DFF8F882 		ldr	r8, .L153+104
 1173              		.loc 2 234 0
 1174 0050 0023     		movs	r3, #0
 1175              		.loc 2 237 0
 1176 0052 0120     		movs	r0, #1
 1177              		.loc 2 235 0
 1178 0054 0B70     		strb	r3, [r1]
 1179              		.loc 2 234 0
 1180 0056 3380     		strh	r3, [r6]	@ movhi
 1181              		.loc 2 236 0
 1182 0058 1360     		str	r3, [r2]
 1183              		.loc 2 237 0
 1184 005a FFF7FEFF 		bl	measGetValue_2
 1185              	.LVL50:
 1186              		.loc 2 238 0
 1187 005e AB4A     		ldr	r2, .L153+44
 1188              		.loc 2 237 0
 1189 0060 C0F51C53 		rsb	r3, r0, #9984
 1190 0064 1033     		adds	r3, r3, #16
 1191              		.loc 2 238 0
 1192 0066 4FF0000A 		mov	r10, #0
 1193              		.loc 2 239 0
 1194 006a 0120     		movs	r0, #1
 1195              		.loc 2 238 0
 1196 006c C2E900AB 		strd	r10, [r2]
 1197              		.loc 2 237 0
ARM GAS  C:\Users\danit\AppData\Local\Temp\ccBFeYtw.s 			page 22


 1198 0070 2360     		str	r3, [r4]
 1199              		.loc 2 239 0
 1200 0072 FFF7FEFF 		bl	measGetValue_2
 1201              	.LVL51:
 1202 0076 6423     		movs	r3, #100
 1203 0078 03FB00F0 		mul	r0, r3, r0
 1204 007c FFF7FEFF 		bl	__aeabi_i2d
 1205              	.LVL52:
 1206              		.loc 2 246 0
 1207 0080 2A68     		ldr	r2, [r5]
 1208 0082 B7F91830 		ldrsh	r3, [r7, #24]
 1209              		.loc 2 240 0
 1210 0086 DFF8C4C2 		ldr	ip, .L153+108
 1211              		.loc 2 241 0
 1212 008a DFF8C4E2 		ldr	lr, .L153+112
 1213              		.loc 2 242 0
 1214 008e A04D     		ldr	r5, .L153+48
 1215              		.loc 2 240 0
 1216 0090 0026     		movs	r6, #0
 1217 0092 0027     		movs	r7, #0
 1218              		.loc 2 246 0
 1219 0094 9342     		cmp	r3, r2
 1220              		.loc 2 239 0
 1221 0096 C8E90001 		strd	r0, [r8]
 1222              		.loc 2 240 0
 1223 009a CCE90067 		strd	r6, [ip]
 1224              		.loc 2 241 0
 1225 009e CEE90067 		strd	r6, [lr]
 1226              		.loc 2 242 0
 1227 00a2 C5E90067 		strd	r6, [r5]
 1228              		.loc 2 246 0
 1229 00a6 00F3F180 		bgt	.L121
 1230              	.L123:
 1231 00aa 2668     		ldr	r6, [r4]
 1232              	.L122:
 1233              		.loc 2 262 0
 1234 00ac 994D     		ldr	r5, .L153+52
 1235 00ae 9A4A     		ldr	r2, .L153+56
 1236 00b0 2B89     		ldrh	r3, [r5, #8]
 1237              		.loc 2 259 0
 1238 00b2 42F21071 		movw	r1, #10000
 1239 00b6 8E42     		cmp	r6, r1
 1240 00b8 A8BF     		it	ge
 1241 00ba 0E46     		movge	r6, r1
 1242              		.loc 2 260 0
 1243 00bc B6F57A7F 		cmp	r6, #1000
 1244 00c0 B8BF     		it	lt
 1245 00c2 4FF47A76 		movlt	r6, #1000
 1246              		.loc 2 262 0
 1247 00c6 03FB06F3 		mul	r3, r3, r6
 1248 00ca 82FB0312 		smull	r1, r2, r2, r3
 1249 00ce DB17     		asrs	r3, r3, #31
 1250 00d0 C3EB2232 		rsb	r2, r3, r2, asr #12
 1251 00d4 92B2     		uxth	r2, r2
 1252 00d6 2846     		mov	r0, r5
 1253 00d8 0221     		movs	r1, #2
 1254              		.loc 2 260 0
ARM GAS  C:\Users\danit\AppData\Local\Temp\ccBFeYtw.s 			page 23


 1255 00da 2660     		str	r6, [r4]
 1256              		.loc 2 262 0
 1257 00dc FFF7FEFF 		bl	pwmEnableChannel
 1258              	.LVL53:
 1259              	.L120:
 1260              	.LBE14:
 1261              	.LBB15:
 1262              		.loc 2 264 0
 1263 00e0 2023     		movs	r3, #32
 1264              	@ 264 "src/cruise.c" 1
 1265 00e2 83F31188 		msr     BASEPRI, r3
 1266              	@ 0 "" 2
 1267              		.thumb
 1268              	.LBE15:
 1269              		.loc 2 265 0
 1270 00e6 8D4B     		ldr	r3, .L153+60
 1271 00e8 2268     		ldr	r2, [r4]
 1272 00ea 1A60     		str	r2, [r3]
 1273              		.loc 2 268 0
 1274 00ec 0220     		movs	r0, #2
 1275 00ee FFF7FEFF 		bl	measGetValue_2
 1276              	.LVL54:
 1277 00f2 8B4A     		ldr	r2, .L153+64
 1278              	.LBB16:
 1279              		.loc 2 269 0
 1280 00f4 0023     		movs	r3, #0
 1281              	.LBE16:
 1282              		.loc 2 268 0
 1283 00f6 1060     		str	r0, [r2]
 1284              	.LBB17:
 1285              		.loc 2 269 0
 1286              	@ 269 "src/cruise.c" 1
 1287 00f8 83F31188 		msr     BASEPRI, r3
 1288              	@ 0 "" 2
 1289              		.thumb
 1290              	.LBE17:
 1291              		.loc 2 271 0
 1292 00fc 894B     		ldr	r3, .L153+68
 1293 00fe 1B78     		ldrb	r3, [r3]	@ zero_extendqisi2
 1294 0100 13B9     		cbnz	r3, .L150
 1295              		.loc 2 275 0
 1296 0102 07B0     		add	sp, sp, #28
 1297              		.cfi_remember_state
 1298              		.cfi_def_cfa_offset 36
 1299              		@ sp needed
 1300 0104 BDE8F08F 		pop	{r4, r5, r6, r7, r8, r9, r10, fp, pc}
 1301              	.L150:
 1302              		.cfi_restore_state
 1303              		.loc 2 273 0
 1304 0108 1168     		ldr	r1, [r2]
 1305 010a 2C89     		ldrh	r4, [r5, #8]
 1306 010c 824A     		ldr	r2, .L153+56
 1307 010e 8148     		ldr	r0, .L153+52
 1308 0110 C1F51C53 		rsb	r3, r1, #9984
 1309 0114 1033     		adds	r3, r3, #16
 1310 0116 9BB2     		uxth	r3, r3
 1311 0118 03FB04F3 		mul	r3, r3, r4
ARM GAS  C:\Users\danit\AppData\Local\Temp\ccBFeYtw.s 			page 24


 1312 011c 82FB0312 		smull	r1, r2, r2, r3
 1313 0120 DB17     		asrs	r3, r3, #31
 1314 0122 C3EB2232 		rsb	r2, r3, r2, asr #12
 1315 0126 92B2     		uxth	r2, r2
 1316 0128 0121     		movs	r1, #1
 1317              		.loc 2 275 0
 1318 012a 07B0     		add	sp, sp, #28
 1319              		.cfi_remember_state
 1320              		.cfi_def_cfa_offset 36
 1321              		@ sp needed
 1322 012c BDE8F04F 		pop	{r4, r5, r6, r7, r8, r9, r10, fp, lr}
 1323              		.cfi_restore 14
 1324              		.cfi_restore 11
 1325              		.cfi_restore 10
 1326              		.cfi_restore 9
 1327              		.cfi_restore 8
 1328              		.cfi_restore 7
 1329              		.cfi_restore 6
 1330              		.cfi_restore 5
 1331              		.cfi_restore 4
 1332              		.cfi_def_cfa_offset 0
 1333              		.loc 2 273 0
 1334 0130 FFF7FEBF 		b	pwmEnableChannel
 1335              	.LVL55:
 1336              	.L149:
 1337              		.cfi_restore_state
 1338              		.loc 2 167 0 discriminator 1
 1339 0134 FFF7FEFF 		bl	speedGetSpeed
 1340              	.LVL56:
 1341 0138 0928     		cmp	r0, #9
 1342 013a 40F2A480 		bls	.L151
 1343              		.loc 2 173 0
 1344 013e 3388     		ldrh	r3, [r6]
 1345 0140 002B     		cmp	r3, #0
 1346 0142 3FF47DAF 		beq	.L110
 1347              	.LBB18:
 1348              		.loc 2 175 0
 1349 0146 784B     		ldr	r3, .L153+72
 1350 0148 93F80080 		ldrb	r8, [r3]	@ zero_extendqisi2
 1351 014c B8F1000F 		cmp	r8, #0
 1352 0150 40F00481 		bne	.L152
 1353              		.loc 2 180 0
 1354 0154 754B     		ldr	r3, .L153+76
 1355 0156 93F80090 		ldrb	r9, [r3]	@ zero_extendqisi2
 1356 015a B9F1000F 		cmp	r9, #0
 1357 015e 00F0AB80 		beq	.L113
 1358              		.loc 2 182 0
 1359 0162 FFF7FEFF 		bl	speedGetRpm
 1360              	.LVL57:
 1361 0166 2080     		strh	r0, [r4]	@ movhi
 1362              		.loc 2 183 0
 1363 0168 FFF7FEFF 		bl	speedGetRpm
 1364              	.LVL58:
 1365 016c 704B     		ldr	r3, .L153+80
 1366 016e DFF8E4E1 		ldr	lr, .L153+116
 1367 0172 DFF8E4C1 		ldr	ip, .L153+120
 1368 0176 B3F90030 		ldrsh	r3, [r3]
ARM GAS  C:\Users\danit\AppData\Local\Temp\ccBFeYtw.s 			page 25


 1369 017a 6E4A     		ldr	r2, .L153+84
 1370 017c B4F90010 		ldrsh	r1, [r4]
 1371 0180 BEF900E0 		ldrsh	lr, [lr]
 1372 0184 BCF90040 		ldrsh	r4, [ip]
 1373 0188 0093     		str	r3, [sp]
 1374 018a C830     		adds	r0, r0, #200
 1375 018c 00B2     		sxth	r0, r0
 1376 018e 4346     		mov	r3, r8
 1377              	.L147:
 1378              		.loc 2 187 0
 1379 0190 CDF804E0 		str	lr, [sp, #4]
 1380 0194 0294     		str	r4, [sp, #8]
 1381 0196 0392     		str	r2, [sp, #12]
 1382 0198 0492     		str	r2, [sp, #16]
 1383 019a 0592     		str	r2, [sp, #20]
 1384              	.L146:
 1385 019c FFF7FEFF 		bl	cruisePID
 1386              	.LVL59:
 1387 01a0 654A     		ldr	r2, .L153+88
 1388              		.loc 2 189 0
 1389 01a2 594C     		ldr	r4, .L153+40
 1390              		.loc 2 187 0
 1391 01a4 C317     		asrs	r3, r0, #31
 1392 01a6 82FB0020 		smull	r2, r0, r2, r0
 1393 01aa C3EB6010 		rsb	r0, r3, r0, asr #5
 1394              		.loc 2 195 0
 1395 01ae 2A68     		ldr	r2, [r5]
 1396 01b0 B7F91830 		ldrsh	r3, [r7, #24]
 1397              		.loc 2 189 0
 1398 01b4 C0F51C50 		rsb	r0, r0, #9984
 1399 01b8 1030     		adds	r0, r0, #16
 1400              		.loc 2 195 0
 1401 01ba 9342     		cmp	r3, r2
 1402              		.loc 2 189 0
 1403 01bc 2060     		str	r0, [r4]
 1404              		.loc 2 195 0
 1405 01be 12DD     		ble	.L114
 1406              		.loc 2 195 0 is_stmt 0 discriminator 1
 1407 01c0 5E49     		ldr	r1, .L153+92
 1408 01c2 0978     		ldrb	r1, [r1]	@ zero_extendqisi2
 1409 01c4 79B1     		cbz	r1, .L114
 1410              		.loc 2 197 0 is_stmt 1
 1411 01c6 9B1A     		subs	r3, r3, r2
 1412 01c8 03EB8303 		add	r3, r3, r3, lsl #2
 1413 01cc 03EB8303 		add	r3, r3, r3, lsl #2
 1414 01d0 5B00     		lsls	r3, r3, #1
 1415 01d2 9BB2     		uxth	r3, r3
 1416              		.loc 2 198 0
 1417 01d4 41F28832 		movw	r2, #5000
 1418 01d8 9342     		cmp	r3, r2
 1419 01da 00F2DD80 		bhi	.L115
 1420              		.loc 2 197 0
 1421 01de 584A     		ldr	r2, .L153+96
 1422 01e0 1946     		mov	r1, r3
 1423 01e2 1380     		strh	r3, [r2]	@ movhi
 1424              	.L116:
 1425              		.loc 2 200 0
ARM GAS  C:\Users\danit\AppData\Local\Temp\ccBFeYtw.s 			page 26


 1426 01e4 0844     		add	r0, r0, r1
 1427              	.L114:
 1428              		.loc 2 206 0
 1429 01e6 42F21077 		movw	r7, #10000
 1430 01ea 8742     		cmp	r7, r0
 1431              		.loc 2 209 0
 1432 01ec 494D     		ldr	r5, .L153+52
 1433 01ee 4A4A     		ldr	r2, .L153+56
 1434 01f0 2B89     		ldrh	r3, [r5, #8]
 1435              		.loc 2 206 0
 1436 01f2 A8BF     		it	ge
 1437 01f4 0746     		movge	r7, r0
 1438              		.loc 2 207 0
 1439 01f6 B7F57A7F 		cmp	r7, #1000
 1440 01fa B8BF     		it	lt
 1441 01fc 4FF47A77 		movlt	r7, #1000
 1442              		.loc 2 209 0
 1443 0200 03FB07F3 		mul	r3, r3, r7
 1444 0204 82FB0312 		smull	r1, r2, r2, r3
 1445 0208 DB17     		asrs	r3, r3, #31
 1446 020a C3EB2232 		rsb	r2, r3, r2, asr #12
 1447 020e 92B2     		uxth	r2, r2
 1448 0210 2846     		mov	r0, r5
 1449 0212 0221     		movs	r1, #2
 1450              		.loc 2 207 0
 1451 0214 2760     		str	r7, [r4]
 1452              		.loc 2 209 0
 1453 0216 FFF7FEFF 		bl	pwmEnableChannel
 1454              	.LVL60:
 1455              		.loc 2 212 0
 1456 021a 0120     		movs	r0, #1
 1457 021c FFF7FEFF 		bl	measGetValue_2
 1458              	.LVL61:
 1459 0220 2368     		ldr	r3, [r4]
 1460 0222 C0F51C50 		rsb	r0, r0, #9984
 1461 0226 1030     		adds	r0, r0, #16
 1462 0228 9842     		cmp	r0, r3
 1463 022a 08DA     		bge	.L118
 1464              		.loc 2 214 0
 1465 022c 354A     		ldr	r2, .L153+36
 1466 022e 1388     		ldrh	r3, [r2]
 1467 0230 0133     		adds	r3, r3, #1
 1468 0232 9BB2     		uxth	r3, r3
 1469              		.loc 2 215 0
 1470 0234 962B     		cmp	r3, #150
 1471              		.loc 2 214 0
 1472 0236 1380     		strh	r3, [r2]	@ movhi
 1473              		.loc 2 217 0
 1474 0238 84BF     		itt	hi
 1475 023a 0023     		movhi	r3, #0
 1476 023c 3380     		strhhi	r3, [r6]	@ movhi
 1477              	.L118:
 1478              		.loc 2 223 0
 1479 023e 0220     		movs	r0, #2
 1480 0240 FFF7FEFF 		bl	measGetValue_2
 1481              	.LVL62:
 1482 0244 B0F5FA7F 		cmp	r0, #500
ARM GAS  C:\Users\danit\AppData\Local\Temp\ccBFeYtw.s 			page 27


 1483 0248 7FF74AAF 		ble	.L120
 1484              		.loc 2 225 0
 1485 024c 0023     		movs	r3, #0
 1486 024e 3380     		strh	r3, [r6]	@ movhi
 1487 0250 46E7     		b	.L120
 1488              	.L148:
 1489              	.LBE18:
 1490              		.loc 2 148 0
 1491 0252 274E     		ldr	r6, .L153+16
 1492 0254 254C     		ldr	r4, .L153+12
 1493 0256 B6F90030 		ldrsh	r3, [r6]
 1494 025a B4F90010 		ldrsh	r1, [r4]
 1495 025e 9942     		cmp	r1, r3
 1496 0260 7FF4EAAE 		bne	.L106
 1497              		.loc 2 150 0
 1498 0264 234B     		ldr	r3, .L153+20
 1499 0266 1A78     		ldrb	r2, [r3]	@ zero_extendqisi2
 1500 0268 002A     		cmp	r2, #0
 1501 026a 3FF4E5AE 		beq	.L106
 1502              		.loc 2 152 0
 1503 026e 0022     		movs	r2, #0
 1504              		.loc 2 153 0
 1505 0270 1046     		mov	r0, r2
 1506              		.loc 2 152 0
 1507 0272 1A70     		strb	r2, [r3]
 1508              		.loc 2 153 0
 1509 0274 FFF7FEFF 		bl	eepromWrite
 1510              	.LVL63:
 1511 0278 0028     		cmp	r0, #0
 1512 027a 3FF4DDAE 		beq	.L106
 1513              		.loc 2 154 0
 1514 027e 4FF6FF73 		movw	r3, #65535
 1515 0282 3380     		strh	r3, [r6]	@ movhi
 1516 0284 D8E6     		b	.L106
 1517              	.L151:
 1518              		.loc 2 169 0
 1519 0286 0023     		movs	r3, #0
 1520 0288 3380     		strh	r3, [r6]	@ movhi
 1521 028a D9E6     		b	.L110
 1522              	.L121:
 1523              	.LBB19:
 1524              		.loc 2 246 0 discriminator 1
 1525 028c 2B49     		ldr	r1, .L153+92
 1526 028e 0978     		ldrb	r1, [r1]	@ zero_extendqisi2
 1527 0290 0029     		cmp	r1, #0
 1528 0292 3FF40AAF 		beq	.L123
 1529              		.loc 2 248 0
 1530 0296 9B1A     		subs	r3, r3, r2
 1531 0298 03EB8303 		add	r3, r3, r3, lsl #2
 1532 029c 03EB8303 		add	r3, r3, r3, lsl #2
 1533 02a0 5B00     		lsls	r3, r3, #1
 1534 02a2 9BB2     		uxth	r3, r3
 1535              		.loc 2 249 0
 1536 02a4 41F28832 		movw	r2, #5000
 1537 02a8 9342     		cmp	r3, r2
 1538 02aa 79D8     		bhi	.L124
 1539              		.loc 2 248 0
ARM GAS  C:\Users\danit\AppData\Local\Temp\ccBFeYtw.s 			page 28


 1540 02ac 244A     		ldr	r2, .L153+96
 1541 02ae 1E46     		mov	r6, r3
 1542 02b0 1380     		strh	r3, [r2]	@ movhi
 1543              	.L125:
 1544              		.loc 2 251 0
 1545 02b2 2368     		ldr	r3, [r4]
 1546 02b4 1E44     		add	r6, r6, r3
 1547 02b6 F9E6     		b	.L122
 1548              	.L113:
 1549              	.LBE19:
 1550              	.LBB20:
 1551              		.loc 2 187 0
 1552 02b8 FFF7FEFF 		bl	speedGetRpm
 1553              	.LVL64:
 1554 02bc 1C4B     		ldr	r3, .L153+80
 1555 02be DFF894E0 		ldr	lr, .L153+116
 1556 02c2 DFF894C0 		ldr	ip, .L153+120
 1557 02c6 B3F90030 		ldrsh	r3, [r3]
 1558 02ca B4F90010 		ldrsh	r1, [r4]
 1559 02ce BEF900E0 		ldrsh	lr, [lr]
 1560 02d2 BCF90040 		ldrsh	r4, [ip]
 1561 02d6 174A     		ldr	r2, .L153+84
 1562 02d8 0093     		str	r3, [sp]
 1563 02da 00B2     		sxth	r0, r0
 1564 02dc 4B46     		mov	r3, r9
 1565 02de 57E7     		b	.L147
 1566              	.L154:
 1567              		.align	2
 1568              	.L153:
 1569 02e0 00000000 		.word	.LANCHOR3
 1570 02e4 00000000 		.word	bmsitems
 1571 02e8 00000000 		.word	.LANCHOR18
 1572 02ec 00000000 		.word	.LANCHOR19
 1573 02f0 00000000 		.word	.LANCHOR4
 1574 02f4 00000000 		.word	.LANCHOR5
 1575 02f8 00000000 		.word	.LANCHOR6
 1576 02fc 00000000 		.word	.LANCHOR8
 1577 0300 00000000 		.word	.LANCHOR9
 1578 0304 00000000 		.word	.LANCHOR10
 1579 0308 00000000 		.word	.LANCHOR0
 1580 030c 00000000 		.word	.LANCHOR11
 1581 0310 00000000 		.word	.LANCHOR15
 1582 0314 00000000 		.word	PWMD5
 1583 0318 AD8BDB68 		.word	1759218605
 1584 031c 00000000 		.word	.LANCHOR2
 1585 0320 00000000 		.word	.LANCHOR1
 1586 0324 00000000 		.word	.LANCHOR7
 1587 0328 00000000 		.word	.LANCHOR16
 1588 032c 00000000 		.word	.LANCHOR17
 1589 0330 00000000 		.word	.LANCHOR23
 1590 0334 40420F00 		.word	1000000
 1591 0338 1F85EB51 		.word	1374389535
 1592 033c 00000000 		.word	.LANCHOR26
 1593 0340 00000000 		.word	.LANCHOR21
 1594 0344 00002E40 		.word	1076756480
 1595 0348 00000000 		.word	.LANCHOR12
 1596 034c 00000000 		.word	.LANCHOR13
ARM GAS  C:\Users\danit\AppData\Local\Temp\ccBFeYtw.s 			page 29


 1597 0350 00000000 		.word	.LANCHOR14
 1598 0354 00000000 		.word	.LANCHOR24
 1599 0358 00000000 		.word	.LANCHOR25
 1600              	.L152:
 1601              		.loc 2 177 0
 1602 035c FFF7FEFF 		bl	speedGetRpm
 1603              	.LVL65:
 1604 0360 2080     		strh	r0, [r4]	@ movhi
 1605              		.loc 2 178 0
 1606 0362 FFF7FEFF 		bl	speedGetRpm
 1607              	.LVL66:
 1608 0366 DFF84CE0 		ldr	lr, .L155+12
 1609 036a DFF84CC0 		ldr	ip, .L155+16
 1610 036e 0E4B     		ldr	r3, .L155
 1611 0370 B4F90010 		ldrsh	r1, [r4]
 1612 0374 B3F90030 		ldrsh	r3, [r3]
 1613 0378 BEF900E0 		ldrsh	lr, [lr]
 1614 037c BCF90040 		ldrsh	r4, [ip]
 1615 0380 0A4A     		ldr	r2, .L155+4
 1616 0382 0293     		str	r3, [sp, #8]
 1617 0384 C838     		subs	r0, r0, #200
 1618 0386 CDF800E0 		str	lr, [sp]
 1619 038a 00B2     		sxth	r0, r0
 1620 038c 0194     		str	r4, [sp, #4]
 1621 038e 0392     		str	r2, [sp, #12]
 1622 0390 0492     		str	r2, [sp, #16]
 1623 0392 0592     		str	r2, [sp, #20]
 1624 0394 0023     		movs	r3, #0
 1625 0396 01E7     		b	.L146
 1626              	.L115:
 1627              		.loc 2 199 0
 1628 0398 054B     		ldr	r3, .L155+8
 1629 039a 1146     		mov	r1, r2
 1630 039c 1A80     		strh	r2, [r3]	@ movhi
 1631 039e 21E7     		b	.L116
 1632              	.L124:
 1633              	.LBE20:
 1634              	.LBB21:
 1635              		.loc 2 250 0
 1636 03a0 034B     		ldr	r3, .L155+8
 1637 03a2 1646     		mov	r6, r2
 1638 03a4 1A80     		strh	r2, [r3]	@ movhi
 1639 03a6 84E7     		b	.L125
 1640              	.L156:
 1641              		.align	2
 1642              	.L155:
 1643 03a8 00000000 		.word	.LANCHOR25
 1644 03ac 40420F00 		.word	1000000
 1645 03b0 00000000 		.word	.LANCHOR21
 1646 03b4 00000000 		.word	.LANCHOR23
 1647 03b8 00000000 		.word	.LANCHOR24
 1648              	.LBE21:
 1649              		.cfi_endproc
 1650              	.LFE120:
 1651              		.size	cruiseCalc, .-cruiseCalc
 1652              		.section	.text.cmd_cruisevalues,"ax",%progbits
 1653              		.align	2
ARM GAS  C:\Users\danit\AppData\Local\Temp\ccBFeYtw.s 			page 30


 1654              		.p2align 4,,15
 1655              		.global	cmd_cruisevalues
 1656              		.thumb
 1657              		.thumb_func
 1658              		.type	cmd_cruisevalues, %function
 1659              	cmd_cruisevalues:
 1660              	.LFB137:
 1661              		.loc 2 394 0
 1662              		.cfi_startproc
 1663              		@ args = 0, pretend = 0, frame = 0
 1664              		@ frame_needed = 0, uses_anonymous_args = 0
 1665              	.LVL67:
 1666 0000 2DE9F843 		push	{r3, r4, r5, r6, r7, r8, r9, lr}
 1667              		.cfi_def_cfa_offset 32
 1668              		.cfi_offset 3, -32
 1669              		.cfi_offset 4, -28
 1670              		.cfi_offset 5, -24
 1671              		.cfi_offset 6, -20
 1672              		.cfi_offset 7, -16
 1673              		.cfi_offset 8, -12
 1674              		.cfi_offset 9, -8
 1675              		.cfi_offset 14, -4
 1676              		.loc 2 398 0
 1677 0004 4A49     		ldr	r1, .L161
 1678              	.LVL68:
 1679              		.loc 2 403 0
 1680 0006 DFF8A481 		ldr	r8, .L161+124
 1681 000a 4A4F     		ldr	r7, .L161+4
 1682              		.loc 2 394 0
 1683 000c 0446     		mov	r4, r0
 1684              		.loc 2 398 0
 1685 000e FFF7FEFF 		bl	chprintf
 1686              	.LVL69:
 1687              		.loc 2 399 0
 1688 0012 2046     		mov	r0, r4
 1689 0014 4849     		ldr	r1, .L161+8
 1690 0016 FFF7FEFF 		bl	chprintf
 1691              	.LVL70:
 1692              		.loc 2 400 0
 1693 001a 7FE0     		b	.L158
 1694              	.L159:
 1695              		.loc 2 401 0
 1696 001c 0022     		movs	r2, #0
 1697 001e 1346     		mov	r3, r2
 1698 0020 2046     		mov	r0, r4
 1699 0022 4649     		ldr	r1, .L161+12
 1700              		.loc 2 405 0
 1701 0024 464E     		ldr	r6, .L161+16
 1702              		.loc 2 409 0
 1703 0026 474D     		ldr	r5, .L161+20
 1704              		.loc 2 401 0
 1705 0028 FFF7FEFF 		bl	chprintf
 1706              	.LVL71:
 1707              		.loc 2 403 0
 1708 002c D7E90001 		ldrd	r0, [r7]
 1709 0030 FFF7FEFF 		bl	__aeabi_d2iz
 1710              	.LVL72:
ARM GAS  C:\Users\danit\AppData\Local\Temp\ccBFeYtw.s 			page 31


 1711 0034 B8F90090 		ldrsh	r9, [r8]
 1712 0038 4349     		ldr	r1, .L161+24
 1713 003a 0346     		mov	r3, r0
 1714 003c 4A46     		mov	r2, r9
 1715 003e 2046     		mov	r0, r4
 1716 0040 FFF7FEFF 		bl	chprintf
 1717              	.LVL73:
 1718              		.loc 2 404 0
 1719 0044 414B     		ldr	r3, .L161+28
 1720 0046 424A     		ldr	r2, .L161+32
 1721 0048 D3E90001 		ldrd	r0, [r3]
 1722 004c B2F90090 		ldrsh	r9, [r2]
 1723 0050 FFF7FEFF 		bl	__aeabi_d2iz
 1724              	.LVL74:
 1725 0054 4A46     		mov	r2, r9
 1726 0056 0346     		mov	r3, r0
 1727 0058 3E49     		ldr	r1, .L161+36
 1728 005a 2046     		mov	r0, r4
 1729 005c FFF7FEFF 		bl	chprintf
 1730              	.LVL75:
 1731              		.loc 2 405 0
 1732 0060 3D4B     		ldr	r3, .L161+40
 1733 0062 B6F90090 		ldrsh	r9, [r6]
 1734 0066 D3E90001 		ldrd	r0, [r3]
 1735 006a FFF7FEFF 		bl	__aeabi_d2iz
 1736              	.LVL76:
 1737 006e 4A46     		mov	r2, r9
 1738 0070 0346     		mov	r3, r0
 1739 0072 3A49     		ldr	r1, .L161+44
 1740 0074 2046     		mov	r0, r4
 1741 0076 FFF7FEFF 		bl	chprintf
 1742              	.LVL77:
 1743              		.loc 2 406 0
 1744 007a 394B     		ldr	r3, .L161+48
 1745 007c B6F90020 		ldrsh	r2, [r6]
 1746 0080 1B68     		ldr	r3, [r3]
 1747 0082 3849     		ldr	r1, .L161+52
 1748 0084 2046     		mov	r0, r4
 1749 0086 FFF7FEFF 		bl	chprintf
 1750              	.LVL78:
 1751              		.loc 2 407 0
 1752 008a 374B     		ldr	r3, .L161+56
 1753 008c 3749     		ldr	r1, .L161+60
 1754 008e 1A68     		ldr	r2, [r3]
 1755 0090 2046     		mov	r0, r4
 1756 0092 FFF7FEFF 		bl	chprintf
 1757              	.LVL79:
 1758              		.loc 2 408 0
 1759 0096 364B     		ldr	r3, .L161+64
 1760 0098 3649     		ldr	r1, .L161+68
 1761 009a 1A88     		ldrh	r2, [r3]
 1762 009c 2046     		mov	r0, r4
 1763 009e FFF7FEFF 		bl	chprintf
 1764              	.LVL80:
 1765              		.loc 2 409 0
 1766 00a2 B5F90020 		ldrsh	r2, [r5]
 1767 00a6 3449     		ldr	r1, .L161+72
ARM GAS  C:\Users\danit\AppData\Local\Temp\ccBFeYtw.s 			page 32


 1768 00a8 2046     		mov	r0, r4
 1769 00aa FFF7FEFF 		bl	chprintf
 1770              	.LVL81:
 1771              		.loc 2 410 0
 1772 00ae FFF7FEFF 		bl	speedGetRpm
 1773              	.LVL82:
 1774 00b2 3249     		ldr	r1, .L161+76
 1775 00b4 0246     		mov	r2, r0
 1776 00b6 2046     		mov	r0, r4
 1777 00b8 FFF7FEFF 		bl	chprintf
 1778              	.LVL83:
 1779              		.loc 2 411 0
 1780 00bc B5F90050 		ldrsh	r5, [r5]
 1781 00c0 FFF7FEFF 		bl	speedGetRpm
 1782              	.LVL84:
 1783 00c4 2E49     		ldr	r1, .L161+80
 1784 00c6 2A1A     		subs	r2, r5, r0
 1785 00c8 2046     		mov	r0, r4
 1786 00ca FFF7FEFF 		bl	chprintf
 1787              	.LVL85:
 1788              		.loc 2 412 0
 1789 00ce 2046     		mov	r0, r4
 1790 00d0 2C49     		ldr	r1, .L161+84
 1791 00d2 FFF7FEFF 		bl	chprintf
 1792              	.LVL86:
 1793              		.loc 2 413 0
 1794 00d6 2C4B     		ldr	r3, .L161+88
 1795 00d8 2C49     		ldr	r1, .L161+92
 1796 00da 1A88     		ldrh	r2, [r3]
 1797 00dc 2046     		mov	r0, r4
 1798 00de FFF7FEFF 		bl	chprintf
 1799              	.LVL87:
 1800              		.loc 2 414 0
 1801 00e2 2046     		mov	r0, r4
 1802 00e4 2A49     		ldr	r1, .L161+96
 1803 00e6 0022     		movs	r2, #0
 1804 00e8 FFF7FEFF 		bl	chprintf
 1805              	.LVL88:
 1806              		.loc 2 415 0
 1807 00ec 294B     		ldr	r3, .L161+100
 1808 00ee 2A49     		ldr	r1, .L161+104
 1809 00f0 1A88     		ldrh	r2, [r3]
 1810 00f2 2046     		mov	r0, r4
 1811 00f4 FFF7FEFF 		bl	chprintf
 1812              	.LVL89:
 1813              		.loc 2 416 0
 1814 00f8 284B     		ldr	r3, .L161+108
 1815 00fa 2949     		ldr	r1, .L161+112
 1816 00fc 1A78     		ldrb	r2, [r3]	@ zero_extendqisi2
 1817 00fe 2046     		mov	r0, r4
 1818 0100 FFF7FEFF 		bl	chprintf
 1819              	.LVL90:
 1820              		.loc 2 417 0
 1821 0104 274B     		ldr	r3, .L161+116
 1822 0106 2849     		ldr	r1, .L161+120
 1823 0108 1A68     		ldr	r2, [r3]
 1824 010a C2F51C52 		rsb	r2, r2, #9984
ARM GAS  C:\Users\danit\AppData\Local\Temp\ccBFeYtw.s 			page 33


 1825 010e 2046     		mov	r0, r4
 1826 0110 1032     		adds	r2, r2, #16
 1827 0112 FFF7FEFF 		bl	chprintf
 1828              	.LVL91:
 1829              		.loc 2 418 0
 1830 0116 6420     		movs	r0, #100
 1831 0118 FFF7FEFF 		bl	chThdSleep
 1832              	.LVL92:
 1833              	.L158:
 1834              		.loc 2 400 0
 1835 011c 2368     		ldr	r3, [r4]
 1836 011e 2046     		mov	r0, r4
 1837 0120 5B69     		ldr	r3, [r3, #20]
 1838 0122 0021     		movs	r1, #0
 1839 0124 9847     		blx	r3
 1840              	.LVL93:
 1841 0126 0130     		adds	r0, r0, #1
 1842 0128 3FF478AF 		beq	.L159
 1843              		.loc 2 420 0
 1844 012c BDE8F883 		pop	{r3, r4, r5, r6, r7, r8, r9, pc}
 1845              	.LVL94:
 1846              	.L162:
 1847              		.align	2
 1848              	.L161:
 1849 0130 00000000 		.word	.LC0
 1850 0134 00000000 		.word	.LANCHOR11
 1851 0138 04000000 		.word	.LC1
 1852 013c 0C000000 		.word	.LC2
 1853 0140 00000000 		.word	.LANCHOR25
 1854 0144 00000000 		.word	.LANCHOR19
 1855 0148 18000000 		.word	.LC3
 1856 014c 00000000 		.word	.LANCHOR12
 1857 0150 00000000 		.word	.LANCHOR24
 1858 0154 30000000 		.word	.LC4
 1859 0158 00000000 		.word	.LANCHOR13
 1860 015c 48000000 		.word	.LC5
 1861 0160 00000000 		.word	.LANCHOR22
 1862 0164 60000000 		.word	.LC6
 1863 0168 00000000 		.word	.LANCHOR0
 1864 016c 78000000 		.word	.LC7
 1865 0170 00000000 		.word	.LANCHOR21
 1866 0174 84000000 		.word	.LC8
 1867 0178 A4000000 		.word	.LC9
 1868 017c B4000000 		.word	.LC10
 1869 0180 C8000000 		.word	.LC11
 1870 0184 DC000000 		.word	.LC12
 1871 0188 00000000 		.word	.LANCHOR10
 1872 018c E0000000 		.word	.LC13
 1873 0190 00010000 		.word	.LC14
 1874 0194 00000000 		.word	.LANCHOR6
 1875 0198 14010000 		.word	.LC15
 1876 019c 00000000 		.word	.LANCHOR7
 1877 01a0 28010000 		.word	.LC16
 1878 01a4 00000000 		.word	.LANCHOR1
 1879 01a8 3C010000 		.word	.LC17
 1880 01ac 00000000 		.word	.LANCHOR23
 1881              		.cfi_endproc
ARM GAS  C:\Users\danit\AppData\Local\Temp\ccBFeYtw.s 			page 34


 1882              	.LFE137:
 1883              		.size	cmd_cruisevalues, .-cmd_cruisevalues
 1884              		.section	.text.cmd_setcruisevalues,"ax",%progbits
 1885              		.align	2
 1886              		.p2align 4,,15
 1887              		.global	cmd_setcruisevalues
 1888              		.thumb
 1889              		.thumb_func
 1890              		.type	cmd_setcruisevalues, %function
 1891              	cmd_setcruisevalues:
 1892              	.LFB138:
 1893              		.loc 2 422 0
 1894              		.cfi_startproc
 1895              		@ args = 0, pretend = 0, frame = 0
 1896              		@ frame_needed = 0, uses_anonymous_args = 0
 1897              	.LVL95:
 1898 0000 F8B5     		push	{r3, r4, r5, r6, r7, lr}
 1899              		.cfi_def_cfa_offset 24
 1900              		.cfi_offset 3, -24
 1901              		.cfi_offset 4, -20
 1902              		.cfi_offset 5, -16
 1903              		.cfi_offset 6, -12
 1904              		.cfi_offset 7, -8
 1905              		.cfi_offset 14, -4
 1906              		.loc 2 422 0
 1907 0002 0446     		mov	r4, r0
 1908 0004 0D46     		mov	r5, r1
 1909              		.loc 2 428 0
 1910 0006 4D49     		ldr	r1, .L181
 1911              	.LVL96:
 1912              		.loc 2 422 0
 1913 0008 1646     		mov	r6, r2
 1914              		.loc 2 428 0
 1915 000a FFF7FEFF 		bl	chprintf
 1916              	.LVL97:
 1917              		.loc 2 429 0
 1918 000e 2046     		mov	r0, r4
 1919 0010 4B49     		ldr	r1, .L181+4
 1920 0012 FFF7FEFF 		bl	chprintf
 1921              	.LVL98:
 1922              		.loc 2 430 0
 1923 0016 2368     		ldr	r3, [r4]
 1924 0018 2046     		mov	r0, r4
 1925 001a 5B69     		ldr	r3, [r3, #20]
 1926 001c 0021     		movs	r1, #0
 1927 001e 9847     		blx	r3
 1928              	.LVL99:
 1929 0020 0130     		adds	r0, r0, #1
 1930 0022 00D0     		beq	.L174
 1931 0024 F8BD     		pop	{r3, r4, r5, r6, r7, pc}
 1932              	.LVL100:
 1933              	.L174:
 1934              		.loc 2 431 0
 1935 0026 0022     		movs	r2, #0
 1936 0028 1346     		mov	r3, r2
 1937 002a 2046     		mov	r0, r4
 1938 002c 4549     		ldr	r1, .L181+8
ARM GAS  C:\Users\danit\AppData\Local\Temp\ccBFeYtw.s 			page 35


 1939 002e FFF7FEFF 		bl	chprintf
 1940              	.LVL101:
 1941              		.loc 2 433 0
 1942 0032 022D     		cmp	r5, #2
 1943 0034 07D0     		beq	.L175
 1944              		.loc 2 473 0
 1945 0036 012D     		cmp	r5, #1
 1946 0038 55D0     		beq	.L176
 1947              	.LVL102:
 1948              	.L170:
 1949              		.loc 2 494 0
 1950 003a 2046     		mov	r0, r4
 1951 003c 4249     		ldr	r1, .L181+12
 1952              		.loc 2 499 0
 1953 003e BDE8F840 		pop	{r3, r4, r5, r6, r7, lr}
 1954              		.cfi_remember_state
 1955              		.cfi_restore 14
 1956              		.cfi_restore 7
 1957              		.cfi_restore 6
 1958              		.cfi_restore 5
 1959              		.cfi_restore 4
 1960              		.cfi_restore 3
 1961              		.cfi_def_cfa_offset 0
 1962              	.LVL103:
 1963              		.loc 2 494 0
 1964 0042 FFF7FEBF 		b	chprintf
 1965              	.LVL104:
 1966              	.L175:
 1967              		.cfi_restore_state
 1968              		.loc 2 433 0 discriminator 1
 1969 0046 3568     		ldr	r5, [r6]
 1970              	.LVL105:
 1971 0048 4049     		ldr	r1, .L181+16
 1972 004a 2846     		mov	r0, r5
 1973 004c FFF7FEFF 		bl	strcmp
 1974              	.LVL106:
 1975 0050 0028     		cmp	r0, #0
 1976 0052 33D0     		beq	.L177
 1977              		.loc 2 443 0 discriminator 1
 1978 0054 2846     		mov	r0, r5
 1979 0056 3E49     		ldr	r1, .L181+20
 1980 0058 FFF7FEFF 		bl	strcmp
 1981              	.LVL107:
 1982 005c 0028     		cmp	r0, #0
 1983 005e 37D0     		beq	.L178
 1984              		.loc 2 453 0 discriminator 1
 1985 0060 2846     		mov	r0, r5
 1986 0062 3C49     		ldr	r1, .L181+24
 1987 0064 FFF7FEFF 		bl	strcmp
 1988              	.LVL108:
 1989 0068 0028     		cmp	r0, #0
 1990 006a 55D0     		beq	.L179
 1991              		.loc 2 463 0 discriminator 1
 1992 006c 2846     		mov	r0, r5
 1993 006e 3A49     		ldr	r1, .L181+28
 1994 0070 FFF7FEFF 		bl	strcmp
 1995              	.LVL109:
ARM GAS  C:\Users\danit\AppData\Local\Temp\ccBFeYtw.s 			page 36


 1996 0074 0028     		cmp	r0, #0
 1997 0076 E0D1     		bne	.L170
 1998              		.loc 2 464 0
 1999 0078 7068     		ldr	r0, [r6, #4]
 2000              		.loc 2 466 0
 2001 007a 384F     		ldr	r7, .L181+32
 2002 007c 384D     		ldr	r5, .L181+36
 2003 007e 394E     		ldr	r6, .L181+40
 2004              	.LVL110:
 2005              		.loc 2 464 0
 2006 0080 FFF7FEFF 		bl	atol
 2007              	.LVL111:
 2008 0084 384B     		ldr	r3, .L181+44
 2009 0086 3880     		strh	r0, [r7]	@ movhi
 2010 0088 1A88     		ldrh	r2, [r3]
 2011              	.LVL112:
 2012              	.L167:
 2013              		.loc 2 487 0
 2014 008a 3849     		ldr	r1, .L181+48
 2015 008c 2046     		mov	r0, r4
 2016 008e 12B2     		sxth	r2, r2
 2017 0090 FFF7FEFF 		bl	chprintf
 2018              	.LVL113:
 2019              		.loc 2 488 0
 2020 0094 2046     		mov	r0, r4
 2021 0096 B6F90020 		ldrsh	r2, [r6]
 2022 009a 3549     		ldr	r1, .L181+52
 2023 009c FFF7FEFF 		bl	chprintf
 2024              	.LVL114:
 2025              		.loc 2 489 0
 2026 00a0 2046     		mov	r0, r4
 2027 00a2 B7F90020 		ldrsh	r2, [r7]
 2028 00a6 3349     		ldr	r1, .L181+56
 2029 00a8 FFF7FEFF 		bl	chprintf
 2030              	.LVL115:
 2031              		.loc 2 490 0
 2032 00ac 2046     		mov	r0, r4
 2033 00ae B5F90020 		ldrsh	r2, [r5]
 2034 00b2 3149     		ldr	r1, .L181+60
 2035              		.loc 2 499 0
 2036 00b4 BDE8F840 		pop	{r3, r4, r5, r6, r7, lr}
 2037              		.cfi_remember_state
 2038              		.cfi_restore 14
 2039              		.cfi_restore 7
 2040              		.cfi_restore 6
 2041              		.cfi_restore 5
 2042              		.cfi_restore 4
 2043              		.cfi_restore 3
 2044              		.cfi_def_cfa_offset 0
 2045              	.LVL116:
 2046              		.loc 2 490 0
 2047 00b8 FFF7FEBF 		b	chprintf
 2048              	.LVL117:
 2049              	.L177:
 2050              		.cfi_restore_state
 2051              		.loc 2 434 0
 2052 00bc 7068     		ldr	r0, [r6, #4]
ARM GAS  C:\Users\danit\AppData\Local\Temp\ccBFeYtw.s 			page 37


 2053              		.loc 2 436 0
 2054 00be 284D     		ldr	r5, .L181+36
 2055 00c0 284E     		ldr	r6, .L181+40
 2056              	.LVL118:
 2057 00c2 264F     		ldr	r7, .L181+32
 2058              		.loc 2 434 0
 2059 00c4 FFF7FEFF 		bl	atol
 2060              	.LVL119:
 2061 00c8 274B     		ldr	r3, .L181+44
 2062 00ca 2880     		strh	r0, [r5]	@ movhi
 2063 00cc 1A88     		ldrh	r2, [r3]
 2064 00ce DCE7     		b	.L167
 2065              	.LVL120:
 2066              	.L178:
 2067              		.loc 2 444 0
 2068 00d0 7068     		ldr	r0, [r6, #4]
 2069 00d2 234D     		ldr	r5, .L181+36
 2070 00d4 234E     		ldr	r6, .L181+40
 2071              	.LVL121:
 2072 00d6 214F     		ldr	r7, .L181+32
 2073 00d8 FFF7FEFF 		bl	atol
 2074              	.LVL122:
 2075              		.loc 2 446 0
 2076 00dc 224B     		ldr	r3, .L181+44
 2077              		.loc 2 444 0
 2078 00de 80B2     		uxth	r0, r0
 2079              	.LVL123:
 2080              		.loc 2 446 0
 2081 00e0 1880     		strh	r0, [r3]	@ movhi
 2082 00e2 0246     		mov	r2, r0
 2083 00e4 D1E7     		b	.L167
 2084              	.LVL124:
 2085              	.L176:
 2086              		.loc 2 473 0 discriminator 1
 2087 00e6 3668     		ldr	r6, [r6]
 2088              	.LVL125:
 2089 00e8 2449     		ldr	r1, .L181+64
 2090 00ea 3046     		mov	r0, r6
 2091 00ec FFF7FEFF 		bl	strcmp
 2092              	.LVL126:
 2093 00f0 0346     		mov	r3, r0
 2094 00f2 D8B1     		cbz	r0, .L180
 2095              		.loc 2 478 0 discriminator 1
 2096 00f4 3046     		mov	r0, r6
 2097 00f6 2249     		ldr	r1, .L181+68
 2098 00f8 FFF7FEFF 		bl	strcmp
 2099              	.LVL127:
 2100 00fc 0028     		cmp	r0, #0
 2101 00fe 9CD1     		bne	.L170
 2102              	.LBB22:
 2103              	.LBB23:
 2104              		.loc 2 282 0
 2105 0100 204B     		ldr	r3, .L181+72
 2106              	.LBE23:
 2107              	.LBE22:
 2108              		.loc 2 480 0
 2109 0102 2149     		ldr	r1, .L181+76
ARM GAS  C:\Users\danit\AppData\Local\Temp\ccBFeYtw.s 			page 38


 2110              	.LBB25:
 2111              	.LBB24:
 2112              		.loc 2 282 0
 2113 0104 1880     		strh	r0, [r3]	@ movhi
 2114              	.LBE24:
 2115              	.LBE25:
 2116              		.loc 2 480 0
 2117 0106 2046     		mov	r0, r4
 2118              	.LVL128:
 2119              	.L173:
 2120 0108 FFF7FEFF 		bl	chprintf
 2121              	.LVL129:
 2122 010c 164B     		ldr	r3, .L181+44
 2123 010e 144D     		ldr	r5, .L181+36
 2124              	.LVL130:
 2125 0110 1A88     		ldrh	r2, [r3]
 2126 0112 144E     		ldr	r6, .L181+40
 2127 0114 114F     		ldr	r7, .L181+32
 2128 0116 B8E7     		b	.L167
 2129              	.LVL131:
 2130              	.L179:
 2131              		.loc 2 454 0
 2132 0118 7068     		ldr	r0, [r6, #4]
 2133              		.loc 2 456 0
 2134 011a 124E     		ldr	r6, .L181+40
 2135              	.LVL132:
 2136 011c 104D     		ldr	r5, .L181+36
 2137 011e 0F4F     		ldr	r7, .L181+32
 2138              		.loc 2 454 0
 2139 0120 FFF7FEFF 		bl	atol
 2140              	.LVL133:
 2141 0124 104B     		ldr	r3, .L181+44
 2142 0126 3080     		strh	r0, [r6]	@ movhi
 2143 0128 1A88     		ldrh	r2, [r3]
 2144              		.loc 2 456 0
 2145 012a AEE7     		b	.L167
 2146              	.LVL134:
 2147              	.L180:
 2148              	.LBB26:
 2149              	.LBB27:
 2150              		.loc 2 278 0
 2151 012c 1548     		ldr	r0, .L181+72
 2152              		.loc 2 279 0
 2153 012e 174A     		ldr	r2, .L181+80
 2154              		.loc 2 278 0
 2155 0130 0580     		strh	r5, [r0]	@ movhi
 2156              	.LBE27:
 2157              	.LBE26:
 2158              		.loc 2 475 0
 2159 0132 1749     		ldr	r1, .L181+84
 2160              	.LBB29:
 2161              	.LBB28:
 2162              		.loc 2 279 0
 2163 0134 1380     		strh	r3, [r2]	@ movhi
 2164              	.LBE28:
 2165              	.LBE29:
 2166              		.loc 2 475 0
ARM GAS  C:\Users\danit\AppData\Local\Temp\ccBFeYtw.s 			page 39


 2167 0136 2046     		mov	r0, r4
 2168 0138 E6E7     		b	.L173
 2169              	.L182:
 2170 013a 00BF     		.align	2
 2171              	.L181:
 2172 013c 00000000 		.word	.LC0
 2173 0140 04000000 		.word	.LC1
 2174 0144 0C000000 		.word	.LC2
 2175 0148 C8010000 		.word	.LC29
 2176 014c 50010000 		.word	.LC18
 2177 0150 54010000 		.word	.LC19
 2178 0154 58010000 		.word	.LC20
 2179 0158 5C010000 		.word	.LC21
 2180 015c 00000000 		.word	.LANCHOR25
 2181 0160 00000000 		.word	.LANCHOR19
 2182 0164 00000000 		.word	.LANCHOR24
 2183 0168 00000000 		.word	.LANCHOR23
 2184 016c A4010000 		.word	.LC26
 2185 0170 B0010000 		.word	.LC27
 2186 0174 BC010000 		.word	.LC28
 2187 0178 A4000000 		.word	.LC9
 2188 017c 60010000 		.word	.LC22
 2189 0180 80010000 		.word	.LC24
 2190 0184 00000000 		.word	.LANCHOR6
 2191 0188 84010000 		.word	.LC25
 2192 018c 00000000 		.word	.LANCHOR10
 2193 0190 64010000 		.word	.LC23
 2194              		.cfi_endproc
 2195              	.LFE138:
 2196              		.size	cmd_setcruisevalues, .-cmd_setcruisevalues
 2197              		.section	.text.cmd_cruise,"ax",%progbits
 2198              		.align	2
 2199              		.p2align 4,,15
 2200              		.global	cmd_cruise
 2201              		.thumb
 2202              		.thumb_func
 2203              		.type	cmd_cruise, %function
 2204              	cmd_cruise:
 2205              	.LFB139:
 2206              		.loc 2 501 0
 2207              		.cfi_startproc
 2208              		@ args = 0, pretend = 0, frame = 0
 2209              		@ frame_needed = 0, uses_anonymous_args = 0
 2210              	.LVL135:
 2211 0000 70B5     		push	{r4, r5, r6, lr}
 2212              		.cfi_def_cfa_offset 16
 2213              		.cfi_offset 4, -16
 2214              		.cfi_offset 5, -12
 2215              		.cfi_offset 6, -8
 2216              		.cfi_offset 14, -4
 2217              		.loc 2 501 0
 2218 0002 0446     		mov	r4, r0
 2219 0004 0D46     		mov	r5, r1
 2220              		.loc 2 505 0
 2221 0006 1C49     		ldr	r1, .L189
 2222              	.LVL136:
 2223              		.loc 2 501 0
ARM GAS  C:\Users\danit\AppData\Local\Temp\ccBFeYtw.s 			page 40


 2224 0008 1646     		mov	r6, r2
 2225              		.loc 2 505 0
 2226 000a FFF7FEFF 		bl	chprintf
 2227              	.LVL137:
 2228              		.loc 2 506 0
 2229 000e 2046     		mov	r0, r4
 2230 0010 1A49     		ldr	r1, .L189+4
 2231 0012 FFF7FEFF 		bl	chprintf
 2232              	.LVL138:
 2233              		.loc 2 507 0
 2234 0016 0022     		movs	r2, #0
 2235 0018 2046     		mov	r0, r4
 2236 001a 1346     		mov	r3, r2
 2237 001c 1849     		ldr	r1, .L189+8
 2238 001e FFF7FEFF 		bl	chprintf
 2239              	.LVL139:
 2240              		.loc 2 509 0
 2241 0022 012D     		cmp	r5, #1
 2242 0024 09D0     		beq	.L187
 2243              	.LVL140:
 2244              	.L184:
 2245              		.loc 2 525 0
 2246 0026 2046     		mov	r0, r4
 2247 0028 1649     		ldr	r1, .L189+12
 2248 002a FFF7FEFF 		bl	chprintf
 2249              	.LVL141:
 2250              		.loc 2 526 0
 2251 002e 2046     		mov	r0, r4
 2252 0030 1549     		ldr	r1, .L189+16
 2253              		.loc 2 530 0
 2254 0032 BDE87040 		pop	{r4, r5, r6, lr}
 2255              		.cfi_remember_state
 2256              		.cfi_restore 14
 2257              		.cfi_restore 6
 2258              		.cfi_restore 5
 2259              		.cfi_restore 4
 2260              		.cfi_def_cfa_offset 0
 2261              	.LVL142:
 2262              		.loc 2 526 0
 2263 0036 FFF7FEBF 		b	chprintf
 2264              	.LVL143:
 2265              	.L187:
 2266              		.cfi_restore_state
 2267              		.loc 2 509 0 discriminator 1
 2268 003a 3668     		ldr	r6, [r6]
 2269              	.LVL144:
 2270 003c 1349     		ldr	r1, .L189+20
 2271 003e 3046     		mov	r0, r6
 2272 0040 FFF7FEFF 		bl	strcmp
 2273              	.LVL145:
 2274 0044 0346     		mov	r3, r0
 2275 0046 68B1     		cbz	r0, .L188
 2276              		.loc 2 514 0 discriminator 1
 2277 0048 3046     		mov	r0, r6
 2278 004a 1149     		ldr	r1, .L189+24
 2279 004c FFF7FEFF 		bl	strcmp
 2280              	.LVL146:
ARM GAS  C:\Users\danit\AppData\Local\Temp\ccBFeYtw.s 			page 41


 2281 0050 0028     		cmp	r0, #0
 2282 0052 E8D1     		bne	.L184
 2283              	.LBB30:
 2284              	.LBB31:
 2285              		.loc 2 282 0
 2286 0054 0F4B     		ldr	r3, .L189+28
 2287              	.LBE31:
 2288              	.LBE30:
 2289              		.loc 2 516 0
 2290 0056 1049     		ldr	r1, .L189+32
 2291              	.LBB33:
 2292              	.LBB32:
 2293              		.loc 2 282 0
 2294 0058 1880     		strh	r0, [r3]	@ movhi
 2295              	.LBE32:
 2296              	.LBE33:
 2297              		.loc 2 516 0
 2298 005a 2046     		mov	r0, r4
 2299              		.loc 2 530 0
 2300 005c BDE87040 		pop	{r4, r5, r6, lr}
 2301              		.cfi_remember_state
 2302              		.cfi_restore 14
 2303              		.cfi_restore 6
 2304              		.cfi_restore 5
 2305              		.cfi_restore 4
 2306              		.cfi_def_cfa_offset 0
 2307              	.LVL147:
 2308              		.loc 2 516 0
 2309 0060 FFF7FEBF 		b	chprintf
 2310              	.LVL148:
 2311              	.L188:
 2312              		.cfi_restore_state
 2313              	.LBB34:
 2314              	.LBB35:
 2315              		.loc 2 278 0
 2316 0064 0B48     		ldr	r0, .L189+28
 2317              		.loc 2 279 0
 2318 0066 0D4A     		ldr	r2, .L189+36
 2319              		.loc 2 278 0
 2320 0068 0580     		strh	r5, [r0]	@ movhi
 2321              	.LBE35:
 2322              	.LBE34:
 2323              		.loc 2 511 0
 2324 006a 0D49     		ldr	r1, .L189+40
 2325              	.LBB37:
 2326              	.LBB36:
 2327              		.loc 2 279 0
 2328 006c 1380     		strh	r3, [r2]	@ movhi
 2329              	.LBE36:
 2330              	.LBE37:
 2331              		.loc 2 511 0
 2332 006e 2046     		mov	r0, r4
 2333              		.loc 2 530 0
 2334 0070 BDE87040 		pop	{r4, r5, r6, lr}
 2335              		.cfi_restore 14
 2336              		.cfi_restore 6
 2337              		.cfi_restore 5
ARM GAS  C:\Users\danit\AppData\Local\Temp\ccBFeYtw.s 			page 42


 2338              		.cfi_restore 4
 2339              		.cfi_def_cfa_offset 0
 2340              	.LVL149:
 2341              		.loc 2 511 0
 2342 0074 FFF7FEBF 		b	chprintf
 2343              	.LVL150:
 2344              	.L190:
 2345              		.align	2
 2346              	.L189:
 2347 0078 00000000 		.word	.LC0
 2348 007c 04000000 		.word	.LC1
 2349 0080 0C000000 		.word	.LC2
 2350 0084 E4010000 		.word	.LC30
 2351 0088 F8010000 		.word	.LC31
 2352 008c 60010000 		.word	.LC22
 2353 0090 80010000 		.word	.LC24
 2354 0094 00000000 		.word	.LANCHOR6
 2355 0098 84010000 		.word	.LC25
 2356 009c 00000000 		.word	.LANCHOR10
 2357 00a0 64010000 		.word	.LC23
 2358              		.cfi_endproc
 2359              	.LFE139:
 2360              		.size	cmd_cruise, .-cmd_cruise
 2361              		.section	.text.cmd_current_limit_switch,"ax",%progbits
 2362              		.align	2
 2363              		.p2align 4,,15
 2364              		.global	cmd_current_limit_switch
 2365              		.thumb
 2366              		.thumb_func
 2367              		.type	cmd_current_limit_switch, %function
 2368              	cmd_current_limit_switch:
 2369              	.LFB140:
 2370              		.loc 2 533 0
 2371              		.cfi_startproc
 2372              		@ args = 0, pretend = 0, frame = 0
 2373              		@ frame_needed = 0, uses_anonymous_args = 0
 2374              	.LVL151:
 2375 0000 70B5     		push	{r4, r5, r6, lr}
 2376              		.cfi_def_cfa_offset 16
 2377              		.cfi_offset 4, -16
 2378              		.cfi_offset 5, -12
 2379              		.cfi_offset 6, -8
 2380              		.cfi_offset 14, -4
 2381              		.loc 2 533 0
 2382 0002 0446     		mov	r4, r0
 2383 0004 0D46     		mov	r5, r1
 2384              		.loc 2 534 0
 2385 0006 2349     		ldr	r1, .L200
 2386              	.LVL152:
 2387              		.loc 2 533 0
 2388 0008 1646     		mov	r6, r2
 2389              		.loc 2 534 0
 2390 000a FFF7FEFF 		bl	chprintf
 2391              	.LVL153:
 2392              		.loc 2 535 0
 2393 000e 2046     		mov	r0, r4
 2394 0010 2149     		ldr	r1, .L200+4
ARM GAS  C:\Users\danit\AppData\Local\Temp\ccBFeYtw.s 			page 43


 2395 0012 FFF7FEFF 		bl	chprintf
 2396              	.LVL154:
 2397              		.loc 2 536 0
 2398 0016 0022     		movs	r2, #0
 2399 0018 2046     		mov	r0, r4
 2400 001a 1346     		mov	r3, r2
 2401 001c 1F49     		ldr	r1, .L200+8
 2402 001e FFF7FEFF 		bl	chprintf
 2403              	.LVL155:
 2404              		.loc 2 538 0
 2405 0022 012D     		cmp	r5, #1
 2406 0024 14D0     		beq	.L197
 2407              	.LVL156:
 2408              	.L192:
 2409              		.loc 2 555 0
 2410 0026 1E4B     		ldr	r3, .L200+12
 2411 0028 1B78     		ldrb	r3, [r3]	@ zero_extendqisi2
 2412              		.loc 2 556 0
 2413 002a 2046     		mov	r0, r4
 2414              		.loc 2 555 0
 2415 002c 63B9     		cbnz	r3, .L198
 2416              	.LVL157:
 2417              		.loc 2 558 0
 2418 002e 1D49     		ldr	r1, .L200+16
 2419 0030 FFF7FEFF 		bl	chprintf
 2420              	.LVL158:
 2421              	.L195:
 2422              		.loc 2 560 0
 2423 0034 2046     		mov	r0, r4
 2424 0036 1C49     		ldr	r1, .L200+20
 2425 0038 FFF7FEFF 		bl	chprintf
 2426              	.LVL159:
 2427              		.loc 2 561 0
 2428 003c 2046     		mov	r0, r4
 2429 003e 1B49     		ldr	r1, .L200+24
 2430              		.loc 2 564 0
 2431 0040 BDE87040 		pop	{r4, r5, r6, lr}
 2432              		.cfi_remember_state
 2433              		.cfi_restore 14
 2434              		.cfi_restore 6
 2435              		.cfi_restore 5
 2436              		.cfi_restore 4
 2437              		.cfi_def_cfa_offset 0
 2438              	.LVL160:
 2439              		.loc 2 561 0
 2440 0044 FFF7FEBF 		b	chprintf
 2441              	.LVL161:
 2442              	.L198:
 2443              		.cfi_restore_state
 2444              		.loc 2 556 0
 2445 0048 1949     		ldr	r1, .L200+28
 2446 004a FFF7FEFF 		bl	chprintf
 2447              	.LVL162:
 2448 004e F1E7     		b	.L195
 2449              	.LVL163:
 2450              	.L197:
 2451              		.loc 2 538 0 discriminator 1
ARM GAS  C:\Users\danit\AppData\Local\Temp\ccBFeYtw.s 			page 44


 2452 0050 3668     		ldr	r6, [r6]
 2453              	.LVL164:
 2454 0052 1849     		ldr	r1, .L200+32
 2455 0054 3046     		mov	r0, r6
 2456 0056 FFF7FEFF 		bl	strcmp
 2457              	.LVL165:
 2458 005a 68B1     		cbz	r0, .L199
 2459              		.loc 2 544 0 discriminator 1
 2460 005c 3046     		mov	r0, r6
 2461 005e 1649     		ldr	r1, .L200+36
 2462 0060 FFF7FEFF 		bl	strcmp
 2463              	.LVL166:
 2464 0064 0028     		cmp	r0, #0
 2465 0066 DED1     		bne	.L192
 2466              		.loc 2 545 0
 2467 0068 0D4B     		ldr	r3, .L200+12
 2468              		.loc 2 546 0
 2469 006a 1449     		ldr	r1, .L200+40
 2470              		.loc 2 545 0
 2471 006c 1870     		strb	r0, [r3]
 2472              		.loc 2 546 0
 2473 006e 2046     		mov	r0, r4
 2474              		.loc 2 564 0
 2475 0070 BDE87040 		pop	{r4, r5, r6, lr}
 2476              		.cfi_remember_state
 2477              		.cfi_restore 14
 2478              		.cfi_restore 6
 2479              		.cfi_restore 5
 2480              		.cfi_restore 4
 2481              		.cfi_def_cfa_offset 0
 2482              	.LVL167:
 2483              		.loc 2 546 0
 2484 0074 FFF7FEBF 		b	chprintf
 2485              	.LVL168:
 2486              	.L199:
 2487              		.cfi_restore_state
 2488              		.loc 2 539 0
 2489 0078 094B     		ldr	r3, .L200+12
 2490              		.loc 2 540 0
 2491 007a 1149     		ldr	r1, .L200+44
 2492              		.loc 2 539 0
 2493 007c 1D70     		strb	r5, [r3]
 2494              		.loc 2 540 0
 2495 007e 2046     		mov	r0, r4
 2496 0080 FFF7FEFF 		bl	chprintf
 2497              	.LVL169:
 2498              		.loc 2 541 0
 2499 0084 0F4B     		ldr	r3, .L200+48
 2500 0086 1049     		ldr	r1, .L200+52
 2501 0088 1A7F     		ldrb	r2, [r3, #28]	@ zero_extendqisi2
 2502 008a 2046     		mov	r0, r4
 2503              		.loc 2 564 0
 2504 008c BDE87040 		pop	{r4, r5, r6, lr}
 2505              		.cfi_restore 14
 2506              		.cfi_restore 6
 2507              		.cfi_restore 5
 2508              		.cfi_restore 4
ARM GAS  C:\Users\danit\AppData\Local\Temp\ccBFeYtw.s 			page 45


 2509              		.cfi_def_cfa_offset 0
 2510              	.LVL170:
 2511              		.loc 2 541 0
 2512 0090 FFF7FEBF 		b	chprintf
 2513              	.LVL171:
 2514              	.L201:
 2515              		.align	2
 2516              	.L200:
 2517 0094 00000000 		.word	.LC0
 2518 0098 04000000 		.word	.LC1
 2519 009c 0C000000 		.word	.LC2
 2520 00a0 00000000 		.word	.LANCHOR26
 2521 00a4 80020000 		.word	.LC36
 2522 00a8 9C020000 		.word	.LC37
 2523 00ac BC020000 		.word	.LC38
 2524 00b0 64020000 		.word	.LC35
 2525 00b4 60010000 		.word	.LC22
 2526 00b8 80010000 		.word	.LC24
 2527 00bc 48020000 		.word	.LC34
 2528 00c0 0C020000 		.word	.LC32
 2529 00c4 00000000 		.word	bmsitems
 2530 00c8 28020000 		.word	.LC33
 2531              		.cfi_endproc
 2532              	.LFE140:
 2533              		.size	cmd_current_limit_switch, .-cmd_current_limit_switch
 2534              		.section	.text.cmd_regen_brake,"ax",%progbits
 2535              		.align	2
 2536              		.p2align 4,,15
 2537              		.global	cmd_regen_brake
 2538              		.thumb
 2539              		.thumb_func
 2540              		.type	cmd_regen_brake, %function
 2541              	cmd_regen_brake:
 2542              	.LFB141:
 2543              		.loc 2 566 0
 2544              		.cfi_startproc
 2545              		@ args = 0, pretend = 0, frame = 0
 2546              		@ frame_needed = 0, uses_anonymous_args = 0
 2547              	.LVL172:
 2548 0000 70B5     		push	{r4, r5, r6, lr}
 2549              		.cfi_def_cfa_offset 16
 2550              		.cfi_offset 4, -16
 2551              		.cfi_offset 5, -12
 2552              		.cfi_offset 6, -8
 2553              		.cfi_offset 14, -4
 2554              		.loc 2 566 0
 2555 0002 0446     		mov	r4, r0
 2556 0004 0D46     		mov	r5, r1
 2557              		.loc 2 570 0
 2558 0006 1B49     		ldr	r1, .L208
 2559              	.LVL173:
 2560              		.loc 2 566 0
 2561 0008 1646     		mov	r6, r2
 2562              		.loc 2 570 0
 2563 000a FFF7FEFF 		bl	chprintf
 2564              	.LVL174:
 2565              		.loc 2 571 0
ARM GAS  C:\Users\danit\AppData\Local\Temp\ccBFeYtw.s 			page 46


 2566 000e 2046     		mov	r0, r4
 2567 0010 1949     		ldr	r1, .L208+4
 2568 0012 FFF7FEFF 		bl	chprintf
 2569              	.LVL175:
 2570              		.loc 2 572 0
 2571 0016 0022     		movs	r2, #0
 2572 0018 2046     		mov	r0, r4
 2573 001a 1346     		mov	r3, r2
 2574 001c 1749     		ldr	r1, .L208+8
 2575 001e FFF7FEFF 		bl	chprintf
 2576              	.LVL176:
 2577              		.loc 2 574 0
 2578 0022 012D     		cmp	r5, #1
 2579 0024 09D0     		beq	.L206
 2580              	.LVL177:
 2581              	.L203:
 2582              		.loc 2 590 0
 2583 0026 2046     		mov	r0, r4
 2584 0028 1549     		ldr	r1, .L208+12
 2585 002a FFF7FEFF 		bl	chprintf
 2586              	.LVL178:
 2587              		.loc 2 591 0
 2588 002e 2046     		mov	r0, r4
 2589 0030 1449     		ldr	r1, .L208+16
 2590              		.loc 2 595 0
 2591 0032 BDE87040 		pop	{r4, r5, r6, lr}
 2592              		.cfi_remember_state
 2593              		.cfi_restore 14
 2594              		.cfi_restore 6
 2595              		.cfi_restore 5
 2596              		.cfi_restore 4
 2597              		.cfi_def_cfa_offset 0
 2598              	.LVL179:
 2599              		.loc 2 591 0
 2600 0036 FFF7FEBF 		b	chprintf
 2601              	.LVL180:
 2602              	.L206:
 2603              		.cfi_restore_state
 2604              		.loc 2 574 0 discriminator 1
 2605 003a 3668     		ldr	r6, [r6]
 2606              	.LVL181:
 2607 003c 1249     		ldr	r1, .L208+20
 2608 003e 3046     		mov	r0, r6
 2609 0040 FFF7FEFF 		bl	strcmp
 2610              	.LVL182:
 2611 0044 68B1     		cbz	r0, .L207
 2612              		.loc 2 579 0 discriminator 1
 2613 0046 3046     		mov	r0, r6
 2614 0048 1049     		ldr	r1, .L208+24
 2615 004a FFF7FEFF 		bl	strcmp
 2616              	.LVL183:
 2617 004e 0028     		cmp	r0, #0
 2618 0050 E9D1     		bne	.L203
 2619              	.LBB38:
 2620              	.LBB39:
 2621              		.loc 2 289 0
 2622 0052 0F4B     		ldr	r3, .L208+28
ARM GAS  C:\Users\danit\AppData\Local\Temp\ccBFeYtw.s 			page 47


 2623              	.LBE39:
 2624              	.LBE38:
 2625              		.loc 2 581 0
 2626 0054 0F49     		ldr	r1, .L208+32
 2627              	.LBB41:
 2628              	.LBB40:
 2629              		.loc 2 289 0
 2630 0056 1870     		strb	r0, [r3]
 2631              	.LBE40:
 2632              	.LBE41:
 2633              		.loc 2 581 0
 2634 0058 2046     		mov	r0, r4
 2635              		.loc 2 595 0
 2636 005a BDE87040 		pop	{r4, r5, r6, lr}
 2637              		.cfi_remember_state
 2638              		.cfi_restore 14
 2639              		.cfi_restore 6
 2640              		.cfi_restore 5
 2641              		.cfi_restore 4
 2642              		.cfi_def_cfa_offset 0
 2643              	.LVL184:
 2644              		.loc 2 581 0
 2645 005e FFF7FEBF 		b	chprintf
 2646              	.LVL185:
 2647              	.L207:
 2648              		.cfi_restore_state
 2649              	.LBB42:
 2650              	.LBB43:
 2651              		.loc 2 286 0
 2652 0062 0B4B     		ldr	r3, .L208+28
 2653              	.LBE43:
 2654              	.LBE42:
 2655              		.loc 2 576 0
 2656 0064 0C49     		ldr	r1, .L208+36
 2657              	.LBB45:
 2658              	.LBB44:
 2659              		.loc 2 286 0
 2660 0066 1D70     		strb	r5, [r3]
 2661              	.LBE44:
 2662              	.LBE45:
 2663              		.loc 2 576 0
 2664 0068 2046     		mov	r0, r4
 2665              		.loc 2 595 0
 2666 006a BDE87040 		pop	{r4, r5, r6, lr}
 2667              		.cfi_restore 14
 2668              		.cfi_restore 6
 2669              		.cfi_restore 5
 2670              		.cfi_restore 4
 2671              		.cfi_def_cfa_offset 0
 2672              	.LVL186:
 2673              		.loc 2 576 0
 2674 006e FFF7FEBF 		b	chprintf
 2675              	.LVL187:
 2676              	.L209:
 2677 0072 00BF     		.align	2
 2678              	.L208:
 2679 0074 00000000 		.word	.LC0
ARM GAS  C:\Users\danit\AppData\Local\Temp\ccBFeYtw.s 			page 48


 2680 0078 04000000 		.word	.LC1
 2681 007c 0C000000 		.word	.LC2
 2682 0080 20030000 		.word	.LC41
 2683 0084 38030000 		.word	.LC42
 2684 0088 60010000 		.word	.LC22
 2685 008c 80010000 		.word	.LC24
 2686 0090 00000000 		.word	.LANCHOR7
 2687 0094 FC020000 		.word	.LC40
 2688 0098 DC020000 		.word	.LC39
 2689              		.cfi_endproc
 2690              	.LFE141:
 2691              		.size	cmd_regen_brake, .-cmd_regen_brake
 2692              		.section	.data.K_D,"aw",%progbits
 2693              		.align	1
 2694              		.set	.LANCHOR25,. + 0
 2695              		.type	K_D, %object
 2696              		.size	K_D, 2
 2697              	K_D:
 2698 0000 F401     		.short	500
 2699              		.section	.bss.old_set,"aw",%nobits
 2700              		.align	1
 2701              		.set	.LANCHOR4,. + 0
 2702              		.type	old_set, %object
 2703              		.size	old_set, 2
 2704              	old_set:
 2705 0000 0000     		.space	2
 2706              		.section	.bss.regen_on,"aw",%nobits
 2707              		.set	.LANCHOR7,. + 0
 2708              		.type	regen_on, %object
 2709              		.size	regen_on, 1
 2710              	regen_on:
 2711 0000 00       		.space	1
 2712              		.section	.bss.eelozo,"aw",%nobits
 2713              		.align	3
 2714              		.set	.LANCHOR14,. + 0
 2715              		.type	eelozo, %object
 2716              		.size	eelozo, 8
 2717              	eelozo:
 2718 0000 00000000 		.space	8
 2718      00000000 
 2719              		.section	.bss.cruise_on,"aw",%nobits
 2720              		.align	1
 2721              		.set	.LANCHOR6,. + 0
 2722              		.type	cruise_on, %object
 2723              		.size	cruise_on, 2
 2724              	cruise_on:
 2725 0000 0000     		.space	2
 2726              		.section	.bss.brake_pwm,"aw",%nobits
 2727              		.align	2
 2728              		.set	.LANCHOR1,. + 0
 2729              		.type	brake_pwm, %object
 2730              		.size	brake_pwm, 4
 2731              	brake_pwm:
 2732 0000 00000000 		.space	4
 2733              		.section	.data.K_P,"aw",%progbits
 2734              		.align	1
 2735              		.set	.LANCHOR23,. + 0
ARM GAS  C:\Users\danit\AppData\Local\Temp\ccBFeYtw.s 			page 49


 2736              		.type	K_P, %object
 2737              		.size	K_P, 2
 2738              	K_P:
 2739 0000 1E00     		.short	30
 2740              		.section	.bss.pwm,"aw",%nobits
 2741              		.align	2
 2742              		.set	.LANCHOR0,. + 0
 2743              		.type	pwm, %object
 2744              		.size	pwm, 4
 2745              	pwm:
 2746 0000 00000000 		.space	4
 2747              		.section	.bss.eeprom_write_period,"aw",%nobits
 2748              		.align	2
 2749              		.set	.LANCHOR3,. + 0
 2750              		.type	eeprom_write_period, %object
 2751              		.size	eeprom_write_period, 4
 2752              	eeprom_write_period:
 2753 0000 00000000 		.space	4
 2754              		.section	.bss.cruise_indicator_index,"aw",%nobits
 2755              		.align	2
 2756              		.set	.LANCHOR9,. + 0
 2757              		.type	cruise_indicator_index, %object
 2758              		.size	cruise_indicator_index, 4
 2759              	cruise_indicator_index:
 2760 0000 00000000 		.space	4
 2761              		.section	.bss.set,"aw",%nobits
 2762              		.align	1
 2763              		.set	.LANCHOR19,. + 0
 2764              		.type	set, %object
 2765              		.size	set, 2
 2766              	set:
 2767 0000 0000     		.space	2
 2768              		.section	.bss.button_long_decelerat,"aw",%nobits
 2769              		.set	.LANCHOR17,. + 0
 2770              		.type	button_long_decelerat, %object
 2771              		.size	button_long_decelerat, 1
 2772              	button_long_decelerat:
 2773 0000 00       		.space	1
 2774              		.section	.data.K_I,"aw",%progbits
 2775              		.align	1
 2776              		.set	.LANCHOR24,. + 0
 2777              		.type	K_I, %object
 2778              		.size	K_I, 2
 2779              	K_I:
 2780 0000 0400     		.short	4
 2781              		.section	.rodata.str1.4,"aMS",%progbits,1
 2782              		.align	2
 2783              	.LC0:
 2784 0000 1B6300   		.ascii	"\033c\000"
 2785 0003 00       		.space	1
 2786              	.LC1:
 2787 0004 1B5B324A 		.ascii	"\033[2J\000"
 2787      00
 2788 0009 000000   		.space	3
 2789              	.LC2:
 2790 000c 1B5B2564 		.ascii	"\033[%d;%dH\000"
 2790      3B256448 
ARM GAS  C:\Users\danit\AppData\Local\Temp\ccBFeYtw.s 			page 50


 2790      00
 2791 0015 000000   		.space	3
 2792              	.LC3:
 2793 0018 4B5F503A 		.ascii	"K_P: %15d - P: %15d\015\012\000"
 2793      20253135 
 2793      64202D20 
 2793      503A2025 
 2793      3135640D 
 2794 002e 0000     		.space	2
 2795              	.LC4:
 2796 0030 4B5F493A 		.ascii	"K_I: %15d - I: %15d\015\012\000"
 2796      20253135 
 2796      64202D20 
 2796      493A2025 
 2796      3135640D 
 2797 0046 0000     		.space	2
 2798              	.LC5:
 2799 0048 4B5F443A 		.ascii	"K_D: %15d - D: %15d\015\012\000"
 2799      20253135 
 2799      64202D20 
 2799      443A2025 
 2799      3135640D 
 2800 005e 0000     		.space	2
 2801              	.LC6:
 2802 0060 4B5F443A 		.ascii	"K_D: %15d - R: %15d\015\012\000"
 2802      20253135 
 2802      64202D20 
 2802      523A2025 
 2802      3135640D 
 2803 0076 0000     		.space	2
 2804              	.LC7:
 2805 0078 70776D3A 		.ascii	"pwm: %15d\015\012\000"
 2805      20253135 
 2805      640D0A00 
 2806              	.LC8:
 2807 0084 43757272 		.ascii	"Current limit substract: %15d\015\012\000"
 2807      656E7420 
 2807      6C696D69 
 2807      74207375 
 2807      62737472 
 2808              	.LC9:
 2809 00a4 73657420 		.ascii	"set rpm: %15d\015\012\000"
 2809      72706D3A 
 2809      20253135 
 2809      640D0A00 
 2810              	.LC10:
 2811 00b4 696E7075 		.ascii	"input rpm: %15d\015\012\000"
 2811      74207270 
 2811      6D3A2025 
 2811      3135640D 
 2811      0A00
 2812 00c6 0000     		.space	2
 2813              	.LC11:
 2814 00c8 73657420 		.ascii	"set - rpm: %15d\015\012\000"
 2814      2D207270 
 2814      6D3A2025 
 2814      3135640D 
ARM GAS  C:\Users\danit\AppData\Local\Temp\ccBFeYtw.s 			page 51


 2814      0A00
 2815 00da 0000     		.space	2
 2816              	.LC12:
 2817 00dc 0D0A00   		.ascii	"\015\012\000"
 2818 00df 00       		.space	1
 2819              	.LC13:
 2820 00e0 63727569 		.ascii	"cruise_disable_period: %15d\015\012\000"
 2820      73655F64 
 2820      69736162 
 2820      6C655F70 
 2820      6572696F 
 2821 00fe 0000     		.space	2
 2822              	.LC14:
 2823 0100 70657269 		.ascii	"period_null: %15d\015\012\000"
 2823      6F645F6E 
 2823      756C6C3A 
 2823      20253135 
 2823      640D0A00 
 2824              	.LC15:
 2825 0114 63727569 		.ascii	"cruise_on: %15d\015\012\000"
 2825      73655F6F 
 2825      6E3A2025 
 2825      3135640D 
 2825      0A00
 2826 0126 0000     		.space	2
 2827              	.LC16:
 2828 0128 72656765 		.ascii	"regen_on: %15d\015\012\000"
 2828      6E5F6F6E 
 2828      3A202531 
 2828      35640D0A 
 2828      00
 2829 0139 000000   		.space	3
 2830              	.LC17:
 2831 013c 6272616B 		.ascii	"brake_pwm: %15d\015\012\000"
 2831      655F7077 
 2831      6D3A2025 
 2831      3135640D 
 2831      0A00
 2832 014e 0000     		.space	2
 2833              	.LC18:
 2834 0150 72706D00 		.ascii	"rpm\000"
 2835              	.LC19:
 2836 0154 4B5F5000 		.ascii	"K_P\000"
 2837              	.LC20:
 2838 0158 4B5F4900 		.ascii	"K_I\000"
 2839              	.LC21:
 2840 015c 4B5F4400 		.ascii	"K_D\000"
 2841              	.LC22:
 2842 0160 6F6E00   		.ascii	"on\000"
 2843 0163 00       		.space	1
 2844              	.LC23:
 2845 0164 43727569 		.ascii	"Cruise control switch ON!\015\012\000"
 2845      73652063 
 2845      6F6E7472 
 2845      6F6C2073 
 2845      77697463 
 2846              	.LC24:
ARM GAS  C:\Users\danit\AppData\Local\Temp\ccBFeYtw.s 			page 52


 2847 0180 6F666600 		.ascii	"off\000"
 2848              	.LC25:
 2849 0184 43727569 		.ascii	"Cruise control switch OFF!\015\012\000"
 2849      73652063 
 2849      6F6E7472 
 2849      6F6C2073 
 2849      77697463 
 2850 01a1 000000   		.space	3
 2851              	.LC26:
 2852 01a4 4B5F503A 		.ascii	"K_P: %15d\015\012\000"
 2852      20253135 
 2852      640D0A00 
 2853              	.LC27:
 2854 01b0 4B5F493A 		.ascii	"K_I: %15d\015\012\000"
 2854      20253135 
 2854      640D0A00 
 2855              	.LC28:
 2856 01bc 4B5F443A 		.ascii	"K_D: %15d\015\012\000"
 2856      20253135 
 2856      640D0A00 
 2857              	.LC29:
 2858 01c8 54686973 		.ascii	"This not good command!\015\012\000"
 2858      206E6F74 
 2858      20676F6F 
 2858      6420636F 
 2858      6D6D616E 
 2859 01e1 000000   		.space	3
 2860              	.LC30:
 2861 01e4 55736167 		.ascii	"Usage: cruise on\015\012\000"
 2861      653A2063 
 2861      72756973 
 2861      65206F6E 
 2861      0D0A00
 2862 01f7 00       		.space	1
 2863              	.LC31:
 2864 01f8 20202020 		.ascii	"       cruise off\015\012\000"
 2864      20202063 
 2864      72756973 
 2864      65206F66 
 2864      660D0A00 
 2865              	.LC32:
 2866 020c 43757272 		.ascii	"Current limit switch ON!\015\012\000"
 2866      656E7420 
 2866      6C696D69 
 2866      74207377 
 2866      69746368 
 2867 0227 00       		.space	1
 2868              	.LC33:
 2869 0228 44697363 		.ascii	"Discharge Current Limit: %d\015\012\000"
 2869      68617267 
 2869      65204375 
 2869      7272656E 
 2869      74204C69 
 2870 0246 0000     		.space	2
 2871              	.LC34:
 2872 0248 43757272 		.ascii	"Current limit switch OFF!\015\012\000"
 2872      656E7420 
ARM GAS  C:\Users\danit\AppData\Local\Temp\ccBFeYtw.s 			page 53


 2872      6C696D69 
 2872      74207377 
 2872      69746368 
 2873              	.LC35:
 2874 0264 43757272 		.ascii	"Current Limit Status: ON\015\012\000"
 2874      656E7420 
 2874      4C696D69 
 2874      74205374 
 2874      61747573 
 2875 027f 00       		.space	1
 2876              	.LC36:
 2877 0280 43757272 		.ascii	"Current Limit Status: OFF\015\012\000"
 2877      656E7420 
 2877      4C696D69 
 2877      74205374 
 2877      61747573 
 2878              	.LC37:
 2879 029c 55736167 		.ascii	"Usage: set_current_limit on\015\012\000"
 2879      653A2073 
 2879      65745F63 
 2879      75727265 
 2879      6E745F6C 
 2880 02ba 0000     		.space	2
 2881              	.LC38:
 2882 02bc 20202020 		.ascii	"       set_current_limit off\015\012\000"
 2882      20202073 
 2882      65745F63 
 2882      75727265 
 2882      6E745F6C 
 2883 02db 00       		.space	1
 2884              	.LC39:
 2885 02dc 52656765 		.ascii	"Regenerative brake switch ON!\015\012\000"
 2885      6E657261 
 2885      74697665 
 2885      20627261 
 2885      6B652073 
 2886              	.LC40:
 2887 02fc 52656765 		.ascii	"Regenerative brake switch OFF!\015\012\000"
 2887      6E657261 
 2887      74697665 
 2887      20627261 
 2887      6B652073 
 2888 031d 000000   		.space	3
 2889              	.LC41:
 2890 0320 55736167 		.ascii	"Usage: regen_brake on\015\012\000"
 2890      653A2072 
 2890      6567656E 
 2890      5F627261 
 2890      6B65206F 
 2891              	.LC42:
 2892 0338 20202020 		.ascii	"       regen_brake off\015\012\000"
 2892      20202072 
 2892      6567656E 
 2892      5F627261 
 2892      6B65206F 
 2893              		.section	.bss.d_tag,"aw",%nobits
 2894              		.align	3
ARM GAS  C:\Users\danit\AppData\Local\Temp\ccBFeYtw.s 			page 54


 2895              		.set	.LANCHOR13,. + 0
 2896              		.type	d_tag, %object
 2897              		.size	d_tag, 8
 2898              	d_tag:
 2899 0000 00000000 		.space	8
 2899      00000000 
 2900              		.section	.bss.p_tag,"aw",%nobits
 2901              		.align	3
 2902              		.set	.LANCHOR11,. + 0
 2903              		.type	p_tag, %object
 2904              		.size	p_tag, 8
 2905              	p_tag:
 2906 0000 00000000 		.space	8
 2906      00000000 
 2907              		.section	.bss.result,"aw",%nobits
 2908              		.align	2
 2909              		.set	.LANCHOR22,. + 0
 2910              		.type	result, %object
 2911              		.size	result, 4
 2912              	result:
 2913 0000 00000000 		.space	4
 2914              		.section	.data.current_limit_status,"aw",%progbits
 2915              		.set	.LANCHOR26,. + 0
 2916              		.type	current_limit_status, %object
 2917              		.size	current_limit_status, 1
 2918              	current_limit_status:
 2919 0000 01       		.byte	1
 2920              		.section	.bss.cruise_indicator,"aw",%nobits
 2921              		.set	.LANCHOR8,. + 0
 2922              		.type	cruise_indicator, %object
 2923              		.size	cruise_indicator, 1
 2924              	cruise_indicator:
 2925 0000 00       		.space	1
 2926              		.section	.data.cruise_pwmcfg,"aw",%progbits
 2927              		.align	2
 2928              		.set	.LANCHOR20,. + 0
 2929              		.type	cruise_pwmcfg, %object
 2930              		.size	cruise_pwmcfg, 52
 2931              	cruise_pwmcfg:
 2932 0000 80969800 		.word	10000000
 2933 0004 1027     		.short	10000
 2934 0006 0000     		.space	2
 2935 0008 00000000 		.word	0
 2936 000c 00000000 		.word	0
 2937 0010 00000000 		.word	0
 2938 0014 01000000 		.word	1
 2939 0018 00000000 		.word	0
 2940 001c 01000000 		.word	1
 2941 0020 00000000 		.word	0
 2942 0024 00000000 		.word	0
 2943 0028 00000000 		.word	0
 2944 002c 00000000 		.word	0
 2945 0030 00000000 		.word	0
 2946              		.section	.bss.cruise_disable_period,"aw",%nobits
 2947              		.align	1
 2948              		.set	.LANCHOR10,. + 0
 2949              		.type	cruise_disable_period, %object
ARM GAS  C:\Users\danit\AppData\Local\Temp\ccBFeYtw.s 			page 55


 2950              		.size	cruise_disable_period, 2
 2951              	cruise_disable_period:
 2952 0000 0000     		.space	2
 2953              		.section	.bss.substract,"aw",%nobits
 2954              		.align	1
 2955              		.set	.LANCHOR21,. + 0
 2956              		.type	substract, %object
 2957              		.size	substract, 2
 2958              	substract:
 2959 0000 0000     		.space	2
 2960              		.section	.bss.button_long_accel,"aw",%nobits
 2961              		.set	.LANCHOR16,. + 0
 2962              		.type	button_long_accel, %object
 2963              		.size	button_long_accel, 1
 2964              	button_long_accel:
 2965 0000 00       		.space	1
 2966              		.section	.bss.i_tag,"aw",%nobits
 2967              		.align	3
 2968              		.set	.LANCHOR12,. + 0
 2969              		.type	i_tag, %object
 2970              		.size	i_tag, 8
 2971              	i_tag:
 2972 0000 00000000 		.space	8
 2972      00000000 
 2973              		.section	.bss.e_tag,"aw",%nobits
 2974              		.align	3
 2975              		.set	.LANCHOR15,. + 0
 2976              		.type	e_tag, %object
 2977              		.size	e_tag, 8
 2978              	e_tag:
 2979 0000 00000000 		.space	8
 2979      00000000 
 2980              		.section	.bss.eeprom_write,"aw",%nobits
 2981              		.set	.LANCHOR5,. + 0
 2982              		.type	eeprom_write, %object
 2983              		.size	eeprom_write, 1
 2984              	eeprom_write:
 2985 0000 00       		.space	1
 2986              		.section	.bss.accel_limit,"aw",%nobits
 2987              		.align	2
 2988              		.set	.LANCHOR18,. + 0
 2989              		.type	accel_limit, %object
 2990              		.size	accel_limit, 4
 2991              	accel_limit:
 2992 0000 00000000 		.space	4
 2993              		.section	.bss.save_pwm,"aw",%nobits
 2994              		.align	2
 2995              		.set	.LANCHOR2,. + 0
 2996              		.type	save_pwm, %object
 2997              		.size	save_pwm, 4
 2998              	save_pwm:
 2999 0000 00000000 		.space	4
 3000              		.text
 3001              	.Letext0:
 3002              		.file 3 "c:\\program files (x86)\\gnu tools arm embedded\\4.9 2015q2\\lib\\gcc\\arm-none-eabi\\4.9
 3003              		.file 4 "c:\\program files (x86)\\gnu tools arm embedded\\4.9 2015q2\\arm-none-eabi\\include\\mach
 3004              		.file 5 "c:\\program files (x86)\\gnu tools arm embedded\\4.9 2015q2\\arm-none-eabi\\include\\sys\
ARM GAS  C:\Users\danit\AppData\Local\Temp\ccBFeYtw.s 			page 56


 3005              		.file 6 "../../../ChibiOS/os/ports/GCC/ARMCMx/chtypes.h"
 3006              		.file 7 "../../../ChibiOS/os/ports/GCC/ARMCMx/chcore_v7m.h"
 3007              		.file 8 "../../../ChibiOS/os/kernel/include/chstreams.h"
 3008              		.file 9 "../../../ChibiOS/os/hal/include/io_channel.h"
 3009              		.file 10 "../../../ChibiOS/os/hal/platforms/STM32/TIMv1/stm32_tim.h"
 3010              		.file 11 "../../../ChibiOS/os/hal/include/pwm.h"
 3011              		.file 12 "../../../ChibiOS/os/hal/platforms/STM32/TIMv1/pwm_lld.h"
 3012              		.file 13 "c:\\program files (x86)\\gnu tools arm embedded\\4.9 2015q2\\lib\\gcc\\arm-none-eabi\\4.
 3013              		.file 14 "<built-in>"
 3014              		.file 15 "include/eepromItems.h"
 3015              		.file 16 "include/meas.h"
 3016              		.file 17 "include/can_items.h"
 3017              		.file 18 "include/speed.h"
 3018              		.file 19 "../../../ChibiOS/os/ports/common/ARMCMx/CMSIS/include/core_cm4.h"
 3019              		.file 20 "include/can_comm.h"
 3020              		.file 21 "include/eeprom.h"
 3021              		.file 22 "../../../ChibiOS/os/kernel/include/chthreads.h"
 3022              		.file 23 "c:\\program files (x86)\\gnu tools arm embedded\\4.9 2015q2\\arm-none-eabi\\include\\str
 3023              		.file 24 "c:\\program files (x86)\\gnu tools arm embedded\\4.9 2015q2\\arm-none-eabi\\include\\std