ARM GAS  C:\Users\DNIEL~1\AppData\Local\Temp\ccckc6Je.s 			page 1


   1              		.syntax unified
   2              		.cpu cortex-m4
   3              		.fpu softvfp
   4              		.eabi_attribute 20, 1
   5              		.eabi_attribute 21, 1
   6              		.eabi_attribute 23, 3
   7              		.eabi_attribute 24, 1
   8              		.eabi_attribute 25, 1
   9              		.eabi_attribute 26, 1
  10              		.eabi_attribute 30, 2
  11              		.eabi_attribute 18, 4
  12              		.thumb
  13              		.file	"cruise.c"
  14              		.section	.debug_abbrev,"",%progbits
  15              	.Ldebug_abbrev0:
  16              		.section	.debug_info,"",%progbits
  17              	.Ldebug_info0:
  18              		.section	.debug_line,"",%progbits
  19              	.Ldebug_line0:
  20 0000 06050000 		.text
  20      02009F02 
  20      00000201 
  20      FB0E0D00 
  20      01010101 
  21              	.Ltext0:
  22              		.cfi_sections	.debug_frame
  23              		.section	.text.chprintf,"ax",%progbits
  24              		.align	2
  25              		.p2align 4,,15
  26              		.thumb
  27              		.thumb_func
  28              		.type	chprintf, %function
  29              	chprintf:
  30              	.LFB118:
  31              		.file 1 "../../../ChibiOS/os/various/chprintf.h"
  32              		.loc 1 69 0
  33              		.cfi_startproc
  34              		@ args = 4, pretend = 12, frame = 8
  35              		@ frame_needed = 0, uses_anonymous_args = 1
  36              	.LVL0:
  37 0000 0EB4     		push	{r1, r2, r3}
  38              	.LCFI0:
  39              		.cfi_def_cfa_offset 12
  40 0002 00B5     		push	{lr}
  41              	.LCFI1:
  42              		.cfi_def_cfa_offset 16
  43 0004 82B0     		sub	sp, sp, #8
  44              	.LCFI2:
  45              		.cfi_def_cfa_offset 24
  46              		.loc 1 69 0
  47 0006 03AB     		add	r3, sp, #12
  48              		.cfi_offset 14, -16
  49              		.cfi_offset 3, -4
  50              		.cfi_offset 2, -8
  51              		.cfi_offset 1, -12
  52 0008 53F8041B 		ldr	r1, [r3], #4
  53              		.loc 1 73 0
ARM GAS  C:\Users\DNIEL~1\AppData\Local\Temp\ccckc6Je.s 			page 2


  54 000c 1A46     		mov	r2, r3
  55              		.loc 1 72 0
  56 000e 0193     		str	r3, [sp, #4]
  57              		.loc 1 73 0
  58 0010 FFF7FEFF 		bl	chvprintf
  59              	.LVL1:
  60              		.loc 1 75 0
  61 0014 02B0     		add	sp, sp, #8
  62 0016 5DF804EB 		pop	{lr}
  63 001a 03B0     		add	sp, sp, #12
  64 001c 7047     		bx	lr
  65              		.cfi_endproc
  66              	.LFE118:
  67              		.size	chprintf, .-chprintf
  68 001e 00BF     		.section	.text.cruiseInit,"ax",%progbits
  69              		.align	2
  70              		.p2align 4,,15
  71              		.global	cruiseInit
  72              		.thumb
  73              		.thumb_func
  74              		.type	cruiseInit, %function
  75              	cruiseInit:
  76              	.LFB119:
  77              		.file 2 "src/cruise.c"
  78              		.loc 2 57 0
  79              		.cfi_startproc
  80              		@ args = 0, pretend = 0, frame = 0
  81              		@ frame_needed = 0, uses_anonymous_args = 0
  82 0000 2DE9F041 		push	{r4, r5, r6, r7, r8, lr}
  83              	.LCFI3:
  84              		.cfi_def_cfa_offset 24
  85              		.loc 2 58 0
  86 0004 244D     		ldr	r5, .L10+16
  87              		.cfi_offset 14, -4
  88              		.cfi_offset 8, -8
  89              		.cfi_offset 7, -12
  90              		.cfi_offset 6, -16
  91              		.cfi_offset 5, -20
  92              		.cfi_offset 4, -24
  93              		.loc 2 67 0
  94 0006 254F     		ldr	r7, .L10+20
  95              		.loc 2 73 0
  96 0008 254E     		ldr	r6, .L10+24
  97              		.loc 2 58 0
  98 000a 42F2107E 		movw	lr, #10000
  99 000e C5F800E0 		str	lr, [r5, #0]
 100              		.loc 2 60 0
 101 0012 244D     		ldr	r5, .L10+28
 102 0014 0024     		movs	r4, #0
 103 0016 2C60     		str	r4, [r5, #0]
 104              		.loc 2 61 0
 105 0018 234D     		ldr	r5, .L10+32
 106 001a 2C80     		strh	r4, [r5, #0]	@ movhi
 107              		.loc 2 62 0
 108 001c 234D     		ldr	r5, .L10+36
 109 001e 2C70     		strb	r4, [r5, #0]
 110              		.loc 2 64 0
ARM GAS  C:\Users\DNIEL~1\AppData\Local\Temp\ccckc6Je.s 			page 3


 111 0020 234D     		ldr	r5, .L10+40
 112              		.loc 2 73 0
 113 0022 2046     		mov	r0, r4
 114              		.loc 2 64 0
 115 0024 2C70     		strb	r4, [r5, #0]
 116              		.loc 2 67 0
 117 0026 18A5     		adr	r5, .L10
 118 0028 D5E90045 		ldrd	r4, [r5]
 119 002c C7E90045 		strd	r4, [r7]
 120              		.loc 2 68 0
 121 0030 17A5     		adr	r5, .L10+8
 122 0032 D5E90045 		ldrd	r4, [r5]
 123 0036 1F4F     		ldr	r7, .L10+44
 124 0038 C7E90045 		strd	r4, [r7]
 125              		.loc 2 69 0
 126 003c 1E4C     		ldr	r4, .L10+48
 127 003e 0022     		movs	r2, #0
 128 0040 0023     		movs	r3, #0
 129 0042 C4E90023 		strd	r2, [r4]
 130              		.loc 2 70 0
 131 0046 1D4C     		ldr	r4, .L10+52
 132 0048 C4E90023 		strd	r2, [r4]
 133              		.loc 2 71 0
 134 004c 1C4C     		ldr	r4, .L10+56
 135              		.loc 2 73 0
 136 004e 3146     		mov	r1, r6
 137              		.loc 2 71 0
 138 0050 C4E90023 		strd	r2, [r4]
 139              		.loc 2 73 0
 140 0054 FFF7FEFF 		bl	eepromRead
 141 0058 80B9     		cbnz	r0, .L3
 142 005a 3088     		ldrh	r0, [r6, #0]
 143              	.L4:
 144              		.loc 2 76 0
 145 005c 00B2     		sxth	r0, r0
 146 005e 40F21453 		movw	r3, #1300
 147 0062 9842     		cmp	r0, r3
 148 0064 08DC     		bgt	.L7
 149              		.loc 2 80 0
 150 0066 0028     		cmp	r0, #0
 151 0068 05DB     		blt	.L9
 152              	.L6:
 153              		.loc 2 85 0
 154 006a 1648     		ldr	r0, .L10+60
 155 006c 1649     		ldr	r1, .L10+64
 156              		.loc 2 86 0
 157 006e BDE8F041 		pop	{r4, r5, r6, r7, r8, lr}
 158              		.loc 2 85 0
 159 0072 FFF7FEBF 		b	pwmStart
 160              	.L9:
 161              		.loc 2 82 0
 162 0076 0023     		movs	r3, #0
 163              	.L7:
 164 0078 3380     		strh	r3, [r6, #0]	@ movhi
 165 007a F6E7     		b	.L6
 166              	.L3:
 167              		.loc 2 74 0
ARM GAS  C:\Users\DNIEL~1\AppData\Local\Temp\ccckc6Je.s 			page 4


 168 007c 0020     		movs	r0, #0
 169 007e 1349     		ldr	r1, .L10+68
 170 0080 FFF7FEFF 		bl	speedKMPH_TO_RPM
 171 0084 3080     		strh	r0, [r6, #0]	@ movhi
 172 0086 E9E7     		b	.L4
 173              	.L11:
 174              		.align	3
 175              	.L10:
 176 0088 00000000 		.word	0
 177 008c 0052A740 		.word	1084707328
 178 0090 00000000 		.word	0
 179 0094 00701741 		.word	1092055040
 180 0098 00000000 		.word	.LANCHOR0
 181 009c 00000000 		.word	.LANCHOR5
 182 00a0 00000000 		.word	.LANCHOR10
 183 00a4 00000000 		.word	.LANCHOR1
 184 00a8 00000000 		.word	.LANCHOR2
 185 00ac 00000000 		.word	.LANCHOR3
 186 00b0 00000000 		.word	.LANCHOR4
 187 00b4 00000000 		.word	.LANCHOR6
 188 00b8 00000000 		.word	.LANCHOR7
 189 00bc 00000000 		.word	.LANCHOR8
 190 00c0 00000000 		.word	.LANCHOR9
 191 00c4 00000000 		.word	PWMD5
 192 00c8 00000000 		.word	.LANCHOR11
 193 00cc 00004940 		.word	1078525952
 194              		.cfi_endproc
 195              	.LFE119:
 196              		.size	cruiseInit, .-cruiseInit
 197              		.section	.text.cruiseEnable,"ax",%progbits
 198              		.align	2
 199              		.p2align 4,,15
 200              		.global	cruiseEnable
 201              		.thumb
 202              		.thumb_func
 203              		.type	cruiseEnable, %function
 204              	cruiseEnable:
 205              	.LFB121:
 206              		.loc 2 129 0
 207              		.cfi_startproc
 208              		@ args = 0, pretend = 0, frame = 0
 209              		@ frame_needed = 0, uses_anonymous_args = 0
 210              		@ link register save eliminated.
 211              		.loc 2 130 0
 212 0000 014B     		ldr	r3, .L13
 213 0002 0122     		movs	r2, #1
 214 0004 1A70     		strb	r2, [r3, #0]
 215              		.loc 2 131 0
 216 0006 7047     		bx	lr
 217              	.L14:
 218              		.align	2
 219              	.L13:
 220 0008 00000000 		.word	.LANCHOR4
 221              		.cfi_endproc
 222              	.LFE121:
 223              		.size	cruiseEnable, .-cruiseEnable
 224 000c AFF30080 		.section	.text.cruiseDisable,"ax",%progbits
ARM GAS  C:\Users\DNIEL~1\AppData\Local\Temp\ccckc6Je.s 			page 5


 225              		.align	2
 226              		.p2align 4,,15
 227              		.global	cruiseDisable
 228              		.thumb
 229              		.thumb_func
 230              		.type	cruiseDisable, %function
 231              	cruiseDisable:
 232              	.LFB122:
 233              		.loc 2 133 0
 234              		.cfi_startproc
 235              		@ args = 0, pretend = 0, frame = 0
 236              		@ frame_needed = 0, uses_anonymous_args = 0
 237              		@ link register save eliminated.
 238              		.loc 2 134 0
 239 0000 014B     		ldr	r3, .L16
 240 0002 0022     		movs	r2, #0
 241 0004 1A70     		strb	r2, [r3, #0]
 242              		.loc 2 135 0
 243 0006 7047     		bx	lr
 244              	.L17:
 245              		.align	2
 246              	.L16:
 247 0008 00000000 		.word	.LANCHOR4
 248              		.cfi_endproc
 249              	.LFE122:
 250              		.size	cruiseDisable, .-cruiseDisable
 251 000c AFF30080 		.section	.text.cruiseStatus,"ax",%progbits
 252              		.align	2
 253              		.p2align 4,,15
 254              		.global	cruiseStatus
 255              		.thumb
 256              		.thumb_func
 257              		.type	cruiseStatus, %function
 258              	cruiseStatus:
 259              	.LFB123:
 260              		.loc 2 137 0
 261              		.cfi_startproc
 262              		@ args = 0, pretend = 0, frame = 0
 263              		@ frame_needed = 0, uses_anonymous_args = 0
 264              		@ link register save eliminated.
 265              		.loc 2 137 0
 266 0000 014B     		ldr	r3, .L19
 267              		.loc 2 139 0
 268 0002 1878     		ldrb	r0, [r3, #0]	@ zero_extendqisi2
 269 0004 7047     		bx	lr
 270              	.L20:
 271 0006 00BF     		.align	2
 272              	.L19:
 273 0008 00000000 		.word	.LANCHOR4
 274              		.cfi_endproc
 275              	.LFE123:
 276              		.size	cruiseStatus, .-cruiseStatus
 277              		.global	__aeabi_i2d
 278              		.global	__aeabi_dadd
 279              		.global	__aeabi_d2iz
 280 000c AFF30080 		.section	.text.cruiseIncrease,"ax",%progbits
 281              		.align	2
ARM GAS  C:\Users\DNIEL~1\AppData\Local\Temp\ccckc6Je.s 			page 6


 282              		.p2align 4,,15
 283              		.global	cruiseIncrease
 284              		.thumb
 285              		.thumb_func
 286              		.type	cruiseIncrease, %function
 287              	cruiseIncrease:
 288              	.LFB124:
 289              		.loc 2 141 0
 290              		.cfi_startproc
 291              		@ args = 0, pretend = 0, frame = 0
 292              		@ frame_needed = 0, uses_anonymous_args = 0
 293              	.LVL2:
 294 0000 70B5     		push	{r4, r5, r6, lr}
 295              	.LCFI4:
 296              		.cfi_def_cfa_offset 16
 297              		.loc 2 142 0
 298 0002 134E     		ldr	r6, .L25+8
 299              		.cfi_offset 14, -4
 300              		.cfi_offset 6, -8
 301              		.cfi_offset 5, -12
 302              		.cfi_offset 4, -16
 303              		.loc 2 141 0
 304 0004 0446     		mov	r4, r0
 305 0006 0D46     		mov	r5, r1
 306              		.loc 2 142 0
 307 0008 B6F90000 		ldrsh	r0, [r6, #0]
 308              	.LVL3:
 309 000c FFF7FEFF 		bl	__aeabi_i2d
 310 0010 2246     		mov	r2, r4
 311 0012 2B46     		mov	r3, r5
 312 0014 FFF7FEFF 		bl	__aeabi_dadd
 313 0018 FFF7FEFF 		bl	__aeabi_d2iz
 314 001c 0346     		mov	r3, r0
 315              		.loc 2 143 0
 316 001e 0AA1     		adr	r1, .L25
 317 0020 D1E90001 		ldrd	r0, [r1]
 318              		.loc 2 142 0
 319 0024 1C46     		mov	r4, r3	@ movhi
 320 0026 3380     		strh	r3, [r6, #0]	@ movhi
 321              		.loc 2 143 0
 322 0028 FFF7FEFF 		bl	speedKMPH_TO_RPM
 323 002c 24B2     		sxth	r4, r4
 324 002e 8442     		cmp	r4, r0
 325 0030 02D8     		bhi	.L24
 326              		.loc 2 143 0 is_stmt 0 discriminator 2
 327 0032 3088     		ldrh	r0, [r6, #0]
 328 0034 3080     		strh	r0, [r6, #0]	@ movhi
 329              		.loc 2 144 0 is_stmt 1 discriminator 2
 330 0036 70BD     		pop	{r4, r5, r6, pc}
 331              	.L24:
 332              		.loc 2 143 0 discriminator 1
 333 0038 03A1     		adr	r1, .L25
 334 003a D1E90001 		ldrd	r0, [r1]
 335 003e FFF7FEFF 		bl	speedKMPH_TO_RPM
 336 0042 3080     		strh	r0, [r6, #0]	@ movhi
 337              		.loc 2 144 0 discriminator 1
 338 0044 70BD     		pop	{r4, r5, r6, pc}
ARM GAS  C:\Users\DNIEL~1\AppData\Local\Temp\ccckc6Je.s 			page 7


 339              	.L26:
 340 0046 00BF     		.align	3
 341              	.L25:
 342 0048 00000000 		.word	0
 343 004c 00406040 		.word	1080049664
 344 0050 00000000 		.word	.LANCHOR10
 345              		.cfi_endproc
 346              	.LFE124:
 347              		.size	cruiseIncrease, .-cruiseIncrease
 348              		.global	__aeabi_dsub
 349 0054 AFF30080 		.section	.text.cruiseReduction,"ax",%progbits
 349      AFF30080 
 349      AFF30080 
 350              		.align	2
 351              		.p2align 4,,15
 352              		.global	cruiseReduction
 353              		.thumb
 354              		.thumb_func
 355              		.type	cruiseReduction, %function
 356              	cruiseReduction:
 357              	.LFB125:
 358              		.loc 2 145 0
 359              		.cfi_startproc
 360              		@ args = 0, pretend = 0, frame = 0
 361              		@ frame_needed = 0, uses_anonymous_args = 0
 362              	.LVL4:
 363 0000 70B5     		push	{r4, r5, r6, lr}
 364              	.LCFI5:
 365              		.cfi_def_cfa_offset 16
 366              		.loc 2 147 0
 367 0002 094E     		ldr	r6, .L28
 368              		.cfi_offset 14, -4
 369              		.cfi_offset 6, -8
 370              		.cfi_offset 5, -12
 371              		.cfi_offset 4, -16
 372              		.loc 2 145 0
 373 0004 0446     		mov	r4, r0
 374 0006 0D46     		mov	r5, r1
 375              		.loc 2 146 0
 376 0008 B6F90000 		ldrsh	r0, [r6, #0]
 377              	.LVL5:
 378 000c FFF7FEFF 		bl	__aeabi_i2d
 379 0010 2246     		mov	r2, r4
 380 0012 2B46     		mov	r3, r5
 381 0014 FFF7FEFF 		bl	__aeabi_dsub
 382 0018 FFF7FEFF 		bl	__aeabi_d2iz
 383              		.loc 2 147 0
 384 001c 0FFA80FC 		sxth	ip, r0
 385 0020 2CEAEC70 		bic	r0, ip, ip, asr #31
 386 0024 3080     		strh	r0, [r6, #0]	@ movhi
 387              		.loc 2 148 0
 388 0026 70BD     		pop	{r4, r5, r6, pc}
 389              	.L29:
 390              		.align	2
 391              	.L28:
 392 0028 00000000 		.word	.LANCHOR10
 393              		.cfi_endproc
ARM GAS  C:\Users\DNIEL~1\AppData\Local\Temp\ccckc6Je.s 			page 8


 394              	.LFE125:
 395              		.size	cruiseReduction, .-cruiseReduction
 396 002c AFF30080 		.section	.text.cruiseGet,"ax",%progbits
 397              		.align	2
 398              		.p2align 4,,15
 399              		.global	cruiseGet
 400              		.thumb
 401              		.thumb_func
 402              		.type	cruiseGet, %function
 403              	cruiseGet:
 404              	.LFB126:
 405              		.loc 2 150 0
 406              		.cfi_startproc
 407              		@ args = 0, pretend = 0, frame = 0
 408              		@ frame_needed = 0, uses_anonymous_args = 0
 409 0000 08B5     		push	{r3, lr}
 410              	.LCFI6:
 411              		.cfi_def_cfa_offset 8
 412              		.loc 2 151 0
 413 0002 044B     		ldr	r3, .L31
 414              		.cfi_offset 14, -4
 415              		.cfi_offset 3, -8
 416 0004 B3F90000 		ldrsh	r0, [r3, #0]
 417 0008 FFF7FEFF 		bl	__aeabi_i2d
 418 000c FFF7FEFF 		bl	speedRPM_TO_KMPH
 419              		.loc 2 152 0
 420 0010 C0B2     		uxtb	r0, r0
 421 0012 08BD     		pop	{r3, pc}
 422              	.L32:
 423              		.align	2
 424              	.L31:
 425 0014 00000000 		.word	.LANCHOR10
 426              		.cfi_endproc
 427              	.LFE126:
 428              		.size	cruiseGet, .-cruiseGet
 429              		.global	__aeabi_dmul
 430              		.global	__aeabi_dcmpgt
 431              		.global	__aeabi_dcmplt
 432 0018 AFF30080 		.section	.text.cruisePID,"ax",%progbits
 432      AFF30080 
 433              		.align	2
 434              		.p2align 4,,15
 435              		.global	cruisePID
 436              		.thumb
 437              		.thumb_func
 438              		.type	cruisePID, %function
 439              	cruisePID:
 440              	.LFB127:
 441              		.loc 2 155 0
 442              		.cfi_startproc
 443              		@ args = 36, pretend = 0, frame = 24
 444              		@ frame_needed = 0, uses_anonymous_args = 0
 445              	.LVL6:
 446 0000 2DE9F04F 		push	{r4, r5, r6, r7, r8, r9, sl, fp, lr}
 447              	.LCFI7:
 448              		.cfi_def_cfa_offset 36
 449 0004 87B0     		sub	sp, sp, #28
ARM GAS  C:\Users\DNIEL~1\AppData\Local\Temp\ccckc6Je.s 			page 9


 450              	.LCFI8:
 451              		.cfi_def_cfa_offset 64
 452              		.loc 2 156 0
 453 0006 081A     		subs	r0, r1, r0
 454              	.LVL7:
 455              		.loc 2 155 0
 456 0008 9346     		mov	fp, r2
 457              		.cfi_offset 14, -4
 458              		.cfi_offset 11, -8
 459              		.cfi_offset 10, -12
 460              		.cfi_offset 9, -16
 461              		.cfi_offset 8, -20
 462              		.cfi_offset 7, -24
 463              		.cfi_offset 6, -28
 464              		.cfi_offset 5, -32
 465              		.cfi_offset 4, -36
 466 000a 0593     		str	r3, [sp, #20]
 467              		.loc 2 156 0
 468 000c FFF7FEFF 		bl	__aeabi_i2d
 469              	.LVL8:
 470 0010 5E4E     		ldr	r6, .L58
 471              		.loc 2 155 0
 472 0012 169C     		ldr	r4, [sp, #88]
 473              		.loc 2 159 0
 474 0014 5E4D     		ldr	r5, .L58+4
 475              		.loc 2 155 0
 476 0016 DDF85CA0 		ldr	sl, [sp, #92]
 477              		.loc 2 159 0
 478 001a DDE91023 		ldrd	r2, [sp, #64]
 479              		.loc 2 156 0
 480 001e CDE90001 		strd	r0, [sp]
 481 0022 C6E90001 		strd	r0, [r6]
 482              		.loc 2 159 0
 483 0026 FFF7FEFF 		bl	__aeabi_dmul
 484 002a 8046     		mov	r8, r0
 485 002c 8946     		mov	r9, r1
 486              		.loc 2 160 0
 487 002e 2046     		mov	r0, r4
 488              		.loc 2 159 0
 489 0030 C5E90089 		strd	r8, [r5]
 490              		.loc 2 160 0
 491 0034 FFF7FEFF 		bl	__aeabi_i2d
 492 0038 CDE90201 		strd	r0, [sp, #8]
 493 003c DDE90223 		ldrd	r2, [sp, #8]
 494 0040 4046     		mov	r0, r8
 495 0042 4946     		mov	r1, r9
 496 0044 FFF7FEFF 		bl	__aeabi_dcmpgt
 497 0048 0028     		cmp	r0, #0
 498 004a 63D0     		beq	.L54
 499              		.loc 2 161 0
 500 004c DDE90223 		ldrd	r2, [sp, #8]
 501 0050 C5E90023 		strd	r2, [r5]
 502              	.L36:
 503              		.loc 2 169 0
 504 0054 4F4C     		ldr	r4, .L58+8
 505 0056 DDE91223 		ldrd	r2, [sp, #72]
 506 005a DDE90001 		ldrd	r0, [sp]
ARM GAS  C:\Users\DNIEL~1\AppData\Local\Temp\ccckc6Je.s 			page 10


 507 005e FFF7FEFF 		bl	__aeabi_dmul
 508 0062 D4E90023 		ldrd	r2, [r4]
 509 0066 FFF7FEFF 		bl	__aeabi_dadd
 510 006a 8046     		mov	r8, r0
 511 006c 8946     		mov	r9, r1
 512              		.loc 2 170 0
 513 006e 5046     		mov	r0, sl
 514              		.loc 2 169 0
 515 0070 C4E90089 		strd	r8, [r4]
 516              		.loc 2 170 0
 517 0074 FFF7FEFF 		bl	__aeabi_i2d
 518 0078 CDE90201 		strd	r0, [sp, #8]
 519 007c DDE90223 		ldrd	r2, [sp, #8]
 520 0080 4046     		mov	r0, r8
 521 0082 4946     		mov	r1, r9
 522 0084 FFF7FEFF 		bl	__aeabi_dcmpgt
 523 0088 0028     		cmp	r0, #0
 524 008a 68D0     		beq	.L55
 525              		.loc 2 171 0
 526 008c DDE90223 		ldrd	r2, [sp, #8]
 527 0090 C4E90023 		strd	r2, [r4]
 528              	.L40:
 529              		.loc 2 179 0
 530 0094 404F     		ldr	r7, .L58+12
 531 0096 DFF808A1 		ldr	sl, .L58+20
 532 009a DDE90001 		ldrd	r0, [sp]
 533 009e D7E90023 		ldrd	r2, [r7]
 534 00a2 FFF7FEFF 		bl	__aeabi_dsub
 535 00a6 DDE91423 		ldrd	r2, [sp, #80]
 536 00aa FFF7FEFF 		bl	__aeabi_dmul
 537 00ae 8046     		mov	r8, r0
 538 00b0 8946     		mov	r9, r1
 539              		.loc 2 180 0
 540 00b2 1898     		ldr	r0, [sp, #96]
 541              		.loc 2 179 0
 542 00b4 CAE90089 		strd	r8, [sl]
 543              		.loc 2 180 0
 544 00b8 FFF7FEFF 		bl	__aeabi_i2d
 545 00bc CDE90001 		strd	r0, [sp]
 546 00c0 DDE90023 		ldrd	r2, [sp]
 547 00c4 4046     		mov	r0, r8
 548 00c6 4946     		mov	r1, r9
 549 00c8 FFF7FEFF 		bl	__aeabi_dcmpgt
 550 00cc 0028     		cmp	r0, #0
 551 00ce 33D0     		beq	.L56
 552              		.loc 2 181 0
 553 00d0 DDE90023 		ldrd	r2, [sp]
 554 00d4 CAE90023 		strd	r2, [sl]
 555 00d8 9046     		mov	r8, r2
 556 00da 9946     		mov	r9, r3
 557              	.L44:
 558              		.loc 2 189 0
 559 00dc D4E90023 		ldrd	r2, [r4]
 560 00e0 D5E90001 		ldrd	r0, [r5]
 561 00e4 FFF7FEFF 		bl	__aeabi_dadd
 562 00e8 4B46     		mov	r3, r9
 563 00ea 4246     		mov	r2, r8
ARM GAS  C:\Users\DNIEL~1\AppData\Local\Temp\ccckc6Je.s 			page 11


 564 00ec FFF7FEFF 		bl	__aeabi_dadd
 565 00f0 FFF7FEFF 		bl	__aeabi_d2iz
 566 00f4 294B     		ldr	r3, .L58+16
 567              		.loc 2 191 0
 568 00f6 5845     		cmp	r0, fp
 569              		.loc 2 189 0
 570 00f8 1860     		str	r0, [r3, #0]
 571              		.loc 2 191 0
 572 00fa 43DC     		bgt	.L57
 573              		.loc 2 194 0
 574 00fc 059A     		ldr	r2, [sp, #20]
 575 00fe 9042     		cmp	r0, r2
 576              		.loc 2 195 0
 577 0100 BCBF     		itt	lt
 578 0102 1A60     		strlt	r2, [r3, #0]
 579 0104 1046     		movlt	r0, r2
 580              	.L47:
 581              		.loc 2 197 0
 582 0106 D6E90023 		ldrd	r2, [r6]
 583 010a C7E90023 		strd	r2, [r7]
 584              		.loc 2 200 0
 585 010e 07B0     		add	sp, sp, #28
 586 0110 BDE8F08F 		pop	{r4, r5, r6, r7, r8, r9, sl, fp, pc}
 587              	.L54:
 588              		.loc 2 163 0
 589 0114 6042     		negs	r0, r4
 590 0116 FFF7FEFF 		bl	__aeabi_i2d
 591 011a CDE90201 		strd	r0, [sp, #8]
 592 011e DDE90223 		ldrd	r2, [sp, #8]
 593 0122 4046     		mov	r0, r8
 594 0124 4946     		mov	r1, r9
 595 0126 FFF7FEFF 		bl	__aeabi_dcmplt
 596 012a 0028     		cmp	r0, #0
 597 012c 92D0     		beq	.L36
 598              		.loc 2 164 0
 599 012e DDE90289 		ldrd	r8, [sp, #8]
 600 0132 C5E90089 		strd	r8, [r5]
 601 0136 8DE7     		b	.L36
 602              	.L56:
 603              		.loc 2 183 0
 604 0138 189B     		ldr	r3, [sp, #96]
 605 013a 5842     		negs	r0, r3
 606 013c FFF7FEFF 		bl	__aeabi_i2d
 607 0140 CDE90001 		strd	r0, [sp]
 608 0144 DDE90023 		ldrd	r2, [sp]
 609 0148 4046     		mov	r0, r8
 610 014a 4946     		mov	r1, r9
 611 014c FFF7FEFF 		bl	__aeabi_dcmplt
 612 0150 0028     		cmp	r0, #0
 613 0152 C3D0     		beq	.L44
 614              		.loc 2 184 0
 615 0154 DDE90089 		ldrd	r8, [sp]
 616 0158 CAE90089 		strd	r8, [sl]
 617 015c BEE7     		b	.L44
 618              	.L55:
 619              		.loc 2 173 0
 620 015e CAF10000 		rsb	r0, sl, #0
ARM GAS  C:\Users\DNIEL~1\AppData\Local\Temp\ccckc6Je.s 			page 12


 621 0162 FFF7FEFF 		bl	__aeabi_i2d
 622 0166 CDE90201 		strd	r0, [sp, #8]
 623 016a DDE90223 		ldrd	r2, [sp, #8]
 624 016e 4046     		mov	r0, r8
 625 0170 4946     		mov	r1, r9
 626 0172 FFF7FEFF 		bl	__aeabi_dcmplt
 627 0176 0028     		cmp	r0, #0
 628 0178 8CD0     		beq	.L40
 629              		.loc 2 174 0
 630 017a DDE90289 		ldrd	r8, [sp, #8]
 631 017e C4E90089 		strd	r8, [r4]
 632 0182 87E7     		b	.L40
 633              	.L57:
 634              		.loc 2 192 0
 635 0184 C3F800B0 		str	fp, [r3, #0]
 636 0188 5846     		mov	r0, fp
 637 018a BCE7     		b	.L47
 638              	.L59:
 639              		.align	2
 640              	.L58:
 641 018c 00000000 		.word	.LANCHOR9
 642 0190 00000000 		.word	.LANCHOR5
 643 0194 00000000 		.word	.LANCHOR6
 644 0198 00000000 		.word	.LANCHOR8
 645 019c 00000000 		.word	.LANCHOR12
 646 01a0 00000000 		.word	.LANCHOR7
 647              		.cfi_endproc
 648              	.LFE127:
 649              		.size	cruisePID, .-cruisePID
 650 01a4 AFF30080 		.section	.text.cruiseCalc,"ax",%progbits
 650      AFF30080 
 650      AFF30080 
 651              		.align	2
 652              		.p2align 4,,15
 653              		.global	cruiseCalc
 654              		.thumb
 655              		.thumb_func
 656              		.type	cruiseCalc, %function
 657              	cruiseCalc:
 658              	.LFB120:
 659              		.loc 2 88 0
 660              		.cfi_startproc
 661              		@ args = 0, pretend = 0, frame = 0
 662              		@ frame_needed = 0, uses_anonymous_args = 0
 663              		.loc 2 89 0
 664 0000 4B4B     		ldr	r3, .L67+16
 665              		.loc 2 88 0
 666 0002 70B5     		push	{r4, r5, r6, lr}
 667              	.LCFI9:
 668              		.cfi_def_cfa_offset 16
 669              		.loc 2 89 0
 670 0004 1868     		ldr	r0, [r3, #0]
 671 0006 421C     		adds	r2, r0, #1
 672              		.loc 2 91 0
 673 0008 FA2A     		cmp	r2, #250
 674              		.loc 2 88 0
 675 000a 8AB0     		sub	sp, sp, #40
ARM GAS  C:\Users\DNIEL~1\AppData\Local\Temp\ccckc6Je.s 			page 13


 676              	.LCFI10:
 677              		.cfi_def_cfa_offset 56
 678              		.loc 2 89 0
 679 000c 1A60     		str	r2, [r3, #0]
 680              		.loc 2 91 0
 681 000e 3DD0     		beq	.L65
 682              		.cfi_offset 14, -4
 683              		.cfi_offset 6, -8
 684              		.cfi_offset 5, -12
 685              		.cfi_offset 4, -16
 686              		.loc 2 104 0
 687 0010 484D     		ldr	r5, .L67+20
 688 0012 494A     		ldr	r2, .L67+24
 689 0014 2988     		ldrh	r1, [r5, #0]
 690 0016 1488     		ldrh	r4, [r2, #0]
 691 0018 A142     		cmp	r1, r4
 692 001a 05D0     		beq	.L62
 693              		.loc 2 106 0
 694 001c 1180     		strh	r1, [r2, #0]	@ movhi
 695              		.loc 2 107 0
 696 001e 0022     		movs	r2, #0
 697 0020 1A60     		str	r2, [r3, #0]
 698              		.loc 2 108 0
 699 0022 464B     		ldr	r3, .L67+28
 700 0024 0120     		movs	r0, #1
 701 0026 1870     		strb	r0, [r3, #0]
 702              	.L62:
 703              		.loc 2 111 0
 704 0028 454C     		ldr	r4, .L67+32
 705 002a 2178     		ldrb	r1, [r4, #0]	@ zero_extendqisi2
 706 002c 0029     		cmp	r1, #0
 707 002e 44D1     		bne	.L66
 708              		.loc 2 119 0
 709 0030 3BA1     		adr	r1, .L67
 710 0032 D1E90001 		ldrd	r0, [r1]
 711 0036 434C     		ldr	r4, .L67+36
 712 0038 C4E90001 		strd	r0, [r4]
 713              		.loc 2 120 0
 714 003c 3AA1     		adr	r1, .L67+8
 715 003e D1E90001 		ldrd	r0, [r1]
 716 0042 414C     		ldr	r4, .L67+40
 717 0044 C4E90001 		strd	r0, [r4]
 718              		.loc 2 121 0
 719 0048 4049     		ldr	r1, .L67+44
 720 004a 0022     		movs	r2, #0
 721 004c 0023     		movs	r3, #0
 722 004e C1E90023 		strd	r2, [r1]
 723              		.loc 2 122 0
 724 0052 3F49     		ldr	r1, .L67+48
 725 0054 C1E90023 		strd	r2, [r1]
 726              		.loc 2 123 0
 727 0058 3E49     		ldr	r1, .L67+52
 728 005a C1E90023 		strd	r2, [r1]
 729              		.loc 2 118 0
 730 005e 3E4A     		ldr	r2, .L67+56
 731 0060 42F21073 		movw	r3, #10000
 732 0064 1360     		str	r3, [r2, #0]
ARM GAS  C:\Users\DNIEL~1\AppData\Local\Temp\ccckc6Je.s 			page 14


 733              	.L64:
 734              		.loc 2 126 0
 735 0066 3D48     		ldr	r0, .L67+60
 736 0068 3D4A     		ldr	r2, .L67+64
 737 006a B0F808C0 		ldrh	ip, [r0, #8]
 738 006e 0CFB03F3 		mul	r3, ip, r3
 739 0072 82FB0312 		smull	r1, r2, r2, r3
 740 0076 D917     		asrs	r1, r3, #31
 741 0078 C1EB223C 		rsb	ip, r1, r2, asr #12
 742 007c 1FFA8CF2 		uxth	r2, ip
 743 0080 0221     		movs	r1, #2
 744              		.loc 2 127 0
 745 0082 0AB0     		add	sp, sp, #40
 746 0084 BDE87040 		pop	{r4, r5, r6, lr}
 747              		.loc 2 126 0
 748 0088 FFF7FEBF 		b	pwmEnableChannel
 749              	.L65:
 750              		.loc 2 93 0
 751 008c 2A4C     		ldr	r4, .L67+24
 752 008e 294D     		ldr	r5, .L67+20
 753 0090 B4F90030 		ldrsh	r3, [r4, #0]
 754 0094 B5F90010 		ldrsh	r1, [r5, #0]
 755 0098 9942     		cmp	r1, r3
 756 009a C5D1     		bne	.L62
 757              		.loc 2 95 0
 758 009c 274B     		ldr	r3, .L67+28
 759 009e 1A78     		ldrb	r2, [r3, #0]	@ zero_extendqisi2
 760 00a0 002A     		cmp	r2, #0
 761 00a2 C1D0     		beq	.L62
 762              		.loc 2 97 0
 763 00a4 0022     		movs	r2, #0
 764              		.loc 2 98 0
 765 00a6 1046     		mov	r0, r2
 766              		.loc 2 97 0
 767 00a8 1A70     		strb	r2, [r3, #0]
 768              		.loc 2 98 0
 769 00aa FFF7FEFF 		bl	eepromWrite
 770 00ae 0028     		cmp	r0, #0
 771 00b0 BAD0     		beq	.L62
 772              		.loc 2 99 0
 773 00b2 4FF0FF31 		mov	r1, #-1	@ movhi
 774 00b6 2180     		strh	r1, [r4, #0]	@ movhi
 775 00b8 B6E7     		b	.L62
 776              	.L66:
 777              		.loc 2 113 0
 778 00ba FFF7FEFF 		bl	speedGetRpm
 779 00be 06B2     		sxth	r6, r0
 780 00c0 2848     		ldr	r0, .L67+68
 781 00c2 B5F90050 		ldrsh	r5, [r5, #0]
 782 00c6 B0F90000 		ldrsh	r0, [r0, #0]
 783 00ca 274C     		ldr	r4, .L67+72
 784 00cc FFF7FEFF 		bl	__aeabi_i2d
 785 00d0 CDE90001 		strd	r0, [sp]
 786 00d4 254B     		ldr	r3, .L67+76
 787 00d6 B3F90000 		ldrsh	r0, [r3, #0]
 788 00da FFF7FEFF 		bl	__aeabi_i2d
 789 00de CDE90201 		strd	r0, [sp, #8]
ARM GAS  C:\Users\DNIEL~1\AppData\Local\Temp\ccckc6Je.s 			page 15


 790 00e2 234A     		ldr	r2, .L67+80
 791 00e4 B2F90000 		ldrsh	r0, [r2, #0]
 792 00e8 FFF7FEFF 		bl	__aeabi_i2d
 793 00ec 2246     		mov	r2, r4
 794 00ee CDE90401 		strd	r0, [sp, #16]
 795 00f2 0023     		movs	r3, #0
 796 00f4 2946     		mov	r1, r5
 797 00f6 3046     		mov	r0, r6
 798 00f8 0694     		str	r4, [sp, #24]
 799 00fa 0794     		str	r4, [sp, #28]
 800 00fc 0894     		str	r4, [sp, #32]
 801 00fe FFF7FEFF 		bl	cruisePID
 802 0102 1C4B     		ldr	r3, .L67+84
 803 0104 83FB0021 		smull	r2, r1, r3, r0
 804 0108 C217     		asrs	r2, r0, #31
 805 010a C2EB611C 		rsb	ip, r2, r1, asr #5
 806              		.loc 2 114 0
 807 010e 124B     		ldr	r3, .L67+56
 808 0110 CCF51C50 		rsb	r0, ip, #9984
 809 0114 1030     		adds	r0, r0, #16
 810 0116 1860     		str	r0, [r3, #0]
 811 0118 83B2     		uxth	r3, r0
 812 011a A4E7     		b	.L64
 813              	.L68:
 814 011c AFF30080 		.align	3
 815              	.L67:
 816 0120 00000000 		.word	0
 817 0124 0052A740 		.word	1084707328
 818 0128 00000000 		.word	0
 819 012c 00701741 		.word	1092055040
 820 0130 00000000 		.word	.LANCHOR1
 821 0134 00000000 		.word	.LANCHOR10
 822 0138 00000000 		.word	.LANCHOR2
 823 013c 00000000 		.word	.LANCHOR3
 824 0140 00000000 		.word	.LANCHOR4
 825 0144 00000000 		.word	.LANCHOR5
 826 0148 00000000 		.word	.LANCHOR6
 827 014c 00000000 		.word	.LANCHOR7
 828 0150 00000000 		.word	.LANCHOR8
 829 0154 00000000 		.word	.LANCHOR9
 830 0158 00000000 		.word	.LANCHOR0
 831 015c 00000000 		.word	PWMD5
 832 0160 AD8BDB68 		.word	1759218605
 833 0164 00000000 		.word	.LANCHOR13
 834 0168 40420F00 		.word	1000000
 835 016c 00000000 		.word	.LANCHOR14
 836 0170 00000000 		.word	.LANCHOR15
 837 0174 1F85EB51 		.word	1374389535
 838              		.cfi_endproc
 839              	.LFE120:
 840              		.size	cruiseCalc, .-cruiseCalc
 841 0178 AFF30080 		.section	.text.cmd_cruisevalues,"ax",%progbits
 841      AFF30080 
 842              		.align	2
 843              		.p2align 4,,15
 844              		.global	cmd_cruisevalues
 845              		.thumb
ARM GAS  C:\Users\DNIEL~1\AppData\Local\Temp\ccckc6Je.s 			page 16


 846              		.thumb_func
 847              		.type	cmd_cruisevalues, %function
 848              	cmd_cruisevalues:
 849              	.LFB128:
 850              		.loc 2 202 0
 851              		.cfi_startproc
 852              		@ args = 0, pretend = 0, frame = 0
 853              		@ frame_needed = 0, uses_anonymous_args = 0
 854              	.LVL9:
 855 0000 2DE9F843 		push	{r3, r4, r5, r6, r7, r8, r9, lr}
 856              	.LCFI11:
 857              		.cfi_def_cfa_offset 32
 858              		.loc 2 206 0
 859 0004 3149     		ldr	r1, .L72
 860              	.LVL10:
 861              		.loc 2 211 0
 862 0006 324F     		ldr	r7, .L72+4
 863              		.cfi_offset 14, -4
 864              		.cfi_offset 9, -8
 865              		.cfi_offset 8, -12
 866              		.cfi_offset 7, -16
 867              		.cfi_offset 6, -20
 868              		.cfi_offset 5, -24
 869              		.cfi_offset 4, -28
 870              		.cfi_offset 3, -32
 871 0008 324E     		ldr	r6, .L72+8
 872              		.loc 2 212 0
 873 000a DFF80881 		ldr	r8, .L72+72
 874              		.loc 2 202 0
 875 000e 0446     		mov	r4, r0
 876              		.loc 2 206 0
 877 0010 FFF7FEFF 		bl	chprintf
 878              	.LVL11:
 879              		.loc 2 207 0
 880 0014 2046     		mov	r0, r4
 881 0016 3049     		ldr	r1, .L72+12
 882 0018 FFF7FEFF 		bl	chprintf
 883              		.loc 2 208 0
 884 001c 4BE0     		b	.L70
 885              	.L71:
 886              		.loc 2 209 0
 887 001e 0022     		movs	r2, #0
 888 0020 1346     		mov	r3, r2
 889 0022 2046     		mov	r0, r4
 890 0024 2D49     		ldr	r1, .L72+16
 891              		.loc 2 213 0
 892 0026 2E4D     		ldr	r5, .L72+20
 893              		.loc 2 209 0
 894 0028 FFF7FEFF 		bl	chprintf
 895              		.loc 2 211 0
 896 002c D6E90001 		ldrd	r0, [r6]
 897 0030 FFF7FEFF 		bl	__aeabi_d2iz
 898 0034 B7F90090 		ldrsh	r9, [r7, #0]
 899 0038 2A49     		ldr	r1, .L72+24
 900 003a 4A46     		mov	r2, r9
 901 003c 0346     		mov	r3, r0
 902 003e 2046     		mov	r0, r4
ARM GAS  C:\Users\DNIEL~1\AppData\Local\Temp\ccckc6Je.s 			page 17


 903 0040 FFF7FEFF 		bl	chprintf
 904              		.loc 2 212 0
 905 0044 284B     		ldr	r3, .L72+28
 906 0046 B8F90090 		ldrsh	r9, [r8, #0]
 907 004a D3E90001 		ldrd	r0, [r3]
 908 004e FFF7FEFF 		bl	__aeabi_d2iz
 909 0052 4A46     		mov	r2, r9
 910 0054 0346     		mov	r3, r0
 911 0056 2549     		ldr	r1, .L72+32
 912 0058 2046     		mov	r0, r4
 913 005a FFF7FEFF 		bl	chprintf
 914              		.loc 2 213 0
 915 005e 244B     		ldr	r3, .L72+36
 916 0060 B5F90090 		ldrsh	r9, [r5, #0]
 917 0064 D3E90001 		ldrd	r0, [r3]
 918 0068 FFF7FEFF 		bl	__aeabi_d2iz
 919 006c 2149     		ldr	r1, .L72+40
 920 006e 0346     		mov	r3, r0
 921 0070 4A46     		mov	r2, r9
 922 0072 2046     		mov	r0, r4
 923 0074 FFF7FEFF 		bl	chprintf
 924              		.loc 2 214 0
 925 0078 1F4B     		ldr	r3, .L72+44
 926 007a 2049     		ldr	r1, .L72+48
 927 007c 1B68     		ldr	r3, [r3, #0]
 928 007e B5F90020 		ldrsh	r2, [r5, #0]
 929 0082 2046     		mov	r0, r4
 930 0084 FFF7FEFF 		bl	chprintf
 931              		.loc 2 215 0
 932 0088 1D4B     		ldr	r3, .L72+52
 933 008a 1E49     		ldr	r1, .L72+56
 934 008c 1A68     		ldr	r2, [r3, #0]
 935 008e 2046     		mov	r0, r4
 936 0090 FFF7FEFF 		bl	chprintf
 937              		.loc 2 216 0
 938 0094 1C4B     		ldr	r3, .L72+60
 939 0096 1D49     		ldr	r1, .L72+64
 940 0098 B3F90020 		ldrsh	r2, [r3, #0]
 941 009c 2046     		mov	r0, r4
 942 009e FFF7FEFF 		bl	chprintf
 943              		.loc 2 217 0
 944 00a2 FFF7FEFF 		bl	speedGetRpm
 945 00a6 1A49     		ldr	r1, .L72+68
 946 00a8 0246     		mov	r2, r0
 947 00aa 2046     		mov	r0, r4
 948 00ac FFF7FEFF 		bl	chprintf
 949              		.loc 2 219 0
 950 00b0 6420     		movs	r0, #100
 951 00b2 FFF7FEFF 		bl	chThdSleep
 952              	.L70:
 953              		.loc 2 208 0 discriminator 1
 954 00b6 2168     		ldr	r1, [r4, #0]
 955 00b8 2046     		mov	r0, r4
 956 00ba 4B69     		ldr	r3, [r1, #20]
 957 00bc 0021     		movs	r1, #0
 958 00be 9847     		blx	r3
 959 00c0 B0F1FF3F 		cmp	r0, #-1
ARM GAS  C:\Users\DNIEL~1\AppData\Local\Temp\ccckc6Je.s 			page 18


 960 00c4 ABD0     		beq	.L71
 961              		.loc 2 221 0
 962 00c6 BDE8F883 		pop	{r3, r4, r5, r6, r7, r8, r9, pc}
 963              	.L73:
 964 00ca 00BF     		.align	2
 965              	.L72:
 966 00cc 00000000 		.word	.LC0
 967 00d0 00000000 		.word	.LANCHOR13
 968 00d4 00000000 		.word	.LANCHOR5
 969 00d8 04000000 		.word	.LC1
 970 00dc 0C000000 		.word	.LC2
 971 00e0 00000000 		.word	.LANCHOR15
 972 00e4 18000000 		.word	.LC3
 973 00e8 00000000 		.word	.LANCHOR6
 974 00ec 30000000 		.word	.LC4
 975 00f0 00000000 		.word	.LANCHOR7
 976 00f4 48000000 		.word	.LC5
 977 00f8 00000000 		.word	.LANCHOR12
 978 00fc 60000000 		.word	.LC6
 979 0100 00000000 		.word	.LANCHOR0
 980 0104 78000000 		.word	.LC7
 981 0108 00000000 		.word	.LANCHOR10
 982 010c 84000000 		.word	.LC8
 983 0110 94000000 		.word	.LC9
 984 0114 00000000 		.word	.LANCHOR14
 985              		.cfi_endproc
 986              	.LFE128:
 987              		.size	cmd_cruisevalues, .-cmd_cruisevalues
 988 0118 AFF30080 		.section	.text.cmd_setcruisevalues,"ax",%progbits
 988      AFF30080 
 989              		.align	2
 990              		.p2align 4,,15
 991              		.global	cmd_setcruisevalues
 992              		.thumb
 993              		.thumb_func
 994              		.type	cmd_setcruisevalues, %function
 995              	cmd_setcruisevalues:
 996              	.LFB129:
 997              		.loc 2 223 0
 998              		.cfi_startproc
 999              		@ args = 0, pretend = 0, frame = 0
 1000              		@ frame_needed = 0, uses_anonymous_args = 0
 1001              	.LVL12:
 1002 0000 2DE9F041 		push	{r4, r5, r6, r7, r8, lr}
 1003              	.LCFI12:
 1004              		.cfi_def_cfa_offset 24
 1005              		.loc 2 223 0
 1006 0004 0446     		mov	r4, r0
 1007              		.cfi_offset 14, -4
 1008              		.cfi_offset 8, -8
 1009              		.cfi_offset 7, -12
 1010              		.cfi_offset 6, -16
 1011              		.cfi_offset 5, -20
 1012              		.cfi_offset 4, -24
 1013 0006 0D46     		mov	r5, r1
 1014              		.loc 2 229 0
 1015 0008 6549     		ldr	r1, .L108+8
ARM GAS  C:\Users\DNIEL~1\AppData\Local\Temp\ccckc6Je.s 			page 19


 1016              	.LVL13:
 1017              		.loc 2 223 0
 1018 000a 1646     		mov	r6, r2
 1019              		.loc 2 229 0
 1020 000c FFF7FEFF 		bl	chprintf
 1021              	.LVL14:
 1022              		.loc 2 230 0
 1023 0010 2046     		mov	r0, r4
 1024 0012 6449     		ldr	r1, .L108+12
 1025 0014 FFF7FEFF 		bl	chprintf
 1026              		.loc 2 231 0
 1027 0018 2168     		ldr	r1, [r4, #0]
 1028 001a 2046     		mov	r0, r4
 1029 001c 4B69     		ldr	r3, [r1, #20]
 1030 001e 0021     		movs	r1, #0
 1031 0020 9847     		blx	r3
 1032 0022 B0F1FF3F 		cmp	r0, #-1
 1033 0026 01D0     		beq	.L100
 1034 0028 BDE8F081 		pop	{r4, r5, r6, r7, r8, pc}
 1035              	.L100:
 1036              		.loc 2 232 0
 1037 002c 0022     		movs	r2, #0
 1038 002e 2046     		mov	r0, r4
 1039 0030 5D49     		ldr	r1, .L108+16
 1040 0032 1346     		mov	r3, r2
 1041 0034 FFF7FEFF 		bl	chprintf
 1042              		.loc 2 234 0
 1043 0038 022D     		cmp	r5, #2
 1044 003a 07D0     		beq	.L101
 1045              		.loc 2 274 0
 1046 003c 012D     		cmp	r5, #1
 1047 003e 28D0     		beq	.L102
 1048              	.LVL15:
 1049              	.L92:
 1050              		.loc 2 295 0
 1051 0040 5A49     		ldr	r1, .L108+20
 1052 0042 2046     		mov	r0, r4
 1053              		.loc 2 300 0
 1054 0044 BDE8F041 		pop	{r4, r5, r6, r7, r8, lr}
 1055              		.loc 2 295 0
 1056 0048 FFF7FEBF 		b	chprintf
 1057              	.LVL16:
 1058              	.L101:
 1059              		.loc 2 234 0 discriminator 1
 1060 004c 3768     		ldr	r7, [r6, #0]
 1061 004e 5849     		ldr	r1, .L108+24
 1062 0050 3846     		mov	r0, r7
 1063 0052 FFF7FEFF 		bl	strcmp
 1064 0056 0028     		cmp	r0, #0
 1065 0058 5FD0     		beq	.L103
 1066              	.L77:
 1067              		.loc 2 244 0
 1068 005a 3846     		mov	r0, r7
 1069 005c 5549     		ldr	r1, .L108+28
 1070 005e FFF7FEFF 		bl	strcmp
 1071 0062 0028     		cmp	r0, #0
 1072 0064 60D0     		beq	.L93
ARM GAS  C:\Users\DNIEL~1\AppData\Local\Temp\ccckc6Je.s 			page 20


 1073              	.LVL17:
 1074              	.L81:
 1075              		.loc 2 254 0
 1076 0066 3846     		mov	r0, r7
 1077 0068 5349     		ldr	r1, .L108+32
 1078 006a FFF7FEFF 		bl	strcmp
 1079 006e 0028     		cmp	r0, #0
 1080 0070 48D0     		beq	.L94
 1081              	.L85:
 1082              		.loc 2 264 0
 1083 0072 3846     		mov	r0, r7
 1084 0074 5149     		ldr	r1, .L108+36
 1085 0076 FFF7FEFF 		bl	strcmp
 1086 007a 0028     		cmp	r0, #0
 1087 007c E0D1     		bne	.L92
 1088              		.loc 2 265 0
 1089 007e 7068     		ldr	r0, [r6, #4]
 1090 0080 FFF7FEFF 		bl	atol
 1091 0084 0546     		mov	r5, r0	@ movhi
 1092              	.LVL18:
 1093              		.loc 2 266 0
 1094 0086 00B2     		sxth	r0, r0
 1095 0088 0028     		cmp	r0, #0
 1096 008a 58DD     		ble	.L104
 1097              	.L86:
 1098              		.loc 2 267 0
 1099 008c 4C49     		ldr	r1, .L108+40
 1100 008e 0D80     		strh	r5, [r1, #0]	@ movhi
 1101 0090 D6E7     		b	.L92
 1102              	.LVL19:
 1103              	.L102:
 1104              		.loc 2 274 0 discriminator 1
 1105 0092 3768     		ldr	r7, [r6, #0]
 1106 0094 4B49     		ldr	r1, .L108+44
 1107 0096 3846     		mov	r0, r7
 1108 0098 FFF7FEFF 		bl	strcmp
 1109 009c 0028     		cmp	r0, #0
 1110 009e 29D0     		beq	.L105
 1111              	.L91:
 1112              		.loc 2 279 0
 1113 00a0 3846     		mov	r0, r7
 1114 00a2 4949     		ldr	r1, .L108+48
 1115 00a4 FFF7FEFF 		bl	strcmp
 1116 00a8 0028     		cmp	r0, #0
 1117 00aa C9D1     		bne	.L92
 1118              	.LBB10:
 1119              	.LBB11:
 1120              		.loc 2 134 0
 1121 00ac 474B     		ldr	r3, .L108+52
 1122              	.LBE11:
 1123              	.LBE10:
 1124              		.loc 2 281 0
 1125 00ae 4849     		ldr	r1, .L108+56
 1126              	.LBB13:
 1127              	.LBB12:
 1128              		.loc 2 134 0
 1129 00b0 1870     		strb	r0, [r3, #0]
ARM GAS  C:\Users\DNIEL~1\AppData\Local\Temp\ccckc6Je.s 			page 21


 1130              	.LBE12:
 1131              	.LBE13:
 1132              		.loc 2 281 0
 1133 00b2 2046     		mov	r0, r4
 1134 00b4 FFF7FEFF 		bl	chprintf
 1135              		.loc 2 288 0
 1136 00b8 464A     		ldr	r2, .L108+60
 1137 00ba 4749     		ldr	r1, .L108+64
 1138 00bc B2F90020 		ldrsh	r2, [r2, #0]
 1139 00c0 2046     		mov	r0, r4
 1140 00c2 FFF7FEFF 		bl	chprintf
 1141              		.loc 2 289 0
 1142 00c6 454B     		ldr	r3, .L108+68
 1143 00c8 4549     		ldr	r1, .L108+72
 1144 00ca B3F90020 		ldrsh	r2, [r3, #0]
 1145 00ce 2046     		mov	r0, r4
 1146 00d0 FFF7FEFF 		bl	chprintf
 1147              		.loc 2 290 0
 1148 00d4 3A48     		ldr	r0, .L108+40
 1149 00d6 4349     		ldr	r1, .L108+76
 1150 00d8 B0F90020 		ldrsh	r2, [r0, #0]
 1151 00dc 2046     		mov	r0, r4
 1152 00de FFF7FEFF 		bl	chprintf
 1153              		.loc 2 291 0
 1154 00e2 414A     		ldr	r2, .L108+80
 1155 00e4 4149     		ldr	r1, .L108+84
 1156 00e6 B2F90020 		ldrsh	r2, [r2, #0]
 1157 00ea 2046     		mov	r0, r4
 1158              		.loc 2 300 0
 1159 00ec BDE8F041 		pop	{r4, r5, r6, r7, r8, lr}
 1160              		.loc 2 291 0
 1161 00f0 FFF7FEBF 		b	chprintf
 1162              	.L105:
 1163              	.LBB14:
 1164              	.LBB15:
 1165              		.loc 2 130 0
 1166 00f4 354F     		ldr	r7, .L108+52
 1167              	.LBE15:
 1168              	.LBE14:
 1169              		.loc 2 276 0
 1170 00f6 3E49     		ldr	r1, .L108+88
 1171              	.LBB17:
 1172              	.LBB16:
 1173              		.loc 2 130 0
 1174 00f8 3D70     		strb	r5, [r7, #0]
 1175              	.LBE16:
 1176              	.LBE17:
 1177              		.loc 2 276 0
 1178 00fa 2046     		mov	r0, r4
 1179 00fc FFF7FEFF 		bl	chprintf
 1180 0100 3768     		ldr	r7, [r6, #0]
 1181 0102 CDE7     		b	.L91
 1182              	.LVL20:
 1183              	.L94:
 1184              		.loc 2 255 0
 1185 0104 7068     		ldr	r0, [r6, #4]
 1186 0106 FFF7FEFF 		bl	atol
ARM GAS  C:\Users\DNIEL~1\AppData\Local\Temp\ccckc6Je.s 			page 22


 1187 010a 0546     		mov	r5, r0	@ movhi
 1188              	.LVL21:
 1189              		.loc 2 256 0
 1190 010c 00B2     		sxth	r0, r0
 1191 010e 0028     		cmp	r0, #0
 1192 0110 23DD     		ble	.L106
 1193              	.L82:
 1194              		.loc 2 257 0
 1195 0112 324B     		ldr	r3, .L108+68
 1196 0114 3768     		ldr	r7, [r6, #0]
 1197 0116 1D80     		strh	r5, [r3, #0]	@ movhi
 1198 0118 ABE7     		b	.L85
 1199              	.LVL22:
 1200              	.L103:
 1201              		.loc 2 235 0
 1202 011a 7068     		ldr	r0, [r6, #4]
 1203 011c FFF7FEFF 		bl	atol
 1204              	.LVL23:
 1205 0120 314A     		ldr	r2, .L108+80
 1206              		.loc 2 237 0
 1207 0122 3768     		ldr	r7, [r6, #0]
 1208              		.loc 2 235 0
 1209 0124 1080     		strh	r0, [r2, #0]	@ movhi
 1210 0126 98E7     		b	.L77
 1211              	.LVL24:
 1212              	.L93:
 1213              		.loc 2 245 0
 1214 0128 7068     		ldr	r0, [r6, #4]
 1215 012a FFF7FEFF 		bl	atol
 1216 012e 0546     		mov	r5, r0	@ movhi
 1217              	.LVL25:
 1218              		.loc 2 246 0
 1219 0130 00B2     		sxth	r0, r0
 1220 0132 0028     		cmp	r0, #0
 1221 0134 20DD     		ble	.L107
 1222              	.L78:
 1223              		.loc 2 247 0
 1224 0136 2748     		ldr	r0, .L108+60
 1225 0138 3768     		ldr	r7, [r6, #0]
 1226 013a 0580     		strh	r5, [r0, #0]	@ movhi
 1227 013c 93E7     		b	.L81
 1228              	.L104:
 1229              		.loc 2 266 0 discriminator 1
 1230 013e FFF7FEFF 		bl	__aeabi_i2d
 1231 0142 15A3     		adr	r3, .L108
 1232 0144 D3E90023 		ldrd	r2, [r3]
 1233 0148 FFF7FEFF 		bl	__aeabi_dcmplt
 1234 014c 0028     		cmp	r0, #0
 1235 014e 9DD1     		bne	.L86
 1236              		.loc 2 270 0
 1237 0150 2046     		mov	r0, r4
 1238 0152 2849     		ldr	r1, .L108+92
 1239 0154 FFF7FEFF 		bl	chprintf
 1240 0158 72E7     		b	.L92
 1241              	.L106:
 1242              		.loc 2 256 0 discriminator 1
 1243 015a FFF7FEFF 		bl	__aeabi_i2d
ARM GAS  C:\Users\DNIEL~1\AppData\Local\Temp\ccckc6Je.s 			page 23


 1244 015e 0EA3     		adr	r3, .L108
 1245 0160 D3E90023 		ldrd	r2, [r3]
 1246 0164 FFF7FEFF 		bl	__aeabi_dcmplt
 1247 0168 0028     		cmp	r0, #0
 1248 016a D2D1     		bne	.L82
 1249              		.loc 2 260 0
 1250 016c 2046     		mov	r0, r4
 1251 016e 2249     		ldr	r1, .L108+96
 1252 0170 FFF7FEFF 		bl	chprintf
 1253 0174 3768     		ldr	r7, [r6, #0]
 1254 0176 7CE7     		b	.L85
 1255              	.L107:
 1256              		.loc 2 246 0 discriminator 1
 1257 0178 FFF7FEFF 		bl	__aeabi_i2d
 1258 017c 06A3     		adr	r3, .L108
 1259 017e D3E90023 		ldrd	r2, [r3]
 1260 0182 FFF7FEFF 		bl	__aeabi_dcmplt
 1261 0186 0028     		cmp	r0, #0
 1262 0188 D5D1     		bne	.L78
 1263              		.loc 2 250 0
 1264 018a 2046     		mov	r0, r4
 1265 018c 1B49     		ldr	r1, .L108+100
 1266 018e FFF7FEFF 		bl	chprintf
 1267 0192 3768     		ldr	r7, [r6, #0]
 1268 0194 67E7     		b	.L81
 1269              	.L109:
 1270 0196 00BF     		.align	3
 1271              	.L108:
 1272 0198 00000000 		.word	0
 1273 019c 80842E41 		.word	1093567616
 1274 01a0 00000000 		.word	.LC0
 1275 01a4 04000000 		.word	.LC1
 1276 01a8 0C000000 		.word	.LC2
 1277 01ac 58010000 		.word	.LC20
 1278 01b0 A8000000 		.word	.LC10
 1279 01b4 74010000 		.word	.LC21
 1280 01b8 78010000 		.word	.LC22
 1281 01bc 7C010000 		.word	.LC23
 1282 01c0 00000000 		.word	.LANCHOR15
 1283 01c4 F4000000 		.word	.LC14
 1284 01c8 80010000 		.word	.LC24
 1285 01cc 00000000 		.word	.LANCHOR4
 1286 01d0 14010000 		.word	.LC16
 1287 01d4 00000000 		.word	.LANCHOR13
 1288 01d8 34010000 		.word	.LC17
 1289 01dc 00000000 		.word	.LANCHOR14
 1290 01e0 40010000 		.word	.LC18
 1291 01e4 4C010000 		.word	.LC19
 1292 01e8 00000000 		.word	.LANCHOR10
 1293 01ec 84000000 		.word	.LC8
 1294 01f0 F8000000 		.word	.LC15
 1295 01f4 DC000000 		.word	.LC13
 1296 01f8 C4000000 		.word	.LC12
 1297 01fc AC000000 		.word	.LC11
 1298              		.cfi_endproc
 1299              	.LFE129:
 1300              		.size	cmd_setcruisevalues, .-cmd_setcruisevalues
ARM GAS  C:\Users\DNIEL~1\AppData\Local\Temp\ccckc6Je.s 			page 24


 1301              		.section	.text.cmd_cruise,"ax",%progbits
 1302              		.align	2
 1303              		.p2align 4,,15
 1304              		.global	cmd_cruise
 1305              		.thumb
 1306              		.thumb_func
 1307              		.type	cmd_cruise, %function
 1308              	cmd_cruise:
 1309              	.LFB130:
 1310              		.loc 2 302 0
 1311              		.cfi_startproc
 1312              		@ args = 0, pretend = 0, frame = 0
 1313              		@ frame_needed = 0, uses_anonymous_args = 0
 1314              	.LVL26:
 1315 0000 2DE9F041 		push	{r4, r5, r6, r7, r8, lr}
 1316              	.LCFI13:
 1317              		.cfi_def_cfa_offset 24
 1318              		.loc 2 302 0
 1319 0004 0446     		mov	r4, r0
 1320              		.cfi_offset 14, -4
 1321              		.cfi_offset 8, -8
 1322              		.cfi_offset 7, -12
 1323              		.cfi_offset 6, -16
 1324              		.cfi_offset 5, -20
 1325              		.cfi_offset 4, -24
 1326 0006 0D46     		mov	r5, r1
 1327              		.loc 2 306 0
 1328 0008 1A49     		ldr	r1, .L116
 1329              	.LVL27:
 1330              		.loc 2 302 0
 1331 000a 1646     		mov	r6, r2
 1332              		.loc 2 306 0
 1333 000c FFF7FEFF 		bl	chprintf
 1334              	.LVL28:
 1335              		.loc 2 307 0
 1336 0010 2046     		mov	r0, r4
 1337 0012 1949     		ldr	r1, .L116+4
 1338 0014 FFF7FEFF 		bl	chprintf
 1339              		.loc 2 308 0
 1340 0018 0022     		movs	r2, #0
 1341 001a 2046     		mov	r0, r4
 1342 001c 1749     		ldr	r1, .L116+8
 1343 001e 1346     		mov	r3, r2
 1344 0020 FFF7FEFF 		bl	chprintf
 1345              		.loc 2 310 0
 1346 0024 012D     		cmp	r5, #1
 1347 0026 09D0     		beq	.L114
 1348              	.L111:
 1349              		.loc 2 326 0
 1350 0028 2046     		mov	r0, r4
 1351 002a 1549     		ldr	r1, .L116+12
 1352 002c FFF7FEFF 		bl	chprintf
 1353              		.loc 2 327 0
 1354 0030 1449     		ldr	r1, .L116+16
 1355 0032 2046     		mov	r0, r4
 1356              		.loc 2 331 0
 1357 0034 BDE8F041 		pop	{r4, r5, r6, r7, r8, lr}
ARM GAS  C:\Users\DNIEL~1\AppData\Local\Temp\ccckc6Je.s 			page 25


 1358              		.loc 2 327 0
 1359 0038 FFF7FEBF 		b	chprintf
 1360              	.L114:
 1361              		.loc 2 310 0 discriminator 1
 1362 003c 3768     		ldr	r7, [r6, #0]
 1363 003e 1249     		ldr	r1, .L116+20
 1364 0040 3846     		mov	r0, r7
 1365 0042 FFF7FEFF 		bl	strcmp
 1366 0046 68B1     		cbz	r0, .L115
 1367              	.L112:
 1368              		.loc 2 315 0
 1369 0048 3846     		mov	r0, r7
 1370 004a 1049     		ldr	r1, .L116+24
 1371 004c FFF7FEFF 		bl	strcmp
 1372 0050 0028     		cmp	r0, #0
 1373 0052 E9D1     		bne	.L111
 1374              	.LBB18:
 1375              	.LBB19:
 1376              		.loc 2 134 0
 1377 0054 0E4A     		ldr	r2, .L116+28
 1378              	.LBE19:
 1379              	.LBE18:
 1380              		.loc 2 317 0
 1381 0056 0F49     		ldr	r1, .L116+32
 1382              	.LBB21:
 1383              	.LBB20:
 1384              		.loc 2 134 0
 1385 0058 1070     		strb	r0, [r2, #0]
 1386              	.LBE20:
 1387              	.LBE21:
 1388              		.loc 2 317 0
 1389 005a 2046     		mov	r0, r4
 1390              		.loc 2 331 0
 1391 005c BDE8F041 		pop	{r4, r5, r6, r7, r8, lr}
 1392              		.loc 2 317 0
 1393 0060 FFF7FEBF 		b	chprintf
 1394              	.L115:
 1395              	.LBB22:
 1396              	.LBB23:
 1397              		.loc 2 130 0
 1398 0064 0A4B     		ldr	r3, .L116+28
 1399              	.LBE23:
 1400              	.LBE22:
 1401              		.loc 2 312 0
 1402 0066 0C49     		ldr	r1, .L116+36
 1403              	.LBB25:
 1404              	.LBB24:
 1405              		.loc 2 130 0
 1406 0068 1D70     		strb	r5, [r3, #0]
 1407              	.LBE24:
 1408              	.LBE25:
 1409              		.loc 2 312 0
 1410 006a 2046     		mov	r0, r4
 1411 006c FFF7FEFF 		bl	chprintf
 1412 0070 3768     		ldr	r7, [r6, #0]
 1413 0072 E9E7     		b	.L112
 1414              	.L117:
ARM GAS  C:\Users\DNIEL~1\AppData\Local\Temp\ccckc6Je.s 			page 26


 1415              		.align	2
 1416              	.L116:
 1417 0074 00000000 		.word	.LC0
 1418 0078 04000000 		.word	.LC1
 1419 007c 0C000000 		.word	.LC2
 1420 0080 84010000 		.word	.LC25
 1421 0084 98010000 		.word	.LC26
 1422 0088 F4000000 		.word	.LC14
 1423 008c 80010000 		.word	.LC24
 1424 0090 00000000 		.word	.LANCHOR4
 1425 0094 14010000 		.word	.LC16
 1426 0098 F8000000 		.word	.LC15
 1427              		.cfi_endproc
 1428              	.LFE130:
 1429              		.size	cmd_cruise, .-cmd_cruise
 1430 009c AFF30080 		.section	.bss.P,"aw",%nobits
 1431              		.align	3
 1432              		.set	.LANCHOR5,. + 0
 1433              		.type	P, %object
 1434              		.size	P, 8
 1435              	P:
 1436 0000 00000000 		.space	8
 1436      00000000 
 1437              		.section	.data.K_D,"aw",%progbits
 1438              		.align	1
 1439              		.set	.LANCHOR15,. + 0
 1440              		.type	K_D, %object
 1441              		.size	K_D, 2
 1442              	K_D:
 1443 0000 F401     		.short	500
 1444              		.section	.data.K_P,"aw",%progbits
 1445              		.align	1
 1446              		.set	.LANCHOR13,. + 0
 1447              		.type	K_P, %object
 1448              		.size	K_P, 2
 1449              	K_P:
 1450 0000 0500     		.short	5
 1451              		.section	.bss.eeprom_write,"aw",%nobits
 1452              		.set	.LANCHOR3,. + 0
 1453              		.type	eeprom_write, %object
 1454              		.size	eeprom_write, 1
 1455              	eeprom_write:
 1456 0000 00       		.space	1
 1457              		.section	.bss.U,"aw",%nobits
 1458              		.align	2
 1459              		.set	.LANCHOR12,. + 0
 1460              		.type	U, %object
 1461              		.size	U, 4
 1462              	U:
 1463 0000 00000000 		.space	4
 1464              		.section	.bss.set,"aw",%nobits
 1465              		.align	1
 1466              		.set	.LANCHOR10,. + 0
 1467              		.type	set, %object
 1468              		.size	set, 2
 1469              	set:
 1470 0000 0000     		.space	2
ARM GAS  C:\Users\DNIEL~1\AppData\Local\Temp\ccckc6Je.s 			page 27


 1471              		.section	.data.K_I,"aw",%progbits
 1472              		.align	1
 1473              		.set	.LANCHOR14,. + 0
 1474              		.type	K_I, %object
 1475              		.size	K_I, 2
 1476              	K_I:
 1477 0000 0200     		.short	2
 1478              		.section	.bss.old_set,"aw",%nobits
 1479              		.align	1
 1480              		.set	.LANCHOR2,. + 0
 1481              		.type	old_set, %object
 1482              		.size	old_set, 2
 1483              	old_set:
 1484 0000 0000     		.space	2
 1485              		.section	.rodata.str1.4,"aMS",%progbits,1
 1486              		.align	2
 1487              	.LC0:
 1488 0000 1B6300   		.ascii	"\033c\000"
 1489 0003 00       		.space	1
 1490              	.LC1:
 1491 0004 1B5B324A 		.ascii	"\033[2J\000"
 1491      00
 1492 0009 000000   		.space	3
 1493              	.LC2:
 1494 000c 1B5B2564 		.ascii	"\033[%d;%dH\000"
 1494      3B256448 
 1494      00
 1495 0015 000000   		.space	3
 1496              	.LC3:
 1497 0018 4B5F503A 		.ascii	"K_P: %15d - P: %15d\015\012\000"
 1497      20253135 
 1497      64202D20 
 1497      503A2025 
 1497      3135640D 
 1498 002e 0000     		.space	2
 1499              	.LC4:
 1500 0030 4B5F493A 		.ascii	"K_I: %15d - I: %15d\015\012\000"
 1500      20253135 
 1500      64202D20 
 1500      493A2025 
 1500      3135640D 
 1501 0046 0000     		.space	2
 1502              	.LC5:
 1503 0048 4B5F443A 		.ascii	"K_D: %15d - D: %15d\015\012\000"
 1503      20253135 
 1503      64202D20 
 1503      443A2025 
 1503      3135640D 
 1504 005e 0000     		.space	2
 1505              	.LC6:
 1506 0060 4B5F553A 		.ascii	"K_U: %15d - U: %15d\015\012\000"
 1506      20253135 
 1506      64202D20 
 1506      553A2025 
 1506      3135640D 
 1507 0076 0000     		.space	2
 1508              	.LC7:
ARM GAS  C:\Users\DNIEL~1\AppData\Local\Temp\ccckc6Je.s 			page 28


 1509 0078 70776D3A 		.ascii	"pwm: %15d\015\012\000"
 1509      20253135 
 1509      640D0A00 
 1510              	.LC8:
 1511 0084 73657420 		.ascii	"set rpm: %15d\015\012\000"
 1511      72706D3A 
 1511      20253135 
 1511      640D0A00 
 1512              	.LC9:
 1513 0094 696E7075 		.ascii	"input rpm: %15d\015\012\000"
 1513      74207270 
 1513      6D3A2025 
 1513      3135640D 
 1513      0A00
 1514 00a6 0000     		.space	2
 1515              	.LC10:
 1516 00a8 72706D00 		.ascii	"rpm\000"
 1517              	.LC11:
 1518 00ac 54686973 		.ascii	"This not good K_P!\015\012\000"
 1518      206E6F74 
 1518      20676F6F 
 1518      64204B5F 
 1518      50210D0A 
 1519 00c1 000000   		.space	3
 1520              	.LC12:
 1521 00c4 54686973 		.ascii	"This not good K_I!\015\012\000"
 1521      206E6F74 
 1521      20676F6F 
 1521      64204B5F 
 1521      49210D0A 
 1522 00d9 000000   		.space	3
 1523              	.LC13:
 1524 00dc 54686973 		.ascii	"This not good K_D!\015\012\000"
 1524      206E6F74 
 1524      20676F6F 
 1524      64204B5F 
 1524      44210D0A 
 1525 00f1 000000   		.space	3
 1526              	.LC14:
 1527 00f4 6F6E00   		.ascii	"on\000"
 1528 00f7 00       		.space	1
 1529              	.LC15:
 1530 00f8 43727569 		.ascii	"Cruise control switch ON!\015\012\000"
 1530      73652063 
 1530      6F6E7472 
 1530      6F6C2073 
 1530      77697463 
 1531              	.LC16:
 1532 0114 43727569 		.ascii	"Cruise control switch OFF!\015\012\000"
 1532      73652063 
 1532      6F6E7472 
 1532      6F6C2073 
 1532      77697463 
 1533 0131 000000   		.space	3
 1534              	.LC17:
 1535 0134 4B5F503A 		.ascii	"K_P: %15d\015\012\000"
 1535      20253135 
ARM GAS  C:\Users\DNIEL~1\AppData\Local\Temp\ccckc6Je.s 			page 29


 1535      640D0A00 
 1536              	.LC18:
 1537 0140 4B5F493A 		.ascii	"K_I: %15d\015\012\000"
 1537      20253135 
 1537      640D0A00 
 1538              	.LC19:
 1539 014c 4B5F443A 		.ascii	"K_D: %15d\015\012\000"
 1539      20253135 
 1539      640D0A00 
 1540              	.LC20:
 1541 0158 54686973 		.ascii	"This not good command!\015\012\000"
 1541      206E6F74 
 1541      20676F6F 
 1541      6420636F 
 1541      6D6D616E 
 1542 0171 000000   		.space	3
 1543              	.LC21:
 1544 0174 4B5F5000 		.ascii	"K_P\000"
 1545              	.LC22:
 1546 0178 4B5F4900 		.ascii	"K_I\000"
 1547              	.LC23:
 1548 017c 4B5F4400 		.ascii	"K_D\000"
 1549              	.LC24:
 1550 0180 6F666600 		.ascii	"off\000"
 1551              	.LC25:
 1552 0184 55736167 		.ascii	"Usage: cruise on\015\012\000"
 1552      653A2063 
 1552      72756973 
 1552      65206F6E 
 1552      0D0A00
 1553 0197 00       		.space	1
 1554              	.LC26:
 1555 0198 20202020 		.ascii	"       cruise off\015\012\000"
 1555      20202063 
 1555      72756973 
 1555      65206F66 
 1555      660D0A00 
 1556              		.section	.bss.pwm,"aw",%nobits
 1557              		.align	2
 1558              		.set	.LANCHOR0,. + 0
 1559              		.type	pwm, %object
 1560              		.size	pwm, 4
 1561              	pwm:
 1562 0000 00000000 		.space	4
 1563              		.section	.data.cruise_pwmcfg,"aw",%progbits
 1564              		.align	2
 1565              		.set	.LANCHOR11,. + 0
 1566              		.type	cruise_pwmcfg, %object
 1567              		.size	cruise_pwmcfg, 52
 1568              	cruise_pwmcfg:
 1569 0000 80969800 		.word	10000000
 1570 0004 1027     		.short	10000
 1571 0006 0000     		.space	2
 1572 0008 00000000 		.word	0
 1573 000c 00000000 		.word	0
 1574 0010 00000000 		.word	0
 1575 0014 00000000 		.word	0
ARM GAS  C:\Users\DNIEL~1\AppData\Local\Temp\ccckc6Je.s 			page 30


 1576 0018 00000000 		.word	0
 1577 001c 01000000 		.word	1
 1578 0020 00000000 		.word	0
 1579 0024 00000000 		.word	0
 1580 0028 00000000 		.word	0
 1581 002c 00000000 		.word	0
 1582 0030 00000000 		.word	0
 1583              		.section	.bss.eeprom_read_period,"aw",%nobits
 1584              		.align	2
 1585              		.set	.LANCHOR1,. + 0
 1586              		.type	eeprom_read_period, %object
 1587              		.size	eeprom_read_period, 4
 1588              	eeprom_read_period:
 1589 0000 00000000 		.space	4
 1590              		.section	.bss.cruise_on,"aw",%nobits
 1591              		.set	.LANCHOR4,. + 0
 1592              		.type	cruise_on, %object
 1593              		.size	cruise_on, 1
 1594              	cruise_on:
 1595 0000 00       		.space	1
 1596              		.section	.bss.D,"aw",%nobits
 1597              		.align	3
 1598              		.set	.LANCHOR7,. + 0
 1599              		.type	D, %object
 1600              		.size	D, 8
 1601              	D:
 1602 0000 00000000 		.space	8
 1602      00000000 
 1603              		.section	.bss.e,"aw",%nobits
 1604              		.align	3
 1605              		.set	.LANCHOR9,. + 0
 1606              		.type	e, %object
 1607              		.size	e, 8
 1608              	e:
 1609 0000 00000000 		.space	8
 1609      00000000 
 1610              		.section	.bss.eelozo,"aw",%nobits
 1611              		.align	3
 1612              		.set	.LANCHOR8,. + 0
 1613              		.type	eelozo, %object
 1614              		.size	eelozo, 8
 1615              	eelozo:
 1616 0000 00000000 		.space	8
 1616      00000000 
 1617              		.section	.bss.I,"aw",%nobits
 1618              		.align	3
 1619              		.set	.LANCHOR6,. + 0
 1620              		.type	I, %object
 1621              		.size	I, 8
 1622              	I:
 1623 0000 00000000 		.space	8
 1623      00000000 
 1624              		.text
 1625              	.Letext0:
 1626              		.section	.debug_loc,"",%progbits
 1627              	.Ldebug_loc0:
 1628              	.LLST0:
ARM GAS  C:\Users\DNIEL~1\AppData\Local\Temp\ccckc6Je.s 			page 31


 1629 0000 00000000 		.4byte	.LFB118
 1630 0004 02000000 		.4byte	.LCFI0
 1631 0008 0200     		.2byte	0x2
 1632 000a 7D       		.byte	0x7d
 1633 000b 00       		.sleb128 0
 1634 000c 02000000 		.4byte	.LCFI0
 1635 0010 04000000 		.4byte	.LCFI1
 1636 0014 0200     		.2byte	0x2
 1637 0016 7D       		.byte	0x7d
 1638 0017 0C       		.sleb128 12
 1639 0018 04000000 		.4byte	.LCFI1
 1640 001c 06000000 		.4byte	.LCFI2
 1641 0020 0200     		.2byte	0x2
 1642 0022 7D       		.byte	0x7d
 1643 0023 10       		.sleb128 16
 1644 0024 06000000 		.4byte	.LCFI2
 1645 0028 1E000000 		.4byte	.LFE118
 1646 002c 0200     		.2byte	0x2
 1647 002e 7D       		.byte	0x7d
 1648 002f 18       		.sleb128 24
 1649 0030 00000000 		.4byte	0x0
 1650 0034 00000000 		.4byte	0x0
 1651              	.LLST1:
 1652 0038 00000000 		.4byte	.LVL0
 1653 003c 13000000 		.4byte	.LVL1-1
 1654 0040 0100     		.2byte	0x1
 1655 0042 50       		.byte	0x50
 1656 0043 00000000 		.4byte	0x0
 1657 0047 00000000 		.4byte	0x0
 1658              	.LLST2:
 1659 004b 00000000 		.4byte	.LFB119
 1660 004f 04000000 		.4byte	.LCFI3
 1661 0053 0200     		.2byte	0x2
 1662 0055 7D       		.byte	0x7d
 1663 0056 00       		.sleb128 0
 1664 0057 04000000 		.4byte	.LCFI3
 1665 005b D0000000 		.4byte	.LFE119
 1666 005f 0200     		.2byte	0x2
 1667 0061 7D       		.byte	0x7d
 1668 0062 18       		.sleb128 24
 1669 0063 00000000 		.4byte	0x0
 1670 0067 00000000 		.4byte	0x0
 1671              	.LLST3:
 1672 006b 00000000 		.4byte	.LFB124
 1673 006f 02000000 		.4byte	.LCFI4
 1674 0073 0200     		.2byte	0x2
 1675 0075 7D       		.byte	0x7d
 1676 0076 00       		.sleb128 0
 1677 0077 02000000 		.4byte	.LCFI4
 1678 007b 54000000 		.4byte	.LFE124
 1679 007f 0200     		.2byte	0x2
 1680 0081 7D       		.byte	0x7d
 1681 0082 10       		.sleb128 16
 1682 0083 00000000 		.4byte	0x0
 1683 0087 00000000 		.4byte	0x0
 1684              	.LLST4:
 1685 008b 00000000 		.4byte	.LVL2
ARM GAS  C:\Users\DNIEL~1\AppData\Local\Temp\ccckc6Je.s 			page 32


 1686 008f 0C000000 		.4byte	.LVL3
 1687 0093 0600     		.2byte	0x6
 1688 0095 50       		.byte	0x50
 1689 0096 93       		.byte	0x93
 1690 0097 04       		.uleb128 0x4
 1691 0098 51       		.byte	0x51
 1692 0099 93       		.byte	0x93
 1693 009a 04       		.uleb128 0x4
 1694 009b 00000000 		.4byte	0x0
 1695 009f 00000000 		.4byte	0x0
 1696              	.LLST5:
 1697 00a3 00000000 		.4byte	.LFB125
 1698 00a7 02000000 		.4byte	.LCFI5
 1699 00ab 0200     		.2byte	0x2
 1700 00ad 7D       		.byte	0x7d
 1701 00ae 00       		.sleb128 0
 1702 00af 02000000 		.4byte	.LCFI5
 1703 00b3 2C000000 		.4byte	.LFE125
 1704 00b7 0200     		.2byte	0x2
 1705 00b9 7D       		.byte	0x7d
 1706 00ba 10       		.sleb128 16
 1707 00bb 00000000 		.4byte	0x0
 1708 00bf 00000000 		.4byte	0x0
 1709              	.LLST6:
 1710 00c3 00000000 		.4byte	.LVL4
 1711 00c7 0C000000 		.4byte	.LVL5
 1712 00cb 0600     		.2byte	0x6
 1713 00cd 50       		.byte	0x50
 1714 00ce 93       		.byte	0x93
 1715 00cf 04       		.uleb128 0x4
 1716 00d0 51       		.byte	0x51
 1717 00d1 93       		.byte	0x93
 1718 00d2 04       		.uleb128 0x4
 1719 00d3 00000000 		.4byte	0x0
 1720 00d7 00000000 		.4byte	0x0
 1721              	.LLST7:
 1722 00db 00000000 		.4byte	.LFB126
 1723 00df 02000000 		.4byte	.LCFI6
 1724 00e3 0200     		.2byte	0x2
 1725 00e5 7D       		.byte	0x7d
 1726 00e6 00       		.sleb128 0
 1727 00e7 02000000 		.4byte	.LCFI6
 1728 00eb 18000000 		.4byte	.LFE126
 1729 00ef 0200     		.2byte	0x2
 1730 00f1 7D       		.byte	0x7d
 1731 00f2 08       		.sleb128 8
 1732 00f3 00000000 		.4byte	0x0
 1733 00f7 00000000 		.4byte	0x0
 1734              	.LLST8:
 1735 00fb 00000000 		.4byte	.LFB127
 1736 00ff 04000000 		.4byte	.LCFI7
 1737 0103 0200     		.2byte	0x2
 1738 0105 7D       		.byte	0x7d
 1739 0106 00       		.sleb128 0
 1740 0107 04000000 		.4byte	.LCFI7
 1741 010b 06000000 		.4byte	.LCFI8
 1742 010f 0200     		.2byte	0x2
ARM GAS  C:\Users\DNIEL~1\AppData\Local\Temp\ccckc6Je.s 			page 33


 1743 0111 7D       		.byte	0x7d
 1744 0112 24       		.sleb128 36
 1745 0113 06000000 		.4byte	.LCFI8
 1746 0117 A4010000 		.4byte	.LFE127
 1747 011b 0300     		.2byte	0x3
 1748 011d 7D       		.byte	0x7d
 1749 011e C000     		.sleb128 64
 1750 0120 00000000 		.4byte	0x0
 1751 0124 00000000 		.4byte	0x0
 1752              	.LLST9:
 1753 0128 00000000 		.4byte	.LVL6
 1754 012c 08000000 		.4byte	.LVL7
 1755 0130 0100     		.2byte	0x1
 1756 0132 50       		.byte	0x50
 1757 0133 00000000 		.4byte	0x0
 1758 0137 00000000 		.4byte	0x0
 1759              	.LLST10:
 1760 013b 00000000 		.4byte	.LVL6
 1761 013f 0F000000 		.4byte	.LVL8-1
 1762 0143 0100     		.2byte	0x1
 1763 0145 51       		.byte	0x51
 1764 0146 00000000 		.4byte	0x0
 1765 014a 00000000 		.4byte	0x0
 1766              	.LLST11:
 1767 014e 00000000 		.4byte	.LVL6
 1768 0152 0F000000 		.4byte	.LVL8-1
 1769 0156 0100     		.2byte	0x1
 1770 0158 52       		.byte	0x52
 1771 0159 0F000000 		.4byte	.LVL8-1
 1772 015d A4010000 		.4byte	.LFE127
 1773 0161 0100     		.2byte	0x1
 1774 0163 5B       		.byte	0x5b
 1775 0164 00000000 		.4byte	0x0
 1776 0168 00000000 		.4byte	0x0
 1777              	.LLST12:
 1778 016c 00000000 		.4byte	.LVL6
 1779 0170 0F000000 		.4byte	.LVL8-1
 1780 0174 0100     		.2byte	0x1
 1781 0176 53       		.byte	0x53
 1782 0177 0F000000 		.4byte	.LVL8-1
 1783 017b A4010000 		.4byte	.LFE127
 1784 017f 0200     		.2byte	0x2
 1785 0181 91       		.byte	0x91
 1786 0182 54       		.sleb128 -44
 1787 0183 00000000 		.4byte	0x0
 1788 0187 00000000 		.4byte	0x0
 1789              	.LLST13:
 1790 018b 00000000 		.4byte	.LFB120
 1791 018f 04000000 		.4byte	.LCFI9
 1792 0193 0200     		.2byte	0x2
 1793 0195 7D       		.byte	0x7d
 1794 0196 00       		.sleb128 0
 1795 0197 04000000 		.4byte	.LCFI9
 1796 019b 0C000000 		.4byte	.LCFI10
 1797 019f 0200     		.2byte	0x2
 1798 01a1 7D       		.byte	0x7d
 1799 01a2 10       		.sleb128 16
ARM GAS  C:\Users\DNIEL~1\AppData\Local\Temp\ccckc6Je.s 			page 34


 1800 01a3 0C000000 		.4byte	.LCFI10
 1801 01a7 78010000 		.4byte	.LFE120
 1802 01ab 0200     		.2byte	0x2
 1803 01ad 7D       		.byte	0x7d
 1804 01ae 38       		.sleb128 56
 1805 01af 00000000 		.4byte	0x0
 1806 01b3 00000000 		.4byte	0x0
 1807              	.LLST14:
 1808 01b7 00000000 		.4byte	.LFB128
 1809 01bb 04000000 		.4byte	.LCFI11
 1810 01bf 0200     		.2byte	0x2
 1811 01c1 7D       		.byte	0x7d
 1812 01c2 00       		.sleb128 0
 1813 01c3 04000000 		.4byte	.LCFI11
 1814 01c7 18010000 		.4byte	.LFE128
 1815 01cb 0200     		.2byte	0x2
 1816 01cd 7D       		.byte	0x7d
 1817 01ce 20       		.sleb128 32
 1818 01cf 00000000 		.4byte	0x0
 1819 01d3 00000000 		.4byte	0x0
 1820              	.LLST15:
 1821 01d7 00000000 		.4byte	.LVL9
 1822 01db 13000000 		.4byte	.LVL11-1
 1823 01df 0100     		.2byte	0x1
 1824 01e1 50       		.byte	0x50
 1825 01e2 13000000 		.4byte	.LVL11-1
 1826 01e6 18010000 		.4byte	.LFE128
 1827 01ea 0100     		.2byte	0x1
 1828 01ec 54       		.byte	0x54
 1829 01ed 00000000 		.4byte	0x0
 1830 01f1 00000000 		.4byte	0x0
 1831              	.LLST16:
 1832 01f5 00000000 		.4byte	.LVL9
 1833 01f9 06000000 		.4byte	.LVL10
 1834 01fd 0100     		.2byte	0x1
 1835 01ff 51       		.byte	0x51
 1836 0200 00000000 		.4byte	0x0
 1837 0204 00000000 		.4byte	0x0
 1838              	.LLST17:
 1839 0208 00000000 		.4byte	.LVL9
 1840 020c 13000000 		.4byte	.LVL11-1
 1841 0210 0100     		.2byte	0x1
 1842 0212 52       		.byte	0x52
 1843 0213 00000000 		.4byte	0x0
 1844 0217 00000000 		.4byte	0x0
 1845              	.LLST18:
 1846 021b 00000000 		.4byte	.LFB129
 1847 021f 04000000 		.4byte	.LCFI12
 1848 0223 0200     		.2byte	0x2
 1849 0225 7D       		.byte	0x7d
 1850 0226 00       		.sleb128 0
 1851 0227 04000000 		.4byte	.LCFI12
 1852 022b 00020000 		.4byte	.LFE129
 1853 022f 0200     		.2byte	0x2
 1854 0231 7D       		.byte	0x7d
 1855 0232 18       		.sleb128 24
 1856 0233 00000000 		.4byte	0x0
ARM GAS  C:\Users\DNIEL~1\AppData\Local\Temp\ccckc6Je.s 			page 35


 1857 0237 00000000 		.4byte	0x0
 1858              	.LLST19:
 1859 023b 00000000 		.4byte	.LVL12
 1860 023f 0F000000 		.4byte	.LVL14-1
 1861 0243 0100     		.2byte	0x1
 1862 0245 50       		.byte	0x50
 1863 0246 0F000000 		.4byte	.LVL14-1
 1864 024a 00020000 		.4byte	.LFE129
 1865 024e 0100     		.2byte	0x1
 1866 0250 54       		.byte	0x54
 1867 0251 00000000 		.4byte	0x0
 1868 0255 00000000 		.4byte	0x0
 1869              	.LLST20:
 1870 0259 00000000 		.4byte	.LVL12
 1871 025d 0A000000 		.4byte	.LVL13
 1872 0261 0100     		.2byte	0x1
 1873 0263 51       		.byte	0x51
 1874 0264 0A000000 		.4byte	.LVL13
 1875 0268 40000000 		.4byte	.LVL15
 1876 026c 0100     		.2byte	0x1
 1877 026e 55       		.byte	0x55
 1878 026f 4C000000 		.4byte	.LVL16
 1879 0273 66000000 		.4byte	.LVL17
 1880 0277 0100     		.2byte	0x1
 1881 0279 55       		.byte	0x55
 1882 027a 92000000 		.4byte	.LVL19
 1883 027e 04010000 		.4byte	.LVL20
 1884 0282 0100     		.2byte	0x1
 1885 0284 55       		.byte	0x55
 1886 0285 1A010000 		.4byte	.LVL22
 1887 0289 30010000 		.4byte	.LVL25
 1888 028d 0100     		.2byte	0x1
 1889 028f 55       		.byte	0x55
 1890 0290 00000000 		.4byte	0x0
 1891 0294 00000000 		.4byte	0x0
 1892              	.LLST21:
 1893 0298 00000000 		.4byte	.LVL12
 1894 029c 0F000000 		.4byte	.LVL14-1
 1895 02a0 0100     		.2byte	0x1
 1896 02a2 52       		.byte	0x52
 1897 02a3 0F000000 		.4byte	.LVL14-1
 1898 02a7 00020000 		.4byte	.LFE129
 1899 02ab 0100     		.2byte	0x1
 1900 02ad 56       		.byte	0x56
 1901 02ae 00000000 		.4byte	0x0
 1902 02b2 00000000 		.4byte	0x0
 1903              	.LLST22:
 1904 02b6 86000000 		.4byte	.LVL18
 1905 02ba 92000000 		.4byte	.LVL19
 1906 02be 0100     		.2byte	0x1
 1907 02c0 55       		.byte	0x55
 1908 02c1 0C010000 		.4byte	.LVL21
 1909 02c5 1A010000 		.4byte	.LVL22
 1910 02c9 0100     		.2byte	0x1
 1911 02cb 55       		.byte	0x55
 1912 02cc 20010000 		.4byte	.LVL23
 1913 02d0 28010000 		.4byte	.LVL24
ARM GAS  C:\Users\DNIEL~1\AppData\Local\Temp\ccckc6Je.s 			page 36


 1914 02d4 0100     		.2byte	0x1
 1915 02d6 50       		.byte	0x50
 1916 02d7 30010000 		.4byte	.LVL25
 1917 02db 00020000 		.4byte	.LFE129
 1918 02df 0100     		.2byte	0x1
 1919 02e1 55       		.byte	0x55
 1920 02e2 00000000 		.4byte	0x0
 1921 02e6 00000000 		.4byte	0x0
 1922              	.LLST23:
 1923 02ea 00000000 		.4byte	.LFB130
 1924 02ee 04000000 		.4byte	.LCFI13
 1925 02f2 0200     		.2byte	0x2
 1926 02f4 7D       		.byte	0x7d
 1927 02f5 00       		.sleb128 0
 1928 02f6 04000000 		.4byte	.LCFI13
 1929 02fa 9C000000 		.4byte	.LFE130
 1930 02fe 0200     		.2byte	0x2
 1931 0300 7D       		.byte	0x7d
 1932 0301 18       		.sleb128 24
 1933 0302 00000000 		.4byte	0x0
 1934 0306 00000000 		.4byte	0x0
 1935              	.LLST24:
 1936 030a 00000000 		.4byte	.LVL26
 1937 030e 0F000000 		.4byte	.LVL28-1
 1938 0312 0100     		.2byte	0x1
 1939 0314 50       		.byte	0x50
 1940 0315 0F000000 		.4byte	.LVL28-1
 1941 0319 9C000000 		.4byte	.LFE130
 1942 031d 0100     		.2byte	0x1
 1943 031f 54       		.byte	0x54
 1944 0320 00000000 		.4byte	0x0
 1945 0324 00000000 		.4byte	0x0
 1946              	.LLST25:
 1947 0328 00000000 		.4byte	.LVL26
 1948 032c 0A000000 		.4byte	.LVL27
 1949 0330 0100     		.2byte	0x1
 1950 0332 51       		.byte	0x51
 1951 0333 0A000000 		.4byte	.LVL27
 1952 0337 9C000000 		.4byte	.LFE130
 1953 033b 0100     		.2byte	0x1
 1954 033d 55       		.byte	0x55
 1955 033e 00000000 		.4byte	0x0
 1956 0342 00000000 		.4byte	0x0
 1957              	.LLST26:
 1958 0346 00000000 		.4byte	.LVL26
 1959 034a 0F000000 		.4byte	.LVL28-1
 1960 034e 0100     		.2byte	0x1
 1961 0350 52       		.byte	0x52
 1962 0351 0F000000 		.4byte	.LVL28-1
 1963 0355 9C000000 		.4byte	.LFE130
 1964 0359 0100     		.2byte	0x1
 1965 035b 56       		.byte	0x56
 1966 035c 00000000 		.4byte	0x0
 1967 0360 00000000 		.4byte	0x0
 1968              		.file 3 "c:\\program files (x86)\\codesourcery\\sourcery g++ lite\\bin\\../lib/gcc/arm-none-eabi/4
 1969              		.file 4 "c:\\program files (x86)\\codesourcery\\sourcery g++ lite\\bin\\../lib/gcc/arm-none-eabi/4
 1970              		.file 5 "../../../ChibiOS/os/ports/GCC/ARMCMx/chtypes.h"
ARM GAS  C:\Users\DNIEL~1\AppData\Local\Temp\ccckc6Je.s 			page 37


 1971              		.file 6 "../../../ChibiOS/os/kernel/include/chstreams.h"
 1972              		.file 7 "../../../ChibiOS/os/hal/include/io_channel.h"
 1973              		.file 8 "../../../ChibiOS/os/hal/platforms/STM32/TIMv1/stm32_tim.h"
 1974              		.file 9 "../../../ChibiOS/os/hal/include/pwm.h"
 1975              		.file 10 "../../../ChibiOS/os/hal/platforms/STM32/TIMv1/pwm_lld.h"
 1976              		.file 11 "c:\\program files (x86)\\codesourcery\\sourcery g++ lite\\bin\\../lib/gcc/arm-none-eabi/
 1977              		.file 12 "<built-in>"
 1978              		.file 13 "include/eepromItems.h"
 1979              		.file 14 "../../../ChibiOS/os/ports/common/ARMCMx/CMSIS/include/core_cm4.h"
 1980              		.section	.debug_info
 1981 0000 9D0B0000 		.4byte	0xb9d
 1982 0004 0200     		.2byte	0x2
 1983 0006 00000000 		.4byte	.Ldebug_abbrev0
 1984 000a 04       		.byte	0x4
 1985 000b 01       		.uleb128 0x1
 1986 000c 0A040000 		.4byte	.LASF106
 1987 0010 01       		.byte	0x1
 1988 0011 9B020000 		.4byte	.LASF107
 1989 0015 C4000000 		.4byte	.LASF108
 1990 0019 00000000 		.4byte	0x0
 1991 001d 00000000 		.4byte	0x0
 1992 0021 60000000 		.4byte	.Ldebug_ranges0+0x60
 1993 0025 00000000 		.4byte	.Ldebug_line0
 1994 0029 02       		.uleb128 0x2
 1995 002a 01       		.byte	0x1
 1996 002b 06       		.byte	0x6
 1997 002c A5000000 		.4byte	.LASF0
 1998 0030 02       		.uleb128 0x2
 1999 0031 01       		.byte	0x1
 2000 0032 08       		.byte	0x8
 2001 0033 E2020000 		.4byte	.LASF1
 2002 0037 02       		.uleb128 0x2
 2003 0038 02       		.byte	0x2
 2004 0039 05       		.byte	0x5
 2005 003a 00030000 		.4byte	.LASF2
 2006 003e 02       		.uleb128 0x2
 2007 003f 02       		.byte	0x2
 2008 0040 07       		.byte	0x7
 2009 0041 E6010000 		.4byte	.LASF3
 2010 0045 03       		.uleb128 0x3
 2011 0046 04       		.byte	0x4
 2012 0047 05       		.byte	0x5
 2013 0048 696E7400 		.ascii	"int\000"
 2014 004c 02       		.uleb128 0x2
 2015 004d 04       		.byte	0x4
 2016 004e 07       		.byte	0x7
 2017 004f 6A010000 		.4byte	.LASF4
 2018 0053 02       		.uleb128 0x2
 2019 0054 08       		.byte	0x8
 2020 0055 05       		.byte	0x5
 2021 0056 23010000 		.4byte	.LASF5
 2022 005a 02       		.uleb128 0x2
 2023 005b 08       		.byte	0x8
 2024 005c 07       		.byte	0x7
 2025 005d 3B000000 		.4byte	.LASF6
 2026 0061 02       		.uleb128 0x2
 2027 0062 04       		.byte	0x4
ARM GAS  C:\Users\DNIEL~1\AppData\Local\Temp\ccckc6Je.s 			page 38


 2028 0063 05       		.byte	0x5
 2029 0064 06010000 		.4byte	.LASF7
 2030 0068 04       		.uleb128 0x4
 2031 0069 04       		.byte	0x4
 2032 006a 02       		.uleb128 0x2
 2033 006b 04       		.byte	0x4
 2034 006c 07       		.byte	0x7
 2035 006d 8B010000 		.4byte	.LASF8
 2036 0071 05       		.uleb128 0x5
 2037 0072 04       		.byte	0x4
 2038 0073 77000000 		.4byte	0x77
 2039 0077 02       		.uleb128 0x2
 2040 0078 01       		.byte	0x1
 2041 0079 08       		.byte	0x8
 2042 007a 5F030000 		.4byte	.LASF9
 2043 007e 05       		.uleb128 0x5
 2044 007f 04       		.byte	0x4
 2045 0080 84000000 		.4byte	0x84
 2046 0084 06       		.uleb128 0x6
 2047 0085 77000000 		.4byte	0x77
 2048 0089 07       		.uleb128 0x7
 2049 008a 05000000 		.4byte	.LASF10
 2050 008e 03       		.byte	0x3
 2051 008f D3       		.byte	0xd3
 2052 0090 4C000000 		.4byte	0x4c
 2053 0094 07       		.uleb128 0x7
 2054 0095 D3030000 		.4byte	.LASF11
 2055 0099 04       		.byte	0x4
 2056 009a 2A       		.byte	0x2a
 2057 009b 30000000 		.4byte	0x30
 2058 009f 07       		.uleb128 0x7
 2059 00a0 92000000 		.4byte	.LASF12
 2060 00a4 04       		.byte	0x4
 2061 00a5 35       		.byte	0x35
 2062 00a6 37000000 		.4byte	0x37
 2063 00aa 07       		.uleb128 0x7
 2064 00ab 31010000 		.4byte	.LASF13
 2065 00af 04       		.byte	0x4
 2066 00b0 36       		.byte	0x36
 2067 00b1 3E000000 		.4byte	0x3e
 2068 00b5 07       		.uleb128 0x7
 2069 00b6 DA020000 		.4byte	.LASF14
 2070 00ba 04       		.byte	0x4
 2071 00bb 4F       		.byte	0x4f
 2072 00bc 61000000 		.4byte	0x61
 2073 00c0 07       		.uleb128 0x7
 2074 00c1 33030000 		.4byte	.LASF15
 2075 00c5 04       		.byte	0x4
 2076 00c6 50       		.byte	0x50
 2077 00c7 6A000000 		.4byte	0x6a
 2078 00cb 07       		.uleb128 0x7
 2079 00cc BD000000 		.4byte	.LASF16
 2080 00d0 05       		.byte	0x5
 2081 00d1 2B       		.byte	0x2b
 2082 00d2 D6000000 		.4byte	0xd6
 2083 00d6 02       		.uleb128 0x2
 2084 00d7 01       		.byte	0x1
ARM GAS  C:\Users\DNIEL~1\AppData\Local\Temp\ccckc6Je.s 			page 39


 2085 00d8 02       		.byte	0x2
 2086 00d9 D4020000 		.4byte	.LASF17
 2087 00dd 07       		.uleb128 0x7
 2088 00de 12020000 		.4byte	.LASF18
 2089 00e2 05       		.byte	0x5
 2090 00e3 31       		.byte	0x31
 2091 00e4 B5000000 		.4byte	0xb5
 2092 00e8 07       		.uleb128 0x7
 2093 00e9 94030000 		.4byte	.LASF19
 2094 00ed 05       		.byte	0x5
 2095 00ee 35       		.byte	0x35
 2096 00ef C0000000 		.4byte	0xc0
 2097 00f3 08       		.uleb128 0x8
 2098 00f4 C0000000 		.4byte	0xc0
 2099 00f8 05       		.uleb128 0x5
 2100 00f9 04       		.byte	0x4
 2101 00fa FE000000 		.4byte	0xfe
 2102 00fe 09       		.uleb128 0x9
 2103 00ff 01       		.byte	0x1
 2104 0100 DD000000 		.4byte	0xdd
 2105 0104 0E010000 		.4byte	0x10e
 2106 0108 0A       		.uleb128 0xa
 2107 0109 68000000 		.4byte	0x68
 2108 010d 00       		.byte	0x0
 2109 010e 05       		.uleb128 0x5
 2110 010f 04       		.byte	0x4
 2111 0110 94000000 		.4byte	0x94
 2112 0114 0B       		.uleb128 0xb
 2113 0115 0A030000 		.4byte	.LASF23
 2114 0119 10       		.byte	0x10
 2115 011a 06       		.byte	0x6
 2116 011b 48       		.byte	0x48
 2117 011c 59010000 		.4byte	0x159
 2118 0120 0C       		.uleb128 0xc
 2119 0121 48020000 		.4byte	.LASF20
 2120 0125 06       		.byte	0x6
 2121 0126 49       		.byte	0x49
 2122 0127 7E010000 		.4byte	0x17e
 2123 012b 02       		.byte	0x2
 2124 012c 23       		.byte	0x23
 2125 012d 00       		.uleb128 0x0
 2126 012e 0C       		.uleb128 0xc
 2127 012f 05040000 		.4byte	.LASF21
 2128 0133 06       		.byte	0x6
 2129 0134 49       		.byte	0x49
 2130 0135 9E010000 		.4byte	0x19e
 2131 0139 02       		.byte	0x2
 2132 013a 23       		.byte	0x23
 2133 013b 04       		.uleb128 0x4
 2134 013c 0D       		.uleb128 0xd
 2135 013d 70757400 		.ascii	"put\000"
 2136 0141 06       		.byte	0x6
 2137 0142 49       		.byte	0x49
 2138 0143 B9010000 		.4byte	0x1b9
 2139 0147 02       		.byte	0x2
 2140 0148 23       		.byte	0x23
 2141 0149 08       		.uleb128 0x8
ARM GAS  C:\Users\DNIEL~1\AppData\Local\Temp\ccckc6Je.s 			page 40


 2142 014a 0D       		.uleb128 0xd
 2143 014b 67657400 		.ascii	"get\000"
 2144 014f 06       		.byte	0x6
 2145 0150 49       		.byte	0x49
 2146 0151 F8000000 		.4byte	0xf8
 2147 0155 02       		.byte	0x2
 2148 0156 23       		.byte	0x23
 2149 0157 0C       		.uleb128 0xc
 2150 0158 00       		.byte	0x0
 2151 0159 09       		.uleb128 0x9
 2152 015a 01       		.byte	0x1
 2153 015b 89000000 		.4byte	0x89
 2154 015f 73010000 		.4byte	0x173
 2155 0163 0A       		.uleb128 0xa
 2156 0164 68000000 		.4byte	0x68
 2157 0168 0A       		.uleb128 0xa
 2158 0169 73010000 		.4byte	0x173
 2159 016d 0A       		.uleb128 0xa
 2160 016e 89000000 		.4byte	0x89
 2161 0172 00       		.byte	0x0
 2162 0173 05       		.uleb128 0x5
 2163 0174 04       		.byte	0x4
 2164 0175 79010000 		.4byte	0x179
 2165 0179 06       		.uleb128 0x6
 2166 017a 94000000 		.4byte	0x94
 2167 017e 05       		.uleb128 0x5
 2168 017f 04       		.byte	0x4
 2169 0180 59010000 		.4byte	0x159
 2170 0184 09       		.uleb128 0x9
 2171 0185 01       		.byte	0x1
 2172 0186 89000000 		.4byte	0x89
 2173 018a 9E010000 		.4byte	0x19e
 2174 018e 0A       		.uleb128 0xa
 2175 018f 68000000 		.4byte	0x68
 2176 0193 0A       		.uleb128 0xa
 2177 0194 0E010000 		.4byte	0x10e
 2178 0198 0A       		.uleb128 0xa
 2179 0199 89000000 		.4byte	0x89
 2180 019d 00       		.byte	0x0
 2181 019e 05       		.uleb128 0x5
 2182 019f 04       		.byte	0x4
 2183 01a0 84010000 		.4byte	0x184
 2184 01a4 09       		.uleb128 0x9
 2185 01a5 01       		.byte	0x1
 2186 01a6 DD000000 		.4byte	0xdd
 2187 01aa B9010000 		.4byte	0x1b9
 2188 01ae 0A       		.uleb128 0xa
 2189 01af 68000000 		.4byte	0x68
 2190 01b3 0A       		.uleb128 0xa
 2191 01b4 94000000 		.4byte	0x94
 2192 01b8 00       		.byte	0x0
 2193 01b9 05       		.uleb128 0x5
 2194 01ba 04       		.byte	0x4
 2195 01bb A4010000 		.4byte	0x1a4
 2196 01bf 0E       		.uleb128 0xe
 2197 01c0 04       		.byte	0x4
 2198 01c1 06       		.byte	0x6
ARM GAS  C:\Users\DNIEL~1\AppData\Local\Temp\ccckc6Je.s 			page 41


 2199 01c2 51       		.byte	0x51
 2200 01c3 D6010000 		.4byte	0x1d6
 2201 01c7 0D       		.uleb128 0xd
 2202 01c8 766D7400 		.ascii	"vmt\000"
 2203 01cc 06       		.byte	0x6
 2204 01cd 53       		.byte	0x53
 2205 01ce D6010000 		.4byte	0x1d6
 2206 01d2 02       		.byte	0x2
 2207 01d3 23       		.byte	0x23
 2208 01d4 00       		.uleb128 0x0
 2209 01d5 00       		.byte	0x0
 2210 01d6 05       		.uleb128 0x5
 2211 01d7 04       		.byte	0x4
 2212 01d8 DC010000 		.4byte	0x1dc
 2213 01dc 06       		.uleb128 0x6
 2214 01dd 14010000 		.4byte	0x114
 2215 01e1 07       		.uleb128 0x7
 2216 01e2 55010000 		.4byte	.LASF22
 2217 01e6 06       		.byte	0x6
 2218 01e7 55       		.byte	0x55
 2219 01e8 BF010000 		.4byte	0x1bf
 2220 01ec 0F       		.uleb128 0xf
 2221 01ed C0000000 		.4byte	0xc0
 2222 01f1 FC010000 		.4byte	0x1fc
 2223 01f5 10       		.uleb128 0x10
 2224 01f6 4C000000 		.4byte	0x4c
 2225 01fa 03       		.byte	0x3
 2226 01fb 00       		.byte	0x0
 2227 01fc 08       		.uleb128 0x8
 2228 01fd B5000000 		.4byte	0xb5
 2229 0201 0B       		.uleb128 0xb
 2230 0202 52000000 		.4byte	.LASF24
 2231 0206 20       		.byte	0x20
 2232 0207 07       		.byte	0x7
 2233 0208 4E       		.byte	0x4e
 2234 0209 7E020000 		.4byte	0x27e
 2235 020d 0C       		.uleb128 0xc
 2236 020e 48020000 		.4byte	.LASF20
 2237 0212 07       		.byte	0x7
 2238 0213 4F       		.byte	0x4f
 2239 0214 7E010000 		.4byte	0x17e
 2240 0218 02       		.byte	0x2
 2241 0219 23       		.byte	0x23
 2242 021a 00       		.uleb128 0x0
 2243 021b 0C       		.uleb128 0xc
 2244 021c 05040000 		.4byte	.LASF21
 2245 0220 07       		.byte	0x7
 2246 0221 4F       		.byte	0x4f
 2247 0222 9E010000 		.4byte	0x19e
 2248 0226 02       		.byte	0x2
 2249 0227 23       		.byte	0x23
 2250 0228 04       		.uleb128 0x4
 2251 0229 0D       		.uleb128 0xd
 2252 022a 70757400 		.ascii	"put\000"
 2253 022e 07       		.byte	0x7
 2254 022f 4F       		.byte	0x4f
 2255 0230 B9010000 		.4byte	0x1b9
ARM GAS  C:\Users\DNIEL~1\AppData\Local\Temp\ccckc6Je.s 			page 42


 2256 0234 02       		.byte	0x2
 2257 0235 23       		.byte	0x23
 2258 0236 08       		.uleb128 0x8
 2259 0237 0D       		.uleb128 0xd
 2260 0238 67657400 		.ascii	"get\000"
 2261 023c 07       		.byte	0x7
 2262 023d 4F       		.byte	0x4f
 2263 023e F8000000 		.4byte	0xf8
 2264 0242 02       		.byte	0x2
 2265 0243 23       		.byte	0x23
 2266 0244 0C       		.uleb128 0xc
 2267 0245 0C       		.uleb128 0xc
 2268 0246 4E020000 		.4byte	.LASF25
 2269 024a 07       		.byte	0x7
 2270 024b 4F       		.byte	0x4f
 2271 024c 98020000 		.4byte	0x298
 2272 0250 02       		.byte	0x2
 2273 0251 23       		.byte	0x23
 2274 0252 10       		.uleb128 0x10
 2275 0253 0C       		.uleb128 0xc
 2276 0254 0F010000 		.4byte	.LASF26
 2277 0258 07       		.byte	0x7
 2278 0259 4F       		.byte	0x4f
 2279 025a B3020000 		.4byte	0x2b3
 2280 025e 02       		.byte	0x2
 2281 025f 23       		.byte	0x23
 2282 0260 14       		.uleb128 0x14
 2283 0261 0C       		.uleb128 0xc
 2284 0262 27020000 		.4byte	.LASF27
 2285 0266 07       		.byte	0x7
 2286 0267 4F       		.byte	0x4f
 2287 0268 D8020000 		.4byte	0x2d8
 2288 026c 02       		.byte	0x2
 2289 026d 23       		.byte	0x23
 2290 026e 18       		.uleb128 0x18
 2291 026f 0C       		.uleb128 0xc
 2292 0270 8C000000 		.4byte	.LASF28
 2293 0274 07       		.byte	0x7
 2294 0275 4F       		.byte	0x4f
 2295 0276 FD020000 		.4byte	0x2fd
 2296 027a 02       		.byte	0x2
 2297 027b 23       		.byte	0x23
 2298 027c 1C       		.uleb128 0x1c
 2299 027d 00       		.byte	0x0
 2300 027e 09       		.uleb128 0x9
 2301 027f 01       		.byte	0x1
 2302 0280 DD000000 		.4byte	0xdd
 2303 0284 98020000 		.4byte	0x298
 2304 0288 0A       		.uleb128 0xa
 2305 0289 68000000 		.4byte	0x68
 2306 028d 0A       		.uleb128 0xa
 2307 028e 94000000 		.4byte	0x94
 2308 0292 0A       		.uleb128 0xa
 2309 0293 E8000000 		.4byte	0xe8
 2310 0297 00       		.byte	0x0
 2311 0298 05       		.uleb128 0x5
 2312 0299 04       		.byte	0x4
ARM GAS  C:\Users\DNIEL~1\AppData\Local\Temp\ccckc6Je.s 			page 43


 2313 029a 7E020000 		.4byte	0x27e
 2314 029e 09       		.uleb128 0x9
 2315 029f 01       		.byte	0x1
 2316 02a0 DD000000 		.4byte	0xdd
 2317 02a4 B3020000 		.4byte	0x2b3
 2318 02a8 0A       		.uleb128 0xa
 2319 02a9 68000000 		.4byte	0x68
 2320 02ad 0A       		.uleb128 0xa
 2321 02ae E8000000 		.4byte	0xe8
 2322 02b2 00       		.byte	0x0
 2323 02b3 05       		.uleb128 0x5
 2324 02b4 04       		.byte	0x4
 2325 02b5 9E020000 		.4byte	0x29e
 2326 02b9 09       		.uleb128 0x9
 2327 02ba 01       		.byte	0x1
 2328 02bb 89000000 		.4byte	0x89
 2329 02bf D8020000 		.4byte	0x2d8
 2330 02c3 0A       		.uleb128 0xa
 2331 02c4 68000000 		.4byte	0x68
 2332 02c8 0A       		.uleb128 0xa
 2333 02c9 73010000 		.4byte	0x173
 2334 02cd 0A       		.uleb128 0xa
 2335 02ce 89000000 		.4byte	0x89
 2336 02d2 0A       		.uleb128 0xa
 2337 02d3 E8000000 		.4byte	0xe8
 2338 02d7 00       		.byte	0x0
 2339 02d8 05       		.uleb128 0x5
 2340 02d9 04       		.byte	0x4
 2341 02da B9020000 		.4byte	0x2b9
 2342 02de 09       		.uleb128 0x9
 2343 02df 01       		.byte	0x1
 2344 02e0 89000000 		.4byte	0x89
 2345 02e4 FD020000 		.4byte	0x2fd
 2346 02e8 0A       		.uleb128 0xa
 2347 02e9 68000000 		.4byte	0x68
 2348 02ed 0A       		.uleb128 0xa
 2349 02ee 0E010000 		.4byte	0x10e
 2350 02f2 0A       		.uleb128 0xa
 2351 02f3 89000000 		.4byte	0x89
 2352 02f7 0A       		.uleb128 0xa
 2353 02f8 E8000000 		.4byte	0xe8
 2354 02fc 00       		.byte	0x0
 2355 02fd 05       		.uleb128 0x5
 2356 02fe 04       		.byte	0x4
 2357 02ff DE020000 		.4byte	0x2de
 2358 0303 0E       		.uleb128 0xe
 2359 0304 04       		.byte	0x4
 2360 0305 07       		.byte	0x7
 2361 0306 59       		.byte	0x59
 2362 0307 1A030000 		.4byte	0x31a
 2363 030b 0D       		.uleb128 0xd
 2364 030c 766D7400 		.ascii	"vmt\000"
 2365 0310 07       		.byte	0x7
 2366 0311 5B       		.byte	0x5b
 2367 0312 1A030000 		.4byte	0x31a
 2368 0316 02       		.byte	0x2
 2369 0317 23       		.byte	0x23
ARM GAS  C:\Users\DNIEL~1\AppData\Local\Temp\ccckc6Je.s 			page 44


 2370 0318 00       		.uleb128 0x0
 2371 0319 00       		.byte	0x0
 2372 031a 05       		.uleb128 0x5
 2373 031b 04       		.byte	0x4
 2374 031c 20030000 		.4byte	0x320
 2375 0320 06       		.uleb128 0x6
 2376 0321 01020000 		.4byte	0x201
 2377 0325 07       		.uleb128 0x7
 2378 0326 E5030000 		.4byte	.LASF29
 2379 032a 07       		.byte	0x7
 2380 032b 5D       		.byte	0x5d
 2381 032c 03030000 		.4byte	0x303
 2382 0330 11       		.uleb128 0x11
 2383 0331 60       		.byte	0x60
 2384 0332 08       		.byte	0x8
 2385 0333 9E01     		.2byte	0x19e
 2386 0335 73040000 		.4byte	0x473
 2387 0339 12       		.uleb128 0x12
 2388 033a 43523100 		.ascii	"CR1\000"
 2389 033e 08       		.byte	0x8
 2390 033f 9F01     		.2byte	0x19f
 2391 0341 F3000000 		.4byte	0xf3
 2392 0345 02       		.byte	0x2
 2393 0346 23       		.byte	0x23
 2394 0347 00       		.uleb128 0x0
 2395 0348 12       		.uleb128 0x12
 2396 0349 43523200 		.ascii	"CR2\000"
 2397 034d 08       		.byte	0x8
 2398 034e A001     		.2byte	0x1a0
 2399 0350 F3000000 		.4byte	0xf3
 2400 0354 02       		.byte	0x2
 2401 0355 23       		.byte	0x23
 2402 0356 04       		.uleb128 0x4
 2403 0357 13       		.uleb128 0x13
 2404 0358 A0000000 		.4byte	.LASF30
 2405 035c 08       		.byte	0x8
 2406 035d A101     		.2byte	0x1a1
 2407 035f F3000000 		.4byte	0xf3
 2408 0363 02       		.byte	0x2
 2409 0364 23       		.byte	0x23
 2410 0365 08       		.uleb128 0x8
 2411 0366 13       		.uleb128 0x13
 2412 0367 00000000 		.4byte	.LASF31
 2413 036b 08       		.byte	0x8
 2414 036c A201     		.2byte	0x1a2
 2415 036e F3000000 		.4byte	0xf3
 2416 0372 02       		.byte	0x2
 2417 0373 23       		.byte	0x23
 2418 0374 0C       		.uleb128 0xc
 2419 0375 12       		.uleb128 0x12
 2420 0376 535200   		.ascii	"SR\000"
 2421 0379 08       		.byte	0x8
 2422 037a A301     		.2byte	0x1a3
 2423 037c F3000000 		.4byte	0xf3
 2424 0380 02       		.byte	0x2
 2425 0381 23       		.byte	0x23
 2426 0382 10       		.uleb128 0x10
ARM GAS  C:\Users\DNIEL~1\AppData\Local\Temp\ccckc6Je.s 			page 45


 2427 0383 12       		.uleb128 0x12
 2428 0384 45475200 		.ascii	"EGR\000"
 2429 0388 08       		.byte	0x8
 2430 0389 A401     		.2byte	0x1a4
 2431 038b F3000000 		.4byte	0xf3
 2432 038f 02       		.byte	0x2
 2433 0390 23       		.byte	0x23
 2434 0391 14       		.uleb128 0x14
 2435 0392 13       		.uleb128 0x13
 2436 0393 B0030000 		.4byte	.LASF32
 2437 0397 08       		.byte	0x8
 2438 0398 A501     		.2byte	0x1a5
 2439 039a F3000000 		.4byte	0xf3
 2440 039e 02       		.byte	0x2
 2441 039f 23       		.byte	0x23
 2442 03a0 18       		.uleb128 0x18
 2443 03a1 13       		.uleb128 0x13
 2444 03a2 9A000000 		.4byte	.LASF33
 2445 03a6 08       		.byte	0x8
 2446 03a7 A601     		.2byte	0x1a6
 2447 03a9 F3000000 		.4byte	0xf3
 2448 03ad 02       		.byte	0x2
 2449 03ae 23       		.byte	0x23
 2450 03af 1C       		.uleb128 0x1c
 2451 03b0 13       		.uleb128 0x13
 2452 03b1 1E010000 		.4byte	.LASF34
 2453 03b5 08       		.byte	0x8
 2454 03b6 A701     		.2byte	0x1a7
 2455 03b8 F3000000 		.4byte	0xf3
 2456 03bc 02       		.byte	0x2
 2457 03bd 23       		.byte	0x23
 2458 03be 20       		.uleb128 0x20
 2459 03bf 12       		.uleb128 0x12
 2460 03c0 434E5400 		.ascii	"CNT\000"
 2461 03c4 08       		.byte	0x8
 2462 03c5 A801     		.2byte	0x1a8
 2463 03c7 F3000000 		.4byte	0xf3
 2464 03cb 02       		.byte	0x2
 2465 03cc 23       		.byte	0x23
 2466 03cd 24       		.uleb128 0x24
 2467 03ce 12       		.uleb128 0x12
 2468 03cf 50534300 		.ascii	"PSC\000"
 2469 03d3 08       		.byte	0x8
 2470 03d4 A901     		.2byte	0x1a9
 2471 03d6 F3000000 		.4byte	0xf3
 2472 03da 02       		.byte	0x2
 2473 03db 23       		.byte	0x23
 2474 03dc 28       		.uleb128 0x28
 2475 03dd 12       		.uleb128 0x12
 2476 03de 41525200 		.ascii	"ARR\000"
 2477 03e2 08       		.byte	0x8
 2478 03e3 AA01     		.2byte	0x1aa
 2479 03e5 F3000000 		.4byte	0xf3
 2480 03e9 02       		.byte	0x2
 2481 03ea 23       		.byte	0x23
 2482 03eb 2C       		.uleb128 0x2c
 2483 03ec 12       		.uleb128 0x12
ARM GAS  C:\Users\DNIEL~1\AppData\Local\Temp\ccckc6Je.s 			page 46


 2484 03ed 52435200 		.ascii	"RCR\000"
 2485 03f1 08       		.byte	0x8
 2486 03f2 AB01     		.2byte	0x1ab
 2487 03f4 F3000000 		.4byte	0xf3
 2488 03f8 02       		.byte	0x2
 2489 03f9 23       		.byte	0x23
 2490 03fa 30       		.uleb128 0x30
 2491 03fb 12       		.uleb128 0x12
 2492 03fc 43435200 		.ascii	"CCR\000"
 2493 0400 08       		.byte	0x8
 2494 0401 AC01     		.2byte	0x1ac
 2495 0403 73040000 		.4byte	0x473
 2496 0407 02       		.byte	0x2
 2497 0408 23       		.byte	0x23
 2498 0409 34       		.uleb128 0x34
 2499 040a 13       		.uleb128 0x13
 2500 040b 73000000 		.4byte	.LASF35
 2501 040f 08       		.byte	0x8
 2502 0410 AD01     		.2byte	0x1ad
 2503 0412 F3000000 		.4byte	0xf3
 2504 0416 02       		.byte	0x2
 2505 0417 23       		.byte	0x23
 2506 0418 44       		.uleb128 0x44
 2507 0419 12       		.uleb128 0x12
 2508 041a 44435200 		.ascii	"DCR\000"
 2509 041e 08       		.byte	0x8
 2510 041f AE01     		.2byte	0x1ae
 2511 0421 F3000000 		.4byte	0xf3
 2512 0425 02       		.byte	0x2
 2513 0426 23       		.byte	0x23
 2514 0427 48       		.uleb128 0x48
 2515 0428 13       		.uleb128 0x13
 2516 0429 8F030000 		.4byte	.LASF36
 2517 042d 08       		.byte	0x8
 2518 042e AF01     		.2byte	0x1af
 2519 0430 F3000000 		.4byte	0xf3
 2520 0434 02       		.byte	0x2
 2521 0435 23       		.byte	0x23
 2522 0436 4C       		.uleb128 0x4c
 2523 0437 12       		.uleb128 0x12
 2524 0438 4F5200   		.ascii	"OR\000"
 2525 043b 08       		.byte	0x8
 2526 043c B001     		.2byte	0x1b0
 2527 043e F3000000 		.4byte	0xf3
 2528 0442 02       		.byte	0x2
 2529 0443 23       		.byte	0x23
 2530 0444 50       		.uleb128 0x50
 2531 0445 13       		.uleb128 0x13
 2532 0446 22000000 		.4byte	.LASF37
 2533 044a 08       		.byte	0x8
 2534 044b B101     		.2byte	0x1b1
 2535 044d F3000000 		.4byte	0xf3
 2536 0451 02       		.byte	0x2
 2537 0452 23       		.byte	0x23
 2538 0453 54       		.uleb128 0x54
 2539 0454 13       		.uleb128 0x13
 2540 0455 C7030000 		.4byte	.LASF38
ARM GAS  C:\Users\DNIEL~1\AppData\Local\Temp\ccckc6Je.s 			page 47


 2541 0459 08       		.byte	0x8
 2542 045a B201     		.2byte	0x1b2
 2543 045c F3000000 		.4byte	0xf3
 2544 0460 02       		.byte	0x2
 2545 0461 23       		.byte	0x23
 2546 0462 58       		.uleb128 0x58
 2547 0463 13       		.uleb128 0x13
 2548 0464 61000000 		.4byte	.LASF39
 2549 0468 08       		.byte	0x8
 2550 0469 B301     		.2byte	0x1b3
 2551 046b F3000000 		.4byte	0xf3
 2552 046f 02       		.byte	0x2
 2553 0470 23       		.byte	0x23
 2554 0471 5C       		.uleb128 0x5c
 2555 0472 00       		.byte	0x0
 2556 0473 08       		.uleb128 0x8
 2557 0474 EC010000 		.4byte	0x1ec
 2558 0478 14       		.uleb128 0x14
 2559 0479 B1000000 		.4byte	.LASF40
 2560 047d 08       		.byte	0x8
 2561 047e B401     		.2byte	0x1b4
 2562 0480 30030000 		.4byte	0x330
 2563 0484 05       		.uleb128 0x5
 2564 0485 04       		.byte	0x4
 2565 0486 78040000 		.4byte	0x478
 2566 048a 15       		.uleb128 0x15
 2567 048b 01       		.byte	0x1
 2568 048c 09       		.byte	0x9
 2569 048d 55       		.byte	0x55
 2570 048e A5040000 		.4byte	0x4a5
 2571 0492 16       		.uleb128 0x16
 2572 0493 50040000 		.4byte	.LASF41
 2573 0497 00       		.sleb128 0
 2574 0498 16       		.uleb128 0x16
 2575 0499 56030000 		.4byte	.LASF42
 2576 049d 01       		.sleb128 1
 2577 049e 16       		.uleb128 0x16
 2578 049f 82000000 		.4byte	.LASF43
 2579 04a3 02       		.sleb128 2
 2580 04a4 00       		.byte	0x0
 2581 04a5 07       		.uleb128 0x7
 2582 04a6 F1030000 		.4byte	.LASF44
 2583 04aa 09       		.byte	0x9
 2584 04ab 59       		.byte	0x59
 2585 04ac 8A040000 		.4byte	0x48a
 2586 04b0 07       		.uleb128 0x7
 2587 04b1 DB030000 		.4byte	.LASF45
 2588 04b5 09       		.byte	0x9
 2589 04b6 5E       		.byte	0x5e
 2590 04b7 BB040000 		.4byte	0x4bb
 2591 04bb 17       		.uleb128 0x17
 2592 04bc DB030000 		.4byte	.LASF45
 2593 04c0 14       		.byte	0x14
 2594 04c1 0A       		.byte	0xa
 2595 04c2 6F01     		.2byte	0x16f
 2596 04c4 14050000 		.4byte	0x514
 2597 04c8 13       		.uleb128 0x13
ARM GAS  C:\Users\DNIEL~1\AppData\Local\Temp\ccckc6Je.s 			page 48


 2598 04c9 F7000000 		.4byte	.LASF46
 2599 04cd 0A       		.byte	0xa
 2600 04ce 7301     		.2byte	0x173
 2601 04d0 A5040000 		.4byte	0x4a5
 2602 04d4 02       		.byte	0x2
 2603 04d5 23       		.byte	0x23
 2604 04d6 00       		.uleb128 0x0
 2605 04d7 13       		.uleb128 0x13
 2606 04d8 78030000 		.4byte	.LASF47
 2607 04dc 0A       		.byte	0xa
 2608 04dd 7701     		.2byte	0x177
 2609 04df 03060000 		.4byte	0x603
 2610 04e3 02       		.byte	0x2
 2611 04e4 23       		.byte	0x23
 2612 04e5 04       		.uleb128 0x4
 2613 04e6 13       		.uleb128 0x13
 2614 04e7 28000000 		.4byte	.LASF48
 2615 04eb 0A       		.byte	0xa
 2616 04ec 7B01     		.2byte	0x17b
 2617 04ee 43050000 		.4byte	0x543
 2618 04f2 02       		.byte	0x2
 2619 04f3 23       		.byte	0x23
 2620 04f4 08       		.uleb128 0x8
 2621 04f5 13       		.uleb128 0x13
 2622 04f6 28040000 		.4byte	.LASF49
 2623 04fa 0A       		.byte	0xa
 2624 04fb 8301     		.2byte	0x183
 2625 04fd C0000000 		.4byte	0xc0
 2626 0501 02       		.byte	0x2
 2627 0502 23       		.byte	0x23
 2628 0503 0C       		.uleb128 0xc
 2629 0504 12       		.uleb128 0x12
 2630 0505 74696D00 		.ascii	"tim\000"
 2631 0509 0A       		.byte	0xa
 2632 050a 8701     		.2byte	0x187
 2633 050c 84040000 		.4byte	0x484
 2634 0510 02       		.byte	0x2
 2635 0511 23       		.byte	0x23
 2636 0512 10       		.uleb128 0x10
 2637 0513 00       		.byte	0x0
 2638 0514 07       		.uleb128 0x7
 2639 0515 AE020000 		.4byte	.LASF50
 2640 0519 09       		.byte	0x9
 2641 051a 65       		.byte	0x65
 2642 051b 1F050000 		.4byte	0x51f
 2643 051f 05       		.uleb128 0x5
 2644 0520 04       		.byte	0x4
 2645 0521 25050000 		.4byte	0x525
 2646 0525 18       		.uleb128 0x18
 2647 0526 01       		.byte	0x1
 2648 0527 31050000 		.4byte	0x531
 2649 052b 0A       		.uleb128 0xa
 2650 052c 31050000 		.4byte	0x531
 2651 0530 00       		.byte	0x0
 2652 0531 05       		.uleb128 0x5
 2653 0532 04       		.byte	0x4
 2654 0533 B0040000 		.4byte	0x4b0
ARM GAS  C:\Users\DNIEL~1\AppData\Local\Temp\ccckc6Je.s 			page 49


 2655 0537 14       		.uleb128 0x14
 2656 0538 BC010000 		.4byte	.LASF51
 2657 053c 0A       		.byte	0xa
 2658 053d 2001     		.2byte	0x120
 2659 053f C0000000 		.4byte	0xc0
 2660 0543 14       		.uleb128 0x14
 2661 0544 FC030000 		.4byte	.LASF52
 2662 0548 0A       		.byte	0xa
 2663 0549 2A01     		.2byte	0x12a
 2664 054b AA000000 		.4byte	0xaa
 2665 054f 11       		.uleb128 0x11
 2666 0550 08       		.byte	0x8
 2667 0551 0A       		.byte	0xa
 2668 0552 2F01     		.2byte	0x12f
 2669 0554 77050000 		.4byte	0x577
 2670 0558 13       		.uleb128 0x13
 2671 0559 64030000 		.4byte	.LASF53
 2672 055d 0A       		.byte	0xa
 2673 055e 3301     		.2byte	0x133
 2674 0560 37050000 		.4byte	0x537
 2675 0564 02       		.byte	0x2
 2676 0565 23       		.byte	0x23
 2677 0566 00       		.uleb128 0x0
 2678 0567 13       		.uleb128 0x13
 2679 0568 1E020000 		.4byte	.LASF54
 2680 056c 0A       		.byte	0xa
 2681 056d 3901     		.2byte	0x139
 2682 056f 14050000 		.4byte	0x514
 2683 0573 02       		.byte	0x2
 2684 0574 23       		.byte	0x23
 2685 0575 04       		.uleb128 0x4
 2686 0576 00       		.byte	0x0
 2687 0577 14       		.uleb128 0x14
 2688 0578 B6030000 		.4byte	.LASF55
 2689 057c 0A       		.byte	0xa
 2690 057d 3B01     		.2byte	0x13b
 2691 057f 4F050000 		.4byte	0x54f
 2692 0583 11       		.uleb128 0x11
 2693 0584 34       		.byte	0x34
 2694 0585 0A       		.byte	0xa
 2695 0586 4001     		.2byte	0x140
 2696 0588 E7050000 		.4byte	0x5e7
 2697 058c 13       		.uleb128 0x13
 2698 058d 78000000 		.4byte	.LASF56
 2699 0591 0A       		.byte	0xa
 2700 0592 4601     		.2byte	0x146
 2701 0594 C0000000 		.4byte	0xc0
 2702 0598 02       		.byte	0x2
 2703 0599 23       		.byte	0x23
 2704 059a 00       		.uleb128 0x0
 2705 059b 13       		.uleb128 0x13
 2706 059c 28000000 		.4byte	.LASF48
 2707 05a0 0A       		.byte	0xa
 2708 05a1 4C01     		.2byte	0x14c
 2709 05a3 43050000 		.4byte	0x543
 2710 05a7 02       		.byte	0x2
 2711 05a8 23       		.byte	0x23
ARM GAS  C:\Users\DNIEL~1\AppData\Local\Temp\ccckc6Je.s 			page 50


 2712 05a9 04       		.uleb128 0x4
 2713 05aa 13       		.uleb128 0x13
 2714 05ab 1E020000 		.4byte	.LASF54
 2715 05af 0A       		.byte	0xa
 2716 05b0 5201     		.2byte	0x152
 2717 05b2 14050000 		.4byte	0x514
 2718 05b6 02       		.byte	0x2
 2719 05b7 23       		.byte	0x23
 2720 05b8 08       		.uleb128 0x8
 2721 05b9 13       		.uleb128 0x13
 2722 05ba FD000000 		.4byte	.LASF57
 2723 05be 0A       		.byte	0xa
 2724 05bf 5601     		.2byte	0x156
 2725 05c1 E7050000 		.4byte	0x5e7
 2726 05c5 02       		.byte	0x2
 2727 05c6 23       		.byte	0x23
 2728 05c7 0C       		.uleb128 0xc
 2729 05c8 12       		.uleb128 0x12
 2730 05c9 63723200 		.ascii	"cr2\000"
 2731 05cd 0A       		.byte	0xa
 2732 05ce 5C01     		.2byte	0x15c
 2733 05d0 C0000000 		.4byte	0xc0
 2734 05d4 02       		.byte	0x2
 2735 05d5 23       		.byte	0x23
 2736 05d6 2C       		.uleb128 0x2c
 2737 05d7 13       		.uleb128 0x13
 2738 05d8 62040000 		.4byte	.LASF58
 2739 05dc 0A       		.byte	0xa
 2740 05dd 6901     		.2byte	0x169
 2741 05df C0000000 		.4byte	0xc0
 2742 05e3 02       		.byte	0x2
 2743 05e4 23       		.byte	0x23
 2744 05e5 30       		.uleb128 0x30
 2745 05e6 00       		.byte	0x0
 2746 05e7 0F       		.uleb128 0xf
 2747 05e8 77050000 		.4byte	0x577
 2748 05ec F7050000 		.4byte	0x5f7
 2749 05f0 10       		.uleb128 0x10
 2750 05f1 4C000000 		.4byte	0x4c
 2751 05f5 03       		.byte	0x3
 2752 05f6 00       		.byte	0x0
 2753 05f7 14       		.uleb128 0x14
 2754 05f8 4C030000 		.4byte	.LASF59
 2755 05fc 0A       		.byte	0xa
 2756 05fd 6A01     		.2byte	0x16a
 2757 05ff 83050000 		.4byte	0x583
 2758 0603 05       		.uleb128 0x5
 2759 0604 04       		.byte	0x4
 2760 0605 09060000 		.4byte	0x609
 2761 0609 06       		.uleb128 0x6
 2762 060a F7050000 		.4byte	0x5f7
 2763 060e 07       		.uleb128 0x7
 2764 060f 71020000 		.4byte	.LASF60
 2765 0613 0B       		.byte	0xb
 2766 0614 28       		.byte	0x28
 2767 0615 19060000 		.4byte	0x619
 2768 0619 0B       		.uleb128 0xb
ARM GAS  C:\Users\DNIEL~1\AppData\Local\Temp\ccckc6Je.s 			page 51


 2769 061a 14010000 		.4byte	.LASF61
 2770 061e 04       		.byte	0x4
 2771 061f 0C       		.byte	0xc
 2772 0620 00       		.byte	0x0
 2773 0621 33060000 		.4byte	0x633
 2774 0625 19       		.uleb128 0x19
 2775 0626 AB030000 		.4byte	.LASF109
 2776 062a 68000000 		.4byte	0x68
 2777 062e 02       		.byte	0x2
 2778 062f 23       		.byte	0x23
 2779 0630 00       		.uleb128 0x0
 2780 0631 01       		.byte	0x1
 2781 0632 00       		.byte	0x0
 2782 0633 07       		.uleb128 0x7
 2783 0634 4D010000 		.4byte	.LASF62
 2784 0638 0B       		.byte	0xb
 2785 0639 66       		.byte	0x66
 2786 063a 0E060000 		.4byte	0x60e
 2787 063e 1A       		.uleb128 0x1a
 2788 063f BC020000 		.4byte	.LASF110
 2789 0643 01       		.byte	0x1
 2790 0644 0D       		.byte	0xd
 2791 0645 06       		.byte	0x6
 2792 0646 63060000 		.4byte	0x663
 2793 064a 16       		.uleb128 0x16
 2794 064b 7F030000 		.4byte	.LASF63
 2795 064f 00       		.sleb128 0
 2796 0650 16       		.uleb128 0x16
 2797 0651 2F000000 		.4byte	.LASF64
 2798 0655 01       		.sleb128 1
 2799 0656 16       		.uleb128 0x16
 2800 0657 77010000 		.4byte	.LASF65
 2801 065b 02       		.sleb128 2
 2802 065c 16       		.uleb128 0x16
 2803 065d 85020000 		.4byte	.LASF66
 2804 0661 03       		.sleb128 3
 2805 0662 00       		.byte	0x0
 2806 0663 0B       		.uleb128 0xb
 2807 0664 53020000 		.4byte	.LASF67
 2808 0668 06       		.byte	0x6
 2809 0669 0D       		.byte	0xd
 2810 066a 0E       		.byte	0xe
 2811 066b A7060000 		.4byte	0x6a7
 2812 066f 0D       		.uleb128 0xd
 2813 0670 696400   		.ascii	"id\000"
 2814 0673 0D       		.byte	0xd
 2815 0674 10       		.byte	0x10
 2816 0675 94000000 		.4byte	0x94
 2817 0679 02       		.byte	0x2
 2818 067a 23       		.byte	0x23
 2819 067b 00       		.uleb128 0x0
 2820 067c 0C       		.uleb128 0xc
 2821 067d 69020000 		.4byte	.LASF68
 2822 0681 0D       		.byte	0xd
 2823 0682 11       		.byte	0x11
 2824 0683 AA000000 		.4byte	0xaa
 2825 0687 02       		.byte	0x2
ARM GAS  C:\Users\DNIEL~1\AppData\Local\Temp\ccckc6Je.s 			page 52


 2826 0688 23       		.byte	0x23
 2827 0689 02       		.uleb128 0x2
 2828 068a 0C       		.uleb128 0xc
 2829 068b E1010000 		.4byte	.LASF69
 2830 068f 0D       		.byte	0xd
 2831 0690 12       		.byte	0x12
 2832 0691 94000000 		.4byte	0x94
 2833 0695 02       		.byte	0x2
 2834 0696 23       		.byte	0x23
 2835 0697 04       		.uleb128 0x4
 2836 0698 0C       		.uleb128 0xc
 2837 0699 D0010000 		.4byte	.LASF70
 2838 069d 0D       		.byte	0xd
 2839 069e 13       		.byte	0x13
 2840 069f 3E060000 		.4byte	0x63e
 2841 06a3 02       		.byte	0x2
 2842 06a4 23       		.byte	0x23
 2843 06a5 05       		.uleb128 0x5
 2844 06a6 00       		.byte	0x0
 2845 06a7 1B       		.uleb128 0x1b
 2846 06a8 01       		.byte	0x1
 2847 06a9 40010000 		.4byte	.LASF71
 2848 06ad 02       		.byte	0x2
 2849 06ae 81       		.byte	0x81
 2850 06af 01       		.byte	0x1
 2851 06b0 01       		.byte	0x1
 2852 06b1 1B       		.uleb128 0x1b
 2853 06b2 01       		.byte	0x1
 2854 06b3 3A020000 		.4byte	.LASF72
 2855 06b7 02       		.byte	0x2
 2856 06b8 85       		.byte	0x85
 2857 06b9 01       		.byte	0x1
 2858 06ba 01       		.byte	0x1
 2859 06bb 1C       		.uleb128 0x1c
 2860 06bc 67040000 		.4byte	.LASF111
 2861 06c0 01       		.byte	0x1
 2862 06c1 45       		.byte	0x45
 2863 06c2 01       		.byte	0x1
 2864 06c3 00000000 		.4byte	.LFB118
 2865 06c7 1E000000 		.4byte	.LFE118
 2866 06cb 00000000 		.4byte	.LLST0
 2867 06cf FF060000 		.4byte	0x6ff
 2868 06d3 1D       		.uleb128 0x1d
 2869 06d4 63687000 		.ascii	"chp\000"
 2870 06d8 01       		.byte	0x1
 2871 06d9 45       		.byte	0x45
 2872 06da FF060000 		.4byte	0x6ff
 2873 06de 38000000 		.4byte	.LLST1
 2874 06e2 1E       		.uleb128 0x1e
 2875 06e3 666D7400 		.ascii	"fmt\000"
 2876 06e7 01       		.byte	0x1
 2877 06e8 45       		.byte	0x45
 2878 06e9 7E000000 		.4byte	0x7e
 2879 06ed 02       		.byte	0x2
 2880 06ee 91       		.byte	0x91
 2881 06ef 74       		.sleb128 -12
 2882 06f0 1F       		.uleb128 0x1f
ARM GAS  C:\Users\DNIEL~1\AppData\Local\Temp\ccckc6Je.s 			page 53


 2883 06f1 20       		.uleb128 0x20
 2884 06f2 617000   		.ascii	"ap\000"
 2885 06f5 01       		.byte	0x1
 2886 06f6 46       		.byte	0x46
 2887 06f7 33060000 		.4byte	0x633
 2888 06fb 02       		.byte	0x2
 2889 06fc 91       		.byte	0x91
 2890 06fd 6C       		.sleb128 -20
 2891 06fe 00       		.byte	0x0
 2892 06ff 05       		.uleb128 0x5
 2893 0700 04       		.byte	0x4
 2894 0701 E1010000 		.4byte	0x1e1
 2895 0705 21       		.uleb128 0x21
 2896 0706 01       		.byte	0x1
 2897 0707 F5020000 		.4byte	.LASF84
 2898 070b 02       		.byte	0x2
 2899 070c 39       		.byte	0x39
 2900 070d 01       		.byte	0x1
 2901 070e 00000000 		.4byte	.LFB119
 2902 0712 D0000000 		.4byte	.LFE119
 2903 0716 4B000000 		.4byte	.LLST2
 2904 071a 22       		.uleb128 0x22
 2905 071b A7060000 		.4byte	0x6a7
 2906 071f 00000000 		.4byte	.LFB121
 2907 0723 0C000000 		.4byte	.LFE121
 2908 0727 02       		.byte	0x2
 2909 0728 7D       		.byte	0x7d
 2910 0729 00       		.sleb128 0
 2911 072a 22       		.uleb128 0x22
 2912 072b B1060000 		.4byte	0x6b1
 2913 072f 00000000 		.4byte	.LFB122
 2914 0733 0C000000 		.4byte	.LFE122
 2915 0737 02       		.byte	0x2
 2916 0738 7D       		.byte	0x7d
 2917 0739 00       		.sleb128 0
 2918 073a 23       		.uleb128 0x23
 2919 073b 01       		.byte	0x1
 2920 073c 16040000 		.4byte	.LASF76
 2921 0740 02       		.byte	0x2
 2922 0741 89       		.byte	0x89
 2923 0742 01       		.byte	0x1
 2924 0743 CB000000 		.4byte	0xcb
 2925 0747 00000000 		.4byte	.LFB123
 2926 074b 0C000000 		.4byte	.LFE123
 2927 074f 02       		.byte	0x2
 2928 0750 7D       		.byte	0x7d
 2929 0751 00       		.sleb128 0
 2930 0752 24       		.uleb128 0x24
 2931 0753 01       		.byte	0x1
 2932 0754 69030000 		.4byte	.LASF74
 2933 0758 02       		.byte	0x2
 2934 0759 8D       		.byte	0x8d
 2935 075a 01       		.byte	0x1
 2936 075b 00000000 		.4byte	.LFB124
 2937 075f 54000000 		.4byte	.LFE124
 2938 0763 6B000000 		.4byte	.LLST3
 2939 0767 7B070000 		.4byte	0x77b
ARM GAS  C:\Users\DNIEL~1\AppData\Local\Temp\ccckc6Je.s 			page 54


 2940 076b 1D       		.uleb128 0x1d
 2941 076c 72706D00 		.ascii	"rpm\000"
 2942 0770 02       		.byte	0x2
 2943 0771 8D       		.byte	0x8d
 2944 0772 7B070000 		.4byte	0x77b
 2945 0776 8B000000 		.4byte	.LLST4
 2946 077a 00       		.byte	0x0
 2947 077b 02       		.uleb128 0x2
 2948 077c 08       		.byte	0x8
 2949 077d 04       		.byte	0x4
 2950 077e 5B040000 		.4byte	.LASF73
 2951 0782 24       		.uleb128 0x24
 2952 0783 01       		.byte	0x1
 2953 0784 3C030000 		.4byte	.LASF75
 2954 0788 02       		.byte	0x2
 2955 0789 91       		.byte	0x91
 2956 078a 01       		.byte	0x1
 2957 078b 00000000 		.4byte	.LFB125
 2958 078f 2C000000 		.4byte	.LFE125
 2959 0793 A3000000 		.4byte	.LLST5
 2960 0797 AB070000 		.4byte	0x7ab
 2961 079b 1D       		.uleb128 0x1d
 2962 079c 72706D00 		.ascii	"rpm\000"
 2963 07a0 02       		.byte	0x2
 2964 07a1 91       		.byte	0x91
 2965 07a2 7B070000 		.4byte	0x77b
 2966 07a6 C3000000 		.4byte	.LLST6
 2967 07aa 00       		.byte	0x0
 2968 07ab 25       		.uleb128 0x25
 2969 07ac 01       		.byte	0x1
 2970 07ad C6010000 		.4byte	.LASF77
 2971 07b1 02       		.byte	0x2
 2972 07b2 96       		.byte	0x96
 2973 07b3 01       		.byte	0x1
 2974 07b4 94000000 		.4byte	0x94
 2975 07b8 00000000 		.4byte	.LFB126
 2976 07bc 18000000 		.4byte	.LFE126
 2977 07c0 DB000000 		.4byte	.LLST7
 2978 07c4 26       		.uleb128 0x26
 2979 07c5 01       		.byte	0x1
 2980 07c6 46040000 		.4byte	.LASF112
 2981 07ca 02       		.byte	0x2
 2982 07cb 9A       		.byte	0x9a
 2983 07cc 01       		.byte	0x1
 2984 07cd B5000000 		.4byte	0xb5
 2985 07d1 00000000 		.4byte	.LFB127
 2986 07d5 A4010000 		.4byte	.LFE127
 2987 07d9 FB000000 		.4byte	.LLST8
 2988 07dd 6F080000 		.4byte	0x86f
 2989 07e1 27       		.uleb128 0x27
 2990 07e2 A8020000 		.4byte	.LASF78
 2991 07e6 02       		.byte	0x2
 2992 07e7 9A       		.byte	0x9a
 2993 07e8 9F000000 		.4byte	0x9f
 2994 07ec 28010000 		.4byte	.LLST9
 2995 07f0 1D       		.uleb128 0x1d
 2996 07f1 53657400 		.ascii	"Set\000"
ARM GAS  C:\Users\DNIEL~1\AppData\Local\Temp\ccckc6Je.s 			page 55


 2997 07f5 02       		.byte	0x2
 2998 07f6 9A       		.byte	0x9a
 2999 07f7 9F000000 		.4byte	0x9f
 3000 07fb 3B010000 		.4byte	.LLST10
 3001 07ff 27       		.uleb128 0x27
 3002 0800 96020000 		.4byte	.LASF79
 3003 0804 02       		.byte	0x2
 3004 0805 9A       		.byte	0x9a
 3005 0806 B5000000 		.4byte	0xb5
 3006 080a 4E010000 		.4byte	.LLST11
 3007 080e 27       		.uleb128 0x27
 3008 080f F0020000 		.4byte	.LASF80
 3009 0813 02       		.byte	0x2
 3010 0814 9A       		.byte	0x9a
 3011 0815 B5000000 		.4byte	0xb5
 3012 0819 6C010000 		.4byte	.LLST12
 3013 081d 1E       		.uleb128 0x1e
 3014 081e 4B7000   		.ascii	"Kp\000"
 3015 0821 02       		.byte	0x2
 3016 0822 9A       		.byte	0x9a
 3017 0823 7B070000 		.4byte	0x77b
 3018 0827 02       		.byte	0x2
 3019 0828 91       		.byte	0x91
 3020 0829 00       		.sleb128 0
 3021 082a 1E       		.uleb128 0x1e
 3022 082b 4B6900   		.ascii	"Ki\000"
 3023 082e 02       		.byte	0x2
 3024 082f 9A       		.byte	0x9a
 3025 0830 7B070000 		.4byte	0x77b
 3026 0834 02       		.byte	0x2
 3027 0835 91       		.byte	0x91
 3028 0836 08       		.sleb128 8
 3029 0837 1E       		.uleb128 0x1e
 3030 0838 4B6400   		.ascii	"Kd\000"
 3031 083b 02       		.byte	0x2
 3032 083c 9A       		.byte	0x9a
 3033 083d 7B070000 		.4byte	0x77b
 3034 0841 02       		.byte	0x2
 3035 0842 91       		.byte	0x91
 3036 0843 10       		.sleb128 16
 3037 0844 28       		.uleb128 0x28
 3038 0845 80020000 		.4byte	.LASF81
 3039 0849 02       		.byte	0x2
 3040 084a 9A       		.byte	0x9a
 3041 084b B5000000 		.4byte	0xb5
 3042 084f 02       		.byte	0x2
 3043 0850 91       		.byte	0x91
 3044 0851 18       		.sleb128 24
 3045 0852 28       		.uleb128 0x28
 3046 0853 F9010000 		.4byte	.LASF82
 3047 0857 02       		.byte	0x2
 3048 0858 9A       		.byte	0x9a
 3049 0859 B5000000 		.4byte	0xb5
 3050 085d 02       		.byte	0x2
 3051 085e 91       		.byte	0x91
 3052 085f 1C       		.sleb128 28
 3053 0860 28       		.uleb128 0x28
ARM GAS  C:\Users\DNIEL~1\AppData\Local\Temp\ccckc6Je.s 			page 56


 3054 0861 5E020000 		.4byte	.LASF83
 3055 0865 02       		.byte	0x2
 3056 0866 9A       		.byte	0x9a
 3057 0867 B5000000 		.4byte	0xb5
 3058 086b 02       		.byte	0x2
 3059 086c 91       		.byte	0x91
 3060 086d 20       		.sleb128 32
 3061 086e 00       		.byte	0x0
 3062 086f 21       		.uleb128 0x21
 3063 0870 01       		.byte	0x1
 3064 0871 0C000000 		.4byte	.LASF85
 3065 0875 02       		.byte	0x2
 3066 0876 58       		.byte	0x58
 3067 0877 01       		.byte	0x1
 3068 0878 00000000 		.4byte	.LFB120
 3069 087c 78010000 		.4byte	.LFE120
 3070 0880 8B010000 		.4byte	.LLST13
 3071 0884 24       		.uleb128 0x24
 3072 0885 01       		.byte	0x1
 3073 0886 22030000 		.4byte	.LASF86
 3074 088a 02       		.byte	0x2
 3075 088b CA       		.byte	0xca
 3076 088c 01       		.byte	0x1
 3077 088d 00000000 		.4byte	.LFB128
 3078 0891 18010000 		.4byte	.LFE128
 3079 0895 B7010000 		.4byte	.LLST14
 3080 0899 CB080000 		.4byte	0x8cb
 3081 089d 1D       		.uleb128 0x1d
 3082 089e 63687000 		.ascii	"chp\000"
 3083 08a2 02       		.byte	0x2
 3084 08a3 CA       		.byte	0xca
 3085 08a4 FF060000 		.4byte	0x6ff
 3086 08a8 D7010000 		.4byte	.LLST15
 3087 08ac 27       		.uleb128 0x27
 3088 08ad 23040000 		.4byte	.LASF87
 3089 08b1 02       		.byte	0x2
 3090 08b2 CA       		.byte	0xca
 3091 08b3 45000000 		.4byte	0x45
 3092 08b7 F5010000 		.4byte	.LLST16
 3093 08bb 27       		.uleb128 0x27
 3094 08bc 41040000 		.4byte	.LASF88
 3095 08c0 02       		.byte	0x2
 3096 08c1 CA       		.byte	0xca
 3097 08c2 CB080000 		.4byte	0x8cb
 3098 08c6 08020000 		.4byte	.LLST17
 3099 08ca 00       		.byte	0x0
 3100 08cb 05       		.uleb128 0x5
 3101 08cc 04       		.byte	0x4
 3102 08cd 71000000 		.4byte	0x71
 3103 08d1 24       		.uleb128 0x24
 3104 08d2 01       		.byte	0x1
 3105 08d3 FE010000 		.4byte	.LASF89
 3106 08d7 02       		.byte	0x2
 3107 08d8 DF       		.byte	0xdf
 3108 08d9 01       		.byte	0x1
 3109 08da 00000000 		.4byte	.LFB129
 3110 08de 00020000 		.4byte	.LFE129
ARM GAS  C:\Users\DNIEL~1\AppData\Local\Temp\ccckc6Je.s 			page 57


 3111 08e2 1B020000 		.4byte	.LLST18
 3112 08e6 53090000 		.4byte	0x953
 3113 08ea 1D       		.uleb128 0x1d
 3114 08eb 63687000 		.ascii	"chp\000"
 3115 08ef 02       		.byte	0x2
 3116 08f0 DF       		.byte	0xdf
 3117 08f1 FF060000 		.4byte	0x6ff
 3118 08f5 3B020000 		.4byte	.LLST19
 3119 08f9 27       		.uleb128 0x27
 3120 08fa 23040000 		.4byte	.LASF87
 3121 08fe 02       		.byte	0x2
 3122 08ff DF       		.byte	0xdf
 3123 0900 45000000 		.4byte	0x45
 3124 0904 59020000 		.4byte	.LLST20
 3125 0908 27       		.uleb128 0x27
 3126 0909 41040000 		.4byte	.LASF88
 3127 090d 02       		.byte	0x2
 3128 090e DF       		.byte	0xdf
 3129 090f CB080000 		.4byte	0x8cb
 3130 0913 98020000 		.4byte	.LLST21
 3131 0917 29       		.uleb128 0x29
 3132 0918 17000000 		.4byte	.LASF90
 3133 091c 02       		.byte	0x2
 3134 091d E3       		.byte	0xe3
 3135 091e 9F000000 		.4byte	0x9f
 3136 0922 B6020000 		.4byte	.LLST22
 3137 0926 2A       		.uleb128 0x2a
 3138 0927 63020000 		.4byte	.LASF92
 3139 092b 02       		.byte	0x2
 3140 092c 2601     		.2byte	0x126
 3141 092e 40000000 		.4byte	.L92
 3142 0932 2B       		.uleb128 0x2b
 3143 0933 B1060000 		.4byte	0x6b1
 3144 0937 AC000000 		.4byte	.LBB10
 3145 093b 00000000 		.4byte	.Ldebug_ranges0+0x0
 3146 093f 02       		.byte	0x2
 3147 0940 1801     		.2byte	0x118
 3148 0942 2B       		.uleb128 0x2b
 3149 0943 A7060000 		.4byte	0x6a7
 3150 0947 F4000000 		.4byte	.LBB14
 3151 094b 18000000 		.4byte	.Ldebug_ranges0+0x18
 3152 094f 02       		.byte	0x2
 3153 0950 1301     		.2byte	0x113
 3154 0952 00       		.byte	0x0
 3155 0953 2C       		.uleb128 0x2c
 3156 0954 01       		.byte	0x1
 3157 0955 B1010000 		.4byte	.LASF91
 3158 0959 02       		.byte	0x2
 3159 095a 2E01     		.2byte	0x12e
 3160 095c 01       		.byte	0x1
 3161 095d 00000000 		.4byte	.LFB130
 3162 0961 9C000000 		.4byte	.LFE130
 3163 0965 EA020000 		.4byte	.LLST23
 3164 0969 CA090000 		.4byte	0x9ca
 3165 096d 2D       		.uleb128 0x2d
 3166 096e 63687000 		.ascii	"chp\000"
 3167 0972 02       		.byte	0x2
ARM GAS  C:\Users\DNIEL~1\AppData\Local\Temp\ccckc6Je.s 			page 58


 3168 0973 2E01     		.2byte	0x12e
 3169 0975 FF060000 		.4byte	0x6ff
 3170 0979 0A030000 		.4byte	.LLST24
 3171 097d 2E       		.uleb128 0x2e
 3172 097e 23040000 		.4byte	.LASF87
 3173 0982 02       		.byte	0x2
 3174 0983 2E01     		.2byte	0x12e
 3175 0985 45000000 		.4byte	0x45
 3176 0989 28030000 		.4byte	.LLST25
 3177 098d 2E       		.uleb128 0x2e
 3178 098e 41040000 		.4byte	.LASF88
 3179 0992 02       		.byte	0x2
 3180 0993 2E01     		.2byte	0x12e
 3181 0995 CB080000 		.4byte	0x8cb
 3182 0999 46030000 		.4byte	.LLST26
 3183 099d 2A       		.uleb128 0x2a
 3184 099e 63020000 		.4byte	.LASF92
 3185 09a2 02       		.byte	0x2
 3186 09a3 4501     		.2byte	0x145
 3187 09a5 28000000 		.4byte	.L111
 3188 09a9 2B       		.uleb128 0x2b
 3189 09aa B1060000 		.4byte	0x6b1
 3190 09ae 54000000 		.4byte	.LBB18
 3191 09b2 30000000 		.4byte	.Ldebug_ranges0+0x30
 3192 09b6 02       		.byte	0x2
 3193 09b7 3C01     		.2byte	0x13c
 3194 09b9 2B       		.uleb128 0x2b
 3195 09ba A7060000 		.4byte	0x6a7
 3196 09be 64000000 		.4byte	.LBB22
 3197 09c2 48000000 		.4byte	.Ldebug_ranges0+0x48
 3198 09c6 02       		.byte	0x2
 3199 09c7 3701     		.2byte	0x137
 3200 09c9 00       		.byte	0x0
 3201 09ca 2F       		.uleb128 0x2f
 3202 09cb 66000000 		.4byte	.LASF93
 3203 09cf 0E       		.byte	0xe
 3204 09d0 9806     		.2byte	0x698
 3205 09d2 FC010000 		.4byte	0x1fc
 3206 09d6 01       		.byte	0x1
 3207 09d7 01       		.byte	0x1
 3208 09d8 2F       		.uleb128 0x2f
 3209 09d9 3A010000 		.4byte	.LASF94
 3210 09dd 0A       		.byte	0xa
 3211 09de C301     		.2byte	0x1c3
 3212 09e0 B0040000 		.4byte	0x4b0
 3213 09e4 01       		.byte	0x1
 3214 09e5 01       		.byte	0x1
 3215 09e6 0F       		.uleb128 0xf
 3216 09e7 63060000 		.4byte	0x663
 3217 09eb F6090000 		.4byte	0x9f6
 3218 09ef 10       		.uleb128 0x10
 3219 09f0 4C000000 		.4byte	0x4c
 3220 09f4 02       		.byte	0x2
 3221 09f5 00       		.byte	0x0
 3222 09f6 30       		.uleb128 0x30
 3223 09f7 D5010000 		.4byte	.LASF113
 3224 09fb 0D       		.byte	0xd
ARM GAS  C:\Users\DNIEL~1\AppData\Local\Temp\ccckc6Je.s 			page 59


 3225 09fc 1B       		.byte	0x1b
 3226 09fd E6090000 		.4byte	0x9e6
 3227 0a01 20       		.uleb128 0x20
 3228 0a02 4B5F5000 		.ascii	"K_P\000"
 3229 0a06 02       		.byte	0x2
 3230 0a07 12       		.byte	0x12
 3231 0a08 9F000000 		.4byte	0x9f
 3232 0a0c 05       		.byte	0x5
 3233 0a0d 03       		.byte	0x3
 3234 0a0e 00000000 		.4byte	K_P
 3235 0a12 20       		.uleb128 0x20
 3236 0a13 4B5F4900 		.ascii	"K_I\000"
 3237 0a17 02       		.byte	0x2
 3238 0a18 13       		.byte	0x13
 3239 0a19 9F000000 		.4byte	0x9f
 3240 0a1d 05       		.byte	0x5
 3241 0a1e 03       		.byte	0x3
 3242 0a1f 00000000 		.4byte	K_I
 3243 0a23 20       		.uleb128 0x20
 3244 0a24 4B5F4400 		.ascii	"K_D\000"
 3245 0a28 02       		.byte	0x2
 3246 0a29 14       		.byte	0x14
 3247 0a2a 9F000000 		.4byte	0x9f
 3248 0a2e 05       		.byte	0x5
 3249 0a2f 03       		.byte	0x3
 3250 0a30 00000000 		.4byte	K_D
 3251 0a34 31       		.uleb128 0x31
 3252 0a35 34020000 		.4byte	.LASF95
 3253 0a39 02       		.byte	0x2
 3254 0a3a 16       		.byte	0x16
 3255 0a3b 480A0000 		.4byte	0xa48
 3256 0a3f 08       		.byte	0x8
 3257 0a40 00000000 		.4byte	0x0
 3258 0a44 80842E41 		.4byte	0x412e8480
 3259 0a48 06       		.uleb128 0x6
 3260 0a49 7B070000 		.4byte	0x77b
 3261 0a4d 31       		.uleb128 0x31
 3262 0a4e AB010000 		.4byte	.LASF96
 3263 0a52 02       		.byte	0x2
 3264 0a53 17       		.byte	0x17
 3265 0a54 610A0000 		.4byte	0xa61
 3266 0a58 08       		.byte	0x8
 3267 0a59 00000000 		.4byte	0x0
 3268 0a5d 00000000 		.4byte	0x0
 3269 0a61 06       		.uleb128 0x6
 3270 0a62 7B070000 		.4byte	0x77b
 3271 0a66 31       		.uleb128 0x31
 3272 0a67 2E020000 		.4byte	.LASF97
 3273 0a6b 02       		.byte	0x2
 3274 0a6c 19       		.byte	0x19
 3275 0a6d 7A0A0000 		.4byte	0xa7a
 3276 0a71 08       		.byte	0x8
 3277 0a72 00000000 		.4byte	0x0
 3278 0a76 80842E41 		.4byte	0x412e8480
 3279 0a7a 06       		.uleb128 0x6
 3280 0a7b 7B070000 		.4byte	0x77b
 3281 0a7f 31       		.uleb128 0x31
ARM GAS  C:\Users\DNIEL~1\AppData\Local\Temp\ccckc6Je.s 			page 60


 3282 0a80 18020000 		.4byte	.LASF98
 3283 0a84 02       		.byte	0x2
 3284 0a85 1A       		.byte	0x1a
 3285 0a86 930A0000 		.4byte	0xa93
 3286 0a8a 08       		.byte	0x8
 3287 0a8b 00000000 		.4byte	0x0
 3288 0a8f 80842E41 		.4byte	0x412e8480
 3289 0a93 06       		.uleb128 0x6
 3290 0a94 7B070000 		.4byte	0x77b
 3291 0a98 31       		.uleb128 0x31
 3292 0a99 1C000000 		.4byte	.LASF99
 3293 0a9d 02       		.byte	0x2
 3294 0a9e 1B       		.byte	0x1b
 3295 0a9f AC0A0000 		.4byte	0xaac
 3296 0aa3 08       		.byte	0x8
 3297 0aa4 00000000 		.4byte	0x0
 3298 0aa8 80842E41 		.4byte	0x412e8480
 3299 0aac 06       		.uleb128 0x6
 3300 0aad 7B070000 		.4byte	0x77b
 3301 0ab1 20       		.uleb128 0x20
 3302 0ab2 70776D00 		.ascii	"pwm\000"
 3303 0ab6 02       		.byte	0x2
 3304 0ab7 1D       		.byte	0x1d
 3305 0ab8 B5000000 		.4byte	0xb5
 3306 0abc 05       		.byte	0x5
 3307 0abd 03       		.byte	0x3
 3308 0abe 00000000 		.4byte	pwm
 3309 0ac2 20       		.uleb128 0x20
 3310 0ac3 5000     		.ascii	"P\000"
 3311 0ac5 02       		.byte	0x2
 3312 0ac6 1E       		.byte	0x1e
 3313 0ac7 7B070000 		.4byte	0x77b
 3314 0acb 05       		.byte	0x5
 3315 0acc 03       		.byte	0x3
 3316 0acd 00000000 		.4byte	P
 3317 0ad1 20       		.uleb128 0x20
 3318 0ad2 4900     		.ascii	"I\000"
 3319 0ad4 02       		.byte	0x2
 3320 0ad5 1F       		.byte	0x1f
 3321 0ad6 7B070000 		.4byte	0x77b
 3322 0ada 05       		.byte	0x5
 3323 0adb 03       		.byte	0x3
 3324 0adc 00000000 		.4byte	I
 3325 0ae0 20       		.uleb128 0x20
 3326 0ae1 4400     		.ascii	"D\000"
 3327 0ae3 02       		.byte	0x2
 3328 0ae4 20       		.byte	0x20
 3329 0ae5 7B070000 		.4byte	0x77b
 3330 0ae9 05       		.byte	0x5
 3331 0aea 03       		.byte	0x3
 3332 0aeb 00000000 		.4byte	D
 3333 0aef 20       		.uleb128 0x20
 3334 0af0 5500     		.ascii	"U\000"
 3335 0af2 02       		.byte	0x2
 3336 0af3 21       		.byte	0x21
 3337 0af4 B5000000 		.4byte	0xb5
 3338 0af8 05       		.byte	0x5
ARM GAS  C:\Users\DNIEL~1\AppData\Local\Temp\ccckc6Je.s 			page 61


 3339 0af9 03       		.byte	0x3
 3340 0afa 00000000 		.4byte	U
 3341 0afe 32       		.uleb128 0x32
 3342 0aff CC030000 		.4byte	.LASF100
 3343 0b03 02       		.byte	0x2
 3344 0b04 22       		.byte	0x22
 3345 0b05 7B070000 		.4byte	0x77b
 3346 0b09 05       		.byte	0x5
 3347 0b0a 03       		.byte	0x3
 3348 0b0b 00000000 		.4byte	eelozo
 3349 0b0f 20       		.uleb128 0x20
 3350 0b10 6500     		.ascii	"e\000"
 3351 0b12 02       		.byte	0x2
 3352 0b13 23       		.byte	0x23
 3353 0b14 7B070000 		.4byte	0x77b
 3354 0b18 05       		.byte	0x5
 3355 0b19 03       		.byte	0x3
 3356 0b1a 00000000 		.4byte	e
 3357 0b1e 32       		.uleb128 0x32
 3358 0b1f 81010000 		.4byte	.LASF101
 3359 0b23 02       		.byte	0x2
 3360 0b24 24       		.byte	0x24
 3361 0b25 CB000000 		.4byte	0xcb
 3362 0b29 05       		.byte	0x5
 3363 0b2a 03       		.byte	0x3
 3364 0b2b 00000000 		.4byte	cruise_on
 3365 0b2f 20       		.uleb128 0x20
 3366 0b30 73657400 		.ascii	"set\000"
 3367 0b34 02       		.byte	0x2
 3368 0b35 26       		.byte	0x26
 3369 0b36 9F000000 		.4byte	0x9f
 3370 0b3a 05       		.byte	0x5
 3371 0b3b 03       		.byte	0x3
 3372 0b3c 00000000 		.4byte	set
 3373 0b40 32       		.uleb128 0x32
 3374 0b41 CC020000 		.4byte	.LASF102
 3375 0b45 02       		.byte	0x2
 3376 0b46 27       		.byte	0x27
 3377 0b47 9F000000 		.4byte	0x9f
 3378 0b4b 05       		.byte	0x5
 3379 0b4c 03       		.byte	0x3
 3380 0b4d 00000000 		.4byte	old_set
 3381 0b51 32       		.uleb128 0x32
 3382 0b52 2E040000 		.4byte	.LASF103
 3383 0b56 02       		.byte	0x2
 3384 0b57 28       		.byte	0x28
 3385 0b58 C0000000 		.4byte	0xc0
 3386 0b5c 05       		.byte	0x5
 3387 0b5d 03       		.byte	0x3
 3388 0b5e 00000000 		.4byte	eeprom_read_period
 3389 0b62 32       		.uleb128 0x32
 3390 0b63 9E030000 		.4byte	.LASF104
 3391 0b67 02       		.byte	0x2
 3392 0b68 29       		.byte	0x29
 3393 0b69 CB000000 		.4byte	0xcb
 3394 0b6d 05       		.byte	0x5
 3395 0b6e 03       		.byte	0x3
ARM GAS  C:\Users\DNIEL~1\AppData\Local\Temp\ccckc6Je.s 			page 62


 3396 0b6f 00000000 		.4byte	eeprom_write
 3397 0b73 32       		.uleb128 0x32
 3398 0b74 9D010000 		.4byte	.LASF105
 3399 0b78 02       		.byte	0x2
 3400 0b79 2B       		.byte	0x2b
 3401 0b7a F7050000 		.4byte	0x5f7
 3402 0b7e 05       		.byte	0x5
 3403 0b7f 03       		.byte	0x3
 3404 0b80 00000000 		.4byte	cruise_pwmcfg
 3405 0b84 2F       		.uleb128 0x2f
 3406 0b85 66000000 		.4byte	.LASF93
 3407 0b89 0E       		.byte	0xe
 3408 0b8a 9806     		.2byte	0x698
 3409 0b8c FC010000 		.4byte	0x1fc
 3410 0b90 01       		.byte	0x1
 3411 0b91 01       		.byte	0x1
 3412 0b92 2F       		.uleb128 0x2f
 3413 0b93 3A010000 		.4byte	.LASF94
 3414 0b97 0A       		.byte	0xa
 3415 0b98 C301     		.2byte	0x1c3
 3416 0b9a B0040000 		.4byte	0x4b0
 3417 0b9e 01       		.byte	0x1
 3418 0b9f 01       		.byte	0x1
 3419 0ba0 00       		.byte	0x0
 3420              		.section	.debug_abbrev
 3421 0000 01       		.uleb128 0x1
 3422 0001 11       		.uleb128 0x11
 3423 0002 01       		.byte	0x1
 3424 0003 25       		.uleb128 0x25
 3425 0004 0E       		.uleb128 0xe
 3426 0005 13       		.uleb128 0x13
 3427 0006 0B       		.uleb128 0xb
 3428 0007 03       		.uleb128 0x3
 3429 0008 0E       		.uleb128 0xe
 3430 0009 1B       		.uleb128 0x1b
 3431 000a 0E       		.uleb128 0xe
 3432 000b 11       		.uleb128 0x11
 3433 000c 01       		.uleb128 0x1
 3434 000d 52       		.uleb128 0x52
 3435 000e 01       		.uleb128 0x1
 3436 000f 55       		.uleb128 0x55
 3437 0010 06       		.uleb128 0x6
 3438 0011 10       		.uleb128 0x10
 3439 0012 06       		.uleb128 0x6
 3440 0013 00       		.byte	0x0
 3441 0014 00       		.byte	0x0
 3442 0015 02       		.uleb128 0x2
 3443 0016 24       		.uleb128 0x24
 3444 0017 00       		.byte	0x0
 3445 0018 0B       		.uleb128 0xb
 3446 0019 0B       		.uleb128 0xb
 3447 001a 3E       		.uleb128 0x3e
 3448 001b 0B       		.uleb128 0xb
 3449 001c 03       		.uleb128 0x3
 3450 001d 0E       		.uleb128 0xe
 3451 001e 00       		.byte	0x0
 3452 001f 00       		.byte	0x0
ARM GAS  C:\Users\DNIEL~1\AppData\Local\Temp\ccckc6Je.s 			page 63


 3453 0020 03       		.uleb128 0x3
 3454 0021 24       		.uleb128 0x24
 3455 0022 00       		.byte	0x0
 3456 0023 0B       		.uleb128 0xb
 3457 0024 0B       		.uleb128 0xb
 3458 0025 3E       		.uleb128 0x3e
 3459 0026 0B       		.uleb128 0xb
 3460 0027 03       		.uleb128 0x3
 3461 0028 08       		.uleb128 0x8
 3462 0029 00       		.byte	0x0
 3463 002a 00       		.byte	0x0
 3464 002b 04       		.uleb128 0x4
 3465 002c 0F       		.uleb128 0xf
 3466 002d 00       		.byte	0x0
 3467 002e 0B       		.uleb128 0xb
 3468 002f 0B       		.uleb128 0xb
 3469 0030 00       		.byte	0x0
 3470 0031 00       		.byte	0x0
 3471 0032 05       		.uleb128 0x5
 3472 0033 0F       		.uleb128 0xf
 3473 0034 00       		.byte	0x0
 3474 0035 0B       		.uleb128 0xb
 3475 0036 0B       		.uleb128 0xb
 3476 0037 49       		.uleb128 0x49
 3477 0038 13       		.uleb128 0x13
 3478 0039 00       		.byte	0x0
 3479 003a 00       		.byte	0x0
 3480 003b 06       		.uleb128 0x6
 3481 003c 26       		.uleb128 0x26
 3482 003d 00       		.byte	0x0
 3483 003e 49       		.uleb128 0x49
 3484 003f 13       		.uleb128 0x13
 3485 0040 00       		.byte	0x0
 3486 0041 00       		.byte	0x0
 3487 0042 07       		.uleb128 0x7
 3488 0043 16       		.uleb128 0x16
 3489 0044 00       		.byte	0x0
 3490 0045 03       		.uleb128 0x3
 3491 0046 0E       		.uleb128 0xe
 3492 0047 3A       		.uleb128 0x3a
 3493 0048 0B       		.uleb128 0xb
 3494 0049 3B       		.uleb128 0x3b
 3495 004a 0B       		.uleb128 0xb
 3496 004b 49       		.uleb128 0x49
 3497 004c 13       		.uleb128 0x13
 3498 004d 00       		.byte	0x0
 3499 004e 00       		.byte	0x0
 3500 004f 08       		.uleb128 0x8
 3501 0050 35       		.uleb128 0x35
 3502 0051 00       		.byte	0x0
 3503 0052 49       		.uleb128 0x49
 3504 0053 13       		.uleb128 0x13
 3505 0054 00       		.byte	0x0
 3506 0055 00       		.byte	0x0
 3507 0056 09       		.uleb128 0x9
 3508 0057 15       		.uleb128 0x15
 3509 0058 01       		.byte	0x1
ARM GAS  C:\Users\DNIEL~1\AppData\Local\Temp\ccckc6Je.s 			page 64


 3510 0059 27       		.uleb128 0x27
 3511 005a 0C       		.uleb128 0xc
 3512 005b 49       		.uleb128 0x49
 3513 005c 13       		.uleb128 0x13
 3514 005d 01       		.uleb128 0x1
 3515 005e 13       		.uleb128 0x13
 3516 005f 00       		.byte	0x0
 3517 0060 00       		.byte	0x0
 3518 0061 0A       		.uleb128 0xa
 3519 0062 05       		.uleb128 0x5
 3520 0063 00       		.byte	0x0
 3521 0064 49       		.uleb128 0x49
 3522 0065 13       		.uleb128 0x13
 3523 0066 00       		.byte	0x0
 3524 0067 00       		.byte	0x0
 3525 0068 0B       		.uleb128 0xb
 3526 0069 13       		.uleb128 0x13
 3527 006a 01       		.byte	0x1
 3528 006b 03       		.uleb128 0x3
 3529 006c 0E       		.uleb128 0xe
 3530 006d 0B       		.uleb128 0xb
 3531 006e 0B       		.uleb128 0xb
 3532 006f 3A       		.uleb128 0x3a
 3533 0070 0B       		.uleb128 0xb
 3534 0071 3B       		.uleb128 0x3b
 3535 0072 0B       		.uleb128 0xb
 3536 0073 01       		.uleb128 0x1
 3537 0074 13       		.uleb128 0x13
 3538 0075 00       		.byte	0x0
 3539 0076 00       		.byte	0x0
 3540 0077 0C       		.uleb128 0xc
 3541 0078 0D       		.uleb128 0xd
 3542 0079 00       		.byte	0x0
 3543 007a 03       		.uleb128 0x3
 3544 007b 0E       		.uleb128 0xe
 3545 007c 3A       		.uleb128 0x3a
 3546 007d 0B       		.uleb128 0xb
 3547 007e 3B       		.uleb128 0x3b
 3548 007f 0B       		.uleb128 0xb
 3549 0080 49       		.uleb128 0x49
 3550 0081 13       		.uleb128 0x13
 3551 0082 38       		.uleb128 0x38
 3552 0083 0A       		.uleb128 0xa
 3553 0084 00       		.byte	0x0
 3554 0085 00       		.byte	0x0
 3555 0086 0D       		.uleb128 0xd
 3556 0087 0D       		.uleb128 0xd
 3557 0088 00       		.byte	0x0
 3558 0089 03       		.uleb128 0x3
 3559 008a 08       		.uleb128 0x8
 3560 008b 3A       		.uleb128 0x3a
 3561 008c 0B       		.uleb128 0xb
 3562 008d 3B       		.uleb128 0x3b
 3563 008e 0B       		.uleb128 0xb
 3564 008f 49       		.uleb128 0x49
 3565 0090 13       		.uleb128 0x13
 3566 0091 38       		.uleb128 0x38
ARM GAS  C:\Users\DNIEL~1\AppData\Local\Temp\ccckc6Je.s 			page 65


 3567 0092 0A       		.uleb128 0xa
 3568 0093 00       		.byte	0x0
 3569 0094 00       		.byte	0x0
 3570 0095 0E       		.uleb128 0xe
 3571 0096 13       		.uleb128 0x13
 3572 0097 01       		.byte	0x1
 3573 0098 0B       		.uleb128 0xb
 3574 0099 0B       		.uleb128 0xb
 3575 009a 3A       		.uleb128 0x3a
 3576 009b 0B       		.uleb128 0xb
 3577 009c 3B       		.uleb128 0x3b
 3578 009d 0B       		.uleb128 0xb
 3579 009e 01       		.uleb128 0x1
 3580 009f 13       		.uleb128 0x13
 3581 00a0 00       		.byte	0x0
 3582 00a1 00       		.byte	0x0
 3583 00a2 0F       		.uleb128 0xf
 3584 00a3 01       		.uleb128 0x1
 3585 00a4 01       		.byte	0x1
 3586 00a5 49       		.uleb128 0x49
 3587 00a6 13       		.uleb128 0x13
 3588 00a7 01       		.uleb128 0x1
 3589 00a8 13       		.uleb128 0x13
 3590 00a9 00       		.byte	0x0
 3591 00aa 00       		.byte	0x0
 3592 00ab 10       		.uleb128 0x10
 3593 00ac 21       		.uleb128 0x21
 3594 00ad 00       		.byte	0x0
 3595 00ae 49       		.uleb128 0x49
 3596 00af 13       		.uleb128 0x13
 3597 00b0 2F       		.uleb128 0x2f
 3598 00b1 0B       		.uleb128 0xb
 3599 00b2 00       		.byte	0x0
 3600 00b3 00       		.byte	0x0
 3601 00b4 11       		.uleb128 0x11
 3602 00b5 13       		.uleb128 0x13
 3603 00b6 01       		.byte	0x1
 3604 00b7 0B       		.uleb128 0xb
 3605 00b8 0B       		.uleb128 0xb
 3606 00b9 3A       		.uleb128 0x3a
 3607 00ba 0B       		.uleb128 0xb
 3608 00bb 3B       		.uleb128 0x3b
 3609 00bc 05       		.uleb128 0x5
 3610 00bd 01       		.uleb128 0x1
 3611 00be 13       		.uleb128 0x13
 3612 00bf 00       		.byte	0x0
 3613 00c0 00       		.byte	0x0
 3614 00c1 12       		.uleb128 0x12
 3615 00c2 0D       		.uleb128 0xd
 3616 00c3 00       		.byte	0x0
 3617 00c4 03       		.uleb128 0x3
 3618 00c5 08       		.uleb128 0x8
 3619 00c6 3A       		.uleb128 0x3a
 3620 00c7 0B       		.uleb128 0xb
 3621 00c8 3B       		.uleb128 0x3b
 3622 00c9 05       		.uleb128 0x5
 3623 00ca 49       		.uleb128 0x49
ARM GAS  C:\Users\DNIEL~1\AppData\Local\Temp\ccckc6Je.s 			page 66


 3624 00cb 13       		.uleb128 0x13
 3625 00cc 38       		.uleb128 0x38
 3626 00cd 0A       		.uleb128 0xa
 3627 00ce 00       		.byte	0x0
 3628 00cf 00       		.byte	0x0
 3629 00d0 13       		.uleb128 0x13
 3630 00d1 0D       		.uleb128 0xd
 3631 00d2 00       		.byte	0x0
 3632 00d3 03       		.uleb128 0x3
 3633 00d4 0E       		.uleb128 0xe
 3634 00d5 3A       		.uleb128 0x3a
 3635 00d6 0B       		.uleb128 0xb
 3636 00d7 3B       		.uleb128 0x3b
 3637 00d8 05       		.uleb128 0x5
 3638 00d9 49       		.uleb128 0x49
 3639 00da 13       		.uleb128 0x13
 3640 00db 38       		.uleb128 0x38
 3641 00dc 0A       		.uleb128 0xa
 3642 00dd 00       		.byte	0x0
 3643 00de 00       		.byte	0x0
 3644 00df 14       		.uleb128 0x14
 3645 00e0 16       		.uleb128 0x16
 3646 00e1 00       		.byte	0x0
 3647 00e2 03       		.uleb128 0x3
 3648 00e3 0E       		.uleb128 0xe
 3649 00e4 3A       		.uleb128 0x3a
 3650 00e5 0B       		.uleb128 0xb
 3651 00e6 3B       		.uleb128 0x3b
 3652 00e7 05       		.uleb128 0x5
 3653 00e8 49       		.uleb128 0x49
 3654 00e9 13       		.uleb128 0x13
 3655 00ea 00       		.byte	0x0
 3656 00eb 00       		.byte	0x0
 3657 00ec 15       		.uleb128 0x15
 3658 00ed 04       		.uleb128 0x4
 3659 00ee 01       		.byte	0x1
 3660 00ef 0B       		.uleb128 0xb
 3661 00f0 0B       		.uleb128 0xb
 3662 00f1 3A       		.uleb128 0x3a
 3663 00f2 0B       		.uleb128 0xb
 3664 00f3 3B       		.uleb128 0x3b
 3665 00f4 0B       		.uleb128 0xb
 3666 00f5 01       		.uleb128 0x1
 3667 00f6 13       		.uleb128 0x13
 3668 00f7 00       		.byte	0x0
 3669 00f8 00       		.byte	0x0
 3670 00f9 16       		.uleb128 0x16
 3671 00fa 28       		.uleb128 0x28
 3672 00fb 00       		.byte	0x0
 3673 00fc 03       		.uleb128 0x3
 3674 00fd 0E       		.uleb128 0xe
 3675 00fe 1C       		.uleb128 0x1c
 3676 00ff 0D       		.uleb128 0xd
 3677 0100 00       		.byte	0x0
 3678 0101 00       		.byte	0x0
 3679 0102 17       		.uleb128 0x17
 3680 0103 13       		.uleb128 0x13
ARM GAS  C:\Users\DNIEL~1\AppData\Local\Temp\ccckc6Je.s 			page 67


 3681 0104 01       		.byte	0x1
 3682 0105 03       		.uleb128 0x3
 3683 0106 0E       		.uleb128 0xe
 3684 0107 0B       		.uleb128 0xb
 3685 0108 0B       		.uleb128 0xb
 3686 0109 3A       		.uleb128 0x3a
 3687 010a 0B       		.uleb128 0xb
 3688 010b 3B       		.uleb128 0x3b
 3689 010c 05       		.uleb128 0x5
 3690 010d 01       		.uleb128 0x1
 3691 010e 13       		.uleb128 0x13
 3692 010f 00       		.byte	0x0
 3693 0110 00       		.byte	0x0
 3694 0111 18       		.uleb128 0x18
 3695 0112 15       		.uleb128 0x15
 3696 0113 01       		.byte	0x1
 3697 0114 27       		.uleb128 0x27
 3698 0115 0C       		.uleb128 0xc
 3699 0116 01       		.uleb128 0x1
 3700 0117 13       		.uleb128 0x13
 3701 0118 00       		.byte	0x0
 3702 0119 00       		.byte	0x0
 3703 011a 19       		.uleb128 0x19
 3704 011b 0D       		.uleb128 0xd
 3705 011c 00       		.byte	0x0
 3706 011d 03       		.uleb128 0x3
 3707 011e 0E       		.uleb128 0xe
 3708 011f 49       		.uleb128 0x49
 3709 0120 13       		.uleb128 0x13
 3710 0121 38       		.uleb128 0x38
 3711 0122 0A       		.uleb128 0xa
 3712 0123 34       		.uleb128 0x34
 3713 0124 0C       		.uleb128 0xc
 3714 0125 00       		.byte	0x0
 3715 0126 00       		.byte	0x0
 3716 0127 1A       		.uleb128 0x1a
 3717 0128 04       		.uleb128 0x4
 3718 0129 01       		.byte	0x1
 3719 012a 03       		.uleb128 0x3
 3720 012b 0E       		.uleb128 0xe
 3721 012c 0B       		.uleb128 0xb
 3722 012d 0B       		.uleb128 0xb
 3723 012e 3A       		.uleb128 0x3a
 3724 012f 0B       		.uleb128 0xb
 3725 0130 3B       		.uleb128 0x3b
 3726 0131 0B       		.uleb128 0xb
 3727 0132 01       		.uleb128 0x1
 3728 0133 13       		.uleb128 0x13
 3729 0134 00       		.byte	0x0
 3730 0135 00       		.byte	0x0
 3731 0136 1B       		.uleb128 0x1b
 3732 0137 2E       		.uleb128 0x2e
 3733 0138 00       		.byte	0x0
 3734 0139 3F       		.uleb128 0x3f
 3735 013a 0C       		.uleb128 0xc
 3736 013b 03       		.uleb128 0x3
 3737 013c 0E       		.uleb128 0xe
ARM GAS  C:\Users\DNIEL~1\AppData\Local\Temp\ccckc6Je.s 			page 68


 3738 013d 3A       		.uleb128 0x3a
 3739 013e 0B       		.uleb128 0xb
 3740 013f 3B       		.uleb128 0x3b
 3741 0140 0B       		.uleb128 0xb
 3742 0141 27       		.uleb128 0x27
 3743 0142 0C       		.uleb128 0xc
 3744 0143 20       		.uleb128 0x20
 3745 0144 0B       		.uleb128 0xb
 3746 0145 00       		.byte	0x0
 3747 0146 00       		.byte	0x0
 3748 0147 1C       		.uleb128 0x1c
 3749 0148 2E       		.uleb128 0x2e
 3750 0149 01       		.byte	0x1
 3751 014a 03       		.uleb128 0x3
 3752 014b 0E       		.uleb128 0xe
 3753 014c 3A       		.uleb128 0x3a
 3754 014d 0B       		.uleb128 0xb
 3755 014e 3B       		.uleb128 0x3b
 3756 014f 0B       		.uleb128 0xb
 3757 0150 27       		.uleb128 0x27
 3758 0151 0C       		.uleb128 0xc
 3759 0152 11       		.uleb128 0x11
 3760 0153 01       		.uleb128 0x1
 3761 0154 12       		.uleb128 0x12
 3762 0155 01       		.uleb128 0x1
 3763 0156 40       		.uleb128 0x40
 3764 0157 06       		.uleb128 0x6
 3765 0158 01       		.uleb128 0x1
 3766 0159 13       		.uleb128 0x13
 3767 015a 00       		.byte	0x0
 3768 015b 00       		.byte	0x0
 3769 015c 1D       		.uleb128 0x1d
 3770 015d 05       		.uleb128 0x5
 3771 015e 00       		.byte	0x0
 3772 015f 03       		.uleb128 0x3
 3773 0160 08       		.uleb128 0x8
 3774 0161 3A       		.uleb128 0x3a
 3775 0162 0B       		.uleb128 0xb
 3776 0163 3B       		.uleb128 0x3b
 3777 0164 0B       		.uleb128 0xb
 3778 0165 49       		.uleb128 0x49
 3779 0166 13       		.uleb128 0x13
 3780 0167 02       		.uleb128 0x2
 3781 0168 06       		.uleb128 0x6
 3782 0169 00       		.byte	0x0
 3783 016a 00       		.byte	0x0
 3784 016b 1E       		.uleb128 0x1e
 3785 016c 05       		.uleb128 0x5
 3786 016d 00       		.byte	0x0
 3787 016e 03       		.uleb128 0x3
 3788 016f 08       		.uleb128 0x8
 3789 0170 3A       		.uleb128 0x3a
 3790 0171 0B       		.uleb128 0xb
 3791 0172 3B       		.uleb128 0x3b
 3792 0173 0B       		.uleb128 0xb
 3793 0174 49       		.uleb128 0x49
 3794 0175 13       		.uleb128 0x13
ARM GAS  C:\Users\DNIEL~1\AppData\Local\Temp\ccckc6Je.s 			page 69


 3795 0176 02       		.uleb128 0x2
 3796 0177 0A       		.uleb128 0xa
 3797 0178 00       		.byte	0x0
 3798 0179 00       		.byte	0x0
 3799 017a 1F       		.uleb128 0x1f
 3800 017b 18       		.uleb128 0x18
 3801 017c 00       		.byte	0x0
 3802 017d 00       		.byte	0x0
 3803 017e 00       		.byte	0x0
 3804 017f 20       		.uleb128 0x20
 3805 0180 34       		.uleb128 0x34
 3806 0181 00       		.byte	0x0
 3807 0182 03       		.uleb128 0x3
 3808 0183 08       		.uleb128 0x8
 3809 0184 3A       		.uleb128 0x3a
 3810 0185 0B       		.uleb128 0xb
 3811 0186 3B       		.uleb128 0x3b
 3812 0187 0B       		.uleb128 0xb
 3813 0188 49       		.uleb128 0x49
 3814 0189 13       		.uleb128 0x13
 3815 018a 02       		.uleb128 0x2
 3816 018b 0A       		.uleb128 0xa
 3817 018c 00       		.byte	0x0
 3818 018d 00       		.byte	0x0
 3819 018e 21       		.uleb128 0x21
 3820 018f 2E       		.uleb128 0x2e
 3821 0190 00       		.byte	0x0
 3822 0191 3F       		.uleb128 0x3f
 3823 0192 0C       		.uleb128 0xc
 3824 0193 03       		.uleb128 0x3
 3825 0194 0E       		.uleb128 0xe
 3826 0195 3A       		.uleb128 0x3a
 3827 0196 0B       		.uleb128 0xb
 3828 0197 3B       		.uleb128 0x3b
 3829 0198 0B       		.uleb128 0xb
 3830 0199 27       		.uleb128 0x27
 3831 019a 0C       		.uleb128 0xc
 3832 019b 11       		.uleb128 0x11
 3833 019c 01       		.uleb128 0x1
 3834 019d 12       		.uleb128 0x12
 3835 019e 01       		.uleb128 0x1
 3836 019f 40       		.uleb128 0x40
 3837 01a0 06       		.uleb128 0x6
 3838 01a1 00       		.byte	0x0
 3839 01a2 00       		.byte	0x0
 3840 01a3 22       		.uleb128 0x22
 3841 01a4 2E       		.uleb128 0x2e
 3842 01a5 00       		.byte	0x0
 3843 01a6 31       		.uleb128 0x31
 3844 01a7 13       		.uleb128 0x13
 3845 01a8 11       		.uleb128 0x11
 3846 01a9 01       		.uleb128 0x1
 3847 01aa 12       		.uleb128 0x12
 3848 01ab 01       		.uleb128 0x1
 3849 01ac 40       		.uleb128 0x40
 3850 01ad 0A       		.uleb128 0xa
 3851 01ae 00       		.byte	0x0
ARM GAS  C:\Users\DNIEL~1\AppData\Local\Temp\ccckc6Je.s 			page 70


 3852 01af 00       		.byte	0x0
 3853 01b0 23       		.uleb128 0x23
 3854 01b1 2E       		.uleb128 0x2e
 3855 01b2 00       		.byte	0x0
 3856 01b3 3F       		.uleb128 0x3f
 3857 01b4 0C       		.uleb128 0xc
 3858 01b5 03       		.uleb128 0x3
 3859 01b6 0E       		.uleb128 0xe
 3860 01b7 3A       		.uleb128 0x3a
 3861 01b8 0B       		.uleb128 0xb
 3862 01b9 3B       		.uleb128 0x3b
 3863 01ba 0B       		.uleb128 0xb
 3864 01bb 27       		.uleb128 0x27
 3865 01bc 0C       		.uleb128 0xc
 3866 01bd 49       		.uleb128 0x49
 3867 01be 13       		.uleb128 0x13
 3868 01bf 11       		.uleb128 0x11
 3869 01c0 01       		.uleb128 0x1
 3870 01c1 12       		.uleb128 0x12
 3871 01c2 01       		.uleb128 0x1
 3872 01c3 40       		.uleb128 0x40
 3873 01c4 0A       		.uleb128 0xa
 3874 01c5 00       		.byte	0x0
 3875 01c6 00       		.byte	0x0
 3876 01c7 24       		.uleb128 0x24
 3877 01c8 2E       		.uleb128 0x2e
 3878 01c9 01       		.byte	0x1
 3879 01ca 3F       		.uleb128 0x3f
 3880 01cb 0C       		.uleb128 0xc
 3881 01cc 03       		.uleb128 0x3
 3882 01cd 0E       		.uleb128 0xe
 3883 01ce 3A       		.uleb128 0x3a
 3884 01cf 0B       		.uleb128 0xb
 3885 01d0 3B       		.uleb128 0x3b
 3886 01d1 0B       		.uleb128 0xb
 3887 01d2 27       		.uleb128 0x27
 3888 01d3 0C       		.uleb128 0xc
 3889 01d4 11       		.uleb128 0x11
 3890 01d5 01       		.uleb128 0x1
 3891 01d6 12       		.uleb128 0x12
 3892 01d7 01       		.uleb128 0x1
 3893 01d8 40       		.uleb128 0x40
 3894 01d9 06       		.uleb128 0x6
 3895 01da 01       		.uleb128 0x1
 3896 01db 13       		.uleb128 0x13
 3897 01dc 00       		.byte	0x0
 3898 01dd 00       		.byte	0x0
 3899 01de 25       		.uleb128 0x25
 3900 01df 2E       		.uleb128 0x2e
 3901 01e0 00       		.byte	0x0
 3902 01e1 3F       		.uleb128 0x3f
 3903 01e2 0C       		.uleb128 0xc
 3904 01e3 03       		.uleb128 0x3
 3905 01e4 0E       		.uleb128 0xe
 3906 01e5 3A       		.uleb128 0x3a
 3907 01e6 0B       		.uleb128 0xb
 3908 01e7 3B       		.uleb128 0x3b
ARM GAS  C:\Users\DNIEL~1\AppData\Local\Temp\ccckc6Je.s 			page 71


 3909 01e8 0B       		.uleb128 0xb
 3910 01e9 27       		.uleb128 0x27
 3911 01ea 0C       		.uleb128 0xc
 3912 01eb 49       		.uleb128 0x49
 3913 01ec 13       		.uleb128 0x13
 3914 01ed 11       		.uleb128 0x11
 3915 01ee 01       		.uleb128 0x1
 3916 01ef 12       		.uleb128 0x12
 3917 01f0 01       		.uleb128 0x1
 3918 01f1 40       		.uleb128 0x40
 3919 01f2 06       		.uleb128 0x6
 3920 01f3 00       		.byte	0x0
 3921 01f4 00       		.byte	0x0
 3922 01f5 26       		.uleb128 0x26
 3923 01f6 2E       		.uleb128 0x2e
 3924 01f7 01       		.byte	0x1
 3925 01f8 3F       		.uleb128 0x3f
 3926 01f9 0C       		.uleb128 0xc
 3927 01fa 03       		.uleb128 0x3
 3928 01fb 0E       		.uleb128 0xe
 3929 01fc 3A       		.uleb128 0x3a
 3930 01fd 0B       		.uleb128 0xb
 3931 01fe 3B       		.uleb128 0x3b
 3932 01ff 0B       		.uleb128 0xb
 3933 0200 27       		.uleb128 0x27
 3934 0201 0C       		.uleb128 0xc
 3935 0202 49       		.uleb128 0x49
 3936 0203 13       		.uleb128 0x13
 3937 0204 11       		.uleb128 0x11
 3938 0205 01       		.uleb128 0x1
 3939 0206 12       		.uleb128 0x12
 3940 0207 01       		.uleb128 0x1
 3941 0208 40       		.uleb128 0x40
 3942 0209 06       		.uleb128 0x6
 3943 020a 01       		.uleb128 0x1
 3944 020b 13       		.uleb128 0x13
 3945 020c 00       		.byte	0x0
 3946 020d 00       		.byte	0x0
 3947 020e 27       		.uleb128 0x27
 3948 020f 05       		.uleb128 0x5
 3949 0210 00       		.byte	0x0
 3950 0211 03       		.uleb128 0x3
 3951 0212 0E       		.uleb128 0xe
 3952 0213 3A       		.uleb128 0x3a
 3953 0214 0B       		.uleb128 0xb
 3954 0215 3B       		.uleb128 0x3b
 3955 0216 0B       		.uleb128 0xb
 3956 0217 49       		.uleb128 0x49
 3957 0218 13       		.uleb128 0x13
 3958 0219 02       		.uleb128 0x2
 3959 021a 06       		.uleb128 0x6
 3960 021b 00       		.byte	0x0
 3961 021c 00       		.byte	0x0
 3962 021d 28       		.uleb128 0x28
 3963 021e 05       		.uleb128 0x5
 3964 021f 00       		.byte	0x0
 3965 0220 03       		.uleb128 0x3
ARM GAS  C:\Users\DNIEL~1\AppData\Local\Temp\ccckc6Je.s 			page 72


 3966 0221 0E       		.uleb128 0xe
 3967 0222 3A       		.uleb128 0x3a
 3968 0223 0B       		.uleb128 0xb
 3969 0224 3B       		.uleb128 0x3b
 3970 0225 0B       		.uleb128 0xb
 3971 0226 49       		.uleb128 0x49
 3972 0227 13       		.uleb128 0x13
 3973 0228 02       		.uleb128 0x2
 3974 0229 0A       		.uleb128 0xa
 3975 022a 00       		.byte	0x0
 3976 022b 00       		.byte	0x0
 3977 022c 29       		.uleb128 0x29
 3978 022d 34       		.uleb128 0x34
 3979 022e 00       		.byte	0x0
 3980 022f 03       		.uleb128 0x3
 3981 0230 0E       		.uleb128 0xe
 3982 0231 3A       		.uleb128 0x3a
 3983 0232 0B       		.uleb128 0xb
 3984 0233 3B       		.uleb128 0x3b
 3985 0234 0B       		.uleb128 0xb
 3986 0235 49       		.uleb128 0x49
 3987 0236 13       		.uleb128 0x13
 3988 0237 02       		.uleb128 0x2
 3989 0238 06       		.uleb128 0x6
 3990 0239 00       		.byte	0x0
 3991 023a 00       		.byte	0x0
 3992 023b 2A       		.uleb128 0x2a
 3993 023c 0A       		.uleb128 0xa
 3994 023d 00       		.byte	0x0
 3995 023e 03       		.uleb128 0x3
 3996 023f 0E       		.uleb128 0xe
 3997 0240 3A       		.uleb128 0x3a
 3998 0241 0B       		.uleb128 0xb
 3999 0242 3B       		.uleb128 0x3b
 4000 0243 05       		.uleb128 0x5
 4001 0244 11       		.uleb128 0x11
 4002 0245 01       		.uleb128 0x1
 4003 0246 00       		.byte	0x0
 4004 0247 00       		.byte	0x0
 4005 0248 2B       		.uleb128 0x2b
 4006 0249 1D       		.uleb128 0x1d
 4007 024a 00       		.byte	0x0
 4008 024b 31       		.uleb128 0x31
 4009 024c 13       		.uleb128 0x13
 4010 024d 52       		.uleb128 0x52
 4011 024e 01       		.uleb128 0x1
 4012 024f 55       		.uleb128 0x55
 4013 0250 06       		.uleb128 0x6
 4014 0251 58       		.uleb128 0x58
 4015 0252 0B       		.uleb128 0xb
 4016 0253 59       		.uleb128 0x59
 4017 0254 05       		.uleb128 0x5
 4018 0255 00       		.byte	0x0
 4019 0256 00       		.byte	0x0
 4020 0257 2C       		.uleb128 0x2c
 4021 0258 2E       		.uleb128 0x2e
 4022 0259 01       		.byte	0x1
ARM GAS  C:\Users\DNIEL~1\AppData\Local\Temp\ccckc6Je.s 			page 73


 4023 025a 3F       		.uleb128 0x3f
 4024 025b 0C       		.uleb128 0xc
 4025 025c 03       		.uleb128 0x3
 4026 025d 0E       		.uleb128 0xe
 4027 025e 3A       		.uleb128 0x3a
 4028 025f 0B       		.uleb128 0xb
 4029 0260 3B       		.uleb128 0x3b
 4030 0261 05       		.uleb128 0x5
 4031 0262 27       		.uleb128 0x27
 4032 0263 0C       		.uleb128 0xc
 4033 0264 11       		.uleb128 0x11
 4034 0265 01       		.uleb128 0x1
 4035 0266 12       		.uleb128 0x12
 4036 0267 01       		.uleb128 0x1
 4037 0268 40       		.uleb128 0x40
 4038 0269 06       		.uleb128 0x6
 4039 026a 01       		.uleb128 0x1
 4040 026b 13       		.uleb128 0x13
 4041 026c 00       		.byte	0x0
 4042 026d 00       		.byte	0x0
 4043 026e 2D       		.uleb128 0x2d
 4044 026f 05       		.uleb128 0x5
 4045 0270 00       		.byte	0x0
 4046 0271 03       		.uleb128 0x3
 4047 0272 08       		.uleb128 0x8
 4048 0273 3A       		.uleb128 0x3a
 4049 0274 0B       		.uleb128 0xb
 4050 0275 3B       		.uleb128 0x3b
 4051 0276 05       		.uleb128 0x5
 4052 0277 49       		.uleb128 0x49
 4053 0278 13       		.uleb128 0x13
 4054 0279 02       		.uleb128 0x2
 4055 027a 06       		.uleb128 0x6
 4056 027b 00       		.byte	0x0
 4057 027c 00       		.byte	0x0
 4058 027d 2E       		.uleb128 0x2e
 4059 027e 05       		.uleb128 0x5
 4060 027f 00       		.byte	0x0
 4061 0280 03       		.uleb128 0x3
 4062 0281 0E       		.uleb128 0xe
 4063 0282 3A       		.uleb128 0x3a
 4064 0283 0B       		.uleb128 0xb
 4065 0284 3B       		.uleb128 0x3b
 4066 0285 05       		.uleb128 0x5
 4067 0286 49       		.uleb128 0x49
 4068 0287 13       		.uleb128 0x13
 4069 0288 02       		.uleb128 0x2
 4070 0289 06       		.uleb128 0x6
 4071 028a 00       		.byte	0x0
 4072 028b 00       		.byte	0x0
 4073 028c 2F       		.uleb128 0x2f
 4074 028d 34       		.uleb128 0x34
 4075 028e 00       		.byte	0x0
 4076 028f 03       		.uleb128 0x3
 4077 0290 0E       		.uleb128 0xe
 4078 0291 3A       		.uleb128 0x3a
 4079 0292 0B       		.uleb128 0xb
ARM GAS  C:\Users\DNIEL~1\AppData\Local\Temp\ccckc6Je.s 			page 74


 4080 0293 3B       		.uleb128 0x3b
 4081 0294 05       		.uleb128 0x5
 4082 0295 49       		.uleb128 0x49
 4083 0296 13       		.uleb128 0x13
 4084 0297 3F       		.uleb128 0x3f
 4085 0298 0C       		.uleb128 0xc
 4086 0299 3C       		.uleb128 0x3c
 4087 029a 0C       		.uleb128 0xc
 4088 029b 00       		.byte	0x0
 4089 029c 00       		.byte	0x0
 4090 029d 30       		.uleb128 0x30
 4091 029e 34       		.uleb128 0x34
 4092 029f 00       		.byte	0x0
 4093 02a0 03       		.uleb128 0x3
 4094 02a1 0E       		.uleb128 0xe
 4095 02a2 3A       		.uleb128 0x3a
 4096 02a3 0B       		.uleb128 0xb
 4097 02a4 3B       		.uleb128 0x3b
 4098 02a5 0B       		.uleb128 0xb
 4099 02a6 49       		.uleb128 0x49
 4100 02a7 13       		.uleb128 0x13
 4101 02a8 00       		.byte	0x0
 4102 02a9 00       		.byte	0x0
 4103 02aa 31       		.uleb128 0x31
 4104 02ab 34       		.uleb128 0x34
 4105 02ac 00       		.byte	0x0
 4106 02ad 03       		.uleb128 0x3
 4107 02ae 0E       		.uleb128 0xe
 4108 02af 3A       		.uleb128 0x3a
 4109 02b0 0B       		.uleb128 0xb
 4110 02b1 3B       		.uleb128 0x3b
 4111 02b2 0B       		.uleb128 0xb
 4112 02b3 49       		.uleb128 0x49
 4113 02b4 13       		.uleb128 0x13
 4114 02b5 1C       		.uleb128 0x1c
 4115 02b6 0A       		.uleb128 0xa
 4116 02b7 00       		.byte	0x0
 4117 02b8 00       		.byte	0x0
 4118 02b9 32       		.uleb128 0x32
 4119 02ba 34       		.uleb128 0x34
 4120 02bb 00       		.byte	0x0
 4121 02bc 03       		.uleb128 0x3
 4122 02bd 0E       		.uleb128 0xe
 4123 02be 3A       		.uleb128 0x3a
 4124 02bf 0B       		.uleb128 0xb
 4125 02c0 3B       		.uleb128 0x3b
 4126 02c1 0B       		.uleb128 0xb
 4127 02c2 49       		.uleb128 0x49
 4128 02c3 13       		.uleb128 0x13
 4129 02c4 02       		.uleb128 0x2
 4130 02c5 0A       		.uleb128 0xa
 4131 02c6 00       		.byte	0x0
 4132 02c7 00       		.byte	0x0
 4133 02c8 00       		.byte	0x0
 4134              		.section	.debug_pubnames,"",%progbits
 4135 0000 DF000000 		.4byte	0xdf
 4136 0004 0200     		.2byte	0x2
ARM GAS  C:\Users\DNIEL~1\AppData\Local\Temp\ccckc6Je.s 			page 75


 4137 0006 00000000 		.4byte	.Ldebug_info0
 4138 000a A10B0000 		.4byte	0xba1
 4139 000e 05070000 		.4byte	0x705
 4140 0012 63727569 		.ascii	"cruiseInit\000"
 4140      7365496E 
 4140      697400
 4141 001d 1A070000 		.4byte	0x71a
 4142 0021 63727569 		.ascii	"cruiseEnable\000"
 4142      7365456E 
 4142      61626C65 
 4142      00
 4143 002e 2A070000 		.4byte	0x72a
 4144 0032 63727569 		.ascii	"cruiseDisable\000"
 4144      73654469 
 4144      7361626C 
 4144      6500
 4145 0040 3A070000 		.4byte	0x73a
 4146 0044 63727569 		.ascii	"cruiseStatus\000"
 4146      73655374 
 4146      61747573 
 4146      00
 4147 0051 52070000 		.4byte	0x752
 4148 0055 63727569 		.ascii	"cruiseIncrease\000"
 4148      7365496E 
 4148      63726561 
 4148      736500
 4149 0064 82070000 		.4byte	0x782
 4150 0068 63727569 		.ascii	"cruiseReduction\000"
 4150      73655265 
 4150      64756374 
 4150      696F6E00 
 4151 0078 AB070000 		.4byte	0x7ab
 4152 007c 63727569 		.ascii	"cruiseGet\000"
 4152      73654765 
 4152      7400
 4153 0086 C4070000 		.4byte	0x7c4
 4154 008a 63727569 		.ascii	"cruisePID\000"
 4154      73655049 
 4154      4400
 4155 0094 6F080000 		.4byte	0x86f
 4156 0098 63727569 		.ascii	"cruiseCalc\000"
 4156      73654361 
 4156      6C6300
 4157 00a3 84080000 		.4byte	0x884
 4158 00a7 636D645F 		.ascii	"cmd_cruisevalues\000"
 4158      63727569 
 4158      73657661 
 4158      6C756573 
 4158      00
 4159 00b8 D1080000 		.4byte	0x8d1
 4160 00bc 636D645F 		.ascii	"cmd_setcruisevalues\000"
 4160      73657463 
 4160      72756973 
 4160      6576616C 
 4160      75657300 
 4161 00d0 53090000 		.4byte	0x953
 4162 00d4 636D645F 		.ascii	"cmd_cruise\000"
ARM GAS  C:\Users\DNIEL~1\AppData\Local\Temp\ccckc6Je.s 			page 76


 4162      63727569 
 4162      736500
 4163 00df 00000000 		.4byte	0x0
 4164              		.section	.debug_pubtypes,"",%progbits
 4165 0000 AD010000 		.4byte	0x1ad
 4166 0004 0200     		.2byte	0x2
 4167 0006 00000000 		.4byte	.Ldebug_info0
 4168 000a A10B0000 		.4byte	0xba1
 4169 000e 89000000 		.4byte	0x89
 4170 0012 73697A65 		.ascii	"size_t\000"
 4170      5F7400
 4171 0019 94000000 		.4byte	0x94
 4172 001d 75696E74 		.ascii	"uint8_t\000"
 4172      385F7400 
 4173 0025 9F000000 		.4byte	0x9f
 4174 0029 696E7431 		.ascii	"int16_t\000"
 4174      365F7400 
 4175 0031 AA000000 		.4byte	0xaa
 4176 0035 75696E74 		.ascii	"uint16_t\000"
 4176      31365F74 
 4176      00
 4177 003e B5000000 		.4byte	0xb5
 4178 0042 696E7433 		.ascii	"int32_t\000"
 4178      325F7400 
 4179 004a C0000000 		.4byte	0xc0
 4180 004e 75696E74 		.ascii	"uint32_t\000"
 4180      33325F74 
 4180      00
 4181 0057 CB000000 		.4byte	0xcb
 4182 005b 626F6F6C 		.ascii	"bool_t\000"
 4182      5F7400
 4183 0062 DD000000 		.4byte	0xdd
 4184 0066 6D73675F 		.ascii	"msg_t\000"
 4184      7400
 4185 006c E8000000 		.4byte	0xe8
 4186 0070 73797374 		.ascii	"systime_t\000"
 4186      696D655F 
 4186      7400
 4187 007a 14010000 		.4byte	0x114
 4188 007e 42617365 		.ascii	"BaseSequentialStreamVMT\000"
 4188      53657175 
 4188      656E7469 
 4188      616C5374 
 4188      7265616D 
 4189 0096 E1010000 		.4byte	0x1e1
 4190 009a 42617365 		.ascii	"BaseSequentialStream\000"
 4190      53657175 
 4190      656E7469 
 4190      616C5374 
 4190      7265616D 
 4191 00af 01020000 		.4byte	0x201
 4192 00b3 42617365 		.ascii	"BaseChannelVMT\000"
 4192      4368616E 
 4192      6E656C56 
 4192      4D5400
 4193 00c2 25030000 		.4byte	0x325
 4194 00c6 42617365 		.ascii	"BaseChannel\000"
ARM GAS  C:\Users\DNIEL~1\AppData\Local\Temp\ccckc6Je.s 			page 77


 4194      4368616E 
 4194      6E656C00 
 4195 00d2 78040000 		.4byte	0x478
 4196 00d6 73746D33 		.ascii	"stm32_tim_t\000"
 4196      325F7469 
 4196      6D5F7400 
 4197 00e2 A5040000 		.4byte	0x4a5
 4198 00e6 70776D73 		.ascii	"pwmstate_t\000"
 4198      74617465 
 4198      5F7400
 4199 00f1 B0040000 		.4byte	0x4b0
 4200 00f5 50574D44 		.ascii	"PWMDriver\000"
 4200      72697665 
 4200      7200
 4201 00ff 14050000 		.4byte	0x514
 4202 0103 70776D63 		.ascii	"pwmcallback_t\000"
 4202      616C6C62 
 4202      61636B5F 
 4202      7400
 4203 0111 37050000 		.4byte	0x537
 4204 0115 70776D6D 		.ascii	"pwmmode_t\000"
 4204      6F64655F 
 4204      7400
 4205 011f 43050000 		.4byte	0x543
 4206 0123 70776D63 		.ascii	"pwmcnt_t\000"
 4206      6E745F74 
 4206      00
 4207 012c 77050000 		.4byte	0x577
 4208 0130 50574D43 		.ascii	"PWMChannelConfig\000"
 4208      68616E6E 
 4208      656C436F 
 4208      6E666967 
 4208      00
 4209 0141 F7050000 		.4byte	0x5f7
 4210 0145 50574D43 		.ascii	"PWMConfig\000"
 4210      6F6E6669 
 4210      6700
 4211 014f BB040000 		.4byte	0x4bb
 4212 0153 50574D44 		.ascii	"PWMDriver\000"
 4212      72697665 
 4212      7200
 4213 015d 19060000 		.4byte	0x619
 4214 0161 5F5F7661 		.ascii	"__va_list\000"
 4214      5F6C6973 
 4214      7400
 4215 016b 0E060000 		.4byte	0x60e
 4216 016f 5F5F676E 		.ascii	"__gnuc_va_list\000"
 4216      75635F76 
 4216      615F6C69 
 4216      737400
 4217 017e 33060000 		.4byte	0x633
 4218 0182 76615F6C 		.ascii	"va_list\000"
 4218      69737400 
 4219 018a 3E060000 		.4byte	0x63e
 4220 018e 65657072 		.ascii	"eepromItemNames\000"
 4220      6F6D4974 
 4220      656D4E61 
ARM GAS  C:\Users\DNIEL~1\AppData\Local\Temp\ccckc6Je.s 			page 78


 4220      6D657300 
 4221 019e 63060000 		.4byte	0x663
 4222 01a2 65657072 		.ascii	"eepromItem\000"
 4222      6F6D4974 
 4222      656D00
 4223 01ad 00000000 		.4byte	0x0
 4224              		.section	.debug_aranges,"",%progbits
 4225 0000 7C000000 		.4byte	0x7c
 4226 0004 0200     		.2byte	0x2
 4227 0006 00000000 		.4byte	.Ldebug_info0
 4228 000a 04       		.byte	0x4
 4229 000b 00       		.byte	0x0
 4230 000c 0000     		.2byte	0x0
 4231 000e 0000     		.2byte	0x0
 4232 0010 00000000 		.4byte	.LFB118
 4233 0014 1E000000 		.4byte	.LFE118-.LFB118
 4234 0018 00000000 		.4byte	.LFB119
 4235 001c D0000000 		.4byte	.LFE119-.LFB119
 4236 0020 00000000 		.4byte	.LFB121
 4237 0024 0C000000 		.4byte	.LFE121-.LFB121
 4238 0028 00000000 		.4byte	.LFB122
 4239 002c 0C000000 		.4byte	.LFE122-.LFB122
 4240 0030 00000000 		.4byte	.LFB123
 4241 0034 0C000000 		.4byte	.LFE123-.LFB123
 4242 0038 00000000 		.4byte	.LFB124
 4243 003c 54000000 		.4byte	.LFE124-.LFB124
 4244 0040 00000000 		.4byte	.LFB125
 4245 0044 2C000000 		.4byte	.LFE125-.LFB125
 4246 0048 00000000 		.4byte	.LFB126
 4247 004c 18000000 		.4byte	.LFE126-.LFB126
 4248 0050 00000000 		.4byte	.LFB127
 4249 0054 A4010000 		.4byte	.LFE127-.LFB127
 4250 0058 00000000 		.4byte	.LFB120
 4251 005c 78010000 		.4byte	.LFE120-.LFB120
 4252 0060 00000000 		.4byte	.LFB128
 4253 0064 18010000 		.4byte	.LFE128-.LFB128
 4254 0068 00000000 		.4byte	.LFB129
 4255 006c 00020000 		.4byte	.LFE129-.LFB129
 4256 0070 00000000 		.4byte	.LFB130
 4257 0074 9C000000 		.4byte	.LFE130-.LFB130
 4258 0078 00000000 		.4byte	0x0
 4259 007c 00000000 		.4byte	0x0
 4260              		.section	.debug_ranges,"",%progbits
 4261              	.Ldebug_ranges0:
 4262 0000 AC000000 		.4byte	.LBB10
 4263 0004 AE000000 		.4byte	.LBE10
 4264 0008 B0000000 		.4byte	.LBB13
 4265 000c B2000000 		.4byte	.LBE13
 4266 0010 00000000 		.4byte	0x0
 4267 0014 00000000 		.4byte	0x0
 4268 0018 F4000000 		.4byte	.LBB14
 4269 001c F6000000 		.4byte	.LBE14
 4270 0020 F8000000 		.4byte	.LBB17
 4271 0024 FA000000 		.4byte	.LBE17
 4272 0028 00000000 		.4byte	0x0
 4273 002c 00000000 		.4byte	0x0
 4274 0030 54000000 		.4byte	.LBB18
ARM GAS  C:\Users\DNIEL~1\AppData\Local\Temp\ccckc6Je.s 			page 79


 4275 0034 56000000 		.4byte	.LBE18
 4276 0038 58000000 		.4byte	.LBB21
 4277 003c 5A000000 		.4byte	.LBE21
 4278 0040 00000000 		.4byte	0x0
 4279 0044 00000000 		.4byte	0x0
 4280 0048 64000000 		.4byte	.LBB22
 4281 004c 66000000 		.4byte	.LBE22
 4282 0050 68000000 		.4byte	.LBB25
 4283 0054 6A000000 		.4byte	.LBE25
 4284 0058 00000000 		.4byte	0x0
 4285 005c 00000000 		.4byte	0x0
 4286 0060 00000000 		.4byte	.LFB118
 4287 0064 1E000000 		.4byte	.LFE118
 4288 0068 00000000 		.4byte	.LFB119
 4289 006c D0000000 		.4byte	.LFE119
 4290 0070 00000000 		.4byte	.LFB121
 4291 0074 0C000000 		.4byte	.LFE121
 4292 0078 00000000 		.4byte	.LFB122
 4293 007c 0C000000 		.4byte	.LFE122
 4294 0080 00000000 		.4byte	.LFB123
 4295 0084 0C000000 		.4byte	.LFE123
 4296 0088 00000000 		.4byte	.LFB124
 4297 008c 54000000 		.4byte	.LFE124
 4298 0090 00000000 		.4byte	.LFB125
 4299 0094 2C000000 		.4byte	.LFE125
 4300 0098 00000000 		.4byte	.LFB126
 4301 009c 18000000 		.4byte	.LFE126
 4302 00a0 00000000 		.4byte	.LFB127
 4303 00a4 A4010000 		.4byte	.LFE127
 4304 00a8 00000000 		.4byte	.LFB120
 4305 00ac 78010000 		.4byte	.LFE120
 4306 00b0 00000000 		.4byte	.LFB128
 4307 00b4 18010000 		.4byte	.LFE128
 4308 00b8 00000000 		.4byte	.LFB129
 4309 00bc 00020000 		.4byte	.LFE129
 4310 00c0 00000000 		.4byte	.LFB130
 4311 00c4 9C000000 		.4byte	.LFE130
 4312 00c8 00000000 		.4byte	0x0
 4313 00cc 00000000 		.4byte	0x0
 4314              		.section	.debug_str,"MS",%progbits,1
 4315              	.LASF31:
 4316 0000 44494552 		.ascii	"DIER\000"
 4316      00
 4317              	.LASF10:
 4318 0005 73697A65 		.ascii	"size_t\000"
 4318      5F7400
 4319              	.LASF85:
 4320 000c 63727569 		.ascii	"cruiseCalc\000"
 4320      73654361 
 4320      6C6300
 4321              	.LASF90:
 4322 0017 737A616D 		.ascii	"szam\000"
 4322      00
 4323              	.LASF99:
 4324 001c 4D41585F 		.ascii	"MAX_D\000"
 4324      4400
 4325              	.LASF37:
ARM GAS  C:\Users\DNIEL~1\AppData\Local\Temp\ccckc6Je.s 			page 80


 4326 0022 43434D52 		.ascii	"CCMR3\000"
 4326      3300
 4327              	.LASF48:
 4328 0028 70657269 		.ascii	"period\000"
 4328      6F6400
 4329              	.LASF64:
 4330 002f 43454E54 		.ascii	"CENTER_ITEM\000"
 4330      45525F49 
 4330      54454D00 
 4331              	.LASF6:
 4332 003b 6C6F6E67 		.ascii	"long long unsigned int\000"
 4332      206C6F6E 
 4332      6720756E 
 4332      7369676E 
 4332      65642069 
 4333              	.LASF24:
 4334 0052 42617365 		.ascii	"BaseChannelVMT\000"
 4334      4368616E 
 4334      6E656C56 
 4334      4D5400
 4335              	.LASF39:
 4336 0061 43435236 		.ascii	"CCR6\000"
 4336      00
 4337              	.LASF93:
 4338 0066 49544D5F 		.ascii	"ITM_RxBuffer\000"
 4338      52784275 
 4338      66666572 
 4338      00
 4339              	.LASF35:
 4340 0073 42445452 		.ascii	"BDTR\000"
 4340      00
 4341              	.LASF56:
 4342 0078 66726571 		.ascii	"frequency\000"
 4342      75656E63 
 4342      7900
 4343              	.LASF43:
 4344 0082 50574D5F 		.ascii	"PWM_READY\000"
 4344      52454144 
 4344      5900
 4345              	.LASF28:
 4346 008c 72656164 		.ascii	"readt\000"
 4346      7400
 4347              	.LASF12:
 4348 0092 696E7431 		.ascii	"int16_t\000"
 4348      365F7400 
 4349              	.LASF33:
 4350 009a 43434D52 		.ascii	"CCMR2\000"
 4350      3200
 4351              	.LASF30:
 4352 00a0 534D4352 		.ascii	"SMCR\000"
 4352      00
 4353              	.LASF0:
 4354 00a5 7369676E 		.ascii	"signed char\000"
 4354      65642063 
 4354      68617200 
 4355              	.LASF40:
 4356 00b1 73746D33 		.ascii	"stm32_tim_t\000"
ARM GAS  C:\Users\DNIEL~1\AppData\Local\Temp\ccckc6Je.s 			page 81


 4356      325F7469 
 4356      6D5F7400 
 4357              	.LASF16:
 4358 00bd 626F6F6C 		.ascii	"bool_t\000"
 4358      5F7400
 4359              	.LASF108:
 4360 00c4 433A5C44 		.ascii	"C:\\Dani\\MegaLux\\Repo\\Smarty\\Smarty\\smarty\\fi"
 4360      616E695C 
 4360      4D656761 
 4360      4C75785C 
 4360      5265706F 
 4361 00f0 726D7761 		.ascii	"rmware\000"
 4361      726500
 4362              	.LASF46:
 4363 00f7 73746174 		.ascii	"state\000"
 4363      6500
 4364              	.LASF57:
 4365 00fd 6368616E 		.ascii	"channels\000"
 4365      6E656C73 
 4365      00
 4366              	.LASF7:
 4367 0106 6C6F6E67 		.ascii	"long int\000"
 4367      20696E74 
 4367      00
 4368              	.LASF26:
 4369 010f 67657474 		.ascii	"gett\000"
 4369      00
 4370              	.LASF61:
 4371 0114 5F5F7661 		.ascii	"__va_list\000"
 4371      5F6C6973 
 4371      7400
 4372              	.LASF34:
 4373 011e 43434552 		.ascii	"CCER\000"
 4373      00
 4374              	.LASF5:
 4375 0123 6C6F6E67 		.ascii	"long long int\000"
 4375      206C6F6E 
 4375      6720696E 
 4375      7400
 4376              	.LASF13:
 4377 0131 75696E74 		.ascii	"uint16_t\000"
 4377      31365F74 
 4377      00
 4378              	.LASF94:
 4379 013a 50574D44 		.ascii	"PWMD5\000"
 4379      3500
 4380              	.LASF71:
 4381 0140 63727569 		.ascii	"cruiseEnable\000"
 4381      7365456E 
 4381      61626C65 
 4381      00
 4382              	.LASF62:
 4383 014d 76615F6C 		.ascii	"va_list\000"
 4383      69737400 
 4384              	.LASF22:
 4385 0155 42617365 		.ascii	"BaseSequentialStream\000"
 4385      53657175 
ARM GAS  C:\Users\DNIEL~1\AppData\Local\Temp\ccckc6Je.s 			page 82


 4385      656E7469 
 4385      616C5374 
 4385      7265616D 
 4386              	.LASF4:
 4387 016a 756E7369 		.ascii	"unsigned int\000"
 4387      676E6564 
 4387      20696E74 
 4387      00
 4388              	.LASF65:
 4389 0177 4C415354 		.ascii	"LAST_ITEM\000"
 4389      5F495445 
 4389      4D00
 4390              	.LASF101:
 4391 0181 63727569 		.ascii	"cruise_on\000"
 4391      73655F6F 
 4391      6E00
 4392              	.LASF8:
 4393 018b 6C6F6E67 		.ascii	"long unsigned int\000"
 4393      20756E73 
 4393      69676E65 
 4393      6420696E 
 4393      7400
 4394              	.LASF105:
 4395 019d 63727569 		.ascii	"cruise_pwmcfg\000"
 4395      73655F70 
 4395      776D6366 
 4395      6700
 4396              	.LASF96:
 4397 01ab 4D494E5F 		.ascii	"MIN_U\000"
 4397      5500
 4398              	.LASF91:
 4399 01b1 636D645F 		.ascii	"cmd_cruise\000"
 4399      63727569 
 4399      736500
 4400              	.LASF51:
 4401 01bc 70776D6D 		.ascii	"pwmmode_t\000"
 4401      6F64655F 
 4401      7400
 4402              	.LASF77:
 4403 01c6 63727569 		.ascii	"cruiseGet\000"
 4403      73654765 
 4403      7400
 4404              	.LASF70:
 4405 01d0 6E616D65 		.ascii	"name\000"
 4405      00
 4406              	.LASF113:
 4407 01d5 65657072 		.ascii	"eepromitems\000"
 4407      6F6D6974 
 4407      656D7300 
 4408              	.LASF69:
 4409 01e1 73697A65 		.ascii	"size\000"
 4409      00
 4410              	.LASF3:
 4411 01e6 73686F72 		.ascii	"short unsigned int\000"
 4411      7420756E 
 4411      7369676E 
 4411      65642069 
ARM GAS  C:\Users\DNIEL~1\AppData\Local\Temp\ccckc6Je.s 			page 83


 4411      6E7400
 4412              	.LASF82:
 4413 01f9 4D617849 		.ascii	"MaxI\000"
 4413      00
 4414              	.LASF89:
 4415 01fe 636D645F 		.ascii	"cmd_setcruisevalues\000"
 4415      73657463 
 4415      72756973 
 4415      6576616C 
 4415      75657300 
 4416              	.LASF18:
 4417 0212 6D73675F 		.ascii	"msg_t\000"
 4417      7400
 4418              	.LASF98:
 4419 0218 4D41585F 		.ascii	"MAX_I\000"
 4419      4900
 4420              	.LASF54:
 4421 021e 63616C6C 		.ascii	"callback\000"
 4421      6261636B 
 4421      00
 4422              	.LASF27:
 4423 0227 77726974 		.ascii	"writet\000"
 4423      657400
 4424              	.LASF97:
 4425 022e 4D41585F 		.ascii	"MAX_P\000"
 4425      5000
 4426              	.LASF95:
 4427 0234 4D41585F 		.ascii	"MAX_U\000"
 4427      5500
 4428              	.LASF72:
 4429 023a 63727569 		.ascii	"cruiseDisable\000"
 4429      73654469 
 4429      7361626C 
 4429      6500
 4430              	.LASF20:
 4431 0248 77726974 		.ascii	"write\000"
 4431      6500
 4432              	.LASF25:
 4433 024e 70757474 		.ascii	"putt\000"
 4433      00
 4434              	.LASF67:
 4435 0253 65657072 		.ascii	"eepromItem\000"
 4435      6F6D4974 
 4435      656D00
 4436              	.LASF83:
 4437 025e 4D617844 		.ascii	"MaxD\000"
 4437      00
 4438              	.LASF92:
 4439 0263 4552524F 		.ascii	"ERROR\000"
 4439      5200
 4440              	.LASF68:
 4441 0269 61646472 		.ascii	"address\000"
 4441      65737300 
 4442              	.LASF60:
 4443 0271 5F5F676E 		.ascii	"__gnuc_va_list\000"
 4443      75635F76 
 4443      615F6C69 
ARM GAS  C:\Users\DNIEL~1\AppData\Local\Temp\ccckc6Je.s 			page 84


 4443      737400
 4444              	.LASF81:
 4445 0280 4D617850 		.ascii	"MaxP\000"
 4445      00
 4446              	.LASF66:
 4447 0285 45455052 		.ascii	"EEPROM_ITEMS_NUM\000"
 4447      4F4D5F49 
 4447      54454D53 
 4447      5F4E554D 
 4447      00
 4448              	.LASF79:
 4449 0296 4D617855 		.ascii	"MaxU\000"
 4449      00
 4450              	.LASF107:
 4451 029b 7372632F 		.ascii	"src/cruise.c\000"
 4451      63727569 
 4451      73652E63 
 4451      00
 4452              	.LASF78:
 4453 02a8 496E7075 		.ascii	"Input\000"
 4453      7400
 4454              	.LASF50:
 4455 02ae 70776D63 		.ascii	"pwmcallback_t\000"
 4455      616C6C62 
 4455      61636B5F 
 4455      7400
 4456              	.LASF110:
 4457 02bc 65657072 		.ascii	"eepromItemNames\000"
 4457      6F6D4974 
 4457      656D4E61 
 4457      6D657300 
 4458              	.LASF102:
 4459 02cc 6F6C645F 		.ascii	"old_set\000"
 4459      73657400 
 4460              	.LASF17:
 4461 02d4 5F426F6F 		.ascii	"_Bool\000"
 4461      6C00
 4462              	.LASF14:
 4463 02da 696E7433 		.ascii	"int32_t\000"
 4463      325F7400 
 4464              	.LASF1:
 4465 02e2 756E7369 		.ascii	"unsigned char\000"
 4465      676E6564 
 4465      20636861 
 4465      7200
 4466              	.LASF80:
 4467 02f0 4D696E55 		.ascii	"MinU\000"
 4467      00
 4468              	.LASF84:
 4469 02f5 63727569 		.ascii	"cruiseInit\000"
 4469      7365496E 
 4469      697400
 4470              	.LASF2:
 4471 0300 73686F72 		.ascii	"short int\000"
 4471      7420696E 
 4471      7400
 4472              	.LASF23:
ARM GAS  C:\Users\DNIEL~1\AppData\Local\Temp\ccckc6Je.s 			page 85


 4473 030a 42617365 		.ascii	"BaseSequentialStreamVMT\000"
 4473      53657175 
 4473      656E7469 
 4473      616C5374 
 4473      7265616D 
 4474              	.LASF86:
 4475 0322 636D645F 		.ascii	"cmd_cruisevalues\000"
 4475      63727569 
 4475      73657661 
 4475      6C756573 
 4475      00
 4476              	.LASF15:
 4477 0333 75696E74 		.ascii	"uint32_t\000"
 4477      33325F74 
 4477      00
 4478              	.LASF75:
 4479 033c 63727569 		.ascii	"cruiseReduction\000"
 4479      73655265 
 4479      64756374 
 4479      696F6E00 
 4480              	.LASF59:
 4481 034c 50574D43 		.ascii	"PWMConfig\000"
 4481      6F6E6669 
 4481      6700
 4482              	.LASF42:
 4483 0356 50574D5F 		.ascii	"PWM_STOP\000"
 4483      53544F50 
 4483      00
 4484              	.LASF9:
 4485 035f 63686172 		.ascii	"char\000"
 4485      00
 4486              	.LASF53:
 4487 0364 6D6F6465 		.ascii	"mode\000"
 4487      00
 4488              	.LASF74:
 4489 0369 63727569 		.ascii	"cruiseIncrease\000"
 4489      7365496E 
 4489      63726561 
 4489      736500
 4490              	.LASF47:
 4491 0378 636F6E66 		.ascii	"config\000"
 4491      696700
 4492              	.LASF63:
 4493 037f 43525549 		.ascii	"CRUISE_CONTROLL\000"
 4493      53455F43 
 4493      4F4E5452 
 4493      4F4C4C00 
 4494              	.LASF36:
 4495 038f 444D4152 		.ascii	"DMAR\000"
 4495      00
 4496              	.LASF19:
 4497 0394 73797374 		.ascii	"systime_t\000"
 4497      696D655F 
 4497      7400
 4498              	.LASF104:
 4499 039e 65657072 		.ascii	"eeprom_write\000"
 4499      6F6D5F77 
ARM GAS  C:\Users\DNIEL~1\AppData\Local\Temp\ccckc6Je.s 			page 86


 4499      72697465 
 4499      00
 4500              	.LASF109:
 4501 03ab 5F5F6170 		.ascii	"__ap\000"
 4501      00
 4502              	.LASF32:
 4503 03b0 43434D52 		.ascii	"CCMR1\000"
 4503      3100
 4504              	.LASF55:
 4505 03b6 50574D43 		.ascii	"PWMChannelConfig\000"
 4505      68616E6E 
 4505      656C436F 
 4505      6E666967 
 4505      00
 4506              	.LASF38:
 4507 03c7 43435235 		.ascii	"CCR5\000"
 4507      00
 4508              	.LASF100:
 4509 03cc 65656C6F 		.ascii	"eelozo\000"
 4509      7A6F00
 4510              	.LASF11:
 4511 03d3 75696E74 		.ascii	"uint8_t\000"
 4511      385F7400 
 4512              	.LASF45:
 4513 03db 50574D44 		.ascii	"PWMDriver\000"
 4513      72697665 
 4513      7200
 4514              	.LASF29:
 4515 03e5 42617365 		.ascii	"BaseChannel\000"
 4515      4368616E 
 4515      6E656C00 
 4516              	.LASF44:
 4517 03f1 70776D73 		.ascii	"pwmstate_t\000"
 4517      74617465 
 4517      5F7400
 4518              	.LASF52:
 4519 03fc 70776D63 		.ascii	"pwmcnt_t\000"
 4519      6E745F74 
 4519      00
 4520              	.LASF21:
 4521 0405 72656164 		.ascii	"read\000"
 4521      00
 4522              	.LASF106:
 4523 040a 474E5520 		.ascii	"GNU C 4.5.2\000"
 4523      4320342E 
 4523      352E3200 
 4524              	.LASF76:
 4525 0416 63727569 		.ascii	"cruiseStatus\000"
 4525      73655374 
 4525      61747573 
 4525      00
 4526              	.LASF87:
 4527 0423 61726763 		.ascii	"argc\000"
 4527      00
 4528              	.LASF49:
 4529 0428 636C6F63 		.ascii	"clock\000"
 4529      6B00
ARM GAS  C:\Users\DNIEL~1\AppData\Local\Temp\ccckc6Je.s 			page 87


 4530              	.LASF103:
 4531 042e 65657072 		.ascii	"eeprom_read_period\000"
 4531      6F6D5F72 
 4531      6561645F 
 4531      70657269 
 4531      6F6400
 4532              	.LASF88:
 4533 0441 61726776 		.ascii	"argv\000"
 4533      00
 4534              	.LASF112:
 4535 0446 63727569 		.ascii	"cruisePID\000"
 4535      73655049 
 4535      4400
 4536              	.LASF41:
 4537 0450 50574D5F 		.ascii	"PWM_UNINIT\000"
 4537      554E494E 
 4537      495400
 4538              	.LASF73:
 4539 045b 646F7562 		.ascii	"double\000"
 4539      6C6500
 4540              	.LASF58:
 4541 0462 64696572 		.ascii	"dier\000"
 4541      00
 4542              	.LASF111:
 4543 0467 63687072 		.ascii	"chprintf\000"
 4543      696E7466 
 4543      00
 4544              		.ident	"GCC: (Sourcery G++ Lite 2011.03-42) 4.5.2"
ARM GAS  C:\Users\DNIEL~1\AppData\Local\Temp\ccckc6Je.s 			page 88


DEFINED SYMBOLS
                            *ABS*:00000000 cruise.c
C:\Users\DNIEL~1\AppData\Local\Temp\ccckc6Je.s:24     .text.chprintf:00000000 $t
C:\Users\DNIEL~1\AppData\Local\Temp\ccckc6Je.s:29     .text.chprintf:00000000 chprintf
C:\Users\DNIEL~1\AppData\Local\Temp\ccckc6Je.s:69     .text.cruiseInit:00000000 $t
C:\Users\DNIEL~1\AppData\Local\Temp\ccckc6Je.s:75     .text.cruiseInit:00000000 cruiseInit
C:\Users\DNIEL~1\AppData\Local\Temp\ccckc6Je.s:176    .text.cruiseInit:00000088 $d
C:\Users\DNIEL~1\AppData\Local\Temp\ccckc6Je.s:198    .text.cruiseEnable:00000000 $t
C:\Users\DNIEL~1\AppData\Local\Temp\ccckc6Je.s:204    .text.cruiseEnable:00000000 cruiseEnable
C:\Users\DNIEL~1\AppData\Local\Temp\ccckc6Je.s:220    .text.cruiseEnable:00000008 $d
C:\Users\DNIEL~1\AppData\Local\Temp\ccckc6Je.s:225    .text.cruiseDisable:00000000 $t
C:\Users\DNIEL~1\AppData\Local\Temp\ccckc6Je.s:231    .text.cruiseDisable:00000000 cruiseDisable
C:\Users\DNIEL~1\AppData\Local\Temp\ccckc6Je.s:247    .text.cruiseDisable:00000008 $d
C:\Users\DNIEL~1\AppData\Local\Temp\ccckc6Je.s:252    .text.cruiseStatus:00000000 $t
C:\Users\DNIEL~1\AppData\Local\Temp\ccckc6Je.s:258    .text.cruiseStatus:00000000 cruiseStatus
C:\Users\DNIEL~1\AppData\Local\Temp\ccckc6Je.s:273    .text.cruiseStatus:00000008 $d
C:\Users\DNIEL~1\AppData\Local\Temp\ccckc6Je.s:281    .text.cruiseIncrease:00000000 $t
C:\Users\DNIEL~1\AppData\Local\Temp\ccckc6Je.s:287    .text.cruiseIncrease:00000000 cruiseIncrease
C:\Users\DNIEL~1\AppData\Local\Temp\ccckc6Je.s:342    .text.cruiseIncrease:00000048 $d
C:\Users\DNIEL~1\AppData\Local\Temp\ccckc6Je.s:350    .text.cruiseReduction:00000000 $t
C:\Users\DNIEL~1\AppData\Local\Temp\ccckc6Je.s:356    .text.cruiseReduction:00000000 cruiseReduction
C:\Users\DNIEL~1\AppData\Local\Temp\ccckc6Je.s:392    .text.cruiseReduction:00000028 $d
C:\Users\DNIEL~1\AppData\Local\Temp\ccckc6Je.s:397    .text.cruiseGet:00000000 $t
C:\Users\DNIEL~1\AppData\Local\Temp\ccckc6Je.s:403    .text.cruiseGet:00000000 cruiseGet
C:\Users\DNIEL~1\AppData\Local\Temp\ccckc6Je.s:425    .text.cruiseGet:00000014 $d
C:\Users\DNIEL~1\AppData\Local\Temp\ccckc6Je.s:433    .text.cruisePID:00000000 $t
C:\Users\DNIEL~1\AppData\Local\Temp\ccckc6Je.s:439    .text.cruisePID:00000000 cruisePID
C:\Users\DNIEL~1\AppData\Local\Temp\ccckc6Je.s:641    .text.cruisePID:0000018c $d
C:\Users\DNIEL~1\AppData\Local\Temp\ccckc6Je.s:651    .text.cruiseCalc:00000000 $t
C:\Users\DNIEL~1\AppData\Local\Temp\ccckc6Je.s:657    .text.cruiseCalc:00000000 cruiseCalc
C:\Users\DNIEL~1\AppData\Local\Temp\ccckc6Je.s:816    .text.cruiseCalc:00000120 $d
C:\Users\DNIEL~1\AppData\Local\Temp\ccckc6Je.s:842    .text.cmd_cruisevalues:00000000 $t
C:\Users\DNIEL~1\AppData\Local\Temp\ccckc6Je.s:848    .text.cmd_cruisevalues:00000000 cmd_cruisevalues
C:\Users\DNIEL~1\AppData\Local\Temp\ccckc6Je.s:966    .text.cmd_cruisevalues:000000cc $d
C:\Users\DNIEL~1\AppData\Local\Temp\ccckc6Je.s:989    .text.cmd_setcruisevalues:00000000 $t
C:\Users\DNIEL~1\AppData\Local\Temp\ccckc6Je.s:995    .text.cmd_setcruisevalues:00000000 cmd_setcruisevalues
C:\Users\DNIEL~1\AppData\Local\Temp\ccckc6Je.s:1272   .text.cmd_setcruisevalues:00000198 $d
C:\Users\DNIEL~1\AppData\Local\Temp\ccckc6Je.s:1302   .text.cmd_cruise:00000000 $t
C:\Users\DNIEL~1\AppData\Local\Temp\ccckc6Je.s:1308   .text.cmd_cruise:00000000 cmd_cruise
C:\Users\DNIEL~1\AppData\Local\Temp\ccckc6Je.s:1417   .text.cmd_cruise:00000074 $d
C:\Users\DNIEL~1\AppData\Local\Temp\ccckc6Je.s:1431   .bss.P:00000000 $d
C:\Users\DNIEL~1\AppData\Local\Temp\ccckc6Je.s:1435   .bss.P:00000000 P
C:\Users\DNIEL~1\AppData\Local\Temp\ccckc6Je.s:1438   .data.K_D:00000000 $d
C:\Users\DNIEL~1\AppData\Local\Temp\ccckc6Je.s:1442   .data.K_D:00000000 K_D
C:\Users\DNIEL~1\AppData\Local\Temp\ccckc6Je.s:1445   .data.K_P:00000000 $d
C:\Users\DNIEL~1\AppData\Local\Temp\ccckc6Je.s:1449   .data.K_P:00000000 K_P
C:\Users\DNIEL~1\AppData\Local\Temp\ccckc6Je.s:1455   .bss.eeprom_write:00000000 eeprom_write
C:\Users\DNIEL~1\AppData\Local\Temp\ccckc6Je.s:1456   .bss.eeprom_write:00000000 $d
C:\Users\DNIEL~1\AppData\Local\Temp\ccckc6Je.s:1458   .bss.U:00000000 $d
C:\Users\DNIEL~1\AppData\Local\Temp\ccckc6Je.s:1462   .bss.U:00000000 U
C:\Users\DNIEL~1\AppData\Local\Temp\ccckc6Je.s:1465   .bss.set:00000000 $d
C:\Users\DNIEL~1\AppData\Local\Temp\ccckc6Je.s:1469   .bss.set:00000000 set
C:\Users\DNIEL~1\AppData\Local\Temp\ccckc6Je.s:1472   .data.K_I:00000000 $d
C:\Users\DNIEL~1\AppData\Local\Temp\ccckc6Je.s:1476   .data.K_I:00000000 K_I
C:\Users\DNIEL~1\AppData\Local\Temp\ccckc6Je.s:1479   .bss.old_set:00000000 $d
C:\Users\DNIEL~1\AppData\Local\Temp\ccckc6Je.s:1483   .bss.old_set:00000000 old_set
C:\Users\DNIEL~1\AppData\Local\Temp\ccckc6Je.s:1486   .rodata.str1.4:00000000 $d
ARM GAS  C:\Users\DNIEL~1\AppData\Local\Temp\ccckc6Je.s 			page 89


C:\Users\DNIEL~1\AppData\Local\Temp\ccckc6Je.s:1557   .bss.pwm:00000000 $d
C:\Users\DNIEL~1\AppData\Local\Temp\ccckc6Je.s:1561   .bss.pwm:00000000 pwm
C:\Users\DNIEL~1\AppData\Local\Temp\ccckc6Je.s:1564   .data.cruise_pwmcfg:00000000 $d
C:\Users\DNIEL~1\AppData\Local\Temp\ccckc6Je.s:1568   .data.cruise_pwmcfg:00000000 cruise_pwmcfg
C:\Users\DNIEL~1\AppData\Local\Temp\ccckc6Je.s:1584   .bss.eeprom_read_period:00000000 $d
C:\Users\DNIEL~1\AppData\Local\Temp\ccckc6Je.s:1588   .bss.eeprom_read_period:00000000 eeprom_read_period
C:\Users\DNIEL~1\AppData\Local\Temp\ccckc6Je.s:1594   .bss.cruise_on:00000000 cruise_on
C:\Users\DNIEL~1\AppData\Local\Temp\ccckc6Je.s:1595   .bss.cruise_on:00000000 $d
C:\Users\DNIEL~1\AppData\Local\Temp\ccckc6Je.s:1597   .bss.D:00000000 $d
C:\Users\DNIEL~1\AppData\Local\Temp\ccckc6Je.s:1601   .bss.D:00000000 D
C:\Users\DNIEL~1\AppData\Local\Temp\ccckc6Je.s:1604   .bss.e:00000000 $d
C:\Users\DNIEL~1\AppData\Local\Temp\ccckc6Je.s:1608   .bss.e:00000000 e
C:\Users\DNIEL~1\AppData\Local\Temp\ccckc6Je.s:1611   .bss.eelozo:00000000 $d
C:\Users\DNIEL~1\AppData\Local\Temp\ccckc6Je.s:1615   .bss.eelozo:00000000 eelozo
C:\Users\DNIEL~1\AppData\Local\Temp\ccckc6Je.s:1618   .bss.I:00000000 $d
C:\Users\DNIEL~1\AppData\Local\Temp\ccckc6Je.s:1622   .bss.I:00000000 I
                     .debug_frame:00000010 $d
C:\Users\DNIEL~1\AppData\Local\Temp\ccckc6Je.s:224    .text.cruiseEnable:0000000c $t
C:\Users\DNIEL~1\AppData\Local\Temp\ccckc6Je.s:251    .text.cruiseDisable:0000000c $t
C:\Users\DNIEL~1\AppData\Local\Temp\ccckc6Je.s:280    .text.cruiseStatus:0000000c $t
C:\Users\DNIEL~1\AppData\Local\Temp\ccckc6Je.s:349    .text.cruiseIncrease:00000054 $t
C:\Users\DNIEL~1\AppData\Local\Temp\ccckc6Je.s:396    .text.cruiseReduction:0000002c $t
C:\Users\DNIEL~1\AppData\Local\Temp\ccckc6Je.s:432    .text.cruiseGet:00000018 $t
C:\Users\DNIEL~1\AppData\Local\Temp\ccckc6Je.s:650    .text.cruisePID:000001a4 $t
C:\Users\DNIEL~1\AppData\Local\Temp\ccckc6Je.s:841    .text.cruiseCalc:00000178 $t
C:\Users\DNIEL~1\AppData\Local\Temp\ccckc6Je.s:988    .text.cmd_cruisevalues:00000118 $t
C:\Users\DNIEL~1\AppData\Local\Temp\ccckc6Je.s:1430   .text.cmd_cruise:0000009c $t

UNDEFINED SYMBOLS
chvprintf
eepromRead
pwmStart
speedKMPH_TO_RPM
PWMD5
__aeabi_i2d
__aeabi_dadd
__aeabi_d2iz
__aeabi_dsub
speedRPM_TO_KMPH
__aeabi_dmul
__aeabi_dcmpgt
__aeabi_dcmplt
pwmEnableChannel
eepromWrite
speedGetRpm
chThdSleep
strcmp
atol
