ARM GAS  C:\Users\srich\AppData\Local\Temp\ccv3JVxh.s 			page 1


   1              		.syntax unified
   2              		.cpu cortex-m4
   3              		.fpu softvfp
   4              		.eabi_attribute 20, 1
   5              		.eabi_attribute 21, 1
   6              		.eabi_attribute 23, 3
   7              		.eabi_attribute 24, 1
   8              		.eabi_attribute 25, 1
   9              		.eabi_attribute 26, 1
  10              		.eabi_attribute 30, 2
  11              		.eabi_attribute 34, 1
  12              		.eabi_attribute 18, 4
  13              		.thumb
  14              		.file	"dsp.c"
  15              		.text
  16              	.Ltext0:
  17              		.cfi_sections	.debug_frame
  18              		.section	.text.DSPReader,"ax",%progbits
  19              		.align	2
  20              		.p2align 4,,15
  21              		.thumb
  22              		.thumb_func
  23              		.type	DSPReader, %function
  24              	DSPReader:
  25              	.LFB132:
  26              		.file 1 "src/dsp.c"
  27              		.loc 1 549 0
  28              		.cfi_startproc
  29              		@ args = 0, pretend = 0, frame = 0
  30              		@ frame_needed = 0, uses_anonymous_args = 0
  31              	.LVL0:
  32 0000 38B5     		push	{r3, r4, r5, lr}
  33              		.cfi_def_cfa_offset 16
  34              		.cfi_offset 3, -16
  35              		.cfi_offset 4, -12
  36              		.cfi_offset 5, -8
  37              		.cfi_offset 14, -4
  38              		.loc 1 553 0
  39 0002 084B     		ldr	r3, .L9
  40              		.loc 1 554 0
  41 0004 0849     		ldr	r1, .L9+4
  42              		.loc 1 553 0
  43 0006 9B69     		ldr	r3, [r3, #24]
  44 0008 084A     		ldr	r2, .L9+8
  45              		.loc 1 554 0
  46 000a CC68     		ldr	r4, [r1, #12]
  47              	.LVL1:
  48 000c 084D     		ldr	r5, .L9+12
  49              		.loc 1 553 0
  50 000e 9A61     		str	r2, [r3, #24]
  51              	.LVL2:
  52              	.L3:
  53              	.LBB86:
  54              		.loc 1 557 0
  55 0010 FFF7FEFF 		bl	bus_Read
  56              	.LVL3:
  57              		.loc 1 556 0
ARM GAS  C:\Users\srich\AppData\Local\Temp\ccv3JVxh.s 			page 2


  58 0014 3234     		adds	r4, r4, #50
  59              	.LVL4:
  60              		.loc 1 558 0
  61 0016 00B1     		cbz	r0, .L2
  62              		.loc 1 559 0
  63 0018 2870     		strb	r0, [r5]
  64              	.L2:
  65              		.loc 1 561 0
  66 001a 2046     		mov	r0, r4
  67              	.LVL5:
  68 001c FFF7FEFF 		bl	chThdSleepUntil
  69              	.LVL6:
  70              	.LBE86:
  71              		.loc 1 562 0
  72 0020 F6E7     		b	.L3
  73              	.L10:
  74 0022 00BF     		.align	2
  75              	.L9:
  76 0024 00000000 		.word	rlist
  77 0028 00000000 		.word	vtlist
  78 002c 00000000 		.word	.LC0
  79 0030 00000000 		.word	.LANCHOR0
  80              		.cfi_endproc
  81              	.LFE132:
  82              		.size	DSPReader, .-DSPReader
  83              		.section	.text.chprintf,"ax",%progbits
  84              		.align	2
  85              		.p2align 4,,15
  86              		.thumb
  87              		.thumb_func
  88              		.type	chprintf, %function
  89              	chprintf:
  90              	.LFB118:
  91              		.file 2 "../../../ChibiOS/os/various/chprintf.h"
  92              		.loc 2 69 0
  93              		.cfi_startproc
  94              		@ args = 4, pretend = 12, frame = 8
  95              		@ frame_needed = 0, uses_anonymous_args = 1
  96              	.LVL7:
  97 0000 0EB4     		push	{r1, r2, r3}
  98              		.cfi_def_cfa_offset 12
  99              		.cfi_offset 1, -12
 100              		.cfi_offset 2, -8
 101              		.cfi_offset 3, -4
 102 0002 00B5     		push	{lr}
 103              		.cfi_def_cfa_offset 16
 104              		.cfi_offset 14, -16
 105 0004 82B0     		sub	sp, sp, #8
 106              		.cfi_def_cfa_offset 24
 107              		.loc 2 69 0
 108 0006 03AA     		add	r2, sp, #12
 109 0008 52F8041B 		ldr	r1, [r2], #4
 110              		.loc 2 72 0
 111 000c 0192     		str	r2, [sp, #4]
 112              		.loc 2 73 0
 113 000e FFF7FEFF 		bl	chvprintf
 114              	.LVL8:
ARM GAS  C:\Users\srich\AppData\Local\Temp\ccv3JVxh.s 			page 3


 115              		.loc 2 75 0
 116 0012 02B0     		add	sp, sp, #8
 117              		.cfi_def_cfa_offset 16
 118              		@ sp needed
 119 0014 5DF804EB 		ldr	lr, [sp], #4
 120              		.cfi_restore 14
 121              		.cfi_def_cfa_offset 12
 122 0018 03B0     		add	sp, sp, #12
 123              		.cfi_restore 3
 124              		.cfi_restore 2
 125              		.cfi_restore 1
 126              		.cfi_def_cfa_offset 0
 127 001a 7047     		bx	lr
 128              		.cfi_endproc
 129              	.LFE118:
 130              		.size	chprintf, .-chprintf
 131              		.section	.text.gfx_ShowPngXY,"ax",%progbits
 132              		.align	2
 133              		.p2align 4,,15
 134              		.global	gfx_ShowPngXY
 135              		.thumb
 136              		.thumb_func
 137              		.type	gfx_ShowPngXY, %function
 138              	gfx_ShowPngXY:
 139              	.LFB119:
 140              		.loc 1 45 0
 141              		.cfi_startproc
 142              		@ args = 0, pretend = 0, frame = 0
 143              		@ frame_needed = 0, uses_anonymous_args = 0
 144              	.LVL9:
 145 0000 38B5     		push	{r3, r4, r5, lr}
 146              		.cfi_def_cfa_offset 16
 147              		.cfi_offset 3, -16
 148              		.cfi_offset 4, -12
 149              		.cfi_offset 5, -8
 150              		.cfi_offset 14, -4
 151              		.loc 1 45 0
 152 0002 0D46     		mov	r5, r1
 153 0004 1446     		mov	r4, r2
 154              		.loc 1 46 0
 155 0006 0146     		mov	r1, r0
 156              	.LVL10:
 157 0008 0020     		movs	r0, #0
 158              	.LVL11:
 159 000a FFF7FEFF 		bl	media_SetSector
 160              	.LVL12:
 161              		.loc 1 47 0
 162 000e 2846     		mov	r0, r5
 163 0010 2146     		mov	r1, r4
 164              		.loc 1 48 0
 165 0012 BDE83840 		pop	{r3, r4, r5, lr}
 166              		.cfi_restore 14
 167              		.cfi_restore 5
 168              		.cfi_restore 4
 169              		.cfi_restore 3
 170              		.cfi_def_cfa_offset 0
 171              	.LVL13:
ARM GAS  C:\Users\srich\AppData\Local\Temp\ccv3JVxh.s 			page 4


 172              		.loc 1 47 0
 173 0016 FFF7FEBF 		b	media_Image
 174              	.LVL14:
 175              		.cfi_endproc
 176              	.LFE119:
 177              		.size	gfx_ShowPngXY, .-gfx_ShowPngXY
 178 001a 00BF     		.section	.text.gfx_ShowGifXY,"ax",%progbits
 179              		.align	2
 180              		.p2align 4,,15
 181              		.global	gfx_ShowGifXY
 182              		.thumb
 183              		.thumb_func
 184              		.type	gfx_ShowGifXY, %function
 185              	gfx_ShowGifXY:
 186              	.LFB120:
 187              		.loc 1 53 0
 188              		.cfi_startproc
 189              		@ args = 0, pretend = 0, frame = 0
 190              		@ frame_needed = 0, uses_anonymous_args = 0
 191              	.LVL15:
 192 0000 70B5     		push	{r4, r5, r6, lr}
 193              		.cfi_def_cfa_offset 16
 194              		.cfi_offset 4, -16
 195              		.cfi_offset 5, -12
 196              		.cfi_offset 6, -8
 197              		.cfi_offset 14, -4
 198              		.loc 1 53 0
 199 0002 1546     		mov	r5, r2
 200 0004 0E46     		mov	r6, r1
 201 0006 1C46     		mov	r4, r3
 202              		.loc 1 54 0
 203 0008 0146     		mov	r1, r0
 204              	.LVL16:
 205 000a 0020     		movs	r0, #0
 206              	.LVL17:
 207 000c FFF7FEFF 		bl	media_SetSector
 208              	.LVL18:
 209              		.loc 1 55 0
 210 0010 3046     		mov	r0, r6
 211 0012 2946     		mov	r1, r5
 212 0014 2246     		mov	r2, r4
 213              		.loc 1 56 0
 214 0016 BDE87040 		pop	{r4, r5, r6, lr}
 215              		.cfi_restore 14
 216              		.cfi_restore 6
 217              		.cfi_restore 5
 218              		.cfi_restore 4
 219              		.cfi_def_cfa_offset 0
 220              	.LVL19:
 221              		.loc 1 55 0
 222 001a FFF7FEBF 		b	media_VideoFrame
 223              	.LVL20:
 224              		.cfi_endproc
 225              	.LFE120:
 226              		.size	gfx_ShowGifXY, .-gfx_ShowGifXY
 227 001e 00BF     		.section	.text.ConvertToBcd,"ax",%progbits
 228              		.align	2
ARM GAS  C:\Users\srich\AppData\Local\Temp\ccv3JVxh.s 			page 5


 229              		.p2align 4,,15
 230              		.global	ConvertToBcd
 231              		.thumb
 232              		.thumb_func
 233              		.type	ConvertToBcd, %function
 234              	ConvertToBcd:
 235              	.LFB121:
 236              		.loc 1 58 0
 237              		.cfi_startproc
 238              		@ args = 0, pretend = 0, frame = 0
 239              		@ frame_needed = 0, uses_anonymous_args = 0
 240              		@ link register save eliminated.
 241              	.LVL21:
 242              		.loc 1 64 0
 243 0000 1A4B     		ldr	r3, .L26
 244              		.loc 1 65 0
 245 0002 1B4A     		ldr	r2, .L26+4
 246              		.loc 1 58 0
 247 0004 70B4     		push	{r4, r5, r6}
 248              		.cfi_def_cfa_offset 12
 249              		.cfi_offset 4, -12
 250              		.cfi_offset 5, -8
 251              		.cfi_offset 6, -4
 252              		.loc 1 64 0
 253 0006 83FB0063 		smull	r6, r3, r3, r0
 254 000a C617     		asrs	r6, r0, #31
 255              		.loc 1 66 0
 256 000c 194C     		ldr	r4, .L26+8
 257              		.loc 1 68 0
 258 000e 1A4D     		ldr	r5, .L26+12
 259              		.loc 1 64 0
 260 0010 C6EBA313 		rsb	r3, r6, r3, asr #6
 261              	.LVL22:
 262              		.loc 1 65 0
 263 0014 02FB0300 		mla	r0, r2, r3, r0
 264              	.LVL23:
 265              		.loc 1 66 0
 266 0018 84FB0042 		smull	r4, r2, r4, r0
 267 001c C417     		asrs	r4, r0, #31
 268 001e C4EB6214 		rsb	r4, r4, r2, asr #5
 269              	.LVL24:
 270              		.loc 1 67 0
 271 0022 6FF06302 		mvn	r2, #99
 272 0026 02FB0400 		mla	r0, r2, r4, r0
 273              	.LVL25:
 274              		.loc 1 68 0
 275 002a 85FB0025 		smull	r2, r5, r5, r0
 276 002e C217     		asrs	r2, r0, #31
 277 0030 C2EBA502 		rsb	r2, r2, r5, asr #2
 278              	.LVL26:
 279              		.loc 1 69 0
 280 0034 6FF00905 		mvn	r5, #9
 281              		.loc 1 72 0
 282 0038 DBB2     		uxtb	r3, r3
 283              	.LVL27:
 284              		.loc 1 69 0
 285 003a 05FB0200 		mla	r0, r5, r2, r0
ARM GAS  C:\Users\srich\AppData\Local\Temp\ccv3JVxh.s 			page 6


 286              	.LVL28:
 287              		.loc 1 72 0
 288 003e CB70     		strb	r3, [r1, #3]
 289              		.loc 1 73 0
 290 0040 8C70     		strb	r4, [r1, #2]
 291              		.loc 1 74 0
 292 0042 4A70     		strb	r2, [r1, #1]
 293              		.loc 1 75 0
 294 0044 0870     		strb	r0, [r1]
 295              	.LVL29:
 296              		.loc 1 78 0
 297 0046 73B9     		cbnz	r3, .L21
 298 0048 0331     		adds	r1, r1, #3
 299              	.LVL30:
 300 004a 0320     		movs	r0, #3
 301              	.LVL31:
 302              	.L19:
 303              		.loc 1 78 0 is_stmt 0 discriminator 3
 304 004c 11F8013D 		ldrb	r3, [r1, #-1]!	@ zero_extendqisi2
 305 0050 0138     		subs	r0, r0, #1
 306              	.LVL32:
 307 0052 002B     		cmp	r3, #0
 308 0054 FAD0     		beq	.L19
 309              		.loc 1 79 0 is_stmt 1
 310 0056 0028     		cmp	r0, #0
 311 0058 02DB     		blt	.L22
 312 005a 0130     		adds	r0, r0, #1
 313              	.LVL33:
 314              	.L20:
 315              		.loc 1 80 0 discriminator 4
 316 005c 70BC     		pop	{r4, r5, r6}
 317              		.cfi_remember_state
 318              		.cfi_restore 6
 319              		.cfi_restore 5
 320              		.cfi_restore 4
 321              		.cfi_def_cfa_offset 0
 322              	.LVL34:
 323 005e 7047     		bx	lr
 324              	.LVL35:
 325              	.L22:
 326              		.cfi_restore_state
 327              		.loc 1 79 0
 328 0060 0020     		movs	r0, #0
 329              	.LVL36:
 330              		.loc 1 80 0
 331 0062 70BC     		pop	{r4, r5, r6}
 332              		.cfi_remember_state
 333              		.cfi_restore 4
 334              		.cfi_restore 5
 335              		.cfi_restore 6
 336              		.cfi_def_cfa_offset 0
 337              	.LVL37:
 338 0064 7047     		bx	lr
 339              	.LVL38:
 340              	.L21:
 341              		.cfi_restore_state
 342              		.loc 1 78 0
ARM GAS  C:\Users\srich\AppData\Local\Temp\ccv3JVxh.s 			page 7


 343 0066 0420     		movs	r0, #4
 344              	.LVL39:
 345 0068 F8E7     		b	.L20
 346              	.L27:
 347 006a 00BF     		.align	2
 348              	.L26:
 349 006c D34D6210 		.word	274877907
 350 0070 18FCFFFF 		.word	-1000
 351 0074 1F85EB51 		.word	1374389535
 352 0078 67666666 		.word	1717986919
 353              		.cfi_endproc
 354              	.LFE121:
 355              		.size	ConvertToBcd, .-ConvertToBcd
 356              		.section	.text.gfx_PlaceNumber,"ax",%progbits
 357              		.align	2
 358              		.p2align 4,,15
 359              		.global	gfx_PlaceNumber
 360              		.thumb
 361              		.thumb_func
 362              		.type	gfx_PlaceNumber, %function
 363              	gfx_PlaceNumber:
 364              	.LFB122:
 365              		.loc 1 82 0
 366              		.cfi_startproc
 367              		@ args = 12, pretend = 0, frame = 24
 368              		@ frame_needed = 0, uses_anonymous_args = 0
 369              	.LVL40:
 370 0000 2DE9F04F 		push	{r4, r5, r6, r7, r8, r9, r10, fp, lr}
 371              		.cfi_def_cfa_offset 36
 372              		.cfi_offset 4, -36
 373              		.cfi_offset 5, -32
 374              		.cfi_offset 6, -28
 375              		.cfi_offset 7, -24
 376              		.cfi_offset 8, -20
 377              		.cfi_offset 9, -16
 378              		.cfi_offset 10, -12
 379              		.cfi_offset 11, -8
 380              		.cfi_offset 14, -4
 381 0004 87B0     		sub	sp, sp, #28
 382              		.cfi_def_cfa_offset 64
 383              		.loc 1 82 0
 384 0006 0746     		mov	r7, r0
 385 0008 BDF84040 		ldrh	r4, [sp, #64]
 386 000c 9DF84860 		ldrb	r6, [sp, #72]	@ zero_extendqisi2
 387 0010 0296     		str	r6, [sp, #8]
 388 0012 8846     		mov	r8, r1
 389              		.loc 1 86 0
 390 0014 2046     		mov	r0, r4
 391              	.LVL41:
 392 0016 05A9     		add	r1, sp, #20
 393              	.LVL42:
 394              		.loc 1 82 0
 395 0018 0194     		str	r4, [sp, #4]
 396 001a 9DF84450 		ldrb	r5, [sp, #68]	@ zero_extendqisi2
 397 001e 0092     		str	r2, [sp]
 398              	.LVL43:
 399 0020 9B46     		mov	fp, r3
ARM GAS  C:\Users\srich\AppData\Local\Temp\ccv3JVxh.s 			page 8


 400              		.loc 1 86 0
 401 0022 FFF7FEFF 		bl	ConvertToBcd
 402              	.LVL44:
 403              		.loc 1 88 0
 404 0026 061E     		subs	r6, r0, #0
 405 0028 16DD     		ble	.L33
 406 002a 0DF1140A 		add	r10, sp, #20
 407 002e 0AEB0603 		add	r3, r10, r6
 408 0032 009C     		ldr	r4, [sp]
 409 0034 0395     		str	r5, [sp, #12]
 410 0036 9946     		mov	r9, r3
 411              	.LVL45:
 412              	.L32:
 413              		.loc 1 90 0 discriminator 3
 414 0038 1AF8015B 		ldrb	r5, [r10], #1	@ zero_extendqisi2
 415              	.LVL46:
 416              	.LBB87:
 417              	.LBB88:
 418              		.loc 1 54 0 discriminator 3
 419 003c 3946     		mov	r1, r7
 420 003e 0020     		movs	r0, #0
 421 0040 FFF7FEFF 		bl	media_SetSector
 422              	.LVL47:
 423              		.loc 1 55 0 discriminator 3
 424 0044 2146     		mov	r1, r4
 425 0046 4046     		mov	r0, r8
 426 0048 2A46     		mov	r2, r5
 427 004a FFF7FEFF 		bl	media_VideoFrame
 428              	.LVL48:
 429              	.LBE88:
 430              	.LBE87:
 431              		.loc 1 88 0 discriminator 3
 432 004e CA45     		cmp	r10, r9
 433              		.loc 1 91 0 discriminator 3
 434 0050 CBEB0404 		rsb	r4, fp, r4
 435              	.LVL49:
 436              		.loc 1 88 0 discriminator 3
 437 0054 F0D1     		bne	.L32
 438 0056 039D     		ldr	r5, [sp, #12]
 439              	.LVL50:
 440              	.L33:
 441              		.loc 1 95 0
 442 0058 019B     		ldr	r3, [sp, #4]
 443 005a 03B3     		cbz	r3, .L42
 444              	.L31:
 445              		.loc 1 98 0
 446 005c 009B     		ldr	r3, [sp]
 447              		.loc 1 99 0
 448 005e 012D     		cmp	r5, #1
 449              		.loc 1 98 0
 450 0060 CBEB0309 		rsb	r9, fp, r3
 451              	.LVL51:
 452              		.loc 1 99 0
 453 0064 18DD     		ble	.L28
 454 0066 0124     		movs	r4, #1
 455 0068 DDF808A0 		ldr	r10, [sp, #8]
 456 006c 03E0     		b	.L34
ARM GAS  C:\Users\srich\AppData\Local\Temp\ccv3JVxh.s 			page 9


 457              	.LVL52:
 458              	.L35:
 459              		.loc 1 99 0 is_stmt 0 discriminator 2
 460 006e AC42     		cmp	r4, r5
 461              		.loc 1 104 0 is_stmt 1 discriminator 2
 462 0070 CBEB0909 		rsb	r9, fp, r9
 463              	.LVL53:
 464              		.loc 1 99 0 discriminator 2
 465 0074 10D0     		beq	.L28
 466              	.LVL54:
 467              	.L34:
 468              		.loc 1 101 0
 469 0076 A642     		cmp	r6, r4
 470              		.loc 1 99 0
 471 0078 04F10104 		add	r4, r4, #1
 472              	.LVL55:
 473              		.loc 1 101 0
 474 007c F7DC     		bgt	.L35
 475              	.LVL56:
 476              	.LBB89:
 477              	.LBB90:
 478              		.loc 1 54 0
 479 007e 3946     		mov	r1, r7
 480 0080 0020     		movs	r0, #0
 481 0082 FFF7FEFF 		bl	media_SetSector
 482              	.LVL57:
 483              		.loc 1 55 0
 484 0086 4946     		mov	r1, r9
 485 0088 4046     		mov	r0, r8
 486 008a 5246     		mov	r2, r10
 487 008c FFF7FEFF 		bl	media_VideoFrame
 488              	.LVL58:
 489              	.LBE90:
 490              	.LBE89:
 491              		.loc 1 99 0
 492 0090 AC42     		cmp	r4, r5
 493              		.loc 1 104 0
 494 0092 CBEB0909 		rsb	r9, fp, r9
 495              	.LVL59:
 496              		.loc 1 99 0
 497 0096 EED1     		bne	.L34
 498              	.LVL60:
 499              	.L28:
 500              		.loc 1 106 0
 501 0098 07B0     		add	sp, sp, #28
 502              		.cfi_remember_state
 503              		.cfi_def_cfa_offset 36
 504              	.LVL61:
 505              		@ sp needed
 506 009a BDE8F08F 		pop	{r4, r5, r6, r7, r8, r9, r10, fp, pc}
 507              	.LVL62:
 508              	.L42:
 509              		.cfi_restore_state
 510              	.LBB91:
 511              	.LBB92:
 512              		.loc 1 54 0
 513 009e 019C     		ldr	r4, [sp, #4]
ARM GAS  C:\Users\srich\AppData\Local\Temp\ccv3JVxh.s 			page 10


 514 00a0 3946     		mov	r1, r7
 515 00a2 2046     		mov	r0, r4
 516 00a4 FFF7FEFF 		bl	media_SetSector
 517              	.LVL63:
 518              		.loc 1 55 0
 519 00a8 4046     		mov	r0, r8
 520 00aa 0099     		ldr	r1, [sp]
 521 00ac 2246     		mov	r2, r4
 522 00ae FFF7FEFF 		bl	media_VideoFrame
 523              	.LVL64:
 524 00b2 D3E7     		b	.L31
 525              	.LBE92:
 526              	.LBE91:
 527              		.cfi_endproc
 528              	.LFE122:
 529              		.size	gfx_PlaceNumber, .-gfx_PlaceNumber
 530              		.section	.text.LoadImages,"ax",%progbits
 531              		.align	2
 532              		.p2align 4,,15
 533              		.global	LoadImages
 534              		.thumb
 535              		.thumb_func
 536              		.type	LoadImages, %function
 537              	LoadImages:
 538              	.LFB123:
 539              		.loc 1 108 0
 540              		.cfi_startproc
 541              		@ args = 0, pretend = 0, frame = 0
 542              		@ frame_needed = 0, uses_anonymous_args = 0
 543 0000 2DE9F041 		push	{r4, r5, r6, r7, r8, lr}
 544              		.cfi_def_cfa_offset 24
 545              		.cfi_offset 4, -24
 546              		.cfi_offset 5, -20
 547              		.cfi_offset 6, -16
 548              		.cfi_offset 7, -12
 549              		.cfi_offset 8, -8
 550              		.cfi_offset 14, -4
 551              		.loc 1 110 0
 552 0004 C04B     		ldr	r3, .L46
 553 0006 9C6D     		ldr	r4, [r3, #88]
 554              		.loc 1 108 0
 555 0008 84B0     		sub	sp, sp, #16
 556              		.cfi_def_cfa_offset 40
 557              		.loc 1 110 0
 558 000a 24BB     		cbnz	r4, .L44
 559              		.loc 1 111 0
 560 000c 0120     		movs	r0, #1
 561 000e FFF7FEFF 		bl	gfx_Transparency
 562              	.LVL65:
 563              		.loc 1 112 0
 564 0012 1F20     		movs	r0, #31
 565 0014 FFF7FEFF 		bl	gfx_TransparentColour
 566              	.LVL66:
 567              	.LBB93:
 568              	.LBB94:
 569              		.loc 1 54 0
 570 0018 41F24151 		movw	r1, #5441
ARM GAS  C:\Users\srich\AppData\Local\Temp\ccv3JVxh.s 			page 11


 571 001c 2046     		mov	r0, r4
 572 001e FFF7FEFF 		bl	media_SetSector
 573              	.LVL67:
 574              		.loc 1 55 0
 575 0022 2146     		mov	r1, r4
 576 0024 2246     		mov	r2, r4
 577 0026 A220     		movs	r0, #162
 578 0028 FFF7FEFF 		bl	media_VideoFrame
 579              	.LVL68:
 580              	.LBE94:
 581              	.LBE93:
 582              		.loc 1 115 0
 583 002c 0322     		movs	r2, #3
 584 002e 0A23     		movs	r3, #10
 585 0030 0192     		str	r2, [sp, #4]
 586 0032 0293     		str	r3, [sp, #8]
 587 0034 41F23440 		movw	r0, #5172
 588 0038 D221     		movs	r1, #210
 589 003a A222     		movs	r2, #162
 590 003c 4023     		movs	r3, #64
 591 003e 0094     		str	r4, [sp]
 592 0040 FFF7FEFF 		bl	gfx_PlaceNumber
 593              	.LVL69:
 594              	.LBB95:
 595              	.LBB96:
 596              		.loc 1 46 0
 597 0044 44F68D01 		movw	r1, #18573
 598 0048 2046     		mov	r0, r4
 599 004a FFF7FEFF 		bl	media_SetSector
 600              	.LVL70:
 601              		.loc 1 47 0
 602 004e CF20     		movs	r0, #207
 603 0050 E221     		movs	r1, #226
 604 0052 FFF7FEFF 		bl	media_Image
 605              	.LVL71:
 606              	.L44:
 607              	.LBE96:
 608              	.LBE95:
 609              	.LBB97:
 610              	.LBB98:
 611              		.loc 1 54 0
 612 0056 41F21841 		movw	r1, #5144
 613 005a 0020     		movs	r0, #0
 614 005c FFF7FEFF 		bl	media_SetSector
 615              	.LVL72:
 616              		.loc 1 55 0
 617 0060 0022     		movs	r2, #0
 618 0062 0421     		movs	r1, #4
 619 0064 4FF4D970 		mov	r0, #434
 620 0068 FFF7FEFF 		bl	media_VideoFrame
 621              	.LVL73:
 622              	.LBE98:
 623              	.LBE97:
 624              	.LBB99:
 625              	.LBB100:
 626              		.loc 1 54 0
 627 006c 41F22341 		movw	r1, #5155
ARM GAS  C:\Users\srich\AppData\Local\Temp\ccv3JVxh.s 			page 12


 628 0070 0020     		movs	r0, #0
 629 0072 FFF7FEFF 		bl	media_SetSector
 630              	.LVL74:
 631              		.loc 1 55 0
 632 0076 0022     		movs	r2, #0
 633 0078 EB21     		movs	r1, #235
 634 007a 4FF4D970 		mov	r0, #434
 635 007e FFF7FEFF 		bl	media_VideoFrame
 636              	.LVL75:
 637              	.LBE100:
 638              	.LBE99:
 639              	.LBB101:
 640              	.LBB102:
 641              		.loc 1 54 0
 642 0082 41F2F131 		movw	r1, #5105
 643 0086 0020     		movs	r0, #0
 644 0088 FFF7FEFF 		bl	media_SetSector
 645              	.LVL76:
 646              		.loc 1 55 0
 647 008c 0122     		movs	r2, #1
 648 008e 0A21     		movs	r1, #10
 649 0090 4FF4BE70 		mov	r0, #380
 650 0094 FFF7FEFF 		bl	media_VideoFrame
 651              	.LVL77:
 652              	.LBE102:
 653              	.LBE101:
 654              	.LBB103:
 655              	.LBB104:
 656              		.loc 1 54 0
 657 0098 41F22F51 		movw	r1, #5423
 658 009c 0020     		movs	r0, #0
 659 009e FFF7FEFF 		bl	media_SetSector
 660              	.LVL78:
 661              		.loc 1 55 0
 662 00a2 0022     		movs	r2, #0
 663 00a4 D721     		movs	r1, #215
 664 00a6 4FF4C070 		mov	r0, #384
 665 00aa FFF7FEFF 		bl	media_VideoFrame
 666              	.LVL79:
 667              	.LBE104:
 668              	.LBE103:
 669              	.LBB105:
 670              	.LBB106:
 671              		.loc 1 54 0
 672 00ae 41F20A41 		movw	r1, #5130
 673 00b2 0020     		movs	r0, #0
 674 00b4 FFF7FEFF 		bl	media_SetSector
 675              	.LVL80:
 676              		.loc 1 55 0
 677 00b8 0022     		movs	r2, #0
 678 00ba 9821     		movs	r1, #152
 679 00bc 40F27F10 		movw	r0, #383
 680 00c0 FFF7FEFF 		bl	media_VideoFrame
 681              	.LVL81:
 682              	.LBE106:
 683              	.LBE105:
 684              	.LBB107:
ARM GAS  C:\Users\srich\AppData\Local\Temp\ccv3JVxh.s 			page 13


 685              	.LBB108:
 686              		.loc 1 54 0
 687 00c4 0020     		movs	r0, #0
 688 00c6 0146     		mov	r1, r0
 689 00c8 FFF7FEFF 		bl	media_SetSector
 690              	.LVL82:
 691              		.loc 1 55 0
 692 00cc 0022     		movs	r2, #0
 693 00ce 4E21     		movs	r1, #78
 694 00d0 4FF4C070 		mov	r0, #384
 695 00d4 FFF7FEFF 		bl	media_VideoFrame
 696              	.LVL83:
 697              	.LBE108:
 698              	.LBE107:
 699              	.LBB109:
 700              	.LBB110:
 701              		.loc 1 54 0
 702 00d8 3721     		movs	r1, #55
 703 00da 0020     		movs	r0, #0
 704 00dc FFF7FEFF 		bl	media_SetSector
 705              	.LVL84:
 706              		.loc 1 55 0
 707 00e0 0021     		movs	r1, #0
 708              	.LBE110:
 709              	.LBE109:
 710              		.loc 1 134 0
 711 00e2 0C46     		mov	r4, r1
 712 00e4 0226     		movs	r6, #2
 713              	.LBB112:
 714              	.LBB111:
 715              		.loc 1 55 0
 716 00e6 0A46     		mov	r2, r1
 717 00e8 0520     		movs	r0, #5
 718 00ea FFF7FEFF 		bl	media_VideoFrame
 719              	.LVL85:
 720              	.LBE111:
 721              	.LBE112:
 722              		.loc 1 134 0
 723 00ee 4722     		movs	r2, #71
 724 00f0 1723     		movs	r3, #23
 725 00f2 0196     		str	r6, [sp, #4]
 726 00f4 0094     		str	r4, [sp]
 727 00f6 0294     		str	r4, [sp, #8]
 728 00f8 44F66500 		movw	r0, #18533
 729 00fc 4FF4DA71 		mov	r1, #436
 730 0100 FFF7FEFF 		bl	gfx_PlaceNumber
 731              	.LVL86:
 732              	.LBB113:
 733              	.LBB114:
 734              		.loc 1 46 0
 735 0104 2046     		mov	r0, r4
 736 0106 44F68A01 		movw	r1, #18570
 737 010a FFF7FEFF 		bl	media_SetSector
 738              	.LVL87:
 739              		.loc 1 47 0
 740 010e 4FF4DA70 		mov	r0, #436
 741 0112 6221     		movs	r1, #98
ARM GAS  C:\Users\srich\AppData\Local\Temp\ccv3JVxh.s 			page 14


 742 0114 FFF7FEFF 		bl	media_Image
 743              	.LVL88:
 744              	.LBE114:
 745              	.LBE113:
 746              		.loc 1 137 0
 747 0118 8822     		movs	r2, #136
 748 011a 1723     		movs	r3, #23
 749 011c 8DE85000 		stmia	sp, {r4, r6}
 750 0120 0294     		str	r4, [sp, #8]
 751 0122 44F66500 		movw	r0, #18533
 752 0126 4FF4DA71 		mov	r1, #436
 753 012a FFF7FEFF 		bl	gfx_PlaceNumber
 754              	.LVL89:
 755              	.LBB115:
 756              	.LBB116:
 757              		.loc 1 46 0
 758 012e 2046     		mov	r0, r4
 759 0130 44F68A01 		movw	r1, #18570
 760 0134 FFF7FEFF 		bl	media_SetSector
 761              	.LVL90:
 762              		.loc 1 47 0
 763 0138 4FF4DA70 		mov	r0, #436
 764 013c A321     		movs	r1, #163
 765 013e FFF7FEFF 		bl	media_Image
 766              	.LVL91:
 767              	.LBE116:
 768              	.LBE115:
 769              		.loc 1 140 0
 770 0142 1723     		movs	r3, #23
 771 0144 C922     		movs	r2, #201
 772 0146 8DE85000 		stmia	sp, {r4, r6}
 773 014a 0294     		str	r4, [sp, #8]
 774 014c 44F66500 		movw	r0, #18533
 775 0150 4FF4DA71 		mov	r1, #436
 776 0154 FFF7FEFF 		bl	gfx_PlaceNumber
 777              	.LVL92:
 778              	.LBB117:
 779              	.LBB118:
 780              		.loc 1 46 0
 781 0158 2046     		mov	r0, r4
 782 015a 44F65F01 		movw	r1, #18527
 783 015e FFF7FEFF 		bl	media_SetSector
 784              	.LVL93:
 785              		.loc 1 47 0
 786 0162 3146     		mov	r1, r6
 787 0164 7220     		movs	r0, #114
 788 0166 FFF7FEFF 		bl	media_Image
 789              	.LVL94:
 790              	.LBE118:
 791              	.LBE117:
 792              	.LBB119:
 793              	.LBB120:
 794              		.loc 1 54 0
 795 016a 2046     		mov	r0, r4
 796 016c 44F64B01 		movw	r1, #18507
 797              	.LBE120:
 798              	.LBE119:
ARM GAS  C:\Users\srich\AppData\Local\Temp\ccv3JVxh.s 			page 15


 799              		.loc 1 146 0
 800 0170 0A25     		movs	r5, #10
 801              	.LBB123:
 802              	.LBB121:
 803              		.loc 1 54 0
 804 0172 FFF7FEFF 		bl	media_SetSector
 805              	.LVL95:
 806              	.LBE121:
 807              	.LBE123:
 808              		.loc 1 146 0
 809 0176 0427     		movs	r7, #4
 810              	.LBB124:
 811              	.LBB122:
 812              		.loc 1 55 0
 813 0178 6D21     		movs	r1, #109
 814 017a 0C22     		movs	r2, #12
 815 017c 7220     		movs	r0, #114
 816 017e FFF7FEFF 		bl	media_VideoFrame
 817              	.LVL96:
 818              	.LBE122:
 819              	.LBE124:
 820              		.loc 1 146 0
 821 0182 0F23     		movs	r3, #15
 822 0184 0295     		str	r5, [sp, #8]
 823 0186 5422     		movs	r2, #84
 824 0188 8DE89000 		stmia	sp, {r4, r7}
 825 018c 44F64B00 		movw	r0, #18507
 826 0190 7221     		movs	r1, #114
 827 0192 FFF7FEFF 		bl	gfx_PlaceNumber
 828              	.LVL97:
 829              	.LBB125:
 830              	.LBB126:
 831              		.loc 1 54 0
 832 0196 2046     		mov	r0, r4
 833 0198 0E21     		movs	r1, #14
 834 019a FFF7FEFF 		bl	media_SetSector
 835              	.LVL98:
 836              	.LBE126:
 837              	.LBE125:
 838              		.loc 1 150 0
 839 019e 4FF00308 		mov	r8, #3
 840              	.LBB128:
 841              	.LBB127:
 842              		.loc 1 55 0
 843 01a2 3146     		mov	r1, r6
 844 01a4 2246     		mov	r2, r4
 845 01a6 4F20     		movs	r0, #79
 846 01a8 FFF7FEFF 		bl	media_VideoFrame
 847              	.LVL99:
 848              	.LBE127:
 849              	.LBE128:
 850              		.loc 1 150 0
 851 01ac 0F23     		movs	r3, #15
 852 01ae 0295     		str	r5, [sp, #8]
 853 01b0 4B22     		movs	r2, #75
 854 01b2 0094     		str	r4, [sp]
 855 01b4 CDF80480 		str	r8, [sp, #4]
ARM GAS  C:\Users\srich\AppData\Local\Temp\ccv3JVxh.s 			page 16


 856 01b8 44F64B00 		movw	r0, #18507
 857 01bc 4F21     		movs	r1, #79
 858 01be FFF7FEFF 		bl	gfx_PlaceNumber
 859              	.LVL100:
 860              	.LBB129:
 861              	.LBB130:
 862              		.loc 1 54 0
 863 01c2 2046     		mov	r0, r4
 864 01c4 44F64B01 		movw	r1, #18507
 865 01c8 FFF7FEFF 		bl	media_SetSector
 866              	.LVL101:
 867              		.loc 1 55 0
 868 01cc 5A21     		movs	r1, #90
 869 01ce 0B22     		movs	r2, #11
 870 01d0 5020     		movs	r0, #80
 871 01d2 FFF7FEFF 		bl	media_VideoFrame
 872              	.LVL102:
 873              	.LBE130:
 874              	.LBE129:
 875              		.loc 1 154 0
 876 01d6 1123     		movs	r3, #17
 877 01d8 2322     		movs	r2, #35
 878 01da 0295     		str	r5, [sp, #8]
 879 01dc 8DE81001 		stmia	sp, {r4, r8}
 880 01e0 2220     		movs	r0, #34
 881 01e2 1821     		movs	r1, #24
 882 01e4 FFF7FEFF 		bl	gfx_PlaceNumber
 883              	.LVL103:
 884              	.LBB131:
 885              	.LBB132:
 886              		.loc 1 46 0
 887 01e8 2046     		mov	r0, r4
 888 01ea 44F68D01 		movw	r1, #18573
 889 01ee FFF7FEFF 		bl	media_SetSector
 890              	.LVL104:
 891              		.loc 1 47 0
 892 01f2 3120     		movs	r0, #49
 893 01f4 0621     		movs	r1, #6
 894 01f6 FFF7FEFF 		bl	media_Image
 895              	.LVL105:
 896              	.LBE132:
 897              	.LBE131:
 898              	.LBB133:
 899              	.LBB134:
 900              		.loc 1 54 0
 901 01fa 2046     		mov	r0, r4
 902 01fc 44F69101 		movw	r1, #18577
 903 0200 FFF7FEFF 		bl	media_SetSector
 904              	.LVL106:
 905              		.loc 1 55 0
 906 0204 2246     		mov	r2, r4
 907 0206 3C21     		movs	r1, #60
 908 0208 1820     		movs	r0, #24
 909 020a FFF7FEFF 		bl	media_VideoFrame
 910              	.LVL107:
 911              	.LBE134:
 912              	.LBE133:
ARM GAS  C:\Users\srich\AppData\Local\Temp\ccv3JVxh.s 			page 17


 913              	.LBB135:
 914              	.LBB136:
 915              		.loc 1 46 0
 916 020e 2046     		mov	r0, r4
 917 0210 1621     		movs	r1, #22
 918 0212 FFF7FEFF 		bl	media_SetSector
 919              	.LVL108:
 920              		.loc 1 47 0
 921 0216 6E20     		movs	r0, #110
 922 0218 EA21     		movs	r1, #234
 923 021a FFF7FEFF 		bl	media_Image
 924              	.LVL109:
 925              	.LBE136:
 926              	.LBE135:
 927              	.LBB137:
 928              	.LBB138:
 929              		.loc 1 54 0
 930 021e 2046     		mov	r0, r4
 931 0220 44F64B01 		movw	r1, #18507
 932 0224 FFF7FEFF 		bl	media_SetSector
 933              	.LVL110:
 934              		.loc 1 55 0
 935 0228 D221     		movs	r1, #210
 936 022a 0C22     		movs	r2, #12
 937 022c 7220     		movs	r0, #114
 938 022e FFF7FEFF 		bl	media_VideoFrame
 939              	.LVL111:
 940              	.LBE138:
 941              	.LBE137:
 942              		.loc 1 163 0
 943 0232 0F23     		movs	r3, #15
 944 0234 0295     		str	r5, [sp, #8]
 945 0236 BC22     		movs	r2, #188
 946 0238 8DE89000 		stmia	sp, {r4, r7}
 947 023c 44F64B00 		movw	r0, #18507
 948 0240 7221     		movs	r1, #114
 949 0242 FFF7FEFF 		bl	gfx_PlaceNumber
 950              	.LVL112:
 951              	.LBB139:
 952              	.LBB140:
 953              		.loc 1 54 0
 954 0246 2046     		mov	r0, r4
 955 0248 44F63E01 		movw	r1, #18494
 956 024c FFF7FEFF 		bl	media_SetSector
 957              	.LVL113:
 958              		.loc 1 55 0
 959 0250 2246     		mov	r2, r4
 960 0252 E621     		movs	r1, #230
 961 0254 4F20     		movs	r0, #79
 962 0256 FFF7FEFF 		bl	media_VideoFrame
 963              	.LVL114:
 964              	.LBE140:
 965              	.LBE139:
 966              	.LBB141:
 967              	.LBB142:
 968              		.loc 1 54 0
 969 025a 2046     		mov	r0, r4
ARM GAS  C:\Users\srich\AppData\Local\Temp\ccv3JVxh.s 			page 18


 970 025c 44F64B01 		movw	r1, #18507
 971 0260 FFF7FEFF 		bl	media_SetSector
 972              	.LVL115:
 973              		.loc 1 55 0
 974 0264 D221     		movs	r1, #210
 975 0266 0C22     		movs	r2, #12
 976 0268 4F20     		movs	r0, #79
 977 026a FFF7FEFF 		bl	media_VideoFrame
 978              	.LVL116:
 979              	.LBE142:
 980              	.LBE141:
 981              		.loc 1 171 0
 982 026e 0126     		movs	r6, #1
 983              		.loc 1 169 0
 984 0270 0295     		str	r5, [sp, #8]
 985 0272 8DE89000 		stmia	sp, {r4, r7}
 986 0276 44F64B00 		movw	r0, #18507
 987 027a 4F21     		movs	r1, #79
 988 027c BC22     		movs	r2, #188
 989 027e 0F23     		movs	r3, #15
 990 0280 FFF7FEFF 		bl	gfx_PlaceNumber
 991              	.LVL117:
 992              		.loc 1 171 0
 993 0284 F922     		movs	r2, #249
 994 0286 1123     		movs	r3, #17
 995 0288 0295     		str	r5, [sp, #8]
 996 028a 0094     		str	r4, [sp]
 997 028c 0196     		str	r6, [sp, #4]
 998 028e 2220     		movs	r0, #34
 999 0290 1721     		movs	r1, #23
 1000 0292 FFF7FEFF 		bl	gfx_PlaceNumber
 1001              	.LVL118:
 1002              	.LBB143:
 1003              	.LBB144:
 1004              		.loc 1 46 0
 1005 0296 2046     		mov	r0, r4
 1006 0298 1C21     		movs	r1, #28
 1007 029a FFF7FEFF 		bl	media_SetSector
 1008              	.LVL119:
 1009              		.loc 1 47 0
 1010 029e 1720     		movs	r0, #23
 1011 02a0 EF21     		movs	r1, #239
 1012 02a2 FFF7FEFF 		bl	media_Image
 1013              	.LVL120:
 1014              	.LBE144:
 1015              	.LBE143:
 1016              		.loc 1 173 0
 1017 02a6 1123     		movs	r3, #17
 1018 02a8 DD22     		movs	r2, #221
 1019 02aa 0295     		str	r5, [sp, #8]
 1020 02ac 8DE89000 		stmia	sp, {r4, r7}
 1021 02b0 2220     		movs	r0, #34
 1022 02b2 1521     		movs	r1, #21
 1023 02b4 FFF7FEFF 		bl	gfx_PlaceNumber
 1024              	.LVL121:
 1025              	.LBB145:
 1026              	.LBB146:
ARM GAS  C:\Users\srich\AppData\Local\Temp\ccv3JVxh.s 			page 19


 1027              		.loc 1 46 0
 1028 02b8 2046     		mov	r0, r4
 1029 02ba 1D21     		movs	r1, #29
 1030 02bc FFF7FEFF 		bl	media_SetSector
 1031              	.LVL122:
 1032              		.loc 1 47 0
 1033 02c0 2F20     		movs	r0, #47
 1034 02c2 D021     		movs	r1, #208
 1035 02c4 FFF7FEFF 		bl	media_Image
 1036              	.LVL123:
 1037              	.LBE146:
 1038              	.LBE145:
 1039              	.LBB147:
 1040              	.LBB148:
 1041              		.loc 1 54 0
 1042 02c8 2046     		mov	r0, r4
 1043 02ca 41F2E831 		movw	r1, #5096
 1044 02ce FFF7FEFF 		bl	media_SetSector
 1045              	.LVL124:
 1046              		.loc 1 55 0
 1047 02d2 3246     		mov	r2, r6
 1048 02d4 7B21     		movs	r1, #123
 1049 02d6 1820     		movs	r0, #24
 1050 02d8 FFF7FEFF 		bl	media_VideoFrame
 1051              	.LVL125:
 1052              	.LBE148:
 1053              	.LBE147:
 1054              		.loc 1 179 0
 1055 02dc 4FF6FF75 		movw	r5, #65535
 1056 02e0 40F26D10 		movw	r0, #365
 1057 02e4 2146     		mov	r1, r4
 1058 02e6 0095     		str	r5, [sp]
 1059 02e8 0246     		mov	r2, r0
 1060 02ea 4FF48873 		mov	r3, #272
 1061 02ee FFF7FEFF 		bl	draw_line
 1062              	.LVL126:
 1063              		.loc 1 180 0
 1064 02f2 9620     		movs	r0, #150
 1065 02f4 0095     		str	r5, [sp]
 1066 02f6 2146     		mov	r1, r4
 1067 02f8 0246     		mov	r2, r0
 1068 02fa 4FF48873 		mov	r3, #272
 1069 02fe FFF7FEFF 		bl	draw_line
 1070              	.LVL127:
 1071              		.loc 1 181 0
 1072 0302 04B0     		add	sp, sp, #16
 1073              		.cfi_def_cfa_offset 24
 1074              		@ sp needed
 1075 0304 BDE8F081 		pop	{r4, r5, r6, r7, r8, pc}
 1076              	.L47:
 1077              		.align	2
 1078              	.L46:
 1079 0308 00000000 		.word	.LANCHOR1
 1080              		.cfi_endproc
 1081              	.LFE123:
 1082              		.size	LoadImages, .-LoadImages
 1083              		.section	.text.PictogramDataBinding,"ax",%progbits
ARM GAS  C:\Users\srich\AppData\Local\Temp\ccv3JVxh.s 			page 20


 1084              		.align	2
 1085              		.p2align 4,,15
 1086              		.global	PictogramDataBinding
 1087              		.thumb
 1088              		.thumb_func
 1089              		.type	PictogramDataBinding, %function
 1090              	PictogramDataBinding:
 1091              	.LFB124:
 1092              		.loc 1 183 0
 1093              		.cfi_startproc
 1094              		@ args = 0, pretend = 0, frame = 0
 1095              		@ frame_needed = 0, uses_anonymous_args = 0
 1096              	.LVL128:
 1097 0000 F8B5     		push	{r3, r4, r5, r6, r7, lr}
 1098              		.cfi_def_cfa_offset 24
 1099              		.cfi_offset 3, -24
 1100              		.cfi_offset 4, -20
 1101              		.cfi_offset 5, -16
 1102              		.cfi_offset 6, -12
 1103              		.cfi_offset 7, -8
 1104              		.cfi_offset 14, -4
 1105              		.loc 1 187 0
 1106 0002 0320     		movs	r0, #3
 1107 0004 FFF7FEFF 		bl	getLightFlashing
 1108              	.LVL129:
 1109 0008 0028     		cmp	r0, #0
 1110 000a 59D0     		beq	.L75
 1111 000c 0023     		movs	r3, #0
 1112              	.L49:
 1113              	.LVL130:
 1114              		.loc 1 190 0
 1115 000e 384C     		ldr	r4, .L78
 1116              		.loc 1 193 0
 1117 0010 0220     		movs	r0, #2
 1118              		.loc 1 190 0
 1119 0012 2360     		str	r3, [r4]
 1120              		.loc 1 193 0
 1121 0014 FFF7FEFF 		bl	getLightFlashing
 1122              	.LVL131:
 1123 0018 0028     		cmp	r0, #0
 1124 001a 4AD0     		beq	.L76
 1125 001c 0020     		movs	r0, #0
 1126              	.L50:
 1127              	.LVL132:
 1128              		.loc 1 208 0
 1129 001e 354E     		ldr	r6, .L78+4
 1130              		.loc 1 196 0
 1131 0020 6060     		str	r0, [r4, #4]
 1132              		.loc 1 199 0
 1133 0022 0520     		movs	r0, #5
 1134              	.LVL133:
 1135 0024 FFF7FEFF 		bl	getLightFlashing
 1136              	.LVL134:
 1137              		.loc 1 208 0
 1138 0028 3389     		ldrh	r3, [r6, #8]
 1139              		.loc 1 200 0
 1140 002a 2062     		str	r0, [r4, #32]
ARM GAS  C:\Users\srich\AppData\Local\Temp\ccv3JVxh.s 			page 21


 1141              	.LVL135:
 1142              		.loc 1 208 0
 1143 002c 132B     		cmp	r3, #19
 1144 002e 94BF     		ite	ls
 1145 0030 0023     		movls	r3, #0
 1146 0032 0123     		movhi	r3, #1
 1147              		.loc 1 212 0
 1148 0034 A361     		str	r3, [r4, #24]
 1149              		.loc 1 215 0
 1150 0036 FFF7FEFF 		bl	cruiseStatus
 1151              	.LVL136:
 1152              		.loc 1 216 0
 1153 003a A064     		str	r0, [r4, #72]
 1154              		.loc 1 223 0
 1155 003c FFF7FEFF 		bl	GetCurrentLimitIsOn
 1156              	.LVL137:
 1157              		.loc 1 231 0
 1158 0040 2D4F     		ldr	r7, .L78+8
 1159              		.loc 1 223 0
 1160 0042 80F00100 		eor	r0, r0, #1
 1161              		.loc 1 226 0
 1162 0046 C5B2     		uxtb	r5, r0
 1163              	.LVL138:
 1164              		.loc 1 231 0
 1165 0048 3846     		mov	r0, r7
 1166              		.loc 1 228 0
 1167 004a E561     		str	r5, [r4, #28]
 1168              		.loc 1 231 0
 1169 004c FFF7FEFF 		bl	nmeaGetCurrentPosition
 1170              	.LVL139:
 1171              		.loc 1 232 0
 1172 0050 97F83030 		ldrb	r3, [r7, #48]	@ zero_extendqisi2
 1173              	.LVL140:
 1174              		.loc 1 234 0
 1175 0054 022B     		cmp	r3, #2
 1176 0056 07DC     		bgt	.L64
 1177              		.loc 1 236 0
 1178 0058 284B     		ldr	r3, .L78+12
 1179              	.LVL141:
 1180 005a 1A78     		ldrb	r2, [r3]	@ zero_extendqisi2
 1181 005c BAB3     		cbz	r2, .L52
 1182 005e 012A     		cmp	r2, #1
 1183 0060 03D1     		bne	.L51
 1184              		.loc 1 242 0
 1185 0062 0025     		movs	r5, #0
 1186              	.LVL142:
 1187 0064 1D70     		strb	r5, [r3]
 1188              	.LVL143:
 1189              		.loc 1 244 0
 1190 0066 00E0     		b	.L51
 1191              	.LVL144:
 1192              	.L64:
 1193              		.loc 1 248 0
 1194 0068 0125     		movs	r5, #1
 1195              	.LVL145:
 1196              	.L51:
 1197              		.loc 1 254 0
ARM GAS  C:\Users\srich\AppData\Local\Temp\ccv3JVxh.s 			page 22


 1198 006a 96F82030 		ldrb	r3, [r6, #32]	@ zero_extendqisi2
 1199 006e 2449     		ldr	r1, .L78+16
 1200              		.loc 1 250 0
 1201 0070 6562     		str	r5, [r4, #36]
 1202              	.LVL146:
 1203              		.loc 1 254 0
 1204 0072 C3F3C003 		ubfx	r3, r3, #3, #1
 1205 0076 A365     		str	r3, [r4, #88]
 1206              	.LVL147:
 1207 0078 8D1D     		adds	r5, r1, #6
 1208 007a 0B46     		mov	r3, r1
 1209              	.LVL148:
 1210              	.L56:
 1211              	.LBB149:
 1212              		.loc 1 261 0
 1213 007c 13F8010F 		ldrb	r0, [r3, #1]!	@ zero_extendqisi2
 1214              	.LVL149:
 1215              		.loc 1 262 0
 1216 0080 9A79     		ldrb	r2, [r3, #6]	@ zero_extendqisi2
 1217              		.loc 1 263 0
 1218 0082 02F0E002 		and	r2, r2, #224
 1219 0086 402A     		cmp	r2, #64
 1220 0088 00F00300 		and	r0, r0, #3
 1221              	.LVL150:
 1222 008c 01D0     		beq	.L54
 1223              		.loc 1 263 0 is_stmt 0 discriminator 1
 1224 008e 0128     		cmp	r0, #1
 1225 0090 20D0     		beq	.L65
 1226              	.L54:
 1227              	.LBE149:
 1228              		.loc 1 260 0 is_stmt 1 discriminator 2
 1229 0092 AB42     		cmp	r3, r5
 1230 0094 F2D1     		bne	.L56
 1231              		.loc 1 258 0
 1232 0096 0220     		movs	r0, #2
 1233              	.LVL151:
 1234              	.L61:
 1235              	.LBB150:
 1236              		.loc 1 273 0
 1237 0098 11F8013F 		ldrb	r3, [r1, #1]!	@ zero_extendqisi2
 1238              	.LVL152:
 1239              		.loc 1 275 0
 1240 009c 13F00C0F 		tst	r3, #12
 1241 00a0 03F00302 		and	r2, r3, #3
 1242 00a4 01D0     		beq	.L57
 1243              		.loc 1 275 0 is_stmt 0 discriminator 1
 1244 00a6 012A     		cmp	r2, #1
 1245 00a8 16D0     		beq	.L77
 1246              	.L57:
 1247              	.LBE150:
 1248              		.loc 1 272 0 is_stmt 1 discriminator 2
 1249 00aa A942     		cmp	r1, r5
 1250 00ac F4D1     		bne	.L61
 1251              	.LVL153:
 1252              	.L58:
 1253              		.loc 1 289 0
 1254 00ae 6061     		str	r0, [r4, #20]
ARM GAS  C:\Users\srich\AppData\Local\Temp\ccv3JVxh.s 			page 23


 1255 00b0 F8BD     		pop	{r3, r4, r5, r6, r7, pc}
 1256              	.LVL154:
 1257              	.L76:
 1258              		.loc 1 193 0 discriminator 2
 1259 00b2 0420     		movs	r0, #4
 1260 00b4 FFF7FEFF 		bl	getLightFlashing
 1261              	.LVL155:
 1262 00b8 80F00100 		eor	r0, r0, #1
 1263 00bc C0B2     		uxtb	r0, r0
 1264 00be AEE7     		b	.L50
 1265              	.LVL156:
 1266              	.L75:
 1267              		.loc 1 187 0 discriminator 2
 1268 00c0 0420     		movs	r0, #4
 1269 00c2 FFF7FEFF 		bl	getLightFlashing
 1270              	.LVL157:
 1271 00c6 80F00100 		eor	r0, r0, #1
 1272 00ca C3B2     		uxtb	r3, r0
 1273 00cc 9FE7     		b	.L49
 1274              	.LVL158:
 1275              	.L52:
 1276              		.loc 1 238 0
 1277 00ce 0125     		movs	r5, #1
 1278              	.LVL159:
 1279 00d0 1D70     		strb	r5, [r3]
 1280              	.LVL160:
 1281              		.loc 1 240 0
 1282 00d2 CAE7     		b	.L51
 1283              	.LVL161:
 1284              	.L65:
 1285              	.LBB151:
 1286              		.loc 1 264 0
 1287 00d4 0020     		movs	r0, #0
 1288              	.LVL162:
 1289 00d6 DFE7     		b	.L61
 1290              	.LVL163:
 1291              	.L77:
 1292              	.LBE151:
 1293              	.LBB152:
 1294              		.loc 1 276 0
 1295 00d8 0A4B     		ldr	r3, .L78+20
 1296              	.LVL164:
 1297 00da 1978     		ldrb	r1, [r3]	@ zero_extendqisi2
 1298              	.LVL165:
 1299 00dc 0129     		cmp	r1, #1
 1300 00de 04D0     		beq	.L59
 1301 00e0 0229     		cmp	r1, #2
 1302 00e2 E4D1     		bne	.L58
 1303              		.loc 1 278 0
 1304 00e4 1A70     		strb	r2, [r3]
 1305              	.LVL166:
 1306              		.loc 1 279 0
 1307 00e6 1046     		mov	r0, r2
 1308              		.loc 1 280 0
 1309 00e8 E1E7     		b	.L58
 1310              	.LVL167:
 1311              	.L59:
ARM GAS  C:\Users\srich\AppData\Local\Temp\ccv3JVxh.s 			page 24


 1312              		.loc 1 282 0
 1313 00ea 0220     		movs	r0, #2
 1314 00ec 1870     		strb	r0, [r3]
 1315              	.LVL168:
 1316              		.loc 1 284 0
 1317 00ee DEE7     		b	.L58
 1318              	.L79:
 1319              		.align	2
 1320              	.L78:
 1321 00f0 00000000 		.word	.LANCHOR1
 1322 00f4 00000000 		.word	bmsitems
 1323 00f8 00000000 		.word	.LANCHOR2
 1324 00fc 00000000 		.word	.LANCHOR3
 1325 0100 17000000 		.word	TirePressures+23
 1326 0104 00000000 		.word	.LANCHOR4
 1327              	.LBE152:
 1328              		.cfi_endproc
 1329              	.LFE124:
 1330              		.size	PictogramDataBinding, .-PictogramDataBinding
 1331              		.section	.text.NumberDataBinding,"ax",%progbits
 1332              		.align	2
 1333              		.p2align 4,,15
 1334              		.global	NumberDataBinding
 1335              		.thumb
 1336              		.thumb_func
 1337              		.type	NumberDataBinding, %function
 1338              	NumberDataBinding:
 1339              	.LFB125:
 1340              		.loc 1 294 0
 1341              		.cfi_startproc
 1342              		@ args = 0, pretend = 0, frame = 0
 1343              		@ frame_needed = 0, uses_anonymous_args = 0
 1344 0000 70B5     		push	{r4, r5, r6, lr}
 1345              		.cfi_def_cfa_offset 16
 1346              		.cfi_offset 4, -16
 1347              		.cfi_offset 5, -12
 1348              		.cfi_offset 6, -8
 1349              		.cfi_offset 14, -4
 1350              		.loc 1 298 0
 1351 0002 FFF7FEFF 		bl	speedGetSpeed
 1352              	.LVL169:
 1353 0006 2F4C     		ldr	r4, .L86
 1354              		.loc 1 301 0
 1355 0008 2F4D     		ldr	r5, .L86+4
 1356              		.loc 1 298 0
 1357 000a E062     		str	r0, [r4, #44]
 1358              		.loc 1 301 0
 1359 000c 2846     		mov	r0, r5
 1360 000e FFF7FEFF 		bl	nmeaGetCurrentPosition
 1361              	.LVL170:
 1362              		.loc 1 302 0
 1363 0012 2D68     		ldr	r5, [r5]
 1364 0014 2D4A     		ldr	r2, .L86+8
 1365 0016 2E4E     		ldr	r6, .L86+12
 1366              		.loc 1 303 0
 1367 0018 2E49     		ldr	r1, .L86+16
 1368              		.loc 1 304 0
ARM GAS  C:\Users\srich\AppData\Local\Temp\ccv3JVxh.s 			page 25


 1369 001a 2F48     		ldr	r0, .L86+20
 1370              		.loc 1 302 0
 1371 001c 85FB0223 		smull	r2, r3, r5, r2
 1372 0020 EA18     		adds	r2, r5, r3
 1373 0022 EB17     		asrs	r3, r5, #31
 1374 0024 C3EB2242 		rsb	r2, r3, r2, asr #16
 1375 0028 06FB1252 		mls	r2, r6, r2, r5
 1376              	.LVL171:
 1377              		.loc 1 303 0
 1378 002c 81FB0231 		smull	r3, r1, r1, r2
 1379 0030 1144     		add	r1, r1, r2
 1380 0032 D317     		asrs	r3, r2, #31
 1381 0034 C3EBE121 		rsb	r1, r3, r1, asr #11
 1382              		.loc 1 304 0
 1383 0038 4FF46163 		mov	r3, #3600
 1384 003c 03FB1123 		mls	r3, r3, r1, r2
 1385 0040 80FB0302 		smull	r0, r2, r0, r3
 1386              	.LVL172:
 1387 0044 D018     		adds	r0, r2, r3
 1388 0046 DA17     		asrs	r2, r3, #31
 1389 0048 C2EB6012 		rsb	r2, r2, r0, asr #5
 1390              		.loc 1 305 0
 1391 004c C2EB0210 		rsb	r0, r2, r2, lsl #4
 1392              		.loc 1 303 0
 1393 0050 0231     		adds	r1, r1, #2
 1394              		.loc 1 305 0
 1395 0052 A3EB8003 		sub	r3, r3, r0, lsl #2
 1396              		.loc 1 308 0
 1397 0056 0020     		movs	r0, #0
 1398              		.loc 1 303 0
 1399 0058 A160     		str	r1, [r4, #8]
 1400              		.loc 1 304 0
 1401 005a E260     		str	r2, [r4, #12]
 1402              		.loc 1 305 0
 1403 005c 2361     		str	r3, [r4, #16]
 1404              		.loc 1 308 0
 1405 005e FFF7FEFF 		bl	calcGetValue
 1406              	.LVL173:
 1407              		.loc 1 315 0
 1408 0062 1E4B     		ldr	r3, .L86+24
 1409 0064 1E4A     		ldr	r2, .L86+28
 1410 0066 1B89     		ldrh	r3, [r3, #8]
 1411 0068 00B2     		sxth	r0, r0
 1412 006a A2FB0323 		umull	r2, r3, r2, r3
 1413 006e DB08     		lsrs	r3, r3, #3
 1414              		.loc 1 312 0
 1415 0070 20EAE072 		bic	r2, r0, r0, asr #31
 1416              		.loc 1 318 0
 1417 0074 0120     		movs	r0, #1
 1418              	.LVL174:
 1419              		.loc 1 312 0
 1420 0076 2263     		str	r2, [r4, #48]
 1421              		.loc 1 315 0
 1422 0078 6363     		str	r3, [r4, #52]
 1423              		.loc 1 318 0
 1424 007a FFF7FEFF 		bl	calcGetValue
 1425              	.LVL175:
ARM GAS  C:\Users\srich\AppData\Local\Temp\ccv3JVxh.s 			page 26


 1426              		.loc 1 321 0
 1427 007e 194B     		ldr	r3, .L86+32
 1428              		.loc 1 318 0
 1429 0080 A063     		str	r0, [r4, #56]
 1430              		.loc 1 321 0
 1431 0082 1968     		ldr	r1, [r3]
 1432 0084 8AB2     		uxth	r2, r1
 1433              	.LVL176:
 1434              		.loc 1 322 0
 1435 0086 13B2     		sxth	r3, r2
 1436 0088 002B     		cmp	r3, #0
 1437 008a 12DB     		blt	.L85
 1438              		.loc 1 326 0
 1439 008c B2B1     		cbz	r2, .L83
 1440              		.loc 1 327 0
 1441 008e 0222     		movs	r2, #2
 1442              	.LVL177:
 1443 0090 2264     		str	r2, [r4, #64]
 1444              	.LVL178:
 1445              	.L82:
 1446              		.loc 1 332 0
 1447 0092 E363     		str	r3, [r4, #60]
 1448              		.loc 1 335 0
 1449 0094 FFF7FEFF 		bl	GetMeterCounter
 1450              	.LVL179:
 1451              		.loc 1 336 0
 1452 0098 134B     		ldr	r3, .L86+36
 1453 009a 00B2     		sxth	r0, r0
 1454 009c 83FB0023 		smull	r2, r3, r3, r0
 1455 00a0 C017     		asrs	r0, r0, #31
 1456              	.LVL180:
 1457 00a2 C0EB6310 		rsb	r0, r0, r3, asr #5
 1458 00a6 00B2     		sxth	r0, r0
 1459 00a8 2065     		str	r0, [r4, #80]
 1460              		.loc 1 339 0
 1461 00aa FFF7FEFF 		bl	GetKmeterDistance
 1462              	.LVL181:
 1463 00ae 6065     		str	r0, [r4, #84]
 1464 00b0 70BD     		pop	{r4, r5, r6, pc}
 1465              	.LVL182:
 1466              	.L85:
 1467              		.loc 1 325 0
 1468 00b2 4B42     		negs	r3, r1
 1469              		.loc 1 324 0
 1470 00b4 0122     		movs	r2, #1
 1471              	.LVL183:
 1472 00b6 1BB2     		sxth	r3, r3
 1473 00b8 2264     		str	r2, [r4, #64]
 1474              	.LVL184:
 1475 00ba EAE7     		b	.L82
 1476              	.LVL185:
 1477              	.L83:
 1478              		.loc 1 329 0
 1479 00bc 2264     		str	r2, [r4, #64]
 1480 00be 1346     		mov	r3, r2
 1481 00c0 E7E7     		b	.L82
 1482              	.L87:
ARM GAS  C:\Users\srich\AppData\Local\Temp\ccv3JVxh.s 			page 27


 1483 00c2 00BF     		.align	2
 1484              	.L86:
 1485 00c4 00000000 		.word	.LANCHOR1
 1486 00c8 00000000 		.word	.LANCHOR2
 1487 00cc 07452EC2 		.word	-1037155065
 1488 00d0 80510100 		.word	86400
 1489 00d4 C5B3A291 		.word	-1851608123
 1490 00d8 89888888 		.word	-2004318071
 1491 00dc 00000000 		.word	bmsitems
 1492 00e0 CDCCCCCC 		.word	-858993459
 1493 00e4 00000000 		.word	.LANCHOR5
 1494 00e8 1F85EB51 		.word	1374389535
 1495              		.cfi_endproc
 1496              	.LFE125:
 1497              		.size	NumberDataBinding, .-NumberDataBinding
 1498              		.global	__aeabi_i2d
 1499              		.global	__aeabi_dmul
 1500              		.global	__aeabi_d2iz
 1501              		.global	__aeabi_ddiv
 1502              		.section	.text.GaugeDataBinding,"ax",%progbits
 1503              		.align	2
 1504              		.p2align 4,,15
 1505              		.global	GaugeDataBinding
 1506              		.thumb
 1507              		.thumb_func
 1508              		.type	GaugeDataBinding, %function
 1509              	GaugeDataBinding:
 1510              	.LFB126:
 1511              		.loc 1 342 0
 1512              		.cfi_startproc
 1513              		@ args = 0, pretend = 0, frame = 0
 1514              		@ frame_needed = 0, uses_anonymous_args = 0
 1515 0000 F8B5     		push	{r3, r4, r5, r6, r7, lr}
 1516              		.cfi_def_cfa_offset 24
 1517              		.cfi_offset 3, -24
 1518              		.cfi_offset 4, -20
 1519              		.cfi_offset 5, -16
 1520              		.cfi_offset 6, -12
 1521              		.cfi_offset 7, -8
 1522              		.cfi_offset 14, -4
 1523              		.loc 1 343 0
 1524 0002 0220     		movs	r0, #2
 1525 0004 FFF7FEFF 		bl	measGetValue_2
 1526              	.LVL186:
 1527 0008 FFF7FEFF 		bl	__aeabi_i2d
 1528              	.LVL187:
 1529 000c 26A3     		adr	r3, .L94
 1530 000e D3E90023 		ldrd	r2, [r3]
 1531 0012 FFF7FEFF 		bl	__aeabi_dmul
 1532              	.LVL188:
 1533 0016 FFF7FEFF 		bl	__aeabi_d2iz
 1534              	.LVL189:
 1535              		.loc 1 347 0
 1536 001a 294D     		ldr	r5, .L94+24
 1537              		.loc 1 345 0
 1538 001c 294C     		ldr	r4, .L94+28
 1539              		.loc 1 344 0
ARM GAS  C:\Users\srich\AppData\Local\Temp\ccv3JVxh.s 			page 28


 1540 001e B0F5A07F 		cmp	r0, #320
 1541 0022 0346     		mov	r3, r0
 1542 0024 A8BF     		it	ge
 1543 0026 4FF4A073 		movge	r3, #320
 1544              		.loc 1 345 0
 1545 002a E364     		str	r3, [r4, #76]
 1546              		.loc 1 347 0
 1547 002c B5F91800 		ldrsh	r0, [r5, #24]
 1548              	.LVL190:
 1549 0030 FFF7FEFF 		bl	__aeabi_i2d
 1550              	.LVL191:
 1551 0034 0022     		movs	r2, #0
 1552 0036 244B     		ldr	r3, .L94+32
 1553 0038 FFF7FEFF 		bl	__aeabi_ddiv
 1554              	.LVL192:
 1555              		.loc 1 348 0
 1556 003c EB88     		ldrh	r3, [r5, #6]
 1557              		.loc 1 347 0
 1558 003e 0646     		mov	r6, r0
 1559              		.loc 1 348 0
 1560 0040 2248     		ldr	r0, .L94+36
 1561 0042 A0FB0330 		umull	r3, r0, r0, r3
 1562              		.loc 1 347 0
 1563 0046 0F46     		mov	r7, r1
 1564              	.LVL193:
 1565              		.loc 1 348 0
 1566 0048 C008     		lsrs	r0, r0, #3
 1567 004a FFF7FEFF 		bl	__aeabi_i2d
 1568              	.LVL194:
 1569 004e 3246     		mov	r2, r6
 1570 0050 3B46     		mov	r3, r7
 1571 0052 FFF7FEFF 		bl	__aeabi_dmul
 1572              	.LVL195:
 1573              		.loc 1 349 0
 1574 0056 FFF7FEFF 		bl	__aeabi_d2iz
 1575              	.LVL196:
 1576 005a 1D4A     		ldr	r2, .L94+40
 1577              		.loc 1 350 0
 1578 005c 0028     		cmp	r0, #0
 1579              		.loc 1 349 0
 1580 005e 0346     		mov	r3, r0
 1581 0060 1060     		str	r0, [r2]
 1582              		.loc 1 350 0
 1583 0062 10DB     		blt	.L93
 1584              		.loc 1 356 0
 1585 0064 0DD0     		beq	.L90
 1586              		.loc 1 357 0
 1587 0066 FFF7FEFF 		bl	__aeabi_i2d
 1588              	.LVL197:
 1589 006a 11A3     		adr	r3, .L94+8
 1590 006c D3E90023 		ldrd	r2, [r3]
 1591 0070 FFF7FEFF 		bl	__aeabi_dmul
 1592              	.LVL198:
 1593 0074 FFF7FEFF 		bl	__aeabi_d2iz
 1594              	.LVL199:
 1595              		.loc 1 358 0
 1596 0078 1F28     		cmp	r0, #31
ARM GAS  C:\Users\srich\AppData\Local\Temp\ccv3JVxh.s 			page 29


 1597 007a A8BF     		it	ge
 1598 007c 1F20     		movge	r0, #31
 1599              	.LVL200:
 1600              		.loc 1 359 0
 1601 007e 00F12103 		add	r3, r0, #33
 1602              	.LVL201:
 1603              	.L90:
 1604              		.loc 1 363 0
 1605 0082 A362     		str	r3, [r4, #40]
 1606 0084 F8BD     		pop	{r3, r4, r5, r6, r7, pc}
 1607              	.LVL202:
 1608              	.L93:
 1609              		.loc 1 353 0
 1610 0086 4042     		negs	r0, r0
 1611              	.LVL203:
 1612 0088 FFF7FEFF 		bl	__aeabi_i2d
 1613              	.LVL204:
 1614 008c 0AA3     		adr	r3, .L94+16
 1615 008e D3E90023 		ldrd	r2, [r3]
 1616 0092 FFF7FEFF 		bl	__aeabi_dmul
 1617              	.LVL205:
 1618 0096 FFF7FEFF 		bl	__aeabi_d2iz
 1619              	.LVL206:
 1620              		.loc 1 354 0
 1621 009a 1F28     		cmp	r0, #31
 1622 009c A8BF     		it	ge
 1623 009e 1F20     		movge	r0, #31
 1624              	.LVL207:
 1625              		.loc 1 355 0
 1626 00a0 431C     		adds	r3, r0, #1
 1627              	.LVL208:
 1628              		.loc 1 363 0
 1629 00a2 A362     		str	r3, [r4, #40]
 1630 00a4 F8BD     		pop	{r3, r4, r5, r6, r7, pc}
 1631              	.LVL209:
 1632              	.L95:
 1633 00a6 00BF     		.align	3
 1634              	.L94:
 1635 00a8 3BDF4F8D 		.word	-1924145349
 1636 00ac 976EA23F 		.word	1067609751
 1637 00b0 FCA9F1D2 		.word	-755914244
 1638 00b4 4D62803F 		.word	1065378381
 1639 00b8 DBF97E6A 		.word	1786706395
 1640 00bc BC74833F 		.word	1065579708
 1641 00c0 00000000 		.word	bmsitems
 1642 00c4 00000000 		.word	.LANCHOR1
 1643 00c8 00002440 		.word	1076101120
 1644 00cc CDCCCCCC 		.word	-858993459
 1645 00d0 00000000 		.word	.LANCHOR5
 1646              		.cfi_endproc
 1647              	.LFE126:
 1648              		.size	GaugeDataBinding, .-GaugeDataBinding
 1649              		.section	.text.RefreshNumbers,"ax",%progbits
 1650              		.align	2
 1651              		.p2align 4,,15
 1652              		.global	RefreshNumbers
 1653              		.thumb
ARM GAS  C:\Users\srich\AppData\Local\Temp\ccv3JVxh.s 			page 30


 1654              		.thumb_func
 1655              		.type	RefreshNumbers, %function
 1656              	RefreshNumbers:
 1657              	.LFB128:
 1658              		.loc 1 437 0
 1659              		.cfi_startproc
 1660              		@ args = 0, pretend = 0, frame = 0
 1661              		@ frame_needed = 0, uses_anonymous_args = 0
 1662 0000 F0B5     		push	{r4, r5, r6, r7, lr}
 1663              		.cfi_def_cfa_offset 20
 1664              		.cfi_offset 4, -20
 1665              		.cfi_offset 5, -16
 1666              		.cfi_offset 6, -12
 1667              		.cfi_offset 7, -8
 1668              		.cfi_offset 14, -4
 1669              		.loc 1 439 0
 1670 0002 6D4C     		ldr	r4, .L109
 1671 0004 6D4D     		ldr	r5, .L109+4
 1672 0006 E36A     		ldr	r3, [r4, #44]
 1673 0008 EA6A     		ldr	r2, [r5, #44]
 1674 000a 9A42     		cmp	r2, r3
 1675              		.loc 1 437 0
 1676 000c 85B0     		sub	sp, sp, #20
 1677              		.cfi_def_cfa_offset 40
 1678              		.loc 1 439 0
 1679 000e 03D0     		beq	.L97
 1680              		.loc 1 439 0 is_stmt 0 discriminator 1
 1681 0010 A26D     		ldr	r2, [r4, #88]
 1682 0012 002A     		cmp	r2, #0
 1683 0014 00F0C080 		beq	.L108
 1684              	.L97:
 1685              		.loc 1 444 0 is_stmt 1
 1686 0018 A368     		ldr	r3, [r4, #8]
 1687 001a AA68     		ldr	r2, [r5, #8]
 1688 001c 664F     		ldr	r7, .L109
 1689 001e 674E     		ldr	r6, .L109+4
 1690 0020 9A42     		cmp	r2, r3
 1691 0022 0FD0     		beq	.L98
 1692              		.loc 1 445 0
 1693 0024 9BB2     		uxth	r3, r3
 1694 0026 0221     		movs	r1, #2
 1695 0028 0022     		movs	r2, #0
 1696 002a 0093     		str	r3, [sp]
 1697 002c 0191     		str	r1, [sp, #4]
 1698 002e 0292     		str	r2, [sp, #8]
 1699 0030 1723     		movs	r3, #23
 1700 0032 44F66500 		movw	r0, #18533
 1701 0036 4FF4DA71 		mov	r1, #436
 1702 003a 4722     		movs	r2, #71
 1703 003c FFF7FEFF 		bl	gfx_PlaceNumber
 1704              	.LVL210:
 1705              		.loc 1 446 0
 1706 0040 BB68     		ldr	r3, [r7, #8]
 1707 0042 B360     		str	r3, [r6, #8]
 1708              	.L98:
 1709              		.loc 1 449 0
 1710 0044 E368     		ldr	r3, [r4, #12]
ARM GAS  C:\Users\srich\AppData\Local\Temp\ccv3JVxh.s 			page 31


 1711 0046 EA68     		ldr	r2, [r5, #12]
 1712 0048 5B4F     		ldr	r7, .L109
 1713 004a 5C4E     		ldr	r6, .L109+4
 1714 004c 9A42     		cmp	r2, r3
 1715 004e 0FD0     		beq	.L99
 1716              		.loc 1 450 0
 1717 0050 9BB2     		uxth	r3, r3
 1718 0052 0221     		movs	r1, #2
 1719 0054 0022     		movs	r2, #0
 1720 0056 0093     		str	r3, [sp]
 1721 0058 0191     		str	r1, [sp, #4]
 1722 005a 0292     		str	r2, [sp, #8]
 1723 005c 1723     		movs	r3, #23
 1724 005e 44F66500 		movw	r0, #18533
 1725 0062 4FF4DA71 		mov	r1, #436
 1726 0066 8822     		movs	r2, #136
 1727 0068 FFF7FEFF 		bl	gfx_PlaceNumber
 1728              	.LVL211:
 1729              		.loc 1 451 0
 1730 006c FB68     		ldr	r3, [r7, #12]
 1731 006e F360     		str	r3, [r6, #12]
 1732              	.L99:
 1733              		.loc 1 454 0
 1734 0070 2369     		ldr	r3, [r4, #16]
 1735 0072 2A69     		ldr	r2, [r5, #16]
 1736 0074 504F     		ldr	r7, .L109
 1737 0076 514E     		ldr	r6, .L109+4
 1738 0078 9A42     		cmp	r2, r3
 1739 007a 0FD0     		beq	.L100
 1740              		.loc 1 455 0
 1741 007c 9BB2     		uxth	r3, r3
 1742 007e 0221     		movs	r1, #2
 1743 0080 0022     		movs	r2, #0
 1744 0082 0093     		str	r3, [sp]
 1745 0084 0191     		str	r1, [sp, #4]
 1746 0086 0292     		str	r2, [sp, #8]
 1747 0088 1723     		movs	r3, #23
 1748 008a 44F66500 		movw	r0, #18533
 1749 008e 4FF4DA71 		mov	r1, #436
 1750 0092 C922     		movs	r2, #201
 1751 0094 FFF7FEFF 		bl	gfx_PlaceNumber
 1752              	.LVL212:
 1753              		.loc 1 456 0
 1754 0098 3B69     		ldr	r3, [r7, #16]
 1755 009a 3361     		str	r3, [r6, #16]
 1756              	.L100:
 1757              		.loc 1 459 0
 1758 009c 236B     		ldr	r3, [r4, #48]
 1759 009e 2A6B     		ldr	r2, [r5, #48]
 1760 00a0 454F     		ldr	r7, .L109
 1761 00a2 464E     		ldr	r6, .L109+4
 1762 00a4 9A42     		cmp	r2, r3
 1763 00a6 0ED0     		beq	.L101
 1764              		.loc 1 460 0
 1765 00a8 9BB2     		uxth	r3, r3
 1766 00aa 0421     		movs	r1, #4
 1767 00ac 0A22     		movs	r2, #10
ARM GAS  C:\Users\srich\AppData\Local\Temp\ccv3JVxh.s 			page 32


 1768 00ae 0093     		str	r3, [sp]
 1769 00b0 0191     		str	r1, [sp, #4]
 1770 00b2 0292     		str	r2, [sp, #8]
 1771 00b4 0F23     		movs	r3, #15
 1772 00b6 44F64B00 		movw	r0, #18507
 1773 00ba 7221     		movs	r1, #114
 1774 00bc 5422     		movs	r2, #84
 1775 00be FFF7FEFF 		bl	gfx_PlaceNumber
 1776              	.LVL213:
 1777              		.loc 1 461 0
 1778 00c2 3B6B     		ldr	r3, [r7, #48]
 1779 00c4 3363     		str	r3, [r6, #48]
 1780              	.L101:
 1781              		.loc 1 464 0
 1782 00c6 636B     		ldr	r3, [r4, #52]
 1783 00c8 6A6B     		ldr	r2, [r5, #52]
 1784 00ca 3B4F     		ldr	r7, .L109
 1785 00cc 3B4E     		ldr	r6, .L109+4
 1786 00ce 9A42     		cmp	r2, r3
 1787 00d0 0ED0     		beq	.L102
 1788              		.loc 1 465 0
 1789 00d2 9BB2     		uxth	r3, r3
 1790 00d4 0321     		movs	r1, #3
 1791 00d6 0A22     		movs	r2, #10
 1792 00d8 0093     		str	r3, [sp]
 1793 00da 0191     		str	r1, [sp, #4]
 1794 00dc 0292     		str	r2, [sp, #8]
 1795 00de 0F23     		movs	r3, #15
 1796 00e0 44F64B00 		movw	r0, #18507
 1797 00e4 4F21     		movs	r1, #79
 1798 00e6 4B22     		movs	r2, #75
 1799 00e8 FFF7FEFF 		bl	gfx_PlaceNumber
 1800              	.LVL214:
 1801              		.loc 1 466 0
 1802 00ec 7B6B     		ldr	r3, [r7, #52]
 1803 00ee 7363     		str	r3, [r6, #52]
 1804              	.L102:
 1805              		.loc 1 469 0
 1806 00f0 A36B     		ldr	r3, [r4, #56]
 1807 00f2 AA6B     		ldr	r2, [r5, #56]
 1808 00f4 304F     		ldr	r7, .L109
 1809 00f6 314E     		ldr	r6, .L109+4
 1810 00f8 9A42     		cmp	r2, r3
 1811 00fa 0ED0     		beq	.L103
 1812              		.loc 1 470 0
 1813 00fc 9BB2     		uxth	r3, r3
 1814 00fe 0421     		movs	r1, #4
 1815 0100 0A22     		movs	r2, #10
 1816 0102 0093     		str	r3, [sp]
 1817 0104 0191     		str	r1, [sp, #4]
 1818 0106 0292     		str	r2, [sp, #8]
 1819 0108 0F23     		movs	r3, #15
 1820 010a 44F64B00 		movw	r0, #18507
 1821 010e 7221     		movs	r1, #114
 1822 0110 BC22     		movs	r2, #188
 1823 0112 FFF7FEFF 		bl	gfx_PlaceNumber
 1824              	.LVL215:
ARM GAS  C:\Users\srich\AppData\Local\Temp\ccv3JVxh.s 			page 33


 1825              		.loc 1 471 0
 1826 0116 BB6B     		ldr	r3, [r7, #56]
 1827 0118 B363     		str	r3, [r6, #56]
 1828              	.L103:
 1829              		.loc 1 474 0
 1830 011a E36B     		ldr	r3, [r4, #60]
 1831 011c EA6B     		ldr	r2, [r5, #60]
 1832 011e 264F     		ldr	r7, .L109
 1833 0120 264E     		ldr	r6, .L109+4
 1834 0122 9A42     		cmp	r2, r3
 1835 0124 0ED0     		beq	.L104
 1836              		.loc 1 475 0
 1837 0126 9BB2     		uxth	r3, r3
 1838 0128 0421     		movs	r1, #4
 1839 012a 0A22     		movs	r2, #10
 1840 012c 0093     		str	r3, [sp]
 1841 012e 0191     		str	r1, [sp, #4]
 1842 0130 0292     		str	r2, [sp, #8]
 1843 0132 0F23     		movs	r3, #15
 1844 0134 44F64B00 		movw	r0, #18507
 1845 0138 4F21     		movs	r1, #79
 1846 013a BC22     		movs	r2, #188
 1847 013c FFF7FEFF 		bl	gfx_PlaceNumber
 1848              	.LVL216:
 1849              		.loc 1 476 0
 1850 0140 FB6B     		ldr	r3, [r7, #60]
 1851 0142 F363     		str	r3, [r6, #60]
 1852              	.L104:
 1853              		.loc 1 479 0
 1854 0144 236D     		ldr	r3, [r4, #80]
 1855 0146 2A6D     		ldr	r2, [r5, #80]
 1856 0148 1B4F     		ldr	r7, .L109
 1857 014a 1C4E     		ldr	r6, .L109+4
 1858 014c 9A42     		cmp	r2, r3
 1859 014e 0DD0     		beq	.L105
 1860              		.loc 1 480 0
 1861 0150 9BB2     		uxth	r3, r3
 1862 0152 0121     		movs	r1, #1
 1863 0154 0A22     		movs	r2, #10
 1864 0156 0093     		str	r3, [sp]
 1865 0158 0191     		str	r1, [sp, #4]
 1866 015a 0292     		str	r2, [sp, #8]
 1867 015c 1123     		movs	r3, #17
 1868 015e 2220     		movs	r0, #34
 1869 0160 1721     		movs	r1, #23
 1870 0162 F922     		movs	r2, #249
 1871 0164 FFF7FEFF 		bl	gfx_PlaceNumber
 1872              	.LVL217:
 1873              		.loc 1 481 0
 1874 0168 3B6D     		ldr	r3, [r7, #80]
 1875 016a 3365     		str	r3, [r6, #80]
 1876              	.L105:
 1877              		.loc 1 484 0
 1878 016c 636D     		ldr	r3, [r4, #84]
 1879 016e 6A6D     		ldr	r2, [r5, #84]
 1880 0170 124C     		ldr	r4, .L109+4
 1881 0172 114D     		ldr	r5, .L109
ARM GAS  C:\Users\srich\AppData\Local\Temp\ccv3JVxh.s 			page 34


 1882 0174 9A42     		cmp	r2, r3
 1883 0176 0DD0     		beq	.L96
 1884              		.loc 1 485 0
 1885 0178 9BB2     		uxth	r3, r3
 1886 017a 0421     		movs	r1, #4
 1887 017c 0A22     		movs	r2, #10
 1888 017e 0093     		str	r3, [sp]
 1889 0180 0191     		str	r1, [sp, #4]
 1890 0182 0292     		str	r2, [sp, #8]
 1891 0184 1123     		movs	r3, #17
 1892 0186 2220     		movs	r0, #34
 1893 0188 1521     		movs	r1, #21
 1894 018a DD22     		movs	r2, #221
 1895 018c FFF7FEFF 		bl	gfx_PlaceNumber
 1896              	.LVL218:
 1897              		.loc 1 486 0
 1898 0190 6B6D     		ldr	r3, [r5, #84]
 1899 0192 6365     		str	r3, [r4, #84]
 1900              	.L96:
 1901              		.loc 1 488 0
 1902 0194 05B0     		add	sp, sp, #20
 1903              		.cfi_remember_state
 1904              		.cfi_def_cfa_offset 20
 1905              		@ sp needed
 1906 0196 F0BD     		pop	{r4, r5, r6, r7, pc}
 1907              	.L108:
 1908              		.cfi_restore_state
 1909              		.loc 1 440 0
 1910 0198 9BB2     		uxth	r3, r3
 1911 019a 0321     		movs	r1, #3
 1912 019c 0A22     		movs	r2, #10
 1913 019e 0093     		str	r3, [sp]
 1914 01a0 0191     		str	r1, [sp, #4]
 1915 01a2 0292     		str	r2, [sp, #8]
 1916 01a4 4023     		movs	r3, #64
 1917 01a6 41F23440 		movw	r0, #5172
 1918 01aa D221     		movs	r1, #210
 1919 01ac A222     		movs	r2, #162
 1920 01ae FFF7FEFF 		bl	gfx_PlaceNumber
 1921              	.LVL219:
 1922              		.loc 1 441 0
 1923 01b2 E36A     		ldr	r3, [r4, #44]
 1924 01b4 EB62     		str	r3, [r5, #44]
 1925 01b6 2FE7     		b	.L97
 1926              	.L110:
 1927              		.align	2
 1928              	.L109:
 1929 01b8 00000000 		.word	.LANCHOR1
 1930 01bc 00000000 		.word	.LANCHOR6
 1931              		.cfi_endproc
 1932              	.LFE128:
 1933              		.size	RefreshNumbers, .-RefreshNumbers
 1934              		.section	.text.RefreshTempomatNumber,"ax",%progbits
 1935              		.align	2
 1936              		.p2align 4,,15
 1937              		.global	RefreshTempomatNumber
 1938              		.thumb
ARM GAS  C:\Users\srich\AppData\Local\Temp\ccv3JVxh.s 			page 35


 1939              		.thumb_func
 1940              		.type	RefreshTempomatNumber, %function
 1941              	RefreshTempomatNumber:
 1942              	.LFB129:
 1943              		.loc 1 489 0
 1944              		.cfi_startproc
 1945              		@ args = 0, pretend = 0, frame = 0
 1946              		@ frame_needed = 0, uses_anonymous_args = 0
 1947 0000 30B5     		push	{r4, r5, lr}
 1948              		.cfi_def_cfa_offset 12
 1949              		.cfi_offset 4, -12
 1950              		.cfi_offset 5, -8
 1951              		.cfi_offset 14, -4
 1952              		.loc 1 493 0
 1953 0002 0C4C     		ldr	r4, .L114
 1954              		.loc 1 491 0
 1955 0004 0C4D     		ldr	r5, .L114+4
 1956              		.loc 1 489 0
 1957 0006 85B0     		sub	sp, sp, #20
 1958              		.cfi_def_cfa_offset 32
 1959              		.loc 1 491 0
 1960 0008 FFF7FEFF 		bl	cruiseGet
 1961              	.LVL220:
 1962              		.loc 1 493 0
 1963 000c 636C     		ldr	r3, [r4, #68]
 1964              		.loc 1 491 0
 1965 000e 6864     		str	r0, [r5, #68]
 1966              		.loc 1 493 0
 1967 0010 9842     		cmp	r0, r3
 1968 0012 0CD0     		beq	.L111
 1969              		.loc 1 494 0
 1970 0014 80B2     		uxth	r0, r0
 1971 0016 0322     		movs	r2, #3
 1972 0018 0A23     		movs	r3, #10
 1973 001a 8DE80D00 		stmia	sp, {r0, r2, r3}
 1974 001e 1821     		movs	r1, #24
 1975 0020 1123     		movs	r3, #17
 1976 0022 2220     		movs	r0, #34
 1977 0024 2322     		movs	r2, #35
 1978 0026 FFF7FEFF 		bl	gfx_PlaceNumber
 1979              	.LVL221:
 1980              		.loc 1 495 0
 1981 002a 6B6C     		ldr	r3, [r5, #68]
 1982 002c 6364     		str	r3, [r4, #68]
 1983              	.L111:
 1984              		.loc 1 497 0
 1985 002e 05B0     		add	sp, sp, #20
 1986              		.cfi_def_cfa_offset 12
 1987              		@ sp needed
 1988 0030 30BD     		pop	{r4, r5, pc}
 1989              	.L115:
 1990 0032 00BF     		.align	2
 1991              	.L114:
 1992 0034 00000000 		.word	.LANCHOR6
 1993 0038 00000000 		.word	.LANCHOR1
 1994              		.cfi_endproc
 1995              	.LFE129:
ARM GAS  C:\Users\srich\AppData\Local\Temp\ccv3JVxh.s 			page 36


 1996              		.size	RefreshTempomatNumber, .-RefreshTempomatNumber
 1997              		.section	.text.RefreshGauge,"ax",%progbits
 1998              		.align	2
 1999              		.p2align 4,,15
 2000              		.global	RefreshGauge
 2001              		.thumb
 2002              		.thumb_func
 2003              		.type	RefreshGauge, %function
 2004              	RefreshGauge:
 2005              	.LFB130:
 2006              		.loc 1 498 0
 2007              		.cfi_startproc
 2008              		@ args = 0, pretend = 0, frame = 0
 2009              		@ frame_needed = 0, uses_anonymous_args = 0
 2010 0000 F8B5     		push	{r3, r4, r5, r6, r7, lr}
 2011              		.cfi_def_cfa_offset 24
 2012              		.cfi_offset 3, -24
 2013              		.cfi_offset 4, -20
 2014              		.cfi_offset 5, -16
 2015              		.cfi_offset 6, -12
 2016              		.cfi_offset 7, -8
 2017              		.cfi_offset 14, -4
 2018              		.loc 1 500 0
 2019 0002 174C     		ldr	r4, .L121
 2020 0004 174D     		ldr	r5, .L121+4
 2021 0006 E66C     		ldr	r6, [r4, #76]
 2022 0008 EB6C     		ldr	r3, [r5, #76]
 2023 000a B342     		cmp	r3, r6
 2024 000c 0AD0     		beq	.L117
 2025              	.LVL222:
 2026              	.LBB161:
 2027              	.LBB162:
 2028              		.loc 1 54 0
 2029 000e 3721     		movs	r1, #55
 2030 0010 0020     		movs	r0, #0
 2031 0012 FFF7FEFF 		bl	media_SetSector
 2032              	.LVL223:
 2033              		.loc 1 55 0
 2034 0016 3246     		mov	r2, r6
 2035 0018 0520     		movs	r0, #5
 2036 001a 0021     		movs	r1, #0
 2037 001c FFF7FEFF 		bl	media_VideoFrame
 2038              	.LVL224:
 2039              	.LBE162:
 2040              	.LBE161:
 2041              		.loc 1 502 0
 2042 0020 E36C     		ldr	r3, [r4, #76]
 2043 0022 EB64     		str	r3, [r5, #76]
 2044              	.LVL225:
 2045              	.L117:
 2046              		.loc 1 504 0
 2047 0024 A36A     		ldr	r3, [r4, #40]
 2048 0026 AA6A     		ldr	r2, [r5, #40]
 2049 0028 0E4E     		ldr	r6, .L121+4
 2050 002a 0D4C     		ldr	r4, .L121
 2051 002c 9A42     		cmp	r2, r3
 2052 002e 01D0     		beq	.L116
ARM GAS  C:\Users\srich\AppData\Local\Temp\ccv3JVxh.s 			page 37


 2053              		.loc 1 504 0 is_stmt 0 discriminator 1
 2054 0030 A56D     		ldr	r5, [r4, #88]
 2055 0032 05B1     		cbz	r5, .L120
 2056              	.L116:
 2057 0034 F8BD     		pop	{r3, r4, r5, r6, r7, pc}
 2058              	.L120:
 2059              	.LBB163:
 2060              	.LBB164:
 2061              		.loc 1 505 0 is_stmt 1
 2062 0036 0120     		movs	r0, #1
 2063 0038 FFF7FEFF 		bl	gfx_Transparency
 2064              	.LVL226:
 2065              		.loc 1 506 0
 2066 003c 1F20     		movs	r0, #31
 2067 003e FFF7FEFF 		bl	gfx_TransparentColour
 2068              	.LVL227:
 2069              		.loc 1 507 0
 2070 0042 A76A     		ldr	r7, [r4, #40]
 2071              	.LVL228:
 2072              	.LBB165:
 2073              	.LBB166:
 2074              		.loc 1 54 0
 2075 0044 41F24151 		movw	r1, #5441
 2076 0048 2846     		mov	r0, r5
 2077 004a FFF7FEFF 		bl	media_SetSector
 2078              	.LVL229:
 2079              		.loc 1 55 0
 2080 004e 3A46     		mov	r2, r7
 2081 0050 2946     		mov	r1, r5
 2082 0052 A220     		movs	r0, #162
 2083 0054 FFF7FEFF 		bl	media_VideoFrame
 2084              	.LVL230:
 2085              	.LBE166:
 2086              	.LBE165:
 2087              		.loc 1 508 0
 2088 0058 A36A     		ldr	r3, [r4, #40]
 2089 005a B362     		str	r3, [r6, #40]
 2090 005c F8BD     		pop	{r3, r4, r5, r6, r7, pc}
 2091              	.LVL231:
 2092              	.L122:
 2093 005e 00BF     		.align	2
 2094              	.L121:
 2095 0060 00000000 		.word	.LANCHOR1
 2096 0064 00000000 		.word	.LANCHOR6
 2097              	.LBE164:
 2098              	.LBE163:
 2099              		.cfi_endproc
 2100              	.LFE130:
 2101              		.size	RefreshGauge, .-RefreshGauge
 2102              		.section	.text.dspGetValue,"ax",%progbits
 2103              		.align	2
 2104              		.p2align 4,,15
 2105              		.global	dspGetValue
 2106              		.thumb
 2107              		.thumb_func
 2108              		.type	dspGetValue, %function
 2109              	dspGetValue:
ARM GAS  C:\Users\srich\AppData\Local\Temp\ccv3JVxh.s 			page 38


 2110              	.LFB133:
 2111              		.loc 1 565 0
 2112              		.cfi_startproc
 2113              		@ args = 0, pretend = 0, frame = 0
 2114              		@ frame_needed = 0, uses_anonymous_args = 0
 2115              		@ link register save eliminated.
 2116              		.loc 1 566 0
 2117 0000 014B     		ldr	r3, .L124
 2118              		.loc 1 567 0
 2119 0002 1878     		ldrb	r0, [r3]	@ zero_extendqisi2
 2120 0004 7047     		bx	lr
 2121              	.L125:
 2122 0006 00BF     		.align	2
 2123              	.L124:
 2124 0008 00000000 		.word	.LANCHOR0
 2125              		.cfi_endproc
 2126              	.LFE133:
 2127              		.size	dspGetValue, .-dspGetValue
 2128              		.section	.text.DisplayOnOff,"ax",%progbits
 2129              		.align	2
 2130              		.p2align 4,,15
 2131              		.global	DisplayOnOff
 2132              		.thumb
 2133              		.thumb_func
 2134              		.type	DisplayOnOff, %function
 2135              	DisplayOnOff:
 2136              	.LFB134:
 2137              		.loc 1 568 0
 2138              		.cfi_startproc
 2139              		@ args = 0, pretend = 0, frame = 0
 2140              		@ frame_needed = 0, uses_anonymous_args = 0
 2141              	.LVL232:
 2142              		.loc 1 569 0
 2143 0000 58B1     		cbz	r0, .L127
 2144              		.loc 1 568 0
 2145 0002 10B5     		push	{r4, lr}
 2146              		.cfi_def_cfa_offset 8
 2147              		.cfi_offset 4, -8
 2148              		.cfi_offset 14, -4
 2149 0004 0024     		movs	r4, #0
 2150              	.LVL233:
 2151              	.L128:
 2152              	.LBB168:
 2153              		.loc 1 572 0 discriminator 3
 2154 0006 2046     		mov	r0, r4
 2155 0008 FFF7FEFF 		bl	gfx_Contrast
 2156              	.LVL234:
 2157              		.loc 1 571 0 discriminator 3
 2158 000c 0134     		adds	r4, r4, #1
 2159              	.LVL235:
 2160              		.loc 1 573 0 discriminator 3
 2161 000e 2520     		movs	r0, #37
 2162 0010 FFF7FEFF 		bl	chThdSleep
 2163              	.LVL236:
 2164              		.loc 1 571 0 discriminator 3
 2165 0014 102C     		cmp	r4, #16
 2166 0016 F6D1     		bne	.L128
ARM GAS  C:\Users\srich\AppData\Local\Temp\ccv3JVxh.s 			page 39


 2167 0018 10BD     		pop	{r4, pc}
 2168              	.LVL237:
 2169              	.L127:
 2170              		.cfi_def_cfa_offset 0
 2171              		.cfi_restore 4
 2172              		.cfi_restore 14
 2173              	.LBE168:
 2174              		.loc 1 576 0
 2175 001a FFF7FEBF 		b	gfx_Contrast
 2176              	.LVL238:
 2177              		.cfi_endproc
 2178              	.LFE134:
 2179              		.size	DisplayOnOff, .-DisplayOnOff
 2180 001e 00BF     		.section	.text.ReDrawLcd,"ax",%progbits
 2181              		.align	2
 2182              		.p2align 4,,15
 2183              		.global	ReDrawLcd
 2184              		.thumb
 2185              		.thumb_func
 2186              		.type	ReDrawLcd, %function
 2187              	ReDrawLcd:
 2188              	.LFB135:
 2189              		.loc 1 579 0
 2190              		.cfi_startproc
 2191              		@ args = 0, pretend = 0, frame = 0
 2192              		@ frame_needed = 0, uses_anonymous_args = 0
 2193 0000 08B5     		push	{r3, lr}
 2194              		.cfi_def_cfa_offset 8
 2195              		.cfi_offset 3, -8
 2196              		.cfi_offset 14, -4
 2197              		.loc 1 580 0
 2198 0002 FFF7FEFF 		bl	gfx_Cls
 2199              	.LVL239:
 2200              		.loc 1 581 0
 2201 0006 FFF7FEFF 		bl	LoadImages
 2202              	.LVL240:
 2203 000a 054B     		ldr	r3, .L137
 2204              	.LBB169:
 2205              	.LBB170:
 2206              		.loc 1 587 0
 2207 000c 4FF0FF31 		mov	r1, #-1
 2208 0010 03F15C02 		add	r2, r3, #92
 2209              	.LVL241:
 2210              	.L134:
 2211 0014 43F8041F 		str	r1, [r3, #4]!
 2212              		.loc 1 586 0
 2213 0018 9342     		cmp	r3, r2
 2214 001a FBD1     		bne	.L134
 2215              	.LBE170:
 2216              	.LBE169:
 2217              		.loc 1 583 0
 2218 001c 08BD     		pop	{r3, pc}
 2219              	.L138:
 2220 001e 00BF     		.align	2
 2221              	.L137:
 2222 0020 FCFFFFFF 		.word	.LANCHOR6-4
 2223              		.cfi_endproc
ARM GAS  C:\Users\srich\AppData\Local\Temp\ccv3JVxh.s 			page 40


 2224              	.LFE135:
 2225              		.size	ReDrawLcd, .-ReDrawLcd
 2226              		.section	.text.RefreshPiktograms,"ax",%progbits
 2227              		.align	2
 2228              		.p2align 4,,15
 2229              		.global	RefreshPiktograms
 2230              		.thumb
 2231              		.thumb_func
 2232              		.type	RefreshPiktograms, %function
 2233              	RefreshPiktograms:
 2234              	.LFB127:
 2235              		.loc 1 366 0
 2236              		.cfi_startproc
 2237              		@ args = 0, pretend = 0, frame = 0
 2238              		@ frame_needed = 0, uses_anonymous_args = 0
 2239 0000 2DE9F041 		push	{r4, r5, r6, r7, r8, lr}
 2240              		.cfi_def_cfa_offset 24
 2241              		.cfi_offset 4, -24
 2242              		.cfi_offset 5, -20
 2243              		.cfi_offset 6, -16
 2244              		.cfi_offset 7, -12
 2245              		.cfi_offset 8, -8
 2246              		.cfi_offset 14, -4
 2247              		.loc 1 367 0
 2248 0004 6F4D     		ldr	r5, .L155
 2249 0006 704C     		ldr	r4, .L155+4
 2250 0008 2E68     		ldr	r6, [r5]
 2251 000a 2368     		ldr	r3, [r4]
 2252 000c B342     		cmp	r3, r6
 2253 000e 0CD0     		beq	.L140
 2254              	.LVL242:
 2255              	.LBB197:
 2256              	.LBB198:
 2257              		.loc 1 54 0
 2258 0010 41F21841 		movw	r1, #5144
 2259 0014 0020     		movs	r0, #0
 2260 0016 FFF7FEFF 		bl	media_SetSector
 2261              	.LVL243:
 2262              		.loc 1 55 0
 2263 001a 3246     		mov	r2, r6
 2264 001c 4FF4D970 		mov	r0, #434
 2265 0020 0421     		movs	r1, #4
 2266 0022 FFF7FEFF 		bl	media_VideoFrame
 2267              	.LVL244:
 2268              	.LBE198:
 2269              	.LBE197:
 2270              		.loc 1 369 0
 2271 0026 2B68     		ldr	r3, [r5]
 2272 0028 2360     		str	r3, [r4]
 2273              	.LVL245:
 2274              	.L140:
 2275              		.loc 1 372 0
 2276 002a 6E68     		ldr	r6, [r5, #4]
 2277 002c 6368     		ldr	r3, [r4, #4]
 2278 002e DFF89481 		ldr	r8, .L155
 2279 0032 654F     		ldr	r7, .L155+4
 2280 0034 B342     		cmp	r3, r6
ARM GAS  C:\Users\srich\AppData\Local\Temp\ccv3JVxh.s 			page 41


 2281 0036 0DD0     		beq	.L141
 2282              	.LVL246:
 2283              	.LBB199:
 2284              	.LBB200:
 2285              		.loc 1 54 0
 2286 0038 41F22341 		movw	r1, #5155
 2287 003c 0020     		movs	r0, #0
 2288 003e FFF7FEFF 		bl	media_SetSector
 2289              	.LVL247:
 2290              		.loc 1 55 0
 2291 0042 3246     		mov	r2, r6
 2292 0044 4FF4D970 		mov	r0, #434
 2293 0048 EB21     		movs	r1, #235
 2294 004a FFF7FEFF 		bl	media_VideoFrame
 2295              	.LVL248:
 2296              	.LBE200:
 2297              	.LBE199:
 2298              		.loc 1 374 0
 2299 004e D8F80430 		ldr	r3, [r8, #4]
 2300 0052 7B60     		str	r3, [r7, #4]
 2301              	.LVL249:
 2302              	.L141:
 2303              		.loc 1 377 0
 2304 0054 6E69     		ldr	r6, [r5, #20]
 2305 0056 6369     		ldr	r3, [r4, #20]
 2306 0058 DFF86881 		ldr	r8, .L155
 2307 005c 5A4F     		ldr	r7, .L155+4
 2308 005e B342     		cmp	r3, r6
 2309 0060 0DD0     		beq	.L142
 2310              	.LVL250:
 2311              	.LBB201:
 2312              	.LBB202:
 2313              		.loc 1 54 0
 2314 0062 41F2F131 		movw	r1, #5105
 2315 0066 0020     		movs	r0, #0
 2316 0068 FFF7FEFF 		bl	media_SetSector
 2317              	.LVL251:
 2318              		.loc 1 55 0
 2319 006c 3246     		mov	r2, r6
 2320 006e 4FF4BE70 		mov	r0, #380
 2321 0072 0A21     		movs	r1, #10
 2322 0074 FFF7FEFF 		bl	media_VideoFrame
 2323              	.LVL252:
 2324              	.LBE202:
 2325              	.LBE201:
 2326              		.loc 1 379 0
 2327 0078 D8F81430 		ldr	r3, [r8, #20]
 2328 007c 7B61     		str	r3, [r7, #20]
 2329              	.LVL253:
 2330              	.L142:
 2331              		.loc 1 382 0
 2332 007e 2E6A     		ldr	r6, [r5, #32]
 2333 0080 236A     		ldr	r3, [r4, #32]
 2334 0082 DFF84081 		ldr	r8, .L155
 2335 0086 504F     		ldr	r7, .L155+4
 2336 0088 B342     		cmp	r3, r6
 2337 008a 0DD0     		beq	.L143
ARM GAS  C:\Users\srich\AppData\Local\Temp\ccv3JVxh.s 			page 42


 2338              	.LVL254:
 2339              	.LBB203:
 2340              	.LBB204:
 2341              		.loc 1 54 0
 2342 008c 41F22F51 		movw	r1, #5423
 2343 0090 0020     		movs	r0, #0
 2344 0092 FFF7FEFF 		bl	media_SetSector
 2345              	.LVL255:
 2346              		.loc 1 55 0
 2347 0096 3246     		mov	r2, r6
 2348 0098 4FF4C070 		mov	r0, #384
 2349 009c D721     		movs	r1, #215
 2350 009e FFF7FEFF 		bl	media_VideoFrame
 2351              	.LVL256:
 2352              	.LBE204:
 2353              	.LBE203:
 2354              		.loc 1 384 0
 2355 00a2 D8F82030 		ldr	r3, [r8, #32]
 2356 00a6 3B62     		str	r3, [r7, #32]
 2357              	.LVL257:
 2358              	.L143:
 2359              		.loc 1 388 0
 2360 00a8 EE69     		ldr	r6, [r5, #28]
 2361 00aa E369     		ldr	r3, [r4, #28]
 2362 00ac DFF81481 		ldr	r8, .L155
 2363 00b0 454F     		ldr	r7, .L155+4
 2364 00b2 B342     		cmp	r3, r6
 2365 00b4 0DD0     		beq	.L144
 2366              	.LVL258:
 2367              	.LBB205:
 2368              	.LBB206:
 2369              		.loc 1 54 0
 2370 00b6 41F20A41 		movw	r1, #5130
 2371 00ba 0020     		movs	r0, #0
 2372 00bc FFF7FEFF 		bl	media_SetSector
 2373              	.LVL259:
 2374              		.loc 1 55 0
 2375 00c0 3246     		mov	r2, r6
 2376 00c2 40F27F10 		movw	r0, #383
 2377 00c6 9821     		movs	r1, #152
 2378 00c8 FFF7FEFF 		bl	media_VideoFrame
 2379              	.LVL260:
 2380              	.LBE206:
 2381              	.LBE205:
 2382              		.loc 1 390 0
 2383 00cc D8F81C30 		ldr	r3, [r8, #28]
 2384 00d0 FB61     		str	r3, [r7, #28]
 2385              	.LVL261:
 2386              	.L144:
 2387              		.loc 1 393 0
 2388 00d2 AE69     		ldr	r6, [r5, #24]
 2389 00d4 A369     		ldr	r3, [r4, #24]
 2390 00d6 DFF8EC80 		ldr	r8, .L155
 2391 00da 3B4F     		ldr	r7, .L155+4
 2392 00dc B342     		cmp	r3, r6
 2393 00de 0CD0     		beq	.L145
 2394              	.LVL262:
ARM GAS  C:\Users\srich\AppData\Local\Temp\ccv3JVxh.s 			page 43


 2395              	.LBB207:
 2396              	.LBB208:
 2397              		.loc 1 54 0
 2398 00e0 0020     		movs	r0, #0
 2399 00e2 0146     		mov	r1, r0
 2400 00e4 FFF7FEFF 		bl	media_SetSector
 2401              	.LVL263:
 2402              		.loc 1 55 0
 2403 00e8 3246     		mov	r2, r6
 2404 00ea 4FF4C070 		mov	r0, #384
 2405 00ee 4E21     		movs	r1, #78
 2406 00f0 FFF7FEFF 		bl	media_VideoFrame
 2407              	.LVL264:
 2408              	.LBE208:
 2409              	.LBE207:
 2410              		.loc 1 395 0
 2411 00f4 D8F81830 		ldr	r3, [r8, #24]
 2412 00f8 BB61     		str	r3, [r7, #24]
 2413              	.LVL265:
 2414              	.L145:
 2415              		.loc 1 400 0
 2416 00fa AE6C     		ldr	r6, [r5, #72]
 2417 00fc A36C     		ldr	r3, [r4, #72]
 2418 00fe DFF8C480 		ldr	r8, .L155
 2419 0102 314F     		ldr	r7, .L155+4
 2420 0104 B342     		cmp	r3, r6
 2421 0106 0CD0     		beq	.L146
 2422              	.LVL266:
 2423              	.LBB209:
 2424              	.LBB210:
 2425              		.loc 1 54 0
 2426 0108 44F69101 		movw	r1, #18577
 2427 010c 0020     		movs	r0, #0
 2428 010e FFF7FEFF 		bl	media_SetSector
 2429              	.LVL267:
 2430              		.loc 1 55 0
 2431 0112 3246     		mov	r2, r6
 2432 0114 1820     		movs	r0, #24
 2433 0116 3C21     		movs	r1, #60
 2434 0118 FFF7FEFF 		bl	media_VideoFrame
 2435              	.LVL268:
 2436              	.LBE210:
 2437              	.LBE209:
 2438              		.loc 1 402 0
 2439 011c D8F84830 		ldr	r3, [r8, #72]
 2440 0120 BB64     		str	r3, [r7, #72]
 2441              	.LVL269:
 2442              	.L146:
 2443              		.loc 1 406 0
 2444 0122 2E6C     		ldr	r6, [r5, #64]
 2445 0124 236C     		ldr	r3, [r4, #64]
 2446 0126 DFF89C80 		ldr	r8, .L155
 2447 012a 274F     		ldr	r7, .L155+4
 2448 012c B342     		cmp	r3, r6
 2449 012e 0CD0     		beq	.L147
 2450              	.LVL270:
 2451              	.LBB211:
ARM GAS  C:\Users\srich\AppData\Local\Temp\ccv3JVxh.s 			page 44


 2452              	.LBB212:
 2453              		.loc 1 54 0
 2454 0130 44F63E01 		movw	r1, #18494
 2455 0134 0020     		movs	r0, #0
 2456 0136 FFF7FEFF 		bl	media_SetSector
 2457              	.LVL271:
 2458              		.loc 1 55 0
 2459 013a 3246     		mov	r2, r6
 2460 013c 4F20     		movs	r0, #79
 2461 013e E621     		movs	r1, #230
 2462 0140 FFF7FEFF 		bl	media_VideoFrame
 2463              	.LVL272:
 2464              	.LBE212:
 2465              	.LBE211:
 2466              		.loc 1 408 0
 2467 0144 D8F84030 		ldr	r3, [r8, #64]
 2468 0148 3B64     		str	r3, [r7, #64]
 2469              	.LVL273:
 2470              	.L147:
 2471              		.loc 1 411 0
 2472 014a 6E6A     		ldr	r6, [r5, #36]
 2473 014c 636A     		ldr	r3, [r4, #36]
 2474 014e DFF87480 		ldr	r8, .L155
 2475 0152 1D4F     		ldr	r7, .L155+4
 2476 0154 B342     		cmp	r3, r6
 2477 0156 0CD0     		beq	.L148
 2478              	.LVL274:
 2479              	.LBB213:
 2480              	.LBB214:
 2481              		.loc 1 54 0
 2482 0158 41F2E831 		movw	r1, #5096
 2483 015c 0020     		movs	r0, #0
 2484 015e FFF7FEFF 		bl	media_SetSector
 2485              	.LVL275:
 2486              		.loc 1 55 0
 2487 0162 3246     		mov	r2, r6
 2488 0164 1820     		movs	r0, #24
 2489 0166 7B21     		movs	r1, #123
 2490 0168 FFF7FEFF 		bl	media_VideoFrame
 2491              	.LVL276:
 2492              	.LBE214:
 2493              	.LBE213:
 2494              		.loc 1 413 0
 2495 016c D8F82430 		ldr	r3, [r8, #36]
 2496 0170 7B62     		str	r3, [r7, #36]
 2497              	.LVL277:
 2498              	.L148:
 2499              		.loc 1 416 0
 2500 0172 AD6D     		ldr	r5, [r5, #88]
 2501 0174 A36D     		ldr	r3, [r4, #88]
 2502 0176 134E     		ldr	r6, .L155
 2503 0178 AB42     		cmp	r3, r5
 2504 017a 03D0     		beq	.L139
 2505              		.loc 1 417 0
 2506 017c 012D     		cmp	r5, #1
 2507 017e 0DD0     		beq	.L153
 2508              		.loc 1 425 0
ARM GAS  C:\Users\srich\AppData\Local\Temp\ccv3JVxh.s 			page 45


 2509 0180 15B1     		cbz	r5, .L154
 2510              	.L151:
 2511              		.loc 1 432 0
 2512 0182 A565     		str	r5, [r4, #88]
 2513              	.L139:
 2514 0184 BDE8F081 		pop	{r4, r5, r6, r7, r8, pc}
 2515              	.L154:
 2516              	.LVL278:
 2517              	.LBB215:
 2518              	.LBB216:
 2519              		.loc 1 576 0
 2520 0188 2846     		mov	r0, r5
 2521 018a FFF7FEFF 		bl	gfx_Contrast
 2522              	.LVL279:
 2523              	.LBE216:
 2524              	.LBE215:
 2525              		.loc 1 428 0
 2526 018e FFF7FEFF 		bl	ReDrawLcd
 2527              	.LVL280:
 2528              		.loc 1 429 0
 2529 0192 0120     		movs	r0, #1
 2530 0194 FFF7FEFF 		bl	DisplayOnOff
 2531              	.LVL281:
 2532 0198 B56D     		ldr	r5, [r6, #88]
 2533 019a F2E7     		b	.L151
 2534              	.LVL282:
 2535              	.L153:
 2536              	.LBB217:
 2537              	.LBB218:
 2538              		.loc 1 576 0
 2539 019c 0020     		movs	r0, #0
 2540 019e FFF7FEFF 		bl	gfx_Contrast
 2541              	.LVL283:
 2542              	.LBE218:
 2543              	.LBE217:
 2544              		.loc 1 420 0
 2545 01a2 FFF7FEFF 		bl	ReDrawLcd
 2546              	.LVL284:
 2547              	.LBB219:
 2548              	.LBB220:
 2549              		.loc 1 46 0
 2550 01a6 44F6AA01 		movw	r1, #18602
 2551 01aa 0020     		movs	r0, #0
 2552 01ac FFF7FEFF 		bl	media_SetSector
 2553              	.LVL285:
 2554              		.loc 1 47 0
 2555 01b0 A420     		movs	r0, #164
 2556 01b2 5A21     		movs	r1, #90
 2557 01b4 FFF7FEFF 		bl	media_Image
 2558              	.LVL286:
 2559              	.LBE220:
 2560              	.LBE219:
 2561              		.loc 1 422 0
 2562 01b8 2846     		mov	r0, r5
 2563 01ba FFF7FEFF 		bl	DisplayOnOff
 2564              	.LVL287:
 2565 01be B56D     		ldr	r5, [r6, #88]
ARM GAS  C:\Users\srich\AppData\Local\Temp\ccv3JVxh.s 			page 46


 2566 01c0 DFE7     		b	.L151
 2567              	.L156:
 2568 01c2 00BF     		.align	2
 2569              	.L155:
 2570 01c4 00000000 		.word	.LANCHOR1
 2571 01c8 00000000 		.word	.LANCHOR6
 2572              		.cfi_endproc
 2573              	.LFE127:
 2574              		.size	RefreshPiktograms, .-RefreshPiktograms
 2575              		.section	.text.DSPThread,"ax",%progbits
 2576              		.align	2
 2577              		.p2align 4,,15
 2578              		.thumb
 2579              		.thumb_func
 2580              		.type	DSPThread, %function
 2581              	DSPThread:
 2582              	.LFB131:
 2583              		.loc 1 515 0
 2584              		.cfi_startproc
 2585              		@ args = 0, pretend = 0, frame = 0
 2586              		@ frame_needed = 0, uses_anonymous_args = 0
 2587              	.LVL288:
 2588 0000 F8B5     		push	{r3, r4, r5, r6, r7, lr}
 2589              		.cfi_def_cfa_offset 24
 2590              		.cfi_offset 3, -24
 2591              		.cfi_offset 4, -20
 2592              		.cfi_offset 5, -16
 2593              		.cfi_offset 6, -12
 2594              		.cfi_offset 7, -8
 2595              		.cfi_offset 14, -4
 2596              		.loc 1 519 0
 2597 0002 194B     		ldr	r3, .L163
 2598 0004 194A     		ldr	r2, .L163+4
 2599 0006 9B69     		ldr	r3, [r3, #24]
 2600              		.loc 1 529 0
 2601 0008 194F     		ldr	r7, .L163+8
 2602              		.loc 1 519 0
 2603 000a 9A61     		str	r2, [r3, #24]
 2604              		.loc 1 521 0
 2605 000c FFF7FEFF 		bl	ReDrawLcd
 2606              	.LVL289:
 2607              		.loc 1 526 0
 2608 0010 184B     		ldr	r3, .L163+12
 2609              		.loc 1 534 0
 2610 0012 194E     		ldr	r6, .L163+16
 2611              		.loc 1 526 0
 2612 0014 DB68     		ldr	r3, [r3, #12]
 2613              		.loc 1 525 0
 2614 0016 0024     		movs	r4, #0
 2615 0018 12E0     		b	.L160
 2616              	.LVL290:
 2617              	.L158:
 2618              		.loc 1 534 0
 2619 001a 84FB0623 		smull	r2, r3, r4, r6
 2620 001e 2344     		add	r3, r3, r4
 2621 0020 C5EBA305 		rsb	r5, r5, r3, asr #2
 2622 0024 C5EBC505 		rsb	r5, r5, r5, lsl #3
ARM GAS  C:\Users\srich\AppData\Local\Temp\ccv3JVxh.s 			page 47


 2623 0028 AC42     		cmp	r4, r5
 2624 002a 17D0     		beq	.L162
 2625              	.L159:
 2626              		.loc 1 539 0
 2627 002c FFF7FEFF 		bl	RefreshTempomatNumber
 2628              	.LVL291:
 2629              		.loc 1 540 0
 2630 0030 FFF7FEFF 		bl	GaugeDataBinding
 2631              	.LVL292:
 2632              		.loc 1 541 0
 2633 0034 FFF7FEFF 		bl	RefreshGauge
 2634              	.LVL293:
 2635              		.loc 1 544 0
 2636 0038 3220     		movs	r0, #50
 2637              		.loc 1 543 0
 2638 003a 0134     		adds	r4, r4, #1
 2639              	.LVL294:
 2640              		.loc 1 544 0
 2641 003c FFF7FEFF 		bl	chThdSleep
 2642              	.LVL295:
 2643              	.L160:
 2644              		.loc 1 529 0
 2645 0040 87FB0423 		smull	r2, r3, r7, r4
 2646 0044 E517     		asrs	r5, r4, #31
 2647 0046 C5EB6303 		rsb	r3, r5, r3, asr #1
 2648 004a 03EB8303 		add	r3, r3, r3, lsl #2
 2649 004e 9C42     		cmp	r4, r3
 2650 0050 E3D1     		bne	.L158
 2651              		.loc 1 530 0
 2652 0052 FFF7FEFF 		bl	PictogramDataBinding
 2653              	.LVL296:
 2654              		.loc 1 531 0
 2655 0056 FFF7FEFF 		bl	RefreshPiktograms
 2656              	.LVL297:
 2657 005a DEE7     		b	.L158
 2658              	.L162:
 2659              		.loc 1 535 0
 2660 005c FFF7FEFF 		bl	NumberDataBinding
 2661              	.LVL298:
 2662              		.loc 1 536 0
 2663 0060 FFF7FEFF 		bl	RefreshNumbers
 2664              	.LVL299:
 2665 0064 E2E7     		b	.L159
 2666              	.L164:
 2667 0066 00BF     		.align	2
 2668              	.L163:
 2669 0068 00000000 		.word	rlist
 2670 006c 0C000000 		.word	.LC1
 2671 0070 67666666 		.word	1717986919
 2672 0074 00000000 		.word	vtlist
 2673 0078 93244992 		.word	-1840700269
 2674              		.cfi_endproc
 2675              	.LFE131:
 2676              		.size	DSPThread, .-DSPThread
 2677              		.section	.text.DeleteOldValues,"ax",%progbits
 2678              		.align	2
 2679              		.p2align 4,,15
ARM GAS  C:\Users\srich\AppData\Local\Temp\ccv3JVxh.s 			page 48


 2680              		.global	DeleteOldValues
 2681              		.thumb
 2682              		.thumb_func
 2683              		.type	DeleteOldValues, %function
 2684              	DeleteOldValues:
 2685              	.LFB136:
 2686              		.loc 1 584 0
 2687              		.cfi_startproc
 2688              		@ args = 0, pretend = 0, frame = 0
 2689              		@ frame_needed = 0, uses_anonymous_args = 0
 2690              		@ link register save eliminated.
 2691              	.LVL300:
 2692 0000 044B     		ldr	r3, .L168
 2693              		.loc 1 587 0
 2694 0002 4FF0FF31 		mov	r1, #-1
 2695 0006 03F15C02 		add	r2, r3, #92
 2696              	.LVL301:
 2697              	.L166:
 2698              		.loc 1 587 0 is_stmt 0 discriminator 3
 2699 000a 43F8041F 		str	r1, [r3, #4]!
 2700              		.loc 1 586 0 is_stmt 1 discriminator 3
 2701 000e 9342     		cmp	r3, r2
 2702 0010 FBD1     		bne	.L166
 2703              		.loc 1 588 0
 2704 0012 7047     		bx	lr
 2705              	.L169:
 2706              		.align	2
 2707              	.L168:
 2708 0014 FCFFFFFF 		.word	.LANCHOR6-4
 2709              		.cfi_endproc
 2710              	.LFE136:
 2711              		.size	DeleteOldValues, .-DeleteOldValues
 2712              		.section	.text.dspInit,"ax",%progbits
 2713              		.align	2
 2714              		.p2align 4,,15
 2715              		.global	dspInit
 2716              		.thumb
 2717              		.thumb_func
 2718              		.type	dspInit, %function
 2719              	dspInit:
 2720              	.LFB137:
 2721              		.loc 1 590 0
 2722              		.cfi_startproc
 2723              		@ args = 0, pretend = 0, frame = 0
 2724              		@ frame_needed = 0, uses_anonymous_args = 0
 2725 0000 10B5     		push	{r4, lr}
 2726              		.cfi_def_cfa_offset 8
 2727              		.cfi_offset 4, -8
 2728              		.cfi_offset 14, -4
 2729              		.loc 1 600 0
 2730 0002 0024     		movs	r4, #0
 2731              		.loc 1 590 0
 2732 0004 82B0     		sub	sp, sp, #8
 2733              		.cfi_def_cfa_offset 16
 2734              		.loc 1 591 0
 2735 0006 FFF7FEFF 		bl	SerialInit
 2736              	.LVL302:
ARM GAS  C:\Users\srich\AppData\Local\Temp\ccv3JVxh.s 			page 49


 2737              	.LBB224:
 2738              	.LBB225:
 2739              		.loc 1 576 0
 2740 000a 2046     		mov	r0, r4
 2741 000c FFF7FEFF 		bl	gfx_Contrast
 2742              	.LVL303:
 2743              	.LBE225:
 2744              	.LBE224:
 2745              		.loc 1 594 0
 2746 0010 FFF7FEFF 		bl	file_Mount
 2747              	.LVL304:
 2748              		.loc 1 600 0
 2749 0014 0094     		str	r4, [sp]
 2750 0016 084B     		ldr	r3, .L172
 2751 0018 0848     		ldr	r0, .L172+4
 2752 001a 4FF49A61 		mov	r1, #1232
 2753 001e 4722     		movs	r2, #71
 2754 0020 FFF7FEFF 		bl	chThdCreateStatic
 2755              	.LVL305:
 2756              		.loc 1 602 0
 2757 0024 0094     		str	r4, [sp]
 2758 0026 064B     		ldr	r3, .L172+8
 2759 0028 0648     		ldr	r0, .L172+12
 2760 002a 4FF49A61 		mov	r1, #1232
 2761 002e 4722     		movs	r2, #71
 2762 0030 FFF7FEFF 		bl	chThdCreateStatic
 2763              	.LVL306:
 2764              		.loc 1 603 0
 2765 0034 02B0     		add	sp, sp, #8
 2766              		.cfi_def_cfa_offset 8
 2767              		@ sp needed
 2768 0036 10BD     		pop	{r4, pc}
 2769              	.L173:
 2770              		.align	2
 2771              	.L172:
 2772 0038 00000000 		.word	DSPReader
 2773 003c 00000000 		.word	.LANCHOR7
 2774 0040 00000000 		.word	DSPThread
 2775 0044 00000000 		.word	.LANCHOR8
 2776              		.cfi_endproc
 2777              	.LFE137:
 2778              		.size	dspInit, .-dspInit
 2779              		.section	.text.cmd_dspvalues,"ax",%progbits
 2780              		.align	2
 2781              		.p2align 4,,15
 2782              		.global	cmd_dspvalues
 2783              		.thumb
 2784              		.thumb_func
 2785              		.type	cmd_dspvalues, %function
 2786              	cmd_dspvalues:
 2787              	.LFB138:
 2788              		.loc 1 605 0
 2789              		.cfi_startproc
 2790              		@ args = 0, pretend = 0, frame = 0
 2791              		@ frame_needed = 0, uses_anonymous_args = 0
 2792              	.LVL307:
 2793 0000 70B5     		push	{r4, r5, r6, lr}
ARM GAS  C:\Users\srich\AppData\Local\Temp\ccv3JVxh.s 			page 50


 2794              		.cfi_def_cfa_offset 16
 2795              		.cfi_offset 4, -16
 2796              		.cfi_offset 5, -12
 2797              		.cfi_offset 6, -8
 2798              		.cfi_offset 14, -4
 2799              		.loc 1 606 0
 2800 0002 1E49     		ldr	r1, .L178
 2801              	.LVL308:
 2802              		.loc 1 612 0
 2803 0004 1E4E     		ldr	r6, .L178+4
 2804              		.loc 1 605 0
 2805 0006 0446     		mov	r4, r0
 2806              		.loc 1 606 0
 2807 0008 FFF7FEFF 		bl	chprintf
 2808              	.LVL309:
 2809              		.loc 1 607 0
 2810 000c 2046     		mov	r0, r4
 2811 000e 1D49     		ldr	r1, .L178+8
 2812 0010 FFF7FEFF 		bl	chprintf
 2813              	.LVL310:
 2814              		.loc 1 609 0
 2815 0014 26E0     		b	.L175
 2816              	.LVL311:
 2817              	.L176:
 2818              		.loc 1 610 0
 2819 0016 FFF7FEFF 		bl	chprintf
 2820              	.LVL312:
 2821              		.loc 1 611 0
 2822 001a 2046     		mov	r0, r4
 2823 001c 1949     		ldr	r1, .L178+8
 2824 001e FFF7FEFF 		bl	chprintf
 2825              	.LVL313:
 2826              		.loc 1 612 0
 2827 0022 2046     		mov	r0, r4
 2828 0024 1849     		ldr	r1, .L178+12
 2829 0026 3278     		ldrb	r2, [r6]	@ zero_extendqisi2
 2830 0028 FFF7FEFF 		bl	chprintf
 2831              	.LVL314:
 2832              		.loc 1 613 0
 2833 002c 2046     		mov	r0, r4
 2834 002e 1749     		ldr	r1, .L178+16
 2835 0030 2A6D     		ldr	r2, [r5, #80]
 2836 0032 FFF7FEFF 		bl	chprintf
 2837              	.LVL315:
 2838              		.loc 1 614 0
 2839 0036 2046     		mov	r0, r4
 2840 0038 1549     		ldr	r1, .L178+20
 2841 003a EA6B     		ldr	r2, [r5, #60]
 2842 003c FFF7FEFF 		bl	chprintf
 2843              	.LVL316:
 2844              		.loc 1 615 0
 2845 0040 2046     		mov	r0, r4
 2846 0042 1449     		ldr	r1, .L178+24
 2847 0044 2A6B     		ldr	r2, [r5, #48]
 2848 0046 FFF7FEFF 		bl	chprintf
 2849              	.LVL317:
 2850              		.loc 1 616 0
ARM GAS  C:\Users\srich\AppData\Local\Temp\ccv3JVxh.s 			page 51


 2851 004a 2046     		mov	r0, r4
 2852 004c 1249     		ldr	r1, .L178+28
 2853 004e AA6A     		ldr	r2, [r5, #40]
 2854 0050 FFF7FEFF 		bl	chprintf
 2855              	.LVL318:
 2856              		.loc 1 618 0
 2857 0054 2046     		mov	r0, r4
 2858 0056 6A69     		ldr	r2, [r5, #20]
 2859 0058 1049     		ldr	r1, .L178+32
 2860 005a FFF7FEFF 		bl	chprintf
 2861              	.LVL319:
 2862              		.loc 1 623 0
 2863 005e 3220     		movs	r0, #50
 2864 0060 FFF7FEFF 		bl	chThdSleep
 2865              	.LVL320:
 2866              	.L175:
 2867              		.loc 1 609 0
 2868 0064 2368     		ldr	r3, [r4]
 2869              		.loc 1 613 0
 2870 0066 0E4D     		ldr	r5, .L178+36
 2871              		.loc 1 609 0
 2872 0068 5B69     		ldr	r3, [r3, #20]
 2873 006a 0021     		movs	r1, #0
 2874 006c 2046     		mov	r0, r4
 2875 006e 9847     		blx	r3
 2876              	.LVL321:
 2877 0070 0130     		adds	r0, r0, #1
 2878              		.loc 1 610 0
 2879 0072 0249     		ldr	r1, .L178
 2880 0074 2046     		mov	r0, r4
 2881              		.loc 1 609 0
 2882 0076 CED0     		beq	.L176
 2883              	.LVL322:
 2884              		.loc 1 625 0
 2885 0078 70BD     		pop	{r4, r5, r6, pc}
 2886              	.L179:
 2887 007a 00BF     		.align	2
 2888              	.L178:
 2889 007c 18000000 		.word	.LC2
 2890 0080 00000000 		.word	.LANCHOR0
 2891 0084 1C000000 		.word	.LC3
 2892 0088 24000000 		.word	.LC4
 2893 008c 38000000 		.word	.LC5
 2894 0090 44000000 		.word	.LC6
 2895 0094 54000000 		.word	.LC7
 2896 0098 64000000 		.word	.LC8
 2897 009c 74000000 		.word	.LC9
 2898 00a0 00000000 		.word	.LANCHOR1
 2899              		.cfi_endproc
 2900              	.LFE138:
 2901              		.size	cmd_dspvalues, .-cmd_dspvalues
 2902              		.global	pos
 2903              		.section	.bss.bus_status,"aw",%nobits
 2904              		.set	.LANCHOR0,. + 0
 2905              		.type	bus_status, %object
 2906              		.size	bus_status, 1
 2907              	bus_status:
ARM GAS  C:\Users\srich\AppData\Local\Temp\ccv3JVxh.s 			page 52


 2908 0000 00       		.space	1
 2909              		.section	.bss.blinker,"aw",%nobits
 2910              		.set	.LANCHOR3,. + 0
 2911              		.type	blinker, %object
 2912              		.size	blinker, 1
 2913              	blinker:
 2914 0000 00       		.space	1
 2915              		.section	.bss.waDSPThread,"aw",%nobits
 2916              		.align	3
 2917              		.set	.LANCHOR8,. + 0
 2918              		.type	waDSPThread, %object
 2919              		.size	waDSPThread, 1232
 2920              	waDSPThread:
 2921 0000 00000000 		.space	1232
 2921      00000000 
 2921      00000000 
 2921      00000000 
 2921      00000000 
 2922              		.section	.data.TPBlinker,"aw",%progbits
 2923              		.set	.LANCHOR4,. + 0
 2924              		.type	TPBlinker, %object
 2925              		.size	TPBlinker, 1
 2926              	TPBlinker:
 2927 0000 02       		.byte	2
 2928              		.section	.rodata.str1.4,"aMS",%progbits,1
 2929              		.align	2
 2930              	.LC0:
 2931 0000 64737072 		.ascii	"dspreader\000"
 2931      65616465 
 2931      7200
 2932 000a 0000     		.space	2
 2933              	.LC1:
 2934 000c 64737074 		.ascii	"dspthread\000"
 2934      68726561 
 2934      6400
 2935 0016 0000     		.space	2
 2936              	.LC2:
 2937 0018 1B6300   		.ascii	"\033c\000"
 2938 001b 00       		.space	1
 2939              	.LC3:
 2940 001c 1B5B324A 		.ascii	"\033[2J\000"
 2940      00
 2941 0021 000000   		.space	3
 2942              	.LC4:
 2943 0024 6275735F 		.ascii	"bus_read 0x%02x\015\012\000"
 2943      72656164 
 2943      20307825 
 2943      3032780D 
 2943      0A00
 2944 0036 0000     		.space	2
 2945              	.LC5:
 2946 0038 6D657465 		.ascii	"meter %d\015\012\000"
 2946      72202564 
 2946      0D0A00
 2947 0043 00       		.space	1
 2948              	.LC6:
 2949 0044 4D65726C 		.ascii	"Merlegwatt %d\015\012\000"
ARM GAS  C:\Users\srich\AppData\Local\Temp\ccv3JVxh.s 			page 53


 2949      65677761 
 2949      74742025 
 2949      640D0A00 
 2950              	.LC7:
 2951 0054 4D6F746F 		.ascii	"Motorwatt %d\015\012\000"
 2951      72776174 
 2951      74202564 
 2951      0D0A00
 2952 0063 00       		.space	1
 2953              	.LC8:
 2954 0064 4D65726C 		.ascii	"Merleggraf %d\015\012\000"
 2954      65676772 
 2954      61662025 
 2954      640D0A00 
 2955              	.LC9:
 2956 0074 54697265 		.ascii	"TirePressure %d\015\012\000"
 2956      50726573 
 2956      73757265 
 2956      2025640D 
 2956      0A00
 2957              		.section	.bss.waDSPReader,"aw",%nobits
 2958              		.align	3
 2959              		.set	.LANCHOR7,. + 0
 2960              		.type	waDSPReader, %object
 2961              		.size	waDSPReader, 1232
 2962              	waDSPReader:
 2963 0000 00000000 		.space	1232
 2963      00000000 
 2963      00000000 
 2963      00000000 
 2963      00000000 
 2964              		.section	.data.NewValues,"aw",%progbits
 2965              		.align	2
 2966              		.set	.LANCHOR1,. + 0
 2967              		.type	NewValues, %object
 2968              		.size	NewValues, 100
 2969              	NewValues:
 2970 0000 FFFFFFFF 		.word	-1
 2971 0004 00000000 		.space	96
 2971      00000000 
 2971      00000000 
 2971      00000000 
 2971      00000000 
 2972              		.section	.bss.MerlegPower,"aw",%nobits
 2973              		.align	2
 2974              		.set	.LANCHOR5,. + 0
 2975              		.type	MerlegPower, %object
 2976              		.size	MerlegPower, 4
 2977              	MerlegPower:
 2978 0000 00000000 		.space	4
 2979              		.section	.data.OldValues,"aw",%progbits
 2980              		.align	2
 2981              		.set	.LANCHOR6,. + 0
 2982              		.type	OldValues, %object
 2983              		.size	OldValues, 100
 2984              	OldValues:
 2985 0000 FFFFFFFF 		.word	-1
ARM GAS  C:\Users\srich\AppData\Local\Temp\ccv3JVxh.s 			page 54


 2986 0004 00000000 		.space	96
 2986      00000000 
 2986      00000000 
 2986      00000000 
 2986      00000000 
 2987              		.section	.bss.pos,"aw",%nobits
 2988              		.align	3
 2989              		.set	.LANCHOR2,. + 0
 2990              		.type	pos, %object
 2991              		.size	pos, 72
 2992              	pos:
 2993 0000 00000000 		.space	72
 2993      00000000 
 2993      00000000 
 2993      00000000 
 2993      00000000 
 2994              		.text
 2995              	.Letext0:
 2996              		.file 3 "c:\\chibistudio\\tools\\gnu tools arm embedded\\4.9 2015q3\\lib\\gcc\\arm-none-eabi\\4.9.
 2997              		.file 4 "c:\\chibistudio\\tools\\gnu tools arm embedded\\4.9 2015q3\\arm-none-eabi\\include\\machi
 2998              		.file 5 "c:\\chibistudio\\tools\\gnu tools arm embedded\\4.9 2015q3\\arm-none-eabi\\include\\sys\\
 2999              		.file 6 "../../../ChibiOS/os/ports/GCC/ARMCMx/chtypes.h"
 3000              		.file 7 "../../../ChibiOS/os/kernel/include/chlists.h"
 3001              		.file 8 "../../../ChibiOS/os/kernel/include/chthreads.h"
 3002              		.file 9 "../../../ChibiOS/os/ports/GCC/ARMCMx/chcore_v7m.h"
 3003              		.file 10 "../../../ChibiOS/os/kernel/include/chvt.h"
 3004              		.file 11 "../../../ChibiOS/os/kernel/include/chschd.h"
 3005              		.file 12 "../../../ChibiOS/os/kernel/include/chmtx.h"
 3006              		.file 13 "../../../ChibiOS/os/kernel/include/chstreams.h"
 3007              		.file 14 "../../../ChibiOS/os/hal/include/io_channel.h"
 3008              		.file 15 "include/meas.h"
 3009              		.file 16 "include/dsp.h"
 3010              		.file 17 "c:\\chibistudio\\tools\\gnu tools arm embedded\\4.9 2015q3\\lib\\gcc\\arm-none-eabi\\4.9
 3011              		.file 18 "<built-in>"
 3012              		.file 19 "c:\\chibistudio\\tools\\gnu tools arm embedded\\4.9 2015q3\\arm-none-eabi\\include\\sys\
 3013              		.file 20 "include/can_items.h"
 3014              		.file 21 "include/calc.h"
 3015              		.file 22 "include/nmea.h"
 3016              		.file 23 "../../../ChibiOS/os/ports/common/ARMCMx/CMSIS/include/core_cm4.h"
 3017              		.file 24 "include/can_comm.h"
 3018              		.file 25 "include/gfx.h"
 3019              		.file 26 "include/light.h"
 3020              		.file 27 "include/cruise.h"