ARM GAS  C:\Users\DNIEL~1\AppData\Local\Temp\cceiqNg0.s 			page 1


   1              		.syntax unified
   2              		.cpu cortex-m4
   3              		.fpu softvfp
   4              		.eabi_attribute 20, 1
   5              		.eabi_attribute 21, 1
   6              		.eabi_attribute 23, 3
   7              		.eabi_attribute 24, 1
   8              		.eabi_attribute 25, 1
   9              		.eabi_attribute 26, 1
  10              		.eabi_attribute 30, 2
  11              		.eabi_attribute 18, 4
  12              		.thumb
  13              		.file	"dsp.c"
  14              		.section	.debug_abbrev,"",%progbits
  15              	.Ldebug_abbrev0:
  16              		.section	.debug_info,"",%progbits
  17              	.Ldebug_info0:
  18              		.section	.debug_line,"",%progbits
  19              	.Ldebug_line0:
  20 0000 98070000 		.text
  20      0200F202 
  20      00000201 
  20      FB0E0D00 
  20      01010101 
  21              	.Ltext0:
  22              		.cfi_sections	.debug_frame
  23              		.section	.text.chprintf,"ax",%progbits
  24              		.align	2
  25              		.p2align 4,,15
  26              		.thumb
  27              		.thumb_func
  28              		.type	chprintf, %function
  29              	chprintf:
  30              	.LFB118:
  31              		.file 1 "../../../ChibiOS/os/various/chprintf.h"
  32              		.loc 1 69 0
  33              		.cfi_startproc
  34              		@ args = 4, pretend = 12, frame = 8
  35              		@ frame_needed = 0, uses_anonymous_args = 1
  36              	.LVL0:
  37 0000 0EB4     		push	{r1, r2, r3}
  38              	.LCFI0:
  39              		.cfi_def_cfa_offset 12
  40 0002 00B5     		push	{lr}
  41              	.LCFI1:
  42              		.cfi_def_cfa_offset 16
  43 0004 82B0     		sub	sp, sp, #8
  44              	.LCFI2:
  45              		.cfi_def_cfa_offset 24
  46              		.loc 1 69 0
  47 0006 03AB     		add	r3, sp, #12
  48              		.cfi_offset 14, -16
  49              		.cfi_offset 3, -4
  50              		.cfi_offset 2, -8
  51              		.cfi_offset 1, -12
  52 0008 53F8041B 		ldr	r1, [r3], #4
  53              		.loc 1 73 0
ARM GAS  C:\Users\DNIEL~1\AppData\Local\Temp\cceiqNg0.s 			page 2


  54 000c 1A46     		mov	r2, r3
  55              		.loc 1 72 0
  56 000e 0193     		str	r3, [sp, #4]
  57              		.loc 1 73 0
  58 0010 FFF7FEFF 		bl	chvprintf
  59              	.LVL1:
  60              		.loc 1 75 0
  61 0014 02B0     		add	sp, sp, #8
  62 0016 5DF804EB 		pop	{lr}
  63 001a 03B0     		add	sp, sp, #12
  64 001c 7047     		bx	lr
  65              		.cfi_endproc
  66              	.LFE118:
  67              		.size	chprintf, .-chprintf
  68 001e 00BF     		.section	.text.dspTask,"ax",%progbits
  69              		.align	2
  70              		.p2align 4,,15
  71              		.thumb
  72              		.thumb_func
  73              		.type	dspTask, %function
  74              	dspTask:
  75              	.LFB123:
  76              		.file 2 "src/dsp.c"
  77              		.loc 2 209 0
  78              		.cfi_startproc
  79              		@ args = 0, pretend = 0, frame = 8
  80              		@ frame_needed = 0, uses_anonymous_args = 0
  81              	.LVL2:
  82 0000 2DE9F04F 		push	{r4, r5, r6, r7, r8, r9, sl, fp, lr}
  83              	.LCFI3:
  84              		.cfi_def_cfa_offset 36
  85              		.loc 2 213 0
  86 0004 AF48     		ldr	r0, .L149
  87              	.LVL3:
  88              		.loc 2 214 0
  89 0006 B04D     		ldr	r5, .L149+4
  90              		.cfi_offset 14, -4
  91              		.cfi_offset 11, -8
  92              		.cfi_offset 10, -12
  93              		.cfi_offset 9, -16
  94              		.cfi_offset 8, -20
  95              		.cfi_offset 7, -24
  96              		.cfi_offset 6, -28
  97              		.cfi_offset 5, -32
  98              		.cfi_offset 4, -36
  99 0008 B04B     		ldr	r3, .L149+8
 100              		.loc 2 213 0
 101 000a 8269     		ldr	r2, [r0, #24]
 102 000c B049     		ldr	r1, .L149+12
 103              		.loc 2 214 0
 104 000e DB68     		ldr	r3, [r3, #12]
 105 0010 DFF8DC82 		ldr	r8, .L149+44
 106 0014 2B68     		ldr	r3, [r5, #0]
 107 0016 AF4C     		ldr	r4, .L149+16
 108 0018 AF4E     		ldr	r6, .L149+20
 109 001a DFF8D8A2 		ldr	sl, .L149+48
 110 001e AF4F     		ldr	r7, .L149+24
ARM GAS  C:\Users\DNIEL~1\AppData\Local\Temp\cceiqNg0.s 			page 3


 111 0020 DFF8C492 		ldr	r9, .L149+36
 112              	.LBB2:
 113              	.LBB3:
 114              		.loc 2 626 0
 115 0024 DFF8D0B2 		ldr	fp, .L149+52
 116              	.LBE3:
 117              	.LBE2:
 118              		.loc 2 213 0
 119 0028 9161     		str	r1, [r2, #24]
 120              		.loc 2 209 0
 121 002a 83B0     		sub	sp, sp, #12
 122              	.LCFI4:
 123              		.cfi_def_cfa_offset 48
 124              	.L124:
 125              	.LBB14:
 126              		.loc 2 219 0
 127 002c 0133     		adds	r3, r3, #1
 128              		.loc 2 221 0
 129 002e 13F0010F 		tst	r3, #1
 130              		.loc 2 219 0
 131 0032 2B60     		str	r3, [r5, #0]
 132              		.loc 2 221 0
 133 0034 1DD1     		bne	.L134
 134              	.L4:
 135              		.loc 2 229 0
 136 0036 2168     		ldr	r1, [r4, #0]
 137              		.loc 2 230 0
 138 0038 3278     		ldrb	r2, [r6, #0]	@ zero_extendqisi2
 139              		.loc 2 229 0
 140 003a 481C     		adds	r0, r1, #1
 141 003c 2060     		str	r0, [r4, #0]
 142              		.loc 2 230 0
 143 003e 22BB     		cbnz	r2, .L135
 144              		.loc 2 232 0
 145 0040 FFF7FEFF 		bl	gfxGetDspAns
 146 0044 5FFA80FC 		uxtb	ip, r0
 147              		.loc 2 233 0
 148 0048 BCF1060F 		cmp	ip, #6
 149              		.loc 2 232 0
 150 004c 8AF800C0 		strb	ip, [sl, #0]
 151              		.loc 2 233 0
 152 0050 03D0     		beq	.L9
 153              		.loc 2 233 0 is_stmt 0 discriminator 1
 154 0052 A04B     		ldr	r3, .L149+16
 155 0054 1A68     		ldr	r2, [r3, #0]
 156 0056 072A     		cmp	r2, #7
 157 0058 01DD     		ble	.L10
 158              	.L9:
 159              		.loc 2 234 0 is_stmt 1
 160 005a 0120     		movs	r0, #1
 161 005c 3070     		strb	r0, [r6, #0]
 162              	.L10:
 163              		.loc 2 236 0
 164 005e FFF7FEFF 		bl	gfxGetDspAns
 165 0062 0628     		cmp	r0, #6
 166 0064 0CD0     		beq	.L11
 167              		.loc 2 828 0
ARM GAS  C:\Users\DNIEL~1\AppData\Local\Temp\cceiqNg0.s 			page 4


 168 0066 2B68     		ldr	r3, [r5, #0]
 169              	.L138:
 170              		.loc 2 219 0
 171 0068 0133     		adds	r3, r3, #1
 172              		.loc 2 221 0
 173 006a 13F0010F 		tst	r3, #1
 174              		.loc 2 219 0
 175 006e 2B60     		str	r3, [r5, #0]
 176              		.loc 2 221 0
 177 0070 E1D0     		beq	.L4
 178              	.L134:
 179              		.loc 2 223 0
 180 0072 FFF7FEFF 		bl	bus_Read
 181 0076 9449     		ldr	r1, .L149+4
 182 0078 88F80000 		strb	r0, [r8, #0]
 183 007c 0B68     		ldr	r3, [r1, #0]
 184 007e D5E7     		b	.L124
 185              	.L11:
 186              		.loc 2 237 0
 187 0080 9749     		ldr	r1, .L149+28
 188 0082 2B68     		ldr	r3, [r5, #0]
 189 0084 0122     		movs	r2, #1
 190 0086 0A70     		strb	r2, [r1, #0]
 191 0088 D0E7     		b	.L124
 192              	.L135:
 193              		.loc 2 230 0
 194 008a 012A     		cmp	r2, #1
 195 008c 03D0     		beq	.L136
 196              		.loc 2 832 0
 197 008e 924A     		ldr	r2, .L149+20
 198 0090 0120     		movs	r0, #1
 199 0092 1070     		strb	r0, [r2, #0]
 200 0094 CAE7     		b	.L124
 201              	.L136:
 202              		.loc 2 241 0
 203 0096 3A78     		ldrb	r2, [r7, #0]	@ zero_extendqisi2
 204 0098 1F2A     		cmp	r2, #31
 205 009a 5DD8     		bhi	.L12
 206 009c DFE812F0 		tbh	[pc, r2, lsl #1]
 207              	.L45:
 208 00a0 A603     		.2byte	(.L13-.L45)/2
 209 00a2 7E03     		.2byte	(.L14-.L45)/2
 210 00a4 4B03     		.2byte	(.L15-.L45)/2
 211 00a6 2303     		.2byte	(.L16-.L45)/2
 212 00a8 5E04     		.2byte	(.L104-.L45)/2
 213 00aa EC03     		.2byte	(.L105-.L45)/2
 214 00ac 2404     		.2byte	(.L106-.L45)/2
 215 00ae 7501     		.2byte	(.L20-.L45)/2
 216 00b0 ED01     		.2byte	(.L21-.L45)/2
 217 00b2 AA01     		.2byte	(.L22-.L45)/2
 218 00b4 8404     		.2byte	(.L107-.L45)/2
 219 00b6 0404     		.2byte	(.L24-.L45)/2
 220 00b8 A704     		.2byte	(.L25-.L45)/2
 221 00ba C603     		.2byte	(.L108-.L45)/2
 222 00bc 3C04     		.2byte	(.L27-.L45)/2
 223 00be 3101     		.2byte	(.L28-.L45)/2
 224 00c0 4602     		.2byte	(.L29-.L45)/2
ARM GAS  C:\Users\DNIEL~1\AppData\Local\Temp\cceiqNg0.s 			page 5


 225 00c2 9801     		.2byte	(.L30-.L45)/2
 226 00c4 2300     		.2byte	(.L31-.L45)/2
 227 00c6 2A00     		.2byte	(.L32-.L45)/2
 228 00c8 6E00     		.2byte	(.L33-.L45)/2
 229 00ca 9C00     		.2byte	(.L34-.L45)/2
 230 00cc C900     		.2byte	(.L35-.L45)/2
 231 00ce EC00     		.2byte	(.L36-.L45)/2
 232 00d0 D102     		.2byte	(.L37-.L45)/2
 233 00d2 5802     		.2byte	(.L38-.L45)/2
 234 00d4 A302     		.2byte	(.L39-.L45)/2
 235 00d6 CF01     		.2byte	(.L40-.L45)/2
 236 00d8 F102     		.2byte	(.L41-.L45)/2
 237 00da 1802     		.2byte	(.L42-.L45)/2
 238 00dc 7502     		.2byte	(.L43-.L45)/2
 239 00de 4E01     		.2byte	(.L44-.L45)/2
 240              	.LVL4:
 241              	.L72:
 242              	.LBB4:
 243              		.loc 2 550 0
 244 00e0 0132     		adds	r2, r2, #1
 245 00e2 D2B2     		uxtb	r2, r2
 246 00e4 3A70     		strb	r2, [r7, #0]
 247              	.LVL5:
 248              	.L31:
 249              		.loc 2 555 0
 250 00e6 59F82210 		ldr	r1, [r9, r2, lsl #2]
 251 00ea 0029     		cmp	r1, #0
 252 00ec 40F0E884 		bne	.L137
 253              		.loc 2 565 0
 254 00f0 0132     		adds	r2, r2, #1
 255 00f2 3A70     		strb	r2, [r7, #0]
 256              	.LVL6:
 257              	.L32:
 258              		.loc 2 568 0
 259 00f4 0020     		movs	r0, #0
 260 00f6 FFF7FEFF 		bl	calcGetValue
 261 00fa 7A4A     		ldr	r2, .L149+32
 262              		.loc 2 569 0
 263 00fc DFF8E4E1 		ldr	lr, .L149+32
 264              		.loc 2 568 0
 265 0100 82FB001C 		smull	r1, ip, r2, r0
 266 0104 C117     		asrs	r1, r0, #31
 267 0106 C1EBAC13 		rsb	r3, r1, ip, asr #6
 268              	.LVL7:
 269              		.loc 2 572 0
 270 010a 3978     		ldrb	r1, [r7, #0]	@ zero_extendqisi2
 271 010c DFF8CCC1 		ldr	ip, .L149+24
 272 0110 59F82100 		ldr	r0, [r9, r1, lsl #2]
 273              		.loc 2 569 0
 274 0114 8EFB03E2 		smull	lr, r2, lr, r3
 275 0118 DB17     		asrs	r3, r3, #31
 276              	.LVL8:
 277              		.loc 2 570 0
 278 011a D3EBA213 		rsbs	r3, r3, r2, asr #6
 279              	.LVL9:
 280 011e 08BF     		it	eq
 281 0120 0A23     		moveq	r3, #10
ARM GAS  C:\Users\DNIEL~1\AppData\Local\Temp\cceiqNg0.s 			page 6


 282              	.LVL10:
 283              		.loc 2 572 0
 284 0122 8342     		cmp	r3, r0
 285 0124 27D0     		beq	.L75
 286              		.loc 2 573 0
 287 0126 44F27E41 		movw	r1, #17534
 288 012a 0020     		movs	r0, #0
 289 012c 0093     		str	r3, [sp, #0]
 290 012e CDF804C0 		str	ip, [sp, #4]
 291 0132 FFF7FEFF 		bl	media_SetSector
 292              		.loc 2 574 0
 293 0136 FFF7FEFF 		bl	gfxGetDspAns
 294              		.loc 2 575 0
 295 013a 4220     		movs	r0, #66
 296 013c A821     		movs	r1, #168
 297              	.L128:
 298              		.loc 2 787 0
 299 013e 009A     		ldr	r2, [sp, #0]
 300 0140 FFF7FEFF 		bl	media_VideoFrame
 301              		.loc 2 789 0
 302 0144 DDF804C0 		ldr	ip, [sp, #4]
 303 0148 9CF80020 		ldrb	r2, [ip, #0]	@ zero_extendqisi2
 304              	.L129:
 305 014c 6648     		ldr	r0, .L149+36
 306 014e 009B     		ldr	r3, [sp, #0]
 307              		.loc 2 788 0
 308 0150 0021     		movs	r1, #0
 309              		.loc 2 789 0
 310 0152 40F82230 		str	r3, [r0, r2, lsl #2]
 311              		.loc 2 788 0
 312 0156 3170     		strb	r1, [r6, #0]
 313              	.L12:
 314              	.LBE4:
 315              		.loc 2 824 0
 316 0158 531C     		adds	r3, r2, #1
 317              		.loc 2 825 0
 318 015a 0021     		movs	r1, #0
 319              		.loc 2 824 0
 320 015c 3B70     		strb	r3, [r7, #0]
 321              		.loc 2 825 0
 322 015e 2160     		str	r1, [r4, #0]
 323              		.loc 2 826 0
 324 0160 0091     		str	r1, [sp, #0]
 325 0162 FFF7FEFF 		bl	gfxGetDspAnsZero
 326              		.loc 2 827 0
 327 0166 3A78     		ldrb	r2, [r7, #0]	@ zero_extendqisi2
 328 0168 0098     		ldr	r0, [sp, #0]
 329              		.loc 2 828 0
 330 016a 2B68     		ldr	r3, [r5, #0]
 331              		.loc 2 827 0
 332 016c 202A     		cmp	r2, #32
 333              		.loc 2 828 0
 334 016e 84BF     		itt	hi
 335 0170 5A4A     		ldrhi	r2, .L149+24
 336 0172 1070     		strbhi	r0, [r2, #0]
 337 0174 78E7     		b	.L138
 338              	.L75:
ARM GAS  C:\Users\DNIEL~1\AppData\Local\Temp\cceiqNg0.s 			page 7


 339              	.LBB5:
 340              		.loc 2 581 0
 341 0176 481C     		adds	r0, r1, #1
 342 0178 8CF80000 		strb	r0, [ip, #0]
 343              	.L33:
 344              		.loc 2 584 0
 345 017c 0020     		movs	r0, #0
 346 017e FFF7FEFF 		bl	calcGetValue
 347              	.LVL11:
 348              		.loc 2 585 0
 349 0182 5A49     		ldr	r1, .L149+40
 350 0184 C217     		asrs	r2, r0, #31
 351 0186 81FB0013 		smull	r1, r3, r1, r0
 352 018a C2EB6312 		rsb	r2, r2, r3, asr #5
 353              	.LVL12:
 354              		.loc 2 586 0
 355 018e 8BFB0231 		smull	r3, r1, fp, r2
 356 0192 D017     		asrs	r0, r2, #31
 357 0194 C0EBA10C 		rsb	ip, r0, r1, asr #2
 358              		.loc 2 588 0
 359 0198 D9F84C10 		ldr	r1, [r9, #76]
 360              		.loc 2 586 0
 361 019c 0CEB8C03 		add	r3, ip, ip, lsl #2
 362              		.loc 2 588 0
 363 01a0 0A29     		cmp	r1, #10
 364              		.loc 2 586 0
 365 01a2 A2EB4303 		sub	r3, r2, r3, lsl #1
 366              	.LVL13:
 367              		.loc 2 588 0
 368 01a6 00F07984 		beq	.L139
 369              	.L76:
 370              		.loc 2 593 0
 371 01aa 3A78     		ldrb	r2, [r7, #0]	@ zero_extendqisi2
 372 01ac DFF82CC1 		ldr	ip, .L149+24
 373 01b0 59F82200 		ldr	r0, [r9, r2, lsl #2]
 374 01b4 9842     		cmp	r0, r3
 375 01b6 0CD0     		beq	.L77
 376              		.loc 2 594 0
 377 01b8 44F27E41 		movw	r1, #17534
 378 01bc 0020     		movs	r0, #0
 379 01be 0093     		str	r3, [sp, #0]
 380 01c0 CDF804C0 		str	ip, [sp, #4]
 381 01c4 FFF7FEFF 		bl	media_SetSector
 382              		.loc 2 595 0
 383 01c8 FFF7FEFF 		bl	gfxGetDspAns
 384              		.loc 2 596 0
 385 01cc 4220     		movs	r0, #66
 386 01ce BC21     		movs	r1, #188
 387 01d0 B5E7     		b	.L128
 388              	.L77:
 389              		.loc 2 602 0
 390 01d2 531C     		adds	r3, r2, #1
 391 01d4 8CF80030 		strb	r3, [ip, #0]
 392              	.L34:
 393              		.loc 2 605 0
 394 01d8 0020     		movs	r0, #0
 395 01da FFF7FEFF 		bl	calcGetValue
ARM GAS  C:\Users\DNIEL~1\AppData\Local\Temp\cceiqNg0.s 			page 8


 396              	.LVL14:
 397              		.loc 2 606 0
 398 01de 8BFB00C1 		smull	ip, r1, fp, r0
 399 01e2 C217     		asrs	r2, r0, #31
 400 01e4 C2EBA102 		rsb	r2, r2, r1, asr #2
 401              	.LVL15:
 402              		.loc 2 607 0
 403 01e8 8BFB02E3 		smull	lr, r3, fp, r2
 404 01ec D017     		asrs	r0, r2, #31
 405              		.loc 2 609 0
 406 01ee D9F85010 		ldr	r1, [r9, #80]
 407              		.loc 2 607 0
 408 01f2 C0EBA30C 		rsb	ip, r0, r3, asr #2
 409 01f6 0CEB8C0E 		add	lr, ip, ip, lsl #2
 410              		.loc 2 609 0
 411 01fa 0A29     		cmp	r1, #10
 412              		.loc 2 607 0
 413 01fc A2EB4E03 		sub	r3, r2, lr, lsl #1
 414              	.LVL16:
 415              		.loc 2 609 0
 416 0200 00F05184 		beq	.L140
 417              	.L78:
 418              		.loc 2 614 0
 419 0204 3A78     		ldrb	r2, [r7, #0]	@ zero_extendqisi2
 420 0206 DFF8D4C0 		ldr	ip, .L149+24
 421 020a 59F82200 		ldr	r0, [r9, r2, lsl #2]
 422 020e 9842     		cmp	r0, r3
 423 0210 0CD0     		beq	.L79
 424              		.loc 2 615 0
 425 0212 44F27E41 		movw	r1, #17534
 426 0216 0020     		movs	r0, #0
 427 0218 0093     		str	r3, [sp, #0]
 428 021a CDF804C0 		str	ip, [sp, #4]
 429 021e FFF7FEFF 		bl	media_SetSector
 430              		.loc 2 616 0
 431 0222 FFF7FEFF 		bl	gfxGetDspAns
 432              		.loc 2 617 0
 433 0226 4220     		movs	r0, #66
 434 0228 D021     		movs	r1, #208
 435 022a 88E7     		b	.L128
 436              	.L79:
 437              		.loc 2 623 0
 438 022c 531C     		adds	r3, r2, #1
 439 022e 8CF80030 		strb	r3, [ip, #0]
 440              	.L35:
 441              		.loc 2 626 0
 442 0232 0020     		movs	r0, #0
 443 0234 FFF7FEFF 		bl	calcGetValue
 444              		.loc 2 627 0
 445 0238 3A78     		ldrb	r2, [r7, #0]	@ zero_extendqisi2
 446 023a DFF8A0C0 		ldr	ip, .L149+24
 447              		.loc 2 626 0
 448 023e 8BFB001E 		smull	r1, lr, fp, r0
 449 0242 C317     		asrs	r3, r0, #31
 450 0244 C3EBAE03 		rsb	r3, r3, lr, asr #2
 451              		.loc 2 627 0
 452 0248 59F82210 		ldr	r1, [r9, r2, lsl #2]
ARM GAS  C:\Users\DNIEL~1\AppData\Local\Temp\cceiqNg0.s 			page 9


 453              		.loc 2 626 0
 454 024c 03EB830E 		add	lr, r3, r3, lsl #2
 455 0250 A0EB4E03 		sub	r3, r0, lr, lsl #1
 456              		.loc 2 627 0
 457 0254 9942     		cmp	r1, r3
 458 0256 0CD0     		beq	.L80
 459              		.loc 2 628 0
 460 0258 44F27E41 		movw	r1, #17534
 461 025c 0020     		movs	r0, #0
 462 025e 0093     		str	r3, [sp, #0]
 463 0260 CDF804C0 		str	ip, [sp, #4]
 464 0264 FFF7FEFF 		bl	media_SetSector
 465              		.loc 2 629 0
 466 0268 FFF7FEFF 		bl	gfxGetDspAns
 467              		.loc 2 630 0
 468 026c 4220     		movs	r0, #66
 469 026e E421     		movs	r1, #228
 470 0270 65E7     		b	.L128
 471              	.L80:
 472              		.loc 2 636 0
 473 0272 0132     		adds	r2, r2, #1
 474 0274 8CF80020 		strb	r2, [ip, #0]
 475              	.L36:
 476              		.loc 2 639 0
 477 0278 0220     		movs	r0, #2
 478 027a FFF7FEFF 		bl	measGetValue_2
 479              	.LVL17:
 480              		.loc 2 641 0
 481 027e DFF864E0 		ldr	lr, .L149+32
 482              		.loc 2 646 0
 483 0282 3A78     		ldrb	r2, [r7, #0]	@ zero_extendqisi2
 484              		.loc 2 640 0
 485 0284 C0EBC00C 		rsb	ip, r0, r0, lsl #3
 486 0288 00EB8C03 		add	r3, r0, ip, lsl #2
 487              	.LVL18:
 488              		.loc 2 641 0
 489 028c AEFB03E1 		umull	lr, r1, lr, r3
 490 0290 8B09     		lsrs	r3, r1, #6
 491              	.LVL19:
 492              		.loc 2 646 0
 493 0292 59F82200 		ldr	r0, [r9, r2, lsl #2]
 494 0296 DFF844C0 		ldr	ip, .L149+24
 495              		.loc 2 642 0
 496 029a B3F5827F 		cmp	r3, #260
 497 029e 28BF     		it	cs
 498 02a0 4FF48273 		movcs	r3, #260
 499              	.LVL20:
 500              		.loc 2 646 0
 501 02a4 9842     		cmp	r0, r3
 502 02a6 00F0C981 		beq	.L81
 503              		.loc 2 647 0
 504 02aa 41F61C11 		movw	r1, #6428
 505              	.LVL21:
 506 02ae 0020     		movs	r0, #0
 507 02b0 0093     		str	r3, [sp, #0]
 508 02b2 CDF804C0 		str	ip, [sp, #4]
 509 02b6 FFF7FEFF 		bl	media_SetSector
ARM GAS  C:\Users\DNIEL~1\AppData\Local\Temp\cceiqNg0.s 			page 10


 510              	.LVL22:
 511              		.loc 2 648 0
 512 02ba FFF7FEFF 		bl	gfxGetDspAns
 513              		.loc 2 649 0
 514 02be 0320     		movs	r0, #3
 515 02c0 0021     		movs	r1, #0
 516 02c2 3CE7     		b	.L128
 517              	.L150:
 518              		.align	2
 519              	.L149:
 520 02c4 00000000 		.word	rlist
 521 02c8 00000000 		.word	.LANCHOR0
 522 02cc 00000000 		.word	vtlist
 523 02d0 00000000 		.word	.LC0
 524 02d4 00000000 		.word	.LANCHOR2
 525 02d8 00000000 		.word	.LANCHOR3
 526 02dc 00000000 		.word	.LANCHOR6
 527 02e0 00000000 		.word	.LANCHOR5
 528 02e4 D34D6210 		.word	274877907
 529 02e8 00000000 		.word	.LANCHOR7
 530 02ec 1F85EB51 		.word	1374389535
 531 02f0 00000000 		.word	.LANCHOR1
 532 02f4 00000000 		.word	.LANCHOR4
 533 02f8 67666666 		.word	1717986919
 534              	.LVL23:
 535              	.L69:
 536              		.loc 2 493 0
 537 02fc 0131     		adds	r1, r1, #1
 538 02fe CAB2     		uxtb	r2, r1
 539 0300 3A70     		strb	r2, [r7, #0]
 540              	.LVL24:
 541              	.L28:
 542              		.loc 2 500 0
 543 0302 59F82200 		ldr	r0, [r9, r2, lsl #2]
 544 0306 0A28     		cmp	r0, #10
 545 0308 00F00D81 		beq	.L70
 546              		.loc 2 501 0
 547 030c 44F27E41 		movw	r1, #17534
 548 0310 0020     		movs	r0, #0
 549 0312 FFF7FEFF 		bl	media_SetSector
 550              		.loc 2 502 0
 551 0316 FFF7FEFF 		bl	gfxGetDspAns
 552              		.loc 2 504 0
 553 031a 6C20     		movs	r0, #108
 554 031c A821     		movs	r1, #168
 555              	.L130:
 556              		.loc 2 544 0
 557 031e 0A22     		movs	r2, #10
 558 0320 FFF7FEFF 		bl	media_VideoFrame
 559              		.loc 2 546 0
 560 0324 3A78     		ldrb	r2, [r7, #0]	@ zero_extendqisi2
 561 0326 BD4B     		ldr	r3, .L151
 562              		.loc 2 545 0
 563 0328 0020     		movs	r0, #0
 564              		.loc 2 546 0
 565 032a 0A21     		movs	r1, #10
 566              		.loc 2 545 0
ARM GAS  C:\Users\DNIEL~1\AppData\Local\Temp\cceiqNg0.s 			page 11


 567 032c 3070     		strb	r0, [r6, #0]
 568              		.loc 2 546 0
 569 032e 43F82210 		str	r1, [r3, r2, lsl #2]
 570              		.loc 2 547 0
 571 0332 11E7     		b	.L12
 572              	.LVL25:
 573              	.L99:
 574              		.loc 2 793 0
 575 0334 0132     		adds	r2, r2, #1
 576 0336 D2B2     		uxtb	r2, r2
 577 0338 8CF80020 		strb	r2, [ip, #0]
 578              	.LVL26:
 579              	.L44:
 580              		.loc 2 796 0
 581 033c B848     		ldr	r0, .L151+4
 582 033e 90F804E0 		ldrb	lr, [r0, #4]	@ zero_extendqisi2
 583 0342 1EF0010F 		tst	lr, #1
 584 0346 00F07683 		beq	.L100
 585              	.LVL27:
 586              		.loc 2 800 0
 587 034a DFF8E4C2 		ldr	ip, .L151+20
 588 034e 0023     		movs	r3, #0
 589 0350 ACF80030 		strh	r3, [ip, #0]	@ movhi
 590              	.LVL28:
 591              	.L101:
 592              		.loc 2 812 0
 593 0354 59F82210 		ldr	r1, [r9, r2, lsl #2]
 594 0358 0229     		cmp	r1, #2
 595 035a 3FF4FDAE 		beq	.L12
 596              		.loc 2 813 0
 597 035e 1721     		movs	r1, #23
 598 0360 0020     		movs	r0, #0
 599 0362 FFF7FEFF 		bl	media_SetSector
 600              		.loc 2 814 0
 601 0366 FFF7FEFF 		bl	gfxGetDspAns
 602              		.loc 2 815 0
 603 036a 40F27710 		movw	r0, #375
 604 036e 5021     		movs	r1, #80
 605 0370 0222     		movs	r2, #2
 606 0372 FFF7FEFF 		bl	media_VideoFrame
 607              		.loc 2 817 0
 608 0376 3A78     		ldrb	r2, [r7, #0]	@ zero_extendqisi2
 609 0378 A84B     		ldr	r3, .L151
 610 037a 0221     		movs	r1, #2
 611              		.loc 2 816 0
 612 037c 0020     		movs	r0, #0
 613              		.loc 2 817 0
 614 037e 43F82210 		str	r1, [r3, r2, lsl #2]
 615              		.loc 2 816 0
 616 0382 3070     		strb	r0, [r6, #0]
 617 0384 E8E6     		b	.L12
 618              	.LVL29:
 619              	.L57:
 620              		.loc 2 360 0
 621 0386 531C     		adds	r3, r2, #1
 622 0388 3B70     		strb	r3, [r7, #0]
 623              	.LVL30:
ARM GAS  C:\Users\DNIEL~1\AppData\Local\Temp\cceiqNg0.s 			page 12


 624              	.L20:
 625              		.loc 2 363 0
 626 038a FFF7FEFF 		bl	cruiseGet
 627 038e DFF8A4E2 		ldr	lr, .L151+24
 628              		.loc 2 365 0
 629 0392 3A78     		ldrb	r2, [r7, #0]	@ zero_extendqisi2
 630 0394 DFF8A0C2 		ldr	ip, .L151+28
 631 0398 59F82210 		ldr	r1, [r9, r2, lsl #2]
 632              		.loc 2 363 0
 633 039c AEFB00E0 		umull	lr, r0, lr, r0
 634 03a0 C0F34713 		ubfx	r3, r0, #5, #8
 635              	.LVL31:
 636              		.loc 2 364 0
 637 03a4 002B     		cmp	r3, #0
 638 03a6 08BF     		it	eq
 639 03a8 0A23     		moveq	r3, #10
 640              	.LVL32:
 641              		.loc 2 365 0
 642 03aa 8B42     		cmp	r3, r1
 643 03ac 62D0     		beq	.L59
 644              		.loc 2 366 0
 645 03ae 44F27141 		movw	r1, #17521
 646 03b2 0020     		movs	r0, #0
 647 03b4 0093     		str	r3, [sp, #0]
 648 03b6 CDF804C0 		str	ip, [sp, #4]
 649 03ba FFF7FEFF 		bl	media_SetSector
 650              		.loc 2 367 0
 651 03be FFF7FEFF 		bl	gfxGetDspAns
 652              		.loc 2 368 0
 653 03c2 40F23B10 		movw	r0, #315
 654 03c6 CD21     		movs	r1, #205
 655 03c8 B9E6     		b	.L128
 656              	.LVL33:
 657              	.L71:
 658              		.loc 2 530 0
 659 03ca 0132     		adds	r2, r2, #1
 660 03cc D2B2     		uxtb	r2, r2
 661 03ce 3A70     		strb	r2, [r7, #0]
 662              	.LVL34:
 663              	.L30:
 664              		.loc 2 540 0
 665 03d0 59F82200 		ldr	r0, [r9, r2, lsl #2]
 666 03d4 0A28     		cmp	r0, #10
 667 03d6 3FF483AE 		beq	.L72
 668              		.loc 2 541 0
 669 03da 44F27E41 		movw	r1, #17534
 670 03de 0020     		movs	r0, #0
 671 03e0 FFF7FEFF 		bl	media_SetSector
 672              		.loc 2 542 0
 673 03e4 FFF7FEFF 		bl	gfxGetDspAns
 674              		.loc 2 544 0
 675 03e8 6C20     		movs	r0, #108
 676 03ea D021     		movs	r1, #208
 677 03ec 97E7     		b	.L130
 678              	.LVL35:
 679              	.L61:
 680              		.loc 2 394 0
ARM GAS  C:\Users\DNIEL~1\AppData\Local\Temp\cceiqNg0.s 			page 13


 681 03ee 0132     		adds	r2, r2, #1
 682 03f0 8CF80020 		strb	r2, [ip, #0]
 683              	.L22:
 684              		.loc 2 397 0
 685 03f4 FFF7FEFF 		bl	cruiseGet
 686 03f8 8A4B     		ldr	r3, .L151+8
 687              		.loc 2 399 0
 688 03fa 3A78     		ldrb	r2, [r7, #0]	@ zero_extendqisi2
 689 03fc DFF838C2 		ldr	ip, .L151+28
 690 0400 59F82210 		ldr	r1, [r9, r2, lsl #2]
 691              		.loc 2 397 0
 692 0404 A3FB00E3 		umull	lr, r3, r3, r0
 693 0408 DB08     		lsrs	r3, r3, #3
 694 040a 03EB8303 		add	r3, r3, r3, lsl #2
 695 040e A0EB430E 		sub	lr, r0, r3, lsl #1
 696 0412 5FFA8EF3 		uxtb	r3, lr
 697              	.LVL36:
 698              		.loc 2 399 0
 699 0416 9942     		cmp	r1, r3
 700 0418 00F03283 		beq	.L62
 701              		.loc 2 400 0
 702 041c 44F27141 		movw	r1, #17521
 703 0420 0020     		movs	r0, #0
 704 0422 0093     		str	r3, [sp, #0]
 705 0424 CDF804C0 		str	ip, [sp, #4]
 706 0428 FFF7FEFF 		bl	media_SetSector
 707              	.LVL37:
 708              		.loc 2 401 0
 709 042c FFF7FEFF 		bl	gfxGetDspAns
 710              		.loc 2 402 0
 711 0430 40F23B10 		movw	r0, #315
 712 0434 F521     		movs	r1, #245
 713 0436 82E6     		b	.L128
 714              	.LVL38:
 715              	.L86:
 716              		.loc 2 704 0
 717 0438 0132     		adds	r2, r2, #1
 718 043a 8CF80020 		strb	r2, [ip, #0]
 719              	.LVL39:
 720              	.L40:
 721              		.loc 2 707 0
 722 043e 0520     		movs	r0, #5
 723 0440 FFF7FEFF 		bl	getLightFlashing
 724              		.loc 2 715 0
 725 0444 3A78     		ldrb	r2, [r7, #0]	@ zero_extendqisi2
 726 0446 DFF8F0C1 		ldr	ip, .L151+28
 727 044a 59F82210 		ldr	r1, [r9, r2, lsl #2]
 728              		.loc 2 209 0
 729 044e 80F00103 		eor	r3, r0, #1
 730              		.loc 2 709 0
 731 0452 DBB2     		uxtb	r3, r3
 732              	.LVL40:
 733              		.loc 2 715 0
 734 0454 9942     		cmp	r1, r3
 735 0456 00F01081 		beq	.L87
 736              		.loc 2 716 0
 737 045a 5321     		movs	r1, #83
ARM GAS  C:\Users\DNIEL~1\AppData\Local\Temp\cceiqNg0.s 			page 14


 738 045c 0020     		movs	r0, #0
 739 045e 0093     		str	r3, [sp, #0]
 740 0460 CDF804C0 		str	ip, [sp, #4]
 741 0464 FFF7FEFF 		bl	media_SetSector
 742              	.LVL41:
 743              		.loc 2 717 0
 744 0468 FFF7FEFF 		bl	gfxGetDspAns
 745              		.loc 2 718 0
 746 046c 40F2B110 		movw	r0, #433
 747 0470 9A21     		movs	r1, #154
 748 0472 64E6     		b	.L128
 749              	.L59:
 750              		.loc 2 374 0
 751 0474 0132     		adds	r2, r2, #1
 752 0476 8CF80020 		strb	r2, [ip, #0]
 753              	.L21:
 754              		.loc 2 377 0
 755 047a FFF7FEFF 		bl	cruiseGet
 756 047e 694B     		ldr	r3, .L151+8
 757              		.loc 2 380 0
 758 0480 D9F81C10 		ldr	r1, [r9, #28]
 759              		.loc 2 377 0
 760 0484 A3FB00C0 		umull	ip, r0, r3, r0
 761 0488 C0F3C700 		ubfx	r0, r0, #3, #8
 762              	.LVL42:
 763              		.loc 2 378 0
 764 048c 8BFB00E2 		smull	lr, r2, fp, r0
 765 0490 9308     		lsrs	r3, r2, #2
 766 0492 03EB830C 		add	ip, r3, r3, lsl #2
 767              		.loc 2 380 0
 768 0496 0A29     		cmp	r1, #10
 769              		.loc 2 378 0
 770 0498 A0EB4C03 		sub	r3, r0, ip, lsl #1
 771              	.LVL43:
 772              		.loc 2 380 0
 773 049c 00F02C83 		beq	.L141
 774              	.L60:
 775              		.loc 2 385 0
 776 04a0 3A78     		ldrb	r2, [r7, #0]	@ zero_extendqisi2
 777 04a2 DFF894C1 		ldr	ip, .L151+28
 778 04a6 59F82210 		ldr	r1, [r9, r2, lsl #2]
 779 04aa 9942     		cmp	r1, r3
 780 04ac 9FD0     		beq	.L61
 781              		.loc 2 386 0
 782 04ae 44F27141 		movw	r1, #17521
 783 04b2 0020     		movs	r0, #0
 784 04b4 0093     		str	r3, [sp, #0]
 785 04b6 CDF804C0 		str	ip, [sp, #4]
 786 04ba FFF7FEFF 		bl	media_SetSector
 787              		.loc 2 387 0
 788 04be FFF7FEFF 		bl	gfxGetDspAns
 789              		.loc 2 388 0
 790 04c2 40F23B10 		movw	r0, #315
 791 04c6 E121     		movs	r1, #225
 792 04c8 39E6     		b	.L128
 793              	.LVL44:
 794              	.L91:
ARM GAS  C:\Users\DNIEL~1\AppData\Local\Temp\cceiqNg0.s 			page 15


 795              		.loc 2 747 0
 796 04ca 501C     		adds	r0, r2, #1
 797 04cc C2B2     		uxtb	r2, r0
 798 04ce 3A70     		strb	r2, [r7, #0]
 799              	.LVL45:
 800              	.L42:
 801              		.loc 2 750 0
 802 04d0 DFF84CE1 		ldr	lr, .L151+4
 803 04d4 BEF808C0 		ldrh	ip, [lr, #8]
 804 04d8 BCF10A0F 		cmp	ip, #10
 805 04dc 00F2A582 		bhi	.L117
 806              		.loc 2 756 0
 807 04e0 5148     		ldr	r0, .L151+12
 808 04e2 0188     		ldrh	r1, [r0, #0]
 809 04e4 4B1C     		adds	r3, r1, #1
 810 04e6 99B2     		uxth	r1, r3
 811              		.loc 2 757 0
 812 04e8 0929     		cmp	r1, #9
 813 04ea 40F20B83 		bls	.L118
 814              	.LVL46:
 815              		.loc 2 758 0 discriminator 3
 816 04ee 1429     		cmp	r1, #20
 817 04f0 40F21283 		bls	.L142
 818              		.loc 2 757 0
 819 04f4 0223     		movs	r3, #2
 820              		.loc 2 758 0
 821 04f6 0021     		movs	r1, #0
 822              	.LVL47:
 823              	.L94:
 824              		.loc 2 758 0 is_stmt 0 discriminator 3
 825 04f8 DFF82CC1 		ldr	ip, .L151+12
 826 04fc ACF80010 		strh	r1, [ip, #0]	@ movhi
 827              	.L92:
 828              	.LVL48:
 829              		.loc 2 761 0 is_stmt 1
 830 0500 59F82210 		ldr	r1, [r9, r2, lsl #2]
 831 0504 9942     		cmp	r1, r3
 832 0506 3ED0     		beq	.L95
 833              		.loc 2 762 0
 834 0508 0020     		movs	r0, #0
 835 050a 0146     		mov	r1, r0
 836 050c 0093     		str	r3, [sp, #0]
 837 050e FFF7FEFF 		bl	media_SetSector
 838              	.LVL49:
 839              		.loc 2 763 0
 840 0512 FFF7FEFF 		bl	gfxGetDspAns
 841              		.loc 2 764 0
 842 0516 009A     		ldr	r2, [sp, #0]
 843 0518 40F27710 		movw	r0, #375
 844 051c DB21     		movs	r1, #219
 845 051e FFF7FEFF 		bl	media_VideoFrame
 846              		.loc 2 766 0
 847 0522 3A78     		ldrb	r2, [r7, #0]	@ zero_extendqisi2
 848 0524 12E6     		b	.L129
 849              	.LVL50:
 850              	.L70:
 851              		.loc 2 510 0
ARM GAS  C:\Users\DNIEL~1\AppData\Local\Temp\cceiqNg0.s 			page 16


 852 0526 531C     		adds	r3, r2, #1
 853 0528 DAB2     		uxtb	r2, r3
 854 052a 3A70     		strb	r2, [r7, #0]
 855              	.LVL51:
 856              	.L29:
 857              		.loc 2 520 0
 858 052c 59F82210 		ldr	r1, [r9, r2, lsl #2]
 859 0530 0A29     		cmp	r1, #10
 860 0532 3FF44AAF 		beq	.L71
 861              		.loc 2 521 0
 862 0536 44F27E41 		movw	r1, #17534
 863 053a 0020     		movs	r0, #0
 864 053c FFF7FEFF 		bl	media_SetSector
 865              		.loc 2 522 0
 866 0540 FFF7FEFF 		bl	gfxGetDspAns
 867              		.loc 2 524 0
 868 0544 6C20     		movs	r0, #108
 869 0546 BC21     		movs	r1, #188
 870 0548 E9E6     		b	.L130
 871              	.LVL52:
 872              	.L83:
 873              		.loc 2 671 0
 874 054a 511C     		adds	r1, r2, #1
 875 054c 8CF80010 		strb	r1, [ip, #0]
 876              	.LVL53:
 877              	.L38:
 878              		.loc 2 674 0
 879 0550 0320     		movs	r0, #3
 880 0552 FFF7FEFF 		bl	getLightFlashing
 881 0556 0028     		cmp	r0, #0
 882 0558 00F0C682 		beq	.L143
 883 055c 0023     		movs	r3, #0
 884              	.L84:
 885              	.LVL54:
 886              		.loc 2 677 0
 887 055e 3A78     		ldrb	r2, [r7, #0]	@ zero_extendqisi2
 888 0560 DFF8D4C0 		ldr	ip, .L151+28
 889 0564 59F82200 		ldr	r0, [r9, r2, lsl #2]
 890 0568 9842     		cmp	r0, r3
 891 056a 39D0     		beq	.L85
 892              		.loc 2 678 0
 893 056c 3921     		movs	r1, #57
 894 056e 0020     		movs	r0, #0
 895 0570 0093     		str	r3, [sp, #0]
 896 0572 CDF804C0 		str	ip, [sp, #4]
 897 0576 FFF7FEFF 		bl	media_SetSector
 898              	.LVL55:
 899              		.loc 2 679 0
 900 057a FFF7FEFF 		bl	gfxGetDspAns
 901              		.loc 2 680 0
 902 057e 40F2B110 		movw	r0, #433
 903 0582 0721     		movs	r1, #7
 904 0584 DBE5     		b	.L128
 905              	.LVL56:
 906              	.L95:
 907              		.loc 2 770 0
 908 0586 531C     		adds	r3, r2, #1
ARM GAS  C:\Users\DNIEL~1\AppData\Local\Temp\cceiqNg0.s 			page 17


 909              	.LVL57:
 910 0588 3B70     		strb	r3, [r7, #0]
 911              	.L43:
 912              		.loc 2 773 0
 913 058a 0420     		movs	r0, #4
 914 058c FFF7FEFF 		bl	measGetValue
 915 0590 0028     		cmp	r0, #0
 916 0592 00F04C82 		beq	.L120
 917              		.loc 2 775 0
 918 0596 DFF894E0 		ldr	lr, .L151+16
 919 059a BEF80010 		ldrh	r1, [lr, #0]
 920 059e 481C     		adds	r0, r1, #1
 921 05a0 82B2     		uxth	r2, r0
 922              		.loc 2 776 0
 923 05a2 092A     		cmp	r2, #9
 924 05a4 40F2B082 		bls	.L121
 925              	.LVL58:
 926              		.loc 2 777 0 discriminator 3
 927 05a8 142A     		cmp	r2, #20
 928 05aa 40F2B382 		bls	.L144
 929              		.loc 2 776 0
 930 05ae 0223     		movs	r3, #2
 931              		.loc 2 777 0
 932 05b0 0022     		movs	r2, #0
 933              	.LVL59:
 934              	.L98:
 935              		.loc 2 777 0 is_stmt 0 discriminator 3
 936 05b2 1E48     		ldr	r0, .L151+16
 937 05b4 0280     		strh	r2, [r0, #0]	@ movhi
 938              	.L96:
 939              	.LVL60:
 940              		.loc 2 784 0 is_stmt 1
 941 05b6 3A78     		ldrb	r2, [r7, #0]	@ zero_extendqisi2
 942 05b8 DFF87CC0 		ldr	ip, .L151+28
 943 05bc 59F82210 		ldr	r1, [r9, r2, lsl #2]
 944 05c0 9942     		cmp	r1, r3
 945 05c2 3FF4B7AE 		beq	.L99
 946              		.loc 2 785 0
 947 05c6 5E21     		movs	r1, #94
 948 05c8 0020     		movs	r0, #0
 949 05ca 0093     		str	r3, [sp, #0]
 950 05cc CDF804C0 		str	ip, [sp, #4]
 951 05d0 FFF7FEFF 		bl	media_SetSector
 952              	.LVL61:
 953              		.loc 2 786 0
 954 05d4 FFF7FEFF 		bl	gfxGetDspAns
 955              		.loc 2 787 0
 956 05d8 40F27710 		movw	r0, #375
 957 05dc AA21     		movs	r1, #170
 958 05de AEE5     		b	.L128
 959              	.LVL62:
 960              	.L85:
 961              		.loc 2 686 0
 962 05e0 531C     		adds	r3, r2, #1
 963              	.LVL63:
 964 05e2 8CF80030 		strb	r3, [ip, #0]
 965              	.L39:
ARM GAS  C:\Users\DNIEL~1\AppData\Local\Temp\cceiqNg0.s 			page 18


 966              		.loc 2 689 0
 967 05e6 FFF7FEFF 		bl	cruiseStatus
 968              		.loc 2 695 0
 969 05ea 3A78     		ldrb	r2, [r7, #0]	@ zero_extendqisi2
 970 05ec DFF848C0 		ldr	ip, .L151+28
 971 05f0 59F82210 		ldr	r1, [r9, r2, lsl #2]
 972              		.loc 2 209 0
 973 05f4 80F00100 		eor	r0, r0, #1
 974              		.loc 2 691 0
 975 05f8 C3B2     		uxtb	r3, r0
 976              	.LVL64:
 977              		.loc 2 695 0
 978 05fa 9942     		cmp	r1, r3
 979 05fc 3FF41CAF 		beq	.L86
 980              		.loc 2 696 0
 981 0600 44F23351 		movw	r1, #17715
 982 0604 0020     		movs	r0, #0
 983 0606 0093     		str	r3, [sp, #0]
 984 0608 CDF804C0 		str	ip, [sp, #4]
 985 060c FFF7FEFF 		bl	media_SetSector
 986              	.LVL65:
 987              		.loc 2 697 0
 988 0610 FFF7FEFF 		bl	gfxGetDspAns
 989              		.loc 2 698 0
 990 0614 40F2B110 		movw	r0, #433
 991 0618 3D21     		movs	r1, #61
 992 061a 90E5     		b	.L128
 993              	.L152:
 994              		.align	2
 995              	.L151:
 996 061c 00000000 		.word	.LANCHOR7
 997 0620 00000000 		.word	bmsitems
 998 0624 CDCCCCCC 		.word	-858993459
 999 0628 00000000 		.word	.LANCHOR9
 1000 062c 00000000 		.word	.LANCHOR10
 1001 0630 00000000 		.word	.LANCHOR11
 1002 0634 1F85EB51 		.word	1374389535
 1003 0638 00000000 		.word	.LANCHOR6
 1004              	.LVL66:
 1005              	.L81:
 1006              		.loc 2 655 0
 1007 063c 0132     		adds	r2, r2, #1
 1008 063e 8CF80020 		strb	r2, [ip, #0]
 1009              	.LVL67:
 1010              	.L37:
 1011              		.loc 2 658 0
 1012 0642 0220     		movs	r0, #2
 1013 0644 FFF7FEFF 		bl	getLightFlashing
 1014 0648 0028     		cmp	r0, #0
 1015 064a 00F03182 		beq	.L145
 1016 064e 0023     		movs	r3, #0
 1017              	.L82:
 1018              	.LVL68:
 1019              		.loc 2 662 0
 1020 0650 3A78     		ldrb	r2, [r7, #0]	@ zero_extendqisi2
 1021 0652 DFF850C3 		ldr	ip, .L153+20
 1022 0656 59F82200 		ldr	r0, [r9, r2, lsl #2]
ARM GAS  C:\Users\DNIEL~1\AppData\Local\Temp\cceiqNg0.s 			page 19


 1023 065a 9842     		cmp	r0, r3
 1024 065c 3FF475AF 		beq	.L83
 1025              		.loc 2 663 0
 1026 0660 4421     		movs	r1, #68
 1027 0662 0020     		movs	r0, #0
 1028 0664 0093     		str	r3, [sp, #0]
 1029 0666 CDF804C0 		str	ip, [sp, #4]
 1030 066a FFF7FEFF 		bl	media_SetSector
 1031              	.LVL69:
 1032              		.loc 2 664 0
 1033 066e FFF7FEFF 		bl	gfxGetDspAns
 1034              		.loc 2 665 0
 1035 0672 40F2B110 		movw	r0, #433
 1036 0676 E621     		movs	r1, #230
 1037 0678 61E5     		b	.L128
 1038              	.LVL70:
 1039              	.L87:
 1040              		.loc 2 724 0
 1041 067a 501C     		adds	r0, r2, #1
 1042 067c C2B2     		uxtb	r2, r0
 1043 067e 8CF80020 		strb	r2, [ip, #0]
 1044              	.LVL71:
 1045              	.L41:
 1046              		.loc 2 727 0
 1047 0682 C349     		ldr	r1, .L153
 1048 0684 91F804C0 		ldrb	ip, [r1, #4]	@ zero_extendqisi2
 1049 0688 0CF0020E 		and	lr, ip, #2
 1050 068c 5FFA8EF1 		uxtb	r1, lr
 1051 0690 0029     		cmp	r1, #0
 1052 0692 40F0CE81 		bne	.L114
 1053              		.loc 2 733 0
 1054 0696 BF4B     		ldr	r3, .L153+4
 1055 0698 1888     		ldrh	r0, [r3, #0]
 1056 069a 431C     		adds	r3, r0, #1
 1057 069c 98B2     		uxth	r0, r3
 1058              		.loc 2 734 0
 1059 069e 0928     		cmp	r0, #9
 1060 06a0 40F22E82 		bls	.L115
 1061              	.LVL72:
 1062              		.loc 2 735 0 discriminator 3
 1063 06a4 1428     		cmp	r0, #20
 1064 06a6 40F23982 		bls	.L146
 1065              		.loc 2 734 0
 1066 06aa 0223     		movs	r3, #2
 1067              		.loc 2 735 0
 1068 06ac 0846     		mov	r0, r1
 1069              	.LVL73:
 1070              	.L90:
 1071              		.loc 2 735 0 is_stmt 0 discriminator 3
 1072 06ae DFF8E4E2 		ldr	lr, .L153+4
 1073 06b2 AEF80000 		strh	r0, [lr, #0]	@ movhi
 1074              	.L88:
 1075              	.LVL74:
 1076              		.loc 2 738 0 is_stmt 1
 1077 06b6 59F82210 		ldr	r1, [r9, r2, lsl #2]
 1078 06ba 9942     		cmp	r1, r3
 1079 06bc 3FF405AF 		beq	.L91
ARM GAS  C:\Users\DNIEL~1\AppData\Local\Temp\cceiqNg0.s 			page 20


 1080              		.loc 2 739 0
 1081 06c0 44F24651 		movw	r1, #17734
 1082 06c4 0020     		movs	r0, #0
 1083 06c6 0093     		str	r3, [sp, #0]
 1084 06c8 FFF7FEFF 		bl	media_SetSector
 1085              	.LVL75:
 1086              		.loc 2 740 0
 1087 06cc FFF7FEFF 		bl	gfxGetDspAns
 1088              		.loc 2 741 0
 1089 06d0 009A     		ldr	r2, [sp, #0]
 1090 06d2 40F27710 		movw	r0, #375
 1091 06d6 1A21     		movs	r1, #26
 1092 06d8 FFF7FEFF 		bl	media_VideoFrame
 1093              		.loc 2 743 0
 1094 06dc 3A78     		ldrb	r2, [r7, #0]	@ zero_extendqisi2
 1095 06de 35E5     		b	.L129
 1096              	.LVL76:
 1097              	.L53:
 1098              		.loc 2 301 0
 1099 06e0 501C     		adds	r0, r2, #1
 1100 06e2 8CF80000 		strb	r0, [ip, #0]
 1101              	.LVL77:
 1102              	.L16:
 1103              		.loc 2 304 0
 1104 06e6 FFF7FEFF 		bl	speedGetSpeed
 1105              		.loc 2 308 0
 1106 06ea 3A78     		ldrb	r2, [r7, #0]	@ zero_extendqisi2
 1107 06ec DFF8B4C2 		ldr	ip, .L153+20
 1108 06f0 59F82210 		ldr	r1, [r9, r2, lsl #2]
 1109              		.loc 2 304 0
 1110 06f4 8BFB00E3 		smull	lr, r3, fp, r0
 1111 06f8 C017     		asrs	r0, r0, #31
 1112 06fa C0EB6303 		rsb	r3, r0, r3, asr #1
 1113              	.LVL78:
 1114              		.loc 2 308 0
 1115 06fe 9942     		cmp	r1, r3
 1116 0700 00F0C781 		beq	.L54
 1117              		.loc 2 309 0
 1118 0704 0120     		movs	r0, #1
 1119 0706 0093     		str	r3, [sp, #0]
 1120 0708 CDF804C0 		str	ip, [sp, #4]
 1121 070c FFF7FEFF 		bl	gfx_Transparency
 1122              	.LVL79:
 1123              		.loc 2 310 0
 1124 0710 FFF7FEFF 		bl	gfxGetDspAns
 1125              		.loc 2 311 0
 1126 0714 1F20     		movs	r0, #31
 1127 0716 FFF7FEFF 		bl	gfx_TransparentColour
 1128              		.loc 2 312 0
 1129 071a FFF7FEFF 		bl	gfxGetDspAns
 1130              		.loc 2 313 0
 1131 071e 6F21     		movs	r1, #111
 1132 0720 0020     		movs	r0, #0
 1133 0722 FFF7FEFF 		bl	media_SetSector
 1134              		.loc 2 314 0
 1135 0726 FFF7FEFF 		bl	gfxGetDspAns
 1136              		.loc 2 315 0
ARM GAS  C:\Users\DNIEL~1\AppData\Local\Temp\cceiqNg0.s 			page 21


 1137 072a 9420     		movs	r0, #148
 1138 072c 1521     		movs	r1, #21
 1139 072e 06E5     		b	.L128
 1140              	.L52:
 1141              		.loc 2 284 0
 1142 0730 511C     		adds	r1, r2, #1
 1143 0732 8CF80010 		strb	r1, [ip, #0]
 1144              	.L15:
 1145              		.loc 2 287 0
 1146 0736 FFF7FEFF 		bl	speedGetSpeed
 1147 073a C117     		asrs	r1, r0, #31
 1148 073c 8BFB00EC 		smull	lr, ip, fp, r0
 1149 0740 C1EBAC0E 		rsb	lr, r1, ip, asr #2
 1150              		.loc 2 291 0
 1151 0744 3A78     		ldrb	r2, [r7, #0]	@ zero_extendqisi2
 1152 0746 DFF85CC2 		ldr	ip, .L153+20
 1153 074a 59F82210 		ldr	r1, [r9, r2, lsl #2]
 1154              		.loc 2 287 0
 1155 074e 0EEB8E03 		add	r3, lr, lr, lsl #2
 1156 0752 A0EB430E 		sub	lr, r0, r3, lsl #1
 1157 0756 1FFA8EF3 		uxth	r3, lr
 1158              	.LVL80:
 1159              		.loc 2 291 0
 1160 075a 9942     		cmp	r1, r3
 1161 075c C0D0     		beq	.L53
 1162              		.loc 2 292 0
 1163 075e 44F29841 		movw	r1, #17560
 1164 0762 0020     		movs	r0, #0
 1165 0764 0093     		str	r3, [sp, #0]
 1166 0766 CDF804C0 		str	ip, [sp, #4]
 1167 076a FFF7FEFF 		bl	media_SetSector
 1168              	.LVL81:
 1169              		.loc 2 293 0
 1170 076e FFF7FEFF 		bl	gfxGetDspAns
 1171              		.loc 2 294 0
 1172 0772 BA20     		movs	r0, #186
 1173 0774 A721     		movs	r1, #167
 1174              	.L127:
 1175              		.loc 2 277 0
 1176 0776 009A     		ldr	r2, [sp, #0]
 1177 0778 FFF7FEFF 		bl	media_VideoFrame
 1178              		.loc 2 279 0
 1179 077c DDF804C0 		ldr	ip, [sp, #4]
 1180 0780 009B     		ldr	r3, [sp, #0]
 1181 0782 9CF80010 		ldrb	r1, [ip, #0]	@ zero_extendqisi2
 1182              		.loc 2 278 0
 1183 0786 0020     		movs	r0, #0
 1184 0788 3070     		strb	r0, [r6, #0]
 1185              		.loc 2 279 0
 1186 078a 8348     		ldr	r0, .L153+8
 1187              		.loc 2 280 0
 1188 078c 4A1C     		adds	r2, r1, #1
 1189              		.loc 2 279 0
 1190 078e 40F82130 		str	r3, [r0, r1, lsl #2]
 1191              		.loc 2 280 0
 1192 0792 D2B2     		uxtb	r2, r2
 1193              		.loc 2 281 0
ARM GAS  C:\Users\DNIEL~1\AppData\Local\Temp\cceiqNg0.s 			page 22


 1194 0794 E0E4     		b	.L12
 1195              	.L50:
 1196              		.loc 2 259 0
 1197 0796 511C     		adds	r1, r2, #1
 1198 0798 8CF80010 		strb	r1, [ip, #0]
 1199              	.L14:
 1200              		.loc 2 262 0
 1201 079c FFF7FEFF 		bl	speedGetSpeed
 1202 07a0 8BFB003C 		smull	r3, ip, fp, r0
 1203 07a4 C217     		asrs	r2, r0, #31
 1204 07a6 C2EBAC00 		rsb	r0, r2, ip, asr #2
 1205 07aa 82B2     		uxth	r2, r0
 1206              	.LVL82:
 1207              		.loc 2 263 0
 1208 07ac 8BFB02C1 		smull	ip, r1, fp, r2
 1209              		.loc 2 266 0
 1210 07b0 D9F80000 		ldr	r0, [r9, #0]
 1211              		.loc 2 263 0
 1212 07b4 8B08     		lsrs	r3, r1, #2
 1213 07b6 03EB830C 		add	ip, r3, r3, lsl #2
 1214              		.loc 2 266 0
 1215 07ba 0A28     		cmp	r0, #10
 1216              		.loc 2 263 0
 1217 07bc A2EB4C03 		sub	r3, r2, ip, lsl #1
 1218              	.LVL83:
 1219              		.loc 2 266 0
 1220 07c0 00F0A481 		beq	.L147
 1221              	.L51:
 1222              		.loc 2 273 0
 1223 07c4 3A78     		ldrb	r2, [r7, #0]	@ zero_extendqisi2
 1224 07c6 DFF8DCC1 		ldr	ip, .L153+20
 1225 07ca 59F82210 		ldr	r1, [r9, r2, lsl #2]
 1226 07ce 9942     		cmp	r1, r3
 1227 07d0 AED0     		beq	.L52
 1228              		.loc 2 275 0
 1229 07d2 44F29841 		movw	r1, #17560
 1230 07d6 0020     		movs	r0, #0
 1231 07d8 0093     		str	r3, [sp, #0]
 1232 07da CDF804C0 		str	ip, [sp, #4]
 1233 07de FFF7FEFF 		bl	media_SetSector
 1234              		.loc 2 276 0
 1235 07e2 FFF7FEFF 		bl	gfxGetDspAns
 1236              		.loc 2 277 0
 1237 07e6 BA20     		movs	r0, #186
 1238 07e8 7521     		movs	r1, #117
 1239 07ea C4E7     		b	.L127
 1240              	.L13:
 1241              		.loc 2 244 0
 1242 07ec FFF7FEFF 		bl	speedGetSpeed
 1243 07f0 6A4A     		ldr	r2, .L153+12
 1244              		.loc 2 249 0
 1245 07f2 DFF8B0C1 		ldr	ip, .L153+20
 1246              		.loc 2 244 0
 1247 07f6 82FB0013 		smull	r1, r3, r2, r0
 1248 07fa C017     		asrs	r0, r0, #31
 1249              		.loc 2 249 0
 1250 07fc 3A78     		ldrb	r2, [r7, #0]	@ zero_extendqisi2
ARM GAS  C:\Users\DNIEL~1\AppData\Local\Temp\cceiqNg0.s 			page 23


 1251              		.loc 2 244 0
 1252 07fe C0EB6310 		rsb	r0, r0, r3, asr #5
 1253              		.loc 2 249 0
 1254 0802 59F82210 		ldr	r1, [r9, r2, lsl #2]
 1255              		.loc 2 244 0
 1256 0806 03B2     		sxth	r3, r0
 1257              	.LVL84:
 1258              		.loc 2 245 0
 1259 0808 002B     		cmp	r3, #0
 1260 080a 08BF     		it	eq
 1261 080c 0A23     		moveq	r3, #10
 1262              	.LVL85:
 1263              		.loc 2 249 0
 1264 080e 8B42     		cmp	r3, r1
 1265 0810 C1D0     		beq	.L50
 1266              		.loc 2 250 0
 1267 0812 44F29841 		movw	r1, #17560
 1268 0816 0020     		movs	r0, #0
 1269 0818 0093     		str	r3, [sp, #0]
 1270 081a CDF804C0 		str	ip, [sp, #4]
 1271 081e FFF7FEFF 		bl	media_SetSector
 1272              		.loc 2 251 0
 1273 0822 FFF7FEFF 		bl	gfxGetDspAns
 1274              		.loc 2 252 0
 1275 0826 BA20     		movs	r0, #186
 1276 0828 4321     		movs	r1, #67
 1277 082a A4E7     		b	.L127
 1278              	.L108:
 1279              	.LBE5:
 1280              		.loc 2 241 0
 1281 082c 0D20     		movs	r0, #13
 1282              	.L26:
 1283              	.LBB6:
 1284              		.loc 2 465 0
 1285 082e DFF860E1 		ldr	lr, .L153
 1286 0832 5B49     		ldr	r1, .L153+16
 1287 0834 9EF80F20 		ldrb	r2, [lr, #15]	@ zero_extendqisi2
 1288              		.loc 2 470 0
 1289 0838 59F820E0 		ldr	lr, [r9, r0, lsl #2]
 1290              		.loc 2 465 0
 1291 083c A1FB0213 		umull	r1, r3, r1, r2
 1292 0840 DB08     		lsrs	r3, r3, #3
 1293              		.loc 2 466 0
 1294 0842 8BFB03C1 		smull	ip, r1, fp, r3
 1295 0846 8908     		lsrs	r1, r1, #2
 1296 0848 01EB810C 		add	ip, r1, r1, lsl #2
 1297              		.loc 2 468 0
 1298 084c B3EB4C03 		subs	r3, r3, ip, lsl #1
 1299 0850 08BF     		it	eq
 1300 0852 0A23     		moveq	r3, #10
 1301              		.loc 2 470 0
 1302 0854 7345     		cmp	r3, lr
 1303 0856 00F00F81 		beq	.L68
 1304              		.loc 2 471 0
 1305 085a 44F27E41 		movw	r1, #17534
 1306 085e 0020     		movs	r0, #0
 1307 0860 0093     		str	r3, [sp, #0]
ARM GAS  C:\Users\DNIEL~1\AppData\Local\Temp\cceiqNg0.s 			page 24


 1308 0862 FFF7FEFF 		bl	media_SetSector
 1309              		.loc 2 472 0
 1310 0866 FFF7FEFF 		bl	gfxGetDspAns
 1311              		.loc 2 473 0
 1312 086a 4220     		movs	r0, #66
 1313              	.L131:
 1314 086c 009A     		ldr	r2, [sp, #0]
 1315 086e 3B21     		movs	r1, #59
 1316 0870 FFF7FEFF 		bl	media_VideoFrame
 1317              		.loc 2 475 0
 1318 0874 3A78     		ldrb	r2, [r7, #0]	@ zero_extendqisi2
 1319 0876 69E4     		b	.L129
 1320              	.L105:
 1321              	.LBE6:
 1322              		.loc 2 241 0
 1323 0878 0522     		movs	r2, #5
 1324              	.L18:
 1325              	.LVL86:
 1326              	.LBB7:
 1327              		.loc 2 338 0
 1328 087a 59F82200 		ldr	r0, [r9, r2, lsl #2]
 1329 087e 40F2E333 		movw	r3, #995
 1330 0882 9842     		cmp	r0, r3
 1331 0884 00F0EC80 		beq	.L56
 1332              		.loc 2 339 0
 1333 0888 44F27141 		movw	r1, #17521
 1334 088c 0020     		movs	r0, #0
 1335 088e 0093     		str	r3, [sp, #0]
 1336 0890 FFF7FEFF 		bl	media_SetSector
 1337              		.loc 2 340 0
 1338 0894 FFF7FEFF 		bl	gfxGetDspAns
 1339              		.loc 2 341 0
 1340 0898 0922     		movs	r2, #9
 1341 089a 40F23B10 		movw	r0, #315
 1342 089e 1421     		movs	r1, #20
 1343 08a0 FFF7FEFF 		bl	media_VideoFrame
 1344              		.loc 2 343 0
 1345 08a4 3A78     		ldrb	r2, [r7, #0]	@ zero_extendqisi2
 1346 08a6 51E4     		b	.L129
 1347              	.LVL87:
 1348              	.L24:
 1349              	.LBE7:
 1350              		.loc 2 241 0
 1351 08a8 DFF8E4C0 		ldr	ip, .L153
 1352 08ac BCF80820 		ldrh	r2, [ip, #8]
 1353 08b0 0B20     		movs	r0, #11
 1354              	.L48:
 1355              	.LBB8:
 1356              		.loc 2 430 0
 1357 08b2 DFF8E8E0 		ldr	lr, .L153+12
 1358 08b6 AEFB02E1 		umull	lr, r1, lr, r2
 1359 08ba 4909     		lsrs	r1, r1, #5
 1360              	.LVL88:
 1361              		.loc 2 431 0
 1362 08bc 8BFB01C3 		smull	ip, r3, fp, r1
 1363 08c0 9B08     		lsrs	r3, r3, #2
 1364 08c2 03EB8303 		add	r3, r3, r3, lsl #2
ARM GAS  C:\Users\DNIEL~1\AppData\Local\Temp\cceiqNg0.s 			page 25


 1365              		.loc 2 438 0
 1366 08c6 59F820C0 		ldr	ip, [r9, r0, lsl #2]
 1367              		.loc 2 431 0
 1368 08ca A1EB4303 		sub	r3, r1, r3, lsl #1
 1369              	.LVL89:
 1370              		.loc 2 438 0
 1371 08ce 9C45     		cmp	ip, r3
 1372 08d0 00F0CE80 		beq	.L65
 1373              		.loc 2 439 0
 1374 08d4 44F27E41 		movw	r1, #17534
 1375 08d8 0020     		movs	r0, #0
 1376 08da 0093     		str	r3, [sp, #0]
 1377 08dc FFF7FEFF 		bl	media_SetSector
 1378              		.loc 2 440 0
 1379 08e0 FFF7FEFF 		bl	gfxGetDspAns
 1380              		.loc 2 441 0
 1381 08e4 6C20     		movs	r0, #108
 1382 08e6 C1E7     		b	.L131
 1383              	.L106:
 1384              	.LBE8:
 1385              		.loc 2 241 0
 1386 08e8 0622     		movs	r2, #6
 1387              	.L19:
 1388              	.LVL90:
 1389              	.LBB9:
 1390              		.loc 2 351 0
 1391 08ea 59F82210 		ldr	r1, [r9, r2, lsl #2]
 1392 08ee 40F2E333 		movw	r3, #995
 1393 08f2 9942     		cmp	r1, r3
 1394 08f4 3FF447AD 		beq	.L57
 1395              		.loc 2 352 0
 1396 08f8 44F27141 		movw	r1, #17521
 1397 08fc 0020     		movs	r0, #0
 1398 08fe 0093     		str	r3, [sp, #0]
 1399 0900 FFF7FEFF 		bl	media_SetSector
 1400              		.loc 2 353 0
 1401 0904 FFF7FEFF 		bl	gfxGetDspAns
 1402              		.loc 2 354 0
 1403 0908 0522     		movs	r2, #5
 1404 090a 40F23B10 		movw	r0, #315
 1405 090e 2821     		movs	r1, #40
 1406 0910 FFF7FEFF 		bl	media_VideoFrame
 1407              		.loc 2 356 0
 1408 0914 3A78     		ldrb	r2, [r7, #0]	@ zero_extendqisi2
 1409 0916 19E4     		b	.L129
 1410              	.LVL91:
 1411              	.L27:
 1412              	.LBE9:
 1413              		.loc 2 241 0
 1414 0918 1D4B     		ldr	r3, .L153
 1415 091a DA7B     		ldrb	r2, [r3, #15]	@ zero_extendqisi2
 1416 091c 0E21     		movs	r1, #14
 1417              	.L46:
 1418              	.LBB10:
 1419              		.loc 2 482 0
 1420 091e 204B     		ldr	r3, .L153+16
 1421              		.loc 2 484 0
ARM GAS  C:\Users\DNIEL~1\AppData\Local\Temp\cceiqNg0.s 			page 26


 1422 0920 59F82100 		ldr	r0, [r9, r1, lsl #2]
 1423              		.loc 2 482 0
 1424 0924 A3FB02E3 		umull	lr, r3, r3, r2
 1425 0928 DB08     		lsrs	r3, r3, #3
 1426 092a 03EB8303 		add	r3, r3, r3, lsl #2
 1427 092e A2EB430C 		sub	ip, r2, r3, lsl #1
 1428 0932 5FFA8CF3 		uxtb	r3, ip
 1429              	.LVL92:
 1430              		.loc 2 484 0
 1431 0936 9842     		cmp	r0, r3
 1432 0938 3FF4E0AC 		beq	.L69
 1433              		.loc 2 485 0
 1434 093c 44F27E41 		movw	r1, #17534
 1435 0940 0020     		movs	r0, #0
 1436 0942 0093     		str	r3, [sp, #0]
 1437 0944 FFF7FEFF 		bl	media_SetSector
 1438              	.LVL93:
 1439              		.loc 2 486 0
 1440 0948 FFF7FEFF 		bl	gfxGetDspAns
 1441              		.loc 2 487 0
 1442 094c 4220     		movs	r0, #66
 1443              	.L132:
 1444 094e 009A     		ldr	r2, [sp, #0]
 1445 0950 4F21     		movs	r1, #79
 1446 0952 FFF7FEFF 		bl	media_VideoFrame
 1447              		.loc 2 489 0
 1448 0956 3A78     		ldrb	r2, [r7, #0]	@ zero_extendqisi2
 1449 0958 FFF7F8BB 		b	.L129
 1450              	.L104:
 1451              	.LBE10:
 1452              		.loc 2 241 0
 1453 095c 0422     		movs	r2, #4
 1454              	.L17:
 1455              	.LVL94:
 1456              	.LBB11:
 1457              		.loc 2 325 0
 1458 095e 59F82210 		ldr	r1, [r9, r2, lsl #2]
 1459 0962 40F2E333 		movw	r3, #995
 1460 0966 9942     		cmp	r1, r3
 1461 0968 00F08F80 		beq	.L55
 1462              		.loc 2 326 0
 1463 096c 44F27141 		movw	r1, #17521
 1464 0970 0020     		movs	r0, #0
 1465 0972 0093     		str	r3, [sp, #0]
 1466 0974 FFF7FEFF 		bl	media_SetSector
 1467              		.loc 2 327 0
 1468 0978 FFF7FEFF 		bl	gfxGetDspAns
 1469              		.loc 2 328 0
 1470 097c 0922     		movs	r2, #9
 1471 097e 40F23B10 		movw	r0, #315
 1472 0982 0021     		movs	r1, #0
 1473 0984 FFF7FEFF 		bl	media_VideoFrame
 1474              		.loc 2 330 0
 1475 0988 3A78     		ldrb	r2, [r7, #0]	@ zero_extendqisi2
 1476 098a FFF7DFBB 		b	.L129
 1477              	.L154:
 1478 098e 00BF     		.align	2
ARM GAS  C:\Users\DNIEL~1\AppData\Local\Temp\cceiqNg0.s 			page 27


 1479              	.L153:
 1480 0990 00000000 		.word	bmsitems
 1481 0994 00000000 		.word	.LANCHOR8
 1482 0998 00000000 		.word	.LANCHOR7
 1483 099c 1F85EB51 		.word	1374389535
 1484 09a0 CDCCCCCC 		.word	-858993459
 1485 09a4 00000000 		.word	.LANCHOR6
 1486              	.LVL95:
 1487              	.L107:
 1488              	.LBE11:
 1489              		.loc 2 241 0
 1490 09a8 0A21     		movs	r1, #10
 1491              	.L23:
 1492              	.LBB12:
 1493              		.loc 2 411 0
 1494 09aa 5D4A     		ldr	r2, .L155
 1495 09ac 1289     		ldrh	r2, [r2, #8]
 1496              	.LVL96:
 1497              		.loc 2 412 0
 1498 09ae 02F57870 		add	r0, r2, #992
 1499 09b2 C31D     		adds	r3, r0, #7
 1500 09b4 40F2CE7C 		movw	ip, #1998
 1501 09b8 6345     		cmp	r3, ip
 1502 09ba 48D9     		bls	.L109
 1503              		.loc 2 416 0
 1504 09bc DFF86CE1 		ldr	lr, .L155+12
 1505              		.loc 2 418 0
 1506 09c0 59F82100 		ldr	r0, [r9, r1, lsl #2]
 1507              		.loc 2 416 0
 1508 09c4 8EFB02C3 		smull	ip, r3, lr, r2
 1509 09c8 9B09     		lsrs	r3, r3, #6
 1510              	.LVL97:
 1511              		.loc 2 418 0
 1512 09ca 9842     		cmp	r0, r3
 1513 09cc 44D0     		beq	.L64
 1514              	.L148:
 1515              		.loc 2 419 0
 1516 09ce 44F27E41 		movw	r1, #17534
 1517 09d2 0020     		movs	r0, #0
 1518 09d4 0093     		str	r3, [sp, #0]
 1519 09d6 FFF7FEFF 		bl	media_SetSector
 1520              	.LVL98:
 1521              		.loc 2 420 0
 1522 09da FFF7FEFF 		bl	gfxGetDspAns
 1523              		.loc 2 421 0
 1524 09de 009A     		ldr	r2, [sp, #0]
 1525 09e0 6C20     		movs	r0, #108
 1526 09e2 2721     		movs	r1, #39
 1527 09e4 FFF7FEFF 		bl	media_VideoFrame
 1528              		.loc 2 423 0
 1529 09e8 3A78     		ldrb	r2, [r7, #0]	@ zero_extendqisi2
 1530 09ea FFF7AFBB 		b	.L129
 1531              	.L25:
 1532              	.LBE12:
 1533              		.loc 2 241 0
 1534 09ee DFF830E1 		ldr	lr, .L155
 1535 09f2 BEF80820 		ldrh	r2, [lr, #8]
ARM GAS  C:\Users\DNIEL~1\AppData\Local\Temp\cceiqNg0.s 			page 28


 1536 09f6 0C21     		movs	r1, #12
 1537              	.L47:
 1538              	.LBB13:
 1539              		.loc 2 450 0
 1540 09f8 4A4B     		ldr	r3, .L155+4
 1541              		.loc 2 453 0
 1542 09fa 59F82100 		ldr	r0, [r9, r1, lsl #2]
 1543              		.loc 2 450 0
 1544 09fe A3FB02E2 		umull	lr, r2, r3, r2
 1545 0a02 D208     		lsrs	r2, r2, #3
 1546              	.LVL99:
 1547              		.loc 2 451 0
 1548 0a04 8BFB02C3 		smull	ip, r3, fp, r2
 1549 0a08 9B08     		lsrs	r3, r3, #2
 1550 0a0a 03EB830C 		add	ip, r3, r3, lsl #2
 1551 0a0e A2EB4C03 		sub	r3, r2, ip, lsl #1
 1552              	.LVL100:
 1553              		.loc 2 453 0
 1554 0a12 9842     		cmp	r0, r3
 1555 0a14 28D0     		beq	.L66
 1556              		.loc 2 454 0
 1557 0a16 44F27E41 		movw	r1, #17534
 1558 0a1a 0020     		movs	r0, #0
 1559 0a1c 0093     		str	r3, [sp, #0]
 1560 0a1e FFF7FEFF 		bl	media_SetSector
 1561              		.loc 2 455 0
 1562 0a22 FFF7FEFF 		bl	gfxGetDspAns
 1563              		.loc 2 456 0
 1564 0a26 6C20     		movs	r0, #108
 1565 0a28 91E7     		b	.L132
 1566              	.L117:
 1567              		.loc 2 752 0
 1568 0a2a 0023     		movs	r3, #0
 1569 0a2c 68E5     		b	.L92
 1570              	.L120:
 1571              		.loc 2 781 0
 1572 0a2e 0346     		mov	r3, r0
 1573 0a30 C1E5     		b	.L96
 1574              	.L114:
 1575              		.loc 2 729 0
 1576 0a32 0023     		movs	r3, #0
 1577 0a34 3FE6     		b	.L88
 1578              	.L100:
 1579              		.loc 2 805 0
 1580 0a36 DFF8F8E0 		ldr	lr, .L155+16
 1581 0a3a BEF80030 		ldrh	r3, [lr, #0]
 1582 0a3e 581C     		adds	r0, r3, #1
 1583 0a40 81B2     		uxth	r1, r0
 1584              	.LVL101:
 1585              		.loc 2 807 0
 1586 0a42 1429     		cmp	r1, #20
 1587 0a44 88BF     		it	hi
 1588 0a46 0021     		movhi	r1, #0
 1589 0a48 AEF80010 		strh	r1, [lr, #0]	@ movhi
 1590 0a4c 82E4     		b	.L101
 1591              	.LVL102:
 1592              	.L109:
ARM GAS  C:\Users\DNIEL~1\AppData\Local\Temp\cceiqNg0.s 			page 29


 1593              		.loc 2 418 0
 1594 0a4e 59F82100 		ldr	r0, [r9, r1, lsl #2]
 1595              		.loc 2 413 0
 1596 0a52 0A23     		movs	r3, #10
 1597              	.LVL103:
 1598              		.loc 2 418 0
 1599 0a54 9842     		cmp	r0, r3
 1600 0a56 BAD1     		bne	.L148
 1601              	.L64:
 1602              		.loc 2 427 0
 1603 0a58 0131     		adds	r1, r1, #1
 1604 0a5a C8B2     		uxtb	r0, r1
 1605 0a5c 3870     		strb	r0, [r7, #0]
 1606 0a5e 28E7     		b	.L48
 1607              	.LVL104:
 1608              	.L56:
 1609              		.loc 2 347 0
 1610 0a60 0132     		adds	r2, r2, #1
 1611 0a62 D2B2     		uxtb	r2, r2
 1612 0a64 3A70     		strb	r2, [r7, #0]
 1613 0a66 40E7     		b	.L19
 1614              	.LVL105:
 1615              	.L66:
 1616              		.loc 2 462 0
 1617 0a68 0131     		adds	r1, r1, #1
 1618 0a6a C8B2     		uxtb	r0, r1
 1619 0a6c 3870     		strb	r0, [r7, #0]
 1620 0a6e DEE6     		b	.L26
 1621              	.L65:
 1622              		.loc 2 447 0
 1623 0a70 0130     		adds	r0, r0, #1
 1624 0a72 C1B2     		uxtb	r1, r0
 1625 0a74 3970     		strb	r1, [r7, #0]
 1626 0a76 BFE7     		b	.L47
 1627              	.L68:
 1628              		.loc 2 479 0
 1629 0a78 0130     		adds	r0, r0, #1
 1630 0a7a C1B2     		uxtb	r1, r0
 1631 0a7c 3970     		strb	r1, [r7, #0]
 1632 0a7e 4EE7     		b	.L46
 1633              	.LVL106:
 1634              	.L62:
 1635              		.loc 2 408 0
 1636 0a80 501C     		adds	r0, r2, #1
 1637 0a82 C1B2     		uxtb	r1, r0
 1638 0a84 8CF80010 		strb	r1, [ip, #0]
 1639 0a88 8FE7     		b	.L23
 1640              	.LVL107:
 1641              	.L55:
 1642              		.loc 2 334 0
 1643 0a8a 531C     		adds	r3, r2, #1
 1644 0a8c DAB2     		uxtb	r2, r3
 1645 0a8e 3A70     		strb	r2, [r7, #0]
 1646 0a90 F3E6     		b	.L18
 1647              	.LVL108:
 1648              	.L54:
 1649              		.loc 2 321 0
ARM GAS  C:\Users\DNIEL~1\AppData\Local\Temp\cceiqNg0.s 			page 30


 1650 0a92 0132     		adds	r2, r2, #1
 1651 0a94 D2B2     		uxtb	r2, r2
 1652 0a96 8CF80020 		strb	r2, [ip, #0]
 1653 0a9a 60E7     		b	.L17
 1654              	.LVL109:
 1655              	.L139:
 1656              		.loc 2 590 0
 1657 0a9c 002B     		cmp	r3, #0
 1658 0a9e 08BF     		it	eq
 1659 0aa0 0A23     		moveq	r3, #10
 1660 0aa2 FFF782BB 		b	.L76
 1661              	.L140:
 1662              		.loc 2 611 0
 1663 0aa6 002B     		cmp	r3, #0
 1664 0aa8 08BF     		it	eq
 1665 0aaa 0A23     		moveq	r3, #10
 1666 0aac FFF7AABB 		b	.L78
 1667              	.L145:
 1668              		.loc 2 658 0 discriminator 2
 1669 0ab0 0420     		movs	r0, #4
 1670 0ab2 FFF7FEFF 		bl	getLightFlashing
 1671              		.loc 2 660 0 discriminator 2
 1672 0ab6 D0F10103 		rsbs	r3, r0, #1
 1673 0aba 38BF     		it	cc
 1674 0abc 0023     		movcc	r3, #0
 1675 0abe C7E5     		b	.L82
 1676              	.LVL110:
 1677              	.L137:
 1678              		.loc 2 556 0
 1679 0ac0 44F27E41 		movw	r1, #17534
 1680 0ac4 0020     		movs	r0, #0
 1681 0ac6 FFF7FEFF 		bl	media_SetSector
 1682              		.loc 2 557 0
 1683 0aca FFF7FEFF 		bl	gfxGetDspAns
 1684              		.loc 2 559 0
 1685 0ace 6C20     		movs	r0, #108
 1686 0ad0 0022     		movs	r2, #0
 1687 0ad2 E421     		movs	r1, #228
 1688 0ad4 FFF7FEFF 		bl	media_VideoFrame
 1689              		.loc 2 561 0
 1690 0ad8 3A78     		ldrb	r2, [r7, #0]	@ zero_extendqisi2
 1691 0ada 1348     		ldr	r0, .L155+8
 1692              		.loc 2 560 0
 1693 0adc 0023     		movs	r3, #0
 1694 0ade 3370     		strb	r3, [r6, #0]
 1695              		.loc 2 561 0
 1696 0ae0 40F82230 		str	r3, [r0, r2, lsl #2]
 1697              		.loc 2 562 0
 1698 0ae4 FFF738BB 		b	.L12
 1699              	.LVL111:
 1700              	.L143:
 1701              		.loc 2 674 0 discriminator 2
 1702 0ae8 0420     		movs	r0, #4
 1703 0aea FFF7FEFF 		bl	getLightFlashing
 1704              		.loc 2 676 0 discriminator 2
 1705 0aee D0F10103 		rsbs	r3, r0, #1
 1706 0af2 38BF     		it	cc
ARM GAS  C:\Users\DNIEL~1\AppData\Local\Temp\cceiqNg0.s 			page 31


 1707 0af4 0023     		movcc	r3, #0
 1708 0af6 32E5     		b	.L84
 1709              	.L141:
 1710              		.loc 2 382 0
 1711 0af8 002B     		cmp	r3, #0
 1712 0afa 08BF     		it	eq
 1713 0afc 0A23     		moveq	r3, #10
 1714 0afe CFE4     		b	.L60
 1715              	.L115:
 1716              		.loc 2 734 0
 1717 0b00 0123     		movs	r3, #1
 1718 0b02 D4E5     		b	.L90
 1719              	.L118:
 1720              		.loc 2 757 0
 1721 0b04 0123     		movs	r3, #1
 1722 0b06 F7E4     		b	.L94
 1723              	.L121:
 1724              		.loc 2 776 0
 1725 0b08 0123     		movs	r3, #1
 1726 0b0a 52E5     		b	.L98
 1727              	.L147:
 1728              		.loc 2 268 0
 1729 0b0c 002B     		cmp	r3, #0
 1730 0b0e 08BF     		it	eq
 1731 0b10 0A23     		moveq	r3, #10
 1732 0b12 57E6     		b	.L51
 1733              	.LVL112:
 1734              	.L144:
 1735              		.loc 2 776 0
 1736 0b14 0223     		movs	r3, #2
 1737 0b16 4CE5     		b	.L98
 1738              	.L142:
 1739              		.loc 2 757 0
 1740 0b18 0223     		movs	r3, #2
 1741 0b1a EDE4     		b	.L94
 1742              	.L146:
 1743              		.loc 2 734 0
 1744 0b1c 0223     		movs	r3, #2
 1745 0b1e C6E5     		b	.L90
 1746              	.L156:
 1747              		.align	2
 1748              	.L155:
 1749 0b20 00000000 		.word	bmsitems
 1750 0b24 CDCCCCCC 		.word	-858993459
 1751 0b28 00000000 		.word	.LANCHOR7
 1752 0b2c D34D6210 		.word	274877907
 1753 0b30 00000000 		.word	.LANCHOR11
 1754              	.LBE13:
 1755              	.LBE14:
 1756              		.cfi_endproc
 1757              	.LFE123:
 1758              		.size	dspTask, .-dspTask
 1759 0b34 AFF30080 		.section	.text.dsp_LoadTop,"ax",%progbits
 1759      AFF30080 
 1759      AFF30080 
 1760              		.align	2
 1761              		.p2align 4,,15
ARM GAS  C:\Users\DNIEL~1\AppData\Local\Temp\cceiqNg0.s 			page 32


 1762              		.global	dsp_LoadTop
 1763              		.thumb
 1764              		.thumb_func
 1765              		.type	dsp_LoadTop, %function
 1766              	dsp_LoadTop:
 1767              	.LFB119:
 1768              		.loc 2 80 0
 1769              		.cfi_startproc
 1770              		@ args = 0, pretend = 0, frame = 0
 1771              		@ frame_needed = 0, uses_anonymous_args = 0
 1772 0000 10B5     		push	{r4, lr}
 1773              	.LCFI5:
 1774              		.cfi_def_cfa_offset 8
 1775              		.loc 2 82 0
 1776 0002 0020     		movs	r0, #0
 1777 0004 3921     		movs	r1, #57
 1778              		.cfi_offset 14, -4
 1779              		.cfi_offset 4, -8
 1780 0006 FFF7FEFF 		bl	media_SetSector
 1781              		.loc 2 83 0
 1782 000a 0022     		movs	r2, #0
 1783 000c 0721     		movs	r1, #7
 1784 000e 40F2B110 		movw	r0, #433
 1785 0012 FFF7FEFF 		bl	media_VideoFrame
 1786              		.loc 2 85 0
 1787 0016 0020     		movs	r0, #0
 1788 0018 44F23351 		movw	r1, #17715
 1789 001c FFF7FEFF 		bl	media_SetSector
 1790              		.loc 2 86 0
 1791 0020 0022     		movs	r2, #0
 1792 0022 3D21     		movs	r1, #61
 1793 0024 40F2B110 		movw	r0, #433
 1794 0028 FFF7FEFF 		bl	media_VideoFrame
 1795              		.loc 2 88 0
 1796 002c 0020     		movs	r0, #0
 1797 002e 5321     		movs	r1, #83
 1798 0030 FFF7FEFF 		bl	media_SetSector
 1799              		.loc 2 89 0
 1800 0034 0022     		movs	r2, #0
 1801 0036 9A21     		movs	r1, #154
 1802 0038 40F2B110 		movw	r0, #433
 1803 003c FFF7FEFF 		bl	media_VideoFrame
 1804              		.loc 2 91 0
 1805 0040 0020     		movs	r0, #0
 1806 0042 4421     		movs	r1, #68
 1807 0044 FFF7FEFF 		bl	media_SetSector
 1808              		.loc 2 92 0
 1809 0048 0022     		movs	r2, #0
 1810 004a E621     		movs	r1, #230
 1811 004c 40F2B110 		movw	r0, #433
 1812 0050 FFF7FEFF 		bl	media_VideoFrame
 1813              		.loc 2 94 0
 1814 0054 0020     		movs	r0, #0
 1815 0056 44F24651 		movw	r1, #17734
 1816 005a FFF7FEFF 		bl	media_SetSector
 1817              		.loc 2 95 0
 1818 005e 0022     		movs	r2, #0
ARM GAS  C:\Users\DNIEL~1\AppData\Local\Temp\cceiqNg0.s 			page 33


 1819 0060 1A21     		movs	r1, #26
 1820 0062 40F27710 		movw	r0, #375
 1821 0066 FFF7FEFF 		bl	media_VideoFrame
 1822              		.loc 2 97 0
 1823 006a 0020     		movs	r0, #0
 1824 006c 1721     		movs	r1, #23
 1825 006e FFF7FEFF 		bl	media_SetSector
 1826              		.loc 2 98 0
 1827 0072 0222     		movs	r2, #2
 1828 0074 40F27710 		movw	r0, #375
 1829 0078 5021     		movs	r1, #80
 1830 007a FFF7FEFF 		bl	media_VideoFrame
 1831              		.loc 2 100 0
 1832 007e 0020     		movs	r0, #0
 1833 0080 5E21     		movs	r1, #94
 1834 0082 FFF7FEFF 		bl	media_SetSector
 1835              		.loc 2 101 0
 1836 0086 0022     		movs	r2, #0
 1837 0088 AA21     		movs	r1, #170
 1838 008a 40F27710 		movw	r0, #375
 1839 008e FFF7FEFF 		bl	media_VideoFrame
 1840              		.loc 2 103 0
 1841 0092 0020     		movs	r0, #0
 1842 0094 0146     		mov	r1, r0
 1843 0096 FFF7FEFF 		bl	media_SetSector
 1844              		.loc 2 104 0
 1845 009a 0022     		movs	r2, #0
 1846 009c DB21     		movs	r1, #219
 1847 009e 40F27710 		movw	r0, #375
 1848 00a2 FFF7FEFF 		bl	media_VideoFrame
 1849              		.loc 2 106 0
 1850 00a6 0020     		movs	r0, #0
 1851 00a8 1121     		movs	r1, #17
 1852 00aa FFF7FEFF 		bl	media_SetSector
 1853              		.loc 2 107 0
 1854 00ae 0421     		movs	r1, #4
 1855 00b0 4FF4AA70 		mov	r0, #340
 1856 00b4 FFF7FEFF 		bl	media_Image
 1857              		.loc 2 109 0
 1858 00b8 0020     		movs	r0, #0
 1859 00ba 44F23E51 		movw	r1, #17726
 1860 00be FFF7FEFF 		bl	media_SetSector
 1861              		.loc 2 110 0
 1862 00c2 4FF4AA70 		mov	r0, #340
 1863 00c6 A621     		movs	r1, #166
 1864              		.loc 2 112 0
 1865 00c8 BDE81040 		pop	{r4, lr}
 1866              		.loc 2 110 0
 1867 00cc FFF7FEBF 		b	media_Image
 1868              		.cfi_endproc
 1869              	.LFE119:
 1870              		.size	dsp_LoadTop, .-dsp_LoadTop
 1871              		.section	.text.dsp_LoadMidle,"ax",%progbits
 1872              		.align	2
 1873              		.p2align 4,,15
 1874              		.global	dsp_LoadMidle
 1875              		.thumb
ARM GAS  C:\Users\DNIEL~1\AppData\Local\Temp\cceiqNg0.s 			page 34


 1876              		.thumb_func
 1877              		.type	dsp_LoadMidle, %function
 1878              	dsp_LoadMidle:
 1879              	.LFB120:
 1880              		.loc 2 113 0
 1881              		.cfi_startproc
 1882              		@ args = 0, pretend = 0, frame = 0
 1883              		@ frame_needed = 0, uses_anonymous_args = 0
 1884 0000 10B5     		push	{r4, lr}
 1885              	.LCFI6:
 1886              		.cfi_def_cfa_offset 8
 1887              		.loc 2 115 0
 1888 0002 0120     		movs	r0, #1
 1889              		.cfi_offset 14, -4
 1890              		.cfi_offset 4, -8
 1891 0004 FFF7FEFF 		bl	gfx_Transparency
 1892              		.loc 2 116 0
 1893 0008 1F20     		movs	r0, #31
 1894 000a FFF7FEFF 		bl	gfx_TransparentColour
 1895              		.loc 2 117 0
 1896 000e 0020     		movs	r0, #0
 1897 0010 6F21     		movs	r1, #111
 1898 0012 FFF7FEFF 		bl	media_SetSector
 1899              		.loc 2 118 0
 1900 0016 0022     		movs	r2, #0
 1901 0018 9420     		movs	r0, #148
 1902 001a 1521     		movs	r1, #21
 1903 001c FFF7FEFF 		bl	media_VideoFrame
 1904              		.loc 2 120 0
 1905 0020 0020     		movs	r0, #0
 1906 0022 4F21     		movs	r1, #79
 1907 0024 FFF7FEFF 		bl	media_SetSector
 1908              		.loc 2 121 0
 1909 0028 A820     		movs	r0, #168
 1910 002a CC21     		movs	r1, #204
 1911 002c FFF7FEFF 		bl	media_Image
 1912              		.loc 2 123 0
 1913 0030 0020     		movs	r0, #0
 1914 0032 44F27141 		movw	r1, #17521
 1915 0036 FFF7FEFF 		bl	media_SetSector
 1916              		.loc 2 124 0
 1917 003a 0022     		movs	r2, #0
 1918 003c F421     		movs	r1, #244
 1919 003e 40F23B10 		movw	r0, #315
 1920 0042 FFF7FEFF 		bl	media_VideoFrame
 1921              		.loc 2 125 0
 1922 0046 0020     		movs	r0, #0
 1923 0048 44F27141 		movw	r1, #17521
 1924 004c FFF7FEFF 		bl	media_SetSector
 1925              		.loc 2 126 0
 1926 0050 0022     		movs	r2, #0
 1927 0052 2821     		movs	r1, #40
 1928 0054 40F23B10 		movw	r0, #315
 1929 0058 FFF7FEFF 		bl	media_VideoFrame
 1930              		.loc 2 128 0
 1931 005c 0020     		movs	r0, #0
 1932 005e 44F29841 		movw	r1, #17560
ARM GAS  C:\Users\DNIEL~1\AppData\Local\Temp\cceiqNg0.s 			page 35


 1933 0062 FFF7FEFF 		bl	media_SetSector
 1934              		.loc 2 129 0
 1935 0066 BA20     		movs	r0, #186
 1936 0068 A721     		movs	r1, #167
 1937 006a 0022     		movs	r2, #0
 1938              		.loc 2 131 0
 1939 006c BDE81040 		pop	{r4, lr}
 1940              		.loc 2 129 0
 1941 0070 FFF7FEBF 		b	media_VideoFrame
 1942              		.cfi_endproc
 1943              	.LFE120:
 1944              		.size	dsp_LoadMidle, .-dsp_LoadMidle
 1945 0074 AFF30080 		.section	.text.dsp_LoadBottom,"ax",%progbits
 1945      AFF30080 
 1945      AFF30080 
 1946              		.align	2
 1947              		.p2align 4,,15
 1948              		.global	dsp_LoadBottom
 1949              		.thumb
 1950              		.thumb_func
 1951              		.type	dsp_LoadBottom, %function
 1952              	dsp_LoadBottom:
 1953              	.LFB121:
 1954              		.loc 2 132 0
 1955              		.cfi_startproc
 1956              		@ args = 0, pretend = 0, frame = 0
 1957              		@ frame_needed = 0, uses_anonymous_args = 0
 1958 0000 10B5     		push	{r4, lr}
 1959              	.LCFI7:
 1960              		.cfi_def_cfa_offset 8
 1961              		.loc 2 134 0
 1962 0002 4FF4B470 		mov	r0, #360
 1963              		.loc 2 132 0
 1964 0006 82B0     		sub	sp, sp, #8
 1965              	.LCFI8:
 1966              		.cfi_def_cfa_offset 16
 1967              		.loc 2 134 0
 1968 0008 4FF6FF74 		movw	r4, #65535
 1969              		.cfi_offset 14, -4
 1970              		.cfi_offset 4, -8
 1971 000c 0021     		movs	r1, #0
 1972 000e 0246     		mov	r2, r0
 1973 0010 4FF48873 		mov	r3, #272
 1974 0014 0094     		str	r4, [sp, #0]
 1975 0016 FFF7FEFF 		bl	draw_line
 1976              		.loc 2 135 0
 1977 001a 9120     		movs	r0, #145
 1978 001c 4FF48873 		mov	r3, #272
 1979 0020 0246     		mov	r2, r0
 1980 0022 0021     		movs	r1, #0
 1981 0024 0094     		str	r4, [sp, #0]
 1982 0026 FFF7FEFF 		bl	draw_line
 1983              		.loc 2 137 0
 1984 002a 0020     		movs	r0, #0
 1985 002c 2E21     		movs	r1, #46
 1986 002e FFF7FEFF 		bl	media_SetSector
 1987              		.loc 2 138 0
ARM GAS  C:\Users\DNIEL~1\AppData\Local\Temp\cceiqNg0.s 			page 36


 1988 0032 0022     		movs	r2, #0
 1989 0034 6C20     		movs	r0, #108
 1990 0036 0521     		movs	r1, #5
 1991 0038 FFF7FEFF 		bl	media_VideoFrame
 1992              		.loc 2 140 0
 1993 003c 0020     		movs	r0, #0
 1994 003e 2E21     		movs	r1, #46
 1995 0040 FFF7FEFF 		bl	media_SetSector
 1996              		.loc 2 141 0
 1997 0044 0122     		movs	r2, #1
 1998 0046 6C20     		movs	r0, #108
 1999 0048 8721     		movs	r1, #135
 2000 004a FFF7FEFF 		bl	media_VideoFrame
 2001              		.loc 2 143 0
 2002 004e 0020     		movs	r0, #0
 2003 0050 2E21     		movs	r1, #46
 2004 0052 FFF7FEFF 		bl	media_SetSector
 2005              		.loc 2 144 0
 2006 0056 0222     		movs	r2, #2
 2007 0058 4220     		movs	r0, #66
 2008 005a 8721     		movs	r1, #135
 2009 005c FFF7FEFF 		bl	media_VideoFrame
 2010              		.loc 2 146 0
 2011 0060 0020     		movs	r0, #0
 2012 0062 44F25751 		movw	r1, #17751
 2013 0066 FFF7FEFF 		bl	media_SetSector
 2014              		.loc 2 147 0
 2015 006a 4120     		movs	r0, #65
 2016 006c 0521     		movs	r1, #5
 2017 006e FFF7FEFF 		bl	media_Image
 2018              		.loc 2 149 0
 2019 0072 0020     		movs	r0, #0
 2020 0074 44F27E41 		movw	r1, #17534
 2021 0078 FFF7FEFF 		bl	media_SetSector
 2022              		.loc 2 150 0
 2023 007c 0022     		movs	r2, #0
 2024 007e 6C20     		movs	r0, #108
 2025 0080 4F21     		movs	r1, #79
 2026 0082 FFF7FEFF 		bl	media_VideoFrame
 2027              		.loc 2 151 0
 2028 0086 0020     		movs	r0, #0
 2029 0088 44F27E41 		movw	r1, #17534
 2030 008c FFF7FEFF 		bl	media_SetSector
 2031              		.loc 2 152 0
 2032 0090 0022     		movs	r2, #0
 2033 0092 6C20     		movs	r0, #108
 2034 0094 E421     		movs	r1, #228
 2035 0096 FFF7FEFF 		bl	media_VideoFrame
 2036              		.loc 2 153 0
 2037 009a 0020     		movs	r0, #0
 2038 009c 44F27E41 		movw	r1, #17534
 2039 00a0 FFF7FEFF 		bl	media_SetSector
 2040              		.loc 2 154 0
 2041 00a4 0022     		movs	r2, #0
 2042 00a6 4220     		movs	r0, #66
 2043 00a8 4F21     		movs	r1, #79
 2044 00aa FFF7FEFF 		bl	media_VideoFrame
ARM GAS  C:\Users\DNIEL~1\AppData\Local\Temp\cceiqNg0.s 			page 37


 2045              		.loc 2 155 0
 2046 00ae 0020     		movs	r0, #0
 2047 00b0 44F27E41 		movw	r1, #17534
 2048 00b4 FFF7FEFF 		bl	media_SetSector
 2049              		.loc 2 156 0
 2050 00b8 0022     		movs	r2, #0
 2051 00ba 4220     		movs	r0, #66
 2052 00bc E421     		movs	r1, #228
 2053 00be FFF7FEFF 		bl	media_VideoFrame
 2054              		.loc 2 158 0
 2055 00c2 0020     		movs	r0, #0
 2056 00c4 2821     		movs	r1, #40
 2057 00c6 FFF7FEFF 		bl	media_SetSector
 2058              		.loc 2 159 0
 2059 00ca 0222     		movs	r2, #2
 2060 00cc 6620     		movs	r0, #102
 2061 00ce 6921     		movs	r1, #105
 2062 00d0 FFF7FEFF 		bl	media_VideoFrame
 2063              		.loc 2 160 0
 2064 00d4 2821     		movs	r1, #40
 2065 00d6 0020     		movs	r0, #0
 2066 00d8 FFF7FEFF 		bl	media_SetSector
 2067              		.loc 2 161 0
 2068 00dc 0122     		movs	r2, #1
 2069 00de 4120     		movs	r0, #65
 2070 00e0 6921     		movs	r1, #105
 2071 00e2 FFF7FEFF 		bl	media_VideoFrame
 2072              		.loc 2 162 0
 2073 00e6 0020     		movs	r0, #0
 2074 00e8 2821     		movs	r1, #40
 2075 00ea FFF7FEFF 		bl	media_SetSector
 2076              		.loc 2 163 0
 2077 00ee 0022     		movs	r2, #0
 2078 00f0 6620     		movs	r0, #102
 2079 00f2 F921     		movs	r1, #249
 2080 00f4 FFF7FEFF 		bl	media_VideoFrame
 2081              		.loc 2 164 0
 2082 00f8 0020     		movs	r0, #0
 2083 00fa 2821     		movs	r1, #40
 2084 00fc FFF7FEFF 		bl	media_SetSector
 2085              		.loc 2 165 0
 2086 0100 0022     		movs	r2, #0
 2087 0102 4120     		movs	r0, #65
 2088 0104 F921     		movs	r1, #249
 2089 0106 FFF7FEFF 		bl	media_VideoFrame
 2090              		.loc 2 167 0
 2091 010a 0020     		movs	r0, #0
 2092 010c 41F61C11 		movw	r1, #6428
 2093 0110 FFF7FEFF 		bl	media_SetSector
 2094              		.loc 2 168 0
 2095 0114 0021     		movs	r1, #0
 2096 0116 0320     		movs	r0, #3
 2097 0118 0A46     		mov	r2, r1
 2098              		.loc 2 170 0
 2099 011a 02B0     		add	sp, sp, #8
 2100 011c BDE81040 		pop	{r4, lr}
 2101              		.loc 2 168 0
ARM GAS  C:\Users\DNIEL~1\AppData\Local\Temp\cceiqNg0.s 			page 38


 2102 0120 FFF7FEBF 		b	media_VideoFrame
 2103              		.cfi_endproc
 2104              	.LFE121:
 2105              		.size	dsp_LoadBottom, .-dsp_LoadBottom
 2106 0124 AFF30080 		.section	.text.dsp_RefreshMidle,"ax",%progbits
 2106      AFF30080 
 2106      AFF30080 
 2107              		.align	2
 2108              		.p2align 4,,15
 2109              		.global	dsp_RefreshMidle
 2110              		.thumb
 2111              		.thumb_func
 2112              		.type	dsp_RefreshMidle, %function
 2113              	dsp_RefreshMidle:
 2114              	.LFB122:
 2115              		.loc 2 172 0
 2116              		.cfi_startproc
 2117              		@ args = 0, pretend = 0, frame = 0
 2118              		@ frame_needed = 0, uses_anonymous_args = 0
 2119              	.LVL113:
 2120 0000 70B5     		push	{r4, r5, r6, lr}
 2121              	.LCFI9:
 2122              		.cfi_def_cfa_offset 16
 2123              		.loc 2 172 0
 2124 0002 0446     		mov	r4, r0
 2125              		.cfi_offset 14, -4
 2126              		.cfi_offset 6, -8
 2127              		.cfi_offset 5, -12
 2128              		.cfi_offset 4, -16
 2129              		.loc 2 174 0
 2130 0004 0120     		movs	r0, #1
 2131              	.LVL114:
 2132 0006 FFF7FEFF 		bl	gfx_Transparency
 2133              		.loc 2 175 0
 2134 000a 1F20     		movs	r0, #31
 2135 000c FFF7FEFF 		bl	gfx_TransparentColour
 2136              		.loc 2 176 0
 2137 0010 6F21     		movs	r1, #111
 2138 0012 0020     		movs	r0, #0
 2139 0014 FFF7FEFF 		bl	media_SetSector
 2140              		.loc 2 177 0
 2141 0018 3548     		ldr	r0, .L164
 2142 001a E517     		asrs	r5, r4, #31
 2143 001c 80FB0412 		smull	r1, r2, r0, r4
 2144 0020 C5EB6202 		rsb	r2, r5, r2, asr #1
 2145 0024 9420     		movs	r0, #148
 2146 0026 1521     		movs	r1, #21
 2147 0028 FFF7FEFF 		bl	media_VideoFrame
 2148              		.loc 2 179 0
 2149 002c 0020     		movs	r0, #0
 2150 002e 4F21     		movs	r1, #79
 2151 0030 FFF7FEFF 		bl	media_SetSector
 2152              		.loc 2 180 0
 2153 0034 A820     		movs	r0, #168
 2154 0036 CC21     		movs	r1, #204
 2155 0038 FFF7FEFF 		bl	media_Image
 2156              		.loc 2 182 0
ARM GAS  C:\Users\DNIEL~1\AppData\Local\Temp\cceiqNg0.s 			page 39


 2157 003c 0020     		movs	r0, #0
 2158 003e 44F27141 		movw	r1, #17521
 2159 0042 FFF7FEFF 		bl	media_SetSector
 2160              		.loc 2 183 0
 2161 0046 0022     		movs	r2, #0
 2162 0048 F421     		movs	r1, #244
 2163 004a 40F23B10 		movw	r0, #315
 2164 004e FFF7FEFF 		bl	media_VideoFrame
 2165              		.loc 2 184 0
 2166 0052 0020     		movs	r0, #0
 2167 0054 44F27141 		movw	r1, #17521
 2168 0058 FFF7FEFF 		bl	media_SetSector
 2169              		.loc 2 185 0
 2170 005c 2121     		movs	r1, #33
 2171 005e 0022     		movs	r2, #0
 2172 0060 40F23B10 		movw	r0, #315
 2173 0064 FFF7FEFF 		bl	media_VideoFrame
 2174              		.loc 2 187 0
 2175 0068 04F16303 		add	r3, r4, #99
 2176 006c C62B     		cmp	r3, #198
 2177 006e 2FD8     		bhi	.L163
 2178              		.loc 2 192 0
 2179 0070 0020     		movs	r0, #0
 2180 0072 44F29841 		movw	r1, #17560
 2181 0076 FFF7FEFF 		bl	media_SetSector
 2182              		.loc 2 193 0
 2183 007a BA20     		movs	r0, #186
 2184 007c 4321     		movs	r1, #67
 2185 007e 0A22     		movs	r2, #10
 2186 0080 FFF7FEFF 		bl	media_VideoFrame
 2187              	.L162:
 2188              		.loc 2 195 0
 2189 0084 0020     		movs	r0, #0
 2190 0086 44F29841 		movw	r1, #17560
 2191 008a FFF7FEFF 		bl	media_SetSector
 2192              		.loc 2 196 0
 2193 008e 184A     		ldr	r2, .L164
 2194 0090 82FB041C 		smull	r1, ip, r2, r4
 2195 0094 C5EBAC05 		rsb	r5, r5, ip, asr #2
 2196 0098 82FB0530 		smull	r3, r0, r2, r5
 2197 009c E917     		asrs	r1, r5, #31
 2198 009e C1EBA002 		rsb	r2, r1, r0, asr #2
 2199 00a2 02EB8203 		add	r3, r2, r2, lsl #2
 2200 00a6 A5EB4302 		sub	r2, r5, r3, lsl #1
 2201 00aa BA20     		movs	r0, #186
 2202 00ac 7521     		movs	r1, #117
 2203 00ae FFF7FEFF 		bl	media_VideoFrame
 2204              		.loc 2 197 0
 2205 00b2 0020     		movs	r0, #0
 2206 00b4 44F29841 		movw	r1, #17560
 2207 00b8 FFF7FEFF 		bl	media_SetSector
 2208              		.loc 2 198 0
 2209 00bc 05EB8505 		add	r5, r5, r5, lsl #2
 2210 00c0 BA20     		movs	r0, #186
 2211 00c2 A721     		movs	r1, #167
 2212 00c4 A4EB4502 		sub	r2, r4, r5, lsl #1
 2213              		.loc 2 199 0
ARM GAS  C:\Users\DNIEL~1\AppData\Local\Temp\cceiqNg0.s 			page 40


 2214 00c8 BDE87040 		pop	{r4, r5, r6, lr}
 2215              		.loc 2 198 0
 2216 00cc FFF7FEBF 		b	media_VideoFrame
 2217              	.L163:
 2218              		.loc 2 188 0
 2219 00d0 0020     		movs	r0, #0
 2220 00d2 44F29841 		movw	r1, #17560
 2221 00d6 FFF7FEFF 		bl	media_SetSector
 2222              		.loc 2 189 0
 2223 00da 0649     		ldr	r1, .L164+4
 2224 00dc 81FB043C 		smull	r3, ip, r1, r4
 2225 00e0 BA20     		movs	r0, #186
 2226 00e2 4321     		movs	r1, #67
 2227 00e4 C5EB6C12 		rsb	r2, r5, ip, asr #5
 2228 00e8 FFF7FEFF 		bl	media_VideoFrame
 2229 00ec CAE7     		b	.L162
 2230              	.L165:
 2231 00ee 00BF     		.align	2
 2232              	.L164:
 2233 00f0 67666666 		.word	1717986919
 2234 00f4 1F85EB51 		.word	1374389535
 2235              		.cfi_endproc
 2236              	.LFE122:
 2237              		.size	dsp_RefreshMidle, .-dsp_RefreshMidle
 2238 00f8 AFF30080 		.section	.text.dspInit,"ax",%progbits
 2238      AFF30080 
 2239              		.align	2
 2240              		.p2align 4,,15
 2241              		.global	dspInit
 2242              		.thumb
 2243              		.thumb_func
 2244              		.type	dspInit, %function
 2245              	dspInit:
 2246              	.LFB124:
 2247              		.loc 2 843 0
 2248              		.cfi_startproc
 2249              		@ args = 0, pretend = 0, frame = 0
 2250              		@ frame_needed = 0, uses_anonymous_args = 0
 2251 0000 30B5     		push	{r4, r5, lr}
 2252              	.LCFI10:
 2253              		.cfi_def_cfa_offset 12
 2254              		.loc 2 851 0
 2255 0002 104D     		ldr	r5, .L167
 2256              		.cfi_offset 14, -4
 2257              		.cfi_offset 5, -8
 2258              		.cfi_offset 4, -12
 2259              		.loc 2 843 0
 2260 0004 83B0     		sub	sp, sp, #12
 2261              	.LCFI11:
 2262              		.cfi_def_cfa_offset 24
 2263              		.loc 2 851 0
 2264 0006 0024     		movs	r4, #0
 2265              		.loc 2 845 0
 2266 0008 FFF7FEFF 		bl	gfx_Cls
 2267              		.loc 2 846 0
 2268 000c FFF7FEFF 		bl	file_Mount
 2269              		.loc 2 847 0
ARM GAS  C:\Users\DNIEL~1\AppData\Local\Temp\cceiqNg0.s 			page 41


 2270 0010 FFF7FEFF 		bl	dsp_LoadTop
 2271              		.loc 2 848 0
 2272 0014 FFF7FEFF 		bl	dsp_LoadMidle
 2273              		.loc 2 849 0
 2274 0018 FFF7FEFF 		bl	dsp_LoadBottom
 2275              		.loc 2 850 0
 2276 001c FFF7FEFF 		bl	bus_In
 2277              		.loc 2 851 0
 2278 0020 2C70     		strb	r4, [r5, #0]
 2279              		.loc 2 852 0
 2280 0022 094D     		ldr	r5, .L167+4
 2281              		.loc 2 855 0
 2282 0024 094B     		ldr	r3, .L167+8
 2283              		.loc 2 852 0
 2284 0026 2C70     		strb	r4, [r5, #0]
 2285              		.loc 2 853 0
 2286 0028 094D     		ldr	r5, .L167+12
 2287              		.loc 2 855 0
 2288 002a 0A48     		ldr	r0, .L167+16
 2289              		.loc 2 853 0
 2290 002c 2C70     		strb	r4, [r5, #0]
 2291              		.loc 2 854 0
 2292 002e 0A4D     		ldr	r5, .L167+20
 2293              		.loc 2 855 0
 2294 0030 4FF49A61 		mov	r1, #1232
 2295              		.loc 2 854 0
 2296 0034 2C60     		str	r4, [r5, #0]
 2297              		.loc 2 855 0
 2298 0036 4722     		movs	r2, #71
 2299 0038 0094     		str	r4, [sp, #0]
 2300 003a FFF7FEFF 		bl	chThdCreateStatic
 2301              		.loc 2 856 0
 2302 003e 03B0     		add	sp, sp, #12
 2303 0040 30BD     		pop	{r4, r5, pc}
 2304              	.L168:
 2305 0042 00BF     		.align	2
 2306              	.L167:
 2307 0044 00000000 		.word	.LANCHOR5
 2308 0048 00000000 		.word	.LANCHOR6
 2309 004c 00000000 		.word	dspTask
 2310 0050 00000000 		.word	.LANCHOR3
 2311 0054 00000000 		.word	.LANCHOR12
 2312 0058 00000000 		.word	.LANCHOR0
 2313              		.cfi_endproc
 2314              	.LFE124:
 2315              		.size	dspInit, .-dspInit
 2316 005c AFF30080 		.section	.text.dspGetItem,"ax",%progbits
 2317              		.align	2
 2318              		.p2align 4,,15
 2319              		.global	dspGetItem
 2320              		.thumb
 2321              		.thumb_func
 2322              		.type	dspGetItem, %function
 2323              	dspGetItem:
 2324              	.LFB125:
 2325              		.loc 2 858 0
 2326              		.cfi_startproc
ARM GAS  C:\Users\DNIEL~1\AppData\Local\Temp\cceiqNg0.s 			page 42


 2327              		@ args = 0, pretend = 0, frame = 0
 2328              		@ frame_needed = 0, uses_anonymous_args = 0
 2329              		@ link register save eliminated.
 2330              	.LVL115:
 2331              		.loc 2 859 0
 2332 0000 18B1     		cbz	r0, .L170
 2333 0002 0828     		cmp	r0, #8
 2334 0004 28BF     		it	cs
 2335 0006 0820     		movcs	r0, #8
 2336              	.LVL116:
 2337 0008 0138     		subs	r0, r0, #1
 2338              	.L170:
 2339              		.loc 2 861 0 discriminator 3
 2340 000a 014B     		ldr	r3, .L172
 2341              		.loc 2 862 0 discriminator 3
 2342 000c 185C     		ldrb	r0, [r3, r0]	@ zero_extendqisi2
 2343 000e 7047     		bx	lr
 2344              	.L173:
 2345              		.align	2
 2346              	.L172:
 2347 0010 00000000 		.word	.LANCHOR13
 2348              		.cfi_endproc
 2349              	.LFE125:
 2350              		.size	dspGetItem, .-dspGetItem
 2351 0014 AFF30080 		.section	.text.dspGetValue,"ax",%progbits
 2351      AFF30080 
 2351      AFF30080 
 2352              		.align	2
 2353              		.p2align 4,,15
 2354              		.global	dspGetValue
 2355              		.thumb
 2356              		.thumb_func
 2357              		.type	dspGetValue, %function
 2358              	dspGetValue:
 2359              	.LFB126:
 2360              		.loc 2 864 0
 2361              		.cfi_startproc
 2362              		@ args = 0, pretend = 0, frame = 0
 2363              		@ frame_needed = 0, uses_anonymous_args = 0
 2364              		@ link register save eliminated.
 2365              		.loc 2 865 0
 2366 0000 014B     		ldr	r3, .L175
 2367              		.loc 2 866 0
 2368 0002 1878     		ldrb	r0, [r3, #0]	@ zero_extendqisi2
 2369 0004 7047     		bx	lr
 2370              	.L176:
 2371 0006 00BF     		.align	2
 2372              	.L175:
 2373 0008 00000000 		.word	.LANCHOR1
 2374              		.cfi_endproc
 2375              	.LFE126:
 2376              		.size	dspGetValue, .-dspGetValue
 2377 000c AFF30080 		.section	.text.dsp_active,"ax",%progbits
 2378              		.align	2
 2379              		.p2align 4,,15
 2380              		.global	dsp_active
 2381              		.thumb
ARM GAS  C:\Users\DNIEL~1\AppData\Local\Temp\cceiqNg0.s 			page 43


 2382              		.thumb_func
 2383              		.type	dsp_active, %function
 2384              	dsp_active:
 2385              	.LFB127:
 2386              		.loc 2 868 0
 2387              		.cfi_startproc
 2388              		@ args = 0, pretend = 0, frame = 0
 2389              		@ frame_needed = 0, uses_anonymous_args = 0
 2390              		@ link register save eliminated.
 2391              		.loc 2 868 0
 2392 0000 014B     		ldr	r3, .L178
 2393              		.loc 2 870 0
 2394 0002 1878     		ldrb	r0, [r3, #0]	@ zero_extendqisi2
 2395 0004 7047     		bx	lr
 2396              	.L179:
 2397 0006 00BF     		.align	2
 2398              	.L178:
 2399 0008 00000000 		.word	.LANCHOR5
 2400              		.cfi_endproc
 2401              	.LFE127:
 2402              		.size	dsp_active, .-dsp_active
 2403 000c AFF30080 		.section	.text.cmd_dspvalues,"ax",%progbits
 2404              		.align	2
 2405              		.p2align 4,,15
 2406              		.global	cmd_dspvalues
 2407              		.thumb
 2408              		.thumb_func
 2409              		.type	cmd_dspvalues, %function
 2410              	cmd_dspvalues:
 2411              	.LFB128:
 2412              		.loc 2 872 0
 2413              		.cfi_startproc
 2414              		@ args = 0, pretend = 0, frame = 0
 2415              		@ frame_needed = 0, uses_anonymous_args = 0
 2416              	.LVL117:
 2417 0000 2DE9F041 		push	{r4, r5, r6, r7, r8, lr}
 2418              	.LCFI12:
 2419              		.cfi_def_cfa_offset 24
 2420              		.loc 2 877 0
 2421 0004 4D49     		ldr	r1, .L191
 2422              	.LVL118:
 2423              		.loc 2 881 0
 2424 0006 DFF88081 		ldr	r8, .L191+76
 2425              		.cfi_offset 14, -4
 2426              		.cfi_offset 8, -8
 2427              		.cfi_offset 7, -12
 2428              		.cfi_offset 6, -16
 2429              		.cfi_offset 5, -20
 2430              		.cfi_offset 4, -24
 2431              		.loc 2 872 0
 2432 000a 4D4E     		ldr	r6, .L191+4
 2433 000c 0546     		mov	r5, r0
 2434              		.loc 2 877 0
 2435 000e FFF7FEFF 		bl	chprintf
 2436              	.LVL119:
 2437              		.loc 2 878 0
 2438 0012 2846     		mov	r0, r5
ARM GAS  C:\Users\DNIEL~1\AppData\Local\Temp\cceiqNg0.s 			page 44


 2439 0014 4B49     		ldr	r1, .L191+8
 2440 0016 FFF7FEFF 		bl	chprintf
 2441              		.loc 2 879 0
 2442 001a 2968     		ldr	r1, [r5, #0]
 2443 001c 2846     		mov	r0, r5
 2444 001e 4B69     		ldr	r3, [r1, #20]
 2445 0020 0021     		movs	r1, #0
 2446 0022 9847     		blx	r3
 2447 0024 B0F1FF3F 		cmp	r0, #-1
 2448 0028 40F08580 		bne	.L190
 2449              	.L183:
 2450              		.loc 2 880 0
 2451 002c 0022     		movs	r2, #0
 2452 002e 1346     		mov	r3, r2
 2453 0030 4549     		ldr	r1, .L191+12
 2454              		.loc 2 885 0
 2455 0032 464F     		ldr	r7, .L191+16
 2456              		.loc 2 872 0
 2457 0034 464C     		ldr	r4, .L191+20
 2458              		.loc 2 880 0
 2459 0036 2846     		mov	r0, r5
 2460 0038 FFF7FEFF 		bl	chprintf
 2461              		.loc 2 881 0
 2462 003c 98F80020 		ldrb	r2, [r8, #0]	@ zero_extendqisi2
 2463 0040 4449     		ldr	r1, .L191+24
 2464 0042 2846     		mov	r0, r5
 2465 0044 FFF7FEFF 		bl	chprintf
 2466              		.loc 2 882 0
 2467 0048 2846     		mov	r0, r5
 2468 004a 4349     		ldr	r1, .L191+28
 2469 004c FFF7FEFF 		bl	chprintf
 2470              	.LVL120:
 2471              		.loc 2 885 0
 2472 0050 4249     		ldr	r1, .L191+32
 2473 0052 3A78     		ldrb	r2, [r7, #0]	@ zero_extendqisi2
 2474 0054 2846     		mov	r0, r5
 2475 0056 FFF7FEFF 		bl	chprintf
 2476              	.LVL121:
 2477 005a 2846     		mov	r0, r5
 2478 005c 3F49     		ldr	r1, .L191+32
 2479 005e 7A78     		ldrb	r2, [r7, #1]	@ zero_extendqisi2
 2480 0060 FFF7FEFF 		bl	chprintf
 2481              	.LVL122:
 2482 0064 2846     		mov	r0, r5
 2483 0066 3D49     		ldr	r1, .L191+32
 2484 0068 BA78     		ldrb	r2, [r7, #2]	@ zero_extendqisi2
 2485 006a FFF7FEFF 		bl	chprintf
 2486              	.LVL123:
 2487 006e 2846     		mov	r0, r5
 2488 0070 3A49     		ldr	r1, .L191+32
 2489 0072 FA78     		ldrb	r2, [r7, #3]	@ zero_extendqisi2
 2490 0074 FFF7FEFF 		bl	chprintf
 2491              	.LVL124:
 2492 0078 2846     		mov	r0, r5
 2493 007a 3849     		ldr	r1, .L191+32
 2494 007c 3A79     		ldrb	r2, [r7, #4]	@ zero_extendqisi2
 2495 007e FFF7FEFF 		bl	chprintf
ARM GAS  C:\Users\DNIEL~1\AppData\Local\Temp\cceiqNg0.s 			page 45


 2496              	.LVL125:
 2497 0082 2846     		mov	r0, r5
 2498 0084 3549     		ldr	r1, .L191+32
 2499 0086 7A79     		ldrb	r2, [r7, #5]	@ zero_extendqisi2
 2500 0088 FFF7FEFF 		bl	chprintf
 2501              	.LVL126:
 2502 008c 2846     		mov	r0, r5
 2503 008e 3349     		ldr	r1, .L191+32
 2504 0090 BA79     		ldrb	r2, [r7, #6]	@ zero_extendqisi2
 2505 0092 FFF7FEFF 		bl	chprintf
 2506              	.LVL127:
 2507 0096 FA79     		ldrb	r2, [r7, #7]	@ zero_extendqisi2
 2508 0098 3049     		ldr	r1, .L191+32
 2509 009a 2846     		mov	r0, r5
 2510 009c FFF7FEFF 		bl	chprintf
 2511              	.LVL128:
 2512              		.loc 2 887 0
 2513 00a0 2846     		mov	r0, r5
 2514 00a2 2F49     		ldr	r1, .L191+36
 2515 00a4 FFF7FEFF 		bl	chprintf
 2516              		.loc 2 888 0
 2517 00a8 2846     		mov	r0, r5
 2518 00aa 2E49     		ldr	r1, .L191+40
 2519 00ac FFF7FEFF 		bl	chprintf
 2520              	.LVL129:
 2521              		.loc 2 891 0
 2522 00b0 2A49     		ldr	r1, .L191+32
 2523 00b2 2268     		ldr	r2, [r4, #0]
 2524 00b4 2846     		mov	r0, r5
 2525 00b6 FFF7FEFF 		bl	chprintf
 2526              	.LVL130:
 2527 00ba 2846     		mov	r0, r5
 2528 00bc 2749     		ldr	r1, .L191+32
 2529 00be 54F8042F 		ldr	r2, [r4, #4]!
 2530 00c2 FFF7FEFF 		bl	chprintf
 2531              	.L182:
 2532              		.loc 2 872 0 discriminator 2
 2533 00c6 271D     		adds	r7, r4, #4
 2534              		.loc 2 891 0 discriminator 2
 2535 00c8 6268     		ldr	r2, [r4, #4]
 2536 00ca 2449     		ldr	r1, .L191+32
 2537 00cc 2846     		mov	r0, r5
 2538 00ce FFF7FEFF 		bl	chprintf
 2539              		.loc 2 872 0 discriminator 2
 2540 00d2 0834     		adds	r4, r4, #8
 2541              		.loc 2 891 0 discriminator 2
 2542 00d4 2846     		mov	r0, r5
 2543 00d6 2149     		ldr	r1, .L191+32
 2544 00d8 7A68     		ldr	r2, [r7, #4]
 2545 00da FFF7FEFF 		bl	chprintf
 2546              		.loc 2 889 0 discriminator 2
 2547 00de B442     		cmp	r4, r6
 2548 00e0 F1D1     		bne	.L182
 2549              		.loc 2 893 0
 2550 00e2 2846     		mov	r0, r5
 2551 00e4 1E49     		ldr	r1, .L191+36
 2552 00e6 FFF7FEFF 		bl	chprintf
ARM GAS  C:\Users\DNIEL~1\AppData\Local\Temp\cceiqNg0.s 			page 46


 2553              		.loc 2 894 0
 2554 00ea 1F4A     		ldr	r2, .L191+44
 2555 00ec 1F49     		ldr	r1, .L191+48
 2556 00ee 1278     		ldrb	r2, [r2, #0]	@ zero_extendqisi2
 2557 00f0 2846     		mov	r0, r5
 2558 00f2 FFF7FEFF 		bl	chprintf
 2559              		.loc 2 895 0
 2560 00f6 1E4B     		ldr	r3, .L191+52
 2561 00f8 1E49     		ldr	r1, .L191+56
 2562 00fa 1A68     		ldr	r2, [r3, #0]
 2563 00fc 2846     		mov	r0, r5
 2564 00fe FFF7FEFF 		bl	chprintf
 2565              		.loc 2 896 0
 2566 0102 1D48     		ldr	r0, .L191+60
 2567 0104 1D49     		ldr	r1, .L191+64
 2568 0106 0269     		ldr	r2, [r0, #16]
 2569 0108 2846     		mov	r0, r5
 2570 010a C2F34002 		ubfx	r2, r2, #1, #1
 2571 010e FFF7FEFF 		bl	chprintf
 2572              		.loc 2 897 0
 2573 0112 1B4B     		ldr	r3, .L191+68
 2574 0114 1B49     		ldr	r1, .L191+72
 2575 0116 1A78     		ldrb	r2, [r3, #0]	@ zero_extendqisi2
 2576 0118 2846     		mov	r0, r5
 2577 011a FFF7FEFF 		bl	chprintf
 2578              		.loc 2 899 0
 2579 011e 9620     		movs	r0, #150
 2580 0120 FFF7FEFF 		bl	chThdSleep
 2581              		.loc 2 879 0
 2582 0124 2968     		ldr	r1, [r5, #0]
 2583 0126 2846     		mov	r0, r5
 2584 0128 4B69     		ldr	r3, [r1, #20]
 2585 012a 0021     		movs	r1, #0
 2586 012c 9847     		blx	r3
 2587 012e B0F1FF3F 		cmp	r0, #-1
 2588 0132 3FF47BAF 		beq	.L183
 2589              	.L190:
 2590              		.loc 2 901 0
 2591 0136 BDE8F081 		pop	{r4, r5, r6, r7, r8, pc}
 2592              	.L192:
 2593 013a 00BF     		.align	2
 2594              	.L191:
 2595 013c 08000000 		.word	.LC1
 2596 0140 7C000000 		.word	.LANCHOR7+124
 2597 0144 0C000000 		.word	.LC2
 2598 0148 14000000 		.word	.LC3
 2599 014c 00000000 		.word	.LANCHOR13
 2600 0150 00000000 		.word	.LANCHOR7
 2601 0154 20000000 		.word	.LC4
 2602 0158 34000000 		.word	.LC5
 2603 015c 40000000 		.word	.LC6
 2604 0160 44000000 		.word	.LC7
 2605 0164 48000000 		.word	.LC8
 2606 0168 00000000 		.word	.LANCHOR6
 2607 016c 58000000 		.word	.LC9
 2608 0170 00000000 		.word	.LANCHOR0
 2609 0174 6C000000 		.word	.LC10
ARM GAS  C:\Users\DNIEL~1\AppData\Local\Temp\cceiqNg0.s 			page 47


 2610 0178 00040240 		.word	1073873920
 2611 017c 7C000000 		.word	.LC11
 2612 0180 00000000 		.word	.LANCHOR4
 2613 0184 88000000 		.word	.LC12
 2614 0188 00000000 		.word	.LANCHOR1
 2615              		.cfi_endproc
 2616              	.LFE128:
 2617              		.size	cmd_dspvalues, .-cmd_dspvalues
 2618 018c AFF30080 		.section	.text.cmdfrappans_dspmessages,"ax",%progbits
 2619              		.align	2
 2620              		.p2align 4,,15
 2621              		.global	cmdfrappans_dspmessages
 2622              		.thumb
 2623              		.thumb_func
 2624              		.type	cmdfrappans_dspmessages, %function
 2625              	cmdfrappans_dspmessages:
 2626              	.LFB129:
 2627              		.loc 2 903 0
 2628              		.cfi_startproc
 2629              		@ args = 0, pretend = 0, frame = 0
 2630              		@ frame_needed = 0, uses_anonymous_args = 0
 2631              	.LVL131:
 2632 0000 70B5     		push	{r4, r5, r6, lr}
 2633              	.LCFI13:
 2634              		.cfi_def_cfa_offset 16
 2635              		.loc 2 903 0
 2636 0002 0446     		mov	r4, r0
 2637              		.cfi_offset 14, -4
 2638              		.cfi_offset 6, -8
 2639              		.cfi_offset 5, -12
 2640              		.cfi_offset 4, -16
 2641 0004 0D46     		mov	r5, r1
 2642              		.loc 2 907 0
 2643 0006 4149     		ldr	r1, .L205
 2644              	.LVL132:
 2645              		.loc 2 903 0
 2646 0008 1646     		mov	r6, r2
 2647              		.loc 2 907 0
 2648 000a FFF7FEFF 		bl	chprintf
 2649              	.LVL133:
 2650              		.loc 2 908 0
 2651 000e 2046     		mov	r0, r4
 2652 0010 3F49     		ldr	r1, .L205+4
 2653 0012 FFF7FEFF 		bl	chprintf
 2654              		.loc 2 909 0
 2655 0016 2168     		ldr	r1, [r4, #0]
 2656 0018 2046     		mov	r0, r4
 2657 001a 4B69     		ldr	r3, [r1, #20]
 2658 001c 0021     		movs	r1, #0
 2659 001e 9847     		blx	r3
 2660 0020 B0F1FF3F 		cmp	r0, #-1
 2661 0024 11D0     		beq	.L200
 2662              	.LVL134:
 2663              	.L194:
 2664              		.loc 2 954 0
 2665 0026 2046     		mov	r0, r4
 2666 0028 3A49     		ldr	r1, .L205+8
ARM GAS  C:\Users\DNIEL~1\AppData\Local\Temp\cceiqNg0.s 			page 48


 2667 002a FFF7FEFF 		bl	chprintf
 2668              		.loc 2 955 0
 2669 002e 2046     		mov	r0, r4
 2670 0030 3949     		ldr	r1, .L205+12
 2671 0032 FFF7FEFF 		bl	chprintf
 2672              		.loc 2 956 0
 2673 0036 2046     		mov	r0, r4
 2674 0038 3849     		ldr	r1, .L205+16
 2675 003a FFF7FEFF 		bl	chprintf
 2676              		.loc 2 957 0
 2677 003e 3849     		ldr	r1, .L205+20
 2678 0040 2046     		mov	r0, r4
 2679              		.loc 2 961 0
 2680 0042 BDE87040 		pop	{r4, r5, r6, lr}
 2681              		.loc 2 957 0
 2682 0046 FFF7FEBF 		b	chprintf
 2683              	.LVL135:
 2684              	.L200:
 2685              	.LBB15:
 2686              		.loc 2 910 0
 2687 004a 0022     		movs	r2, #0
 2688 004c 2046     		mov	r0, r4
 2689 004e 3549     		ldr	r1, .L205+24
 2690 0050 1346     		mov	r3, r2
 2691 0052 FFF7FEFF 		bl	chprintf
 2692              		.loc 2 912 0
 2693 0056 012D     		cmp	r5, #1
 2694 0058 11D0     		beq	.L201
 2695              		.loc 2 942 0
 2696 005a 022D     		cmp	r5, #2
 2697 005c E3D1     		bne	.L194
 2698              		.loc 2 942 0 is_stmt 0 discriminator 1
 2699 005e 3068     		ldr	r0, [r6, #0]
 2700 0060 3149     		ldr	r1, .L205+28
 2701 0062 FFF7FEFF 		bl	strcmp
 2702 0066 0028     		cmp	r0, #0
 2703 0068 DDD1     		bne	.L194
 2704              	.LBB16:
 2705              		.loc 2 944 0 is_stmt 1
 2706 006a 2046     		mov	r0, r4
 2707 006c 2F49     		ldr	r1, .L205+32
 2708 006e FFF7FEFF 		bl	chprintf
 2709              		.loc 2 945 0
 2710 0072 7068     		ldr	r0, [r6, #4]
 2711 0074 FFF7FEFF 		bl	atol
 2712 0078 2D4A     		ldr	r2, .L205+36
 2713 007a 1060     		str	r0, [r2, #0]
 2714              	.LBE16:
 2715              	.LBE15:
 2716              		.loc 2 961 0
 2717 007c 70BD     		pop	{r4, r5, r6, pc}
 2718              	.L201:
 2719              	.LBB17:
 2720              		.loc 2 912 0 discriminator 1
 2721 007e 3568     		ldr	r5, [r6, #0]
 2722              	.LVL136:
 2723 0080 2C49     		ldr	r1, .L205+40
ARM GAS  C:\Users\DNIEL~1\AppData\Local\Temp\cceiqNg0.s 			page 49


 2724 0082 2846     		mov	r0, r5
 2725 0084 FFF7FEFF 		bl	strcmp
 2726 0088 0028     		cmp	r0, #0
 2727 008a 1DD0     		beq	.L202
 2728              		.loc 2 919 0 discriminator 1
 2729 008c 2846     		mov	r0, r5
 2730 008e 2A49     		ldr	r1, .L205+44
 2731 0090 FFF7FEFF 		bl	strcmp
 2732 0094 0646     		mov	r6, r0
 2733              	.LVL137:
 2734 0096 0028     		cmp	r0, #0
 2735 0098 1ED0     		beq	.L203
 2736              		.loc 2 927 0 discriminator 1
 2737 009a 2846     		mov	r0, r5
 2738 009c 2749     		ldr	r1, .L205+48
 2739 009e FFF7FEFF 		bl	strcmp
 2740 00a2 0646     		mov	r6, r0
 2741 00a4 0028     		cmp	r0, #0
 2742 00a6 22D0     		beq	.L204
 2743              		.loc 2 936 0 discriminator 1
 2744 00a8 2846     		mov	r0, r5
 2745 00aa 2549     		ldr	r1, .L205+52
 2746 00ac FFF7FEFF 		bl	strcmp
 2747 00b0 0028     		cmp	r0, #0
 2748 00b2 B8D1     		bne	.L194
 2749              		.loc 2 938 0
 2750 00b4 2046     		mov	r0, r4
 2751 00b6 1D49     		ldr	r1, .L205+32
 2752 00b8 FFF7FEFF 		bl	chprintf
 2753              		.loc 2 939 0
 2754 00bc 4FF47840 		mov	r0, #63488
 2755              	.LBE17:
 2756              		.loc 2 961 0
 2757 00c0 BDE87040 		pop	{r4, r5, r6, lr}
 2758              	.LBB18:
 2759              		.loc 2 939 0
 2760 00c4 FFF7FEBF 		b	gfx_BGcolour
 2761              	.LVL138:
 2762              	.L202:
 2763              		.loc 2 914 0
 2764 00c8 2046     		mov	r0, r4
 2765 00ca 1E49     		ldr	r1, .L205+56
 2766 00cc FFF7FEFF 		bl	chprintf
 2767              	.LBE18:
 2768              		.loc 2 961 0
 2769 00d0 BDE87040 		pop	{r4, r5, r6, lr}
 2770              	.LBB19:
 2771              		.loc 2 915 0
 2772 00d4 FFF7FEBF 		b	gfx_Cls
 2773              	.LVL139:
 2774              	.L203:
 2775              		.loc 2 921 0
 2776 00d8 2046     		mov	r0, r4
 2777 00da 1B49     		ldr	r1, .L205+60
 2778 00dc FFF7FEFF 		bl	chprintf
 2779              		.loc 2 922 0
 2780 00e0 3046     		mov	r0, r6
ARM GAS  C:\Users\DNIEL~1\AppData\Local\Temp\cceiqNg0.s 			page 50


 2781 00e2 41F6C111 		movw	r1, #6593
 2782              	.LBE19:
 2783              		.loc 2 961 0
 2784 00e6 BDE87040 		pop	{r4, r5, r6, lr}
 2785              	.LBB20:
 2786              		.loc 2 922 0
 2787 00ea FFF7FEBF 		b	media_SetSector
 2788              	.L204:
 2789              		.loc 2 929 0
 2790 00ee 2046     		mov	r0, r4
 2791 00f0 1649     		ldr	r1, .L205+64
 2792 00f2 FFF7FEFF 		bl	chprintf
 2793              		.loc 2 931 0
 2794 00f6 3046     		mov	r0, r6
 2795 00f8 41F6C111 		movw	r1, #6593
 2796 00fc FFF7FEFF 		bl	media_SetSector
 2797              		.loc 2 932 0
 2798 0100 3046     		mov	r0, r6
 2799 0102 3146     		mov	r1, r6
 2800              	.LBE20:
 2801              		.loc 2 961 0
 2802 0104 BDE87040 		pop	{r4, r5, r6, lr}
 2803              	.LBB21:
 2804              		.loc 2 932 0
 2805 0108 FFF7FEBF 		b	media_Image
 2806              	.L206:
 2807              		.align	2
 2808              	.L205:
 2809 010c 08000000 		.word	.LC1
 2810 0110 0C000000 		.word	.LC2
 2811 0114 74010000 		.word	.LC22
 2812 0118 84010000 		.word	.LC23
 2813 011c 94010000 		.word	.LC24
 2814 0120 A4010000 		.word	.LC25
 2815 0124 14000000 		.word	.LC3
 2816 0128 6C010000 		.word	.LC21
 2817 012c 40010000 		.word	.LC20
 2818 0130 00000000 		.word	.LANCHOR14
 2819 0134 98000000 		.word	.LC13
 2820 0138 CC000000 		.word	.LC15
 2821 013c 00010000 		.word	.LC17
 2822 0140 34010000 		.word	.LC19
 2823 0144 A0000000 		.word	.LC14
 2824 0148 D4000000 		.word	.LC16
 2825 014c 08010000 		.word	.LC18
 2826              	.LBE21:
 2827              		.cfi_endproc
 2828              	.LFE129:
 2829              		.size	cmdfrappans_dspmessages, .-cmdfrappans_dspmessages
 2830              		.global	db
 2831              		.global	db2
 2832              		.global	cruise_assis
 2833              		.global	dspstate
 2834              		.global	dspmessages
 2835              		.global	dsp_activ
 2836              		.global	c
 2837              		.section	.bss.bus_num,"aw",%nobits
ARM GAS  C:\Users\DNIEL~1\AppData\Local\Temp\cceiqNg0.s 			page 51


 2838              		.align	2
 2839              		.set	.LANCHOR0,. + 0
 2840              		.type	bus_num, %object
 2841              		.size	bus_num, 4
 2842              	bus_num:
 2843 0000 00000000 		.space	4
 2844              		.section	.bss.danger,"aw",%nobits
 2845              		.align	1
 2846              		.set	.LANCHOR11,. + 0
 2847              		.type	danger, %object
 2848              		.size	danger, 2
 2849              	danger:
 2850 0000 0000     		.space	2
 2851              		.section	.bss.cruise_assis,"aw",%nobits
 2852              		.type	cruise_assis, %object
 2853              		.size	cruise_assis, 1
 2854              	cruise_assis:
 2855 0000 00       		.space	1
 2856              		.section	.bss.valasz,"aw",%nobits
 2857              		.set	.LANCHOR4,. + 0
 2858              		.type	valasz, %object
 2859              		.size	valasz, 1
 2860              	valasz:
 2861 0000 00       		.space	1
 2862              		.section	.bss.over_charge,"aw",%nobits
 2863              		.align	1
 2864              		.set	.LANCHOR8,. + 0
 2865              		.type	over_charge, %object
 2866              		.size	over_charge, 2
 2867              	over_charge:
 2868 0000 0000     		.space	2
 2869              		.section	.bss.discharge,"aw",%nobits
 2870              		.align	1
 2871              		.set	.LANCHOR9,. + 0
 2872              		.type	discharge, %object
 2873              		.size	discharge, 2
 2874              	discharge:
 2875 0000 0000     		.space	2
 2876              		.section	.bss.tasknumber,"aw",%nobits
 2877              		.align	2
 2878              		.set	.LANCHOR2,. + 0
 2879              		.type	tasknumber, %object
 2880              		.size	tasknumber, 4
 2881              	tasknumber:
 2882 0000 00000000 		.space	4
 2883              		.section	.bss.bus_status,"aw",%nobits
 2884              		.set	.LANCHOR1,. + 0
 2885              		.type	bus_status, %object
 2886              		.size	bus_status, 1
 2887              	bus_status:
 2888 0000 00       		.space	1
 2889              		.section	.bss.c,"aw",%nobits
 2890              		.type	c, %object
 2891              		.size	c, 1
 2892              	c:
 2893 0000 00       		.space	1
 2894              		.section	.bss.dsp_activ,"aw",%nobits
ARM GAS  C:\Users\DNIEL~1\AppData\Local\Temp\cceiqNg0.s 			page 52


 2895              		.set	.LANCHOR5,. + 0
 2896              		.type	dsp_activ, %object
 2897              		.size	dsp_activ, 1
 2898              	dsp_activ:
 2899 0000 00       		.space	1
 2900              		.section	.bss.motor_temp,"aw",%nobits
 2901              		.align	1
 2902              		.set	.LANCHOR10,. + 0
 2903              		.type	motor_temp, %object
 2904              		.size	motor_temp, 2
 2905              	motor_temp:
 2906 0000 0000     		.space	2
 2907              		.section	.bss.wadspTask,"aw",%nobits
 2908              		.align	3
 2909              		.set	.LANCHOR12,. + 0
 2910              		.type	wadspTask, %object
 2911              		.size	wadspTask, 1232
 2912              	wadspTask:
 2913 0000 00000000 		.space	1232
 2913      00000000 
 2913      00000000 
 2913      00000000 
 2913      00000000 
 2914              		.section	.rodata.str1.4,"aMS",%progbits,1
 2915              		.align	2
 2916              	.LC0:
 2917 0000 64737054 		.ascii	"dspTask\000"
 2917      61736B00 
 2918              	.LC1:
 2919 0008 1B6300   		.ascii	"\033c\000"
 2920 000b 00       		.space	1
 2921              	.LC2:
 2922 000c 1B5B324A 		.ascii	"\033[2J\000"
 2922      00
 2923 0011 000000   		.space	3
 2924              	.LC3:
 2925 0014 1B5B2564 		.ascii	"\033[%d;%dH\000"
 2925      3B256448 
 2925      00
 2926 001d 000000   		.space	3
 2927              	.LC4:
 2928 0020 6275735F 		.ascii	"bus_status: %x\015\012\000"
 2928      73746174 
 2928      75733A20 
 2928      25780D0A 
 2928      00
 2929 0031 000000   		.space	3
 2930              	.LC5:
 2931 0034 6275735F 		.ascii	"bus_bit[]: \000"
 2931      6269745B 
 2931      5D3A2000 
 2932              	.LC6:
 2933 0040 25642000 		.ascii	"%d \000"
 2934              	.LC7:
 2935 0044 0D0A00   		.ascii	"\015\012\000"
 2936 0047 00       		.space	1
 2937              	.LC8:
ARM GAS  C:\Users\DNIEL~1\AppData\Local\Temp\cceiqNg0.s 			page 53


 2938 0048 64737056 		.ascii	"dspValues[]: \000"
 2938      616C7565 
 2938      735B5D3A 
 2938      2000
 2939 0056 0000     		.space	2
 2940              	.LC9:
 2941 0058 6473706D 		.ascii	"dspmessages: %d\015\012\000"
 2941      65737361 
 2941      6765733A 
 2941      2025640D 
 2941      0A00
 2942 006a 0000     		.space	2
 2943              	.LC10:
 2944 006c 6275735F 		.ascii	"bus_num: %d\015\012\000"
 2944      6E756D3A 
 2944      2025640D 
 2944      0A00
 2945 007a 0000     		.space	2
 2946              	.LC11:
 2947 007c 42555437 		.ascii	"BUT7: %d\015\012\000"
 2947      3A202564 
 2947      0D0A00
 2948 0087 00       		.space	1
 2949              	.LC12:
 2950 0088 76616C61 		.ascii	"valasz: %d\015\012\000"
 2950      737A3A20 
 2950      25640D0A 
 2950      00
 2951 0095 000000   		.space	3
 2952              	.LC13:
 2953 0098 436C6561 		.ascii	"Clear\000"
 2953      7200
 2954 009e 0000     		.space	2
 2955              	.LC14:
 2956 00a0 2D2D2D2D 		.ascii	"-------------- dps clear --------------\015\012\000"
 2956      2D2D2D2D 
 2956      2D2D2D2D 
 2956      2D2D2064 
 2956      70732063 
 2957 00ca 0000     		.space	2
 2958              	.LC15:
 2959 00cc 53656374 		.ascii	"Sector\000"
 2959      6F7200
 2960 00d3 00       		.space	1
 2961              	.LC16:
 2962 00d4 2D2D2D2D 		.ascii	"--------------Set sector --------------\015\012\000"
 2962      2D2D2D2D 
 2962      2D2D2D2D 
 2962      2D2D5365 
 2962      74207365 
 2963 00fe 0000     		.space	2
 2964              	.LC17:
 2965 0100 496D6167 		.ascii	"Image\000"
 2965      6500
 2966 0106 0000     		.space	2
 2967              	.LC18:
 2968 0108 2D2D2D2D 		.ascii	"-------------- media Image --------------\015\012\000"
ARM GAS  C:\Users\DNIEL~1\AppData\Local\Temp\cceiqNg0.s 			page 54


 2968      2D2D2D2D 
 2968      2D2D2D2D 
 2968      2D2D206D 
 2968      65646961 
 2969              	.LC19:
 2970 0134 4261636B 		.ascii	"Background\000"
 2970      67726F75 
 2970      6E6400
 2971 013f 00       		.space	1
 2972              	.LC20:
 2973 0140 2D2D2D2D 		.ascii	"-------------- Background --------------\015\012\000"
 2973      2D2D2D2D 
 2973      2D2D2D2D 
 2973      2D2D2042 
 2973      61636B67 
 2974 016b 00       		.space	1
 2975              	.LC21:
 2976 016c 53706565 		.ascii	"Speed\000"
 2976      6400
 2977 0172 0000     		.space	2
 2978              	.LC22:
 2979 0174 55736167 		.ascii	"Usage: Clear\015\012\000"
 2979      653A2043 
 2979      6C656172 
 2979      0D0A00
 2980 0183 00       		.space	1
 2981              	.LC23:
 2982 0184 20202020 		.ascii	"       Sector\015\012\000"
 2982      20202053 
 2982      6563746F 
 2982      720D0A00 
 2983              	.LC24:
 2984 0194 20202020 		.ascii	"       Image\015\012\000"
 2984      20202049 
 2984      6D616765 
 2984      0D0A00
 2985 01a3 00       		.space	1
 2986              	.LC25:
 2987 01a4 20202020 		.ascii	"       Background\015\012\000"
 2987      20202042 
 2987      61636B67 
 2987      726F756E 
 2987      640D0A00 
 2988              		.section	.data.db,"aw",%progbits
 2989              		.align	2
 2990              		.set	.LANCHOR14,. + 0
 2991              		.type	db, %object
 2992              		.size	db, 4
 2993              	db:
 2994 0000 7F000000 		.word	127
 2995              		.section	.bss.bus_bit,"aw",%nobits
 2996              		.align	2
 2997              		.set	.LANCHOR13,. + 0
 2998              		.type	bus_bit, %object
 2999              		.size	bus_bit, 8
 3000              	bus_bit:
 3001 0000 00000000 		.space	8
ARM GAS  C:\Users\DNIEL~1\AppData\Local\Temp\cceiqNg0.s 			page 55


 3001      00000000 
 3002              		.section	.bss.db2,"aw",%nobits
 3003              		.align	2
 3004              		.type	db2, %object
 3005              		.size	db2, 4
 3006              	db2:
 3007 0000 00000000 		.space	4
 3008              		.section	.data.dspValue,"aw",%progbits
 3009              		.align	2
 3010              		.set	.LANCHOR7,. + 0
 3011              		.type	dspValue, %object
 3012              		.size	dspValue, 136
 3013              	dspValue:
 3014 0000 FFFFFFFF 		.word	-1
 3015 0004 00000000 		.space	132
 3015      00000000 
 3015      00000000 
 3015      00000000 
 3015      00000000 
 3016              		.section	.bss.dspmessages,"aw",%nobits
 3017              		.set	.LANCHOR6,. + 0
 3018              		.type	dspmessages, %object
 3019              		.size	dspmessages, 1
 3020              	dspmessages:
 3021 0000 00       		.space	1
 3022              		.section	.bss.dspstate,"aw",%nobits
 3023              		.set	.LANCHOR3,. + 0
 3024              		.type	dspstate, %object
 3025              		.size	dspstate, 1
 3026              	dspstate:
 3027 0000 00       		.space	1
 3028              		.text
 3029              	.Letext0:
 3030              		.section	.debug_loc,"",%progbits
 3031              	.Ldebug_loc0:
 3032              	.LLST0:
 3033 0000 00000000 		.4byte	.LFB118
 3034 0004 02000000 		.4byte	.LCFI0
 3035 0008 0200     		.2byte	0x2
 3036 000a 7D       		.byte	0x7d
 3037 000b 00       		.sleb128 0
 3038 000c 02000000 		.4byte	.LCFI0
 3039 0010 04000000 		.4byte	.LCFI1
 3040 0014 0200     		.2byte	0x2
 3041 0016 7D       		.byte	0x7d
 3042 0017 0C       		.sleb128 12
 3043 0018 04000000 		.4byte	.LCFI1
 3044 001c 06000000 		.4byte	.LCFI2
 3045 0020 0200     		.2byte	0x2
 3046 0022 7D       		.byte	0x7d
 3047 0023 10       		.sleb128 16
 3048 0024 06000000 		.4byte	.LCFI2
 3049 0028 1E000000 		.4byte	.LFE118
 3050 002c 0200     		.2byte	0x2
 3051 002e 7D       		.byte	0x7d
 3052 002f 18       		.sleb128 24
 3053 0030 00000000 		.4byte	0x0
ARM GAS  C:\Users\DNIEL~1\AppData\Local\Temp\cceiqNg0.s 			page 56


 3054 0034 00000000 		.4byte	0x0
 3055              	.LLST1:
 3056 0038 00000000 		.4byte	.LVL0
 3057 003c 13000000 		.4byte	.LVL1-1
 3058 0040 0100     		.2byte	0x1
 3059 0042 50       		.byte	0x50
 3060 0043 00000000 		.4byte	0x0
 3061 0047 00000000 		.4byte	0x0
 3062              	.LLST2:
 3063 004b 00000000 		.4byte	.LFB123
 3064 004f 04000000 		.4byte	.LCFI3
 3065 0053 0200     		.2byte	0x2
 3066 0055 7D       		.byte	0x7d
 3067 0056 00       		.sleb128 0
 3068 0057 04000000 		.4byte	.LCFI3
 3069 005b 2C000000 		.4byte	.LCFI4
 3070 005f 0200     		.2byte	0x2
 3071 0061 7D       		.byte	0x7d
 3072 0062 24       		.sleb128 36
 3073 0063 2C000000 		.4byte	.LCFI4
 3074 0067 340B0000 		.4byte	.LFE123
 3075 006b 0200     		.2byte	0x2
 3076 006d 7D       		.byte	0x7d
 3077 006e 30       		.sleb128 48
 3078 006f 00000000 		.4byte	0x0
 3079 0073 00000000 		.4byte	0x0
 3080              	.LLST3:
 3081 0077 00000000 		.4byte	.LVL2
 3082 007b 06000000 		.4byte	.LVL3
 3083 007f 0100     		.2byte	0x1
 3084 0081 50       		.byte	0x50
 3085 0082 00000000 		.4byte	0x0
 3086 0086 00000000 		.4byte	0x0
 3087              	.LLST4:
 3088 008a E0000000 		.4byte	.LVL4
 3089 008e E6000000 		.4byte	.LVL5
 3090 0092 0200     		.2byte	0x2
 3091 0094 3A       		.byte	0x3a
 3092 0095 9F       		.byte	0x9f
 3093 0096 E6000000 		.4byte	.LVL5
 3094 009a F4000000 		.4byte	.LVL6
 3095 009e 0200     		.2byte	0x2
 3096 00a0 30       		.byte	0x30
 3097 00a1 9F       		.byte	0x9f
 3098 00a2 0A010000 		.4byte	.LVL7
 3099 00a6 1A010000 		.4byte	.LVL8
 3100 00aa 0100     		.2byte	0x1
 3101 00ac 53       		.byte	0x53
 3102 00ad 1A010000 		.4byte	.LVL8
 3103 00b1 1E010000 		.4byte	.LVL9
 3104 00b5 0800     		.2byte	0x8
 3105 00b7 72       		.byte	0x72
 3106 00b8 00       		.sleb128 0
 3107 00b9 36       		.byte	0x36
 3108 00ba 26       		.byte	0x26
 3109 00bb 73       		.byte	0x73
 3110 00bc 00       		.sleb128 0
ARM GAS  C:\Users\DNIEL~1\AppData\Local\Temp\cceiqNg0.s 			page 57


 3111 00bd 1C       		.byte	0x1c
 3112 00be 9F       		.byte	0x9f
 3113 00bf 1E010000 		.4byte	.LVL9
 3114 00c3 22010000 		.4byte	.LVL10
 3115 00c7 0100     		.2byte	0x1
 3116 00c9 53       		.byte	0x53
 3117 00ca 82010000 		.4byte	.LVL11
 3118 00ce 8E010000 		.4byte	.LVL12
 3119 00d2 0100     		.2byte	0x1
 3120 00d4 50       		.byte	0x50
 3121 00d5 8E010000 		.4byte	.LVL12
 3122 00d9 A6010000 		.4byte	.LVL13
 3123 00dd 0100     		.2byte	0x1
 3124 00df 52       		.byte	0x52
 3125 00e0 DE010000 		.4byte	.LVL14
 3126 00e4 E8010000 		.4byte	.LVL15
 3127 00e8 0100     		.2byte	0x1
 3128 00ea 50       		.byte	0x50
 3129 00eb E8010000 		.4byte	.LVL15
 3130 00ef 00020000 		.4byte	.LVL16
 3131 00f3 0100     		.2byte	0x1
 3132 00f5 52       		.byte	0x52
 3133 00f6 AE020000 		.4byte	.LVL21
 3134 00fa B9020000 		.4byte	.LVL22-1
 3135 00fe 0100     		.2byte	0x1
 3136 0100 53       		.byte	0x53
 3137 0101 FC020000 		.4byte	.LVL23
 3138 0105 02030000 		.4byte	.LVL24
 3139 0109 0100     		.2byte	0x1
 3140 010b 53       		.byte	0x53
 3141 010c 02030000 		.4byte	.LVL24
 3142 0110 34030000 		.4byte	.LVL25
 3143 0114 0200     		.2byte	0x2
 3144 0116 3A       		.byte	0x3a
 3145 0117 9F       		.byte	0x9f
 3146 0118 34030000 		.4byte	.LVL25
 3147 011c 3C030000 		.4byte	.LVL26
 3148 0120 0100     		.2byte	0x1
 3149 0122 53       		.byte	0x53
 3150 0123 4A030000 		.4byte	.LVL27
 3151 0127 54030000 		.4byte	.LVL28
 3152 012b 0200     		.2byte	0x2
 3153 012d 30       		.byte	0x30
 3154 012e 9F       		.byte	0x9f
 3155 012f 54030000 		.4byte	.LVL28
 3156 0133 86030000 		.4byte	.LVL29
 3157 0137 0200     		.2byte	0x2
 3158 0139 32       		.byte	0x32
 3159 013a 9F       		.byte	0x9f
 3160 013b 86030000 		.4byte	.LVL29
 3161 013f 8A030000 		.4byte	.LVL30
 3162 0143 0400     		.2byte	0x4
 3163 0145 0A       		.byte	0xa
 3164 0146 E303     		.2byte	0x3e3
 3165 0148 9F       		.byte	0x9f
 3166 0149 A4030000 		.4byte	.LVL31
 3167 014d AA030000 		.4byte	.LVL32
ARM GAS  C:\Users\DNIEL~1\AppData\Local\Temp\cceiqNg0.s 			page 58


 3168 0151 0100     		.2byte	0x1
 3169 0153 53       		.byte	0x53
 3170 0154 CA030000 		.4byte	.LVL33
 3171 0158 D0030000 		.4byte	.LVL34
 3172 015c 0200     		.2byte	0x2
 3173 015e 3A       		.byte	0x3a
 3174 015f 9F       		.byte	0x9f
 3175 0160 D0030000 		.4byte	.LVL34
 3176 0164 EE030000 		.4byte	.LVL35
 3177 0168 0200     		.2byte	0x2
 3178 016a 3A       		.byte	0x3a
 3179 016b 9F       		.byte	0x9f
 3180 016c 16040000 		.4byte	.LVL36
 3181 0170 2B040000 		.4byte	.LVL37-1
 3182 0174 0100     		.2byte	0x1
 3183 0176 53       		.byte	0x53
 3184 0177 38040000 		.4byte	.LVL38
 3185 017b 3E040000 		.4byte	.LVL39
 3186 017f 0100     		.2byte	0x1
 3187 0181 53       		.byte	0x53
 3188 0182 54040000 		.4byte	.LVL40
 3189 0186 67040000 		.4byte	.LVL41-1
 3190 018a 0100     		.2byte	0x1
 3191 018c 53       		.byte	0x53
 3192 018d 8C040000 		.4byte	.LVL42
 3193 0191 9C040000 		.4byte	.LVL43
 3194 0195 0100     		.2byte	0x1
 3195 0197 50       		.byte	0x50
 3196 0198 CA040000 		.4byte	.LVL44
 3197 019c D0040000 		.4byte	.LVL45
 3198 01a0 0100     		.2byte	0x1
 3199 01a2 53       		.byte	0x53
 3200 01a3 EE040000 		.4byte	.LVL46
 3201 01a7 F8040000 		.4byte	.LVL47
 3202 01ab 0200     		.2byte	0x2
 3203 01ad 32       		.byte	0x32
 3204 01ae 9F       		.byte	0x9f
 3205 01af 00050000 		.4byte	.LVL48
 3206 01b3 11050000 		.4byte	.LVL49-1
 3207 01b7 0100     		.2byte	0x1
 3208 01b9 53       		.byte	0x53
 3209 01ba 26050000 		.4byte	.LVL50
 3210 01be 2C050000 		.4byte	.LVL51
 3211 01c2 0200     		.2byte	0x2
 3212 01c4 3A       		.byte	0x3a
 3213 01c5 9F       		.byte	0x9f
 3214 01c6 2C050000 		.4byte	.LVL51
 3215 01ca 4A050000 		.4byte	.LVL52
 3216 01ce 0200     		.2byte	0x2
 3217 01d0 3A       		.byte	0x3a
 3218 01d1 9F       		.byte	0x9f
 3219 01d2 4A050000 		.4byte	.LVL52
 3220 01d6 50050000 		.4byte	.LVL53
 3221 01da 0100     		.2byte	0x1
 3222 01dc 53       		.byte	0x53
 3223 01dd 5E050000 		.4byte	.LVL54
 3224 01e1 79050000 		.4byte	.LVL55-1
ARM GAS  C:\Users\DNIEL~1\AppData\Local\Temp\cceiqNg0.s 			page 59


 3225 01e5 0100     		.2byte	0x1
 3226 01e7 53       		.byte	0x53
 3227 01e8 86050000 		.4byte	.LVL56
 3228 01ec 88050000 		.4byte	.LVL57
 3229 01f0 0100     		.2byte	0x1
 3230 01f2 53       		.byte	0x53
 3231 01f3 A8050000 		.4byte	.LVL58
 3232 01f7 B2050000 		.4byte	.LVL59
 3233 01fb 0200     		.2byte	0x2
 3234 01fd 32       		.byte	0x32
 3235 01fe 9F       		.byte	0x9f
 3236 01ff B6050000 		.4byte	.LVL60
 3237 0203 D3050000 		.4byte	.LVL61-1
 3238 0207 0100     		.2byte	0x1
 3239 0209 53       		.byte	0x53
 3240 020a E0050000 		.4byte	.LVL62
 3241 020e E2050000 		.4byte	.LVL63
 3242 0212 0100     		.2byte	0x1
 3243 0214 53       		.byte	0x53
 3244 0215 FA050000 		.4byte	.LVL64
 3245 0219 0F060000 		.4byte	.LVL65-1
 3246 021d 0100     		.2byte	0x1
 3247 021f 53       		.byte	0x53
 3248 0220 3C060000 		.4byte	.LVL66
 3249 0224 42060000 		.4byte	.LVL67
 3250 0228 0100     		.2byte	0x1
 3251 022a 53       		.byte	0x53
 3252 022b 50060000 		.4byte	.LVL68
 3253 022f 6D060000 		.4byte	.LVL69-1
 3254 0233 0100     		.2byte	0x1
 3255 0235 53       		.byte	0x53
 3256 0236 7A060000 		.4byte	.LVL70
 3257 023a 82060000 		.4byte	.LVL71
 3258 023e 0100     		.2byte	0x1
 3259 0240 53       		.byte	0x53
 3260 0241 A4060000 		.4byte	.LVL72
 3261 0245 AE060000 		.4byte	.LVL73
 3262 0249 0200     		.2byte	0x2
 3263 024b 32       		.byte	0x32
 3264 024c 9F       		.byte	0x9f
 3265 024d B6060000 		.4byte	.LVL74
 3266 0251 CB060000 		.4byte	.LVL75-1
 3267 0255 0100     		.2byte	0x1
 3268 0257 53       		.byte	0x53
 3269 0258 E0060000 		.4byte	.LVL76
 3270 025c E6060000 		.4byte	.LVL77
 3271 0260 0100     		.2byte	0x1
 3272 0262 53       		.byte	0x53
 3273 0263 FE060000 		.4byte	.LVL78
 3274 0267 0F070000 		.4byte	.LVL79-1
 3275 026b 0100     		.2byte	0x1
 3276 026d 53       		.byte	0x53
 3277 026e 5A070000 		.4byte	.LVL80
 3278 0272 6D070000 		.4byte	.LVL81-1
 3279 0276 0100     		.2byte	0x1
 3280 0278 53       		.byte	0x53
 3281 0279 AC070000 		.4byte	.LVL82
ARM GAS  C:\Users\DNIEL~1\AppData\Local\Temp\cceiqNg0.s 			page 60


 3282 027d C0070000 		.4byte	.LVL83
 3283 0281 0100     		.2byte	0x1
 3284 0283 52       		.byte	0x52
 3285 0284 08080000 		.4byte	.LVL84
 3286 0288 0E080000 		.4byte	.LVL85
 3287 028c 0100     		.2byte	0x1
 3288 028e 53       		.byte	0x53
 3289 028f 7A080000 		.4byte	.LVL86
 3290 0293 A8080000 		.4byte	.LVL87
 3291 0297 0400     		.2byte	0x4
 3292 0299 0A       		.byte	0xa
 3293 029a E303     		.2byte	0x3e3
 3294 029c 9F       		.byte	0x9f
 3295 029d BC080000 		.4byte	.LVL88
 3296 02a1 CE080000 		.4byte	.LVL89
 3297 02a5 0100     		.2byte	0x1
 3298 02a7 51       		.byte	0x51
 3299 02a8 EA080000 		.4byte	.LVL90
 3300 02ac 18090000 		.4byte	.LVL91
 3301 02b0 0400     		.2byte	0x4
 3302 02b2 0A       		.byte	0xa
 3303 02b3 E303     		.2byte	0x3e3
 3304 02b5 9F       		.byte	0x9f
 3305 02b6 36090000 		.4byte	.LVL92
 3306 02ba 47090000 		.4byte	.LVL93-1
 3307 02be 0100     		.2byte	0x1
 3308 02c0 53       		.byte	0x53
 3309 02c1 5E090000 		.4byte	.LVL94
 3310 02c5 A8090000 		.4byte	.LVL95
 3311 02c9 0400     		.2byte	0x4
 3312 02cb 0A       		.byte	0xa
 3313 02cc E303     		.2byte	0x3e3
 3314 02ce 9F       		.byte	0x9f
 3315 02cf AE090000 		.4byte	.LVL96
 3316 02d3 CA090000 		.4byte	.LVL97
 3317 02d7 0100     		.2byte	0x1
 3318 02d9 52       		.byte	0x52
 3319 02da CA090000 		.4byte	.LVL97
 3320 02de D9090000 		.4byte	.LVL98-1
 3321 02e2 0100     		.2byte	0x1
 3322 02e4 53       		.byte	0x53
 3323 02e5 040A0000 		.4byte	.LVL99
 3324 02e9 120A0000 		.4byte	.LVL100
 3325 02ed 0100     		.2byte	0x1
 3326 02ef 52       		.byte	0x52
 3327 02f0 420A0000 		.4byte	.LVL101
 3328 02f4 4E0A0000 		.4byte	.LVL102
 3329 02f8 0200     		.2byte	0x2
 3330 02fa 31       		.byte	0x31
 3331 02fb 9F       		.byte	0x9f
 3332 02fc 4E0A0000 		.4byte	.LVL102
 3333 0300 540A0000 		.4byte	.LVL103
 3334 0304 0100     		.2byte	0x1
 3335 0306 52       		.byte	0x52
 3336 0307 540A0000 		.4byte	.LVL103
 3337 030b 600A0000 		.4byte	.LVL104
 3338 030f 0100     		.2byte	0x1
ARM GAS  C:\Users\DNIEL~1\AppData\Local\Temp\cceiqNg0.s 			page 61


 3339 0311 53       		.byte	0x53
 3340 0312 600A0000 		.4byte	.LVL104
 3341 0316 680A0000 		.4byte	.LVL105
 3342 031a 0400     		.2byte	0x4
 3343 031c 0A       		.byte	0xa
 3344 031d E303     		.2byte	0x3e3
 3345 031f 9F       		.byte	0x9f
 3346 0320 800A0000 		.4byte	.LVL106
 3347 0324 8A0A0000 		.4byte	.LVL107
 3348 0328 0100     		.2byte	0x1
 3349 032a 53       		.byte	0x53
 3350 032b 8A0A0000 		.4byte	.LVL107
 3351 032f 920A0000 		.4byte	.LVL108
 3352 0333 0400     		.2byte	0x4
 3353 0335 0A       		.byte	0xa
 3354 0336 E303     		.2byte	0x3e3
 3355 0338 9F       		.byte	0x9f
 3356 0339 920A0000 		.4byte	.LVL108
 3357 033d 9C0A0000 		.4byte	.LVL109
 3358 0341 0100     		.2byte	0x1
 3359 0343 53       		.byte	0x53
 3360 0344 C00A0000 		.4byte	.LVL110
 3361 0348 E80A0000 		.4byte	.LVL111
 3362 034c 0200     		.2byte	0x2
 3363 034e 30       		.byte	0x30
 3364 034f 9F       		.byte	0x9f
 3365 0350 140B0000 		.4byte	.LVL112
 3366 0354 340B0000 		.4byte	.LFE123
 3367 0358 0200     		.2byte	0x2
 3368 035a 32       		.byte	0x32
 3369 035b 9F       		.byte	0x9f
 3370 035c 00000000 		.4byte	0x0
 3371 0360 00000000 		.4byte	0x0
 3372              	.LLST5:
 3373 0364 7E020000 		.4byte	.LVL17
 3374 0368 8C020000 		.4byte	.LVL18
 3375 036c 0100     		.2byte	0x1
 3376 036e 50       		.byte	0x50
 3377 036f 8C020000 		.4byte	.LVL18
 3378 0373 92020000 		.4byte	.LVL19
 3379 0377 0100     		.2byte	0x1
 3380 0379 53       		.byte	0x53
 3381 037a AE020000 		.4byte	.LVL21
 3382 037e B9020000 		.4byte	.LVL22-1
 3383 0382 0100     		.2byte	0x1
 3384 0384 53       		.byte	0x53
 3385 0385 3C060000 		.4byte	.LVL66
 3386 0389 42060000 		.4byte	.LVL67
 3387 038d 0100     		.2byte	0x1
 3388 038f 53       		.byte	0x53
 3389 0390 00000000 		.4byte	0x0
 3390 0394 00000000 		.4byte	0x0
 3391              	.LLST6:
 3392 0398 00000000 		.4byte	.LFB119
 3393 039c 02000000 		.4byte	.LCFI5
 3394 03a0 0200     		.2byte	0x2
 3395 03a2 7D       		.byte	0x7d
ARM GAS  C:\Users\DNIEL~1\AppData\Local\Temp\cceiqNg0.s 			page 62


 3396 03a3 00       		.sleb128 0
 3397 03a4 02000000 		.4byte	.LCFI5
 3398 03a8 D0000000 		.4byte	.LFE119
 3399 03ac 0200     		.2byte	0x2
 3400 03ae 7D       		.byte	0x7d
 3401 03af 08       		.sleb128 8
 3402 03b0 00000000 		.4byte	0x0
 3403 03b4 00000000 		.4byte	0x0
 3404              	.LLST7:
 3405 03b8 00000000 		.4byte	.LFB120
 3406 03bc 02000000 		.4byte	.LCFI6
 3407 03c0 0200     		.2byte	0x2
 3408 03c2 7D       		.byte	0x7d
 3409 03c3 00       		.sleb128 0
 3410 03c4 02000000 		.4byte	.LCFI6
 3411 03c8 74000000 		.4byte	.LFE120
 3412 03cc 0200     		.2byte	0x2
 3413 03ce 7D       		.byte	0x7d
 3414 03cf 08       		.sleb128 8
 3415 03d0 00000000 		.4byte	0x0
 3416 03d4 00000000 		.4byte	0x0
 3417              	.LLST8:
 3418 03d8 00000000 		.4byte	.LFB121
 3419 03dc 02000000 		.4byte	.LCFI7
 3420 03e0 0200     		.2byte	0x2
 3421 03e2 7D       		.byte	0x7d
 3422 03e3 00       		.sleb128 0
 3423 03e4 02000000 		.4byte	.LCFI7
 3424 03e8 08000000 		.4byte	.LCFI8
 3425 03ec 0200     		.2byte	0x2
 3426 03ee 7D       		.byte	0x7d
 3427 03ef 08       		.sleb128 8
 3428 03f0 08000000 		.4byte	.LCFI8
 3429 03f4 24010000 		.4byte	.LFE121
 3430 03f8 0200     		.2byte	0x2
 3431 03fa 7D       		.byte	0x7d
 3432 03fb 10       		.sleb128 16
 3433 03fc 00000000 		.4byte	0x0
 3434 0400 00000000 		.4byte	0x0
 3435              	.LLST9:
 3436 0404 00000000 		.4byte	.LFB122
 3437 0408 02000000 		.4byte	.LCFI9
 3438 040c 0200     		.2byte	0x2
 3439 040e 7D       		.byte	0x7d
 3440 040f 00       		.sleb128 0
 3441 0410 02000000 		.4byte	.LCFI9
 3442 0414 F8000000 		.4byte	.LFE122
 3443 0418 0200     		.2byte	0x2
 3444 041a 7D       		.byte	0x7d
 3445 041b 10       		.sleb128 16
 3446 041c 00000000 		.4byte	0x0
 3447 0420 00000000 		.4byte	0x0
 3448              	.LLST10:
 3449 0424 00000000 		.4byte	.LVL113
 3450 0428 06000000 		.4byte	.LVL114
 3451 042c 0100     		.2byte	0x1
 3452 042e 50       		.byte	0x50
ARM GAS  C:\Users\DNIEL~1\AppData\Local\Temp\cceiqNg0.s 			page 63


 3453 042f 06000000 		.4byte	.LVL114
 3454 0433 F8000000 		.4byte	.LFE122
 3455 0437 0100     		.2byte	0x1
 3456 0439 54       		.byte	0x54
 3457 043a 00000000 		.4byte	0x0
 3458 043e 00000000 		.4byte	0x0
 3459              	.LLST11:
 3460 0442 00000000 		.4byte	.LFB124
 3461 0446 02000000 		.4byte	.LCFI10
 3462 044a 0200     		.2byte	0x2
 3463 044c 7D       		.byte	0x7d
 3464 044d 00       		.sleb128 0
 3465 044e 02000000 		.4byte	.LCFI10
 3466 0452 06000000 		.4byte	.LCFI11
 3467 0456 0200     		.2byte	0x2
 3468 0458 7D       		.byte	0x7d
 3469 0459 0C       		.sleb128 12
 3470 045a 06000000 		.4byte	.LCFI11
 3471 045e 5C000000 		.4byte	.LFE124
 3472 0462 0200     		.2byte	0x2
 3473 0464 7D       		.byte	0x7d
 3474 0465 18       		.sleb128 24
 3475 0466 00000000 		.4byte	0x0
 3476 046a 00000000 		.4byte	0x0
 3477              	.LLST12:
 3478 046e 00000000 		.4byte	.LVL115
 3479 0472 08000000 		.4byte	.LVL116
 3480 0476 0100     		.2byte	0x1
 3481 0478 50       		.byte	0x50
 3482 0479 00000000 		.4byte	0x0
 3483 047d 00000000 		.4byte	0x0
 3484              	.LLST13:
 3485 0481 00000000 		.4byte	.LFB128
 3486 0485 04000000 		.4byte	.LCFI12
 3487 0489 0200     		.2byte	0x2
 3488 048b 7D       		.byte	0x7d
 3489 048c 00       		.sleb128 0
 3490 048d 04000000 		.4byte	.LCFI12
 3491 0491 8C010000 		.4byte	.LFE128
 3492 0495 0200     		.2byte	0x2
 3493 0497 7D       		.byte	0x7d
 3494 0498 18       		.sleb128 24
 3495 0499 00000000 		.4byte	0x0
 3496 049d 00000000 		.4byte	0x0
 3497              	.LLST14:
 3498 04a1 00000000 		.4byte	.LVL117
 3499 04a5 11000000 		.4byte	.LVL119-1
 3500 04a9 0100     		.2byte	0x1
 3501 04ab 50       		.byte	0x50
 3502 04ac 11000000 		.4byte	.LVL119-1
 3503 04b0 8C010000 		.4byte	.LFE128
 3504 04b4 0100     		.2byte	0x1
 3505 04b6 55       		.byte	0x55
 3506 04b7 00000000 		.4byte	0x0
 3507 04bb 00000000 		.4byte	0x0
 3508              	.LLST15:
 3509 04bf 00000000 		.4byte	.LVL117
ARM GAS  C:\Users\DNIEL~1\AppData\Local\Temp\cceiqNg0.s 			page 64


 3510 04c3 06000000 		.4byte	.LVL118
 3511 04c7 0100     		.2byte	0x1
 3512 04c9 51       		.byte	0x51
 3513 04ca 00000000 		.4byte	0x0
 3514 04ce 00000000 		.4byte	0x0
 3515              	.LLST16:
 3516 04d2 00000000 		.4byte	.LVL117
 3517 04d6 11000000 		.4byte	.LVL119-1
 3518 04da 0100     		.2byte	0x1
 3519 04dc 52       		.byte	0x52
 3520 04dd 00000000 		.4byte	0x0
 3521 04e1 00000000 		.4byte	0x0
 3522              	.LLST17:
 3523 04e5 50000000 		.4byte	.LVL120
 3524 04e9 5A000000 		.4byte	.LVL121
 3525 04ed 0200     		.2byte	0x2
 3526 04ef 30       		.byte	0x30
 3527 04f0 9F       		.byte	0x9f
 3528 04f1 5A000000 		.4byte	.LVL121
 3529 04f5 64000000 		.4byte	.LVL122
 3530 04f9 0200     		.2byte	0x2
 3531 04fb 31       		.byte	0x31
 3532 04fc 9F       		.byte	0x9f
 3533 04fd 64000000 		.4byte	.LVL122
 3534 0501 6E000000 		.4byte	.LVL123
 3535 0505 0200     		.2byte	0x2
 3536 0507 32       		.byte	0x32
 3537 0508 9F       		.byte	0x9f
 3538 0509 6E000000 		.4byte	.LVL123
 3539 050d 78000000 		.4byte	.LVL124
 3540 0511 0200     		.2byte	0x2
 3541 0513 33       		.byte	0x33
 3542 0514 9F       		.byte	0x9f
 3543 0515 78000000 		.4byte	.LVL124
 3544 0519 82000000 		.4byte	.LVL125
 3545 051d 0200     		.2byte	0x2
 3546 051f 34       		.byte	0x34
 3547 0520 9F       		.byte	0x9f
 3548 0521 82000000 		.4byte	.LVL125
 3549 0525 8C000000 		.4byte	.LVL126
 3550 0529 0200     		.2byte	0x2
 3551 052b 35       		.byte	0x35
 3552 052c 9F       		.byte	0x9f
 3553 052d 8C000000 		.4byte	.LVL126
 3554 0531 96000000 		.4byte	.LVL127
 3555 0535 0200     		.2byte	0x2
 3556 0537 36       		.byte	0x36
 3557 0538 9F       		.byte	0x9f
 3558 0539 96000000 		.4byte	.LVL127
 3559 053d A0000000 		.4byte	.LVL128
 3560 0541 0200     		.2byte	0x2
 3561 0543 37       		.byte	0x37
 3562 0544 9F       		.byte	0x9f
 3563 0545 A0000000 		.4byte	.LVL128
 3564 0549 B0000000 		.4byte	.LVL129
 3565 054d 0200     		.2byte	0x2
 3566 054f 38       		.byte	0x38
ARM GAS  C:\Users\DNIEL~1\AppData\Local\Temp\cceiqNg0.s 			page 65


 3567 0550 9F       		.byte	0x9f
 3568 0551 B0000000 		.4byte	.LVL129
 3569 0555 BA000000 		.4byte	.LVL130
 3570 0559 0200     		.2byte	0x2
 3571 055b 30       		.byte	0x30
 3572 055c 9F       		.byte	0x9f
 3573 055d 00000000 		.4byte	0x0
 3574 0561 00000000 		.4byte	0x0
 3575              	.LLST18:
 3576 0565 00000000 		.4byte	.LFB129
 3577 0569 02000000 		.4byte	.LCFI13
 3578 056d 0200     		.2byte	0x2
 3579 056f 7D       		.byte	0x7d
 3580 0570 00       		.sleb128 0
 3581 0571 02000000 		.4byte	.LCFI13
 3582 0575 50010000 		.4byte	.LFE129
 3583 0579 0200     		.2byte	0x2
 3584 057b 7D       		.byte	0x7d
 3585 057c 10       		.sleb128 16
 3586 057d 00000000 		.4byte	0x0
 3587 0581 00000000 		.4byte	0x0
 3588              	.LLST19:
 3589 0585 00000000 		.4byte	.LVL131
 3590 0589 0D000000 		.4byte	.LVL133-1
 3591 058d 0100     		.2byte	0x1
 3592 058f 50       		.byte	0x50
 3593 0590 0D000000 		.4byte	.LVL133-1
 3594 0594 50010000 		.4byte	.LFE129
 3595 0598 0100     		.2byte	0x1
 3596 059a 54       		.byte	0x54
 3597 059b 00000000 		.4byte	0x0
 3598 059f 00000000 		.4byte	0x0
 3599              	.LLST20:
 3600 05a3 00000000 		.4byte	.LVL131
 3601 05a7 08000000 		.4byte	.LVL132
 3602 05ab 0100     		.2byte	0x1
 3603 05ad 51       		.byte	0x51
 3604 05ae 08000000 		.4byte	.LVL132
 3605 05b2 26000000 		.4byte	.LVL134
 3606 05b6 0100     		.2byte	0x1
 3607 05b8 55       		.byte	0x55
 3608 05b9 4A000000 		.4byte	.LVL135
 3609 05bd 80000000 		.4byte	.LVL136
 3610 05c1 0100     		.2byte	0x1
 3611 05c3 55       		.byte	0x55
 3612 05c4 00000000 		.4byte	0x0
 3613 05c8 00000000 		.4byte	0x0
 3614              	.LLST21:
 3615 05cc 00000000 		.4byte	.LVL131
 3616 05d0 0D000000 		.4byte	.LVL133-1
 3617 05d4 0100     		.2byte	0x1
 3618 05d6 52       		.byte	0x52
 3619 05d7 0D000000 		.4byte	.LVL133-1
 3620 05db 26000000 		.4byte	.LVL134
 3621 05df 0100     		.2byte	0x1
 3622 05e1 56       		.byte	0x56
 3623 05e2 4A000000 		.4byte	.LVL135
ARM GAS  C:\Users\DNIEL~1\AppData\Local\Temp\cceiqNg0.s 			page 66


 3624 05e6 96000000 		.4byte	.LVL137
 3625 05ea 0100     		.2byte	0x1
 3626 05ec 56       		.byte	0x56
 3627 05ed C8000000 		.4byte	.LVL138
 3628 05f1 D8000000 		.4byte	.LVL139
 3629 05f5 0100     		.2byte	0x1
 3630 05f7 56       		.byte	0x56
 3631 05f8 00000000 		.4byte	0x0
 3632 05fc 00000000 		.4byte	0x0
 3633              		.file 3 "c:\\program files (x86)\\codesourcery\\sourcery g++ lite\\bin\\../lib/gcc/arm-none-eabi/4
 3634              		.file 4 "c:\\program files (x86)\\codesourcery\\sourcery g++ lite\\bin\\../lib/gcc/arm-none-eabi/4
 3635              		.file 5 "../../../ChibiOS/os/ports/GCC/ARMCMx/chtypes.h"
 3636              		.file 6 "../../../ChibiOS/os/kernel/include/chlists.h"
 3637              		.file 7 "../../../ChibiOS/os/kernel/include/chthreads.h"
 3638              		.file 8 "../../../ChibiOS/os/ports/GCC/ARMCMx/chcore_v7m.h"
 3639              		.file 9 "../../../ChibiOS/os/kernel/include/chvt.h"
 3640              		.file 10 "../../../ChibiOS/os/kernel/include/chschd.h"
 3641              		.file 11 "../../../ChibiOS/os/kernel/include/chmtx.h"
 3642              		.file 12 "../../../ChibiOS/os/kernel/include/chstreams.h"
 3643              		.file 13 "../../../ChibiOS/os/hal/include/io_channel.h"
 3644              		.file 14 "../../../ChibiOS/os/hal/platforms/STM32/GPIOv2/pal_lld.h"
 3645              		.file 15 "include/meas.h"
 3646              		.file 16 "c:\\program files (x86)\\codesourcery\\sourcery g++ lite\\bin\\../lib/gcc/arm-none-eabi/
 3647              		.file 17 "<built-in>"
 3648              		.file 18 "include/can_items.h"
 3649              		.file 19 "include/calc.h"
 3650              		.file 20 "../../../ChibiOS/os/ports/common/ARMCMx/CMSIS/include/core_cm4.h"
 3651              		.file 21 "include/can_comm.h"
 3652              		.section	.debug_info
 3653 0000 15100000 		.4byte	0x1015
 3654 0004 0200     		.2byte	0x2
 3655 0006 00000000 		.4byte	.Ldebug_abbrev0
 3656 000a 04       		.byte	0x4
 3657 000b 01       		.uleb128 0x1
 3658 000c EA030000 		.4byte	.LASF221
 3659 0010 01       		.byte	0x1
 3660 0011 ED000000 		.4byte	.LASF222
 3661 0015 6F060000 		.4byte	.LASF223
 3662 0019 00000000 		.4byte	0x0
 3663 001d 00000000 		.4byte	0x0
 3664 0021 B0000000 		.4byte	.Ldebug_ranges0+0xb0
 3665 0025 00000000 		.4byte	.Ldebug_line0
 3666 0029 02       		.uleb128 0x2
 3667 002a 04       		.byte	0x4
 3668 002b 05       		.byte	0x5
 3669 002c 696E7400 		.ascii	"int\000"
 3670 0030 03       		.uleb128 0x3
 3671 0031 17030000 		.4byte	.LASF2
 3672 0035 03       		.byte	0x3
 3673 0036 D3       		.byte	0xd3
 3674 0037 3B000000 		.4byte	0x3b
 3675 003b 04       		.uleb128 0x4
 3676 003c 04       		.byte	0x4
 3677 003d 07       		.byte	0x7
 3678 003e 8C000000 		.4byte	.LASF0
 3679 0042 04       		.uleb128 0x4
 3680 0043 01       		.byte	0x1
ARM GAS  C:\Users\DNIEL~1\AppData\Local\Temp\cceiqNg0.s 			page 67


 3681 0044 06       		.byte	0x6
 3682 0045 30090000 		.4byte	.LASF1
 3683 0049 03       		.uleb128 0x3
 3684 004a 6A040000 		.4byte	.LASF3
 3685 004e 04       		.byte	0x4
 3686 004f 2A       		.byte	0x2a
 3687 0050 54000000 		.4byte	0x54
 3688 0054 04       		.uleb128 0x4
 3689 0055 01       		.byte	0x1
 3690 0056 08       		.byte	0x8
 3691 0057 24080000 		.4byte	.LASF4
 3692 005b 03       		.uleb128 0x3
 3693 005c 06020000 		.4byte	.LASF5
 3694 0060 04       		.byte	0x4
 3695 0061 35       		.byte	0x35
 3696 0062 66000000 		.4byte	0x66
 3697 0066 04       		.uleb128 0x4
 3698 0067 02       		.byte	0x2
 3699 0068 05       		.byte	0x5
 3700 0069 D2060000 		.4byte	.LASF6
 3701 006d 03       		.uleb128 0x3
 3702 006e 5A060000 		.4byte	.LASF7
 3703 0072 04       		.byte	0x4
 3704 0073 36       		.byte	0x36
 3705 0074 78000000 		.4byte	0x78
 3706 0078 04       		.uleb128 0x4
 3707 0079 02       		.byte	0x2
 3708 007a 07       		.byte	0x7
 3709 007b 2D060000 		.4byte	.LASF8
 3710 007f 03       		.uleb128 0x3
 3711 0080 0A080000 		.4byte	.LASF9
 3712 0084 04       		.byte	0x4
 3713 0085 4F       		.byte	0x4f
 3714 0086 8A000000 		.4byte	0x8a
 3715 008a 04       		.uleb128 0x4
 3716 008b 04       		.byte	0x4
 3717 008c 05       		.byte	0x5
 3718 008d 11070000 		.4byte	.LASF10
 3719 0091 03       		.uleb128 0x3
 3720 0092 9E010000 		.4byte	.LASF11
 3721 0096 04       		.byte	0x4
 3722 0097 50       		.byte	0x50
 3723 0098 9C000000 		.4byte	0x9c
 3724 009c 04       		.uleb128 0x4
 3725 009d 04       		.byte	0x4
 3726 009e 07       		.byte	0x7
 3727 009f ED070000 		.4byte	.LASF12
 3728 00a3 04       		.uleb128 0x4
 3729 00a4 08       		.byte	0x8
 3730 00a5 05       		.byte	0x5
 3731 00a6 E4040000 		.4byte	.LASF13
 3732 00aa 03       		.uleb128 0x3
 3733 00ab 67070000 		.4byte	.LASF14
 3734 00af 04       		.byte	0x4
 3735 00b0 78       		.byte	0x78
 3736 00b1 B5000000 		.4byte	0xb5
 3737 00b5 04       		.uleb128 0x4
ARM GAS  C:\Users\DNIEL~1\AppData\Local\Temp\cceiqNg0.s 			page 68


 3738 00b6 08       		.byte	0x8
 3739 00b7 07       		.byte	0x7
 3740 00b8 EF010000 		.4byte	.LASF15
 3741 00bc 03       		.uleb128 0x3
 3742 00bd 2C030000 		.4byte	.LASF16
 3743 00c1 05       		.byte	0x5
 3744 00c2 2B       		.byte	0x2b
 3745 00c3 C7000000 		.4byte	0xc7
 3746 00c7 04       		.uleb128 0x4
 3747 00c8 01       		.byte	0x1
 3748 00c9 02       		.byte	0x2
 3749 00ca 42030000 		.4byte	.LASF17
 3750 00ce 03       		.uleb128 0x3
 3751 00cf 0A060000 		.4byte	.LASF18
 3752 00d3 05       		.byte	0x5
 3753 00d4 2C       		.byte	0x2c
 3754 00d5 49000000 		.4byte	0x49
 3755 00d9 03       		.uleb128 0x3
 3756 00da 13040000 		.4byte	.LASF19
 3757 00de 05       		.byte	0x5
 3758 00df 2D       		.byte	0x2d
 3759 00e0 49000000 		.4byte	0x49
 3760 00e4 03       		.uleb128 0x3
 3761 00e5 E5070000 		.4byte	.LASF20
 3762 00e9 05       		.byte	0x5
 3763 00ea 2E       		.byte	0x2e
 3764 00eb 49000000 		.4byte	0x49
 3765 00ef 03       		.uleb128 0x3
 3766 00f0 CC050000 		.4byte	.LASF21
 3767 00f4 05       		.byte	0x5
 3768 00f5 2F       		.byte	0x2f
 3769 00f6 49000000 		.4byte	0x49
 3770 00fa 03       		.uleb128 0x3
 3771 00fb E7010000 		.4byte	.LASF22
 3772 00ff 05       		.byte	0x5
 3773 0100 30       		.byte	0x30
 3774 0101 91000000 		.4byte	0x91
 3775 0105 03       		.uleb128 0x3
 3776 0106 0E050000 		.4byte	.LASF23
 3777 010a 05       		.byte	0x5
 3778 010b 31       		.byte	0x31
 3779 010c 7F000000 		.4byte	0x7f
 3780 0110 03       		.uleb128 0x3
 3781 0111 C7010000 		.4byte	.LASF24
 3782 0115 05       		.byte	0x5
 3783 0116 33       		.byte	0x33
 3784 0117 91000000 		.4byte	0x91
 3785 011b 03       		.uleb128 0x3
 3786 011c 6C000000 		.4byte	.LASF25
 3787 0120 05       		.byte	0x5
 3788 0121 35       		.byte	0x35
 3789 0122 91000000 		.4byte	0x91
 3790 0126 03       		.uleb128 0x3
 3791 0127 0C040000 		.4byte	.LASF26
 3792 012b 06       		.byte	0x6
 3793 012c 2A       		.byte	0x2a
 3794 012d 31010000 		.4byte	0x131
ARM GAS  C:\Users\DNIEL~1\AppData\Local\Temp\cceiqNg0.s 			page 69


 3795 0131 05       		.uleb128 0x5
 3796 0132 0C040000 		.4byte	.LASF26
 3797 0136 48       		.byte	0x48
 3798 0137 07       		.byte	0x7
 3799 0138 5E       		.byte	0x5e
 3800 0139 56020000 		.4byte	0x256
 3801 013d 06       		.uleb128 0x6
 3802 013e 60070000 		.4byte	.LASF27
 3803 0142 07       		.byte	0x7
 3804 0143 5F       		.byte	0x5f
 3805 0144 7B020000 		.4byte	0x27b
 3806 0148 02       		.byte	0x2
 3807 0149 23       		.byte	0x23
 3808 014a 00       		.uleb128 0x0
 3809 014b 06       		.uleb128 0x6
 3810 014c DE070000 		.4byte	.LASF28
 3811 0150 07       		.byte	0x7
 3812 0151 61       		.byte	0x61
 3813 0152 7B020000 		.4byte	0x27b
 3814 0156 02       		.byte	0x2
 3815 0157 23       		.byte	0x23
 3816 0158 04       		.uleb128 0x4
 3817 0159 06       		.uleb128 0x6
 3818 015a 56000000 		.4byte	.LASF29
 3819 015e 07       		.byte	0x7
 3820 015f 63       		.byte	0x63
 3821 0160 FA000000 		.4byte	0xfa
 3822 0164 02       		.byte	0x2
 3823 0165 23       		.byte	0x23
 3824 0166 08       		.uleb128 0x8
 3825 0167 06       		.uleb128 0x6
 3826 0168 70070000 		.4byte	.LASF30
 3827 016c 07       		.byte	0x7
 3828 016d 64       		.byte	0x64
 3829 016e 54030000 		.4byte	0x354
 3830 0172 02       		.byte	0x2
 3831 0173 23       		.byte	0x23
 3832 0174 0C       		.uleb128 0xc
 3833 0175 06       		.uleb128 0x6
 3834 0176 EC090000 		.4byte	.LASF31
 3835 017a 07       		.byte	0x7
 3836 017b 66       		.byte	0x66
 3837 017c 7B020000 		.4byte	0x27b
 3838 0180 02       		.byte	0x2
 3839 0181 23       		.byte	0x23
 3840 0182 10       		.uleb128 0x10
 3841 0183 06       		.uleb128 0x6
 3842 0184 38040000 		.4byte	.LASF32
 3843 0188 07       		.byte	0x7
 3844 0189 67       		.byte	0x67
 3845 018a 7B020000 		.4byte	0x27b
 3846 018e 02       		.byte	0x2
 3847 018f 23       		.byte	0x23
 3848 0190 14       		.uleb128 0x14
 3849 0191 06       		.uleb128 0x6
 3850 0192 B0030000 		.4byte	.LASF33
 3851 0196 07       		.byte	0x7
ARM GAS  C:\Users\DNIEL~1\AppData\Local\Temp\cceiqNg0.s 			page 70


 3852 0197 6E       		.byte	0x6e
 3853 0198 33050000 		.4byte	0x533
 3854 019c 02       		.byte	0x2
 3855 019d 23       		.byte	0x23
 3856 019e 18       		.uleb128 0x18
 3857 019f 06       		.uleb128 0x6
 3858 01a0 B1040000 		.4byte	.LASF34
 3859 01a4 07       		.byte	0x7
 3860 01a5 79       		.byte	0x79
 3861 01a6 D9000000 		.4byte	0xd9
 3862 01aa 02       		.byte	0x2
 3863 01ab 23       		.byte	0x23
 3864 01ac 1C       		.uleb128 0x1c
 3865 01ad 06       		.uleb128 0x6
 3866 01ae 6D050000 		.4byte	.LASF35
 3867 01b2 07       		.byte	0x7
 3868 01b3 7D       		.byte	0x7d
 3869 01b4 CE000000 		.4byte	0xce
 3870 01b8 02       		.byte	0x2
 3871 01b9 23       		.byte	0x23
 3872 01ba 1D       		.uleb128 0x1d
 3873 01bb 06       		.uleb128 0x6
 3874 01bc 3F080000 		.4byte	.LASF36
 3875 01c0 07       		.byte	0x7
 3876 01c1 82       		.byte	0x82
 3877 01c2 E4000000 		.4byte	0xe4
 3878 01c6 02       		.byte	0x2
 3879 01c7 23       		.byte	0x23
 3880 01c8 1E       		.uleb128 0x1e
 3881 01c9 06       		.uleb128 0x6
 3882 01ca 88080000 		.4byte	.LASF37
 3883 01ce 07       		.byte	0x7
 3884 01cf 88       		.byte	0x88
 3885 01d0 EF000000 		.4byte	0xef
 3886 01d4 02       		.byte	0x2
 3887 01d5 23       		.byte	0x23
 3888 01d6 1F       		.uleb128 0x1f
 3889 01d7 06       		.uleb128 0x6
 3890 01d8 41000000 		.4byte	.LASF38
 3891 01dc 07       		.byte	0x7
 3892 01dd 8F       		.byte	0x8f
 3893 01de 3E040000 		.4byte	0x43e
 3894 01e2 02       		.byte	0x2
 3895 01e3 23       		.byte	0x23
 3896 01e4 20       		.uleb128 0x20
 3897 01e5 07       		.uleb128 0x7
 3898 01e6 705F7500 		.ascii	"p_u\000"
 3899 01ea 07       		.byte	0x7
 3900 01eb B4       		.byte	0xb4
 3901 01ec FE040000 		.4byte	0x4fe
 3902 01f0 02       		.byte	0x2
 3903 01f1 23       		.byte	0x23
 3904 01f2 24       		.uleb128 0x24
 3905 01f3 06       		.uleb128 0x6
 3906 01f4 AE000000 		.4byte	.LASF39
 3907 01f8 07       		.byte	0x7
 3908 01f9 B9       		.byte	0xb9
ARM GAS  C:\Users\DNIEL~1\AppData\Local\Temp\cceiqNg0.s 			page 71


 3909 01fa A3020000 		.4byte	0x2a3
 3910 01fe 02       		.byte	0x2
 3911 01ff 23       		.byte	0x23
 3912 0200 28       		.uleb128 0x28
 3913 0201 06       		.uleb128 0x6
 3914 0202 81000000 		.4byte	.LASF40
 3915 0206 07       		.byte	0x7
 3916 0207 BF       		.byte	0xbf
 3917 0208 81020000 		.4byte	0x281
 3918 020c 02       		.byte	0x2
 3919 020d 23       		.byte	0x23
 3920 020e 2C       		.uleb128 0x2c
 3921 020f 06       		.uleb128 0x6
 3922 0210 04060000 		.4byte	.LASF41
 3923 0214 07       		.byte	0x7
 3924 0215 C3       		.byte	0xc3
 3925 0216 05010000 		.4byte	0x105
 3926 021a 02       		.byte	0x2
 3927 021b 23       		.byte	0x23
 3928 021c 34       		.uleb128 0x34
 3929 021d 06       		.uleb128 0x6
 3930 021e E6060000 		.4byte	.LASF42
 3931 0222 07       		.byte	0x7
 3932 0223 C9       		.byte	0xc9
 3933 0224 10010000 		.4byte	0x110
 3934 0228 02       		.byte	0x2
 3935 0229 23       		.byte	0x23
 3936 022a 38       		.uleb128 0x38
 3937 022b 06       		.uleb128 0x6
 3938 022c A7040000 		.4byte	.LASF43
 3939 0230 07       		.byte	0x7
 3940 0231 D0       		.byte	0xd0
 3941 0232 45050000 		.4byte	0x545
 3942 0236 02       		.byte	0x2
 3943 0237 23       		.byte	0x23
 3944 0238 3C       		.uleb128 0x3c
 3945 0239 06       		.uleb128 0x6
 3946 023a 1A060000 		.4byte	.LASF44
 3947 023e 07       		.byte	0x7
 3948 023f D4       		.byte	0xd4
 3949 0240 FA000000 		.4byte	0xfa
 3950 0244 02       		.byte	0x2
 3951 0245 23       		.byte	0x23
 3952 0246 40       		.uleb128 0x40
 3953 0247 06       		.uleb128 0x6
 3954 0248 95040000 		.4byte	.LASF45
 3955 024c 07       		.byte	0x7
 3956 024d DA       		.byte	0xda
 3957 024e B9020000 		.4byte	0x2b9
 3958 0252 02       		.byte	0x2
 3959 0253 23       		.byte	0x23
 3960 0254 44       		.uleb128 0x44
 3961 0255 00       		.byte	0x0
 3962 0256 08       		.uleb128 0x8
 3963 0257 08       		.byte	0x8
 3964 0258 06       		.byte	0x6
 3965 0259 61       		.byte	0x61
ARM GAS  C:\Users\DNIEL~1\AppData\Local\Temp\cceiqNg0.s 			page 72


 3966 025a 7B020000 		.4byte	0x27b
 3967 025e 06       		.uleb128 0x6
 3968 025f 60070000 		.4byte	.LASF27
 3969 0263 06       		.byte	0x6
 3970 0264 62       		.byte	0x62
 3971 0265 7B020000 		.4byte	0x27b
 3972 0269 02       		.byte	0x2
 3973 026a 23       		.byte	0x23
 3974 026b 00       		.uleb128 0x0
 3975 026c 06       		.uleb128 0x6
 3976 026d DE070000 		.4byte	.LASF28
 3977 0271 06       		.byte	0x6
 3978 0272 64       		.byte	0x64
 3979 0273 7B020000 		.4byte	0x27b
 3980 0277 02       		.byte	0x2
 3981 0278 23       		.byte	0x23
 3982 0279 04       		.uleb128 0x4
 3983 027a 00       		.byte	0x0
 3984 027b 09       		.uleb128 0x9
 3985 027c 04       		.byte	0x4
 3986 027d 26010000 		.4byte	0x126
 3987 0281 03       		.uleb128 0x3
 3988 0282 CC030000 		.4byte	.LASF46
 3989 0286 06       		.byte	0x6
 3990 0287 66       		.byte	0x66
 3991 0288 56020000 		.4byte	0x256
 3992 028c 08       		.uleb128 0x8
 3993 028d 04       		.byte	0x4
 3994 028e 06       		.byte	0x6
 3995 028f 6B       		.byte	0x6b
 3996 0290 A3020000 		.4byte	0x2a3
 3997 0294 06       		.uleb128 0x6
 3998 0295 60070000 		.4byte	.LASF27
 3999 0299 06       		.byte	0x6
 4000 029a 6D       		.byte	0x6d
 4001 029b 7B020000 		.4byte	0x27b
 4002 029f 02       		.byte	0x2
 4003 02a0 23       		.byte	0x23
 4004 02a1 00       		.uleb128 0x0
 4005 02a2 00       		.byte	0x0
 4006 02a3 03       		.uleb128 0x3
 4007 02a4 00000000 		.4byte	.LASF47
 4008 02a8 06       		.byte	0x6
 4009 02a9 70       		.byte	0x70
 4010 02aa 8C020000 		.4byte	0x28c
 4011 02ae 03       		.uleb128 0x3
 4012 02af 4D000000 		.4byte	.LASF48
 4013 02b3 08       		.byte	0x8
 4014 02b4 E5       		.byte	0xe5
 4015 02b5 B9020000 		.4byte	0x2b9
 4016 02b9 0A       		.uleb128 0xa
 4017 02ba 04       		.byte	0x4
 4018 02bb 03       		.uleb128 0x3
 4019 02bc 92080000 		.4byte	.LASF49
 4020 02c0 08       		.byte	0x8
 4021 02c1 EB       		.byte	0xeb
 4022 02c2 AA000000 		.4byte	0xaa
ARM GAS  C:\Users\DNIEL~1\AppData\Local\Temp\cceiqNg0.s 			page 73


 4023 02c6 0B       		.uleb128 0xb
 4024 02c7 A2060000 		.4byte	.LASF50
 4025 02cb 24       		.byte	0x24
 4026 02cc 08       		.byte	0x8
 4027 02cd 0C01     		.2byte	0x10c
 4028 02cf 54030000 		.4byte	0x354
 4029 02d3 0C       		.uleb128 0xc
 4030 02d4 723400   		.ascii	"r4\000"
 4031 02d7 08       		.byte	0x8
 4032 02d8 1F01     		.2byte	0x11f
 4033 02da AE020000 		.4byte	0x2ae
 4034 02de 02       		.byte	0x2
 4035 02df 23       		.byte	0x23
 4036 02e0 00       		.uleb128 0x0
 4037 02e1 0C       		.uleb128 0xc
 4038 02e2 723500   		.ascii	"r5\000"
 4039 02e5 08       		.byte	0x8
 4040 02e6 2001     		.2byte	0x120
 4041 02e8 AE020000 		.4byte	0x2ae
 4042 02ec 02       		.byte	0x2
 4043 02ed 23       		.byte	0x23
 4044 02ee 04       		.uleb128 0x4
 4045 02ef 0C       		.uleb128 0xc
 4046 02f0 723600   		.ascii	"r6\000"
 4047 02f3 08       		.byte	0x8
 4048 02f4 2101     		.2byte	0x121
 4049 02f6 AE020000 		.4byte	0x2ae
 4050 02fa 02       		.byte	0x2
 4051 02fb 23       		.byte	0x23
 4052 02fc 08       		.uleb128 0x8
 4053 02fd 0C       		.uleb128 0xc
 4054 02fe 723700   		.ascii	"r7\000"
 4055 0301 08       		.byte	0x8
 4056 0302 2201     		.2byte	0x122
 4057 0304 AE020000 		.4byte	0x2ae
 4058 0308 02       		.byte	0x2
 4059 0309 23       		.byte	0x23
 4060 030a 0C       		.uleb128 0xc
 4061 030b 0C       		.uleb128 0xc
 4062 030c 723800   		.ascii	"r8\000"
 4063 030f 08       		.byte	0x8
 4064 0310 2301     		.2byte	0x123
 4065 0312 AE020000 		.4byte	0x2ae
 4066 0316 02       		.byte	0x2
 4067 0317 23       		.byte	0x23
 4068 0318 10       		.uleb128 0x10
 4069 0319 0C       		.uleb128 0xc
 4070 031a 723900   		.ascii	"r9\000"
 4071 031d 08       		.byte	0x8
 4072 031e 2401     		.2byte	0x124
 4073 0320 AE020000 		.4byte	0x2ae
 4074 0324 02       		.byte	0x2
 4075 0325 23       		.byte	0x23
 4076 0326 14       		.uleb128 0x14
 4077 0327 0C       		.uleb128 0xc
 4078 0328 72313000 		.ascii	"r10\000"
 4079 032c 08       		.byte	0x8
ARM GAS  C:\Users\DNIEL~1\AppData\Local\Temp\cceiqNg0.s 			page 74


 4080 032d 2501     		.2byte	0x125
 4081 032f AE020000 		.4byte	0x2ae
 4082 0333 02       		.byte	0x2
 4083 0334 23       		.byte	0x23
 4084 0335 18       		.uleb128 0x18
 4085 0336 0C       		.uleb128 0xc
 4086 0337 72313100 		.ascii	"r11\000"
 4087 033b 08       		.byte	0x8
 4088 033c 2601     		.2byte	0x126
 4089 033e AE020000 		.4byte	0x2ae
 4090 0342 02       		.byte	0x2
 4091 0343 23       		.byte	0x23
 4092 0344 1C       		.uleb128 0x1c
 4093 0345 0C       		.uleb128 0xc
 4094 0346 6C7200   		.ascii	"lr\000"
 4095 0349 08       		.byte	0x8
 4096 034a 2701     		.2byte	0x127
 4097 034c AE020000 		.4byte	0x2ae
 4098 0350 02       		.byte	0x2
 4099 0351 23       		.byte	0x23
 4100 0352 20       		.uleb128 0x20
 4101 0353 00       		.byte	0x0
 4102 0354 0B       		.uleb128 0xb
 4103 0355 41050000 		.4byte	.LASF51
 4104 0359 04       		.byte	0x4
 4105 035a 08       		.byte	0x8
 4106 035b 3101     		.2byte	0x131
 4107 035d 71030000 		.4byte	0x371
 4108 0361 0C       		.uleb128 0xc
 4109 0362 72313300 		.ascii	"r13\000"
 4110 0366 08       		.byte	0x8
 4111 0367 3201     		.2byte	0x132
 4112 0369 71030000 		.4byte	0x371
 4113 036d 02       		.byte	0x2
 4114 036e 23       		.byte	0x23
 4115 036f 00       		.uleb128 0x0
 4116 0370 00       		.byte	0x0
 4117 0371 09       		.uleb128 0x9
 4118 0372 04       		.byte	0x4
 4119 0373 C6020000 		.4byte	0x2c6
 4120 0377 0D       		.uleb128 0xd
 4121 0378 91000000 		.4byte	0x91
 4122 037c 03       		.uleb128 0x3
 4123 037d 0C000000 		.4byte	.LASF52
 4124 0381 09       		.byte	0x9
 4125 0382 58       		.byte	0x58
 4126 0383 87030000 		.4byte	0x387
 4127 0387 09       		.uleb128 0x9
 4128 0388 04       		.byte	0x4
 4129 0389 8D030000 		.4byte	0x38d
 4130 038d 0E       		.uleb128 0xe
 4131 038e 01       		.byte	0x1
 4132 038f 99030000 		.4byte	0x399
 4133 0393 0F       		.uleb128 0xf
 4134 0394 B9020000 		.4byte	0x2b9
 4135 0398 00       		.byte	0x0
 4136 0399 03       		.uleb128 0x3
ARM GAS  C:\Users\DNIEL~1\AppData\Local\Temp\cceiqNg0.s 			page 75


 4137 039a 88070000 		.4byte	.LASF53
 4138 039e 09       		.byte	0x9
 4139 039f 5D       		.byte	0x5d
 4140 03a0 A4030000 		.4byte	0x3a4
 4141 03a4 05       		.uleb128 0x5
 4142 03a5 88070000 		.4byte	.LASF53
 4143 03a9 14       		.byte	0x14
 4144 03aa 09       		.byte	0x9
 4145 03ab 64       		.byte	0x64
 4146 03ac F7030000 		.4byte	0x3f7
 4147 03b0 06       		.uleb128 0x6
 4148 03b1 B7080000 		.4byte	.LASF54
 4149 03b5 09       		.byte	0x9
 4150 03b6 65       		.byte	0x65
 4151 03b7 F7030000 		.4byte	0x3f7
 4152 03bb 02       		.byte	0x2
 4153 03bc 23       		.byte	0x23
 4154 03bd 00       		.uleb128 0x0
 4155 03be 06       		.uleb128 0x6
 4156 03bf 98090000 		.4byte	.LASF55
 4157 03c3 09       		.byte	0x9
 4158 03c4 67       		.byte	0x67
 4159 03c5 F7030000 		.4byte	0x3f7
 4160 03c9 02       		.byte	0x2
 4161 03ca 23       		.byte	0x23
 4162 03cb 04       		.uleb128 0x4
 4163 03cc 06       		.uleb128 0x6
 4164 03cd 96010000 		.4byte	.LASF56
 4165 03d1 09       		.byte	0x9
 4166 03d2 69       		.byte	0x69
 4167 03d3 1B010000 		.4byte	0x11b
 4168 03d7 02       		.byte	0x2
 4169 03d8 23       		.byte	0x23
 4170 03d9 08       		.uleb128 0x8
 4171 03da 06       		.uleb128 0x6
 4172 03db 78090000 		.4byte	.LASF57
 4173 03df 09       		.byte	0x9
 4174 03e0 6A       		.byte	0x6a
 4175 03e1 7C030000 		.4byte	0x37c
 4176 03e5 02       		.byte	0x2
 4177 03e6 23       		.byte	0x23
 4178 03e7 0C       		.uleb128 0xc
 4179 03e8 06       		.uleb128 0x6
 4180 03e9 DA010000 		.4byte	.LASF58
 4181 03ed 09       		.byte	0x9
 4182 03ee 6C       		.byte	0x6c
 4183 03ef B9020000 		.4byte	0x2b9
 4184 03f3 02       		.byte	0x2
 4185 03f4 23       		.byte	0x23
 4186 03f5 10       		.uleb128 0x10
 4187 03f6 00       		.byte	0x0
 4188 03f7 09       		.uleb128 0x9
 4189 03f8 04       		.byte	0x4
 4190 03f9 99030000 		.4byte	0x399
 4191 03fd 08       		.uleb128 0x8
 4192 03fe 10       		.byte	0x10
 4193 03ff 09       		.byte	0x9
ARM GAS  C:\Users\DNIEL~1\AppData\Local\Temp\cceiqNg0.s 			page 76


 4194 0400 76       		.byte	0x76
 4195 0401 3E040000 		.4byte	0x43e
 4196 0405 06       		.uleb128 0x6
 4197 0406 B7080000 		.4byte	.LASF54
 4198 040a 09       		.byte	0x9
 4199 040b 77       		.byte	0x77
 4200 040c F7030000 		.4byte	0x3f7
 4201 0410 02       		.byte	0x2
 4202 0411 23       		.byte	0x23
 4203 0412 00       		.uleb128 0x0
 4204 0413 06       		.uleb128 0x6
 4205 0414 98090000 		.4byte	.LASF55
 4206 0418 09       		.byte	0x9
 4207 0419 79       		.byte	0x79
 4208 041a F7030000 		.4byte	0x3f7
 4209 041e 02       		.byte	0x2
 4210 041f 23       		.byte	0x23
 4211 0420 04       		.uleb128 0x4
 4212 0421 06       		.uleb128 0x6
 4213 0422 96010000 		.4byte	.LASF56
 4214 0426 09       		.byte	0x9
 4215 0427 7B       		.byte	0x7b
 4216 0428 1B010000 		.4byte	0x11b
 4217 042c 02       		.byte	0x2
 4218 042d 23       		.byte	0x23
 4219 042e 08       		.uleb128 0x8
 4220 042f 06       		.uleb128 0x6
 4221 0430 76000000 		.4byte	.LASF59
 4222 0434 09       		.byte	0x9
 4223 0435 7C       		.byte	0x7c
 4224 0436 3E040000 		.4byte	0x43e
 4225 043a 02       		.byte	0x2
 4226 043b 23       		.byte	0x23
 4227 043c 0C       		.uleb128 0xc
 4228 043d 00       		.byte	0x0
 4229 043e 0D       		.uleb128 0xd
 4230 043f 1B010000 		.4byte	0x11b
 4231 0443 03       		.uleb128 0x3
 4232 0444 26040000 		.4byte	.LASF60
 4233 0448 09       		.byte	0x9
 4234 0449 7D       		.byte	0x7d
 4235 044a FD030000 		.4byte	0x3fd
 4236 044e 08       		.uleb128 0x8
 4237 044f 1C       		.byte	0x1c
 4238 0450 0A       		.byte	0xa
 4239 0451 5E       		.byte	0x5e
 4240 0452 AB040000 		.4byte	0x4ab
 4241 0456 06       		.uleb128 0x6
 4242 0457 F8040000 		.4byte	.LASF61
 4243 045b 0A       		.byte	0xa
 4244 045c 5F       		.byte	0x5f
 4245 045d 81020000 		.4byte	0x281
 4246 0461 02       		.byte	0x2
 4247 0462 23       		.byte	0x23
 4248 0463 00       		.uleb128 0x0
 4249 0464 06       		.uleb128 0x6
 4250 0465 D3010000 		.4byte	.LASF62
ARM GAS  C:\Users\DNIEL~1\AppData\Local\Temp\cceiqNg0.s 			page 77


 4251 0469 0A       		.byte	0xa
 4252 046a 60       		.byte	0x60
 4253 046b FA000000 		.4byte	0xfa
 4254 046f 02       		.byte	0x2
 4255 0470 23       		.byte	0x23
 4256 0471 08       		.uleb128 0x8
 4257 0472 06       		.uleb128 0x6
 4258 0473 51090000 		.4byte	.LASF63
 4259 0477 0A       		.byte	0xa
 4260 0478 62       		.byte	0x62
 4261 0479 54030000 		.4byte	0x354
 4262 047d 02       		.byte	0x2
 4263 047e 23       		.byte	0x23
 4264 047f 0C       		.uleb128 0xc
 4265 0480 06       		.uleb128 0x6
 4266 0481 04040000 		.4byte	.LASF64
 4267 0485 0A       		.byte	0xa
 4268 0486 65       		.byte	0x65
 4269 0487 7B020000 		.4byte	0x27b
 4270 048b 02       		.byte	0x2
 4271 048c 23       		.byte	0x23
 4272 048d 10       		.uleb128 0x10
 4273 048e 06       		.uleb128 0x6
 4274 048f D6050000 		.4byte	.LASF65
 4275 0493 0A       		.byte	0xa
 4276 0494 66       		.byte	0x66
 4277 0495 7B020000 		.4byte	0x27b
 4278 0499 02       		.byte	0x2
 4279 049a 23       		.byte	0x23
 4280 049b 14       		.uleb128 0x14
 4281 049c 06       		.uleb128 0x6
 4282 049d DC060000 		.4byte	.LASF66
 4283 04a1 0A       		.byte	0xa
 4284 04a2 69       		.byte	0x69
 4285 04a3 7B020000 		.4byte	0x27b
 4286 04a7 02       		.byte	0x2
 4287 04a8 23       		.byte	0x23
 4288 04a9 18       		.uleb128 0x18
 4289 04aa 00       		.byte	0x0
 4290 04ab 03       		.uleb128 0x3
 4291 04ac 46080000 		.4byte	.LASF67
 4292 04b0 0A       		.byte	0xa
 4293 04b1 6B       		.byte	0x6b
 4294 04b2 4E040000 		.4byte	0x44e
 4295 04b6 05       		.uleb128 0x5
 4296 04b7 80030000 		.4byte	.LASF68
 4297 04bb 10       		.byte	0x10
 4298 04bc 0B       		.byte	0xb
 4299 04bd 2C       		.byte	0x2c
 4300 04be ED040000 		.4byte	0x4ed
 4301 04c2 06       		.uleb128 0x6
 4302 04c3 8E010000 		.4byte	.LASF69
 4303 04c7 0B       		.byte	0xb
 4304 04c8 2D       		.byte	0x2d
 4305 04c9 81020000 		.4byte	0x281
 4306 04cd 02       		.byte	0x2
 4307 04ce 23       		.byte	0x23
ARM GAS  C:\Users\DNIEL~1\AppData\Local\Temp\cceiqNg0.s 			page 78


 4308 04cf 00       		.uleb128 0x0
 4309 04d0 06       		.uleb128 0x6
 4310 04d1 150A0000 		.4byte	.LASF70
 4311 04d5 0B       		.byte	0xb
 4312 04d6 2F       		.byte	0x2f
 4313 04d7 7B020000 		.4byte	0x27b
 4314 04db 02       		.byte	0x2
 4315 04dc 23       		.byte	0x23
 4316 04dd 08       		.uleb128 0x8
 4317 04de 06       		.uleb128 0x6
 4318 04df 09090000 		.4byte	.LASF71
 4319 04e3 0B       		.byte	0xb
 4320 04e4 31       		.byte	0x31
 4321 04e5 ED040000 		.4byte	0x4ed
 4322 04e9 02       		.byte	0x2
 4323 04ea 23       		.byte	0x23
 4324 04eb 0C       		.uleb128 0xc
 4325 04ec 00       		.byte	0x0
 4326 04ed 09       		.uleb128 0x9
 4327 04ee 04       		.byte	0x4
 4328 04ef B6040000 		.4byte	0x4b6
 4329 04f3 03       		.uleb128 0x3
 4330 04f4 80030000 		.4byte	.LASF68
 4331 04f8 0B       		.byte	0xb
 4332 04f9 33       		.byte	0x33
 4333 04fa B6040000 		.4byte	0x4b6
 4334 04fe 10       		.uleb128 0x10
 4335 04ff 04       		.byte	0x4
 4336 0500 07       		.byte	0x7
 4337 0501 96       		.byte	0x96
 4338 0502 33050000 		.4byte	0x533
 4339 0506 11       		.uleb128 0x11
 4340 0507 1E030000 		.4byte	.LASF72
 4341 050b 07       		.byte	0x7
 4342 050c 9D       		.byte	0x9d
 4343 050d 05010000 		.4byte	0x105
 4344 0511 11       		.uleb128 0x11
 4345 0512 CF090000 		.4byte	.LASF73
 4346 0516 07       		.byte	0x7
 4347 0517 A4       		.byte	0xa4
 4348 0518 05010000 		.4byte	0x105
 4349 051c 11       		.uleb128 0x11
 4350 051d F7000000 		.4byte	.LASF74
 4351 0521 07       		.byte	0x7
 4352 0522 AB       		.byte	0xab
 4353 0523 B9020000 		.4byte	0x2b9
 4354 0527 11       		.uleb128 0x11
 4355 0528 B0080000 		.4byte	.LASF75
 4356 052c 07       		.byte	0x7
 4357 052d B2       		.byte	0xb2
 4358 052e 10010000 		.4byte	0x110
 4359 0532 00       		.byte	0x0
 4360 0533 09       		.uleb128 0x9
 4361 0534 04       		.byte	0x4
 4362 0535 39050000 		.4byte	0x539
 4363 0539 12       		.uleb128 0x12
 4364 053a 3E050000 		.4byte	0x53e
ARM GAS  C:\Users\DNIEL~1\AppData\Local\Temp\cceiqNg0.s 			page 79


 4365 053e 04       		.uleb128 0x4
 4366 053f 01       		.byte	0x1
 4367 0540 08       		.byte	0x8
 4368 0541 E5030000 		.4byte	.LASF76
 4369 0545 09       		.uleb128 0x9
 4370 0546 04       		.byte	0x4
 4371 0547 F3040000 		.4byte	0x4f3
 4372 054b 09       		.uleb128 0x9
 4373 054c 04       		.byte	0x4
 4374 054d 51050000 		.4byte	0x551
 4375 0551 13       		.uleb128 0x13
 4376 0552 01       		.byte	0x1
 4377 0553 05010000 		.4byte	0x105
 4378 0557 61050000 		.4byte	0x561
 4379 055b 0F       		.uleb128 0xf
 4380 055c B9020000 		.4byte	0x2b9
 4381 0560 00       		.byte	0x0
 4382 0561 09       		.uleb128 0x9
 4383 0562 04       		.byte	0x4
 4384 0563 49000000 		.4byte	0x49
 4385 0567 05       		.uleb128 0x5
 4386 0568 B8000000 		.4byte	.LASF77
 4387 056c 10       		.byte	0x10
 4388 056d 0C       		.byte	0xc
 4389 056e 48       		.byte	0x48
 4390 056f AC050000 		.4byte	0x5ac
 4391 0573 06       		.uleb128 0x6
 4392 0574 F2040000 		.4byte	.LASF78
 4393 0578 0C       		.byte	0xc
 4394 0579 49       		.byte	0x49
 4395 057a D1050000 		.4byte	0x5d1
 4396 057e 02       		.byte	0x2
 4397 057f 23       		.byte	0x23
 4398 0580 00       		.uleb128 0x0
 4399 0581 06       		.uleb128 0x6
 4400 0582 A4070000 		.4byte	.LASF79
 4401 0586 0C       		.byte	0xc
 4402 0587 49       		.byte	0x49
 4403 0588 F1050000 		.4byte	0x5f1
 4404 058c 02       		.byte	0x2
 4405 058d 23       		.byte	0x23
 4406 058e 04       		.uleb128 0x4
 4407 058f 07       		.uleb128 0x7
 4408 0590 70757400 		.ascii	"put\000"
 4409 0594 0C       		.byte	0xc
 4410 0595 49       		.byte	0x49
 4411 0596 0C060000 		.4byte	0x60c
 4412 059a 02       		.byte	0x2
 4413 059b 23       		.byte	0x23
 4414 059c 08       		.uleb128 0x8
 4415 059d 07       		.uleb128 0x7
 4416 059e 67657400 		.ascii	"get\000"
 4417 05a2 0C       		.byte	0xc
 4418 05a3 49       		.byte	0x49
 4419 05a4 4B050000 		.4byte	0x54b
 4420 05a8 02       		.byte	0x2
 4421 05a9 23       		.byte	0x23
ARM GAS  C:\Users\DNIEL~1\AppData\Local\Temp\cceiqNg0.s 			page 80


 4422 05aa 0C       		.uleb128 0xc
 4423 05ab 00       		.byte	0x0
 4424 05ac 13       		.uleb128 0x13
 4425 05ad 01       		.byte	0x1
 4426 05ae 30000000 		.4byte	0x30
 4427 05b2 C6050000 		.4byte	0x5c6
 4428 05b6 0F       		.uleb128 0xf
 4429 05b7 B9020000 		.4byte	0x2b9
 4430 05bb 0F       		.uleb128 0xf
 4431 05bc C6050000 		.4byte	0x5c6
 4432 05c0 0F       		.uleb128 0xf
 4433 05c1 30000000 		.4byte	0x30
 4434 05c5 00       		.byte	0x0
 4435 05c6 09       		.uleb128 0x9
 4436 05c7 04       		.byte	0x4
 4437 05c8 CC050000 		.4byte	0x5cc
 4438 05cc 12       		.uleb128 0x12
 4439 05cd 49000000 		.4byte	0x49
 4440 05d1 09       		.uleb128 0x9
 4441 05d2 04       		.byte	0x4
 4442 05d3 AC050000 		.4byte	0x5ac
 4443 05d7 13       		.uleb128 0x13
 4444 05d8 01       		.byte	0x1
 4445 05d9 30000000 		.4byte	0x30
 4446 05dd F1050000 		.4byte	0x5f1
 4447 05e1 0F       		.uleb128 0xf
 4448 05e2 B9020000 		.4byte	0x2b9
 4449 05e6 0F       		.uleb128 0xf
 4450 05e7 61050000 		.4byte	0x561
 4451 05eb 0F       		.uleb128 0xf
 4452 05ec 30000000 		.4byte	0x30
 4453 05f0 00       		.byte	0x0
 4454 05f1 09       		.uleb128 0x9
 4455 05f2 04       		.byte	0x4
 4456 05f3 D7050000 		.4byte	0x5d7
 4457 05f7 13       		.uleb128 0x13
 4458 05f8 01       		.byte	0x1
 4459 05f9 05010000 		.4byte	0x105
 4460 05fd 0C060000 		.4byte	0x60c
 4461 0601 0F       		.uleb128 0xf
 4462 0602 B9020000 		.4byte	0x2b9
 4463 0606 0F       		.uleb128 0xf
 4464 0607 49000000 		.4byte	0x49
 4465 060b 00       		.byte	0x0
 4466 060c 09       		.uleb128 0x9
 4467 060d 04       		.byte	0x4
 4468 060e F7050000 		.4byte	0x5f7
 4469 0612 08       		.uleb128 0x8
 4470 0613 04       		.byte	0x4
 4471 0614 0C       		.byte	0xc
 4472 0615 51       		.byte	0x51
 4473 0616 29060000 		.4byte	0x629
 4474 061a 07       		.uleb128 0x7
 4475 061b 766D7400 		.ascii	"vmt\000"
 4476 061f 0C       		.byte	0xc
 4477 0620 53       		.byte	0x53
 4478 0621 29060000 		.4byte	0x629
ARM GAS  C:\Users\DNIEL~1\AppData\Local\Temp\cceiqNg0.s 			page 81


 4479 0625 02       		.byte	0x2
 4480 0626 23       		.byte	0x23
 4481 0627 00       		.uleb128 0x0
 4482 0628 00       		.byte	0x0
 4483 0629 09       		.uleb128 0x9
 4484 062a 04       		.byte	0x4
 4485 062b 2F060000 		.4byte	0x62f
 4486 062f 12       		.uleb128 0x12
 4487 0630 67050000 		.4byte	0x567
 4488 0634 03       		.uleb128 0x3
 4489 0635 B7030000 		.4byte	.LASF80
 4490 0639 0C       		.byte	0xc
 4491 063a 55       		.byte	0x55
 4492 063b 12060000 		.4byte	0x612
 4493 063f 0D       		.uleb128 0xd
 4494 0640 7F000000 		.4byte	0x7f
 4495 0644 05       		.uleb128 0x5
 4496 0645 62010000 		.4byte	.LASF81
 4497 0649 20       		.byte	0x20
 4498 064a 0D       		.byte	0xd
 4499 064b 4E       		.byte	0x4e
 4500 064c C1060000 		.4byte	0x6c1
 4501 0650 06       		.uleb128 0x6
 4502 0651 F2040000 		.4byte	.LASF78
 4503 0655 0D       		.byte	0xd
 4504 0656 4F       		.byte	0x4f
 4505 0657 D1050000 		.4byte	0x5d1
 4506 065b 02       		.byte	0x2
 4507 065c 23       		.byte	0x23
 4508 065d 00       		.uleb128 0x0
 4509 065e 06       		.uleb128 0x6
 4510 065f A4070000 		.4byte	.LASF79
 4511 0663 0D       		.byte	0xd
 4512 0664 4F       		.byte	0x4f
 4513 0665 F1050000 		.4byte	0x5f1
 4514 0669 02       		.byte	0x2
 4515 066a 23       		.byte	0x23
 4516 066b 04       		.uleb128 0x4
 4517 066c 07       		.uleb128 0x7
 4518 066d 70757400 		.ascii	"put\000"
 4519 0671 0D       		.byte	0xd
 4520 0672 4F       		.byte	0x4f
 4521 0673 0C060000 		.4byte	0x60c
 4522 0677 02       		.byte	0x2
 4523 0678 23       		.byte	0x23
 4524 0679 08       		.uleb128 0x8
 4525 067a 07       		.uleb128 0x7
 4526 067b 67657400 		.ascii	"get\000"
 4527 067f 0D       		.byte	0xd
 4528 0680 4F       		.byte	0x4f
 4529 0681 4B050000 		.4byte	0x54b
 4530 0685 02       		.byte	0x2
 4531 0686 23       		.byte	0x23
 4532 0687 0C       		.uleb128 0xc
 4533 0688 06       		.uleb128 0x6
 4534 0689 06030000 		.4byte	.LASF82
 4535 068d 0D       		.byte	0xd
ARM GAS  C:\Users\DNIEL~1\AppData\Local\Temp\cceiqNg0.s 			page 82


 4536 068e 4F       		.byte	0x4f
 4537 068f DB060000 		.4byte	0x6db
 4538 0693 02       		.byte	0x2
 4539 0694 23       		.byte	0x23
 4540 0695 10       		.uleb128 0x10
 4541 0696 06       		.uleb128 0x6
 4542 0697 67000000 		.4byte	.LASF83
 4543 069b 0D       		.byte	0xd
 4544 069c 4F       		.byte	0x4f
 4545 069d F6060000 		.4byte	0x6f6
 4546 06a1 02       		.byte	0x2
 4547 06a2 23       		.byte	0x23
 4548 06a3 14       		.uleb128 0x14
 4549 06a4 06       		.uleb128 0x6
 4550 06a5 5B010000 		.4byte	.LASF84
 4551 06a9 0D       		.byte	0xd
 4552 06aa 4F       		.byte	0x4f
 4553 06ab 1B070000 		.4byte	0x71b
 4554 06af 02       		.byte	0x2
 4555 06b0 23       		.byte	0x23
 4556 06b1 18       		.uleb128 0x18
 4557 06b2 06       		.uleb128 0x6
 4558 06b3 3C090000 		.4byte	.LASF85
 4559 06b7 0D       		.byte	0xd
 4560 06b8 4F       		.byte	0x4f
 4561 06b9 40070000 		.4byte	0x740
 4562 06bd 02       		.byte	0x2
 4563 06be 23       		.byte	0x23
 4564 06bf 1C       		.uleb128 0x1c
 4565 06c0 00       		.byte	0x0
 4566 06c1 13       		.uleb128 0x13
 4567 06c2 01       		.byte	0x1
 4568 06c3 05010000 		.4byte	0x105
 4569 06c7 DB060000 		.4byte	0x6db
 4570 06cb 0F       		.uleb128 0xf
 4571 06cc B9020000 		.4byte	0x2b9
 4572 06d0 0F       		.uleb128 0xf
 4573 06d1 49000000 		.4byte	0x49
 4574 06d5 0F       		.uleb128 0xf
 4575 06d6 1B010000 		.4byte	0x11b
 4576 06da 00       		.byte	0x0
 4577 06db 09       		.uleb128 0x9
 4578 06dc 04       		.byte	0x4
 4579 06dd C1060000 		.4byte	0x6c1
 4580 06e1 13       		.uleb128 0x13
 4581 06e2 01       		.byte	0x1
 4582 06e3 05010000 		.4byte	0x105
 4583 06e7 F6060000 		.4byte	0x6f6
 4584 06eb 0F       		.uleb128 0xf
 4585 06ec B9020000 		.4byte	0x2b9
 4586 06f0 0F       		.uleb128 0xf
 4587 06f1 1B010000 		.4byte	0x11b
 4588 06f5 00       		.byte	0x0
 4589 06f6 09       		.uleb128 0x9
 4590 06f7 04       		.byte	0x4
 4591 06f8 E1060000 		.4byte	0x6e1
 4592 06fc 13       		.uleb128 0x13
ARM GAS  C:\Users\DNIEL~1\AppData\Local\Temp\cceiqNg0.s 			page 83


 4593 06fd 01       		.byte	0x1
 4594 06fe 30000000 		.4byte	0x30
 4595 0702 1B070000 		.4byte	0x71b
 4596 0706 0F       		.uleb128 0xf
 4597 0707 B9020000 		.4byte	0x2b9
 4598 070b 0F       		.uleb128 0xf
 4599 070c C6050000 		.4byte	0x5c6
 4600 0710 0F       		.uleb128 0xf
 4601 0711 30000000 		.4byte	0x30
 4602 0715 0F       		.uleb128 0xf
 4603 0716 1B010000 		.4byte	0x11b
 4604 071a 00       		.byte	0x0
 4605 071b 09       		.uleb128 0x9
 4606 071c 04       		.byte	0x4
 4607 071d FC060000 		.4byte	0x6fc
 4608 0721 13       		.uleb128 0x13
 4609 0722 01       		.byte	0x1
 4610 0723 30000000 		.4byte	0x30
 4611 0727 40070000 		.4byte	0x740
 4612 072b 0F       		.uleb128 0xf
 4613 072c B9020000 		.4byte	0x2b9
 4614 0730 0F       		.uleb128 0xf
 4615 0731 61050000 		.4byte	0x561
 4616 0735 0F       		.uleb128 0xf
 4617 0736 30000000 		.4byte	0x30
 4618 073a 0F       		.uleb128 0xf
 4619 073b 1B010000 		.4byte	0x11b
 4620 073f 00       		.byte	0x0
 4621 0740 09       		.uleb128 0x9
 4622 0741 04       		.byte	0x4
 4623 0742 21070000 		.4byte	0x721
 4624 0746 08       		.uleb128 0x8
 4625 0747 04       		.byte	0x4
 4626 0748 0D       		.byte	0xd
 4627 0749 59       		.byte	0x59
 4628 074a 5D070000 		.4byte	0x75d
 4629 074e 07       		.uleb128 0x7
 4630 074f 766D7400 		.ascii	"vmt\000"
 4631 0753 0D       		.byte	0xd
 4632 0754 5B       		.byte	0x5b
 4633 0755 5D070000 		.4byte	0x75d
 4634 0759 02       		.byte	0x2
 4635 075a 23       		.byte	0x23
 4636 075b 00       		.uleb128 0x0
 4637 075c 00       		.byte	0x0
 4638 075d 09       		.uleb128 0x9
 4639 075e 04       		.byte	0x4
 4640 075f 63070000 		.4byte	0x763
 4641 0763 12       		.uleb128 0x12
 4642 0764 44060000 		.4byte	0x644
 4643 0768 03       		.uleb128 0x3
 4644 0769 72040000 		.4byte	.LASF86
 4645 076d 0D       		.byte	0xd
 4646 076e 5D       		.byte	0x5d
 4647 076f 46070000 		.4byte	0x746
 4648 0773 08       		.uleb128 0x8
 4649 0774 04       		.byte	0x4
ARM GAS  C:\Users\DNIEL~1\AppData\Local\Temp\cceiqNg0.s 			page 84


 4650 0775 0E       		.byte	0xe
 4651 0776 96       		.byte	0x96
 4652 0777 98070000 		.4byte	0x798
 4653 077b 07       		.uleb128 0x7
 4654 077c 73657400 		.ascii	"set\000"
 4655 0780 0E       		.byte	0xe
 4656 0781 97       		.byte	0x97
 4657 0782 6D000000 		.4byte	0x6d
 4658 0786 02       		.byte	0x2
 4659 0787 23       		.byte	0x23
 4660 0788 00       		.uleb128 0x0
 4661 0789 06       		.uleb128 0x6
 4662 078a B4020000 		.4byte	.LASF87
 4663 078e 0E       		.byte	0xe
 4664 078f 98       		.byte	0x98
 4665 0790 6D000000 		.4byte	0x6d
 4666 0794 02       		.byte	0x2
 4667 0795 23       		.byte	0x23
 4668 0796 02       		.uleb128 0x2
 4669 0797 00       		.byte	0x0
 4670 0798 10       		.uleb128 0x10
 4671 0799 04       		.byte	0x4
 4672 079a 0E       		.byte	0xe
 4673 079b 94       		.byte	0x94
 4674 079c B3070000 		.4byte	0x7b3
 4675 07a0 14       		.uleb128 0x14
 4676 07a1 5700     		.ascii	"W\000"
 4677 07a3 0E       		.byte	0xe
 4678 07a4 95       		.byte	0x95
 4679 07a5 91000000 		.4byte	0x91
 4680 07a9 14       		.uleb128 0x14
 4681 07aa 4800     		.ascii	"H\000"
 4682 07ac 0E       		.byte	0xe
 4683 07ad 99       		.byte	0x99
 4684 07ae 73070000 		.4byte	0x773
 4685 07b2 00       		.byte	0x0
 4686 07b3 08       		.uleb128 0x8
 4687 07b4 28       		.byte	0x28
 4688 07b5 0E       		.byte	0xe
 4689 07b6 8C       		.byte	0x8c
 4690 07b7 48080000 		.4byte	0x848
 4691 07bb 06       		.uleb128 0x6
 4692 07bc 48030000 		.4byte	.LASF88
 4693 07c0 0E       		.byte	0xe
 4694 07c1 8E       		.byte	0x8e
 4695 07c2 77030000 		.4byte	0x377
 4696 07c6 02       		.byte	0x2
 4697 07c7 23       		.byte	0x23
 4698 07c8 00       		.uleb128 0x0
 4699 07c9 06       		.uleb128 0x6
 4700 07ca 59070000 		.4byte	.LASF89
 4701 07ce 0E       		.byte	0xe
 4702 07cf 8F       		.byte	0x8f
 4703 07d0 77030000 		.4byte	0x377
 4704 07d4 02       		.byte	0x2
 4705 07d5 23       		.byte	0x23
 4706 07d6 04       		.uleb128 0x4
ARM GAS  C:\Users\DNIEL~1\AppData\Local\Temp\cceiqNg0.s 			page 85


 4707 07d7 06       		.uleb128 0x6
 4708 07d8 25060000 		.4byte	.LASF90
 4709 07dc 0E       		.byte	0xe
 4710 07dd 90       		.byte	0x90
 4711 07de 77030000 		.4byte	0x377
 4712 07e2 02       		.byte	0x2
 4713 07e3 23       		.byte	0x23
 4714 07e4 08       		.uleb128 0x8
 4715 07e5 06       		.uleb128 0x6
 4716 07e6 9E030000 		.4byte	.LASF91
 4717 07ea 0E       		.byte	0xe
 4718 07eb 91       		.byte	0x91
 4719 07ec 77030000 		.4byte	0x377
 4720 07f0 02       		.byte	0x2
 4721 07f1 23       		.byte	0x23
 4722 07f2 0C       		.uleb128 0xc
 4723 07f3 07       		.uleb128 0x7
 4724 07f4 49445200 		.ascii	"IDR\000"
 4725 07f8 0E       		.byte	0xe
 4726 07f9 92       		.byte	0x92
 4727 07fa 77030000 		.4byte	0x377
 4728 07fe 02       		.byte	0x2
 4729 07ff 23       		.byte	0x23
 4730 0800 10       		.uleb128 0x10
 4731 0801 07       		.uleb128 0x7
 4732 0802 4F445200 		.ascii	"ODR\000"
 4733 0806 0E       		.byte	0xe
 4734 0807 93       		.byte	0x93
 4735 0808 77030000 		.4byte	0x377
 4736 080c 02       		.byte	0x2
 4737 080d 23       		.byte	0x23
 4738 080e 14       		.uleb128 0x14
 4739 080f 06       		.uleb128 0x6
 4740 0810 48000000 		.4byte	.LASF92
 4741 0814 0E       		.byte	0xe
 4742 0815 9A       		.byte	0x9a
 4743 0816 48080000 		.4byte	0x848
 4744 081a 02       		.byte	0x2
 4745 081b 23       		.byte	0x23
 4746 081c 18       		.uleb128 0x18
 4747 081d 06       		.uleb128 0x6
 4748 081e FE090000 		.4byte	.LASF93
 4749 0822 0E       		.byte	0xe
 4750 0823 9B       		.byte	0x9b
 4751 0824 77030000 		.4byte	0x377
 4752 0828 02       		.byte	0x2
 4753 0829 23       		.byte	0x23
 4754 082a 1C       		.uleb128 0x1c
 4755 082b 06       		.uleb128 0x6
 4756 082c 88020000 		.4byte	.LASF94
 4757 0830 0E       		.byte	0xe
 4758 0831 9C       		.byte	0x9c
 4759 0832 77030000 		.4byte	0x377
 4760 0836 02       		.byte	0x2
 4761 0837 23       		.byte	0x23
 4762 0838 20       		.uleb128 0x20
 4763 0839 06       		.uleb128 0x6
ARM GAS  C:\Users\DNIEL~1\AppData\Local\Temp\cceiqNg0.s 			page 86


 4764 083a 12080000 		.4byte	.LASF95
 4765 083e 0E       		.byte	0xe
 4766 083f 9D       		.byte	0x9d
 4767 0840 77030000 		.4byte	0x377
 4768 0844 02       		.byte	0x2
 4769 0845 23       		.byte	0x23
 4770 0846 24       		.uleb128 0x24
 4771 0847 00       		.byte	0x0
 4772 0848 0D       		.uleb128 0xd
 4773 0849 98070000 		.4byte	0x798
 4774 084d 03       		.uleb128 0x3
 4775 084e BA070000 		.4byte	.LASF96
 4776 0852 0E       		.byte	0xe
 4777 0853 9E       		.byte	0x9e
 4778 0854 B3070000 		.4byte	0x7b3
 4779 0858 15       		.uleb128 0x15
 4780 0859 58030000 		.4byte	.LASF105
 4781 085d 01       		.byte	0x1
 4782 085e 0F       		.byte	0xf
 4783 085f 0C       		.byte	0xc
 4784 0860 95080000 		.4byte	0x895
 4785 0864 16       		.uleb128 0x16
 4786 0865 CB080000 		.4byte	.LASF97
 4787 0869 00       		.sleb128 0
 4788 086a 16       		.uleb128 0x16
 4789 086b 40040000 		.4byte	.LASF98
 4790 086f 01       		.sleb128 1
 4791 0870 16       		.uleb128 0x16
 4792 0871 55040000 		.4byte	.LASF99
 4793 0875 02       		.sleb128 2
 4794 0876 16       		.uleb128 0x16
 4795 0877 E5050000 		.4byte	.LASF100
 4796 087b 03       		.sleb128 3
 4797 087c 16       		.uleb128 0x16
 4798 087d 8D020000 		.4byte	.LASF101
 4799 0881 04       		.sleb128 4
 4800 0882 16       		.uleb128 0x16
 4801 0883 9D040000 		.4byte	.LASF102
 4802 0887 05       		.sleb128 5
 4803 0888 16       		.uleb128 0x16
 4804 0889 F4090000 		.4byte	.LASF103
 4805 088d 06       		.sleb128 6
 4806 088e 16       		.uleb128 0x16
 4807 088f BF080000 		.4byte	.LASF104
 4808 0893 07       		.sleb128 7
 4809 0894 00       		.byte	0x0
 4810 0895 15       		.uleb128 0x15
 4811 0896 71010000 		.4byte	.LASF106
 4812 089a 01       		.byte	0x1
 4813 089b 0F       		.byte	0xf
 4814 089c 18       		.byte	0x18
 4815 089d BA080000 		.4byte	0x8ba
 4816 08a1 16       		.uleb128 0x16
 4817 08a2 7C070000 		.4byte	.LASF107
 4818 08a6 00       		.sleb128 0
 4819 08a7 16       		.uleb128 0x16
 4820 08a8 33030000 		.4byte	.LASF108
ARM GAS  C:\Users\DNIEL~1\AppData\Local\Temp\cceiqNg0.s 			page 87


 4821 08ac 01       		.sleb128 1
 4822 08ad 16       		.uleb128 0x16
 4823 08ae F1060000 		.4byte	.LASF109
 4824 08b2 02       		.sleb128 2
 4825 08b3 16       		.uleb128 0x16
 4826 08b4 17080000 		.4byte	.LASF110
 4827 08b8 03       		.sleb128 3
 4828 08b9 00       		.byte	0x0
 4829 08ba 09       		.uleb128 0x9
 4830 08bb 04       		.byte	0x4
 4831 08bc 3E050000 		.4byte	0x53e
 4832 08c0 04       		.uleb128 0x4
 4833 08c1 08       		.byte	0x8
 4834 08c2 04       		.byte	0x4
 4835 08c3 91090000 		.4byte	.LASF111
 4836 08c7 04       		.uleb128 0x4
 4837 08c8 04       		.byte	0x4
 4838 08c9 04       		.byte	0x4
 4839 08ca E1010000 		.4byte	.LASF112
 4840 08ce 04       		.uleb128 0x4
 4841 08cf 08       		.byte	0x8
 4842 08d0 04       		.byte	0x4
 4843 08d1 4E060000 		.4byte	.LASF113
 4844 08d5 03       		.uleb128 0x3
 4845 08d6 EC020000 		.4byte	.LASF114
 4846 08da 10       		.byte	0x10
 4847 08db 28       		.byte	0x28
 4848 08dc E0080000 		.4byte	0x8e0
 4849 08e0 05       		.uleb128 0x5
 4850 08e1 37000000 		.4byte	.LASF115
 4851 08e5 04       		.byte	0x4
 4852 08e6 11       		.byte	0x11
 4853 08e7 00       		.byte	0x0
 4854 08e8 FA080000 		.4byte	0x8fa
 4855 08ec 17       		.uleb128 0x17
 4856 08ed 75050000 		.4byte	.LASF116
 4857 08f1 B9020000 		.4byte	0x2b9
 4858 08f5 02       		.byte	0x2
 4859 08f6 23       		.byte	0x23
 4860 08f7 00       		.uleb128 0x0
 4861 08f8 01       		.byte	0x1
 4862 08f9 00       		.byte	0x0
 4863 08fa 05       		.uleb128 0x5
 4864 08fb 55020000 		.4byte	.LASF117
 4865 08ff 2C       		.byte	0x2c
 4866 0900 12       		.byte	0x12
 4867 0901 13       		.byte	0x13
 4868 0902 560A0000 		.4byte	0xa56
 4869 0906 07       		.uleb128 0x7
 4870 0907 696400   		.ascii	"id\000"
 4871 090a 12       		.byte	0x12
 4872 090b 15       		.byte	0x15
 4873 090c 91000000 		.4byte	0x91
 4874 0910 02       		.byte	0x2
 4875 0911 23       		.byte	0x23
 4876 0912 00       		.uleb128 0x0
 4877 0913 06       		.uleb128 0x6
ARM GAS  C:\Users\DNIEL~1\AppData\Local\Temp\cceiqNg0.s 			page 88


 4878 0914 14050000 		.4byte	.LASF118
 4879 0918 12       		.byte	0x12
 4880 0919 16       		.byte	0x16
 4881 091a 49000000 		.4byte	0x49
 4882 091e 02       		.byte	0x2
 4883 091f 23       		.byte	0x23
 4884 0920 04       		.uleb128 0x4
 4885 0921 06       		.uleb128 0x6
 4886 0922 32070000 		.4byte	.LASF119
 4887 0926 12       		.byte	0x12
 4888 0927 17       		.byte	0x17
 4889 0928 6D000000 		.4byte	0x6d
 4890 092c 02       		.byte	0x2
 4891 092d 23       		.byte	0x23
 4892 092e 06       		.uleb128 0x6
 4893 092f 06       		.uleb128 0x6
 4894 0930 A9060000 		.4byte	.LASF120
 4895 0934 12       		.byte	0x12
 4896 0935 18       		.byte	0x18
 4897 0936 6D000000 		.4byte	0x6d
 4898 093a 02       		.byte	0x2
 4899 093b 23       		.byte	0x23
 4900 093c 08       		.uleb128 0x8
 4901 093d 06       		.uleb128 0x6
 4902 093e 2D040000 		.4byte	.LASF121
 4903 0942 12       		.byte	0x12
 4904 0943 19       		.byte	0x19
 4905 0944 49000000 		.4byte	0x49
 4906 0948 02       		.byte	0x2
 4907 0949 23       		.byte	0x23
 4908 094a 0A       		.uleb128 0xa
 4909 094b 06       		.uleb128 0x6
 4910 094c 10090000 		.4byte	.LASF122
 4911 0950 12       		.byte	0x12
 4912 0951 1A       		.byte	0x1a
 4913 0952 6D000000 		.4byte	0x6d
 4914 0956 02       		.byte	0x2
 4915 0957 23       		.byte	0x23
 4916 0958 0C       		.uleb128 0xc
 4917 0959 06       		.uleb128 0x6
 4918 095a 05010000 		.4byte	.LASF123
 4919 095e 12       		.byte	0x12
 4920 095f 1B       		.byte	0x1b
 4921 0960 49000000 		.4byte	0x49
 4922 0964 02       		.byte	0x2
 4923 0965 23       		.byte	0x23
 4924 0966 0E       		.uleb128 0xe
 4925 0967 06       		.uleb128 0x6
 4926 0968 73030000 		.4byte	.LASF124
 4927 096c 12       		.byte	0x12
 4928 096d 1C       		.byte	0x1c
 4929 096e 49000000 		.4byte	0x49
 4930 0972 02       		.byte	0x2
 4931 0973 23       		.byte	0x23
 4932 0974 0F       		.uleb128 0xf
 4933 0975 06       		.uleb128 0x6
 4934 0976 AF090000 		.4byte	.LASF125
ARM GAS  C:\Users\DNIEL~1\AppData\Local\Temp\cceiqNg0.s 			page 89


 4935 097a 12       		.byte	0x12
 4936 097b 1D       		.byte	0x1d
 4937 097c 49000000 		.4byte	0x49
 4938 0980 02       		.byte	0x2
 4939 0981 23       		.byte	0x23
 4940 0982 10       		.uleb128 0x10
 4941 0983 06       		.uleb128 0x6
 4942 0984 B9040000 		.4byte	.LASF126
 4943 0988 12       		.byte	0x12
 4944 0989 1E       		.byte	0x1e
 4945 098a 6D000000 		.4byte	0x6d
 4946 098e 02       		.byte	0x2
 4947 098f 23       		.byte	0x23
 4948 0990 12       		.uleb128 0x12
 4949 0991 06       		.uleb128 0x6
 4950 0992 42090000 		.4byte	.LASF127
 4951 0996 12       		.byte	0x12
 4952 0997 1F       		.byte	0x1f
 4953 0998 6D000000 		.4byte	0x6d
 4954 099c 02       		.byte	0x2
 4955 099d 23       		.byte	0x23
 4956 099e 14       		.uleb128 0x14
 4957 099f 06       		.uleb128 0x6
 4958 09a0 32020000 		.4byte	.LASF128
 4959 09a4 12       		.byte	0x12
 4960 09a5 20       		.byte	0x20
 4961 09a6 6D000000 		.4byte	0x6d
 4962 09aa 02       		.byte	0x2
 4963 09ab 23       		.byte	0x23
 4964 09ac 16       		.uleb128 0x16
 4965 09ad 06       		.uleb128 0x6
 4966 09ae 32080000 		.4byte	.LASF129
 4967 09b2 12       		.byte	0x12
 4968 09b3 21       		.byte	0x21
 4969 09b4 5B000000 		.4byte	0x5b
 4970 09b8 02       		.byte	0x2
 4971 09b9 23       		.byte	0x23
 4972 09ba 18       		.uleb128 0x18
 4973 09bb 06       		.uleb128 0x6
 4974 09bc A9070000 		.4byte	.LASF130
 4975 09c0 12       		.byte	0x12
 4976 09c1 22       		.byte	0x22
 4977 09c2 49000000 		.4byte	0x49
 4978 09c6 02       		.byte	0x2
 4979 09c7 23       		.byte	0x23
 4980 09c8 1A       		.uleb128 0x1a
 4981 09c9 06       		.uleb128 0x6
 4982 09ca 64050000 		.4byte	.LASF131
 4983 09ce 12       		.byte	0x12
 4984 09cf 23       		.byte	0x23
 4985 09d0 49000000 		.4byte	0x49
 4986 09d4 02       		.byte	0x2
 4987 09d5 23       		.byte	0x23
 4988 09d6 1B       		.uleb128 0x1b
 4989 09d7 06       		.uleb128 0x6
 4990 09d8 57090000 		.4byte	.LASF132
 4991 09dc 12       		.byte	0x12
ARM GAS  C:\Users\DNIEL~1\AppData\Local\Temp\cceiqNg0.s 			page 90


 4992 09dd 24       		.byte	0x24
 4993 09de 49000000 		.4byte	0x49
 4994 09e2 02       		.byte	0x2
 4995 09e3 23       		.byte	0x23
 4996 09e4 1C       		.uleb128 0x1c
 4997 09e5 06       		.uleb128 0x6
 4998 09e6 7B020000 		.4byte	.LASF133
 4999 09ea 12       		.byte	0x12
 5000 09eb 25       		.byte	0x25
 5001 09ec 6D000000 		.4byte	0x6d
 5002 09f0 02       		.byte	0x2
 5003 09f1 23       		.byte	0x23
 5004 09f2 1E       		.uleb128 0x1e
 5005 09f3 06       		.uleb128 0x6
 5006 09f4 22050000 		.4byte	.LASF134
 5007 09f8 12       		.byte	0x12
 5008 09f9 26       		.byte	0x26
 5009 09fa 49000000 		.4byte	0x49
 5010 09fe 02       		.byte	0x2
 5011 09ff 23       		.byte	0x23
 5012 0a00 20       		.uleb128 0x20
 5013 0a01 06       		.uleb128 0x6
 5014 0a02 88040000 		.4byte	.LASF135
 5015 0a06 12       		.byte	0x12
 5016 0a07 27       		.byte	0x27
 5017 0a08 6D000000 		.4byte	0x6d
 5018 0a0c 02       		.byte	0x2
 5019 0a0d 23       		.byte	0x23
 5020 0a0e 22       		.uleb128 0x22
 5021 0a0f 06       		.uleb128 0x6
 5022 0a10 60080000 		.4byte	.LASF136
 5023 0a14 12       		.byte	0x12
 5024 0a15 28       		.byte	0x28
 5025 0a16 49000000 		.4byte	0x49
 5026 0a1a 02       		.byte	0x2
 5027 0a1b 23       		.byte	0x23
 5028 0a1c 24       		.uleb128 0x24
 5029 0a1d 06       		.uleb128 0x6
 5030 0a1e BD090000 		.4byte	.LASF137
 5031 0a22 12       		.byte	0x12
 5032 0a23 29       		.byte	0x29
 5033 0a24 49000000 		.4byte	0x49
 5034 0a28 02       		.byte	0x2
 5035 0a29 23       		.byte	0x23
 5036 0a2a 25       		.uleb128 0x25
 5037 0a2b 06       		.uleb128 0x6
 5038 0a2c 0A0A0000 		.4byte	.LASF138
 5039 0a30 12       		.byte	0x12
 5040 0a31 2A       		.byte	0x2a
 5041 0a32 49000000 		.4byte	0x49
 5042 0a36 02       		.byte	0x2
 5043 0a37 23       		.byte	0x23
 5044 0a38 26       		.uleb128 0x26
 5045 0a39 06       		.uleb128 0x6
 5046 0a3a 4E030000 		.4byte	.LASF139
 5047 0a3e 12       		.byte	0x12
 5048 0a3f 2B       		.byte	0x2b
ARM GAS  C:\Users\DNIEL~1\AppData\Local\Temp\cceiqNg0.s 			page 91


 5049 0a40 49000000 		.4byte	0x49
 5050 0a44 02       		.byte	0x2
 5051 0a45 23       		.byte	0x23
 5052 0a46 27       		.uleb128 0x27
 5053 0a47 06       		.uleb128 0x6
 5054 0a48 43020000 		.4byte	.LASF140
 5055 0a4c 12       		.byte	0x12
 5056 0a4d 2C       		.byte	0x2c
 5057 0a4e 6D000000 		.4byte	0x6d
 5058 0a52 02       		.byte	0x2
 5059 0a53 23       		.byte	0x23
 5060 0a54 28       		.uleb128 0x28
 5061 0a55 00       		.byte	0x0
 5062 0a56 15       		.uleb128 0x15
 5063 0a57 97050000 		.4byte	.LASF141
 5064 0a5b 01       		.byte	0x1
 5065 0a5c 13       		.byte	0x13
 5066 0a5d 0C       		.byte	0xc
 5067 0a5e 6F0A0000 		.4byte	0xa6f
 5068 0a62 16       		.uleb128 0x16
 5069 0a63 16020000 		.4byte	.LASF142
 5070 0a67 00       		.sleb128 0
 5071 0a68 16       		.uleb128 0x16
 5072 0a69 D9030000 		.4byte	.LASF143
 5073 0a6d 01       		.sleb128 1
 5074 0a6e 00       		.byte	0x0
 5075 0a6f 03       		.uleb128 0x3
 5076 0a70 C7040000 		.4byte	.LASF144
 5077 0a74 10       		.byte	0x10
 5078 0a75 66       		.byte	0x66
 5079 0a76 D5080000 		.4byte	0x8d5
 5080 0a7a 15       		.uleb128 0x15
 5081 0a7b 73080000 		.4byte	.LASF145
 5082 0a7f 01       		.byte	0x1
 5083 0a80 02       		.byte	0x2
 5084 0a81 1B       		.byte	0x1b
 5085 0a82 930A0000 		.4byte	0xa93
 5086 0a86 16       		.uleb128 0x16
 5087 0a87 6A020000 		.4byte	.LASF146
 5088 0a8b 00       		.sleb128 0
 5089 0a8c 16       		.uleb128 0x16
 5090 0a8d A4030000 		.4byte	.LASF147
 5091 0a91 01       		.sleb128 1
 5092 0a92 00       		.byte	0x0
 5093 0a93 15       		.uleb128 0x15
 5094 0a94 5E020000 		.4byte	.LASF148
 5095 0a98 01       		.byte	0x1
 5096 0a99 02       		.byte	0x2
 5097 0a9a 20       		.byte	0x20
 5098 0a9b 660B0000 		.4byte	0xb66
 5099 0a9f 16       		.uleb128 0x16
 5100 0aa0 7F010000 		.4byte	.LASF149
 5101 0aa4 00       		.sleb128 0
 5102 0aa5 16       		.uleb128 0x16
 5103 0aa6 00050000 		.4byte	.LASF150
 5104 0aaa 01       		.sleb128 1
 5105 0aab 16       		.uleb128 0x16
ARM GAS  C:\Users\DNIEL~1\AppData\Local\Temp\cceiqNg0.s 			page 92


 5106 0aac BF050000 		.4byte	.LASF151
 5107 0ab0 02       		.sleb128 2
 5108 0ab1 16       		.uleb128 0x16
 5109 0ab2 5D000000 		.4byte	.LASF152
 5110 0ab6 03       		.sleb128 3
 5111 0ab7 16       		.uleb128 0x16
 5112 0ab8 D5080000 		.4byte	.LASF153
 5113 0abc 04       		.sleb128 4
 5114 0abd 16       		.uleb128 0x16
 5115 0abe 80090000 		.4byte	.LASF154
 5116 0ac2 05       		.sleb128 5
 5117 0ac3 16       		.uleb128 0x16
 5118 0ac4 DA020000 		.4byte	.LASF155
 5119 0ac8 06       		.sleb128 6
 5120 0ac9 16       		.uleb128 0x16
 5121 0aca D8090000 		.4byte	.LASF156
 5122 0ace 07       		.sleb128 7
 5123 0acf 16       		.uleb128 0x16
 5124 0ad0 60090000 		.4byte	.LASF157
 5125 0ad4 08       		.sleb128 8
 5126 0ad5 16       		.uleb128 0x16
 5127 0ad6 25000000 		.4byte	.LASF158
 5128 0ada 09       		.sleb128 9
 5129 0adb 16       		.uleb128 0x16
 5130 0adc 1A010000 		.4byte	.LASF159
 5131 0ae0 0A       		.sleb128 10
 5132 0ae1 16       		.uleb128 0x16
 5133 0ae2 F9080000 		.4byte	.LASF160
 5134 0ae6 0B       		.sleb128 11
 5135 0ae7 16       		.uleb128 0x16
 5136 0ae8 A0090000 		.4byte	.LASF161
 5137 0aec 0C       		.sleb128 12
 5138 0aed 16       		.uleb128 0x16
 5139 0aee CF040000 		.4byte	.LASF162
 5140 0af2 0D       		.sleb128 13
 5141 0af3 16       		.uleb128 0x16
 5142 0af4 A7010000 		.4byte	.LASF163
 5143 0af8 0E       		.sleb128 14
 5144 0af9 16       		.uleb128 0x16
 5145 0afa D9000000 		.4byte	.LASF164
 5146 0afe 0F       		.sleb128 15
 5147 0aff 16       		.uleb128 0x16
 5148 0b00 51050000 		.4byte	.LASF165
 5149 0b04 10       		.sleb128 16
 5150 0b05 16       		.uleb128 0x16
 5151 0b06 2B010000 		.4byte	.LASF166
 5152 0b0a 11       		.sleb128 17
 5153 0b0b 16       		.uleb128 0x16
 5154 0b0c C9020000 		.4byte	.LASF167
 5155 0b10 12       		.sleb128 18
 5156 0b11 16       		.uleb128 0x16
 5157 0b12 1A090000 		.4byte	.LASF168
 5158 0b16 13       		.sleb128 19
 5159 0b17 16       		.uleb128 0x16
 5160 0b18 7A050000 		.4byte	.LASF169
 5161 0b1c 14       		.sleb128 20
 5162 0b1d 16       		.uleb128 0x16
ARM GAS  C:\Users\DNIEL~1\AppData\Local\Temp\cceiqNg0.s 			page 93


 5163 0b1e 3D010000 		.4byte	.LASF170
 5164 0b22 15       		.sleb128 21
 5165 0b23 16       		.uleb128 0x16
 5166 0b24 9D080000 		.4byte	.LASF171
 5167 0b28 16       		.sleb128 22
 5168 0b29 16       		.uleb128 0x16
 5169 0b2a 15000000 		.4byte	.LASF172
 5170 0b2e 17       		.sleb128 23
 5171 0b2f 16       		.uleb128 0x16
 5172 0b30 AF050000 		.4byte	.LASF173
 5173 0b34 18       		.sleb128 24
 5174 0b35 16       		.uleb128 0x16
 5175 0b36 B2060000 		.4byte	.LASF174
 5176 0b3a 19       		.sleb128 25
 5177 0b3b 16       		.uleb128 0x16
 5178 0b3c A1000000 		.4byte	.LASF175
 5179 0b40 1A       		.sleb128 26
 5180 0b41 16       		.uleb128 0x16
 5181 0b42 1C040000 		.4byte	.LASF176
 5182 0b46 1B       		.sleb128 27
 5183 0b47 16       		.uleb128 0x16
 5184 0b48 50080000 		.4byte	.LASF177
 5185 0b4c 1C       		.sleb128 28
 5186 0b4d 16       		.uleb128 0x16
 5187 0b4e 65030000 		.4byte	.LASF178
 5188 0b52 1D       		.sleb128 29
 5189 0b53 16       		.uleb128 0x16
 5190 0b54 95070000 		.4byte	.LASF179
 5191 0b58 1E       		.sleb128 30
 5192 0b59 16       		.uleb128 0x16
 5193 0b5a A4050000 		.4byte	.LASF180
 5194 0b5e 1F       		.sleb128 31
 5195 0b5f 16       		.uleb128 0x16
 5196 0b60 BB010000 		.4byte	.LASF181
 5197 0b64 20       		.sleb128 32
 5198 0b65 00       		.byte	0x0
 5199 0b66 18       		.uleb128 0x18
 5200 0b67 90030000 		.4byte	.LASF224
 5201 0b6b 01       		.byte	0x1
 5202 0b6c 45       		.byte	0x45
 5203 0b6d 01       		.byte	0x1
 5204 0b6e 00000000 		.4byte	.LFB118
 5205 0b72 1E000000 		.4byte	.LFE118
 5206 0b76 00000000 		.4byte	.LLST0
 5207 0b7a AA0B0000 		.4byte	0xbaa
 5208 0b7e 19       		.uleb128 0x19
 5209 0b7f 63687000 		.ascii	"chp\000"
 5210 0b83 01       		.byte	0x1
 5211 0b84 45       		.byte	0x45
 5212 0b85 AA0B0000 		.4byte	0xbaa
 5213 0b89 38000000 		.4byte	.LLST1
 5214 0b8d 1A       		.uleb128 0x1a
 5215 0b8e 666D7400 		.ascii	"fmt\000"
 5216 0b92 01       		.byte	0x1
 5217 0b93 45       		.byte	0x45
 5218 0b94 33050000 		.4byte	0x533
 5219 0b98 02       		.byte	0x2
ARM GAS  C:\Users\DNIEL~1\AppData\Local\Temp\cceiqNg0.s 			page 94


 5220 0b99 91       		.byte	0x91
 5221 0b9a 74       		.sleb128 -12
 5222 0b9b 1B       		.uleb128 0x1b
 5223 0b9c 1C       		.uleb128 0x1c
 5224 0b9d 617000   		.ascii	"ap\000"
 5225 0ba0 01       		.byte	0x1
 5226 0ba1 46       		.byte	0x46
 5227 0ba2 6F0A0000 		.4byte	0xa6f
 5228 0ba6 02       		.byte	0x2
 5229 0ba7 91       		.byte	0x91
 5230 0ba8 6C       		.sleb128 -20
 5231 0ba9 00       		.byte	0x0
 5232 0baa 09       		.uleb128 0x9
 5233 0bab 04       		.byte	0x4
 5234 0bac 34060000 		.4byte	0x634
 5235 0bb0 1D       		.uleb128 0x1d
 5236 0bb1 0E020000 		.4byte	.LASF225
 5237 0bb5 02       		.byte	0x2
 5238 0bb6 D1       		.byte	0xd1
 5239 0bb7 01       		.byte	0x1
 5240 0bb8 05010000 		.4byte	0x105
 5241 0bbc 00000000 		.4byte	.LFB123
 5242 0bc0 340B0000 		.4byte	.LFE123
 5243 0bc4 4B000000 		.4byte	.LLST2
 5244 0bc8 360C0000 		.4byte	0xc36
 5245 0bcc 19       		.uleb128 0x19
 5246 0bcd 61726700 		.ascii	"arg\000"
 5247 0bd1 02       		.byte	0x2
 5248 0bd2 D1       		.byte	0xd1
 5249 0bd3 B9020000 		.4byte	0x2b9
 5250 0bd7 77000000 		.4byte	.LLST3
 5251 0bdb 1E       		.uleb128 0x1e
 5252 0bdc 76020000 		.4byte	.LASF182
 5253 0be0 02       		.byte	0x2
 5254 0be1 D2       		.byte	0xd2
 5255 0be2 1B010000 		.4byte	0x11b
 5256 0be6 01       		.byte	0x1
 5257 0be7 53       		.byte	0x53
 5258 0be8 1F       		.uleb128 0x1f
 5259 0be9 00000000 		.4byte	.Ldebug_ranges0+0x0
 5260 0bed 20       		.uleb128 0x20
 5261 0bee 49050000 		.4byte	.LASF183
 5262 0bf2 02       		.byte	0x2
 5263 0bf3 D8       		.byte	0xd8
 5264 0bf4 29000000 		.4byte	0x29
 5265 0bf8 8A000000 		.4byte	.LLST4
 5266 0bfc 20       		.uleb128 0x20
 5267 0bfd 0B030000 		.4byte	.LASF184
 5268 0c01 02       		.byte	0x2
 5269 0c02 D9       		.byte	0xd9
 5270 0c03 91000000 		.4byte	0x91
 5271 0c07 64030000 		.4byte	.LLST5
 5272 0c0b 1F       		.uleb128 0x1f
 5273 0c0c 18000000 		.4byte	.Ldebug_ranges0+0x18
 5274 0c10 21       		.uleb128 0x21
 5275 0c11 01       		.byte	0x1
 5276 0c12 F6030000 		.4byte	.LASF199
ARM GAS  C:\Users\DNIEL~1\AppData\Local\Temp\cceiqNg0.s 			page 95


 5277 0c16 02       		.byte	0x2
 5278 0c17 F4       		.byte	0xf4
 5279 0c18 29000000 		.4byte	0x29
 5280 0c1c 01       		.byte	0x1
 5281 0c1d 230C0000 		.4byte	0xc23
 5282 0c21 1B       		.uleb128 0x1b
 5283 0c22 00       		.byte	0x0
 5284 0c23 22       		.uleb128 0x22
 5285 0c24 01       		.byte	0x1
 5286 0c25 BA020000 		.4byte	.LASF187
 5287 0c29 02       		.byte	0x2
 5288 0c2a 7F02     		.2byte	0x27f
 5289 0c2c 29000000 		.4byte	0x29
 5290 0c30 01       		.byte	0x1
 5291 0c31 1B       		.uleb128 0x1b
 5292 0c32 00       		.byte	0x0
 5293 0c33 00       		.byte	0x0
 5294 0c34 00       		.byte	0x0
 5295 0c35 00       		.byte	0x0
 5296 0c36 23       		.uleb128 0x23
 5297 0c37 01       		.byte	0x1
 5298 0c38 F3050000 		.4byte	.LASF185
 5299 0c3c 02       		.byte	0x2
 5300 0c3d 50       		.byte	0x50
 5301 0c3e 01       		.byte	0x1
 5302 0c3f 00000000 		.4byte	.LFB119
 5303 0c43 D0000000 		.4byte	.LFE119
 5304 0c47 98030000 		.4byte	.LLST6
 5305 0c4b 23       		.uleb128 0x23
 5306 0c4c 01       		.byte	0x1
 5307 0c4d 40060000 		.4byte	.LASF186
 5308 0c51 02       		.byte	0x2
 5309 0c52 71       		.byte	0x71
 5310 0c53 01       		.byte	0x1
 5311 0c54 00000000 		.4byte	.LFB120
 5312 0c58 74000000 		.4byte	.LFE120
 5313 0c5c B8030000 		.4byte	.LLST7
 5314 0c60 24       		.uleb128 0x24
 5315 0c61 01       		.byte	0x1
 5316 0c62 4A070000 		.4byte	.LASF189
 5317 0c66 02       		.byte	0x2
 5318 0c67 84       		.byte	0x84
 5319 0c68 01       		.byte	0x1
 5320 0c69 00000000 		.4byte	.LFB121
 5321 0c6d 24010000 		.4byte	.LFE121
 5322 0c71 D8030000 		.4byte	.LLST8
 5323 0c75 890C0000 		.4byte	0xc89
 5324 0c79 25       		.uleb128 0x25
 5325 0c7a 01       		.byte	0x1
 5326 0c7b 7E040000 		.4byte	.LASF188
 5327 0c7f 02       		.byte	0x2
 5328 0c80 86       		.byte	0x86
 5329 0c81 29000000 		.4byte	0x29
 5330 0c85 01       		.byte	0x1
 5331 0c86 1B       		.uleb128 0x1b
 5332 0c87 00       		.byte	0x0
 5333 0c88 00       		.byte	0x0
ARM GAS  C:\Users\DNIEL~1\AppData\Local\Temp\cceiqNg0.s 			page 96


 5334 0c89 24       		.uleb128 0x24
 5335 0c8a 01       		.byte	0x1
 5336 0c8b C1060000 		.4byte	.LASF190
 5337 0c8f 02       		.byte	0x2
 5338 0c90 AC       		.byte	0xac
 5339 0c91 01       		.byte	0x1
 5340 0c92 00000000 		.4byte	.LFB122
 5341 0c96 F8000000 		.4byte	.LFE122
 5342 0c9a 04040000 		.4byte	.LLST9
 5343 0c9e B20C0000 		.4byte	0xcb2
 5344 0ca2 26       		.uleb128 0x26
 5345 0ca3 E7080000 		.4byte	.LASF191
 5346 0ca7 02       		.byte	0x2
 5347 0ca8 AC       		.byte	0xac
 5348 0ca9 29000000 		.4byte	0x29
 5349 0cad 24040000 		.4byte	.LLST10
 5350 0cb1 00       		.byte	0x0
 5351 0cb2 27       		.uleb128 0x27
 5352 0cb3 01       		.byte	0x1
 5353 0cb4 12060000 		.4byte	.LASF192
 5354 0cb8 02       		.byte	0x2
 5355 0cb9 4B03     		.2byte	0x34b
 5356 0cbb 01       		.byte	0x1
 5357 0cbc 00000000 		.4byte	.LFB124
 5358 0cc0 5C000000 		.4byte	.LFE124
 5359 0cc4 42040000 		.4byte	.LLST11
 5360 0cc8 28       		.uleb128 0x28
 5361 0cc9 01       		.byte	0x1
 5362 0cca FF070000 		.4byte	.LASF226
 5363 0cce 02       		.byte	0x2
 5364 0ccf 5A03     		.2byte	0x35a
 5365 0cd1 01       		.byte	0x1
 5366 0cd2 BC000000 		.4byte	0xbc
 5367 0cd6 00000000 		.4byte	.LFB125
 5368 0cda 14000000 		.4byte	.LFE125
 5369 0cde 02       		.byte	0x2
 5370 0cdf 7D       		.byte	0x7d
 5371 0ce0 00       		.sleb128 0
 5372 0ce1 F50C0000 		.4byte	0xcf5
 5373 0ce5 29       		.uleb128 0x29
 5374 0ce6 636800   		.ascii	"ch\000"
 5375 0ce9 02       		.byte	0x2
 5376 0cea 5A03     		.2byte	0x35a
 5377 0cec 49000000 		.4byte	0x49
 5378 0cf0 6E040000 		.4byte	.LLST12
 5379 0cf4 00       		.byte	0x0
 5380 0cf5 2A       		.uleb128 0x2a
 5381 0cf6 01       		.byte	0x1
 5382 0cf7 ED080000 		.4byte	.LASF193
 5383 0cfb 02       		.byte	0x2
 5384 0cfc 6003     		.2byte	0x360
 5385 0cfe 01       		.byte	0x1
 5386 0cff 6D000000 		.4byte	0x6d
 5387 0d03 00000000 		.4byte	.LFB126
 5388 0d07 0C000000 		.4byte	.LFE126
 5389 0d0b 02       		.byte	0x2
 5390 0d0c 7D       		.byte	0x7d
ARM GAS  C:\Users\DNIEL~1\AppData\Local\Temp\cceiqNg0.s 			page 97


 5391 0d0d 00       		.sleb128 0
 5392 0d0e 2A       		.uleb128 0x2a
 5393 0d0f 01       		.byte	0x1
 5394 0d10 30050000 		.4byte	.LASF194
 5395 0d14 02       		.byte	0x2
 5396 0d15 6403     		.2byte	0x364
 5397 0d17 01       		.byte	0x1
 5398 0d18 BC000000 		.4byte	0xbc
 5399 0d1c 00000000 		.4byte	.LFB127
 5400 0d20 0C000000 		.4byte	.LFE127
 5401 0d24 02       		.byte	0x2
 5402 0d25 7D       		.byte	0x7d
 5403 0d26 00       		.sleb128 0
 5404 0d27 2B       		.uleb128 0x2b
 5405 0d28 01       		.byte	0x1
 5406 0d29 03070000 		.4byte	.LASF195
 5407 0d2d 02       		.byte	0x2
 5408 0d2e 6803     		.2byte	0x368
 5409 0d30 01       		.byte	0x1
 5410 0d31 00000000 		.4byte	.LFB128
 5411 0d35 8C010000 		.4byte	.LFE128
 5412 0d39 81040000 		.4byte	.LLST13
 5413 0d3d 800D0000 		.4byte	0xd80
 5414 0d41 29       		.uleb128 0x29
 5415 0d42 63687000 		.ascii	"chp\000"
 5416 0d46 02       		.byte	0x2
 5417 0d47 6803     		.2byte	0x368
 5418 0d49 AA0B0000 		.4byte	0xbaa
 5419 0d4d A1040000 		.4byte	.LLST14
 5420 0d51 2C       		.uleb128 0x2c
 5421 0d52 FF050000 		.4byte	.LASF196
 5422 0d56 02       		.byte	0x2
 5423 0d57 6803     		.2byte	0x368
 5424 0d59 29000000 		.4byte	0x29
 5425 0d5d BF040000 		.4byte	.LLST15
 5426 0d61 2C       		.uleb128 0x2c
 5427 0d62 99030000 		.4byte	.LASF197
 5428 0d66 02       		.byte	0x2
 5429 0d67 6803     		.2byte	0x368
 5430 0d69 800D0000 		.4byte	0xd80
 5431 0d6d D2040000 		.4byte	.LLST16
 5432 0d71 2D       		.uleb128 0x2d
 5433 0d72 6900     		.ascii	"i\000"
 5434 0d74 02       		.byte	0x2
 5435 0d75 6C03     		.2byte	0x36c
 5436 0d77 29000000 		.4byte	0x29
 5437 0d7b E5040000 		.4byte	.LLST17
 5438 0d7f 00       		.byte	0x0
 5439 0d80 09       		.uleb128 0x9
 5440 0d81 04       		.byte	0x4
 5441 0d82 BA080000 		.4byte	0x8ba
 5442 0d86 2B       		.uleb128 0x2b
 5443 0d87 01       		.byte	0x1
 5444 0d88 9C020000 		.4byte	.LASF198
 5445 0d8c 02       		.byte	0x2
 5446 0d8d 8703     		.2byte	0x387
 5447 0d8f 01       		.byte	0x1
ARM GAS  C:\Users\DNIEL~1\AppData\Local\Temp\cceiqNg0.s 			page 98


 5448 0d90 00000000 		.4byte	.LFB129
 5449 0d94 50010000 		.4byte	.LFE129
 5450 0d98 65050000 		.4byte	.LLST18
 5451 0d9c 100E0000 		.4byte	0xe10
 5452 0da0 29       		.uleb128 0x29
 5453 0da1 63687000 		.ascii	"chp\000"
 5454 0da5 02       		.byte	0x2
 5455 0da6 8703     		.2byte	0x387
 5456 0da8 AA0B0000 		.4byte	0xbaa
 5457 0dac 85050000 		.4byte	.LLST19
 5458 0db0 2C       		.uleb128 0x2c
 5459 0db1 FF050000 		.4byte	.LASF196
 5460 0db5 02       		.byte	0x2
 5461 0db6 8703     		.2byte	0x387
 5462 0db8 29000000 		.4byte	0x29
 5463 0dbc A3050000 		.4byte	.LLST20
 5464 0dc0 2C       		.uleb128 0x2c
 5465 0dc1 99030000 		.4byte	.LASF197
 5466 0dc5 02       		.byte	0x2
 5467 0dc6 8703     		.2byte	0x387
 5468 0dc8 800D0000 		.4byte	0xd80
 5469 0dcc CC050000 		.4byte	.LLST21
 5470 0dd0 2E       		.uleb128 0x2e
 5471 0dd1 3B050000 		.4byte	.LASF227
 5472 0dd5 02       		.byte	0x2
 5473 0dd6 BA03     		.2byte	0x3ba
 5474 0dd8 26000000 		.4byte	.L194
 5475 0ddc 1F       		.uleb128 0x1f
 5476 0ddd 78000000 		.4byte	.Ldebug_ranges0+0x78
 5477 0de1 21       		.uleb128 0x21
 5478 0de2 01       		.byte	0x1
 5479 0de3 030A0000 		.4byte	.LASF200
 5480 0de7 11       		.byte	0x11
 5481 0de8 00       		.byte	0x0
 5482 0de9 29000000 		.4byte	0x29
 5483 0ded 01       		.byte	0x1
 5484 0dee F40D0000 		.4byte	0xdf4
 5485 0df2 1B       		.uleb128 0x1b
 5486 0df3 00       		.byte	0x0
 5487 0df4 2F       		.uleb128 0x2f
 5488 0df5 6A000000 		.4byte	.LBB16
 5489 0df9 7C000000 		.4byte	.LBE16
 5490 0dfd 22       		.uleb128 0x22
 5491 0dfe 01       		.byte	0x1
 5492 0dff 73090000 		.4byte	.LASF201
 5493 0e03 02       		.byte	0x2
 5494 0e04 B103     		.2byte	0x3b1
 5495 0e06 29000000 		.4byte	0x29
 5496 0e0a 01       		.byte	0x1
 5497 0e0b 1B       		.uleb128 0x1b
 5498 0e0c 00       		.byte	0x0
 5499 0e0d 00       		.byte	0x0
 5500 0e0e 00       		.byte	0x0
 5501 0e0f 00       		.byte	0x0
 5502 0e10 30       		.uleb128 0x30
 5503 0e11 FE000000 		.4byte	.LASF202
 5504 0e15 09       		.byte	0x9
ARM GAS  C:\Users\DNIEL~1\AppData\Local\Temp\cceiqNg0.s 			page 99


 5505 0e16 F5       		.byte	0xf5
 5506 0e17 43040000 		.4byte	0x443
 5507 0e1b 01       		.byte	0x1
 5508 0e1c 01       		.byte	0x1
 5509 0e1d 30       		.uleb128 0x30
 5510 0e1e 76070000 		.4byte	.LASF203
 5511 0e22 0A       		.byte	0xa
 5512 0e23 6F       		.byte	0x6f
 5513 0e24 AB040000 		.4byte	0x4ab
 5514 0e28 01       		.byte	0x1
 5515 0e29 01       		.byte	0x1
 5516 0e2a 31       		.uleb128 0x31
 5517 0e2b 25070000 		.4byte	.LASF204
 5518 0e2f 14       		.byte	0x14
 5519 0e30 9806     		.2byte	0x698
 5520 0e32 3F060000 		.4byte	0x63f
 5521 0e36 01       		.byte	0x1
 5522 0e37 01       		.byte	0x1
 5523 0e38 30       		.uleb128 0x30
 5524 0e39 D0000000 		.4byte	.LASF205
 5525 0e3d 15       		.byte	0x15
 5526 0e3e 0A       		.byte	0xa
 5527 0e3f FA080000 		.4byte	0x8fa
 5528 0e43 01       		.byte	0x1
 5529 0e44 01       		.byte	0x1
 5530 0e45 30       		.uleb128 0x30
 5531 0e46 41070000 		.4byte	.LASF206
 5532 0e4a 02       		.byte	0x2
 5533 0e4b 1E       		.byte	0x1e
 5534 0e4c 7A0A0000 		.4byte	0xa7a
 5535 0e50 01       		.byte	0x1
 5536 0e51 01       		.byte	0x1
 5537 0e52 30       		.uleb128 0x30
 5538 0e53 7C080000 		.4byte	.LASF207
 5539 0e57 02       		.byte	0x2
 5540 0e58 43       		.byte	0x43
 5541 0e59 930A0000 		.4byte	0xa93
 5542 0e5d 01       		.byte	0x1
 5543 0e5e 01       		.byte	0x1
 5544 0e5f 32       		.uleb128 0x32
 5545 0e60 7F000000 		.4byte	0x7f
 5546 0e64 6F0E0000 		.4byte	0xe6f
 5547 0e68 33       		.uleb128 0x33
 5548 0e69 3B000000 		.4byte	0x3b
 5549 0e6d 21       		.byte	0x21
 5550 0e6e 00       		.byte	0x0
 5551 0e6f 1E       		.uleb128 0x1e
 5552 0e70 11010000 		.4byte	.LASF208
 5553 0e74 02       		.byte	0x2
 5554 0e75 45       		.byte	0x45
 5555 0e76 5F0E0000 		.4byte	0xe5f
 5556 0e7a 05       		.byte	0x5
 5557 0e7b 03       		.byte	0x3
 5558 0e7c 00000000 		.4byte	dspValue
 5559 0e80 1E       		.uleb128 0x1e
 5560 0e81 FB020000 		.4byte	.LASF209
 5561 0e85 02       		.byte	0x2
ARM GAS  C:\Users\DNIEL~1\AppData\Local\Temp\cceiqNg0.s 			page 100


 5562 0e86 46       		.byte	0x46
 5563 0e87 29000000 		.4byte	0x29
 5564 0e8b 05       		.byte	0x5
 5565 0e8c 03       		.byte	0x3
 5566 0e8d 00000000 		.4byte	tasknumber
 5567 0e91 1E       		.uleb128 0x1e
 5568 0e92 1A070000 		.4byte	.LASF210
 5569 0e96 02       		.byte	0x2
 5570 0e97 47       		.byte	0x47
 5571 0e98 49000000 		.4byte	0x49
 5572 0e9c 05       		.byte	0x5
 5573 0e9d 03       		.byte	0x3
 5574 0e9e 00000000 		.4byte	bus_status
 5575 0ea2 30       		.uleb128 0x30
 5576 0ea3 C7070000 		.4byte	.LASF211
 5577 0ea7 02       		.byte	0x2
 5578 0ea8 48       		.byte	0x48
 5579 0ea9 BC000000 		.4byte	0xbc
 5580 0ead 01       		.byte	0x1
 5581 0eae 01       		.byte	0x1
 5582 0eaf 32       		.uleb128 0x32
 5583 0eb0 BC000000 		.4byte	0xbc
 5584 0eb4 BF0E0000 		.4byte	0xebf
 5585 0eb8 33       		.uleb128 0x33
 5586 0eb9 3B000000 		.4byte	0x3b
 5587 0ebd 07       		.byte	0x7
 5588 0ebe 00       		.byte	0x0
 5589 0ebf 1E       		.uleb128 0x1e
 5590 0ec0 8F050000 		.4byte	.LASF212
 5591 0ec4 02       		.byte	0x2
 5592 0ec5 4A       		.byte	0x4a
 5593 0ec6 D00E0000 		.4byte	0xed0
 5594 0eca 05       		.byte	0x5
 5595 0ecb 03       		.byte	0x3
 5596 0ecc 00000000 		.4byte	bus_bit
 5597 0ed0 12       		.uleb128 0x12
 5598 0ed1 AF0E0000 		.4byte	0xeaf
 5599 0ed5 1E       		.uleb128 0x1e
 5600 0ed6 25030000 		.4byte	.LASF213
 5601 0eda 02       		.byte	0x2
 5602 0edb 4B       		.byte	0x4b
 5603 0edc 6D000000 		.4byte	0x6d
 5604 0ee0 05       		.byte	0x5
 5605 0ee1 03       		.byte	0x3
 5606 0ee2 00000000 		.4byte	danger
 5607 0ee6 1E       		.uleb128 0x1e
 5608 0ee7 27020000 		.4byte	.LASF214
 5609 0eeb 02       		.byte	0x2
 5610 0eec 4B       		.byte	0x4b
 5611 0eed 6D000000 		.4byte	0x6d
 5612 0ef1 05       		.byte	0x5
 5613 0ef2 03       		.byte	0x3
 5614 0ef3 00000000 		.4byte	motor_temp
 5615 0ef7 1E       		.uleb128 0x1e
 5616 0ef8 51010000 		.4byte	.LASF215
 5617 0efc 02       		.byte	0x2
 5618 0efd 4B       		.byte	0x4b
ARM GAS  C:\Users\DNIEL~1\AppData\Local\Temp\cceiqNg0.s 			page 101


 5619 0efe 6D000000 		.4byte	0x6d
 5620 0f02 05       		.byte	0x5
 5621 0f03 03       		.byte	0x3
 5622 0f04 00000000 		.4byte	discharge
 5623 0f08 1E       		.uleb128 0x1e
 5624 0f09 63060000 		.4byte	.LASF216
 5625 0f0d 02       		.byte	0x2
 5626 0f0e 4B       		.byte	0x4b
 5627 0f0f 6D000000 		.4byte	0x6d
 5628 0f13 05       		.byte	0x5
 5629 0f14 03       		.byte	0x3
 5630 0f15 00000000 		.4byte	over_charge
 5631 0f19 34       		.uleb128 0x34
 5632 0f1a 646200   		.ascii	"db\000"
 5633 0f1d 02       		.byte	0x2
 5634 0f1e 4D       		.byte	0x4d
 5635 0f1f 29000000 		.4byte	0x29
 5636 0f23 01       		.byte	0x1
 5637 0f24 01       		.byte	0x1
 5638 0f25 1E       		.uleb128 0x1e
 5639 0f26 99000000 		.4byte	.LASF217
 5640 0f2a 02       		.byte	0x2
 5641 0f2b C9       		.byte	0xc9
 5642 0f2c 91000000 		.4byte	0x91
 5643 0f30 05       		.byte	0x5
 5644 0f31 03       		.byte	0x3
 5645 0f32 00000000 		.4byte	bus_num
 5646 0f36 1E       		.uleb128 0x1e
 5647 0f37 DE050000 		.4byte	.LASF218
 5648 0f3b 02       		.byte	0x2
 5649 0f3c CA       		.byte	0xca
 5650 0f3d 49000000 		.4byte	0x49
 5651 0f41 05       		.byte	0x5
 5652 0f42 03       		.byte	0x3
 5653 0f43 00000000 		.4byte	valasz
 5654 0f47 32       		.uleb128 0x32
 5655 0f48 BB020000 		.4byte	0x2bb
 5656 0f4c 570F0000 		.4byte	0xf57
 5657 0f50 33       		.uleb128 0x33
 5658 0f51 3B000000 		.4byte	0x3b
 5659 0f55 99       		.byte	0x99
 5660 0f56 00       		.byte	0x0
 5661 0f57 1E       		.uleb128 0x1e
 5662 0f58 86030000 		.4byte	.LASF219
 5663 0f5c 02       		.byte	0x2
 5664 0f5d D0       		.byte	0xd0
 5665 0f5e 470F0000 		.4byte	0xf47
 5666 0f62 05       		.byte	0x5
 5667 0f63 03       		.byte	0x3
 5668 0f64 00000000 		.4byte	wadspTask
 5669 0f68 30       		.uleb128 0x30
 5670 0f69 FE000000 		.4byte	.LASF202
 5671 0f6d 09       		.byte	0x9
 5672 0f6e F5       		.byte	0xf5
 5673 0f6f 43040000 		.4byte	0x443
 5674 0f73 01       		.byte	0x1
 5675 0f74 01       		.byte	0x1
ARM GAS  C:\Users\DNIEL~1\AppData\Local\Temp\cceiqNg0.s 			page 102


 5676 0f75 30       		.uleb128 0x30
 5677 0f76 76070000 		.4byte	.LASF203
 5678 0f7a 0A       		.byte	0xa
 5679 0f7b 6F       		.byte	0x6f
 5680 0f7c AB040000 		.4byte	0x4ab
 5681 0f80 01       		.byte	0x1
 5682 0f81 01       		.byte	0x1
 5683 0f82 31       		.uleb128 0x31
 5684 0f83 25070000 		.4byte	.LASF204
 5685 0f87 14       		.byte	0x14
 5686 0f88 9806     		.2byte	0x698
 5687 0f8a 3F060000 		.4byte	0x63f
 5688 0f8e 01       		.byte	0x1
 5689 0f8f 01       		.byte	0x1
 5690 0f90 30       		.uleb128 0x30
 5691 0f91 D0000000 		.4byte	.LASF205
 5692 0f95 15       		.byte	0x15
 5693 0f96 0A       		.byte	0xa
 5694 0f97 FA080000 		.4byte	0x8fa
 5695 0f9b 01       		.byte	0x1
 5696 0f9c 01       		.byte	0x1
 5697 0f9d 35       		.uleb128 0x35
 5698 0f9e 41070000 		.4byte	.LASF206
 5699 0fa2 02       		.byte	0x2
 5700 0fa3 1E       		.byte	0x1e
 5701 0fa4 7A0A0000 		.4byte	0xa7a
 5702 0fa8 01       		.byte	0x1
 5703 0fa9 05       		.byte	0x5
 5704 0faa 03       		.byte	0x3
 5705 0fab 00000000 		.4byte	dspstate
 5706 0faf 35       		.uleb128 0x35
 5707 0fb0 7C080000 		.4byte	.LASF207
 5708 0fb4 02       		.byte	0x2
 5709 0fb5 43       		.byte	0x43
 5710 0fb6 930A0000 		.4byte	0xa93
 5711 0fba 01       		.byte	0x1
 5712 0fbb 05       		.byte	0x5
 5713 0fbc 03       		.byte	0x3
 5714 0fbd 00000000 		.4byte	dspmessages
 5715 0fc1 35       		.uleb128 0x35
 5716 0fc2 C7070000 		.4byte	.LASF211
 5717 0fc6 02       		.byte	0x2
 5718 0fc7 48       		.byte	0x48
 5719 0fc8 BC000000 		.4byte	0xbc
 5720 0fcc 01       		.byte	0x1
 5721 0fcd 05       		.byte	0x5
 5722 0fce 03       		.byte	0x3
 5723 0fcf 00000000 		.4byte	dsp_activ
 5724 0fd3 36       		.uleb128 0x36
 5725 0fd4 6300     		.ascii	"c\000"
 5726 0fd6 02       		.byte	0x2
 5727 0fd7 49       		.byte	0x49
 5728 0fd8 49000000 		.4byte	0x49
 5729 0fdc 01       		.byte	0x1
 5730 0fdd 05       		.byte	0x5
 5731 0fde 03       		.byte	0x3
 5732 0fdf 00000000 		.4byte	c
ARM GAS  C:\Users\DNIEL~1\AppData\Local\Temp\cceiqNg0.s 			page 103


 5733 0fe3 36       		.uleb128 0x36
 5734 0fe4 646200   		.ascii	"db\000"
 5735 0fe7 02       		.byte	0x2
 5736 0fe8 4D       		.byte	0x4d
 5737 0fe9 29000000 		.4byte	0x29
 5738 0fed 01       		.byte	0x1
 5739 0fee 05       		.byte	0x5
 5740 0fef 03       		.byte	0x3
 5741 0ff0 00000000 		.4byte	db
 5742 0ff4 36       		.uleb128 0x36
 5743 0ff5 64623200 		.ascii	"db2\000"
 5744 0ff9 02       		.byte	0x2
 5745 0ffa 4E       		.byte	0x4e
 5746 0ffb 29000000 		.4byte	0x29
 5747 0fff 01       		.byte	0x1
 5748 1000 05       		.byte	0x5
 5749 1001 03       		.byte	0x3
 5750 1002 00000000 		.4byte	db2
 5751 1006 35       		.uleb128 0x35
 5752 1007 D1070000 		.4byte	.LASF220
 5753 100b 02       		.byte	0x2
 5754 100c CB       		.byte	0xcb
 5755 100d BC000000 		.4byte	0xbc
 5756 1011 01       		.byte	0x1
 5757 1012 05       		.byte	0x5
 5758 1013 03       		.byte	0x3
 5759 1014 00000000 		.4byte	cruise_assis
 5760 1018 00       		.byte	0x0
 5761              		.section	.debug_abbrev
 5762 0000 01       		.uleb128 0x1
 5763 0001 11       		.uleb128 0x11
 5764 0002 01       		.byte	0x1
 5765 0003 25       		.uleb128 0x25
 5766 0004 0E       		.uleb128 0xe
 5767 0005 13       		.uleb128 0x13
 5768 0006 0B       		.uleb128 0xb
 5769 0007 03       		.uleb128 0x3
 5770 0008 0E       		.uleb128 0xe
 5771 0009 1B       		.uleb128 0x1b
 5772 000a 0E       		.uleb128 0xe
 5773 000b 11       		.uleb128 0x11
 5774 000c 01       		.uleb128 0x1
 5775 000d 52       		.uleb128 0x52
 5776 000e 01       		.uleb128 0x1
 5777 000f 55       		.uleb128 0x55
 5778 0010 06       		.uleb128 0x6
 5779 0011 10       		.uleb128 0x10
 5780 0012 06       		.uleb128 0x6
 5781 0013 00       		.byte	0x0
 5782 0014 00       		.byte	0x0
 5783 0015 02       		.uleb128 0x2
 5784 0016 24       		.uleb128 0x24
 5785 0017 00       		.byte	0x0
 5786 0018 0B       		.uleb128 0xb
 5787 0019 0B       		.uleb128 0xb
 5788 001a 3E       		.uleb128 0x3e
 5789 001b 0B       		.uleb128 0xb
ARM GAS  C:\Users\DNIEL~1\AppData\Local\Temp\cceiqNg0.s 			page 104


 5790 001c 03       		.uleb128 0x3
 5791 001d 08       		.uleb128 0x8
 5792 001e 00       		.byte	0x0
 5793 001f 00       		.byte	0x0
 5794 0020 03       		.uleb128 0x3
 5795 0021 16       		.uleb128 0x16
 5796 0022 00       		.byte	0x0
 5797 0023 03       		.uleb128 0x3
 5798 0024 0E       		.uleb128 0xe
 5799 0025 3A       		.uleb128 0x3a
 5800 0026 0B       		.uleb128 0xb
 5801 0027 3B       		.uleb128 0x3b
 5802 0028 0B       		.uleb128 0xb
 5803 0029 49       		.uleb128 0x49
 5804 002a 13       		.uleb128 0x13
 5805 002b 00       		.byte	0x0
 5806 002c 00       		.byte	0x0
 5807 002d 04       		.uleb128 0x4
 5808 002e 24       		.uleb128 0x24
 5809 002f 00       		.byte	0x0
 5810 0030 0B       		.uleb128 0xb
 5811 0031 0B       		.uleb128 0xb
 5812 0032 3E       		.uleb128 0x3e
 5813 0033 0B       		.uleb128 0xb
 5814 0034 03       		.uleb128 0x3
 5815 0035 0E       		.uleb128 0xe
 5816 0036 00       		.byte	0x0
 5817 0037 00       		.byte	0x0
 5818 0038 05       		.uleb128 0x5
 5819 0039 13       		.uleb128 0x13
 5820 003a 01       		.byte	0x1
 5821 003b 03       		.uleb128 0x3
 5822 003c 0E       		.uleb128 0xe
 5823 003d 0B       		.uleb128 0xb
 5824 003e 0B       		.uleb128 0xb
 5825 003f 3A       		.uleb128 0x3a
 5826 0040 0B       		.uleb128 0xb
 5827 0041 3B       		.uleb128 0x3b
 5828 0042 0B       		.uleb128 0xb
 5829 0043 01       		.uleb128 0x1
 5830 0044 13       		.uleb128 0x13
 5831 0045 00       		.byte	0x0
 5832 0046 00       		.byte	0x0
 5833 0047 06       		.uleb128 0x6
 5834 0048 0D       		.uleb128 0xd
 5835 0049 00       		.byte	0x0
 5836 004a 03       		.uleb128 0x3
 5837 004b 0E       		.uleb128 0xe
 5838 004c 3A       		.uleb128 0x3a
 5839 004d 0B       		.uleb128 0xb
 5840 004e 3B       		.uleb128 0x3b
 5841 004f 0B       		.uleb128 0xb
 5842 0050 49       		.uleb128 0x49
 5843 0051 13       		.uleb128 0x13
 5844 0052 38       		.uleb128 0x38
 5845 0053 0A       		.uleb128 0xa
 5846 0054 00       		.byte	0x0
ARM GAS  C:\Users\DNIEL~1\AppData\Local\Temp\cceiqNg0.s 			page 105


 5847 0055 00       		.byte	0x0
 5848 0056 07       		.uleb128 0x7
 5849 0057 0D       		.uleb128 0xd
 5850 0058 00       		.byte	0x0
 5851 0059 03       		.uleb128 0x3
 5852 005a 08       		.uleb128 0x8
 5853 005b 3A       		.uleb128 0x3a
 5854 005c 0B       		.uleb128 0xb
 5855 005d 3B       		.uleb128 0x3b
 5856 005e 0B       		.uleb128 0xb
 5857 005f 49       		.uleb128 0x49
 5858 0060 13       		.uleb128 0x13
 5859 0061 38       		.uleb128 0x38
 5860 0062 0A       		.uleb128 0xa
 5861 0063 00       		.byte	0x0
 5862 0064 00       		.byte	0x0
 5863 0065 08       		.uleb128 0x8
 5864 0066 13       		.uleb128 0x13
 5865 0067 01       		.byte	0x1
 5866 0068 0B       		.uleb128 0xb
 5867 0069 0B       		.uleb128 0xb
 5868 006a 3A       		.uleb128 0x3a
 5869 006b 0B       		.uleb128 0xb
 5870 006c 3B       		.uleb128 0x3b
 5871 006d 0B       		.uleb128 0xb
 5872 006e 01       		.uleb128 0x1
 5873 006f 13       		.uleb128 0x13
 5874 0070 00       		.byte	0x0
 5875 0071 00       		.byte	0x0
 5876 0072 09       		.uleb128 0x9
 5877 0073 0F       		.uleb128 0xf
 5878 0074 00       		.byte	0x0
 5879 0075 0B       		.uleb128 0xb
 5880 0076 0B       		.uleb128 0xb
 5881 0077 49       		.uleb128 0x49
 5882 0078 13       		.uleb128 0x13
 5883 0079 00       		.byte	0x0
 5884 007a 00       		.byte	0x0
 5885 007b 0A       		.uleb128 0xa
 5886 007c 0F       		.uleb128 0xf
 5887 007d 00       		.byte	0x0
 5888 007e 0B       		.uleb128 0xb
 5889 007f 0B       		.uleb128 0xb
 5890 0080 00       		.byte	0x0
 5891 0081 00       		.byte	0x0
 5892 0082 0B       		.uleb128 0xb
 5893 0083 13       		.uleb128 0x13
 5894 0084 01       		.byte	0x1
 5895 0085 03       		.uleb128 0x3
 5896 0086 0E       		.uleb128 0xe
 5897 0087 0B       		.uleb128 0xb
 5898 0088 0B       		.uleb128 0xb
 5899 0089 3A       		.uleb128 0x3a
 5900 008a 0B       		.uleb128 0xb
 5901 008b 3B       		.uleb128 0x3b
 5902 008c 05       		.uleb128 0x5
 5903 008d 01       		.uleb128 0x1
ARM GAS  C:\Users\DNIEL~1\AppData\Local\Temp\cceiqNg0.s 			page 106


 5904 008e 13       		.uleb128 0x13
 5905 008f 00       		.byte	0x0
 5906 0090 00       		.byte	0x0
 5907 0091 0C       		.uleb128 0xc
 5908 0092 0D       		.uleb128 0xd
 5909 0093 00       		.byte	0x0
 5910 0094 03       		.uleb128 0x3
 5911 0095 08       		.uleb128 0x8
 5912 0096 3A       		.uleb128 0x3a
 5913 0097 0B       		.uleb128 0xb
 5914 0098 3B       		.uleb128 0x3b
 5915 0099 05       		.uleb128 0x5
 5916 009a 49       		.uleb128 0x49
 5917 009b 13       		.uleb128 0x13
 5918 009c 38       		.uleb128 0x38
 5919 009d 0A       		.uleb128 0xa
 5920 009e 00       		.byte	0x0
 5921 009f 00       		.byte	0x0
 5922 00a0 0D       		.uleb128 0xd
 5923 00a1 35       		.uleb128 0x35
 5924 00a2 00       		.byte	0x0
 5925 00a3 49       		.uleb128 0x49
 5926 00a4 13       		.uleb128 0x13
 5927 00a5 00       		.byte	0x0
 5928 00a6 00       		.byte	0x0
 5929 00a7 0E       		.uleb128 0xe
 5930 00a8 15       		.uleb128 0x15
 5931 00a9 01       		.byte	0x1
 5932 00aa 27       		.uleb128 0x27
 5933 00ab 0C       		.uleb128 0xc
 5934 00ac 01       		.uleb128 0x1
 5935 00ad 13       		.uleb128 0x13
 5936 00ae 00       		.byte	0x0
 5937 00af 00       		.byte	0x0
 5938 00b0 0F       		.uleb128 0xf
 5939 00b1 05       		.uleb128 0x5
 5940 00b2 00       		.byte	0x0
 5941 00b3 49       		.uleb128 0x49
 5942 00b4 13       		.uleb128 0x13
 5943 00b5 00       		.byte	0x0
 5944 00b6 00       		.byte	0x0
 5945 00b7 10       		.uleb128 0x10
 5946 00b8 17       		.uleb128 0x17
 5947 00b9 01       		.byte	0x1
 5948 00ba 0B       		.uleb128 0xb
 5949 00bb 0B       		.uleb128 0xb
 5950 00bc 3A       		.uleb128 0x3a
 5951 00bd 0B       		.uleb128 0xb
 5952 00be 3B       		.uleb128 0x3b
 5953 00bf 0B       		.uleb128 0xb
 5954 00c0 01       		.uleb128 0x1
 5955 00c1 13       		.uleb128 0x13
 5956 00c2 00       		.byte	0x0
 5957 00c3 00       		.byte	0x0
 5958 00c4 11       		.uleb128 0x11
 5959 00c5 0D       		.uleb128 0xd
 5960 00c6 00       		.byte	0x0
ARM GAS  C:\Users\DNIEL~1\AppData\Local\Temp\cceiqNg0.s 			page 107


 5961 00c7 03       		.uleb128 0x3
 5962 00c8 0E       		.uleb128 0xe
 5963 00c9 3A       		.uleb128 0x3a
 5964 00ca 0B       		.uleb128 0xb
 5965 00cb 3B       		.uleb128 0x3b
 5966 00cc 0B       		.uleb128 0xb
 5967 00cd 49       		.uleb128 0x49
 5968 00ce 13       		.uleb128 0x13
 5969 00cf 00       		.byte	0x0
 5970 00d0 00       		.byte	0x0
 5971 00d1 12       		.uleb128 0x12
 5972 00d2 26       		.uleb128 0x26
 5973 00d3 00       		.byte	0x0
 5974 00d4 49       		.uleb128 0x49
 5975 00d5 13       		.uleb128 0x13
 5976 00d6 00       		.byte	0x0
 5977 00d7 00       		.byte	0x0
 5978 00d8 13       		.uleb128 0x13
 5979 00d9 15       		.uleb128 0x15
 5980 00da 01       		.byte	0x1
 5981 00db 27       		.uleb128 0x27
 5982 00dc 0C       		.uleb128 0xc
 5983 00dd 49       		.uleb128 0x49
 5984 00de 13       		.uleb128 0x13
 5985 00df 01       		.uleb128 0x1
 5986 00e0 13       		.uleb128 0x13
 5987 00e1 00       		.byte	0x0
 5988 00e2 00       		.byte	0x0
 5989 00e3 14       		.uleb128 0x14
 5990 00e4 0D       		.uleb128 0xd
 5991 00e5 00       		.byte	0x0
 5992 00e6 03       		.uleb128 0x3
 5993 00e7 08       		.uleb128 0x8
 5994 00e8 3A       		.uleb128 0x3a
 5995 00e9 0B       		.uleb128 0xb
 5996 00ea 3B       		.uleb128 0x3b
 5997 00eb 0B       		.uleb128 0xb
 5998 00ec 49       		.uleb128 0x49
 5999 00ed 13       		.uleb128 0x13
 6000 00ee 00       		.byte	0x0
 6001 00ef 00       		.byte	0x0
 6002 00f0 15       		.uleb128 0x15
 6003 00f1 04       		.uleb128 0x4
 6004 00f2 01       		.byte	0x1
 6005 00f3 03       		.uleb128 0x3
 6006 00f4 0E       		.uleb128 0xe
 6007 00f5 0B       		.uleb128 0xb
 6008 00f6 0B       		.uleb128 0xb
 6009 00f7 3A       		.uleb128 0x3a
 6010 00f8 0B       		.uleb128 0xb
 6011 00f9 3B       		.uleb128 0x3b
 6012 00fa 0B       		.uleb128 0xb
 6013 00fb 01       		.uleb128 0x1
 6014 00fc 13       		.uleb128 0x13
 6015 00fd 00       		.byte	0x0
 6016 00fe 00       		.byte	0x0
 6017 00ff 16       		.uleb128 0x16
ARM GAS  C:\Users\DNIEL~1\AppData\Local\Temp\cceiqNg0.s 			page 108


 6018 0100 28       		.uleb128 0x28
 6019 0101 00       		.byte	0x0
 6020 0102 03       		.uleb128 0x3
 6021 0103 0E       		.uleb128 0xe
 6022 0104 1C       		.uleb128 0x1c
 6023 0105 0D       		.uleb128 0xd
 6024 0106 00       		.byte	0x0
 6025 0107 00       		.byte	0x0
 6026 0108 17       		.uleb128 0x17
 6027 0109 0D       		.uleb128 0xd
 6028 010a 00       		.byte	0x0
 6029 010b 03       		.uleb128 0x3
 6030 010c 0E       		.uleb128 0xe
 6031 010d 49       		.uleb128 0x49
 6032 010e 13       		.uleb128 0x13
 6033 010f 38       		.uleb128 0x38
 6034 0110 0A       		.uleb128 0xa
 6035 0111 34       		.uleb128 0x34
 6036 0112 0C       		.uleb128 0xc
 6037 0113 00       		.byte	0x0
 6038 0114 00       		.byte	0x0
 6039 0115 18       		.uleb128 0x18
 6040 0116 2E       		.uleb128 0x2e
 6041 0117 01       		.byte	0x1
 6042 0118 03       		.uleb128 0x3
 6043 0119 0E       		.uleb128 0xe
 6044 011a 3A       		.uleb128 0x3a
 6045 011b 0B       		.uleb128 0xb
 6046 011c 3B       		.uleb128 0x3b
 6047 011d 0B       		.uleb128 0xb
 6048 011e 27       		.uleb128 0x27
 6049 011f 0C       		.uleb128 0xc
 6050 0120 11       		.uleb128 0x11
 6051 0121 01       		.uleb128 0x1
 6052 0122 12       		.uleb128 0x12
 6053 0123 01       		.uleb128 0x1
 6054 0124 40       		.uleb128 0x40
 6055 0125 06       		.uleb128 0x6
 6056 0126 01       		.uleb128 0x1
 6057 0127 13       		.uleb128 0x13
 6058 0128 00       		.byte	0x0
 6059 0129 00       		.byte	0x0
 6060 012a 19       		.uleb128 0x19
 6061 012b 05       		.uleb128 0x5
 6062 012c 00       		.byte	0x0
 6063 012d 03       		.uleb128 0x3
 6064 012e 08       		.uleb128 0x8
 6065 012f 3A       		.uleb128 0x3a
 6066 0130 0B       		.uleb128 0xb
 6067 0131 3B       		.uleb128 0x3b
 6068 0132 0B       		.uleb128 0xb
 6069 0133 49       		.uleb128 0x49
 6070 0134 13       		.uleb128 0x13
 6071 0135 02       		.uleb128 0x2
 6072 0136 06       		.uleb128 0x6
 6073 0137 00       		.byte	0x0
 6074 0138 00       		.byte	0x0
ARM GAS  C:\Users\DNIEL~1\AppData\Local\Temp\cceiqNg0.s 			page 109


 6075 0139 1A       		.uleb128 0x1a
 6076 013a 05       		.uleb128 0x5
 6077 013b 00       		.byte	0x0
 6078 013c 03       		.uleb128 0x3
 6079 013d 08       		.uleb128 0x8
 6080 013e 3A       		.uleb128 0x3a
 6081 013f 0B       		.uleb128 0xb
 6082 0140 3B       		.uleb128 0x3b
 6083 0141 0B       		.uleb128 0xb
 6084 0142 49       		.uleb128 0x49
 6085 0143 13       		.uleb128 0x13
 6086 0144 02       		.uleb128 0x2
 6087 0145 0A       		.uleb128 0xa
 6088 0146 00       		.byte	0x0
 6089 0147 00       		.byte	0x0
 6090 0148 1B       		.uleb128 0x1b
 6091 0149 18       		.uleb128 0x18
 6092 014a 00       		.byte	0x0
 6093 014b 00       		.byte	0x0
 6094 014c 00       		.byte	0x0
 6095 014d 1C       		.uleb128 0x1c
 6096 014e 34       		.uleb128 0x34
 6097 014f 00       		.byte	0x0
 6098 0150 03       		.uleb128 0x3
 6099 0151 08       		.uleb128 0x8
 6100 0152 3A       		.uleb128 0x3a
 6101 0153 0B       		.uleb128 0xb
 6102 0154 3B       		.uleb128 0x3b
 6103 0155 0B       		.uleb128 0xb
 6104 0156 49       		.uleb128 0x49
 6105 0157 13       		.uleb128 0x13
 6106 0158 02       		.uleb128 0x2
 6107 0159 0A       		.uleb128 0xa
 6108 015a 00       		.byte	0x0
 6109 015b 00       		.byte	0x0
 6110 015c 1D       		.uleb128 0x1d
 6111 015d 2E       		.uleb128 0x2e
 6112 015e 01       		.byte	0x1
 6113 015f 03       		.uleb128 0x3
 6114 0160 0E       		.uleb128 0xe
 6115 0161 3A       		.uleb128 0x3a
 6116 0162 0B       		.uleb128 0xb
 6117 0163 3B       		.uleb128 0x3b
 6118 0164 0B       		.uleb128 0xb
 6119 0165 27       		.uleb128 0x27
 6120 0166 0C       		.uleb128 0xc
 6121 0167 49       		.uleb128 0x49
 6122 0168 13       		.uleb128 0x13
 6123 0169 11       		.uleb128 0x11
 6124 016a 01       		.uleb128 0x1
 6125 016b 12       		.uleb128 0x12
 6126 016c 01       		.uleb128 0x1
 6127 016d 40       		.uleb128 0x40
 6128 016e 06       		.uleb128 0x6
 6129 016f 01       		.uleb128 0x1
 6130 0170 13       		.uleb128 0x13
 6131 0171 00       		.byte	0x0
ARM GAS  C:\Users\DNIEL~1\AppData\Local\Temp\cceiqNg0.s 			page 110


 6132 0172 00       		.byte	0x0
 6133 0173 1E       		.uleb128 0x1e
 6134 0174 34       		.uleb128 0x34
 6135 0175 00       		.byte	0x0
 6136 0176 03       		.uleb128 0x3
 6137 0177 0E       		.uleb128 0xe
 6138 0178 3A       		.uleb128 0x3a
 6139 0179 0B       		.uleb128 0xb
 6140 017a 3B       		.uleb128 0x3b
 6141 017b 0B       		.uleb128 0xb
 6142 017c 49       		.uleb128 0x49
 6143 017d 13       		.uleb128 0x13
 6144 017e 02       		.uleb128 0x2
 6145 017f 0A       		.uleb128 0xa
 6146 0180 00       		.byte	0x0
 6147 0181 00       		.byte	0x0
 6148 0182 1F       		.uleb128 0x1f
 6149 0183 0B       		.uleb128 0xb
 6150 0184 01       		.byte	0x1
 6151 0185 55       		.uleb128 0x55
 6152 0186 06       		.uleb128 0x6
 6153 0187 00       		.byte	0x0
 6154 0188 00       		.byte	0x0
 6155 0189 20       		.uleb128 0x20
 6156 018a 34       		.uleb128 0x34
 6157 018b 00       		.byte	0x0
 6158 018c 03       		.uleb128 0x3
 6159 018d 0E       		.uleb128 0xe
 6160 018e 3A       		.uleb128 0x3a
 6161 018f 0B       		.uleb128 0xb
 6162 0190 3B       		.uleb128 0x3b
 6163 0191 0B       		.uleb128 0xb
 6164 0192 49       		.uleb128 0x49
 6165 0193 13       		.uleb128 0x13
 6166 0194 02       		.uleb128 0x2
 6167 0195 06       		.uleb128 0x6
 6168 0196 00       		.byte	0x0
 6169 0197 00       		.byte	0x0
 6170 0198 21       		.uleb128 0x21
 6171 0199 2E       		.uleb128 0x2e
 6172 019a 01       		.byte	0x1
 6173 019b 3F       		.uleb128 0x3f
 6174 019c 0C       		.uleb128 0xc
 6175 019d 03       		.uleb128 0x3
 6176 019e 0E       		.uleb128 0xe
 6177 019f 3A       		.uleb128 0x3a
 6178 01a0 0B       		.uleb128 0xb
 6179 01a1 3B       		.uleb128 0x3b
 6180 01a2 0B       		.uleb128 0xb
 6181 01a3 49       		.uleb128 0x49
 6182 01a4 13       		.uleb128 0x13
 6183 01a5 3C       		.uleb128 0x3c
 6184 01a6 0C       		.uleb128 0xc
 6185 01a7 01       		.uleb128 0x1
 6186 01a8 13       		.uleb128 0x13
 6187 01a9 00       		.byte	0x0
 6188 01aa 00       		.byte	0x0
ARM GAS  C:\Users\DNIEL~1\AppData\Local\Temp\cceiqNg0.s 			page 111


 6189 01ab 22       		.uleb128 0x22
 6190 01ac 2E       		.uleb128 0x2e
 6191 01ad 01       		.byte	0x1
 6192 01ae 3F       		.uleb128 0x3f
 6193 01af 0C       		.uleb128 0xc
 6194 01b0 03       		.uleb128 0x3
 6195 01b1 0E       		.uleb128 0xe
 6196 01b2 3A       		.uleb128 0x3a
 6197 01b3 0B       		.uleb128 0xb
 6198 01b4 3B       		.uleb128 0x3b
 6199 01b5 05       		.uleb128 0x5
 6200 01b6 49       		.uleb128 0x49
 6201 01b7 13       		.uleb128 0x13
 6202 01b8 3C       		.uleb128 0x3c
 6203 01b9 0C       		.uleb128 0xc
 6204 01ba 00       		.byte	0x0
 6205 01bb 00       		.byte	0x0
 6206 01bc 23       		.uleb128 0x23
 6207 01bd 2E       		.uleb128 0x2e
 6208 01be 00       		.byte	0x0
 6209 01bf 3F       		.uleb128 0x3f
 6210 01c0 0C       		.uleb128 0xc
 6211 01c1 03       		.uleb128 0x3
 6212 01c2 0E       		.uleb128 0xe
 6213 01c3 3A       		.uleb128 0x3a
 6214 01c4 0B       		.uleb128 0xb
 6215 01c5 3B       		.uleb128 0x3b
 6216 01c6 0B       		.uleb128 0xb
 6217 01c7 27       		.uleb128 0x27
 6218 01c8 0C       		.uleb128 0xc
 6219 01c9 11       		.uleb128 0x11
 6220 01ca 01       		.uleb128 0x1
 6221 01cb 12       		.uleb128 0x12
 6222 01cc 01       		.uleb128 0x1
 6223 01cd 40       		.uleb128 0x40
 6224 01ce 06       		.uleb128 0x6
 6225 01cf 00       		.byte	0x0
 6226 01d0 00       		.byte	0x0
 6227 01d1 24       		.uleb128 0x24
 6228 01d2 2E       		.uleb128 0x2e
 6229 01d3 01       		.byte	0x1
 6230 01d4 3F       		.uleb128 0x3f
 6231 01d5 0C       		.uleb128 0xc
 6232 01d6 03       		.uleb128 0x3
 6233 01d7 0E       		.uleb128 0xe
 6234 01d8 3A       		.uleb128 0x3a
 6235 01d9 0B       		.uleb128 0xb
 6236 01da 3B       		.uleb128 0x3b
 6237 01db 0B       		.uleb128 0xb
 6238 01dc 27       		.uleb128 0x27
 6239 01dd 0C       		.uleb128 0xc
 6240 01de 11       		.uleb128 0x11
 6241 01df 01       		.uleb128 0x1
 6242 01e0 12       		.uleb128 0x12
 6243 01e1 01       		.uleb128 0x1
 6244 01e2 40       		.uleb128 0x40
 6245 01e3 06       		.uleb128 0x6
ARM GAS  C:\Users\DNIEL~1\AppData\Local\Temp\cceiqNg0.s 			page 112


 6246 01e4 01       		.uleb128 0x1
 6247 01e5 13       		.uleb128 0x13
 6248 01e6 00       		.byte	0x0
 6249 01e7 00       		.byte	0x0
 6250 01e8 25       		.uleb128 0x25
 6251 01e9 2E       		.uleb128 0x2e
 6252 01ea 01       		.byte	0x1
 6253 01eb 3F       		.uleb128 0x3f
 6254 01ec 0C       		.uleb128 0xc
 6255 01ed 03       		.uleb128 0x3
 6256 01ee 0E       		.uleb128 0xe
 6257 01ef 3A       		.uleb128 0x3a
 6258 01f0 0B       		.uleb128 0xb
 6259 01f1 3B       		.uleb128 0x3b
 6260 01f2 0B       		.uleb128 0xb
 6261 01f3 49       		.uleb128 0x49
 6262 01f4 13       		.uleb128 0x13
 6263 01f5 3C       		.uleb128 0x3c
 6264 01f6 0C       		.uleb128 0xc
 6265 01f7 00       		.byte	0x0
 6266 01f8 00       		.byte	0x0
 6267 01f9 26       		.uleb128 0x26
 6268 01fa 05       		.uleb128 0x5
 6269 01fb 00       		.byte	0x0
 6270 01fc 03       		.uleb128 0x3
 6271 01fd 0E       		.uleb128 0xe
 6272 01fe 3A       		.uleb128 0x3a
 6273 01ff 0B       		.uleb128 0xb
 6274 0200 3B       		.uleb128 0x3b
 6275 0201 0B       		.uleb128 0xb
 6276 0202 49       		.uleb128 0x49
 6277 0203 13       		.uleb128 0x13
 6278 0204 02       		.uleb128 0x2
 6279 0205 06       		.uleb128 0x6
 6280 0206 00       		.byte	0x0
 6281 0207 00       		.byte	0x0
 6282 0208 27       		.uleb128 0x27
 6283 0209 2E       		.uleb128 0x2e
 6284 020a 00       		.byte	0x0
 6285 020b 3F       		.uleb128 0x3f
 6286 020c 0C       		.uleb128 0xc
 6287 020d 03       		.uleb128 0x3
 6288 020e 0E       		.uleb128 0xe
 6289 020f 3A       		.uleb128 0x3a
 6290 0210 0B       		.uleb128 0xb
 6291 0211 3B       		.uleb128 0x3b
 6292 0212 05       		.uleb128 0x5
 6293 0213 27       		.uleb128 0x27
 6294 0214 0C       		.uleb128 0xc
 6295 0215 11       		.uleb128 0x11
 6296 0216 01       		.uleb128 0x1
 6297 0217 12       		.uleb128 0x12
 6298 0218 01       		.uleb128 0x1
 6299 0219 40       		.uleb128 0x40
 6300 021a 06       		.uleb128 0x6
 6301 021b 00       		.byte	0x0
 6302 021c 00       		.byte	0x0
ARM GAS  C:\Users\DNIEL~1\AppData\Local\Temp\cceiqNg0.s 			page 113


 6303 021d 28       		.uleb128 0x28
 6304 021e 2E       		.uleb128 0x2e
 6305 021f 01       		.byte	0x1
 6306 0220 3F       		.uleb128 0x3f
 6307 0221 0C       		.uleb128 0xc
 6308 0222 03       		.uleb128 0x3
 6309 0223 0E       		.uleb128 0xe
 6310 0224 3A       		.uleb128 0x3a
 6311 0225 0B       		.uleb128 0xb
 6312 0226 3B       		.uleb128 0x3b
 6313 0227 05       		.uleb128 0x5
 6314 0228 27       		.uleb128 0x27
 6315 0229 0C       		.uleb128 0xc
 6316 022a 49       		.uleb128 0x49
 6317 022b 13       		.uleb128 0x13
 6318 022c 11       		.uleb128 0x11
 6319 022d 01       		.uleb128 0x1
 6320 022e 12       		.uleb128 0x12
 6321 022f 01       		.uleb128 0x1
 6322 0230 40       		.uleb128 0x40
 6323 0231 0A       		.uleb128 0xa
 6324 0232 01       		.uleb128 0x1
 6325 0233 13       		.uleb128 0x13
 6326 0234 00       		.byte	0x0
 6327 0235 00       		.byte	0x0
 6328 0236 29       		.uleb128 0x29
 6329 0237 05       		.uleb128 0x5
 6330 0238 00       		.byte	0x0
 6331 0239 03       		.uleb128 0x3
 6332 023a 08       		.uleb128 0x8
 6333 023b 3A       		.uleb128 0x3a
 6334 023c 0B       		.uleb128 0xb
 6335 023d 3B       		.uleb128 0x3b
 6336 023e 05       		.uleb128 0x5
 6337 023f 49       		.uleb128 0x49
 6338 0240 13       		.uleb128 0x13
 6339 0241 02       		.uleb128 0x2
 6340 0242 06       		.uleb128 0x6
 6341 0243 00       		.byte	0x0
 6342 0244 00       		.byte	0x0
 6343 0245 2A       		.uleb128 0x2a
 6344 0246 2E       		.uleb128 0x2e
 6345 0247 00       		.byte	0x0
 6346 0248 3F       		.uleb128 0x3f
 6347 0249 0C       		.uleb128 0xc
 6348 024a 03       		.uleb128 0x3
 6349 024b 0E       		.uleb128 0xe
 6350 024c 3A       		.uleb128 0x3a
 6351 024d 0B       		.uleb128 0xb
 6352 024e 3B       		.uleb128 0x3b
 6353 024f 05       		.uleb128 0x5
 6354 0250 27       		.uleb128 0x27
 6355 0251 0C       		.uleb128 0xc
 6356 0252 49       		.uleb128 0x49
 6357 0253 13       		.uleb128 0x13
 6358 0254 11       		.uleb128 0x11
 6359 0255 01       		.uleb128 0x1
ARM GAS  C:\Users\DNIEL~1\AppData\Local\Temp\cceiqNg0.s 			page 114


 6360 0256 12       		.uleb128 0x12
 6361 0257 01       		.uleb128 0x1
 6362 0258 40       		.uleb128 0x40
 6363 0259 0A       		.uleb128 0xa
 6364 025a 00       		.byte	0x0
 6365 025b 00       		.byte	0x0
 6366 025c 2B       		.uleb128 0x2b
 6367 025d 2E       		.uleb128 0x2e
 6368 025e 01       		.byte	0x1
 6369 025f 3F       		.uleb128 0x3f
 6370 0260 0C       		.uleb128 0xc
 6371 0261 03       		.uleb128 0x3
 6372 0262 0E       		.uleb128 0xe
 6373 0263 3A       		.uleb128 0x3a
 6374 0264 0B       		.uleb128 0xb
 6375 0265 3B       		.uleb128 0x3b
 6376 0266 05       		.uleb128 0x5
 6377 0267 27       		.uleb128 0x27
 6378 0268 0C       		.uleb128 0xc
 6379 0269 11       		.uleb128 0x11
 6380 026a 01       		.uleb128 0x1
 6381 026b 12       		.uleb128 0x12
 6382 026c 01       		.uleb128 0x1
 6383 026d 40       		.uleb128 0x40
 6384 026e 06       		.uleb128 0x6
 6385 026f 01       		.uleb128 0x1
 6386 0270 13       		.uleb128 0x13
 6387 0271 00       		.byte	0x0
 6388 0272 00       		.byte	0x0
 6389 0273 2C       		.uleb128 0x2c
 6390 0274 05       		.uleb128 0x5
 6391 0275 00       		.byte	0x0
 6392 0276 03       		.uleb128 0x3
 6393 0277 0E       		.uleb128 0xe
 6394 0278 3A       		.uleb128 0x3a
 6395 0279 0B       		.uleb128 0xb
 6396 027a 3B       		.uleb128 0x3b
 6397 027b 05       		.uleb128 0x5
 6398 027c 49       		.uleb128 0x49
 6399 027d 13       		.uleb128 0x13
 6400 027e 02       		.uleb128 0x2
 6401 027f 06       		.uleb128 0x6
 6402 0280 00       		.byte	0x0
 6403 0281 00       		.byte	0x0
 6404 0282 2D       		.uleb128 0x2d
 6405 0283 34       		.uleb128 0x34
 6406 0284 00       		.byte	0x0
 6407 0285 03       		.uleb128 0x3
 6408 0286 08       		.uleb128 0x8
 6409 0287 3A       		.uleb128 0x3a
 6410 0288 0B       		.uleb128 0xb
 6411 0289 3B       		.uleb128 0x3b
 6412 028a 05       		.uleb128 0x5
 6413 028b 49       		.uleb128 0x49
 6414 028c 13       		.uleb128 0x13
 6415 028d 02       		.uleb128 0x2
 6416 028e 06       		.uleb128 0x6
ARM GAS  C:\Users\DNIEL~1\AppData\Local\Temp\cceiqNg0.s 			page 115


 6417 028f 00       		.byte	0x0
 6418 0290 00       		.byte	0x0
 6419 0291 2E       		.uleb128 0x2e
 6420 0292 0A       		.uleb128 0xa
 6421 0293 00       		.byte	0x0
 6422 0294 03       		.uleb128 0x3
 6423 0295 0E       		.uleb128 0xe
 6424 0296 3A       		.uleb128 0x3a
 6425 0297 0B       		.uleb128 0xb
 6426 0298 3B       		.uleb128 0x3b
 6427 0299 05       		.uleb128 0x5
 6428 029a 11       		.uleb128 0x11
 6429 029b 01       		.uleb128 0x1
 6430 029c 00       		.byte	0x0
 6431 029d 00       		.byte	0x0
 6432 029e 2F       		.uleb128 0x2f
 6433 029f 0B       		.uleb128 0xb
 6434 02a0 01       		.byte	0x1
 6435 02a1 11       		.uleb128 0x11
 6436 02a2 01       		.uleb128 0x1
 6437 02a3 12       		.uleb128 0x12
 6438 02a4 01       		.uleb128 0x1
 6439 02a5 00       		.byte	0x0
 6440 02a6 00       		.byte	0x0
 6441 02a7 30       		.uleb128 0x30
 6442 02a8 34       		.uleb128 0x34
 6443 02a9 00       		.byte	0x0
 6444 02aa 03       		.uleb128 0x3
 6445 02ab 0E       		.uleb128 0xe
 6446 02ac 3A       		.uleb128 0x3a
 6447 02ad 0B       		.uleb128 0xb
 6448 02ae 3B       		.uleb128 0x3b
 6449 02af 0B       		.uleb128 0xb
 6450 02b0 49       		.uleb128 0x49
 6451 02b1 13       		.uleb128 0x13
 6452 02b2 3F       		.uleb128 0x3f
 6453 02b3 0C       		.uleb128 0xc
 6454 02b4 3C       		.uleb128 0x3c
 6455 02b5 0C       		.uleb128 0xc
 6456 02b6 00       		.byte	0x0
 6457 02b7 00       		.byte	0x0
 6458 02b8 31       		.uleb128 0x31
 6459 02b9 34       		.uleb128 0x34
 6460 02ba 00       		.byte	0x0
 6461 02bb 03       		.uleb128 0x3
 6462 02bc 0E       		.uleb128 0xe
 6463 02bd 3A       		.uleb128 0x3a
 6464 02be 0B       		.uleb128 0xb
 6465 02bf 3B       		.uleb128 0x3b
 6466 02c0 05       		.uleb128 0x5
 6467 02c1 49       		.uleb128 0x49
 6468 02c2 13       		.uleb128 0x13
 6469 02c3 3F       		.uleb128 0x3f
 6470 02c4 0C       		.uleb128 0xc
 6471 02c5 3C       		.uleb128 0x3c
 6472 02c6 0C       		.uleb128 0xc
 6473 02c7 00       		.byte	0x0
ARM GAS  C:\Users\DNIEL~1\AppData\Local\Temp\cceiqNg0.s 			page 116


 6474 02c8 00       		.byte	0x0
 6475 02c9 32       		.uleb128 0x32
 6476 02ca 01       		.uleb128 0x1
 6477 02cb 01       		.byte	0x1
 6478 02cc 49       		.uleb128 0x49
 6479 02cd 13       		.uleb128 0x13
 6480 02ce 01       		.uleb128 0x1
 6481 02cf 13       		.uleb128 0x13
 6482 02d0 00       		.byte	0x0
 6483 02d1 00       		.byte	0x0
 6484 02d2 33       		.uleb128 0x33
 6485 02d3 21       		.uleb128 0x21
 6486 02d4 00       		.byte	0x0
 6487 02d5 49       		.uleb128 0x49
 6488 02d6 13       		.uleb128 0x13
 6489 02d7 2F       		.uleb128 0x2f
 6490 02d8 0B       		.uleb128 0xb
 6491 02d9 00       		.byte	0x0
 6492 02da 00       		.byte	0x0
 6493 02db 34       		.uleb128 0x34
 6494 02dc 34       		.uleb128 0x34
 6495 02dd 00       		.byte	0x0
 6496 02de 03       		.uleb128 0x3
 6497 02df 08       		.uleb128 0x8
 6498 02e0 3A       		.uleb128 0x3a
 6499 02e1 0B       		.uleb128 0xb
 6500 02e2 3B       		.uleb128 0x3b
 6501 02e3 0B       		.uleb128 0xb
 6502 02e4 49       		.uleb128 0x49
 6503 02e5 13       		.uleb128 0x13
 6504 02e6 3F       		.uleb128 0x3f
 6505 02e7 0C       		.uleb128 0xc
 6506 02e8 3C       		.uleb128 0x3c
 6507 02e9 0C       		.uleb128 0xc
 6508 02ea 00       		.byte	0x0
 6509 02eb 00       		.byte	0x0
 6510 02ec 35       		.uleb128 0x35
 6511 02ed 34       		.uleb128 0x34
 6512 02ee 00       		.byte	0x0
 6513 02ef 03       		.uleb128 0x3
 6514 02f0 0E       		.uleb128 0xe
 6515 02f1 3A       		.uleb128 0x3a
 6516 02f2 0B       		.uleb128 0xb
 6517 02f3 3B       		.uleb128 0x3b
 6518 02f4 0B       		.uleb128 0xb
 6519 02f5 49       		.uleb128 0x49
 6520 02f6 13       		.uleb128 0x13
 6521 02f7 3F       		.uleb128 0x3f
 6522 02f8 0C       		.uleb128 0xc
 6523 02f9 02       		.uleb128 0x2
 6524 02fa 0A       		.uleb128 0xa
 6525 02fb 00       		.byte	0x0
 6526 02fc 00       		.byte	0x0
 6527 02fd 36       		.uleb128 0x36
 6528 02fe 34       		.uleb128 0x34
 6529 02ff 00       		.byte	0x0
 6530 0300 03       		.uleb128 0x3
ARM GAS  C:\Users\DNIEL~1\AppData\Local\Temp\cceiqNg0.s 			page 117


 6531 0301 08       		.uleb128 0x8
 6532 0302 3A       		.uleb128 0x3a
 6533 0303 0B       		.uleb128 0xb
 6534 0304 3B       		.uleb128 0x3b
 6535 0305 0B       		.uleb128 0xb
 6536 0306 49       		.uleb128 0x49
 6537 0307 13       		.uleb128 0x13
 6538 0308 3F       		.uleb128 0x3f
 6539 0309 0C       		.uleb128 0xc
 6540 030a 02       		.uleb128 0x2
 6541 030b 0A       		.uleb128 0xa
 6542 030c 00       		.byte	0x0
 6543 030d 00       		.byte	0x0
 6544 030e 00       		.byte	0x0
 6545              		.section	.debug_pubnames,"",%progbits
 6546 0000 11010000 		.4byte	0x111
 6547 0004 0200     		.2byte	0x2
 6548 0006 00000000 		.4byte	.Ldebug_info0
 6549 000a 19100000 		.4byte	0x1019
 6550 000e 360C0000 		.4byte	0xc36
 6551 0012 6473705F 		.ascii	"dsp_LoadTop\000"
 6551      4C6F6164 
 6551      546F7000 
 6552 001e 4B0C0000 		.4byte	0xc4b
 6553 0022 6473705F 		.ascii	"dsp_LoadMidle\000"
 6553      4C6F6164 
 6553      4D69646C 
 6553      6500
 6554 0030 600C0000 		.4byte	0xc60
 6555 0034 6473705F 		.ascii	"dsp_LoadBottom\000"
 6555      4C6F6164 
 6555      426F7474 
 6555      6F6D00
 6556 0043 890C0000 		.4byte	0xc89
 6557 0047 6473705F 		.ascii	"dsp_RefreshMidle\000"
 6557      52656672 
 6557      6573684D 
 6557      69646C65 
 6557      00
 6558 0058 B20C0000 		.4byte	0xcb2
 6559 005c 64737049 		.ascii	"dspInit\000"
 6559      6E697400 
 6560 0064 C80C0000 		.4byte	0xcc8
 6561 0068 64737047 		.ascii	"dspGetItem\000"
 6561      65744974 
 6561      656D00
 6562 0073 F50C0000 		.4byte	0xcf5
 6563 0077 64737047 		.ascii	"dspGetValue\000"
 6563      65745661 
 6563      6C756500 
 6564 0083 0E0D0000 		.4byte	0xd0e
 6565 0087 6473705F 		.ascii	"dsp_active\000"
 6565      61637469 
 6565      766500
 6566 0092 270D0000 		.4byte	0xd27
 6567 0096 636D645F 		.ascii	"cmd_dspvalues\000"
 6567      64737076 
ARM GAS  C:\Users\DNIEL~1\AppData\Local\Temp\cceiqNg0.s 			page 118


 6567      616C7565 
 6567      7300
 6568 00a4 860D0000 		.4byte	0xd86
 6569 00a8 636D6466 		.ascii	"cmdfrappans_dspmessages\000"
 6569      72617070 
 6569      616E735F 
 6569      6473706D 
 6569      65737361 
 6570 00c0 9D0F0000 		.4byte	0xf9d
 6571 00c4 64737073 		.ascii	"dspstate\000"
 6571      74617465 
 6571      00
 6572 00cd AF0F0000 		.4byte	0xfaf
 6573 00d1 6473706D 		.ascii	"dspmessages\000"
 6573      65737361 
 6573      67657300 
 6574 00dd C10F0000 		.4byte	0xfc1
 6575 00e1 6473705F 		.ascii	"dsp_activ\000"
 6575      61637469 
 6575      7600
 6576 00eb D30F0000 		.4byte	0xfd3
 6577 00ef 6300     		.ascii	"c\000"
 6578 00f1 E30F0000 		.4byte	0xfe3
 6579 00f5 646200   		.ascii	"db\000"
 6580 00f8 F40F0000 		.4byte	0xff4
 6581 00fc 64623200 		.ascii	"db2\000"
 6582 0100 06100000 		.4byte	0x1006
 6583 0104 63727569 		.ascii	"cruise_assis\000"
 6583      73655F61 
 6583      73736973 
 6583      00
 6584 0111 00000000 		.4byte	0x0
 6585              		.section	.debug_pubtypes,"",%progbits
 6586 0000 90020000 		.4byte	0x290
 6587 0004 0200     		.2byte	0x2
 6588 0006 00000000 		.4byte	.Ldebug_info0
 6589 000a 19100000 		.4byte	0x1019
 6590 000e 30000000 		.4byte	0x30
 6591 0012 73697A65 		.ascii	"size_t\000"
 6591      5F7400
 6592 0019 49000000 		.4byte	0x49
 6593 001d 75696E74 		.ascii	"uint8_t\000"
 6593      385F7400 
 6594 0025 5B000000 		.4byte	0x5b
 6595 0029 696E7431 		.ascii	"int16_t\000"
 6595      365F7400 
 6596 0031 6D000000 		.4byte	0x6d
 6597 0035 75696E74 		.ascii	"uint16_t\000"
 6597      31365F74 
 6597      00
 6598 003e 7F000000 		.4byte	0x7f
 6599 0042 696E7433 		.ascii	"int32_t\000"
 6599      325F7400 
 6600 004a 91000000 		.4byte	0x91
 6601 004e 75696E74 		.ascii	"uint32_t\000"
 6601      33325F74 
 6601      00
ARM GAS  C:\Users\DNIEL~1\AppData\Local\Temp\cceiqNg0.s 			page 119


 6602 0057 AA000000 		.4byte	0xaa
 6603 005b 75696E74 		.ascii	"uint64_t\000"
 6603      36345F74 
 6603      00
 6604 0064 BC000000 		.4byte	0xbc
 6605 0068 626F6F6C 		.ascii	"bool_t\000"
 6605      5F7400
 6606 006f CE000000 		.4byte	0xce
 6607 0073 746D6F64 		.ascii	"tmode_t\000"
 6607      655F7400 
 6608 007b D9000000 		.4byte	0xd9
 6609 007f 74737461 		.ascii	"tstate_t\000"
 6609      74655F74 
 6609      00
 6610 0088 E4000000 		.4byte	0xe4
 6611 008c 74726566 		.ascii	"trefs_t\000"
 6611      735F7400 
 6612 0094 EF000000 		.4byte	0xef
 6613 0098 74736C69 		.ascii	"tslices_t\000"
 6613      6365735F 
 6613      7400
 6614 00a2 FA000000 		.4byte	0xfa
 6615 00a6 74707269 		.ascii	"tprio_t\000"
 6615      6F5F7400 
 6616 00ae 05010000 		.4byte	0x105
 6617 00b2 6D73675F 		.ascii	"msg_t\000"
 6617      7400
 6618 00b8 10010000 		.4byte	0x110
 6619 00bc 6576656E 		.ascii	"eventmask_t\000"
 6619      746D6173 
 6619      6B5F7400 
 6620 00c8 1B010000 		.4byte	0x11b
 6621 00cc 73797374 		.ascii	"systime_t\000"
 6621      696D655F 
 6621      7400
 6622 00d6 26010000 		.4byte	0x126
 6623 00da 54687265 		.ascii	"Thread\000"
 6623      616400
 6624 00e1 81020000 		.4byte	0x281
 6625 00e5 54687265 		.ascii	"ThreadsQueue\000"
 6625      61647351 
 6625      75657565 
 6625      00
 6626 00f2 A3020000 		.4byte	0x2a3
 6627 00f6 54687265 		.ascii	"ThreadsList\000"
 6627      6164734C 
 6627      69737400 
 6628 0102 AE020000 		.4byte	0x2ae
 6629 0106 72656761 		.ascii	"regarm_t\000"
 6629      726D5F74 
 6629      00
 6630 010f BB020000 		.4byte	0x2bb
 6631 0113 73746B61 		.ascii	"stkalign_t\000"
 6631      6C69676E 
 6631      5F7400
 6632 011e C6020000 		.4byte	0x2c6
 6633 0122 696E7463 		.ascii	"intctx\000"
ARM GAS  C:\Users\DNIEL~1\AppData\Local\Temp\cceiqNg0.s 			page 120


 6633      747800
 6634 0129 54030000 		.4byte	0x354
 6635 012d 636F6E74 		.ascii	"context\000"
 6635      65787400 
 6636 0135 7C030000 		.4byte	0x37c
 6637 0139 76746675 		.ascii	"vtfunc_t\000"
 6637      6E635F74 
 6637      00
 6638 0142 99030000 		.4byte	0x399
 6639 0146 56697274 		.ascii	"VirtualTimer\000"
 6639      75616C54 
 6639      696D6572 
 6639      00
 6640 0153 A4030000 		.4byte	0x3a4
 6641 0157 56697274 		.ascii	"VirtualTimer\000"
 6641      75616C54 
 6641      696D6572 
 6641      00
 6642 0164 43040000 		.4byte	0x443
 6643 0168 56544C69 		.ascii	"VTList\000"
 6643      737400
 6644 016f AB040000 		.4byte	0x4ab
 6645 0173 52656164 		.ascii	"ReadyList\000"
 6645      794C6973 
 6645      7400
 6646 017d B6040000 		.4byte	0x4b6
 6647 0181 4D757465 		.ascii	"Mutex\000"
 6647      7800
 6648 0187 F3040000 		.4byte	0x4f3
 6649 018b 4D757465 		.ascii	"Mutex\000"
 6649      7800
 6650 0191 31010000 		.4byte	0x131
 6651 0195 54687265 		.ascii	"Thread\000"
 6651      616400
 6652 019c 67050000 		.4byte	0x567
 6653 01a0 42617365 		.ascii	"BaseSequentialStreamVMT\000"
 6653      53657175 
 6653      656E7469 
 6653      616C5374 
 6653      7265616D 
 6654 01b8 34060000 		.4byte	0x634
 6655 01bc 42617365 		.ascii	"BaseSequentialStream\000"
 6655      53657175 
 6655      656E7469 
 6655      616C5374 
 6655      7265616D 
 6656 01d1 44060000 		.4byte	0x644
 6657 01d5 42617365 		.ascii	"BaseChannelVMT\000"
 6657      4368616E 
 6657      6E656C56 
 6657      4D5400
 6658 01e4 68070000 		.4byte	0x768
 6659 01e8 42617365 		.ascii	"BaseChannel\000"
 6659      4368616E 
 6659      6E656C00 
 6660 01f4 4D080000 		.4byte	0x84d
 6661 01f8 4750494F 		.ascii	"GPIO_TypeDef\000"
ARM GAS  C:\Users\DNIEL~1\AppData\Local\Temp\cceiqNg0.s 			page 121


 6661      5F547970 
 6661      65446566 
 6661      00
 6662 0205 58080000 		.4byte	0x858
 6663 0209 6D656173 		.ascii	"measChannels\000"
 6663      4368616E 
 6663      6E656C73 
 6663      00
 6664 0216 95080000 		.4byte	0x895
 6665 021a 6D656173 		.ascii	"measChannels2\000"
 6665      4368616E 
 6665      6E656C73 
 6665      3200
 6666 0228 E0080000 		.4byte	0x8e0
 6667 022c 5F5F7661 		.ascii	"__va_list\000"
 6667      5F6C6973 
 6667      7400
 6668 0236 D5080000 		.4byte	0x8d5
 6669 023a 5F5F676E 		.ascii	"__gnuc_va_list\000"
 6669      75635F76 
 6669      615F6C69 
 6669      737400
 6670 0249 FA080000 		.4byte	0x8fa
 6671 024d 626D7349 		.ascii	"bmsItems\000"
 6671      74656D73 
 6671      00
 6672 0256 560A0000 		.4byte	0xa56
 6673 025a 63616C63 		.ascii	"calcChannels\000"
 6673      4368616E 
 6673      6E656C73 
 6673      00
 6674 0267 6F0A0000 		.4byte	0xa6f
 6675 026b 76615F6C 		.ascii	"va_list\000"
 6675      69737400 
 6676 0273 7A0A0000 		.4byte	0xa7a
 6677 0277 64737053 		.ascii	"dspState\000"
 6677      74617465 
 6677      00
 6678 0280 930A0000 		.4byte	0xa93
 6679 0284 6473704D 		.ascii	"dspMessages\000"
 6679      65737361 
 6679      67657300 
 6680 0290 00000000 		.4byte	0x0
 6681              		.section	.debug_aranges,"",%progbits
 6682 0000 74000000 		.4byte	0x74
 6683 0004 0200     		.2byte	0x2
 6684 0006 00000000 		.4byte	.Ldebug_info0
 6685 000a 04       		.byte	0x4
 6686 000b 00       		.byte	0x0
 6687 000c 0000     		.2byte	0x0
 6688 000e 0000     		.2byte	0x0
 6689 0010 00000000 		.4byte	.LFB118
 6690 0014 1E000000 		.4byte	.LFE118-.LFB118
 6691 0018 00000000 		.4byte	.LFB123
 6692 001c 340B0000 		.4byte	.LFE123-.LFB123
 6693 0020 00000000 		.4byte	.LFB119
 6694 0024 D0000000 		.4byte	.LFE119-.LFB119
ARM GAS  C:\Users\DNIEL~1\AppData\Local\Temp\cceiqNg0.s 			page 122


 6695 0028 00000000 		.4byte	.LFB120
 6696 002c 74000000 		.4byte	.LFE120-.LFB120
 6697 0030 00000000 		.4byte	.LFB121
 6698 0034 24010000 		.4byte	.LFE121-.LFB121
 6699 0038 00000000 		.4byte	.LFB122
 6700 003c F8000000 		.4byte	.LFE122-.LFB122
 6701 0040 00000000 		.4byte	.LFB124
 6702 0044 5C000000 		.4byte	.LFE124-.LFB124
 6703 0048 00000000 		.4byte	.LFB125
 6704 004c 14000000 		.4byte	.LFE125-.LFB125
 6705 0050 00000000 		.4byte	.LFB126
 6706 0054 0C000000 		.4byte	.LFE126-.LFB126
 6707 0058 00000000 		.4byte	.LFB127
 6708 005c 0C000000 		.4byte	.LFE127-.LFB127
 6709 0060 00000000 		.4byte	.LFB128
 6710 0064 8C010000 		.4byte	.LFE128-.LFB128
 6711 0068 00000000 		.4byte	.LFB129
 6712 006c 50010000 		.4byte	.LFE129-.LFB129
 6713 0070 00000000 		.4byte	0x0
 6714 0074 00000000 		.4byte	0x0
 6715              		.section	.debug_ranges,"",%progbits
 6716              	.Ldebug_ranges0:
 6717 0000 24000000 		.4byte	.LBB2
 6718 0004 28000000 		.4byte	.LBE2
 6719 0008 2C000000 		.4byte	.LBB14
 6720 000c 340B0000 		.4byte	.LBE14
 6721 0010 00000000 		.4byte	0x0
 6722 0014 00000000 		.4byte	0x0
 6723 0018 24000000 		.4byte	.LBB3
 6724 001c 28000000 		.4byte	.LBE3
 6725 0020 F8090000 		.4byte	.LBB13
 6726 0024 340B0000 		.4byte	.LBE13
 6727 0028 AA090000 		.4byte	.LBB12
 6728 002c EE090000 		.4byte	.LBE12
 6729 0030 5E090000 		.4byte	.LBB11
 6730 0034 A8090000 		.4byte	.LBE11
 6731 0038 1E090000 		.4byte	.LBB10
 6732 003c 5C090000 		.4byte	.LBE10
 6733 0040 EA080000 		.4byte	.LBB9
 6734 0044 18090000 		.4byte	.LBE9
 6735 0048 B2080000 		.4byte	.LBB8
 6736 004c E8080000 		.4byte	.LBE8
 6737 0050 7A080000 		.4byte	.LBB7
 6738 0054 A8080000 		.4byte	.LBE7
 6739 0058 2E080000 		.4byte	.LBB6
 6740 005c 78080000 		.4byte	.LBE6
 6741 0060 76010000 		.4byte	.LBB5
 6742 0064 2C080000 		.4byte	.LBE5
 6743 0068 E0000000 		.4byte	.LBB4
 6744 006c 58010000 		.4byte	.LBE4
 6745 0070 00000000 		.4byte	0x0
 6746 0074 00000000 		.4byte	0x0
 6747 0078 4A000000 		.4byte	.LBB15
 6748 007c 7C000000 		.4byte	.LBE15
 6749 0080 08010000 		.4byte	.LBB21
 6750 0084 50010000 		.4byte	.LBE21
 6751 0088 EA000000 		.4byte	.LBB20
ARM GAS  C:\Users\DNIEL~1\AppData\Local\Temp\cceiqNg0.s 			page 123


 6752 008c 04010000 		.4byte	.LBE20
 6753 0090 D4000000 		.4byte	.LBB19
 6754 0094 E6000000 		.4byte	.LBE19
 6755 0098 C4000000 		.4byte	.LBB18
 6756 009c D0000000 		.4byte	.LBE18
 6757 00a0 7E000000 		.4byte	.LBB17
 6758 00a4 C0000000 		.4byte	.LBE17
 6759 00a8 00000000 		.4byte	0x0
 6760 00ac 00000000 		.4byte	0x0
 6761 00b0 00000000 		.4byte	.LFB118
 6762 00b4 1E000000 		.4byte	.LFE118
 6763 00b8 00000000 		.4byte	.LFB123
 6764 00bc 340B0000 		.4byte	.LFE123
 6765 00c0 00000000 		.4byte	.LFB119
 6766 00c4 D0000000 		.4byte	.LFE119
 6767 00c8 00000000 		.4byte	.LFB120
 6768 00cc 74000000 		.4byte	.LFE120
 6769 00d0 00000000 		.4byte	.LFB121
 6770 00d4 24010000 		.4byte	.LFE121
 6771 00d8 00000000 		.4byte	.LFB122
 6772 00dc F8000000 		.4byte	.LFE122
 6773 00e0 00000000 		.4byte	.LFB124
 6774 00e4 5C000000 		.4byte	.LFE124
 6775 00e8 00000000 		.4byte	.LFB125
 6776 00ec 14000000 		.4byte	.LFE125
 6777 00f0 00000000 		.4byte	.LFB126
 6778 00f4 0C000000 		.4byte	.LFE126
 6779 00f8 00000000 		.4byte	.LFB127
 6780 00fc 0C000000 		.4byte	.LFE127
 6781 0100 00000000 		.4byte	.LFB128
 6782 0104 8C010000 		.4byte	.LFE128
 6783 0108 00000000 		.4byte	.LFB129
 6784 010c 50010000 		.4byte	.LFE129
 6785 0110 00000000 		.4byte	0x0
 6786 0114 00000000 		.4byte	0x0
 6787              		.section	.debug_str,"MS",%progbits,1
 6788              	.LASF47:
 6789 0000 54687265 		.ascii	"ThreadsList\000"
 6789      6164734C 
 6789      69737400 
 6790              	.LASF52:
 6791 000c 76746675 		.ascii	"vtfunc_t\000"
 6791      6E635F74 
 6791      00
 6792              	.LASF172:
 6793 0015 4453505F 		.ascii	"DSP_REGEN_BRAKE\000"
 6793      52454745 
 6793      4E5F4252 
 6793      414B4500 
 6794              	.LASF158:
 6795 0025 4453505F 		.ascii	"DSP_x1_TEMP_SPEED\000"
 6795      78315F54 
 6795      454D505F 
 6795      53504545 
 6795      4400
 6796              	.LASF115:
 6797 0037 5F5F7661 		.ascii	"__va_list\000"
ARM GAS  C:\Users\DNIEL~1\AppData\Local\Temp\cceiqNg0.s 			page 124


 6797      5F6C6973 
 6797      7400
 6798              	.LASF38:
 6799 0041 705F7469 		.ascii	"p_time\000"
 6799      6D6500
 6800              	.LASF92:
 6801 0048 42535252 		.ascii	"BSRR\000"
 6801      00
 6802              	.LASF48:
 6803 004d 72656761 		.ascii	"regarm_t\000"
 6803      726D5F74 
 6803      00
 6804              	.LASF29:
 6805 0056 705F7072 		.ascii	"p_prio\000"
 6805      696F00
 6806              	.LASF152:
 6807 005d 4453505F 		.ascii	"DSP_GAUGE\000"
 6807      47415547 
 6807      4500
 6808              	.LASF83:
 6809 0067 67657474 		.ascii	"gett\000"
 6809      00
 6810              	.LASF25:
 6811 006c 73797374 		.ascii	"systime_t\000"
 6811      696D655F 
 6811      7400
 6812              	.LASF59:
 6813 0076 76745F73 		.ascii	"vt_systime\000"
 6813      79737469 
 6813      6D6500
 6814              	.LASF40:
 6815 0081 705F6D73 		.ascii	"p_msgqueue\000"
 6815      67717565 
 6815      756500
 6816              	.LASF0:
 6817 008c 756E7369 		.ascii	"unsigned int\000"
 6817      676E6564 
 6817      20696E74 
 6817      00
 6818              	.LASF217:
 6819 0099 6275735F 		.ascii	"bus_num\000"
 6819      6E756D00 
 6820              	.LASF175:
 6821 00a1 4453505F 		.ascii	"DSP_TEMPOMAT\000"
 6821      54454D50 
 6821      4F4D4154 
 6821      00
 6822              	.LASF39:
 6823 00ae 705F7761 		.ascii	"p_waiting\000"
 6823      6974696E 
 6823      6700
 6824              	.LASF77:
 6825 00b8 42617365 		.ascii	"BaseSequentialStreamVMT\000"
 6825      53657175 
 6825      656E7469 
 6825      616C5374 
 6825      7265616D 
ARM GAS  C:\Users\DNIEL~1\AppData\Local\Temp\cceiqNg0.s 			page 125


 6826              	.LASF205:
 6827 00d0 626D7369 		.ascii	"bmsitems\000"
 6827      74656D73 
 6827      00
 6828              	.LASF164:
 6829 00d9 4453505F 		.ascii	"DSP_x1000_SUN_POWER\000"
 6829      78313030 
 6829      305F5355 
 6829      4E5F504F 
 6829      57455200 
 6830              	.LASF222:
 6831 00ed 7372632F 		.ascii	"src/dsp.c\000"
 6831      6473702E 
 6831      6300
 6832              	.LASF74:
 6833 00f7 77746F62 		.ascii	"wtobjp\000"
 6833      6A7000
 6834              	.LASF202:
 6835 00fe 76746C69 		.ascii	"vtlist\000"
 6835      737400
 6836              	.LASF123:
 6837 0105 7061636B 		.ascii	"pack_resist\000"
 6837      5F726573 
 6837      69737400 
 6838              	.LASF208:
 6839 0111 64737056 		.ascii	"dspValue\000"
 6839      616C7565 
 6839      00
 6840              	.LASF159:
 6841 011a 4453505F 		.ascii	"DSP_x100_BATTERY\000"
 6841      78313030 
 6841      5F424154 
 6841      54455259 
 6841      00
 6842              	.LASF166:
 6843 012b 4453505F 		.ascii	"DSP_x10_SUN_POWER\000"
 6843      7831305F 
 6843      53554E5F 
 6843      504F5745 
 6843      5200
 6844              	.LASF170:
 6845 013d 4453505F 		.ascii	"DSP_x10_MOTOR_POWER\000"
 6845      7831305F 
 6845      4D4F544F 
 6845      525F504F 
 6845      57455200 
 6846              	.LASF215:
 6847 0151 64697363 		.ascii	"discharge\000"
 6847      68617267 
 6847      6500
 6848              	.LASF84:
 6849 015b 77726974 		.ascii	"writet\000"
 6849      657400
 6850              	.LASF81:
 6851 0162 42617365 		.ascii	"BaseChannelVMT\000"
 6851      4368616E 
 6851      6E656C56 
ARM GAS  C:\Users\DNIEL~1\AppData\Local\Temp\cceiqNg0.s 			page 126


 6851      4D5400
 6852              	.LASF106:
 6853 0171 6D656173 		.ascii	"measChannels2\000"
 6853      4368616E 
 6853      6E656C73 
 6853      3200
 6854              	.LASF149:
 6855 017f 4453505F 		.ascii	"DSP_x100_SPEED\000"
 6855      78313030 
 6855      5F535045 
 6855      454400
 6856              	.LASF69:
 6857 018e 6D5F7175 		.ascii	"m_queue\000"
 6857      65756500 
 6858              	.LASF56:
 6859 0196 76745F74 		.ascii	"vt_time\000"
 6859      696D6500 
 6860              	.LASF11:
 6861 019e 75696E74 		.ascii	"uint32_t\000"
 6861      33325F74 
 6861      00
 6862              	.LASF163:
 6863 01a7 4453505F 		.ascii	"DSP_x1_BATTERY_TEMP\000"
 6863      78315F42 
 6863      41545445 
 6863      52595F54 
 6863      454D5000 
 6864              	.LASF181:
 6865 01bb 4453505F 		.ascii	"DSP_NUM_MSG\000"
 6865      4E554D5F 
 6865      4D534700 
 6866              	.LASF24:
 6867 01c7 6576656E 		.ascii	"eventmask_t\000"
 6867      746D6173 
 6867      6B5F7400 
 6868              	.LASF62:
 6869 01d3 725F7072 		.ascii	"r_prio\000"
 6869      696F00
 6870              	.LASF58:
 6871 01da 76745F70 		.ascii	"vt_par\000"
 6871      617200
 6872              	.LASF112:
 6873 01e1 666C6F61 		.ascii	"float\000"
 6873      7400
 6874              	.LASF22:
 6875 01e7 74707269 		.ascii	"tprio_t\000"
 6875      6F5F7400 
 6876              	.LASF15:
 6877 01ef 6C6F6E67 		.ascii	"long long unsigned int\000"
 6877      206C6F6E 
 6877      6720756E 
 6877      7369676E 
 6877      65642069 
 6878              	.LASF5:
 6879 0206 696E7431 		.ascii	"int16_t\000"
 6879      365F7400 
 6880              	.LASF225:
ARM GAS  C:\Users\DNIEL~1\AppData\Local\Temp\cceiqNg0.s 			page 127


 6881 020e 64737054 		.ascii	"dspTask\000"
 6881      61736B00 
 6882              	.LASF142:
 6883 0216 43414C43 		.ascii	"CALC_MOTOR_POWER\000"
 6883      5F4D4F54 
 6883      4F525F50 
 6883      4F574552 
 6883      00
 6884              	.LASF214:
 6885 0227 6D6F746F 		.ascii	"motor_temp\000"
 6885      725F7465 
 6885      6D7000
 6886              	.LASF128:
 6887 0232 6176675F 		.ascii	"avg_cell_voltage\000"
 6887      63656C6C 
 6887      5F766F6C 
 6887      74616765 
 6887      00
 6888              	.LASF140:
 6889 0243 7061636B 		.ascii	"pack_open_voltage\000"
 6889      5F6F7065 
 6889      6E5F766F 
 6889      6C746167 
 6889      6500
 6890              	.LASF117:
 6891 0255 626D7349 		.ascii	"bmsItems\000"
 6891      74656D73 
 6891      00
 6892              	.LASF148:
 6893 025e 6473704D 		.ascii	"dspMessages\000"
 6893      65737361 
 6893      67657300 
 6894              	.LASF146:
 6895 026a 4453505F 		.ascii	"DSP_WAITING\000"
 6895      57414954 
 6895      494E4700 
 6896              	.LASF182:
 6897 0276 74696D65 		.ascii	"time\000"
 6897      00
 6898              	.LASF133:
 6899 027b 6D617869 		.ascii	"maximum_cell\000"
 6899      6D756D5F 
 6899      63656C6C 
 6899      00
 6900              	.LASF94:
 6901 0288 4146524C 		.ascii	"AFRL\000"
 6901      00
 6902              	.LASF101:
 6903 028d 4D454153 		.ascii	"MEAS_OVER_HEAT\000"
 6903      5F4F5645 
 6903      525F4845 
 6903      415400
 6904              	.LASF198:
 6905 029c 636D6466 		.ascii	"cmdfrappans_dspmessages\000"
 6905      72617070 
 6905      616E735F 
 6905      6473706D 
ARM GAS  C:\Users\DNIEL~1\AppData\Local\Temp\cceiqNg0.s 			page 128


 6905      65737361 
 6906              	.LASF87:
 6907 02b4 636C6561 		.ascii	"clear\000"
 6907      7200
 6908              	.LASF187:
 6909 02ba 6D656173 		.ascii	"measGetValue_2\000"
 6909      47657456 
 6909      616C7565 
 6909      5F3200
 6910              	.LASF167:
 6911 02c9 4453505F 		.ascii	"DSP_x1_SUN_POWER\000"
 6911      78315F53 
 6911      554E5F50 
 6911      4F574552 
 6911      00
 6912              	.LASF155:
 6913 02da 4453505F 		.ascii	"DSP_x01_AVG_SPEED\000"
 6913      7830315F 
 6913      4156475F 
 6913      53504545 
 6913      4400
 6914              	.LASF114:
 6915 02ec 5F5F676E 		.ascii	"__gnuc_va_list\000"
 6915      75635F76 
 6915      615F6C69 
 6915      737400
 6916              	.LASF209:
 6917 02fb 7461736B 		.ascii	"tasknumber\000"
 6917      6E756D62 
 6917      657200
 6918              	.LASF82:
 6919 0306 70757474 		.ascii	"putt\000"
 6919      00
 6920              	.LASF184:
 6921 030b 72656765 		.ascii	"regen_assis\000"
 6921      6E5F6173 
 6921      73697300 
 6922              	.LASF2:
 6923 0317 73697A65 		.ascii	"size_t\000"
 6923      5F7400
 6924              	.LASF72:
 6925 031e 7264796D 		.ascii	"rdymsg\000"
 6925      736700
 6926              	.LASF213:
 6927 0325 64616E67 		.ascii	"danger\000"
 6927      657200
 6928              	.LASF16:
 6929 032c 626F6F6C 		.ascii	"bool_t\000"
 6929      5F7400
 6930              	.LASF108:
 6931 0333 4D454153 		.ascii	"MEAS2_THROTTLE\000"
 6931      325F5448 
 6931      524F5454 
 6931      4C4500
 6932              	.LASF17:
 6933 0342 5F426F6F 		.ascii	"_Bool\000"
 6933      6C00
ARM GAS  C:\Users\DNIEL~1\AppData\Local\Temp\cceiqNg0.s 			page 129


 6934              	.LASF88:
 6935 0348 4D4F4445 		.ascii	"MODER\000"
 6935      5200
 6936              	.LASF139:
 6937 034e 66616E5F 		.ascii	"fan_speed\000"
 6937      73706565 
 6937      6400
 6938              	.LASF105:
 6939 0358 6D656173 		.ascii	"measChannels\000"
 6939      4368616E 
 6939      6E656C73 
 6939      00
 6940              	.LASF178:
 6941 0365 4453505F 		.ascii	"DSP_DISCHARGE\000"
 6941      44495343 
 6941      48415247 
 6941      4500
 6942              	.LASF124:
 6943 0373 61766572 		.ascii	"average_temp\000"
 6943      6167655F 
 6943      74656D70 
 6943      00
 6944              	.LASF68:
 6945 0380 4D757465 		.ascii	"Mutex\000"
 6945      7800
 6946              	.LASF219:
 6947 0386 77616473 		.ascii	"wadspTask\000"
 6947      70546173 
 6947      6B00
 6948              	.LASF224:
 6949 0390 63687072 		.ascii	"chprintf\000"
 6949      696E7466 
 6949      00
 6950              	.LASF197:
 6951 0399 61726776 		.ascii	"argv\000"
 6951      00
 6952              	.LASF91:
 6953 039e 50555044 		.ascii	"PUPDR\000"
 6953      5200
 6954              	.LASF147:
 6955 03a4 4453505F 		.ascii	"DSP_RUNNING\000"
 6955      52554E4E 
 6955      494E4700 
 6956              	.LASF33:
 6957 03b0 705F6E61 		.ascii	"p_name\000"
 6957      6D6500
 6958              	.LASF80:
 6959 03b7 42617365 		.ascii	"BaseSequentialStream\000"
 6959      53657175 
 6959      656E7469 
 6959      616C5374 
 6959      7265616D 
 6960              	.LASF46:
 6961 03cc 54687265 		.ascii	"ThreadsQueue\000"
 6961      61647351 
 6961      75657565 
 6961      00
ARM GAS  C:\Users\DNIEL~1\AppData\Local\Temp\cceiqNg0.s 			page 130


 6962              	.LASF143:
 6963 03d9 43414C43 		.ascii	"CALC_NUM_CH\000"
 6963      5F4E554D 
 6963      5F434800 
 6964              	.LASF76:
 6965 03e5 63686172 		.ascii	"char\000"
 6965      00
 6966              	.LASF221:
 6967 03ea 474E5520 		.ascii	"GNU C 4.5.2\000"
 6967      4320342E 
 6967      352E3200 
 6968              	.LASF199:
 6969 03f6 73706565 		.ascii	"speedGetSpeed\000"
 6969      64476574 
 6969      53706565 
 6969      6400
 6970              	.LASF64:
 6971 0404 725F6E65 		.ascii	"r_newer\000"
 6971      77657200 
 6972              	.LASF26:
 6973 040c 54687265 		.ascii	"Thread\000"
 6973      616400
 6974              	.LASF19:
 6975 0413 74737461 		.ascii	"tstate_t\000"
 6975      74655F74 
 6975      00
 6976              	.LASF176:
 6977 041c 4453505F 		.ascii	"DSP_LIGHT\000"
 6977      4C494748 
 6977      5400
 6978              	.LASF60:
 6979 0426 56544C69 		.ascii	"VTList\000"
 6979      737400
 6980              	.LASF121:
 6981 042d 7061636B 		.ascii	"pack_healt\000"
 6981      5F686561 
 6981      6C7400
 6982              	.LASF32:
 6983 0438 705F6F6C 		.ascii	"p_older\000"
 6983      64657200 
 6984              	.LASF98:
 6985 0440 4D454153 		.ascii	"MEAS_BRAKE_PRESSURE1\000"
 6985      5F425241 
 6985      4B455F50 
 6985      52455353 
 6985      55524531 
 6986              	.LASF99:
 6987 0455 4D454153 		.ascii	"MEAS_BRAKE_PRESSURE2\000"
 6987      5F425241 
 6987      4B455F50 
 6987      52455353 
 6987      55524532 
 6988              	.LASF3:
 6989 046a 75696E74 		.ascii	"uint8_t\000"
 6989      385F7400 
 6990              	.LASF86:
 6991 0472 42617365 		.ascii	"BaseChannel\000"
ARM GAS  C:\Users\DNIEL~1\AppData\Local\Temp\cceiqNg0.s 			page 131


 6991      4368616E 
 6991      6E656C00 
 6992              	.LASF188:
 6993 047e 64726177 		.ascii	"draw_line\000"
 6993      5F6C696E 
 6993      6500
 6994              	.LASF135:
 6995 0488 6D696E69 		.ascii	"minimum_cell\000"
 6995      6D756D5F 
 6995      63656C6C 
 6995      00
 6996              	.LASF45:
 6997 0495 705F6D70 		.ascii	"p_mpool\000"
 6997      6F6F6C00 
 6998              	.LASF102:
 6999 049d 4D454153 		.ascii	"MEAS_SEN2\000"
 6999      5F53454E 
 6999      3200
 7000              	.LASF43:
 7001 04a7 705F6D74 		.ascii	"p_mtxlist\000"
 7001      786C6973 
 7001      7400
 7002              	.LASF34:
 7003 04b1 705F7374 		.ascii	"p_state\000"
 7003      61746500 
 7004              	.LASF126:
 7005 04b9 6C6F775F 		.ascii	"low_cell_volt\000"
 7005      63656C6C 
 7005      5F766F6C 
 7005      7400
 7006              	.LASF144:
 7007 04c7 76615F6C 		.ascii	"va_list\000"
 7007      69737400 
 7008              	.LASF162:
 7009 04cf 4453505F 		.ascii	"DSP_x10_BATTERY_TEMP\000"
 7009      7831305F 
 7009      42415454 
 7009      4552595F 
 7009      54454D50 
 7010              	.LASF13:
 7011 04e4 6C6F6E67 		.ascii	"long long int\000"
 7011      206C6F6E 
 7011      6720696E 
 7011      7400
 7012              	.LASF78:
 7013 04f2 77726974 		.ascii	"write\000"
 7013      6500
 7014              	.LASF61:
 7015 04f8 725F7175 		.ascii	"r_queue\000"
 7015      65756500 
 7016              	.LASF150:
 7017 0500 4453505F 		.ascii	"DSP_x10_SPEED\000"
 7017      7831305F 
 7017      53504545 
 7017      4400
 7018              	.LASF23:
 7019 050e 6D73675F 		.ascii	"msg_t\000"
ARM GAS  C:\Users\DNIEL~1\AppData\Local\Temp\cceiqNg0.s 			page 132


 7019      7400
 7020              	.LASF118:
 7021 0514 63757374 		.ascii	"custom_flag_1\000"
 7021      6F6D5F66 
 7021      6C61675F 
 7021      3100
 7022              	.LASF134:
 7023 0522 63757374 		.ascii	"custom_flag_2\000"
 7023      6F6D5F66 
 7023      6C61675F 
 7023      3200
 7024              	.LASF194:
 7025 0530 6473705F 		.ascii	"dsp_active\000"
 7025      61637469 
 7025      766500
 7026              	.LASF227:
 7027 053b 4552524F 		.ascii	"ERROR\000"
 7027      5200
 7028              	.LASF51:
 7029 0541 636F6E74 		.ascii	"context\000"
 7029      65787400 
 7030              	.LASF183:
 7031 0549 6E65775F 		.ascii	"new_val\000"
 7031      76616C00 
 7032              	.LASF165:
 7033 0551 4453505F 		.ascii	"DSP_x100_SUN_POWER\000"
 7033      78313030 
 7033      5F53554E 
 7033      5F504F57 
 7033      455200
 7034              	.LASF131:
 7035 0564 7061636B 		.ascii	"pack_ccl\000"
 7035      5F63636C 
 7035      00
 7036              	.LASF35:
 7037 056d 705F666C 		.ascii	"p_flags\000"
 7037      61677300 
 7038              	.LASF116:
 7039 0575 5F5F6170 		.ascii	"__ap\000"
 7039      00
 7040              	.LASF169:
 7041 057a 4453505F 		.ascii	"DSP_x100_MOTOR_POWER\000"
 7041      78313030 
 7041      5F4D4F54 
 7041      4F525F50 
 7041      4F574552 
 7042              	.LASF212:
 7043 058f 6275735F 		.ascii	"bus_bit\000"
 7043      62697400 
 7044              	.LASF141:
 7045 0597 63616C63 		.ascii	"calcChannels\000"
 7045      4368616E 
 7045      6E656C73 
 7045      00
 7046              	.LASF180:
 7047 05a4 4453505F 		.ascii	"DSP_DANGER\000"
 7047      44414E47 
ARM GAS  C:\Users\DNIEL~1\AppData\Local\Temp\cceiqNg0.s 			page 133


 7047      455200
 7048              	.LASF173:
 7049 05af 4453505F 		.ascii	"DSP_INDEX_RIGHT\000"
 7049      494E4445 
 7049      585F5249 
 7049      47485400 
 7050              	.LASF151:
 7051 05bf 4453505F 		.ascii	"DSP_x1_SPEED\000"
 7051      78315F53 
 7051      50454544 
 7051      00
 7052              	.LASF21:
 7053 05cc 74736C69 		.ascii	"tslices_t\000"
 7053      6365735F 
 7053      7400
 7054              	.LASF65:
 7055 05d6 725F6F6C 		.ascii	"r_older\000"
 7055      64657200 
 7056              	.LASF218:
 7057 05de 76616C61 		.ascii	"valasz\000"
 7057      737A00
 7058              	.LASF100:
 7059 05e5 4D454153 		.ascii	"MEAS_STEERING\000"
 7059      5F535445 
 7059      4552494E 
 7059      4700
 7060              	.LASF185:
 7061 05f3 6473705F 		.ascii	"dsp_LoadTop\000"
 7061      4C6F6164 
 7061      546F7000 
 7062              	.LASF196:
 7063 05ff 61726763 		.ascii	"argc\000"
 7063      00
 7064              	.LASF41:
 7065 0604 705F6D73 		.ascii	"p_msg\000"
 7065      6700
 7066              	.LASF18:
 7067 060a 746D6F64 		.ascii	"tmode_t\000"
 7067      655F7400 
 7068              	.LASF192:
 7069 0612 64737049 		.ascii	"dspInit\000"
 7069      6E697400 
 7070              	.LASF44:
 7071 061a 705F7265 		.ascii	"p_realprio\000"
 7071      616C7072 
 7071      696F00
 7072              	.LASF90:
 7073 0625 4F535045 		.ascii	"OSPEEDR\000"
 7073      45445200 
 7074              	.LASF8:
 7075 062d 73686F72 		.ascii	"short unsigned int\000"
 7075      7420756E 
 7075      7369676E 
 7075      65642069 
 7075      6E7400
 7076              	.LASF186:
 7077 0640 6473705F 		.ascii	"dsp_LoadMidle\000"
ARM GAS  C:\Users\DNIEL~1\AppData\Local\Temp\cceiqNg0.s 			page 134


 7077      4C6F6164 
 7077      4D69646C 
 7077      6500
 7078              	.LASF113:
 7079 064e 6C6F6E67 		.ascii	"long double\000"
 7079      20646F75 
 7079      626C6500 
 7080              	.LASF7:
 7081 065a 75696E74 		.ascii	"uint16_t\000"
 7081      31365F74 
 7081      00
 7082              	.LASF216:
 7083 0663 6F766572 		.ascii	"over_charge\000"
 7083      5F636861 
 7083      72676500 
 7084              	.LASF223:
 7085 066f 433A5C44 		.ascii	"C:\\Dani\\MegaLux\\Repo\\Smarty\\Smarty\\smarty\\fi"
 7085      616E695C 
 7085      4D656761 
 7085      4C75785C 
 7085      5265706F 
 7086 069b 726D7761 		.ascii	"rmware\000"
 7086      726500
 7087              	.LASF50:
 7088 06a2 696E7463 		.ascii	"intctx\000"
 7088      747800
 7089              	.LASF120:
 7090 06a9 7061636B 		.ascii	"pack_soc\000"
 7090      5F736F63 
 7090      00
 7091              	.LASF174:
 7092 06b2 4453505F 		.ascii	"DSP_INDEX_LEFT\000"
 7092      494E4445 
 7092      585F4C45 
 7092      465400
 7093              	.LASF190:
 7094 06c1 6473705F 		.ascii	"dsp_RefreshMidle\000"
 7094      52656672 
 7094      6573684D 
 7094      69646C65 
 7094      00
 7095              	.LASF6:
 7096 06d2 73686F72 		.ascii	"short int\000"
 7096      7420696E 
 7096      7400
 7097              	.LASF66:
 7098 06dc 725F6375 		.ascii	"r_current\000"
 7098      7272656E 
 7098      7400
 7099              	.LASF42:
 7100 06e6 705F6570 		.ascii	"p_epending\000"
 7100      656E6469 
 7100      6E6700
 7101              	.LASF109:
 7102 06f1 4D454153 		.ascii	"MEAS2_REGEN_BRAKE\000"
 7102      325F5245 
 7102      47454E5F 
ARM GAS  C:\Users\DNIEL~1\AppData\Local\Temp\cceiqNg0.s 			page 135


 7102      4252414B 
 7102      4500
 7103              	.LASF195:
 7104 0703 636D645F 		.ascii	"cmd_dspvalues\000"
 7104      64737076 
 7104      616C7565 
 7104      7300
 7105              	.LASF10:
 7106 0711 6C6F6E67 		.ascii	"long int\000"
 7106      20696E74 
 7106      00
 7107              	.LASF210:
 7108 071a 6275735F 		.ascii	"bus_status\000"
 7108      73746174 
 7108      757300
 7109              	.LASF204:
 7110 0725 49544D5F 		.ascii	"ITM_RxBuffer\000"
 7110      52784275 
 7110      66666572 
 7110      00
 7111              	.LASF119:
 7112 0732 7061636B 		.ascii	"pack_inst_volt\000"
 7112      5F696E73 
 7112      745F766F 
 7112      6C7400
 7113              	.LASF206:
 7114 0741 64737073 		.ascii	"dspstate\000"
 7114      74617465 
 7114      00
 7115              	.LASF189:
 7116 074a 6473705F 		.ascii	"dsp_LoadBottom\000"
 7116      4C6F6164 
 7116      426F7474 
 7116      6F6D00
 7117              	.LASF89:
 7118 0759 4F545950 		.ascii	"OTYPER\000"
 7118      455200
 7119              	.LASF27:
 7120 0760 705F6E65 		.ascii	"p_next\000"
 7120      787400
 7121              	.LASF14:
 7122 0767 75696E74 		.ascii	"uint64_t\000"
 7122      36345F74 
 7122      00
 7123              	.LASF30:
 7124 0770 705F6374 		.ascii	"p_ctx\000"
 7124      7800
 7125              	.LASF203:
 7126 0776 726C6973 		.ascii	"rlist\000"
 7126      7400
 7127              	.LASF107:
 7128 077c 4D454153 		.ascii	"MEAS2_CURR1\000"
 7128      325F4355 
 7128      52523100 
 7129              	.LASF53:
 7130 0788 56697274 		.ascii	"VirtualTimer\000"
 7130      75616C54 
ARM GAS  C:\Users\DNIEL~1\AppData\Local\Temp\cceiqNg0.s 			page 136


 7130      696D6572 
 7130      00
 7131              	.LASF179:
 7132 0795 4453505F 		.ascii	"DSP_MOTOR_TEMO\000"
 7132      4D4F544F 
 7132      525F5445 
 7132      4D4F00
 7133              	.LASF79:
 7134 07a4 72656164 		.ascii	"read\000"
 7134      00
 7135              	.LASF130:
 7136 07a9 746F7461 		.ascii	"total_pack_cycle\000"
 7136      6C5F7061 
 7136      636B5F63 
 7136      79636C65 
 7136      00
 7137              	.LASF96:
 7138 07ba 4750494F 		.ascii	"GPIO_TypeDef\000"
 7138      5F547970 
 7138      65446566 
 7138      00
 7139              	.LASF211:
 7140 07c7 6473705F 		.ascii	"dsp_activ\000"
 7140      61637469 
 7140      7600
 7141              	.LASF220:
 7142 07d1 63727569 		.ascii	"cruise_assis\000"
 7142      73655F61 
 7142      73736973 
 7142      00
 7143              	.LASF28:
 7144 07de 705F7072 		.ascii	"p_prev\000"
 7144      657600
 7145              	.LASF20:
 7146 07e5 74726566 		.ascii	"trefs_t\000"
 7146      735F7400 
 7147              	.LASF12:
 7148 07ed 6C6F6E67 		.ascii	"long unsigned int\000"
 7148      20756E73 
 7148      69676E65 
 7148      6420696E 
 7148      7400
 7149              	.LASF226:
 7150 07ff 64737047 		.ascii	"dspGetItem\000"
 7150      65744974 
 7150      656D00
 7151              	.LASF9:
 7152 080a 696E7433 		.ascii	"int32_t\000"
 7152      325F7400 
 7153              	.LASF95:
 7154 0812 41465248 		.ascii	"AFRH\000"
 7154      00
 7155              	.LASF110:
 7156 0817 4D454153 		.ascii	"MEAS2_NUM_CH\000"
 7156      325F4E55 
 7156      4D5F4348 
 7156      00
ARM GAS  C:\Users\DNIEL~1\AppData\Local\Temp\cceiqNg0.s 			page 137


 7157              	.LASF4:
 7158 0824 756E7369 		.ascii	"unsigned char\000"
 7158      676E6564 
 7158      20636861 
 7158      7200
 7159              	.LASF129:
 7160 0832 7061636B 		.ascii	"pack_current\000"
 7160      5F637572 
 7160      72656E74 
 7160      00
 7161              	.LASF36:
 7162 083f 705F7265 		.ascii	"p_refs\000"
 7162      667300
 7163              	.LASF67:
 7164 0846 52656164 		.ascii	"ReadyList\000"
 7164      794C6973 
 7164      7400
 7165              	.LASF177:
 7166 0850 4453505F 		.ascii	"DSP_OVER_CHARGE\000"
 7166      4F564552 
 7166      5F434841 
 7166      52474500 
 7167              	.LASF136:
 7168 0860 68696768 		.ascii	"high_cell_volt_num\000"
 7168      5F63656C 
 7168      6C5F766F 
 7168      6C745F6E 
 7168      756D00
 7169              	.LASF145:
 7170 0873 64737053 		.ascii	"dspState\000"
 7170      74617465 
 7170      00
 7171              	.LASF207:
 7172 087c 6473706D 		.ascii	"dspmessages\000"
 7172      65737361 
 7172      67657300 
 7173              	.LASF37:
 7174 0888 705F7072 		.ascii	"p_preempt\000"
 7174      65656D70 
 7174      7400
 7175              	.LASF49:
 7176 0892 73746B61 		.ascii	"stkalign_t\000"
 7176      6C69676E 
 7176      5F7400
 7177              	.LASF171:
 7178 089d 4453505F 		.ascii	"DSP_x1_MOTOR_POWER\000"
 7178      78315F4D 
 7178      4F544F52 
 7178      5F504F57 
 7178      455200
 7179              	.LASF75:
 7180 08b0 65776D61 		.ascii	"ewmask\000"
 7180      736B00
 7181              	.LASF54:
 7182 08b7 76745F6E 		.ascii	"vt_next\000"
 7182      65787400 
 7183              	.LASF104:
ARM GAS  C:\Users\DNIEL~1\AppData\Local\Temp\cceiqNg0.s 			page 138


 7184 08bf 4D454153 		.ascii	"MEAS_NUM_CH\000"
 7184      5F4E554D 
 7184      5F434800 
 7185              	.LASF97:
 7186 08cb 4D454153 		.ascii	"MEAS_UBAT\000"
 7186      5F554241 
 7186      5400
 7187              	.LASF153:
 7188 08d5 4453505F 		.ascii	"DSP_x10_AVG_SPEED\000"
 7188      7831305F 
 7188      4156475F 
 7188      53504545 
 7188      4400
 7189              	.LASF191:
 7190 08e7 6672616D 		.ascii	"frame\000"
 7190      6500
 7191              	.LASF193:
 7192 08ed 64737047 		.ascii	"dspGetValue\000"
 7192      65745661 
 7192      6C756500 
 7193              	.LASF160:
 7194 08f9 4453505F 		.ascii	"DSP_x10_BATTERY\000"
 7194      7831305F 
 7194      42415454 
 7194      45525900 
 7195              	.LASF71:
 7196 0909 6D5F6E65 		.ascii	"m_next\000"
 7196      787400
 7197              	.LASF122:
 7198 0910 7061636B 		.ascii	"pack_amps\000"
 7198      5F616D70 
 7198      7300
 7199              	.LASF168:
 7200 091a 4453505F 		.ascii	"DSP_x1000_MOTOR_POWER\000"
 7200      78313030 
 7200      305F4D4F 
 7200      544F525F 
 7200      504F5745 
 7201              	.LASF1:
 7202 0930 7369676E 		.ascii	"signed char\000"
 7202      65642063 
 7202      68617200 
 7203              	.LASF85:
 7204 093c 72656164 		.ascii	"readt\000"
 7204      7400
 7205              	.LASF127:
 7206 0942 68696768 		.ascii	"high_cell_volt\000"
 7206      5F63656C 
 7206      6C5F766F 
 7206      6C7400
 7207              	.LASF63:
 7208 0951 725F6374 		.ascii	"r_ctx\000"
 7208      7800
 7209              	.LASF132:
 7210 0957 7061636B 		.ascii	"pack_dcl\000"
 7210      5F64636C 
 7210      00
ARM GAS  C:\Users\DNIEL~1\AppData\Local\Temp\cceiqNg0.s 			page 139


 7211              	.LASF157:
 7212 0960 4453505F 		.ascii	"DSP_x10_TEMP_SPEED\000"
 7212      7831305F 
 7212      54454D50 
 7212      5F535045 
 7212      454400
 7213              	.LASF201:
 7214 0973 61746F6C 		.ascii	"atol\000"
 7214      00
 7215              	.LASF57:
 7216 0978 76745F66 		.ascii	"vt_func\000"
 7216      756E6300 
 7217              	.LASF154:
 7218 0980 4453505F 		.ascii	"DSP_x1_AVG_SPEED\000"
 7218      78315F41 
 7218      56475F53 
 7218      50454544 
 7218      00
 7219              	.LASF111:
 7220 0991 646F7562 		.ascii	"double\000"
 7220      6C6500
 7221              	.LASF55:
 7222 0998 76745F70 		.ascii	"vt_prev\000"
 7222      72657600 
 7223              	.LASF161:
 7224 09a0 4453505F 		.ascii	"DSP_x1_BATTERY\000"
 7224      78315F42 
 7224      41545445 
 7224      525900
 7225              	.LASF125:
 7226 09af 696E7465 		.ascii	"internal_temp\000"
 7226      726E616C 
 7226      5F74656D 
 7226      7000
 7227              	.LASF137:
 7228 09bd 6C6F775F 		.ascii	"low_cell_volt_num\000"
 7228      63656C6C 
 7228      5F766F6C 
 7228      745F6E75 
 7228      6D00
 7229              	.LASF73:
 7230 09cf 65786974 		.ascii	"exitcode\000"
 7230      636F6465 
 7230      00
 7231              	.LASF156:
 7232 09d8 4453505F 		.ascii	"DSP_x100_TEMP_SPEED\000"
 7232      78313030 
 7232      5F54454D 
 7232      505F5350 
 7232      45454400 
 7233              	.LASF31:
 7234 09ec 705F6E65 		.ascii	"p_newer\000"
 7234      77657200 
 7235              	.LASF103:
 7236 09f4 4D454153 		.ascii	"MEAS_SEN3\000"
 7236      5F53454E 
 7236      3300
ARM GAS  C:\Users\DNIEL~1\AppData\Local\Temp\cceiqNg0.s 			page 140


 7237              	.LASF93:
 7238 09fe 4C434B52 		.ascii	"LCKR\000"
 7238      00
 7239              	.LASF200:
 7240 0a03 73747263 		.ascii	"strcmp\000"
 7240      6D7000
 7241              	.LASF138:
 7242 0a0a 73757070 		.ascii	"supply_12v\000"
 7242      6C795F31 
 7242      327600
 7243              	.LASF70:
 7244 0a15 6D5F6F77 		.ascii	"m_owner\000"
 7244      6E657200 
 7245              		.ident	"GCC: (Sourcery G++ Lite 2011.03-42) 4.5.2"
ARM GAS  C:\Users\DNIEL~1\AppData\Local\Temp\cceiqNg0.s 			page 141


DEFINED SYMBOLS
                            *ABS*:00000000 dsp.c
C:\Users\DNIEL~1\AppData\Local\Temp\cceiqNg0.s:24     .text.chprintf:00000000 $t
C:\Users\DNIEL~1\AppData\Local\Temp\cceiqNg0.s:29     .text.chprintf:00000000 chprintf
C:\Users\DNIEL~1\AppData\Local\Temp\cceiqNg0.s:69     .text.dspTask:00000000 $t
C:\Users\DNIEL~1\AppData\Local\Temp\cceiqNg0.s:74     .text.dspTask:00000000 dspTask
C:\Users\DNIEL~1\AppData\Local\Temp\cceiqNg0.s:208    .text.dspTask:000000a0 $d
C:\Users\DNIEL~1\AppData\Local\Temp\cceiqNg0.s:244    .text.dspTask:000000e0 $t
C:\Users\DNIEL~1\AppData\Local\Temp\cceiqNg0.s:520    .text.dspTask:000002c4 $d
C:\Users\DNIEL~1\AppData\Local\Temp\cceiqNg0.s:537    .text.dspTask:000002fc $t
C:\Users\DNIEL~1\AppData\Local\Temp\cceiqNg0.s:996    .text.dspTask:0000061c $d
C:\Users\DNIEL~1\AppData\Local\Temp\cceiqNg0.s:1007   .text.dspTask:0000063c $t
C:\Users\DNIEL~1\AppData\Local\Temp\cceiqNg0.s:1480   .text.dspTask:00000990 $d
C:\Users\DNIEL~1\AppData\Local\Temp\cceiqNg0.s:1490   .text.dspTask:000009a8 $t
C:\Users\DNIEL~1\AppData\Local\Temp\cceiqNg0.s:1749   .text.dspTask:00000b20 $d
C:\Users\DNIEL~1\AppData\Local\Temp\cceiqNg0.s:1760   .text.dsp_LoadTop:00000000 $t
C:\Users\DNIEL~1\AppData\Local\Temp\cceiqNg0.s:1766   .text.dsp_LoadTop:00000000 dsp_LoadTop
C:\Users\DNIEL~1\AppData\Local\Temp\cceiqNg0.s:1872   .text.dsp_LoadMidle:00000000 $t
C:\Users\DNIEL~1\AppData\Local\Temp\cceiqNg0.s:1878   .text.dsp_LoadMidle:00000000 dsp_LoadMidle
C:\Users\DNIEL~1\AppData\Local\Temp\cceiqNg0.s:1946   .text.dsp_LoadBottom:00000000 $t
C:\Users\DNIEL~1\AppData\Local\Temp\cceiqNg0.s:1952   .text.dsp_LoadBottom:00000000 dsp_LoadBottom
C:\Users\DNIEL~1\AppData\Local\Temp\cceiqNg0.s:2107   .text.dsp_RefreshMidle:00000000 $t
C:\Users\DNIEL~1\AppData\Local\Temp\cceiqNg0.s:2113   .text.dsp_RefreshMidle:00000000 dsp_RefreshMidle
C:\Users\DNIEL~1\AppData\Local\Temp\cceiqNg0.s:2233   .text.dsp_RefreshMidle:000000f0 $d
C:\Users\DNIEL~1\AppData\Local\Temp\cceiqNg0.s:2239   .text.dspInit:00000000 $t
C:\Users\DNIEL~1\AppData\Local\Temp\cceiqNg0.s:2245   .text.dspInit:00000000 dspInit
C:\Users\DNIEL~1\AppData\Local\Temp\cceiqNg0.s:2307   .text.dspInit:00000044 $d
C:\Users\DNIEL~1\AppData\Local\Temp\cceiqNg0.s:2317   .text.dspGetItem:00000000 $t
C:\Users\DNIEL~1\AppData\Local\Temp\cceiqNg0.s:2323   .text.dspGetItem:00000000 dspGetItem
C:\Users\DNIEL~1\AppData\Local\Temp\cceiqNg0.s:2347   .text.dspGetItem:00000010 $d
C:\Users\DNIEL~1\AppData\Local\Temp\cceiqNg0.s:2352   .text.dspGetValue:00000000 $t
C:\Users\DNIEL~1\AppData\Local\Temp\cceiqNg0.s:2358   .text.dspGetValue:00000000 dspGetValue
C:\Users\DNIEL~1\AppData\Local\Temp\cceiqNg0.s:2373   .text.dspGetValue:00000008 $d
C:\Users\DNIEL~1\AppData\Local\Temp\cceiqNg0.s:2378   .text.dsp_active:00000000 $t
C:\Users\DNIEL~1\AppData\Local\Temp\cceiqNg0.s:2384   .text.dsp_active:00000000 dsp_active
C:\Users\DNIEL~1\AppData\Local\Temp\cceiqNg0.s:2399   .text.dsp_active:00000008 $d
C:\Users\DNIEL~1\AppData\Local\Temp\cceiqNg0.s:2404   .text.cmd_dspvalues:00000000 $t
C:\Users\DNIEL~1\AppData\Local\Temp\cceiqNg0.s:2410   .text.cmd_dspvalues:00000000 cmd_dspvalues
C:\Users\DNIEL~1\AppData\Local\Temp\cceiqNg0.s:2595   .text.cmd_dspvalues:0000013c $d
C:\Users\DNIEL~1\AppData\Local\Temp\cceiqNg0.s:2619   .text.cmdfrappans_dspmessages:00000000 $t
C:\Users\DNIEL~1\AppData\Local\Temp\cceiqNg0.s:2625   .text.cmdfrappans_dspmessages:00000000 cmdfrappans_dspmessages
C:\Users\DNIEL~1\AppData\Local\Temp\cceiqNg0.s:2809   .text.cmdfrappans_dspmessages:0000010c $d
C:\Users\DNIEL~1\AppData\Local\Temp\cceiqNg0.s:2993   .data.db:00000000 db
C:\Users\DNIEL~1\AppData\Local\Temp\cceiqNg0.s:3006   .bss.db2:00000000 db2
C:\Users\DNIEL~1\AppData\Local\Temp\cceiqNg0.s:2854   .bss.cruise_assis:00000000 cruise_assis
C:\Users\DNIEL~1\AppData\Local\Temp\cceiqNg0.s:3026   .bss.dspstate:00000000 dspstate
C:\Users\DNIEL~1\AppData\Local\Temp\cceiqNg0.s:3020   .bss.dspmessages:00000000 dspmessages
C:\Users\DNIEL~1\AppData\Local\Temp\cceiqNg0.s:2898   .bss.dsp_activ:00000000 dsp_activ
C:\Users\DNIEL~1\AppData\Local\Temp\cceiqNg0.s:2892   .bss.c:00000000 c
C:\Users\DNIEL~1\AppData\Local\Temp\cceiqNg0.s:2838   .bss.bus_num:00000000 $d
C:\Users\DNIEL~1\AppData\Local\Temp\cceiqNg0.s:2842   .bss.bus_num:00000000 bus_num
C:\Users\DNIEL~1\AppData\Local\Temp\cceiqNg0.s:2845   .bss.danger:00000000 $d
C:\Users\DNIEL~1\AppData\Local\Temp\cceiqNg0.s:2849   .bss.danger:00000000 danger
C:\Users\DNIEL~1\AppData\Local\Temp\cceiqNg0.s:2855   .bss.cruise_assis:00000000 $d
C:\Users\DNIEL~1\AppData\Local\Temp\cceiqNg0.s:2860   .bss.valasz:00000000 valasz
C:\Users\DNIEL~1\AppData\Local\Temp\cceiqNg0.s:2861   .bss.valasz:00000000 $d
C:\Users\DNIEL~1\AppData\Local\Temp\cceiqNg0.s:2863   .bss.over_charge:00000000 $d
ARM GAS  C:\Users\DNIEL~1\AppData\Local\Temp\cceiqNg0.s 			page 142


C:\Users\DNIEL~1\AppData\Local\Temp\cceiqNg0.s:2867   .bss.over_charge:00000000 over_charge
C:\Users\DNIEL~1\AppData\Local\Temp\cceiqNg0.s:2870   .bss.discharge:00000000 $d
C:\Users\DNIEL~1\AppData\Local\Temp\cceiqNg0.s:2874   .bss.discharge:00000000 discharge
C:\Users\DNIEL~1\AppData\Local\Temp\cceiqNg0.s:2877   .bss.tasknumber:00000000 $d
C:\Users\DNIEL~1\AppData\Local\Temp\cceiqNg0.s:2881   .bss.tasknumber:00000000 tasknumber
C:\Users\DNIEL~1\AppData\Local\Temp\cceiqNg0.s:2887   .bss.bus_status:00000000 bus_status
C:\Users\DNIEL~1\AppData\Local\Temp\cceiqNg0.s:2888   .bss.bus_status:00000000 $d
C:\Users\DNIEL~1\AppData\Local\Temp\cceiqNg0.s:2893   .bss.c:00000000 $d
C:\Users\DNIEL~1\AppData\Local\Temp\cceiqNg0.s:2899   .bss.dsp_activ:00000000 $d
C:\Users\DNIEL~1\AppData\Local\Temp\cceiqNg0.s:2901   .bss.motor_temp:00000000 $d
C:\Users\DNIEL~1\AppData\Local\Temp\cceiqNg0.s:2905   .bss.motor_temp:00000000 motor_temp
C:\Users\DNIEL~1\AppData\Local\Temp\cceiqNg0.s:2908   .bss.wadspTask:00000000 $d
C:\Users\DNIEL~1\AppData\Local\Temp\cceiqNg0.s:2912   .bss.wadspTask:00000000 wadspTask
C:\Users\DNIEL~1\AppData\Local\Temp\cceiqNg0.s:2915   .rodata.str1.4:00000000 $d
C:\Users\DNIEL~1\AppData\Local\Temp\cceiqNg0.s:2989   .data.db:00000000 $d
C:\Users\DNIEL~1\AppData\Local\Temp\cceiqNg0.s:2996   .bss.bus_bit:00000000 $d
C:\Users\DNIEL~1\AppData\Local\Temp\cceiqNg0.s:3000   .bss.bus_bit:00000000 bus_bit
C:\Users\DNIEL~1\AppData\Local\Temp\cceiqNg0.s:3003   .bss.db2:00000000 $d
C:\Users\DNIEL~1\AppData\Local\Temp\cceiqNg0.s:3009   .data.dspValue:00000000 $d
C:\Users\DNIEL~1\AppData\Local\Temp\cceiqNg0.s:3013   .data.dspValue:00000000 dspValue
C:\Users\DNIEL~1\AppData\Local\Temp\cceiqNg0.s:3021   .bss.dspmessages:00000000 $d
C:\Users\DNIEL~1\AppData\Local\Temp\cceiqNg0.s:3027   .bss.dspstate:00000000 $d
                     .debug_frame:00000010 $d
C:\Users\DNIEL~1\AppData\Local\Temp\cceiqNg0.s:1759   .text.dspTask:00000b34 $t
C:\Users\DNIEL~1\AppData\Local\Temp\cceiqNg0.s:2238   .text.dsp_RefreshMidle:000000f8 $t
C:\Users\DNIEL~1\AppData\Local\Temp\cceiqNg0.s:2316   .text.dspInit:0000005c $t
C:\Users\DNIEL~1\AppData\Local\Temp\cceiqNg0.s:2351   .text.dspGetItem:00000014 $t
C:\Users\DNIEL~1\AppData\Local\Temp\cceiqNg0.s:2377   .text.dspGetValue:0000000c $t
C:\Users\DNIEL~1\AppData\Local\Temp\cceiqNg0.s:2403   .text.dsp_active:0000000c $t
C:\Users\DNIEL~1\AppData\Local\Temp\cceiqNg0.s:2618   .text.cmd_dspvalues:0000018c $t

UNDEFINED SYMBOLS
chvprintf
gfxGetDspAns
bus_Read
calcGetValue
media_SetSector
media_VideoFrame
gfxGetDspAnsZero
measGetValue_2
rlist
vtlist
cruiseGet
getLightFlashing
measGetValue
cruiseStatus
bmsitems
speedGetSpeed
gfx_Transparency
gfx_TransparentColour
media_Image
draw_line
gfx_Cls
file_Mount
bus_In
chThdCreateStatic
chThdSleep
ARM GAS  C:\Users\DNIEL~1\AppData\Local\Temp\cceiqNg0.s 			page 143


strcmp
atol
gfx_BGcolour
