ARM GAS  C:\Users\DNIEL~1\AppData\Local\Temp\ccvGaeHa.s 			page 1


   1              		.syntax unified
   2              		.cpu cortex-m4
   3              		.fpu softvfp
   4              		.eabi_attribute 20, 1
   5              		.eabi_attribute 21, 1
   6              		.eabi_attribute 23, 3
   7              		.eabi_attribute 24, 1
   8              		.eabi_attribute 25, 1
   9              		.eabi_attribute 26, 1
  10              		.eabi_attribute 30, 2
  11              		.eabi_attribute 18, 4
  12              		.thumb
  13              		.file	"dsp.c"
  14              		.section	.debug_abbrev,"",%progbits
  15              	.Ldebug_abbrev0:
  16              		.section	.debug_info,"",%progbits
  17              	.Ldebug_info0:
  18              		.section	.debug_line,"",%progbits
  19              	.Ldebug_line0:
  20 0000 6E060000 		.text
  20      02007D02 
  20      00000201 
  20      FB0E0D00 
  20      01010101 
  21              	.Ltext0:
  22              		.cfi_sections	.debug_frame
  23              		.section	.text.chprintf,"ax",%progbits
  24              		.align	2
  25              		.p2align 4,,15
  26              		.thumb
  27              		.thumb_func
  28              		.type	chprintf, %function
  29              	chprintf:
  30              	.LFB118:
  31              		.file 1 "../../../ChibiOS/os/various/chprintf.h"
  32              		.loc 1 69 0
  33              		.cfi_startproc
  34              		@ args = 4, pretend = 12, frame = 8
  35              		@ frame_needed = 0, uses_anonymous_args = 1
  36              	.LVL0:
  37 0000 0EB4     		push	{r1, r2, r3}
  38              	.LCFI0:
  39              		.cfi_def_cfa_offset 12
  40 0002 00B5     		push	{lr}
  41              	.LCFI1:
  42              		.cfi_def_cfa_offset 16
  43 0004 82B0     		sub	sp, sp, #8
  44              	.LCFI2:
  45              		.cfi_def_cfa_offset 24
  46              		.loc 1 69 0
  47 0006 03AB     		add	r3, sp, #12
  48              		.cfi_offset 14, -16
  49              		.cfi_offset 3, -4
  50              		.cfi_offset 2, -8
  51              		.cfi_offset 1, -12
  52 0008 53F8041B 		ldr	r1, [r3], #4
  53              		.loc 1 73 0
ARM GAS  C:\Users\DNIEL~1\AppData\Local\Temp\ccvGaeHa.s 			page 2


  54 000c 1A46     		mov	r2, r3
  55              		.loc 1 72 0
  56 000e 0193     		str	r3, [sp, #4]
  57              		.loc 1 73 0
  58 0010 FFF7FEFF 		bl	chvprintf
  59              	.LVL1:
  60              		.loc 1 75 0
  61 0014 02B0     		add	sp, sp, #8
  62 0016 5DF804EB 		pop	{lr}
  63 001a 03B0     		add	sp, sp, #12
  64 001c 7047     		bx	lr
  65              		.cfi_endproc
  66              	.LFE118:
  67              		.size	chprintf, .-chprintf
  68 001e 00BF     		.section	.text.dspTask,"ax",%progbits
  69              		.align	2
  70              		.p2align 4,,15
  71              		.thumb
  72              		.thumb_func
  73              		.type	dspTask, %function
  74              	dspTask:
  75              	.LFB123:
  76              		.file 2 "src/dsp.c"
  77              		.loc 2 203 0
  78              		.cfi_startproc
  79              		@ args = 0, pretend = 0, frame = 8
  80              		@ frame_needed = 0, uses_anonymous_args = 0
  81              	.LVL2:
  82 0000 2DE9F04F 		push	{r4, r5, r6, r7, r8, r9, sl, fp, lr}
  83              	.LCFI3:
  84              		.cfi_def_cfa_offset 36
  85              		.loc 2 207 0
  86 0004 A149     		ldr	r1, .L123
  87              		.loc 2 208 0
  88 0006 A248     		ldr	r0, .L123+4
  89              	.LVL3:
  90              		.loc 2 207 0
  91 0008 8B69     		ldr	r3, [r1, #24]
  92              		.loc 2 208 0
  93 000a C268     		ldr	r2, [r0, #12]
  94              		.loc 2 207 0
  95 000c A14A     		ldr	r2, .L123+8
  96 000e A24E     		ldr	r6, .L123+12
  97              		.cfi_offset 14, -4
  98              		.cfi_offset 11, -8
  99              		.cfi_offset 10, -12
 100              		.cfi_offset 9, -16
 101              		.cfi_offset 8, -20
 102              		.cfi_offset 7, -24
 103              		.cfi_offset 6, -28
 104              		.cfi_offset 5, -32
 105              		.cfi_offset 4, -36
 106 0010 A24C     		ldr	r4, .L123+16
 107 0012 DFF898A2 		ldr	sl, .L123+32
 108 0016 DFF898B2 		ldr	fp, .L123+36
 109 001a A14D     		ldr	r5, .L123+20
 110 001c DFF89482 		ldr	r8, .L123+40
ARM GAS  C:\Users\DNIEL~1\AppData\Local\Temp\ccvGaeHa.s 			page 3


 111 0020 A04F     		ldr	r7, .L123+24
 112 0022 DFF88492 		ldr	r9, .L123+28
 113 0026 9A61     		str	r2, [r3, #24]
 114              		.loc 2 203 0
 115 0028 83B0     		sub	sp, sp, #12
 116              	.LCFI4:
 117              		.cfi_def_cfa_offset 48
 118 002a 07E0     		b	.L93
 119              	.L3:
 120              	.LBB2:
 121              		.loc 2 239 0
 122 002c 03F0030C 		and	ip, r3, #3
 123 0030 BCF1020F 		cmp	ip, #2
 124 0034 43D0     		beq	.L117
 125              	.L4:
 126              		.loc 2 676 0
 127 0036 0A20     		movs	r0, #10
 128 0038 FFF7FEFF 		bl	chThdSleep
 129              	.L93:
 130              		.loc 2 213 0
 131 003c 2268     		ldr	r2, [r4, #0]
 132 003e 531C     		adds	r3, r2, #1
 133              		.loc 2 215 0
 134 0040 13F0010F 		tst	r3, #1
 135              		.loc 2 213 0
 136 0044 2360     		str	r3, [r4, #0]
 137              		.loc 2 215 0
 138 0046 F1D0     		beq	.L3
 139              		.loc 2 219 0
 140 0048 0020     		movs	r0, #0
 141 004a AAF80000 		strh	r0, [sl, #0]	@ movhi
 142              		.loc 2 221 0
 143 004e 0190     		str	r0, [sp, #4]
 144 0050 FFF7FEFF 		bl	bus_Read
 145              		.loc 2 223 0
 146 0054 0223     		movs	r3, #2
 147              		.loc 2 224 0
 148 0056 0628     		cmp	r0, #6
 149              		.loc 2 223 0
 150 0058 ABF80030 		strh	r3, [fp, #0]	@ movhi
 151              		.loc 2 221 0
 152 005c AAF80000 		strh	r0, [sl, #0]	@ movhi
 153              		.loc 2 224 0
 154 0060 019B     		ldr	r3, [sp, #4]
 155 0062 E8D9     		bls	.L4
 156              		.loc 2 224 0 is_stmt 0 discriminator 1
 157 0064 1F28     		cmp	r0, #31
 158 0066 E6D0     		beq	.L4
 159              		.loc 2 228 0 is_stmt 1
 160 0068 10F0010F 		tst	r0, #1
 161              		.loc 2 230 0
 162 006c 18BF     		it	ne
 163 006e 0123     		movne	r3, #1
 164 0070 2B70     		strb	r3, [r5, #0]
 165              	.LVL4:
 166              		.loc 2 228 0
 167 0072 C0F34003 		ubfx	r3, r0, #1, #1
ARM GAS  C:\Users\DNIEL~1\AppData\Local\Temp\ccvGaeHa.s 			page 4


 168 0076 03B1     		cbz	r3, .L102
 169              		.loc 2 230 0
 170 0078 0123     		movs	r3, #1
 171              	.L102:
 172 007a 6B70     		strb	r3, [r5, #1]
 173              	.LVL5:
 174              		.loc 2 228 0
 175 007c C0F38003 		ubfx	r3, r0, #2, #1
 176 0080 03B1     		cbz	r3, .L103
 177              		.loc 2 230 0
 178 0082 0123     		movs	r3, #1
 179              	.L103:
 180 0084 AB70     		strb	r3, [r5, #2]
 181              	.LVL6:
 182              		.loc 2 228 0
 183 0086 C0F3C003 		ubfx	r3, r0, #3, #1
 184 008a 03B1     		cbz	r3, .L104
 185              		.loc 2 230 0
 186 008c 0123     		movs	r3, #1
 187              	.L104:
 188 008e EB70     		strb	r3, [r5, #3]
 189              	.LVL7:
 190              		.loc 2 228 0
 191 0090 C0F30013 		ubfx	r3, r0, #4, #1
 192 0094 03B1     		cbz	r3, .L105
 193              		.loc 2 230 0
 194 0096 0123     		movs	r3, #1
 195              	.L105:
 196 0098 2B71     		strb	r3, [r5, #4]
 197              	.LVL8:
 198              		.loc 2 228 0
 199 009a C0F34013 		ubfx	r3, r0, #5, #1
 200 009e 03B1     		cbz	r3, .L106
 201              		.loc 2 230 0
 202 00a0 0123     		movs	r3, #1
 203              	.L106:
 204 00a2 6B71     		strb	r3, [r5, #5]
 205              	.LVL9:
 206              		.loc 2 228 0
 207 00a4 C0F38013 		ubfx	r3, r0, #6, #1
 208 00a8 03B1     		cbz	r3, .L107
 209              		.loc 2 230 0
 210 00aa 0123     		movs	r3, #1
 211              	.L107:
 212              		.loc 2 228 0
 213 00ac C0F3C010 		ubfx	r0, r0, #7, #1
 214              		.loc 2 230 0
 215 00b0 AB71     		strb	r3, [r5, #6]
 216              	.LVL10:
 217              		.loc 2 228 0
 218 00b2 0028     		cmp	r0, #0
 219 00b4 00F0B583 		beq	.L19
 220              		.loc 2 230 0
 221 00b8 0121     		movs	r1, #1
 222 00ba E971     		strb	r1, [r5, #7]
 223 00bc BBE7     		b	.L4
 224              	.LVL11:
ARM GAS  C:\Users\DNIEL~1\AppData\Local\Temp\ccvGaeHa.s 			page 5


 225              	.L117:
 226              		.loc 2 242 0
 227 00be D8F80010 		ldr	r1, [r8, #0]
 228              		.loc 2 245 0
 229 00c2 3868     		ldr	r0, [r7, #0]
 230              		.loc 2 247 0
 231 00c4 3278     		ldrb	r2, [r6, #0]	@ zero_extendqisi2
 232              		.loc 2 242 0
 233 00c6 4B1C     		adds	r3, r1, #1
 234              		.loc 2 243 0
 235 00c8 B3F57A7F 		cmp	r3, #1000
 236 00cc A8BF     		it	ge
 237 00ce 0023     		movge	r3, #0
 238              		.loc 2 245 0
 239 00d0 411C     		adds	r1, r0, #1
 240              		.loc 2 243 0
 241 00d2 C8F80030 		str	r3, [r8, #0]
 242              		.loc 2 245 0
 243 00d6 3960     		str	r1, [r7, #0]
 244              		.loc 2 247 0
 245 00d8 1E2A     		cmp	r2, #30
 246 00da 46D8     		bhi	.L22
 247 00dc DFE812F0 		tbh	[pc, r2, lsl #1]
 248              	.L54:
 249 00e0 1F00     		.2byte	(.L23-.L54)/2
 250 00e2 6F03     		.2byte	(.L24-.L54)/2
 251 00e4 2F03     		.2byte	(.L25-.L54)/2
 252 00e6 0F03     		.2byte	(.L26-.L54)/2
 253 00e8 FB02     		.2byte	(.L27-.L54)/2
 254 00ea E602     		.2byte	(.L28-.L54)/2
 255 00ec D102     		.2byte	(.L29-.L54)/2
 256 00ee 8A01     		.2byte	(.L30-.L54)/2
 257 00f0 AA02     		.2byte	(.L31-.L54)/2
 258 00f2 5702     		.2byte	(.L32-.L54)/2
 259 00f4 8902     		.2byte	(.L33-.L54)/2
 260 00f6 BA01     		.2byte	(.L34-.L54)/2
 261 00f8 9A02     		.2byte	(.L35-.L54)/2
 262 00fa 1902     		.2byte	(.L36-.L54)/2
 263 00fc 7702     		.2byte	(.L37-.L54)/2
 264 00fe 6301     		.2byte	(.L38-.L54)/2
 265 0100 F201     		.2byte	(.L39-.L54)/2
 266 0102 DF01     		.2byte	(.L40-.L54)/2
 267 0104 0502     		.2byte	(.L41-.L54)/2
 268 0106 7701     		.2byte	(.L42-.L54)/2
 269 0108 3D02     		.2byte	(.L43-.L54)/2
 270 010a A701     		.2byte	(.L44-.L54)/2
 271 010c 3C01     		.2byte	(.L45-.L54)/2
 272 010e 2201     		.2byte	(.L46-.L54)/2
 273 0110 0901     		.2byte	(.L47-.L54)/2
 274 0112 AA00     		.2byte	(.L48-.L54)/2
 275 0114 EF00     		.2byte	(.L49-.L54)/2
 276 0116 9A00     		.2byte	(.L50-.L54)/2
 277 0118 8A00     		.2byte	(.L51-.L54)/2
 278 011a 7B00     		.2byte	(.L52-.L54)/2
 279 011c 5600     		.2byte	(.L53-.L54)/2
 280              	.L23:
 281              	.LBB3:
ARM GAS  C:\Users\DNIEL~1\AppData\Local\Temp\ccvGaeHa.s 			page 6


 282              		.loc 2 250 0
 283 011e FFF7FEFF 		bl	speedGetSpeed
 284 0122 0028     		cmp	r0, #0
 285 0124 06DD     		ble	.L96
 286              		.loc 2 250 0 is_stmt 0 discriminator 1
 287 0126 FFF7FEFF 		bl	speedGetSpeed
 288 012a 40F2E632 		movw	r2, #998
 289 012e 9042     		cmp	r0, r2
 290 0130 40F36F83 		ble	.L118
 291              	.L96:
 292              		.loc 2 254 0 is_stmt 1
 293 0134 0023     		movs	r3, #0
 294              	.L55:
 295              	.LVL12:
 296              		.loc 2 256 0
 297 0136 3278     		ldrb	r2, [r6, #0]	@ zero_extendqisi2
 298 0138 59F82200 		ldr	r0, [r9, r2, lsl #2]
 299 013c 9842     		cmp	r0, r3
 300 013e 00F03B83 		beq	.L56
 301              		.loc 2 257 0
 302 0142 002B     		cmp	r3, #0
 303 0144 00F09083 		beq	.L57
 304              		.loc 2 258 0
 305 0148 0020     		movs	r0, #0
 306 014a 41F63111 		movw	r1, #6449
 307 014e 0193     		str	r3, [sp, #4]
 308 0150 FFF7FEFF 		bl	media_SetSector
 309              	.LVL13:
 310              		.loc 2 259 0
 311 0154 BA20     		movs	r0, #186
 312 0156 3E21     		movs	r1, #62
 313 0158 019A     		ldr	r2, [sp, #4]
 314 015a FFF7FEFF 		bl	media_VideoFrame
 315 015e 019B     		ldr	r3, [sp, #4]
 316              	.L58:
 317              		.loc 2 266 0
 318 0160 3178     		ldrb	r1, [r6, #0]	@ zero_extendqisi2
 319              		.loc 2 267 0
 320 0162 481C     		adds	r0, r1, #1
 321              		.loc 2 266 0
 322 0164 49F82130 		str	r3, [r9, r1, lsl #2]
 323              		.loc 2 267 0
 324 0168 C2B2     		uxtb	r2, r0
 325              	.L22:
 326              	.LBE3:
 327              		.loc 2 669 0
 328 016a 531C     		adds	r3, r2, #1
 329 016c 5FFA83FE 		uxtb	lr, r3
 330              		.loc 2 670 0
 331 0170 0020     		movs	r0, #0
 332              		.loc 2 671 0
 333 0172 BEF11F0F 		cmp	lr, #31
 334              		.loc 2 672 0
 335 0176 88BF     		it	hi
 336 0178 4749     		ldrhi	r1, .L123+12
 337              		.loc 2 669 0
 338 017a 86F800E0 		strb	lr, [r6, #0]
ARM GAS  C:\Users\DNIEL~1\AppData\Local\Temp\ccvGaeHa.s 			page 7


 339              		.loc 2 670 0
 340 017e 3860     		str	r0, [r7, #0]
 341              		.loc 2 672 0
 342 0180 88BF     		it	hi
 343 0182 0870     		strbhi	r0, [r1, #0]
 344 0184 57E7     		b	.L4
 345              	.LVL14:
 346              	.L91:
 347              	.LBB4:
 348              		.loc 2 652 0
 349 0186 531C     		adds	r3, r2, #1
 350 0188 DAB2     		uxtb	r2, r3
 351 018a 3270     		strb	r2, [r6, #0]
 352              	.LVL15:
 353              	.L53:
 354              		.loc 2 656 0
 355 018c 59F82200 		ldr	r0, [r9, r2, lsl #2]
 356 0190 0128     		cmp	r0, #1
 357 0192 00F04883 		beq	.L92
 358              		.loc 2 657 0
 359 0196 0020     		movs	r0, #0
 360 0198 0B21     		movs	r1, #11
 361 019a FFF7FEFF 		bl	media_SetSector
 362              		.loc 2 658 0
 363 019e 40F27710 		movw	r0, #375
 364 01a2 5021     		movs	r1, #80
 365              	.L111:
 366 01a4 0122     		movs	r2, #1
 367 01a6 FFF7FEFF 		bl	media_VideoFrame
 368              		.loc 2 660 0
 369 01aa 3278     		ldrb	r2, [r6, #0]	@ zero_extendqisi2
 370 01ac 3E4B     		ldr	r3, .L123+28
 371 01ae 0121     		movs	r1, #1
 372 01b0 43F82210 		str	r1, [r3, r2, lsl #2]
 373              	.LBE4:
 374              		.loc 2 669 0
 375 01b4 531C     		adds	r3, r2, #1
 376 01b6 5FFA83FE 		uxtb	lr, r3
 377              		.loc 2 670 0
 378 01ba 0020     		movs	r0, #0
 379              		.loc 2 671 0
 380 01bc BEF11F0F 		cmp	lr, #31
 381              		.loc 2 672 0
 382 01c0 88BF     		it	hi
 383 01c2 3549     		ldrhi	r1, .L123+12
 384              		.loc 2 669 0
 385 01c4 86F800E0 		strb	lr, [r6, #0]
 386              		.loc 2 670 0
 387 01c8 3860     		str	r0, [r7, #0]
 388              		.loc 2 672 0
 389 01ca 88BF     		it	hi
 390 01cc 0870     		strbhi	r0, [r1, #0]
 391 01ce 32E7     		b	.L4
 392              	.L90:
 393              	.LBB5:
 394              		.loc 2 640 0
 395 01d0 0132     		adds	r2, r2, #1
ARM GAS  C:\Users\DNIEL~1\AppData\Local\Temp\ccvGaeHa.s 			page 8


 396 01d2 D2B2     		uxtb	r2, r2
 397 01d4 3270     		strb	r2, [r6, #0]
 398              	.LVL16:
 399              	.L52:
 400              		.loc 2 644 0
 401 01d6 59F82200 		ldr	r0, [r9, r2, lsl #2]
 402 01da 0128     		cmp	r0, #1
 403 01dc D3D0     		beq	.L91
 404              		.loc 2 645 0
 405 01de 0020     		movs	r0, #0
 406 01e0 4C21     		movs	r1, #76
 407 01e2 FFF7FEFF 		bl	media_SetSector
 408              		.loc 2 646 0
 409 01e6 40F27710 		movw	r0, #375
 410 01ea AA21     		movs	r1, #170
 411 01ec DAE7     		b	.L111
 412              	.L89:
 413              		.loc 2 628 0
 414 01ee 501C     		adds	r0, r2, #1
 415 01f0 C2B2     		uxtb	r2, r0
 416 01f2 3270     		strb	r2, [r6, #0]
 417              	.LVL17:
 418              	.L51:
 419              		.loc 2 632 0
 420 01f4 59F82230 		ldr	r3, [r9, r2, lsl #2]
 421 01f8 012B     		cmp	r3, #1
 422 01fa E9D0     		beq	.L90
 423              		.loc 2 633 0
 424 01fc 0020     		movs	r0, #0
 425 01fe 0146     		mov	r1, r0
 426 0200 FFF7FEFF 		bl	media_SetSector
 427              		.loc 2 634 0
 428 0204 40F27710 		movw	r0, #375
 429 0208 DB21     		movs	r1, #219
 430 020a CBE7     		b	.L111
 431              	.LVL18:
 432              	.L88:
 433              		.loc 2 616 0
 434 020c 0132     		adds	r2, r2, #1
 435 020e 2248     		ldr	r0, .L123+12
 436 0210 D2B2     		uxtb	r2, r2
 437 0212 0270     		strb	r2, [r0, #0]
 438              	.LVL19:
 439              	.L50:
 440              		.loc 2 620 0
 441 0214 59F82230 		ldr	r3, [r9, r2, lsl #2]
 442 0218 012B     		cmp	r3, #1
 443 021a E8D0     		beq	.L89
 444              		.loc 2 621 0
 445 021c 0020     		movs	r0, #0
 446 021e 41F6DF11 		movw	r1, #6623
 447 0222 FFF7FEFF 		bl	media_SetSector
 448              		.loc 2 622 0
 449 0226 40F27710 		movw	r0, #375
 450 022a 1A21     		movs	r1, #26
 451 022c BAE7     		b	.L111
 452              	.LVL20:
ARM GAS  C:\Users\DNIEL~1\AppData\Local\Temp\ccvGaeHa.s 			page 9


 453              	.L86:
 454              		.loc 2 581 0
 455 022e 501C     		adds	r0, r2, #1
 456 0230 194A     		ldr	r2, .L123+12
 457 0232 1070     		strb	r0, [r2, #0]
 458              	.LVL21:
 459              	.L48:
 460              		.loc 2 584 0
 461 0234 FFF7FEFF 		bl	cruiseStatus
 462              		.loc 2 591 0
 463 0238 3278     		ldrb	r2, [r6, #0]	@ zero_extendqisi2
 464              		.loc 2 203 0
 465 023a 80F0010C 		eor	ip, r0, #1
 466              		.loc 2 591 0
 467 023e 59F82210 		ldr	r1, [r9, r2, lsl #2]
 468              		.loc 2 586 0
 469 0242 5FFA8CF3 		uxtb	r3, ip
 470              	.LVL22:
 471              		.loc 2 591 0
 472 0246 9942     		cmp	r1, r3
 473 0248 36D0     		beq	.L87
 474              		.loc 2 592 0
 475 024a 0020     		movs	r0, #0
 476 024c 41F6CC11 		movw	r1, #6604
 477 0250 0193     		str	r3, [sp, #4]
 478 0252 FFF7FEFF 		bl	media_SetSector
 479              	.LVL23:
 480              		.loc 2 593 0
 481 0256 019B     		ldr	r3, [sp, #4]
 482 0258 40F2B110 		movw	r0, #433
 483 025c 3D21     		movs	r1, #61
 484 025e 1A46     		mov	r2, r3
 485              	.L109:
 486              		.loc 2 366 0
 487 0260 FFF7FEFF 		bl	media_VideoFrame
 488              		.loc 2 368 0
 489 0264 0C49     		ldr	r1, .L123+12
 490 0266 0198     		ldr	r0, [sp, #4]
 491 0268 0A78     		ldrb	r2, [r1, #0]	@ zero_extendqisi2
 492 026a 0F49     		ldr	r1, .L123+28
 493              	.LBE5:
 494              		.loc 2 669 0
 495 026c 531C     		adds	r3, r2, #1
 496 026e 5FFA83FE 		uxtb	lr, r3
 497              	.LBB6:
 498              		.loc 2 368 0
 499 0272 41F82200 		str	r0, [r1, r2, lsl #2]
 500              	.LBE6:
 501              		.loc 2 670 0
 502 0276 0020     		movs	r0, #0
 503              		.loc 2 671 0
 504 0278 BEF11F0F 		cmp	lr, #31
 505              		.loc 2 672 0
 506 027c 88BF     		it	hi
 507 027e 0649     		ldrhi	r1, .L123+12
 508              		.loc 2 669 0
 509 0280 86F800E0 		strb	lr, [r6, #0]
ARM GAS  C:\Users\DNIEL~1\AppData\Local\Temp\ccvGaeHa.s 			page 10


 510              		.loc 2 670 0
 511 0284 3860     		str	r0, [r7, #0]
 512              		.loc 2 672 0
 513 0286 88BF     		it	hi
 514 0288 0870     		strbhi	r0, [r1, #0]
 515 028a D4E6     		b	.L4
 516              	.L124:
 517              		.align	2
 518              	.L123:
 519 028c 00000000 		.word	rlist
 520 0290 00000000 		.word	vtlist
 521 0294 00000000 		.word	.LC0
 522 0298 00000000 		.word	.LANCHOR6
 523 029c 00000000 		.word	.LANCHOR0
 524 02a0 00000000 		.word	.LANCHOR3
 525 02a4 00000000 		.word	.LANCHOR5
 526 02a8 00000000 		.word	.LANCHOR7
 527 02ac 00000000 		.word	.LANCHOR1
 528 02b0 00000000 		.word	.LANCHOR2
 529 02b4 00000000 		.word	.LANCHOR4
 530              	.LVL24:
 531              	.L87:
 532              	.LBB7:
 533              		.loc 2 599 0
 534 02b8 501C     		adds	r0, r2, #1
 535 02ba B04A     		ldr	r2, .L125
 536 02bc 1070     		strb	r0, [r2, #0]
 537              	.LVL25:
 538              	.L49:
 539              		.loc 2 602 0
 540 02be 0520     		movs	r0, #5
 541 02c0 FFF7FEFF 		bl	getLightFlashing
 542              		.loc 2 608 0
 543 02c4 3278     		ldrb	r2, [r6, #0]	@ zero_extendqisi2
 544              		.loc 2 203 0
 545 02c6 80F0010C 		eor	ip, r0, #1
 546              		.loc 2 608 0
 547 02ca 59F82210 		ldr	r1, [r9, r2, lsl #2]
 548              		.loc 2 604 0
 549 02ce 5FFA8CF3 		uxtb	r3, ip
 550              	.LVL26:
 551              		.loc 2 608 0
 552 02d2 8B42     		cmp	r3, r1
 553 02d4 9AD0     		beq	.L88
 554              		.loc 2 609 0
 555 02d6 0020     		movs	r0, #0
 556 02d8 4121     		movs	r1, #65
 557 02da 0193     		str	r3, [sp, #4]
 558 02dc FFF7FEFF 		bl	media_SetSector
 559              	.LVL27:
 560              		.loc 2 610 0
 561 02e0 019B     		ldr	r3, [sp, #4]
 562 02e2 40F2B110 		movw	r0, #433
 563 02e6 9A21     		movs	r1, #154
 564 02e8 1A46     		mov	r2, r3
 565 02ea B9E7     		b	.L109
 566              	.LVL28:
ARM GAS  C:\Users\DNIEL~1\AppData\Local\Temp\ccvGaeHa.s 			page 11


 567              	.L84:
 568              		.loc 2 567 0
 569 02ec 501C     		adds	r0, r2, #1
 570 02ee A34A     		ldr	r2, .L125
 571 02f0 1070     		strb	r0, [r2, #0]
 572              	.LVL29:
 573              	.L47:
 574              		.loc 2 570 0
 575 02f2 0320     		movs	r0, #3
 576 02f4 FFF7FEFF 		bl	getLightFlashing
 577 02f8 0028     		cmp	r0, #0
 578 02fa 00F0AD82 		beq	.L119
 579 02fe 0023     		movs	r3, #0
 580              	.L85:
 581              	.LVL30:
 582              		.loc 2 573 0
 583 0300 3278     		ldrb	r2, [r6, #0]	@ zero_extendqisi2
 584 0302 59F82210 		ldr	r1, [r9, r2, lsl #2]
 585 0306 9942     		cmp	r1, r3
 586 0308 91D0     		beq	.L86
 587              		.loc 2 574 0
 588 030a 0020     		movs	r0, #0
 589 030c 2721     		movs	r1, #39
 590 030e 0193     		str	r3, [sp, #4]
 591 0310 FFF7FEFF 		bl	media_SetSector
 592              	.LVL31:
 593              		.loc 2 575 0
 594 0314 019B     		ldr	r3, [sp, #4]
 595 0316 40F2B110 		movw	r0, #433
 596 031a 0721     		movs	r1, #7
 597 031c 1A46     		mov	r2, r3
 598 031e 9FE7     		b	.L109
 599              	.LVL32:
 600              	.L82:
 601              		.loc 2 552 0
 602 0320 0132     		adds	r2, r2, #1
 603 0322 3270     		strb	r2, [r6, #0]
 604              	.LVL33:
 605              	.L46:
 606              		.loc 2 555 0
 607 0324 0220     		movs	r0, #2
 608 0326 FFF7FEFF 		bl	getLightFlashing
 609 032a 0028     		cmp	r0, #0
 610 032c 00F08C82 		beq	.L120
 611 0330 0023     		movs	r3, #0
 612              	.L83:
 613              	.LVL34:
 614              		.loc 2 559 0
 615 0332 3278     		ldrb	r2, [r6, #0]	@ zero_extendqisi2
 616 0334 59F82210 		ldr	r1, [r9, r2, lsl #2]
 617 0338 9942     		cmp	r1, r3
 618 033a D7D0     		beq	.L84
 619              		.loc 2 560 0
 620 033c 0020     		movs	r0, #0
 621 033e 3221     		movs	r1, #50
 622 0340 0193     		str	r3, [sp, #4]
 623 0342 FFF7FEFF 		bl	media_SetSector
ARM GAS  C:\Users\DNIEL~1\AppData\Local\Temp\ccvGaeHa.s 			page 12


 624              	.LVL35:
 625              		.loc 2 561 0
 626 0346 019B     		ldr	r3, [sp, #4]
 627 0348 40F2B110 		movw	r0, #433
 628 034c E621     		movs	r1, #230
 629 034e 1A46     		mov	r2, r3
 630 0350 86E7     		b	.L109
 631              	.LVL36:
 632              	.L81:
 633              		.loc 2 540 0
 634 0352 531C     		adds	r3, r2, #1
 635 0354 DAB2     		uxtb	r2, r3
 636 0356 3270     		strb	r2, [r6, #0]
 637              	.LVL37:
 638              	.L45:
 639              		.loc 2 544 0
 640 0358 59F82200 		ldr	r0, [r9, r2, lsl #2]
 641 035c 40F60813 		movw	r3, #2312
 642 0360 9842     		cmp	r0, r3
 643 0362 DDD0     		beq	.L82
 644              		.loc 2 545 0
 645 0364 0020     		movs	r0, #0
 646 0366 41F61711 		movw	r1, #6423
 647 036a 0193     		str	r3, [sp, #4]
 648 036c FFF7FEFF 		bl	media_SetSector
 649              		.loc 2 546 0
 650 0370 4220     		movs	r0, #66
 651 0372 E421     		movs	r1, #228
 652 0374 0222     		movs	r2, #2
 653              	.LVL38:
 654              	.L112:
 655              		.loc 2 342 0
 656 0376 FFF7FEFF 		bl	media_VideoFrame
 657              		.loc 2 344 0
 658 037a 3278     		ldrb	r2, [r6, #0]	@ zero_extendqisi2
 659 037c 0198     		ldr	r0, [sp, #4]
 660 037e 8049     		ldr	r1, .L125+4
 661              	.LBE7:
 662              		.loc 2 669 0
 663 0380 531C     		adds	r3, r2, #1
 664 0382 5FFA83FE 		uxtb	lr, r3
 665              	.LBB8:
 666              		.loc 2 344 0
 667 0386 41F82200 		str	r0, [r1, r2, lsl #2]
 668              	.LBE8:
 669              		.loc 2 670 0
 670 038a 0020     		movs	r0, #0
 671              		.loc 2 671 0
 672 038c BEF11F0F 		cmp	lr, #31
 673              		.loc 2 672 0
 674 0390 88BF     		it	hi
 675 0392 7A49     		ldrhi	r1, .L125
 676              		.loc 2 669 0
 677 0394 86F800E0 		strb	lr, [r6, #0]
 678              		.loc 2 670 0
 679 0398 3860     		str	r0, [r7, #0]
 680              		.loc 2 672 0
ARM GAS  C:\Users\DNIEL~1\AppData\Local\Temp\ccvGaeHa.s 			page 13


 681 039a 88BF     		it	hi
 682 039c 0870     		strbhi	r0, [r1, #0]
 683 039e 4AE6     		b	.L4
 684              	.LVL39:
 685              	.L74:
 686              	.LBB9:
 687              		.loc 2 456 0
 688 03a0 0132     		adds	r2, r2, #1
 689 03a2 D2B2     		uxtb	r2, r2
 690 03a4 3270     		strb	r2, [r6, #0]
 691              	.LVL40:
 692              	.L38:
 693              		.loc 2 460 0
 694 03a6 59F82210 		ldr	r1, [r9, r2, lsl #2]
 695 03aa 40F2D243 		movw	r3, #1234
 696 03ae 9942     		cmp	r1, r3
 697 03b0 00F08580 		beq	.L75
 698              		.loc 2 461 0
 699 03b4 0020     		movs	r0, #0
 700 03b6 41F61711 		movw	r1, #6423
 701 03ba 0193     		str	r3, [sp, #4]
 702 03bc FFF7FEFF 		bl	media_SetSector
 703              		.loc 2 462 0
 704 03c0 6C20     		movs	r0, #108
 705 03c2 A821     		movs	r1, #168
 706 03c4 0122     		movs	r2, #1
 707 03c6 D6E7     		b	.L112
 708              	.L78:
 709              		.loc 2 504 0
 710 03c8 0132     		adds	r2, r2, #1
 711 03ca D2B2     		uxtb	r2, r2
 712 03cc 3270     		strb	r2, [r6, #0]
 713              	.LVL41:
 714              	.L42:
 715              		.loc 2 508 0
 716 03ce 59F82210 		ldr	r1, [r9, r2, lsl #2]
 717 03d2 40F60813 		movw	r3, #2312
 718 03d6 9942     		cmp	r1, r3
 719 03d8 00F0BC80 		beq	.L79
 720              		.loc 2 509 0
 721 03dc 0020     		movs	r0, #0
 722 03de 41F61711 		movw	r1, #6423
 723 03e2 0193     		str	r3, [sp, #4]
 724 03e4 FFF7FEFF 		bl	media_SetSector
 725              		.loc 2 510 0
 726 03e8 4220     		movs	r0, #66
 727 03ea A821     		movs	r1, #168
 728 03ec 0222     		movs	r2, #2
 729 03ee C2E7     		b	.L112
 730              	.LVL42:
 731              	.L66:
 732              		.loc 2 360 0
 733 03f0 531C     		adds	r3, r2, #1
 734 03f2 3370     		strb	r3, [r6, #0]
 735              	.LVL43:
 736              	.L30:
 737              		.loc 2 363 0
ARM GAS  C:\Users\DNIEL~1\AppData\Local\Temp\ccvGaeHa.s 			page 14


 738 03f4 FFF7FEFF 		bl	cruiseGet
 739              		.loc 2 364 0
 740 03f8 3278     		ldrb	r2, [r6, #0]	@ zero_extendqisi2
 741 03fa 59F82210 		ldr	r1, [r9, r2, lsl #2]
 742 03fe 8142     		cmp	r1, r0
 743              		.loc 2 363 0
 744 0400 0346     		mov	r3, r0
 745              	.LVL44:
 746              		.loc 2 364 0
 747 0402 00F01481 		beq	.L67
 748              		.loc 2 365 0
 749 0406 41F60A11 		movw	r1, #6410
 750 040a 0020     		movs	r0, #0
 751              	.LVL45:
 752 040c 0193     		str	r3, [sp, #4]
 753 040e FFF7FEFF 		bl	media_SetSector
 754              	.LVL46:
 755              		.loc 2 366 0
 756 0412 0198     		ldr	r0, [sp, #4]
 757 0414 5B4B     		ldr	r3, .L125+8
 758 0416 C217     		asrs	r2, r0, #31
 759 0418 83FB001C 		smull	r1, ip, r3, r0
 760 041c C2EB6C12 		rsb	r2, r2, ip, asr #5
 761 0420 40F23B10 		movw	r0, #315
 762 0424 CD21     		movs	r1, #205
 763 0426 1BE7     		b	.L109
 764              	.LVL47:
 765              	.L80:
 766              		.loc 2 528 0
 767 0428 0132     		adds	r2, r2, #1
 768 042a D2B2     		uxtb	r2, r2
 769 042c 3270     		strb	r2, [r6, #0]
 770              	.LVL48:
 771              	.L44:
 772              		.loc 2 532 0
 773 042e 59F82210 		ldr	r1, [r9, r2, lsl #2]
 774 0432 40F60813 		movw	r3, #2312
 775 0436 9942     		cmp	r1, r3
 776 0438 8BD0     		beq	.L81
 777              		.loc 2 533 0
 778 043a 0020     		movs	r0, #0
 779 043c 41F61711 		movw	r1, #6423
 780 0440 0193     		str	r3, [sp, #4]
 781 0442 FFF7FEFF 		bl	media_SetSector
 782              		.loc 2 534 0
 783 0446 4220     		movs	r0, #66
 784 0448 D021     		movs	r1, #208
 785 044a 0122     		movs	r2, #1
 786 044c 93E7     		b	.L112
 787              	.LVL49:
 788              	.L70:
 789              		.loc 2 408 0
 790 044e 0132     		adds	r2, r2, #1
 791 0450 D2B2     		uxtb	r2, r2
 792 0452 3270     		strb	r2, [r6, #0]
 793              	.LVL50:
 794              	.L34:
ARM GAS  C:\Users\DNIEL~1\AppData\Local\Temp\ccvGaeHa.s 			page 15


 795              		.loc 2 412 0
 796 0454 59F82230 		ldr	r3, [r9, r2, lsl #2]
 797 0458 642B     		cmp	r3, #100
 798 045a 00F0D880 		beq	.L71
 799              		.loc 2 413 0
 800 045e 0020     		movs	r0, #0
 801 0460 41F61711 		movw	r1, #6423
 802 0464 FFF7FEFF 		bl	media_SetSector
 803              		.loc 2 414 0
 804 0468 6C20     		movs	r0, #108
 805 046a 3B21     		movs	r1, #59
 806              	.L114:
 807              		.loc 2 426 0
 808 046c 0022     		movs	r2, #0
 809              	.L115:
 810 046e FFF7FEFF 		bl	media_VideoFrame
 811              		.loc 2 428 0
 812 0472 3278     		ldrb	r2, [r6, #0]	@ zero_extendqisi2
 813 0474 424B     		ldr	r3, .L125+4
 814 0476 6421     		movs	r1, #100
 815 0478 43F82210 		str	r1, [r3, r2, lsl #2]
 816              	.LBE9:
 817              		.loc 2 669 0
 818 047c 531C     		adds	r3, r2, #1
 819 047e 5FFA83FE 		uxtb	lr, r3
 820              		.loc 2 670 0
 821 0482 0020     		movs	r0, #0
 822              		.loc 2 671 0
 823 0484 BEF11F0F 		cmp	lr, #31
 824              		.loc 2 672 0
 825 0488 88BF     		it	hi
 826 048a 3C49     		ldrhi	r1, .L125
 827              		.loc 2 669 0
 828 048c 86F800E0 		strb	lr, [r6, #0]
 829              		.loc 2 670 0
 830 0490 3860     		str	r0, [r7, #0]
 831              		.loc 2 672 0
 832 0492 88BF     		it	hi
 833 0494 0870     		strbhi	r0, [r1, #0]
 834 0496 CEE5     		b	.L4
 835              	.LVL51:
 836              	.L76:
 837              	.LBB10:
 838              		.loc 2 480 0
 839 0498 0132     		adds	r2, r2, #1
 840 049a D2B2     		uxtb	r2, r2
 841 049c 3270     		strb	r2, [r6, #0]
 842              	.LVL52:
 843              	.L40:
 844              		.loc 2 484 0
 845 049e 59F82210 		ldr	r1, [r9, r2, lsl #2]
 846 04a2 40F2D243 		movw	r3, #1234
 847 04a6 9942     		cmp	r1, r3
 848 04a8 1CD0     		beq	.L77
 849              		.loc 2 485 0
 850 04aa 0020     		movs	r0, #0
 851 04ac 41F61711 		movw	r1, #6423
ARM GAS  C:\Users\DNIEL~1\AppData\Local\Temp\ccvGaeHa.s 			page 16


 852 04b0 0193     		str	r3, [sp, #4]
 853 04b2 FFF7FEFF 		bl	media_SetSector
 854              		.loc 2 486 0
 855 04b6 6C20     		movs	r0, #108
 856 04b8 D021     		movs	r1, #208
 857 04ba 0322     		movs	r2, #3
 858 04bc 5BE7     		b	.L112
 859              	.L75:
 860              		.loc 2 468 0
 861 04be 531C     		adds	r3, r2, #1
 862 04c0 DAB2     		uxtb	r2, r3
 863 04c2 3270     		strb	r2, [r6, #0]
 864              	.LVL53:
 865              	.L39:
 866              		.loc 2 472 0
 867 04c4 59F82200 		ldr	r0, [r9, r2, lsl #2]
 868 04c8 40F2D243 		movw	r3, #1234
 869 04cc 9842     		cmp	r0, r3
 870 04ce E3D0     		beq	.L76
 871              		.loc 2 473 0
 872 04d0 0020     		movs	r0, #0
 873 04d2 41F61711 		movw	r1, #6423
 874 04d6 0193     		str	r3, [sp, #4]
 875 04d8 FFF7FEFF 		bl	media_SetSector
 876              		.loc 2 474 0
 877 04dc 6C20     		movs	r0, #108
 878 04de BC21     		movs	r1, #188
 879 04e0 0222     		movs	r2, #2
 880 04e2 48E7     		b	.L112
 881              	.L77:
 882              		.loc 2 492 0
 883 04e4 531C     		adds	r3, r2, #1
 884 04e6 DAB2     		uxtb	r2, r3
 885 04e8 3270     		strb	r2, [r6, #0]
 886              	.LVL54:
 887              	.L41:
 888              		.loc 2 496 0
 889 04ea 59F82200 		ldr	r0, [r9, r2, lsl #2]
 890 04ee 40F2D243 		movw	r3, #1234
 891 04f2 9842     		cmp	r0, r3
 892 04f4 3FF468AF 		beq	.L78
 893              		.loc 2 497 0
 894 04f8 0020     		movs	r0, #0
 895 04fa 41F61711 		movw	r1, #6423
 896 04fe 0193     		str	r3, [sp, #4]
 897 0500 FFF7FEFF 		bl	media_SetSector
 898              		.loc 2 498 0
 899 0504 6C20     		movs	r0, #108
 900 0506 E421     		movs	r1, #228
 901 0508 0422     		movs	r2, #4
 902 050a 34E7     		b	.L112
 903              	.LVL55:
 904              	.L72:
 905              		.loc 2 432 0
 906 050c 0132     		adds	r2, r2, #1
 907 050e D2B2     		uxtb	r2, r2
 908 0510 3270     		strb	r2, [r6, #0]
ARM GAS  C:\Users\DNIEL~1\AppData\Local\Temp\ccvGaeHa.s 			page 17


 909              	.LVL56:
 910              	.L36:
 911              		.loc 2 436 0
 912 0512 59F82200 		ldr	r0, [r9, r2, lsl #2]
 913 0516 2F28     		cmp	r0, #47
 914 0518 56D0     		beq	.L73
 915              		.loc 2 437 0
 916 051a 0020     		movs	r0, #0
 917 051c 41F61711 		movw	r1, #6423
 918 0520 FFF7FEFF 		bl	media_SetSector
 919              		.loc 2 438 0
 920 0524 4220     		movs	r0, #66
 921 0526 3B21     		movs	r1, #59
 922 0528 0422     		movs	r2, #4
 923              	.L113:
 924              		.loc 2 450 0
 925 052a FFF7FEFF 		bl	media_VideoFrame
 926              		.loc 2 452 0
 927 052e 3278     		ldrb	r2, [r6, #0]	@ zero_extendqisi2
 928 0530 1348     		ldr	r0, .L125+4
 929              	.LBE10:
 930              		.loc 2 669 0
 931 0532 531C     		adds	r3, r2, #1
 932              	.LBB11:
 933              		.loc 2 452 0
 934 0534 2F21     		movs	r1, #47
 935              	.LBE11:
 936              		.loc 2 669 0
 937 0536 5FFA83FE 		uxtb	lr, r3
 938              	.LBB12:
 939              		.loc 2 452 0
 940 053a 40F82210 		str	r1, [r0, r2, lsl #2]
 941              	.LBE12:
 942              		.loc 2 670 0
 943 053e 0020     		movs	r0, #0
 944              		.loc 2 671 0
 945 0540 BEF11F0F 		cmp	lr, #31
 946              		.loc 2 672 0
 947 0544 88BF     		it	hi
 948 0546 0D49     		ldrhi	r1, .L125
 949              		.loc 2 669 0
 950 0548 86F800E0 		strb	lr, [r6, #0]
 951              		.loc 2 670 0
 952 054c 3860     		str	r0, [r7, #0]
 953              		.loc 2 672 0
 954 054e 88BF     		it	hi
 955 0550 0870     		strbhi	r0, [r1, #0]
 956 0552 70E5     		b	.L4
 957              	.LVL57:
 958              	.L79:
 959              	.LBB13:
 960              		.loc 2 516 0
 961 0554 531C     		adds	r3, r2, #1
 962 0556 DAB2     		uxtb	r2, r3
 963 0558 3270     		strb	r2, [r6, #0]
 964              	.LVL58:
 965              	.L43:
ARM GAS  C:\Users\DNIEL~1\AppData\Local\Temp\ccvGaeHa.s 			page 18


 966              		.loc 2 520 0
 967 055a 59F82200 		ldr	r0, [r9, r2, lsl #2]
 968 055e 40F60813 		movw	r3, #2312
 969 0562 9842     		cmp	r0, r3
 970 0564 3FF460AF 		beq	.L80
 971              		.loc 2 521 0
 972 0568 0020     		movs	r0, #0
 973 056a 41F61711 		movw	r1, #6423
 974 056e 0193     		str	r3, [sp, #4]
 975 0570 FFF7FEFF 		bl	media_SetSector
 976              		.loc 2 522 0
 977 0574 4220     		movs	r0, #66
 978 0576 BC21     		movs	r1, #188
 979 0578 0322     		movs	r2, #3
 980 057a FCE6     		b	.L112
 981              	.L126:
 982              		.align	2
 983              	.L125:
 984 057c 00000000 		.word	.LANCHOR6
 985 0580 00000000 		.word	.LANCHOR7
 986 0584 1F85EB51 		.word	1374389535
 987              	.LVL59:
 988              	.L68:
 989              		.loc 2 384 0
 990 0588 BE48     		ldr	r0, .L127
 991              	.LVL60:
 992 058a 511C     		adds	r1, r2, #1
 993 058c 0170     		strb	r1, [r0, #0]
 994              	.LVL61:
 995              	.L32:
 996              		.loc 2 387 0
 997 058e FFF7FEFF 		bl	cruiseGet
 998              		.loc 2 388 0
 999 0592 3278     		ldrb	r2, [r6, #0]	@ zero_extendqisi2
 1000 0594 59F82210 		ldr	r1, [r9, r2, lsl #2]
 1001 0598 8142     		cmp	r1, r0
 1002              		.loc 2 387 0
 1003 059a 0346     		mov	r3, r0
 1004              	.LVL62:
 1005              		.loc 2 388 0
 1006 059c 25D0     		beq	.L69
 1007              		.loc 2 389 0
 1008 059e 0020     		movs	r0, #0
 1009              	.LVL63:
 1010 05a0 41F60A11 		movw	r1, #6410
 1011 05a4 0193     		str	r3, [sp, #4]
 1012 05a6 FFF7FEFF 		bl	media_SetSector
 1013              	.LVL64:
 1014              		.loc 2 390 0
 1015 05aa 019B     		ldr	r3, [sp, #4]
 1016 05ac B64A     		ldr	r2, .L127+4
 1017 05ae D817     		asrs	r0, r3, #31
 1018 05b0 82FB0321 		smull	r2, r1, r2, r3
 1019 05b4 C0EBA102 		rsb	r2, r0, r1, asr #2
 1020 05b8 02EB820C 		add	ip, r2, r2, lsl #2
 1021 05bc 40F23B10 		movw	r0, #315
 1022 05c0 F521     		movs	r1, #245
ARM GAS  C:\Users\DNIEL~1\AppData\Local\Temp\ccvGaeHa.s 			page 19


 1023 05c2 A3EB4C02 		sub	r2, r3, ip, lsl #1
 1024 05c6 4BE6     		b	.L109
 1025              	.LVL65:
 1026              	.L73:
 1027              		.loc 2 444 0
 1028 05c8 511C     		adds	r1, r2, #1
 1029 05ca CAB2     		uxtb	r2, r1
 1030 05cc 3270     		strb	r2, [r6, #0]
 1031              	.LVL66:
 1032              	.L37:
 1033              		.loc 2 448 0
 1034 05ce 59F82230 		ldr	r3, [r9, r2, lsl #2]
 1035 05d2 2F2B     		cmp	r3, #47
 1036 05d4 3FF4E4AE 		beq	.L74
 1037              		.loc 2 449 0
 1038 05d8 0020     		movs	r0, #0
 1039 05da 41F61711 		movw	r1, #6423
 1040 05de FFF7FEFF 		bl	media_SetSector
 1041              		.loc 2 450 0
 1042 05e2 4220     		movs	r0, #66
 1043 05e4 4F21     		movs	r1, #79
 1044 05e6 0722     		movs	r2, #7
 1045 05e8 9FE7     		b	.L113
 1046              	.LVL67:
 1047              	.L69:
 1048              		.loc 2 396 0
 1049 05ea 501C     		adds	r0, r2, #1
 1050              	.LVL68:
 1051 05ec A54B     		ldr	r3, .L127
 1052              	.LVL69:
 1053 05ee C2B2     		uxtb	r2, r0
 1054 05f0 1A70     		strb	r2, [r3, #0]
 1055              	.L33:
 1056              	.LVL70:
 1057              		.loc 2 400 0
 1058 05f2 59F82210 		ldr	r1, [r9, r2, lsl #2]
 1059 05f6 6429     		cmp	r1, #100
 1060 05f8 3FF429AF 		beq	.L70
 1061              		.loc 2 401 0
 1062 05fc 0020     		movs	r0, #0
 1063 05fe 41F61711 		movw	r1, #6423
 1064 0602 FFF7FEFF 		bl	media_SetSector
 1065              		.loc 2 402 0
 1066 0606 6C20     		movs	r0, #108
 1067 0608 2721     		movs	r1, #39
 1068 060a 0122     		movs	r2, #1
 1069 060c 2FE7     		b	.L115
 1070              	.L71:
 1071              		.loc 2 420 0
 1072 060e 501C     		adds	r0, r2, #1
 1073 0610 C2B2     		uxtb	r2, r0
 1074 0612 3270     		strb	r2, [r6, #0]
 1075              	.LVL71:
 1076              	.L35:
 1077              		.loc 2 424 0
 1078 0614 59F82210 		ldr	r1, [r9, r2, lsl #2]
 1079 0618 6429     		cmp	r1, #100
ARM GAS  C:\Users\DNIEL~1\AppData\Local\Temp\ccvGaeHa.s 			page 20


 1080 061a 3FF477AF 		beq	.L72
 1081              		.loc 2 425 0
 1082 061e 0020     		movs	r0, #0
 1083 0620 41F61711 		movw	r1, #6423
 1084 0624 FFF7FEFF 		bl	media_SetSector
 1085              		.loc 2 426 0
 1086 0628 6C20     		movs	r0, #108
 1087 062a 4F21     		movs	r1, #79
 1088 062c 1EE7     		b	.L114
 1089              	.LVL72:
 1090              	.L67:
 1091              		.loc 2 372 0
 1092 062e 954B     		ldr	r3, .L127
 1093 0630 0132     		adds	r2, r2, #1
 1094 0632 1A70     		strb	r2, [r3, #0]
 1095              	.LVL73:
 1096              	.L31:
 1097              		.loc 2 375 0
 1098 0634 FFF7FEFF 		bl	cruiseGet
 1099              		.loc 2 376 0
 1100 0638 3278     		ldrb	r2, [r6, #0]	@ zero_extendqisi2
 1101 063a 59F82210 		ldr	r1, [r9, r2, lsl #2]
 1102 063e 8142     		cmp	r1, r0
 1103              		.loc 2 375 0
 1104 0640 0346     		mov	r3, r0
 1105              	.LVL74:
 1106              		.loc 2 376 0
 1107 0642 A1D0     		beq	.L68
 1108              		.loc 2 377 0
 1109 0644 41F60A11 		movw	r1, #6410
 1110 0648 0020     		movs	r0, #0
 1111              	.LVL75:
 1112 064a 0193     		str	r3, [sp, #4]
 1113 064c FFF7FEFF 		bl	media_SetSector
 1114              	.LVL76:
 1115              		.loc 2 378 0
 1116 0650 019A     		ldr	r2, [sp, #4]
 1117 0652 8D4B     		ldr	r3, .L127+4
 1118 0654 D017     		asrs	r0, r2, #31
 1119 0656 83FB021C 		smull	r1, ip, r3, r2
 1120 065a 8B49     		ldr	r1, .L127+4
 1121 065c C0EBAC0E 		rsb	lr, r0, ip, asr #2
 1122 0660 81FB0E23 		smull	r2, r3, r1, lr
 1123 0664 4FEAEE72 		asr	r2, lr, #31
 1124 0668 C2EBA300 		rsb	r0, r2, r3, asr #2
 1125 066c 00EB800C 		add	ip, r0, r0, lsl #2
 1126 0670 E121     		movs	r1, #225
 1127 0672 40F23B10 		movw	r0, #315
 1128 0676 AEEB4C02 		sub	r2, lr, ip, lsl #1
 1129 067a F1E5     		b	.L109
 1130              	.LVL77:
 1131              	.L65:
 1132              		.loc 2 348 0
 1133 067c 0132     		adds	r2, r2, #1
 1134 067e D2B2     		uxtb	r2, r2
 1135 0680 3270     		strb	r2, [r6, #0]
 1136              	.LVL78:
ARM GAS  C:\Users\DNIEL~1\AppData\Local\Temp\ccvGaeHa.s 			page 21


 1137              	.L29:
 1138              		.loc 2 352 0
 1139 0682 59F82210 		ldr	r1, [r9, r2, lsl #2]
 1140 0686 40F2E333 		movw	r3, #995
 1141 068a 9942     		cmp	r1, r3
 1142 068c 3FF4B0AE 		beq	.L66
 1143              		.loc 2 353 0
 1144 0690 0020     		movs	r0, #0
 1145 0692 41F60A11 		movw	r1, #6410
 1146 0696 0193     		str	r3, [sp, #4]
 1147 0698 FFF7FEFF 		bl	media_SetSector
 1148              		.loc 2 354 0
 1149 069c 40F23B10 		movw	r0, #315
 1150 06a0 2821     		movs	r1, #40
 1151 06a2 0522     		movs	r2, #5
 1152 06a4 67E6     		b	.L112
 1153              	.L64:
 1154              		.loc 2 336 0
 1155 06a6 531C     		adds	r3, r2, #1
 1156 06a8 DAB2     		uxtb	r2, r3
 1157 06aa 3270     		strb	r2, [r6, #0]
 1158              	.LVL79:
 1159              	.L28:
 1160              		.loc 2 340 0
 1161 06ac 59F82210 		ldr	r1, [r9, r2, lsl #2]
 1162 06b0 40F2E333 		movw	r3, #995
 1163 06b4 9942     		cmp	r1, r3
 1164 06b6 E1D0     		beq	.L65
 1165              		.loc 2 341 0
 1166 06b8 0020     		movs	r0, #0
 1167 06ba 41F60A11 		movw	r1, #6410
 1168 06be 0193     		str	r3, [sp, #4]
 1169 06c0 FFF7FEFF 		bl	media_SetSector
 1170              		.loc 2 342 0
 1171 06c4 40F23B10 		movw	r0, #315
 1172 06c8 1421     		movs	r1, #20
 1173 06ca 0922     		movs	r2, #9
 1174 06cc 53E6     		b	.L112
 1175              	.LVL80:
 1176              	.L63:
 1177              		.loc 2 324 0
 1178 06ce 0132     		adds	r2, r2, #1
 1179 06d0 6C49     		ldr	r1, .L127
 1180 06d2 D2B2     		uxtb	r2, r2
 1181 06d4 0A70     		strb	r2, [r1, #0]
 1182              	.LVL81:
 1183              	.L27:
 1184              		.loc 2 328 0
 1185 06d6 59F82200 		ldr	r0, [r9, r2, lsl #2]
 1186 06da 40F2E333 		movw	r3, #995
 1187 06de 9842     		cmp	r0, r3
 1188 06e0 E1D0     		beq	.L64
 1189              		.loc 2 329 0
 1190 06e2 0020     		movs	r0, #0
 1191 06e4 41F60A11 		movw	r1, #6410
 1192 06e8 0193     		str	r3, [sp, #4]
 1193 06ea FFF7FEFF 		bl	media_SetSector
ARM GAS  C:\Users\DNIEL~1\AppData\Local\Temp\ccvGaeHa.s 			page 22


 1194              		.loc 2 330 0
 1195 06ee 40F23B10 		movw	r0, #315
 1196 06f2 0021     		movs	r1, #0
 1197              		.loc 2 342 0
 1198 06f4 0922     		movs	r2, #9
 1199 06f6 3EE6     		b	.L112
 1200              	.LVL82:
 1201              	.L62:
 1202              		.loc 2 310 0
 1203 06f8 624B     		ldr	r3, .L127
 1204 06fa 501C     		adds	r0, r2, #1
 1205 06fc 1870     		strb	r0, [r3, #0]
 1206              	.L26:
 1207              		.loc 2 313 0
 1208 06fe FFF7FEFF 		bl	speedGetSpeed
 1209              		.loc 2 314 0
 1210 0702 3278     		ldrb	r2, [r6, #0]	@ zero_extendqisi2
 1211 0704 59F82210 		ldr	r1, [r9, r2, lsl #2]
 1212 0708 8142     		cmp	r1, r0
 1213              		.loc 2 313 0
 1214 070a 0346     		mov	r3, r0
 1215              	.LVL83:
 1216              		.loc 2 314 0
 1217 070c DFD0     		beq	.L63
 1218              		.loc 2 315 0
 1219 070e 0120     		movs	r0, #1
 1220              	.LVL84:
 1221 0710 0193     		str	r3, [sp, #4]
 1222 0712 FFF7FEFF 		bl	gfx_Transparency
 1223              	.LVL85:
 1224              		.loc 2 316 0
 1225 0716 1F20     		movs	r0, #31
 1226 0718 FFF7FEFF 		bl	gfx_TransparentColour
 1227              		.loc 2 317 0
 1228 071c 5721     		movs	r1, #87
 1229 071e 0020     		movs	r0, #0
 1230 0720 FFF7FEFF 		bl	media_SetSector
 1231              		.loc 2 318 0
 1232 0724 0198     		ldr	r0, [sp, #4]
 1233 0726 584B     		ldr	r3, .L127+4
 1234 0728 C217     		asrs	r2, r0, #31
 1235 072a 83FB001E 		smull	r1, lr, r3, r0
 1236 072e C2EB6E02 		rsb	r2, r2, lr, asr #1
 1237 0732 9420     		movs	r0, #148
 1238 0734 1521     		movs	r1, #21
 1239 0736 93E5     		b	.L109
 1240              	.L60:
 1241              		.loc 2 291 0
 1242 0738 524A     		ldr	r2, .L127
 1243 073a 0131     		adds	r1, r1, #1
 1244 073c 1170     		strb	r1, [r2, #0]
 1245              	.L25:
 1246              		.loc 2 294 0
 1247 073e FFF7FEFF 		bl	speedGetSpeed
 1248 0742 0028     		cmp	r0, #0
 1249 0744 06DD     		ble	.L61
 1250              		.loc 2 294 0 is_stmt 0 discriminator 1
ARM GAS  C:\Users\DNIEL~1\AppData\Local\Temp\ccvGaeHa.s 			page 23


 1251 0746 FFF7FEFF 		bl	speedGetSpeed
 1252 074a 40F2E63C 		movw	ip, #998
 1253 074e 6045     		cmp	r0, ip
 1254 0750 40F39E80 		ble	.L121
 1255              	.L61:
 1256              		.loc 2 300 0 is_stmt 1
 1257 0754 FFF7FEFF 		bl	speedGetSpeed
 1258 0758 4B4A     		ldr	r2, .L127+4
 1259 075a C317     		asrs	r3, r0, #31
 1260 075c 82FB001C 		smull	r1, ip, r2, r0
 1261              		.loc 2 301 0
 1262 0760 3278     		ldrb	r2, [r6, #0]	@ zero_extendqisi2
 1263              		.loc 2 300 0
 1264 0762 C3EBAC03 		rsb	r3, r3, ip, asr #2
 1265              		.loc 2 301 0
 1266 0766 59F82210 		ldr	r1, [r9, r2, lsl #2]
 1267              		.loc 2 300 0
 1268 076a 03EB830E 		add	lr, r3, r3, lsl #2
 1269 076e A0EB4E03 		sub	r3, r0, lr, lsl #1
 1270              		.loc 2 301 0
 1271 0772 9942     		cmp	r1, r3
 1272 0774 C0D0     		beq	.L62
 1273              		.loc 2 302 0
 1274 0776 0020     		movs	r0, #0
 1275 0778 41F63111 		movw	r1, #6449
 1276 077c 0193     		str	r3, [sp, #4]
 1277 077e FFF7FEFF 		bl	media_SetSector
 1278              		.loc 2 303 0
 1279 0782 BA20     		movs	r0, #186
 1280 0784 A221     		movs	r1, #162
 1281              	.L108:
 1282 0786 019A     		ldr	r2, [sp, #4]
 1283 0788 FFF7FEFF 		bl	media_VideoFrame
 1284              		.loc 2 305 0
 1285 078c 3D49     		ldr	r1, .L127
 1286 078e 019B     		ldr	r3, [sp, #4]
 1287 0790 0978     		ldrb	r1, [r1, #0]	@ zero_extendqisi2
 1288 0792 3E48     		ldr	r0, .L127+8
 1289              		.loc 2 306 0
 1290 0794 4A1C     		adds	r2, r1, #1
 1291 0796 D2B2     		uxtb	r2, r2
 1292              		.loc 2 305 0
 1293 0798 40F82130 		str	r3, [r0, r1, lsl #2]
 1294              	.LBE13:
 1295              		.loc 2 669 0
 1296 079c 531C     		adds	r3, r2, #1
 1297 079e 5FFA83FE 		uxtb	lr, r3
 1298              		.loc 2 670 0
 1299 07a2 0020     		movs	r0, #0
 1300              		.loc 2 671 0
 1301 07a4 BEF11F0F 		cmp	lr, #31
 1302              		.loc 2 672 0
 1303 07a8 88BF     		it	hi
 1304 07aa 3649     		ldrhi	r1, .L127
 1305              		.loc 2 669 0
 1306 07ac 86F800E0 		strb	lr, [r6, #0]
 1307              		.loc 2 670 0
ARM GAS  C:\Users\DNIEL~1\AppData\Local\Temp\ccvGaeHa.s 			page 24


 1308 07b0 3860     		str	r0, [r7, #0]
 1309              		.loc 2 672 0
 1310 07b2 88BF     		it	hi
 1311 07b4 0870     		strbhi	r0, [r1, #0]
 1312 07b6 3EE4     		b	.L4
 1313              	.LVL86:
 1314              	.L56:
 1315              	.LBB14:
 1316              		.loc 2 271 0
 1317 07b8 3249     		ldr	r1, .L127
 1318 07ba 531C     		adds	r3, r2, #1
 1319              	.LVL87:
 1320 07bc 0B70     		strb	r3, [r1, #0]
 1321              	.L24:
 1322              		.loc 2 274 0
 1323 07be FFF7FEFF 		bl	speedGetSpeed
 1324 07c2 0028     		cmp	r0, #0
 1325 07c4 05DD     		ble	.L59
 1326              		.loc 2 274 0 is_stmt 0 discriminator 1
 1327 07c6 FFF7FEFF 		bl	speedGetSpeed
 1328 07ca 40F2E63C 		movw	ip, #998
 1329 07ce 6045     		cmp	r0, ip
 1330 07d0 61DD     		ble	.L122
 1331              	.L59:
 1332              		.loc 2 280 0 is_stmt 1
 1333 07d2 FFF7FEFF 		bl	speedGetSpeed
 1334 07d6 2C4B     		ldr	r3, .L127+4
 1335 07d8 2B49     		ldr	r1, .L127+4
 1336 07da 83FB0032 		smull	r3, r2, r3, r0
 1337 07de C017     		asrs	r0, r0, #31
 1338 07e0 C0EBA202 		rsb	r2, r0, r2, asr #2
 1339 07e4 81FB021C 		smull	r1, ip, r1, r2
 1340 07e8 D317     		asrs	r3, r2, #31
 1341              		.loc 2 281 0
 1342 07ea 3178     		ldrb	r1, [r6, #0]	@ zero_extendqisi2
 1343              		.loc 2 280 0
 1344 07ec C3EBAC03 		rsb	r3, r3, ip, asr #2
 1345              		.loc 2 281 0
 1346 07f0 59F82100 		ldr	r0, [r9, r1, lsl #2]
 1347              		.loc 2 280 0
 1348 07f4 03EB830E 		add	lr, r3, r3, lsl #2
 1349 07f8 A2EB4E03 		sub	r3, r2, lr, lsl #1
 1350              		.loc 2 281 0
 1351 07fc 9842     		cmp	r0, r3
 1352 07fe 9BD0     		beq	.L60
 1353              		.loc 2 283 0
 1354 0800 0020     		movs	r0, #0
 1355 0802 41F63111 		movw	r1, #6449
 1356 0806 0193     		str	r3, [sp, #4]
 1357 0808 FFF7FEFF 		bl	media_SetSector
 1358              		.loc 2 284 0
 1359 080c BA20     		movs	r0, #186
 1360 080e 7021     		movs	r1, #112
 1361 0810 B9E7     		b	.L108
 1362              	.L118:
 1363              		.loc 2 251 0
 1364 0812 FFF7FEFF 		bl	speedGetSpeed
ARM GAS  C:\Users\DNIEL~1\AppData\Local\Temp\ccvGaeHa.s 			page 25


 1365 0816 6423     		movs	r3, #100
 1366 0818 90FBF3FC 		sdiv	ip, r0, r3
 1367 081c 0FFA8CF3 		sxth	r3, ip
 1368              	.LVL88:
 1369 0820 89E4     		b	.L55
 1370              	.LVL89:
 1371              	.L19:
 1372              	.LBE14:
 1373              		.loc 2 233 0
 1374 0822 E871     		strb	r0, [r5, #7]
 1375              	.LVL90:
 1376 0824 07E4     		b	.L4
 1377              	.LVL91:
 1378              	.L92:
 1379              	.LBB15:
 1380              		.loc 2 664 0
 1381 0826 0132     		adds	r2, r2, #1
 1382 0828 D2B2     		uxtb	r2, r2
 1383              	.LBE15:
 1384              		.loc 2 669 0
 1385 082a 531C     		adds	r3, r2, #1
 1386 082c 5FFA83FE 		uxtb	lr, r3
 1387              		.loc 2 670 0
 1388 0830 0020     		movs	r0, #0
 1389              		.loc 2 671 0
 1390 0832 BEF11F0F 		cmp	lr, #31
 1391              		.loc 2 672 0
 1392 0836 88BF     		it	hi
 1393 0838 1249     		ldrhi	r1, .L127
 1394              		.loc 2 669 0
 1395 083a 86F800E0 		strb	lr, [r6, #0]
 1396              		.loc 2 670 0
 1397 083e 3860     		str	r0, [r7, #0]
 1398              		.loc 2 672 0
 1399 0840 88BF     		it	hi
 1400 0842 0870     		strbhi	r0, [r1, #0]
 1401 0844 FFF7F7BB 		b	.L4
 1402              	.LVL92:
 1403              	.L120:
 1404              	.LBB16:
 1405              		.loc 2 555 0 discriminator 2
 1406 0848 0420     		movs	r0, #4
 1407 084a FFF7FEFF 		bl	getLightFlashing
 1408              		.loc 2 557 0 discriminator 2
 1409 084e D0F10103 		rsbs	r3, r0, #1
 1410 0852 38BF     		it	cc
 1411 0854 0023     		movcc	r3, #0
 1412 0856 6CE5     		b	.L83
 1413              	.L119:
 1414              		.loc 2 570 0 discriminator 2
 1415 0858 0420     		movs	r0, #4
 1416 085a FFF7FEFF 		bl	getLightFlashing
 1417              		.loc 2 572 0 discriminator 2
 1418 085e D0F10103 		rsbs	r3, r0, #1
 1419 0862 38BF     		it	cc
 1420 0864 0023     		movcc	r3, #0
 1421 0866 4BE5     		b	.L85
ARM GAS  C:\Users\DNIEL~1\AppData\Local\Temp\ccvGaeHa.s 			page 26


 1422              	.LVL93:
 1423              	.L57:
 1424              		.loc 2 262 0
 1425 0868 1846     		mov	r0, r3
 1426 086a 41F63111 		movw	r1, #6449
 1427 086e 0193     		str	r3, [sp, #4]
 1428 0870 FFF7FEFF 		bl	media_SetSector
 1429              	.LVL94:
 1430              		.loc 2 263 0
 1431 0874 BA20     		movs	r0, #186
 1432 0876 3E21     		movs	r1, #62
 1433 0878 0A22     		movs	r2, #10
 1434 087a FFF7FEFF 		bl	media_VideoFrame
 1435 087e 019B     		ldr	r3, [sp, #4]
 1436 0880 6EE4     		b	.L58
 1437              	.L128:
 1438 0882 00BF     		.align	2
 1439              	.L127:
 1440 0884 00000000 		.word	.LANCHOR6
 1441 0888 67666666 		.word	1717986919
 1442 088c 00000000 		.word	.LANCHOR7
 1443              	.L121:
 1444              		.loc 2 295 0
 1445 0890 FFF7FEFF 		bl	speedGetSpeed
 1446 0894 5EE7     		b	.L61
 1447              	.L122:
 1448              		.loc 2 275 0
 1449 0896 FFF7FEFF 		bl	speedGetSpeed
 1450 089a 9AE7     		b	.L59
 1451              	.LBE16:
 1452              	.LBE2:
 1453              		.cfi_endproc
 1454              	.LFE123:
 1455              		.size	dspTask, .-dspTask
 1456 089c AFF30080 		.section	.text.dsp_LoadTop,"ax",%progbits
 1457              		.align	2
 1458              		.p2align 4,,15
 1459              		.global	dsp_LoadTop
 1460              		.thumb
 1461              		.thumb_func
 1462              		.type	dsp_LoadTop, %function
 1463              	dsp_LoadTop:
 1464              	.LFB119:
 1465              		.loc 2 75 0
 1466              		.cfi_startproc
 1467              		@ args = 0, pretend = 0, frame = 0
 1468              		@ frame_needed = 0, uses_anonymous_args = 0
 1469 0000 10B5     		push	{r4, lr}
 1470              	.LCFI5:
 1471              		.cfi_def_cfa_offset 8
 1472              		.loc 2 77 0
 1473 0002 0020     		movs	r0, #0
 1474 0004 2721     		movs	r1, #39
 1475              		.cfi_offset 14, -4
 1476              		.cfi_offset 4, -8
 1477 0006 FFF7FEFF 		bl	media_SetSector
 1478              		.loc 2 78 0
ARM GAS  C:\Users\DNIEL~1\AppData\Local\Temp\ccvGaeHa.s 			page 27


 1479 000a 0022     		movs	r2, #0
 1480 000c 0721     		movs	r1, #7
 1481 000e 40F2B110 		movw	r0, #433
 1482 0012 FFF7FEFF 		bl	media_VideoFrame
 1483              		.loc 2 80 0
 1484 0016 0020     		movs	r0, #0
 1485 0018 41F6CC11 		movw	r1, #6604
 1486 001c FFF7FEFF 		bl	media_SetSector
 1487              		.loc 2 81 0
 1488 0020 0022     		movs	r2, #0
 1489 0022 3D21     		movs	r1, #61
 1490 0024 40F2B110 		movw	r0, #433
 1491 0028 FFF7FEFF 		bl	media_VideoFrame
 1492              		.loc 2 83 0
 1493 002c 0020     		movs	r0, #0
 1494 002e 4121     		movs	r1, #65
 1495 0030 FFF7FEFF 		bl	media_SetSector
 1496              		.loc 2 84 0
 1497 0034 0022     		movs	r2, #0
 1498 0036 9A21     		movs	r1, #154
 1499 0038 40F2B110 		movw	r0, #433
 1500 003c FFF7FEFF 		bl	media_VideoFrame
 1501              		.loc 2 86 0
 1502 0040 0020     		movs	r0, #0
 1503 0042 3221     		movs	r1, #50
 1504 0044 FFF7FEFF 		bl	media_SetSector
 1505              		.loc 2 87 0
 1506 0048 0022     		movs	r2, #0
 1507 004a E621     		movs	r1, #230
 1508 004c 40F2B110 		movw	r0, #433
 1509 0050 FFF7FEFF 		bl	media_VideoFrame
 1510              		.loc 2 89 0
 1511 0054 0020     		movs	r0, #0
 1512 0056 41F6DF11 		movw	r1, #6623
 1513 005a FFF7FEFF 		bl	media_SetSector
 1514              		.loc 2 90 0
 1515 005e 0022     		movs	r2, #0
 1516 0060 1A21     		movs	r1, #26
 1517 0062 40F27710 		movw	r0, #375
 1518 0066 FFF7FEFF 		bl	media_VideoFrame
 1519              		.loc 2 92 0
 1520 006a 0020     		movs	r0, #0
 1521 006c 0B21     		movs	r1, #11
 1522 006e FFF7FEFF 		bl	media_SetSector
 1523              		.loc 2 93 0
 1524 0072 0022     		movs	r2, #0
 1525 0074 40F27710 		movw	r0, #375
 1526 0078 5021     		movs	r1, #80
 1527 007a FFF7FEFF 		bl	media_VideoFrame
 1528              		.loc 2 95 0
 1529 007e 0020     		movs	r0, #0
 1530 0080 4C21     		movs	r1, #76
 1531 0082 FFF7FEFF 		bl	media_SetSector
 1532              		.loc 2 96 0
 1533 0086 0022     		movs	r2, #0
 1534 0088 AA21     		movs	r1, #170
 1535 008a 40F27710 		movw	r0, #375
ARM GAS  C:\Users\DNIEL~1\AppData\Local\Temp\ccvGaeHa.s 			page 28


 1536 008e FFF7FEFF 		bl	media_VideoFrame
 1537              		.loc 2 98 0
 1538 0092 0020     		movs	r0, #0
 1539 0094 0146     		mov	r1, r0
 1540 0096 FFF7FEFF 		bl	media_SetSector
 1541              		.loc 2 99 0
 1542 009a 0022     		movs	r2, #0
 1543 009c DB21     		movs	r1, #219
 1544 009e 40F27710 		movw	r0, #375
 1545 00a2 FFF7FEFF 		bl	media_VideoFrame
 1546              		.loc 2 101 0
 1547 00a6 0020     		movs	r0, #0
 1548 00a8 41F60411 		movw	r1, #6404
 1549 00ac FFF7FEFF 		bl	media_SetSector
 1550              		.loc 2 102 0
 1551 00b0 0421     		movs	r1, #4
 1552 00b2 4FF4AA70 		mov	r0, #340
 1553 00b6 FFF7FEFF 		bl	media_Image
 1554              		.loc 2 104 0
 1555 00ba 0020     		movs	r0, #0
 1556 00bc 41F6D711 		movw	r1, #6615
 1557 00c0 FFF7FEFF 		bl	media_SetSector
 1558              		.loc 2 105 0
 1559 00c4 4FF4AA70 		mov	r0, #340
 1560 00c8 A621     		movs	r1, #166
 1561              		.loc 2 107 0
 1562 00ca BDE81040 		pop	{r4, lr}
 1563              		.loc 2 105 0
 1564 00ce FFF7FEBF 		b	media_Image
 1565              		.cfi_endproc
 1566              	.LFE119:
 1567              		.size	dsp_LoadTop, .-dsp_LoadTop
 1568 00d2 00BFAFF3 		.section	.text.dsp_LoadMidle,"ax",%progbits
 1568      0080AFF3 
 1568      0080AFF3 
 1568      0080
 1569              		.align	2
 1570              		.p2align 4,,15
 1571              		.global	dsp_LoadMidle
 1572              		.thumb
 1573              		.thumb_func
 1574              		.type	dsp_LoadMidle, %function
 1575              	dsp_LoadMidle:
 1576              	.LFB120:
 1577              		.loc 2 108 0
 1578              		.cfi_startproc
 1579              		@ args = 0, pretend = 0, frame = 0
 1580              		@ frame_needed = 0, uses_anonymous_args = 0
 1581 0000 10B5     		push	{r4, lr}
 1582              	.LCFI6:
 1583              		.cfi_def_cfa_offset 8
 1584              		.loc 2 110 0
 1585 0002 0120     		movs	r0, #1
 1586              		.cfi_offset 14, -4
 1587              		.cfi_offset 4, -8
 1588 0004 FFF7FEFF 		bl	gfx_Transparency
 1589              		.loc 2 111 0
ARM GAS  C:\Users\DNIEL~1\AppData\Local\Temp\ccvGaeHa.s 			page 29


 1590 0008 1F20     		movs	r0, #31
 1591 000a FFF7FEFF 		bl	gfx_TransparentColour
 1592              		.loc 2 112 0
 1593 000e 0020     		movs	r0, #0
 1594 0010 5721     		movs	r1, #87
 1595 0012 FFF7FEFF 		bl	media_SetSector
 1596              		.loc 2 113 0
 1597 0016 0022     		movs	r2, #0
 1598 0018 9420     		movs	r0, #148
 1599 001a 1521     		movs	r1, #21
 1600 001c FFF7FEFF 		bl	media_VideoFrame
 1601              		.loc 2 115 0
 1602 0020 0020     		movs	r0, #0
 1603 0022 3D21     		movs	r1, #61
 1604 0024 FFF7FEFF 		bl	media_SetSector
 1605              		.loc 2 116 0
 1606 0028 A820     		movs	r0, #168
 1607 002a CC21     		movs	r1, #204
 1608 002c FFF7FEFF 		bl	media_Image
 1609              		.loc 2 118 0
 1610 0030 0020     		movs	r0, #0
 1611 0032 41F60A11 		movw	r1, #6410
 1612 0036 FFF7FEFF 		bl	media_SetSector
 1613              		.loc 2 119 0
 1614 003a 0022     		movs	r2, #0
 1615 003c F421     		movs	r1, #244
 1616 003e 40F23B10 		movw	r0, #315
 1617 0042 FFF7FEFF 		bl	media_VideoFrame
 1618              		.loc 2 120 0
 1619 0046 0020     		movs	r0, #0
 1620 0048 41F60A11 		movw	r1, #6410
 1621 004c FFF7FEFF 		bl	media_SetSector
 1622              		.loc 2 121 0
 1623 0050 0022     		movs	r2, #0
 1624 0052 2821     		movs	r1, #40
 1625 0054 40F23B10 		movw	r0, #315
 1626 0058 FFF7FEFF 		bl	media_VideoFrame
 1627              		.loc 2 123 0
 1628 005c 0020     		movs	r0, #0
 1629 005e 41F63111 		movw	r1, #6449
 1630 0062 FFF7FEFF 		bl	media_SetSector
 1631              		.loc 2 124 0
 1632 0066 BA20     		movs	r0, #186
 1633 0068 9B21     		movs	r1, #155
 1634 006a 0022     		movs	r2, #0
 1635              		.loc 2 126 0
 1636 006c BDE81040 		pop	{r4, lr}
 1637              		.loc 2 124 0
 1638 0070 FFF7FEBF 		b	media_VideoFrame
 1639              		.cfi_endproc
 1640              	.LFE120:
 1641              		.size	dsp_LoadMidle, .-dsp_LoadMidle
 1642 0074 AFF30080 		.section	.text.dsp_LoadBottom,"ax",%progbits
 1642      AFF30080 
 1642      AFF30080 
 1643              		.align	2
 1644              		.p2align 4,,15
ARM GAS  C:\Users\DNIEL~1\AppData\Local\Temp\ccvGaeHa.s 			page 30


 1645              		.global	dsp_LoadBottom
 1646              		.thumb
 1647              		.thumb_func
 1648              		.type	dsp_LoadBottom, %function
 1649              	dsp_LoadBottom:
 1650              	.LFB121:
 1651              		.loc 2 127 0
 1652              		.cfi_startproc
 1653              		@ args = 0, pretend = 0, frame = 0
 1654              		@ frame_needed = 0, uses_anonymous_args = 0
 1655 0000 10B5     		push	{r4, lr}
 1656              	.LCFI7:
 1657              		.cfi_def_cfa_offset 8
 1658              		.loc 2 129 0
 1659 0002 4FF4B470 		mov	r0, #360
 1660              		.loc 2 127 0
 1661 0006 82B0     		sub	sp, sp, #8
 1662              	.LCFI8:
 1663              		.cfi_def_cfa_offset 16
 1664              		.loc 2 129 0
 1665 0008 4FF6FF74 		movw	r4, #65535
 1666              		.cfi_offset 14, -4
 1667              		.cfi_offset 4, -8
 1668 000c 0021     		movs	r1, #0
 1669 000e 0246     		mov	r2, r0
 1670 0010 4FF48873 		mov	r3, #272
 1671 0014 0094     		str	r4, [sp, #0]
 1672 0016 FFF7FEFF 		bl	draw_line
 1673              		.loc 2 130 0
 1674 001a 9120     		movs	r0, #145
 1675 001c 4FF48873 		mov	r3, #272
 1676 0020 0246     		mov	r2, r0
 1677 0022 0021     		movs	r1, #0
 1678 0024 0094     		str	r4, [sp, #0]
 1679 0026 FFF7FEFF 		bl	draw_line
 1680              		.loc 2 132 0
 1681 002a 0020     		movs	r0, #0
 1682 002c 1C21     		movs	r1, #28
 1683 002e FFF7FEFF 		bl	media_SetSector
 1684              		.loc 2 133 0
 1685 0032 0022     		movs	r2, #0
 1686 0034 6C20     		movs	r0, #108
 1687 0036 0521     		movs	r1, #5
 1688 0038 FFF7FEFF 		bl	media_VideoFrame
 1689              		.loc 2 135 0
 1690 003c 0020     		movs	r0, #0
 1691 003e 1C21     		movs	r1, #28
 1692 0040 FFF7FEFF 		bl	media_SetSector
 1693              		.loc 2 136 0
 1694 0044 0122     		movs	r2, #1
 1695 0046 6C20     		movs	r0, #108
 1696 0048 8721     		movs	r1, #135
 1697 004a FFF7FEFF 		bl	media_VideoFrame
 1698              		.loc 2 138 0
 1699 004e 0020     		movs	r0, #0
 1700 0050 1C21     		movs	r1, #28
 1701 0052 FFF7FEFF 		bl	media_SetSector
ARM GAS  C:\Users\DNIEL~1\AppData\Local\Temp\ccvGaeHa.s 			page 31


 1702              		.loc 2 139 0
 1703 0056 0222     		movs	r2, #2
 1704 0058 4220     		movs	r0, #66
 1705 005a 8721     		movs	r1, #135
 1706 005c FFF7FEFF 		bl	media_VideoFrame
 1707              		.loc 2 141 0
 1708 0060 0020     		movs	r0, #0
 1709 0062 41F6EA11 		movw	r1, #6634
 1710 0066 FFF7FEFF 		bl	media_SetSector
 1711              		.loc 2 142 0
 1712 006a 4120     		movs	r0, #65
 1713 006c 0521     		movs	r1, #5
 1714 006e FFF7FEFF 		bl	media_Image
 1715              		.loc 2 144 0
 1716 0072 0020     		movs	r0, #0
 1717 0074 41F61711 		movw	r1, #6423
 1718 0078 FFF7FEFF 		bl	media_SetSector
 1719              		.loc 2 145 0
 1720 007c 0022     		movs	r2, #0
 1721 007e 6C20     		movs	r0, #108
 1722 0080 4F21     		movs	r1, #79
 1723 0082 FFF7FEFF 		bl	media_VideoFrame
 1724              		.loc 2 146 0
 1725 0086 0020     		movs	r0, #0
 1726 0088 41F61711 		movw	r1, #6423
 1727 008c FFF7FEFF 		bl	media_SetSector
 1728              		.loc 2 147 0
 1729 0090 0022     		movs	r2, #0
 1730 0092 6C20     		movs	r0, #108
 1731 0094 E421     		movs	r1, #228
 1732 0096 FFF7FEFF 		bl	media_VideoFrame
 1733              		.loc 2 148 0
 1734 009a 0020     		movs	r0, #0
 1735 009c 41F61711 		movw	r1, #6423
 1736 00a0 FFF7FEFF 		bl	media_SetSector
 1737              		.loc 2 149 0
 1738 00a4 0022     		movs	r2, #0
 1739 00a6 4220     		movs	r0, #66
 1740 00a8 4F21     		movs	r1, #79
 1741 00aa FFF7FEFF 		bl	media_VideoFrame
 1742              		.loc 2 150 0
 1743 00ae 0020     		movs	r0, #0
 1744 00b0 41F61711 		movw	r1, #6423
 1745 00b4 FFF7FEFF 		bl	media_SetSector
 1746              		.loc 2 151 0
 1747 00b8 0022     		movs	r2, #0
 1748 00ba 4220     		movs	r0, #66
 1749 00bc E421     		movs	r1, #228
 1750 00be FFF7FEFF 		bl	media_VideoFrame
 1751              		.loc 2 153 0
 1752 00c2 0020     		movs	r0, #0
 1753 00c4 1621     		movs	r1, #22
 1754 00c6 FFF7FEFF 		bl	media_SetSector
 1755              		.loc 2 154 0
 1756 00ca 0222     		movs	r2, #2
 1757 00cc 6620     		movs	r0, #102
 1758 00ce 6921     		movs	r1, #105
ARM GAS  C:\Users\DNIEL~1\AppData\Local\Temp\ccvGaeHa.s 			page 32


 1759 00d0 FFF7FEFF 		bl	media_VideoFrame
 1760              		.loc 2 155 0
 1761 00d4 1621     		movs	r1, #22
 1762 00d6 0020     		movs	r0, #0
 1763 00d8 FFF7FEFF 		bl	media_SetSector
 1764              		.loc 2 156 0
 1765 00dc 0122     		movs	r2, #1
 1766 00de 4120     		movs	r0, #65
 1767 00e0 6921     		movs	r1, #105
 1768 00e2 FFF7FEFF 		bl	media_VideoFrame
 1769              		.loc 2 157 0
 1770 00e6 0020     		movs	r0, #0
 1771 00e8 1621     		movs	r1, #22
 1772 00ea FFF7FEFF 		bl	media_SetSector
 1773              		.loc 2 158 0
 1774 00ee 0022     		movs	r2, #0
 1775 00f0 6620     		movs	r0, #102
 1776 00f2 F921     		movs	r1, #249
 1777 00f4 FFF7FEFF 		bl	media_VideoFrame
 1778              		.loc 2 159 0
 1779 00f8 0020     		movs	r0, #0
 1780 00fa 1621     		movs	r1, #22
 1781 00fc FFF7FEFF 		bl	media_SetSector
 1782              		.loc 2 160 0
 1783 0100 4120     		movs	r0, #65
 1784 0102 F921     		movs	r1, #249
 1785 0104 0022     		movs	r2, #0
 1786              		.loc 2 162 0
 1787 0106 02B0     		add	sp, sp, #8
 1788 0108 BDE81040 		pop	{r4, lr}
 1789              		.loc 2 160 0
 1790 010c FFF7FEBF 		b	media_VideoFrame
 1791              		.cfi_endproc
 1792              	.LFE121:
 1793              		.size	dsp_LoadBottom, .-dsp_LoadBottom
 1794              		.section	.text.dsp_RefreshMidle,"ax",%progbits
 1795              		.align	2
 1796              		.p2align 4,,15
 1797              		.global	dsp_RefreshMidle
 1798              		.thumb
 1799              		.thumb_func
 1800              		.type	dsp_RefreshMidle, %function
 1801              	dsp_RefreshMidle:
 1802              	.LFB122:
 1803              		.loc 2 164 0
 1804              		.cfi_startproc
 1805              		@ args = 0, pretend = 0, frame = 0
 1806              		@ frame_needed = 0, uses_anonymous_args = 0
 1807              	.LVL95:
 1808 0000 70B5     		push	{r4, r5, r6, lr}
 1809              	.LCFI9:
 1810              		.cfi_def_cfa_offset 16
 1811              		.loc 2 164 0
 1812 0002 0446     		mov	r4, r0
 1813              		.cfi_offset 14, -4
 1814              		.cfi_offset 6, -8
 1815              		.cfi_offset 5, -12
ARM GAS  C:\Users\DNIEL~1\AppData\Local\Temp\ccvGaeHa.s 			page 33


 1816              		.cfi_offset 4, -16
 1817              		.loc 2 166 0
 1818 0004 0120     		movs	r0, #1
 1819              	.LVL96:
 1820 0006 FFF7FEFF 		bl	gfx_Transparency
 1821              		.loc 2 167 0
 1822 000a 1F20     		movs	r0, #31
 1823 000c FFF7FEFF 		bl	gfx_TransparentColour
 1824              		.loc 2 168 0
 1825 0010 5721     		movs	r1, #87
 1826 0012 0020     		movs	r0, #0
 1827 0014 FFF7FEFF 		bl	media_SetSector
 1828              		.loc 2 169 0
 1829 0018 3548     		ldr	r0, .L136
 1830 001a E517     		asrs	r5, r4, #31
 1831 001c 80FB0412 		smull	r1, r2, r0, r4
 1832 0020 C5EB6202 		rsb	r2, r5, r2, asr #1
 1833 0024 9420     		movs	r0, #148
 1834 0026 1521     		movs	r1, #21
 1835 0028 FFF7FEFF 		bl	media_VideoFrame
 1836              		.loc 2 171 0
 1837 002c 0020     		movs	r0, #0
 1838 002e 3D21     		movs	r1, #61
 1839 0030 FFF7FEFF 		bl	media_SetSector
 1840              		.loc 2 172 0
 1841 0034 A820     		movs	r0, #168
 1842 0036 CC21     		movs	r1, #204
 1843 0038 FFF7FEFF 		bl	media_Image
 1844              		.loc 2 174 0
 1845 003c 0020     		movs	r0, #0
 1846 003e 41F60A11 		movw	r1, #6410
 1847 0042 FFF7FEFF 		bl	media_SetSector
 1848              		.loc 2 175 0
 1849 0046 0022     		movs	r2, #0
 1850 0048 F421     		movs	r1, #244
 1851 004a 40F23B10 		movw	r0, #315
 1852 004e FFF7FEFF 		bl	media_VideoFrame
 1853              		.loc 2 176 0
 1854 0052 0020     		movs	r0, #0
 1855 0054 41F60A11 		movw	r1, #6410
 1856 0058 FFF7FEFF 		bl	media_SetSector
 1857              		.loc 2 177 0
 1858 005c 2121     		movs	r1, #33
 1859 005e 0022     		movs	r2, #0
 1860 0060 40F23B10 		movw	r0, #315
 1861 0064 FFF7FEFF 		bl	media_VideoFrame
 1862              		.loc 2 179 0
 1863 0068 04F16303 		add	r3, r4, #99
 1864 006c C62B     		cmp	r3, #198
 1865 006e 2FD8     		bhi	.L135
 1866              		.loc 2 184 0
 1867 0070 0020     		movs	r0, #0
 1868 0072 41F63111 		movw	r1, #6449
 1869 0076 FFF7FEFF 		bl	media_SetSector
 1870              		.loc 2 185 0
 1871 007a BA20     		movs	r0, #186
 1872 007c 3E21     		movs	r1, #62
ARM GAS  C:\Users\DNIEL~1\AppData\Local\Temp\ccvGaeHa.s 			page 34


 1873 007e 0A22     		movs	r2, #10
 1874 0080 FFF7FEFF 		bl	media_VideoFrame
 1875              	.L134:
 1876              		.loc 2 187 0
 1877 0084 0020     		movs	r0, #0
 1878 0086 41F63111 		movw	r1, #6449
 1879 008a FFF7FEFF 		bl	media_SetSector
 1880              		.loc 2 188 0
 1881 008e 184A     		ldr	r2, .L136
 1882 0090 82FB041C 		smull	r1, ip, r2, r4
 1883 0094 C5EBAC05 		rsb	r5, r5, ip, asr #2
 1884 0098 82FB0530 		smull	r3, r0, r2, r5
 1885 009c E917     		asrs	r1, r5, #31
 1886 009e C1EBA002 		rsb	r2, r1, r0, asr #2
 1887 00a2 02EB8203 		add	r3, r2, r2, lsl #2
 1888 00a6 A5EB4302 		sub	r2, r5, r3, lsl #1
 1889 00aa BA20     		movs	r0, #186
 1890 00ac 7021     		movs	r1, #112
 1891 00ae FFF7FEFF 		bl	media_VideoFrame
 1892              		.loc 2 189 0
 1893 00b2 0020     		movs	r0, #0
 1894 00b4 41F63111 		movw	r1, #6449
 1895 00b8 FFF7FEFF 		bl	media_SetSector
 1896              		.loc 2 190 0
 1897 00bc 05EB8505 		add	r5, r5, r5, lsl #2
 1898 00c0 BA20     		movs	r0, #186
 1899 00c2 A221     		movs	r1, #162
 1900 00c4 A4EB4502 		sub	r2, r4, r5, lsl #1
 1901              		.loc 2 191 0
 1902 00c8 BDE87040 		pop	{r4, r5, r6, lr}
 1903              		.loc 2 190 0
 1904 00cc FFF7FEBF 		b	media_VideoFrame
 1905              	.L135:
 1906              		.loc 2 180 0
 1907 00d0 0020     		movs	r0, #0
 1908 00d2 41F63111 		movw	r1, #6449
 1909 00d6 FFF7FEFF 		bl	media_SetSector
 1910              		.loc 2 181 0
 1911 00da 0649     		ldr	r1, .L136+4
 1912 00dc 81FB043C 		smull	r3, ip, r1, r4
 1913 00e0 BA20     		movs	r0, #186
 1914 00e2 3E21     		movs	r1, #62
 1915 00e4 C5EB6C12 		rsb	r2, r5, ip, asr #5
 1916 00e8 FFF7FEFF 		bl	media_VideoFrame
 1917 00ec CAE7     		b	.L134
 1918              	.L137:
 1919 00ee 00BF     		.align	2
 1920              	.L136:
 1921 00f0 67666666 		.word	1717986919
 1922 00f4 1F85EB51 		.word	1374389535
 1923              		.cfi_endproc
 1924              	.LFE122:
 1925              		.size	dsp_RefreshMidle, .-dsp_RefreshMidle
 1926 00f8 AFF30080 		.section	.text.dspInit,"ax",%progbits
 1926      AFF30080 
 1927              		.align	2
 1928              		.p2align 4,,15
ARM GAS  C:\Users\DNIEL~1\AppData\Local\Temp\ccvGaeHa.s 			page 35


 1929              		.global	dspInit
 1930              		.thumb
 1931              		.thumb_func
 1932              		.type	dspInit, %function
 1933              	dspInit:
 1934              	.LFB124:
 1935              		.loc 2 682 0
 1936              		.cfi_startproc
 1937              		@ args = 0, pretend = 0, frame = 0
 1938              		@ frame_needed = 0, uses_anonymous_args = 0
 1939 0000 30B5     		push	{r4, r5, lr}
 1940              	.LCFI10:
 1941              		.cfi_def_cfa_offset 12
 1942              		.loc 2 690 0
 1943 0002 0D4D     		ldr	r5, .L139
 1944              		.cfi_offset 14, -4
 1945              		.cfi_offset 5, -8
 1946              		.cfi_offset 4, -12
 1947              		.loc 2 682 0
 1948 0004 83B0     		sub	sp, sp, #12
 1949              	.LCFI11:
 1950              		.cfi_def_cfa_offset 24
 1951              		.loc 2 684 0
 1952 0006 FFF7FEFF 		bl	gfx_Cls
 1953              		.loc 2 690 0
 1954 000a 0024     		movs	r4, #0
 1955              		.loc 2 685 0
 1956 000c FFF7FEFF 		bl	file_Mount
 1957              		.loc 2 686 0
 1958 0010 FFF7FEFF 		bl	dsp_LoadTop
 1959              		.loc 2 687 0
 1960 0014 FFF7FEFF 		bl	dsp_LoadMidle
 1961              		.loc 2 688 0
 1962 0018 FFF7FEFF 		bl	dsp_LoadBottom
 1963              		.loc 2 689 0
 1964 001c FFF7FEFF 		bl	bus_In
 1965              		.loc 2 691 0
 1966 0020 064B     		ldr	r3, .L139+4
 1967 0022 0748     		ldr	r0, .L139+8
 1968              		.loc 2 690 0
 1969 0024 2C70     		strb	r4, [r5, #0]
 1970              		.loc 2 691 0
 1971 0026 4FF43471 		mov	r1, #720
 1972 002a 4722     		movs	r2, #71
 1973 002c 0094     		str	r4, [sp, #0]
 1974 002e FFF7FEFF 		bl	chThdCreateStatic
 1975              		.loc 2 692 0
 1976 0032 03B0     		add	sp, sp, #12
 1977 0034 30BD     		pop	{r4, r5, pc}
 1978              	.L140:
 1979 0036 00BF     		.align	2
 1980              	.L139:
 1981 0038 00000000 		.word	.LANCHOR6
 1982 003c 00000000 		.word	dspTask
 1983 0040 00000000 		.word	.LANCHOR8
 1984              		.cfi_endproc
 1985              	.LFE124:
ARM GAS  C:\Users\DNIEL~1\AppData\Local\Temp\ccvGaeHa.s 			page 36


 1986              		.size	dspInit, .-dspInit
 1987 0044 AFF30080 		.section	.text.dspGetValue,"ax",%progbits
 1987      AFF30080 
 1987      AFF30080 
 1988              		.align	2
 1989              		.p2align 4,,15
 1990              		.global	dspGetValue
 1991              		.thumb
 1992              		.thumb_func
 1993              		.type	dspGetValue, %function
 1994              	dspGetValue:
 1995              	.LFB125:
 1996              		.loc 2 694 0
 1997              		.cfi_startproc
 1998              		@ args = 0, pretend = 0, frame = 0
 1999              		@ frame_needed = 0, uses_anonymous_args = 0
 2000              		@ link register save eliminated.
 2001              	.LVL97:
 2002              		.loc 2 697 0
 2003 0000 034B     		ldr	r3, .L142
 2004 0002 0828     		cmp	r0, #8
 2005 0004 94BF     		ite	ls
 2006 0006 1B18     		addls	r3, r3, r0
 2007 0008 0833     		addhi	r3, r3, #8
 2008              		.loc 2 698 0
 2009 000a 13F8010C 		ldrb	r0, [r3, #-1]	@ zero_extendqisi2
 2010              	.LVL98:
 2011 000e 7047     		bx	lr
 2012              	.L143:
 2013              		.align	2
 2014              	.L142:
 2015 0010 00000000 		.word	.LANCHOR3
 2016              		.cfi_endproc
 2017              	.LFE125:
 2018              		.size	dspGetValue, .-dspGetValue
 2019 0014 AFF30080 		.section	.text.cmd_dspvalues,"ax",%progbits
 2019      AFF30080 
 2019      AFF30080 
 2020              		.align	2
 2021              		.p2align 4,,15
 2022              		.global	cmd_dspvalues
 2023              		.thumb
 2024              		.thumb_func
 2025              		.type	cmd_dspvalues, %function
 2026              	cmd_dspvalues:
 2027              	.LFB126:
 2028              		.loc 2 700 0
 2029              		.cfi_startproc
 2030              		@ args = 0, pretend = 0, frame = 0
 2031              		@ frame_needed = 0, uses_anonymous_args = 0
 2032              	.LVL99:
 2033 0000 2DE9F041 		push	{r4, r5, r6, r7, r8, lr}
 2034              	.LCFI12:
 2035              		.cfi_def_cfa_offset 24
 2036              		.loc 2 705 0
 2037 0004 3F49     		ldr	r1, .L155
 2038              	.LVL100:
ARM GAS  C:\Users\DNIEL~1\AppData\Local\Temp\ccvGaeHa.s 			page 37


 2039              		.loc 2 709 0
 2040 0006 DFF83081 		ldr	r8, .L155+52
 2041              		.cfi_offset 14, -4
 2042              		.cfi_offset 8, -8
 2043              		.cfi_offset 7, -12
 2044              		.cfi_offset 6, -16
 2045              		.cfi_offset 5, -20
 2046              		.cfi_offset 4, -24
 2047              		.loc 2 700 0
 2048 000a 3F4E     		ldr	r6, .L155+4
 2049 000c 0546     		mov	r5, r0
 2050              		.loc 2 705 0
 2051 000e FFF7FEFF 		bl	chprintf
 2052              	.LVL101:
 2053              		.loc 2 706 0
 2054 0012 2846     		mov	r0, r5
 2055 0014 3D49     		ldr	r1, .L155+8
 2056 0016 FFF7FEFF 		bl	chprintf
 2057              		.loc 2 707 0
 2058 001a 2968     		ldr	r1, [r5, #0]
 2059 001c 2846     		mov	r0, r5
 2060 001e 4A69     		ldr	r2, [r1, #20]
 2061 0020 0021     		movs	r1, #0
 2062 0022 9047     		blx	r2
 2063 0024 B0F1FF3F 		cmp	r0, #-1
 2064 0028 69D1     		bne	.L154
 2065              	.L147:
 2066              		.loc 2 708 0
 2067 002a 0022     		movs	r2, #0
 2068 002c 1346     		mov	r3, r2
 2069 002e 3849     		ldr	r1, .L155+12
 2070              		.loc 2 713 0
 2071 0030 384F     		ldr	r7, .L155+16
 2072              		.loc 2 700 0
 2073 0032 394C     		ldr	r4, .L155+20
 2074              		.loc 2 708 0
 2075 0034 2846     		mov	r0, r5
 2076 0036 FFF7FEFF 		bl	chprintf
 2077              		.loc 2 709 0
 2078 003a B8F80020 		ldrh	r2, [r8, #0]
 2079 003e 3749     		ldr	r1, .L155+24
 2080 0040 2846     		mov	r0, r5
 2081 0042 FFF7FEFF 		bl	chprintf
 2082              		.loc 2 710 0
 2083 0046 2846     		mov	r0, r5
 2084 0048 3549     		ldr	r1, .L155+28
 2085 004a FFF7FEFF 		bl	chprintf
 2086              	.LVL102:
 2087              		.loc 2 713 0
 2088 004e 3549     		ldr	r1, .L155+32
 2089 0050 3A78     		ldrb	r2, [r7, #0]	@ zero_extendqisi2
 2090 0052 2846     		mov	r0, r5
 2091 0054 FFF7FEFF 		bl	chprintf
 2092              	.LVL103:
 2093 0058 2846     		mov	r0, r5
 2094 005a 3249     		ldr	r1, .L155+32
 2095 005c 7A78     		ldrb	r2, [r7, #1]	@ zero_extendqisi2
ARM GAS  C:\Users\DNIEL~1\AppData\Local\Temp\ccvGaeHa.s 			page 38


 2096 005e FFF7FEFF 		bl	chprintf
 2097              	.LVL104:
 2098 0062 2846     		mov	r0, r5
 2099 0064 2F49     		ldr	r1, .L155+32
 2100 0066 BA78     		ldrb	r2, [r7, #2]	@ zero_extendqisi2
 2101 0068 FFF7FEFF 		bl	chprintf
 2102              	.LVL105:
 2103 006c 2846     		mov	r0, r5
 2104 006e 2D49     		ldr	r1, .L155+32
 2105 0070 FA78     		ldrb	r2, [r7, #3]	@ zero_extendqisi2
 2106 0072 FFF7FEFF 		bl	chprintf
 2107              	.LVL106:
 2108 0076 2846     		mov	r0, r5
 2109 0078 2A49     		ldr	r1, .L155+32
 2110 007a 3A79     		ldrb	r2, [r7, #4]	@ zero_extendqisi2
 2111 007c FFF7FEFF 		bl	chprintf
 2112              	.LVL107:
 2113 0080 2846     		mov	r0, r5
 2114 0082 2849     		ldr	r1, .L155+32
 2115 0084 7A79     		ldrb	r2, [r7, #5]	@ zero_extendqisi2
 2116 0086 FFF7FEFF 		bl	chprintf
 2117              	.LVL108:
 2118 008a 2846     		mov	r0, r5
 2119 008c 2549     		ldr	r1, .L155+32
 2120 008e BA79     		ldrb	r2, [r7, #6]	@ zero_extendqisi2
 2121 0090 FFF7FEFF 		bl	chprintf
 2122              	.LVL109:
 2123 0094 FA79     		ldrb	r2, [r7, #7]	@ zero_extendqisi2
 2124 0096 2349     		ldr	r1, .L155+32
 2125 0098 2846     		mov	r0, r5
 2126 009a FFF7FEFF 		bl	chprintf
 2127              	.LVL110:
 2128              		.loc 2 715 0
 2129 009e 2846     		mov	r0, r5
 2130 00a0 2149     		ldr	r1, .L155+36
 2131 00a2 FFF7FEFF 		bl	chprintf
 2132              		.loc 2 716 0
 2133 00a6 2846     		mov	r0, r5
 2134 00a8 2049     		ldr	r1, .L155+40
 2135 00aa FFF7FEFF 		bl	chprintf
 2136              	.LVL111:
 2137              		.loc 2 719 0
 2138 00ae 2846     		mov	r0, r5
 2139 00b0 1C49     		ldr	r1, .L155+32
 2140 00b2 2268     		ldr	r2, [r4, #0]
 2141 00b4 FFF7FEFF 		bl	chprintf
 2142              	.LVL112:
 2143              	.L146:
 2144              		.loc 2 700 0 discriminator 2
 2145 00b8 271D     		adds	r7, r4, #4
 2146              		.loc 2 719 0 discriminator 2
 2147 00ba 6268     		ldr	r2, [r4, #4]
 2148 00bc 1949     		ldr	r1, .L155+32
 2149 00be 2846     		mov	r0, r5
 2150 00c0 FFF7FEFF 		bl	chprintf
 2151              		.loc 2 700 0 discriminator 2
 2152 00c4 0834     		adds	r4, r4, #8
ARM GAS  C:\Users\DNIEL~1\AppData\Local\Temp\ccvGaeHa.s 			page 39


 2153              		.loc 2 719 0 discriminator 2
 2154 00c6 2846     		mov	r0, r5
 2155 00c8 1649     		ldr	r1, .L155+32
 2156 00ca 7A68     		ldr	r2, [r7, #4]
 2157 00cc FFF7FEFF 		bl	chprintf
 2158              		.loc 2 717 0 discriminator 2
 2159 00d0 B442     		cmp	r4, r6
 2160 00d2 F1D1     		bne	.L146
 2161              		.loc 2 721 0
 2162 00d4 2846     		mov	r0, r5
 2163 00d6 1449     		ldr	r1, .L155+36
 2164 00d8 FFF7FEFF 		bl	chprintf
 2165              		.loc 2 722 0
 2166 00dc 144B     		ldr	r3, .L155+44
 2167 00de 1549     		ldr	r1, .L155+48
 2168 00e0 1A78     		ldrb	r2, [r3, #0]	@ zero_extendqisi2
 2169 00e2 2846     		mov	r0, r5
 2170 00e4 FFF7FEFF 		bl	chprintf
 2171              		.loc 2 723 0
 2172 00e8 9620     		movs	r0, #150
 2173 00ea FFF7FEFF 		bl	chThdSleep
 2174              		.loc 2 707 0
 2175 00ee 2968     		ldr	r1, [r5, #0]
 2176 00f0 2846     		mov	r0, r5
 2177 00f2 4A69     		ldr	r2, [r1, #20]
 2178 00f4 0021     		movs	r1, #0
 2179 00f6 9047     		blx	r2
 2180 00f8 B0F1FF3F 		cmp	r0, #-1
 2181 00fc 95D0     		beq	.L147
 2182              	.L154:
 2183              		.loc 2 725 0
 2184 00fe BDE8F081 		pop	{r4, r5, r6, r7, r8, pc}
 2185              	.L156:
 2186 0102 00BF     		.align	2
 2187              	.L155:
 2188 0104 08000000 		.word	.LC1
 2189 0108 80000000 		.word	.LANCHOR7+128
 2190 010c 0C000000 		.word	.LC2
 2191 0110 14000000 		.word	.LC3
 2192 0114 00000000 		.word	.LANCHOR3
 2193 0118 00000000 		.word	.LANCHOR7
 2194 011c 20000000 		.word	.LC4
 2195 0120 34000000 		.word	.LC5
 2196 0124 40000000 		.word	.LC6
 2197 0128 44000000 		.word	.LC7
 2198 012c 48000000 		.word	.LC8
 2199 0130 00000000 		.word	.LANCHOR6
 2200 0134 58000000 		.word	.LC9
 2201 0138 00000000 		.word	.LANCHOR1
 2202              		.cfi_endproc
 2203              	.LFE126:
 2204              		.size	cmd_dspvalues, .-cmd_dspvalues
 2205 013c AFF30080 		.section	.text.cmdfrappans_dspmessages,"ax",%progbits
 2206              		.align	2
 2207              		.p2align 4,,15
 2208              		.global	cmdfrappans_dspmessages
 2209              		.thumb
ARM GAS  C:\Users\DNIEL~1\AppData\Local\Temp\ccvGaeHa.s 			page 40


 2210              		.thumb_func
 2211              		.type	cmdfrappans_dspmessages, %function
 2212              	cmdfrappans_dspmessages:
 2213              	.LFB127:
 2214              		.loc 2 727 0
 2215              		.cfi_startproc
 2216              		@ args = 0, pretend = 0, frame = 0
 2217              		@ frame_needed = 0, uses_anonymous_args = 0
 2218              	.LVL113:
 2219 0000 70B5     		push	{r4, r5, r6, lr}
 2220              	.LCFI13:
 2221              		.cfi_def_cfa_offset 16
 2222              		.loc 2 727 0
 2223 0002 0446     		mov	r4, r0
 2224              		.cfi_offset 14, -4
 2225              		.cfi_offset 6, -8
 2226              		.cfi_offset 5, -12
 2227              		.cfi_offset 4, -16
 2228 0004 0D46     		mov	r5, r1
 2229              		.loc 2 733 0
 2230 0006 4149     		ldr	r1, .L169
 2231              	.LVL114:
 2232              		.loc 2 727 0
 2233 0008 1646     		mov	r6, r2
 2234              		.loc 2 733 0
 2235 000a FFF7FEFF 		bl	chprintf
 2236              	.LVL115:
 2237              		.loc 2 734 0
 2238 000e 2046     		mov	r0, r4
 2239 0010 3F49     		ldr	r1, .L169+4
 2240 0012 FFF7FEFF 		bl	chprintf
 2241              		.loc 2 735 0
 2242 0016 2168     		ldr	r1, [r4, #0]
 2243 0018 2046     		mov	r0, r4
 2244 001a 4B69     		ldr	r3, [r1, #20]
 2245 001c 0021     		movs	r1, #0
 2246 001e 9847     		blx	r3
 2247 0020 B0F1FF3F 		cmp	r0, #-1
 2248 0024 11D0     		beq	.L164
 2249              	.LVL116:
 2250              	.L158:
 2251              		.loc 2 780 0
 2252 0026 2046     		mov	r0, r4
 2253 0028 3A49     		ldr	r1, .L169+8
 2254 002a FFF7FEFF 		bl	chprintf
 2255              		.loc 2 781 0
 2256 002e 2046     		mov	r0, r4
 2257 0030 3949     		ldr	r1, .L169+12
 2258 0032 FFF7FEFF 		bl	chprintf
 2259              		.loc 2 782 0
 2260 0036 2046     		mov	r0, r4
 2261 0038 3849     		ldr	r1, .L169+16
 2262 003a FFF7FEFF 		bl	chprintf
 2263              		.loc 2 783 0
 2264 003e 3849     		ldr	r1, .L169+20
 2265 0040 2046     		mov	r0, r4
 2266              		.loc 2 787 0
ARM GAS  C:\Users\DNIEL~1\AppData\Local\Temp\ccvGaeHa.s 			page 41


 2267 0042 BDE87040 		pop	{r4, r5, r6, lr}
 2268              		.loc 2 783 0
 2269 0046 FFF7FEBF 		b	chprintf
 2270              	.LVL117:
 2271              	.L164:
 2272              	.LBB17:
 2273              		.loc 2 736 0
 2274 004a 0022     		movs	r2, #0
 2275 004c 2046     		mov	r0, r4
 2276 004e 3549     		ldr	r1, .L169+24
 2277 0050 1346     		mov	r3, r2
 2278 0052 FFF7FEFF 		bl	chprintf
 2279              		.loc 2 738 0
 2280 0056 012D     		cmp	r5, #1
 2281 0058 11D0     		beq	.L165
 2282              		.loc 2 768 0
 2283 005a 022D     		cmp	r5, #2
 2284 005c E3D1     		bne	.L158
 2285              		.loc 2 768 0 is_stmt 0 discriminator 1
 2286 005e 3068     		ldr	r0, [r6, #0]
 2287 0060 3149     		ldr	r1, .L169+28
 2288 0062 FFF7FEFF 		bl	strcmp
 2289 0066 0028     		cmp	r0, #0
 2290 0068 DDD1     		bne	.L158
 2291              	.LBB18:
 2292              		.loc 2 770 0 is_stmt 1
 2293 006a 2046     		mov	r0, r4
 2294 006c 2F49     		ldr	r1, .L169+32
 2295 006e FFF7FEFF 		bl	chprintf
 2296              		.loc 2 771 0
 2297 0072 7068     		ldr	r0, [r6, #4]
 2298 0074 FFF7FEFF 		bl	atol
 2299 0078 2D4A     		ldr	r2, .L169+36
 2300 007a 1060     		str	r0, [r2, #0]
 2301              	.LBE18:
 2302              	.LBE17:
 2303              		.loc 2 787 0
 2304 007c 70BD     		pop	{r4, r5, r6, pc}
 2305              	.L165:
 2306              	.LBB19:
 2307              		.loc 2 738 0 discriminator 1
 2308 007e 3568     		ldr	r5, [r6, #0]
 2309              	.LVL118:
 2310 0080 2C49     		ldr	r1, .L169+40
 2311 0082 2846     		mov	r0, r5
 2312 0084 FFF7FEFF 		bl	strcmp
 2313 0088 0028     		cmp	r0, #0
 2314 008a 1DD0     		beq	.L166
 2315              		.loc 2 745 0 discriminator 1
 2316 008c 2846     		mov	r0, r5
 2317 008e 2A49     		ldr	r1, .L169+44
 2318 0090 FFF7FEFF 		bl	strcmp
 2319 0094 0646     		mov	r6, r0
 2320              	.LVL119:
 2321 0096 0028     		cmp	r0, #0
 2322 0098 1ED0     		beq	.L167
 2323              		.loc 2 753 0 discriminator 1
ARM GAS  C:\Users\DNIEL~1\AppData\Local\Temp\ccvGaeHa.s 			page 42


 2324 009a 2846     		mov	r0, r5
 2325 009c 2749     		ldr	r1, .L169+48
 2326 009e FFF7FEFF 		bl	strcmp
 2327 00a2 0646     		mov	r6, r0
 2328 00a4 0028     		cmp	r0, #0
 2329 00a6 22D0     		beq	.L168
 2330              		.loc 2 762 0 discriminator 1
 2331 00a8 2846     		mov	r0, r5
 2332 00aa 2549     		ldr	r1, .L169+52
 2333 00ac FFF7FEFF 		bl	strcmp
 2334 00b0 0028     		cmp	r0, #0
 2335 00b2 B8D1     		bne	.L158
 2336              		.loc 2 764 0
 2337 00b4 2046     		mov	r0, r4
 2338 00b6 1D49     		ldr	r1, .L169+32
 2339 00b8 FFF7FEFF 		bl	chprintf
 2340              		.loc 2 765 0
 2341 00bc 4FF47840 		mov	r0, #63488
 2342              	.LBE19:
 2343              		.loc 2 787 0
 2344 00c0 BDE87040 		pop	{r4, r5, r6, lr}
 2345              	.LBB20:
 2346              		.loc 2 765 0
 2347 00c4 FFF7FEBF 		b	gfx_BGcolour
 2348              	.LVL120:
 2349              	.L166:
 2350              		.loc 2 740 0
 2351 00c8 2046     		mov	r0, r4
 2352 00ca 1E49     		ldr	r1, .L169+56
 2353 00cc FFF7FEFF 		bl	chprintf
 2354              	.LBE20:
 2355              		.loc 2 787 0
 2356 00d0 BDE87040 		pop	{r4, r5, r6, lr}
 2357              	.LBB21:
 2358              		.loc 2 741 0
 2359 00d4 FFF7FEBF 		b	gfx_Cls
 2360              	.LVL121:
 2361              	.L167:
 2362              		.loc 2 747 0
 2363 00d8 2046     		mov	r0, r4
 2364 00da 1B49     		ldr	r1, .L169+60
 2365 00dc FFF7FEFF 		bl	chprintf
 2366              		.loc 2 748 0
 2367 00e0 3046     		mov	r0, r6
 2368 00e2 41F6C111 		movw	r1, #6593
 2369              	.LBE21:
 2370              		.loc 2 787 0
 2371 00e6 BDE87040 		pop	{r4, r5, r6, lr}
 2372              	.LBB22:
 2373              		.loc 2 748 0
 2374 00ea FFF7FEBF 		b	media_SetSector
 2375              	.L168:
 2376              		.loc 2 755 0
 2377 00ee 2046     		mov	r0, r4
 2378 00f0 1649     		ldr	r1, .L169+64
 2379 00f2 FFF7FEFF 		bl	chprintf
 2380              		.loc 2 757 0
ARM GAS  C:\Users\DNIEL~1\AppData\Local\Temp\ccvGaeHa.s 			page 43


 2381 00f6 3046     		mov	r0, r6
 2382 00f8 41F6C111 		movw	r1, #6593
 2383 00fc FFF7FEFF 		bl	media_SetSector
 2384              		.loc 2 758 0
 2385 0100 3046     		mov	r0, r6
 2386 0102 3146     		mov	r1, r6
 2387              	.LBE22:
 2388              		.loc 2 787 0
 2389 0104 BDE87040 		pop	{r4, r5, r6, lr}
 2390              	.LBB23:
 2391              		.loc 2 758 0
 2392 0108 FFF7FEBF 		b	media_Image
 2393              	.L170:
 2394              		.align	2
 2395              	.L169:
 2396 010c 08000000 		.word	.LC1
 2397 0110 0C000000 		.word	.LC2
 2398 0114 48010000 		.word	.LC19
 2399 0118 58010000 		.word	.LC20
 2400 011c 68010000 		.word	.LC21
 2401 0120 78010000 		.word	.LC22
 2402 0124 14000000 		.word	.LC3
 2403 0128 40010000 		.word	.LC18
 2404 012c 14010000 		.word	.LC17
 2405 0130 00000000 		.word	.LANCHOR9
 2406 0134 6C000000 		.word	.LC10
 2407 0138 A0000000 		.word	.LC12
 2408 013c D4000000 		.word	.LC14
 2409 0140 08010000 		.word	.LC16
 2410 0144 74000000 		.word	.LC11
 2411 0148 A8000000 		.word	.LC13
 2412 014c DC000000 		.word	.LC15
 2413              	.LBE23:
 2414              		.cfi_endproc
 2415              	.LFE127:
 2416              		.size	cmdfrappans_dspmessages, .-cmdfrappans_dspmessages
 2417              		.section	.text.cmd_dspbites,"ax",%progbits
 2418              		.align	2
 2419              		.p2align 4,,15
 2420              		.global	cmd_dspbites
 2421              		.thumb
 2422              		.thumb_func
 2423              		.type	cmd_dspbites, %function
 2424              	cmd_dspbites:
 2425              	.LFB128:
 2426              		.loc 2 789 0
 2427              		.cfi_startproc
 2428              		@ args = 0, pretend = 0, frame = 0
 2429              		@ frame_needed = 0, uses_anonymous_args = 0
 2430              	.LVL122:
 2431 0000 F8B5     		push	{r3, r4, r5, r6, r7, lr}
 2432              	.LCFI14:
 2433              		.cfi_def_cfa_offset 24
 2434              		.loc 2 795 0
 2435 0002 1049     		ldr	r1, .L175
 2436              	.LVL123:
 2437              		.loc 2 799 0
ARM GAS  C:\Users\DNIEL~1\AppData\Local\Temp\ccvGaeHa.s 			page 44


 2438 0004 104D     		ldr	r5, .L175+4
 2439              		.cfi_offset 14, -4
 2440              		.cfi_offset 7, -8
 2441              		.cfi_offset 6, -12
 2442              		.cfi_offset 5, -16
 2443              		.cfi_offset 4, -20
 2444              		.cfi_offset 3, -24
 2445              		.loc 2 801 0
 2446 0006 114E     		ldr	r6, .L175+8
 2447              		.loc 2 789 0
 2448 0008 0446     		mov	r4, r0
 2449              		.loc 2 795 0
 2450 000a FFF7FEFF 		bl	chprintf
 2451              	.LVL124:
 2452              		.loc 2 796 0
 2453 000e 2046     		mov	r0, r4
 2454 0010 0F49     		ldr	r1, .L175+12
 2455 0012 FFF7FEFF 		bl	chprintf
 2456              		.loc 2 797 0
 2457 0016 0BE0     		b	.L172
 2458              	.LVL125:
 2459              	.L174:
 2460              		.loc 2 799 0
 2461 0018 2B88     		ldrh	r3, [r5, #0]
 2462 001a 9F42     		cmp	r7, r3
 2463 001c 05D0     		beq	.L173
 2464              		.loc 2 801 0
 2465 001e 2046     		mov	r0, r4
 2466 0020 0C49     		ldr	r1, .L175+16
 2467 0022 3288     		ldrh	r2, [r6, #0]
 2468 0024 FFF7FEFF 		bl	chprintf
 2469              		.loc 2 802 0
 2470 0028 2F88     		ldrh	r7, [r5, #0]
 2471              	.LVL126:
 2472              	.L173:
 2473              		.loc 2 804 0
 2474 002a 0A20     		movs	r0, #10
 2475 002c FFF7FEFF 		bl	chThdSleep
 2476              	.LVL127:
 2477              	.L172:
 2478              		.loc 2 797 0 discriminator 1
 2479 0030 2168     		ldr	r1, [r4, #0]
 2480 0032 2046     		mov	r0, r4
 2481 0034 4B69     		ldr	r3, [r1, #20]
 2482 0036 0021     		movs	r1, #0
 2483 0038 9847     		blx	r3
 2484 003a B0F1FF3F 		cmp	r0, #-1
 2485 003e EBD0     		beq	.L174
 2486              		.loc 2 806 0
 2487 0040 F8BD     		pop	{r3, r4, r5, r6, r7, pc}
 2488              	.L176:
 2489 0042 00BF     		.align	2
 2490              	.L175:
 2491 0044 08000000 		.word	.LC1
 2492 0048 00000000 		.word	.LANCHOR1
 2493 004c 00000000 		.word	.LANCHOR2
 2494 0050 0C000000 		.word	.LC2
ARM GAS  C:\Users\DNIEL~1\AppData\Local\Temp\ccvGaeHa.s 			page 45


 2495 0054 8C010000 		.word	.LC23
 2496              		.cfi_endproc
 2497              	.LFE128:
 2498              		.size	cmd_dspbites, .-cmd_dspbites
 2499              		.global	db
 2500              		.global	db2
 2501              		.global	cruise_assis
 2502              		.global	dspstate
 2503              		.global	dspmessages
 2504              		.global	dsp_activ
 2505              		.global	c
 2506              		.global	szamlalo
 2507 0058 AFF30080 		.section	.bss.bus_status,"aw",%nobits
 2507      AFF30080 
 2508              		.align	1
 2509              		.set	.LANCHOR1,. + 0
 2510              		.type	bus_status, %object
 2511              		.size	bus_status, 2
 2512              	bus_status:
 2513 0000 0000     		.space	2
 2514              		.section	.bss.cruise_assis,"aw",%nobits
 2515              		.type	cruise_assis, %object
 2516              		.size	cruise_assis, 1
 2517              	cruise_assis:
 2518 0000 00       		.space	1
 2519              		.section	.bss.bus_bites,"aw",%nobits
 2520              		.align	1
 2521              		.set	.LANCHOR2,. + 0
 2522              		.type	bus_bites, %object
 2523              		.size	bus_bites, 2
 2524              	bus_bites:
 2525 0000 0000     		.space	2
 2526              		.section	.bss.tasknumber,"aw",%nobits
 2527              		.align	2
 2528              		.set	.LANCHOR5,. + 0
 2529              		.type	tasknumber, %object
 2530              		.size	tasknumber, 4
 2531              	tasknumber:
 2532 0000 00000000 		.space	4
 2533              		.section	.bss.c,"aw",%nobits
 2534              		.type	c, %object
 2535              		.size	c, 1
 2536              	c:
 2537 0000 00       		.space	1
 2538              		.section	.bss.dsp_activ,"aw",%nobits
 2539              		.type	dsp_activ, %object
 2540              		.size	dsp_activ, 1
 2541              	dsp_activ:
 2542 0000 00       		.space	1
 2543              		.section	.bss.bus_read,"aw",%nobits
 2544              		.align	2
 2545              		.set	.LANCHOR0,. + 0
 2546              		.type	bus_read, %object
 2547              		.size	bus_read, 4
 2548              	bus_read:
 2549 0000 00000000 		.space	4
 2550              		.section	.rodata.str1.4,"aMS",%progbits,1
ARM GAS  C:\Users\DNIEL~1\AppData\Local\Temp\ccvGaeHa.s 			page 46


 2551              		.align	2
 2552              	.LC0:
 2553 0000 64737054 		.ascii	"dspTask\000"
 2553      61736B00 
 2554              	.LC1:
 2555 0008 1B6300   		.ascii	"\033c\000"
 2556 000b 00       		.space	1
 2557              	.LC2:
 2558 000c 1B5B324A 		.ascii	"\033[2J\000"
 2558      00
 2559 0011 000000   		.space	3
 2560              	.LC3:
 2561 0014 1B5B2564 		.ascii	"\033[%d;%dH\000"
 2561      3B256448 
 2561      00
 2562 001d 000000   		.space	3
 2563              	.LC4:
 2564 0020 6275735F 		.ascii	"bus_status: %x\015\012\000"
 2564      73746174 
 2564      75733A20 
 2564      25780D0A 
 2564      00
 2565 0031 000000   		.space	3
 2566              	.LC5:
 2567 0034 6275735F 		.ascii	"bus_bit[]: \000"
 2567      6269745B 
 2567      5D3A2000 
 2568              	.LC6:
 2569 0040 25642000 		.ascii	"%d \000"
 2570              	.LC7:
 2571 0044 0D0A00   		.ascii	"\015\012\000"
 2572 0047 00       		.space	1
 2573              	.LC8:
 2574 0048 64737056 		.ascii	"dspValues[]: \000"
 2574      616C7565 
 2574      735B5D3A 
 2574      2000
 2575 0056 0000     		.space	2
 2576              	.LC9:
 2577 0058 6473706D 		.ascii	"dspmessages: %d\015\012\000"
 2577      65737361 
 2577      6765733A 
 2577      2025640D 
 2577      0A00
 2578 006a 0000     		.space	2
 2579              	.LC10:
 2580 006c 436C6561 		.ascii	"Clear\000"
 2580      7200
 2581 0072 0000     		.space	2
 2582              	.LC11:
 2583 0074 2D2D2D2D 		.ascii	"-------------- dps clear --------------\015\012\000"
 2583      2D2D2D2D 
 2583      2D2D2D2D 
 2583      2D2D2064 
 2583      70732063 
 2584 009e 0000     		.space	2
 2585              	.LC12:
ARM GAS  C:\Users\DNIEL~1\AppData\Local\Temp\ccvGaeHa.s 			page 47


 2586 00a0 53656374 		.ascii	"Sector\000"
 2586      6F7200
 2587 00a7 00       		.space	1
 2588              	.LC13:
 2589 00a8 2D2D2D2D 		.ascii	"--------------Set sector --------------\015\012\000"
 2589      2D2D2D2D 
 2589      2D2D2D2D 
 2589      2D2D5365 
 2589      74207365 
 2590 00d2 0000     		.space	2
 2591              	.LC14:
 2592 00d4 496D6167 		.ascii	"Image\000"
 2592      6500
 2593 00da 0000     		.space	2
 2594              	.LC15:
 2595 00dc 2D2D2D2D 		.ascii	"-------------- media Image --------------\015\012\000"
 2595      2D2D2D2D 
 2595      2D2D2D2D 
 2595      2D2D206D 
 2595      65646961 
 2596              	.LC16:
 2597 0108 4261636B 		.ascii	"Background\000"
 2597      67726F75 
 2597      6E6400
 2598 0113 00       		.space	1
 2599              	.LC17:
 2600 0114 2D2D2D2D 		.ascii	"-------------- Background --------------\015\012\000"
 2600      2D2D2D2D 
 2600      2D2D2D2D 
 2600      2D2D2042 
 2600      61636B67 
 2601 013f 00       		.space	1
 2602              	.LC18:
 2603 0140 53706565 		.ascii	"Speed\000"
 2603      6400
 2604 0146 0000     		.space	2
 2605              	.LC19:
 2606 0148 55736167 		.ascii	"Usage: Clear\015\012\000"
 2606      653A2043 
 2606      6C656172 
 2606      0D0A00
 2607 0157 00       		.space	1
 2608              	.LC20:
 2609 0158 20202020 		.ascii	"       Sector\015\012\000"
 2609      20202053 
 2609      6563746F 
 2609      720D0A00 
 2610              	.LC21:
 2611 0168 20202020 		.ascii	"       Image\015\012\000"
 2611      20202049 
 2611      6D616765 
 2611      0D0A00
 2612 0177 00       		.space	1
 2613              	.LC22:
 2614 0178 20202020 		.ascii	"       Background\015\012\000"
 2614      20202042 
 2614      61636B67 
ARM GAS  C:\Users\DNIEL~1\AppData\Local\Temp\ccvGaeHa.s 			page 48


 2614      726F756E 
 2614      640D0A00 
 2615              	.LC23:
 2616 018c 6275735F 		.ascii	"bus_bites: %x - %x\015\012\000"
 2616      62697465 
 2616      733A2025 
 2616      78202D20 
 2616      25780D0A 
 2617 01a1 000000   		.section	.data.db,"aw",%progbits
 2618              		.align	2
 2619              		.set	.LANCHOR9,. + 0
 2620              		.type	db, %object
 2621              		.size	db, 4
 2622              	db:
 2623 0000 7F000000 		.word	127
 2624              		.section	.bss.bus_bit,"aw",%nobits
 2625              		.align	2
 2626              		.set	.LANCHOR3,. + 0
 2627              		.type	bus_bit, %object
 2628              		.size	bus_bit, 8
 2629              	bus_bit:
 2630 0000 00000000 		.space	8
 2630      00000000 
 2631              		.section	.bss.szamlalo,"aw",%nobits
 2632              		.align	2
 2633              		.set	.LANCHOR4,. + 0
 2634              		.type	szamlalo, %object
 2635              		.size	szamlalo, 4
 2636              	szamlalo:
 2637 0000 00000000 		.space	4
 2638              		.section	.bss.dspstate,"aw",%nobits
 2639              		.type	dspstate, %object
 2640              		.size	dspstate, 1
 2641              	dspstate:
 2642 0000 00       		.space	1
 2643              		.section	.data.dspValue,"aw",%progbits
 2644              		.align	2
 2645              		.set	.LANCHOR7,. + 0
 2646              		.type	dspValue, %object
 2647              		.size	dspValue, 132
 2648              	dspValue:
 2649 0000 FFFFFFFF 		.word	-1
 2650 0004 00000000 		.space	128
 2650      00000000 
 2650      00000000 
 2650      00000000 
 2650      00000000 
 2651              		.section	.bss.dspmessages,"aw",%nobits
 2652              		.set	.LANCHOR6,. + 0
 2653              		.type	dspmessages, %object
 2654              		.size	dspmessages, 1
 2655              	dspmessages:
 2656 0000 00       		.space	1
 2657              		.section	.bss.db2,"aw",%nobits
 2658              		.align	2
 2659              		.type	db2, %object
 2660              		.size	db2, 4
ARM GAS  C:\Users\DNIEL~1\AppData\Local\Temp\ccvGaeHa.s 			page 49


 2661              	db2:
 2662 0000 00000000 		.space	4
 2663              		.section	.bss.wadspTask,"aw",%nobits
 2664              		.align	3
 2665              		.set	.LANCHOR8,. + 0
 2666              		.type	wadspTask, %object
 2667              		.size	wadspTask, 720
 2668              	wadspTask:
 2669 0000 00000000 		.space	720
 2669      00000000 
 2669      00000000 
 2669      00000000 
 2669      00000000 
 2670              		.text
 2671              	.Letext0:
 2672              		.section	.debug_loc,"",%progbits
 2673              	.Ldebug_loc0:
 2674              	.LLST0:
 2675 0000 00000000 		.4byte	.LFB118
 2676 0004 02000000 		.4byte	.LCFI0
 2677 0008 0200     		.2byte	0x2
 2678 000a 7D       		.byte	0x7d
 2679 000b 00       		.sleb128 0
 2680 000c 02000000 		.4byte	.LCFI0
 2681 0010 04000000 		.4byte	.LCFI1
 2682 0014 0200     		.2byte	0x2
 2683 0016 7D       		.byte	0x7d
 2684 0017 0C       		.sleb128 12
 2685 0018 04000000 		.4byte	.LCFI1
 2686 001c 06000000 		.4byte	.LCFI2
 2687 0020 0200     		.2byte	0x2
 2688 0022 7D       		.byte	0x7d
 2689 0023 10       		.sleb128 16
 2690 0024 06000000 		.4byte	.LCFI2
 2691 0028 1E000000 		.4byte	.LFE118
 2692 002c 0200     		.2byte	0x2
 2693 002e 7D       		.byte	0x7d
 2694 002f 18       		.sleb128 24
 2695 0030 00000000 		.4byte	0x0
 2696 0034 00000000 		.4byte	0x0
 2697              	.LLST1:
 2698 0038 00000000 		.4byte	.LVL0
 2699 003c 13000000 		.4byte	.LVL1-1
 2700 0040 0100     		.2byte	0x1
 2701 0042 50       		.byte	0x50
 2702 0043 00000000 		.4byte	0x0
 2703 0047 00000000 		.4byte	0x0
 2704              	.LLST2:
 2705 004b 00000000 		.4byte	.LFB123
 2706 004f 04000000 		.4byte	.LCFI3
 2707 0053 0200     		.2byte	0x2
 2708 0055 7D       		.byte	0x7d
 2709 0056 00       		.sleb128 0
 2710 0057 04000000 		.4byte	.LCFI3
 2711 005b 2A000000 		.4byte	.LCFI4
 2712 005f 0200     		.2byte	0x2
 2713 0061 7D       		.byte	0x7d
ARM GAS  C:\Users\DNIEL~1\AppData\Local\Temp\ccvGaeHa.s 			page 50


 2714 0062 24       		.sleb128 36
 2715 0063 2A000000 		.4byte	.LCFI4
 2716 0067 9C080000 		.4byte	.LFE123
 2717 006b 0200     		.2byte	0x2
 2718 006d 7D       		.byte	0x7d
 2719 006e 30       		.sleb128 48
 2720 006f 00000000 		.4byte	0x0
 2721 0073 00000000 		.4byte	0x0
 2722              	.LLST3:
 2723 0077 00000000 		.4byte	.LVL2
 2724 007b 08000000 		.4byte	.LVL3
 2725 007f 0100     		.2byte	0x1
 2726 0081 50       		.byte	0x50
 2727 0082 00000000 		.4byte	0x0
 2728 0086 00000000 		.4byte	0x0
 2729              	.LLST4:
 2730 008a 36010000 		.4byte	.LVL12
 2731 008e 53010000 		.4byte	.LVL13-1
 2732 0092 0100     		.2byte	0x1
 2733 0094 53       		.byte	0x53
 2734 0095 86010000 		.4byte	.LVL14
 2735 0099 8C010000 		.4byte	.LVL15
 2736 009d 0200     		.2byte	0x2
 2737 009f 31       		.byte	0x31
 2738 00a0 9F       		.byte	0x9f
 2739 00a1 8C010000 		.4byte	.LVL15
 2740 00a5 D6010000 		.4byte	.LVL16
 2741 00a9 0200     		.2byte	0x2
 2742 00ab 31       		.byte	0x31
 2743 00ac 9F       		.byte	0x9f
 2744 00ad D6010000 		.4byte	.LVL16
 2745 00b1 F4010000 		.4byte	.LVL17
 2746 00b5 0200     		.2byte	0x2
 2747 00b7 31       		.byte	0x31
 2748 00b8 9F       		.byte	0x9f
 2749 00b9 F4010000 		.4byte	.LVL17
 2750 00bd 0C020000 		.4byte	.LVL18
 2751 00c1 0200     		.2byte	0x2
 2752 00c3 31       		.byte	0x31
 2753 00c4 9F       		.byte	0x9f
 2754 00c5 0C020000 		.4byte	.LVL18
 2755 00c9 14020000 		.4byte	.LVL19
 2756 00cd 0100     		.2byte	0x1
 2757 00cf 53       		.byte	0x53
 2758 00d0 14020000 		.4byte	.LVL19
 2759 00d4 2E020000 		.4byte	.LVL20
 2760 00d8 0200     		.2byte	0x2
 2761 00da 31       		.byte	0x31
 2762 00db 9F       		.byte	0x9f
 2763 00dc 2E020000 		.4byte	.LVL20
 2764 00e0 34020000 		.4byte	.LVL21
 2765 00e4 0100     		.2byte	0x1
 2766 00e6 53       		.byte	0x53
 2767 00e7 46020000 		.4byte	.LVL22
 2768 00eb 55020000 		.4byte	.LVL23-1
 2769 00ef 0100     		.2byte	0x1
 2770 00f1 53       		.byte	0x53
ARM GAS  C:\Users\DNIEL~1\AppData\Local\Temp\ccvGaeHa.s 			page 51


 2771 00f2 B8020000 		.4byte	.LVL24
 2772 00f6 BE020000 		.4byte	.LVL25
 2773 00fa 0100     		.2byte	0x1
 2774 00fc 53       		.byte	0x53
 2775 00fd D2020000 		.4byte	.LVL26
 2776 0101 DF020000 		.4byte	.LVL27-1
 2777 0105 0100     		.2byte	0x1
 2778 0107 53       		.byte	0x53
 2779 0108 EC020000 		.4byte	.LVL28
 2780 010c F2020000 		.4byte	.LVL29
 2781 0110 0100     		.2byte	0x1
 2782 0112 53       		.byte	0x53
 2783 0113 00030000 		.4byte	.LVL30
 2784 0117 13030000 		.4byte	.LVL31-1
 2785 011b 0100     		.2byte	0x1
 2786 011d 53       		.byte	0x53
 2787 011e 20030000 		.4byte	.LVL32
 2788 0122 24030000 		.4byte	.LVL33
 2789 0126 0400     		.2byte	0x4
 2790 0128 0A       		.byte	0xa
 2791 0129 0809     		.2byte	0x908
 2792 012b 9F       		.byte	0x9f
 2793 012c 32030000 		.4byte	.LVL34
 2794 0130 45030000 		.4byte	.LVL35-1
 2795 0134 0100     		.2byte	0x1
 2796 0136 53       		.byte	0x53
 2797 0137 52030000 		.4byte	.LVL36
 2798 013b 58030000 		.4byte	.LVL37
 2799 013f 0400     		.2byte	0x4
 2800 0141 0A       		.byte	0xa
 2801 0142 0809     		.2byte	0x908
 2802 0144 9F       		.byte	0x9f
 2803 0145 58030000 		.4byte	.LVL37
 2804 0149 76030000 		.4byte	.LVL38
 2805 014d 0400     		.2byte	0x4
 2806 014f 0A       		.byte	0xa
 2807 0150 0809     		.2byte	0x908
 2808 0152 9F       		.byte	0x9f
 2809 0153 A0030000 		.4byte	.LVL39
 2810 0157 A6030000 		.4byte	.LVL40
 2811 015b 0300     		.2byte	0x3
 2812 015d 08       		.byte	0x8
 2813 015e 2F       		.byte	0x2f
 2814 015f 9F       		.byte	0x9f
 2815 0160 A6030000 		.4byte	.LVL40
 2816 0164 CE030000 		.4byte	.LVL41
 2817 0168 0400     		.2byte	0x4
 2818 016a 0A       		.byte	0xa
 2819 016b D204     		.2byte	0x4d2
 2820 016d 9F       		.byte	0x9f
 2821 016e CE030000 		.4byte	.LVL41
 2822 0172 F0030000 		.4byte	.LVL42
 2823 0176 0400     		.2byte	0x4
 2824 0178 0A       		.byte	0xa
 2825 0179 0809     		.2byte	0x908
 2826 017b 9F       		.byte	0x9f
 2827 017c F0030000 		.4byte	.LVL42
ARM GAS  C:\Users\DNIEL~1\AppData\Local\Temp\ccvGaeHa.s 			page 52


 2828 0180 F4030000 		.4byte	.LVL43
 2829 0184 0400     		.2byte	0x4
 2830 0186 0A       		.byte	0xa
 2831 0187 E303     		.2byte	0x3e3
 2832 0189 9F       		.byte	0x9f
 2833 018a 02040000 		.4byte	.LVL44
 2834 018e 0C040000 		.4byte	.LVL45
 2835 0192 0100     		.2byte	0x1
 2836 0194 50       		.byte	0x50
 2837 0195 0C040000 		.4byte	.LVL45
 2838 0199 11040000 		.4byte	.LVL46-1
 2839 019d 0100     		.2byte	0x1
 2840 019f 53       		.byte	0x53
 2841 01a0 28040000 		.4byte	.LVL47
 2842 01a4 2E040000 		.4byte	.LVL48
 2843 01a8 0400     		.2byte	0x4
 2844 01aa 0A       		.byte	0xa
 2845 01ab 0809     		.2byte	0x908
 2846 01ad 9F       		.byte	0x9f
 2847 01ae 2E040000 		.4byte	.LVL48
 2848 01b2 4E040000 		.4byte	.LVL49
 2849 01b6 0400     		.2byte	0x4
 2850 01b8 0A       		.byte	0xa
 2851 01b9 0809     		.2byte	0x908
 2852 01bb 9F       		.byte	0x9f
 2853 01bc 4E040000 		.4byte	.LVL49
 2854 01c0 54040000 		.4byte	.LVL50
 2855 01c4 0300     		.2byte	0x3
 2856 01c6 08       		.byte	0x8
 2857 01c7 64       		.byte	0x64
 2858 01c8 9F       		.byte	0x9f
 2859 01c9 54040000 		.4byte	.LVL50
 2860 01cd 98040000 		.4byte	.LVL51
 2861 01d1 0300     		.2byte	0x3
 2862 01d3 08       		.byte	0x8
 2863 01d4 64       		.byte	0x64
 2864 01d5 9F       		.byte	0x9f
 2865 01d6 98040000 		.4byte	.LVL51
 2866 01da 9E040000 		.4byte	.LVL52
 2867 01de 0400     		.2byte	0x4
 2868 01e0 0A       		.byte	0xa
 2869 01e1 D204     		.2byte	0x4d2
 2870 01e3 9F       		.byte	0x9f
 2871 01e4 9E040000 		.4byte	.LVL52
 2872 01e8 C4040000 		.4byte	.LVL53
 2873 01ec 0400     		.2byte	0x4
 2874 01ee 0A       		.byte	0xa
 2875 01ef D204     		.2byte	0x4d2
 2876 01f1 9F       		.byte	0x9f
 2877 01f2 C4040000 		.4byte	.LVL53
 2878 01f6 EA040000 		.4byte	.LVL54
 2879 01fa 0400     		.2byte	0x4
 2880 01fc 0A       		.byte	0xa
 2881 01fd D204     		.2byte	0x4d2
 2882 01ff 9F       		.byte	0x9f
 2883 0200 EA040000 		.4byte	.LVL54
 2884 0204 0C050000 		.4byte	.LVL55
ARM GAS  C:\Users\DNIEL~1\AppData\Local\Temp\ccvGaeHa.s 			page 53


 2885 0208 0400     		.2byte	0x4
 2886 020a 0A       		.byte	0xa
 2887 020b D204     		.2byte	0x4d2
 2888 020d 9F       		.byte	0x9f
 2889 020e 0C050000 		.4byte	.LVL55
 2890 0212 12050000 		.4byte	.LVL56
 2891 0216 0300     		.2byte	0x3
 2892 0218 08       		.byte	0x8
 2893 0219 64       		.byte	0x64
 2894 021a 9F       		.byte	0x9f
 2895 021b 12050000 		.4byte	.LVL56
 2896 021f 54050000 		.4byte	.LVL57
 2897 0223 0300     		.2byte	0x3
 2898 0225 08       		.byte	0x8
 2899 0226 2F       		.byte	0x2f
 2900 0227 9F       		.byte	0x9f
 2901 0228 54050000 		.4byte	.LVL57
 2902 022c 5A050000 		.4byte	.LVL58
 2903 0230 0400     		.2byte	0x4
 2904 0232 0A       		.byte	0xa
 2905 0233 0809     		.2byte	0x908
 2906 0235 9F       		.byte	0x9f
 2907 0236 5A050000 		.4byte	.LVL58
 2908 023a 88050000 		.4byte	.LVL59
 2909 023e 0400     		.2byte	0x4
 2910 0240 0A       		.byte	0xa
 2911 0241 0809     		.2byte	0x908
 2912 0243 9F       		.byte	0x9f
 2913 0244 88050000 		.4byte	.LVL59
 2914 0248 8A050000 		.4byte	.LVL60
 2915 024c 0100     		.2byte	0x1
 2916 024e 50       		.byte	0x50
 2917 024f 8A050000 		.4byte	.LVL60
 2918 0253 8E050000 		.4byte	.LVL61
 2919 0257 0100     		.2byte	0x1
 2920 0259 53       		.byte	0x53
 2921 025a 9C050000 		.4byte	.LVL62
 2922 025e A0050000 		.4byte	.LVL63
 2923 0262 0100     		.2byte	0x1
 2924 0264 50       		.byte	0x50
 2925 0265 A0050000 		.4byte	.LVL63
 2926 0269 A9050000 		.4byte	.LVL64-1
 2927 026d 0100     		.2byte	0x1
 2928 026f 53       		.byte	0x53
 2929 0270 C8050000 		.4byte	.LVL65
 2930 0274 CE050000 		.4byte	.LVL66
 2931 0278 0300     		.2byte	0x3
 2932 027a 08       		.byte	0x8
 2933 027b 2F       		.byte	0x2f
 2934 027c 9F       		.byte	0x9f
 2935 027d CE050000 		.4byte	.LVL66
 2936 0281 EA050000 		.4byte	.LVL67
 2937 0285 0300     		.2byte	0x3
 2938 0287 08       		.byte	0x8
 2939 0288 2F       		.byte	0x2f
 2940 0289 9F       		.byte	0x9f
 2941 028a EA050000 		.4byte	.LVL67
ARM GAS  C:\Users\DNIEL~1\AppData\Local\Temp\ccvGaeHa.s 			page 54


 2942 028e EC050000 		.4byte	.LVL68
 2943 0292 0100     		.2byte	0x1
 2944 0294 50       		.byte	0x50
 2945 0295 EC050000 		.4byte	.LVL68
 2946 0299 EE050000 		.4byte	.LVL69
 2947 029d 0100     		.2byte	0x1
 2948 029f 53       		.byte	0x53
 2949 02a0 F2050000 		.4byte	.LVL70
 2950 02a4 14060000 		.4byte	.LVL71
 2951 02a8 0300     		.2byte	0x3
 2952 02aa 08       		.byte	0x8
 2953 02ab 64       		.byte	0x64
 2954 02ac 9F       		.byte	0x9f
 2955 02ad 14060000 		.4byte	.LVL71
 2956 02b1 2E060000 		.4byte	.LVL72
 2957 02b5 0300     		.2byte	0x3
 2958 02b7 08       		.byte	0x8
 2959 02b8 64       		.byte	0x64
 2960 02b9 9F       		.byte	0x9f
 2961 02ba 2E060000 		.4byte	.LVL72
 2962 02be 34060000 		.4byte	.LVL73
 2963 02c2 0100     		.2byte	0x1
 2964 02c4 50       		.byte	0x50
 2965 02c5 42060000 		.4byte	.LVL74
 2966 02c9 4A060000 		.4byte	.LVL75
 2967 02cd 0100     		.2byte	0x1
 2968 02cf 50       		.byte	0x50
 2969 02d0 4A060000 		.4byte	.LVL75
 2970 02d4 4F060000 		.4byte	.LVL76-1
 2971 02d8 0100     		.2byte	0x1
 2972 02da 53       		.byte	0x53
 2973 02db 7C060000 		.4byte	.LVL77
 2974 02df 82060000 		.4byte	.LVL78
 2975 02e3 0400     		.2byte	0x4
 2976 02e5 0A       		.byte	0xa
 2977 02e6 E303     		.2byte	0x3e3
 2978 02e8 9F       		.byte	0x9f
 2979 02e9 82060000 		.4byte	.LVL78
 2980 02ed AC060000 		.4byte	.LVL79
 2981 02f1 0400     		.2byte	0x4
 2982 02f3 0A       		.byte	0xa
 2983 02f4 E303     		.2byte	0x3e3
 2984 02f6 9F       		.byte	0x9f
 2985 02f7 AC060000 		.4byte	.LVL79
 2986 02fb CE060000 		.4byte	.LVL80
 2987 02ff 0400     		.2byte	0x4
 2988 0301 0A       		.byte	0xa
 2989 0302 E303     		.2byte	0x3e3
 2990 0304 9F       		.byte	0x9f
 2991 0305 CE060000 		.4byte	.LVL80
 2992 0309 D6060000 		.4byte	.LVL81
 2993 030d 0100     		.2byte	0x1
 2994 030f 50       		.byte	0x50
 2995 0310 D6060000 		.4byte	.LVL81
 2996 0314 F8060000 		.4byte	.LVL82
 2997 0318 0400     		.2byte	0x4
 2998 031a 0A       		.byte	0xa
ARM GAS  C:\Users\DNIEL~1\AppData\Local\Temp\ccvGaeHa.s 			page 55


 2999 031b E303     		.2byte	0x3e3
 3000 031d 9F       		.byte	0x9f
 3001 031e 0C070000 		.4byte	.LVL83
 3002 0322 10070000 		.4byte	.LVL84
 3003 0326 0100     		.2byte	0x1
 3004 0328 50       		.byte	0x50
 3005 0329 10070000 		.4byte	.LVL84
 3006 032d 15070000 		.4byte	.LVL85-1
 3007 0331 0100     		.2byte	0x1
 3008 0333 53       		.byte	0x53
 3009 0334 B8070000 		.4byte	.LVL86
 3010 0338 BC070000 		.4byte	.LVL87
 3011 033c 0100     		.2byte	0x1
 3012 033e 53       		.byte	0x53
 3013 033f 20080000 		.4byte	.LVL88
 3014 0343 22080000 		.4byte	.LVL89
 3015 0347 0100     		.2byte	0x1
 3016 0349 53       		.byte	0x53
 3017 034a 26080000 		.4byte	.LVL91
 3018 034e 48080000 		.4byte	.LVL92
 3019 0352 0200     		.2byte	0x2
 3020 0354 31       		.byte	0x31
 3021 0355 9F       		.byte	0x9f
 3022 0356 68080000 		.4byte	.LVL93
 3023 035a 73080000 		.4byte	.LVL94-1
 3024 035e 0100     		.2byte	0x1
 3025 0360 53       		.byte	0x53
 3026 0361 00000000 		.4byte	0x0
 3027 0365 00000000 		.4byte	0x0
 3028              	.LLST5:
 3029 0369 72000000 		.4byte	.LVL4
 3030 036d 7C000000 		.4byte	.LVL5
 3031 0371 0200     		.2byte	0x2
 3032 0373 31       		.byte	0x31
 3033 0374 9F       		.byte	0x9f
 3034 0375 7C000000 		.4byte	.LVL5
 3035 0379 86000000 		.4byte	.LVL6
 3036 037d 0200     		.2byte	0x2
 3037 037f 32       		.byte	0x32
 3038 0380 9F       		.byte	0x9f
 3039 0381 86000000 		.4byte	.LVL6
 3040 0385 90000000 		.4byte	.LVL7
 3041 0389 0200     		.2byte	0x2
 3042 038b 33       		.byte	0x33
 3043 038c 9F       		.byte	0x9f
 3044 038d 90000000 		.4byte	.LVL7
 3045 0391 9A000000 		.4byte	.LVL8
 3046 0395 0200     		.2byte	0x2
 3047 0397 34       		.byte	0x34
 3048 0398 9F       		.byte	0x9f
 3049 0399 9A000000 		.4byte	.LVL8
 3050 039d A4000000 		.4byte	.LVL9
 3051 03a1 0200     		.2byte	0x2
 3052 03a3 35       		.byte	0x35
 3053 03a4 9F       		.byte	0x9f
 3054 03a5 A4000000 		.4byte	.LVL9
 3055 03a9 B2000000 		.4byte	.LVL10
ARM GAS  C:\Users\DNIEL~1\AppData\Local\Temp\ccvGaeHa.s 			page 56


 3056 03ad 0200     		.2byte	0x2
 3057 03af 36       		.byte	0x36
 3058 03b0 9F       		.byte	0x9f
 3059 03b1 B2000000 		.4byte	.LVL10
 3060 03b5 BE000000 		.4byte	.LVL11
 3061 03b9 0200     		.2byte	0x2
 3062 03bb 37       		.byte	0x37
 3063 03bc 9F       		.byte	0x9f
 3064 03bd 22080000 		.4byte	.LVL89
 3065 03c1 24080000 		.4byte	.LVL90
 3066 03c5 0200     		.2byte	0x2
 3067 03c7 37       		.byte	0x37
 3068 03c8 9F       		.byte	0x9f
 3069 03c9 24080000 		.4byte	.LVL90
 3070 03cd 26080000 		.4byte	.LVL91
 3071 03d1 0200     		.2byte	0x2
 3072 03d3 38       		.byte	0x38
 3073 03d4 9F       		.byte	0x9f
 3074 03d5 00000000 		.4byte	0x0
 3075 03d9 00000000 		.4byte	0x0
 3076              	.LLST6:
 3077 03dd 00000000 		.4byte	.LFB119
 3078 03e1 02000000 		.4byte	.LCFI5
 3079 03e5 0200     		.2byte	0x2
 3080 03e7 7D       		.byte	0x7d
 3081 03e8 00       		.sleb128 0
 3082 03e9 02000000 		.4byte	.LCFI5
 3083 03ed D2000000 		.4byte	.LFE119
 3084 03f1 0200     		.2byte	0x2
 3085 03f3 7D       		.byte	0x7d
 3086 03f4 08       		.sleb128 8
 3087 03f5 00000000 		.4byte	0x0
 3088 03f9 00000000 		.4byte	0x0
 3089              	.LLST7:
 3090 03fd 00000000 		.4byte	.LFB120
 3091 0401 02000000 		.4byte	.LCFI6
 3092 0405 0200     		.2byte	0x2
 3093 0407 7D       		.byte	0x7d
 3094 0408 00       		.sleb128 0
 3095 0409 02000000 		.4byte	.LCFI6
 3096 040d 74000000 		.4byte	.LFE120
 3097 0411 0200     		.2byte	0x2
 3098 0413 7D       		.byte	0x7d
 3099 0414 08       		.sleb128 8
 3100 0415 00000000 		.4byte	0x0
 3101 0419 00000000 		.4byte	0x0
 3102              	.LLST8:
 3103 041d 00000000 		.4byte	.LFB121
 3104 0421 02000000 		.4byte	.LCFI7
 3105 0425 0200     		.2byte	0x2
 3106 0427 7D       		.byte	0x7d
 3107 0428 00       		.sleb128 0
 3108 0429 02000000 		.4byte	.LCFI7
 3109 042d 08000000 		.4byte	.LCFI8
 3110 0431 0200     		.2byte	0x2
 3111 0433 7D       		.byte	0x7d
 3112 0434 08       		.sleb128 8
ARM GAS  C:\Users\DNIEL~1\AppData\Local\Temp\ccvGaeHa.s 			page 57


 3113 0435 08000000 		.4byte	.LCFI8
 3114 0439 10010000 		.4byte	.LFE121
 3115 043d 0200     		.2byte	0x2
 3116 043f 7D       		.byte	0x7d
 3117 0440 10       		.sleb128 16
 3118 0441 00000000 		.4byte	0x0
 3119 0445 00000000 		.4byte	0x0
 3120              	.LLST9:
 3121 0449 00000000 		.4byte	.LFB122
 3122 044d 02000000 		.4byte	.LCFI9
 3123 0451 0200     		.2byte	0x2
 3124 0453 7D       		.byte	0x7d
 3125 0454 00       		.sleb128 0
 3126 0455 02000000 		.4byte	.LCFI9
 3127 0459 F8000000 		.4byte	.LFE122
 3128 045d 0200     		.2byte	0x2
 3129 045f 7D       		.byte	0x7d
 3130 0460 10       		.sleb128 16
 3131 0461 00000000 		.4byte	0x0
 3132 0465 00000000 		.4byte	0x0
 3133              	.LLST10:
 3134 0469 00000000 		.4byte	.LVL95
 3135 046d 06000000 		.4byte	.LVL96
 3136 0471 0100     		.2byte	0x1
 3137 0473 50       		.byte	0x50
 3138 0474 06000000 		.4byte	.LVL96
 3139 0478 F8000000 		.4byte	.LFE122
 3140 047c 0100     		.2byte	0x1
 3141 047e 54       		.byte	0x54
 3142 047f 00000000 		.4byte	0x0
 3143 0483 00000000 		.4byte	0x0
 3144              	.LLST11:
 3145 0487 00000000 		.4byte	.LFB124
 3146 048b 02000000 		.4byte	.LCFI10
 3147 048f 0200     		.2byte	0x2
 3148 0491 7D       		.byte	0x7d
 3149 0492 00       		.sleb128 0
 3150 0493 02000000 		.4byte	.LCFI10
 3151 0497 06000000 		.4byte	.LCFI11
 3152 049b 0200     		.2byte	0x2
 3153 049d 7D       		.byte	0x7d
 3154 049e 0C       		.sleb128 12
 3155 049f 06000000 		.4byte	.LCFI11
 3156 04a3 44000000 		.4byte	.LFE124
 3157 04a7 0200     		.2byte	0x2
 3158 04a9 7D       		.byte	0x7d
 3159 04aa 18       		.sleb128 24
 3160 04ab 00000000 		.4byte	0x0
 3161 04af 00000000 		.4byte	0x0
 3162              	.LLST12:
 3163 04b3 00000000 		.4byte	0x0
 3164 04b7 00000000 		.4byte	0x0
 3165              	.LLST13:
 3166 04bb 00000000 		.4byte	.LFB126
 3167 04bf 04000000 		.4byte	.LCFI12
 3168 04c3 0200     		.2byte	0x2
 3169 04c5 7D       		.byte	0x7d
ARM GAS  C:\Users\DNIEL~1\AppData\Local\Temp\ccvGaeHa.s 			page 58


 3170 04c6 00       		.sleb128 0
 3171 04c7 04000000 		.4byte	.LCFI12
 3172 04cb 3C010000 		.4byte	.LFE126
 3173 04cf 0200     		.2byte	0x2
 3174 04d1 7D       		.byte	0x7d
 3175 04d2 18       		.sleb128 24
 3176 04d3 00000000 		.4byte	0x0
 3177 04d7 00000000 		.4byte	0x0
 3178              	.LLST14:
 3179 04db 00000000 		.4byte	.LVL99
 3180 04df 11000000 		.4byte	.LVL101-1
 3181 04e3 0100     		.2byte	0x1
 3182 04e5 50       		.byte	0x50
 3183 04e6 11000000 		.4byte	.LVL101-1
 3184 04ea 3C010000 		.4byte	.LFE126
 3185 04ee 0100     		.2byte	0x1
 3186 04f0 55       		.byte	0x55
 3187 04f1 00000000 		.4byte	0x0
 3188 04f5 00000000 		.4byte	0x0
 3189              	.LLST15:
 3190 04f9 00000000 		.4byte	.LVL99
 3191 04fd 06000000 		.4byte	.LVL100
 3192 0501 0100     		.2byte	0x1
 3193 0503 51       		.byte	0x51
 3194 0504 00000000 		.4byte	0x0
 3195 0508 00000000 		.4byte	0x0
 3196              	.LLST16:
 3197 050c 00000000 		.4byte	.LVL99
 3198 0510 11000000 		.4byte	.LVL101-1
 3199 0514 0100     		.2byte	0x1
 3200 0516 52       		.byte	0x52
 3201 0517 00000000 		.4byte	0x0
 3202 051b 00000000 		.4byte	0x0
 3203              	.LLST17:
 3204 051f 4E000000 		.4byte	.LVL102
 3205 0523 58000000 		.4byte	.LVL103
 3206 0527 0200     		.2byte	0x2
 3207 0529 30       		.byte	0x30
 3208 052a 9F       		.byte	0x9f
 3209 052b 58000000 		.4byte	.LVL103
 3210 052f 62000000 		.4byte	.LVL104
 3211 0533 0200     		.2byte	0x2
 3212 0535 31       		.byte	0x31
 3213 0536 9F       		.byte	0x9f
 3214 0537 62000000 		.4byte	.LVL104
 3215 053b 6C000000 		.4byte	.LVL105
 3216 053f 0200     		.2byte	0x2
 3217 0541 32       		.byte	0x32
 3218 0542 9F       		.byte	0x9f
 3219 0543 6C000000 		.4byte	.LVL105
 3220 0547 76000000 		.4byte	.LVL106
 3221 054b 0200     		.2byte	0x2
 3222 054d 33       		.byte	0x33
 3223 054e 9F       		.byte	0x9f
 3224 054f 76000000 		.4byte	.LVL106
 3225 0553 80000000 		.4byte	.LVL107
 3226 0557 0200     		.2byte	0x2
ARM GAS  C:\Users\DNIEL~1\AppData\Local\Temp\ccvGaeHa.s 			page 59


 3227 0559 34       		.byte	0x34
 3228 055a 9F       		.byte	0x9f
 3229 055b 80000000 		.4byte	.LVL107
 3230 055f 8A000000 		.4byte	.LVL108
 3231 0563 0200     		.2byte	0x2
 3232 0565 35       		.byte	0x35
 3233 0566 9F       		.byte	0x9f
 3234 0567 8A000000 		.4byte	.LVL108
 3235 056b 94000000 		.4byte	.LVL109
 3236 056f 0200     		.2byte	0x2
 3237 0571 36       		.byte	0x36
 3238 0572 9F       		.byte	0x9f
 3239 0573 94000000 		.4byte	.LVL109
 3240 0577 9E000000 		.4byte	.LVL110
 3241 057b 0200     		.2byte	0x2
 3242 057d 37       		.byte	0x37
 3243 057e 9F       		.byte	0x9f
 3244 057f 9E000000 		.4byte	.LVL110
 3245 0583 AE000000 		.4byte	.LVL111
 3246 0587 0200     		.2byte	0x2
 3247 0589 38       		.byte	0x38
 3248 058a 9F       		.byte	0x9f
 3249 058b AE000000 		.4byte	.LVL111
 3250 058f B8000000 		.4byte	.LVL112
 3251 0593 0200     		.2byte	0x2
 3252 0595 30       		.byte	0x30
 3253 0596 9F       		.byte	0x9f
 3254 0597 00000000 		.4byte	0x0
 3255 059b 00000000 		.4byte	0x0
 3256              	.LLST18:
 3257 059f 00000000 		.4byte	.LFB127
 3258 05a3 02000000 		.4byte	.LCFI13
 3259 05a7 0200     		.2byte	0x2
 3260 05a9 7D       		.byte	0x7d
 3261 05aa 00       		.sleb128 0
 3262 05ab 02000000 		.4byte	.LCFI13
 3263 05af 50010000 		.4byte	.LFE127
 3264 05b3 0200     		.2byte	0x2
 3265 05b5 7D       		.byte	0x7d
 3266 05b6 10       		.sleb128 16
 3267 05b7 00000000 		.4byte	0x0
 3268 05bb 00000000 		.4byte	0x0
 3269              	.LLST19:
 3270 05bf 00000000 		.4byte	.LVL113
 3271 05c3 0D000000 		.4byte	.LVL115-1
 3272 05c7 0100     		.2byte	0x1
 3273 05c9 50       		.byte	0x50
 3274 05ca 0D000000 		.4byte	.LVL115-1
 3275 05ce 50010000 		.4byte	.LFE127
 3276 05d2 0100     		.2byte	0x1
 3277 05d4 54       		.byte	0x54
 3278 05d5 00000000 		.4byte	0x0
 3279 05d9 00000000 		.4byte	0x0
 3280              	.LLST20:
 3281 05dd 00000000 		.4byte	.LVL113
 3282 05e1 08000000 		.4byte	.LVL114
 3283 05e5 0100     		.2byte	0x1
ARM GAS  C:\Users\DNIEL~1\AppData\Local\Temp\ccvGaeHa.s 			page 60


 3284 05e7 51       		.byte	0x51
 3285 05e8 08000000 		.4byte	.LVL114
 3286 05ec 26000000 		.4byte	.LVL116
 3287 05f0 0100     		.2byte	0x1
 3288 05f2 55       		.byte	0x55
 3289 05f3 4A000000 		.4byte	.LVL117
 3290 05f7 80000000 		.4byte	.LVL118
 3291 05fb 0100     		.2byte	0x1
 3292 05fd 55       		.byte	0x55
 3293 05fe 00000000 		.4byte	0x0
 3294 0602 00000000 		.4byte	0x0
 3295              	.LLST21:
 3296 0606 00000000 		.4byte	.LVL113
 3297 060a 0D000000 		.4byte	.LVL115-1
 3298 060e 0100     		.2byte	0x1
 3299 0610 52       		.byte	0x52
 3300 0611 0D000000 		.4byte	.LVL115-1
 3301 0615 26000000 		.4byte	.LVL116
 3302 0619 0100     		.2byte	0x1
 3303 061b 56       		.byte	0x56
 3304 061c 4A000000 		.4byte	.LVL117
 3305 0620 96000000 		.4byte	.LVL119
 3306 0624 0100     		.2byte	0x1
 3307 0626 56       		.byte	0x56
 3308 0627 C8000000 		.4byte	.LVL120
 3309 062b D8000000 		.4byte	.LVL121
 3310 062f 0100     		.2byte	0x1
 3311 0631 56       		.byte	0x56
 3312 0632 00000000 		.4byte	0x0
 3313 0636 00000000 		.4byte	0x0
 3314              	.LLST22:
 3315 063a 00000000 		.4byte	.LFB128
 3316 063e 02000000 		.4byte	.LCFI14
 3317 0642 0200     		.2byte	0x2
 3318 0644 7D       		.byte	0x7d
 3319 0645 00       		.sleb128 0
 3320 0646 02000000 		.4byte	.LCFI14
 3321 064a 58000000 		.4byte	.LFE128
 3322 064e 0200     		.2byte	0x2
 3323 0650 7D       		.byte	0x7d
 3324 0651 18       		.sleb128 24
 3325 0652 00000000 		.4byte	0x0
 3326 0656 00000000 		.4byte	0x0
 3327              	.LLST23:
 3328 065a 00000000 		.4byte	.LVL122
 3329 065e 0D000000 		.4byte	.LVL124-1
 3330 0662 0100     		.2byte	0x1
 3331 0664 50       		.byte	0x50
 3332 0665 0D000000 		.4byte	.LVL124-1
 3333 0669 58000000 		.4byte	.LFE128
 3334 066d 0100     		.2byte	0x1
 3335 066f 54       		.byte	0x54
 3336 0670 00000000 		.4byte	0x0
 3337 0674 00000000 		.4byte	0x0
 3338              	.LLST24:
 3339 0678 00000000 		.4byte	.LVL122
 3340 067c 04000000 		.4byte	.LVL123
ARM GAS  C:\Users\DNIEL~1\AppData\Local\Temp\ccvGaeHa.s 			page 61


 3341 0680 0100     		.2byte	0x1
 3342 0682 51       		.byte	0x51
 3343 0683 00000000 		.4byte	0x0
 3344 0687 00000000 		.4byte	0x0
 3345              	.LLST25:
 3346 068b 00000000 		.4byte	.LVL122
 3347 068f 0D000000 		.4byte	.LVL124-1
 3348 0693 0100     		.2byte	0x1
 3349 0695 52       		.byte	0x52
 3350 0696 00000000 		.4byte	0x0
 3351 069a 00000000 		.4byte	0x0
 3352              	.LLST26:
 3353 069e 18000000 		.4byte	.LVL125
 3354 06a2 2A000000 		.4byte	.LVL126
 3355 06a6 0100     		.2byte	0x1
 3356 06a8 57       		.byte	0x57
 3357 06a9 2A000000 		.4byte	.LVL126
 3358 06ad 30000000 		.4byte	.LVL127
 3359 06b1 0100     		.2byte	0x1
 3360 06b3 57       		.byte	0x57
 3361 06b4 30000000 		.4byte	.LVL127
 3362 06b8 58000000 		.4byte	.LFE128
 3363 06bc 0100     		.2byte	0x1
 3364 06be 57       		.byte	0x57
 3365 06bf 00000000 		.4byte	0x0
 3366 06c3 00000000 		.4byte	0x0
 3367              		.file 3 "c:\\program files (x86)\\codesourcery\\sourcery g++ lite\\bin\\../lib/gcc/arm-none-eabi/4
 3368              		.file 4 "c:\\program files (x86)\\codesourcery\\sourcery g++ lite\\bin\\../lib/gcc/arm-none-eabi/4
 3369              		.file 5 "../../../ChibiOS/os/ports/GCC/ARMCMx/chtypes.h"
 3370              		.file 6 "../../../ChibiOS/os/kernel/include/chlists.h"
 3371              		.file 7 "../../../ChibiOS/os/kernel/include/chthreads.h"
 3372              		.file 8 "../../../ChibiOS/os/ports/GCC/ARMCMx/chcore_v7m.h"
 3373              		.file 9 "../../../ChibiOS/os/kernel/include/chvt.h"
 3374              		.file 10 "../../../ChibiOS/os/kernel/include/chschd.h"
 3375              		.file 11 "../../../ChibiOS/os/kernel/include/chmtx.h"
 3376              		.file 12 "../../../ChibiOS/os/kernel/include/chstreams.h"
 3377              		.file 13 "../../../ChibiOS/os/hal/include/io_channel.h"
 3378              		.file 14 "c:\\program files (x86)\\codesourcery\\sourcery g++ lite\\bin\\../lib/gcc/arm-none-eabi/
 3379              		.file 15 "<built-in>"
 3380              		.file 16 "../../../ChibiOS/os/ports/common/ARMCMx/CMSIS/include/core_cm4.h"
 3381              		.section	.debug_info
 3382 0000 120D0000 		.4byte	0xd12
 3383 0004 0200     		.2byte	0x2
 3384 0006 00000000 		.4byte	.Ldebug_abbrev0
 3385 000a 04       		.byte	0x4
 3386 000b 01       		.uleb128 0x1
 3387 000c DC060000 		.4byte	.LASF162
 3388 0010 01       		.byte	0x1
 3389 0011 1F000000 		.4byte	.LASF163
 3390 0015 97040000 		.4byte	.LASF164
 3391 0019 00000000 		.4byte	0x0
 3392 001d 00000000 		.4byte	0x0
 3393 0021 B0000000 		.4byte	.Ldebug_ranges0+0xb0
 3394 0025 00000000 		.4byte	.Ldebug_line0
 3395 0029 02       		.uleb128 0x2
 3396 002a 04       		.byte	0x4
 3397 002b 05       		.byte	0x5
ARM GAS  C:\Users\DNIEL~1\AppData\Local\Temp\ccvGaeHa.s 			page 62


 3398 002c 696E7400 		.ascii	"int\000"
 3399 0030 03       		.uleb128 0x3
 3400 0031 10000000 		.4byte	.LASF2
 3401 0035 03       		.byte	0x3
 3402 0036 D3       		.byte	0xd3
 3403 0037 3B000000 		.4byte	0x3b
 3404 003b 04       		.uleb128 0x4
 3405 003c 04       		.byte	0x4
 3406 003d 07       		.byte	0x7
 3407 003e 10020000 		.4byte	.LASF0
 3408 0042 04       		.uleb128 0x4
 3409 0043 01       		.byte	0x1
 3410 0044 06       		.byte	0x6
 3411 0045 0B010000 		.4byte	.LASF1
 3412 0049 03       		.uleb128 0x3
 3413 004a 9F060000 		.4byte	.LASF3
 3414 004e 04       		.byte	0x4
 3415 004f 2A       		.byte	0x2a
 3416 0050 54000000 		.4byte	0x54
 3417 0054 04       		.uleb128 0x4
 3418 0055 01       		.byte	0x1
 3419 0056 08       		.byte	0x8
 3420 0057 81040000 		.4byte	.LASF4
 3421 005b 03       		.uleb128 0x3
 3422 005c F5000000 		.4byte	.LASF5
 3423 0060 04       		.byte	0x4
 3424 0061 35       		.byte	0x35
 3425 0062 66000000 		.4byte	0x66
 3426 0066 04       		.uleb128 0x4
 3427 0067 02       		.byte	0x2
 3428 0068 05       		.byte	0x5
 3429 0069 DC040000 		.4byte	.LASF6
 3430 006d 03       		.uleb128 0x3
 3431 006e 98010000 		.4byte	.LASF7
 3432 0072 04       		.byte	0x4
 3433 0073 36       		.byte	0x36
 3434 0074 78000000 		.4byte	0x78
 3435 0078 04       		.uleb128 0x4
 3436 0079 02       		.byte	0x2
 3437 007a 07       		.byte	0x7
 3438 007b 70020000 		.4byte	.LASF8
 3439 007f 03       		.uleb128 0x3
 3440 0080 76030000 		.4byte	.LASF9
 3441 0084 04       		.byte	0x4
 3442 0085 4F       		.byte	0x4f
 3443 0086 8A000000 		.4byte	0x8a
 3444 008a 04       		.uleb128 0x4
 3445 008b 04       		.byte	0x4
 3446 008c 05       		.byte	0x5
 3447 008d 54010000 		.4byte	.LASF10
 3448 0091 03       		.uleb128 0x3
 3449 0092 8F050000 		.4byte	.LASF11
 3450 0096 04       		.byte	0x4
 3451 0097 50       		.byte	0x50
 3452 0098 9C000000 		.4byte	0x9c
 3453 009c 04       		.uleb128 0x4
 3454 009d 04       		.byte	0x4
ARM GAS  C:\Users\DNIEL~1\AppData\Local\Temp\ccvGaeHa.s 			page 63


 3455 009e 07       		.byte	0x7
 3456 009f 22010000 		.4byte	.LASF12
 3457 00a3 04       		.uleb128 0x4
 3458 00a4 08       		.byte	0x8
 3459 00a5 05       		.byte	0x5
 3460 00a6 FD000000 		.4byte	.LASF13
 3461 00aa 03       		.uleb128 0x3
 3462 00ab 29000000 		.4byte	.LASF14
 3463 00af 04       		.byte	0x4
 3464 00b0 78       		.byte	0x78
 3465 00b1 B5000000 		.4byte	0xb5
 3466 00b5 04       		.uleb128 0x4
 3467 00b6 08       		.byte	0x8
 3468 00b7 07       		.byte	0x7
 3469 00b8 FD020000 		.4byte	.LASF15
 3470 00bc 03       		.uleb128 0x3
 3471 00bd 3C010000 		.4byte	.LASF16
 3472 00c1 05       		.byte	0x5
 3473 00c2 2B       		.byte	0x2b
 3474 00c3 C7000000 		.4byte	0xc7
 3475 00c7 04       		.uleb128 0x4
 3476 00c8 01       		.byte	0x1
 3477 00c9 02       		.byte	0x2
 3478 00ca 76040000 		.4byte	.LASF17
 3479 00ce 03       		.uleb128 0x3
 3480 00cf B7020000 		.4byte	.LASF18
 3481 00d3 05       		.byte	0x5
 3482 00d4 2C       		.byte	0x2c
 3483 00d5 49000000 		.4byte	0x49
 3484 00d9 03       		.uleb128 0x3
 3485 00da 71010000 		.4byte	.LASF19
 3486 00de 05       		.byte	0x5
 3487 00df 2D       		.byte	0x2d
 3488 00e0 49000000 		.4byte	0x49
 3489 00e4 03       		.uleb128 0x3
 3490 00e5 3D040000 		.4byte	.LASF20
 3491 00e9 05       		.byte	0x5
 3492 00ea 2E       		.byte	0x2e
 3493 00eb 49000000 		.4byte	0x49
 3494 00ef 03       		.uleb128 0x3
 3495 00f0 4A010000 		.4byte	.LASF21
 3496 00f4 05       		.byte	0x5
 3497 00f5 2F       		.byte	0x2f
 3498 00f6 49000000 		.4byte	0x49
 3499 00fa 03       		.uleb128 0x3
 3500 00fb 4C040000 		.4byte	.LASF22
 3501 00ff 05       		.byte	0x5
 3502 0100 30       		.byte	0x30
 3503 0101 91000000 		.4byte	0x91
 3504 0105 03       		.uleb128 0x3
 3505 0106 83020000 		.4byte	.LASF23
 3506 010a 05       		.byte	0x5
 3507 010b 31       		.byte	0x31
 3508 010c 7F000000 		.4byte	0x7f
 3509 0110 03       		.uleb128 0x3
 3510 0111 CB020000 		.4byte	.LASF24
 3511 0115 05       		.byte	0x5
ARM GAS  C:\Users\DNIEL~1\AppData\Local\Temp\ccvGaeHa.s 			page 64


 3512 0116 33       		.byte	0x33
 3513 0117 91000000 		.4byte	0x91
 3514 011b 03       		.uleb128 0x3
 3515 011c EE050000 		.4byte	.LASF25
 3516 0120 05       		.byte	0x5
 3517 0121 35       		.byte	0x35
 3518 0122 91000000 		.4byte	0x91
 3519 0126 03       		.uleb128 0x3
 3520 0127 50050000 		.4byte	.LASF26
 3521 012b 06       		.byte	0x6
 3522 012c 2A       		.byte	0x2a
 3523 012d 31010000 		.4byte	0x131
 3524 0131 05       		.uleb128 0x5
 3525 0132 50050000 		.4byte	.LASF26
 3526 0136 48       		.byte	0x48
 3527 0137 07       		.byte	0x7
 3528 0138 5E       		.byte	0x5e
 3529 0139 56020000 		.4byte	0x256
 3530 013d 06       		.uleb128 0x6
 3531 013e 1D050000 		.4byte	.LASF27
 3532 0142 07       		.byte	0x7
 3533 0143 5F       		.byte	0x5f
 3534 0144 7B020000 		.4byte	0x27b
 3535 0148 02       		.byte	0x2
 3536 0149 23       		.byte	0x23
 3537 014a 00       		.uleb128 0x0
 3538 014b 06       		.uleb128 0x6
 3539 014c 45040000 		.4byte	.LASF28
 3540 0150 07       		.byte	0x7
 3541 0151 61       		.byte	0x61
 3542 0152 7B020000 		.4byte	0x27b
 3543 0156 02       		.byte	0x2
 3544 0157 23       		.byte	0x23
 3545 0158 04       		.uleb128 0x4
 3546 0159 06       		.uleb128 0x6
 3547 015a E8000000 		.4byte	.LASF29
 3548 015e 07       		.byte	0x7
 3549 015f 63       		.byte	0x63
 3550 0160 FA000000 		.4byte	0xfa
 3551 0164 02       		.byte	0x2
 3552 0165 23       		.byte	0x23
 3553 0166 08       		.uleb128 0x8
 3554 0167 06       		.uleb128 0x6
 3555 0168 32070000 		.4byte	.LASF30
 3556 016c 07       		.byte	0x7
 3557 016d 64       		.byte	0x64
 3558 016e 54030000 		.4byte	0x354
 3559 0172 02       		.byte	0x2
 3560 0173 23       		.byte	0x23
 3561 0174 0C       		.uleb128 0xc
 3562 0175 06       		.uleb128 0x6
 3563 0176 A8010000 		.4byte	.LASF31
 3564 017a 07       		.byte	0x7
 3565 017b 66       		.byte	0x66
 3566 017c 7B020000 		.4byte	0x27b
 3567 0180 02       		.byte	0x2
 3568 0181 23       		.byte	0x23
ARM GAS  C:\Users\DNIEL~1\AppData\Local\Temp\ccvGaeHa.s 			page 65


 3569 0182 10       		.uleb128 0x10
 3570 0183 06       		.uleb128 0x6
 3571 0184 F8040000 		.4byte	.LASF32
 3572 0188 07       		.byte	0x7
 3573 0189 67       		.byte	0x67
 3574 018a 7B020000 		.4byte	0x27b
 3575 018e 02       		.byte	0x2
 3576 018f 23       		.byte	0x23
 3577 0190 14       		.uleb128 0x14
 3578 0191 06       		.uleb128 0x6
 3579 0192 0C060000 		.4byte	.LASF33
 3580 0196 07       		.byte	0x7
 3581 0197 6E       		.byte	0x6e
 3582 0198 2E050000 		.4byte	0x52e
 3583 019c 02       		.byte	0x2
 3584 019d 23       		.byte	0x23
 3585 019e 18       		.uleb128 0x18
 3586 019f 06       		.uleb128 0x6
 3587 01a0 CA040000 		.4byte	.LASF34
 3588 01a4 07       		.byte	0x7
 3589 01a5 79       		.byte	0x79
 3590 01a6 D9000000 		.4byte	0xd9
 3591 01aa 02       		.byte	0x2
 3592 01ab 23       		.byte	0x23
 3593 01ac 1C       		.uleb128 0x1c
 3594 01ad 06       		.uleb128 0x6
 3595 01ae 3C050000 		.4byte	.LASF35
 3596 01b2 07       		.byte	0x7
 3597 01b3 7D       		.byte	0x7d
 3598 01b4 CE000000 		.4byte	0xce
 3599 01b8 02       		.byte	0x2
 3600 01b9 23       		.byte	0x23
 3601 01ba 1D       		.uleb128 0x1d
 3602 01bb 06       		.uleb128 0x6
 3603 01bc 88060000 		.4byte	.LASF36
 3604 01c0 07       		.byte	0x7
 3605 01c1 82       		.byte	0x82
 3606 01c2 E4000000 		.4byte	0xe4
 3607 01c6 02       		.byte	0x2
 3608 01c7 23       		.byte	0x23
 3609 01c8 1E       		.uleb128 0x1e
 3610 01c9 06       		.uleb128 0x6
 3611 01ca EE040000 		.4byte	.LASF37
 3612 01ce 07       		.byte	0x7
 3613 01cf 88       		.byte	0x88
 3614 01d0 EF000000 		.4byte	0xef
 3615 01d4 02       		.byte	0x2
 3616 01d5 23       		.byte	0x23
 3617 01d6 1F       		.uleb128 0x1f
 3618 01d7 06       		.uleb128 0x6
 3619 01d8 20060000 		.4byte	.LASF38
 3620 01dc 07       		.byte	0x7
 3621 01dd 8F       		.byte	0x8f
 3622 01de 39040000 		.4byte	0x439
 3623 01e2 02       		.byte	0x2
 3624 01e3 23       		.byte	0x23
 3625 01e4 20       		.uleb128 0x20
ARM GAS  C:\Users\DNIEL~1\AppData\Local\Temp\ccvGaeHa.s 			page 66


 3626 01e5 07       		.uleb128 0x7
 3627 01e6 705F7500 		.ascii	"p_u\000"
 3628 01ea 07       		.byte	0x7
 3629 01eb B4       		.byte	0xb4
 3630 01ec F9040000 		.4byte	0x4f9
 3631 01f0 02       		.byte	0x2
 3632 01f1 23       		.byte	0x23
 3633 01f2 24       		.uleb128 0x24
 3634 01f3 06       		.uleb128 0x6
 3635 01f4 38070000 		.4byte	.LASF39
 3636 01f8 07       		.byte	0x7
 3637 01f9 B9       		.byte	0xb9
 3638 01fa A3020000 		.4byte	0x2a3
 3639 01fe 02       		.byte	0x2
 3640 01ff 23       		.byte	0x23
 3641 0200 28       		.uleb128 0x28
 3642 0201 06       		.uleb128 0x6
 3643 0202 41060000 		.4byte	.LASF40
 3644 0206 07       		.byte	0x7
 3645 0207 BF       		.byte	0xbf
 3646 0208 81020000 		.4byte	0x281
 3647 020c 02       		.byte	0x2
 3648 020d 23       		.byte	0x23
 3649 020e 2C       		.uleb128 0x2c
 3650 020f 06       		.uleb128 0x6
 3651 0210 FC060000 		.4byte	.LASF41
 3652 0214 07       		.byte	0x7
 3653 0215 C3       		.byte	0xc3
 3654 0216 05010000 		.4byte	0x105
 3655 021a 02       		.byte	0x2
 3656 021b 23       		.byte	0x23
 3657 021c 34       		.uleb128 0x34
 3658 021d 06       		.uleb128 0x6
 3659 021e 7A050000 		.4byte	.LASF42
 3660 0222 07       		.byte	0x7
 3661 0223 C9       		.byte	0xc9
 3662 0224 10010000 		.4byte	0x110
 3663 0228 02       		.byte	0x2
 3664 0229 23       		.byte	0x23
 3665 022a 38       		.uleb128 0x38
 3666 022b 06       		.uleb128 0x6
 3667 022c D2040000 		.4byte	.LASF43
 3668 0230 07       		.byte	0x7
 3669 0231 D0       		.byte	0xd0
 3670 0232 40050000 		.4byte	0x540
 3671 0236 02       		.byte	0x2
 3672 0237 23       		.byte	0x23
 3673 0238 3C       		.uleb128 0x3c
 3674 0239 06       		.uleb128 0x6
 3675 023a F8050000 		.4byte	.LASF44
 3676 023e 07       		.byte	0x7
 3677 023f D4       		.byte	0xd4
 3678 0240 FA000000 		.4byte	0xfa
 3679 0244 02       		.byte	0x2
 3680 0245 23       		.byte	0x23
 3681 0246 40       		.uleb128 0x40
 3682 0247 06       		.uleb128 0x6
ARM GAS  C:\Users\DNIEL~1\AppData\Local\Temp\ccvGaeHa.s 			page 67


 3683 0248 34010000 		.4byte	.LASF45
 3684 024c 07       		.byte	0x7
 3685 024d DA       		.byte	0xda
 3686 024e B9020000 		.4byte	0x2b9
 3687 0252 02       		.byte	0x2
 3688 0253 23       		.byte	0x23
 3689 0254 44       		.uleb128 0x44
 3690 0255 00       		.byte	0x0
 3691 0256 08       		.uleb128 0x8
 3692 0257 08       		.byte	0x8
 3693 0258 06       		.byte	0x6
 3694 0259 61       		.byte	0x61
 3695 025a 7B020000 		.4byte	0x27b
 3696 025e 06       		.uleb128 0x6
 3697 025f 1D050000 		.4byte	.LASF27
 3698 0263 06       		.byte	0x6
 3699 0264 62       		.byte	0x62
 3700 0265 7B020000 		.4byte	0x27b
 3701 0269 02       		.byte	0x2
 3702 026a 23       		.byte	0x23
 3703 026b 00       		.uleb128 0x0
 3704 026c 06       		.uleb128 0x6
 3705 026d 45040000 		.4byte	.LASF28
 3706 0271 06       		.byte	0x6
 3707 0272 64       		.byte	0x64
 3708 0273 7B020000 		.4byte	0x27b
 3709 0277 02       		.byte	0x2
 3710 0278 23       		.byte	0x23
 3711 0279 04       		.uleb128 0x4
 3712 027a 00       		.byte	0x0
 3713 027b 09       		.uleb128 0x9
 3714 027c 04       		.byte	0x4
 3715 027d 26010000 		.4byte	0x126
 3716 0281 03       		.uleb128 0x3
 3717 0282 91000000 		.4byte	.LASF46
 3718 0286 06       		.byte	0x6
 3719 0287 66       		.byte	0x66
 3720 0288 56020000 		.4byte	0x256
 3721 028c 08       		.uleb128 0x8
 3722 028d 04       		.byte	0x4
 3723 028e 06       		.byte	0x6
 3724 028f 6B       		.byte	0x6b
 3725 0290 A3020000 		.4byte	0x2a3
 3726 0294 06       		.uleb128 0x6
 3727 0295 1D050000 		.4byte	.LASF27
 3728 0299 06       		.byte	0x6
 3729 029a 6D       		.byte	0x6d
 3730 029b 7B020000 		.4byte	0x27b
 3731 029f 02       		.byte	0x2
 3732 02a0 23       		.byte	0x23
 3733 02a1 00       		.uleb128 0x0
 3734 02a2 00       		.byte	0x0
 3735 02a3 03       		.uleb128 0x3
 3736 02a4 BF020000 		.4byte	.LASF47
 3737 02a8 06       		.byte	0x6
 3738 02a9 70       		.byte	0x70
 3739 02aa 8C020000 		.4byte	0x28c
ARM GAS  C:\Users\DNIEL~1\AppData\Local\Temp\ccvGaeHa.s 			page 68


 3740 02ae 03       		.uleb128 0x3
 3741 02af CA010000 		.4byte	.LASF48
 3742 02b3 08       		.byte	0x8
 3743 02b4 E5       		.byte	0xe5
 3744 02b5 B9020000 		.4byte	0x2b9
 3745 02b9 0A       		.uleb128 0xa
 3746 02ba 04       		.byte	0x4
 3747 02bb 03       		.uleb128 0x3
 3748 02bc 2D030000 		.4byte	.LASF49
 3749 02c0 08       		.byte	0x8
 3750 02c1 EB       		.byte	0xeb
 3751 02c2 AA000000 		.4byte	0xaa
 3752 02c6 0B       		.uleb128 0xb
 3753 02c7 3A060000 		.4byte	.LASF50
 3754 02cb 24       		.byte	0x24
 3755 02cc 08       		.byte	0x8
 3756 02cd 0C01     		.2byte	0x10c
 3757 02cf 54030000 		.4byte	0x354
 3758 02d3 0C       		.uleb128 0xc
 3759 02d4 723400   		.ascii	"r4\000"
 3760 02d7 08       		.byte	0x8
 3761 02d8 1F01     		.2byte	0x11f
 3762 02da AE020000 		.4byte	0x2ae
 3763 02de 02       		.byte	0x2
 3764 02df 23       		.byte	0x23
 3765 02e0 00       		.uleb128 0x0
 3766 02e1 0C       		.uleb128 0xc
 3767 02e2 723500   		.ascii	"r5\000"
 3768 02e5 08       		.byte	0x8
 3769 02e6 2001     		.2byte	0x120
 3770 02e8 AE020000 		.4byte	0x2ae
 3771 02ec 02       		.byte	0x2
 3772 02ed 23       		.byte	0x23
 3773 02ee 04       		.uleb128 0x4
 3774 02ef 0C       		.uleb128 0xc
 3775 02f0 723600   		.ascii	"r6\000"
 3776 02f3 08       		.byte	0x8
 3777 02f4 2101     		.2byte	0x121
 3778 02f6 AE020000 		.4byte	0x2ae
 3779 02fa 02       		.byte	0x2
 3780 02fb 23       		.byte	0x23
 3781 02fc 08       		.uleb128 0x8
 3782 02fd 0C       		.uleb128 0xc
 3783 02fe 723700   		.ascii	"r7\000"
 3784 0301 08       		.byte	0x8
 3785 0302 2201     		.2byte	0x122
 3786 0304 AE020000 		.4byte	0x2ae
 3787 0308 02       		.byte	0x2
 3788 0309 23       		.byte	0x23
 3789 030a 0C       		.uleb128 0xc
 3790 030b 0C       		.uleb128 0xc
 3791 030c 723800   		.ascii	"r8\000"
 3792 030f 08       		.byte	0x8
 3793 0310 2301     		.2byte	0x123
 3794 0312 AE020000 		.4byte	0x2ae
 3795 0316 02       		.byte	0x2
 3796 0317 23       		.byte	0x23
ARM GAS  C:\Users\DNIEL~1\AppData\Local\Temp\ccvGaeHa.s 			page 69


 3797 0318 10       		.uleb128 0x10
 3798 0319 0C       		.uleb128 0xc
 3799 031a 723900   		.ascii	"r9\000"
 3800 031d 08       		.byte	0x8
 3801 031e 2401     		.2byte	0x124
 3802 0320 AE020000 		.4byte	0x2ae
 3803 0324 02       		.byte	0x2
 3804 0325 23       		.byte	0x23
 3805 0326 14       		.uleb128 0x14
 3806 0327 0C       		.uleb128 0xc
 3807 0328 72313000 		.ascii	"r10\000"
 3808 032c 08       		.byte	0x8
 3809 032d 2501     		.2byte	0x125
 3810 032f AE020000 		.4byte	0x2ae
 3811 0333 02       		.byte	0x2
 3812 0334 23       		.byte	0x23
 3813 0335 18       		.uleb128 0x18
 3814 0336 0C       		.uleb128 0xc
 3815 0337 72313100 		.ascii	"r11\000"
 3816 033b 08       		.byte	0x8
 3817 033c 2601     		.2byte	0x126
 3818 033e AE020000 		.4byte	0x2ae
 3819 0342 02       		.byte	0x2
 3820 0343 23       		.byte	0x23
 3821 0344 1C       		.uleb128 0x1c
 3822 0345 0C       		.uleb128 0xc
 3823 0346 6C7200   		.ascii	"lr\000"
 3824 0349 08       		.byte	0x8
 3825 034a 2701     		.2byte	0x127
 3826 034c AE020000 		.4byte	0x2ae
 3827 0350 02       		.byte	0x2
 3828 0351 23       		.byte	0x23
 3829 0352 20       		.uleb128 0x20
 3830 0353 00       		.byte	0x0
 3831 0354 0B       		.uleb128 0xb
 3832 0355 68020000 		.4byte	.LASF51
 3833 0359 04       		.byte	0x4
 3834 035a 08       		.byte	0x8
 3835 035b 3101     		.2byte	0x131
 3836 035d 71030000 		.4byte	0x371
 3837 0361 0C       		.uleb128 0xc
 3838 0362 72313300 		.ascii	"r13\000"
 3839 0366 08       		.byte	0x8
 3840 0367 3201     		.2byte	0x132
 3841 0369 71030000 		.4byte	0x371
 3842 036d 02       		.byte	0x2
 3843 036e 23       		.byte	0x23
 3844 036f 00       		.uleb128 0x0
 3845 0370 00       		.byte	0x0
 3846 0371 09       		.uleb128 0x9
 3847 0372 04       		.byte	0x4
 3848 0373 C6020000 		.4byte	0x2c6
 3849 0377 03       		.uleb128 0x3
 3850 0378 03060000 		.4byte	.LASF52
 3851 037c 09       		.byte	0x9
 3852 037d 58       		.byte	0x58
 3853 037e 82030000 		.4byte	0x382
ARM GAS  C:\Users\DNIEL~1\AppData\Local\Temp\ccvGaeHa.s 			page 70


 3854 0382 09       		.uleb128 0x9
 3855 0383 04       		.byte	0x4
 3856 0384 88030000 		.4byte	0x388
 3857 0388 0D       		.uleb128 0xd
 3858 0389 01       		.byte	0x1
 3859 038a 94030000 		.4byte	0x394
 3860 038e 0E       		.uleb128 0xe
 3861 038f B9020000 		.4byte	0x2b9
 3862 0393 00       		.byte	0x0
 3863 0394 03       		.uleb128 0x3
 3864 0395 47020000 		.4byte	.LASF53
 3865 0399 09       		.byte	0x9
 3866 039a 5D       		.byte	0x5d
 3867 039b 9F030000 		.4byte	0x39f
 3868 039f 05       		.uleb128 0x5
 3869 03a0 47020000 		.4byte	.LASF53
 3870 03a4 14       		.byte	0x14
 3871 03a5 09       		.byte	0x9
 3872 03a6 64       		.byte	0x64
 3873 03a7 F2030000 		.4byte	0x3f2
 3874 03ab 06       		.uleb128 0x6
 3875 03ac 1D020000 		.4byte	.LASF54
 3876 03b0 09       		.byte	0x9
 3877 03b1 65       		.byte	0x65
 3878 03b2 F2030000 		.4byte	0x3f2
 3879 03b6 02       		.byte	0x2
 3880 03b7 23       		.byte	0x23
 3881 03b8 00       		.uleb128 0x0
 3882 03b9 06       		.uleb128 0x6
 3883 03ba D3010000 		.4byte	.LASF55
 3884 03be 09       		.byte	0x9
 3885 03bf 67       		.byte	0x67
 3886 03c0 F2030000 		.4byte	0x3f2
 3887 03c4 02       		.byte	0x2
 3888 03c5 23       		.byte	0x23
 3889 03c6 04       		.uleb128 0x4
 3890 03c7 06       		.uleb128 0x6
 3891 03c8 5F030000 		.4byte	.LASF56
 3892 03cc 09       		.byte	0x9
 3893 03cd 69       		.byte	0x69
 3894 03ce 1B010000 		.4byte	0x11b
 3895 03d2 02       		.byte	0x2
 3896 03d3 23       		.byte	0x23
 3897 03d4 08       		.uleb128 0x8
 3898 03d5 06       		.uleb128 0x6
 3899 03d6 E4030000 		.4byte	.LASF57
 3900 03da 09       		.byte	0x9
 3901 03db 6A       		.byte	0x6a
 3902 03dc 77030000 		.4byte	0x377
 3903 03e0 02       		.byte	0x2
 3904 03e1 23       		.byte	0x23
 3905 03e2 0C       		.uleb128 0xc
 3906 03e3 06       		.uleb128 0x6
 3907 03e4 60060000 		.4byte	.LASF58
 3908 03e8 09       		.byte	0x9
 3909 03e9 6C       		.byte	0x6c
 3910 03ea B9020000 		.4byte	0x2b9
ARM GAS  C:\Users\DNIEL~1\AppData\Local\Temp\ccvGaeHa.s 			page 71


 3911 03ee 02       		.byte	0x2
 3912 03ef 23       		.byte	0x23
 3913 03f0 10       		.uleb128 0x10
 3914 03f1 00       		.byte	0x0
 3915 03f2 09       		.uleb128 0x9
 3916 03f3 04       		.byte	0x4
 3917 03f4 94030000 		.4byte	0x394
 3918 03f8 08       		.uleb128 0x8
 3919 03f9 10       		.byte	0x10
 3920 03fa 09       		.byte	0x9
 3921 03fb 76       		.byte	0x76
 3922 03fc 39040000 		.4byte	0x439
 3923 0400 06       		.uleb128 0x6
 3924 0401 1D020000 		.4byte	.LASF54
 3925 0405 09       		.byte	0x9
 3926 0406 77       		.byte	0x77
 3927 0407 F2030000 		.4byte	0x3f2
 3928 040b 02       		.byte	0x2
 3929 040c 23       		.byte	0x23
 3930 040d 00       		.uleb128 0x0
 3931 040e 06       		.uleb128 0x6
 3932 040f D3010000 		.4byte	.LASF55
 3933 0413 09       		.byte	0x9
 3934 0414 79       		.byte	0x79
 3935 0415 F2030000 		.4byte	0x3f2
 3936 0419 02       		.byte	0x2
 3937 041a 23       		.byte	0x23
 3938 041b 04       		.uleb128 0x4
 3939 041c 06       		.uleb128 0x6
 3940 041d 5F030000 		.4byte	.LASF56
 3941 0421 09       		.byte	0x9
 3942 0422 7B       		.byte	0x7b
 3943 0423 1B010000 		.4byte	0x11b
 3944 0427 02       		.byte	0x2
 3945 0428 23       		.byte	0x23
 3946 0429 08       		.uleb128 0x8
 3947 042a 06       		.uleb128 0x6
 3948 042b A0050000 		.4byte	.LASF59
 3949 042f 09       		.byte	0x9
 3950 0430 7C       		.byte	0x7c
 3951 0431 39040000 		.4byte	0x439
 3952 0435 02       		.byte	0x2
 3953 0436 23       		.byte	0x23
 3954 0437 0C       		.uleb128 0xc
 3955 0438 00       		.byte	0x0
 3956 0439 0F       		.uleb128 0xf
 3957 043a 1B010000 		.4byte	0x11b
 3958 043e 03       		.uleb128 0x3
 3959 043f C6030000 		.4byte	.LASF60
 3960 0443 09       		.byte	0x9
 3961 0444 7D       		.byte	0x7d
 3962 0445 F8030000 		.4byte	0x3f8
 3963 0449 08       		.uleb128 0x8
 3964 044a 1C       		.byte	0x1c
 3965 044b 0A       		.byte	0xa
 3966 044c 5E       		.byte	0x5e
 3967 044d A6040000 		.4byte	0x4a6
ARM GAS  C:\Users\DNIEL~1\AppData\Local\Temp\ccvGaeHa.s 			page 72


 3968 0451 06       		.uleb128 0x6
 3969 0452 98050000 		.4byte	.LASF61
 3970 0456 0A       		.byte	0xa
 3971 0457 5F       		.byte	0x5f
 3972 0458 81020000 		.4byte	0x281
 3973 045c 02       		.byte	0x2
 3974 045d 23       		.byte	0x23
 3975 045e 00       		.uleb128 0x0
 3976 045f 06       		.uleb128 0x6
 3977 0460 00050000 		.4byte	.LASF62
 3978 0464 0A       		.byte	0xa
 3979 0465 60       		.byte	0x60
 3980 0466 FA000000 		.4byte	0xfa
 3981 046a 02       		.byte	0x2
 3982 046b 23       		.byte	0x23
 3983 046c 08       		.uleb128 0x8
 3984 046d 06       		.uleb128 0x6
 3985 046e CD030000 		.4byte	.LASF63
 3986 0472 0A       		.byte	0xa
 3987 0473 62       		.byte	0x62
 3988 0474 54030000 		.4byte	0x354
 3989 0478 02       		.byte	0x2
 3990 0479 23       		.byte	0x23
 3991 047a 0C       		.uleb128 0xc
 3992 047b 06       		.uleb128 0x6
 3993 047c 89020000 		.4byte	.LASF64
 3994 0480 0A       		.byte	0xa
 3995 0481 65       		.byte	0x65
 3996 0482 7B020000 		.4byte	0x27b
 3997 0486 02       		.byte	0x2
 3998 0487 23       		.byte	0x23
 3999 0488 10       		.uleb128 0x10
 4000 0489 06       		.uleb128 0x6
 4001 048a 09040000 		.4byte	.LASF65
 4002 048e 0A       		.byte	0xa
 4003 048f 66       		.byte	0x66
 4004 0490 7B020000 		.4byte	0x27b
 4005 0494 02       		.byte	0x2
 4006 0495 23       		.byte	0x23
 4007 0496 14       		.uleb128 0x14
 4008 0497 06       		.uleb128 0x6
 4009 0498 FF030000 		.4byte	.LASF66
 4010 049c 0A       		.byte	0xa
 4011 049d 69       		.byte	0x69
 4012 049e 7B020000 		.4byte	0x27b
 4013 04a2 02       		.byte	0x2
 4014 04a3 23       		.byte	0x23
 4015 04a4 18       		.uleb128 0x18
 4016 04a5 00       		.byte	0x0
 4017 04a6 03       		.uleb128 0x3
 4018 04a7 8F060000 		.4byte	.LASF67
 4019 04ab 0A       		.byte	0xa
 4020 04ac 6B       		.byte	0x6b
 4021 04ad 49040000 		.4byte	0x449
 4022 04b1 05       		.uleb128 0x5
 4023 04b2 62020000 		.4byte	.LASF68
 4024 04b6 10       		.byte	0x10
ARM GAS  C:\Users\DNIEL~1\AppData\Local\Temp\ccvGaeHa.s 			page 73


 4025 04b7 0B       		.byte	0xb
 4026 04b8 2C       		.byte	0x2c
 4027 04b9 E8040000 		.4byte	0x4e8
 4028 04bd 06       		.uleb128 0x6
 4029 04be 8F040000 		.4byte	.LASF69
 4030 04c2 0B       		.byte	0xb
 4031 04c3 2D       		.byte	0x2d
 4032 04c4 81020000 		.4byte	0x281
 4033 04c8 02       		.byte	0x2
 4034 04c9 23       		.byte	0x23
 4035 04ca 00       		.uleb128 0x0
 4036 04cb 06       		.uleb128 0x6
 4037 04cc 2A070000 		.4byte	.LASF70
 4038 04d0 0B       		.byte	0xb
 4039 04d1 2F       		.byte	0x2f
 4040 04d2 7B020000 		.4byte	0x27b
 4041 04d6 02       		.byte	0x2
 4042 04d7 23       		.byte	0x23
 4043 04d8 08       		.uleb128 0x8
 4044 04d9 06       		.uleb128 0x6
 4045 04da E7050000 		.4byte	.LASF71
 4046 04de 0B       		.byte	0xb
 4047 04df 31       		.byte	0x31
 4048 04e0 E8040000 		.4byte	0x4e8
 4049 04e4 02       		.byte	0x2
 4050 04e5 23       		.byte	0x23
 4051 04e6 0C       		.uleb128 0xc
 4052 04e7 00       		.byte	0x0
 4053 04e8 09       		.uleb128 0x9
 4054 04e9 04       		.byte	0x4
 4055 04ea B1040000 		.4byte	0x4b1
 4056 04ee 03       		.uleb128 0x3
 4057 04ef 62020000 		.4byte	.LASF68
 4058 04f3 0B       		.byte	0xb
 4059 04f4 33       		.byte	0x33
 4060 04f5 B1040000 		.4byte	0x4b1
 4061 04f9 10       		.uleb128 0x10
 4062 04fa 04       		.byte	0x4
 4063 04fb 07       		.byte	0x7
 4064 04fc 96       		.byte	0x96
 4065 04fd 2E050000 		.4byte	0x52e
 4066 0501 11       		.uleb128 0x11
 4067 0502 81060000 		.4byte	.LASF72
 4068 0506 07       		.byte	0x7
 4069 0507 9D       		.byte	0x9d
 4070 0508 05010000 		.4byte	0x105
 4071 050c 11       		.uleb128 0x11
 4072 050d BF000000 		.4byte	.LASF73
 4073 0511 07       		.byte	0x7
 4074 0512 A4       		.byte	0xa4
 4075 0513 05010000 		.4byte	0x105
 4076 0517 11       		.uleb128 0x11
 4077 0518 43010000 		.4byte	.LASF74
 4078 051c 07       		.byte	0x7
 4079 051d AB       		.byte	0xab
 4080 051e B9020000 		.4byte	0x2b9
 4081 0522 11       		.uleb128 0x11
ARM GAS  C:\Users\DNIEL~1\AppData\Local\Temp\ccvGaeHa.s 			page 74


 4082 0523 D0060000 		.4byte	.LASF75
 4083 0527 07       		.byte	0x7
 4084 0528 B2       		.byte	0xb2
 4085 0529 10010000 		.4byte	0x110
 4086 052d 00       		.byte	0x0
 4087 052e 09       		.uleb128 0x9
 4088 052f 04       		.byte	0x4
 4089 0530 34050000 		.4byte	0x534
 4090 0534 12       		.uleb128 0x12
 4091 0535 39050000 		.4byte	0x539
 4092 0539 04       		.uleb128 0x4
 4093 053a 01       		.byte	0x1
 4094 053b 08       		.byte	0x8
 4095 053c C7050000 		.4byte	.LASF76
 4096 0540 09       		.uleb128 0x9
 4097 0541 04       		.byte	0x4
 4098 0542 EE040000 		.4byte	0x4ee
 4099 0546 09       		.uleb128 0x9
 4100 0547 04       		.byte	0x4
 4101 0548 4C050000 		.4byte	0x54c
 4102 054c 13       		.uleb128 0x13
 4103 054d 01       		.byte	0x1
 4104 054e 05010000 		.4byte	0x105
 4105 0552 5C050000 		.4byte	0x55c
 4106 0556 0E       		.uleb128 0xe
 4107 0557 B9020000 		.4byte	0x2b9
 4108 055b 00       		.byte	0x0
 4109 055c 09       		.uleb128 0x9
 4110 055d 04       		.byte	0x4
 4111 055e 49000000 		.4byte	0x49
 4112 0562 05       		.uleb128 0x5
 4113 0563 24050000 		.4byte	.LASF77
 4114 0567 10       		.byte	0x10
 4115 0568 0C       		.byte	0xc
 4116 0569 48       		.byte	0x48
 4117 056a A7050000 		.4byte	0x5a7
 4118 056e 06       		.uleb128 0x6
 4119 056f 3F030000 		.4byte	.LASF78
 4120 0573 0C       		.byte	0xc
 4121 0574 49       		.byte	0x49
 4122 0575 CC050000 		.4byte	0x5cc
 4123 0579 02       		.byte	0x2
 4124 057a 23       		.byte	0x23
 4125 057b 00       		.uleb128 0x0
 4126 057c 06       		.uleb128 0x6
 4127 057d D7060000 		.4byte	.LASF79
 4128 0581 0C       		.byte	0xc
 4129 0582 49       		.byte	0x49
 4130 0583 EC050000 		.4byte	0x5ec
 4131 0587 02       		.byte	0x2
 4132 0588 23       		.byte	0x23
 4133 0589 04       		.uleb128 0x4
 4134 058a 07       		.uleb128 0x7
 4135 058b 70757400 		.ascii	"put\000"
 4136 058f 0C       		.byte	0xc
 4137 0590 49       		.byte	0x49
 4138 0591 07060000 		.4byte	0x607
ARM GAS  C:\Users\DNIEL~1\AppData\Local\Temp\ccvGaeHa.s 			page 75


 4139 0595 02       		.byte	0x2
 4140 0596 23       		.byte	0x23
 4141 0597 08       		.uleb128 0x8
 4142 0598 07       		.uleb128 0x7
 4143 0599 67657400 		.ascii	"get\000"
 4144 059d 0C       		.byte	0xc
 4145 059e 49       		.byte	0x49
 4146 059f 46050000 		.4byte	0x546
 4147 05a3 02       		.byte	0x2
 4148 05a4 23       		.byte	0x23
 4149 05a5 0C       		.uleb128 0xc
 4150 05a6 00       		.byte	0x0
 4151 05a7 13       		.uleb128 0x13
 4152 05a8 01       		.byte	0x1
 4153 05a9 30000000 		.4byte	0x30
 4154 05ad C1050000 		.4byte	0x5c1
 4155 05b1 0E       		.uleb128 0xe
 4156 05b2 B9020000 		.4byte	0x2b9
 4157 05b6 0E       		.uleb128 0xe
 4158 05b7 C1050000 		.4byte	0x5c1
 4159 05bb 0E       		.uleb128 0xe
 4160 05bc 30000000 		.4byte	0x30
 4161 05c0 00       		.byte	0x0
 4162 05c1 09       		.uleb128 0x9
 4163 05c2 04       		.byte	0x4
 4164 05c3 C7050000 		.4byte	0x5c7
 4165 05c7 12       		.uleb128 0x12
 4166 05c8 49000000 		.4byte	0x49
 4167 05cc 09       		.uleb128 0x9
 4168 05cd 04       		.byte	0x4
 4169 05ce A7050000 		.4byte	0x5a7
 4170 05d2 13       		.uleb128 0x13
 4171 05d3 01       		.byte	0x1
 4172 05d4 30000000 		.4byte	0x30
 4173 05d8 EC050000 		.4byte	0x5ec
 4174 05dc 0E       		.uleb128 0xe
 4175 05dd B9020000 		.4byte	0x2b9
 4176 05e1 0E       		.uleb128 0xe
 4177 05e2 5C050000 		.4byte	0x55c
 4178 05e6 0E       		.uleb128 0xe
 4179 05e7 30000000 		.4byte	0x30
 4180 05eb 00       		.byte	0x0
 4181 05ec 09       		.uleb128 0x9
 4182 05ed 04       		.byte	0x4
 4183 05ee D2050000 		.4byte	0x5d2
 4184 05f2 13       		.uleb128 0x13
 4185 05f3 01       		.byte	0x1
 4186 05f4 05010000 		.4byte	0x105
 4187 05f8 07060000 		.4byte	0x607
 4188 05fc 0E       		.uleb128 0xe
 4189 05fd B9020000 		.4byte	0x2b9
 4190 0601 0E       		.uleb128 0xe
 4191 0602 49000000 		.4byte	0x49
 4192 0606 00       		.byte	0x0
 4193 0607 09       		.uleb128 0x9
 4194 0608 04       		.byte	0x4
 4195 0609 F2050000 		.4byte	0x5f2
ARM GAS  C:\Users\DNIEL~1\AppData\Local\Temp\ccvGaeHa.s 			page 76


 4196 060d 08       		.uleb128 0x8
 4197 060e 04       		.byte	0x4
 4198 060f 0C       		.byte	0xc
 4199 0610 51       		.byte	0x51
 4200 0611 24060000 		.4byte	0x624
 4201 0615 07       		.uleb128 0x7
 4202 0616 766D7400 		.ascii	"vmt\000"
 4203 061a 0C       		.byte	0xc
 4204 061b 53       		.byte	0x53
 4205 061c 24060000 		.4byte	0x624
 4206 0620 02       		.byte	0x2
 4207 0621 23       		.byte	0x23
 4208 0622 00       		.uleb128 0x0
 4209 0623 00       		.byte	0x0
 4210 0624 09       		.uleb128 0x9
 4211 0625 04       		.byte	0x4
 4212 0626 2A060000 		.4byte	0x62a
 4213 062a 12       		.uleb128 0x12
 4214 062b 62050000 		.4byte	0x562
 4215 062f 03       		.uleb128 0x3
 4216 0630 FB010000 		.4byte	.LASF80
 4217 0634 0C       		.byte	0xc
 4218 0635 55       		.byte	0x55
 4219 0636 0D060000 		.4byte	0x60d
 4220 063a 0F       		.uleb128 0xf
 4221 063b 7F000000 		.4byte	0x7f
 4222 063f 05       		.uleb128 0x5
 4223 0640 9E000000 		.4byte	.LASF81
 4224 0644 20       		.byte	0x20
 4225 0645 0D       		.byte	0xd
 4226 0646 4E       		.byte	0x4e
 4227 0647 BC060000 		.4byte	0x6bc
 4228 064b 06       		.uleb128 0x6
 4229 064c 3F030000 		.4byte	.LASF78
 4230 0650 0D       		.byte	0xd
 4231 0651 4F       		.byte	0x4f
 4232 0652 CC050000 		.4byte	0x5cc
 4233 0656 02       		.byte	0x2
 4234 0657 23       		.byte	0x23
 4235 0658 00       		.uleb128 0x0
 4236 0659 06       		.uleb128 0x6
 4237 065a D7060000 		.4byte	.LASF79
 4238 065e 0D       		.byte	0xd
 4239 065f 4F       		.byte	0x4f
 4240 0660 EC050000 		.4byte	0x5ec
 4241 0664 02       		.byte	0x2
 4242 0665 23       		.byte	0x23
 4243 0666 04       		.uleb128 0x4
 4244 0667 07       		.uleb128 0x7
 4245 0668 70757400 		.ascii	"put\000"
 4246 066c 0D       		.byte	0xd
 4247 066d 4F       		.byte	0x4f
 4248 066e 07060000 		.4byte	0x607
 4249 0672 02       		.byte	0x2
 4250 0673 23       		.byte	0x23
 4251 0674 08       		.uleb128 0x8
 4252 0675 07       		.uleb128 0x7
ARM GAS  C:\Users\DNIEL~1\AppData\Local\Temp\ccvGaeHa.s 			page 77


 4253 0676 67657400 		.ascii	"get\000"
 4254 067a 0D       		.byte	0xd
 4255 067b 4F       		.byte	0x4f
 4256 067c 46050000 		.4byte	0x546
 4257 0680 02       		.byte	0x2
 4258 0681 23       		.byte	0x23
 4259 0682 0C       		.uleb128 0xc
 4260 0683 06       		.uleb128 0x6
 4261 0684 45030000 		.4byte	.LASF82
 4262 0688 0D       		.byte	0xd
 4263 0689 4F       		.byte	0x4f
 4264 068a D6060000 		.4byte	0x6d6
 4265 068e 02       		.byte	0x2
 4266 068f 23       		.byte	0x23
 4267 0690 10       		.uleb128 0x10
 4268 0691 06       		.uleb128 0x6
 4269 0692 42020000 		.4byte	.LASF83
 4270 0696 0D       		.byte	0xd
 4271 0697 4F       		.byte	0x4f
 4272 0698 F1060000 		.4byte	0x6f1
 4273 069c 02       		.byte	0x2
 4274 069d 23       		.byte	0x23
 4275 069e 14       		.uleb128 0x14
 4276 069f 06       		.uleb128 0x6
 4277 06a0 38030000 		.4byte	.LASF84
 4278 06a4 0D       		.byte	0xd
 4279 06a5 4F       		.byte	0x4f
 4280 06a6 16070000 		.4byte	0x716
 4281 06aa 02       		.byte	0x2
 4282 06ab 23       		.byte	0x23
 4283 06ac 18       		.uleb128 0x18
 4284 06ad 06       		.uleb128 0x6
 4285 06ae EF000000 		.4byte	.LASF85
 4286 06b2 0D       		.byte	0xd
 4287 06b3 4F       		.byte	0x4f
 4288 06b4 3B070000 		.4byte	0x73b
 4289 06b8 02       		.byte	0x2
 4290 06b9 23       		.byte	0x23
 4291 06ba 1C       		.uleb128 0x1c
 4292 06bb 00       		.byte	0x0
 4293 06bc 13       		.uleb128 0x13
 4294 06bd 01       		.byte	0x1
 4295 06be 05010000 		.4byte	0x105
 4296 06c2 D6060000 		.4byte	0x6d6
 4297 06c6 0E       		.uleb128 0xe
 4298 06c7 B9020000 		.4byte	0x2b9
 4299 06cb 0E       		.uleb128 0xe
 4300 06cc 49000000 		.4byte	0x49
 4301 06d0 0E       		.uleb128 0xe
 4302 06d1 1B010000 		.4byte	0x11b
 4303 06d5 00       		.byte	0x0
 4304 06d6 09       		.uleb128 0x9
 4305 06d7 04       		.byte	0x4
 4306 06d8 BC060000 		.4byte	0x6bc
 4307 06dc 13       		.uleb128 0x13
 4308 06dd 01       		.byte	0x1
 4309 06de 05010000 		.4byte	0x105
ARM GAS  C:\Users\DNIEL~1\AppData\Local\Temp\ccvGaeHa.s 			page 78


 4310 06e2 F1060000 		.4byte	0x6f1
 4311 06e6 0E       		.uleb128 0xe
 4312 06e7 B9020000 		.4byte	0x2b9
 4313 06eb 0E       		.uleb128 0xe
 4314 06ec 1B010000 		.4byte	0x11b
 4315 06f0 00       		.byte	0x0
 4316 06f1 09       		.uleb128 0x9
 4317 06f2 04       		.byte	0x4
 4318 06f3 DC060000 		.4byte	0x6dc
 4319 06f7 13       		.uleb128 0x13
 4320 06f8 01       		.byte	0x1
 4321 06f9 30000000 		.4byte	0x30
 4322 06fd 16070000 		.4byte	0x716
 4323 0701 0E       		.uleb128 0xe
 4324 0702 B9020000 		.4byte	0x2b9
 4325 0706 0E       		.uleb128 0xe
 4326 0707 C1050000 		.4byte	0x5c1
 4327 070b 0E       		.uleb128 0xe
 4328 070c 30000000 		.4byte	0x30
 4329 0710 0E       		.uleb128 0xe
 4330 0711 1B010000 		.4byte	0x11b
 4331 0715 00       		.byte	0x0
 4332 0716 09       		.uleb128 0x9
 4333 0717 04       		.byte	0x4
 4334 0718 F7060000 		.4byte	0x6f7
 4335 071c 13       		.uleb128 0x13
 4336 071d 01       		.byte	0x1
 4337 071e 30000000 		.4byte	0x30
 4338 0722 3B070000 		.4byte	0x73b
 4339 0726 0E       		.uleb128 0xe
 4340 0727 B9020000 		.4byte	0x2b9
 4341 072b 0E       		.uleb128 0xe
 4342 072c 5C050000 		.4byte	0x55c
 4343 0730 0E       		.uleb128 0xe
 4344 0731 30000000 		.4byte	0x30
 4345 0735 0E       		.uleb128 0xe
 4346 0736 1B010000 		.4byte	0x11b
 4347 073a 00       		.byte	0x0
 4348 073b 09       		.uleb128 0x9
 4349 073c 04       		.byte	0x4
 4350 073d 1C070000 		.4byte	0x71c
 4351 0741 08       		.uleb128 0x8
 4352 0742 04       		.byte	0x4
 4353 0743 0D       		.byte	0xd
 4354 0744 59       		.byte	0x59
 4355 0745 58070000 		.4byte	0x758
 4356 0749 07       		.uleb128 0x7
 4357 074a 766D7400 		.ascii	"vmt\000"
 4358 074e 0D       		.byte	0xd
 4359 074f 5B       		.byte	0x5b
 4360 0750 58070000 		.4byte	0x758
 4361 0754 02       		.byte	0x2
 4362 0755 23       		.byte	0x23
 4363 0756 00       		.uleb128 0x0
 4364 0757 00       		.byte	0x0
 4365 0758 09       		.uleb128 0x9
 4366 0759 04       		.byte	0x4
ARM GAS  C:\Users\DNIEL~1\AppData\Local\Temp\ccvGaeHa.s 			page 79


 4367 075a 5E070000 		.4byte	0x75e
 4368 075e 12       		.uleb128 0x12
 4369 075f 3F060000 		.4byte	0x63f
 4370 0763 03       		.uleb128 0x3
 4371 0764 C4060000 		.4byte	.LASF86
 4372 0768 0D       		.byte	0xd
 4373 0769 5D       		.byte	0x5d
 4374 076a 41070000 		.4byte	0x741
 4375 076e 09       		.uleb128 0x9
 4376 076f 04       		.byte	0x4
 4377 0770 39050000 		.4byte	0x539
 4378 0774 04       		.uleb128 0x4
 4379 0775 08       		.byte	0x8
 4380 0776 04       		.byte	0x4
 4381 0777 A1010000 		.4byte	.LASF87
 4382 077b 04       		.uleb128 0x4
 4383 077c 04       		.byte	0x4
 4384 077d 04       		.byte	0x4
 4385 077e 23040000 		.4byte	.LASF88
 4386 0782 04       		.uleb128 0x4
 4387 0783 08       		.byte	0x8
 4388 0784 04       		.byte	0x4
 4389 0785 AB050000 		.4byte	.LASF89
 4390 0789 03       		.uleb128 0x3
 4391 078a AD030000 		.4byte	.LASF90
 4392 078e 0E       		.byte	0xe
 4393 078f 28       		.byte	0x28
 4394 0790 94070000 		.4byte	0x794
 4395 0794 05       		.uleb128 0x5
 4396 0795 7A010000 		.4byte	.LASF91
 4397 0799 04       		.byte	0x4
 4398 079a 0F       		.byte	0xf
 4399 079b 00       		.byte	0x0
 4400 079c AE070000 		.4byte	0x7ae
 4401 07a0 14       		.uleb128 0x14
 4402 07a1 1B060000 		.4byte	.LASF92
 4403 07a5 B9020000 		.4byte	0x2b9
 4404 07a9 02       		.byte	0x2
 4405 07aa 23       		.byte	0x23
 4406 07ab 00       		.uleb128 0x0
 4407 07ac 01       		.byte	0x1
 4408 07ad 00       		.byte	0x0
 4409 07ae 03       		.uleb128 0x3
 4410 07af 5A000000 		.4byte	.LASF93
 4411 07b3 0E       		.byte	0xe
 4412 07b4 66       		.byte	0x66
 4413 07b5 89070000 		.4byte	0x789
 4414 07b9 15       		.uleb128 0x15
 4415 07ba F2010000 		.4byte	.LASF96
 4416 07be 01       		.byte	0x1
 4417 07bf 02       		.byte	0x2
 4418 07c0 18       		.byte	0x18
 4419 07c1 D2070000 		.4byte	0x7d2
 4420 07c5 16       		.uleb128 0x16
 4421 07c6 84010000 		.4byte	.LASF94
 4422 07ca 00       		.sleb128 0
 4423 07cb 16       		.uleb128 0x16
ARM GAS  C:\Users\DNIEL~1\AppData\Local\Temp\ccvGaeHa.s 			page 80


 4424 07cc 44050000 		.4byte	.LASF95
 4425 07d0 01       		.sleb128 1
 4426 07d1 00       		.byte	0x0
 4427 07d2 15       		.uleb128 0x15
 4428 07d3 A1030000 		.4byte	.LASF97
 4429 07d7 01       		.byte	0x1
 4430 07d8 02       		.byte	0x2
 4431 07d9 1D       		.byte	0x1d
 4432 07da 9F080000 		.4byte	0x89f
 4433 07de 16       		.uleb128 0x16
 4434 07df E3010000 		.4byte	.LASF98
 4435 07e3 00       		.sleb128 0
 4436 07e4 16       		.uleb128 0x16
 4437 07e5 EF020000 		.4byte	.LASF99
 4438 07e9 01       		.sleb128 1
 4439 07ea 16       		.uleb128 0x16
 4440 07eb CC050000 		.4byte	.LASF100
 4441 07ef 02       		.sleb128 2
 4442 07f0 16       		.uleb128 0x16
 4443 07f1 77060000 		.4byte	.LASF101
 4444 07f5 03       		.sleb128 3
 4445 07f6 16       		.uleb128 0x16
 4446 07f7 69000000 		.4byte	.LASF102
 4447 07fb 04       		.sleb128 4
 4448 07fc 16       		.uleb128 0x16
 4449 07fd 02070000 		.4byte	.LASF103
 4450 0801 05       		.sleb128 5
 4451 0802 16       		.uleb128 0x16
 4452 0803 14030000 		.4byte	.LASF104
 4453 0807 06       		.sleb128 6
 4454 0808 16       		.uleb128 0x16
 4455 0809 5D010000 		.4byte	.LASF105
 4456 080d 07       		.sleb128 7
 4457 080e 16       		.uleb128 0x16
 4458 080f A7060000 		.4byte	.LASF106
 4459 0813 08       		.sleb128 8
 4460 0814 16       		.uleb128 0x16
 4461 0815 11040000 		.4byte	.LASF107
 4462 0819 09       		.sleb128 9
 4463 081a 16       		.uleb128 0x16
 4464 081b 49000000 		.4byte	.LASF108
 4465 081f 0A       		.sleb128 10
 4466 0820 16       		.uleb128 0x16
 4467 0821 67060000 		.4byte	.LASF109
 4468 0825 0B       		.sleb128 11
 4469 0826 16       		.uleb128 0x16
 4470 0827 25020000 		.4byte	.LASF110
 4471 082b 0C       		.sleb128 12
 4472 082c 16       		.uleb128 0x16
 4473 082d 4A030000 		.4byte	.LASF111
 4474 0831 0D       		.sleb128 13
 4475 0832 16       		.uleb128 0x16
 4476 0833 91020000 		.4byte	.LASF112
 4477 0837 0E       		.sleb128 14
 4478 0838 16       		.uleb128 0x16
 4479 0839 29040000 		.4byte	.LASF113
 4480 083d 0F       		.sleb128 15
ARM GAS  C:\Users\DNIEL~1\AppData\Local\Temp\ccvGaeHa.s 			page 81


 4481 083e 16       		.uleb128 0x16
 4482 083f 42070000 		.4byte	.LASF114
 4483 0843 10       		.sleb128 16
 4484 0844 16       		.uleb128 0x16
 4485 0845 13070000 		.4byte	.LASF115
 4486 0849 11       		.sleb128 17
 4487 084a 16       		.uleb128 0x16
 4488 084b D3030000 		.4byte	.LASF116
 4489 084f 12       		.sleb128 18
 4490 0850 16       		.uleb128 0x16
 4491 0851 07050000 		.4byte	.LASF117
 4492 0855 13       		.sleb128 19
 4493 0856 16       		.uleb128 0x16
 4494 0857 61040000 		.4byte	.LASF118
 4495 085b 14       		.sleb128 20
 4496 085c 16       		.uleb128 0x16
 4497 085d 66050000 		.4byte	.LASF119
 4498 0861 15       		.sleb128 21
 4499 0862 16       		.uleb128 0x16
 4500 0863 D5000000 		.4byte	.LASF120
 4501 0867 16       		.sleb128 22
 4502 0868 16       		.uleb128 0x16
 4503 0869 00000000 		.4byte	.LASF121
 4504 086d 17       		.sleb128 23
 4505 086e 16       		.uleb128 0x16
 4506 086f ED060000 		.4byte	.LASF122
 4507 0873 18       		.sleb128 24
 4508 0874 16       		.uleb128 0x16
 4509 0875 54040000 		.4byte	.LASF123
 4510 0879 19       		.sleb128 25
 4511 087a 16       		.uleb128 0x16
 4512 087b BC030000 		.4byte	.LASF124
 4513 087f 1A       		.sleb128 26
 4514 0880 16       		.uleb128 0x16
 4515 0881 B7050000 		.4byte	.LASF125
 4516 0885 1B       		.sleb128 27
 4517 0886 16       		.uleb128 0x16
 4518 0887 D9050000 		.4byte	.LASF126
 4519 088b 1C       		.sleb128 28
 4520 088c 16       		.uleb128 0x16
 4521 088d 57050000 		.4byte	.LASF127
 4522 0891 1D       		.sleb128 29
 4523 0892 16       		.uleb128 0x16
 4524 0893 17010000 		.4byte	.LASF128
 4525 0897 1E       		.sleb128 30
 4526 0898 16       		.uleb128 0x16
 4527 0899 7B000000 		.4byte	.LASF129
 4528 089d 1F       		.sleb128 31
 4529 089e 00       		.byte	0x0
 4530 089f 17       		.uleb128 0x17
 4531 08a0 55070000 		.4byte	.LASF165
 4532 08a4 01       		.byte	0x1
 4533 08a5 45       		.byte	0x45
 4534 08a6 01       		.byte	0x1
 4535 08a7 00000000 		.4byte	.LFB118
 4536 08ab 1E000000 		.4byte	.LFE118
 4537 08af 00000000 		.4byte	.LLST0
ARM GAS  C:\Users\DNIEL~1\AppData\Local\Temp\ccvGaeHa.s 			page 82


 4538 08b3 E3080000 		.4byte	0x8e3
 4539 08b7 18       		.uleb128 0x18
 4540 08b8 63687000 		.ascii	"chp\000"
 4541 08bc 01       		.byte	0x1
 4542 08bd 45       		.byte	0x45
 4543 08be E3080000 		.4byte	0x8e3
 4544 08c2 38000000 		.4byte	.LLST1
 4545 08c6 19       		.uleb128 0x19
 4546 08c7 666D7400 		.ascii	"fmt\000"
 4547 08cb 01       		.byte	0x1
 4548 08cc 45       		.byte	0x45
 4549 08cd 2E050000 		.4byte	0x52e
 4550 08d1 02       		.byte	0x2
 4551 08d2 91       		.byte	0x91
 4552 08d3 74       		.sleb128 -12
 4553 08d4 1A       		.uleb128 0x1a
 4554 08d5 1B       		.uleb128 0x1b
 4555 08d6 617000   		.ascii	"ap\000"
 4556 08d9 01       		.byte	0x1
 4557 08da 46       		.byte	0x46
 4558 08db AE070000 		.4byte	0x7ae
 4559 08df 02       		.byte	0x2
 4560 08e0 91       		.byte	0x91
 4561 08e1 6C       		.sleb128 -20
 4562 08e2 00       		.byte	0x0
 4563 08e3 09       		.uleb128 0x9
 4564 08e4 04       		.byte	0x4
 4565 08e5 2F060000 		.4byte	0x62f
 4566 08e9 1C       		.uleb128 0x1c
 4567 08ea DB010000 		.4byte	.LASF166
 4568 08ee 02       		.byte	0x2
 4569 08ef CB       		.byte	0xcb
 4570 08f0 01       		.byte	0x1
 4571 08f1 05010000 		.4byte	0x105
 4572 08f5 00000000 		.4byte	.LFB123
 4573 08f9 9C080000 		.4byte	.LFE123
 4574 08fd 4B000000 		.4byte	.LLST2
 4575 0901 5D090000 		.4byte	0x95d
 4576 0905 18       		.uleb128 0x18
 4577 0906 61726700 		.ascii	"arg\000"
 4578 090a 02       		.byte	0x2
 4579 090b CB       		.byte	0xcb
 4580 090c B9020000 		.4byte	0x2b9
 4581 0910 77000000 		.4byte	.LLST3
 4582 0914 1D       		.uleb128 0x1d
 4583 0915 FA030000 		.4byte	.LASF130
 4584 0919 02       		.byte	0x2
 4585 091a CC       		.byte	0xcc
 4586 091b 1B010000 		.4byte	0x11b
 4587 091f 01       		.byte	0x1
 4588 0920 52       		.byte	0x52
 4589 0921 1E       		.uleb128 0x1e
 4590 0922 2C000000 		.4byte	.LBB2
 4591 0926 9C080000 		.4byte	.LBE2
 4592 092a 1F       		.uleb128 0x1f
 4593 092b 17000000 		.4byte	.LASF131
 4594 092f 02       		.byte	0x2
ARM GAS  C:\Users\DNIEL~1\AppData\Local\Temp\ccvGaeHa.s 			page 83


 4595 0930 D2       		.byte	0xd2
 4596 0931 29000000 		.4byte	0x29
 4597 0935 8A000000 		.4byte	.LLST4
 4598 0939 20       		.uleb128 0x20
 4599 093a 6900     		.ascii	"i\000"
 4600 093c 02       		.byte	0x2
 4601 093d D3       		.byte	0xd3
 4602 093e 29000000 		.4byte	0x29
 4603 0942 69030000 		.4byte	.LLST5
 4604 0946 21       		.uleb128 0x21
 4605 0947 00000000 		.4byte	.Ldebug_ranges0+0x0
 4606 094b 22       		.uleb128 0x22
 4607 094c 01       		.byte	0x1
 4608 094d 34020000 		.4byte	.LASF134
 4609 0951 02       		.byte	0x2
 4610 0952 FA       		.byte	0xfa
 4611 0953 29000000 		.4byte	0x29
 4612 0957 01       		.byte	0x1
 4613 0958 1A       		.uleb128 0x1a
 4614 0959 00       		.byte	0x0
 4615 095a 00       		.byte	0x0
 4616 095b 00       		.byte	0x0
 4617 095c 00       		.byte	0x0
 4618 095d 23       		.uleb128 0x23
 4619 095e 01       		.byte	0x1
 4620 095f 95030000 		.4byte	.LASF132
 4621 0963 02       		.byte	0x2
 4622 0964 4B       		.byte	0x4b
 4623 0965 01       		.byte	0x1
 4624 0966 00000000 		.4byte	.LFB119
 4625 096a D2000000 		.4byte	.LFE119
 4626 096e DD030000 		.4byte	.LLST6
 4627 0972 23       		.uleb128 0x23
 4628 0973 01       		.byte	0x1
 4629 0974 EC030000 		.4byte	.LASF133
 4630 0978 02       		.byte	0x2
 4631 0979 6C       		.byte	0x6c
 4632 097a 01       		.byte	0x1
 4633 097b 00000000 		.4byte	.LFB120
 4634 097f 74000000 		.4byte	.LFE120
 4635 0983 FD030000 		.4byte	.LLST7
 4636 0987 24       		.uleb128 0x24
 4637 0988 01       		.byte	0x1
 4638 0989 67030000 		.4byte	.LASF136
 4639 098d 02       		.byte	0x2
 4640 098e 7F       		.byte	0x7f
 4641 098f 01       		.byte	0x1
 4642 0990 00000000 		.4byte	.LFB121
 4643 0994 10010000 		.4byte	.LFE121
 4644 0998 1D040000 		.4byte	.LLST8
 4645 099c B0090000 		.4byte	0x9b0
 4646 09a0 22       		.uleb128 0x22
 4647 09a1 01       		.byte	0x1
 4648 09a2 85050000 		.4byte	.LASF135
 4649 09a6 02       		.byte	0x2
 4650 09a7 81       		.byte	0x81
 4651 09a8 29000000 		.4byte	0x29
ARM GAS  C:\Users\DNIEL~1\AppData\Local\Temp\ccvGaeHa.s 			page 84


 4652 09ac 01       		.byte	0x1
 4653 09ad 1A       		.uleb128 0x1a
 4654 09ae 00       		.byte	0x0
 4655 09af 00       		.byte	0x0
 4656 09b0 24       		.uleb128 0x24
 4657 09b1 01       		.byte	0x1
 4658 09b2 7E030000 		.4byte	.LASF137
 4659 09b6 02       		.byte	0x2
 4660 09b7 A4       		.byte	0xa4
 4661 09b8 01       		.byte	0x1
 4662 09b9 00000000 		.4byte	.LFB122
 4663 09bd F8000000 		.4byte	.LFE122
 4664 09c1 49040000 		.4byte	.LLST9
 4665 09c5 D9090000 		.4byte	0x9d9
 4666 09c9 25       		.uleb128 0x25
 4667 09ca B9000000 		.4byte	.LASF138
 4668 09ce 02       		.byte	0x2
 4669 09cf A4       		.byte	0xa4
 4670 09d0 29000000 		.4byte	0x29
 4671 09d4 69040000 		.4byte	.LLST10
 4672 09d8 00       		.byte	0x0
 4673 09d9 26       		.uleb128 0x26
 4674 09da 01       		.byte	0x1
 4675 09db 13060000 		.4byte	.LASF139
 4676 09df 02       		.byte	0x2
 4677 09e0 AA02     		.2byte	0x2aa
 4678 09e2 01       		.byte	0x1
 4679 09e3 00000000 		.4byte	.LFB124
 4680 09e7 44000000 		.4byte	.LFE124
 4681 09eb 87040000 		.4byte	.LLST11
 4682 09ef 27       		.uleb128 0x27
 4683 09f0 01       		.byte	0x1
 4684 09f1 AD000000 		.4byte	.LASF167
 4685 09f5 02       		.byte	0x2
 4686 09f6 B602     		.2byte	0x2b6
 4687 09f8 01       		.byte	0x1
 4688 09f9 BC000000 		.4byte	0xbc
 4689 09fd 00000000 		.4byte	.LFB125
 4690 0a01 14000000 		.4byte	.LFE125
 4691 0a05 02       		.byte	0x2
 4692 0a06 7D       		.byte	0x7d
 4693 0a07 00       		.sleb128 0
 4694 0a08 1C0A0000 		.4byte	0xa1c
 4695 0a0c 28       		.uleb128 0x28
 4696 0a0d 636800   		.ascii	"ch\000"
 4697 0a10 02       		.byte	0x2
 4698 0a11 B602     		.2byte	0x2b6
 4699 0a13 49000000 		.4byte	0x49
 4700 0a17 B3040000 		.4byte	.LLST12
 4701 0a1b 00       		.byte	0x0
 4702 0a1c 29       		.uleb128 0x29
 4703 0a1d 01       		.byte	0x1
 4704 0a1e 54020000 		.4byte	.LASF140
 4705 0a22 02       		.byte	0x2
 4706 0a23 BC02     		.2byte	0x2bc
 4707 0a25 01       		.byte	0x1
 4708 0a26 00000000 		.4byte	.LFB126
ARM GAS  C:\Users\DNIEL~1\AppData\Local\Temp\ccvGaeHa.s 			page 85


 4709 0a2a 3C010000 		.4byte	.LFE126
 4710 0a2e BB040000 		.4byte	.LLST13
 4711 0a32 750A0000 		.4byte	0xa75
 4712 0a36 28       		.uleb128 0x28
 4713 0a37 63687000 		.ascii	"chp\000"
 4714 0a3b 02       		.byte	0x2
 4715 0a3c BC02     		.2byte	0x2bc
 4716 0a3e E3080000 		.4byte	0x8e3
 4717 0a42 DB040000 		.4byte	.LLST14
 4718 0a46 2A       		.uleb128 0x2a
 4719 0a47 E8060000 		.4byte	.LASF141
 4720 0a4b 02       		.byte	0x2
 4721 0a4c BC02     		.2byte	0x2bc
 4722 0a4e 29000000 		.4byte	0x29
 4723 0a52 F9040000 		.4byte	.LLST15
 4724 0a56 2A       		.uleb128 0x2a
 4725 0a57 25070000 		.4byte	.LASF142
 4726 0a5b 02       		.byte	0x2
 4727 0a5c BC02     		.2byte	0x2bc
 4728 0a5e 750A0000 		.4byte	0xa75
 4729 0a62 0C050000 		.4byte	.LLST16
 4730 0a66 2B       		.uleb128 0x2b
 4731 0a67 6900     		.ascii	"i\000"
 4732 0a69 02       		.byte	0x2
 4733 0a6a C002     		.2byte	0x2c0
 4734 0a6c 29000000 		.4byte	0x29
 4735 0a70 1F050000 		.4byte	.LLST17
 4736 0a74 00       		.byte	0x0
 4737 0a75 09       		.uleb128 0x9
 4738 0a76 04       		.byte	0x4
 4739 0a77 6E070000 		.4byte	0x76e
 4740 0a7b 29       		.uleb128 0x29
 4741 0a7c 01       		.byte	0x1
 4742 0a7d D7020000 		.4byte	.LASF143
 4743 0a81 02       		.byte	0x2
 4744 0a82 D702     		.2byte	0x2d7
 4745 0a84 01       		.byte	0x1
 4746 0a85 00000000 		.4byte	.LFB127
 4747 0a89 50010000 		.4byte	.LFE127
 4748 0a8d 9F050000 		.4byte	.LLST18
 4749 0a91 100B0000 		.4byte	0xb10
 4750 0a95 28       		.uleb128 0x28
 4751 0a96 63687000 		.ascii	"chp\000"
 4752 0a9a 02       		.byte	0x2
 4753 0a9b D702     		.2byte	0x2d7
 4754 0a9d E3080000 		.4byte	0x8e3
 4755 0aa1 BF050000 		.4byte	.LLST19
 4756 0aa5 2A       		.uleb128 0x2a
 4757 0aa6 E8060000 		.4byte	.LASF141
 4758 0aaa 02       		.byte	0x2
 4759 0aab D702     		.2byte	0x2d7
 4760 0aad 29000000 		.4byte	0x29
 4761 0ab1 DD050000 		.4byte	.LLST20
 4762 0ab5 2A       		.uleb128 0x2a
 4763 0ab6 25070000 		.4byte	.LASF142
 4764 0aba 02       		.byte	0x2
 4765 0abb D702     		.2byte	0x2d7
ARM GAS  C:\Users\DNIEL~1\AppData\Local\Temp\ccvGaeHa.s 			page 86


 4766 0abd 750A0000 		.4byte	0xa75
 4767 0ac1 06060000 		.4byte	.LLST21
 4768 0ac5 2C       		.uleb128 0x2c
 4769 0ac6 636800   		.ascii	"ch\000"
 4770 0ac9 02       		.byte	0x2
 4771 0aca D902     		.2byte	0x2d9
 4772 0acc D2070000 		.4byte	0x7d2
 4773 0ad0 2D       		.uleb128 0x2d
 4774 0ad1 8F030000 		.4byte	.LASF168
 4775 0ad5 02       		.byte	0x2
 4776 0ad6 0C03     		.2byte	0x30c
 4777 0ad8 26000000 		.4byte	.L158
 4778 0adc 21       		.uleb128 0x21
 4779 0add 78000000 		.4byte	.Ldebug_ranges0+0x78
 4780 0ae1 2E       		.uleb128 0x2e
 4781 0ae2 01       		.byte	0x1
 4782 0ae3 26030000 		.4byte	.LASF169
 4783 0ae7 0F       		.byte	0xf
 4784 0ae8 00       		.byte	0x0
 4785 0ae9 29000000 		.4byte	0x29
 4786 0aed 01       		.byte	0x1
 4787 0aee F40A0000 		.4byte	0xaf4
 4788 0af2 1A       		.uleb128 0x1a
 4789 0af3 00       		.byte	0x0
 4790 0af4 1E       		.uleb128 0x1e
 4791 0af5 6A000000 		.4byte	.LBB18
 4792 0af9 7C000000 		.4byte	.LBE18
 4793 0afd 2F       		.uleb128 0x2f
 4794 0afe 01       		.byte	0x1
 4795 0aff 7C040000 		.4byte	.LASF144
 4796 0b03 02       		.byte	0x2
 4797 0b04 0303     		.2byte	0x303
 4798 0b06 29000000 		.4byte	0x29
 4799 0b0a 01       		.byte	0x1
 4800 0b0b 1A       		.uleb128 0x1a
 4801 0b0c 00       		.byte	0x0
 4802 0b0d 00       		.byte	0x0
 4803 0b0e 00       		.byte	0x0
 4804 0b0f 00       		.byte	0x0
 4805 0b10 29       		.uleb128 0x29
 4806 0b11 01       		.byte	0x1
 4807 0b12 B0010000 		.4byte	.LASF145
 4808 0b16 02       		.byte	0x2
 4809 0b17 1503     		.2byte	0x315
 4810 0b19 01       		.byte	0x1
 4811 0b1a 00000000 		.4byte	.LFB128
 4812 0b1e 58000000 		.4byte	.LFE128
 4813 0b22 3A060000 		.4byte	.LLST22
 4814 0b26 6B0B0000 		.4byte	0xb6b
 4815 0b2a 28       		.uleb128 0x28
 4816 0b2b 63687000 		.ascii	"chp\000"
 4817 0b2f 02       		.byte	0x2
 4818 0b30 1503     		.2byte	0x315
 4819 0b32 E3080000 		.4byte	0x8e3
 4820 0b36 5A060000 		.4byte	.LLST23
 4821 0b3a 2A       		.uleb128 0x2a
 4822 0b3b E8060000 		.4byte	.LASF141
ARM GAS  C:\Users\DNIEL~1\AppData\Local\Temp\ccvGaeHa.s 			page 87


 4823 0b3f 02       		.byte	0x2
 4824 0b40 1503     		.2byte	0x315
 4825 0b42 29000000 		.4byte	0x29
 4826 0b46 78060000 		.4byte	.LLST24
 4827 0b4a 2A       		.uleb128 0x2a
 4828 0b4b 25070000 		.4byte	.LASF142
 4829 0b4f 02       		.byte	0x2
 4830 0b50 1503     		.2byte	0x315
 4831 0b52 750A0000 		.4byte	0xa75
 4832 0b56 8B060000 		.4byte	.LLST25
 4833 0b5a 30       		.uleb128 0x30
 4834 0b5b 90010000 		.4byte	.LASF146
 4835 0b5f 02       		.byte	0x2
 4836 0b60 1903     		.2byte	0x319
 4837 0b62 6D000000 		.4byte	0x6d
 4838 0b66 9E060000 		.4byte	.LLST26
 4839 0b6a 00       		.byte	0x0
 4840 0b6b 31       		.uleb128 0x31
 4841 0b6c 62000000 		.4byte	.LASF147
 4842 0b70 09       		.byte	0x9
 4843 0b71 F5       		.byte	0xf5
 4844 0b72 3E040000 		.4byte	0x43e
 4845 0b76 01       		.byte	0x1
 4846 0b77 01       		.byte	0x1
 4847 0b78 31       		.uleb128 0x31
 4848 0b79 99060000 		.4byte	.LASF148
 4849 0b7d 0A       		.byte	0xa
 4850 0b7e 6F       		.byte	0x6f
 4851 0b7f A6040000 		.4byte	0x4a6
 4852 0b83 01       		.byte	0x1
 4853 0b84 01       		.byte	0x1
 4854 0b85 32       		.uleb128 0x32
 4855 0b86 C8000000 		.4byte	.LASF149
 4856 0b8a 10       		.byte	0x10
 4857 0b8b 9806     		.2byte	0x698
 4858 0b8d 3A060000 		.4byte	0x63a
 4859 0b91 01       		.byte	0x1
 4860 0b92 01       		.byte	0x1
 4861 0b93 31       		.uleb128 0x31
 4862 0b94 3D000000 		.4byte	.LASF150
 4863 0b98 02       		.byte	0x2
 4864 0b99 3F       		.byte	0x3f
 4865 0b9a D2070000 		.4byte	0x7d2
 4866 0b9e 01       		.byte	0x1
 4867 0b9f 01       		.byte	0x1
 4868 0ba0 33       		.uleb128 0x33
 4869 0ba1 7F000000 		.4byte	0x7f
 4870 0ba5 B00B0000 		.4byte	0xbb0
 4871 0ba9 34       		.uleb128 0x34
 4872 0baa 3B000000 		.4byte	0x3b
 4873 0bae 20       		.byte	0x20
 4874 0baf 00       		.byte	0x0
 4875 0bb0 1D       		.uleb128 0x1d
 4876 0bb1 AE020000 		.4byte	.LASF151
 4877 0bb5 02       		.byte	0x2
 4878 0bb6 41       		.byte	0x41
 4879 0bb7 A00B0000 		.4byte	0xba0
ARM GAS  C:\Users\DNIEL~1\AppData\Local\Temp\ccvGaeHa.s 			page 88


 4880 0bbb 05       		.byte	0x5
 4881 0bbc 03       		.byte	0x3
 4882 0bbd 00000000 		.4byte	dspValue
 4883 0bc1 1D       		.uleb128 0x1d
 4884 0bc2 32000000 		.4byte	.LASF152
 4885 0bc6 02       		.byte	0x2
 4886 0bc7 42       		.byte	0x42
 4887 0bc8 29000000 		.4byte	0x29
 4888 0bcc 05       		.byte	0x5
 4889 0bcd 03       		.byte	0x3
 4890 0bce 00000000 		.4byte	tasknumber
 4891 0bd2 1D       		.uleb128 0x1d
 4892 0bd3 55060000 		.4byte	.LASF153
 4893 0bd7 02       		.byte	0x2
 4894 0bd8 43       		.byte	0x43
 4895 0bd9 6D000000 		.4byte	0x6d
 4896 0bdd 05       		.byte	0x5
 4897 0bde 03       		.byte	0x3
 4898 0bdf 00000000 		.4byte	bus_status
 4899 0be3 33       		.uleb128 0x33
 4900 0be4 BC000000 		.4byte	0xbc
 4901 0be8 F30B0000 		.4byte	0xbf3
 4902 0bec 34       		.uleb128 0x34
 4903 0bed 3B000000 		.4byte	0x3b
 4904 0bf1 07       		.byte	0x7
 4905 0bf2 00       		.byte	0x0
 4906 0bf3 1D       		.uleb128 0x1d
 4907 0bf4 E6040000 		.4byte	.LASF154
 4908 0bf8 02       		.byte	0x2
 4909 0bf9 46       		.byte	0x46
 4910 0bfa E30B0000 		.4byte	0xbe3
 4911 0bfe 05       		.byte	0x5
 4912 0bff 03       		.byte	0x3
 4913 0c00 00000000 		.4byte	bus_bit
 4914 0c04 35       		.uleb128 0x35
 4915 0c05 646200   		.ascii	"db\000"
 4916 0c08 02       		.byte	0x2
 4917 0c09 48       		.byte	0x48
 4918 0c0a 29000000 		.4byte	0x29
 4919 0c0e 01       		.byte	0x1
 4920 0c0f 01       		.byte	0x1
 4921 0c10 31       		.uleb128 0x31
 4922 0c11 31060000 		.4byte	.LASF155
 4923 0c15 02       		.byte	0x2
 4924 0c16 C1       		.byte	0xc1
 4925 0c17 29000000 		.4byte	0x29
 4926 0c1b 01       		.byte	0x1
 4927 0c1c 01       		.byte	0x1
 4928 0c1d 1D       		.uleb128 0x1d
 4929 0c1e 4C060000 		.4byte	.LASF156
 4930 0c22 02       		.byte	0x2
 4931 0c23 C2       		.byte	0xc2
 4932 0c24 91000000 		.4byte	0x91
 4933 0c28 05       		.byte	0x5
 4934 0c29 03       		.byte	0x3
 4935 0c2a 00000000 		.4byte	bus_read
 4936 0c2e 1D       		.uleb128 0x1d
ARM GAS  C:\Users\DNIEL~1\AppData\Local\Temp\ccvGaeHa.s 			page 89


 4937 0c2f BA060000 		.4byte	.LASF157
 4938 0c33 02       		.byte	0x2
 4939 0c34 C5       		.byte	0xc5
 4940 0c35 6D000000 		.4byte	0x6d
 4941 0c39 05       		.byte	0x5
 4942 0c3a 03       		.byte	0x3
 4943 0c3b 00000000 		.4byte	bus_bites
 4944 0c3f 33       		.uleb128 0x33
 4945 0c40 BB020000 		.4byte	0x2bb
 4946 0c44 4F0C0000 		.4byte	0xc4f
 4947 0c48 34       		.uleb128 0x34
 4948 0c49 3B000000 		.4byte	0x3b
 4949 0c4d 59       		.byte	0x59
 4950 0c4e 00       		.byte	0x0
 4951 0c4f 1D       		.uleb128 0x1d
 4952 0c50 87000000 		.4byte	.LASF158
 4953 0c54 02       		.byte	0x2
 4954 0c55 CA       		.byte	0xca
 4955 0c56 3F0C0000 		.4byte	0xc3f
 4956 0c5a 05       		.byte	0x5
 4957 0c5b 03       		.byte	0x3
 4958 0c5c 00000000 		.4byte	wadspTask
 4959 0c60 31       		.uleb128 0x31
 4960 0c61 62000000 		.4byte	.LASF147
 4961 0c65 09       		.byte	0x9
 4962 0c66 F5       		.byte	0xf5
 4963 0c67 3E040000 		.4byte	0x43e
 4964 0c6b 01       		.byte	0x1
 4965 0c6c 01       		.byte	0x1
 4966 0c6d 31       		.uleb128 0x31
 4967 0c6e 99060000 		.4byte	.LASF148
 4968 0c72 0A       		.byte	0xa
 4969 0c73 6F       		.byte	0x6f
 4970 0c74 A6040000 		.4byte	0x4a6
 4971 0c78 01       		.byte	0x1
 4972 0c79 01       		.byte	0x1
 4973 0c7a 32       		.uleb128 0x32
 4974 0c7b C8000000 		.4byte	.LASF149
 4975 0c7f 10       		.byte	0x10
 4976 0c80 9806     		.2byte	0x698
 4977 0c82 3A060000 		.4byte	0x63a
 4978 0c86 01       		.byte	0x1
 4979 0c87 01       		.byte	0x1
 4980 0c88 36       		.uleb128 0x36
 4981 0c89 A5020000 		.4byte	.LASF159
 4982 0c8d 02       		.byte	0x2
 4983 0c8e 1B       		.byte	0x1b
 4984 0c8f B9070000 		.4byte	0x7b9
 4985 0c93 01       		.byte	0x1
 4986 0c94 05       		.byte	0x5
 4987 0c95 03       		.byte	0x3
 4988 0c96 00000000 		.4byte	dspstate
 4989 0c9a 36       		.uleb128 0x36
 4990 0c9b 3D000000 		.4byte	.LASF150
 4991 0c9f 02       		.byte	0x2
 4992 0ca0 3F       		.byte	0x3f
 4993 0ca1 D2070000 		.4byte	0x7d2
ARM GAS  C:\Users\DNIEL~1\AppData\Local\Temp\ccvGaeHa.s 			page 90


 4994 0ca5 01       		.byte	0x1
 4995 0ca6 05       		.byte	0x5
 4996 0ca7 03       		.byte	0x3
 4997 0ca8 00000000 		.4byte	dspmessages
 4998 0cac 36       		.uleb128 0x36
 4999 0cad 27060000 		.4byte	.LASF160
 5000 0cb1 02       		.byte	0x2
 5001 0cb2 44       		.byte	0x44
 5002 0cb3 BC000000 		.4byte	0xbc
 5003 0cb7 01       		.byte	0x1
 5004 0cb8 05       		.byte	0x5
 5005 0cb9 03       		.byte	0x3
 5006 0cba 00000000 		.4byte	dsp_activ
 5007 0cbe 37       		.uleb128 0x37
 5008 0cbf 6300     		.ascii	"c\000"
 5009 0cc1 02       		.byte	0x2
 5010 0cc2 45       		.byte	0x45
 5011 0cc3 49000000 		.4byte	0x49
 5012 0cc7 01       		.byte	0x1
 5013 0cc8 05       		.byte	0x5
 5014 0cc9 03       		.byte	0x3
 5015 0cca 00000000 		.4byte	c
 5016 0cce 37       		.uleb128 0x37
 5017 0ccf 646200   		.ascii	"db\000"
 5018 0cd2 02       		.byte	0x2
 5019 0cd3 48       		.byte	0x48
 5020 0cd4 29000000 		.4byte	0x29
 5021 0cd8 01       		.byte	0x1
 5022 0cd9 05       		.byte	0x5
 5023 0cda 03       		.byte	0x3
 5024 0cdb 00000000 		.4byte	db
 5025 0cdf 37       		.uleb128 0x37
 5026 0ce0 64623200 		.ascii	"db2\000"
 5027 0ce4 02       		.byte	0x2
 5028 0ce5 49       		.byte	0x49
 5029 0ce6 29000000 		.4byte	0x29
 5030 0cea 01       		.byte	0x1
 5031 0ceb 05       		.byte	0x5
 5032 0cec 03       		.byte	0x3
 5033 0ced 00000000 		.4byte	db2
 5034 0cf1 36       		.uleb128 0x36
 5035 0cf2 31060000 		.4byte	.LASF155
 5036 0cf6 02       		.byte	0x2
 5037 0cf7 C1       		.byte	0xc1
 5038 0cf8 29000000 		.4byte	0x29
 5039 0cfc 01       		.byte	0x1
 5040 0cfd 05       		.byte	0x5
 5041 0cfe 03       		.byte	0x3
 5042 0cff 00000000 		.4byte	szamlalo
 5043 0d03 36       		.uleb128 0x36
 5044 0d04 BD010000 		.4byte	.LASF161
 5045 0d08 02       		.byte	0x2
 5046 0d09 C3       		.byte	0xc3
 5047 0d0a BC000000 		.4byte	0xbc
 5048 0d0e 01       		.byte	0x1
 5049 0d0f 05       		.byte	0x5
 5050 0d10 03       		.byte	0x3
ARM GAS  C:\Users\DNIEL~1\AppData\Local\Temp\ccvGaeHa.s 			page 91


 5051 0d11 00000000 		.4byte	cruise_assis
 5052 0d15 00       		.byte	0x0
 5053              		.section	.debug_abbrev
 5054 0000 01       		.uleb128 0x1
 5055 0001 11       		.uleb128 0x11
 5056 0002 01       		.byte	0x1
 5057 0003 25       		.uleb128 0x25
 5058 0004 0E       		.uleb128 0xe
 5059 0005 13       		.uleb128 0x13
 5060 0006 0B       		.uleb128 0xb
 5061 0007 03       		.uleb128 0x3
 5062 0008 0E       		.uleb128 0xe
 5063 0009 1B       		.uleb128 0x1b
 5064 000a 0E       		.uleb128 0xe
 5065 000b 11       		.uleb128 0x11
 5066 000c 01       		.uleb128 0x1
 5067 000d 52       		.uleb128 0x52
 5068 000e 01       		.uleb128 0x1
 5069 000f 55       		.uleb128 0x55
 5070 0010 06       		.uleb128 0x6
 5071 0011 10       		.uleb128 0x10
 5072 0012 06       		.uleb128 0x6
 5073 0013 00       		.byte	0x0
 5074 0014 00       		.byte	0x0
 5075 0015 02       		.uleb128 0x2
 5076 0016 24       		.uleb128 0x24
 5077 0017 00       		.byte	0x0
 5078 0018 0B       		.uleb128 0xb
 5079 0019 0B       		.uleb128 0xb
 5080 001a 3E       		.uleb128 0x3e
 5081 001b 0B       		.uleb128 0xb
 5082 001c 03       		.uleb128 0x3
 5083 001d 08       		.uleb128 0x8
 5084 001e 00       		.byte	0x0
 5085 001f 00       		.byte	0x0
 5086 0020 03       		.uleb128 0x3
 5087 0021 16       		.uleb128 0x16
 5088 0022 00       		.byte	0x0
 5089 0023 03       		.uleb128 0x3
 5090 0024 0E       		.uleb128 0xe
 5091 0025 3A       		.uleb128 0x3a
 5092 0026 0B       		.uleb128 0xb
 5093 0027 3B       		.uleb128 0x3b
 5094 0028 0B       		.uleb128 0xb
 5095 0029 49       		.uleb128 0x49
 5096 002a 13       		.uleb128 0x13
 5097 002b 00       		.byte	0x0
 5098 002c 00       		.byte	0x0
 5099 002d 04       		.uleb128 0x4
 5100 002e 24       		.uleb128 0x24
 5101 002f 00       		.byte	0x0
 5102 0030 0B       		.uleb128 0xb
 5103 0031 0B       		.uleb128 0xb
 5104 0032 3E       		.uleb128 0x3e
 5105 0033 0B       		.uleb128 0xb
 5106 0034 03       		.uleb128 0x3
 5107 0035 0E       		.uleb128 0xe
ARM GAS  C:\Users\DNIEL~1\AppData\Local\Temp\ccvGaeHa.s 			page 92


 5108 0036 00       		.byte	0x0
 5109 0037 00       		.byte	0x0
 5110 0038 05       		.uleb128 0x5
 5111 0039 13       		.uleb128 0x13
 5112 003a 01       		.byte	0x1
 5113 003b 03       		.uleb128 0x3
 5114 003c 0E       		.uleb128 0xe
 5115 003d 0B       		.uleb128 0xb
 5116 003e 0B       		.uleb128 0xb
 5117 003f 3A       		.uleb128 0x3a
 5118 0040 0B       		.uleb128 0xb
 5119 0041 3B       		.uleb128 0x3b
 5120 0042 0B       		.uleb128 0xb
 5121 0043 01       		.uleb128 0x1
 5122 0044 13       		.uleb128 0x13
 5123 0045 00       		.byte	0x0
 5124 0046 00       		.byte	0x0
 5125 0047 06       		.uleb128 0x6
 5126 0048 0D       		.uleb128 0xd
 5127 0049 00       		.byte	0x0
 5128 004a 03       		.uleb128 0x3
 5129 004b 0E       		.uleb128 0xe
 5130 004c 3A       		.uleb128 0x3a
 5131 004d 0B       		.uleb128 0xb
 5132 004e 3B       		.uleb128 0x3b
 5133 004f 0B       		.uleb128 0xb
 5134 0050 49       		.uleb128 0x49
 5135 0051 13       		.uleb128 0x13
 5136 0052 38       		.uleb128 0x38
 5137 0053 0A       		.uleb128 0xa
 5138 0054 00       		.byte	0x0
 5139 0055 00       		.byte	0x0
 5140 0056 07       		.uleb128 0x7
 5141 0057 0D       		.uleb128 0xd
 5142 0058 00       		.byte	0x0
 5143 0059 03       		.uleb128 0x3
 5144 005a 08       		.uleb128 0x8
 5145 005b 3A       		.uleb128 0x3a
 5146 005c 0B       		.uleb128 0xb
 5147 005d 3B       		.uleb128 0x3b
 5148 005e 0B       		.uleb128 0xb
 5149 005f 49       		.uleb128 0x49
 5150 0060 13       		.uleb128 0x13
 5151 0061 38       		.uleb128 0x38
 5152 0062 0A       		.uleb128 0xa
 5153 0063 00       		.byte	0x0
 5154 0064 00       		.byte	0x0
 5155 0065 08       		.uleb128 0x8
 5156 0066 13       		.uleb128 0x13
 5157 0067 01       		.byte	0x1
 5158 0068 0B       		.uleb128 0xb
 5159 0069 0B       		.uleb128 0xb
 5160 006a 3A       		.uleb128 0x3a
 5161 006b 0B       		.uleb128 0xb
 5162 006c 3B       		.uleb128 0x3b
 5163 006d 0B       		.uleb128 0xb
 5164 006e 01       		.uleb128 0x1
ARM GAS  C:\Users\DNIEL~1\AppData\Local\Temp\ccvGaeHa.s 			page 93


 5165 006f 13       		.uleb128 0x13
 5166 0070 00       		.byte	0x0
 5167 0071 00       		.byte	0x0
 5168 0072 09       		.uleb128 0x9
 5169 0073 0F       		.uleb128 0xf
 5170 0074 00       		.byte	0x0
 5171 0075 0B       		.uleb128 0xb
 5172 0076 0B       		.uleb128 0xb
 5173 0077 49       		.uleb128 0x49
 5174 0078 13       		.uleb128 0x13
 5175 0079 00       		.byte	0x0
 5176 007a 00       		.byte	0x0
 5177 007b 0A       		.uleb128 0xa
 5178 007c 0F       		.uleb128 0xf
 5179 007d 00       		.byte	0x0
 5180 007e 0B       		.uleb128 0xb
 5181 007f 0B       		.uleb128 0xb
 5182 0080 00       		.byte	0x0
 5183 0081 00       		.byte	0x0
 5184 0082 0B       		.uleb128 0xb
 5185 0083 13       		.uleb128 0x13
 5186 0084 01       		.byte	0x1
 5187 0085 03       		.uleb128 0x3
 5188 0086 0E       		.uleb128 0xe
 5189 0087 0B       		.uleb128 0xb
 5190 0088 0B       		.uleb128 0xb
 5191 0089 3A       		.uleb128 0x3a
 5192 008a 0B       		.uleb128 0xb
 5193 008b 3B       		.uleb128 0x3b
 5194 008c 05       		.uleb128 0x5
 5195 008d 01       		.uleb128 0x1
 5196 008e 13       		.uleb128 0x13
 5197 008f 00       		.byte	0x0
 5198 0090 00       		.byte	0x0
 5199 0091 0C       		.uleb128 0xc
 5200 0092 0D       		.uleb128 0xd
 5201 0093 00       		.byte	0x0
 5202 0094 03       		.uleb128 0x3
 5203 0095 08       		.uleb128 0x8
 5204 0096 3A       		.uleb128 0x3a
 5205 0097 0B       		.uleb128 0xb
 5206 0098 3B       		.uleb128 0x3b
 5207 0099 05       		.uleb128 0x5
 5208 009a 49       		.uleb128 0x49
 5209 009b 13       		.uleb128 0x13
 5210 009c 38       		.uleb128 0x38
 5211 009d 0A       		.uleb128 0xa
 5212 009e 00       		.byte	0x0
 5213 009f 00       		.byte	0x0
 5214 00a0 0D       		.uleb128 0xd
 5215 00a1 15       		.uleb128 0x15
 5216 00a2 01       		.byte	0x1
 5217 00a3 27       		.uleb128 0x27
 5218 00a4 0C       		.uleb128 0xc
 5219 00a5 01       		.uleb128 0x1
 5220 00a6 13       		.uleb128 0x13
 5221 00a7 00       		.byte	0x0
ARM GAS  C:\Users\DNIEL~1\AppData\Local\Temp\ccvGaeHa.s 			page 94


 5222 00a8 00       		.byte	0x0
 5223 00a9 0E       		.uleb128 0xe
 5224 00aa 05       		.uleb128 0x5
 5225 00ab 00       		.byte	0x0
 5226 00ac 49       		.uleb128 0x49
 5227 00ad 13       		.uleb128 0x13
 5228 00ae 00       		.byte	0x0
 5229 00af 00       		.byte	0x0
 5230 00b0 0F       		.uleb128 0xf
 5231 00b1 35       		.uleb128 0x35
 5232 00b2 00       		.byte	0x0
 5233 00b3 49       		.uleb128 0x49
 5234 00b4 13       		.uleb128 0x13
 5235 00b5 00       		.byte	0x0
 5236 00b6 00       		.byte	0x0
 5237 00b7 10       		.uleb128 0x10
 5238 00b8 17       		.uleb128 0x17
 5239 00b9 01       		.byte	0x1
 5240 00ba 0B       		.uleb128 0xb
 5241 00bb 0B       		.uleb128 0xb
 5242 00bc 3A       		.uleb128 0x3a
 5243 00bd 0B       		.uleb128 0xb
 5244 00be 3B       		.uleb128 0x3b
 5245 00bf 0B       		.uleb128 0xb
 5246 00c0 01       		.uleb128 0x1
 5247 00c1 13       		.uleb128 0x13
 5248 00c2 00       		.byte	0x0
 5249 00c3 00       		.byte	0x0
 5250 00c4 11       		.uleb128 0x11
 5251 00c5 0D       		.uleb128 0xd
 5252 00c6 00       		.byte	0x0
 5253 00c7 03       		.uleb128 0x3
 5254 00c8 0E       		.uleb128 0xe
 5255 00c9 3A       		.uleb128 0x3a
 5256 00ca 0B       		.uleb128 0xb
 5257 00cb 3B       		.uleb128 0x3b
 5258 00cc 0B       		.uleb128 0xb
 5259 00cd 49       		.uleb128 0x49
 5260 00ce 13       		.uleb128 0x13
 5261 00cf 00       		.byte	0x0
 5262 00d0 00       		.byte	0x0
 5263 00d1 12       		.uleb128 0x12
 5264 00d2 26       		.uleb128 0x26
 5265 00d3 00       		.byte	0x0
 5266 00d4 49       		.uleb128 0x49
 5267 00d5 13       		.uleb128 0x13
 5268 00d6 00       		.byte	0x0
 5269 00d7 00       		.byte	0x0
 5270 00d8 13       		.uleb128 0x13
 5271 00d9 15       		.uleb128 0x15
 5272 00da 01       		.byte	0x1
 5273 00db 27       		.uleb128 0x27
 5274 00dc 0C       		.uleb128 0xc
 5275 00dd 49       		.uleb128 0x49
 5276 00de 13       		.uleb128 0x13
 5277 00df 01       		.uleb128 0x1
 5278 00e0 13       		.uleb128 0x13
ARM GAS  C:\Users\DNIEL~1\AppData\Local\Temp\ccvGaeHa.s 			page 95


 5279 00e1 00       		.byte	0x0
 5280 00e2 00       		.byte	0x0
 5281 00e3 14       		.uleb128 0x14
 5282 00e4 0D       		.uleb128 0xd
 5283 00e5 00       		.byte	0x0
 5284 00e6 03       		.uleb128 0x3
 5285 00e7 0E       		.uleb128 0xe
 5286 00e8 49       		.uleb128 0x49
 5287 00e9 13       		.uleb128 0x13
 5288 00ea 38       		.uleb128 0x38
 5289 00eb 0A       		.uleb128 0xa
 5290 00ec 34       		.uleb128 0x34
 5291 00ed 0C       		.uleb128 0xc
 5292 00ee 00       		.byte	0x0
 5293 00ef 00       		.byte	0x0
 5294 00f0 15       		.uleb128 0x15
 5295 00f1 04       		.uleb128 0x4
 5296 00f2 01       		.byte	0x1
 5297 00f3 03       		.uleb128 0x3
 5298 00f4 0E       		.uleb128 0xe
 5299 00f5 0B       		.uleb128 0xb
 5300 00f6 0B       		.uleb128 0xb
 5301 00f7 3A       		.uleb128 0x3a
 5302 00f8 0B       		.uleb128 0xb
 5303 00f9 3B       		.uleb128 0x3b
 5304 00fa 0B       		.uleb128 0xb
 5305 00fb 01       		.uleb128 0x1
 5306 00fc 13       		.uleb128 0x13
 5307 00fd 00       		.byte	0x0
 5308 00fe 00       		.byte	0x0
 5309 00ff 16       		.uleb128 0x16
 5310 0100 28       		.uleb128 0x28
 5311 0101 00       		.byte	0x0
 5312 0102 03       		.uleb128 0x3
 5313 0103 0E       		.uleb128 0xe
 5314 0104 1C       		.uleb128 0x1c
 5315 0105 0D       		.uleb128 0xd
 5316 0106 00       		.byte	0x0
 5317 0107 00       		.byte	0x0
 5318 0108 17       		.uleb128 0x17
 5319 0109 2E       		.uleb128 0x2e
 5320 010a 01       		.byte	0x1
 5321 010b 03       		.uleb128 0x3
 5322 010c 0E       		.uleb128 0xe
 5323 010d 3A       		.uleb128 0x3a
 5324 010e 0B       		.uleb128 0xb
 5325 010f 3B       		.uleb128 0x3b
 5326 0110 0B       		.uleb128 0xb
 5327 0111 27       		.uleb128 0x27
 5328 0112 0C       		.uleb128 0xc
 5329 0113 11       		.uleb128 0x11
 5330 0114 01       		.uleb128 0x1
 5331 0115 12       		.uleb128 0x12
 5332 0116 01       		.uleb128 0x1
 5333 0117 40       		.uleb128 0x40
 5334 0118 06       		.uleb128 0x6
 5335 0119 01       		.uleb128 0x1
ARM GAS  C:\Users\DNIEL~1\AppData\Local\Temp\ccvGaeHa.s 			page 96


 5336 011a 13       		.uleb128 0x13
 5337 011b 00       		.byte	0x0
 5338 011c 00       		.byte	0x0
 5339 011d 18       		.uleb128 0x18
 5340 011e 05       		.uleb128 0x5
 5341 011f 00       		.byte	0x0
 5342 0120 03       		.uleb128 0x3
 5343 0121 08       		.uleb128 0x8
 5344 0122 3A       		.uleb128 0x3a
 5345 0123 0B       		.uleb128 0xb
 5346 0124 3B       		.uleb128 0x3b
 5347 0125 0B       		.uleb128 0xb
 5348 0126 49       		.uleb128 0x49
 5349 0127 13       		.uleb128 0x13
 5350 0128 02       		.uleb128 0x2
 5351 0129 06       		.uleb128 0x6
 5352 012a 00       		.byte	0x0
 5353 012b 00       		.byte	0x0
 5354 012c 19       		.uleb128 0x19
 5355 012d 05       		.uleb128 0x5
 5356 012e 00       		.byte	0x0
 5357 012f 03       		.uleb128 0x3
 5358 0130 08       		.uleb128 0x8
 5359 0131 3A       		.uleb128 0x3a
 5360 0132 0B       		.uleb128 0xb
 5361 0133 3B       		.uleb128 0x3b
 5362 0134 0B       		.uleb128 0xb
 5363 0135 49       		.uleb128 0x49
 5364 0136 13       		.uleb128 0x13
 5365 0137 02       		.uleb128 0x2
 5366 0138 0A       		.uleb128 0xa
 5367 0139 00       		.byte	0x0
 5368 013a 00       		.byte	0x0
 5369 013b 1A       		.uleb128 0x1a
 5370 013c 18       		.uleb128 0x18
 5371 013d 00       		.byte	0x0
 5372 013e 00       		.byte	0x0
 5373 013f 00       		.byte	0x0
 5374 0140 1B       		.uleb128 0x1b
 5375 0141 34       		.uleb128 0x34
 5376 0142 00       		.byte	0x0
 5377 0143 03       		.uleb128 0x3
 5378 0144 08       		.uleb128 0x8
 5379 0145 3A       		.uleb128 0x3a
 5380 0146 0B       		.uleb128 0xb
 5381 0147 3B       		.uleb128 0x3b
 5382 0148 0B       		.uleb128 0xb
 5383 0149 49       		.uleb128 0x49
 5384 014a 13       		.uleb128 0x13
 5385 014b 02       		.uleb128 0x2
 5386 014c 0A       		.uleb128 0xa
 5387 014d 00       		.byte	0x0
 5388 014e 00       		.byte	0x0
 5389 014f 1C       		.uleb128 0x1c
 5390 0150 2E       		.uleb128 0x2e
 5391 0151 01       		.byte	0x1
 5392 0152 03       		.uleb128 0x3
ARM GAS  C:\Users\DNIEL~1\AppData\Local\Temp\ccvGaeHa.s 			page 97


 5393 0153 0E       		.uleb128 0xe
 5394 0154 3A       		.uleb128 0x3a
 5395 0155 0B       		.uleb128 0xb
 5396 0156 3B       		.uleb128 0x3b
 5397 0157 0B       		.uleb128 0xb
 5398 0158 27       		.uleb128 0x27
 5399 0159 0C       		.uleb128 0xc
 5400 015a 49       		.uleb128 0x49
 5401 015b 13       		.uleb128 0x13
 5402 015c 11       		.uleb128 0x11
 5403 015d 01       		.uleb128 0x1
 5404 015e 12       		.uleb128 0x12
 5405 015f 01       		.uleb128 0x1
 5406 0160 40       		.uleb128 0x40
 5407 0161 06       		.uleb128 0x6
 5408 0162 01       		.uleb128 0x1
 5409 0163 13       		.uleb128 0x13
 5410 0164 00       		.byte	0x0
 5411 0165 00       		.byte	0x0
 5412 0166 1D       		.uleb128 0x1d
 5413 0167 34       		.uleb128 0x34
 5414 0168 00       		.byte	0x0
 5415 0169 03       		.uleb128 0x3
 5416 016a 0E       		.uleb128 0xe
 5417 016b 3A       		.uleb128 0x3a
 5418 016c 0B       		.uleb128 0xb
 5419 016d 3B       		.uleb128 0x3b
 5420 016e 0B       		.uleb128 0xb
 5421 016f 49       		.uleb128 0x49
 5422 0170 13       		.uleb128 0x13
 5423 0171 02       		.uleb128 0x2
 5424 0172 0A       		.uleb128 0xa
 5425 0173 00       		.byte	0x0
 5426 0174 00       		.byte	0x0
 5427 0175 1E       		.uleb128 0x1e
 5428 0176 0B       		.uleb128 0xb
 5429 0177 01       		.byte	0x1
 5430 0178 11       		.uleb128 0x11
 5431 0179 01       		.uleb128 0x1
 5432 017a 12       		.uleb128 0x12
 5433 017b 01       		.uleb128 0x1
 5434 017c 00       		.byte	0x0
 5435 017d 00       		.byte	0x0
 5436 017e 1F       		.uleb128 0x1f
 5437 017f 34       		.uleb128 0x34
 5438 0180 00       		.byte	0x0
 5439 0181 03       		.uleb128 0x3
 5440 0182 0E       		.uleb128 0xe
 5441 0183 3A       		.uleb128 0x3a
 5442 0184 0B       		.uleb128 0xb
 5443 0185 3B       		.uleb128 0x3b
 5444 0186 0B       		.uleb128 0xb
 5445 0187 49       		.uleb128 0x49
 5446 0188 13       		.uleb128 0x13
 5447 0189 02       		.uleb128 0x2
 5448 018a 06       		.uleb128 0x6
 5449 018b 00       		.byte	0x0
ARM GAS  C:\Users\DNIEL~1\AppData\Local\Temp\ccvGaeHa.s 			page 98


 5450 018c 00       		.byte	0x0
 5451 018d 20       		.uleb128 0x20
 5452 018e 34       		.uleb128 0x34
 5453 018f 00       		.byte	0x0
 5454 0190 03       		.uleb128 0x3
 5455 0191 08       		.uleb128 0x8
 5456 0192 3A       		.uleb128 0x3a
 5457 0193 0B       		.uleb128 0xb
 5458 0194 3B       		.uleb128 0x3b
 5459 0195 0B       		.uleb128 0xb
 5460 0196 49       		.uleb128 0x49
 5461 0197 13       		.uleb128 0x13
 5462 0198 02       		.uleb128 0x2
 5463 0199 06       		.uleb128 0x6
 5464 019a 00       		.byte	0x0
 5465 019b 00       		.byte	0x0
 5466 019c 21       		.uleb128 0x21
 5467 019d 0B       		.uleb128 0xb
 5468 019e 01       		.byte	0x1
 5469 019f 55       		.uleb128 0x55
 5470 01a0 06       		.uleb128 0x6
 5471 01a1 00       		.byte	0x0
 5472 01a2 00       		.byte	0x0
 5473 01a3 22       		.uleb128 0x22
 5474 01a4 2E       		.uleb128 0x2e
 5475 01a5 01       		.byte	0x1
 5476 01a6 3F       		.uleb128 0x3f
 5477 01a7 0C       		.uleb128 0xc
 5478 01a8 03       		.uleb128 0x3
 5479 01a9 0E       		.uleb128 0xe
 5480 01aa 3A       		.uleb128 0x3a
 5481 01ab 0B       		.uleb128 0xb
 5482 01ac 3B       		.uleb128 0x3b
 5483 01ad 0B       		.uleb128 0xb
 5484 01ae 49       		.uleb128 0x49
 5485 01af 13       		.uleb128 0x13
 5486 01b0 3C       		.uleb128 0x3c
 5487 01b1 0C       		.uleb128 0xc
 5488 01b2 00       		.byte	0x0
 5489 01b3 00       		.byte	0x0
 5490 01b4 23       		.uleb128 0x23
 5491 01b5 2E       		.uleb128 0x2e
 5492 01b6 00       		.byte	0x0
 5493 01b7 3F       		.uleb128 0x3f
 5494 01b8 0C       		.uleb128 0xc
 5495 01b9 03       		.uleb128 0x3
 5496 01ba 0E       		.uleb128 0xe
 5497 01bb 3A       		.uleb128 0x3a
 5498 01bc 0B       		.uleb128 0xb
 5499 01bd 3B       		.uleb128 0x3b
 5500 01be 0B       		.uleb128 0xb
 5501 01bf 27       		.uleb128 0x27
 5502 01c0 0C       		.uleb128 0xc
 5503 01c1 11       		.uleb128 0x11
 5504 01c2 01       		.uleb128 0x1
 5505 01c3 12       		.uleb128 0x12
 5506 01c4 01       		.uleb128 0x1
ARM GAS  C:\Users\DNIEL~1\AppData\Local\Temp\ccvGaeHa.s 			page 99


 5507 01c5 40       		.uleb128 0x40
 5508 01c6 06       		.uleb128 0x6
 5509 01c7 00       		.byte	0x0
 5510 01c8 00       		.byte	0x0
 5511 01c9 24       		.uleb128 0x24
 5512 01ca 2E       		.uleb128 0x2e
 5513 01cb 01       		.byte	0x1
 5514 01cc 3F       		.uleb128 0x3f
 5515 01cd 0C       		.uleb128 0xc
 5516 01ce 03       		.uleb128 0x3
 5517 01cf 0E       		.uleb128 0xe
 5518 01d0 3A       		.uleb128 0x3a
 5519 01d1 0B       		.uleb128 0xb
 5520 01d2 3B       		.uleb128 0x3b
 5521 01d3 0B       		.uleb128 0xb
 5522 01d4 27       		.uleb128 0x27
 5523 01d5 0C       		.uleb128 0xc
 5524 01d6 11       		.uleb128 0x11
 5525 01d7 01       		.uleb128 0x1
 5526 01d8 12       		.uleb128 0x12
 5527 01d9 01       		.uleb128 0x1
 5528 01da 40       		.uleb128 0x40
 5529 01db 06       		.uleb128 0x6
 5530 01dc 01       		.uleb128 0x1
 5531 01dd 13       		.uleb128 0x13
 5532 01de 00       		.byte	0x0
 5533 01df 00       		.byte	0x0
 5534 01e0 25       		.uleb128 0x25
 5535 01e1 05       		.uleb128 0x5
 5536 01e2 00       		.byte	0x0
 5537 01e3 03       		.uleb128 0x3
 5538 01e4 0E       		.uleb128 0xe
 5539 01e5 3A       		.uleb128 0x3a
 5540 01e6 0B       		.uleb128 0xb
 5541 01e7 3B       		.uleb128 0x3b
 5542 01e8 0B       		.uleb128 0xb
 5543 01e9 49       		.uleb128 0x49
 5544 01ea 13       		.uleb128 0x13
 5545 01eb 02       		.uleb128 0x2
 5546 01ec 06       		.uleb128 0x6
 5547 01ed 00       		.byte	0x0
 5548 01ee 00       		.byte	0x0
 5549 01ef 26       		.uleb128 0x26
 5550 01f0 2E       		.uleb128 0x2e
 5551 01f1 00       		.byte	0x0
 5552 01f2 3F       		.uleb128 0x3f
 5553 01f3 0C       		.uleb128 0xc
 5554 01f4 03       		.uleb128 0x3
 5555 01f5 0E       		.uleb128 0xe
 5556 01f6 3A       		.uleb128 0x3a
 5557 01f7 0B       		.uleb128 0xb
 5558 01f8 3B       		.uleb128 0x3b
 5559 01f9 05       		.uleb128 0x5
 5560 01fa 27       		.uleb128 0x27
 5561 01fb 0C       		.uleb128 0xc
 5562 01fc 11       		.uleb128 0x11
 5563 01fd 01       		.uleb128 0x1
ARM GAS  C:\Users\DNIEL~1\AppData\Local\Temp\ccvGaeHa.s 			page 100


 5564 01fe 12       		.uleb128 0x12
 5565 01ff 01       		.uleb128 0x1
 5566 0200 40       		.uleb128 0x40
 5567 0201 06       		.uleb128 0x6
 5568 0202 00       		.byte	0x0
 5569 0203 00       		.byte	0x0
 5570 0204 27       		.uleb128 0x27
 5571 0205 2E       		.uleb128 0x2e
 5572 0206 01       		.byte	0x1
 5573 0207 3F       		.uleb128 0x3f
 5574 0208 0C       		.uleb128 0xc
 5575 0209 03       		.uleb128 0x3
 5576 020a 0E       		.uleb128 0xe
 5577 020b 3A       		.uleb128 0x3a
 5578 020c 0B       		.uleb128 0xb
 5579 020d 3B       		.uleb128 0x3b
 5580 020e 05       		.uleb128 0x5
 5581 020f 27       		.uleb128 0x27
 5582 0210 0C       		.uleb128 0xc
 5583 0211 49       		.uleb128 0x49
 5584 0212 13       		.uleb128 0x13
 5585 0213 11       		.uleb128 0x11
 5586 0214 01       		.uleb128 0x1
 5587 0215 12       		.uleb128 0x12
 5588 0216 01       		.uleb128 0x1
 5589 0217 40       		.uleb128 0x40
 5590 0218 0A       		.uleb128 0xa
 5591 0219 01       		.uleb128 0x1
 5592 021a 13       		.uleb128 0x13
 5593 021b 00       		.byte	0x0
 5594 021c 00       		.byte	0x0
 5595 021d 28       		.uleb128 0x28
 5596 021e 05       		.uleb128 0x5
 5597 021f 00       		.byte	0x0
 5598 0220 03       		.uleb128 0x3
 5599 0221 08       		.uleb128 0x8
 5600 0222 3A       		.uleb128 0x3a
 5601 0223 0B       		.uleb128 0xb
 5602 0224 3B       		.uleb128 0x3b
 5603 0225 05       		.uleb128 0x5
 5604 0226 49       		.uleb128 0x49
 5605 0227 13       		.uleb128 0x13
 5606 0228 02       		.uleb128 0x2
 5607 0229 06       		.uleb128 0x6
 5608 022a 00       		.byte	0x0
 5609 022b 00       		.byte	0x0
 5610 022c 29       		.uleb128 0x29
 5611 022d 2E       		.uleb128 0x2e
 5612 022e 01       		.byte	0x1
 5613 022f 3F       		.uleb128 0x3f
 5614 0230 0C       		.uleb128 0xc
 5615 0231 03       		.uleb128 0x3
 5616 0232 0E       		.uleb128 0xe
 5617 0233 3A       		.uleb128 0x3a
 5618 0234 0B       		.uleb128 0xb
 5619 0235 3B       		.uleb128 0x3b
 5620 0236 05       		.uleb128 0x5
ARM GAS  C:\Users\DNIEL~1\AppData\Local\Temp\ccvGaeHa.s 			page 101


 5621 0237 27       		.uleb128 0x27
 5622 0238 0C       		.uleb128 0xc
 5623 0239 11       		.uleb128 0x11
 5624 023a 01       		.uleb128 0x1
 5625 023b 12       		.uleb128 0x12
 5626 023c 01       		.uleb128 0x1
 5627 023d 40       		.uleb128 0x40
 5628 023e 06       		.uleb128 0x6
 5629 023f 01       		.uleb128 0x1
 5630 0240 13       		.uleb128 0x13
 5631 0241 00       		.byte	0x0
 5632 0242 00       		.byte	0x0
 5633 0243 2A       		.uleb128 0x2a
 5634 0244 05       		.uleb128 0x5
 5635 0245 00       		.byte	0x0
 5636 0246 03       		.uleb128 0x3
 5637 0247 0E       		.uleb128 0xe
 5638 0248 3A       		.uleb128 0x3a
 5639 0249 0B       		.uleb128 0xb
 5640 024a 3B       		.uleb128 0x3b
 5641 024b 05       		.uleb128 0x5
 5642 024c 49       		.uleb128 0x49
 5643 024d 13       		.uleb128 0x13
 5644 024e 02       		.uleb128 0x2
 5645 024f 06       		.uleb128 0x6
 5646 0250 00       		.byte	0x0
 5647 0251 00       		.byte	0x0
 5648 0252 2B       		.uleb128 0x2b
 5649 0253 34       		.uleb128 0x34
 5650 0254 00       		.byte	0x0
 5651 0255 03       		.uleb128 0x3
 5652 0256 08       		.uleb128 0x8
 5653 0257 3A       		.uleb128 0x3a
 5654 0258 0B       		.uleb128 0xb
 5655 0259 3B       		.uleb128 0x3b
 5656 025a 05       		.uleb128 0x5
 5657 025b 49       		.uleb128 0x49
 5658 025c 13       		.uleb128 0x13
 5659 025d 02       		.uleb128 0x2
 5660 025e 06       		.uleb128 0x6
 5661 025f 00       		.byte	0x0
 5662 0260 00       		.byte	0x0
 5663 0261 2C       		.uleb128 0x2c
 5664 0262 34       		.uleb128 0x34
 5665 0263 00       		.byte	0x0
 5666 0264 03       		.uleb128 0x3
 5667 0265 08       		.uleb128 0x8
 5668 0266 3A       		.uleb128 0x3a
 5669 0267 0B       		.uleb128 0xb
 5670 0268 3B       		.uleb128 0x3b
 5671 0269 05       		.uleb128 0x5
 5672 026a 49       		.uleb128 0x49
 5673 026b 13       		.uleb128 0x13
 5674 026c 00       		.byte	0x0
 5675 026d 00       		.byte	0x0
 5676 026e 2D       		.uleb128 0x2d
 5677 026f 0A       		.uleb128 0xa
ARM GAS  C:\Users\DNIEL~1\AppData\Local\Temp\ccvGaeHa.s 			page 102


 5678 0270 00       		.byte	0x0
 5679 0271 03       		.uleb128 0x3
 5680 0272 0E       		.uleb128 0xe
 5681 0273 3A       		.uleb128 0x3a
 5682 0274 0B       		.uleb128 0xb
 5683 0275 3B       		.uleb128 0x3b
 5684 0276 05       		.uleb128 0x5
 5685 0277 11       		.uleb128 0x11
 5686 0278 01       		.uleb128 0x1
 5687 0279 00       		.byte	0x0
 5688 027a 00       		.byte	0x0
 5689 027b 2E       		.uleb128 0x2e
 5690 027c 2E       		.uleb128 0x2e
 5691 027d 01       		.byte	0x1
 5692 027e 3F       		.uleb128 0x3f
 5693 027f 0C       		.uleb128 0xc
 5694 0280 03       		.uleb128 0x3
 5695 0281 0E       		.uleb128 0xe
 5696 0282 3A       		.uleb128 0x3a
 5697 0283 0B       		.uleb128 0xb
 5698 0284 3B       		.uleb128 0x3b
 5699 0285 0B       		.uleb128 0xb
 5700 0286 49       		.uleb128 0x49
 5701 0287 13       		.uleb128 0x13
 5702 0288 3C       		.uleb128 0x3c
 5703 0289 0C       		.uleb128 0xc
 5704 028a 01       		.uleb128 0x1
 5705 028b 13       		.uleb128 0x13
 5706 028c 00       		.byte	0x0
 5707 028d 00       		.byte	0x0
 5708 028e 2F       		.uleb128 0x2f
 5709 028f 2E       		.uleb128 0x2e
 5710 0290 01       		.byte	0x1
 5711 0291 3F       		.uleb128 0x3f
 5712 0292 0C       		.uleb128 0xc
 5713 0293 03       		.uleb128 0x3
 5714 0294 0E       		.uleb128 0xe
 5715 0295 3A       		.uleb128 0x3a
 5716 0296 0B       		.uleb128 0xb
 5717 0297 3B       		.uleb128 0x3b
 5718 0298 05       		.uleb128 0x5
 5719 0299 49       		.uleb128 0x49
 5720 029a 13       		.uleb128 0x13
 5721 029b 3C       		.uleb128 0x3c
 5722 029c 0C       		.uleb128 0xc
 5723 029d 00       		.byte	0x0
 5724 029e 00       		.byte	0x0
 5725 029f 30       		.uleb128 0x30
 5726 02a0 34       		.uleb128 0x34
 5727 02a1 00       		.byte	0x0
 5728 02a2 03       		.uleb128 0x3
 5729 02a3 0E       		.uleb128 0xe
 5730 02a4 3A       		.uleb128 0x3a
 5731 02a5 0B       		.uleb128 0xb
 5732 02a6 3B       		.uleb128 0x3b
 5733 02a7 05       		.uleb128 0x5
 5734 02a8 49       		.uleb128 0x49
ARM GAS  C:\Users\DNIEL~1\AppData\Local\Temp\ccvGaeHa.s 			page 103


 5735 02a9 13       		.uleb128 0x13
 5736 02aa 02       		.uleb128 0x2
 5737 02ab 06       		.uleb128 0x6
 5738 02ac 00       		.byte	0x0
 5739 02ad 00       		.byte	0x0
 5740 02ae 31       		.uleb128 0x31
 5741 02af 34       		.uleb128 0x34
 5742 02b0 00       		.byte	0x0
 5743 02b1 03       		.uleb128 0x3
 5744 02b2 0E       		.uleb128 0xe
 5745 02b3 3A       		.uleb128 0x3a
 5746 02b4 0B       		.uleb128 0xb
 5747 02b5 3B       		.uleb128 0x3b
 5748 02b6 0B       		.uleb128 0xb
 5749 02b7 49       		.uleb128 0x49
 5750 02b8 13       		.uleb128 0x13
 5751 02b9 3F       		.uleb128 0x3f
 5752 02ba 0C       		.uleb128 0xc
 5753 02bb 3C       		.uleb128 0x3c
 5754 02bc 0C       		.uleb128 0xc
 5755 02bd 00       		.byte	0x0
 5756 02be 00       		.byte	0x0
 5757 02bf 32       		.uleb128 0x32
 5758 02c0 34       		.uleb128 0x34
 5759 02c1 00       		.byte	0x0
 5760 02c2 03       		.uleb128 0x3
 5761 02c3 0E       		.uleb128 0xe
 5762 02c4 3A       		.uleb128 0x3a
 5763 02c5 0B       		.uleb128 0xb
 5764 02c6 3B       		.uleb128 0x3b
 5765 02c7 05       		.uleb128 0x5
 5766 02c8 49       		.uleb128 0x49
 5767 02c9 13       		.uleb128 0x13
 5768 02ca 3F       		.uleb128 0x3f
 5769 02cb 0C       		.uleb128 0xc
 5770 02cc 3C       		.uleb128 0x3c
 5771 02cd 0C       		.uleb128 0xc
 5772 02ce 00       		.byte	0x0
 5773 02cf 00       		.byte	0x0
 5774 02d0 33       		.uleb128 0x33
 5775 02d1 01       		.uleb128 0x1
 5776 02d2 01       		.byte	0x1
 5777 02d3 49       		.uleb128 0x49
 5778 02d4 13       		.uleb128 0x13
 5779 02d5 01       		.uleb128 0x1
 5780 02d6 13       		.uleb128 0x13
 5781 02d7 00       		.byte	0x0
 5782 02d8 00       		.byte	0x0
 5783 02d9 34       		.uleb128 0x34
 5784 02da 21       		.uleb128 0x21
 5785 02db 00       		.byte	0x0
 5786 02dc 49       		.uleb128 0x49
 5787 02dd 13       		.uleb128 0x13
 5788 02de 2F       		.uleb128 0x2f
 5789 02df 0B       		.uleb128 0xb
 5790 02e0 00       		.byte	0x0
 5791 02e1 00       		.byte	0x0
ARM GAS  C:\Users\DNIEL~1\AppData\Local\Temp\ccvGaeHa.s 			page 104


 5792 02e2 35       		.uleb128 0x35
 5793 02e3 34       		.uleb128 0x34
 5794 02e4 00       		.byte	0x0
 5795 02e5 03       		.uleb128 0x3
 5796 02e6 08       		.uleb128 0x8
 5797 02e7 3A       		.uleb128 0x3a
 5798 02e8 0B       		.uleb128 0xb
 5799 02e9 3B       		.uleb128 0x3b
 5800 02ea 0B       		.uleb128 0xb
 5801 02eb 49       		.uleb128 0x49
 5802 02ec 13       		.uleb128 0x13
 5803 02ed 3F       		.uleb128 0x3f
 5804 02ee 0C       		.uleb128 0xc
 5805 02ef 3C       		.uleb128 0x3c
 5806 02f0 0C       		.uleb128 0xc
 5807 02f1 00       		.byte	0x0
 5808 02f2 00       		.byte	0x0
 5809 02f3 36       		.uleb128 0x36
 5810 02f4 34       		.uleb128 0x34
 5811 02f5 00       		.byte	0x0
 5812 02f6 03       		.uleb128 0x3
 5813 02f7 0E       		.uleb128 0xe
 5814 02f8 3A       		.uleb128 0x3a
 5815 02f9 0B       		.uleb128 0xb
 5816 02fa 3B       		.uleb128 0x3b
 5817 02fb 0B       		.uleb128 0xb
 5818 02fc 49       		.uleb128 0x49
 5819 02fd 13       		.uleb128 0x13
 5820 02fe 3F       		.uleb128 0x3f
 5821 02ff 0C       		.uleb128 0xc
 5822 0300 02       		.uleb128 0x2
 5823 0301 0A       		.uleb128 0xa
 5824 0302 00       		.byte	0x0
 5825 0303 00       		.byte	0x0
 5826 0304 37       		.uleb128 0x37
 5827 0305 34       		.uleb128 0x34
 5828 0306 00       		.byte	0x0
 5829 0307 03       		.uleb128 0x3
 5830 0308 08       		.uleb128 0x8
 5831 0309 3A       		.uleb128 0x3a
 5832 030a 0B       		.uleb128 0xb
 5833 030b 3B       		.uleb128 0x3b
 5834 030c 0B       		.uleb128 0xb
 5835 030d 49       		.uleb128 0x49
 5836 030e 13       		.uleb128 0x13
 5837 030f 3F       		.uleb128 0x3f
 5838 0310 0C       		.uleb128 0xc
 5839 0311 02       		.uleb128 0x2
 5840 0312 0A       		.uleb128 0xa
 5841 0313 00       		.byte	0x0
 5842 0314 00       		.byte	0x0
 5843 0315 00       		.byte	0x0
 5844              		.section	.debug_pubnames,"",%progbits
 5845 0000 11010000 		.4byte	0x111
 5846 0004 0200     		.2byte	0x2
 5847 0006 00000000 		.4byte	.Ldebug_info0
 5848 000a 160D0000 		.4byte	0xd16
ARM GAS  C:\Users\DNIEL~1\AppData\Local\Temp\ccvGaeHa.s 			page 105


 5849 000e 5D090000 		.4byte	0x95d
 5850 0012 6473705F 		.ascii	"dsp_LoadTop\000"
 5850      4C6F6164 
 5850      546F7000 
 5851 001e 72090000 		.4byte	0x972
 5852 0022 6473705F 		.ascii	"dsp_LoadMidle\000"
 5852      4C6F6164 
 5852      4D69646C 
 5852      6500
 5853 0030 87090000 		.4byte	0x987
 5854 0034 6473705F 		.ascii	"dsp_LoadBottom\000"
 5854      4C6F6164 
 5854      426F7474 
 5854      6F6D00
 5855 0043 B0090000 		.4byte	0x9b0
 5856 0047 6473705F 		.ascii	"dsp_RefreshMidle\000"
 5856      52656672 
 5856      6573684D 
 5856      69646C65 
 5856      00
 5857 0058 D9090000 		.4byte	0x9d9
 5858 005c 64737049 		.ascii	"dspInit\000"
 5858      6E697400 
 5859 0064 EF090000 		.4byte	0x9ef
 5860 0068 64737047 		.ascii	"dspGetValue\000"
 5860      65745661 
 5860      6C756500 
 5861 0074 1C0A0000 		.4byte	0xa1c
 5862 0078 636D645F 		.ascii	"cmd_dspvalues\000"
 5862      64737076 
 5862      616C7565 
 5862      7300
 5863 0086 7B0A0000 		.4byte	0xa7b
 5864 008a 636D6466 		.ascii	"cmdfrappans_dspmessages\000"
 5864      72617070 
 5864      616E735F 
 5864      6473706D 
 5864      65737361 
 5865 00a2 100B0000 		.4byte	0xb10
 5866 00a6 636D645F 		.ascii	"cmd_dspbites\000"
 5866      64737062 
 5866      69746573 
 5866      00
 5867 00b3 880C0000 		.4byte	0xc88
 5868 00b7 64737073 		.ascii	"dspstate\000"
 5868      74617465 
 5868      00
 5869 00c0 9A0C0000 		.4byte	0xc9a
 5870 00c4 6473706D 		.ascii	"dspmessages\000"
 5870      65737361 
 5870      67657300 
 5871 00d0 AC0C0000 		.4byte	0xcac
 5872 00d4 6473705F 		.ascii	"dsp_activ\000"
 5872      61637469 
 5872      7600
 5873 00de BE0C0000 		.4byte	0xcbe
 5874 00e2 6300     		.ascii	"c\000"
ARM GAS  C:\Users\DNIEL~1\AppData\Local\Temp\ccvGaeHa.s 			page 106


 5875 00e4 CE0C0000 		.4byte	0xcce
 5876 00e8 646200   		.ascii	"db\000"
 5877 00eb DF0C0000 		.4byte	0xcdf
 5878 00ef 64623200 		.ascii	"db2\000"
 5879 00f3 F10C0000 		.4byte	0xcf1
 5880 00f7 737A616D 		.ascii	"szamlalo\000"
 5880      6C616C6F 
 5880      00
 5881 0100 030D0000 		.4byte	0xd03
 5882 0104 63727569 		.ascii	"cruise_assis\000"
 5882      73655F61 
 5882      73736973 
 5882      00
 5883 0111 00000000 		.4byte	0x0
 5884              		.section	.debug_pubtypes,"",%progbits
 5885 0000 3E020000 		.4byte	0x23e
 5886 0004 0200     		.2byte	0x2
 5887 0006 00000000 		.4byte	.Ldebug_info0
 5888 000a 160D0000 		.4byte	0xd16
 5889 000e 30000000 		.4byte	0x30
 5890 0012 73697A65 		.ascii	"size_t\000"
 5890      5F7400
 5891 0019 49000000 		.4byte	0x49
 5892 001d 75696E74 		.ascii	"uint8_t\000"
 5892      385F7400 
 5893 0025 5B000000 		.4byte	0x5b
 5894 0029 696E7431 		.ascii	"int16_t\000"
 5894      365F7400 
 5895 0031 6D000000 		.4byte	0x6d
 5896 0035 75696E74 		.ascii	"uint16_t\000"
 5896      31365F74 
 5896      00
 5897 003e 7F000000 		.4byte	0x7f
 5898 0042 696E7433 		.ascii	"int32_t\000"
 5898      325F7400 
 5899 004a 91000000 		.4byte	0x91
 5900 004e 75696E74 		.ascii	"uint32_t\000"
 5900      33325F74 
 5900      00
 5901 0057 AA000000 		.4byte	0xaa
 5902 005b 75696E74 		.ascii	"uint64_t\000"
 5902      36345F74 
 5902      00
 5903 0064 BC000000 		.4byte	0xbc
 5904 0068 626F6F6C 		.ascii	"bool_t\000"
 5904      5F7400
 5905 006f CE000000 		.4byte	0xce
 5906 0073 746D6F64 		.ascii	"tmode_t\000"
 5906      655F7400 
 5907 007b D9000000 		.4byte	0xd9
 5908 007f 74737461 		.ascii	"tstate_t\000"
 5908      74655F74 
 5908      00
 5909 0088 E4000000 		.4byte	0xe4
 5910 008c 74726566 		.ascii	"trefs_t\000"
 5910      735F7400 
 5911 0094 EF000000 		.4byte	0xef
ARM GAS  C:\Users\DNIEL~1\AppData\Local\Temp\ccvGaeHa.s 			page 107


 5912 0098 74736C69 		.ascii	"tslices_t\000"
 5912      6365735F 
 5912      7400
 5913 00a2 FA000000 		.4byte	0xfa
 5914 00a6 74707269 		.ascii	"tprio_t\000"
 5914      6F5F7400 
 5915 00ae 05010000 		.4byte	0x105
 5916 00b2 6D73675F 		.ascii	"msg_t\000"
 5916      7400
 5917 00b8 10010000 		.4byte	0x110
 5918 00bc 6576656E 		.ascii	"eventmask_t\000"
 5918      746D6173 
 5918      6B5F7400 
 5919 00c8 1B010000 		.4byte	0x11b
 5920 00cc 73797374 		.ascii	"systime_t\000"
 5920      696D655F 
 5920      7400
 5921 00d6 26010000 		.4byte	0x126
 5922 00da 54687265 		.ascii	"Thread\000"
 5922      616400
 5923 00e1 81020000 		.4byte	0x281
 5924 00e5 54687265 		.ascii	"ThreadsQueue\000"
 5924      61647351 
 5924      75657565 
 5924      00
 5925 00f2 A3020000 		.4byte	0x2a3
 5926 00f6 54687265 		.ascii	"ThreadsList\000"
 5926      6164734C 
 5926      69737400 
 5927 0102 AE020000 		.4byte	0x2ae
 5928 0106 72656761 		.ascii	"regarm_t\000"
 5928      726D5F74 
 5928      00
 5929 010f BB020000 		.4byte	0x2bb
 5930 0113 73746B61 		.ascii	"stkalign_t\000"
 5930      6C69676E 
 5930      5F7400
 5931 011e C6020000 		.4byte	0x2c6
 5932 0122 696E7463 		.ascii	"intctx\000"
 5932      747800
 5933 0129 54030000 		.4byte	0x354
 5934 012d 636F6E74 		.ascii	"context\000"
 5934      65787400 
 5935 0135 77030000 		.4byte	0x377
 5936 0139 76746675 		.ascii	"vtfunc_t\000"
 5936      6E635F74 
 5936      00
 5937 0142 94030000 		.4byte	0x394
 5938 0146 56697274 		.ascii	"VirtualTimer\000"
 5938      75616C54 
 5938      696D6572 
 5938      00
 5939 0153 9F030000 		.4byte	0x39f
 5940 0157 56697274 		.ascii	"VirtualTimer\000"
 5940      75616C54 
 5940      696D6572 
 5940      00
ARM GAS  C:\Users\DNIEL~1\AppData\Local\Temp\ccvGaeHa.s 			page 108


 5941 0164 3E040000 		.4byte	0x43e
 5942 0168 56544C69 		.ascii	"VTList\000"
 5942      737400
 5943 016f A6040000 		.4byte	0x4a6
 5944 0173 52656164 		.ascii	"ReadyList\000"
 5944      794C6973 
 5944      7400
 5945 017d B1040000 		.4byte	0x4b1
 5946 0181 4D757465 		.ascii	"Mutex\000"
 5946      7800
 5947 0187 EE040000 		.4byte	0x4ee
 5948 018b 4D757465 		.ascii	"Mutex\000"
 5948      7800
 5949 0191 31010000 		.4byte	0x131
 5950 0195 54687265 		.ascii	"Thread\000"
 5950      616400
 5951 019c 62050000 		.4byte	0x562
 5952 01a0 42617365 		.ascii	"BaseSequentialStreamVMT\000"
 5952      53657175 
 5952      656E7469 
 5952      616C5374 
 5952      7265616D 
 5953 01b8 2F060000 		.4byte	0x62f
 5954 01bc 42617365 		.ascii	"BaseSequentialStream\000"
 5954      53657175 
 5954      656E7469 
 5954      616C5374 
 5954      7265616D 
 5955 01d1 3F060000 		.4byte	0x63f
 5956 01d5 42617365 		.ascii	"BaseChannelVMT\000"
 5956      4368616E 
 5956      6E656C56 
 5956      4D5400
 5957 01e4 63070000 		.4byte	0x763
 5958 01e8 42617365 		.ascii	"BaseChannel\000"
 5958      4368616E 
 5958      6E656C00 
 5959 01f4 94070000 		.4byte	0x794
 5960 01f8 5F5F7661 		.ascii	"__va_list\000"
 5960      5F6C6973 
 5960      7400
 5961 0202 89070000 		.4byte	0x789
 5962 0206 5F5F676E 		.ascii	"__gnuc_va_list\000"
 5962      75635F76 
 5962      615F6C69 
 5962      737400
 5963 0215 AE070000 		.4byte	0x7ae
 5964 0219 76615F6C 		.ascii	"va_list\000"
 5964      69737400 
 5965 0221 B9070000 		.4byte	0x7b9
 5966 0225 64737053 		.ascii	"dspState\000"
 5966      74617465 
 5966      00
 5967 022e D2070000 		.4byte	0x7d2
 5968 0232 6473704D 		.ascii	"dspMessages\000"
 5968      65737361 
 5968      67657300 
ARM GAS  C:\Users\DNIEL~1\AppData\Local\Temp\ccvGaeHa.s 			page 109


 5969 023e 00000000 		.4byte	0x0
 5970              		.section	.debug_aranges,"",%progbits
 5971 0000 6C000000 		.4byte	0x6c
 5972 0004 0200     		.2byte	0x2
 5973 0006 00000000 		.4byte	.Ldebug_info0
 5974 000a 04       		.byte	0x4
 5975 000b 00       		.byte	0x0
 5976 000c 0000     		.2byte	0x0
 5977 000e 0000     		.2byte	0x0
 5978 0010 00000000 		.4byte	.LFB118
 5979 0014 1E000000 		.4byte	.LFE118-.LFB118
 5980 0018 00000000 		.4byte	.LFB123
 5981 001c 9C080000 		.4byte	.LFE123-.LFB123
 5982 0020 00000000 		.4byte	.LFB119
 5983 0024 D2000000 		.4byte	.LFE119-.LFB119
 5984 0028 00000000 		.4byte	.LFB120
 5985 002c 74000000 		.4byte	.LFE120-.LFB120
 5986 0030 00000000 		.4byte	.LFB121
 5987 0034 10010000 		.4byte	.LFE121-.LFB121
 5988 0038 00000000 		.4byte	.LFB122
 5989 003c F8000000 		.4byte	.LFE122-.LFB122
 5990 0040 00000000 		.4byte	.LFB124
 5991 0044 44000000 		.4byte	.LFE124-.LFB124
 5992 0048 00000000 		.4byte	.LFB125
 5993 004c 14000000 		.4byte	.LFE125-.LFB125
 5994 0050 00000000 		.4byte	.LFB126
 5995 0054 3C010000 		.4byte	.LFE126-.LFB126
 5996 0058 00000000 		.4byte	.LFB127
 5997 005c 50010000 		.4byte	.LFE127-.LFB127
 5998 0060 00000000 		.4byte	.LFB128
 5999 0064 58000000 		.4byte	.LFE128-.LFB128
 6000 0068 00000000 		.4byte	0x0
 6001 006c 00000000 		.4byte	0x0
 6002              		.section	.debug_ranges,"",%progbits
 6003              	.Ldebug_ranges0:
 6004 0000 1E010000 		.4byte	.LBB3
 6005 0004 6A010000 		.4byte	.LBE3
 6006 0008 48080000 		.4byte	.LBB16
 6007 000c 9C080000 		.4byte	.LBE16
 6008 0010 26080000 		.4byte	.LBB15
 6009 0014 2A080000 		.4byte	.LBE15
 6010 0018 B8070000 		.4byte	.LBB14
 6011 001c 22080000 		.4byte	.LBE14
 6012 0020 54050000 		.4byte	.LBB13
 6013 0024 9C070000 		.4byte	.LBE13
 6014 0028 3A050000 		.4byte	.LBB12
 6015 002c 3E050000 		.4byte	.LBE12
 6016 0030 34050000 		.4byte	.LBB11
 6017 0034 36050000 		.4byte	.LBE11
 6018 0038 98040000 		.4byte	.LBB10
 6019 003c 32050000 		.4byte	.LBE10
 6020 0040 A0030000 		.4byte	.LBB9
 6021 0044 7C040000 		.4byte	.LBE9
 6022 0048 86030000 		.4byte	.LBB8
 6023 004c 8A030000 		.4byte	.LBE8
 6024 0050 B8020000 		.4byte	.LBB7
 6025 0054 80030000 		.4byte	.LBE7
ARM GAS  C:\Users\DNIEL~1\AppData\Local\Temp\ccvGaeHa.s 			page 110


 6026 0058 72020000 		.4byte	.LBB6
 6027 005c 76020000 		.4byte	.LBE6
 6028 0060 D0010000 		.4byte	.LBB5
 6029 0064 6C020000 		.4byte	.LBE5
 6030 0068 86010000 		.4byte	.LBB4
 6031 006c B4010000 		.4byte	.LBE4
 6032 0070 00000000 		.4byte	0x0
 6033 0074 00000000 		.4byte	0x0
 6034 0078 4A000000 		.4byte	.LBB17
 6035 007c 7C000000 		.4byte	.LBE17
 6036 0080 08010000 		.4byte	.LBB23
 6037 0084 50010000 		.4byte	.LBE23
 6038 0088 EA000000 		.4byte	.LBB22
 6039 008c 04010000 		.4byte	.LBE22
 6040 0090 D4000000 		.4byte	.LBB21
 6041 0094 E6000000 		.4byte	.LBE21
 6042 0098 C4000000 		.4byte	.LBB20
 6043 009c D0000000 		.4byte	.LBE20
 6044 00a0 7E000000 		.4byte	.LBB19
 6045 00a4 C0000000 		.4byte	.LBE19
 6046 00a8 00000000 		.4byte	0x0
 6047 00ac 00000000 		.4byte	0x0
 6048 00b0 00000000 		.4byte	.LFB118
 6049 00b4 1E000000 		.4byte	.LFE118
 6050 00b8 00000000 		.4byte	.LFB123
 6051 00bc 9C080000 		.4byte	.LFE123
 6052 00c0 00000000 		.4byte	.LFB119
 6053 00c4 D2000000 		.4byte	.LFE119
 6054 00c8 00000000 		.4byte	.LFB120
 6055 00cc 74000000 		.4byte	.LFE120
 6056 00d0 00000000 		.4byte	.LFB121
 6057 00d4 10010000 		.4byte	.LFE121
 6058 00d8 00000000 		.4byte	.LFB122
 6059 00dc F8000000 		.4byte	.LFE122
 6060 00e0 00000000 		.4byte	.LFB124
 6061 00e4 44000000 		.4byte	.LFE124
 6062 00e8 00000000 		.4byte	.LFB125
 6063 00ec 14000000 		.4byte	.LFE125
 6064 00f0 00000000 		.4byte	.LFB126
 6065 00f4 3C010000 		.4byte	.LFE126
 6066 00f8 00000000 		.4byte	.LFB127
 6067 00fc 50010000 		.4byte	.LFE127
 6068 0100 00000000 		.4byte	.LFB128
 6069 0104 58000000 		.4byte	.LFE128
 6070 0108 00000000 		.4byte	0x0
 6071 010c 00000000 		.4byte	0x0
 6072              		.section	.debug_str,"MS",%progbits,1
 6073              	.LASF121:
 6074 0000 4453505F 		.ascii	"DSP_INDEX_RIGHT\000"
 6074      494E4445 
 6074      585F5249 
 6074      47485400 
 6075              	.LASF2:
 6076 0010 73697A65 		.ascii	"size_t\000"
 6076      5F7400
 6077              	.LASF131:
 6078 0017 6E65775F 		.ascii	"new_val\000"
ARM GAS  C:\Users\DNIEL~1\AppData\Local\Temp\ccvGaeHa.s 			page 111


 6078      76616C00 
 6079              	.LASF163:
 6080 001f 7372632F 		.ascii	"src/dsp.c\000"
 6080      6473702E 
 6080      6300
 6081              	.LASF14:
 6082 0029 75696E74 		.ascii	"uint64_t\000"
 6082      36345F74 
 6082      00
 6083              	.LASF152:
 6084 0032 7461736B 		.ascii	"tasknumber\000"
 6084      6E756D62 
 6084      657200
 6085              	.LASF150:
 6086 003d 6473706D 		.ascii	"dspmessages\000"
 6086      65737361 
 6086      67657300 
 6087              	.LASF108:
 6088 0049 4453505F 		.ascii	"DSP_x100_BATTERY\000"
 6088      78313030 
 6088      5F424154 
 6088      54455259 
 6088      00
 6089              	.LASF93:
 6090 005a 76615F6C 		.ascii	"va_list\000"
 6090      69737400 
 6091              	.LASF147:
 6092 0062 76746C69 		.ascii	"vtlist\000"
 6092      737400
 6093              	.LASF102:
 6094 0069 4453505F 		.ascii	"DSP_x10_AVG_SPEED\000"
 6094      7831305F 
 6094      4156475F 
 6094      53504545 
 6094      4400
 6095              	.LASF129:
 6096 007b 4453505F 		.ascii	"DSP_NUM_MSG\000"
 6096      4E554D5F 
 6096      4D534700 
 6097              	.LASF158:
 6098 0087 77616473 		.ascii	"wadspTask\000"
 6098      70546173 
 6098      6B00
 6099              	.LASF46:
 6100 0091 54687265 		.ascii	"ThreadsQueue\000"
 6100      61647351 
 6100      75657565 
 6100      00
 6101              	.LASF81:
 6102 009e 42617365 		.ascii	"BaseChannelVMT\000"
 6102      4368616E 
 6102      6E656C56 
 6102      4D5400
 6103              	.LASF167:
 6104 00ad 64737047 		.ascii	"dspGetValue\000"
 6104      65745661 
 6104      6C756500 
ARM GAS  C:\Users\DNIEL~1\AppData\Local\Temp\ccvGaeHa.s 			page 112


 6105              	.LASF138:
 6106 00b9 6672616D 		.ascii	"frame\000"
 6106      6500
 6107              	.LASF73:
 6108 00bf 65786974 		.ascii	"exitcode\000"
 6108      636F6465 
 6108      00
 6109              	.LASF149:
 6110 00c8 49544D5F 		.ascii	"ITM_RxBuffer\000"
 6110      52784275 
 6110      66666572 
 6110      00
 6111              	.LASF120:
 6112 00d5 4453505F 		.ascii	"DSP_x1_MOTOR_POWER\000"
 6112      78315F4D 
 6112      4F544F52 
 6112      5F504F57 
 6112      455200
 6113              	.LASF29:
 6114 00e8 705F7072 		.ascii	"p_prio\000"
 6114      696F00
 6115              	.LASF85:
 6116 00ef 72656164 		.ascii	"readt\000"
 6116      7400
 6117              	.LASF5:
 6118 00f5 696E7431 		.ascii	"int16_t\000"
 6118      365F7400 
 6119              	.LASF13:
 6120 00fd 6C6F6E67 		.ascii	"long long int\000"
 6120      206C6F6E 
 6120      6720696E 
 6120      7400
 6121              	.LASF1:
 6122 010b 7369676E 		.ascii	"signed char\000"
 6122      65642063 
 6122      68617200 
 6123              	.LASF128:
 6124 0117 4453505F 		.ascii	"DSP_DANGER\000"
 6124      44414E47 
 6124      455200
 6125              	.LASF12:
 6126 0122 6C6F6E67 		.ascii	"long unsigned int\000"
 6126      20756E73 
 6126      69676E65 
 6126      6420696E 
 6126      7400
 6127              	.LASF45:
 6128 0134 705F6D70 		.ascii	"p_mpool\000"
 6128      6F6F6C00 
 6129              	.LASF16:
 6130 013c 626F6F6C 		.ascii	"bool_t\000"
 6130      5F7400
 6131              	.LASF74:
 6132 0143 77746F62 		.ascii	"wtobjp\000"
 6132      6A7000
 6133              	.LASF21:
 6134 014a 74736C69 		.ascii	"tslices_t\000"
ARM GAS  C:\Users\DNIEL~1\AppData\Local\Temp\ccvGaeHa.s 			page 113


 6134      6365735F 
 6134      7400
 6135              	.LASF10:
 6136 0154 6C6F6E67 		.ascii	"long int\000"
 6136      20696E74 
 6136      00
 6137              	.LASF105:
 6138 015d 4453505F 		.ascii	"DSP_x100_TEMP_SPEED\000"
 6138      78313030 
 6138      5F54454D 
 6138      505F5350 
 6138      45454400 
 6139              	.LASF19:
 6140 0171 74737461 		.ascii	"tstate_t\000"
 6140      74655F74 
 6140      00
 6141              	.LASF91:
 6142 017a 5F5F7661 		.ascii	"__va_list\000"
 6142      5F6C6973 
 6142      7400
 6143              	.LASF94:
 6144 0184 4453505F 		.ascii	"DSP_WAITING\000"
 6144      57414954 
 6144      494E4700 
 6145              	.LASF146:
 6146 0190 6F6C645F 		.ascii	"old_bit\000"
 6146      62697400 
 6147              	.LASF7:
 6148 0198 75696E74 		.ascii	"uint16_t\000"
 6148      31365F74 
 6148      00
 6149              	.LASF87:
 6150 01a1 646F7562 		.ascii	"double\000"
 6150      6C6500
 6151              	.LASF31:
 6152 01a8 705F6E65 		.ascii	"p_newer\000"
 6152      77657200 
 6153              	.LASF145:
 6154 01b0 636D645F 		.ascii	"cmd_dspbites\000"
 6154      64737062 
 6154      69746573 
 6154      00
 6155              	.LASF161:
 6156 01bd 63727569 		.ascii	"cruise_assis\000"
 6156      73655F61 
 6156      73736973 
 6156      00
 6157              	.LASF48:
 6158 01ca 72656761 		.ascii	"regarm_t\000"
 6158      726D5F74 
 6158      00
 6159              	.LASF55:
 6160 01d3 76745F70 		.ascii	"vt_prev\000"
 6160      72657600 
 6161              	.LASF166:
 6162 01db 64737054 		.ascii	"dspTask\000"
 6162      61736B00 
ARM GAS  C:\Users\DNIEL~1\AppData\Local\Temp\ccvGaeHa.s 			page 114


 6163              	.LASF98:
 6164 01e3 4453505F 		.ascii	"DSP_x100_SPEED\000"
 6164      78313030 
 6164      5F535045 
 6164      454400
 6165              	.LASF96:
 6166 01f2 64737053 		.ascii	"dspState\000"
 6166      74617465 
 6166      00
 6167              	.LASF80:
 6168 01fb 42617365 		.ascii	"BaseSequentialStream\000"
 6168      53657175 
 6168      656E7469 
 6168      616C5374 
 6168      7265616D 
 6169              	.LASF0:
 6170 0210 756E7369 		.ascii	"unsigned int\000"
 6170      676E6564 
 6170      20696E74 
 6170      00
 6171              	.LASF54:
 6172 021d 76745F6E 		.ascii	"vt_next\000"
 6172      65787400 
 6173              	.LASF110:
 6174 0225 4453505F 		.ascii	"DSP_x1_BATTERY\000"
 6174      78315F42 
 6174      41545445 
 6174      525900
 6175              	.LASF134:
 6176 0234 73706565 		.ascii	"speedGetSpeed\000"
 6176      64476574 
 6176      53706565 
 6176      6400
 6177              	.LASF83:
 6178 0242 67657474 		.ascii	"gett\000"
 6178      00
 6179              	.LASF53:
 6180 0247 56697274 		.ascii	"VirtualTimer\000"
 6180      75616C54 
 6180      696D6572 
 6180      00
 6181              	.LASF140:
 6182 0254 636D645F 		.ascii	"cmd_dspvalues\000"
 6182      64737076 
 6182      616C7565 
 6182      7300
 6183              	.LASF68:
 6184 0262 4D757465 		.ascii	"Mutex\000"
 6184      7800
 6185              	.LASF51:
 6186 0268 636F6E74 		.ascii	"context\000"
 6186      65787400 
 6187              	.LASF8:
 6188 0270 73686F72 		.ascii	"short unsigned int\000"
 6188      7420756E 
 6188      7369676E 
 6188      65642069 
ARM GAS  C:\Users\DNIEL~1\AppData\Local\Temp\ccvGaeHa.s 			page 115


 6188      6E7400
 6189              	.LASF23:
 6190 0283 6D73675F 		.ascii	"msg_t\000"
 6190      7400
 6191              	.LASF64:
 6192 0289 725F6E65 		.ascii	"r_newer\000"
 6192      77657200 
 6193              	.LASF112:
 6194 0291 4453505F 		.ascii	"DSP_x1_BATTERY_TEMP\000"
 6194      78315F42 
 6194      41545445 
 6194      52595F54 
 6194      454D5000 
 6195              	.LASF159:
 6196 02a5 64737073 		.ascii	"dspstate\000"
 6196      74617465 
 6196      00
 6197              	.LASF151:
 6198 02ae 64737056 		.ascii	"dspValue\000"
 6198      616C7565 
 6198      00
 6199              	.LASF18:
 6200 02b7 746D6F64 		.ascii	"tmode_t\000"
 6200      655F7400 
 6201              	.LASF47:
 6202 02bf 54687265 		.ascii	"ThreadsList\000"
 6202      6164734C 
 6202      69737400 
 6203              	.LASF24:
 6204 02cb 6576656E 		.ascii	"eventmask_t\000"
 6204      746D6173 
 6204      6B5F7400 
 6205              	.LASF143:
 6206 02d7 636D6466 		.ascii	"cmdfrappans_dspmessages\000"
 6206      72617070 
 6206      616E735F 
 6206      6473706D 
 6206      65737361 
 6207              	.LASF99:
 6208 02ef 4453505F 		.ascii	"DSP_x10_SPEED\000"
 6208      7831305F 
 6208      53504545 
 6208      4400
 6209              	.LASF15:
 6210 02fd 6C6F6E67 		.ascii	"long long unsigned int\000"
 6210      206C6F6E 
 6210      6720756E 
 6210      7369676E 
 6210      65642069 
 6211              	.LASF104:
 6212 0314 4453505F 		.ascii	"DSP_x01_AVG_SPEED\000"
 6212      7830315F 
 6212      4156475F 
 6212      53504545 
 6212      4400
 6213              	.LASF169:
 6214 0326 73747263 		.ascii	"strcmp\000"
ARM GAS  C:\Users\DNIEL~1\AppData\Local\Temp\ccvGaeHa.s 			page 116


 6214      6D7000
 6215              	.LASF49:
 6216 032d 73746B61 		.ascii	"stkalign_t\000"
 6216      6C69676E 
 6216      5F7400
 6217              	.LASF84:
 6218 0338 77726974 		.ascii	"writet\000"
 6218      657400
 6219              	.LASF78:
 6220 033f 77726974 		.ascii	"write\000"
 6220      6500
 6221              	.LASF82:
 6222 0345 70757474 		.ascii	"putt\000"
 6222      00
 6223              	.LASF111:
 6224 034a 4453505F 		.ascii	"DSP_x10_BATTERY_TEMP\000"
 6224      7831305F 
 6224      42415454 
 6224      4552595F 
 6224      54454D50 
 6225              	.LASF56:
 6226 035f 76745F74 		.ascii	"vt_time\000"
 6226      696D6500 
 6227              	.LASF136:
 6228 0367 6473705F 		.ascii	"dsp_LoadBottom\000"
 6228      4C6F6164 
 6228      426F7474 
 6228      6F6D00
 6229              	.LASF9:
 6230 0376 696E7433 		.ascii	"int32_t\000"
 6230      325F7400 
 6231              	.LASF137:
 6232 037e 6473705F 		.ascii	"dsp_RefreshMidle\000"
 6232      52656672 
 6232      6573684D 
 6232      69646C65 
 6232      00
 6233              	.LASF168:
 6234 038f 4552524F 		.ascii	"ERROR\000"
 6234      5200
 6235              	.LASF132:
 6236 0395 6473705F 		.ascii	"dsp_LoadTop\000"
 6236      4C6F6164 
 6236      546F7000 
 6237              	.LASF97:
 6238 03a1 6473704D 		.ascii	"dspMessages\000"
 6238      65737361 
 6238      67657300 
 6239              	.LASF90:
 6240 03ad 5F5F676E 		.ascii	"__gnuc_va_list\000"
 6240      75635F76 
 6240      615F6C69 
 6240      737400
 6241              	.LASF124:
 6242 03bc 4453505F 		.ascii	"DSP_LIGHT\000"
 6242      4C494748 
 6242      5400
ARM GAS  C:\Users\DNIEL~1\AppData\Local\Temp\ccvGaeHa.s 			page 117


 6243              	.LASF60:
 6244 03c6 56544C69 		.ascii	"VTList\000"
 6244      737400
 6245              	.LASF63:
 6246 03cd 725F6374 		.ascii	"r_ctx\000"
 6246      7800
 6247              	.LASF116:
 6248 03d3 4453505F 		.ascii	"DSP_x1_SUN_POWER\000"
 6248      78315F53 
 6248      554E5F50 
 6248      4F574552 
 6248      00
 6249              	.LASF57:
 6250 03e4 76745F66 		.ascii	"vt_func\000"
 6250      756E6300 
 6251              	.LASF133:
 6252 03ec 6473705F 		.ascii	"dsp_LoadMidle\000"
 6252      4C6F6164 
 6252      4D69646C 
 6252      6500
 6253              	.LASF130:
 6254 03fa 74696D65 		.ascii	"time\000"
 6254      00
 6255              	.LASF66:
 6256 03ff 725F6375 		.ascii	"r_current\000"
 6256      7272656E 
 6256      7400
 6257              	.LASF65:
 6258 0409 725F6F6C 		.ascii	"r_older\000"
 6258      64657200 
 6259              	.LASF107:
 6260 0411 4453505F 		.ascii	"DSP_x1_TEMP_SPEED\000"
 6260      78315F54 
 6260      454D505F 
 6260      53504545 
 6260      4400
 6261              	.LASF88:
 6262 0423 666C6F61 		.ascii	"float\000"
 6262      7400
 6263              	.LASF113:
 6264 0429 4453505F 		.ascii	"DSP_x1000_SUN_POWER\000"
 6264      78313030 
 6264      305F5355 
 6264      4E5F504F 
 6264      57455200 
 6265              	.LASF20:
 6266 043d 74726566 		.ascii	"trefs_t\000"
 6266      735F7400 
 6267              	.LASF28:
 6268 0445 705F7072 		.ascii	"p_prev\000"
 6268      657600
 6269              	.LASF22:
 6270 044c 74707269 		.ascii	"tprio_t\000"
 6270      6F5F7400 
 6271              	.LASF123:
 6272 0454 4453505F 		.ascii	"DSP_TEMPOMAT\000"
 6272      54454D50 
ARM GAS  C:\Users\DNIEL~1\AppData\Local\Temp\ccvGaeHa.s 			page 118


 6272      4F4D4154 
 6272      00
 6273              	.LASF118:
 6274 0461 4453505F 		.ascii	"DSP_x100_MOTOR_POWER\000"
 6274      78313030 
 6274      5F4D4F54 
 6274      4F525F50 
 6274      4F574552 
 6275              	.LASF17:
 6276 0476 5F426F6F 		.ascii	"_Bool\000"
 6276      6C00
 6277              	.LASF144:
 6278 047c 61746F6C 		.ascii	"atol\000"
 6278      00
 6279              	.LASF4:
 6280 0481 756E7369 		.ascii	"unsigned char\000"
 6280      676E6564 
 6280      20636861 
 6280      7200
 6281              	.LASF69:
 6282 048f 6D5F7175 		.ascii	"m_queue\000"
 6282      65756500 
 6283              	.LASF164:
 6284 0497 433A5C44 		.ascii	"C:\\Dani\\MegaLux\\Repo\\Smarty\\Smarty\\smarty\\fi"
 6284      616E695C 
 6284      4D656761 
 6284      4C75785C 
 6284      5265706F 
 6285 04c3 726D7761 		.ascii	"rmware\000"
 6285      726500
 6286              	.LASF34:
 6287 04ca 705F7374 		.ascii	"p_state\000"
 6287      61746500 
 6288              	.LASF43:
 6289 04d2 705F6D74 		.ascii	"p_mtxlist\000"
 6289      786C6973 
 6289      7400
 6290              	.LASF6:
 6291 04dc 73686F72 		.ascii	"short int\000"
 6291      7420696E 
 6291      7400
 6292              	.LASF154:
 6293 04e6 6275735F 		.ascii	"bus_bit\000"
 6293      62697400 
 6294              	.LASF37:
 6295 04ee 705F7072 		.ascii	"p_preempt\000"
 6295      65656D70 
 6295      7400
 6296              	.LASF32:
 6297 04f8 705F6F6C 		.ascii	"p_older\000"
 6297      64657200 
 6298              	.LASF62:
 6299 0500 725F7072 		.ascii	"r_prio\000"
 6299      696F00
 6300              	.LASF117:
 6301 0507 4453505F 		.ascii	"DSP_x1000_MOTOR_POWER\000"
 6301      78313030 
ARM GAS  C:\Users\DNIEL~1\AppData\Local\Temp\ccvGaeHa.s 			page 119


 6301      305F4D4F 
 6301      544F525F 
 6301      504F5745 
 6302              	.LASF27:
 6303 051d 705F6E65 		.ascii	"p_next\000"
 6303      787400
 6304              	.LASF77:
 6305 0524 42617365 		.ascii	"BaseSequentialStreamVMT\000"
 6305      53657175 
 6305      656E7469 
 6305      616C5374 
 6305      7265616D 
 6306              	.LASF35:
 6307 053c 705F666C 		.ascii	"p_flags\000"
 6307      61677300 
 6308              	.LASF95:
 6309 0544 4453505F 		.ascii	"DSP_RUNNING\000"
 6309      52554E4E 
 6309      494E4700 
 6310              	.LASF26:
 6311 0550 54687265 		.ascii	"Thread\000"
 6311      616400
 6312              	.LASF127:
 6313 0557 4453505F 		.ascii	"DSP_MOTOR_TEMO\000"
 6313      4D4F544F 
 6313      525F5445 
 6313      4D4F00
 6314              	.LASF119:
 6315 0566 4453505F 		.ascii	"DSP_x10_MOTOR_POWER\000"
 6315      7831305F 
 6315      4D4F544F 
 6315      525F504F 
 6315      57455200 
 6316              	.LASF42:
 6317 057a 705F6570 		.ascii	"p_epending\000"
 6317      656E6469 
 6317      6E6700
 6318              	.LASF135:
 6319 0585 64726177 		.ascii	"draw_line\000"
 6319      5F6C696E 
 6319      6500
 6320              	.LASF11:
 6321 058f 75696E74 		.ascii	"uint32_t\000"
 6321      33325F74 
 6321      00
 6322              	.LASF61:
 6323 0598 725F7175 		.ascii	"r_queue\000"
 6323      65756500 
 6324              	.LASF59:
 6325 05a0 76745F73 		.ascii	"vt_systime\000"
 6325      79737469 
 6325      6D6500
 6326              	.LASF89:
 6327 05ab 6C6F6E67 		.ascii	"long double\000"
 6327      20646F75 
 6327      626C6500 
 6328              	.LASF125:
ARM GAS  C:\Users\DNIEL~1\AppData\Local\Temp\ccvGaeHa.s 			page 120


 6329 05b7 4453505F 		.ascii	"DSP_OVER_CHARGE\000"
 6329      4F564552 
 6329      5F434841 
 6329      52474500 
 6330              	.LASF76:
 6331 05c7 63686172 		.ascii	"char\000"
 6331      00
 6332              	.LASF100:
 6333 05cc 4453505F 		.ascii	"DSP_x1_SPEED\000"
 6333      78315F53 
 6333      50454544 
 6333      00
 6334              	.LASF126:
 6335 05d9 4453505F 		.ascii	"DSP_DISCHARGE\000"
 6335      44495343 
 6335      48415247 
 6335      4500
 6336              	.LASF71:
 6337 05e7 6D5F6E65 		.ascii	"m_next\000"
 6337      787400
 6338              	.LASF25:
 6339 05ee 73797374 		.ascii	"systime_t\000"
 6339      696D655F 
 6339      7400
 6340              	.LASF44:
 6341 05f8 705F7265 		.ascii	"p_realprio\000"
 6341      616C7072 
 6341      696F00
 6342              	.LASF52:
 6343 0603 76746675 		.ascii	"vtfunc_t\000"
 6343      6E635F74 
 6343      00
 6344              	.LASF33:
 6345 060c 705F6E61 		.ascii	"p_name\000"
 6345      6D6500
 6346              	.LASF139:
 6347 0613 64737049 		.ascii	"dspInit\000"
 6347      6E697400 
 6348              	.LASF92:
 6349 061b 5F5F6170 		.ascii	"__ap\000"
 6349      00
 6350              	.LASF38:
 6351 0620 705F7469 		.ascii	"p_time\000"
 6351      6D6500
 6352              	.LASF160:
 6353 0627 6473705F 		.ascii	"dsp_activ\000"
 6353      61637469 
 6353      7600
 6354              	.LASF155:
 6355 0631 737A616D 		.ascii	"szamlalo\000"
 6355      6C616C6F 
 6355      00
 6356              	.LASF50:
 6357 063a 696E7463 		.ascii	"intctx\000"
 6357      747800
 6358              	.LASF40:
 6359 0641 705F6D73 		.ascii	"p_msgqueue\000"
ARM GAS  C:\Users\DNIEL~1\AppData\Local\Temp\ccvGaeHa.s 			page 121


 6359      67717565 
 6359      756500
 6360              	.LASF156:
 6361 064c 6275735F 		.ascii	"bus_read\000"
 6361      72656164 
 6361      00
 6362              	.LASF153:
 6363 0655 6275735F 		.ascii	"bus_status\000"
 6363      73746174 
 6363      757300
 6364              	.LASF58:
 6365 0660 76745F70 		.ascii	"vt_par\000"
 6365      617200
 6366              	.LASF109:
 6367 0667 4453505F 		.ascii	"DSP_x10_BATTERY\000"
 6367      7831305F 
 6367      42415454 
 6367      45525900 
 6368              	.LASF101:
 6369 0677 4453505F 		.ascii	"DSP_GAUGE\000"
 6369      47415547 
 6369      4500
 6370              	.LASF72:
 6371 0681 7264796D 		.ascii	"rdymsg\000"
 6371      736700
 6372              	.LASF36:
 6373 0688 705F7265 		.ascii	"p_refs\000"
 6373      667300
 6374              	.LASF67:
 6375 068f 52656164 		.ascii	"ReadyList\000"
 6375      794C6973 
 6375      7400
 6376              	.LASF148:
 6377 0699 726C6973 		.ascii	"rlist\000"
 6377      7400
 6378              	.LASF3:
 6379 069f 75696E74 		.ascii	"uint8_t\000"
 6379      385F7400 
 6380              	.LASF106:
 6381 06a7 4453505F 		.ascii	"DSP_x10_TEMP_SPEED\000"
 6381      7831305F 
 6381      54454D50 
 6381      5F535045 
 6381      454400
 6382              	.LASF157:
 6383 06ba 6275735F 		.ascii	"bus_bites\000"
 6383      62697465 
 6383      7300
 6384              	.LASF86:
 6385 06c4 42617365 		.ascii	"BaseChannel\000"
 6385      4368616E 
 6385      6E656C00 
 6386              	.LASF75:
 6387 06d0 65776D61 		.ascii	"ewmask\000"
 6387      736B00
 6388              	.LASF79:
 6389 06d7 72656164 		.ascii	"read\000"
ARM GAS  C:\Users\DNIEL~1\AppData\Local\Temp\ccvGaeHa.s 			page 122


 6389      00
 6390              	.LASF162:
 6391 06dc 474E5520 		.ascii	"GNU C 4.5.2\000"
 6391      4320342E 
 6391      352E3200 
 6392              	.LASF141:
 6393 06e8 61726763 		.ascii	"argc\000"
 6393      00
 6394              	.LASF122:
 6395 06ed 4453505F 		.ascii	"DSP_INDEX_LEFT\000"
 6395      494E4445 
 6395      585F4C45 
 6395      465400
 6396              	.LASF41:
 6397 06fc 705F6D73 		.ascii	"p_msg\000"
 6397      6700
 6398              	.LASF103:
 6399 0702 4453505F 		.ascii	"DSP_x1_AVG_SPEED\000"
 6399      78315F41 
 6399      56475F53 
 6399      50454544 
 6399      00
 6400              	.LASF115:
 6401 0713 4453505F 		.ascii	"DSP_x10_SUN_POWER\000"
 6401      7831305F 
 6401      53554E5F 
 6401      504F5745 
 6401      5200
 6402              	.LASF142:
 6403 0725 61726776 		.ascii	"argv\000"
 6403      00
 6404              	.LASF70:
 6405 072a 6D5F6F77 		.ascii	"m_owner\000"
 6405      6E657200 
 6406              	.LASF30:
 6407 0732 705F6374 		.ascii	"p_ctx\000"
 6407      7800
 6408              	.LASF39:
 6409 0738 705F7761 		.ascii	"p_waiting\000"
 6409      6974696E 
 6409      6700
 6410              	.LASF114:
 6411 0742 4453505F 		.ascii	"DSP_x100_SUN_POWER\000"
 6411      78313030 
 6411      5F53554E 
 6411      5F504F57 
 6411      455200
 6412              	.LASF165:
 6413 0755 63687072 		.ascii	"chprintf\000"
 6413      696E7466 
 6413      00
 6414              		.ident	"GCC: (Sourcery G++ Lite 2011.03-42) 4.5.2"
ARM GAS  C:\Users\DNIEL~1\AppData\Local\Temp\ccvGaeHa.s 			page 123


DEFINED SYMBOLS
                            *ABS*:00000000 dsp.c
C:\Users\DNIEL~1\AppData\Local\Temp\ccvGaeHa.s:24     .text.chprintf:00000000 $t
C:\Users\DNIEL~1\AppData\Local\Temp\ccvGaeHa.s:29     .text.chprintf:00000000 chprintf
C:\Users\DNIEL~1\AppData\Local\Temp\ccvGaeHa.s:69     .text.dspTask:00000000 $t
C:\Users\DNIEL~1\AppData\Local\Temp\ccvGaeHa.s:74     .text.dspTask:00000000 dspTask
C:\Users\DNIEL~1\AppData\Local\Temp\ccvGaeHa.s:249    .text.dspTask:000000e0 $d
C:\Users\DNIEL~1\AppData\Local\Temp\ccvGaeHa.s:283    .text.dspTask:0000011e $t
C:\Users\DNIEL~1\AppData\Local\Temp\ccvGaeHa.s:519    .text.dspTask:0000028c $d
C:\Users\DNIEL~1\AppData\Local\Temp\ccvGaeHa.s:534    .text.dspTask:000002b8 $t
C:\Users\DNIEL~1\AppData\Local\Temp\ccvGaeHa.s:984    .text.dspTask:0000057c $d
C:\Users\DNIEL~1\AppData\Local\Temp\ccvGaeHa.s:990    .text.dspTask:00000588 $t
C:\Users\DNIEL~1\AppData\Local\Temp\ccvGaeHa.s:1440   .text.dspTask:00000884 $d
C:\Users\DNIEL~1\AppData\Local\Temp\ccvGaeHa.s:1445   .text.dspTask:00000890 $t
C:\Users\DNIEL~1\AppData\Local\Temp\ccvGaeHa.s:1457   .text.dsp_LoadTop:00000000 $t
C:\Users\DNIEL~1\AppData\Local\Temp\ccvGaeHa.s:1463   .text.dsp_LoadTop:00000000 dsp_LoadTop
C:\Users\DNIEL~1\AppData\Local\Temp\ccvGaeHa.s:1569   .text.dsp_LoadMidle:00000000 $t
C:\Users\DNIEL~1\AppData\Local\Temp\ccvGaeHa.s:1575   .text.dsp_LoadMidle:00000000 dsp_LoadMidle
C:\Users\DNIEL~1\AppData\Local\Temp\ccvGaeHa.s:1643   .text.dsp_LoadBottom:00000000 $t
C:\Users\DNIEL~1\AppData\Local\Temp\ccvGaeHa.s:1649   .text.dsp_LoadBottom:00000000 dsp_LoadBottom
C:\Users\DNIEL~1\AppData\Local\Temp\ccvGaeHa.s:1795   .text.dsp_RefreshMidle:00000000 $t
C:\Users\DNIEL~1\AppData\Local\Temp\ccvGaeHa.s:1801   .text.dsp_RefreshMidle:00000000 dsp_RefreshMidle
C:\Users\DNIEL~1\AppData\Local\Temp\ccvGaeHa.s:1921   .text.dsp_RefreshMidle:000000f0 $d
C:\Users\DNIEL~1\AppData\Local\Temp\ccvGaeHa.s:1927   .text.dspInit:00000000 $t
C:\Users\DNIEL~1\AppData\Local\Temp\ccvGaeHa.s:1933   .text.dspInit:00000000 dspInit
C:\Users\DNIEL~1\AppData\Local\Temp\ccvGaeHa.s:1981   .text.dspInit:00000038 $d
C:\Users\DNIEL~1\AppData\Local\Temp\ccvGaeHa.s:1988   .text.dspGetValue:00000000 $t
C:\Users\DNIEL~1\AppData\Local\Temp\ccvGaeHa.s:1994   .text.dspGetValue:00000000 dspGetValue
C:\Users\DNIEL~1\AppData\Local\Temp\ccvGaeHa.s:2015   .text.dspGetValue:00000010 $d
C:\Users\DNIEL~1\AppData\Local\Temp\ccvGaeHa.s:2020   .text.cmd_dspvalues:00000000 $t
C:\Users\DNIEL~1\AppData\Local\Temp\ccvGaeHa.s:2026   .text.cmd_dspvalues:00000000 cmd_dspvalues
C:\Users\DNIEL~1\AppData\Local\Temp\ccvGaeHa.s:2188   .text.cmd_dspvalues:00000104 $d
C:\Users\DNIEL~1\AppData\Local\Temp\ccvGaeHa.s:2206   .text.cmdfrappans_dspmessages:00000000 $t
C:\Users\DNIEL~1\AppData\Local\Temp\ccvGaeHa.s:2212   .text.cmdfrappans_dspmessages:00000000 cmdfrappans_dspmessages
C:\Users\DNIEL~1\AppData\Local\Temp\ccvGaeHa.s:2396   .text.cmdfrappans_dspmessages:0000010c $d
C:\Users\DNIEL~1\AppData\Local\Temp\ccvGaeHa.s:2418   .text.cmd_dspbites:00000000 $t
C:\Users\DNIEL~1\AppData\Local\Temp\ccvGaeHa.s:2424   .text.cmd_dspbites:00000000 cmd_dspbites
C:\Users\DNIEL~1\AppData\Local\Temp\ccvGaeHa.s:2491   .text.cmd_dspbites:00000044 $d
C:\Users\DNIEL~1\AppData\Local\Temp\ccvGaeHa.s:2622   .data.db:00000000 db
C:\Users\DNIEL~1\AppData\Local\Temp\ccvGaeHa.s:2661   .bss.db2:00000000 db2
C:\Users\DNIEL~1\AppData\Local\Temp\ccvGaeHa.s:2517   .bss.cruise_assis:00000000 cruise_assis
C:\Users\DNIEL~1\AppData\Local\Temp\ccvGaeHa.s:2641   .bss.dspstate:00000000 dspstate
C:\Users\DNIEL~1\AppData\Local\Temp\ccvGaeHa.s:2655   .bss.dspmessages:00000000 dspmessages
C:\Users\DNIEL~1\AppData\Local\Temp\ccvGaeHa.s:2541   .bss.dsp_activ:00000000 dsp_activ
C:\Users\DNIEL~1\AppData\Local\Temp\ccvGaeHa.s:2536   .bss.c:00000000 c
C:\Users\DNIEL~1\AppData\Local\Temp\ccvGaeHa.s:2636   .bss.szamlalo:00000000 szamlalo
C:\Users\DNIEL~1\AppData\Local\Temp\ccvGaeHa.s:2508   .bss.bus_status:00000000 $d
C:\Users\DNIEL~1\AppData\Local\Temp\ccvGaeHa.s:2512   .bss.bus_status:00000000 bus_status
C:\Users\DNIEL~1\AppData\Local\Temp\ccvGaeHa.s:2518   .bss.cruise_assis:00000000 $d
C:\Users\DNIEL~1\AppData\Local\Temp\ccvGaeHa.s:2520   .bss.bus_bites:00000000 $d
C:\Users\DNIEL~1\AppData\Local\Temp\ccvGaeHa.s:2524   .bss.bus_bites:00000000 bus_bites
C:\Users\DNIEL~1\AppData\Local\Temp\ccvGaeHa.s:2527   .bss.tasknumber:00000000 $d
C:\Users\DNIEL~1\AppData\Local\Temp\ccvGaeHa.s:2531   .bss.tasknumber:00000000 tasknumber
C:\Users\DNIEL~1\AppData\Local\Temp\ccvGaeHa.s:2537   .bss.c:00000000 $d
C:\Users\DNIEL~1\AppData\Local\Temp\ccvGaeHa.s:2542   .bss.dsp_activ:00000000 $d
C:\Users\DNIEL~1\AppData\Local\Temp\ccvGaeHa.s:2544   .bss.bus_read:00000000 $d
C:\Users\DNIEL~1\AppData\Local\Temp\ccvGaeHa.s:2548   .bss.bus_read:00000000 bus_read
ARM GAS  C:\Users\DNIEL~1\AppData\Local\Temp\ccvGaeHa.s 			page 124


C:\Users\DNIEL~1\AppData\Local\Temp\ccvGaeHa.s:2551   .rodata.str1.4:00000000 $d
C:\Users\DNIEL~1\AppData\Local\Temp\ccvGaeHa.s:2618   .data.db:00000000 $d
C:\Users\DNIEL~1\AppData\Local\Temp\ccvGaeHa.s:2625   .bss.bus_bit:00000000 $d
C:\Users\DNIEL~1\AppData\Local\Temp\ccvGaeHa.s:2629   .bss.bus_bit:00000000 bus_bit
C:\Users\DNIEL~1\AppData\Local\Temp\ccvGaeHa.s:2632   .bss.szamlalo:00000000 $d
C:\Users\DNIEL~1\AppData\Local\Temp\ccvGaeHa.s:2642   .bss.dspstate:00000000 $d
C:\Users\DNIEL~1\AppData\Local\Temp\ccvGaeHa.s:2644   .data.dspValue:00000000 $d
C:\Users\DNIEL~1\AppData\Local\Temp\ccvGaeHa.s:2648   .data.dspValue:00000000 dspValue
C:\Users\DNIEL~1\AppData\Local\Temp\ccvGaeHa.s:2656   .bss.dspmessages:00000000 $d
C:\Users\DNIEL~1\AppData\Local\Temp\ccvGaeHa.s:2658   .bss.db2:00000000 $d
C:\Users\DNIEL~1\AppData\Local\Temp\ccvGaeHa.s:2664   .bss.wadspTask:00000000 $d
C:\Users\DNIEL~1\AppData\Local\Temp\ccvGaeHa.s:2668   .bss.wadspTask:00000000 wadspTask
                     .debug_frame:00000010 $d
C:\Users\DNIEL~1\AppData\Local\Temp\ccvGaeHa.s:1926   .text.dsp_RefreshMidle:000000f8 $t
C:\Users\DNIEL~1\AppData\Local\Temp\ccvGaeHa.s:1987   .text.dspInit:00000044 $t
C:\Users\DNIEL~1\AppData\Local\Temp\ccvGaeHa.s:2019   .text.dspGetValue:00000014 $t
C:\Users\DNIEL~1\AppData\Local\Temp\ccvGaeHa.s:2205   .text.cmd_dspvalues:0000013c $t
C:\Users\DNIEL~1\AppData\Local\Temp\ccvGaeHa.s:2507   .text.cmd_dspbites:00000058 $t

UNDEFINED SYMBOLS
chvprintf
chThdSleep
bus_Read
speedGetSpeed
media_SetSector
media_VideoFrame
cruiseStatus
rlist
vtlist
getLightFlashing
cruiseGet
gfx_Transparency
gfx_TransparentColour
media_Image
draw_line
gfx_Cls
file_Mount
bus_In
chThdCreateStatic
strcmp
atol
gfx_BGcolour
