ARM GAS  C:\Users\srich\AppData\Local\Temp\ccv3JVxh.s 			page 1


   1              		.syntax unified
   2              		.cpu cortex-m4
   3              		.fpu softvfp
   4              		.eabi_attribute 20, 1
   5              		.eabi_attribute 21, 1
   6              		.eabi_attribute 23, 3
   7              		.eabi_attribute 24, 1
   8              		.eabi_attribute 25, 1
   9              		.eabi_attribute 26, 1
  10              		.eabi_attribute 30, 2
  11              		.eabi_attribute 34, 1
  12              		.eabi_attribute 18, 4
  13              		.thumb
  14              		.file	"dsp.c"
  15              		.text
  16              	.Ltext0:
  17              		.cfi_sections	.debug_frame
  18              		.section	.text.DSPReader,"ax",%progbits
  19              		.align	2
  20              		.p2align 4,,15
  21              		.thumb
  22              		.thumb_func
  23              		.type	DSPReader, %function
  24              	DSPReader:
  25              	.LFB132:
  26              		.file 1 "src/dsp.c"
  27              		.loc 1 549 0
  28              		.cfi_startproc
  29              		@ args = 0, pretend = 0, frame = 0
  30              		@ frame_needed = 0, uses_anonymous_args = 0
  31              	.LVL0:
  32 0000 38B5     		push	{r3, r4, r5, lr}
  33              		.cfi_def_cfa_offset 16
  34              		.cfi_offset 3, -16
  35              		.cfi_offset 4, -12
  36              		.cfi_offset 5, -8
  37              		.cfi_offset 14, -4
  38              		.loc 1 553 0
  39 0002 084B     		ldr	r3, .L9
  40              		.loc 1 554 0
  41 0004 0849     		ldr	r1, .L9+4
  42              		.loc 1 553 0
  43 0006 9B69     		ldr	r3, [r3, #24]
  44 0008 084A     		ldr	r2, .L9+8
  45              		.loc 1 554 0
  46 000a CC68     		ldr	r4, [r1, #12]
  47              	.LVL1:
  48 000c 084D     		ldr	r5, .L9+12
  49              		.loc 1 553 0
  50 000e 9A61     		str	r2, [r3, #24]
  51              	.LVL2:
  52              	.L3:
  53              	.LBB86:
  54              		.loc 1 557 0
  55 0010 FFF7FEFF 		bl	bus_Read
  56              	.LVL3:
  57              		.loc 1 556 0
ARM GAS  C:\Users\srich\AppData\Local\Temp\ccv3JVxh.s 			page 2


  58 0014 3234     		adds	r4, r4, #50
  59              	.LVL4:
  60              		.loc 1 558 0
  61 0016 00B1     		cbz	r0, .L2
  62              		.loc 1 559 0
  63 0018 2870     		strb	r0, [r5]
  64              	.L2:
  65              		.loc 1 561 0
  66 001a 2046     		mov	r0, r4
  67              	.LVL5:
  68 001c FFF7FEFF 		bl	chThdSleepUntil
  69              	.LVL6:
  70              	.LBE86:
  71              		.loc 1 562 0
  72 0020 F6E7     		b	.L3
  73              	.L10:
  74 0022 00BF     		.align	2
  75              	.L9:
  76 0024 00000000 		.word	rlist
  77 0028 00000000 		.word	vtlist
  78 002c 00000000 		.word	.LC0
  79 0030 00000000 		.word	.LANCHOR0
  80              		.cfi_endproc
  81              	.LFE132:
  82              		.size	DSPReader, .-DSPReader
  83              		.section	.text.chprintf,"ax",%progbits
  84              		.align	2
  85              		.p2align 4,,15
  86              		.thumb
  87              		.thumb_func
  88              		.type	chprintf, %function
  89              	chprintf:
  90              	.LFB118:
  91              		.file 2 "../../../ChibiOS/os/various/chprintf.h"
  92              		.loc 2 69 0
  93              		.cfi_startproc
  94              		@ args = 4, pretend = 12, frame = 8
  95              		@ frame_needed = 0, uses_anonymous_args = 1
  96              	.LVL7:
  97 0000 0EB4     		push	{r1, r2, r3}
  98              		.cfi_def_cfa_offset 12
  99              		.cfi_offset 1, -12
 100              		.cfi_offset 2, -8
 101              		.cfi_offset 3, -4
 102 0002 00B5     		push	{lr}
 103              		.cfi_def_cfa_offset 16
 104              		.cfi_offset 14, -16
 105 0004 82B0     		sub	sp, sp, #8
 106              		.cfi_def_cfa_offset 24
 107              		.loc 2 69 0
 108 0006 03AA     		add	r2, sp, #12
 109 0008 52F8041B 		ldr	r1, [r2], #4
 110              		.loc 2 72 0
 111 000c 0192     		str	r2, [sp, #4]
 112              		.loc 2 73 0
 113 000e FFF7FEFF 		bl	chvprintf
 114              	.LVL8:
ARM GAS  C:\Users\srich\AppData\Local\Temp\ccv3JVxh.s 			page 3


 115              		.loc 2 75 0
 116 0012 02B0     		add	sp, sp, #8
 117              		.cfi_def_cfa_offset 16
 118              		@ sp needed
 119 0014 5DF804EB 		ldr	lr, [sp], #4
 120              		.cfi_restore 14
 121              		.cfi_def_cfa_offset 12
 122 0018 03B0     		add	sp, sp, #12
 123              		.cfi_restore 3
 124              		.cfi_restore 2
 125              		.cfi_restore 1
 126              		.cfi_def_cfa_offset 0
 127 001a 7047     		bx	lr
 128              		.cfi_endproc
 129              	.LFE118:
 130              		.size	chprintf, .-chprintf
 131              		.section	.text.gfx_ShowPngXY,"ax",%progbits
 132              		.align	2
 133              		.p2align 4,,15
 134              		.global	gfx_ShowPngXY
 135              		.thumb
 136              		.thumb_func
 137              		.type	gfx_ShowPngXY, %function
 138              	gfx_ShowPngXY:
 139              	.LFB119:
 140              		.loc 1 45 0
 141              		.cfi_startproc
 142              		@ args = 0, pretend = 0, frame = 0
 143              		@ frame_needed = 0, uses_anonymous_args = 0
 144              	.LVL9:
 145 0000 38B5     		push	{r3, r4, r5, lr}
 146              		.cfi_def_cfa_offset 16
 147              		.cfi_offset 3, -16
 148              		.cfi_offset 4, -12
 149              		.cfi_offset 5, -8
 150              		.cfi_offset 14, -4
 151              		.loc 1 45 0
 152 0002 0D46     		mov	r5, r1
 153 0004 1446     		mov	r4, r2
 154              		.loc 1 46 0
 155 0006 0146     		mov	r1, r0
 156              	.LVL10:
 157 0008 0020     		movs	r0, #0
 158              	.LVL11:
 159 000a FFF7FEFF 		bl	media_SetSector
 160              	.LVL12:
 161              		.loc 1 47 0
 162 000e 2846     		mov	r0, r5
 163 0010 2146     		mov	r1, r4
 164              		.loc 1 48 0
 165 0012 BDE83840 		pop	{r3, r4, r5, lr}
 166              		.cfi_restore 14
 167              		.cfi_restore 5
 168              		.cfi_restore 4
 169              		.cfi_restore 3
 170              		.cfi_def_cfa_offset 0
 171              	.LVL13:
ARM GAS  C:\Users\srich\AppData\Local\Temp\ccv3JVxh.s 			page 4


 172              		.loc 1 47 0
 173 0016 FFF7FEBF 		b	media_Image
 174              	.LVL14:
 175              		.cfi_endproc
 176              	.LFE119:
 177              		.size	gfx_ShowPngXY, .-gfx_ShowPngXY
 178 001a 00BF     		.section	.text.gfx_ShowGifXY,"ax",%progbits
 179              		.align	2
 180              		.p2align 4,,15
 181              		.global	gfx_ShowGifXY
 182              		.thumb
 183              		.thumb_func
 184              		.type	gfx_ShowGifXY, %function
 185              	gfx_ShowGifXY:
 186              	.LFB120:
 187              		.loc 1 53 0
 188              		.cfi_startproc
 189              		@ args = 0, pretend = 0, frame = 0
 190              		@ frame_needed = 0, uses_anonymous_args = 0
 191              	.LVL15:
 192 0000 70B5     		push	{r4, r5, r6, lr}
 193              		.cfi_def_cfa_offset 16
 194              		.cfi_offset 4, -16
 195              		.cfi_offset 5, -12
 196              		.cfi_offset 6, -8
 197              		.cfi_offset 14, -4
 198              		.loc 1 53 0
 199 0002 1546     		mov	r5, r2
 200 0004 0E46     		mov	r6, r1
 201 0006 1C46     		mov	r4, r3
 202              		.loc 1 54 0
 203 0008 0146     		mov	r1, r0
 204              	.LVL16:
 205 000a 0020     		movs	r0, #0
 206              	.LVL17:
 207 000c FFF7FEFF 		bl	media_SetSector
 208              	.LVL18:
 209              		.loc 1 55 0
 210 0010 3046     		mov	r0, r6
 211 0012 2946     		mov	r1, r5
 212 0014 2246     		mov	r2, r4
 213              		.loc 1 56 0
 214 0016 BDE87040 		pop	{r4, r5, r6, lr}
 215              		.cfi_restore 14
 216              		.cfi_restore 6
 217              		.cfi_restore 5
 218              		.cfi_restore 4
 219              		.cfi_def_cfa_offset 0
 220              	.LVL19:
 221              		.loc 1 55 0
 222 001a FFF7FEBF 		b	media_VideoFrame
 223              	.LVL20:
 224              		.cfi_endproc
 225              	.LFE120:
 226              		.size	gfx_ShowGifXY, .-gfx_ShowGifXY
 227 001e 00BF     		.section	.text.ConvertToBcd,"ax",%progbits
 228              		.align	2
ARM GAS  C:\Users\srich\AppData\Local\Temp\ccv3JVxh.s 			page 5


 229              		.p2align 4,,15
 230              		.global	ConvertToBcd
 231              		.thumb
 232              		.thumb_func
 233              		.type	ConvertToBcd, %function
 234              	ConvertToBcd:
 235              	.LFB121:
 236              		.loc 1 58 0
 237              		.cfi_startproc
 238              		@ args = 0, pretend = 0, frame = 0
 239              		@ frame_needed = 0, uses_anonymous_args = 0
 240              		@ link register save eliminated.
 241              	.LVL21:
 242              		.loc 1 64 0
 243 0000 1A4B     		ldr	r3, .L26
 244              		.loc 1 65 0
 245 0002 1B4A     		ldr	r2, .L26+4
 246              		.loc 1 58 0
 247 0004 70B4     		push	{r4, r5, r6}
 248              		.cfi_def_cfa_offset 12
 249              		.cfi_offset 4, -12
 250              		.cfi_offset 5, -8
 251              		.cfi_offset 6, -4
 252              		.loc 1 64 0
 253 0006 83FB0063 		smull	r6, r3, r3, r0
 254 000a C617     		asrs	r6, r0, #31
 255              		.loc 1 66 0
 256 000c 194C     		ldr	r4, .L26+8
 257              		.loc 1 68 0
 258 000e 1A4D     		ldr	r5, .L26+12
 259              		.loc 1 64 0
 260 0010 C6EBA313 		rsb	r3, r6, r3, asr #6
 261              	.LVL22:
 262              		.loc 1 65 0
 263 0014 02FB0300 		mla	r0, r2, r3, r0
 264              	.LVL23:
 265              		.loc 1 66 0
 266 0018 84FB0042 		smull	r4, r2, r4, r0
 267 001c C417     		asrs	r4, r0, #31
 268 001e C4EB6214 		rsb	r4, r4, r2, asr #5
 269              	.LVL24:
 270              		.loc 1 67 0
 271 0022 6FF06302 		mvn	r2, #99
 272 0026 02FB0400 		mla	r0, r2, r4, r0
 273              	.LVL25:
 274              		.loc 1 68 0
 275 002a 85FB0025 		smull	r2, r5, r5, r0
 276 002e C217     		asrs	r2, r0, #31
 277 0030 C2EBA502 		rsb	r2, r2, r5, asr #2
 278              	.LVL26:
 279              		.loc 1 69 0
 280 0034 6FF00905 		mvn	r5, #9
 281              		.loc 1 72 0
 282 0038 DBB2     		uxtb	r3, r3
 283              	.LVL27:
 284              		.loc 1 69 0
 285 003a 05FB0200 		mla	r0, r5, r2, r0
ARM GAS  C:\Users\srich\AppData\Local\Temp\ccv3JVxh.s 			page 6


 286              	.LVL28:
 287              		.loc 1 72 0
 288 003e CB70     		strb	r3, [r1, #3]
 289              		.loc 1 73 0
 290 0040 8C70     		strb	r4, [r1, #2]
 291              		.loc 1 74 0
 292 0042 4A70     		strb	r2, [r1, #1]
 293              		.loc 1 75 0
 294 0044 0870     		strb	r0, [r1]
 295              	.LVL29:
 296              		.loc 1 78 0
 297 0046 73B9     		cbnz	r3, .L21
 298 0048 0331     		adds	r1, r1, #3
 299              	.LVL30:
 300 004a 0320     		movs	r0, #3
 301              	.LVL31:
 302              	.L19:
 303              		.loc 1 78 0 is_stmt 0 discriminator 3
 304 004c 11F8013D 		ldrb	r3, [r1, #-1]!	@ zero_extendqisi2
 305 0050 0138     		subs	r0, r0, #1
 306              	.LVL32:
 307 0052 002B     		cmp	r3, #0
 308 0054 FAD0     		beq	.L19
 309              		.loc 1 79 0 is_stmt 1
 310 0056 0028     		cmp	r0, #0
 311 0058 02DB     		blt	.L22
 312 005a 0130     		adds	r0, r0, #1
 313              	.LVL33:
 314              	.L20:
 315              		.loc 1 80 0 discriminator 4
 316 005c 70BC     		pop	{r4, r5, r6}
 317              		.cfi_remember_state
 318              		.cfi_restore 6
 319              		.cfi_restore 5
 320              		.cfi_restore 4
 321              		.cfi_def_cfa_offset 0
 322              	.LVL34:
 323 005e 7047     		bx	lr
 324              	.LVL35:
 325              	.L22:
 326              		.cfi_restore_state
 327              		.loc 1 79 0
 328 0060 0020     		movs	r0, #0
 329              	.LVL36:
 330              		.loc 1 80 0
 331 0062 70BC     		pop	{r4, r5, r6}
 332              		.cfi_remember_state
 333              		.cfi_restore 4
 334              		.cfi_restore 5
 335              		.cfi_restore 6
 336              		.cfi_def_cfa_offset 0
 337              	.LVL37:
 338 0064 7047     		bx	lr
 339              	.LVL38:
 340              	.L21:
 341              		.cfi_restore_state
 342              		.loc 1 78 0
ARM GAS  C:\Users\srich\AppData\Local\Temp\ccv3JVxh.s 			page 7


 343 0066 0420     		movs	r0, #4
 344              	.LVL39:
 345 0068 F8E7     		b	.L20
 346              	.L27:
 347 006a 00BF     		.align	2
 348              	.L26:
 349 006c D34D6210 		.word	274877907
 350 0070 18FCFFFF 		.word	-1000
 351 0074 1F85EB51 		.word	1374389535
 352 0078 67666666 		.word	1717986919
 353              		.cfi_endproc
 354              	.LFE121:
 355              		.size	ConvertToBcd, .-ConvertToBcd
 356              		.section	.text.gfx_PlaceNumber,"ax",%progbits
 357              		.align	2
 358              		.p2align 4,,15
 359              		.global	gfx_PlaceNumber
 360              		.thumb
 361              		.thumb_func
 362              		.type	gfx_PlaceNumber, %function
 363              	gfx_PlaceNumber:
 364              	.LFB122:
 365              		.loc 1 82 0
 366              		.cfi_startproc
 367              		@ args = 12, pretend = 0, frame = 24
 368              		@ frame_needed = 0, uses_anonymous_args = 0
 369              	.LVL40:
 370 0000 2DE9F04F 		push	{r4, r5, r6, r7, r8, r9, r10, fp, lr}
 371              		.cfi_def_cfa_offset 36
 372              		.cfi_offset 4, -36
 373              		.cfi_offset 5, -32
 374              		.cfi_offset 6, -28
 375              		.cfi_offset 7, -24
 376              		.cfi_offset 8, -20
 377              		.cfi_offset 9, -16
 378              		.cfi_offset 10, -12
 379              		.cfi_offset 11, -8
 380              		.cfi_offset 14, -4
 381 0004 87B0     		sub	sp, sp, #28
 382              		.cfi_def_cfa_offset 64
 383              		.loc 1 82 0
 384 0006 0746     		mov	r7, r0
 385 0008 BDF84040 		ldrh	r4, [sp, #64]
 386 000c 9DF84860 		ldrb	r6, [sp, #72]	@ zero_extendqisi2
 387 0010 0296     		str	r6, [sp, #8]
 388 0012 8846     		mov	r8, r1
 389              		.loc 1 86 0
 390 0014 2046     		mov	r0, r4
 391              	.LVL41:
 392 0016 05A9     		add	r1, sp, #20
 393              	.LVL42:
 394              		.loc 1 82 0
 395 0018 0194     		str	r4, [sp, #4]
 396 001a 9DF84450 		ldrb	r5, [sp, #68]	@ zero_extendqisi2
 397 001e 0092     		str	r2, [sp]
 398              	.LVL43:
 399 0020 9B46     		mov	fp, r3
ARM GAS  C:\Users\srich\AppData\Local\Temp\ccv3JVxh.s 			page 8


 400              		.loc 1 86 0
 401 0022 FFF7FEFF 		bl	ConvertToBcd
 402              	.LVL44:
 403              		.loc 1 88 0
 404 0026 061E     		subs	r6, r0, #0
 405 0028 16DD     		ble	.L33
 406 002a 0DF1140A 		add	r10, sp, #20
 407 002e 0AEB0603 		add	r3, r10, r6
 408 0032 009C     		ldr	r4, [sp]
 409 0034 0395     		str	r5, [sp, #12]
 410 0036 9946     		mov	r9, r3
 411              	.LVL45:
 412              	.L32:
 413              		.loc 1 90 0 discriminator 3
 414 0038 1AF8015B 		ldrb	r5, [r10], #1	@ zero_extendqisi2
 415              	.LVL46:
 416              	.LBB87:
 417              	.LBB88:
 418              		.loc 1 54 0 discriminator 3
 419 003c 3946     		mov	r1, r7
 420 003e 0020     		movs	r0, #0
 421 0040 FFF7FEFF 		bl	media_SetSector
 422              	.LVL47:
 423              		.loc 1 55 0 discriminator 3
 424 0044 2146     		mov	r1, r4
 425 0046 4046     		mov	r0, r8
 426 0048 2A46     		mov	r2, r5
 427 004a FFF7FEFF 		bl	media_VideoFrame
 428              	.LVL48:
 429              	.LBE88:
 430              	.LBE87:
 431              		.loc 1 88 0 discriminator 3
 432 004e CA45     		cmp	r10, r9
 433              		.loc 1 91 0 discriminator 3
 434 0050 CBEB0404 		rsb	r4, fp, r4
 435              	.LVL49:
 436              		.loc 1 88 0 discriminator 3
 437 0054 F0D1     		bne	.L32
 438 0056 039D     		ldr	r5, [sp, #12]
 439              	.LVL50:
 440              	.L33:
 441              		.loc 1 95 0
 442 0058 019B     		ldr	r3, [sp, #4]
 443 005a 03B3     		cbz	r3, .L42
 444              	.L31:
 445              		.loc 1 98 0
 446 005c 009B     		ldr	r3, [sp]
 447              		.loc 1 99 0
 448 005e 012D     		cmp	r5, #1
 449              		.loc 1 98 0
 450 0060 CBEB0309 		rsb	r9, fp, r3
 451              	.LVL51:
 452              		.loc 1 99 0
 453 0064 18DD     		ble	.L28
 454 0066 0124     		movs	r4, #1
 455 0068 DDF808A0 		ldr	r10, [sp, #8]
 456 006c 03E0     		b	.L34
ARM GAS  C:\Users\srich\AppData\Local\Temp\ccv3JVxh.s 			page 9


 457              	.LVL52:
 458              	.L35:
 459              		.loc 1 99 0 is_stmt 0 discriminator 2
 460 006e AC42     		cmp	r4, r5
 461              		.loc 1 104 0 is_stmt 1 discriminator 2
 462 0070 CBEB0909 		rsb	r9, fp, r9
 463              	.LVL53:
 464              		.loc 1 99 0 discriminator 2
 465 0074 10D0     		beq	.L28
 466              	.LVL54:
 467              	.L34:
 468              		.loc 1 101 0
 469 0076 A642     		cmp	r6, r4
 470              		.loc 1 99 0
 471 0078 04F10104 		add	r4, r4, #1
 472              	.LVL55:
 473              		.loc 1 101 0
 474 007c F7DC     		bgt	.L35
 475              	.LVL56:
 476              	.LBB89:
 477              	.LBB90:
 478              		.loc 1 54 0
 479 007e 3946     		mov	r1, r7
 480 0080 0020     		movs	r0, #0
 481 0082 FFF7FEFF 		bl	media_SetSector
 482              	.LVL57:
 483              		.loc 1 55 0
 484 0086 4946     		mov	r1, r9
 485 0088 4046     		mov	r0, r8
 486 008a 5246     		mov	r2, r10
 487 008c FFF7FEFF 		bl	media_VideoFrame
 488              	.LVL58:
 489              	.LBE90:
 490              	.LBE89:
 491              		.loc 1 99 0
 492 0090 AC42     		cmp	r4, r5
 493              		.loc 1 104 0
 494 0092 CBEB0909 		rsb	r9, fp, r9
 495              	.LVL59:
 496              		.loc 1 99 0
 497 0096 EED1     		bne	.L34
 498              	.LVL60:
 499              	.L28:
 500              		.loc 1 106 0
 501 0098 07B0     		add	sp, sp, #28
 502              		.cfi_remember_state
 503              		.cfi_def_cfa_offset 36
 504              	.LVL61:
 505              		@ sp needed
 506 009a BDE8F08F 		pop	{r4, r5, r6, r7, r8, r9, r10, fp, pc}
 507              	.LVL62:
 508              	.L42:
 509              		.cfi_restore_state
 510              	.LBB91:
 511              	.LBB92:
 512              		.loc 1 54 0
 513 009e 019C     		ldr	r4, [sp, #4]
ARM GAS  C:\Users\srich\AppData\Local\Temp\ccv3JVxh.s 			page 10


 514 00a0 3946     		mov	r1, r7
 515 00a2 2046     		mov	r0, r4
 516 00a4 FFF7FEFF 		bl	media_SetSector
 517              	.LVL63:
 518              		.loc 1 55 0
 519 00a8 4046     		mov	r0, r8
 520 00aa 0099     		ldr	r1, [sp]
 521 00ac 2246     		mov	r2, r4
 522 00ae FFF7FEFF 		bl	media_VideoFrame
 523              	.LVL64:
 524 00b2 D3E7     		b	.L31
 525              	.LBE92:
 526              	.LBE91:
 527              		.cfi_endproc
 528              	.LFE122:
 529              		.size	gfx_PlaceNumber, .-gfx_PlaceNumber
 530              		.section	.text.LoadImages,"ax",%progbits
 531              		.align	2
 532              		.p2align 4,,15
 533              		.global	LoadImages
 534              		.thumb
 535              		.thumb_func
 536              		.type	LoadImages, %function
 537              	LoadImages:
 538              	.LFB123:
 539              		.loc 1 108 0
 540              		.cfi_startproc
 541              		@ args = 0, pretend = 0, frame = 0
 542              		@ frame_needed = 0, uses_anonymous_args = 0
 543 0000 2DE9F041 		push	{r4, r5, r6, r7, r8, lr}
 544              		.cfi_def_cfa_offset 24
 545              		.cfi_offset 4, -24
 546              		.cfi_offset 5, -20
 547              		.cfi_offset 6, -16
 548              		.cfi_offset 7, -12
 549              		.cfi_offset 8, -8
 550              		.cfi_offset 14, -4
 551              		.loc 1 110 0
 552 0004 C04B     		ldr	r3, .L46
 553 0006 9C6D     		ldr	r4, [r3, #88]
 554              		.loc 1 108 0
 555 0008 84B0     		sub	sp, sp, #16
 556              		.cfi_def_cfa_offset 40
 557              		.loc 1 110 0
 558 000a 24BB     		cbnz	r4, .L44
 559              		.loc 1 111 0
 560 000c 0120     		movs	r0, #1
 561 000e FFF7FEFF 		bl	gfx_Transparency
 562              	.LVL65:
 563              		.loc 1 112 0
 564 0012 1F20     		movs	r0, #31
 565 0014 FFF7FEFF 		bl	gfx_TransparentColour
 566              	.LVL66:
 567              	.LBB93:
 568              	.LBB94:
 569              		.loc 1 54 0
 570 0018 41F24151 		movw	r1, #5441
ARM GAS  C:\Users\srich\AppData\Local\Temp\ccv3JVxh.s 			page 11


 571 001c 2046     		mov	r0, r4
 572 001e FFF7FEFF 		bl	media_SetSector
 573              	.LVL67:
 574              		.loc 1 55 0
 575 0022 2146     		mov	r1, r4
 576 0024 2246     		mov	r2, r4
 577 0026 A220     		movs	r0, #162
 578 0028 FFF7FEFF 		bl	media_VideoFrame
 579              	.LVL68:
 580              	.LBE94:
 581              	.LBE93:
 582              		.loc 1 115 0
 583 002c 0322     		movs	r2, #3
 584 002e 0A23     		movs	r3, #10
 585 0030 0192     		str	r2, [sp, #4]
 586 0032 0293     		str	r3, [sp, #8]
 587 0034 41F23440 		movw	r0, #5172
 588 0038 D221     		movs	r1, #210
 589 003a A222     		movs	r2, #162
 590 003c 4023     		movs	r3, #64
 591 003e 0094     		str	r4, [sp]
 592 0040 FFF7FEFF 		bl	gfx_PlaceNumber
 593              	.LVL69:
 594              	.LBB95:
 595              	.LBB96:
 596              		.loc 1 46 0
 597 0044 44F68D01 		movw	r1, #18573
 598 0048 2046     		mov	r0, r4
 599 004a FFF7FEFF 		bl	media_SetSector
 600              	.LVL70:
 601              		.loc 1 47 0
 602 004e CF20     		movs	r0, #207
 603 0050 E221     		movs	r1, #226
 604 0052 FFF7FEFF 		bl	media_Image
 605              	.LVL71:
 606              	.L44:
 607              	.LBE96:
 608              	.LBE95:
 609              	.LBB97:
 610              	.LBB98:
 611              		.loc 1 54 0
 612 0056 41F21841 		movw	r1, #5144
 613 005a 0020     		movs	r0, #0
 614 005c FFF7FEFF 		bl	media_SetSector
 615              	.LVL72:
 616              		.loc 1 55 0
 617 0060 0022     		movs	r2, #0
 618 0062 0421     		movs	r1, #4
 619 0064 4FF4D970 		mov	r0, #434
 620 0068 FFF7FEFF 		bl	media_VideoFrame
 621              	.LVL73:
 622              	.LBE98:
 623              	.LBE97:
 624              	.LBB99:
 625              	.LBB100:
 626              		.loc 1 54 0
 627 006c 41F22341 		movw	r1, #5155
ARM GAS  C:\Users\srich\AppData\Local\Temp\ccv3JVxh.s 			page 12


 628 0070 0020     		movs	r0, #0
 629 0072 FFF7FEFF 		bl	media_SetSector
 630              	.LVL74:
 631              		.loc 1 55 0
 632 0076 0022     		movs	r2, #0
 633 0078 EB21     		movs	r1, #235
 634 007a 4FF4D970 		mov	r0, #434
 635 007e FFF7FEFF 		bl	media_VideoFrame
 636              	.LVL75:
 637              	.LBE100:
 638              	.LBE99:
 639              	.LBB101:
 640              	.LBB102:
 641              		.loc 1 54 0
 642 0082 41F2F131 		movw	r1, #5105
 643 0086 0020     		movs	r0, #0
 644 0088 FFF7FEFF 		bl	media_SetSector
 645              	.LVL76:
 646              		.loc 1 55 0
 647 008c 0122     		movs	r2, #1
 648 008e 0A21     		movs	r1, #10
 649 0090 4FF4BE70 		mov	r0, #380
 650 0094 FFF7FEFF 		bl	media_VideoFrame
 651              	.LVL77:
 652              	.LBE102:
 653              	.LBE101:
 654              	.LBB103:
 655              	.LBB104:
 656              		.loc 1 54 0
 657 0098 41F22F51 		movw	r1, #5423
 658 009c 0020     		movs	r0, #0
 659 009e FFF7FEFF 		bl	media_SetSector
 660              	.LVL78:
 661              		.loc 1 55 0
 662 00a2 0022     		movs	r2, #0
 663 00a4 D721     		movs	r1, #215
 664 00a6 4FF4C070 		mov	r0, #384
 665 00aa FFF7FEFF 		bl	media_VideoFrame
 666              	.LVL79:
 667              	.LBE104:
 668              	.LBE103:
 669              	.LBB105:
 670              	.LBB106:
 671              		.loc 1 54 0
 672 00ae 41F20A41 		movw	r1, #5130
 673 00b2 0020     		movs	r0, #0
 674 00b4 FFF7FEFF 		bl	media_SetSector
 675              	.LVL80:
 676              		.loc 1 55 0
 677 00b8 0022     		movs	r2, #0
 678 00ba 9821     		movs	r1, #152
 679 00bc 40F27F10 		movw	r0, #383
 680 00c0 FFF7FEFF 		bl	media_VideoFrame
 681              	.LVL81:
 682              	.LBE106:
 683              	.LBE105:
 684              	.LBB107:
ARM GAS  C:\Users\srich\AppData\Local\Temp\ccv3JVxh.s 			page 13


 685              	.LBB108:
 686              		.loc 1 54 0
 687 00c4 0020     		movs	r0, #0
 688 00c6 0146     		mov	r1, r0
 689 00c8 FFF7FEFF 		bl	media_SetSector
 690              	.LVL82:
 691              		.loc 1 55 0
 692 00cc 0022     		movs	r2, #0
 693 00ce 4E21     		movs	r1, #78
 694 00d0 4FF4C070 		mov	r0, #384
 695 00d4 FFF7FEFF 		bl	media_VideoFrame
 696              	.LVL83:
 697              	.LBE108:
 698              	.LBE107:
 699              	.LBB109:
 700              	.LBB110:
 701              		.loc 1 54 0
 702 00d8 3721     		movs	r1, #55
 703 00da 0020     		movs	r0, #0
 704 00dc FFF7FEFF 		bl	media_SetSector
 705              	.LVL84:
 706              		.loc 1 55 0
 707 00e0 0021     		movs	r1, #0
 708              	.LBE110:
 709              	.LBE109:
 710              		.loc 1 134 0
 711 00e2 0C46     		mov	r4, r1
 712 00e4 0226     		movs	r6, #2
 713              	.LBB112:
 714              	.LBB111:
 715              		.loc 1 55 0
 716 00e6 0A46     		mov	r2, r1
 717 00e8 0520     		movs	r0, #5
 718 00ea FFF7FEFF 		bl	media_VideoFrame
 719              	.LVL85:
 720              	.LBE111:
 721              	.LBE112:
 722              		.loc 1 134 0
 723 00ee 4722     		movs	r2, #71
 724 00f0 1723     		movs	r3, #23
 725 00f2 0196     		str	r6, [sp, #4]
 726 00f4 0094     		str	r4, [sp]
 727 00f6 0294     		str	r4, [sp, #8]
 728 00f8 44F66500 		movw	r0, #18533
 729 00fc 4FF4DA71 		mov	r1, #436
 730 0100 FFF7FEFF 		bl	gfx_PlaceNumber
 731              	.LVL86:
 732              	.LBB113:
 733              	.LBB114:
 734              		.loc 1 46 0
 735 0104 2046     		mov	r0, r4
 736 0106 44F68A01 		movw	r1, #18570
 737 010a FFF7FEFF 		bl	media_SetSector
 738              	.LVL87:
 739              		.loc 1 47 0
 740 010e 4FF4DA70 		mov	r0, #436
 741 0112 6221     		movs	r1, #98
ARM GAS  C:\Users\srich\AppData\Local\Temp\ccv3JVxh.s 			page 14


 742 0114 FFF7FEFF 		bl	media_Image
 743              	.LVL88:
 744              	.LBE114:
 745              	.LBE113:
 746              		.loc 1 137 0
 747 0118 8822     		movs	r2, #136
 748 011a 1723     		movs	r3, #23
 749 011c 8DE85000 		stmia	sp, {r4, r6}
 750 0120 0294     		str	r4, [sp, #8]
 751 0122 44F66500 		movw	r0, #18533
 752 0126 4FF4DA71 		mov	r1, #436
 753 012a FFF7FEFF 		bl	gfx_PlaceNumber
 754              	.LVL89:
 755              	.LBB115:
 756              	.LBB116:
 757              		.loc 1 46 0
 758 012e 2046     		mov	r0, r4
 759 0130 44F68A01 		movw	r1, #18570
 760 0134 FFF7FEFF 		bl	media_SetSector
 761              	.LVL90:
 762              		.loc 1 47 0
 763 0138 4FF4DA70 		mov	r0, #436
 764 013c A321     		movs	r1, #163
 765 013e FFF7FEFF 		bl	media_Image
 766              	.LVL91:
 767              	.LBE116:
 768              	.LBE115:
 769              		.loc 1 140 0
 770 0142 1723     		movs	r3, #23
 771 0144 C922     		movs	r2, #201
 772 0146 8DE85000 		stmia	sp, {r4, r6}
 773 014a 0294     		str	r4, [sp, #8]
 774 014c 44F66500 		movw	r0, #18533
 775 0150 4FF4DA71 		mov	r1, #436
 776 0154 FFF7FEFF 		bl	gfx_PlaceNumber
 777              	.LVL92:
 778              	.LBB117:
 779              	.LBB118:
 780              		.loc 1 46 0
 781 0158 2046     		mov	r0, r4
 782 015a 44F65F01 		movw	r1, #18527
 783 015e FFF7FEFF 		bl	media_SetSector
 784              	.LVL93:
 785              		.loc 1 47 0
 786 0162 3146     		mov	r1, r6
 787 0164 7220     		movs	r0, #114
 788 0166 FFF7FEFF 		bl	media_Image
 789              	.LVL94:
 790              	.LBE118:
 791              	.LBE117:
 792              	.LBB119:
 793              	.LBB120:
 794              		.loc 1 54 0
 795 016a 2046     		mov	r0, r4
 796 016c 44F64B01 		movw	r1, #18507
 797              	.LBE120:
 798              	.LBE119:
ARM GAS  C:\Users\srich\AppData\Local\Temp\ccv3JVxh.s 			page 15


 799              		.loc 1 146 0
 800 0170 0A25     		movs	r5, #10
 801              	.LBB123:
 802              	.LBB121:
 803              		.loc 1 54 0
 804 0172 FFF7FEFF 		bl	media_SetSector
 805              	.LVL95:
 806              	.LBE121:
 807              	.LBE123:
 808              		.loc 1 146 0
 809 0176 0427     		movs	r7, #4
 810              	.LBB124:
 811              	.LBB122:
 812              		.loc 1 55 0
 813 0178 6D21     		movs	r1, #109
 814 017a 0C22     		movs	r2, #12
 815 017c 7220     		movs	r0, #114
 816 017e FFF7FEFF 		bl	media_VideoFrame
 817              	.LVL96:
 818              	.LBE122:
 819              	.LBE124:
 820              		.loc 1 146 0
 821 0182 0F23     		movs	r3, #15
 822 0184 0295     		str	r5, [sp, #8]
 823 0186 5422     		movs	r2, #84
 824 0188 8DE89000 		stmia	sp, {r4, r7}
 825 018c 44F64B00 		movw	r0, #18507
 826 0190 7221     		movs	r1, #114
 827 0192 FFF7FEFF 		bl	gfx_PlaceNumber
 828              	.LVL97:
 829              	.LBB125:
 830              	.LBB126:
 831              		.loc 1 54 0
 832 0196 2046     		mov	r0, r4
 833 0198 0E21     		movs	r1, #14
 834 019a FFF7FEFF 		bl	media_SetSector
 835              	.LVL98:
 836              	.LBE126:
 837              	.LBE125:
 838              		.loc 1 150 0
 839 019e 4FF00308 		mov	r8, #3
 840              	.LBB128:
 841              	.LBB127:
 842              		.loc 1 55 0
 843 01a2 3146     		mov	r1, r6
 844 01a4 2246     		mov	r2, r4
 845 01a6 4F20     		movs	r0, #79
 846 01a8 FFF7FEFF 		bl	media_VideoFrame
 847              	.LVL99:
 848              	.LBE127:
 849              	.LBE128:
 850              		.loc 1 150 0
 851 01ac 0F23     		movs	r3, #15
 852 01ae 0295     		str	r5, [sp, #8]
 853 01b0 4B22     		movs	r2, #75
 854 01b2 0094     		str	r4, [sp]
 855 01b4 CDF80480 		str	r8, [sp, #4]
ARM GAS  C:\Users\srich\AppData\Local\Temp\ccv3JVxh.s 			page 16


 856 01b8 44F64B00 		movw	r0, #18507
 857 01bc 4F21     		movs	r1, #79
 858 01be FFF7FEFF 		bl	gfx_PlaceNumber
 859              	.LVL100:
 860              	.LBB129:
 861              	.LBB130:
 862              		.loc 1 54 0
 863 01c2 2046     		mov	r0, r4
 864 01c4 44F64B01 		movw	r1, #18507
 865 01c8 FFF7FEFF 		bl	media_SetSector
 866              	.LVL101:
 867              		.loc 1 55 0
 868 01cc 5A21     		movs	r1, #90
 869 01ce 0B22     		movs	r2, #11
 870 01d0 5020     		movs	r0, #80
 871 01d2 FFF7FEFF 		bl	media_VideoFrame
 872              	.LVL102:
 873              	.LBE130:
 874              	.LBE129:
 875              		.loc 1 154 0
 876 01d6 1123     		movs	r3, #17
 877 01d8 2322     		movs	r2, #35
 878 01da 0295     		str	r5, [sp, #8]
 879 01dc 8DE81001 		stmia	sp, {r4, r8}
 880 01e0 2220     		movs	r0, #34
 881 01e2 1821     		movs	r1, #24
 882 01e4 FFF7FEFF 		bl	gfx_PlaceNumber
 883              	.LVL103:
 884              	.LBB131:
 885              	.LBB132:
 886              		.loc 1 46 0
 887 01e8 2046     		mov	r0, r4
 888 01ea 44F68D01 		movw	r1, #18573
 889 01ee FFF7FEFF 		bl	media_SetSector
 890              	.LVL104:
 891              		.loc 1 47 0
 892 01f2 3120     		movs	r0, #49
 893 01f4 0621     		movs	r1, #6
 894 01f6 FFF7FEFF 		bl	media_Image
 895              	.LVL105:
 896              	.LBE132:
 897              	.LBE131:
 898              	.LBB133:
 899              	.LBB134:
 900              		.loc 1 54 0
 901 01fa 2046     		mov	r0, r4
 902 01fc 44F69101 		movw	r1, #18577
 903 0200 FFF7FEFF 		bl	media_SetSector
 904              	.LVL106:
 905              		.loc 1 55 0
 906 0204 2246     		mov	r2, r4
 907 0206 3C21     		movs	r1, #60
 908 0208 1820     		movs	r0, #24
 909 020a FFF7FEFF 		bl	media_VideoFrame
 910              	.LVL107:
 911              	.LBE134:
 912              	.LBE133:
ARM GAS  C:\Users\srich\AppData\Local\Temp\ccv3JVxh.s 			page 17


 913              	.LBB135:
 914              	.LBB136:
 915              		.loc 1 46 0
 916 020e 2046     		mov	r0, r4
 917 0210 1621     		movs	r1, #22
 918 0212 FFF7FEFF 		bl	media_SetSector
 919              	.LVL108:
 920              		.loc 1 47 0
 921 0216 6E20     		movs	r0, #110
 922 0218 EA21     		movs	r1, #234
 923 021a FFF7FEFF 		bl	media_Image
 924              	.LVL109:
 925              	.LBE136:
 926              	.LBE135:
 927              	.LBB137:
 928              	.LBB138:
 929              		.loc 1 54 0
 930 021e 2046     		mov	r0, r4
 931 0220 44F64B01 		movw	r1, #18507
 932 0224 FFF7FEFF 		bl	media_SetSector
 933              	.LVL110:
 934              		.loc 1 55 0
 935 0228 D221     		movs	r1, #210
 936 022a 0C22     		movs	r2, #12
 937 022c 7220     		movs	r0, #114
 938 022e FFF7FEFF 		bl	media_VideoFrame
 939              	.LVL111:
 940              	.LBE138:
 941              	.LBE137:
 942              		.loc 1 163 0
 943 0232 0F23     		movs	r3, #15
 944 0234 0295     		str	r5, [sp, #8]
 945 0236 BC22     		movs	r2, #188
 946 0238 8DE89000 		stmia	sp, {r4, r7}
 947 023c 44F64B00 		movw	r0, #18507
 948 0240 7221     		movs	r1, #114
 949 0242 FFF7FEFF 		bl	gfx_PlaceNumber
 950              	.LVL112:
 951              	.LBB139:
 952              	.LBB140:
 953              		.loc 1 54 0
 954 0246 2046     		mov	r0, r4
 955 0248 44F63E01 		movw	r1, #18494
 956 024c FFF7FEFF 		bl	media_SetSector
 957              	.LVL113:
 958              		.loc 1 55 0
 959 0250 2246     		mov	r2, r4
 960 0252 E621     		movs	r1, #230
 961 0254 4F20     		movs	r0, #79
 962 0256 FFF7FEFF 		bl	media_VideoFrame
 963              	.LVL114:
 964              	.LBE140:
 965              	.LBE139:
 966              	.LBB141:
 967              	.LBB142:
 968              		.loc 1 54 0
 969 025a 2046     		mov	r0, r4
ARM GAS  C:\Users\srich\AppData\Local\Temp\ccv3JVxh.s 			page 18


 970 025c 44F64B01 		movw	r1, #18507
 971 0260 FFF7FEFF 		bl	media_SetSector
 972              	.LVL115:
 973              		.loc 1 55 0
 974 0264 D221     		movs	r1, #210
 975 0266 0C22     		movs	r2, #12
 976 0268 4F20     		movs	r0, #79
 977 026a FFF7FEFF 		bl	media_VideoFrame
 978              	.LVL116:
 979              	.LBE142:
 980              	.LBE141:
 981              		.loc 1 171 0
 982 026e 0126     		movs	r6, #1
 983              		.loc 1 169 0
 984 0270 0295     		str	r5, [sp, #8]
 985 0272 8DE89000 		stmia	sp, {r4, r7}
 986 0276 44F64B00 		movw	r0, #18507
 987 027a 4F21     		movs	r1, #79
 988 027c BC22     		movs	r2, #188
 989 027e 0F23     		movs	r3, #15
 990 0280 FFF7FEFF 		bl	gfx_PlaceNumber
 991              	.LVL117:
 992              		.loc 1 171 0
 993 0284 F922     		movs	r2, #249
 994 0286 1123     		movs	r3, #17
 995 0288 0295     		str	r5, [sp, #8]
 996 028a 0094     		str	r4, [sp]
 997 028c 0196     		str	r6, [sp, #4]
 998 028e 2220     		movs	r0, #34
 999 0290 1721     		movs	r1, #23
 1000 0292 FFF7FEFF 		bl	gfx_PlaceNumber
 1001              	.LVL118:
 1002              	.LBB143:
 1003              	.LBB144:
 1004              		.loc 1 46 0
 1005 0296 2046     		mov	r0, r4
 1006 0298 1C21     		movs	r1, #28
 1007 029a FFF7FEFF 		bl	media_SetSector
 1008              	.LVL119:
 1009              		.loc 1 47 0
 1010 029e 1720     		movs	r0, #23
 1011 02a0 EF21     		movs	r1, #239
 1012 02a2 FFF7FEFF 		bl	media_Image
 1013              	.LVL120:
 1014              	.LBE144:
 1015              	.LBE143:
 1016              		.loc 1 173 0
 1017 02a6 1123     		movs	r3, #17
 1018 02a8 DD22     		movs	r2, #221
 1019 02aa 0295     		str	r5, [sp, #8]
 1020 02ac 8DE89000 		stmia	sp, {r4, r7}
 1021 02b0 2220     		movs	r0, #34
 1022 02b2 1521     		movs	r1, #21
 1023 02b4 FFF7FEFF 		bl	gfx_PlaceNumber
 1024              	.LVL121:
 1025              	.LBB145:
 1026              	.LBB146:
ARM GAS  C:\Users\srich\AppData\Local\Temp\ccv3JVxh.s 			page 19


 1027              		.loc 1 46 0
 1028 02b8 2046     		mov	r0, r4
 1029 02ba 1D21     		movs	r1, #29
 1030 02bc FFF7FEFF 		bl	media_SetSector
 1031              	.LVL122:
 1032              		.loc 1 47 0
 1033 02c0 2F20     		movs	r0, #47
 1034 02c2 D021     		movs	r1, #208
 1035 02c4 FFF7FEFF 		bl	media_Image
 1036              	.LVL123:
 1037              	.LBE146:
 1038              	.LBE145:
 1039              	.LBB147:
 1040              	.LBB148:
 1041              		.loc 1 54 0
 1042 02c8 2046     		mov	r0, r4
 1043 02ca 41F2E831 		movw	r1, #5096
 1044 02ce FFF7FEFF 		bl	media_SetSector
 1045              	.LVL124:
 1046              		.loc 1 55 0
 1047 02d2 3246     		mov	r2, r6
 1048 02d4 7B21     		movs	r1, #123
 1049 02d6 1820     		movs	r0, #24
 1050 02d8 FFF7FEFF 		bl	media_VideoFrame
 1051              	.LVL125:
 1052              	.LBE148:
 1053              	.LBE147:
 1054              		.loc 1 179 0
 1055 02dc 4FF6FF75 		movw	r5, #65535
 1056 02e0 40F26D10 		movw	r0, #365
 1057 02e4 2146     		mov	r1, r4
 1058 02e6 0095     		str	r5, [sp]
 1059 02e8 0246     		mov	r2, r0
 1060 02ea 4FF48873 		mov	r3, #272
 1061 02ee FFF7FEFF 		bl	draw_line
 1062              	.LVL126:
 1063              		.loc 1 180 0
 1064 02f2 9620     		movs	r0, #150
 1065 02f4 0095     		str	r5, [sp]
 1066 02f6 2146     		mov	r1, r4
 1067 02f8 0246     		mov	r2, r0
 1068 02fa 4FF48873 		mov	r3, #272
 1069 02fe FFF7FEFF 		bl	draw_line
 1070              	.LVL127:
 1071              		.loc 1 181 0
 1072 0302 04B0     		add	sp, sp, #16
 1073              		.cfi_def_cfa_offset 24
 1074              		@ sp needed
 1075 0304 BDE8F081 		pop	{r4, r5, r6, r7, r8, pc}
 1076              	.L47:
 1077              		.align	2
 1078              	.L46:
 1079 0308 00000000 		.word	.LANCHOR1
 1080              		.cfi_endproc
 1081              	.LFE123:
 1082              		.size	LoadImages, .-LoadImages
 1083              		.section	.text.PictogramDataBinding,"ax",%progbits
ARM GAS  C:\Users\srich\AppData\Local\Temp\ccv3JVxh.s 			page 20


 1084              		.align	2
 1085              		.p2align 4,,15
 1086              		.global	PictogramDataBinding
 1087              		.thumb
 1088              		.thumb_func
 1089              		.type	PictogramDataBinding, %function
 1090              	PictogramDataBinding:
 1091              	.LFB124:
 1092              		.loc 1 183 0
 1093              		.cfi_startproc
 1094              		@ args = 0, pretend = 0, frame = 0
 1095              		@ frame_needed = 0, uses_anonymous_args = 0
 1096              	.LVL128:
 1097 0000 F8B5     		push	{r3, r4, r5, r6, r7, lr}
 1098              		.cfi_def_cfa_offset 24
 1099              		.cfi_offset 3, -24
 1100              		.cfi_offset 4, -20
 1101              		.cfi_offset 5, -16
 1102              		.cfi_offset 6, -12
 1103              		.cfi_offset 7, -8
 1104              		.cfi_offset 14, -4
 1105              		.loc 1 187 0
 1106 0002 0320     		movs	r0, #3
 1107 0004 FFF7FEFF 		bl	getLightFlashing
 1108              	.LVL129:
 1109 0008 0028     		cmp	r0, #0
 1110 000a 59D0     		beq	.L75
 1111 000c 0023     		movs	r3, #0
 1112              	.L49:
 1113              	.LVL130:
 1114              		.loc 1 190 0
 1115 000e 384C     		ldr	r4, .L78
 1116              		.loc 1 193 0
 1117 0010 0220     		movs	r0, #2
 1118              		.loc 1 190 0
 1119 0012 2360     		str	r3, [r4]
 1120              		.loc 1 193 0
 1121 0014 FFF7FEFF 		bl	getLightFlashing
 1122              	.LVL131:
 1123 0018 0028     		cmp	r0, #0
 1124 001a 4AD0     		beq	.L76
 1125 001c 0020     		movs	r0, #0
 1126              	.L50:
 1127              	.LVL132:
 1128              		.loc 1 208 0
 1129 001e 354E     		ldr	r6, .L78+4
 1130              		.loc 1 196 0
 1131 0020 6060     		str	r0, [r4, #4]
 1132              		.loc 1 199 0
 1133 0022 0520     		movs	r0, #5
 1134              	.LVL133:
 1135 0024 FFF7FEFF 		bl	getLightFlashing
 1136              	.LVL134:
 1137              		.loc 1 208 0
 1138 0028 3389     		ldrh	r3, [r6, #8]
 1139              		.loc 1 200 0
 1140 002a 2062     		str	r0, [r4, #32]
ARM GAS  C:\Users\srich\AppData\Local\Temp\ccv3JVxh.s 			page 21


 1141              	.LVL135:
 1142              		.loc 1 208 0
 1143 002c 132B     		cmp	r3, #19
 1144 002e 94BF     		ite	ls
 1145 0030 0023     		movls	r3, #0
 1146 0032 0123     		movhi	r3, #1
 1147              		.loc 1 212 0
 1148 0034 A361     		str	r3, [r4, #24]
 1149              		.loc 1 215 0
 1150 0036 FFF7FEFF 		bl	cruiseStatus
 1151              	.LVL136:
 1152              		.loc 1 216 0
 1153 003a A064     		str	r0, [r4, #72]
 1154              		.loc 1 223 0
 1155 003c FFF7FEFF 		bl	GetCurrentLimitIsOn
 1156              	.LVL137:
 1157              		.loc 1 231 0
 1158 0040 2D4F     		ldr	r7, .L78+8
 1159              		.loc 1 223 0
 1160 0042 80F00100 		eor	r0, r0, #1
 1161              		.loc 1 226 0
 1162 0046 C5B2     		uxtb	r5, r0
 1163              	.LVL138:
 1164              		.loc 1 231 0
 1165 0048 3846     		mov	r0, r7
 1166              		.loc 1 228 0
 1167 004a E561     		str	r5, [r4, #28]
 1168              		.loc 1 231 0
 1169 004c FFF7FEFF 		bl	nmeaGetCurrentPosition
 1170              	.LVL139:
 1171              		.loc 1 232 0
 1172 0050 97F83030 		ldrb	r3, [r7, #48]	@ zero_extendqisi2
 1173              	.LVL140:
 1174              		.loc 1 234 0
 1175 0054 022B     		cmp	r3, #2
 1176 0056 07DC     		bgt	.L64
 1177              		.loc 1 236 0
 1178 0058 284B     		ldr	r3, .L78+12
 1179              	.LVL141:
 1180 005a 1A78     		ldrb	r2, [r3]	@ zero_extendqisi2
 1181 005c BAB3     		cbz	r2, .L52
 1182 005e 012A     		cmp	r2, #1
 1183 0060 03D1     		bne	.L51
 1184              		.loc 1 242 0
 1185 0062 0025     		movs	r5, #0
 1186              	.LVL142:
 1187 0064 1D70     		strb	r5, [r3]
 1188              	.LVL143:
 1189              		.loc 1 244 0
 1190 0066 00E0     		b	.L51
 1191              	.LVL144:
 1192              	.L64:
 1193              		.loc 1 248 0
 1194 0068 0125     		movs	r5, #1
 1195              	.LVL145:
 1196              	.L51:
 1197              		.loc 1 254 0
ARM GAS  C:\Users\srich\AppData\Local\Temp\ccv3JVxh.s 			page 22


 1198 006a 96F82030 		ldrb	r3, [r6, #32]	@ zero_extendqisi2
 1199 006e 2449     		ldr	r1, .L78+16
 1200              		.loc 1 250 0
 1201 0070 6562     		str	r5, [r4, #36]
 1202              	.LVL146:
 1203              		.loc 1 254 0
 1204 0072 C3F3C003 		ubfx	r3, r3, #3, #1
 1205 0076 A365     		str	r3, [r4, #88]
 1206              	.LVL147:
 1207 0078 8D1D     		adds	r5, r1, #6
 1208 007a 0B46     		mov	r3, r1
 1209              	.LVL148:
 1210              	.L56:
 1211              	.LBB149:
 1212              		.loc 1 261 0
 1213 007c 13F8010F 		ldrb	r0, [r3, #1]!	@ zero_extendqisi2
 1214              	.LVL149:
 1215              		.loc 1 262 0
 1216 0080 9A79     		ldrb	r2, [r3, #6]	@ zero_extendqisi2
 1217              		.loc 1 263 0
 1218 0082 02F0E002 		and	r2, r2, #224
 1219 0086 402A     		cmp	r2, #64
 1220 0088 00F00300 		and	r0, r0, #3
 1221              	.LVL150:
 1222 008c 01D0     		beq	.L54
 1223              		.loc 1 263 0 is_stmt 0 discriminator 1
 1224 008e 0128     		cmp	r0, #1
 1225 0090 20D0     		beq	.L65
 1226              	.L54:
 1227              	.LBE149:
 1228              		.loc 1 260 0 is_stmt 1 discriminator 2
 1229 0092 AB42     		cmp	r3, r5
 1230 0094 F2D1     		bne	.L56
 1231              		.loc 1 258 0
 1232 0096 0220     		movs	r0, #2
 1233              	.LVL151:
 1234              	.L61:
 1235              	.LBB150:
 1236              		.loc 1 273 0
 1237 0098 11F8013F 		ldrb	r3, [r1, #1]!	@ zero_extendqisi2
 1238              	.LVL152:
 1239              		.loc 1 275 0
 1240 009c 13F00C0F 		tst	r3, #12
 1241 00a0 03F00302 		and	r2, r3, #3
 1242 00a4 01D0     		beq	.L57
 1243              		.loc 1 275 0 is_stmt 0 discriminator 1
 1244 00a6 012A     		cmp	r2, #1
 1245 00a8 16D0     		beq	.L77
 1246              	.L57:
 1247              	.LBE150:
 1248              		.loc 1 272 0 is_stmt 1 discriminator 2
 1249 00aa A942     		cmp	r1, r5
 1250 00ac F4D1     		bne	.L61
 1251              	.LVL153:
 1252              	.L58:
 1253              		.loc 1 289 0
 1254 00ae 6061     		str	r0, [r4, #20]
ARM GAS  C:\Users\srich\AppData\Local\Temp\ccv3JVxh.s 			page 23


 1255 00b0 F8BD     		pop	{r3, r4, r5, r6, r7, pc}
 1256              	.LVL154:
 1257              	.L76:
 1258              		.loc 1 193 0 discriminator 2
 1259 00b2 0420     		movs	r0, #4
 1260 00b4 FFF7FEFF 		bl	getLightFlashing
 1261              	.LVL155:
 1262 00b8 80F00100 		eor	r0, r0, #1
 1263 00bc C0B2     		uxtb	r0, r0
 1264 00be AEE7     		b	.L50
 1265              	.LVL156:
 1266              	.L75:
 1267              		.loc 1 187 0 discriminator 2
 1268 00c0 0420     		movs	r0, #4
 1269 00c2 FFF7FEFF 		bl	getLightFlashing
 1270              	.LVL157:
 1271 00c6 80F00100 		eor	r0, r0, #1
 1272 00ca C3B2     		uxtb	r3, r0
 1273 00cc 9FE7     		b	.L49
 1274              	.LVL158:
 1275              	.L52:
 1276              		.loc 1 238 0
 1277 00ce 0125     		movs	r5, #1
 1278              	.LVL159:
 1279 00d0 1D70     		strb	r5, [r3]
 1280              	.LVL160:
 1281              		.loc 1 240 0
 1282 00d2 CAE7     		b	.L51
 1283              	.LVL161:
 1284              	.L65:
 1285              	.LBB151:
 1286              		.loc 1 264 0
 1287 00d4 0020     		movs	r0, #0
 1288              	.LVL162:
 1289 00d6 DFE7     		b	.L61
 1290              	.LVL163:
 1291              	.L77:
 1292              	.LBE151:
 1293              	.LBB152:
 1294              		.loc 1 276 0
 1295 00d8 0A4B     		ldr	r3, .L78+20
 1296              	.LVL164:
 1297 00da 1978     		ldrb	r1, [r3]	@ zero_extendqisi2
 1298              	.LVL165:
 1299 00dc 0129     		cmp	r1, #1
 1300 00de 04D0     		beq	.L59
 1301 00e0 0229     		cmp	r1, #2
 1302 00e2 E4D1     		bne	.L58
 1303              		.loc 1 278 0
 1304 00e4 1A70     		strb	r2, [r3]
 1305              	.LVL166:
 1306              		.loc 1 279 0
 1307 00e6 1046     		mov	r0, r2
 1308              		.loc 1 280 0
 1309 00e8 E1E7     		b	.L58
 1310              	.LVL167:
 1311              	.L59:
ARM GAS  C:\Users\srich\AppData\Local\Temp\ccv3JVxh.s 			page 24


 1312              		.loc 1 282 0
 1313 00ea 0220     		movs	r0, #2
 1314 00ec 1870     		strb	r0, [r3]
 1315              	.LVL168:
 1316              		.loc 1 284 0
 1317 00ee DEE7     		b	.L58
 1318              	.L79:
 1319              		.align	2
 1320              	.L78:
 1321 00f0 00000000 		.word	.LANCHOR1
 1322 00f4 00000000 		.word	bmsitems
 1323 00f8 00000000 		.word	.LANCHOR2
 1324 00fc 00000000 		.word	.LANCHOR3
 1325 0100 17000000 		.word	TirePressures+23
 1326 0104 00000000 		.word	.LANCHOR4
 1327              	.LBE152:
 1328              		.cfi_endproc
 1329              	.LFE124:
 1330              		.size	PictogramDataBinding, .-PictogramDataBinding
 1331              		.section	.text.NumberDataBinding,"ax",%progbits
 1332              		.align	2
 1333              		.p2align 4,,15
 1334              		.global	NumberDataBinding
 1335              		.thumb
 1336              		.thumb_func
 1337              		.type	NumberDataBinding, %function
 1338              	NumberDataBinding:
 1339              	.LFB125:
 1340              		.loc 1 294 0
 1341              		.cfi_startproc
 1342              		@ args = 0, pretend = 0, frame = 0
 1343              		@ frame_needed = 0, uses_anonymous_args = 0
 1344 0000 70B5     		push	{r4, r5, r6, lr}
 1345              		.cfi_def_cfa_offset 16
 1346              		.cfi_offset 4, -16
 1347              		.cfi_offset 5, -12
 1348              		.cfi_offset 6, -8
 1349              		.cfi_offset 14, -4
 1350              		.loc 1 298 0
 1351 0002 FFF7FEFF 		bl	speedGetSpeed
 1352              	.LVL169:
 1353 0006 2F4C     		ldr	r4, .L86
 1354              		.loc 1 301 0
 1355 0008 2F4D     		ldr	r5, .L86+4
 1356              		.loc 1 298 0
 1357 000a E062     		str	r0, [r4, #44]
 1358              		.loc 1 301 0
 1359 000c 2846     		mov	r0, r5
 1360 000e FFF7FEFF 		bl	nmeaGetCurrentPosition
 1361              	.LVL170:
 1362              		.loc 1 302 0
 1363 0012 2D68     		ldr	r5, [r5]
 1364 0014 2D4A     		ldr	r2, .L86+8
 1365 0016 2E4E     		ldr	r6, .L86+12
 1366              		.loc 1 303 0
 1367 0018 2E49     		ldr	r1, .L86+16
 1368              		.loc 1 304 0
ARM GAS  C:\Users\srich\AppData\Local\Temp\ccv3JVxh.s 			page 25


 1369 001a 2F48     		ldr	r0, .L86+20
 1370              		.loc 1 302 0
 1371 001c 85FB0223 		smull	r2, r3, r5, r2
 1372 0020 EA18     		adds	r2, r5, r3
 1373 0022 EB17     		asrs	r3, r5, #31
 1374 0024 C3EB2242 		rsb	r2, r3, r2, asr #16
 1375 0028 06FB1252 		mls	r2, r6, r2, r5
 1376              	.LVL171:
 1377              		.loc 1 303 0
 1378 002c 81FB0231 		smull	r3, r1, r1, r2
 1379 0030 1144     		add	r1, r1, r2
 1380 0032 D317     		asrs	r3, r2, #31
 1381 0034 C3EBE121 		rsb	r1, r3, r1, asr #11
 1382              		.loc 1 304 0
 1383 0038 4FF46163 		mov	r3, #3600
 1384 003c 03FB1123 		mls	r3, r3, r1, r2
 1385 0040 80FB0302 		smull	r0, r2, r0, r3
 1386              	.LVL172:
 1387 0044 D018     		adds	r0, r2, r3
 1388 0046 DA17     		asrs	r2, r3, #31
 1389 0048 C2EB6012 		rsb	r2, r2, r0, asr #5
 1390              		.loc 1 305 0
 1391 004c C2EB0210 		rsb	r0, r2, r2, lsl #4
 1392              		.loc 1 303 0
 1393 0050 0231     		adds	r1, r1, #2
 1394              		.loc 1 305 0
 1395 0052 A3EB8003 		sub	r3, r3, r0, lsl #2
 1396              		.loc 1 308 0
 1397 0056 0020     		movs	r0, #0
 1398              		.loc 1 303 0
 1399 0058 A160     		str	r1, [r4, #8]
 1400              		.loc 1 304 0
 1401 005a E260     		str	r2, [r4, #12]
 1402              		.loc 1 305 0
 1403 005c 2361     		str	r3, [r4, #16]
 1404              		.loc 1 308 0
 1405 005e FFF7FEFF 		bl	calcGetValue
 1406              	.LVL173:
 1407              		.loc 1 315 0
 1408 0062 1E4B     		ldr	r3, .L86+24
 1409 0064 1E4A     		ldr	r2, .L86+28
 1410 0066 1B89     		ldrh	r3, [r3, #8]
 1411 0068 00B2     		sxth	r0, r0
 1412 006a A2FB0323 		umull	r2, r3, r2, r3
 1413 006e DB08     		lsrs	r3, r3, #3
 1414              		.loc 1 312 0
 1415 0070 20EAE072 		bic	r2, r0, r0, asr #31
 1416              		.loc 1 318 0
 1417 0074 0120     		movs	r0, #1
 1418              	.LVL174:
 1419              		.loc 1 312 0
 1420 0076 2263     		str	r2, [r4, #48]
 1421              		.loc 1 315 0
 1422 0078 6363     		str	r3, [r4, #52]
 1423              		.loc 1 318 0
 1424 007a FFF7FEFF 		bl	calcGetValue
 1425              	.LVL175:
ARM GAS  C:\Users\srich\AppData\Local\Temp\ccv3JVxh.s 			page 26


 1426              		.loc 1 321 0
 1427 007e 194B     		ldr	r3, .L86+32
 1428              		.loc 1 318 0
 1429 0080 A063     		str	r0, [r4, #56]
 1430              		.loc 1 321 0
 1431 0082 1968     		ldr	r1, [r3]
 1432 0084 8AB2     		uxth	r2, r1
 1433              	.LVL176:
 1434              		.loc 1 322 0
 1435 0086 13B2     		sxth	r3, r2
 1436 0088 002B     		cmp	r3, #0
 1437 008a 12DB     		blt	.L85
 1438              		.loc 1 326 0
 1439 008c B2B1     		cbz	r2, .L83
 1440              		.loc 1 327 0
 1441 008e 0222     		movs	r2, #2
 1442              	.LVL177:
 1443 0090 2264     		str	r2, [r4, #64]
 1444              	.LVL178:
 1445              	.L82:
 1446              		.loc 1 332 0
 1447 0092 E363     		str	r3, [r4, #60]
 1448              		.loc 1 335 0
 1449 0094 FFF7FEFF 		bl	GetMeterCounter
 1450              	.LVL179:
 1451              		.loc 1 336 0
 1452 0098 134B     		ldr	r3, .L86+36
 1453 009a 00B2     		sxth	r0, r0
 1454 009c 83FB0023 		smull	r2, r3, r3, r0
 1455 00a0 C017     		asrs	r0, r0, #31
 1456              	.LVL180:
 1457 00a2 C0EB6310 		rsb	r0, r0, r3, asr #5
 1458 00a6 00B2     		sxth	r0, r0
 1459 00a8 2065     		str	r0, [r4, #80]
 1460              		.loc 1 339 0
 1461 00aa FFF7FEFF 		bl	GetKmeterDistance
 1462              	.LVL181:
 1463 00ae 6065     		str	r0, [r4, #84]
 1464 00b0 70BD     		pop	{r4, r5, r6, pc}
 1465              	.LVL182:
 1466              	.L85:
 1467              		.loc 1 325 0
 1468 00b2 4B42     		negs	r3, r1
 1469              		.loc 1 324 0
 1470 00b4 0122     		movs	r2, #1
 1471              	.LVL183:
 1472 00b6 1BB2     		sxth	r3, r3
 1473 00b8 2264     		str	r2, [r4, #64]
 1474              	.LVL184:
 1475 00ba EAE7     		b	.L82
 1476              	.LVL185:
 1477              	.L83:
 1478              		.loc 1 329 0
 1479 00bc 2264     		str	r2, [r4, #64]
 1480 00be 1346     		mov	r3, r2
 1481 00c0 E7E7     		b	.L82
 1482              	.L87:
ARM GAS  C:\Users\srich\AppData\Local\Temp\ccv3JVxh.s 			page 27


 1483 00c2 00BF     		.align	2
 1484              	.L86:
 1485 00c4 00000000 		.word	.LANCHOR1
 1486 00c8 00000000 		.word	.LANCHOR2
 1487 00cc 07452EC2 		.word	-1037155065
 1488 00d0 80510100 		.word	86400
 1489 00d4 C5B3A291 		.word	-1851608123
 1490 00d8 89888888 		.word	-2004318071
 1491 00dc 00000000 		.word	bmsitems
 1492 00e0 CDCCCCCC 		.word	-858993459
 1493 00e4 00000000 		.word	.LANCHOR5
 1494 00e8 1F85EB51 		.word	1374389535
 1495              		.cfi_endproc
 1496              	.LFE125:
 1497              		.size	NumberDataBinding, .-NumberDataBinding
 1498              		.global	__aeabi_i2d
 1499              		.global	__aeabi_dmul
 1500              		.global	__aeabi_d2iz
 1501              		.global	__aeabi_ddiv
 1502              		.section	.text.GaugeDataBinding,"ax",%progbits
 1503              		.align	2
 1504              		.p2align 4,,15
 1505              		.global	GaugeDataBinding
 1506              		.thumb
 1507              		.thumb_func
 1508              		.type	GaugeDataBinding, %function
 1509              	GaugeDataBinding:
 1510              	.LFB126:
 1511              		.loc 1 342 0
 1512              		.cfi_startproc
 1513              		@ args = 0, pretend = 0, frame = 0
 1514              		@ frame_needed = 0, uses_anonymous_args = 0
 1515 0000 F8B5     		push	{r3, r4, r5, r6, r7, lr}
 1516              		.cfi_def_cfa_offset 24
 1517              		.cfi_offset 3, -24
 1518              		.cfi_offset 4, -20
 1519              		.cfi_offset 5, -16
 1520              		.cfi_offset 6, -12
 1521              		.cfi_offset 7, -8
 1522              		.cfi_offset 14, -4
 1523              		.loc 1 343 0
 1524 0002 0220     		movs	r0, #2
 1525 0004 FFF7FEFF 		bl	measGetValue_2
 1526              	.LVL186:
 1527 0008 FFF7FEFF 		bl	__aeabi_i2d
 1528              	.LVL187:
 1529 000c 26A3     		adr	r3, .L94
 1530 000e D3E90023 		ldrd	r2, [r3]
 1531 0012 FFF7FEFF 		bl	__aeabi_dmul
 1532              	.LVL188:
 1533 0016 FFF7FEFF 		bl	__aeabi_d2iz
 1534              	.LVL189:
 1535              		.loc 1 347 0
 1536 001a 294D     		ldr	r5, .L94+24
 1537              		.loc 1 345 0
 1538 001c 294C     		ldr	r4, .L94+28
 1539              		.loc 1 344 0
ARM GAS  C:\Users\srich\AppData\Local\Temp\ccv3JVxh.s 			page 28


 1540 001e B0F5A07F 		cmp	r0, #320
 1541 0022 0346     		mov	r3, r0
 1542 0024 A8BF     		it	ge
 1543 0026 4FF4A073 		movge	r3, #320
 1544              		.loc 1 345 0
 1545 002a E364     		str	r3, [r4, #76]
 1546              		.loc 1 347 0
 1547 002c B5F91800 		ldrsh	r0, [r5, #24]
 1548              	.LVL190:
 1549 0030 FFF7FEFF 		bl	__aeabi_i2d
 1550              	.LVL191:
 1551 0034 0022     		movs	r2, #0
 1552 0036 244B     		ldr	r3, .L94+32
 1553 0038 FFF7FEFF 		bl	__aeabi_ddiv
 1554              	.LVL192:
 1555              		.loc 1 348 0
 1556 003c EB88     		ldrh	r3, [r5, #6]
 1557              		.loc 1 347 0
 1558 003e 0646     		mov	r6, r0
 1559              		.loc 1 348 0
 1560 0040 2248     		ldr	r0, .L94+36
 1561 0042 A0FB0330 		umull	r3, r0, r0, r3
 1562              		.loc 1 347 0
 1563 0046 0F46     		mov	r7, r1
 1564              	.LVL193:
 1565              		.loc 1 348 0
 1566 0048 C008     		lsrs	r0, r0, #3
 1567 004a FFF7FEFF 		bl	__aeabi_i2d
 1568              	.LVL194:
 1569 004e 3246     		mov	r2, r6
 1570 0050 3B46     		mov	r3, r7
 1571 0052 FFF7FEFF 		bl	__aeabi_dmul
 1572              	.LVL195:
 1573              		.loc 1 349 0
 1574 0056 FFF7FEFF 		bl	__aeabi_d2iz
 1575              	.LVL196:
 1576 005a 1D4A     		ldr	r2, .L94+40
 1577              		.loc 1 350 0
 1578 005c 0028     		cmp	r0, #0
 1579              		.loc 1 349 0
 1580 005e 0346     		mov	r3, r0
 1581 0060 1060     		str	r0, [r2]
 1582              		.loc 1 350 0
 1583 0062 10DB     		blt	.L93
 1584              		.loc 1 356 0
 1585 0064 0DD0     		beq	.L90
 1586              		.loc 1 357 0
 1587 0066 FFF7FEFF 		bl	__aeabi_i2d
 1588              	.LVL197:
 1589 006a 11A3     		adr	r3, .L94+8
 1590 006c D3E90023 		ldrd	r2, [r3]
 1591 0070 FFF7FEFF 		bl	__aeabi_dmul
 1592              	.LVL198:
 1593 0074 FFF7FEFF 		bl	__aeabi_d2iz
 1594              	.LVL199:
 1595              		.loc 1 358 0
 1596 0078 1F28     		cmp	r0, #31
ARM GAS  C:\Users\srich\AppData\Local\Temp\ccv3JVxh.s 			page 29


 1597 007a A8BF     		it	ge
 1598 007c 1F20     		movge	r0, #31
 1599              	.LVL200:
 1600              		.loc 1 359 0
 1601 007e 00F12103 		add	r3, r0, #33
 1602              	.LVL201:
 1603              	.L90:
 1604              		.loc 1 363 0
 1605 0082 A362     		str	r3, [r4, #40]
 1606 0084 F8BD     		pop	{r3, r4, r5, r6, r7, pc}
 1607              	.LVL202:
 1608              	.L93:
 1609              		.loc 1 353 0
 1610 0086 4042     		negs	r0, r0
 1611              	.LVL203:
 1612 0088 FFF7FEFF 		bl	__aeabi_i2d
 1613              	.LVL204:
 1614 008c 0AA3     		adr	r3, .L94+16
 1615 008e D3E90023 		ldrd	r2, [r3]
 1616 0092 FFF7FEFF 		bl	__aeabi_dmul
 1617              	.LVL205:
 1618 0096 FFF7FEFF 		bl	__aeabi_d2iz
 1619              	.LVL206:
 1620              		.loc 1 354 0
 1621 009a 1F28     		cmp	r0, #31
 1622 009c A8BF     		it	ge
 1623 009e 1F20     		movge	r0, #31
 1624              	.LVL207:
 1625              		.loc 1 355 0
 1626 00a0 431C     		adds	r3, r0, #1
 1627              	.LVL208:
 1628              		.loc 1 363 0
 1629 00a2 A362     		str	r3, [r4, #40]
 1630 00a4 F8BD     		pop	{r3, r4, r5, r6, r7, pc}
 1631              	.LVL209:
 1632              	.L95:
 1633 00a6 00BF     		.align	3
 1634              	.L94:
 1635 00a8 3BDF4F8D 		.word	-1924145349
 1636 00ac 976EA23F 		.word	1067609751
 1637 00b0 FCA9F1D2 		.word	-755914244
 1638 00b4 4D62803F 		.word	1065378381
 1639 00b8 DBF97E6A 		.word	1786706395
 1640 00bc BC74833F 		.word	1065579708
 1641 00c0 00000000 		.word	bmsitems
 1642 00c4 00000000 		.word	.LANCHOR1
 1643 00c8 00002440 		.word	1076101120
 1644 00cc CDCCCCCC 		.word	-858993459
 1645 00d0 00000000 		.word	.LANCHOR5
 1646              		.cfi_endproc
 1647              	.LFE126:
 1648              		.size	GaugeDataBinding, .-GaugeDataBinding
 1649              		.section	.text.RefreshNumbers,"ax",%progbits
 1650              		.align	2
 1651              		.p2align 4,,15
 1652              		.global	RefreshNumbers
 1653              		.thumb
ARM GAS  C:\Users\srich\AppData\Local\Temp\ccv3JVxh.s 			page 30


 1654              		.thumb_func
 1655              		.type	RefreshNumbers, %function
 1656              	RefreshNumbers:
 1657              	.LFB128:
 1658              		.loc 1 437 0
 1659              		.cfi_startproc
 1660              		@ args = 0, pretend = 0, frame = 0
 1661              		@ frame_needed = 0, uses_anonymous_args = 0
 1662 0000 F0B5     		push	{r4, r5, r6, r7, lr}
 1663              		.cfi_def_cfa_offset 20
 1664              		.cfi_offset 4, -20
 1665              		.cfi_offset 5, -16
 1666              		.cfi_offset 6, -12
 1667              		.cfi_offset 7, -8
 1668              		.cfi_offset 14, -4
 1669              		.loc 1 439 0
 1670 0002 6D4C     		ldr	r4, .L109
 1671 0004 6D4D     		ldr	r5, .L109+4
 1672 0006 E36A     		ldr	r3, [r4, #44]
 1673 0008 EA6A     		ldr	r2, [r5, #44]
 1674 000a 9A42     		cmp	r2, r3
 1675              		.loc 1 437 0
 1676 000c 85B0     		sub	sp, sp, #20
 1677              		.cfi_def_cfa_offset 40
 1678              		.loc 1 439 0
 1679 000e 03D0     		beq	.L97
 1680              		.loc 1 439 0 is_stmt 0 discriminator 1
 1681 0010 A26D     		ldr	r2, [r4, #88]
 1682 0012 002A     		cmp	r2, #0
 1683 0014 00F0C080 		beq	.L108
 1684              	.L97:
 1685              		.loc 1 444 0 is_stmt 1
 1686 0018 A368     		ldr	r3, [r4, #8]
 1687 001a AA68     		ldr	r2, [r5, #8]
 1688 001c 664F     		ldr	r7, .L109
 1689 001e 674E     		ldr	r6, .L109+4
 1690 0020 9A42     		cmp	r2, r3
 1691 0022 0FD0     		beq	.L98
 1692              		.loc 1 445 0
 1693 0024 9BB2     		uxth	r3, r3
 1694 0026 0221     		movs	r1, #2
 1695 0028 0022     		movs	r2, #0
 1696 002a 0093     		str	r3, [sp]
 1697 002c 0191     		str	r1, [sp, #4]
 1698 002e 0292     		str	r2, [sp, #8]
 1699 0030 1723     		movs	r3, #23
 1700 0032 44F66500 		movw	r0, #18533
 1701 0036 4FF4DA71 		mov	r1, #436
 1702 003a 4722     		movs	r2, #71
 1703 003c FFF7FEFF 		bl	gfx_PlaceNumber
 1704              	.LVL210:
 1705              		.loc 1 446 0
 1706 0040 BB68     		ldr	r3, [r7, #8]
 1707 0042 B360     		str	r3, [r6, #8]
 1708              	.L98:
 1709              		.loc 1 449 0
 1710 0044 E368     		ldr	r3, [r4, #12]
ARM GAS  C:\Users\srich\AppData\Local\Temp\ccv3JVxh.s 			page 31


 1711 0046 EA68     		ldr	r2, [r5, #12]
 1712 0048 5B4F     		ldr	r7, .L109
 1713 004a 5C4E     		ldr	r6, .L109+4
 1714 004c 9A42     		cmp	r2, r3
 1715 004e 0FD0     		beq	.L99
 1716              		.loc 1 450 0
 1717 0050 9BB2     		uxth	r3, r3
 1718 0052 0221     		movs	r1, #2
 1719 0054 0022     		movs	r2, #0
 1720 0056 0093     		str	r3, [sp]
 1721 0058 0191     		str	r1, [sp, #4]
 1722 005a 0292     		str	r2, [sp, #8]
 1723 005c 1723     		movs	r3, #23
 1724 005e 44F66500 		movw	r0, #18533
 1725 0062 4FF4DA71 		mov	r1, #436
 1726 0066 8822     		movs	r2, #136
 1727 0068 FFF7FEFF 		bl	gfx_PlaceNumber
 1728              	.LVL211:
 1729              		.loc 1 451 0
 1730 006c FB68     		ldr	r3, [r7, #12]
 1731 006e F360     		str	r3, [r6, #12]
 1732              	.L99:
 1733              		.loc 1 454 0
 1734 0070 2369     		ldr	r3, [r4, #16]
 1735 0072 2A69     		ldr	r2, [r5, #16]
 1736 0074 504F     		ldr	r7, .L109
 1737 0076 514E     		ldr	r6, .L109+4
 1738 0078 9A42     		cmp	r2, r3
 1739 007a 0FD0     		beq	.L100
 1740              		.loc 1 455 0
 1741 007c 9BB2     		uxth	r3, r3
 1742 007e 0221     		movs	r1, #2
 1743 0080 0022     		movs	r2, #0
 1744 0082 0093     		str	r3, [sp]
 1745 0084 0191     		str	r1, [sp, #4]
 1746 0086 0292     		str	r2, [sp, #8]
 1747 0088 1723     		movs	r3, #23
 1748 008a 44F66500 		movw	r0, #18533
 1749 008e 4FF4DA71 		mov	r1, #436
 1750 0092 C922     		movs	r2, #201
 1751 0094 FFF7FEFF 		bl	gfx_PlaceNumber
 1752              	.LVL212:
 1753              		.loc 1 456 0
 1754 0098 3B69     		ldr	r3, [r7, #16]
 1755 009a 3361     		str	r3, [r6, #16]
 1756              	.L100:
 1757              		.loc 1 459 0
 1758 009c 236B     		ldr	r3, [r4, #48]
 1759 009e 2A6B     		ldr	r2, [r5, #48]
 1760 00a0 454F     		ldr	r7, .L109
 1761 00a2 464E     		ldr	r6, .L109+4
 1762 00a4 9A42     		cmp	r2, r3
 1763 00a6 0ED0     		beq	.L101
 1764              		.loc 1 460 0
 1765 00a8 9BB2     		uxth	r3, r3
 1766 00aa 0421     		movs	r1, #4
 1767 00ac 0A22     		movs	r2, #10
ARM GAS  C:\Users\srich\AppData\Local\Temp\ccv3JVxh.s 			page 32


 1768 00ae 0093     		str	r3, [sp]
 1769 00b0 0191     		str	r1, [sp, #4]
 1770 00b2 0292     		str	r2, [sp, #8]
 1771 00b4 0F23     		movs	r3, #15
 1772 00b6 44F64B00 		movw	r0, #18507
 1773 00ba 7221     		movs	r1, #114
 1774 00bc 5422     		movs	r2, #84
 1775 00be FFF7FEFF 		bl	gfx_PlaceNumber
 1776              	.LVL213:
 1777              		.loc 1 461 0
 1778 00c2 3B6B     		ldr	r3, [r7, #48]
 1779 00c4 3363     		str	r3, [r6, #48]
 1780              	.L101:
 1781              		.loc 1 464 0
 1782 00c6 636B     		ldr	r3, [r4, #52]
 1783 00c8 6A6B     		ldr	r2, [r5, #52]
 1784 00ca 3B4F     		ldr	r7, .L109
 1785 00cc 3B4E     		ldr	r6, .L109+4
 1786 00ce 9A42     		cmp	r2, r3
 1787 00d0 0ED0     		beq	.L102
 1788              		.loc 1 465 0
 1789 00d2 9BB2     		uxth	r3, r3
 1790 00d4 0321     		movs	r1, #3
 1791 00d6 0A22     		movs	r2, #10
 1792 00d8 0093     		str	r3, [sp]
 1793 00da 0191     		str	r1, [sp, #4]
 1794 00dc 0292     		str	r2, [sp, #8]
 1795 00de 0F23     		movs	r3, #15
 1796 00e0 44F64B00 		movw	r0, #18507
 1797 00e4 4F21     		movs	r1, #79
 1798 00e6 4B22     		movs	r2, #75
 1799 00e8 FFF7FEFF 		bl	gfx_PlaceNumber
 1800              	.LVL214:
 1801              		.loc 1 466 0
 1802 00ec 7B6B     		ldr	r3, [r7, #52]
 1803 00ee 7363     		str	r3, [r6, #52]
 1804              	.L102:
 1805              		.loc 1 469 0
 1806 00f0 A36B     		ldr	r3, [r4, #56]
 1807 00f2 AA6B     		ldr	r2, [r5, #56]
 1808 00f4 304F     		ldr	r7, .L109
 1809 00f6 314E     		ldr	r6, .L109+4
 1810 00f8 9A42     		cmp	r2, r3
 1811 00fa 0ED0     		beq	.L103
 1812              		.loc 1 470 0
 1813 00fc 9BB2     		uxth	r3, r3
 1814 00fe 0421     		movs	r1, #4
 1815 0100 0A22     		movs	r2, #10
 1816 0102 0093     		str	r3, [sp]
 1817 0104 0191     		str	r1, [sp, #4]
 1818 0106 0292     		str	r2, [sp, #8]
 1819 0108 0F23     		movs	r3, #15
 1820 010a 44F64B00 		movw	r0, #18507
 1821 010e 7221     		movs	r1, #114
 1822 0110 BC22     		movs	r2, #188
 1823 0112 FFF7FEFF 		bl	gfx_PlaceNumber
 1824              	.LVL215:
ARM GAS  C:\Users\srich\AppData\Local\Temp\ccv3JVxh.s 			page 33


 1825              		.loc 1 471 0
 1826 0116 BB6B     		ldr	r3, [r7, #56]
 1827 0118 B363     		str	r3, [r6, #56]
 1828              	.L103:
 1829              		.loc 1 474 0
 1830 011a E36B     		ldr	r3, [r4, #60]
 1831 011c EA6B     		ldr	r2, [r5, #60]
 1832 011e 264F     		ldr	r7, .L109
 1833 0120 264E     		ldr	r6, .L109+4
 1834 0122 9A42     		cmp	r2, r3
 1835 0124 0ED0     		beq	.L104
 1836              		.loc 1 475 0
 1837 0126 9BB2     		uxth	r3, r3
 1838 0128 0421     		movs	r1, #4
 1839 012a 0A22     		movs	r2, #10
 1840 012c 0093     		str	r3, [sp]
 1841 012e 0191     		str	r1, [sp, #4]
 1842 0130 0292     		str	r2, [sp, #8]
 1843 0132 0F23     		movs	r3, #15
 1844 0134 44F64B00 		movw	r0, #18507
 1845 0138 4F21     		movs	r1, #79
 1846 013a BC22     		movs	r2, #188
 1847 013c FFF7FEFF 		bl	gfx_PlaceNumber
 1848              	.LVL216:
 1849              		.loc 1 476 0
 1850 0140 FB6B     		ldr	r3, [r7, #60]
 1851 0142 F363     		str	r3, [r6, #60]
 1852              	.L104:
 1853              		.loc 1 479 0
 1854 0144 236D     		ldr	r3, [r4, #80]
 1855 0146 2A6D     		ldr	r2, [r5, #80]
 1856 0148 1B4F     		ldr	r7, .L109
 1857 014a 1C4E     		ldr	r6, .L109+4
 1858 014c 9A42     		cmp	r2, r3
 1859 014e 0DD0     		beq	.L105
 1860              		.loc 1 480 0
 1861 0150 9BB2     		uxth	r3, r3
 1862 0152 0121     		movs	r1, #1
 1863 0154 0A22     		movs	r2, #10
 1864 0156 0093     		str	r3, [sp]
 1865 0158 0191     		str	r1, [sp, #4]
 1866 015a 0292     		str	r2, [sp, #8]
 1867 015c 1123     		movs	r3, #17
 1868 015e 2220     		movs	r0, #34
 1869 0160 1721     		movs	r1, #23
 1870 0162 F922     		movs	r2, #249
 1871 0164 FFF7FEFF 		bl	gfx_PlaceNumber
 1872              	.LVL217:
 1873              		.loc 1 481 0
 1874 0168 3B6D     		ldr	r3, [r7, #80]
 1875 016a 3365     		str	r3, [r6, #80]
 1876              	.L105:
 1877              		.loc 1 484 0
 1878 016c 636D     		ldr	r3, [r4, #84]
 1879 016e 6A6D     		ldr	r2, [r5, #84]
 1880 0170 124C     		ldr	r4, .L109+4
 1881 0172 114D     		ldr	r5, .L109
ARM GAS  C:\Users\srich\AppData\Local\Temp\ccv3JVxh.s 			page 34


 1882 0174 9A42     		cmp	r2, r3
 1883 0176 0DD0     		beq	.L96
 1884              		.loc 1 485 0
 1885 0178 9BB2     		uxth	r3, r3
 1886 017a 0421     		movs	r1, #4
 1887 017c 0A22     		movs	r2, #10
 1888 017e 0093     		str	r3, [sp]
 1889 0180 0191     		str	r1, [sp, #4]
 1890 0182 0292     		str	r2, [sp, #8]
 1891 0184 1123     		movs	r3, #17
 1892 0186 2220     		movs	r0, #34
 1893 0188 1521     		movs	r1, #21
 1894 018a DD22     		movs	r2, #221
 1895 018c FFF7FEFF 		bl	gfx_PlaceNumber
 1896              	.LVL218:
 1897              		.loc 1 486 0
 1898 0190 6B6D     		ldr	r3, [r5, #84]
 1899 0192 6365     		str	r3, [r4, #84]
 1900              	.L96:
 1901              		.loc 1 488 0
 1902 0194 05B0     		add	sp, sp, #20
 1903              		.cfi_remember_state
 1904              		.cfi_def_cfa_offset 20
 1905              		@ sp needed
 1906 0196 F0BD     		pop	{r4, r5, r6, r7, pc}
 1907              	.L108:
 1908              		.cfi_restore_state
 1909              		.loc 1 440 0
 1910 0198 9BB2     		uxth	r3, r3
 1911 019a 0321     		movs	r1, #3
 1912 019c 0A22     		movs	r2, #10
 1913 019e 0093     		str	r3, [sp]
 1914 01a0 0191     		str	r1, [sp, #4]
 1915 01a2 0292     		str	r2, [sp, #8]
 1916 01a4 4023     		movs	r3, #64
 1917 01a6 41F23440 		movw	r0, #5172
 1918 01aa D221     		movs	r1, #210
 1919 01ac A222     		movs	r2, #162
 1920 01ae FFF7FEFF 		bl	gfx_PlaceNumber
 1921              	.LVL219:
 1922              		.loc 1 441 0
 1923 01b2 E36A     		ldr	r3, [r4, #44]
 1924 01b4 EB62     		str	r3, [r5, #44]
 1925 01b6 2FE7     		b	.L97
 1926              	.L110:
 1927              		.align	2
 1928              	.L109:
 1929 01b8 00000000 		.word	.LANCHOR1
 1930 01bc 00000000 		.word	.LANCHOR6
 1931              		.cfi_endproc
 1932              	.LFE128:
 1933              		.size	RefreshNumbers, .-RefreshNumbers
 1934              		.section	.text.RefreshTempomatNumber,"ax",%progbits
 1935              		.align	2
 1936              		.p2align 4,,15
 1937              		.global	RefreshTempomatNumber
 1938              		.thumb
ARM GAS  C:\Users\srich\AppData\Local\Temp\ccv3JVxh.s 			page 35


 1939              		.thumb_func
 1940              		.type	RefreshTempomatNumber, %function
 1941              	RefreshTempomatNumber:
 1942              	.LFB129:
 1943              		.loc 1 489 0
 1944              		.cfi_startproc
 1945              		@ args = 0, pretend = 0, frame = 0
 1946              		@ frame_needed = 0, uses_anonymous_args = 0
 1947 0000 30B5     		push	{r4, r5, lr}
 1948              		.cfi_def_cfa_offset 12
 1949              		.cfi_offset 4, -12
 1950              		.cfi_offset 5, -8
 1951              		.cfi_offset 14, -4
 1952              		.loc 1 493 0
 1953 0002 0C4C     		ldr	r4, .L114
 1954              		.loc 1 491 0
 1955 0004 0C4D     		ldr	r5, .L114+4
 1956              		.loc 1 489 0
 1957 0006 85B0     		sub	sp, sp, #20
 1958              		.cfi_def_cfa_offset 32
 1959              		.loc 1 491 0
 1960 0008 FFF7FEFF 		bl	cruiseGet
 1961              	.LVL220:
 1962              		.loc 1 493 0
 1963 000c 636C     		ldr	r3, [r4, #68]
 1964              		.loc 1 491 0
 1965 000e 6864     		str	r0, [r5, #68]
 1966              		.loc 1 493 0
 1967 0010 9842     		cmp	r0, r3
 1968 0012 0CD0     		beq	.L111
 1969              		.loc 1 494 0
 1970 0014 80B2     		uxth	r0, r0
 1971 0016 0322     		movs	r2, #3
 1972 0018 0A23     		movs	r3, #10
 1973 001a 8DE80D00 		stmia	sp, {r0, r2, r3}
 1974 001e 1821     		movs	r1, #24
 1975 0020 1123     		movs	r3, #17
 1976 0022 2220     		movs	r0, #34
 1977 0024 2322     		movs	r2, #35
 1978 0026 FFF7FEFF 		bl	gfx_PlaceNumber
 1979              	.LVL221:
 1980              		.loc 1 495 0
 1981 002a 6B6C     		ldr	r3, [r5, #68]
 1982 002c 6364     		str	r3, [r4, #68]
 1983              	.L111:
 1984              		.loc 1 497 0
 1985 002e 05B0     		add	sp, sp, #20
 1986              		.cfi_def_cfa_offset 12
 1987              		@ sp needed
 1988 0030 30BD     		pop	{r4, r5, pc}
 1989              	.L115:
 1990 0032 00BF     		.align	2
 1991              	.L114:
 1992 0034 00000000 		.word	.LANCHOR6
 1993 0038 00000000 		.word	.LANCHOR1
 1994              		.cfi_endproc
 1995              	.LFE129:
ARM GAS  C:\Users\srich\AppData\Local\Temp\ccv3JVxh.s 			page 36


 1996              		.size	RefreshTempomatNumber, .-RefreshTempomatNumber
 1997              		.section	.text.RefreshGauge,"ax",%progbits
 1998              		.align	2
 1999              		.p2align 4,,15
 2000              		.global	RefreshGauge
 2001              		.thumb
 2002              		.thumb_func
 2003              		.type	RefreshGauge, %function
 2004              	RefreshGauge:
 2005              	.LFB130:
 2006              		.loc 1 498 0
 2007              		.cfi_startproc
 2008              		@ args = 0, pretend = 0, frame = 0
 2009              		@ frame_needed = 0, uses_anonymous_args = 0
 2010 0000 F8B5     		push	{r3, r4, r5, r6, r7, lr}
 2011              		.cfi_def_cfa_offset 24
 2012              		.cfi_offset 3, -24
 2013              		.cfi_offset 4, -20
 2014              		.cfi_offset 5, -16
 2015              		.cfi_offset 6, -12
 2016              		.cfi_offset 7, -8
 2017              		.cfi_offset 14, -4
 2018              		.loc 1 500 0
 2019 0002 174C     		ldr	r4, .L121
 2020 0004 174D     		ldr	r5, .L121+4
 2021 0006 E66C     		ldr	r6, [r4, #76]
 2022 0008 EB6C     		ldr	r3, [r5, #76]
 2023 000a B342     		cmp	r3, r6
 2024 000c 0AD0     		beq	.L117
 2025              	.LVL222:
 2026              	.LBB161:
 2027              	.LBB162:
 2028              		.loc 1 54 0
 2029 000e 3721     		movs	r1, #55
 2030 0010 0020     		movs	r0, #0
 2031 0012 FFF7FEFF 		bl	media_SetSector
 2032              	.LVL223:
 2033              		.loc 1 55 0
 2034 0016 3246     		mov	r2, r6
 2035 0018 0520     		movs	r0, #5
 2036 001a 0021     		movs	r1, #0
 2037 001c FFF7FEFF 		bl	media_VideoFrame
 2038              	.LVL224:
 2039              	.LBE162:
 2040              	.LBE161:
 2041              		.loc 1 502 0
 2042 0020 E36C     		ldr	r3, [r4, #76]
 2043 0022 EB64     		str	r3, [r5, #76]
 2044              	.LVL225:
 2045              	.L117:
 2046              		.loc 1 504 0
 2047 0024 A36A     		ldr	r3, [r4, #40]
 2048 0026 AA6A     		ldr	r2, [r5, #40]
 2049 0028 0E4E     		ldr	r6, .L121+4
 2050 002a 0D4C     		ldr	r4, .L121
 2051 002c 9A42     		cmp	r2, r3
 2052 002e 01D0     		beq	.L116
ARM GAS  C:\Users\srich\AppData\Local\Temp\ccv3JVxh.s 			page 37


 2053              		.loc 1 504 0 is_stmt 0 discriminator 1
 2054 0030 A56D     		ldr	r5, [r4, #88]
 2055 0032 05B1     		cbz	r5, .L120
 2056              	.L116:
 2057 0034 F8BD     		pop	{r3, r4, r5, r6, r7, pc}
 2058              	.L120:
 2059              	.LBB163:
 2060              	.LBB164:
 2061              		.loc 1 505 0 is_stmt 1
 2062 0036 0120     		movs	r0, #1
 2063 0038 FFF7FEFF 		bl	gfx_Transparency
 2064              	.LVL226:
 2065              		.loc 1 506 0
 2066 003c 1F20     		movs	r0, #31
 2067 003e FFF7FEFF 		bl	gfx_TransparentColour
 2068              	.LVL227:
 2069              		.loc 1 507 0
 2070 0042 A76A     		ldr	r7, [r4, #40]
 2071              	.LVL228:
 2072              	.LBB165:
 2073              	.LBB166:
 2074              		.loc 1 54 0
 2075 0044 41F24151 		movw	r1, #5441
 2076 0048 2846     		mov	r0, r5
 2077 004a FFF7FEFF 		bl	media_SetSector
 2078              	.LVL229:
 2079              		.loc 1 55 0
 2080 004e 3A46     		mov	r2, r7
 2081 0050 2946     		mov	r1, r5
 2082 0052 A220     		movs	r0, #162
 2083 0054 FFF7FEFF 		bl	media_VideoFrame
 2084              	.LVL230:
 2085              	.LBE166:
 2086              	.LBE165:
 2087              		.loc 1 508 0
 2088 0058 A36A     		ldr	r3, [r4, #40]
 2089 005a B362     		str	r3, [r6, #40]
 2090 005c F8BD     		pop	{r3, r4, r5, r6, r7, pc}
 2091              	.LVL231:
 2092              	.L122:
 2093 005e 00BF     		.align	2
 2094              	.L121:
 2095 0060 00000000 		.word	.LANCHOR1
 2096 0064 00000000 		.word	.LANCHOR6
 2097              	.LBE164:
 2098              	.LBE163:
 2099              		.cfi_endproc
 2100              	.LFE130:
 2101              		.size	RefreshGauge, .-RefreshGauge
 2102              		.section	.text.dspGetValue,"ax",%progbits
 2103              		.align	2
 2104              		.p2align 4,,15
 2105              		.global	dspGetValue
 2106              		.thumb
 2107              		.thumb_func
 2108              		.type	dspGetValue, %function
 2109              	dspGetValue:
ARM GAS  C:\Users\srich\AppData\Local\Temp\ccv3JVxh.s 			page 38


 2110              	.LFB133:
 2111              		.loc 1 565 0
 2112              		.cfi_startproc
 2113              		@ args = 0, pretend = 0, frame = 0
 2114              		@ frame_needed = 0, uses_anonymous_args = 0
 2115              		@ link register save eliminated.
 2116              		.loc 1 566 0
 2117 0000 014B     		ldr	r3, .L124
 2118              		.loc 1 567 0
 2119 0002 1878     		ldrb	r0, [r3]	@ zero_extendqisi2
 2120 0004 7047     		bx	lr
 2121              	.L125:
 2122 0006 00BF     		.align	2
 2123              	.L124:
 2124 0008 00000000 		.word	.LANCHOR0
 2125              		.cfi_endproc
 2126              	.LFE133:
 2127              		.size	dspGetValue, .-dspGetValue
 2128              		.section	.text.DisplayOnOff,"ax",%progbits
 2129              		.align	2
 2130              		.p2align 4,,15
 2131              		.global	DisplayOnOff
 2132              		.thumb
 2133              		.thumb_func
 2134              		.type	DisplayOnOff, %function
 2135              	DisplayOnOff:
 2136              	.LFB134:
 2137              		.loc 1 568 0
 2138              		.cfi_startproc
 2139              		@ args = 0, pretend = 0, frame = 0
 2140              		@ frame_needed = 0, uses_anonymous_args = 0
 2141              	.LVL232:
 2142              		.loc 1 569 0
 2143 0000 58B1     		cbz	r0, .L127
 2144              		.loc 1 568 0
 2145 0002 10B5     		push	{r4, lr}
 2146              		.cfi_def_cfa_offset 8
 2147              		.cfi_offset 4, -8
 2148              		.cfi_offset 14, -4
 2149 0004 0024     		movs	r4, #0
 2150              	.LVL233:
 2151              	.L128:
 2152              	.LBB168:
 2153              		.loc 1 572 0 discriminator 3
 2154 0006 2046     		mov	r0, r4
 2155 0008 FFF7FEFF 		bl	gfx_Contrast
 2156              	.LVL234:
 2157              		.loc 1 571 0 discriminator 3
 2158 000c 0134     		adds	r4, r4, #1
 2159              	.LVL235:
 2160              		.loc 1 573 0 discriminator 3
 2161 000e 2520     		movs	r0, #37
 2162 0010 FFF7FEFF 		bl	chThdSleep
 2163              	.LVL236:
 2164              		.loc 1 571 0 discriminator 3
 2165 0014 102C     		cmp	r4, #16
 2166 0016 F6D1     		bne	.L128
ARM GAS  C:\Users\srich\AppData\Local\Temp\ccv3JVxh.s 			page 39


 2167 0018 10BD     		pop	{r4, pc}
 2168              	.LVL237:
 2169              	.L127:
 2170              		.cfi_def_cfa_offset 0
 2171              		.cfi_restore 4
 2172              		.cfi_restore 14
 2173              	.LBE168:
 2174              		.loc 1 576 0
 2175 001a FFF7FEBF 		b	gfx_Contrast
 2176              	.LVL238:
 2177              		.cfi_endproc
 2178              	.LFE134:
 2179              		.size	DisplayOnOff, .-DisplayOnOff
 2180 001e 00BF     		.section	.text.ReDrawLcd,"ax",%progbits
 2181              		.align	2
 2182              		.p2align 4,,15
 2183              		.global	ReDrawLcd
 2184              		.thumb
 2185              		.thumb_func
 2186              		.type	ReDrawLcd, %function
 2187              	ReDrawLcd:
 2188              	.LFB135:
 2189              		.loc 1 579 0
 2190              		.cfi_startproc
 2191              		@ args = 0, pretend = 0, frame = 0
 2192              		@ frame_needed = 0, uses_anonymous_args = 0
 2193 0000 08B5     		push	{r3, lr}
 2194              		.cfi_def_cfa_offset 8
 2195              		.cfi_offset 3, -8
 2196              		.cfi_offset 14, -4
 2197              		.loc 1 580 0
 2198 0002 FFF7FEFF 		bl	gfx_Cls
 2199              	.LVL239:
 2200              		.loc 1 581 0
 2201 0006 FFF7FEFF 		bl	LoadImages
 2202              	.LVL240:
 2203 000a 054B     		ldr	r3, .L137
 2204              	.LBB169:
 2205              	.LBB170:
 2206              		.loc 1 587 0
 2207 000c 4FF0FF31 		mov	r1, #-1
 2208 0010 03F15C02 		add	r2, r3, #92
 2209              	.LVL241:
 2210              	.L134:
 2211 0014 43F8041F 		str	r1, [r3, #4]!
 2212              		.loc 1 586 0
 2213 0018 9342     		cmp	r3, r2
 2214 001a FBD1     		bne	.L134
 2215              	.LBE170:
 2216              	.LBE169:
 2217              		.loc 1 583 0
 2218 001c 08BD     		pop	{r3, pc}
 2219              	.L138:
 2220 001e 00BF     		.align	2
 2221              	.L137:
 2222 0020 FCFFFFFF 		.word	.LANCHOR6-4
 2223              		.cfi_endproc
ARM GAS  C:\Users\srich\AppData\Local\Temp\ccv3JVxh.s 			page 40


 2224              	.LFE135:
 2225              		.size	ReDrawLcd, .-ReDrawLcd
 2226              		.section	.text.RefreshPiktograms,"ax",%progbits
 2227              		.align	2
 2228              		.p2align 4,,15
 2229              		.global	RefreshPiktograms
 2230              		.thumb
 2231              		.thumb_func
 2232              		.type	RefreshPiktograms, %function
 2233              	RefreshPiktograms:
 2234              	.LFB127:
 2235              		.loc 1 366 0
 2236              		.cfi_startproc
 2237              		@ args = 0, pretend = 0, frame = 0
 2238              		@ frame_needed = 0, uses_anonymous_args = 0
 2239 0000 2DE9F041 		push	{r4, r5, r6, r7, r8, lr}
 2240              		.cfi_def_cfa_offset 24
 2241              		.cfi_offset 4, -24
 2242              		.cfi_offset 5, -20
 2243              		.cfi_offset 6, -16
 2244              		.cfi_offset 7, -12
 2245              		.cfi_offset 8, -8
 2246              		.cfi_offset 14, -4
 2247              		.loc 1 367 0
 2248 0004 6F4D     		ldr	r5, .L155
 2249 0006 704C     		ldr	r4, .L155+4
 2250 0008 2E68     		ldr	r6, [r5]
 2251 000a 2368     		ldr	r3, [r4]
 2252 000c B342     		cmp	r3, r6
 2253 000e 0CD0     		beq	.L140
 2254              	.LVL242:
 2255              	.LBB197:
 2256              	.LBB198:
 2257              		.loc 1 54 0
 2258 0010 41F21841 		movw	r1, #5144
 2259 0014 0020     		movs	r0, #0
 2260 0016 FFF7FEFF 		bl	media_SetSector
 2261              	.LVL243:
 2262              		.loc 1 55 0
 2263 001a 3246     		mov	r2, r6
 2264 001c 4FF4D970 		mov	r0, #434
 2265 0020 0421     		movs	r1, #4
 2266 0022 FFF7FEFF 		bl	media_VideoFrame
 2267              	.LVL244:
 2268              	.LBE198:
 2269              	.LBE197:
 2270              		.loc 1 369 0
 2271 0026 2B68     		ldr	r3, [r5]
 2272 0028 2360     		str	r3, [r4]
 2273              	.LVL245:
 2274              	.L140:
 2275              		.loc 1 372 0
 2276 002a 6E68     		ldr	r6, [r5, #4]
 2277 002c 6368     		ldr	r3, [r4, #4]
 2278 002e DFF89481 		ldr	r8, .L155
 2279 0032 654F     		ldr	r7, .L155+4
 2280 0034 B342     		cmp	r3, r6
ARM GAS  C:\Users\srich\AppData\Local\Temp\ccv3JVxh.s 			page 41


 2281 0036 0DD0     		beq	.L141
 2282              	.LVL246:
 2283              	.LBB199:
 2284              	.LBB200:
 2285              		.loc 1 54 0
 2286 0038 41F22341 		movw	r1, #5155
 2287 003c 0020     		movs	r0, #0
 2288 003e FFF7FEFF 		bl	media_SetSector
 2289              	.LVL247:
 2290              		.loc 1 55 0
 2291 0042 3246     		mov	r2, r6
 2292 0044 4FF4D970 		mov	r0, #434
 2293 0048 EB21     		movs	r1, #235
 2294 004a FFF7FEFF 		bl	media_VideoFrame
 2295              	.LVL248:
 2296              	.LBE200:
 2297              	.LBE199:
 2298              		.loc 1 374 0
 2299 004e D8F80430 		ldr	r3, [r8, #4]
 2300 0052 7B60     		str	r3, [r7, #4]
 2301              	.LVL249:
 2302              	.L141:
 2303              		.loc 1 377 0
 2304 0054 6E69     		ldr	r6, [r5, #20]
 2305 0056 6369     		ldr	r3, [r4, #20]
 2306 0058 DFF86881 		ldr	r8, .L155
 2307 005c 5A4F     		ldr	r7, .L155+4
 2308 005e B342     		cmp	r3, r6
 2309 0060 0DD0     		beq	.L142
 2310              	.LVL250:
 2311              	.LBB201:
 2312              	.LBB202:
 2313              		.loc 1 54 0
 2314 0062 41F2F131 		movw	r1, #5105
 2315 0066 0020     		movs	r0, #0
 2316 0068 FFF7FEFF 		bl	media_SetSector
 2317              	.LVL251:
 2318              		.loc 1 55 0
 2319 006c 3246     		mov	r2, r6
 2320 006e 4FF4BE70 		mov	r0, #380
 2321 0072 0A21     		movs	r1, #10
 2322 0074 FFF7FEFF 		bl	media_VideoFrame
 2323              	.LVL252:
 2324              	.LBE202:
 2325              	.LBE201:
 2326              		.loc 1 379 0
 2327 0078 D8F81430 		ldr	r3, [r8, #20]
 2328 007c 7B61     		str	r3, [r7, #20]
 2329              	.LVL253:
 2330              	.L142:
 2331              		.loc 1 382 0
 2332 007e 2E6A     		ldr	r6, [r5, #32]
 2333 0080 236A     		ldr	r3, [r4, #32]
 2334 0082 DFF84081 		ldr	r8, .L155
 2335 0086 504F     		ldr	r7, .L155+4
 2336 0088 B342     		cmp	r3, r6
 2337 008a 0DD0     		beq	.L143
ARM GAS  C:\Users\srich\AppData\Local\Temp\ccv3JVxh.s 			page 42


 2338              	.LVL254:
 2339              	.LBB203:
 2340              	.LBB204:
 2341              		.loc 1 54 0
 2342 008c 41F22F51 		movw	r1, #5423
 2343 0090 0020     		movs	r0, #0
 2344 0092 FFF7FEFF 		bl	media_SetSector
 2345              	.LVL255:
 2346              		.loc 1 55 0
 2347 0096 3246     		mov	r2, r6
 2348 0098 4FF4C070 		mov	r0, #384
 2349 009c D721     		movs	r1, #215
 2350 009e FFF7FEFF 		bl	media_VideoFrame
 2351              	.LVL256:
 2352              	.LBE204:
 2353              	.LBE203:
 2354              		.loc 1 384 0
 2355 00a2 D8F82030 		ldr	r3, [r8, #32]
 2356 00a6 3B62     		str	r3, [r7, #32]
 2357              	.LVL257:
 2358              	.L143:
 2359              		.loc 1 388 0
 2360 00a8 EE69     		ldr	r6, [r5, #28]
 2361 00aa E369     		ldr	r3, [r4, #28]
 2362 00ac DFF81481 		ldr	r8, .L155
 2363 00b0 454F     		ldr	r7, .L155+4
 2364 00b2 B342     		cmp	r3, r6
 2365 00b4 0DD0     		beq	.L144
 2366              	.LVL258:
 2367              	.LBB205:
 2368              	.LBB206:
 2369              		.loc 1 54 0
 2370 00b6 41F20A41 		movw	r1, #5130
 2371 00ba 0020     		movs	r0, #0
 2372 00bc FFF7FEFF 		bl	media_SetSector
 2373              	.LVL259:
 2374              		.loc 1 55 0
 2375 00c0 3246     		mov	r2, r6
 2376 00c2 40F27F10 		movw	r0, #383
 2377 00c6 9821     		movs	r1, #152
 2378 00c8 FFF7FEFF 		bl	media_VideoFrame
 2379              	.LVL260:
 2380              	.LBE206:
 2381              	.LBE205:
 2382              		.loc 1 390 0
 2383 00cc D8F81C30 		ldr	r3, [r8, #28]
 2384 00d0 FB61     		str	r3, [r7, #28]
 2385              	.LVL261:
 2386              	.L144:
 2387              		.loc 1 393 0
 2388 00d2 AE69     		ldr	r6, [r5, #24]
 2389 00d4 A369     		ldr	r3, [r4, #24]
 2390 00d6 DFF8EC80 		ldr	r8, .L155
 2391 00da 3B4F     		ldr	r7, .L155+4
 2392 00dc B342     		cmp	r3, r6
 2393 00de 0CD0     		beq	.L145
 2394              	.LVL262:
ARM GAS  C:\Users\srich\AppData\Local\Temp\ccv3JVxh.s 			page 43


 2395              	.LBB207:
 2396              	.LBB208:
 2397              		.loc 1 54 0
 2398 00e0 0020     		movs	r0, #0
 2399 00e2 0146     		mov	r1, r0
 2400 00e4 FFF7FEFF 		bl	media_SetSector
 2401              	.LVL263:
 2402              		.loc 1 55 0
 2403 00e8 3246     		mov	r2, r6
 2404 00ea 4FF4C070 		mov	r0, #384
 2405 00ee 4E21     		movs	r1, #78
 2406 00f0 FFF7FEFF 		bl	media_VideoFrame
 2407              	.LVL264:
 2408              	.LBE208:
 2409              	.LBE207:
 2410              		.loc 1 395 0
 2411 00f4 D8F81830 		ldr	r3, [r8, #24]
 2412 00f8 BB61     		str	r3, [r7, #24]
 2413              	.LVL265:
 2414              	.L145:
 2415              		.loc 1 400 0
 2416 00fa AE6C     		ldr	r6, [r5, #72]
 2417 00fc A36C     		ldr	r3, [r4, #72]
 2418 00fe DFF8C480 		ldr	r8, .L155
 2419 0102 314F     		ldr	r7, .L155+4
 2420 0104 B342     		cmp	r3, r6
 2421 0106 0CD0     		beq	.L146
 2422              	.LVL266:
 2423              	.LBB209:
 2424              	.LBB210:
 2425              		.loc 1 54 0
 2426 0108 44F69101 		movw	r1, #18577
 2427 010c 0020     		movs	r0, #0
 2428 010e FFF7FEFF 		bl	media_SetSector
 2429              	.LVL267:
 2430              		.loc 1 55 0
 2431 0112 3246     		mov	r2, r6
 2432 0114 1820     		movs	r0, #24
 2433 0116 3C21     		movs	r1, #60
 2434 0118 FFF7FEFF 		bl	media_VideoFrame
 2435              	.LVL268:
 2436              	.LBE210:
 2437              	.LBE209:
 2438              		.loc 1 402 0
 2439 011c D8F84830 		ldr	r3, [r8, #72]
 2440 0120 BB64     		str	r3, [r7, #72]
 2441              	.LVL269:
 2442              	.L146:
 2443              		.loc 1 406 0
 2444 0122 2E6C     		ldr	r6, [r5, #64]
 2445 0124 236C     		ldr	r3, [r4, #64]
 2446 0126 DFF89C80 		ldr	r8, .L155
 2447 012a 274F     		ldr	r7, .L155+4
 2448 012c B342     		cmp	r3, r6
 2449 012e 0CD0     		beq	.L147
 2450              	.LVL270:
 2451              	.LBB211:
ARM GAS  C:\Users\srich\AppData\Local\Temp\ccv3JVxh.s 			page 44


 2452              	.LBB212:
 2453              		.loc 1 54 0
 2454 0130 44F63E01 		movw	r1, #18494
 2455 0134 0020     		movs	r0, #0
 2456 0136 FFF7FEFF 		bl	media_SetSector
 2457              	.LVL271:
 2458              		.loc 1 55 0
 2459 013a 3246     		mov	r2, r6
 2460 013c 4F20     		movs	r0, #79
 2461 013e E621     		movs	r1, #230
 2462 0140 FFF7FEFF 		bl	media_VideoFrame
 2463              	.LVL272:
 2464              	.LBE212:
 2465              	.LBE211:
 2466              		.loc 1 408 0
 2467 0144 D8F84030 		ldr	r3, [r8, #64]
 2468 0148 3B64     		str	r3, [r7, #64]
 2469              	.LVL273:
 2470              	.L147:
 2471              		.loc 1 411 0
 2472 014a 6E6A     		ldr	r6, [r5, #36]
 2473 014c 636A     		ldr	r3, [r4, #36]
 2474 014e DFF87480 		ldr	r8, .L155
 2475 0152 1D4F     		ldr	r7, .L155+4
 2476 0154 B342     		cmp	r3, r6
 2477 0156 0CD0     		beq	.L148
 2478              	.LVL274:
 2479              	.LBB213:
 2480              	.LBB214:
 2481              		.loc 1 54 0
 2482 0158 41F2E831 		movw	r1, #5096
 2483 015c 0020     		movs	r0, #0
 2484 015e FFF7FEFF 		bl	media_SetSector
 2485              	.LVL275:
 2486              		.loc 1 55 0
 2487 0162 3246     		mov	r2, r6
 2488 0164 1820     		movs	r0, #24
 2489 0166 7B21     		movs	r1, #123
 2490 0168 FFF7FEFF 		bl	media_VideoFrame
 2491              	.LVL276:
 2492              	.LBE214:
 2493              	.LBE213:
 2494              		.loc 1 413 0
 2495 016c D8F82430 		ldr	r3, [r8, #36]
 2496 0170 7B62     		str	r3, [r7, #36]
 2497              	.LVL277:
 2498              	.L148:
 2499              		.loc 1 416 0
 2500 0172 AD6D     		ldr	r5, [r5, #88]
 2501 0174 A36D     		ldr	r3, [r4, #88]
 2502 0176 134E     		ldr	r6, .L155
 2503 0178 AB42     		cmp	r3, r5
 2504 017a 03D0     		beq	.L139
 2505              		.loc 1 417 0
 2506 017c 012D     		cmp	r5, #1
 2507 017e 0DD0     		beq	.L153
 2508              		.loc 1 425 0
ARM GAS  C:\Users\srich\AppData\Local\Temp\ccv3JVxh.s 			page 45


 2509 0180 15B1     		cbz	r5, .L154
 2510              	.L151:
 2511              		.loc 1 432 0
 2512 0182 A565     		str	r5, [r4, #88]
 2513              	.L139:
 2514 0184 BDE8F081 		pop	{r4, r5, r6, r7, r8, pc}
 2515              	.L154:
 2516              	.LVL278:
 2517              	.LBB215:
 2518              	.LBB216:
 2519              		.loc 1 576 0
 2520 0188 2846     		mov	r0, r5
 2521 018a FFF7FEFF 		bl	gfx_Contrast
 2522              	.LVL279:
 2523              	.LBE216:
 2524              	.LBE215:
 2525              		.loc 1 428 0
 2526 018e FFF7FEFF 		bl	ReDrawLcd
 2527              	.LVL280:
 2528              		.loc 1 429 0
 2529 0192 0120     		movs	r0, #1
 2530 0194 FFF7FEFF 		bl	DisplayOnOff
 2531              	.LVL281:
 2532 0198 B56D     		ldr	r5, [r6, #88]
 2533 019a F2E7     		b	.L151
 2534              	.LVL282:
 2535              	.L153:
 2536              	.LBB217:
 2537              	.LBB218:
 2538              		.loc 1 576 0
 2539 019c 0020     		movs	r0, #0
 2540 019e FFF7FEFF 		bl	gfx_Contrast
 2541              	.LVL283:
 2542              	.LBE218:
 2543              	.LBE217:
 2544              		.loc 1 420 0
 2545 01a2 FFF7FEFF 		bl	ReDrawLcd
 2546              	.LVL284:
 2547              	.LBB219:
 2548              	.LBB220:
 2549              		.loc 1 46 0
 2550 01a6 44F6AA01 		movw	r1, #18602
 2551 01aa 0020     		movs	r0, #0
 2552 01ac FFF7FEFF 		bl	media_SetSector
 2553              	.LVL285:
 2554              		.loc 1 47 0
 2555 01b0 A420     		movs	r0, #164
 2556 01b2 5A21     		movs	r1, #90
 2557 01b4 FFF7FEFF 		bl	media_Image
 2558              	.LVL286:
 2559              	.LBE220:
 2560              	.LBE219:
 2561              		.loc 1 422 0
 2562 01b8 2846     		mov	r0, r5
 2563 01ba FFF7FEFF 		bl	DisplayOnOff
 2564              	.LVL287:
 2565 01be B56D     		ldr	r5, [r6, #88]
ARM GAS  C:\Users\srich\AppData\Local\Temp\ccv3JVxh.s 			page 46


 2566 01c0 DFE7     		b	.L151
 2567              	.L156:
 2568 01c2 00BF     		.align	2
 2569              	.L155:
 2570 01c4 00000000 		.word	.LANCHOR1
 2571 01c8 00000000 		.word	.LANCHOR6
 2572              		.cfi_endproc
 2573              	.LFE127:
 2574              		.size	RefreshPiktograms, .-RefreshPiktograms
 2575              		.section	.text.DSPThread,"ax",%progbits
 2576              		.align	2
 2577              		.p2align 4,,15
 2578              		.thumb
 2579              		.thumb_func
 2580              		.type	DSPThread, %function
 2581              	DSPThread:
 2582              	.LFB131:
 2583              		.loc 1 515 0
 2584              		.cfi_startproc
 2585              		@ args = 0, pretend = 0, frame = 0
 2586              		@ frame_needed = 0, uses_anonymous_args = 0
 2587              	.LVL288:
 2588 0000 F8B5     		push	{r3, r4, r5, r6, r7, lr}
 2589              		.cfi_def_cfa_offset 24
 2590              		.cfi_offset 3, -24
 2591              		.cfi_offset 4, -20
 2592              		.cfi_offset 5, -16
 2593              		.cfi_offset 6, -12
 2594              		.cfi_offset 7, -8
 2595              		.cfi_offset 14, -4
 2596              		.loc 1 519 0
 2597 0002 194B     		ldr	r3, .L163
 2598 0004 194A     		ldr	r2, .L163+4
 2599 0006 9B69     		ldr	r3, [r3, #24]
 2600              		.loc 1 529 0
 2601 0008 194F     		ldr	r7, .L163+8
 2602              		.loc 1 519 0
 2603 000a 9A61     		str	r2, [r3, #24]
 2604              		.loc 1 521 0
 2605 000c FFF7FEFF 		bl	ReDrawLcd
 2606              	.LVL289:
 2607              		.loc 1 526 0
 2608 0010 184B     		ldr	r3, .L163+12
 2609              		.loc 1 534 0
 2610 0012 194E     		ldr	r6, .L163+16
 2611              		.loc 1 526 0
 2612 0014 DB68     		ldr	r3, [r3, #12]
 2613              		.loc 1 525 0
 2614 0016 0024     		movs	r4, #0
 2615 0018 12E0     		b	.L160
 2616              	.LVL290:
 2617              	.L158:
 2618              		.loc 1 534 0
 2619 001a 84FB0623 		smull	r2, r3, r4, r6
 2620 001e 2344     		add	r3, r3, r4
 2621 0020 C5EBA305 		rsb	r5, r5, r3, asr #2
 2622 0024 C5EBC505 		rsb	r5, r5, r5, lsl #3
ARM GAS  C:\Users\srich\AppData\Local\Temp\ccv3JVxh.s 			page 47


 2623 0028 AC42     		cmp	r4, r5
 2624 002a 17D0     		beq	.L162
 2625              	.L159:
 2626              		.loc 1 539 0
 2627 002c FFF7FEFF 		bl	RefreshTempomatNumber
 2628              	.LVL291:
 2629              		.loc 1 540 0
 2630 0030 FFF7FEFF 		bl	GaugeDataBinding
 2631              	.LVL292:
 2632              		.loc 1 541 0
 2633 0034 FFF7FEFF 		bl	RefreshGauge
 2634              	.LVL293:
 2635              		.loc 1 544 0
 2636 0038 3220     		movs	r0, #50
 2637              		.loc 1 543 0
 2638 003a 0134     		adds	r4, r4, #1
 2639              	.LVL294:
 2640              		.loc 1 544 0
 2641 003c FFF7FEFF 		bl	chThdSleep
 2642              	.LVL295:
 2643              	.L160:
 2644              		.loc 1 529 0
 2645 0040 87FB0423 		smull	r2, r3, r7, r4
 2646 0044 E517     		asrs	r5, r4, #31
 2647 0046 C5EB6303 		rsb	r3, r5, r3, asr #1
 2648 004a 03EB8303 		add	r3, r3, r3, lsl #2
 2649 004e 9C42     		cmp	r4, r3
 2650 0050 E3D1     		bne	.L158
 2651              		.loc 1 530 0
 2652 0052 FFF7FEFF 		bl	PictogramDataBinding
 2653              	.LVL296:
 2654              		.loc 1 531 0
 2655 0056 FFF7FEFF 		bl	RefreshPiktograms
 2656              	.LVL297:
 2657 005a DEE7     		b	.L158
 2658              	.L162:
 2659              		.loc 1 535 0
 2660 005c FFF7FEFF 		bl	NumberDataBinding
 2661              	.LVL298:
 2662              		.loc 1 536 0
 2663 0060 FFF7FEFF 		bl	RefreshNumbers
 2664              	.LVL299:
 2665 0064 E2E7     		b	.L159
 2666              	.L164:
 2667 0066 00BF     		.align	2
 2668              	.L163:
 2669 0068 00000000 		.word	rlist
 2670 006c 0C000000 		.word	.LC1
 2671 0070 67666666 		.word	1717986919
 2672 0074 00000000 		.word	vtlist
 2673 0078 93244992 		.word	-1840700269
 2674              		.cfi_endproc
 2675              	.LFE131:
 2676              		.size	DSPThread, .-DSPThread
 2677              		.section	.text.DeleteOldValues,"ax",%progbits
 2678              		.align	2
 2679              		.p2align 4,,15
ARM GAS  C:\Users\srich\AppData\Local\Temp\ccv3JVxh.s 			page 48


 2680              		.global	DeleteOldValues
 2681              		.thumb
 2682              		.thumb_func
 2683              		.type	DeleteOldValues, %function
 2684              	DeleteOldValues:
 2685              	.LFB136:
 2686              		.loc 1 584 0
 2687              		.cfi_startproc
 2688              		@ args = 0, pretend = 0, frame = 0
 2689              		@ frame_needed = 0, uses_anonymous_args = 0
 2690              		@ link register save eliminated.
 2691              	.LVL300:
 2692 0000 044B     		ldr	r3, .L168
 2693              		.loc 1 587 0
 2694 0002 4FF0FF31 		mov	r1, #-1
 2695 0006 03F15C02 		add	r2, r3, #92
 2696              	.LVL301:
 2697              	.L166:
 2698              		.loc 1 587 0 is_stmt 0 discriminator 3
 2699 000a 43F8041F 		str	r1, [r3, #4]!
 2700              		.loc 1 586 0 is_stmt 1 discriminator 3
 2701 000e 9342     		cmp	r3, r2
 2702 0010 FBD1     		bne	.L166
 2703              		.loc 1 588 0
 2704 0012 7047     		bx	lr
 2705              	.L169:
 2706              		.align	2
 2707              	.L168:
 2708 0014 FCFFFFFF 		.word	.LANCHOR6-4
 2709              		.cfi_endproc
 2710              	.LFE136:
 2711              		.size	DeleteOldValues, .-DeleteOldValues
 2712              		.section	.text.dspInit,"ax",%progbits
 2713              		.align	2
 2714              		.p2align 4,,15
 2715              		.global	dspInit
 2716              		.thumb
 2717              		.thumb_func
 2718              		.type	dspInit, %function
 2719              	dspInit:
 2720              	.LFB137:
 2721              		.loc 1 590 0
 2722              		.cfi_startproc
 2723              		@ args = 0, pretend = 0, frame = 0
 2724              		@ frame_needed = 0, uses_anonymous_args = 0
 2725 0000 10B5     		push	{r4, lr}
 2726              		.cfi_def_cfa_offset 8
 2727              		.cfi_offset 4, -8
 2728              		.cfi_offset 14, -4
 2729              		.loc 1 600 0
 2730 0002 0024     		movs	r4, #0
 2731              		.loc 1 590 0
 2732 0004 82B0     		sub	sp, sp, #8
 2733              		.cfi_def_cfa_offset 16
 2734              		.loc 1 591 0
 2735 0006 FFF7FEFF 		bl	SerialInit
 2736              	.LVL302:
ARM GAS  C:\Users\srich\AppData\Local\Temp\ccv3JVxh.s 			page 49


 2737              	.LBB224:
 2738              	.LBB225:
 2739              		.loc 1 576 0
 2740 000a 2046     		mov	r0, r4
 2741 000c FFF7FEFF 		bl	gfx_Contrast
 2742              	.LVL303:
 2743              	.LBE225:
 2744              	.LBE224:
 2745              		.loc 1 594 0
 2746 0010 FFF7FEFF 		bl	file_Mount
 2747              	.LVL304:
 2748              		.loc 1 600 0
 2749 0014 0094     		str	r4, [sp]
 2750 0016 084B     		ldr	r3, .L172
 2751 0018 0848     		ldr	r0, .L172+4
 2752 001a 4FF49A61 		mov	r1, #1232
 2753 001e 4722     		movs	r2, #71
 2754 0020 FFF7FEFF 		bl	chThdCreateStatic
 2755              	.LVL305:
 2756              		.loc 1 602 0
 2757 0024 0094     		str	r4, [sp]
 2758 0026 064B     		ldr	r3, .L172+8
 2759 0028 0648     		ldr	r0, .L172+12
 2760 002a 4FF49A61 		mov	r1, #1232
 2761 002e 4722     		movs	r2, #71
 2762 0030 FFF7FEFF 		bl	chThdCreateStatic
 2763              	.LVL306:
 2764              		.loc 1 603 0
 2765 0034 02B0     		add	sp, sp, #8
 2766              		.cfi_def_cfa_offset 8
 2767              		@ sp needed
 2768 0036 10BD     		pop	{r4, pc}
 2769              	.L173:
 2770              		.align	2
 2771              	.L172:
 2772 0038 00000000 		.word	DSPReader
 2773 003c 00000000 		.word	.LANCHOR7
 2774 0040 00000000 		.word	DSPThread
 2775 0044 00000000 		.word	.LANCHOR8
 2776              		.cfi_endproc
 2777              	.LFE137:
 2778              		.size	dspInit, .-dspInit
 2779              		.section	.text.cmd_dspvalues,"ax",%progbits
 2780              		.align	2
 2781              		.p2align 4,,15
 2782              		.global	cmd_dspvalues
 2783              		.thumb
 2784              		.thumb_func
 2785              		.type	cmd_dspvalues, %function
 2786              	cmd_dspvalues:
 2787              	.LFB138:
 2788              		.loc 1 605 0
 2789              		.cfi_startproc
 2790              		@ args = 0, pretend = 0, frame = 0
 2791              		@ frame_needed = 0, uses_anonymous_args = 0
 2792              	.LVL307:
 2793 0000 70B5     		push	{r4, r5, r6, lr}
ARM GAS  C:\Users\srich\AppData\Local\Temp\ccv3JVxh.s 			page 50


 2794              		.cfi_def_cfa_offset 16
 2795              		.cfi_offset 4, -16
 2796              		.cfi_offset 5, -12
 2797              		.cfi_offset 6, -8
 2798              		.cfi_offset 14, -4
 2799              		.loc 1 606 0
 2800 0002 1E49     		ldr	r1, .L178
 2801              	.LVL308:
 2802              		.loc 1 612 0
 2803 0004 1E4E     		ldr	r6, .L178+4
 2804              		.loc 1 605 0
 2805 0006 0446     		mov	r4, r0
 2806              		.loc 1 606 0
 2807 0008 FFF7FEFF 		bl	chprintf
 2808              	.LVL309:
 2809              		.loc 1 607 0
 2810 000c 2046     		mov	r0, r4
 2811 000e 1D49     		ldr	r1, .L178+8
 2812 0010 FFF7FEFF 		bl	chprintf
 2813              	.LVL310:
 2814              		.loc 1 609 0
 2815 0014 26E0     		b	.L175
 2816              	.LVL311:
 2817              	.L176:
 2818              		.loc 1 610 0
 2819 0016 FFF7FEFF 		bl	chprintf
 2820              	.LVL312:
 2821              		.loc 1 611 0
 2822 001a 2046     		mov	r0, r4
 2823 001c 1949     		ldr	r1, .L178+8
 2824 001e FFF7FEFF 		bl	chprintf
 2825              	.LVL313:
 2826              		.loc 1 612 0
 2827 0022 2046     		mov	r0, r4
 2828 0024 1849     		ldr	r1, .L178+12
 2829 0026 3278     		ldrb	r2, [r6]	@ zero_extendqisi2
 2830 0028 FFF7FEFF 		bl	chprintf
 2831              	.LVL314:
 2832              		.loc 1 613 0
 2833 002c 2046     		mov	r0, r4
 2834 002e 1749     		ldr	r1, .L178+16
 2835 0030 2A6D     		ldr	r2, [r5, #80]
 2836 0032 FFF7FEFF 		bl	chprintf
 2837              	.LVL315:
 2838              		.loc 1 614 0
 2839 0036 2046     		mov	r0, r4
 2840 0038 1549     		ldr	r1, .L178+20
 2841 003a EA6B     		ldr	r2, [r5, #60]
 2842 003c FFF7FEFF 		bl	chprintf
 2843              	.LVL316:
 2844              		.loc 1 615 0
 2845 0040 2046     		mov	r0, r4
 2846 0042 1449     		ldr	r1, .L178+24
 2847 0044 2A6B     		ldr	r2, [r5, #48]
 2848 0046 FFF7FEFF 		bl	chprintf
 2849              	.LVL317:
 2850              		.loc 1 616 0
ARM GAS  C:\Users\srich\AppData\Local\Temp\ccv3JVxh.s 			page 51


 2851 004a 2046     		mov	r0, r4
 2852 004c 1249     		ldr	r1, .L178+28
 2853 004e AA6A     		ldr	r2, [r5, #40]
 2854 0050 FFF7FEFF 		bl	chprintf
 2855              	.LVL318:
 2856              		.loc 1 618 0
 2857 0054 2046     		mov	r0, r4
 2858 0056 6A69     		ldr	r2, [r5, #20]
 2859 0058 1049     		ldr	r1, .L178+32
 2860 005a FFF7FEFF 		bl	chprintf
 2861              	.LVL319:
 2862              		.loc 1 623 0
 2863 005e 3220     		movs	r0, #50
 2864 0060 FFF7FEFF 		bl	chThdSleep
 2865              	.LVL320:
 2866              	.L175:
 2867              		.loc 1 609 0
 2868 0064 2368     		ldr	r3, [r4]
 2869              		.loc 1 613 0
 2870 0066 0E4D     		ldr	r5, .L178+36
 2871              		.loc 1 609 0
 2872 0068 5B69     		ldr	r3, [r3, #20]
 2873 006a 0021     		movs	r1, #0
 2874 006c 2046     		mov	r0, r4
 2875 006e 9847     		blx	r3
 2876              	.LVL321:
 2877 0070 0130     		adds	r0, r0, #1
 2878              		.loc 1 610 0
 2879 0072 0249     		ldr	r1, .L178
 2880 0074 2046     		mov	r0, r4
 2881              		.loc 1 609 0
 2882 0076 CED0     		beq	.L176
 2883              	.LVL322:
 2884              		.loc 1 625 0
 2885 0078 70BD     		pop	{r4, r5, r6, pc}
 2886              	.L179:
 2887 007a 00BF     		.align	2
 2888              	.L178:
 2889 007c 18000000 		.word	.LC2
 2890 0080 00000000 		.word	.LANCHOR0
 2891 0084 1C000000 		.word	.LC3
 2892 0088 24000000 		.word	.LC4
 2893 008c 38000000 		.word	.LC5
 2894 0090 44000000 		.word	.LC6
 2895 0094 54000000 		.word	.LC7
 2896 0098 64000000 		.word	.LC8
 2897 009c 74000000 		.word	.LC9
 2898 00a0 00000000 		.word	.LANCHOR1
 2899              		.cfi_endproc
 2900              	.LFE138:
 2901              		.size	cmd_dspvalues, .-cmd_dspvalues
 2902              		.global	pos
 2903              		.section	.bss.bus_status,"aw",%nobits
 2904              		.set	.LANCHOR0,. + 0
 2905              		.type	bus_status, %object
 2906              		.size	bus_status, 1
 2907              	bus_status:
ARM GAS  C:\Users\srich\AppData\Local\Temp\ccv3JVxh.s 			page 52


 2908 0000 00       		.space	1
 2909              		.section	.bss.blinker,"aw",%nobits
 2910              		.set	.LANCHOR3,. + 0
 2911              		.type	blinker, %object
 2912              		.size	blinker, 1
 2913              	blinker:
 2914 0000 00       		.space	1
 2915              		.section	.bss.waDSPThread,"aw",%nobits
 2916              		.align	3
 2917              		.set	.LANCHOR8,. + 0
 2918              		.type	waDSPThread, %object
 2919              		.size	waDSPThread, 1232
 2920              	waDSPThread:
 2921 0000 00000000 		.space	1232
 2921      00000000 
 2921      00000000 
 2921      00000000 
 2921      00000000 
 2922              		.section	.data.TPBlinker,"aw",%progbits
 2923              		.set	.LANCHOR4,. + 0
 2924              		.type	TPBlinker, %object
 2925              		.size	TPBlinker, 1
 2926              	TPBlinker:
 2927 0000 02       		.byte	2
 2928              		.section	.rodata.str1.4,"aMS",%progbits,1
 2929              		.align	2
 2930              	.LC0:
 2931 0000 64737072 		.ascii	"dspreader\000"
 2931      65616465 
 2931      7200
 2932 000a 0000     		.space	2
 2933              	.LC1:
 2934 000c 64737074 		.ascii	"dspthread\000"
 2934      68726561 
 2934      6400
 2935 0016 0000     		.space	2
 2936              	.LC2:
 2937 0018 1B6300   		.ascii	"\033c\000"
 2938 001b 00       		.space	1
 2939              	.LC3:
 2940 001c 1B5B324A 		.ascii	"\033[2J\000"
 2940      00
 2941 0021 000000   		.space	3
 2942              	.LC4:
 2943 0024 6275735F 		.ascii	"bus_read 0x%02x\015\012\000"
 2943      72656164 
 2943      20307825 
 2943      3032780D 
 2943      0A00
 2944 0036 0000     		.space	2
 2945              	.LC5:
 2946 0038 6D657465 		.ascii	"meter %d\015\012\000"
 2946      72202564 
 2946      0D0A00
 2947 0043 00       		.space	1
 2948              	.LC6:
 2949 0044 4D65726C 		.ascii	"Merlegwatt %d\015\012\000"
ARM GAS  C:\Users\srich\AppData\Local\Temp\ccv3JVxh.s 			page 53


 2949      65677761 
 2949      74742025 
 2949      640D0A00 
 2950              	.LC7:
 2951 0054 4D6F746F 		.ascii	"Motorwatt %d\015\012\000"
 2951      72776174 
 2951      74202564 
 2951      0D0A00
 2952 0063 00       		.space	1
 2953              	.LC8:
 2954 0064 4D65726C 		.ascii	"Merleggraf %d\015\012\000"
 2954      65676772 
 2954      61662025 
 2954      640D0A00 
 2955              	.LC9:
 2956 0074 54697265 		.ascii	"TirePressure %d\015\012\000"
 2956      50726573 
 2956      73757265 
 2956      2025640D 
 2956      0A00
 2957              		.section	.bss.waDSPReader,"aw",%nobits
 2958              		.align	3
 2959              		.set	.LANCHOR7,. + 0
 2960              		.type	waDSPReader, %object
 2961              		.size	waDSPReader, 1232
 2962              	waDSPReader:
 2963 0000 00000000 		.space	1232
 2963      00000000 
 2963      00000000 
 2963      00000000 
 2963      00000000 
 2964              		.section	.data.NewValues,"aw",%progbits
 2965              		.align	2
 2966              		.set	.LANCHOR1,. + 0
 2967              		.type	NewValues, %object
 2968              		.size	NewValues, 100
 2969              	NewValues:
 2970 0000 FFFFFFFF 		.word	-1
 2971 0004 00000000 		.space	96
 2971      00000000 
 2971      00000000 
 2971      00000000 
 2971      00000000 
 2972              		.section	.bss.MerlegPower,"aw",%nobits
 2973              		.align	2
 2974              		.set	.LANCHOR5,. + 0
 2975              		.type	MerlegPower, %object
 2976              		.size	MerlegPower, 4
 2977              	MerlegPower:
 2978 0000 00000000 		.space	4
 2979              		.section	.data.OldValues,"aw",%progbits
 2980              		.align	2
 2981              		.set	.LANCHOR6,. + 0
 2982              		.type	OldValues, %object
 2983              		.size	OldValues, 100
 2984              	OldValues:
 2985 0000 FFFFFFFF 		.word	-1
ARM GAS  C:\Users\srich\AppData\Local\Temp\ccv3JVxh.s 			page 54


 2986 0004 00000000 		.space	96
 2986      00000000 
 2986      00000000 
 2986      00000000 
 2986      00000000 
 2987              		.section	.bss.pos,"aw",%nobits
 2988              		.align	3
 2989              		.set	.LANCHOR2,. + 0
 2990              		.type	pos, %object
 2991              		.size	pos, 72
 2992              	pos:
 2993 0000 00000000 		.space	72
 2993      00000000 
 2993      00000000 
 2993      00000000 
 2993      00000000 
 2994              		.text
 2995              	.Letext0:
 2996              		.file 3 "c:\\chibistudio\\tools\\gnu tools arm embedded\\4.9 2015q3\\lib\\gcc\\arm-none-eabi\\4.9.
 2997              		.file 4 "c:\\chibistudio\\tools\\gnu tools arm embedded\\4.9 2015q3\\arm-none-eabi\\include\\machi
 2998              		.file 5 "c:\\chibistudio\\tools\\gnu tools arm embedded\\4.9 2015q3\\arm-none-eabi\\include\\sys\\
 2999              		.file 6 "../../../ChibiOS/os/ports/GCC/ARMCMx/chtypes.h"
 3000              		.file 7 "../../../ChibiOS/os/kernel/include/chlists.h"
 3001              		.file 8 "../../../ChibiOS/os/kernel/include/chthreads.h"
 3002              		.file 9 "../../../ChibiOS/os/ports/GCC/ARMCMx/chcore_v7m.h"
 3003              		.file 10 "../../../ChibiOS/os/kernel/include/chvt.h"
 3004              		.file 11 "../../../ChibiOS/os/kernel/include/chschd.h"
 3005              		.file 12 "../../../ChibiOS/os/kernel/include/chmtx.h"
 3006              		.file 13 "../../../ChibiOS/os/kernel/include/chstreams.h"
 3007              		.file 14 "../../../ChibiOS/os/hal/include/io_channel.h"
 3008              		.file 15 "include/meas.h"
 3009              		.file 16 "include/dsp.h"
 3010              		.file 17 "c:\\chibistudio\\tools\\gnu tools arm embedded\\4.9 2015q3\\lib\\gcc\\arm-none-eabi\\4.9
 3011              		.file 18 "<built-in>"
 3012              		.file 19 "c:\\chibistudio\\tools\\gnu tools arm embedded\\4.9 2015q3\\arm-none-eabi\\include\\sys\
 3013              		.file 20 "include/can_items.h"
 3014              		.file 21 "include/calc.h"
 3015              		.file 22 "include/nmea.h"
 3016              		.file 23 "../../../ChibiOS/os/ports/common/ARMCMx/CMSIS/include/core_cm4.h"
 3017              		.file 24 "include/can_comm.h"
 3018              		.file 25 "include/gfx.h"
 3019              		.file 26 "include/light.h"
 3020              		.file 27 "include/cruise.h"
 3021              		.section	.debug_info,"",%progbits
 3022              	.Ldebug_info0:
 3023 0000 E92C0000 		.4byte	0x2ce9
 3024 0004 0400     		.2byte	0x4
 3025 0006 00000000 		.4byte	.Ldebug_abbrev0
 3026 000a 04       		.byte	0x4
 3027 000b 01       		.uleb128 0x1
 3028 000c 4E060000 		.4byte	.LASF252
 3029 0010 01       		.byte	0x1
 3030 0011 61010000 		.4byte	.LASF253
 3031 0015 67020000 		.4byte	.LASF254
 3032 0019 80000000 		.4byte	.Ldebug_ranges0+0x80
 3033 001d 00000000 		.4byte	0
 3034 0021 00000000 		.4byte	.Ldebug_line0
ARM GAS  C:\Users\srich\AppData\Local\Temp\ccv3JVxh.s 			page 55


 3035 0025 02       		.uleb128 0x2
 3036 0026 08       		.byte	0x8
 3037 0027 07       		.byte	0x7
 3038 0028 2D020000 		.4byte	.LASF0
 3039 002c 02       		.uleb128 0x2
 3040 002d 04       		.byte	0x4
 3041 002e 07       		.byte	0x7
 3042 002f B7000000 		.4byte	.LASF1
 3043 0033 03       		.uleb128 0x3
 3044 0034 04       		.byte	0x4
 3045 0035 05       		.byte	0x5
 3046 0036 696E7400 		.ascii	"int\000"
 3047 003a 04       		.uleb128 0x4
 3048 003b 59030000 		.4byte	.LASF2
 3049 003f 03       		.byte	0x3
 3050 0040 D4       		.byte	0xd4
 3051 0041 2C000000 		.4byte	0x2c
 3052 0045 04       		.uleb128 0x4
 3053 0046 AC070000 		.4byte	.LASF3
 3054 004a 04       		.byte	0x4
 3055 004b 1B       		.byte	0x1b
 3056 004c 50000000 		.4byte	0x50
 3057 0050 02       		.uleb128 0x2
 3058 0051 01       		.byte	0x1
 3059 0052 06       		.byte	0x6
 3060 0053 540B0000 		.4byte	.LASF4
 3061 0057 04       		.uleb128 0x4
 3062 0058 A3090000 		.4byte	.LASF5
 3063 005c 04       		.byte	0x4
 3064 005d 1D       		.byte	0x1d
 3065 005e 62000000 		.4byte	0x62
 3066 0062 02       		.uleb128 0x2
 3067 0063 01       		.byte	0x1
 3068 0064 08       		.byte	0x8
 3069 0065 580A0000 		.4byte	.LASF6
 3070 0069 04       		.uleb128 0x4
 3071 006a 25060000 		.4byte	.LASF7
 3072 006e 04       		.byte	0x4
 3073 006f 29       		.byte	0x29
 3074 0070 74000000 		.4byte	0x74
 3075 0074 02       		.uleb128 0x2
 3076 0075 02       		.byte	0x2
 3077 0076 05       		.byte	0x5
 3078 0077 94080000 		.4byte	.LASF8
 3079 007b 04       		.uleb128 0x4
 3080 007c D9020000 		.4byte	.LASF9
 3081 0080 04       		.byte	0x4
 3082 0081 2B       		.byte	0x2b
 3083 0082 86000000 		.4byte	0x86
 3084 0086 02       		.uleb128 0x2
 3085 0087 02       		.byte	0x2
 3086 0088 07       		.byte	0x7
 3087 0089 E9070000 		.4byte	.LASF10
 3088 008d 04       		.uleb128 0x4
 3089 008e 0C010000 		.4byte	.LASF11
 3090 0092 04       		.byte	0x4
 3091 0093 3F       		.byte	0x3f
ARM GAS  C:\Users\srich\AppData\Local\Temp\ccv3JVxh.s 			page 56


 3092 0094 98000000 		.4byte	0x98
 3093 0098 02       		.uleb128 0x2
 3094 0099 04       		.byte	0x4
 3095 009a 05       		.byte	0x5
 3096 009b D3080000 		.4byte	.LASF12
 3097 009f 04       		.uleb128 0x4
 3098 00a0 660A0000 		.4byte	.LASF13
 3099 00a4 04       		.byte	0x4
 3100 00a5 41       		.byte	0x41
 3101 00a6 AA000000 		.4byte	0xaa
 3102 00aa 02       		.uleb128 0x2
 3103 00ab 04       		.byte	0x4
 3104 00ac 07       		.byte	0x7
 3105 00ad 080A0000 		.4byte	.LASF14
 3106 00b1 02       		.uleb128 0x2
 3107 00b2 08       		.byte	0x8
 3108 00b3 05       		.byte	0x5
 3109 00b4 9A050000 		.4byte	.LASF15
 3110 00b8 04       		.uleb128 0x4
 3111 00b9 FE030000 		.4byte	.LASF16
 3112 00bd 04       		.byte	0x4
 3113 00be 5B       		.byte	0x5b
 3114 00bf 25000000 		.4byte	0x25
 3115 00c3 04       		.uleb128 0x4
 3116 00c4 EC010000 		.4byte	.LASF17
 3117 00c8 05       		.byte	0x5
 3118 00c9 13       		.byte	0x13
 3119 00ca 45000000 		.4byte	0x45
 3120 00ce 04       		.uleb128 0x4
 3121 00cf 24050000 		.4byte	.LASF18
 3122 00d3 05       		.byte	0x5
 3123 00d4 14       		.byte	0x14
 3124 00d5 57000000 		.4byte	0x57
 3125 00d9 04       		.uleb128 0x4
 3126 00da 0C090000 		.4byte	.LASF19
 3127 00de 05       		.byte	0x5
 3128 00df 19       		.byte	0x19
 3129 00e0 69000000 		.4byte	0x69
 3130 00e4 04       		.uleb128 0x4
 3131 00e5 17080000 		.4byte	.LASF20
 3132 00e9 05       		.byte	0x5
 3133 00ea 1A       		.byte	0x1a
 3134 00eb 7B000000 		.4byte	0x7b
 3135 00ef 04       		.uleb128 0x4
 3136 00f0 3C0A0000 		.4byte	.LASF21
 3137 00f4 05       		.byte	0x5
 3138 00f5 1F       		.byte	0x1f
 3139 00f6 8D000000 		.4byte	0x8d
 3140 00fa 04       		.uleb128 0x4
 3141 00fb E3010000 		.4byte	.LASF22
 3142 00ff 05       		.byte	0x5
 3143 0100 20       		.byte	0x20
 3144 0101 9F000000 		.4byte	0x9f
 3145 0105 04       		.uleb128 0x4
 3146 0106 67090000 		.4byte	.LASF23
 3147 010a 05       		.byte	0x5
 3148 010b 26       		.byte	0x26
ARM GAS  C:\Users\srich\AppData\Local\Temp\ccv3JVxh.s 			page 57


 3149 010c B8000000 		.4byte	0xb8
 3150 0110 04       		.uleb128 0x4
 3151 0111 2F060000 		.4byte	.LASF24
 3152 0115 06       		.byte	0x6
 3153 0116 2B       		.byte	0x2b
 3154 0117 1B010000 		.4byte	0x11b
 3155 011b 02       		.uleb128 0x2
 3156 011c 01       		.byte	0x1
 3157 011d 02       		.byte	0x2
 3158 011e C0030000 		.4byte	.LASF25
 3159 0122 04       		.uleb128 0x4
 3160 0123 B5070000 		.4byte	.LASF26
 3161 0127 06       		.byte	0x6
 3162 0128 2C       		.byte	0x2c
 3163 0129 CE000000 		.4byte	0xce
 3164 012d 04       		.uleb128 0x4
 3165 012e 440A0000 		.4byte	.LASF27
 3166 0132 06       		.byte	0x6
 3167 0133 2D       		.byte	0x2d
 3168 0134 CE000000 		.4byte	0xce
 3169 0138 04       		.uleb128 0x4
 3170 0139 F5090000 		.4byte	.LASF28
 3171 013d 06       		.byte	0x6
 3172 013e 2E       		.byte	0x2e
 3173 013f CE000000 		.4byte	0xce
 3174 0143 04       		.uleb128 0x4
 3175 0144 4D070000 		.4byte	.LASF29
 3176 0148 06       		.byte	0x6
 3177 0149 2F       		.byte	0x2f
 3178 014a CE000000 		.4byte	0xce
 3179 014e 04       		.uleb128 0x4
 3180 014f 25020000 		.4byte	.LASF30
 3181 0153 06       		.byte	0x6
 3182 0154 30       		.byte	0x30
 3183 0155 FA000000 		.4byte	0xfa
 3184 0159 04       		.uleb128 0x4
 3185 015a C3050000 		.4byte	.LASF31
 3186 015e 06       		.byte	0x6
 3187 015f 31       		.byte	0x31
 3188 0160 EF000000 		.4byte	0xef
 3189 0164 04       		.uleb128 0x4
 3190 0165 FF010000 		.4byte	.LASF32
 3191 0169 06       		.byte	0x6
 3192 016a 33       		.byte	0x33
 3193 016b FA000000 		.4byte	0xfa
 3194 016f 04       		.uleb128 0x4
 3195 0170 82000000 		.4byte	.LASF33
 3196 0174 06       		.byte	0x6
 3197 0175 35       		.byte	0x35
 3198 0176 FA000000 		.4byte	0xfa
 3199 017a 04       		.uleb128 0x4
 3200 017b AB040000 		.4byte	.LASF34
 3201 017f 07       		.byte	0x7
 3202 0180 2A       		.byte	0x2a
 3203 0181 85010000 		.4byte	0x185
 3204 0185 05       		.uleb128 0x5
 3205 0186 AB040000 		.4byte	.LASF34
ARM GAS  C:\Users\srich\AppData\Local\Temp\ccv3JVxh.s 			page 58


 3206 018a 48       		.byte	0x48
 3207 018b 08       		.byte	0x8
 3208 018c 5E       		.byte	0x5e
 3209 018d 82020000 		.4byte	0x282
 3210 0191 06       		.uleb128 0x6
 3211 0192 56090000 		.4byte	.LASF35
 3212 0196 08       		.byte	0x8
 3213 0197 5F       		.byte	0x5f
 3214 0198 A3020000 		.4byte	0x2a3
 3215 019c 00       		.byte	0
 3216 019d 06       		.uleb128 0x6
 3217 019e E5090000 		.4byte	.LASF36
 3218 01a2 08       		.byte	0x8
 3219 01a3 61       		.byte	0x61
 3220 01a4 A3020000 		.4byte	0x2a3
 3221 01a8 04       		.byte	0x4
 3222 01a9 06       		.uleb128 0x6
 3223 01aa 4F000000 		.4byte	.LASF37
 3224 01ae 08       		.byte	0x8
 3225 01af 63       		.byte	0x63
 3226 01b0 4E010000 		.4byte	0x14e
 3227 01b4 08       		.byte	0x8
 3228 01b5 06       		.uleb128 0x6
 3229 01b6 70090000 		.4byte	.LASF38
 3230 01ba 08       		.byte	0x8
 3231 01bb 64       		.byte	0x64
 3232 01bc 68030000 		.4byte	0x368
 3233 01c0 0C       		.byte	0xc
 3234 01c1 06       		.uleb128 0x6
 3235 01c2 1B030000 		.4byte	.LASF39
 3236 01c6 08       		.byte	0x8
 3237 01c7 66       		.byte	0x66
 3238 01c8 A3020000 		.4byte	0x2a3
 3239 01cc 10       		.byte	0x10
 3240 01cd 06       		.uleb128 0x6
 3241 01ce F4040000 		.4byte	.LASF40
 3242 01d2 08       		.byte	0x8
 3243 01d3 67       		.byte	0x67
 3244 01d4 A3020000 		.4byte	0x2a3
 3245 01d8 14       		.byte	0x14
 3246 01d9 06       		.uleb128 0x6
 3247 01da 5A040000 		.4byte	.LASF41
 3248 01de 08       		.byte	0x8
 3249 01df 6E       		.byte	0x6e
 3250 01e0 22050000 		.4byte	0x522
 3251 01e4 18       		.byte	0x18
 3252 01e5 06       		.uleb128 0x6
 3253 01e6 7C050000 		.4byte	.LASF42
 3254 01ea 08       		.byte	0x8
 3255 01eb 79       		.byte	0x79
 3256 01ec 2D010000 		.4byte	0x12d
 3257 01f0 1C       		.byte	0x1c
 3258 01f1 06       		.uleb128 0x6
 3259 01f2 1D060000 		.4byte	.LASF43
 3260 01f6 08       		.byte	0x8
 3261 01f7 7D       		.byte	0x7d
 3262 01f8 22010000 		.4byte	0x122
ARM GAS  C:\Users\srich\AppData\Local\Temp\ccv3JVxh.s 			page 59


 3263 01fc 1D       		.byte	0x1d
 3264 01fd 06       		.uleb128 0x6
 3265 01fe 7E0A0000 		.4byte	.LASF44
 3266 0202 08       		.byte	0x8
 3267 0203 82       		.byte	0x82
 3268 0204 38010000 		.4byte	0x138
 3269 0208 1E       		.byte	0x1e
 3270 0209 06       		.uleb128 0x6
 3271 020a C50A0000 		.4byte	.LASF45
 3272 020e 08       		.byte	0x8
 3273 020f 88       		.byte	0x88
 3274 0210 43010000 		.4byte	0x143
 3275 0214 1F       		.byte	0x1f
 3276 0215 06       		.uleb128 0x6
 3277 0216 35000000 		.4byte	.LASF46
 3278 021a 08       		.byte	0x8
 3279 021b 8F       		.byte	0x8f
 3280 021c 3F040000 		.4byte	0x43f
 3281 0220 20       		.byte	0x20
 3282 0221 07       		.uleb128 0x7
 3283 0222 705F7500 		.ascii	"p_u\000"
 3284 0226 08       		.byte	0x8
 3285 0227 B4       		.byte	0xb4
 3286 0228 ED040000 		.4byte	0x4ed
 3287 022c 24       		.byte	0x24
 3288 022d 06       		.uleb128 0x6
 3289 022e 02010000 		.4byte	.LASF47
 3290 0232 08       		.byte	0x8
 3291 0233 B9       		.byte	0xb9
 3292 0234 C9020000 		.4byte	0x2c9
 3293 0238 28       		.byte	0x28
 3294 0239 06       		.uleb128 0x6
 3295 023a AC000000 		.4byte	.LASF48
 3296 023e 08       		.byte	0x8
 3297 023f BF       		.byte	0xbf
 3298 0240 A9020000 		.4byte	0x2a9
 3299 0244 2C       		.byte	0x2c
 3300 0245 06       		.uleb128 0x6
 3301 0246 A6070000 		.4byte	.LASF49
 3302 024a 08       		.byte	0x8
 3303 024b C3       		.byte	0xc3
 3304 024c 59010000 		.4byte	0x159
 3305 0250 34       		.byte	0x34
 3306 0251 06       		.uleb128 0x6
 3307 0252 A8080000 		.4byte	.LASF50
 3308 0256 08       		.byte	0x8
 3309 0257 C9       		.byte	0xc9
 3310 0258 64010000 		.4byte	0x164
 3311 025c 38       		.byte	0x38
 3312 025d 06       		.uleb128 0x6
 3313 025e 72050000 		.4byte	.LASF51
 3314 0262 08       		.byte	0x8
 3315 0263 D0       		.byte	0xd0
 3316 0264 34050000 		.4byte	0x534
 3317 0268 3C       		.byte	0x3c
 3318 0269 06       		.uleb128 0x6
 3319 026a DE070000 		.4byte	.LASF52
ARM GAS  C:\Users\srich\AppData\Local\Temp\ccv3JVxh.s 			page 60


 3320 026e 08       		.byte	0x8
 3321 026f D4       		.byte	0xd4
 3322 0270 4E010000 		.4byte	0x14e
 3323 0274 40       		.byte	0x40
 3324 0275 06       		.uleb128 0x6
 3325 0276 62050000 		.4byte	.LASF53
 3326 027a 08       		.byte	0x8
 3327 027b DA       		.byte	0xda
 3328 027c DF020000 		.4byte	0x2df
 3329 0280 44       		.byte	0x44
 3330 0281 00       		.byte	0
 3331 0282 08       		.uleb128 0x8
 3332 0283 08       		.byte	0x8
 3333 0284 07       		.byte	0x7
 3334 0285 61       		.byte	0x61
 3335 0286 A3020000 		.4byte	0x2a3
 3336 028a 06       		.uleb128 0x6
 3337 028b 56090000 		.4byte	.LASF35
 3338 028f 07       		.byte	0x7
 3339 0290 62       		.byte	0x62
 3340 0291 A3020000 		.4byte	0x2a3
 3341 0295 00       		.byte	0
 3342 0296 06       		.uleb128 0x6
 3343 0297 E5090000 		.4byte	.LASF36
 3344 029b 07       		.byte	0x7
 3345 029c 64       		.byte	0x64
 3346 029d A3020000 		.4byte	0x2a3
 3347 02a1 04       		.byte	0x4
 3348 02a2 00       		.byte	0
 3349 02a3 09       		.uleb128 0x9
 3350 02a4 04       		.byte	0x4
 3351 02a5 7A010000 		.4byte	0x17a
 3352 02a9 04       		.uleb128 0x4
 3353 02aa 76040000 		.4byte	.LASF54
 3354 02ae 07       		.byte	0x7
 3355 02af 66       		.byte	0x66
 3356 02b0 82020000 		.4byte	0x282
 3357 02b4 08       		.uleb128 0x8
 3358 02b5 04       		.byte	0x4
 3359 02b6 07       		.byte	0x7
 3360 02b7 6B       		.byte	0x6b
 3361 02b8 C9020000 		.4byte	0x2c9
 3362 02bc 06       		.uleb128 0x6
 3363 02bd 56090000 		.4byte	.LASF35
 3364 02c1 07       		.byte	0x7
 3365 02c2 6D       		.byte	0x6d
 3366 02c3 A3020000 		.4byte	0x2a3
 3367 02c7 00       		.byte	0
 3368 02c8 00       		.byte	0
 3369 02c9 04       		.uleb128 0x4
 3370 02ca 16000000 		.4byte	.LASF55
 3371 02ce 07       		.byte	0x7
 3372 02cf 70       		.byte	0x70
 3373 02d0 B4020000 		.4byte	0x2b4
 3374 02d4 04       		.uleb128 0x4
 3375 02d5 46000000 		.4byte	.LASF56
 3376 02d9 09       		.byte	0x9
ARM GAS  C:\Users\srich\AppData\Local\Temp\ccv3JVxh.s 			page 61


 3377 02da E5       		.byte	0xe5
 3378 02db DF020000 		.4byte	0x2df
 3379 02df 0A       		.uleb128 0xa
 3380 02e0 04       		.byte	0x4
 3381 02e1 04       		.uleb128 0x4
 3382 02e2 CF0A0000 		.4byte	.LASF57
 3383 02e6 09       		.byte	0x9
 3384 02e7 EB       		.byte	0xeb
 3385 02e8 05010000 		.4byte	0x105
 3386 02ec 0B       		.uleb128 0xb
 3387 02ed 2E080000 		.4byte	.LASF58
 3388 02f1 24       		.byte	0x24
 3389 02f2 09       		.byte	0x9
 3390 02f3 0C01     		.2byte	0x10c
 3391 02f5 68030000 		.4byte	0x368
 3392 02f9 0C       		.uleb128 0xc
 3393 02fa 723400   		.ascii	"r4\000"
 3394 02fd 09       		.byte	0x9
 3395 02fe 1F01     		.2byte	0x11f
 3396 0300 D4020000 		.4byte	0x2d4
 3397 0304 00       		.byte	0
 3398 0305 0C       		.uleb128 0xc
 3399 0306 723500   		.ascii	"r5\000"
 3400 0309 09       		.byte	0x9
 3401 030a 2001     		.2byte	0x120
 3402 030c D4020000 		.4byte	0x2d4
 3403 0310 04       		.byte	0x4
 3404 0311 0C       		.uleb128 0xc
 3405 0312 723600   		.ascii	"r6\000"
 3406 0315 09       		.byte	0x9
 3407 0316 2101     		.2byte	0x121
 3408 0318 D4020000 		.4byte	0x2d4
 3409 031c 08       		.byte	0x8
 3410 031d 0C       		.uleb128 0xc
 3411 031e 723700   		.ascii	"r7\000"
 3412 0321 09       		.byte	0x9
 3413 0322 2201     		.2byte	0x122
 3414 0324 D4020000 		.4byte	0x2d4
 3415 0328 0C       		.byte	0xc
 3416 0329 0C       		.uleb128 0xc
 3417 032a 723800   		.ascii	"r8\000"
 3418 032d 09       		.byte	0x9
 3419 032e 2301     		.2byte	0x123
 3420 0330 D4020000 		.4byte	0x2d4
 3421 0334 10       		.byte	0x10
 3422 0335 0C       		.uleb128 0xc
 3423 0336 723900   		.ascii	"r9\000"
 3424 0339 09       		.byte	0x9
 3425 033a 2401     		.2byte	0x124
 3426 033c D4020000 		.4byte	0x2d4
 3427 0340 14       		.byte	0x14
 3428 0341 0C       		.uleb128 0xc
 3429 0342 72313000 		.ascii	"r10\000"
 3430 0346 09       		.byte	0x9
 3431 0347 2501     		.2byte	0x125
 3432 0349 D4020000 		.4byte	0x2d4
 3433 034d 18       		.byte	0x18
ARM GAS  C:\Users\srich\AppData\Local\Temp\ccv3JVxh.s 			page 62


 3434 034e 0C       		.uleb128 0xc
 3435 034f 72313100 		.ascii	"r11\000"
 3436 0353 09       		.byte	0x9
 3437 0354 2601     		.2byte	0x126
 3438 0356 D4020000 		.4byte	0x2d4
 3439 035a 1C       		.byte	0x1c
 3440 035b 0C       		.uleb128 0xc
 3441 035c 6C7200   		.ascii	"lr\000"
 3442 035f 09       		.byte	0x9
 3443 0360 2701     		.2byte	0x127
 3444 0362 D4020000 		.4byte	0x2d4
 3445 0366 20       		.byte	0x20
 3446 0367 00       		.byte	0
 3447 0368 0B       		.uleb128 0xb
 3448 0369 F3050000 		.4byte	.LASF59
 3449 036d 04       		.byte	0x4
 3450 036e 09       		.byte	0x9
 3451 036f 3101     		.2byte	0x131
 3452 0371 83030000 		.4byte	0x383
 3453 0375 0C       		.uleb128 0xc
 3454 0376 72313300 		.ascii	"r13\000"
 3455 037a 09       		.byte	0x9
 3456 037b 3201     		.2byte	0x132
 3457 037d 83030000 		.4byte	0x383
 3458 0381 00       		.byte	0
 3459 0382 00       		.byte	0
 3460 0383 09       		.uleb128 0x9
 3461 0384 04       		.byte	0x4
 3462 0385 EC020000 		.4byte	0x2ec
 3463 0389 02       		.uleb128 0x2
 3464 038a 04       		.byte	0x4
 3465 038b 07       		.byte	0x7
 3466 038c EC090000 		.4byte	.LASF60
 3467 0390 04       		.uleb128 0x4
 3468 0391 22000000 		.4byte	.LASF61
 3469 0395 0A       		.byte	0xa
 3470 0396 58       		.byte	0x58
 3471 0397 9B030000 		.4byte	0x39b
 3472 039b 09       		.uleb128 0x9
 3473 039c 04       		.byte	0x4
 3474 039d A1030000 		.4byte	0x3a1
 3475 03a1 0D       		.uleb128 0xd
 3476 03a2 AC030000 		.4byte	0x3ac
 3477 03a6 0E       		.uleb128 0xe
 3478 03a7 DF020000 		.4byte	0x2df
 3479 03ab 00       		.byte	0
 3480 03ac 04       		.uleb128 0x4
 3481 03ad 96090000 		.4byte	.LASF62
 3482 03b1 0A       		.byte	0xa
 3483 03b2 5D       		.byte	0x5d
 3484 03b3 B7030000 		.4byte	0x3b7
 3485 03b7 05       		.uleb128 0x5
 3486 03b8 96090000 		.4byte	.LASF62
 3487 03bc 14       		.byte	0x14
 3488 03bd 0A       		.byte	0xa
 3489 03be 64       		.byte	0x64
 3490 03bf 00040000 		.4byte	0x400
ARM GAS  C:\Users\srich\AppData\Local\Temp\ccv3JVxh.s 			page 63


 3491 03c3 06       		.uleb128 0x6
 3492 03c4 E50A0000 		.4byte	.LASF63
 3493 03c8 0A       		.byte	0xa
 3494 03c9 65       		.byte	0x65
 3495 03ca 00040000 		.4byte	0x400
 3496 03ce 00       		.byte	0
 3497 03cf 06       		.uleb128 0x6
 3498 03d0 B50B0000 		.4byte	.LASF64
 3499 03d4 0A       		.byte	0xa
 3500 03d5 67       		.byte	0x67
 3501 03d6 00040000 		.4byte	0x400
 3502 03da 04       		.byte	0x4
 3503 03db 06       		.uleb128 0x6
 3504 03dc DB010000 		.4byte	.LASF65
 3505 03e0 0A       		.byte	0xa
 3506 03e1 69       		.byte	0x69
 3507 03e2 6F010000 		.4byte	0x16f
 3508 03e6 08       		.byte	0x8
 3509 03e7 06       		.uleb128 0x6
 3510 03e8 A60B0000 		.4byte	.LASF66
 3511 03ec 0A       		.byte	0xa
 3512 03ed 6A       		.byte	0x6a
 3513 03ee 90030000 		.4byte	0x390
 3514 03f2 0C       		.byte	0xc
 3515 03f3 06       		.uleb128 0x6
 3516 03f4 12020000 		.4byte	.LASF67
 3517 03f8 0A       		.byte	0xa
 3518 03f9 6C       		.byte	0x6c
 3519 03fa DF020000 		.4byte	0x2df
 3520 03fe 10       		.byte	0x10
 3521 03ff 00       		.byte	0
 3522 0400 09       		.uleb128 0x9
 3523 0401 04       		.byte	0x4
 3524 0402 AC030000 		.4byte	0x3ac
 3525 0406 08       		.uleb128 0x8
 3526 0407 10       		.byte	0x10
 3527 0408 0A       		.byte	0xa
 3528 0409 76       		.byte	0x76
 3529 040a 3F040000 		.4byte	0x43f
 3530 040e 06       		.uleb128 0x6
 3531 040f E50A0000 		.4byte	.LASF63
 3532 0413 0A       		.byte	0xa
 3533 0414 77       		.byte	0x77
 3534 0415 00040000 		.4byte	0x400
 3535 0419 00       		.byte	0
 3536 041a 06       		.uleb128 0x6
 3537 041b B50B0000 		.4byte	.LASF64
 3538 041f 0A       		.byte	0xa
 3539 0420 79       		.byte	0x79
 3540 0421 00040000 		.4byte	0x400
 3541 0425 04       		.byte	0x4
 3542 0426 06       		.uleb128 0x6
 3543 0427 DB010000 		.4byte	.LASF65
 3544 042b 0A       		.byte	0xa
 3545 042c 7B       		.byte	0x7b
 3546 042d 6F010000 		.4byte	0x16f
 3547 0431 08       		.byte	0x8
ARM GAS  C:\Users\srich\AppData\Local\Temp\ccv3JVxh.s 			page 64


 3548 0432 06       		.uleb128 0x6
 3549 0433 A1000000 		.4byte	.LASF68
 3550 0437 0A       		.byte	0xa
 3551 0438 7C       		.byte	0x7c
 3552 0439 3F040000 		.4byte	0x43f
 3553 043d 0C       		.byte	0xc
 3554 043e 00       		.byte	0
 3555 043f 0F       		.uleb128 0xf
 3556 0440 6F010000 		.4byte	0x16f
 3557 0444 04       		.uleb128 0x4
 3558 0445 8F090000 		.4byte	.LASF69
 3559 0449 0A       		.byte	0xa
 3560 044a 7D       		.byte	0x7d
 3561 044b 06040000 		.4byte	0x406
 3562 044f 08       		.uleb128 0x8
 3563 0450 1C       		.byte	0x1c
 3564 0451 0B       		.byte	0xb
 3565 0452 5E       		.byte	0x5e
 3566 0453 A0040000 		.4byte	0x4a0
 3567 0457 06       		.uleb128 0x6
 3568 0458 BB050000 		.4byte	.LASF70
 3569 045c 0B       		.byte	0xb
 3570 045d 5F       		.byte	0x5f
 3571 045e A9020000 		.4byte	0x2a9
 3572 0462 00       		.byte	0
 3573 0463 06       		.uleb128 0x6
 3574 0464 0B020000 		.4byte	.LASF71
 3575 0468 0B       		.byte	0xb
 3576 0469 60       		.byte	0x60
 3577 046a 4E010000 		.4byte	0x14e
 3578 046e 08       		.byte	0x8
 3579 046f 06       		.uleb128 0x6
 3580 0470 750B0000 		.4byte	.LASF72
 3581 0474 0B       		.byte	0xb
 3582 0475 62       		.byte	0x62
 3583 0476 68030000 		.4byte	0x368
 3584 047a 0C       		.byte	0xc
 3585 047b 06       		.uleb128 0x6
 3586 047c A3040000 		.4byte	.LASF73
 3587 0480 0B       		.byte	0xb
 3588 0481 65       		.byte	0x65
 3589 0482 A3020000 		.4byte	0x2a3
 3590 0486 10       		.byte	0x10
 3591 0487 06       		.uleb128 0x6
 3592 0488 57070000 		.4byte	.LASF74
 3593 048c 0B       		.byte	0xb
 3594 048d 66       		.byte	0x66
 3595 048e A3020000 		.4byte	0x2a3
 3596 0492 14       		.byte	0x14
 3597 0493 06       		.uleb128 0x6
 3598 0494 9E080000 		.4byte	.LASF75
 3599 0498 0B       		.byte	0xb
 3600 0499 69       		.byte	0x69
 3601 049a A3020000 		.4byte	0x2a3
 3602 049e 18       		.byte	0x18
 3603 049f 00       		.byte	0
 3604 04a0 04       		.uleb128 0x4
ARM GAS  C:\Users\srich\AppData\Local\Temp\ccv3JVxh.s 			page 65


 3605 04a1 850A0000 		.4byte	.LASF76
 3606 04a5 0B       		.byte	0xb
 3607 04a6 6B       		.byte	0x6b
 3608 04a7 4F040000 		.4byte	0x44f
 3609 04ab 05       		.uleb128 0x5
 3610 04ac 1D040000 		.4byte	.LASF77
 3611 04b0 10       		.byte	0x10
 3612 04b1 0C       		.byte	0xc
 3613 04b2 2C       		.byte	0x2c
 3614 04b3 DC040000 		.4byte	0x4dc
 3615 04b7 06       		.uleb128 0x6
 3616 04b8 D3010000 		.4byte	.LASF78
 3617 04bc 0C       		.byte	0xc
 3618 04bd 2D       		.byte	0x2d
 3619 04be A9020000 		.4byte	0x2a9
 3620 04c2 00       		.byte	0
 3621 04c3 06       		.uleb128 0x6
 3622 04c4 99000000 		.4byte	.LASF79
 3623 04c8 0C       		.byte	0xc
 3624 04c9 2F       		.byte	0x2f
 3625 04ca A3020000 		.4byte	0x2a3
 3626 04ce 08       		.byte	0x8
 3627 04cf 06       		.uleb128 0x6
 3628 04d0 430B0000 		.4byte	.LASF80
 3629 04d4 0C       		.byte	0xc
 3630 04d5 31       		.byte	0x31
 3631 04d6 DC040000 		.4byte	0x4dc
 3632 04da 0C       		.byte	0xc
 3633 04db 00       		.byte	0
 3634 04dc 09       		.uleb128 0x9
 3635 04dd 04       		.byte	0x4
 3636 04de AB040000 		.4byte	0x4ab
 3637 04e2 04       		.uleb128 0x4
 3638 04e3 1D040000 		.4byte	.LASF77
 3639 04e7 0C       		.byte	0xc
 3640 04e8 33       		.byte	0x33
 3641 04e9 AB040000 		.4byte	0x4ab
 3642 04ed 10       		.uleb128 0x10
 3643 04ee 04       		.byte	0x4
 3644 04ef 08       		.byte	0x8
 3645 04f0 96       		.byte	0x96
 3646 04f1 22050000 		.4byte	0x522
 3647 04f5 11       		.uleb128 0x11
 3648 04f6 60030000 		.4byte	.LASF81
 3649 04fa 08       		.byte	0x8
 3650 04fb 9D       		.byte	0x9d
 3651 04fc 59010000 		.4byte	0x159
 3652 0500 11       		.uleb128 0x11
 3653 0501 0A0C0000 		.4byte	.LASF82
 3654 0505 08       		.byte	0x8
 3655 0506 A4       		.byte	0xa4
 3656 0507 59010000 		.4byte	0x159
 3657 050b 11       		.uleb128 0x11
 3658 050c 6B010000 		.4byte	.LASF83
 3659 0510 08       		.byte	0x8
 3660 0511 AB       		.byte	0xab
 3661 0512 DF020000 		.4byte	0x2df
ARM GAS  C:\Users\srich\AppData\Local\Temp\ccv3JVxh.s 			page 66


 3662 0516 11       		.uleb128 0x11
 3663 0517 A3010000 		.4byte	.LASF84
 3664 051b 08       		.byte	0x8
 3665 051c B2       		.byte	0xb2
 3666 051d 64010000 		.4byte	0x164
 3667 0521 00       		.byte	0
 3668 0522 09       		.uleb128 0x9
 3669 0523 04       		.byte	0x4
 3670 0524 28050000 		.4byte	0x528
 3671 0528 12       		.uleb128 0x12
 3672 0529 2D050000 		.4byte	0x52d
 3673 052d 02       		.uleb128 0x2
 3674 052e 01       		.byte	0x1
 3675 052f 08       		.byte	0x8
 3676 0530 83040000 		.4byte	.LASF85
 3677 0534 09       		.uleb128 0x9
 3678 0535 04       		.byte	0x4
 3679 0536 E2040000 		.4byte	0x4e2
 3680 053a 04       		.uleb128 0x4
 3681 053b 44020000 		.4byte	.LASF86
 3682 053f 08       		.byte	0x8
 3683 0540 E5       		.byte	0xe5
 3684 0541 45050000 		.4byte	0x545
 3685 0545 09       		.uleb128 0x9
 3686 0546 04       		.byte	0x4
 3687 0547 4B050000 		.4byte	0x54b
 3688 054b 13       		.uleb128 0x13
 3689 054c 59010000 		.4byte	0x159
 3690 0550 5A050000 		.4byte	0x55a
 3691 0554 0E       		.uleb128 0xe
 3692 0555 DF020000 		.4byte	0x2df
 3693 0559 00       		.byte	0
 3694 055a 14       		.uleb128 0x14
 3695 055b 2D050000 		.4byte	0x52d
 3696 055f 6A050000 		.4byte	0x56a
 3697 0563 15       		.uleb128 0x15
 3698 0564 89030000 		.4byte	0x389
 3699 0568 03       		.byte	0x3
 3700 0569 00       		.byte	0
 3701 056a 09       		.uleb128 0x9
 3702 056b 04       		.byte	0x4
 3703 056c CE000000 		.4byte	0xce
 3704 0570 05       		.uleb128 0x5
 3705 0571 40010000 		.4byte	.LASF87
 3706 0575 10       		.byte	0x10
 3707 0576 0D       		.byte	0xd
 3708 0577 48       		.byte	0x48
 3709 0578 AD050000 		.4byte	0x5ad
 3710 057c 06       		.uleb128 0x6
 3711 057d A8050000 		.4byte	.LASF88
 3712 0581 0D       		.byte	0xd
 3713 0582 49       		.byte	0x49
 3714 0583 D1050000 		.4byte	0x5d1
 3715 0587 00       		.byte	0
 3716 0588 06       		.uleb128 0x6
 3717 0589 AD090000 		.4byte	.LASF89
 3718 058d 0D       		.byte	0xd
ARM GAS  C:\Users\srich\AppData\Local\Temp\ccv3JVxh.s 			page 67


 3719 058e 49       		.byte	0x49
 3720 058f F0050000 		.4byte	0x5f0
 3721 0593 04       		.byte	0x4
 3722 0594 07       		.uleb128 0x7
 3723 0595 70757400 		.ascii	"put\000"
 3724 0599 0D       		.byte	0xd
 3725 059a 49       		.byte	0x49
 3726 059b 0A060000 		.4byte	0x60a
 3727 059f 08       		.byte	0x8
 3728 05a0 07       		.uleb128 0x7
 3729 05a1 67657400 		.ascii	"get\000"
 3730 05a5 0D       		.byte	0xd
 3731 05a6 49       		.byte	0x49
 3732 05a7 45050000 		.4byte	0x545
 3733 05ab 0C       		.byte	0xc
 3734 05ac 00       		.byte	0
 3735 05ad 13       		.uleb128 0x13
 3736 05ae 3A000000 		.4byte	0x3a
 3737 05b2 C6050000 		.4byte	0x5c6
 3738 05b6 0E       		.uleb128 0xe
 3739 05b7 DF020000 		.4byte	0x2df
 3740 05bb 0E       		.uleb128 0xe
 3741 05bc C6050000 		.4byte	0x5c6
 3742 05c0 0E       		.uleb128 0xe
 3743 05c1 3A000000 		.4byte	0x3a
 3744 05c5 00       		.byte	0
 3745 05c6 09       		.uleb128 0x9
 3746 05c7 04       		.byte	0x4
 3747 05c8 CC050000 		.4byte	0x5cc
 3748 05cc 12       		.uleb128 0x12
 3749 05cd CE000000 		.4byte	0xce
 3750 05d1 09       		.uleb128 0x9
 3751 05d2 04       		.byte	0x4
 3752 05d3 AD050000 		.4byte	0x5ad
 3753 05d7 13       		.uleb128 0x13
 3754 05d8 3A000000 		.4byte	0x3a
 3755 05dc F0050000 		.4byte	0x5f0
 3756 05e0 0E       		.uleb128 0xe
 3757 05e1 DF020000 		.4byte	0x2df
 3758 05e5 0E       		.uleb128 0xe
 3759 05e6 6A050000 		.4byte	0x56a
 3760 05ea 0E       		.uleb128 0xe
 3761 05eb 3A000000 		.4byte	0x3a
 3762 05ef 00       		.byte	0
 3763 05f0 09       		.uleb128 0x9
 3764 05f1 04       		.byte	0x4
 3765 05f2 D7050000 		.4byte	0x5d7
 3766 05f6 13       		.uleb128 0x13
 3767 05f7 59010000 		.4byte	0x159
 3768 05fb 0A060000 		.4byte	0x60a
 3769 05ff 0E       		.uleb128 0xe
 3770 0600 DF020000 		.4byte	0x2df
 3771 0604 0E       		.uleb128 0xe
 3772 0605 CE000000 		.4byte	0xce
 3773 0609 00       		.byte	0
 3774 060a 09       		.uleb128 0x9
 3775 060b 04       		.byte	0x4
ARM GAS  C:\Users\srich\AppData\Local\Temp\ccv3JVxh.s 			page 68


 3776 060c F6050000 		.4byte	0x5f6
 3777 0610 08       		.uleb128 0x8
 3778 0611 04       		.byte	0x4
 3779 0612 0D       		.byte	0xd
 3780 0613 51       		.byte	0x51
 3781 0614 25060000 		.4byte	0x625
 3782 0618 07       		.uleb128 0x7
 3783 0619 766D7400 		.ascii	"vmt\000"
 3784 061d 0D       		.byte	0xd
 3785 061e 53       		.byte	0x53
 3786 061f 25060000 		.4byte	0x625
 3787 0623 00       		.byte	0
 3788 0624 00       		.byte	0
 3789 0625 09       		.uleb128 0x9
 3790 0626 04       		.byte	0x4
 3791 0627 2B060000 		.4byte	0x62b
 3792 062b 12       		.uleb128 0x12
 3793 062c 70050000 		.4byte	0x570
 3794 0630 04       		.uleb128 0x4
 3795 0631 61040000 		.4byte	.LASF90
 3796 0635 0D       		.byte	0xd
 3797 0636 55       		.byte	0x55
 3798 0637 10060000 		.4byte	0x610
 3799 063b 0F       		.uleb128 0xf
 3800 063c EF000000 		.4byte	0xef
 3801 0640 05       		.uleb128 0x5
 3802 0641 B9020000 		.4byte	.LASF91
 3803 0645 20       		.byte	0x20
 3804 0646 0E       		.byte	0xe
 3805 0647 4E       		.byte	0x4e
 3806 0648 AD060000 		.4byte	0x6ad
 3807 064c 06       		.uleb128 0x6
 3808 064d A8050000 		.4byte	.LASF88
 3809 0651 0E       		.byte	0xe
 3810 0652 4F       		.byte	0x4f
 3811 0653 D1050000 		.4byte	0x5d1
 3812 0657 00       		.byte	0
 3813 0658 06       		.uleb128 0x6
 3814 0659 AD090000 		.4byte	.LASF89
 3815 065d 0E       		.byte	0xe
 3816 065e 4F       		.byte	0x4f
 3817 065f F0050000 		.4byte	0x5f0
 3818 0663 04       		.byte	0x4
 3819 0664 07       		.uleb128 0x7
 3820 0665 70757400 		.ascii	"put\000"
 3821 0669 0E       		.byte	0xe
 3822 066a 4F       		.byte	0x4f
 3823 066b 0A060000 		.4byte	0x60a
 3824 066f 08       		.byte	0x8
 3825 0670 07       		.uleb128 0x7
 3826 0671 67657400 		.ascii	"get\000"
 3827 0675 0E       		.byte	0xe
 3828 0676 4F       		.byte	0x4f
 3829 0677 45050000 		.4byte	0x545
 3830 067b 0C       		.byte	0xc
 3831 067c 06       		.uleb128 0x6
 3832 067d 47030000 		.4byte	.LASF92
ARM GAS  C:\Users\srich\AppData\Local\Temp\ccv3JVxh.s 			page 69


 3833 0681 0E       		.byte	0xe
 3834 0682 4F       		.byte	0x4f
 3835 0683 C6060000 		.4byte	0x6c6
 3836 0687 10       		.byte	0x10
 3837 0688 06       		.uleb128 0x6
 3838 0689 71000000 		.4byte	.LASF93
 3839 068d 0E       		.byte	0xe
 3840 068e 4F       		.byte	0x4f
 3841 068f E0060000 		.4byte	0x6e0
 3842 0693 14       		.byte	0x14
 3843 0694 06       		.uleb128 0x6
 3844 0695 B4010000 		.4byte	.LASF94
 3845 0699 0E       		.byte	0xe
 3846 069a 4F       		.byte	0x4f
 3847 069b 04070000 		.4byte	0x704
 3848 069f 18       		.byte	0x18
 3849 06a0 06       		.uleb128 0x6
 3850 06a1 600B0000 		.4byte	.LASF95
 3851 06a5 0E       		.byte	0xe
 3852 06a6 4F       		.byte	0x4f
 3853 06a7 28070000 		.4byte	0x728
 3854 06ab 1C       		.byte	0x1c
 3855 06ac 00       		.byte	0
 3856 06ad 13       		.uleb128 0x13
 3857 06ae 59010000 		.4byte	0x159
 3858 06b2 C6060000 		.4byte	0x6c6
 3859 06b6 0E       		.uleb128 0xe
 3860 06b7 DF020000 		.4byte	0x2df
 3861 06bb 0E       		.uleb128 0xe
 3862 06bc CE000000 		.4byte	0xce
 3863 06c0 0E       		.uleb128 0xe
 3864 06c1 6F010000 		.4byte	0x16f
 3865 06c5 00       		.byte	0
 3866 06c6 09       		.uleb128 0x9
 3867 06c7 04       		.byte	0x4
 3868 06c8 AD060000 		.4byte	0x6ad
 3869 06cc 13       		.uleb128 0x13
 3870 06cd 59010000 		.4byte	0x159
 3871 06d1 E0060000 		.4byte	0x6e0
 3872 06d5 0E       		.uleb128 0xe
 3873 06d6 DF020000 		.4byte	0x2df
 3874 06da 0E       		.uleb128 0xe
 3875 06db 6F010000 		.4byte	0x16f
 3876 06df 00       		.byte	0
 3877 06e0 09       		.uleb128 0x9
 3878 06e1 04       		.byte	0x4
 3879 06e2 CC060000 		.4byte	0x6cc
 3880 06e6 13       		.uleb128 0x13
 3881 06e7 3A000000 		.4byte	0x3a
 3882 06eb 04070000 		.4byte	0x704
 3883 06ef 0E       		.uleb128 0xe
 3884 06f0 DF020000 		.4byte	0x2df
 3885 06f4 0E       		.uleb128 0xe
 3886 06f5 C6050000 		.4byte	0x5c6
 3887 06f9 0E       		.uleb128 0xe
 3888 06fa 3A000000 		.4byte	0x3a
 3889 06fe 0E       		.uleb128 0xe
ARM GAS  C:\Users\srich\AppData\Local\Temp\ccv3JVxh.s 			page 70


 3890 06ff 6F010000 		.4byte	0x16f
 3891 0703 00       		.byte	0
 3892 0704 09       		.uleb128 0x9
 3893 0705 04       		.byte	0x4
 3894 0706 E6060000 		.4byte	0x6e6
 3895 070a 13       		.uleb128 0x13
 3896 070b 3A000000 		.4byte	0x3a
 3897 070f 28070000 		.4byte	0x728
 3898 0713 0E       		.uleb128 0xe
 3899 0714 DF020000 		.4byte	0x2df
 3900 0718 0E       		.uleb128 0xe
 3901 0719 6A050000 		.4byte	0x56a
 3902 071d 0E       		.uleb128 0xe
 3903 071e 3A000000 		.4byte	0x3a
 3904 0722 0E       		.uleb128 0xe
 3905 0723 6F010000 		.4byte	0x16f
 3906 0727 00       		.byte	0
 3907 0728 09       		.uleb128 0x9
 3908 0729 04       		.byte	0x4
 3909 072a 0A070000 		.4byte	0x70a
 3910 072e 08       		.uleb128 0x8
 3911 072f 04       		.byte	0x4
 3912 0730 0E       		.byte	0xe
 3913 0731 59       		.byte	0x59
 3914 0732 43070000 		.4byte	0x743
 3915 0736 07       		.uleb128 0x7
 3916 0737 766D7400 		.ascii	"vmt\000"
 3917 073b 0E       		.byte	0xe
 3918 073c 5B       		.byte	0x5b
 3919 073d 43070000 		.4byte	0x743
 3920 0741 00       		.byte	0
 3921 0742 00       		.byte	0
 3922 0743 09       		.uleb128 0x9
 3923 0744 04       		.byte	0x4
 3924 0745 49070000 		.4byte	0x749
 3925 0749 12       		.uleb128 0x12
 3926 074a 40060000 		.4byte	0x640
 3927 074e 04       		.uleb128 0x4
 3928 074f 2C050000 		.4byte	.LASF96
 3929 0753 0E       		.byte	0xe
 3930 0754 5D       		.byte	0x5d
 3931 0755 2E070000 		.4byte	0x72e
 3932 0759 16       		.uleb128 0x16
 3933 075a C5010000 		.4byte	.LASF101
 3934 075e 01       		.byte	0x1
 3935 075f 0F       		.byte	0xf
 3936 0760 18       		.byte	0x18
 3937 0761 7E070000 		.4byte	0x77e
 3938 0765 17       		.uleb128 0x17
 3939 0766 83090000 		.4byte	.LASF97
 3940 076a 00       		.sleb128 0
 3941 076b 17       		.uleb128 0x17
 3942 076c B1030000 		.4byte	.LASF98
 3943 0770 01       		.sleb128 1
 3944 0771 17       		.uleb128 0x17
 3945 0772 B3080000 		.4byte	.LASF99
 3946 0776 02       		.sleb128 2
ARM GAS  C:\Users\srich\AppData\Local\Temp\ccv3JVxh.s 			page 71


 3947 0777 17       		.uleb128 0x17
 3948 0778 FC0A0000 		.4byte	.LASF100
 3949 077c 03       		.sleb128 3
 3950 077d 00       		.byte	0
 3951 077e 16       		.uleb128 0x16
 3952 077f EB020000 		.4byte	.LASF102
 3953 0783 01       		.byte	0x1
 3954 0784 10       		.byte	0x10
 3955 0785 7B       		.byte	0x7b
 3956 0786 1B080000 		.4byte	0x81b
 3957 078a 17       		.uleb128 0x17
 3958 078b 4C030000 		.4byte	.LASF103
 3959 078f 00       		.sleb128 0
 3960 0790 17       		.uleb128 0x17
 3961 0791 2C090000 		.4byte	.LASF104
 3962 0795 01       		.sleb128 1
 3963 0796 17       		.uleb128 0x17
 3964 0797 C6040000 		.4byte	.LASF105
 3965 079b 02       		.sleb128 2
 3966 079c 17       		.uleb128 0x17
 3967 079d FD090000 		.4byte	.LASF106
 3968 07a1 03       		.sleb128 3
 3969 07a2 17       		.uleb128 0x17
 3970 07a3 1A0A0000 		.4byte	.LASF107
 3971 07a7 04       		.sleb128 4
 3972 07a8 17       		.uleb128 0x17
 3973 07a9 DC040000 		.4byte	.LASF108
 3974 07ad 05       		.sleb128 5
 3975 07ae 17       		.uleb128 0x17
 3976 07af 8C000000 		.4byte	.LASF109
 3977 07b3 06       		.sleb128 6
 3978 07b4 17       		.uleb128 0x17
 3979 07b5 4A080000 		.4byte	.LASF110
 3980 07b9 07       		.sleb128 7
 3981 07ba 17       		.uleb128 0x17
 3982 07bb BC040000 		.4byte	.LASF111
 3983 07bf 08       		.sleb128 8
 3984 07c0 17       		.uleb128 0x17
 3985 07c1 CC090000 		.4byte	.LASF112
 3986 07c5 09       		.sleb128 9
 3987 07c6 17       		.uleb128 0x17
 3988 07c7 ED0A0000 		.4byte	.LASF113
 3989 07cb 0A       		.sleb128 10
 3990 07cc 17       		.uleb128 0x17
 3991 07cd 390B0000 		.4byte	.LASF114
 3992 07d1 0B       		.sleb128 11
 3993 07d2 17       		.uleb128 0x17
 3994 07d3 14090000 		.4byte	.LASF115
 3995 07d7 0C       		.sleb128 12
 3996 07d8 17       		.uleb128 0x17
 3997 07d9 BD0B0000 		.4byte	.LASF116
 3998 07dd 0D       		.sleb128 13
 3999 07de 17       		.uleb128 0x17
 4000 07df AE050000 		.4byte	.LASF117
 4001 07e3 0E       		.sleb128 14
 4002 07e4 17       		.uleb128 0x17
 4003 07e5 08080000 		.4byte	.LASF118
ARM GAS  C:\Users\srich\AppData\Local\Temp\ccv3JVxh.s 			page 72


 4004 07e9 0F       		.sleb128 15
 4005 07ea 17       		.uleb128 0x17
 4006 07eb 20080000 		.4byte	.LASF119
 4007 07ef 10       		.sleb128 16
 4008 07f0 17       		.uleb128 0x17
 4009 07f1 E6000000 		.4byte	.LASF120
 4010 07f5 11       		.sleb128 17
 4011 07f6 17       		.uleb128 0x17
 4012 07f7 BC090000 		.4byte	.LASF121
 4013 07fb 12       		.sleb128 18
 4014 07fc 17       		.uleb128 0x17
 4015 07fd E20B0000 		.4byte	.LASF122
 4016 0801 13       		.sleb128 19
 4017 0802 17       		.uleb128 0x17
 4018 0803 26010000 		.4byte	.LASF123
 4019 0807 14       		.sleb128 20
 4020 0808 17       		.uleb128 0x17
 4021 0809 38050000 		.4byte	.LASF124
 4022 080d 15       		.sleb128 21
 4023 080e 17       		.uleb128 0x17
 4024 080f 09040000 		.4byte	.LASF125
 4025 0813 16       		.sleb128 22
 4026 0814 17       		.uleb128 0x17
 4027 0815 F3010000 		.4byte	.LASF126
 4028 0819 17       		.sleb128 23
 4029 081a 00       		.byte	0
 4030 081b 09       		.uleb128 0x9
 4031 081c 04       		.byte	0x4
 4032 081d 2D050000 		.4byte	0x52d
 4033 0821 02       		.uleb128 0x2
 4034 0822 08       		.byte	0x8
 4035 0823 04       		.byte	0x4
 4036 0824 AE0B0000 		.4byte	.LASF127
 4037 0828 02       		.uleb128 0x2
 4038 0829 04       		.byte	0x4
 4039 082a 04       		.byte	0x4
 4040 082b 1F020000 		.4byte	.LASF128
 4041 082f 02       		.uleb128 0x2
 4042 0830 08       		.byte	0x8
 4043 0831 04       		.byte	0x4
 4044 0832 FC070000 		.4byte	.LASF129
 4045 0836 04       		.uleb128 0x4
 4046 0837 38030000 		.4byte	.LASF130
 4047 083b 11       		.byte	0x11
 4048 083c 28       		.byte	0x28
 4049 083d 41080000 		.4byte	0x841
 4050 0841 05       		.uleb128 0x5
 4051 0842 2B000000 		.4byte	.LASF131
 4052 0846 04       		.byte	0x4
 4053 0847 12       		.byte	0x12
 4054 0848 00       		.byte	0
 4055 0849 58080000 		.4byte	0x858
 4056 084d 18       		.uleb128 0x18
 4057 084e 090B0000 		.4byte	.LASF132
 4058 0852 DF020000 		.4byte	0x2df
 4059 0856 00       		.byte	0
 4060 0857 00       		.byte	0
ARM GAS  C:\Users\srich\AppData\Local\Temp\ccv3JVxh.s 			page 73


 4061 0858 04       		.uleb128 0x4
 4062 0859 45050000 		.4byte	.LASF133
 4063 085d 13       		.byte	0x13
 4064 085e 7C       		.byte	0x7c
 4065 085f 98000000 		.4byte	0x98
 4066 0863 05       		.uleb128 0x5
 4067 0864 B0020000 		.4byte	.LASF134
 4068 0868 2C       		.byte	0x2c
 4069 0869 14       		.byte	0x14
 4070 086a 15       		.byte	0x15
 4071 086b 8F090000 		.4byte	0x98f
 4072 086f 07       		.uleb128 0x7
 4073 0870 696400   		.ascii	"id\000"
 4074 0873 14       		.byte	0x14
 4075 0874 17       		.byte	0x17
 4076 0875 FA000000 		.4byte	0xfa
 4077 0879 00       		.byte	0
 4078 087a 06       		.uleb128 0x6
 4079 087b C9050000 		.4byte	.LASF135
 4080 087f 14       		.byte	0x14
 4081 0880 18       		.byte	0x18
 4082 0881 CE000000 		.4byte	0xce
 4083 0885 04       		.byte	0x4
 4084 0886 06       		.uleb128 0x6
 4085 0887 FD080000 		.4byte	.LASF136
 4086 088b 14       		.byte	0x14
 4087 088c 19       		.byte	0x19
 4088 088d E4000000 		.4byte	0xe4
 4089 0891 06       		.byte	0x6
 4090 0892 06       		.uleb128 0x6
 4091 0893 0C050000 		.4byte	.LASF137
 4092 0897 14       		.byte	0x14
 4093 0898 1A       		.byte	0x1a
 4094 0899 E4000000 		.4byte	0xe4
 4095 089d 08       		.byte	0x8
 4096 089e 06       		.uleb128 0x6
 4097 089f D1040000 		.4byte	.LASF138
 4098 08a3 14       		.byte	0x14
 4099 08a4 1B       		.byte	0x1b
 4100 08a5 CE000000 		.4byte	0xce
 4101 08a9 0A       		.byte	0xa
 4102 08aa 06       		.uleb128 0x6
 4103 08ab 4A0B0000 		.4byte	.LASF139
 4104 08af 14       		.byte	0x14
 4105 08b0 1C       		.byte	0x1c
 4106 08b1 E4000000 		.4byte	0xe4
 4107 08b5 0C       		.byte	0xc
 4108 08b6 06       		.uleb128 0x6
 4109 08b7 97010000 		.4byte	.LASF140
 4110 08bb 14       		.byte	0x14
 4111 08bc 1D       		.byte	0x1d
 4112 08bd CE000000 		.4byte	0xce
 4113 08c1 0E       		.byte	0xe
 4114 08c2 06       		.uleb128 0x6
 4115 08c3 C6030000 		.4byte	.LASF141
 4116 08c7 14       		.byte	0x14
 4117 08c8 1E       		.byte	0x1e
ARM GAS  C:\Users\srich\AppData\Local\Temp\ccv3JVxh.s 			page 74


 4118 08c9 CE000000 		.4byte	0xce
 4119 08cd 0F       		.byte	0xf
 4120 08ce 06       		.uleb128 0x6
 4121 08cf EA0B0000 		.4byte	.LASF142
 4122 08d3 14       		.byte	0x14
 4123 08d4 1F       		.byte	0x1f
 4124 08d5 CE000000 		.4byte	0xce
 4125 08d9 10       		.byte	0x10
 4126 08da 06       		.uleb128 0x6
 4127 08db 84050000 		.4byte	.LASF143
 4128 08df 14       		.byte	0x14
 4129 08e0 20       		.byte	0x20
 4130 08e1 E4000000 		.4byte	0xe4
 4131 08e5 12       		.byte	0x12
 4132 08e6 06       		.uleb128 0x6
 4133 08e7 660B0000 		.4byte	.LASF144
 4134 08eb 14       		.byte	0x14
 4135 08ec 21       		.byte	0x21
 4136 08ed E4000000 		.4byte	0xe4
 4137 08f1 14       		.byte	0x14
 4138 08f2 06       		.uleb128 0x6
 4139 08f3 8D020000 		.4byte	.LASF145
 4140 08f7 14       		.byte	0x14
 4141 08f8 22       		.byte	0x22
 4142 08f9 E4000000 		.4byte	0xe4
 4143 08fd 16       		.byte	0x16
 4144 08fe 06       		.uleb128 0x6
 4145 08ff 710A0000 		.4byte	.LASF146
 4146 0903 14       		.byte	0x14
 4147 0904 23       		.byte	0x23
 4148 0905 D9000000 		.4byte	0xd9
 4149 0909 18       		.byte	0x18
 4150 090a 06       		.uleb128 0x6
 4151 090b 79080000 		.4byte	.LASF147
 4152 090f 14       		.byte	0x14
 4153 0910 24       		.byte	0x24
 4154 0911 CE000000 		.4byte	0xce
 4155 0915 1A       		.byte	0x1a
 4156 0916 06       		.uleb128 0x6
 4157 0917 14060000 		.4byte	.LASF148
 4158 091b 14       		.byte	0x14
 4159 091c 25       		.byte	0x25
 4160 091d CE000000 		.4byte	0xce
 4161 0921 1B       		.byte	0x1b
 4162 0922 06       		.uleb128 0x6
 4163 0923 7B0B0000 		.4byte	.LASF149
 4164 0927 14       		.byte	0x14
 4165 0928 26       		.byte	0x26
 4166 0929 CE000000 		.4byte	0xce
 4167 092d 1C       		.byte	0x1c
 4168 092e 06       		.uleb128 0x6
 4169 092f FC020000 		.4byte	.LASF150
 4170 0933 14       		.byte	0x14
 4171 0934 27       		.byte	0x27
 4172 0935 E4000000 		.4byte	0xe4
 4173 0939 1E       		.byte	0x1e
 4174 093a 06       		.uleb128 0x6
ARM GAS  C:\Users\srich\AppData\Local\Temp\ccv3JVxh.s 			page 75


 4175 093b D7050000 		.4byte	.LASF151
 4176 093f 14       		.byte	0x14
 4177 0940 28       		.byte	0x28
 4178 0941 CE000000 		.4byte	0xce
 4179 0945 20       		.byte	0x20
 4180 0946 06       		.uleb128 0x6
 4181 0947 4C050000 		.4byte	.LASF152
 4182 094b 14       		.byte	0x14
 4183 094c 29       		.byte	0x29
 4184 094d E4000000 		.4byte	0xe4
 4185 0951 22       		.byte	0x22
 4186 0952 06       		.uleb128 0x6
 4187 0953 A50A0000 		.4byte	.LASF153
 4188 0957 14       		.byte	0x14
 4189 0958 2A       		.byte	0x2a
 4190 0959 CE000000 		.4byte	0xce
 4191 095d 24       		.byte	0x24
 4192 095e 06       		.uleb128 0x6
 4193 095f F80B0000 		.4byte	.LASF154
 4194 0963 14       		.byte	0x14
 4195 0964 2B       		.byte	0x2b
 4196 0965 CE000000 		.4byte	0xce
 4197 0969 25       		.byte	0x25
 4198 096a 06       		.uleb128 0x6
 4199 096b 190C0000 		.4byte	.LASF155
 4200 096f 14       		.byte	0x14
 4201 0970 2C       		.byte	0x2c
 4202 0971 CE000000 		.4byte	0xce
 4203 0975 26       		.byte	0x26
 4204 0976 06       		.uleb128 0x6
 4205 0977 8A080000 		.4byte	.LASF156
 4206 097b 14       		.byte	0x14
 4207 097c 2D       		.byte	0x2d
 4208 097d CE000000 		.4byte	0xce
 4209 0981 27       		.byte	0x27
 4210 0982 06       		.uleb128 0x6
 4211 0983 9E020000 		.4byte	.LASF157
 4212 0987 14       		.byte	0x14
 4213 0988 2E       		.byte	0x2e
 4214 0989 E4000000 		.4byte	0xe4
 4215 098d 28       		.byte	0x28
 4216 098e 00       		.byte	0
 4217 098f 05       		.uleb128 0x5
 4218 0990 E3030000 		.4byte	.LASF158
 4219 0994 24       		.byte	0x24
 4220 0995 14       		.byte	0x14
 4221 0996 5C       		.byte	0x5c
 4222 0997 D7090000 		.4byte	0x9d7
 4223 099b 07       		.uleb128 0x7
 4224 099c 696400   		.ascii	"id\000"
 4225 099f 14       		.byte	0x14
 4226 09a0 5D       		.byte	0x5d
 4227 09a1 D7090000 		.4byte	0x9d7
 4228 09a5 00       		.byte	0
 4229 09a6 06       		.uleb128 0x6
 4230 09a7 59050000 		.4byte	.LASF159
 4231 09ab 14       		.byte	0x14
ARM GAS  C:\Users\srich\AppData\Local\Temp\ccv3JVxh.s 			page 76


 4232 09ac 5E       		.byte	0x5e
 4233 09ad D7090000 		.4byte	0x9d7
 4234 09b1 06       		.byte	0x6
 4235 09b2 06       		.uleb128 0x6
 4236 09b3 56000000 		.4byte	.LASF160
 4237 09b7 14       		.byte	0x14
 4238 09b8 5F       		.byte	0x5f
 4239 09b9 E7090000 		.4byte	0x9e7
 4240 09bd 0C       		.byte	0xc
 4241 09be 06       		.uleb128 0x6
 4242 09bf 19020000 		.4byte	.LASF161
 4243 09c3 14       		.byte	0x14
 4244 09c4 60       		.byte	0x60
 4245 09c5 D7090000 		.4byte	0x9d7
 4246 09c9 18       		.byte	0x18
 4247 09ca 06       		.uleb128 0x6
 4248 09cb 0E0B0000 		.4byte	.LASF162
 4249 09cf 14       		.byte	0x14
 4250 09d0 61       		.byte	0x61
 4251 09d1 D7090000 		.4byte	0x9d7
 4252 09d5 1E       		.byte	0x1e
 4253 09d6 00       		.byte	0
 4254 09d7 14       		.uleb128 0x14
 4255 09d8 CE000000 		.4byte	0xce
 4256 09dc E7090000 		.4byte	0x9e7
 4257 09e0 15       		.uleb128 0x15
 4258 09e1 89030000 		.4byte	0x389
 4259 09e5 05       		.byte	0x5
 4260 09e6 00       		.byte	0
 4261 09e7 14       		.uleb128 0x14
 4262 09e8 E4000000 		.4byte	0xe4
 4263 09ec F7090000 		.4byte	0x9f7
 4264 09f0 15       		.uleb128 0x15
 4265 09f1 89030000 		.4byte	0x389
 4266 09f5 05       		.byte	0x5
 4267 09f6 00       		.byte	0
 4268 09f7 16       		.uleb128 0x16
 4269 09f8 28070000 		.4byte	.LASF163
 4270 09fc 01       		.byte	0x1
 4271 09fd 15       		.byte	0x15
 4272 09fe 0C       		.byte	0xc
 4273 09ff 1C0A0000 		.4byte	0xa1c
 4274 0a03 17       		.uleb128 0x17
 4275 0a04 56020000 		.4byte	.LASF164
 4276 0a08 00       		.sleb128 0
 4277 0a09 17       		.uleb128 0x17
 4278 0a0a 15050000 		.4byte	.LASF165
 4279 0a0e 01       		.sleb128 1
 4280 0a0f 17       		.uleb128 0x17
 4281 0a10 F3000000 		.4byte	.LASF166
 4282 0a14 02       		.sleb128 2
 4283 0a15 17       		.uleb128 0x17
 4284 0a16 D60B0000 		.4byte	.LASF167
 4285 0a1a 03       		.sleb128 3
 4286 0a1b 00       		.byte	0
 4287 0a1c 08       		.uleb128 0x8
 4288 0a1d 48       		.byte	0x48
ARM GAS  C:\Users\srich\AppData\Local\Temp\ccv3JVxh.s 			page 77


 4289 0a1e 16       		.byte	0x16
 4290 0a1f 0B       		.byte	0xb
 4291 0a20 9D0A0000 		.4byte	0xa9d
 4292 0a24 07       		.uleb128 0x7
 4293 0a25 546F6600 		.ascii	"Tof\000"
 4294 0a29 16       		.byte	0x16
 4295 0a2a 0C       		.byte	0xc
 4296 0a2b 58080000 		.4byte	0x858
 4297 0a2f 00       		.byte	0
 4298 0a30 07       		.uleb128 0x7
 4299 0a31 4C6F6E00 		.ascii	"Lon\000"
 4300 0a35 16       		.byte	0x16
 4301 0a36 0D       		.byte	0xd
 4302 0a37 21080000 		.4byte	0x821
 4303 0a3b 08       		.byte	0x8
 4304 0a3c 07       		.uleb128 0x7
 4305 0a3d 4C617400 		.ascii	"Lat\000"
 4306 0a41 16       		.byte	0x16
 4307 0a42 0E       		.byte	0xe
 4308 0a43 21080000 		.4byte	0x821
 4309 0a47 10       		.byte	0x10
 4310 0a48 07       		.uleb128 0x7
 4311 0a49 416C7400 		.ascii	"Alt\000"
 4312 0a4d 16       		.byte	0x16
 4313 0a4e 0F       		.byte	0xf
 4314 0a4f 21080000 		.4byte	0x821
 4315 0a53 18       		.byte	0x18
 4316 0a54 07       		.uleb128 0x7
 4317 0a55 56656C00 		.ascii	"Vel\000"
 4318 0a59 16       		.byte	0x16
 4319 0a5a 10       		.byte	0x10
 4320 0a5b 21080000 		.4byte	0x821
 4321 0a5f 20       		.byte	0x20
 4322 0a60 07       		.uleb128 0x7
 4323 0a61 48646700 		.ascii	"Hdg\000"
 4324 0a65 16       		.byte	0x16
 4325 0a66 11       		.byte	0x11
 4326 0a67 21080000 		.4byte	0x821
 4327 0a6b 28       		.byte	0x28
 4328 0a6c 07       		.uleb128 0x7
 4329 0a6d 53767300 		.ascii	"Svs\000"
 4330 0a71 16       		.byte	0x16
 4331 0a72 12       		.byte	0x12
 4332 0a73 CE000000 		.4byte	0xce
 4333 0a77 30       		.byte	0x30
 4334 0a78 06       		.uleb128 0x6
 4335 0a79 F9030000 		.4byte	.LASF168
 4336 0a7d 16       		.byte	0x16
 4337 0a7e 13       		.byte	0x13
 4338 0a7f C3000000 		.4byte	0xc3
 4339 0a83 31       		.byte	0x31
 4340 0a84 07       		.uleb128 0x7
 4341 0a85 55706400 		.ascii	"Upd\000"
 4342 0a89 16       		.byte	0x16
 4343 0a8a 14       		.byte	0x14
 4344 0a8b 58080000 		.4byte	0x858
 4345 0a8f 34       		.byte	0x34
ARM GAS  C:\Users\srich\AppData\Local\Temp\ccv3JVxh.s 			page 78


 4346 0a90 06       		.uleb128 0x6
 4347 0a91 370A0000 		.4byte	.LASF169
 4348 0a95 16       		.byte	0x16
 4349 0a96 15       		.byte	0x15
 4350 0a97 9D0A0000 		.4byte	0xa9d
 4351 0a9b 38       		.byte	0x38
 4352 0a9c 00       		.byte	0
 4353 0a9d 14       		.uleb128 0x14
 4354 0a9e CE000000 		.4byte	0xce
 4355 0aa2 AD0A0000 		.4byte	0xaad
 4356 0aa6 15       		.uleb128 0x15
 4357 0aa7 89030000 		.4byte	0x389
 4358 0aab 09       		.byte	0x9
 4359 0aac 00       		.byte	0
 4360 0aad 04       		.uleb128 0x4
 4361 0aae 3B080000 		.4byte	.LASF170
 4362 0ab2 16       		.byte	0x16
 4363 0ab3 16       		.byte	0x16
 4364 0ab4 1C0A0000 		.4byte	0xa1c
 4365 0ab8 04       		.uleb128 0x4
 4366 0ab9 92050000 		.4byte	.LASF171
 4367 0abd 11       		.byte	0x11
 4368 0abe 62       		.byte	0x62
 4369 0abf 36080000 		.4byte	0x836
 4370 0ac3 19       		.uleb128 0x19
 4371 0ac4 E5050000 		.4byte	.LASF174
 4372 0ac8 01       		.byte	0x1
 4373 0ac9 35       		.byte	0x35
 4374 0aca 01       		.byte	0x1
 4375 0acb F80A0000 		.4byte	0xaf8
 4376 0acf 1A       		.uleb128 0x1a
 4377 0ad0 ED040000 		.4byte	.LASF172
 4378 0ad4 01       		.byte	0x1
 4379 0ad5 35       		.byte	0x35
 4380 0ad6 33000000 		.4byte	0x33
 4381 0ada 1B       		.uleb128 0x1b
 4382 0adb 7800     		.ascii	"x\000"
 4383 0add 01       		.byte	0x1
 4384 0ade 35       		.byte	0x35
 4385 0adf 33000000 		.4byte	0x33
 4386 0ae3 1B       		.uleb128 0x1b
 4387 0ae4 7900     		.ascii	"y\000"
 4388 0ae6 01       		.byte	0x1
 4389 0ae7 35       		.byte	0x35
 4390 0ae8 33000000 		.4byte	0x33
 4391 0aec 1A       		.uleb128 0x1a
 4392 0aed 4E040000 		.4byte	.LASF173
 4393 0af1 01       		.byte	0x1
 4394 0af2 35       		.byte	0x35
 4395 0af3 33000000 		.4byte	0x33
 4396 0af7 00       		.byte	0
 4397 0af8 19       		.uleb128 0x19
 4398 0af9 53080000 		.4byte	.LASF175
 4399 0afd 01       		.byte	0x1
 4400 0afe 2D       		.byte	0x2d
 4401 0aff 01       		.byte	0x1
 4402 0b00 220B0000 		.4byte	0xb22
ARM GAS  C:\Users\srich\AppData\Local\Temp\ccv3JVxh.s 			page 79


 4403 0b04 1A       		.uleb128 0x1a
 4404 0b05 ED040000 		.4byte	.LASF172
 4405 0b09 01       		.byte	0x1
 4406 0b0a 2D       		.byte	0x2d
 4407 0b0b 33000000 		.4byte	0x33
 4408 0b0f 1B       		.uleb128 0x1b
 4409 0b10 7800     		.ascii	"x\000"
 4410 0b12 01       		.byte	0x1
 4411 0b13 2D       		.byte	0x2d
 4412 0b14 33000000 		.4byte	0x33
 4413 0b18 1B       		.uleb128 0x1b
 4414 0b19 7900     		.ascii	"y\000"
 4415 0b1b 01       		.byte	0x1
 4416 0b1c 2D       		.byte	0x2d
 4417 0b1d 33000000 		.4byte	0x33
 4418 0b21 00       		.byte	0
 4419 0b22 1C       		.uleb128 0x1c
 4420 0b23 C90B0000 		.4byte	.LASF255
 4421 0b27 01       		.byte	0x1
 4422 0b28 F201     		.2byte	0x1f2
 4423 0b2a 01       		.byte	0x1
 4424 0b2b 1D       		.uleb128 0x1d
 4425 0b2c 16010000 		.4byte	.LASF248
 4426 0b30 01       		.byte	0x1
 4427 0b31 4802     		.2byte	0x248
 4428 0b33 01       		.byte	0x1
 4429 0b34 430B0000 		.4byte	0xb43
 4430 0b38 1E       		.uleb128 0x1e
 4431 0b39 6900     		.ascii	"i\000"
 4432 0b3b 01       		.byte	0x1
 4433 0b3c 4902     		.2byte	0x249
 4434 0b3e 33000000 		.4byte	0x33
 4435 0b42 00       		.byte	0
 4436 0b43 1F       		.uleb128 0x1f
 4437 0b44 8D010000 		.4byte	.LASF209
 4438 0b48 01       		.byte	0x1
 4439 0b49 2502     		.2byte	0x225
 4440 0b4b 59010000 		.4byte	0x159
 4441 0b4f 00000000 		.4byte	.LFB132
 4442 0b53 34000000 		.4byte	.LFE132-.LFB132
 4443 0b57 01       		.uleb128 0x1
 4444 0b58 9C       		.byte	0x9c
 4445 0b59 AF0B0000 		.4byte	0xbaf
 4446 0b5d 20       		.uleb128 0x20
 4447 0b5e 61726700 		.ascii	"arg\000"
 4448 0b62 01       		.byte	0x1
 4449 0b63 2502     		.2byte	0x225
 4450 0b65 DF020000 		.4byte	0x2df
 4451 0b69 00000000 		.4byte	.LLST0
 4452 0b6d 21       		.uleb128 0x21
 4453 0b6e F7020000 		.4byte	.LASF176
 4454 0b72 01       		.byte	0x1
 4455 0b73 2602     		.2byte	0x226
 4456 0b75 6F010000 		.4byte	0x16f
 4457 0b79 01       		.uleb128 0x1
 4458 0b7a 54       		.byte	0x54
 4459 0b7b 22       		.uleb128 0x22
ARM GAS  C:\Users\srich\AppData\Local\Temp\ccv3JVxh.s 			page 80


 4460 0b7c 10000000 		.4byte	.LBB86
 4461 0b80 10000000 		.4byte	.LBE86-.LBB86
 4462 0b84 23       		.uleb128 0x23
 4463 0b85 3A090000 		.4byte	.LASF177
 4464 0b89 01       		.byte	0x1
 4465 0b8a 2D02     		.2byte	0x22d
 4466 0b8c CE000000 		.4byte	0xce
 4467 0b90 21000000 		.4byte	.LLST1
 4468 0b94 24       		.uleb128 0x24
 4469 0b95 14000000 		.4byte	.LVL3
 4470 0b99 F62A0000 		.4byte	0x2af6
 4471 0b9d 25       		.uleb128 0x25
 4472 0b9e 20000000 		.4byte	.LVL6
 4473 0ba2 012B0000 		.4byte	0x2b01
 4474 0ba6 26       		.uleb128 0x26
 4475 0ba7 01       		.uleb128 0x1
 4476 0ba8 50       		.byte	0x50
 4477 0ba9 02       		.uleb128 0x2
 4478 0baa 74       		.byte	0x74
 4479 0bab 00       		.sleb128 0
 4480 0bac 00       		.byte	0
 4481 0bad 00       		.byte	0
 4482 0bae 00       		.byte	0
 4483 0baf 27       		.uleb128 0x27
 4484 0bb0 2F040000 		.4byte	.LASF256
 4485 0bb4 02       		.byte	0x2
 4486 0bb5 45       		.byte	0x45
 4487 0bb6 00000000 		.4byte	.LFB118
 4488 0bba 1C000000 		.4byte	.LFE118-.LFB118
 4489 0bbe 01       		.uleb128 0x1
 4490 0bbf 9C       		.byte	0x9c
 4491 0bc0 0E0C0000 		.4byte	0xc0e
 4492 0bc4 28       		.uleb128 0x28
 4493 0bc5 63687000 		.ascii	"chp\000"
 4494 0bc9 02       		.byte	0x2
 4495 0bca 45       		.byte	0x45
 4496 0bcb 0E0C0000 		.4byte	0xc0e
 4497 0bcf 34000000 		.4byte	.LLST2
 4498 0bd3 29       		.uleb128 0x29
 4499 0bd4 666D7400 		.ascii	"fmt\000"
 4500 0bd8 02       		.byte	0x2
 4501 0bd9 45       		.byte	0x45
 4502 0bda 22050000 		.4byte	0x522
 4503 0bde 02       		.uleb128 0x2
 4504 0bdf 91       		.byte	0x91
 4505 0be0 74       		.sleb128 -12
 4506 0be1 2A       		.uleb128 0x2a
 4507 0be2 2B       		.uleb128 0x2b
 4508 0be3 617000   		.ascii	"ap\000"
 4509 0be6 02       		.byte	0x2
 4510 0be7 46       		.byte	0x46
 4511 0be8 B80A0000 		.4byte	0xab8
 4512 0bec 02       		.uleb128 0x2
 4513 0bed 91       		.byte	0x91
 4514 0bee 6C       		.sleb128 -20
 4515 0bef 25       		.uleb128 0x25
 4516 0bf0 12000000 		.4byte	.LVL8
ARM GAS  C:\Users\srich\AppData\Local\Temp\ccv3JVxh.s 			page 81


 4517 0bf4 132B0000 		.4byte	0x2b13
 4518 0bf8 26       		.uleb128 0x26
 4519 0bf9 01       		.uleb128 0x1
 4520 0bfa 52       		.byte	0x52
 4521 0bfb 02       		.uleb128 0x2
 4522 0bfc 91       		.byte	0x91
 4523 0bfd 60       		.sleb128 -32
 4524 0bfe 26       		.uleb128 0x26
 4525 0bff 01       		.uleb128 0x1
 4526 0c00 51       		.byte	0x51
 4527 0c01 03       		.uleb128 0x3
 4528 0c02 91       		.byte	0x91
 4529 0c03 5C       		.sleb128 -36
 4530 0c04 06       		.byte	0x6
 4531 0c05 26       		.uleb128 0x26
 4532 0c06 01       		.uleb128 0x1
 4533 0c07 50       		.byte	0x50
 4534 0c08 03       		.uleb128 0x3
 4535 0c09 F3       		.byte	0xf3
 4536 0c0a 01       		.uleb128 0x1
 4537 0c0b 50       		.byte	0x50
 4538 0c0c 00       		.byte	0
 4539 0c0d 00       		.byte	0
 4540 0c0e 09       		.uleb128 0x9
 4541 0c0f 04       		.byte	0x4
 4542 0c10 30060000 		.4byte	0x630
 4543 0c14 2C       		.uleb128 0x2c
 4544 0c15 F80A0000 		.4byte	0xaf8
 4545 0c19 00000000 		.4byte	.LFB119
 4546 0c1d 1A000000 		.4byte	.LFE119-.LFB119
 4547 0c21 01       		.uleb128 0x1
 4548 0c22 9C       		.byte	0x9c
 4549 0c23 750C0000 		.4byte	0xc75
 4550 0c27 2D       		.uleb128 0x2d
 4551 0c28 040B0000 		.4byte	0xb04
 4552 0c2c 55000000 		.4byte	.LLST3
 4553 0c30 2D       		.uleb128 0x2d
 4554 0c31 0F0B0000 		.4byte	0xb0f
 4555 0c35 81000000 		.4byte	.LLST4
 4556 0c39 2D       		.uleb128 0x2d
 4557 0c3a 180B0000 		.4byte	0xb18
 4558 0c3e B8000000 		.4byte	.LLST5
 4559 0c42 2E       		.uleb128 0x2e
 4560 0c43 0E000000 		.4byte	.LVL12
 4561 0c47 2E2B0000 		.4byte	0x2b2e
 4562 0c4b 5C0C0000 		.4byte	0xc5c
 4563 0c4f 26       		.uleb128 0x26
 4564 0c50 01       		.uleb128 0x1
 4565 0c51 51       		.byte	0x51
 4566 0c52 03       		.uleb128 0x3
 4567 0c53 F3       		.byte	0xf3
 4568 0c54 01       		.uleb128 0x1
 4569 0c55 50       		.byte	0x50
 4570 0c56 26       		.uleb128 0x26
 4571 0c57 01       		.uleb128 0x1
 4572 0c58 50       		.byte	0x50
 4573 0c59 01       		.uleb128 0x1
ARM GAS  C:\Users\srich\AppData\Local\Temp\ccv3JVxh.s 			page 82


 4574 0c5a 30       		.byte	0x30
 4575 0c5b 00       		.byte	0
 4576 0c5c 2F       		.uleb128 0x2f
 4577 0c5d 1A000000 		.4byte	.LVL14
 4578 0c61 482B0000 		.4byte	0x2b48
 4579 0c65 26       		.uleb128 0x26
 4580 0c66 01       		.uleb128 0x1
 4581 0c67 51       		.byte	0x51
 4582 0c68 03       		.uleb128 0x3
 4583 0c69 F3       		.byte	0xf3
 4584 0c6a 01       		.uleb128 0x1
 4585 0c6b 52       		.byte	0x52
 4586 0c6c 26       		.uleb128 0x26
 4587 0c6d 01       		.uleb128 0x1
 4588 0c6e 50       		.byte	0x50
 4589 0c6f 03       		.uleb128 0x3
 4590 0c70 F3       		.byte	0xf3
 4591 0c71 01       		.uleb128 0x1
 4592 0c72 51       		.byte	0x51
 4593 0c73 00       		.byte	0
 4594 0c74 00       		.byte	0
 4595 0c75 2C       		.uleb128 0x2c
 4596 0c76 C30A0000 		.4byte	0xac3
 4597 0c7a 00000000 		.4byte	.LFB120
 4598 0c7e 1E000000 		.4byte	.LFE120-.LFB120
 4599 0c82 01       		.uleb128 0x1
 4600 0c83 9C       		.byte	0x9c
 4601 0c84 E60C0000 		.4byte	0xce6
 4602 0c88 2D       		.uleb128 0x2d
 4603 0c89 CF0A0000 		.4byte	0xacf
 4604 0c8d EF000000 		.4byte	.LLST6
 4605 0c91 2D       		.uleb128 0x2d
 4606 0c92 DA0A0000 		.4byte	0xada
 4607 0c96 1B010000 		.4byte	.LLST7
 4608 0c9a 2D       		.uleb128 0x2d
 4609 0c9b E30A0000 		.4byte	0xae3
 4610 0c9f 52010000 		.4byte	.LLST8
 4611 0ca3 2D       		.uleb128 0x2d
 4612 0ca4 EC0A0000 		.4byte	0xaec
 4613 0ca8 89010000 		.4byte	.LLST9
 4614 0cac 2E       		.uleb128 0x2e
 4615 0cad 10000000 		.4byte	.LVL18
 4616 0cb1 2E2B0000 		.4byte	0x2b2e
 4617 0cb5 C60C0000 		.4byte	0xcc6
 4618 0cb9 26       		.uleb128 0x26
 4619 0cba 01       		.uleb128 0x1
 4620 0cbb 51       		.byte	0x51
 4621 0cbc 03       		.uleb128 0x3
 4622 0cbd F3       		.byte	0xf3
 4623 0cbe 01       		.uleb128 0x1
 4624 0cbf 50       		.byte	0x50
 4625 0cc0 26       		.uleb128 0x26
 4626 0cc1 01       		.uleb128 0x1
 4627 0cc2 50       		.byte	0x50
 4628 0cc3 01       		.uleb128 0x1
 4629 0cc4 30       		.byte	0x30
 4630 0cc5 00       		.byte	0
ARM GAS  C:\Users\srich\AppData\Local\Temp\ccv3JVxh.s 			page 83


 4631 0cc6 2F       		.uleb128 0x2f
 4632 0cc7 1E000000 		.4byte	.LVL20
 4633 0ccb 5E2B0000 		.4byte	0x2b5e
 4634 0ccf 26       		.uleb128 0x26
 4635 0cd0 01       		.uleb128 0x1
 4636 0cd1 52       		.byte	0x52
 4637 0cd2 03       		.uleb128 0x3
 4638 0cd3 F3       		.byte	0xf3
 4639 0cd4 01       		.uleb128 0x1
 4640 0cd5 53       		.byte	0x53
 4641 0cd6 26       		.uleb128 0x26
 4642 0cd7 01       		.uleb128 0x1
 4643 0cd8 51       		.byte	0x51
 4644 0cd9 03       		.uleb128 0x3
 4645 0cda F3       		.byte	0xf3
 4646 0cdb 01       		.uleb128 0x1
 4647 0cdc 52       		.byte	0x52
 4648 0cdd 26       		.uleb128 0x26
 4649 0cde 01       		.uleb128 0x1
 4650 0cdf 50       		.byte	0x50
 4651 0ce0 03       		.uleb128 0x3
 4652 0ce1 F3       		.byte	0xf3
 4653 0ce2 01       		.uleb128 0x1
 4654 0ce3 51       		.byte	0x51
 4655 0ce4 00       		.byte	0
 4656 0ce5 00       		.byte	0
 4657 0ce6 30       		.uleb128 0x30
 4658 0ce7 88040000 		.4byte	.LASF257
 4659 0ceb 01       		.byte	0x1
 4660 0cec 3A       		.byte	0x3a
 4661 0ced 33000000 		.4byte	0x33
 4662 0cf1 00000000 		.4byte	.LFB121
 4663 0cf5 7C000000 		.4byte	.LFE121-.LFB121
 4664 0cf9 01       		.uleb128 0x1
 4665 0cfa 9C       		.byte	0x9c
 4666 0cfb 660D0000 		.4byte	0xd66
 4667 0cff 31       		.uleb128 0x31
 4668 0d00 23030000 		.4byte	.LASF178
 4669 0d04 01       		.byte	0x1
 4670 0d05 3A       		.byte	0x3a
 4671 0d06 33000000 		.4byte	0x33
 4672 0d0a C0010000 		.4byte	.LLST10
 4673 0d0e 28       		.uleb128 0x28
 4674 0d0f 62636400 		.ascii	"bcd\000"
 4675 0d13 01       		.byte	0x1
 4676 0d14 3A       		.byte	0x3a
 4677 0d15 1B080000 		.4byte	0x81b
 4678 0d19 F3030000 		.4byte	.LLST11
 4679 0d1d 32       		.uleb128 0x32
 4680 0d1e 35080000 		.4byte	.LASF179
 4681 0d22 01       		.byte	0x1
 4682 0d23 3B       		.byte	0x3b
 4683 0d24 33000000 		.4byte	0x33
 4684 0d28 2C040000 		.4byte	.LLST12
 4685 0d2c 32       		.uleb128 0x32
 4686 0d2d 67030000 		.4byte	.LASF180
 4687 0d31 01       		.byte	0x1
ARM GAS  C:\Users\srich\AppData\Local\Temp\ccv3JVxh.s 			page 84


 4688 0d32 3C       		.byte	0x3c
 4689 0d33 33000000 		.4byte	0x33
 4690 0d37 0F050000 		.4byte	.LLST13
 4691 0d3b 33       		.uleb128 0x33
 4692 0d3c 78313000 		.ascii	"x10\000"
 4693 0d40 01       		.byte	0x1
 4694 0d41 3D       		.byte	0x3d
 4695 0d42 33000000 		.4byte	0x33
 4696 0d46 22060000 		.4byte	.LLST14
 4697 0d4a 33       		.uleb128 0x33
 4698 0d4b 783100   		.ascii	"x1\000"
 4699 0d4e 01       		.byte	0x1
 4700 0d4f 3E       		.byte	0x3e
 4701 0d50 33000000 		.4byte	0x33
 4702 0d54 41060000 		.4byte	.LLST15
 4703 0d58 33       		.uleb128 0x33
 4704 0d59 6900     		.ascii	"i\000"
 4705 0d5b 01       		.byte	0x1
 4706 0d5c 4D       		.byte	0x4d
 4707 0d5d 33000000 		.4byte	0x33
 4708 0d61 6A080000 		.4byte	.LLST16
 4709 0d65 00       		.byte	0
 4710 0d66 34       		.uleb128 0x34
 4711 0d67 FC040000 		.4byte	.LASF186
 4712 0d6b 01       		.byte	0x1
 4713 0d6c 52       		.byte	0x52
 4714 0d6d 00000000 		.4byte	.LFB122
 4715 0d71 B4000000 		.4byte	.LFE122-.LFB122
 4716 0d75 01       		.uleb128 0x1
 4717 0d76 9C       		.byte	0x9c
 4718 0d77 710F0000 		.4byte	0xf71
 4719 0d7b 31       		.uleb128 0x31
 4720 0d7c ED040000 		.4byte	.LASF172
 4721 0d80 01       		.byte	0x1
 4722 0d81 52       		.byte	0x52
 4723 0d82 33000000 		.4byte	0x33
 4724 0d86 A0080000 		.4byte	.LLST17
 4725 0d8a 28       		.uleb128 0x28
 4726 0d8b 7800     		.ascii	"x\000"
 4727 0d8d 01       		.byte	0x1
 4728 0d8e 52       		.byte	0x52
 4729 0d8f 33000000 		.4byte	0x33
 4730 0d93 BE080000 		.4byte	.LLST18
 4731 0d97 28       		.uleb128 0x28
 4732 0d98 7900     		.ascii	"y\000"
 4733 0d9a 01       		.byte	0x1
 4734 0d9b 52       		.byte	0x52
 4735 0d9c 33000000 		.4byte	0x33
 4736 0da0 DC080000 		.4byte	.LLST19
 4737 0da4 31       		.uleb128 0x31
 4738 0da5 23090000 		.4byte	.LASF181
 4739 0da9 01       		.byte	0x1
 4740 0daa 52       		.byte	0x52
 4741 0dab 33000000 		.4byte	0x33
 4742 0daf 29090000 		.4byte	.LLST20
 4743 0db3 31       		.uleb128 0x31
 4744 0db4 23030000 		.4byte	.LASF178
ARM GAS  C:\Users\srich\AppData\Local\Temp\ccv3JVxh.s 			page 85


 4745 0db8 01       		.byte	0x1
 4746 0db9 52       		.byte	0x52
 4747 0dba E4000000 		.4byte	0xe4
 4748 0dbe 47090000 		.4byte	.LLST21
 4749 0dc2 31       		.uleb128 0x31
 4750 0dc3 14040000 		.4byte	.LASF182
 4751 0dc7 01       		.byte	0x1
 4752 0dc8 52       		.byte	0x52
 4753 0dc9 2D050000 		.4byte	0x52d
 4754 0dcd 67090000 		.4byte	.LLST22
 4755 0dd1 31       		.uleb128 0x31
 4756 0dd2 88020000 		.4byte	.LASF183
 4757 0dd6 01       		.byte	0x1
 4758 0dd7 52       		.byte	0x52
 4759 0dd8 2D050000 		.4byte	0x52d
 4760 0ddc 87090000 		.4byte	.LLST23
 4761 0de0 32       		.uleb128 0x32
 4762 0de1 76090000 		.4byte	.LASF184
 4763 0de5 01       		.byte	0x1
 4764 0de6 53       		.byte	0x53
 4765 0de7 33000000 		.4byte	0x33
 4766 0deb A7090000 		.4byte	.LLST24
 4767 0def 2B       		.uleb128 0x2b
 4768 0df0 62636400 		.ascii	"bcd\000"
 4769 0df4 01       		.byte	0x1
 4770 0df5 54       		.byte	0x54
 4771 0df6 5A050000 		.4byte	0x55a
 4772 0dfa 02       		.uleb128 0x2
 4773 0dfb 91       		.byte	0x91
 4774 0dfc 54       		.sleb128 -44
 4775 0dfd 32       		.uleb128 0x32
 4776 0dfe E4020000 		.4byte	.LASF185
 4777 0e02 01       		.byte	0x1
 4778 0e03 55       		.byte	0x55
 4779 0e04 33000000 		.4byte	0x33
 4780 0e08 DE090000 		.4byte	.LLST25
 4781 0e0c 33       		.uleb128 0x33
 4782 0e0d 6900     		.ascii	"i\000"
 4783 0e0f 01       		.byte	0x1
 4784 0e10 57       		.byte	0x57
 4785 0e11 33000000 		.4byte	0x33
 4786 0e15 080A0000 		.4byte	.LLST26
 4787 0e19 35       		.uleb128 0x35
 4788 0e1a C30A0000 		.4byte	0xac3
 4789 0e1e 3C000000 		.4byte	.LBB87
 4790 0e22 12000000 		.4byte	.LBE87-.LBB87
 4791 0e26 01       		.byte	0x1
 4792 0e27 5A       		.byte	0x5a
 4793 0e28 860E0000 		.4byte	0xe86
 4794 0e2c 2D       		.uleb128 0x2d
 4795 0e2d EC0A0000 		.4byte	0xaec
 4796 0e31 590A0000 		.4byte	.LLST27
 4797 0e35 2D       		.uleb128 0x2d
 4798 0e36 E30A0000 		.4byte	0xae3
 4799 0e3a 710A0000 		.4byte	.LLST28
 4800 0e3e 2D       		.uleb128 0x2d
 4801 0e3f DA0A0000 		.4byte	0xada
ARM GAS  C:\Users\srich\AppData\Local\Temp\ccv3JVxh.s 			page 86


 4802 0e43 840A0000 		.4byte	.LLST29
 4803 0e47 2D       		.uleb128 0x2d
 4804 0e48 CF0A0000 		.4byte	0xacf
 4805 0e4c 970A0000 		.4byte	.LLST30
 4806 0e50 2E       		.uleb128 0x2e
 4807 0e51 44000000 		.4byte	.LVL47
 4808 0e55 2E2B0000 		.4byte	0x2b2e
 4809 0e59 690E0000 		.4byte	0xe69
 4810 0e5d 26       		.uleb128 0x26
 4811 0e5e 01       		.uleb128 0x1
 4812 0e5f 51       		.byte	0x51
 4813 0e60 02       		.uleb128 0x2
 4814 0e61 77       		.byte	0x77
 4815 0e62 00       		.sleb128 0
 4816 0e63 26       		.uleb128 0x26
 4817 0e64 01       		.uleb128 0x1
 4818 0e65 50       		.byte	0x50
 4819 0e66 01       		.uleb128 0x1
 4820 0e67 30       		.byte	0x30
 4821 0e68 00       		.byte	0
 4822 0e69 25       		.uleb128 0x25
 4823 0e6a 4E000000 		.4byte	.LVL48
 4824 0e6e 5E2B0000 		.4byte	0x2b5e
 4825 0e72 26       		.uleb128 0x26
 4826 0e73 01       		.uleb128 0x1
 4827 0e74 52       		.byte	0x52
 4828 0e75 02       		.uleb128 0x2
 4829 0e76 75       		.byte	0x75
 4830 0e77 00       		.sleb128 0
 4831 0e78 26       		.uleb128 0x26
 4832 0e79 01       		.uleb128 0x1
 4833 0e7a 51       		.byte	0x51
 4834 0e7b 02       		.uleb128 0x2
 4835 0e7c 74       		.byte	0x74
 4836 0e7d 00       		.sleb128 0
 4837 0e7e 26       		.uleb128 0x26
 4838 0e7f 01       		.uleb128 0x1
 4839 0e80 50       		.byte	0x50
 4840 0e81 02       		.uleb128 0x2
 4841 0e82 78       		.byte	0x78
 4842 0e83 00       		.sleb128 0
 4843 0e84 00       		.byte	0
 4844 0e85 00       		.byte	0
 4845 0e86 35       		.uleb128 0x35
 4846 0e87 C30A0000 		.4byte	0xac3
 4847 0e8b 7E000000 		.4byte	.LBB89
 4848 0e8f 12000000 		.4byte	.LBE89-.LBB89
 4849 0e93 01       		.byte	0x1
 4850 0e94 66       		.byte	0x66
 4851 0e95 F30E0000 		.4byte	0xef3
 4852 0e99 2D       		.uleb128 0x2d
 4853 0e9a EC0A0000 		.4byte	0xaec
 4854 0e9e AA0A0000 		.4byte	.LLST31
 4855 0ea2 2D       		.uleb128 0x2d
 4856 0ea3 E30A0000 		.4byte	0xae3
 4857 0ea7 C20A0000 		.4byte	.LLST32
 4858 0eab 2D       		.uleb128 0x2d
ARM GAS  C:\Users\srich\AppData\Local\Temp\ccv3JVxh.s 			page 87


 4859 0eac DA0A0000 		.4byte	0xada
 4860 0eb0 D50A0000 		.4byte	.LLST33
 4861 0eb4 2D       		.uleb128 0x2d
 4862 0eb5 CF0A0000 		.4byte	0xacf
 4863 0eb9 E80A0000 		.4byte	.LLST34
 4864 0ebd 2E       		.uleb128 0x2e
 4865 0ebe 86000000 		.4byte	.LVL57
 4866 0ec2 2E2B0000 		.4byte	0x2b2e
 4867 0ec6 D60E0000 		.4byte	0xed6
 4868 0eca 26       		.uleb128 0x26
 4869 0ecb 01       		.uleb128 0x1
 4870 0ecc 51       		.byte	0x51
 4871 0ecd 02       		.uleb128 0x2
 4872 0ece 77       		.byte	0x77
 4873 0ecf 00       		.sleb128 0
 4874 0ed0 26       		.uleb128 0x26
 4875 0ed1 01       		.uleb128 0x1
 4876 0ed2 50       		.byte	0x50
 4877 0ed3 01       		.uleb128 0x1
 4878 0ed4 30       		.byte	0x30
 4879 0ed5 00       		.byte	0
 4880 0ed6 25       		.uleb128 0x25
 4881 0ed7 90000000 		.4byte	.LVL58
 4882 0edb 5E2B0000 		.4byte	0x2b5e
 4883 0edf 26       		.uleb128 0x26
 4884 0ee0 01       		.uleb128 0x1
 4885 0ee1 52       		.byte	0x52
 4886 0ee2 02       		.uleb128 0x2
 4887 0ee3 7A       		.byte	0x7a
 4888 0ee4 00       		.sleb128 0
 4889 0ee5 26       		.uleb128 0x26
 4890 0ee6 01       		.uleb128 0x1
 4891 0ee7 51       		.byte	0x51
 4892 0ee8 02       		.uleb128 0x2
 4893 0ee9 79       		.byte	0x79
 4894 0eea 00       		.sleb128 0
 4895 0eeb 26       		.uleb128 0x26
 4896 0eec 01       		.uleb128 0x1
 4897 0eed 50       		.byte	0x50
 4898 0eee 02       		.uleb128 0x2
 4899 0eef 78       		.byte	0x78
 4900 0ef0 00       		.sleb128 0
 4901 0ef1 00       		.byte	0
 4902 0ef2 00       		.byte	0
 4903 0ef3 35       		.uleb128 0x35
 4904 0ef4 C30A0000 		.4byte	0xac3
 4905 0ef8 9E000000 		.4byte	.LBB91
 4906 0efc 16000000 		.4byte	.LBE91-.LBB91
 4907 0f00 01       		.byte	0x1
 4908 0f01 60       		.byte	0x60
 4909 0f02 5A0F0000 		.4byte	0xf5a
 4910 0f06 36       		.uleb128 0x36
 4911 0f07 EC0A0000 		.4byte	0xaec
 4912 0f0b 00       		.byte	0
 4913 0f0c 37       		.uleb128 0x37
 4914 0f0d E30A0000 		.4byte	0xae3
 4915 0f11 02       		.uleb128 0x2
ARM GAS  C:\Users\srich\AppData\Local\Temp\ccv3JVxh.s 			page 88


 4916 0f12 7D       		.byte	0x7d
 4917 0f13 00       		.sleb128 0
 4918 0f14 37       		.uleb128 0x37
 4919 0f15 DA0A0000 		.4byte	0xada
 4920 0f19 01       		.uleb128 0x1
 4921 0f1a 58       		.byte	0x58
 4922 0f1b 37       		.uleb128 0x37
 4923 0f1c CF0A0000 		.4byte	0xacf
 4924 0f20 01       		.uleb128 0x1
 4925 0f21 57       		.byte	0x57
 4926 0f22 2E       		.uleb128 0x2e
 4927 0f23 A8000000 		.4byte	.LVL63
 4928 0f27 2E2B0000 		.4byte	0x2b2e
 4929 0f2b 3C0F0000 		.4byte	0xf3c
 4930 0f2f 26       		.uleb128 0x26
 4931 0f30 01       		.uleb128 0x1
 4932 0f31 51       		.byte	0x51
 4933 0f32 02       		.uleb128 0x2
 4934 0f33 77       		.byte	0x77
 4935 0f34 00       		.sleb128 0
 4936 0f35 26       		.uleb128 0x26
 4937 0f36 01       		.uleb128 0x1
 4938 0f37 50       		.byte	0x50
 4939 0f38 02       		.uleb128 0x2
 4940 0f39 74       		.byte	0x74
 4941 0f3a 00       		.sleb128 0
 4942 0f3b 00       		.byte	0
 4943 0f3c 25       		.uleb128 0x25
 4944 0f3d B2000000 		.4byte	.LVL64
 4945 0f41 5E2B0000 		.4byte	0x2b5e
 4946 0f45 26       		.uleb128 0x26
 4947 0f46 01       		.uleb128 0x1
 4948 0f47 52       		.byte	0x52
 4949 0f48 02       		.uleb128 0x2
 4950 0f49 74       		.byte	0x74
 4951 0f4a 00       		.sleb128 0
 4952 0f4b 26       		.uleb128 0x26
 4953 0f4c 01       		.uleb128 0x1
 4954 0f4d 51       		.byte	0x51
 4955 0f4e 03       		.uleb128 0x3
 4956 0f4f 7D       		.byte	0x7d
 4957 0f50 00       		.sleb128 0
 4958 0f51 06       		.byte	0x6
 4959 0f52 26       		.uleb128 0x26
 4960 0f53 01       		.uleb128 0x1
 4961 0f54 50       		.byte	0x50
 4962 0f55 02       		.uleb128 0x2
 4963 0f56 78       		.byte	0x78
 4964 0f57 00       		.sleb128 0
 4965 0f58 00       		.byte	0
 4966 0f59 00       		.byte	0
 4967 0f5a 25       		.uleb128 0x25
 4968 0f5b 26000000 		.4byte	.LVL44
 4969 0f5f E60C0000 		.4byte	0xce6
 4970 0f63 26       		.uleb128 0x26
 4971 0f64 01       		.uleb128 0x1
 4972 0f65 51       		.byte	0x51
ARM GAS  C:\Users\srich\AppData\Local\Temp\ccv3JVxh.s 			page 89


 4973 0f66 02       		.uleb128 0x2
 4974 0f67 91       		.byte	0x91
 4975 0f68 54       		.sleb128 -44
 4976 0f69 26       		.uleb128 0x26
 4977 0f6a 01       		.uleb128 0x1
 4978 0f6b 50       		.byte	0x50
 4979 0f6c 02       		.uleb128 0x2
 4980 0f6d 74       		.byte	0x74
 4981 0f6e 00       		.sleb128 0
 4982 0f6f 00       		.byte	0
 4983 0f70 00       		.byte	0
 4984 0f71 38       		.uleb128 0x38
 4985 0f72 840B0000 		.4byte	.LASF194
 4986 0f76 01       		.byte	0x1
 4987 0f77 6C       		.byte	0x6c
 4988 0f78 00000000 		.4byte	.LFB123
 4989 0f7c 0C030000 		.4byte	.LFE123-.LFB123
 4990 0f80 01       		.uleb128 0x1
 4991 0f81 9C       		.byte	0x9c
 4992 0f82 861B0000 		.4byte	0x1b86
 4993 0f86 35       		.uleb128 0x35
 4994 0f87 C30A0000 		.4byte	0xac3
 4995 0f8b 18000000 		.4byte	.LBB93
 4996 0f8f 14000000 		.4byte	.LBE93-.LBB93
 4997 0f93 01       		.byte	0x1
 4998 0f94 71       		.byte	0x71
 4999 0f95 F50F0000 		.4byte	0xff5
 5000 0f99 2D       		.uleb128 0x2d
 5001 0f9a EC0A0000 		.4byte	0xaec
 5002 0f9e FB0A0000 		.4byte	.LLST35
 5003 0fa2 2D       		.uleb128 0x2d
 5004 0fa3 E30A0000 		.4byte	0xae3
 5005 0fa7 FB0A0000 		.4byte	.LLST35
 5006 0fab 2D       		.uleb128 0x2d
 5007 0fac DA0A0000 		.4byte	0xada
 5008 0fb0 0F0B0000 		.4byte	.LLST37
 5009 0fb4 2D       		.uleb128 0x2d
 5010 0fb5 CF0A0000 		.4byte	0xacf
 5011 0fb9 240B0000 		.4byte	.LLST38
 5012 0fbd 2E       		.uleb128 0x2e
 5013 0fbe 22000000 		.4byte	.LVL67
 5014 0fc2 2E2B0000 		.4byte	0x2b2e
 5015 0fc6 D80F0000 		.4byte	0xfd8
 5016 0fca 26       		.uleb128 0x26
 5017 0fcb 01       		.uleb128 0x1
 5018 0fcc 51       		.byte	0x51
 5019 0fcd 03       		.uleb128 0x3
 5020 0fce 0A       		.byte	0xa
 5021 0fcf 4115     		.2byte	0x1541
 5022 0fd1 26       		.uleb128 0x26
 5023 0fd2 01       		.uleb128 0x1
 5024 0fd3 50       		.byte	0x50
 5025 0fd4 02       		.uleb128 0x2
 5026 0fd5 74       		.byte	0x74
 5027 0fd6 00       		.sleb128 0
 5028 0fd7 00       		.byte	0
 5029 0fd8 25       		.uleb128 0x25
ARM GAS  C:\Users\srich\AppData\Local\Temp\ccv3JVxh.s 			page 90


 5030 0fd9 2C000000 		.4byte	.LVL68
 5031 0fdd 5E2B0000 		.4byte	0x2b5e
 5032 0fe1 26       		.uleb128 0x26
 5033 0fe2 01       		.uleb128 0x1
 5034 0fe3 52       		.byte	0x52
 5035 0fe4 02       		.uleb128 0x2
 5036 0fe5 74       		.byte	0x74
 5037 0fe6 00       		.sleb128 0
 5038 0fe7 26       		.uleb128 0x26
 5039 0fe8 01       		.uleb128 0x1
 5040 0fe9 51       		.byte	0x51
 5041 0fea 02       		.uleb128 0x2
 5042 0feb 74       		.byte	0x74
 5043 0fec 00       		.sleb128 0
 5044 0fed 26       		.uleb128 0x26
 5045 0fee 01       		.uleb128 0x1
 5046 0fef 50       		.byte	0x50
 5047 0ff0 02       		.uleb128 0x2
 5048 0ff1 08       		.byte	0x8
 5049 0ff2 A2       		.byte	0xa2
 5050 0ff3 00       		.byte	0
 5051 0ff4 00       		.byte	0
 5052 0ff5 35       		.uleb128 0x35
 5053 0ff6 F80A0000 		.4byte	0xaf8
 5054 0ffa 44000000 		.4byte	.LBB95
 5055 0ffe 12000000 		.4byte	.LBE95-.LBB95
 5056 1002 01       		.byte	0x1
 5057 1003 75       		.byte	0x75
 5058 1004 55100000 		.4byte	0x1055
 5059 1008 2D       		.uleb128 0x2d
 5060 1009 180B0000 		.4byte	0xb18
 5061 100d 3A0B0000 		.4byte	.LLST39
 5062 1011 2D       		.uleb128 0x2d
 5063 1012 0F0B0000 		.4byte	0xb0f
 5064 1016 4F0B0000 		.4byte	.LLST40
 5065 101a 2D       		.uleb128 0x2d
 5066 101b 040B0000 		.4byte	0xb04
 5067 101f 640B0000 		.4byte	.LLST41
 5068 1023 2E       		.uleb128 0x2e
 5069 1024 4E000000 		.4byte	.LVL70
 5070 1028 2E2B0000 		.4byte	0x2b2e
 5071 102c 3E100000 		.4byte	0x103e
 5072 1030 26       		.uleb128 0x26
 5073 1031 01       		.uleb128 0x1
 5074 1032 51       		.byte	0x51
 5075 1033 03       		.uleb128 0x3
 5076 1034 0A       		.byte	0xa
 5077 1035 8D48     		.2byte	0x488d
 5078 1037 26       		.uleb128 0x26
 5079 1038 01       		.uleb128 0x1
 5080 1039 50       		.byte	0x50
 5081 103a 02       		.uleb128 0x2
 5082 103b 74       		.byte	0x74
 5083 103c 00       		.sleb128 0
 5084 103d 00       		.byte	0
 5085 103e 25       		.uleb128 0x25
 5086 103f 56000000 		.4byte	.LVL71
ARM GAS  C:\Users\srich\AppData\Local\Temp\ccv3JVxh.s 			page 91


 5087 1043 482B0000 		.4byte	0x2b48
 5088 1047 26       		.uleb128 0x26
 5089 1048 01       		.uleb128 0x1
 5090 1049 51       		.byte	0x51
 5091 104a 02       		.uleb128 0x2
 5092 104b 08       		.byte	0x8
 5093 104c E2       		.byte	0xe2
 5094 104d 26       		.uleb128 0x26
 5095 104e 01       		.uleb128 0x1
 5096 104f 50       		.byte	0x50
 5097 1050 02       		.uleb128 0x2
 5098 1051 08       		.byte	0x8
 5099 1052 CF       		.byte	0xcf
 5100 1053 00       		.byte	0
 5101 1054 00       		.byte	0
 5102 1055 35       		.uleb128 0x35
 5103 1056 C30A0000 		.4byte	0xac3
 5104 105a 56000000 		.4byte	.LBB97
 5105 105e 16000000 		.4byte	.LBE97-.LBB97
 5106 1062 01       		.byte	0x1
 5107 1063 78       		.byte	0x78
 5108 1064 B8100000 		.4byte	0x10b8
 5109 1068 36       		.uleb128 0x36
 5110 1069 EC0A0000 		.4byte	0xaec
 5111 106d 00       		.byte	0
 5112 106e 36       		.uleb128 0x36
 5113 106f E30A0000 		.4byte	0xae3
 5114 1073 04       		.byte	0x4
 5115 1074 39       		.uleb128 0x39
 5116 1075 DA0A0000 		.4byte	0xada
 5117 1079 B201     		.2byte	0x1b2
 5118 107b 39       		.uleb128 0x39
 5119 107c CF0A0000 		.4byte	0xacf
 5120 1080 1814     		.2byte	0x1418
 5121 1082 2E       		.uleb128 0x2e
 5122 1083 60000000 		.4byte	.LVL72
 5123 1087 2E2B0000 		.4byte	0x2b2e
 5124 108b 9C100000 		.4byte	0x109c
 5125 108f 26       		.uleb128 0x26
 5126 1090 01       		.uleb128 0x1
 5127 1091 51       		.byte	0x51
 5128 1092 03       		.uleb128 0x3
 5129 1093 0A       		.byte	0xa
 5130 1094 1814     		.2byte	0x1418
 5131 1096 26       		.uleb128 0x26
 5132 1097 01       		.uleb128 0x1
 5133 1098 50       		.byte	0x50
 5134 1099 01       		.uleb128 0x1
 5135 109a 30       		.byte	0x30
 5136 109b 00       		.byte	0
 5137 109c 25       		.uleb128 0x25
 5138 109d 6C000000 		.4byte	.LVL73
 5139 10a1 5E2B0000 		.4byte	0x2b5e
 5140 10a5 26       		.uleb128 0x26
 5141 10a6 01       		.uleb128 0x1
 5142 10a7 52       		.byte	0x52
 5143 10a8 01       		.uleb128 0x1
ARM GAS  C:\Users\srich\AppData\Local\Temp\ccv3JVxh.s 			page 92


 5144 10a9 30       		.byte	0x30
 5145 10aa 26       		.uleb128 0x26
 5146 10ab 01       		.uleb128 0x1
 5147 10ac 51       		.byte	0x51
 5148 10ad 01       		.uleb128 0x1
 5149 10ae 34       		.byte	0x34
 5150 10af 26       		.uleb128 0x26
 5151 10b0 01       		.uleb128 0x1
 5152 10b1 50       		.byte	0x50
 5153 10b2 03       		.uleb128 0x3
 5154 10b3 0A       		.byte	0xa
 5155 10b4 B201     		.2byte	0x1b2
 5156 10b6 00       		.byte	0
 5157 10b7 00       		.byte	0
 5158 10b8 35       		.uleb128 0x35
 5159 10b9 C30A0000 		.4byte	0xac3
 5160 10bd 6C000000 		.4byte	.LBB99
 5161 10c1 16000000 		.4byte	.LBE99-.LBB99
 5162 10c5 01       		.byte	0x1
 5163 10c6 7A       		.byte	0x7a
 5164 10c7 1C110000 		.4byte	0x111c
 5165 10cb 36       		.uleb128 0x36
 5166 10cc EC0A0000 		.4byte	0xaec
 5167 10d0 00       		.byte	0
 5168 10d1 36       		.uleb128 0x36
 5169 10d2 E30A0000 		.4byte	0xae3
 5170 10d6 EB       		.byte	0xeb
 5171 10d7 39       		.uleb128 0x39
 5172 10d8 DA0A0000 		.4byte	0xada
 5173 10dc B201     		.2byte	0x1b2
 5174 10de 39       		.uleb128 0x39
 5175 10df CF0A0000 		.4byte	0xacf
 5176 10e3 2314     		.2byte	0x1423
 5177 10e5 2E       		.uleb128 0x2e
 5178 10e6 76000000 		.4byte	.LVL74
 5179 10ea 2E2B0000 		.4byte	0x2b2e
 5180 10ee FF100000 		.4byte	0x10ff
 5181 10f2 26       		.uleb128 0x26
 5182 10f3 01       		.uleb128 0x1
 5183 10f4 51       		.byte	0x51
 5184 10f5 03       		.uleb128 0x3
 5185 10f6 0A       		.byte	0xa
 5186 10f7 2314     		.2byte	0x1423
 5187 10f9 26       		.uleb128 0x26
 5188 10fa 01       		.uleb128 0x1
 5189 10fb 50       		.byte	0x50
 5190 10fc 01       		.uleb128 0x1
 5191 10fd 30       		.byte	0x30
 5192 10fe 00       		.byte	0
 5193 10ff 25       		.uleb128 0x25
 5194 1100 82000000 		.4byte	.LVL75
 5195 1104 5E2B0000 		.4byte	0x2b5e
 5196 1108 26       		.uleb128 0x26
 5197 1109 01       		.uleb128 0x1
 5198 110a 52       		.byte	0x52
 5199 110b 01       		.uleb128 0x1
 5200 110c 30       		.byte	0x30
ARM GAS  C:\Users\srich\AppData\Local\Temp\ccv3JVxh.s 			page 93


 5201 110d 26       		.uleb128 0x26
 5202 110e 01       		.uleb128 0x1
 5203 110f 51       		.byte	0x51
 5204 1110 02       		.uleb128 0x2
 5205 1111 08       		.byte	0x8
 5206 1112 EB       		.byte	0xeb
 5207 1113 26       		.uleb128 0x26
 5208 1114 01       		.uleb128 0x1
 5209 1115 50       		.byte	0x50
 5210 1116 03       		.uleb128 0x3
 5211 1117 0A       		.byte	0xa
 5212 1118 B201     		.2byte	0x1b2
 5213 111a 00       		.byte	0
 5214 111b 00       		.byte	0
 5215 111c 35       		.uleb128 0x35
 5216 111d C30A0000 		.4byte	0xac3
 5217 1121 82000000 		.4byte	.LBB101
 5218 1125 16000000 		.4byte	.LBE101-.LBB101
 5219 1129 01       		.byte	0x1
 5220 112a 7C       		.byte	0x7c
 5221 112b 7F110000 		.4byte	0x117f
 5222 112f 36       		.uleb128 0x36
 5223 1130 EC0A0000 		.4byte	0xaec
 5224 1134 01       		.byte	0x1
 5225 1135 36       		.uleb128 0x36
 5226 1136 E30A0000 		.4byte	0xae3
 5227 113a 0A       		.byte	0xa
 5228 113b 39       		.uleb128 0x39
 5229 113c DA0A0000 		.4byte	0xada
 5230 1140 7C01     		.2byte	0x17c
 5231 1142 39       		.uleb128 0x39
 5232 1143 CF0A0000 		.4byte	0xacf
 5233 1147 F113     		.2byte	0x13f1
 5234 1149 2E       		.uleb128 0x2e
 5235 114a 8C000000 		.4byte	.LVL76
 5236 114e 2E2B0000 		.4byte	0x2b2e
 5237 1152 63110000 		.4byte	0x1163
 5238 1156 26       		.uleb128 0x26
 5239 1157 01       		.uleb128 0x1
 5240 1158 51       		.byte	0x51
 5241 1159 03       		.uleb128 0x3
 5242 115a 0A       		.byte	0xa
 5243 115b F113     		.2byte	0x13f1
 5244 115d 26       		.uleb128 0x26
 5245 115e 01       		.uleb128 0x1
 5246 115f 50       		.byte	0x50
 5247 1160 01       		.uleb128 0x1
 5248 1161 30       		.byte	0x30
 5249 1162 00       		.byte	0
 5250 1163 25       		.uleb128 0x25
 5251 1164 98000000 		.4byte	.LVL77
 5252 1168 5E2B0000 		.4byte	0x2b5e
 5253 116c 26       		.uleb128 0x26
 5254 116d 01       		.uleb128 0x1
 5255 116e 52       		.byte	0x52
 5256 116f 01       		.uleb128 0x1
 5257 1170 31       		.byte	0x31
ARM GAS  C:\Users\srich\AppData\Local\Temp\ccv3JVxh.s 			page 94


 5258 1171 26       		.uleb128 0x26
 5259 1172 01       		.uleb128 0x1
 5260 1173 51       		.byte	0x51
 5261 1174 01       		.uleb128 0x1
 5262 1175 3A       		.byte	0x3a
 5263 1176 26       		.uleb128 0x26
 5264 1177 01       		.uleb128 0x1
 5265 1178 50       		.byte	0x50
 5266 1179 03       		.uleb128 0x3
 5267 117a 0A       		.byte	0xa
 5268 117b 7C01     		.2byte	0x17c
 5269 117d 00       		.byte	0
 5270 117e 00       		.byte	0
 5271 117f 35       		.uleb128 0x35
 5272 1180 C30A0000 		.4byte	0xac3
 5273 1184 98000000 		.4byte	.LBB103
 5274 1188 16000000 		.4byte	.LBE103-.LBB103
 5275 118c 01       		.byte	0x1
 5276 118d 7E       		.byte	0x7e
 5277 118e E3110000 		.4byte	0x11e3
 5278 1192 36       		.uleb128 0x36
 5279 1193 EC0A0000 		.4byte	0xaec
 5280 1197 00       		.byte	0
 5281 1198 36       		.uleb128 0x36
 5282 1199 E30A0000 		.4byte	0xae3
 5283 119d D7       		.byte	0xd7
 5284 119e 39       		.uleb128 0x39
 5285 119f DA0A0000 		.4byte	0xada
 5286 11a3 8001     		.2byte	0x180
 5287 11a5 39       		.uleb128 0x39
 5288 11a6 CF0A0000 		.4byte	0xacf
 5289 11aa 2F15     		.2byte	0x152f
 5290 11ac 2E       		.uleb128 0x2e
 5291 11ad A2000000 		.4byte	.LVL78
 5292 11b1 2E2B0000 		.4byte	0x2b2e
 5293 11b5 C6110000 		.4byte	0x11c6
 5294 11b9 26       		.uleb128 0x26
 5295 11ba 01       		.uleb128 0x1
 5296 11bb 51       		.byte	0x51
 5297 11bc 03       		.uleb128 0x3
 5298 11bd 0A       		.byte	0xa
 5299 11be 2F15     		.2byte	0x152f
 5300 11c0 26       		.uleb128 0x26
 5301 11c1 01       		.uleb128 0x1
 5302 11c2 50       		.byte	0x50
 5303 11c3 01       		.uleb128 0x1
 5304 11c4 30       		.byte	0x30
 5305 11c5 00       		.byte	0
 5306 11c6 25       		.uleb128 0x25
 5307 11c7 AE000000 		.4byte	.LVL79
 5308 11cb 5E2B0000 		.4byte	0x2b5e
 5309 11cf 26       		.uleb128 0x26
 5310 11d0 01       		.uleb128 0x1
 5311 11d1 52       		.byte	0x52
 5312 11d2 01       		.uleb128 0x1
 5313 11d3 30       		.byte	0x30
 5314 11d4 26       		.uleb128 0x26
ARM GAS  C:\Users\srich\AppData\Local\Temp\ccv3JVxh.s 			page 95


 5315 11d5 01       		.uleb128 0x1
 5316 11d6 51       		.byte	0x51
 5317 11d7 02       		.uleb128 0x2
 5318 11d8 08       		.byte	0x8
 5319 11d9 D7       		.byte	0xd7
 5320 11da 26       		.uleb128 0x26
 5321 11db 01       		.uleb128 0x1
 5322 11dc 50       		.byte	0x50
 5323 11dd 03       		.uleb128 0x3
 5324 11de 0A       		.byte	0xa
 5325 11df 8001     		.2byte	0x180
 5326 11e1 00       		.byte	0
 5327 11e2 00       		.byte	0
 5328 11e3 35       		.uleb128 0x35
 5329 11e4 C30A0000 		.4byte	0xac3
 5330 11e8 AE000000 		.4byte	.LBB105
 5331 11ec 16000000 		.4byte	.LBE105-.LBB105
 5332 11f0 01       		.byte	0x1
 5333 11f1 80       		.byte	0x80
 5334 11f2 47120000 		.4byte	0x1247
 5335 11f6 36       		.uleb128 0x36
 5336 11f7 EC0A0000 		.4byte	0xaec
 5337 11fb 00       		.byte	0
 5338 11fc 36       		.uleb128 0x36
 5339 11fd E30A0000 		.4byte	0xae3
 5340 1201 98       		.byte	0x98
 5341 1202 39       		.uleb128 0x39
 5342 1203 DA0A0000 		.4byte	0xada
 5343 1207 7F01     		.2byte	0x17f
 5344 1209 39       		.uleb128 0x39
 5345 120a CF0A0000 		.4byte	0xacf
 5346 120e 0A14     		.2byte	0x140a
 5347 1210 2E       		.uleb128 0x2e
 5348 1211 B8000000 		.4byte	.LVL80
 5349 1215 2E2B0000 		.4byte	0x2b2e
 5350 1219 2A120000 		.4byte	0x122a
 5351 121d 26       		.uleb128 0x26
 5352 121e 01       		.uleb128 0x1
 5353 121f 51       		.byte	0x51
 5354 1220 03       		.uleb128 0x3
 5355 1221 0A       		.byte	0xa
 5356 1222 0A14     		.2byte	0x140a
 5357 1224 26       		.uleb128 0x26
 5358 1225 01       		.uleb128 0x1
 5359 1226 50       		.byte	0x50
 5360 1227 01       		.uleb128 0x1
 5361 1228 30       		.byte	0x30
 5362 1229 00       		.byte	0
 5363 122a 25       		.uleb128 0x25
 5364 122b C4000000 		.4byte	.LVL81
 5365 122f 5E2B0000 		.4byte	0x2b5e
 5366 1233 26       		.uleb128 0x26
 5367 1234 01       		.uleb128 0x1
 5368 1235 52       		.byte	0x52
 5369 1236 01       		.uleb128 0x1
 5370 1237 30       		.byte	0x30
 5371 1238 26       		.uleb128 0x26
ARM GAS  C:\Users\srich\AppData\Local\Temp\ccv3JVxh.s 			page 96


 5372 1239 01       		.uleb128 0x1
 5373 123a 51       		.byte	0x51
 5374 123b 02       		.uleb128 0x2
 5375 123c 08       		.byte	0x8
 5376 123d 98       		.byte	0x98
 5377 123e 26       		.uleb128 0x26
 5378 123f 01       		.uleb128 0x1
 5379 1240 50       		.byte	0x50
 5380 1241 03       		.uleb128 0x3
 5381 1242 0A       		.byte	0xa
 5382 1243 7F01     		.2byte	0x17f
 5383 1245 00       		.byte	0
 5384 1246 00       		.byte	0
 5385 1247 35       		.uleb128 0x35
 5386 1248 C30A0000 		.4byte	0xac3
 5387 124c C4000000 		.4byte	.LBB107
 5388 1250 14000000 		.4byte	.LBE107-.LBB107
 5389 1254 01       		.byte	0x1
 5390 1255 82       		.byte	0x82
 5391 1256 A8120000 		.4byte	0x12a8
 5392 125a 36       		.uleb128 0x36
 5393 125b EC0A0000 		.4byte	0xaec
 5394 125f 00       		.byte	0
 5395 1260 36       		.uleb128 0x36
 5396 1261 E30A0000 		.4byte	0xae3
 5397 1265 4E       		.byte	0x4e
 5398 1266 39       		.uleb128 0x39
 5399 1267 DA0A0000 		.4byte	0xada
 5400 126b 8001     		.2byte	0x180
 5401 126d 36       		.uleb128 0x36
 5402 126e CF0A0000 		.4byte	0xacf
 5403 1272 00       		.byte	0
 5404 1273 2E       		.uleb128 0x2e
 5405 1274 CC000000 		.4byte	.LVL82
 5406 1278 2E2B0000 		.4byte	0x2b2e
 5407 127c 8B120000 		.4byte	0x128b
 5408 1280 26       		.uleb128 0x26
 5409 1281 01       		.uleb128 0x1
 5410 1282 51       		.byte	0x51
 5411 1283 01       		.uleb128 0x1
 5412 1284 30       		.byte	0x30
 5413 1285 26       		.uleb128 0x26
 5414 1286 01       		.uleb128 0x1
 5415 1287 50       		.byte	0x50
 5416 1288 01       		.uleb128 0x1
 5417 1289 30       		.byte	0x30
 5418 128a 00       		.byte	0
 5419 128b 25       		.uleb128 0x25
 5420 128c D8000000 		.4byte	.LVL83
 5421 1290 5E2B0000 		.4byte	0x2b5e
 5422 1294 26       		.uleb128 0x26
 5423 1295 01       		.uleb128 0x1
 5424 1296 52       		.byte	0x52
 5425 1297 01       		.uleb128 0x1
 5426 1298 30       		.byte	0x30
 5427 1299 26       		.uleb128 0x26
 5428 129a 01       		.uleb128 0x1
ARM GAS  C:\Users\srich\AppData\Local\Temp\ccv3JVxh.s 			page 97


 5429 129b 51       		.byte	0x51
 5430 129c 02       		.uleb128 0x2
 5431 129d 08       		.byte	0x8
 5432 129e 4E       		.byte	0x4e
 5433 129f 26       		.uleb128 0x26
 5434 12a0 01       		.uleb128 0x1
 5435 12a1 50       		.byte	0x50
 5436 12a2 03       		.uleb128 0x3
 5437 12a3 0A       		.byte	0xa
 5438 12a4 8001     		.2byte	0x180
 5439 12a6 00       		.byte	0
 5440 12a7 00       		.byte	0
 5441 12a8 3A       		.uleb128 0x3a
 5442 12a9 C30A0000 		.4byte	0xac3
 5443 12ad D8000000 		.4byte	.LBB109
 5444 12b1 00000000 		.4byte	.Ldebug_ranges0+0
 5445 12b5 01       		.byte	0x1
 5446 12b6 84       		.byte	0x84
 5447 12b7 08130000 		.4byte	0x1308
 5448 12bb 36       		.uleb128 0x36
 5449 12bc EC0A0000 		.4byte	0xaec
 5450 12c0 00       		.byte	0
 5451 12c1 36       		.uleb128 0x36
 5452 12c2 E30A0000 		.4byte	0xae3
 5453 12c6 00       		.byte	0
 5454 12c7 36       		.uleb128 0x36
 5455 12c8 DA0A0000 		.4byte	0xada
 5456 12cc 05       		.byte	0x5
 5457 12cd 36       		.uleb128 0x36
 5458 12ce CF0A0000 		.4byte	0xacf
 5459 12d2 37       		.byte	0x37
 5460 12d3 2E       		.uleb128 0x2e
 5461 12d4 E0000000 		.4byte	.LVL84
 5462 12d8 2E2B0000 		.4byte	0x2b2e
 5463 12dc EC120000 		.4byte	0x12ec
 5464 12e0 26       		.uleb128 0x26
 5465 12e1 01       		.uleb128 0x1
 5466 12e2 51       		.byte	0x51
 5467 12e3 02       		.uleb128 0x2
 5468 12e4 08       		.byte	0x8
 5469 12e5 37       		.byte	0x37
 5470 12e6 26       		.uleb128 0x26
 5471 12e7 01       		.uleb128 0x1
 5472 12e8 50       		.byte	0x50
 5473 12e9 01       		.uleb128 0x1
 5474 12ea 30       		.byte	0x30
 5475 12eb 00       		.byte	0
 5476 12ec 25       		.uleb128 0x25
 5477 12ed EE000000 		.4byte	.LVL85
 5478 12f1 5E2B0000 		.4byte	0x2b5e
 5479 12f5 26       		.uleb128 0x26
 5480 12f6 01       		.uleb128 0x1
 5481 12f7 52       		.byte	0x52
 5482 12f8 02       		.uleb128 0x2
 5483 12f9 74       		.byte	0x74
 5484 12fa 00       		.sleb128 0
 5485 12fb 26       		.uleb128 0x26
ARM GAS  C:\Users\srich\AppData\Local\Temp\ccv3JVxh.s 			page 98


 5486 12fc 01       		.uleb128 0x1
 5487 12fd 51       		.byte	0x51
 5488 12fe 02       		.uleb128 0x2
 5489 12ff 74       		.byte	0x74
 5490 1300 00       		.sleb128 0
 5491 1301 26       		.uleb128 0x26
 5492 1302 01       		.uleb128 0x1
 5493 1303 50       		.byte	0x50
 5494 1304 01       		.uleb128 0x1
 5495 1305 35       		.byte	0x35
 5496 1306 00       		.byte	0
 5497 1307 00       		.byte	0
 5498 1308 35       		.uleb128 0x35
 5499 1309 F80A0000 		.4byte	0xaf8
 5500 130d 04010000 		.4byte	.LBB113
 5501 1311 14000000 		.4byte	.LBE113-.LBB113
 5502 1315 01       		.byte	0x1
 5503 1316 87       		.byte	0x87
 5504 1317 62130000 		.4byte	0x1362
 5505 131b 36       		.uleb128 0x36
 5506 131c 180B0000 		.4byte	0xb18
 5507 1320 62       		.byte	0x62
 5508 1321 39       		.uleb128 0x39
 5509 1322 0F0B0000 		.4byte	0xb0f
 5510 1326 B401     		.2byte	0x1b4
 5511 1328 39       		.uleb128 0x39
 5512 1329 040B0000 		.4byte	0xb04
 5513 132d 8A48     		.2byte	0x488a
 5514 132f 2E       		.uleb128 0x2e
 5515 1330 0E010000 		.4byte	.LVL87
 5516 1334 2E2B0000 		.4byte	0x2b2e
 5517 1338 4A130000 		.4byte	0x134a
 5518 133c 26       		.uleb128 0x26
 5519 133d 01       		.uleb128 0x1
 5520 133e 51       		.byte	0x51
 5521 133f 03       		.uleb128 0x3
 5522 1340 0A       		.byte	0xa
 5523 1341 8A48     		.2byte	0x488a
 5524 1343 26       		.uleb128 0x26
 5525 1344 01       		.uleb128 0x1
 5526 1345 50       		.byte	0x50
 5527 1346 02       		.uleb128 0x2
 5528 1347 74       		.byte	0x74
 5529 1348 00       		.sleb128 0
 5530 1349 00       		.byte	0
 5531 134a 25       		.uleb128 0x25
 5532 134b 18010000 		.4byte	.LVL88
 5533 134f 482B0000 		.4byte	0x2b48
 5534 1353 26       		.uleb128 0x26
 5535 1354 01       		.uleb128 0x1
 5536 1355 51       		.byte	0x51
 5537 1356 02       		.uleb128 0x2
 5538 1357 08       		.byte	0x8
 5539 1358 62       		.byte	0x62
 5540 1359 26       		.uleb128 0x26
 5541 135a 01       		.uleb128 0x1
 5542 135b 50       		.byte	0x50
ARM GAS  C:\Users\srich\AppData\Local\Temp\ccv3JVxh.s 			page 99


 5543 135c 03       		.uleb128 0x3
 5544 135d 0A       		.byte	0xa
 5545 135e B401     		.2byte	0x1b4
 5546 1360 00       		.byte	0
 5547 1361 00       		.byte	0
 5548 1362 35       		.uleb128 0x35
 5549 1363 F80A0000 		.4byte	0xaf8
 5550 1367 2E010000 		.4byte	.LBB115
 5551 136b 14000000 		.4byte	.LBE115-.LBB115
 5552 136f 01       		.byte	0x1
 5553 1370 8A       		.byte	0x8a
 5554 1371 BC130000 		.4byte	0x13bc
 5555 1375 36       		.uleb128 0x36
 5556 1376 180B0000 		.4byte	0xb18
 5557 137a A3       		.byte	0xa3
 5558 137b 39       		.uleb128 0x39
 5559 137c 0F0B0000 		.4byte	0xb0f
 5560 1380 B401     		.2byte	0x1b4
 5561 1382 39       		.uleb128 0x39
 5562 1383 040B0000 		.4byte	0xb04
 5563 1387 8A48     		.2byte	0x488a
 5564 1389 2E       		.uleb128 0x2e
 5565 138a 38010000 		.4byte	.LVL90
 5566 138e 2E2B0000 		.4byte	0x2b2e
 5567 1392 A4130000 		.4byte	0x13a4
 5568 1396 26       		.uleb128 0x26
 5569 1397 01       		.uleb128 0x1
 5570 1398 51       		.byte	0x51
 5571 1399 03       		.uleb128 0x3
 5572 139a 0A       		.byte	0xa
 5573 139b 8A48     		.2byte	0x488a
 5574 139d 26       		.uleb128 0x26
 5575 139e 01       		.uleb128 0x1
 5576 139f 50       		.byte	0x50
 5577 13a0 02       		.uleb128 0x2
 5578 13a1 74       		.byte	0x74
 5579 13a2 00       		.sleb128 0
 5580 13a3 00       		.byte	0
 5581 13a4 25       		.uleb128 0x25
 5582 13a5 42010000 		.4byte	.LVL91
 5583 13a9 482B0000 		.4byte	0x2b48
 5584 13ad 26       		.uleb128 0x26
 5585 13ae 01       		.uleb128 0x1
 5586 13af 51       		.byte	0x51
 5587 13b0 02       		.uleb128 0x2
 5588 13b1 08       		.byte	0x8
 5589 13b2 A3       		.byte	0xa3
 5590 13b3 26       		.uleb128 0x26
 5591 13b4 01       		.uleb128 0x1
 5592 13b5 50       		.byte	0x50
 5593 13b6 03       		.uleb128 0x3
 5594 13b7 0A       		.byte	0xa
 5595 13b8 B401     		.2byte	0x1b4
 5596 13ba 00       		.byte	0
 5597 13bb 00       		.byte	0
 5598 13bc 35       		.uleb128 0x35
 5599 13bd F80A0000 		.4byte	0xaf8
ARM GAS  C:\Users\srich\AppData\Local\Temp\ccv3JVxh.s 			page 100


 5600 13c1 58010000 		.4byte	.LBB117
 5601 13c5 12000000 		.4byte	.LBE117-.LBB117
 5602 13c9 01       		.byte	0x1
 5603 13ca 8E       		.byte	0x8e
 5604 13cb 14140000 		.4byte	0x1414
 5605 13cf 36       		.uleb128 0x36
 5606 13d0 180B0000 		.4byte	0xb18
 5607 13d4 02       		.byte	0x2
 5608 13d5 36       		.uleb128 0x36
 5609 13d6 0F0B0000 		.4byte	0xb0f
 5610 13da 72       		.byte	0x72
 5611 13db 39       		.uleb128 0x39
 5612 13dc 040B0000 		.4byte	0xb04
 5613 13e0 5F48     		.2byte	0x485f
 5614 13e2 2E       		.uleb128 0x2e
 5615 13e3 62010000 		.4byte	.LVL93
 5616 13e7 2E2B0000 		.4byte	0x2b2e
 5617 13eb FD130000 		.4byte	0x13fd
 5618 13ef 26       		.uleb128 0x26
 5619 13f0 01       		.uleb128 0x1
 5620 13f1 51       		.byte	0x51
 5621 13f2 03       		.uleb128 0x3
 5622 13f3 0A       		.byte	0xa
 5623 13f4 5F48     		.2byte	0x485f
 5624 13f6 26       		.uleb128 0x26
 5625 13f7 01       		.uleb128 0x1
 5626 13f8 50       		.byte	0x50
 5627 13f9 02       		.uleb128 0x2
 5628 13fa 74       		.byte	0x74
 5629 13fb 00       		.sleb128 0
 5630 13fc 00       		.byte	0
 5631 13fd 25       		.uleb128 0x25
 5632 13fe 6A010000 		.4byte	.LVL94
 5633 1402 482B0000 		.4byte	0x2b48
 5634 1406 26       		.uleb128 0x26
 5635 1407 01       		.uleb128 0x1
 5636 1408 51       		.byte	0x51
 5637 1409 02       		.uleb128 0x2
 5638 140a 76       		.byte	0x76
 5639 140b 00       		.sleb128 0
 5640 140c 26       		.uleb128 0x26
 5641 140d 01       		.uleb128 0x1
 5642 140e 50       		.byte	0x50
 5643 140f 02       		.uleb128 0x2
 5644 1410 08       		.byte	0x8
 5645 1411 72       		.byte	0x72
 5646 1412 00       		.byte	0
 5647 1413 00       		.byte	0
 5648 1414 3A       		.uleb128 0x3a
 5649 1415 C30A0000 		.4byte	0xac3
 5650 1419 6A010000 		.4byte	.LBB119
 5651 141d 18000000 		.4byte	.Ldebug_ranges0+0x18
 5652 1421 01       		.byte	0x1
 5653 1422 90       		.byte	0x90
 5654 1423 77140000 		.4byte	0x1477
 5655 1427 36       		.uleb128 0x36
 5656 1428 EC0A0000 		.4byte	0xaec
ARM GAS  C:\Users\srich\AppData\Local\Temp\ccv3JVxh.s 			page 101


 5657 142c 0C       		.byte	0xc
 5658 142d 36       		.uleb128 0x36
 5659 142e E30A0000 		.4byte	0xae3
 5660 1432 6D       		.byte	0x6d
 5661 1433 36       		.uleb128 0x36
 5662 1434 DA0A0000 		.4byte	0xada
 5663 1438 72       		.byte	0x72
 5664 1439 39       		.uleb128 0x39
 5665 143a CF0A0000 		.4byte	0xacf
 5666 143e 4B48     		.2byte	0x484b
 5667 1440 2E       		.uleb128 0x2e
 5668 1441 76010000 		.4byte	.LVL95
 5669 1445 2E2B0000 		.4byte	0x2b2e
 5670 1449 5B140000 		.4byte	0x145b
 5671 144d 26       		.uleb128 0x26
 5672 144e 01       		.uleb128 0x1
 5673 144f 51       		.byte	0x51
 5674 1450 03       		.uleb128 0x3
 5675 1451 0A       		.byte	0xa
 5676 1452 4B48     		.2byte	0x484b
 5677 1454 26       		.uleb128 0x26
 5678 1455 01       		.uleb128 0x1
 5679 1456 50       		.byte	0x50
 5680 1457 02       		.uleb128 0x2
 5681 1458 74       		.byte	0x74
 5682 1459 00       		.sleb128 0
 5683 145a 00       		.byte	0
 5684 145b 25       		.uleb128 0x25
 5685 145c 82010000 		.4byte	.LVL96
 5686 1460 5E2B0000 		.4byte	0x2b5e
 5687 1464 26       		.uleb128 0x26
 5688 1465 01       		.uleb128 0x1
 5689 1466 52       		.byte	0x52
 5690 1467 01       		.uleb128 0x1
 5691 1468 3C       		.byte	0x3c
 5692 1469 26       		.uleb128 0x26
 5693 146a 01       		.uleb128 0x1
 5694 146b 51       		.byte	0x51
 5695 146c 02       		.uleb128 0x2
 5696 146d 08       		.byte	0x8
 5697 146e 6D       		.byte	0x6d
 5698 146f 26       		.uleb128 0x26
 5699 1470 01       		.uleb128 0x1
 5700 1471 50       		.byte	0x50
 5701 1472 02       		.uleb128 0x2
 5702 1473 08       		.byte	0x8
 5703 1474 72       		.byte	0x72
 5704 1475 00       		.byte	0
 5705 1476 00       		.byte	0
 5706 1477 3A       		.uleb128 0x3a
 5707 1478 C30A0000 		.4byte	0xac3
 5708 147c 96010000 		.4byte	.LBB125
 5709 1480 38000000 		.4byte	.Ldebug_ranges0+0x38
 5710 1484 01       		.byte	0x1
 5711 1485 94       		.byte	0x94
 5712 1486 D8140000 		.4byte	0x14d8
 5713 148a 36       		.uleb128 0x36
ARM GAS  C:\Users\srich\AppData\Local\Temp\ccv3JVxh.s 			page 102


 5714 148b EC0A0000 		.4byte	0xaec
 5715 148f 00       		.byte	0
 5716 1490 36       		.uleb128 0x36
 5717 1491 E30A0000 		.4byte	0xae3
 5718 1495 02       		.byte	0x2
 5719 1496 36       		.uleb128 0x36
 5720 1497 DA0A0000 		.4byte	0xada
 5721 149b 4F       		.byte	0x4f
 5722 149c 36       		.uleb128 0x36
 5723 149d CF0A0000 		.4byte	0xacf
 5724 14a1 0E       		.byte	0xe
 5725 14a2 2E       		.uleb128 0x2e
 5726 14a3 9E010000 		.4byte	.LVL98
 5727 14a7 2E2B0000 		.4byte	0x2b2e
 5728 14ab BB140000 		.4byte	0x14bb
 5729 14af 26       		.uleb128 0x26
 5730 14b0 01       		.uleb128 0x1
 5731 14b1 51       		.byte	0x51
 5732 14b2 01       		.uleb128 0x1
 5733 14b3 3E       		.byte	0x3e
 5734 14b4 26       		.uleb128 0x26
 5735 14b5 01       		.uleb128 0x1
 5736 14b6 50       		.byte	0x50
 5737 14b7 02       		.uleb128 0x2
 5738 14b8 74       		.byte	0x74
 5739 14b9 00       		.sleb128 0
 5740 14ba 00       		.byte	0
 5741 14bb 25       		.uleb128 0x25
 5742 14bc AC010000 		.4byte	.LVL99
 5743 14c0 5E2B0000 		.4byte	0x2b5e
 5744 14c4 26       		.uleb128 0x26
 5745 14c5 01       		.uleb128 0x1
 5746 14c6 52       		.byte	0x52
 5747 14c7 02       		.uleb128 0x2
 5748 14c8 74       		.byte	0x74
 5749 14c9 00       		.sleb128 0
 5750 14ca 26       		.uleb128 0x26
 5751 14cb 01       		.uleb128 0x1
 5752 14cc 51       		.byte	0x51
 5753 14cd 02       		.uleb128 0x2
 5754 14ce 76       		.byte	0x76
 5755 14cf 00       		.sleb128 0
 5756 14d0 26       		.uleb128 0x26
 5757 14d1 01       		.uleb128 0x1
 5758 14d2 50       		.byte	0x50
 5759 14d3 02       		.uleb128 0x2
 5760 14d4 08       		.byte	0x8
 5761 14d5 4F       		.byte	0x4f
 5762 14d6 00       		.byte	0
 5763 14d7 00       		.byte	0
 5764 14d8 35       		.uleb128 0x35
 5765 14d9 C30A0000 		.4byte	0xac3
 5766 14dd C2010000 		.4byte	.LBB129
 5767 14e1 14000000 		.4byte	.LBE129-.LBB129
 5768 14e5 01       		.byte	0x1
 5769 14e6 98       		.byte	0x98
 5770 14e7 3B150000 		.4byte	0x153b
ARM GAS  C:\Users\srich\AppData\Local\Temp\ccv3JVxh.s 			page 103


 5771 14eb 36       		.uleb128 0x36
 5772 14ec EC0A0000 		.4byte	0xaec
 5773 14f0 0B       		.byte	0xb
 5774 14f1 36       		.uleb128 0x36
 5775 14f2 E30A0000 		.4byte	0xae3
 5776 14f6 5A       		.byte	0x5a
 5777 14f7 36       		.uleb128 0x36
 5778 14f8 DA0A0000 		.4byte	0xada
 5779 14fc 50       		.byte	0x50
 5780 14fd 39       		.uleb128 0x39
 5781 14fe CF0A0000 		.4byte	0xacf
 5782 1502 4B48     		.2byte	0x484b
 5783 1504 2E       		.uleb128 0x2e
 5784 1505 CC010000 		.4byte	.LVL101
 5785 1509 2E2B0000 		.4byte	0x2b2e
 5786 150d 1F150000 		.4byte	0x151f
 5787 1511 26       		.uleb128 0x26
 5788 1512 01       		.uleb128 0x1
 5789 1513 51       		.byte	0x51
 5790 1514 03       		.uleb128 0x3
 5791 1515 0A       		.byte	0xa
 5792 1516 4B48     		.2byte	0x484b
 5793 1518 26       		.uleb128 0x26
 5794 1519 01       		.uleb128 0x1
 5795 151a 50       		.byte	0x50
 5796 151b 02       		.uleb128 0x2
 5797 151c 74       		.byte	0x74
 5798 151d 00       		.sleb128 0
 5799 151e 00       		.byte	0
 5800 151f 25       		.uleb128 0x25
 5801 1520 D6010000 		.4byte	.LVL102
 5802 1524 5E2B0000 		.4byte	0x2b5e
 5803 1528 26       		.uleb128 0x26
 5804 1529 01       		.uleb128 0x1
 5805 152a 52       		.byte	0x52
 5806 152b 01       		.uleb128 0x1
 5807 152c 3B       		.byte	0x3b
 5808 152d 26       		.uleb128 0x26
 5809 152e 01       		.uleb128 0x1
 5810 152f 51       		.byte	0x51
 5811 1530 02       		.uleb128 0x2
 5812 1531 08       		.byte	0x8
 5813 1532 5A       		.byte	0x5a
 5814 1533 26       		.uleb128 0x26
 5815 1534 01       		.uleb128 0x1
 5816 1535 50       		.byte	0x50
 5817 1536 02       		.uleb128 0x2
 5818 1537 08       		.byte	0x8
 5819 1538 50       		.byte	0x50
 5820 1539 00       		.byte	0
 5821 153a 00       		.byte	0
 5822 153b 35       		.uleb128 0x35
 5823 153c F80A0000 		.4byte	0xaf8
 5824 1540 E8010000 		.4byte	.LBB131
 5825 1544 12000000 		.4byte	.LBE131-.LBB131
 5826 1548 01       		.byte	0x1
 5827 1549 9B       		.byte	0x9b
ARM GAS  C:\Users\srich\AppData\Local\Temp\ccv3JVxh.s 			page 104


 5828 154a 92150000 		.4byte	0x1592
 5829 154e 36       		.uleb128 0x36
 5830 154f 180B0000 		.4byte	0xb18
 5831 1553 06       		.byte	0x6
 5832 1554 36       		.uleb128 0x36
 5833 1555 0F0B0000 		.4byte	0xb0f
 5834 1559 31       		.byte	0x31
 5835 155a 39       		.uleb128 0x39
 5836 155b 040B0000 		.4byte	0xb04
 5837 155f 8D48     		.2byte	0x488d
 5838 1561 2E       		.uleb128 0x2e
 5839 1562 F2010000 		.4byte	.LVL104
 5840 1566 2E2B0000 		.4byte	0x2b2e
 5841 156a 7C150000 		.4byte	0x157c
 5842 156e 26       		.uleb128 0x26
 5843 156f 01       		.uleb128 0x1
 5844 1570 51       		.byte	0x51
 5845 1571 03       		.uleb128 0x3
 5846 1572 0A       		.byte	0xa
 5847 1573 8D48     		.2byte	0x488d
 5848 1575 26       		.uleb128 0x26
 5849 1576 01       		.uleb128 0x1
 5850 1577 50       		.byte	0x50
 5851 1578 02       		.uleb128 0x2
 5852 1579 74       		.byte	0x74
 5853 157a 00       		.sleb128 0
 5854 157b 00       		.byte	0
 5855 157c 25       		.uleb128 0x25
 5856 157d FA010000 		.4byte	.LVL105
 5857 1581 482B0000 		.4byte	0x2b48
 5858 1585 26       		.uleb128 0x26
 5859 1586 01       		.uleb128 0x1
 5860 1587 51       		.byte	0x51
 5861 1588 01       		.uleb128 0x1
 5862 1589 36       		.byte	0x36
 5863 158a 26       		.uleb128 0x26
 5864 158b 01       		.uleb128 0x1
 5865 158c 50       		.byte	0x50
 5866 158d 02       		.uleb128 0x2
 5867 158e 08       		.byte	0x8
 5868 158f 31       		.byte	0x31
 5869 1590 00       		.byte	0
 5870 1591 00       		.byte	0
 5871 1592 35       		.uleb128 0x35
 5872 1593 C30A0000 		.4byte	0xac3
 5873 1597 FA010000 		.4byte	.LBB133
 5874 159b 14000000 		.4byte	.LBE133-.LBB133
 5875 159f 01       		.byte	0x1
 5876 15a0 9D       		.byte	0x9d
 5877 15a1 F5150000 		.4byte	0x15f5
 5878 15a5 36       		.uleb128 0x36
 5879 15a6 EC0A0000 		.4byte	0xaec
 5880 15aa 00       		.byte	0
 5881 15ab 36       		.uleb128 0x36
 5882 15ac E30A0000 		.4byte	0xae3
 5883 15b0 3C       		.byte	0x3c
 5884 15b1 36       		.uleb128 0x36
ARM GAS  C:\Users\srich\AppData\Local\Temp\ccv3JVxh.s 			page 105


 5885 15b2 DA0A0000 		.4byte	0xada
 5886 15b6 18       		.byte	0x18
 5887 15b7 39       		.uleb128 0x39
 5888 15b8 CF0A0000 		.4byte	0xacf
 5889 15bc 9148     		.2byte	0x4891
 5890 15be 2E       		.uleb128 0x2e
 5891 15bf 04020000 		.4byte	.LVL106
 5892 15c3 2E2B0000 		.4byte	0x2b2e
 5893 15c7 D9150000 		.4byte	0x15d9
 5894 15cb 26       		.uleb128 0x26
 5895 15cc 01       		.uleb128 0x1
 5896 15cd 51       		.byte	0x51
 5897 15ce 03       		.uleb128 0x3
 5898 15cf 0A       		.byte	0xa
 5899 15d0 9148     		.2byte	0x4891
 5900 15d2 26       		.uleb128 0x26
 5901 15d3 01       		.uleb128 0x1
 5902 15d4 50       		.byte	0x50
 5903 15d5 02       		.uleb128 0x2
 5904 15d6 74       		.byte	0x74
 5905 15d7 00       		.sleb128 0
 5906 15d8 00       		.byte	0
 5907 15d9 25       		.uleb128 0x25
 5908 15da 0E020000 		.4byte	.LVL107
 5909 15de 5E2B0000 		.4byte	0x2b5e
 5910 15e2 26       		.uleb128 0x26
 5911 15e3 01       		.uleb128 0x1
 5912 15e4 52       		.byte	0x52
 5913 15e5 02       		.uleb128 0x2
 5914 15e6 74       		.byte	0x74
 5915 15e7 00       		.sleb128 0
 5916 15e8 26       		.uleb128 0x26
 5917 15e9 01       		.uleb128 0x1
 5918 15ea 51       		.byte	0x51
 5919 15eb 02       		.uleb128 0x2
 5920 15ec 08       		.byte	0x8
 5921 15ed 3C       		.byte	0x3c
 5922 15ee 26       		.uleb128 0x26
 5923 15ef 01       		.uleb128 0x1
 5924 15f0 50       		.byte	0x50
 5925 15f1 01       		.uleb128 0x1
 5926 15f2 48       		.byte	0x48
 5927 15f3 00       		.byte	0
 5928 15f4 00       		.byte	0
 5929 15f5 35       		.uleb128 0x35
 5930 15f6 F80A0000 		.4byte	0xaf8
 5931 15fa 0E020000 		.4byte	.LBB135
 5932 15fe 10000000 		.4byte	.LBE135-.LBB135
 5933 1602 01       		.byte	0x1
 5934 1603 9F       		.byte	0x9f
 5935 1604 4A160000 		.4byte	0x164a
 5936 1608 36       		.uleb128 0x36
 5937 1609 180B0000 		.4byte	0xb18
 5938 160d EA       		.byte	0xea
 5939 160e 36       		.uleb128 0x36
 5940 160f 0F0B0000 		.4byte	0xb0f
 5941 1613 6E       		.byte	0x6e
ARM GAS  C:\Users\srich\AppData\Local\Temp\ccv3JVxh.s 			page 106


 5942 1614 36       		.uleb128 0x36
 5943 1615 040B0000 		.4byte	0xb04
 5944 1619 16       		.byte	0x16
 5945 161a 2E       		.uleb128 0x2e
 5946 161b 16020000 		.4byte	.LVL108
 5947 161f 2E2B0000 		.4byte	0x2b2e
 5948 1623 33160000 		.4byte	0x1633
 5949 1627 26       		.uleb128 0x26
 5950 1628 01       		.uleb128 0x1
 5951 1629 51       		.byte	0x51
 5952 162a 01       		.uleb128 0x1
 5953 162b 46       		.byte	0x46
 5954 162c 26       		.uleb128 0x26
 5955 162d 01       		.uleb128 0x1
 5956 162e 50       		.byte	0x50
 5957 162f 02       		.uleb128 0x2
 5958 1630 74       		.byte	0x74
 5959 1631 00       		.sleb128 0
 5960 1632 00       		.byte	0
 5961 1633 25       		.uleb128 0x25
 5962 1634 1E020000 		.4byte	.LVL109
 5963 1638 482B0000 		.4byte	0x2b48
 5964 163c 26       		.uleb128 0x26
 5965 163d 01       		.uleb128 0x1
 5966 163e 51       		.byte	0x51
 5967 163f 02       		.uleb128 0x2
 5968 1640 08       		.byte	0x8
 5969 1641 EA       		.byte	0xea
 5970 1642 26       		.uleb128 0x26
 5971 1643 01       		.uleb128 0x1
 5972 1644 50       		.byte	0x50
 5973 1645 02       		.uleb128 0x2
 5974 1646 08       		.byte	0x8
 5975 1647 6E       		.byte	0x6e
 5976 1648 00       		.byte	0
 5977 1649 00       		.byte	0
 5978 164a 35       		.uleb128 0x35
 5979 164b C30A0000 		.4byte	0xac3
 5980 164f 1E020000 		.4byte	.LBB137
 5981 1653 14000000 		.4byte	.LBE137-.LBB137
 5982 1657 01       		.byte	0x1
 5983 1658 A1       		.byte	0xa1
 5984 1659 AD160000 		.4byte	0x16ad
 5985 165d 36       		.uleb128 0x36
 5986 165e EC0A0000 		.4byte	0xaec
 5987 1662 0C       		.byte	0xc
 5988 1663 36       		.uleb128 0x36
 5989 1664 E30A0000 		.4byte	0xae3
 5990 1668 D2       		.byte	0xd2
 5991 1669 36       		.uleb128 0x36
 5992 166a DA0A0000 		.4byte	0xada
 5993 166e 72       		.byte	0x72
 5994 166f 39       		.uleb128 0x39
 5995 1670 CF0A0000 		.4byte	0xacf
 5996 1674 4B48     		.2byte	0x484b
 5997 1676 2E       		.uleb128 0x2e
 5998 1677 28020000 		.4byte	.LVL110
ARM GAS  C:\Users\srich\AppData\Local\Temp\ccv3JVxh.s 			page 107


 5999 167b 2E2B0000 		.4byte	0x2b2e
 6000 167f 91160000 		.4byte	0x1691
 6001 1683 26       		.uleb128 0x26
 6002 1684 01       		.uleb128 0x1
 6003 1685 51       		.byte	0x51
 6004 1686 03       		.uleb128 0x3
 6005 1687 0A       		.byte	0xa
 6006 1688 4B48     		.2byte	0x484b
 6007 168a 26       		.uleb128 0x26
 6008 168b 01       		.uleb128 0x1
 6009 168c 50       		.byte	0x50
 6010 168d 02       		.uleb128 0x2
 6011 168e 74       		.byte	0x74
 6012 168f 00       		.sleb128 0
 6013 1690 00       		.byte	0
 6014 1691 25       		.uleb128 0x25
 6015 1692 32020000 		.4byte	.LVL111
 6016 1696 5E2B0000 		.4byte	0x2b5e
 6017 169a 26       		.uleb128 0x26
 6018 169b 01       		.uleb128 0x1
 6019 169c 52       		.byte	0x52
 6020 169d 01       		.uleb128 0x1
 6021 169e 3C       		.byte	0x3c
 6022 169f 26       		.uleb128 0x26
 6023 16a0 01       		.uleb128 0x1
 6024 16a1 51       		.byte	0x51
 6025 16a2 02       		.uleb128 0x2
 6026 16a3 08       		.byte	0x8
 6027 16a4 D2       		.byte	0xd2
 6028 16a5 26       		.uleb128 0x26
 6029 16a6 01       		.uleb128 0x1
 6030 16a7 50       		.byte	0x50
 6031 16a8 02       		.uleb128 0x2
 6032 16a9 08       		.byte	0x8
 6033 16aa 72       		.byte	0x72
 6034 16ab 00       		.byte	0
 6035 16ac 00       		.byte	0
 6036 16ad 35       		.uleb128 0x35
 6037 16ae C30A0000 		.4byte	0xac3
 6038 16b2 46020000 		.4byte	.LBB139
 6039 16b6 14000000 		.4byte	.LBE139-.LBB139
 6040 16ba 01       		.byte	0x1
 6041 16bb A5       		.byte	0xa5
 6042 16bc 11170000 		.4byte	0x1711
 6043 16c0 36       		.uleb128 0x36
 6044 16c1 EC0A0000 		.4byte	0xaec
 6045 16c5 00       		.byte	0
 6046 16c6 36       		.uleb128 0x36
 6047 16c7 E30A0000 		.4byte	0xae3
 6048 16cb E6       		.byte	0xe6
 6049 16cc 36       		.uleb128 0x36
 6050 16cd DA0A0000 		.4byte	0xada
 6051 16d1 4F       		.byte	0x4f
 6052 16d2 39       		.uleb128 0x39
 6053 16d3 CF0A0000 		.4byte	0xacf
 6054 16d7 3E48     		.2byte	0x483e
 6055 16d9 2E       		.uleb128 0x2e
ARM GAS  C:\Users\srich\AppData\Local\Temp\ccv3JVxh.s 			page 108


 6056 16da 50020000 		.4byte	.LVL113
 6057 16de 2E2B0000 		.4byte	0x2b2e
 6058 16e2 F4160000 		.4byte	0x16f4
 6059 16e6 26       		.uleb128 0x26
 6060 16e7 01       		.uleb128 0x1
 6061 16e8 51       		.byte	0x51
 6062 16e9 03       		.uleb128 0x3
 6063 16ea 0A       		.byte	0xa
 6064 16eb 3E48     		.2byte	0x483e
 6065 16ed 26       		.uleb128 0x26
 6066 16ee 01       		.uleb128 0x1
 6067 16ef 50       		.byte	0x50
 6068 16f0 02       		.uleb128 0x2
 6069 16f1 74       		.byte	0x74
 6070 16f2 00       		.sleb128 0
 6071 16f3 00       		.byte	0
 6072 16f4 25       		.uleb128 0x25
 6073 16f5 5A020000 		.4byte	.LVL114
 6074 16f9 5E2B0000 		.4byte	0x2b5e
 6075 16fd 26       		.uleb128 0x26
 6076 16fe 01       		.uleb128 0x1
 6077 16ff 52       		.byte	0x52
 6078 1700 02       		.uleb128 0x2
 6079 1701 74       		.byte	0x74
 6080 1702 00       		.sleb128 0
 6081 1703 26       		.uleb128 0x26
 6082 1704 01       		.uleb128 0x1
 6083 1705 51       		.byte	0x51
 6084 1706 02       		.uleb128 0x2
 6085 1707 08       		.byte	0x8
 6086 1708 E6       		.byte	0xe6
 6087 1709 26       		.uleb128 0x26
 6088 170a 01       		.uleb128 0x1
 6089 170b 50       		.byte	0x50
 6090 170c 02       		.uleb128 0x2
 6091 170d 08       		.byte	0x8
 6092 170e 4F       		.byte	0x4f
 6093 170f 00       		.byte	0
 6094 1710 00       		.byte	0
 6095 1711 35       		.uleb128 0x35
 6096 1712 C30A0000 		.4byte	0xac3
 6097 1716 5A020000 		.4byte	.LBB141
 6098 171a 14000000 		.4byte	.LBE141-.LBB141
 6099 171e 01       		.byte	0x1
 6100 171f A7       		.byte	0xa7
 6101 1720 74170000 		.4byte	0x1774
 6102 1724 36       		.uleb128 0x36
 6103 1725 EC0A0000 		.4byte	0xaec
 6104 1729 0C       		.byte	0xc
 6105 172a 36       		.uleb128 0x36
 6106 172b E30A0000 		.4byte	0xae3
 6107 172f D2       		.byte	0xd2
 6108 1730 36       		.uleb128 0x36
 6109 1731 DA0A0000 		.4byte	0xada
 6110 1735 4F       		.byte	0x4f
 6111 1736 39       		.uleb128 0x39
 6112 1737 CF0A0000 		.4byte	0xacf
ARM GAS  C:\Users\srich\AppData\Local\Temp\ccv3JVxh.s 			page 109


 6113 173b 4B48     		.2byte	0x484b
 6114 173d 2E       		.uleb128 0x2e
 6115 173e 64020000 		.4byte	.LVL115
 6116 1742 2E2B0000 		.4byte	0x2b2e
 6117 1746 58170000 		.4byte	0x1758
 6118 174a 26       		.uleb128 0x26
 6119 174b 01       		.uleb128 0x1
 6120 174c 51       		.byte	0x51
 6121 174d 03       		.uleb128 0x3
 6122 174e 0A       		.byte	0xa
 6123 174f 4B48     		.2byte	0x484b
 6124 1751 26       		.uleb128 0x26
 6125 1752 01       		.uleb128 0x1
 6126 1753 50       		.byte	0x50
 6127 1754 02       		.uleb128 0x2
 6128 1755 74       		.byte	0x74
 6129 1756 00       		.sleb128 0
 6130 1757 00       		.byte	0
 6131 1758 25       		.uleb128 0x25
 6132 1759 6E020000 		.4byte	.LVL116
 6133 175d 5E2B0000 		.4byte	0x2b5e
 6134 1761 26       		.uleb128 0x26
 6135 1762 01       		.uleb128 0x1
 6136 1763 52       		.byte	0x52
 6137 1764 01       		.uleb128 0x1
 6138 1765 3C       		.byte	0x3c
 6139 1766 26       		.uleb128 0x26
 6140 1767 01       		.uleb128 0x1
 6141 1768 51       		.byte	0x51
 6142 1769 02       		.uleb128 0x2
 6143 176a 08       		.byte	0x8
 6144 176b D2       		.byte	0xd2
 6145 176c 26       		.uleb128 0x26
 6146 176d 01       		.uleb128 0x1
 6147 176e 50       		.byte	0x50
 6148 176f 02       		.uleb128 0x2
 6149 1770 08       		.byte	0x8
 6150 1771 4F       		.byte	0x4f
 6151 1772 00       		.byte	0
 6152 1773 00       		.byte	0
 6153 1774 35       		.uleb128 0x35
 6154 1775 F80A0000 		.4byte	0xaf8
 6155 1779 96020000 		.4byte	.LBB143
 6156 177d 10000000 		.4byte	.LBE143-.LBB143
 6157 1781 01       		.byte	0x1
 6158 1782 AC       		.byte	0xac
 6159 1783 C8170000 		.4byte	0x17c8
 6160 1787 36       		.uleb128 0x36
 6161 1788 180B0000 		.4byte	0xb18
 6162 178c EF       		.byte	0xef
 6163 178d 36       		.uleb128 0x36
 6164 178e 0F0B0000 		.4byte	0xb0f
 6165 1792 17       		.byte	0x17
 6166 1793 36       		.uleb128 0x36
 6167 1794 040B0000 		.4byte	0xb04
 6168 1798 1C       		.byte	0x1c
 6169 1799 2E       		.uleb128 0x2e
ARM GAS  C:\Users\srich\AppData\Local\Temp\ccv3JVxh.s 			page 110


 6170 179a 9E020000 		.4byte	.LVL119
 6171 179e 2E2B0000 		.4byte	0x2b2e
 6172 17a2 B2170000 		.4byte	0x17b2
 6173 17a6 26       		.uleb128 0x26
 6174 17a7 01       		.uleb128 0x1
 6175 17a8 51       		.byte	0x51
 6176 17a9 01       		.uleb128 0x1
 6177 17aa 4C       		.byte	0x4c
 6178 17ab 26       		.uleb128 0x26
 6179 17ac 01       		.uleb128 0x1
 6180 17ad 50       		.byte	0x50
 6181 17ae 02       		.uleb128 0x2
 6182 17af 74       		.byte	0x74
 6183 17b0 00       		.sleb128 0
 6184 17b1 00       		.byte	0
 6185 17b2 25       		.uleb128 0x25
 6186 17b3 A6020000 		.4byte	.LVL120
 6187 17b7 482B0000 		.4byte	0x2b48
 6188 17bb 26       		.uleb128 0x26
 6189 17bc 01       		.uleb128 0x1
 6190 17bd 51       		.byte	0x51
 6191 17be 02       		.uleb128 0x2
 6192 17bf 08       		.byte	0x8
 6193 17c0 EF       		.byte	0xef
 6194 17c1 26       		.uleb128 0x26
 6195 17c2 01       		.uleb128 0x1
 6196 17c3 50       		.byte	0x50
 6197 17c4 01       		.uleb128 0x1
 6198 17c5 47       		.byte	0x47
 6199 17c6 00       		.byte	0
 6200 17c7 00       		.byte	0
 6201 17c8 35       		.uleb128 0x35
 6202 17c9 F80A0000 		.4byte	0xaf8
 6203 17cd B8020000 		.4byte	.LBB145
 6204 17d1 10000000 		.4byte	.LBE145-.LBB145
 6205 17d5 01       		.byte	0x1
 6206 17d6 AF       		.byte	0xaf
 6207 17d7 1D180000 		.4byte	0x181d
 6208 17db 36       		.uleb128 0x36
 6209 17dc 180B0000 		.4byte	0xb18
 6210 17e0 D0       		.byte	0xd0
 6211 17e1 36       		.uleb128 0x36
 6212 17e2 0F0B0000 		.4byte	0xb0f
 6213 17e6 2F       		.byte	0x2f
 6214 17e7 36       		.uleb128 0x36
 6215 17e8 040B0000 		.4byte	0xb04
 6216 17ec 1D       		.byte	0x1d
 6217 17ed 2E       		.uleb128 0x2e
 6218 17ee C0020000 		.4byte	.LVL122
 6219 17f2 2E2B0000 		.4byte	0x2b2e
 6220 17f6 06180000 		.4byte	0x1806
 6221 17fa 26       		.uleb128 0x26
 6222 17fb 01       		.uleb128 0x1
 6223 17fc 51       		.byte	0x51
 6224 17fd 01       		.uleb128 0x1
 6225 17fe 4D       		.byte	0x4d
 6226 17ff 26       		.uleb128 0x26
ARM GAS  C:\Users\srich\AppData\Local\Temp\ccv3JVxh.s 			page 111


 6227 1800 01       		.uleb128 0x1
 6228 1801 50       		.byte	0x50
 6229 1802 02       		.uleb128 0x2
 6230 1803 74       		.byte	0x74
 6231 1804 00       		.sleb128 0
 6232 1805 00       		.byte	0
 6233 1806 25       		.uleb128 0x25
 6234 1807 C8020000 		.4byte	.LVL123
 6235 180b 482B0000 		.4byte	0x2b48
 6236 180f 26       		.uleb128 0x26
 6237 1810 01       		.uleb128 0x1
 6238 1811 51       		.byte	0x51
 6239 1812 02       		.uleb128 0x2
 6240 1813 08       		.byte	0x8
 6241 1814 D0       		.byte	0xd0
 6242 1815 26       		.uleb128 0x26
 6243 1816 01       		.uleb128 0x1
 6244 1817 50       		.byte	0x50
 6245 1818 02       		.uleb128 0x2
 6246 1819 08       		.byte	0x8
 6247 181a 2F       		.byte	0x2f
 6248 181b 00       		.byte	0
 6249 181c 00       		.byte	0
 6250 181d 35       		.uleb128 0x35
 6251 181e C30A0000 		.4byte	0xac3
 6252 1822 C8020000 		.4byte	.LBB147
 6253 1826 14000000 		.4byte	.LBE147-.LBB147
 6254 182a 01       		.byte	0x1
 6255 182b B1       		.byte	0xb1
 6256 182c 80180000 		.4byte	0x1880
 6257 1830 36       		.uleb128 0x36
 6258 1831 EC0A0000 		.4byte	0xaec
 6259 1835 01       		.byte	0x1
 6260 1836 36       		.uleb128 0x36
 6261 1837 E30A0000 		.4byte	0xae3
 6262 183b 7B       		.byte	0x7b
 6263 183c 36       		.uleb128 0x36
 6264 183d DA0A0000 		.4byte	0xada
 6265 1841 18       		.byte	0x18
 6266 1842 39       		.uleb128 0x39
 6267 1843 CF0A0000 		.4byte	0xacf
 6268 1847 E813     		.2byte	0x13e8
 6269 1849 2E       		.uleb128 0x2e
 6270 184a D2020000 		.4byte	.LVL124
 6271 184e 2E2B0000 		.4byte	0x2b2e
 6272 1852 64180000 		.4byte	0x1864
 6273 1856 26       		.uleb128 0x26
 6274 1857 01       		.uleb128 0x1
 6275 1858 51       		.byte	0x51
 6276 1859 03       		.uleb128 0x3
 6277 185a 0A       		.byte	0xa
 6278 185b E813     		.2byte	0x13e8
 6279 185d 26       		.uleb128 0x26
 6280 185e 01       		.uleb128 0x1
 6281 185f 50       		.byte	0x50
 6282 1860 02       		.uleb128 0x2
 6283 1861 74       		.byte	0x74
ARM GAS  C:\Users\srich\AppData\Local\Temp\ccv3JVxh.s 			page 112


 6284 1862 00       		.sleb128 0
 6285 1863 00       		.byte	0
 6286 1864 25       		.uleb128 0x25
 6287 1865 DC020000 		.4byte	.LVL125
 6288 1869 5E2B0000 		.4byte	0x2b5e
 6289 186d 26       		.uleb128 0x26
 6290 186e 01       		.uleb128 0x1
 6291 186f 52       		.byte	0x52
 6292 1870 02       		.uleb128 0x2
 6293 1871 76       		.byte	0x76
 6294 1872 00       		.sleb128 0
 6295 1873 26       		.uleb128 0x26
 6296 1874 01       		.uleb128 0x1
 6297 1875 51       		.byte	0x51
 6298 1876 02       		.uleb128 0x2
 6299 1877 08       		.byte	0x8
 6300 1878 7B       		.byte	0x7b
 6301 1879 26       		.uleb128 0x26
 6302 187a 01       		.uleb128 0x1
 6303 187b 50       		.byte	0x50
 6304 187c 01       		.uleb128 0x1
 6305 187d 48       		.byte	0x48
 6306 187e 00       		.byte	0
 6307 187f 00       		.byte	0
 6308 1880 2E       		.uleb128 0x2e
 6309 1881 12000000 		.4byte	.LVL65
 6310 1885 7D2B0000 		.4byte	0x2b7d
 6311 1889 93180000 		.4byte	0x1893
 6312 188d 26       		.uleb128 0x26
 6313 188e 01       		.uleb128 0x1
 6314 188f 50       		.byte	0x50
 6315 1890 01       		.uleb128 0x1
 6316 1891 31       		.byte	0x31
 6317 1892 00       		.byte	0
 6318 1893 2E       		.uleb128 0x2e
 6319 1894 18000000 		.4byte	.LVL66
 6320 1898 922B0000 		.4byte	0x2b92
 6321 189c A6180000 		.4byte	0x18a6
 6322 18a0 26       		.uleb128 0x26
 6323 18a1 01       		.uleb128 0x1
 6324 18a2 50       		.byte	0x50
 6325 18a3 01       		.uleb128 0x1
 6326 18a4 4F       		.byte	0x4f
 6327 18a5 00       		.byte	0
 6328 18a6 2E       		.uleb128 0x2e
 6329 18a7 44000000 		.4byte	.LVL69
 6330 18ab 660D0000 		.4byte	0xd66
 6331 18af E0180000 		.4byte	0x18e0
 6332 18b3 26       		.uleb128 0x26
 6333 18b4 01       		.uleb128 0x1
 6334 18b5 53       		.byte	0x53
 6335 18b6 02       		.uleb128 0x2
 6336 18b7 08       		.byte	0x8
 6337 18b8 40       		.byte	0x40
 6338 18b9 26       		.uleb128 0x26
 6339 18ba 01       		.uleb128 0x1
 6340 18bb 52       		.byte	0x52
ARM GAS  C:\Users\srich\AppData\Local\Temp\ccv3JVxh.s 			page 113


 6341 18bc 02       		.uleb128 0x2
 6342 18bd 08       		.byte	0x8
 6343 18be A2       		.byte	0xa2
 6344 18bf 26       		.uleb128 0x26
 6345 18c0 01       		.uleb128 0x1
 6346 18c1 51       		.byte	0x51
 6347 18c2 02       		.uleb128 0x2
 6348 18c3 08       		.byte	0x8
 6349 18c4 D2       		.byte	0xd2
 6350 18c5 26       		.uleb128 0x26
 6351 18c6 01       		.uleb128 0x1
 6352 18c7 50       		.byte	0x50
 6353 18c8 03       		.uleb128 0x3
 6354 18c9 0A       		.byte	0xa
 6355 18ca 3414     		.2byte	0x1434
 6356 18cc 26       		.uleb128 0x26
 6357 18cd 02       		.uleb128 0x2
 6358 18ce 7D       		.byte	0x7d
 6359 18cf 08       		.sleb128 8
 6360 18d0 01       		.uleb128 0x1
 6361 18d1 3A       		.byte	0x3a
 6362 18d2 26       		.uleb128 0x26
 6363 18d3 02       		.uleb128 0x2
 6364 18d4 7D       		.byte	0x7d
 6365 18d5 04       		.sleb128 4
 6366 18d6 01       		.uleb128 0x1
 6367 18d7 33       		.byte	0x33
 6368 18d8 26       		.uleb128 0x26
 6369 18d9 02       		.uleb128 0x2
 6370 18da 7D       		.byte	0x7d
 6371 18db 00       		.sleb128 0
 6372 18dc 02       		.uleb128 0x2
 6373 18dd 74       		.byte	0x74
 6374 18de 00       		.sleb128 0
 6375 18df 00       		.byte	0
 6376 18e0 2E       		.uleb128 0x2e
 6377 18e1 04010000 		.4byte	.LVL86
 6378 18e5 660D0000 		.4byte	0xd66
 6379 18e9 1C190000 		.4byte	0x191c
 6380 18ed 26       		.uleb128 0x26
 6381 18ee 01       		.uleb128 0x1
 6382 18ef 53       		.byte	0x53
 6383 18f0 01       		.uleb128 0x1
 6384 18f1 47       		.byte	0x47
 6385 18f2 26       		.uleb128 0x26
 6386 18f3 01       		.uleb128 0x1
 6387 18f4 52       		.byte	0x52
 6388 18f5 02       		.uleb128 0x2
 6389 18f6 08       		.byte	0x8
 6390 18f7 47       		.byte	0x47
 6391 18f8 26       		.uleb128 0x26
 6392 18f9 01       		.uleb128 0x1
 6393 18fa 51       		.byte	0x51
 6394 18fb 03       		.uleb128 0x3
 6395 18fc 0A       		.byte	0xa
 6396 18fd B401     		.2byte	0x1b4
 6397 18ff 26       		.uleb128 0x26
ARM GAS  C:\Users\srich\AppData\Local\Temp\ccv3JVxh.s 			page 114


 6398 1900 01       		.uleb128 0x1
 6399 1901 50       		.byte	0x50
 6400 1902 03       		.uleb128 0x3
 6401 1903 0A       		.byte	0xa
 6402 1904 6548     		.2byte	0x4865
 6403 1906 26       		.uleb128 0x26
 6404 1907 02       		.uleb128 0x2
 6405 1908 7D       		.byte	0x7d
 6406 1909 08       		.sleb128 8
 6407 190a 02       		.uleb128 0x2
 6408 190b 74       		.byte	0x74
 6409 190c 00       		.sleb128 0
 6410 190d 26       		.uleb128 0x26
 6411 190e 02       		.uleb128 0x2
 6412 190f 7D       		.byte	0x7d
 6413 1910 04       		.sleb128 4
 6414 1911 02       		.uleb128 0x2
 6415 1912 76       		.byte	0x76
 6416 1913 00       		.sleb128 0
 6417 1914 26       		.uleb128 0x26
 6418 1915 02       		.uleb128 0x2
 6419 1916 7D       		.byte	0x7d
 6420 1917 00       		.sleb128 0
 6421 1918 02       		.uleb128 0x2
 6422 1919 74       		.byte	0x74
 6423 191a 00       		.sleb128 0
 6424 191b 00       		.byte	0
 6425 191c 2E       		.uleb128 0x2e
 6426 191d 2E010000 		.4byte	.LVL89
 6427 1921 660D0000 		.4byte	0xd66
 6428 1925 58190000 		.4byte	0x1958
 6429 1929 26       		.uleb128 0x26
 6430 192a 01       		.uleb128 0x1
 6431 192b 53       		.byte	0x53
 6432 192c 01       		.uleb128 0x1
 6433 192d 47       		.byte	0x47
 6434 192e 26       		.uleb128 0x26
 6435 192f 01       		.uleb128 0x1
 6436 1930 52       		.byte	0x52
 6437 1931 02       		.uleb128 0x2
 6438 1932 08       		.byte	0x8
 6439 1933 88       		.byte	0x88
 6440 1934 26       		.uleb128 0x26
 6441 1935 01       		.uleb128 0x1
 6442 1936 51       		.byte	0x51
 6443 1937 03       		.uleb128 0x3
 6444 1938 0A       		.byte	0xa
 6445 1939 B401     		.2byte	0x1b4
 6446 193b 26       		.uleb128 0x26
 6447 193c 01       		.uleb128 0x1
 6448 193d 50       		.byte	0x50
 6449 193e 03       		.uleb128 0x3
 6450 193f 0A       		.byte	0xa
 6451 1940 6548     		.2byte	0x4865
 6452 1942 26       		.uleb128 0x26
 6453 1943 02       		.uleb128 0x2
 6454 1944 7D       		.byte	0x7d
ARM GAS  C:\Users\srich\AppData\Local\Temp\ccv3JVxh.s 			page 115


 6455 1945 08       		.sleb128 8
 6456 1946 02       		.uleb128 0x2
 6457 1947 74       		.byte	0x74
 6458 1948 00       		.sleb128 0
 6459 1949 26       		.uleb128 0x26
 6460 194a 02       		.uleb128 0x2
 6461 194b 7D       		.byte	0x7d
 6462 194c 04       		.sleb128 4
 6463 194d 02       		.uleb128 0x2
 6464 194e 76       		.byte	0x76
 6465 194f 00       		.sleb128 0
 6466 1950 26       		.uleb128 0x26
 6467 1951 02       		.uleb128 0x2
 6468 1952 7D       		.byte	0x7d
 6469 1953 00       		.sleb128 0
 6470 1954 02       		.uleb128 0x2
 6471 1955 74       		.byte	0x74
 6472 1956 00       		.sleb128 0
 6473 1957 00       		.byte	0
 6474 1958 2E       		.uleb128 0x2e
 6475 1959 58010000 		.4byte	.LVL92
 6476 195d 660D0000 		.4byte	0xd66
 6477 1961 94190000 		.4byte	0x1994
 6478 1965 26       		.uleb128 0x26
 6479 1966 01       		.uleb128 0x1
 6480 1967 53       		.byte	0x53
 6481 1968 01       		.uleb128 0x1
 6482 1969 47       		.byte	0x47
 6483 196a 26       		.uleb128 0x26
 6484 196b 01       		.uleb128 0x1
 6485 196c 52       		.byte	0x52
 6486 196d 02       		.uleb128 0x2
 6487 196e 08       		.byte	0x8
 6488 196f C9       		.byte	0xc9
 6489 1970 26       		.uleb128 0x26
 6490 1971 01       		.uleb128 0x1
 6491 1972 51       		.byte	0x51
 6492 1973 03       		.uleb128 0x3
 6493 1974 0A       		.byte	0xa
 6494 1975 B401     		.2byte	0x1b4
 6495 1977 26       		.uleb128 0x26
 6496 1978 01       		.uleb128 0x1
 6497 1979 50       		.byte	0x50
 6498 197a 03       		.uleb128 0x3
 6499 197b 0A       		.byte	0xa
 6500 197c 6548     		.2byte	0x4865
 6501 197e 26       		.uleb128 0x26
 6502 197f 02       		.uleb128 0x2
 6503 1980 7D       		.byte	0x7d
 6504 1981 08       		.sleb128 8
 6505 1982 02       		.uleb128 0x2
 6506 1983 74       		.byte	0x74
 6507 1984 00       		.sleb128 0
 6508 1985 26       		.uleb128 0x26
 6509 1986 02       		.uleb128 0x2
 6510 1987 7D       		.byte	0x7d
 6511 1988 04       		.sleb128 4
ARM GAS  C:\Users\srich\AppData\Local\Temp\ccv3JVxh.s 			page 116


 6512 1989 02       		.uleb128 0x2
 6513 198a 76       		.byte	0x76
 6514 198b 00       		.sleb128 0
 6515 198c 26       		.uleb128 0x26
 6516 198d 02       		.uleb128 0x2
 6517 198e 7D       		.byte	0x7d
 6518 198f 00       		.sleb128 0
 6519 1990 02       		.uleb128 0x2
 6520 1991 74       		.byte	0x74
 6521 1992 00       		.sleb128 0
 6522 1993 00       		.byte	0
 6523 1994 2E       		.uleb128 0x2e
 6524 1995 96010000 		.4byte	.LVL97
 6525 1999 660D0000 		.4byte	0xd66
 6526 199d CF190000 		.4byte	0x19cf
 6527 19a1 26       		.uleb128 0x26
 6528 19a2 01       		.uleb128 0x1
 6529 19a3 53       		.byte	0x53
 6530 19a4 01       		.uleb128 0x1
 6531 19a5 3F       		.byte	0x3f
 6532 19a6 26       		.uleb128 0x26
 6533 19a7 01       		.uleb128 0x1
 6534 19a8 52       		.byte	0x52
 6535 19a9 02       		.uleb128 0x2
 6536 19aa 08       		.byte	0x8
 6537 19ab 54       		.byte	0x54
 6538 19ac 26       		.uleb128 0x26
 6539 19ad 01       		.uleb128 0x1
 6540 19ae 51       		.byte	0x51
 6541 19af 02       		.uleb128 0x2
 6542 19b0 08       		.byte	0x8
 6543 19b1 72       		.byte	0x72
 6544 19b2 26       		.uleb128 0x26
 6545 19b3 01       		.uleb128 0x1
 6546 19b4 50       		.byte	0x50
 6547 19b5 03       		.uleb128 0x3
 6548 19b6 0A       		.byte	0xa
 6549 19b7 4B48     		.2byte	0x484b
 6550 19b9 26       		.uleb128 0x26
 6551 19ba 02       		.uleb128 0x2
 6552 19bb 7D       		.byte	0x7d
 6553 19bc 08       		.sleb128 8
 6554 19bd 02       		.uleb128 0x2
 6555 19be 75       		.byte	0x75
 6556 19bf 00       		.sleb128 0
 6557 19c0 26       		.uleb128 0x26
 6558 19c1 02       		.uleb128 0x2
 6559 19c2 7D       		.byte	0x7d
 6560 19c3 04       		.sleb128 4
 6561 19c4 02       		.uleb128 0x2
 6562 19c5 77       		.byte	0x77
 6563 19c6 00       		.sleb128 0
 6564 19c7 26       		.uleb128 0x26
 6565 19c8 02       		.uleb128 0x2
 6566 19c9 7D       		.byte	0x7d
 6567 19ca 00       		.sleb128 0
 6568 19cb 02       		.uleb128 0x2
ARM GAS  C:\Users\srich\AppData\Local\Temp\ccv3JVxh.s 			page 117


 6569 19cc 74       		.byte	0x74
 6570 19cd 00       		.sleb128 0
 6571 19ce 00       		.byte	0
 6572 19cf 2E       		.uleb128 0x2e
 6573 19d0 C2010000 		.4byte	.LVL100
 6574 19d4 660D0000 		.4byte	0xd66
 6575 19d8 0A1A0000 		.4byte	0x1a0a
 6576 19dc 26       		.uleb128 0x26
 6577 19dd 01       		.uleb128 0x1
 6578 19de 53       		.byte	0x53
 6579 19df 01       		.uleb128 0x1
 6580 19e0 3F       		.byte	0x3f
 6581 19e1 26       		.uleb128 0x26
 6582 19e2 01       		.uleb128 0x1
 6583 19e3 52       		.byte	0x52
 6584 19e4 02       		.uleb128 0x2
 6585 19e5 08       		.byte	0x8
 6586 19e6 4B       		.byte	0x4b
 6587 19e7 26       		.uleb128 0x26
 6588 19e8 01       		.uleb128 0x1
 6589 19e9 51       		.byte	0x51
 6590 19ea 02       		.uleb128 0x2
 6591 19eb 08       		.byte	0x8
 6592 19ec 4F       		.byte	0x4f
 6593 19ed 26       		.uleb128 0x26
 6594 19ee 01       		.uleb128 0x1
 6595 19ef 50       		.byte	0x50
 6596 19f0 03       		.uleb128 0x3
 6597 19f1 0A       		.byte	0xa
 6598 19f2 4B48     		.2byte	0x484b
 6599 19f4 26       		.uleb128 0x26
 6600 19f5 02       		.uleb128 0x2
 6601 19f6 7D       		.byte	0x7d
 6602 19f7 08       		.sleb128 8
 6603 19f8 02       		.uleb128 0x2
 6604 19f9 75       		.byte	0x75
 6605 19fa 00       		.sleb128 0
 6606 19fb 26       		.uleb128 0x26
 6607 19fc 02       		.uleb128 0x2
 6608 19fd 7D       		.byte	0x7d
 6609 19fe 04       		.sleb128 4
 6610 19ff 02       		.uleb128 0x2
 6611 1a00 78       		.byte	0x78
 6612 1a01 00       		.sleb128 0
 6613 1a02 26       		.uleb128 0x26
 6614 1a03 02       		.uleb128 0x2
 6615 1a04 7D       		.byte	0x7d
 6616 1a05 00       		.sleb128 0
 6617 1a06 02       		.uleb128 0x2
 6618 1a07 74       		.byte	0x74
 6619 1a08 00       		.sleb128 0
 6620 1a09 00       		.byte	0
 6621 1a0a 2E       		.uleb128 0x2e
 6622 1a0b E8010000 		.4byte	.LVL103
 6623 1a0f 660D0000 		.4byte	0xd66
 6624 1a13 431A0000 		.4byte	0x1a43
 6625 1a17 26       		.uleb128 0x26
ARM GAS  C:\Users\srich\AppData\Local\Temp\ccv3JVxh.s 			page 118


 6626 1a18 01       		.uleb128 0x1
 6627 1a19 53       		.byte	0x53
 6628 1a1a 01       		.uleb128 0x1
 6629 1a1b 41       		.byte	0x41
 6630 1a1c 26       		.uleb128 0x26
 6631 1a1d 01       		.uleb128 0x1
 6632 1a1e 52       		.byte	0x52
 6633 1a1f 02       		.uleb128 0x2
 6634 1a20 08       		.byte	0x8
 6635 1a21 23       		.byte	0x23
 6636 1a22 26       		.uleb128 0x26
 6637 1a23 01       		.uleb128 0x1
 6638 1a24 51       		.byte	0x51
 6639 1a25 01       		.uleb128 0x1
 6640 1a26 48       		.byte	0x48
 6641 1a27 26       		.uleb128 0x26
 6642 1a28 01       		.uleb128 0x1
 6643 1a29 50       		.byte	0x50
 6644 1a2a 02       		.uleb128 0x2
 6645 1a2b 08       		.byte	0x8
 6646 1a2c 22       		.byte	0x22
 6647 1a2d 26       		.uleb128 0x26
 6648 1a2e 02       		.uleb128 0x2
 6649 1a2f 7D       		.byte	0x7d
 6650 1a30 08       		.sleb128 8
 6651 1a31 02       		.uleb128 0x2
 6652 1a32 75       		.byte	0x75
 6653 1a33 00       		.sleb128 0
 6654 1a34 26       		.uleb128 0x26
 6655 1a35 02       		.uleb128 0x2
 6656 1a36 7D       		.byte	0x7d
 6657 1a37 04       		.sleb128 4
 6658 1a38 02       		.uleb128 0x2
 6659 1a39 78       		.byte	0x78
 6660 1a3a 00       		.sleb128 0
 6661 1a3b 26       		.uleb128 0x26
 6662 1a3c 02       		.uleb128 0x2
 6663 1a3d 7D       		.byte	0x7d
 6664 1a3e 00       		.sleb128 0
 6665 1a3f 02       		.uleb128 0x2
 6666 1a40 74       		.byte	0x74
 6667 1a41 00       		.sleb128 0
 6668 1a42 00       		.byte	0
 6669 1a43 2E       		.uleb128 0x2e
 6670 1a44 46020000 		.4byte	.LVL112
 6671 1a48 660D0000 		.4byte	0xd66
 6672 1a4c 7E1A0000 		.4byte	0x1a7e
 6673 1a50 26       		.uleb128 0x26
 6674 1a51 01       		.uleb128 0x1
 6675 1a52 53       		.byte	0x53
 6676 1a53 01       		.uleb128 0x1
 6677 1a54 3F       		.byte	0x3f
 6678 1a55 26       		.uleb128 0x26
 6679 1a56 01       		.uleb128 0x1
 6680 1a57 52       		.byte	0x52
 6681 1a58 02       		.uleb128 0x2
 6682 1a59 08       		.byte	0x8
ARM GAS  C:\Users\srich\AppData\Local\Temp\ccv3JVxh.s 			page 119


 6683 1a5a BC       		.byte	0xbc
 6684 1a5b 26       		.uleb128 0x26
 6685 1a5c 01       		.uleb128 0x1
 6686 1a5d 51       		.byte	0x51
 6687 1a5e 02       		.uleb128 0x2
 6688 1a5f 08       		.byte	0x8
 6689 1a60 72       		.byte	0x72
 6690 1a61 26       		.uleb128 0x26
 6691 1a62 01       		.uleb128 0x1
 6692 1a63 50       		.byte	0x50
 6693 1a64 03       		.uleb128 0x3
 6694 1a65 0A       		.byte	0xa
 6695 1a66 4B48     		.2byte	0x484b
 6696 1a68 26       		.uleb128 0x26
 6697 1a69 02       		.uleb128 0x2
 6698 1a6a 7D       		.byte	0x7d
 6699 1a6b 08       		.sleb128 8
 6700 1a6c 02       		.uleb128 0x2
 6701 1a6d 75       		.byte	0x75
 6702 1a6e 00       		.sleb128 0
 6703 1a6f 26       		.uleb128 0x26
 6704 1a70 02       		.uleb128 0x2
 6705 1a71 7D       		.byte	0x7d
 6706 1a72 04       		.sleb128 4
 6707 1a73 02       		.uleb128 0x2
 6708 1a74 77       		.byte	0x77
 6709 1a75 00       		.sleb128 0
 6710 1a76 26       		.uleb128 0x26
 6711 1a77 02       		.uleb128 0x2
 6712 1a78 7D       		.byte	0x7d
 6713 1a79 00       		.sleb128 0
 6714 1a7a 02       		.uleb128 0x2
 6715 1a7b 74       		.byte	0x74
 6716 1a7c 00       		.sleb128 0
 6717 1a7d 00       		.byte	0
 6718 1a7e 2E       		.uleb128 0x2e
 6719 1a7f 84020000 		.4byte	.LVL117
 6720 1a83 660D0000 		.4byte	0xd66
 6721 1a87 B91A0000 		.4byte	0x1ab9
 6722 1a8b 26       		.uleb128 0x26
 6723 1a8c 01       		.uleb128 0x1
 6724 1a8d 53       		.byte	0x53
 6725 1a8e 01       		.uleb128 0x1
 6726 1a8f 3F       		.byte	0x3f
 6727 1a90 26       		.uleb128 0x26
 6728 1a91 01       		.uleb128 0x1
 6729 1a92 52       		.byte	0x52
 6730 1a93 02       		.uleb128 0x2
 6731 1a94 08       		.byte	0x8
 6732 1a95 BC       		.byte	0xbc
 6733 1a96 26       		.uleb128 0x26
 6734 1a97 01       		.uleb128 0x1
 6735 1a98 51       		.byte	0x51
 6736 1a99 02       		.uleb128 0x2
 6737 1a9a 08       		.byte	0x8
 6738 1a9b 4F       		.byte	0x4f
 6739 1a9c 26       		.uleb128 0x26
ARM GAS  C:\Users\srich\AppData\Local\Temp\ccv3JVxh.s 			page 120


 6740 1a9d 01       		.uleb128 0x1
 6741 1a9e 50       		.byte	0x50
 6742 1a9f 03       		.uleb128 0x3
 6743 1aa0 0A       		.byte	0xa
 6744 1aa1 4B48     		.2byte	0x484b
 6745 1aa3 26       		.uleb128 0x26
 6746 1aa4 02       		.uleb128 0x2
 6747 1aa5 7D       		.byte	0x7d
 6748 1aa6 08       		.sleb128 8
 6749 1aa7 02       		.uleb128 0x2
 6750 1aa8 75       		.byte	0x75
 6751 1aa9 00       		.sleb128 0
 6752 1aaa 26       		.uleb128 0x26
 6753 1aab 02       		.uleb128 0x2
 6754 1aac 7D       		.byte	0x7d
 6755 1aad 04       		.sleb128 4
 6756 1aae 02       		.uleb128 0x2
 6757 1aaf 77       		.byte	0x77
 6758 1ab0 00       		.sleb128 0
 6759 1ab1 26       		.uleb128 0x26
 6760 1ab2 02       		.uleb128 0x2
 6761 1ab3 7D       		.byte	0x7d
 6762 1ab4 00       		.sleb128 0
 6763 1ab5 02       		.uleb128 0x2
 6764 1ab6 74       		.byte	0x74
 6765 1ab7 00       		.sleb128 0
 6766 1ab8 00       		.byte	0
 6767 1ab9 2E       		.uleb128 0x2e
 6768 1aba 96020000 		.4byte	.LVL118
 6769 1abe 660D0000 		.4byte	0xd66
 6770 1ac2 F21A0000 		.4byte	0x1af2
 6771 1ac6 26       		.uleb128 0x26
 6772 1ac7 01       		.uleb128 0x1
 6773 1ac8 53       		.byte	0x53
 6774 1ac9 01       		.uleb128 0x1
 6775 1aca 41       		.byte	0x41
 6776 1acb 26       		.uleb128 0x26
 6777 1acc 01       		.uleb128 0x1
 6778 1acd 52       		.byte	0x52
 6779 1ace 02       		.uleb128 0x2
 6780 1acf 08       		.byte	0x8
 6781 1ad0 F9       		.byte	0xf9
 6782 1ad1 26       		.uleb128 0x26
 6783 1ad2 01       		.uleb128 0x1
 6784 1ad3 51       		.byte	0x51
 6785 1ad4 01       		.uleb128 0x1
 6786 1ad5 47       		.byte	0x47
 6787 1ad6 26       		.uleb128 0x26
 6788 1ad7 01       		.uleb128 0x1
 6789 1ad8 50       		.byte	0x50
 6790 1ad9 02       		.uleb128 0x2
 6791 1ada 08       		.byte	0x8
 6792 1adb 22       		.byte	0x22
 6793 1adc 26       		.uleb128 0x26
 6794 1add 02       		.uleb128 0x2
 6795 1ade 7D       		.byte	0x7d
 6796 1adf 08       		.sleb128 8
ARM GAS  C:\Users\srich\AppData\Local\Temp\ccv3JVxh.s 			page 121


 6797 1ae0 02       		.uleb128 0x2
 6798 1ae1 75       		.byte	0x75
 6799 1ae2 00       		.sleb128 0
 6800 1ae3 26       		.uleb128 0x26
 6801 1ae4 02       		.uleb128 0x2
 6802 1ae5 7D       		.byte	0x7d
 6803 1ae6 04       		.sleb128 4
 6804 1ae7 02       		.uleb128 0x2
 6805 1ae8 76       		.byte	0x76
 6806 1ae9 00       		.sleb128 0
 6807 1aea 26       		.uleb128 0x26
 6808 1aeb 02       		.uleb128 0x2
 6809 1aec 7D       		.byte	0x7d
 6810 1aed 00       		.sleb128 0
 6811 1aee 02       		.uleb128 0x2
 6812 1aef 74       		.byte	0x74
 6813 1af0 00       		.sleb128 0
 6814 1af1 00       		.byte	0
 6815 1af2 2E       		.uleb128 0x2e
 6816 1af3 B8020000 		.4byte	.LVL121
 6817 1af7 660D0000 		.4byte	0xd66
 6818 1afb 2B1B0000 		.4byte	0x1b2b
 6819 1aff 26       		.uleb128 0x26
 6820 1b00 01       		.uleb128 0x1
 6821 1b01 53       		.byte	0x53
 6822 1b02 01       		.uleb128 0x1
 6823 1b03 41       		.byte	0x41
 6824 1b04 26       		.uleb128 0x26
 6825 1b05 01       		.uleb128 0x1
 6826 1b06 52       		.byte	0x52
 6827 1b07 02       		.uleb128 0x2
 6828 1b08 08       		.byte	0x8
 6829 1b09 DD       		.byte	0xdd
 6830 1b0a 26       		.uleb128 0x26
 6831 1b0b 01       		.uleb128 0x1
 6832 1b0c 51       		.byte	0x51
 6833 1b0d 01       		.uleb128 0x1
 6834 1b0e 45       		.byte	0x45
 6835 1b0f 26       		.uleb128 0x26
 6836 1b10 01       		.uleb128 0x1
 6837 1b11 50       		.byte	0x50
 6838 1b12 02       		.uleb128 0x2
 6839 1b13 08       		.byte	0x8
 6840 1b14 22       		.byte	0x22
 6841 1b15 26       		.uleb128 0x26
 6842 1b16 02       		.uleb128 0x2
 6843 1b17 7D       		.byte	0x7d
 6844 1b18 08       		.sleb128 8
 6845 1b19 02       		.uleb128 0x2
 6846 1b1a 75       		.byte	0x75
 6847 1b1b 00       		.sleb128 0
 6848 1b1c 26       		.uleb128 0x26
 6849 1b1d 02       		.uleb128 0x2
 6850 1b1e 7D       		.byte	0x7d
 6851 1b1f 04       		.sleb128 4
 6852 1b20 02       		.uleb128 0x2
 6853 1b21 77       		.byte	0x77
ARM GAS  C:\Users\srich\AppData\Local\Temp\ccv3JVxh.s 			page 122


 6854 1b22 00       		.sleb128 0
 6855 1b23 26       		.uleb128 0x26
 6856 1b24 02       		.uleb128 0x2
 6857 1b25 7D       		.byte	0x7d
 6858 1b26 00       		.sleb128 0
 6859 1b27 02       		.uleb128 0x2
 6860 1b28 74       		.byte	0x74
 6861 1b29 00       		.sleb128 0
 6862 1b2a 00       		.byte	0
 6863 1b2b 2E       		.uleb128 0x2e
 6864 1b2c F2020000 		.4byte	.LVL126
 6865 1b30 A72B0000 		.4byte	0x2ba7
 6866 1b34 5B1B0000 		.4byte	0x1b5b
 6867 1b38 26       		.uleb128 0x26
 6868 1b39 01       		.uleb128 0x1
 6869 1b3a 53       		.byte	0x53
 6870 1b3b 03       		.uleb128 0x3
 6871 1b3c 0A       		.byte	0xa
 6872 1b3d 1001     		.2byte	0x110
 6873 1b3f 26       		.uleb128 0x26
 6874 1b40 01       		.uleb128 0x1
 6875 1b41 52       		.byte	0x52
 6876 1b42 03       		.uleb128 0x3
 6877 1b43 0A       		.byte	0xa
 6878 1b44 6D01     		.2byte	0x16d
 6879 1b46 26       		.uleb128 0x26
 6880 1b47 01       		.uleb128 0x1
 6881 1b48 51       		.byte	0x51
 6882 1b49 02       		.uleb128 0x2
 6883 1b4a 74       		.byte	0x74
 6884 1b4b 00       		.sleb128 0
 6885 1b4c 26       		.uleb128 0x26
 6886 1b4d 01       		.uleb128 0x1
 6887 1b4e 50       		.byte	0x50
 6888 1b4f 03       		.uleb128 0x3
 6889 1b50 0A       		.byte	0xa
 6890 1b51 6D01     		.2byte	0x16d
 6891 1b53 26       		.uleb128 0x26
 6892 1b54 02       		.uleb128 0x2
 6893 1b55 7D       		.byte	0x7d
 6894 1b56 00       		.sleb128 0
 6895 1b57 02       		.uleb128 0x2
 6896 1b58 75       		.byte	0x75
 6897 1b59 00       		.sleb128 0
 6898 1b5a 00       		.byte	0
 6899 1b5b 25       		.uleb128 0x25
 6900 1b5c 02030000 		.4byte	.LVL127
 6901 1b60 A72B0000 		.4byte	0x2ba7
 6902 1b64 26       		.uleb128 0x26
 6903 1b65 01       		.uleb128 0x1
 6904 1b66 53       		.byte	0x53
 6905 1b67 03       		.uleb128 0x3
 6906 1b68 0A       		.byte	0xa
 6907 1b69 1001     		.2byte	0x110
 6908 1b6b 26       		.uleb128 0x26
 6909 1b6c 01       		.uleb128 0x1
 6910 1b6d 52       		.byte	0x52
ARM GAS  C:\Users\srich\AppData\Local\Temp\ccv3JVxh.s 			page 123


 6911 1b6e 02       		.uleb128 0x2
 6912 1b6f 08       		.byte	0x8
 6913 1b70 96       		.byte	0x96
 6914 1b71 26       		.uleb128 0x26
 6915 1b72 01       		.uleb128 0x1
 6916 1b73 51       		.byte	0x51
 6917 1b74 02       		.uleb128 0x2
 6918 1b75 74       		.byte	0x74
 6919 1b76 00       		.sleb128 0
 6920 1b77 26       		.uleb128 0x26
 6921 1b78 01       		.uleb128 0x1
 6922 1b79 50       		.byte	0x50
 6923 1b7a 02       		.uleb128 0x2
 6924 1b7b 08       		.byte	0x8
 6925 1b7c 96       		.byte	0x96
 6926 1b7d 26       		.uleb128 0x26
 6927 1b7e 02       		.uleb128 0x2
 6928 1b7f 7D       		.byte	0x7d
 6929 1b80 00       		.sleb128 0
 6930 1b81 02       		.uleb128 0x2
 6931 1b82 75       		.byte	0x75
 6932 1b83 00       		.sleb128 0
 6933 1b84 00       		.byte	0
 6934 1b85 00       		.byte	0
 6935 1b86 34       		.uleb128 0x34
 6936 1b87 D1000000 		.4byte	.LASF187
 6937 1b8b 01       		.byte	0x1
 6938 1b8c B7       		.byte	0xb7
 6939 1b8d 00000000 		.4byte	.LFB124
 6940 1b91 08010000 		.4byte	.LFE124-.LFB124
 6941 1b95 01       		.uleb128 0x1
 6942 1b96 9C       		.byte	0x9c
 6943 1b97 A81C0000 		.4byte	0x1ca8
 6944 1b9b 32       		.uleb128 0x32
 6945 1b9c 0C060000 		.4byte	.LASF188
 6946 1ba0 01       		.byte	0x1
 6947 1ba1 B8       		.byte	0xb8
 6948 1ba2 33000000 		.4byte	0x33
 6949 1ba6 7A0B0000 		.4byte	.LLST42
 6950 1baa 32       		.uleb128 0x32
 6951 1bab DA0A0000 		.4byte	.LASF189
 6952 1baf 01       		.byte	0x1
 6953 1bb0 E8       		.byte	0xe8
 6954 1bb1 33000000 		.4byte	0x33
 6955 1bb5 5E0C0000 		.4byte	.LLST43
 6956 1bb9 3B       		.uleb128 0x3b
 6957 1bba 8F0A0000 		.4byte	.LASF190
 6958 1bbe 01       		.byte	0x1
 6959 1bbf FD       		.byte	0xfd
 6960 1bc0 CE000000 		.4byte	0xce
 6961 1bc4 3C       		.uleb128 0x3c
 6962 1bc5 6900     		.ascii	"i\000"
 6963 1bc7 01       		.byte	0x1
 6964 1bc8 0101     		.2byte	0x101
 6965 1bca 33000000 		.4byte	0x33
 6966 1bce D00C0000 		.4byte	.LLST44
 6967 1bd2 23       		.uleb128 0x23
ARM GAS  C:\Users\srich\AppData\Local\Temp\ccv3JVxh.s 			page 124


 6968 1bd3 FB050000 		.4byte	.LASF191
 6969 1bd7 01       		.byte	0x1
 6970 1bd8 0E01     		.2byte	0x10e
 6971 1bda 33000000 		.4byte	0x33
 6972 1bde F00C0000 		.4byte	.LLST45
 6973 1be2 3D       		.uleb128 0x3d
 6974 1be3 50000000 		.4byte	.Ldebug_ranges0+0x50
 6975 1be7 0C1C0000 		.4byte	0x1c0c
 6976 1beb 23       		.uleb128 0x23
 6977 1bec 09030000 		.4byte	.LASF192
 6978 1bf0 01       		.byte	0x1
 6979 1bf1 0501     		.2byte	0x105
 6980 1bf3 CE000000 		.4byte	0xce
 6981 1bf7 3C0D0000 		.4byte	.LLST46
 6982 1bfb 23       		.uleb128 0x23
 6983 1bfc C5070000 		.4byte	.LASF193
 6984 1c00 01       		.byte	0x1
 6985 1c01 0601     		.2byte	0x106
 6986 1c03 CE000000 		.4byte	0xce
 6987 1c07 750D0000 		.4byte	.LLST47
 6988 1c0b 00       		.byte	0
 6989 1c0c 3D       		.uleb128 0x3d
 6990 1c0d 68000000 		.4byte	.Ldebug_ranges0+0x68
 6991 1c11 261C0000 		.4byte	0x1c26
 6992 1c15 23       		.uleb128 0x23
 6993 1c16 09030000 		.4byte	.LASF192
 6994 1c1a 01       		.byte	0x1
 6995 1c1b 1101     		.2byte	0x111
 6996 1c1d CE000000 		.4byte	0xce
 6997 1c21 A10D0000 		.4byte	.LLST48
 6998 1c25 00       		.byte	0
 6999 1c26 2E       		.uleb128 0x2e
 7000 1c27 08000000 		.4byte	.LVL129
 7001 1c2b D02B0000 		.4byte	0x2bd0
 7002 1c2f 391C0000 		.4byte	0x1c39
 7003 1c33 26       		.uleb128 0x26
 7004 1c34 01       		.uleb128 0x1
 7005 1c35 50       		.byte	0x50
 7006 1c36 01       		.uleb128 0x1
 7007 1c37 33       		.byte	0x33
 7008 1c38 00       		.byte	0
 7009 1c39 2E       		.uleb128 0x2e
 7010 1c3a 18000000 		.4byte	.LVL131
 7011 1c3e D02B0000 		.4byte	0x2bd0
 7012 1c42 4C1C0000 		.4byte	0x1c4c
 7013 1c46 26       		.uleb128 0x26
 7014 1c47 01       		.uleb128 0x1
 7015 1c48 50       		.byte	0x50
 7016 1c49 01       		.uleb128 0x1
 7017 1c4a 32       		.byte	0x32
 7018 1c4b 00       		.byte	0
 7019 1c4c 2E       		.uleb128 0x2e
 7020 1c4d 28000000 		.4byte	.LVL134
 7021 1c51 D02B0000 		.4byte	0x2bd0
 7022 1c55 5F1C0000 		.4byte	0x1c5f
 7023 1c59 26       		.uleb128 0x26
 7024 1c5a 01       		.uleb128 0x1
ARM GAS  C:\Users\srich\AppData\Local\Temp\ccv3JVxh.s 			page 125


 7025 1c5b 50       		.byte	0x50
 7026 1c5c 01       		.uleb128 0x1
 7027 1c5d 35       		.byte	0x35
 7028 1c5e 00       		.byte	0
 7029 1c5f 24       		.uleb128 0x24
 7030 1c60 3A000000 		.4byte	.LVL136
 7031 1c64 E52B0000 		.4byte	0x2be5
 7032 1c68 24       		.uleb128 0x24
 7033 1c69 40000000 		.4byte	.LVL137
 7034 1c6d F02B0000 		.4byte	0x2bf0
 7035 1c71 2E       		.uleb128 0x2e
 7036 1c72 50000000 		.4byte	.LVL139
 7037 1c76 012C0000 		.4byte	0x2c01
 7038 1c7a 851C0000 		.4byte	0x1c85
 7039 1c7e 26       		.uleb128 0x26
 7040 1c7f 01       		.uleb128 0x1
 7041 1c80 50       		.byte	0x50
 7042 1c81 02       		.uleb128 0x2
 7043 1c82 77       		.byte	0x77
 7044 1c83 00       		.sleb128 0
 7045 1c84 00       		.byte	0
 7046 1c85 2E       		.uleb128 0x2e
 7047 1c86 B8000000 		.4byte	.LVL155
 7048 1c8a D02B0000 		.4byte	0x2bd0
 7049 1c8e 981C0000 		.4byte	0x1c98
 7050 1c92 26       		.uleb128 0x26
 7051 1c93 01       		.uleb128 0x1
 7052 1c94 50       		.byte	0x50
 7053 1c95 01       		.uleb128 0x1
 7054 1c96 34       		.byte	0x34
 7055 1c97 00       		.byte	0
 7056 1c98 25       		.uleb128 0x25
 7057 1c99 C6000000 		.4byte	.LVL157
 7058 1c9d D02B0000 		.4byte	0x2bd0
 7059 1ca1 26       		.uleb128 0x26
 7060 1ca2 01       		.uleb128 0x1
 7061 1ca3 50       		.byte	0x50
 7062 1ca4 01       		.uleb128 0x1
 7063 1ca5 34       		.byte	0x34
 7064 1ca6 00       		.byte	0
 7065 1ca7 00       		.byte	0
 7066 1ca8 3E       		.uleb128 0x3e
 7067 1ca9 8E030000 		.4byte	.LASF195
 7068 1cad 01       		.byte	0x1
 7069 1cae 2601     		.2byte	0x126
 7070 1cb0 00000000 		.4byte	.LFB125
 7071 1cb4 EC000000 		.4byte	.LFE125-.LFB125
 7072 1cb8 01       		.uleb128 0x1
 7073 1cb9 9C       		.byte	0x9c
 7074 1cba 7A1D0000 		.4byte	0x1d7a
 7075 1cbe 23       		.uleb128 0x23
 7076 1cbf 0C060000 		.4byte	.LASF188
 7077 1cc3 01       		.byte	0x1
 7078 1cc4 2701     		.2byte	0x127
 7079 1cc6 D9000000 		.4byte	0xd9
 7080 1cca D80D0000 		.4byte	.LLST49
 7081 1cce 3F       		.uleb128 0x3f
ARM GAS  C:\Users\srich\AppData\Local\Temp\ccv3JVxh.s 			page 126


 7082 1ccf 95040000 		.4byte	.LASF196
 7083 1cd3 01       		.byte	0x1
 7084 1cd4 2A01     		.2byte	0x12a
 7085 1cd6 33000000 		.4byte	0x33
 7086 1cda E01C0000 		.4byte	0x1ce0
 7087 1cde 2A       		.uleb128 0x2a
 7088 1cdf 00       		.byte	0
 7089 1ce0 23       		.uleb128 0x23
 7090 1ce1 4D0A0000 		.4byte	.LASF197
 7091 1ce5 01       		.byte	0x1
 7092 1ce6 2E01     		.2byte	0x12e
 7093 1ce8 33000000 		.4byte	0x33
 7094 1cec 400E0000 		.4byte	.LLST50
 7095 1cf0 23       		.uleb128 0x23
 7096 1cf1 130C0000 		.4byte	.LASF198
 7097 1cf5 01       		.byte	0x1
 7098 1cf6 4F01     		.2byte	0x14f
 7099 1cf8 D9000000 		.4byte	0xd9
 7100 1cfc 530E0000 		.4byte	.LLST51
 7101 1d00 3F       		.uleb128 0x3f
 7102 1d01 3D070000 		.4byte	.LASF199
 7103 1d05 01       		.byte	0x1
 7104 1d06 4F01     		.2byte	0x14f
 7105 1d08 33000000 		.4byte	0x33
 7106 1d0c 121D0000 		.4byte	0x1d12
 7107 1d10 2A       		.uleb128 0x2a
 7108 1d11 00       		.byte	0
 7109 1d12 3F       		.uleb128 0x3f
 7110 1d13 250A0000 		.4byte	.LASF200
 7111 1d17 01       		.byte	0x1
 7112 1d18 5301     		.2byte	0x153
 7113 1d1a 33000000 		.4byte	0x33
 7114 1d1e 241D0000 		.4byte	0x1d24
 7115 1d22 2A       		.uleb128 0x2a
 7116 1d23 00       		.byte	0
 7117 1d24 24       		.uleb128 0x24
 7118 1d25 06000000 		.4byte	.LVL169
 7119 1d29 182C0000 		.4byte	0x2c18
 7120 1d2d 2E       		.uleb128 0x2e
 7121 1d2e 12000000 		.4byte	.LVL170
 7122 1d32 012C0000 		.4byte	0x2c01
 7123 1d36 411D0000 		.4byte	0x1d41
 7124 1d3a 26       		.uleb128 0x26
 7125 1d3b 01       		.uleb128 0x1
 7126 1d3c 50       		.byte	0x50
 7127 1d3d 02       		.uleb128 0x2
 7128 1d3e 75       		.byte	0x75
 7129 1d3f 00       		.sleb128 0
 7130 1d40 00       		.byte	0
 7131 1d41 2E       		.uleb128 0x2e
 7132 1d42 62000000 		.4byte	.LVL173
 7133 1d46 2A2C0000 		.4byte	0x2c2a
 7134 1d4a 541D0000 		.4byte	0x1d54
 7135 1d4e 26       		.uleb128 0x26
 7136 1d4f 01       		.uleb128 0x1
 7137 1d50 50       		.byte	0x50
 7138 1d51 01       		.uleb128 0x1
ARM GAS  C:\Users\srich\AppData\Local\Temp\ccv3JVxh.s 			page 127


 7139 1d52 30       		.byte	0x30
 7140 1d53 00       		.byte	0
 7141 1d54 2E       		.uleb128 0x2e
 7142 1d55 7E000000 		.4byte	.LVL175
 7143 1d59 2A2C0000 		.4byte	0x2c2a
 7144 1d5d 671D0000 		.4byte	0x1d67
 7145 1d61 26       		.uleb128 0x26
 7146 1d62 01       		.uleb128 0x1
 7147 1d63 50       		.byte	0x50
 7148 1d64 01       		.uleb128 0x1
 7149 1d65 31       		.byte	0x31
 7150 1d66 00       		.byte	0
 7151 1d67 24       		.uleb128 0x24
 7152 1d68 98000000 		.4byte	.LVL179
 7153 1d6c 3F2C0000 		.4byte	0x2c3f
 7154 1d70 24       		.uleb128 0x24
 7155 1d71 AE000000 		.4byte	.LVL181
 7156 1d75 512C0000 		.4byte	0x2c51
 7157 1d79 00       		.byte	0
 7158 1d7a 40       		.uleb128 0x40
 7159 1d7b D4090000 		.4byte	.LASF201
 7160 1d7f 01       		.byte	0x1
 7161 1d80 5601     		.2byte	0x156
 7162 1d82 00000000 		.4byte	.LFB126
 7163 1d86 D4000000 		.4byte	.LFE126-.LFB126
 7164 1d8a 01       		.uleb128 0x1
 7165 1d8b 9C       		.byte	0x9c
 7166 1d8c CE1D0000 		.4byte	0x1dce
 7167 1d90 23       		.uleb128 0x23
 7168 1d91 0C060000 		.4byte	.LASF188
 7169 1d95 01       		.byte	0x1
 7170 1d96 5701     		.2byte	0x157
 7171 1d98 33000000 		.4byte	0x33
 7172 1d9c 660E0000 		.4byte	.LLST52
 7173 1da0 3F       		.uleb128 0x3f
 7174 1da1 29030000 		.4byte	.LASF202
 7175 1da5 01       		.byte	0x1
 7176 1da6 5701     		.2byte	0x157
 7177 1da8 33000000 		.4byte	0x33
 7178 1dac B21D0000 		.4byte	0x1db2
 7179 1db0 2A       		.uleb128 0x2a
 7180 1db1 00       		.byte	0
 7181 1db2 41       		.uleb128 0x41
 7182 1db3 3A090000 		.4byte	.LASF177
 7183 1db7 01       		.byte	0x1
 7184 1db8 5B01     		.2byte	0x15b
 7185 1dba 21080000 		.4byte	0x821
 7186 1dbe 25       		.uleb128 0x25
 7187 1dbf 08000000 		.4byte	.LVL186
 7188 1dc3 632C0000 		.4byte	0x2c63
 7189 1dc7 26       		.uleb128 0x26
 7190 1dc8 01       		.uleb128 0x1
 7191 1dc9 50       		.byte	0x50
 7192 1dca 01       		.uleb128 0x1
 7193 1dcb 32       		.byte	0x32
 7194 1dcc 00       		.byte	0
 7195 1dcd 00       		.byte	0
ARM GAS  C:\Users\srich\AppData\Local\Temp\ccv3JVxh.s 			page 128


 7196 1dce 3E       		.uleb128 0x3e
 7197 1dcf 62000000 		.4byte	.LASF203
 7198 1dd3 01       		.byte	0x1
 7199 1dd4 B501     		.2byte	0x1b5
 7200 1dd6 00000000 		.4byte	.LFB128
 7201 1dda C0010000 		.4byte	.LFE128-.LFB128
 7202 1dde 01       		.uleb128 0x1
 7203 1ddf 9C       		.byte	0x9c
 7204 1de0 D51F0000 		.4byte	0x1fd5
 7205 1de4 2E       		.uleb128 0x2e
 7206 1de5 40000000 		.4byte	.LVL210
 7207 1de9 660D0000 		.4byte	0xd66
 7208 1ded 171E0000 		.4byte	0x1e17
 7209 1df1 26       		.uleb128 0x26
 7210 1df2 01       		.uleb128 0x1
 7211 1df3 53       		.byte	0x53
 7212 1df4 01       		.uleb128 0x1
 7213 1df5 47       		.byte	0x47
 7214 1df6 26       		.uleb128 0x26
 7215 1df7 01       		.uleb128 0x1
 7216 1df8 52       		.byte	0x52
 7217 1df9 02       		.uleb128 0x2
 7218 1dfa 08       		.byte	0x8
 7219 1dfb 47       		.byte	0x47
 7220 1dfc 26       		.uleb128 0x26
 7221 1dfd 01       		.uleb128 0x1
 7222 1dfe 51       		.byte	0x51
 7223 1dff 03       		.uleb128 0x3
 7224 1e00 0A       		.byte	0xa
 7225 1e01 B401     		.2byte	0x1b4
 7226 1e03 26       		.uleb128 0x26
 7227 1e04 01       		.uleb128 0x1
 7228 1e05 50       		.byte	0x50
 7229 1e06 03       		.uleb128 0x3
 7230 1e07 0A       		.byte	0xa
 7231 1e08 6548     		.2byte	0x4865
 7232 1e0a 26       		.uleb128 0x26
 7233 1e0b 02       		.uleb128 0x2
 7234 1e0c 7D       		.byte	0x7d
 7235 1e0d 08       		.sleb128 8
 7236 1e0e 01       		.uleb128 0x1
 7237 1e0f 30       		.byte	0x30
 7238 1e10 26       		.uleb128 0x26
 7239 1e11 02       		.uleb128 0x2
 7240 1e12 7D       		.byte	0x7d
 7241 1e13 04       		.sleb128 4
 7242 1e14 01       		.uleb128 0x1
 7243 1e15 32       		.byte	0x32
 7244 1e16 00       		.byte	0
 7245 1e17 2E       		.uleb128 0x2e
 7246 1e18 6C000000 		.4byte	.LVL211
 7247 1e1c 660D0000 		.4byte	0xd66
 7248 1e20 4A1E0000 		.4byte	0x1e4a
 7249 1e24 26       		.uleb128 0x26
 7250 1e25 01       		.uleb128 0x1
 7251 1e26 53       		.byte	0x53
 7252 1e27 01       		.uleb128 0x1
ARM GAS  C:\Users\srich\AppData\Local\Temp\ccv3JVxh.s 			page 129


 7253 1e28 47       		.byte	0x47
 7254 1e29 26       		.uleb128 0x26
 7255 1e2a 01       		.uleb128 0x1
 7256 1e2b 52       		.byte	0x52
 7257 1e2c 02       		.uleb128 0x2
 7258 1e2d 08       		.byte	0x8
 7259 1e2e 88       		.byte	0x88
 7260 1e2f 26       		.uleb128 0x26
 7261 1e30 01       		.uleb128 0x1
 7262 1e31 51       		.byte	0x51
 7263 1e32 03       		.uleb128 0x3
 7264 1e33 0A       		.byte	0xa
 7265 1e34 B401     		.2byte	0x1b4
 7266 1e36 26       		.uleb128 0x26
 7267 1e37 01       		.uleb128 0x1
 7268 1e38 50       		.byte	0x50
 7269 1e39 03       		.uleb128 0x3
 7270 1e3a 0A       		.byte	0xa
 7271 1e3b 6548     		.2byte	0x4865
 7272 1e3d 26       		.uleb128 0x26
 7273 1e3e 02       		.uleb128 0x2
 7274 1e3f 7D       		.byte	0x7d
 7275 1e40 08       		.sleb128 8
 7276 1e41 01       		.uleb128 0x1
 7277 1e42 30       		.byte	0x30
 7278 1e43 26       		.uleb128 0x26
 7279 1e44 02       		.uleb128 0x2
 7280 1e45 7D       		.byte	0x7d
 7281 1e46 04       		.sleb128 4
 7282 1e47 01       		.uleb128 0x1
 7283 1e48 32       		.byte	0x32
 7284 1e49 00       		.byte	0
 7285 1e4a 2E       		.uleb128 0x2e
 7286 1e4b 98000000 		.4byte	.LVL212
 7287 1e4f 660D0000 		.4byte	0xd66
 7288 1e53 7D1E0000 		.4byte	0x1e7d
 7289 1e57 26       		.uleb128 0x26
 7290 1e58 01       		.uleb128 0x1
 7291 1e59 53       		.byte	0x53
 7292 1e5a 01       		.uleb128 0x1
 7293 1e5b 47       		.byte	0x47
 7294 1e5c 26       		.uleb128 0x26
 7295 1e5d 01       		.uleb128 0x1
 7296 1e5e 52       		.byte	0x52
 7297 1e5f 02       		.uleb128 0x2
 7298 1e60 08       		.byte	0x8
 7299 1e61 C9       		.byte	0xc9
 7300 1e62 26       		.uleb128 0x26
 7301 1e63 01       		.uleb128 0x1
 7302 1e64 51       		.byte	0x51
 7303 1e65 03       		.uleb128 0x3
 7304 1e66 0A       		.byte	0xa
 7305 1e67 B401     		.2byte	0x1b4
 7306 1e69 26       		.uleb128 0x26
 7307 1e6a 01       		.uleb128 0x1
 7308 1e6b 50       		.byte	0x50
 7309 1e6c 03       		.uleb128 0x3
ARM GAS  C:\Users\srich\AppData\Local\Temp\ccv3JVxh.s 			page 130


 7310 1e6d 0A       		.byte	0xa
 7311 1e6e 6548     		.2byte	0x4865
 7312 1e70 26       		.uleb128 0x26
 7313 1e71 02       		.uleb128 0x2
 7314 1e72 7D       		.byte	0x7d
 7315 1e73 08       		.sleb128 8
 7316 1e74 01       		.uleb128 0x1
 7317 1e75 30       		.byte	0x30
 7318 1e76 26       		.uleb128 0x26
 7319 1e77 02       		.uleb128 0x2
 7320 1e78 7D       		.byte	0x7d
 7321 1e79 04       		.sleb128 4
 7322 1e7a 01       		.uleb128 0x1
 7323 1e7b 32       		.byte	0x32
 7324 1e7c 00       		.byte	0
 7325 1e7d 2E       		.uleb128 0x2e
 7326 1e7e C2000000 		.4byte	.LVL213
 7327 1e82 660D0000 		.4byte	0xd66
 7328 1e86 AF1E0000 		.4byte	0x1eaf
 7329 1e8a 26       		.uleb128 0x26
 7330 1e8b 01       		.uleb128 0x1
 7331 1e8c 53       		.byte	0x53
 7332 1e8d 01       		.uleb128 0x1
 7333 1e8e 3F       		.byte	0x3f
 7334 1e8f 26       		.uleb128 0x26
 7335 1e90 01       		.uleb128 0x1
 7336 1e91 52       		.byte	0x52
 7337 1e92 02       		.uleb128 0x2
 7338 1e93 08       		.byte	0x8
 7339 1e94 54       		.byte	0x54
 7340 1e95 26       		.uleb128 0x26
 7341 1e96 01       		.uleb128 0x1
 7342 1e97 51       		.byte	0x51
 7343 1e98 02       		.uleb128 0x2
 7344 1e99 08       		.byte	0x8
 7345 1e9a 72       		.byte	0x72
 7346 1e9b 26       		.uleb128 0x26
 7347 1e9c 01       		.uleb128 0x1
 7348 1e9d 50       		.byte	0x50
 7349 1e9e 03       		.uleb128 0x3
 7350 1e9f 0A       		.byte	0xa
 7351 1ea0 4B48     		.2byte	0x484b
 7352 1ea2 26       		.uleb128 0x26
 7353 1ea3 02       		.uleb128 0x2
 7354 1ea4 7D       		.byte	0x7d
 7355 1ea5 08       		.sleb128 8
 7356 1ea6 01       		.uleb128 0x1
 7357 1ea7 3A       		.byte	0x3a
 7358 1ea8 26       		.uleb128 0x26
 7359 1ea9 02       		.uleb128 0x2
 7360 1eaa 7D       		.byte	0x7d
 7361 1eab 04       		.sleb128 4
 7362 1eac 01       		.uleb128 0x1
 7363 1ead 34       		.byte	0x34
 7364 1eae 00       		.byte	0
 7365 1eaf 2E       		.uleb128 0x2e
 7366 1eb0 EC000000 		.4byte	.LVL214
ARM GAS  C:\Users\srich\AppData\Local\Temp\ccv3JVxh.s 			page 131


 7367 1eb4 660D0000 		.4byte	0xd66
 7368 1eb8 E11E0000 		.4byte	0x1ee1
 7369 1ebc 26       		.uleb128 0x26
 7370 1ebd 01       		.uleb128 0x1
 7371 1ebe 53       		.byte	0x53
 7372 1ebf 01       		.uleb128 0x1
 7373 1ec0 3F       		.byte	0x3f
 7374 1ec1 26       		.uleb128 0x26
 7375 1ec2 01       		.uleb128 0x1
 7376 1ec3 52       		.byte	0x52
 7377 1ec4 02       		.uleb128 0x2
 7378 1ec5 08       		.byte	0x8
 7379 1ec6 4B       		.byte	0x4b
 7380 1ec7 26       		.uleb128 0x26
 7381 1ec8 01       		.uleb128 0x1
 7382 1ec9 51       		.byte	0x51
 7383 1eca 02       		.uleb128 0x2
 7384 1ecb 08       		.byte	0x8
 7385 1ecc 4F       		.byte	0x4f
 7386 1ecd 26       		.uleb128 0x26
 7387 1ece 01       		.uleb128 0x1
 7388 1ecf 50       		.byte	0x50
 7389 1ed0 03       		.uleb128 0x3
 7390 1ed1 0A       		.byte	0xa
 7391 1ed2 4B48     		.2byte	0x484b
 7392 1ed4 26       		.uleb128 0x26
 7393 1ed5 02       		.uleb128 0x2
 7394 1ed6 7D       		.byte	0x7d
 7395 1ed7 08       		.sleb128 8
 7396 1ed8 01       		.uleb128 0x1
 7397 1ed9 3A       		.byte	0x3a
 7398 1eda 26       		.uleb128 0x26
 7399 1edb 02       		.uleb128 0x2
 7400 1edc 7D       		.byte	0x7d
 7401 1edd 04       		.sleb128 4
 7402 1ede 01       		.uleb128 0x1
 7403 1edf 33       		.byte	0x33
 7404 1ee0 00       		.byte	0
 7405 1ee1 2E       		.uleb128 0x2e
 7406 1ee2 16010000 		.4byte	.LVL215
 7407 1ee6 660D0000 		.4byte	0xd66
 7408 1eea 131F0000 		.4byte	0x1f13
 7409 1eee 26       		.uleb128 0x26
 7410 1eef 01       		.uleb128 0x1
 7411 1ef0 53       		.byte	0x53
 7412 1ef1 01       		.uleb128 0x1
 7413 1ef2 3F       		.byte	0x3f
 7414 1ef3 26       		.uleb128 0x26
 7415 1ef4 01       		.uleb128 0x1
 7416 1ef5 52       		.byte	0x52
 7417 1ef6 02       		.uleb128 0x2
 7418 1ef7 08       		.byte	0x8
 7419 1ef8 BC       		.byte	0xbc
 7420 1ef9 26       		.uleb128 0x26
 7421 1efa 01       		.uleb128 0x1
 7422 1efb 51       		.byte	0x51
 7423 1efc 02       		.uleb128 0x2
ARM GAS  C:\Users\srich\AppData\Local\Temp\ccv3JVxh.s 			page 132


 7424 1efd 08       		.byte	0x8
 7425 1efe 72       		.byte	0x72
 7426 1eff 26       		.uleb128 0x26
 7427 1f00 01       		.uleb128 0x1
 7428 1f01 50       		.byte	0x50
 7429 1f02 03       		.uleb128 0x3
 7430 1f03 0A       		.byte	0xa
 7431 1f04 4B48     		.2byte	0x484b
 7432 1f06 26       		.uleb128 0x26
 7433 1f07 02       		.uleb128 0x2
 7434 1f08 7D       		.byte	0x7d
 7435 1f09 08       		.sleb128 8
 7436 1f0a 01       		.uleb128 0x1
 7437 1f0b 3A       		.byte	0x3a
 7438 1f0c 26       		.uleb128 0x26
 7439 1f0d 02       		.uleb128 0x2
 7440 1f0e 7D       		.byte	0x7d
 7441 1f0f 04       		.sleb128 4
 7442 1f10 01       		.uleb128 0x1
 7443 1f11 34       		.byte	0x34
 7444 1f12 00       		.byte	0
 7445 1f13 2E       		.uleb128 0x2e
 7446 1f14 40010000 		.4byte	.LVL216
 7447 1f18 660D0000 		.4byte	0xd66
 7448 1f1c 451F0000 		.4byte	0x1f45
 7449 1f20 26       		.uleb128 0x26
 7450 1f21 01       		.uleb128 0x1
 7451 1f22 53       		.byte	0x53
 7452 1f23 01       		.uleb128 0x1
 7453 1f24 3F       		.byte	0x3f
 7454 1f25 26       		.uleb128 0x26
 7455 1f26 01       		.uleb128 0x1
 7456 1f27 52       		.byte	0x52
 7457 1f28 02       		.uleb128 0x2
 7458 1f29 08       		.byte	0x8
 7459 1f2a BC       		.byte	0xbc
 7460 1f2b 26       		.uleb128 0x26
 7461 1f2c 01       		.uleb128 0x1
 7462 1f2d 51       		.byte	0x51
 7463 1f2e 02       		.uleb128 0x2
 7464 1f2f 08       		.byte	0x8
 7465 1f30 4F       		.byte	0x4f
 7466 1f31 26       		.uleb128 0x26
 7467 1f32 01       		.uleb128 0x1
 7468 1f33 50       		.byte	0x50
 7469 1f34 03       		.uleb128 0x3
 7470 1f35 0A       		.byte	0xa
 7471 1f36 4B48     		.2byte	0x484b
 7472 1f38 26       		.uleb128 0x26
 7473 1f39 02       		.uleb128 0x2
 7474 1f3a 7D       		.byte	0x7d
 7475 1f3b 08       		.sleb128 8
 7476 1f3c 01       		.uleb128 0x1
 7477 1f3d 3A       		.byte	0x3a
 7478 1f3e 26       		.uleb128 0x26
 7479 1f3f 02       		.uleb128 0x2
 7480 1f40 7D       		.byte	0x7d
ARM GAS  C:\Users\srich\AppData\Local\Temp\ccv3JVxh.s 			page 133


 7481 1f41 04       		.sleb128 4
 7482 1f42 01       		.uleb128 0x1
 7483 1f43 34       		.byte	0x34
 7484 1f44 00       		.byte	0
 7485 1f45 2E       		.uleb128 0x2e
 7486 1f46 68010000 		.4byte	.LVL217
 7487 1f4a 660D0000 		.4byte	0xd66
 7488 1f4e 751F0000 		.4byte	0x1f75
 7489 1f52 26       		.uleb128 0x26
 7490 1f53 01       		.uleb128 0x1
 7491 1f54 53       		.byte	0x53
 7492 1f55 01       		.uleb128 0x1
 7493 1f56 41       		.byte	0x41
 7494 1f57 26       		.uleb128 0x26
 7495 1f58 01       		.uleb128 0x1
 7496 1f59 52       		.byte	0x52
 7497 1f5a 02       		.uleb128 0x2
 7498 1f5b 08       		.byte	0x8
 7499 1f5c F9       		.byte	0xf9
 7500 1f5d 26       		.uleb128 0x26
 7501 1f5e 01       		.uleb128 0x1
 7502 1f5f 51       		.byte	0x51
 7503 1f60 01       		.uleb128 0x1
 7504 1f61 47       		.byte	0x47
 7505 1f62 26       		.uleb128 0x26
 7506 1f63 01       		.uleb128 0x1
 7507 1f64 50       		.byte	0x50
 7508 1f65 02       		.uleb128 0x2
 7509 1f66 08       		.byte	0x8
 7510 1f67 22       		.byte	0x22
 7511 1f68 26       		.uleb128 0x26
 7512 1f69 02       		.uleb128 0x2
 7513 1f6a 7D       		.byte	0x7d
 7514 1f6b 08       		.sleb128 8
 7515 1f6c 01       		.uleb128 0x1
 7516 1f6d 3A       		.byte	0x3a
 7517 1f6e 26       		.uleb128 0x26
 7518 1f6f 02       		.uleb128 0x2
 7519 1f70 7D       		.byte	0x7d
 7520 1f71 04       		.sleb128 4
 7521 1f72 01       		.uleb128 0x1
 7522 1f73 31       		.byte	0x31
 7523 1f74 00       		.byte	0
 7524 1f75 2E       		.uleb128 0x2e
 7525 1f76 90010000 		.4byte	.LVL218
 7526 1f7a 660D0000 		.4byte	0xd66
 7527 1f7e A51F0000 		.4byte	0x1fa5
 7528 1f82 26       		.uleb128 0x26
 7529 1f83 01       		.uleb128 0x1
 7530 1f84 53       		.byte	0x53
 7531 1f85 01       		.uleb128 0x1
 7532 1f86 41       		.byte	0x41
 7533 1f87 26       		.uleb128 0x26
 7534 1f88 01       		.uleb128 0x1
 7535 1f89 52       		.byte	0x52
 7536 1f8a 02       		.uleb128 0x2
 7537 1f8b 08       		.byte	0x8
ARM GAS  C:\Users\srich\AppData\Local\Temp\ccv3JVxh.s 			page 134


 7538 1f8c DD       		.byte	0xdd
 7539 1f8d 26       		.uleb128 0x26
 7540 1f8e 01       		.uleb128 0x1
 7541 1f8f 51       		.byte	0x51
 7542 1f90 01       		.uleb128 0x1
 7543 1f91 45       		.byte	0x45
 7544 1f92 26       		.uleb128 0x26
 7545 1f93 01       		.uleb128 0x1
 7546 1f94 50       		.byte	0x50
 7547 1f95 02       		.uleb128 0x2
 7548 1f96 08       		.byte	0x8
 7549 1f97 22       		.byte	0x22
 7550 1f98 26       		.uleb128 0x26
 7551 1f99 02       		.uleb128 0x2
 7552 1f9a 7D       		.byte	0x7d
 7553 1f9b 08       		.sleb128 8
 7554 1f9c 01       		.uleb128 0x1
 7555 1f9d 3A       		.byte	0x3a
 7556 1f9e 26       		.uleb128 0x26
 7557 1f9f 02       		.uleb128 0x2
 7558 1fa0 7D       		.byte	0x7d
 7559 1fa1 04       		.sleb128 4
 7560 1fa2 01       		.uleb128 0x1
 7561 1fa3 34       		.byte	0x34
 7562 1fa4 00       		.byte	0
 7563 1fa5 25       		.uleb128 0x25
 7564 1fa6 B2010000 		.4byte	.LVL219
 7565 1faa 660D0000 		.4byte	0xd66
 7566 1fae 26       		.uleb128 0x26
 7567 1faf 01       		.uleb128 0x1
 7568 1fb0 53       		.byte	0x53
 7569 1fb1 02       		.uleb128 0x2
 7570 1fb2 08       		.byte	0x8
 7571 1fb3 40       		.byte	0x40
 7572 1fb4 26       		.uleb128 0x26
 7573 1fb5 01       		.uleb128 0x1
 7574 1fb6 52       		.byte	0x52
 7575 1fb7 02       		.uleb128 0x2
 7576 1fb8 08       		.byte	0x8
 7577 1fb9 A2       		.byte	0xa2
 7578 1fba 26       		.uleb128 0x26
 7579 1fbb 01       		.uleb128 0x1
 7580 1fbc 51       		.byte	0x51
 7581 1fbd 02       		.uleb128 0x2
 7582 1fbe 08       		.byte	0x8
 7583 1fbf D2       		.byte	0xd2
 7584 1fc0 26       		.uleb128 0x26
 7585 1fc1 01       		.uleb128 0x1
 7586 1fc2 50       		.byte	0x50
 7587 1fc3 03       		.uleb128 0x3
 7588 1fc4 0A       		.byte	0xa
 7589 1fc5 3414     		.2byte	0x1434
 7590 1fc7 26       		.uleb128 0x26
 7591 1fc8 02       		.uleb128 0x2
 7592 1fc9 7D       		.byte	0x7d
 7593 1fca 08       		.sleb128 8
 7594 1fcb 01       		.uleb128 0x1
ARM GAS  C:\Users\srich\AppData\Local\Temp\ccv3JVxh.s 			page 135


 7595 1fcc 3A       		.byte	0x3a
 7596 1fcd 26       		.uleb128 0x26
 7597 1fce 02       		.uleb128 0x2
 7598 1fcf 7D       		.byte	0x7d
 7599 1fd0 04       		.sleb128 4
 7600 1fd1 01       		.uleb128 0x1
 7601 1fd2 33       		.byte	0x33
 7602 1fd3 00       		.byte	0
 7603 1fd4 00       		.byte	0
 7604 1fd5 3E       		.uleb128 0x3e
 7605 1fd6 00000000 		.4byte	.LASF204
 7606 1fda 01       		.byte	0x1
 7607 1fdb E901     		.2byte	0x1e9
 7608 1fdd 00000000 		.4byte	.LFB129
 7609 1fe1 3C000000 		.4byte	.LFE129-.LFB129
 7610 1fe5 01       		.uleb128 0x1
 7611 1fe6 9C       		.byte	0x9c
 7612 1fe7 21200000 		.4byte	0x2021
 7613 1feb 24       		.uleb128 0x24
 7614 1fec 0C000000 		.4byte	.LVL220
 7615 1ff0 752C0000 		.4byte	0x2c75
 7616 1ff4 25       		.uleb128 0x25
 7617 1ff5 2A000000 		.4byte	.LVL221
 7618 1ff9 660D0000 		.4byte	0xd66
 7619 1ffd 26       		.uleb128 0x26
 7620 1ffe 01       		.uleb128 0x1
 7621 1fff 53       		.byte	0x53
 7622 2000 01       		.uleb128 0x1
 7623 2001 41       		.byte	0x41
 7624 2002 26       		.uleb128 0x26
 7625 2003 01       		.uleb128 0x1
 7626 2004 52       		.byte	0x52
 7627 2005 02       		.uleb128 0x2
 7628 2006 08       		.byte	0x8
 7629 2007 23       		.byte	0x23
 7630 2008 26       		.uleb128 0x26
 7631 2009 01       		.uleb128 0x1
 7632 200a 51       		.byte	0x51
 7633 200b 01       		.uleb128 0x1
 7634 200c 48       		.byte	0x48
 7635 200d 26       		.uleb128 0x26
 7636 200e 01       		.uleb128 0x1
 7637 200f 50       		.byte	0x50
 7638 2010 02       		.uleb128 0x2
 7639 2011 08       		.byte	0x8
 7640 2012 22       		.byte	0x22
 7641 2013 26       		.uleb128 0x26
 7642 2014 02       		.uleb128 0x2
 7643 2015 7D       		.byte	0x7d
 7644 2016 08       		.sleb128 8
 7645 2017 01       		.uleb128 0x1
 7646 2018 3A       		.byte	0x3a
 7647 2019 26       		.uleb128 0x26
 7648 201a 02       		.uleb128 0x2
 7649 201b 7D       		.byte	0x7d
 7650 201c 04       		.sleb128 4
 7651 201d 01       		.uleb128 0x1
ARM GAS  C:\Users\srich\AppData\Local\Temp\ccv3JVxh.s 			page 136


 7652 201e 33       		.byte	0x33
 7653 201f 00       		.byte	0
 7654 2020 00       		.byte	0
 7655 2021 2C       		.uleb128 0x2c
 7656 2022 220B0000 		.4byte	0xb22
 7657 2026 00000000 		.4byte	.LFB130
 7658 202a 68000000 		.4byte	.LFE130-.LFB130
 7659 202e 01       		.uleb128 0x1
 7660 202f 9C       		.byte	0x9c
 7661 2030 2B210000 		.4byte	0x212b
 7662 2034 42       		.uleb128 0x42
 7663 2035 C30A0000 		.4byte	0xac3
 7664 2039 0E000000 		.4byte	.LBB161
 7665 203d 12000000 		.4byte	.LBE161-.LBB161
 7666 2041 01       		.byte	0x1
 7667 2042 F501     		.2byte	0x1f5
 7668 2044 A0200000 		.4byte	0x20a0
 7669 2048 2D       		.uleb128 0x2d
 7670 2049 EC0A0000 		.4byte	0xaec
 7671 204d DB0E0000 		.4byte	.LLST53
 7672 2051 2D       		.uleb128 0x2d
 7673 2052 E30A0000 		.4byte	0xae3
 7674 2056 EE0E0000 		.4byte	.LLST54
 7675 205a 2D       		.uleb128 0x2d
 7676 205b DA0A0000 		.4byte	0xada
 7677 205f 020F0000 		.4byte	.LLST55
 7678 2063 2D       		.uleb128 0x2d
 7679 2064 CF0A0000 		.4byte	0xacf
 7680 2068 160F0000 		.4byte	.LLST56
 7681 206c 2E       		.uleb128 0x2e
 7682 206d 16000000 		.4byte	.LVL223
 7683 2071 2E2B0000 		.4byte	0x2b2e
 7684 2075 85200000 		.4byte	0x2085
 7685 2079 26       		.uleb128 0x26
 7686 207a 01       		.uleb128 0x1
 7687 207b 51       		.byte	0x51
 7688 207c 02       		.uleb128 0x2
 7689 207d 08       		.byte	0x8
 7690 207e 37       		.byte	0x37
 7691 207f 26       		.uleb128 0x26
 7692 2080 01       		.uleb128 0x1
 7693 2081 50       		.byte	0x50
 7694 2082 01       		.uleb128 0x1
 7695 2083 30       		.byte	0x30
 7696 2084 00       		.byte	0
 7697 2085 25       		.uleb128 0x25
 7698 2086 20000000 		.4byte	.LVL224
 7699 208a 5E2B0000 		.4byte	0x2b5e
 7700 208e 26       		.uleb128 0x26
 7701 208f 01       		.uleb128 0x1
 7702 2090 52       		.byte	0x52
 7703 2091 02       		.uleb128 0x2
 7704 2092 76       		.byte	0x76
 7705 2093 00       		.sleb128 0
 7706 2094 26       		.uleb128 0x26
 7707 2095 01       		.uleb128 0x1
 7708 2096 51       		.byte	0x51
ARM GAS  C:\Users\srich\AppData\Local\Temp\ccv3JVxh.s 			page 137


 7709 2097 01       		.uleb128 0x1
 7710 2098 30       		.byte	0x30
 7711 2099 26       		.uleb128 0x26
 7712 209a 01       		.uleb128 0x1
 7713 209b 50       		.byte	0x50
 7714 209c 01       		.uleb128 0x1
 7715 209d 35       		.byte	0x35
 7716 209e 00       		.byte	0
 7717 209f 00       		.byte	0
 7718 20a0 42       		.uleb128 0x42
 7719 20a1 C30A0000 		.4byte	0xac3
 7720 20a5 44000000 		.4byte	.LBB165
 7721 20a9 14000000 		.4byte	.LBE165-.LBB165
 7722 20ad 01       		.byte	0x1
 7723 20ae FB01     		.2byte	0x1fb
 7724 20b0 08210000 		.4byte	0x2108
 7725 20b4 2D       		.uleb128 0x2d
 7726 20b5 EC0A0000 		.4byte	0xaec
 7727 20b9 2B0F0000 		.4byte	.LLST57
 7728 20bd 36       		.uleb128 0x36
 7729 20be E30A0000 		.4byte	0xae3
 7730 20c2 00       		.byte	0
 7731 20c3 36       		.uleb128 0x36
 7732 20c4 DA0A0000 		.4byte	0xada
 7733 20c8 A2       		.byte	0xa2
 7734 20c9 39       		.uleb128 0x39
 7735 20ca CF0A0000 		.4byte	0xacf
 7736 20ce 4115     		.2byte	0x1541
 7737 20d0 2E       		.uleb128 0x2e
 7738 20d1 4E000000 		.4byte	.LVL229
 7739 20d5 2E2B0000 		.4byte	0x2b2e
 7740 20d9 EB200000 		.4byte	0x20eb
 7741 20dd 26       		.uleb128 0x26
 7742 20de 01       		.uleb128 0x1
 7743 20df 51       		.byte	0x51
 7744 20e0 03       		.uleb128 0x3
 7745 20e1 0A       		.byte	0xa
 7746 20e2 4115     		.2byte	0x1541
 7747 20e4 26       		.uleb128 0x26
 7748 20e5 01       		.uleb128 0x1
 7749 20e6 50       		.byte	0x50
 7750 20e7 02       		.uleb128 0x2
 7751 20e8 75       		.byte	0x75
 7752 20e9 00       		.sleb128 0
 7753 20ea 00       		.byte	0
 7754 20eb 25       		.uleb128 0x25
 7755 20ec 58000000 		.4byte	.LVL230
 7756 20f0 5E2B0000 		.4byte	0x2b5e
 7757 20f4 26       		.uleb128 0x26
 7758 20f5 01       		.uleb128 0x1
 7759 20f6 52       		.byte	0x52
 7760 20f7 02       		.uleb128 0x2
 7761 20f8 77       		.byte	0x77
 7762 20f9 00       		.sleb128 0
 7763 20fa 26       		.uleb128 0x26
 7764 20fb 01       		.uleb128 0x1
 7765 20fc 51       		.byte	0x51
ARM GAS  C:\Users\srich\AppData\Local\Temp\ccv3JVxh.s 			page 138


 7766 20fd 02       		.uleb128 0x2
 7767 20fe 75       		.byte	0x75
 7768 20ff 00       		.sleb128 0
 7769 2100 26       		.uleb128 0x26
 7770 2101 01       		.uleb128 0x1
 7771 2102 50       		.byte	0x50
 7772 2103 02       		.uleb128 0x2
 7773 2104 08       		.byte	0x8
 7774 2105 A2       		.byte	0xa2
 7775 2106 00       		.byte	0
 7776 2107 00       		.byte	0
 7777 2108 2E       		.uleb128 0x2e
 7778 2109 3C000000 		.4byte	.LVL226
 7779 210d 7D2B0000 		.4byte	0x2b7d
 7780 2111 1B210000 		.4byte	0x211b
 7781 2115 26       		.uleb128 0x26
 7782 2116 01       		.uleb128 0x1
 7783 2117 50       		.byte	0x50
 7784 2118 01       		.uleb128 0x1
 7785 2119 31       		.byte	0x31
 7786 211a 00       		.byte	0
 7787 211b 25       		.uleb128 0x25
 7788 211c 42000000 		.4byte	.LVL227
 7789 2120 922B0000 		.4byte	0x2b92
 7790 2124 26       		.uleb128 0x26
 7791 2125 01       		.uleb128 0x1
 7792 2126 50       		.byte	0x50
 7793 2127 01       		.uleb128 0x1
 7794 2128 4F       		.byte	0x4f
 7795 2129 00       		.byte	0
 7796 212a 00       		.byte	0
 7797 212b 43       		.uleb128 0x43
 7798 212c 2D0B0000 		.4byte	.LASF258
 7799 2130 01       		.byte	0x1
 7800 2131 3502     		.2byte	0x235
 7801 2133 CE000000 		.4byte	0xce
 7802 2137 00000000 		.4byte	.LFB133
 7803 213b 0C000000 		.4byte	.LFE133-.LFB133
 7804 213f 01       		.uleb128 0x1
 7805 2140 9C       		.byte	0x9c
 7806 2141 44       		.uleb128 0x44
 7807 2142 B80A0000 		.4byte	.LASF205
 7808 2146 01       		.byte	0x1
 7809 2147 3802     		.2byte	0x238
 7810 2149 01       		.byte	0x1
 7811 214a 67210000 		.4byte	0x2167
 7812 214e 45       		.uleb128 0x45
 7813 214f 46060000 		.4byte	.LASF206
 7814 2153 01       		.byte	0x1
 7815 2154 3802     		.2byte	0x238
 7816 2156 10010000 		.4byte	0x110
 7817 215a 46       		.uleb128 0x46
 7818 215b 1E       		.uleb128 0x1e
 7819 215c 6900     		.ascii	"i\000"
 7820 215e 01       		.byte	0x1
 7821 215f 3A02     		.2byte	0x23a
 7822 2161 33000000 		.4byte	0x33
ARM GAS  C:\Users\srich\AppData\Local\Temp\ccv3JVxh.s 			page 139


 7823 2165 00       		.byte	0
 7824 2166 00       		.byte	0
 7825 2167 2C       		.uleb128 0x2c
 7826 2168 41210000 		.4byte	0x2141
 7827 216c 00000000 		.4byte	.LFB134
 7828 2170 1E000000 		.4byte	.LFE134-.LFB134
 7829 2174 01       		.uleb128 0x1
 7830 2175 9C       		.byte	0x9c
 7831 2176 C8210000 		.4byte	0x21c8
 7832 217a 2D       		.uleb128 0x2d
 7833 217b 4E210000 		.4byte	0x214e
 7834 217f 3E0F0000 		.4byte	.LLST58
 7835 2183 47       		.uleb128 0x47
 7836 2184 06000000 		.4byte	.LBB168
 7837 2188 14000000 		.4byte	.LBE168-.LBB168
 7838 218c BE210000 		.4byte	0x21be
 7839 2190 48       		.uleb128 0x48
 7840 2191 5B210000 		.4byte	0x215b
 7841 2195 780F0000 		.4byte	.LLST59
 7842 2199 2E       		.uleb128 0x2e
 7843 219a 0C000000 		.4byte	.LVL234
 7844 219e 802C0000 		.4byte	0x2c80
 7845 21a2 AD210000 		.4byte	0x21ad
 7846 21a6 26       		.uleb128 0x26
 7847 21a7 01       		.uleb128 0x1
 7848 21a8 50       		.byte	0x50
 7849 21a9 02       		.uleb128 0x2
 7850 21aa 74       		.byte	0x74
 7851 21ab 00       		.sleb128 0
 7852 21ac 00       		.byte	0
 7853 21ad 25       		.uleb128 0x25
 7854 21ae 14000000 		.4byte	.LVL236
 7855 21b2 912C0000 		.4byte	0x2c91
 7856 21b6 26       		.uleb128 0x26
 7857 21b7 01       		.uleb128 0x1
 7858 21b8 50       		.byte	0x50
 7859 21b9 02       		.uleb128 0x2
 7860 21ba 08       		.byte	0x8
 7861 21bb 25       		.byte	0x25
 7862 21bc 00       		.byte	0
 7863 21bd 00       		.byte	0
 7864 21be 49       		.uleb128 0x49
 7865 21bf 1E000000 		.4byte	.LVL238
 7866 21c3 802C0000 		.4byte	0x2c80
 7867 21c7 00       		.byte	0
 7868 21c8 3E       		.uleb128 0x3e
 7869 21c9 3F090000 		.4byte	.LASF207
 7870 21cd 01       		.byte	0x1
 7871 21ce 4302     		.2byte	0x243
 7872 21d0 00000000 		.4byte	.LFB135
 7873 21d4 24000000 		.4byte	.LFE135-.LFB135
 7874 21d8 01       		.uleb128 0x1
 7875 21d9 9C       		.byte	0x9c
 7876 21da 19220000 		.4byte	0x2219
 7877 21de 42       		.uleb128 0x42
 7878 21df 2B0B0000 		.4byte	0xb2b
 7879 21e3 0C000000 		.4byte	.LBB169
ARM GAS  C:\Users\srich\AppData\Local\Temp\ccv3JVxh.s 			page 140


 7880 21e7 10000000 		.4byte	.LBE169-.LBB169
 7881 21eb 01       		.byte	0x1
 7882 21ec 4602     		.2byte	0x246
 7883 21ee 06220000 		.4byte	0x2206
 7884 21f2 22       		.uleb128 0x22
 7885 21f3 0C000000 		.4byte	.LBB170
 7886 21f7 10000000 		.4byte	.LBE170-.LBB170
 7887 21fb 48       		.uleb128 0x48
 7888 21fc 380B0000 		.4byte	0xb38
 7889 2200 A30F0000 		.4byte	.LLST60
 7890 2204 00       		.byte	0
 7891 2205 00       		.byte	0
 7892 2206 24       		.uleb128 0x24
 7893 2207 06000000 		.4byte	.LVL239
 7894 220b A32C0000 		.4byte	0x2ca3
 7895 220f 24       		.uleb128 0x24
 7896 2210 0A000000 		.4byte	.LVL240
 7897 2214 710F0000 		.4byte	0xf71
 7898 2218 00       		.byte	0
 7899 2219 3E       		.uleb128 0x3e
 7900 221a 5F070000 		.4byte	.LASF208
 7901 221e 01       		.byte	0x1
 7902 221f 6E01     		.2byte	0x16e
 7903 2221 00000000 		.4byte	.LFB127
 7904 2225 CC010000 		.4byte	.LFE127-.LFB127
 7905 2229 01       		.uleb128 0x1
 7906 222a 9C       		.byte	0x9c
 7907 222b FC260000 		.4byte	0x26fc
 7908 222f 42       		.uleb128 0x42
 7909 2230 C30A0000 		.4byte	0xac3
 7910 2234 10000000 		.4byte	.LBB197
 7911 2238 16000000 		.4byte	.LBE197-.LBB197
 7912 223c 01       		.byte	0x1
 7913 223d 7001     		.2byte	0x170
 7914 223f 9E220000 		.4byte	0x229e
 7915 2243 2D       		.uleb128 0x2d
 7916 2244 EC0A0000 		.4byte	0xaec
 7917 2248 B70F0000 		.4byte	.LLST61
 7918 224c 2D       		.uleb128 0x2d
 7919 224d E30A0000 		.4byte	0xae3
 7920 2251 CA0F0000 		.4byte	.LLST62
 7921 2255 2D       		.uleb128 0x2d
 7922 2256 DA0A0000 		.4byte	0xada
 7923 225a DE0F0000 		.4byte	.LLST63
 7924 225e 2D       		.uleb128 0x2d
 7925 225f CF0A0000 		.4byte	0xacf
 7926 2263 F40F0000 		.4byte	.LLST64
 7927 2267 2E       		.uleb128 0x2e
 7928 2268 1A000000 		.4byte	.LVL243
 7929 226c 2E2B0000 		.4byte	0x2b2e
 7930 2270 81220000 		.4byte	0x2281
 7931 2274 26       		.uleb128 0x26
 7932 2275 01       		.uleb128 0x1
 7933 2276 51       		.byte	0x51
 7934 2277 03       		.uleb128 0x3
 7935 2278 0A       		.byte	0xa
 7936 2279 1814     		.2byte	0x1418
ARM GAS  C:\Users\srich\AppData\Local\Temp\ccv3JVxh.s 			page 141


 7937 227b 26       		.uleb128 0x26
 7938 227c 01       		.uleb128 0x1
 7939 227d 50       		.byte	0x50
 7940 227e 01       		.uleb128 0x1
 7941 227f 30       		.byte	0x30
 7942 2280 00       		.byte	0
 7943 2281 25       		.uleb128 0x25
 7944 2282 26000000 		.4byte	.LVL244
 7945 2286 5E2B0000 		.4byte	0x2b5e
 7946 228a 26       		.uleb128 0x26
 7947 228b 01       		.uleb128 0x1
 7948 228c 52       		.byte	0x52
 7949 228d 02       		.uleb128 0x2
 7950 228e 76       		.byte	0x76
 7951 228f 00       		.sleb128 0
 7952 2290 26       		.uleb128 0x26
 7953 2291 01       		.uleb128 0x1
 7954 2292 51       		.byte	0x51
 7955 2293 01       		.uleb128 0x1
 7956 2294 34       		.byte	0x34
 7957 2295 26       		.uleb128 0x26
 7958 2296 01       		.uleb128 0x1
 7959 2297 50       		.byte	0x50
 7960 2298 03       		.uleb128 0x3
 7961 2299 0A       		.byte	0xa
 7962 229a B201     		.2byte	0x1b2
 7963 229c 00       		.byte	0
 7964 229d 00       		.byte	0
 7965 229e 42       		.uleb128 0x42
 7966 229f C30A0000 		.4byte	0xac3
 7967 22a3 38000000 		.4byte	.LBB199
 7968 22a7 16000000 		.4byte	.LBE199-.LBB199
 7969 22ab 01       		.byte	0x1
 7970 22ac 7501     		.2byte	0x175
 7971 22ae 0E230000 		.4byte	0x230e
 7972 22b2 2D       		.uleb128 0x2d
 7973 22b3 EC0A0000 		.4byte	0xaec
 7974 22b7 0A100000 		.4byte	.LLST65
 7975 22bb 2D       		.uleb128 0x2d
 7976 22bc E30A0000 		.4byte	0xae3
 7977 22c0 1D100000 		.4byte	.LLST66
 7978 22c4 2D       		.uleb128 0x2d
 7979 22c5 DA0A0000 		.4byte	0xada
 7980 22c9 32100000 		.4byte	.LLST67
 7981 22cd 2D       		.uleb128 0x2d
 7982 22ce CF0A0000 		.4byte	0xacf
 7983 22d2 48100000 		.4byte	.LLST68
 7984 22d6 2E       		.uleb128 0x2e
 7985 22d7 42000000 		.4byte	.LVL247
 7986 22db 2E2B0000 		.4byte	0x2b2e
 7987 22df F0220000 		.4byte	0x22f0
 7988 22e3 26       		.uleb128 0x26
 7989 22e4 01       		.uleb128 0x1
 7990 22e5 51       		.byte	0x51
 7991 22e6 03       		.uleb128 0x3
 7992 22e7 0A       		.byte	0xa
 7993 22e8 2314     		.2byte	0x1423
ARM GAS  C:\Users\srich\AppData\Local\Temp\ccv3JVxh.s 			page 142


 7994 22ea 26       		.uleb128 0x26
 7995 22eb 01       		.uleb128 0x1
 7996 22ec 50       		.byte	0x50
 7997 22ed 01       		.uleb128 0x1
 7998 22ee 30       		.byte	0x30
 7999 22ef 00       		.byte	0
 8000 22f0 25       		.uleb128 0x25
 8001 22f1 4E000000 		.4byte	.LVL248
 8002 22f5 5E2B0000 		.4byte	0x2b5e
 8003 22f9 26       		.uleb128 0x26
 8004 22fa 01       		.uleb128 0x1
 8005 22fb 52       		.byte	0x52
 8006 22fc 02       		.uleb128 0x2
 8007 22fd 76       		.byte	0x76
 8008 22fe 00       		.sleb128 0
 8009 22ff 26       		.uleb128 0x26
 8010 2300 01       		.uleb128 0x1
 8011 2301 51       		.byte	0x51
 8012 2302 02       		.uleb128 0x2
 8013 2303 08       		.byte	0x8
 8014 2304 EB       		.byte	0xeb
 8015 2305 26       		.uleb128 0x26
 8016 2306 01       		.uleb128 0x1
 8017 2307 50       		.byte	0x50
 8018 2308 03       		.uleb128 0x3
 8019 2309 0A       		.byte	0xa
 8020 230a B201     		.2byte	0x1b2
 8021 230c 00       		.byte	0
 8022 230d 00       		.byte	0
 8023 230e 42       		.uleb128 0x42
 8024 230f C30A0000 		.4byte	0xac3
 8025 2313 62000000 		.4byte	.LBB201
 8026 2317 16000000 		.4byte	.LBE201-.LBB201
 8027 231b 01       		.byte	0x1
 8028 231c 7A01     		.2byte	0x17a
 8029 231e 7D230000 		.4byte	0x237d
 8030 2322 2D       		.uleb128 0x2d
 8031 2323 EC0A0000 		.4byte	0xaec
 8032 2327 5E100000 		.4byte	.LLST69
 8033 232b 2D       		.uleb128 0x2d
 8034 232c E30A0000 		.4byte	0xae3
 8035 2330 71100000 		.4byte	.LLST70
 8036 2334 2D       		.uleb128 0x2d
 8037 2335 DA0A0000 		.4byte	0xada
 8038 2339 85100000 		.4byte	.LLST71
 8039 233d 2D       		.uleb128 0x2d
 8040 233e CF0A0000 		.4byte	0xacf
 8041 2342 9B100000 		.4byte	.LLST72
 8042 2346 2E       		.uleb128 0x2e
 8043 2347 6C000000 		.4byte	.LVL251
 8044 234b 2E2B0000 		.4byte	0x2b2e
 8045 234f 60230000 		.4byte	0x2360
 8046 2353 26       		.uleb128 0x26
 8047 2354 01       		.uleb128 0x1
 8048 2355 51       		.byte	0x51
 8049 2356 03       		.uleb128 0x3
 8050 2357 0A       		.byte	0xa
ARM GAS  C:\Users\srich\AppData\Local\Temp\ccv3JVxh.s 			page 143


 8051 2358 F113     		.2byte	0x13f1
 8052 235a 26       		.uleb128 0x26
 8053 235b 01       		.uleb128 0x1
 8054 235c 50       		.byte	0x50
 8055 235d 01       		.uleb128 0x1
 8056 235e 30       		.byte	0x30
 8057 235f 00       		.byte	0
 8058 2360 25       		.uleb128 0x25
 8059 2361 78000000 		.4byte	.LVL252
 8060 2365 5E2B0000 		.4byte	0x2b5e
 8061 2369 26       		.uleb128 0x26
 8062 236a 01       		.uleb128 0x1
 8063 236b 52       		.byte	0x52
 8064 236c 02       		.uleb128 0x2
 8065 236d 76       		.byte	0x76
 8066 236e 00       		.sleb128 0
 8067 236f 26       		.uleb128 0x26
 8068 2370 01       		.uleb128 0x1
 8069 2371 51       		.byte	0x51
 8070 2372 01       		.uleb128 0x1
 8071 2373 3A       		.byte	0x3a
 8072 2374 26       		.uleb128 0x26
 8073 2375 01       		.uleb128 0x1
 8074 2376 50       		.byte	0x50
 8075 2377 03       		.uleb128 0x3
 8076 2378 0A       		.byte	0xa
 8077 2379 7C01     		.2byte	0x17c
 8078 237b 00       		.byte	0
 8079 237c 00       		.byte	0
 8080 237d 42       		.uleb128 0x42
 8081 237e C30A0000 		.4byte	0xac3
 8082 2382 8C000000 		.4byte	.LBB203
 8083 2386 16000000 		.4byte	.LBE203-.LBB203
 8084 238a 01       		.byte	0x1
 8085 238b 7F01     		.2byte	0x17f
 8086 238d ED230000 		.4byte	0x23ed
 8087 2391 2D       		.uleb128 0x2d
 8088 2392 EC0A0000 		.4byte	0xaec
 8089 2396 B1100000 		.4byte	.LLST73
 8090 239a 2D       		.uleb128 0x2d
 8091 239b E30A0000 		.4byte	0xae3
 8092 239f C4100000 		.4byte	.LLST74
 8093 23a3 2D       		.uleb128 0x2d
 8094 23a4 DA0A0000 		.4byte	0xada
 8095 23a8 D9100000 		.4byte	.LLST75
 8096 23ac 2D       		.uleb128 0x2d
 8097 23ad CF0A0000 		.4byte	0xacf
 8098 23b1 EF100000 		.4byte	.LLST76
 8099 23b5 2E       		.uleb128 0x2e
 8100 23b6 96000000 		.4byte	.LVL255
 8101 23ba 2E2B0000 		.4byte	0x2b2e
 8102 23be CF230000 		.4byte	0x23cf
 8103 23c2 26       		.uleb128 0x26
 8104 23c3 01       		.uleb128 0x1
 8105 23c4 51       		.byte	0x51
 8106 23c5 03       		.uleb128 0x3
 8107 23c6 0A       		.byte	0xa
ARM GAS  C:\Users\srich\AppData\Local\Temp\ccv3JVxh.s 			page 144


 8108 23c7 2F15     		.2byte	0x152f
 8109 23c9 26       		.uleb128 0x26
 8110 23ca 01       		.uleb128 0x1
 8111 23cb 50       		.byte	0x50
 8112 23cc 01       		.uleb128 0x1
 8113 23cd 30       		.byte	0x30
 8114 23ce 00       		.byte	0
 8115 23cf 25       		.uleb128 0x25
 8116 23d0 A2000000 		.4byte	.LVL256
 8117 23d4 5E2B0000 		.4byte	0x2b5e
 8118 23d8 26       		.uleb128 0x26
 8119 23d9 01       		.uleb128 0x1
 8120 23da 52       		.byte	0x52
 8121 23db 02       		.uleb128 0x2
 8122 23dc 76       		.byte	0x76
 8123 23dd 00       		.sleb128 0
 8124 23de 26       		.uleb128 0x26
 8125 23df 01       		.uleb128 0x1
 8126 23e0 51       		.byte	0x51
 8127 23e1 02       		.uleb128 0x2
 8128 23e2 08       		.byte	0x8
 8129 23e3 D7       		.byte	0xd7
 8130 23e4 26       		.uleb128 0x26
 8131 23e5 01       		.uleb128 0x1
 8132 23e6 50       		.byte	0x50
 8133 23e7 03       		.uleb128 0x3
 8134 23e8 0A       		.byte	0xa
 8135 23e9 8001     		.2byte	0x180
 8136 23eb 00       		.byte	0
 8137 23ec 00       		.byte	0
 8138 23ed 42       		.uleb128 0x42
 8139 23ee C30A0000 		.4byte	0xac3
 8140 23f2 B6000000 		.4byte	.LBB205
 8141 23f6 16000000 		.4byte	.LBE205-.LBB205
 8142 23fa 01       		.byte	0x1
 8143 23fb 8501     		.2byte	0x185
 8144 23fd 5D240000 		.4byte	0x245d
 8145 2401 2D       		.uleb128 0x2d
 8146 2402 EC0A0000 		.4byte	0xaec
 8147 2406 05110000 		.4byte	.LLST77
 8148 240a 2D       		.uleb128 0x2d
 8149 240b E30A0000 		.4byte	0xae3
 8150 240f 18110000 		.4byte	.LLST78
 8151 2413 2D       		.uleb128 0x2d
 8152 2414 DA0A0000 		.4byte	0xada
 8153 2418 2D110000 		.4byte	.LLST79
 8154 241c 2D       		.uleb128 0x2d
 8155 241d CF0A0000 		.4byte	0xacf
 8156 2421 43110000 		.4byte	.LLST80
 8157 2425 2E       		.uleb128 0x2e
 8158 2426 C0000000 		.4byte	.LVL259
 8159 242a 2E2B0000 		.4byte	0x2b2e
 8160 242e 3F240000 		.4byte	0x243f
 8161 2432 26       		.uleb128 0x26
 8162 2433 01       		.uleb128 0x1
 8163 2434 51       		.byte	0x51
 8164 2435 03       		.uleb128 0x3
ARM GAS  C:\Users\srich\AppData\Local\Temp\ccv3JVxh.s 			page 145


 8165 2436 0A       		.byte	0xa
 8166 2437 0A14     		.2byte	0x140a
 8167 2439 26       		.uleb128 0x26
 8168 243a 01       		.uleb128 0x1
 8169 243b 50       		.byte	0x50
 8170 243c 01       		.uleb128 0x1
 8171 243d 30       		.byte	0x30
 8172 243e 00       		.byte	0
 8173 243f 25       		.uleb128 0x25
 8174 2440 CC000000 		.4byte	.LVL260
 8175 2444 5E2B0000 		.4byte	0x2b5e
 8176 2448 26       		.uleb128 0x26
 8177 2449 01       		.uleb128 0x1
 8178 244a 52       		.byte	0x52
 8179 244b 02       		.uleb128 0x2
 8180 244c 76       		.byte	0x76
 8181 244d 00       		.sleb128 0
 8182 244e 26       		.uleb128 0x26
 8183 244f 01       		.uleb128 0x1
 8184 2450 51       		.byte	0x51
 8185 2451 02       		.uleb128 0x2
 8186 2452 08       		.byte	0x8
 8187 2453 98       		.byte	0x98
 8188 2454 26       		.uleb128 0x26
 8189 2455 01       		.uleb128 0x1
 8190 2456 50       		.byte	0x50
 8191 2457 03       		.uleb128 0x3
 8192 2458 0A       		.byte	0xa
 8193 2459 7F01     		.2byte	0x17f
 8194 245b 00       		.byte	0
 8195 245c 00       		.byte	0
 8196 245d 42       		.uleb128 0x42
 8197 245e C30A0000 		.4byte	0xac3
 8198 2462 E0000000 		.4byte	.LBB207
 8199 2466 14000000 		.4byte	.LBE207-.LBB207
 8200 246a 01       		.byte	0x1
 8201 246b 8A01     		.2byte	0x18a
 8202 246d CB240000 		.4byte	0x24cb
 8203 2471 2D       		.uleb128 0x2d
 8204 2472 EC0A0000 		.4byte	0xaec
 8205 2476 59110000 		.4byte	.LLST81
 8206 247a 2D       		.uleb128 0x2d
 8207 247b E30A0000 		.4byte	0xae3
 8208 247f 6C110000 		.4byte	.LLST82
 8209 2483 2D       		.uleb128 0x2d
 8210 2484 DA0A0000 		.4byte	0xada
 8211 2488 81110000 		.4byte	.LLST83
 8212 248c 2D       		.uleb128 0x2d
 8213 248d CF0A0000 		.4byte	0xacf
 8214 2491 97110000 		.4byte	.LLST84
 8215 2495 2E       		.uleb128 0x2e
 8216 2496 E8000000 		.4byte	.LVL263
 8217 249a 2E2B0000 		.4byte	0x2b2e
 8218 249e AD240000 		.4byte	0x24ad
 8219 24a2 26       		.uleb128 0x26
 8220 24a3 01       		.uleb128 0x1
 8221 24a4 51       		.byte	0x51
ARM GAS  C:\Users\srich\AppData\Local\Temp\ccv3JVxh.s 			page 146


 8222 24a5 01       		.uleb128 0x1
 8223 24a6 30       		.byte	0x30
 8224 24a7 26       		.uleb128 0x26
 8225 24a8 01       		.uleb128 0x1
 8226 24a9 50       		.byte	0x50
 8227 24aa 01       		.uleb128 0x1
 8228 24ab 30       		.byte	0x30
 8229 24ac 00       		.byte	0
 8230 24ad 25       		.uleb128 0x25
 8231 24ae F4000000 		.4byte	.LVL264
 8232 24b2 5E2B0000 		.4byte	0x2b5e
 8233 24b6 26       		.uleb128 0x26
 8234 24b7 01       		.uleb128 0x1
 8235 24b8 52       		.byte	0x52
 8236 24b9 02       		.uleb128 0x2
 8237 24ba 76       		.byte	0x76
 8238 24bb 00       		.sleb128 0
 8239 24bc 26       		.uleb128 0x26
 8240 24bd 01       		.uleb128 0x1
 8241 24be 51       		.byte	0x51
 8242 24bf 02       		.uleb128 0x2
 8243 24c0 08       		.byte	0x8
 8244 24c1 4E       		.byte	0x4e
 8245 24c2 26       		.uleb128 0x26
 8246 24c3 01       		.uleb128 0x1
 8247 24c4 50       		.byte	0x50
 8248 24c5 03       		.uleb128 0x3
 8249 24c6 0A       		.byte	0xa
 8250 24c7 8001     		.2byte	0x180
 8251 24c9 00       		.byte	0
 8252 24ca 00       		.byte	0
 8253 24cb 42       		.uleb128 0x42
 8254 24cc C30A0000 		.4byte	0xac3
 8255 24d0 08010000 		.4byte	.LBB209
 8256 24d4 14000000 		.4byte	.LBE209-.LBB209
 8257 24d8 01       		.byte	0x1
 8258 24d9 9101     		.2byte	0x191
 8259 24db 39250000 		.4byte	0x2539
 8260 24df 2D       		.uleb128 0x2d
 8261 24e0 EC0A0000 		.4byte	0xaec
 8262 24e4 AB110000 		.4byte	.LLST85
 8263 24e8 2D       		.uleb128 0x2d
 8264 24e9 E30A0000 		.4byte	0xae3
 8265 24ed BE110000 		.4byte	.LLST86
 8266 24f1 2D       		.uleb128 0x2d
 8267 24f2 DA0A0000 		.4byte	0xada
 8268 24f6 D3110000 		.4byte	.LLST87
 8269 24fa 2D       		.uleb128 0x2d
 8270 24fb CF0A0000 		.4byte	0xacf
 8271 24ff E7110000 		.4byte	.LLST88
 8272 2503 2E       		.uleb128 0x2e
 8273 2504 12010000 		.4byte	.LVL267
 8274 2508 2E2B0000 		.4byte	0x2b2e
 8275 250c 1D250000 		.4byte	0x251d
 8276 2510 26       		.uleb128 0x26
 8277 2511 01       		.uleb128 0x1
 8278 2512 51       		.byte	0x51
ARM GAS  C:\Users\srich\AppData\Local\Temp\ccv3JVxh.s 			page 147


 8279 2513 03       		.uleb128 0x3
 8280 2514 0A       		.byte	0xa
 8281 2515 9148     		.2byte	0x4891
 8282 2517 26       		.uleb128 0x26
 8283 2518 01       		.uleb128 0x1
 8284 2519 50       		.byte	0x50
 8285 251a 01       		.uleb128 0x1
 8286 251b 30       		.byte	0x30
 8287 251c 00       		.byte	0
 8288 251d 25       		.uleb128 0x25
 8289 251e 1C010000 		.4byte	.LVL268
 8290 2522 5E2B0000 		.4byte	0x2b5e
 8291 2526 26       		.uleb128 0x26
 8292 2527 01       		.uleb128 0x1
 8293 2528 52       		.byte	0x52
 8294 2529 02       		.uleb128 0x2
 8295 252a 76       		.byte	0x76
 8296 252b 00       		.sleb128 0
 8297 252c 26       		.uleb128 0x26
 8298 252d 01       		.uleb128 0x1
 8299 252e 51       		.byte	0x51
 8300 252f 02       		.uleb128 0x2
 8301 2530 08       		.byte	0x8
 8302 2531 3C       		.byte	0x3c
 8303 2532 26       		.uleb128 0x26
 8304 2533 01       		.uleb128 0x1
 8305 2534 50       		.byte	0x50
 8306 2535 01       		.uleb128 0x1
 8307 2536 48       		.byte	0x48
 8308 2537 00       		.byte	0
 8309 2538 00       		.byte	0
 8310 2539 42       		.uleb128 0x42
 8311 253a C30A0000 		.4byte	0xac3
 8312 253e 30010000 		.4byte	.LBB211
 8313 2542 14000000 		.4byte	.LBE211-.LBB211
 8314 2546 01       		.byte	0x1
 8315 2547 9701     		.2byte	0x197
 8316 2549 A8250000 		.4byte	0x25a8
 8317 254d 2D       		.uleb128 0x2d
 8318 254e EC0A0000 		.4byte	0xaec
 8319 2552 FD110000 		.4byte	.LLST89
 8320 2556 2D       		.uleb128 0x2d
 8321 2557 E30A0000 		.4byte	0xae3
 8322 255b 10120000 		.4byte	.LLST90
 8323 255f 2D       		.uleb128 0x2d
 8324 2560 DA0A0000 		.4byte	0xada
 8325 2564 25120000 		.4byte	.LLST91
 8326 2568 2D       		.uleb128 0x2d
 8327 2569 CF0A0000 		.4byte	0xacf
 8328 256d 3A120000 		.4byte	.LLST92
 8329 2571 2E       		.uleb128 0x2e
 8330 2572 3A010000 		.4byte	.LVL271
 8331 2576 2E2B0000 		.4byte	0x2b2e
 8332 257a 8B250000 		.4byte	0x258b
 8333 257e 26       		.uleb128 0x26
 8334 257f 01       		.uleb128 0x1
 8335 2580 51       		.byte	0x51
ARM GAS  C:\Users\srich\AppData\Local\Temp\ccv3JVxh.s 			page 148


 8336 2581 03       		.uleb128 0x3
 8337 2582 0A       		.byte	0xa
 8338 2583 3E48     		.2byte	0x483e
 8339 2585 26       		.uleb128 0x26
 8340 2586 01       		.uleb128 0x1
 8341 2587 50       		.byte	0x50
 8342 2588 01       		.uleb128 0x1
 8343 2589 30       		.byte	0x30
 8344 258a 00       		.byte	0
 8345 258b 25       		.uleb128 0x25
 8346 258c 44010000 		.4byte	.LVL272
 8347 2590 5E2B0000 		.4byte	0x2b5e
 8348 2594 26       		.uleb128 0x26
 8349 2595 01       		.uleb128 0x1
 8350 2596 52       		.byte	0x52
 8351 2597 02       		.uleb128 0x2
 8352 2598 76       		.byte	0x76
 8353 2599 00       		.sleb128 0
 8354 259a 26       		.uleb128 0x26
 8355 259b 01       		.uleb128 0x1
 8356 259c 51       		.byte	0x51
 8357 259d 02       		.uleb128 0x2
 8358 259e 08       		.byte	0x8
 8359 259f E6       		.byte	0xe6
 8360 25a0 26       		.uleb128 0x26
 8361 25a1 01       		.uleb128 0x1
 8362 25a2 50       		.byte	0x50
 8363 25a3 02       		.uleb128 0x2
 8364 25a4 08       		.byte	0x8
 8365 25a5 4F       		.byte	0x4f
 8366 25a6 00       		.byte	0
 8367 25a7 00       		.byte	0
 8368 25a8 42       		.uleb128 0x42
 8369 25a9 C30A0000 		.4byte	0xac3
 8370 25ad 58010000 		.4byte	.LBB213
 8371 25b1 14000000 		.4byte	.LBE213-.LBB213
 8372 25b5 01       		.byte	0x1
 8373 25b6 9C01     		.2byte	0x19c
 8374 25b8 16260000 		.4byte	0x2616
 8375 25bc 2D       		.uleb128 0x2d
 8376 25bd EC0A0000 		.4byte	0xaec
 8377 25c1 50120000 		.4byte	.LLST93
 8378 25c5 2D       		.uleb128 0x2d
 8379 25c6 E30A0000 		.4byte	0xae3
 8380 25ca 63120000 		.4byte	.LLST94
 8381 25ce 2D       		.uleb128 0x2d
 8382 25cf DA0A0000 		.4byte	0xada
 8383 25d3 78120000 		.4byte	.LLST95
 8384 25d7 2D       		.uleb128 0x2d
 8385 25d8 CF0A0000 		.4byte	0xacf
 8386 25dc 8C120000 		.4byte	.LLST96
 8387 25e0 2E       		.uleb128 0x2e
 8388 25e1 62010000 		.4byte	.LVL275
 8389 25e5 2E2B0000 		.4byte	0x2b2e
 8390 25e9 FA250000 		.4byte	0x25fa
 8391 25ed 26       		.uleb128 0x26
 8392 25ee 01       		.uleb128 0x1
ARM GAS  C:\Users\srich\AppData\Local\Temp\ccv3JVxh.s 			page 149


 8393 25ef 51       		.byte	0x51
 8394 25f0 03       		.uleb128 0x3
 8395 25f1 0A       		.byte	0xa
 8396 25f2 E813     		.2byte	0x13e8
 8397 25f4 26       		.uleb128 0x26
 8398 25f5 01       		.uleb128 0x1
 8399 25f6 50       		.byte	0x50
 8400 25f7 01       		.uleb128 0x1
 8401 25f8 30       		.byte	0x30
 8402 25f9 00       		.byte	0
 8403 25fa 25       		.uleb128 0x25
 8404 25fb 6C010000 		.4byte	.LVL276
 8405 25ff 5E2B0000 		.4byte	0x2b5e
 8406 2603 26       		.uleb128 0x26
 8407 2604 01       		.uleb128 0x1
 8408 2605 52       		.byte	0x52
 8409 2606 02       		.uleb128 0x2
 8410 2607 76       		.byte	0x76
 8411 2608 00       		.sleb128 0
 8412 2609 26       		.uleb128 0x26
 8413 260a 01       		.uleb128 0x1
 8414 260b 51       		.byte	0x51
 8415 260c 02       		.uleb128 0x2
 8416 260d 08       		.byte	0x8
 8417 260e 7B       		.byte	0x7b
 8418 260f 26       		.uleb128 0x26
 8419 2610 01       		.uleb128 0x1
 8420 2611 50       		.byte	0x50
 8421 2612 01       		.uleb128 0x1
 8422 2613 48       		.byte	0x48
 8423 2614 00       		.byte	0
 8424 2615 00       		.byte	0
 8425 2616 42       		.uleb128 0x42
 8426 2617 41210000 		.4byte	0x2141
 8427 261b 88010000 		.4byte	.LBB215
 8428 261f 06000000 		.4byte	.LBE215-.LBB215
 8429 2623 01       		.byte	0x1
 8430 2624 AB01     		.2byte	0x1ab
 8431 2626 44260000 		.4byte	0x2644
 8432 262a 2D       		.uleb128 0x2d
 8433 262b 4E210000 		.4byte	0x214e
 8434 262f A2120000 		.4byte	.LLST97
 8435 2633 25       		.uleb128 0x25
 8436 2634 8E010000 		.4byte	.LVL279
 8437 2638 802C0000 		.4byte	0x2c80
 8438 263c 26       		.uleb128 0x26
 8439 263d 01       		.uleb128 0x1
 8440 263e 50       		.byte	0x50
 8441 263f 02       		.uleb128 0x2
 8442 2640 75       		.byte	0x75
 8443 2641 00       		.sleb128 0
 8444 2642 00       		.byte	0
 8445 2643 00       		.byte	0
 8446 2644 42       		.uleb128 0x42
 8447 2645 41210000 		.4byte	0x2141
 8448 2649 9C010000 		.4byte	.LBB217
 8449 264d 06000000 		.4byte	.LBE217-.LBB217
ARM GAS  C:\Users\srich\AppData\Local\Temp\ccv3JVxh.s 			page 150


 8450 2651 01       		.byte	0x1
 8451 2652 A301     		.2byte	0x1a3
 8452 2654 6E260000 		.4byte	0x266e
 8453 2658 36       		.uleb128 0x36
 8454 2659 4E210000 		.4byte	0x214e
 8455 265d 00       		.byte	0
 8456 265e 25       		.uleb128 0x25
 8457 265f A2010000 		.4byte	.LVL283
 8458 2663 802C0000 		.4byte	0x2c80
 8459 2667 26       		.uleb128 0x26
 8460 2668 01       		.uleb128 0x1
 8461 2669 50       		.byte	0x50
 8462 266a 01       		.uleb128 0x1
 8463 266b 30       		.byte	0x30
 8464 266c 00       		.byte	0
 8465 266d 00       		.byte	0
 8466 266e 42       		.uleb128 0x42
 8467 266f F80A0000 		.4byte	0xaf8
 8468 2673 A6010000 		.4byte	.LBB219
 8469 2677 12000000 		.4byte	.LBE219-.LBB219
 8470 267b 01       		.byte	0x1
 8471 267c A501     		.2byte	0x1a5
 8472 267e C6260000 		.4byte	0x26c6
 8473 2682 36       		.uleb128 0x36
 8474 2683 180B0000 		.4byte	0xb18
 8475 2687 5A       		.byte	0x5a
 8476 2688 36       		.uleb128 0x36
 8477 2689 0F0B0000 		.4byte	0xb0f
 8478 268d A4       		.byte	0xa4
 8479 268e 39       		.uleb128 0x39
 8480 268f 040B0000 		.4byte	0xb04
 8481 2693 AA48     		.2byte	0x48aa
 8482 2695 2E       		.uleb128 0x2e
 8483 2696 B0010000 		.4byte	.LVL285
 8484 269a 2E2B0000 		.4byte	0x2b2e
 8485 269e AF260000 		.4byte	0x26af
 8486 26a2 26       		.uleb128 0x26
 8487 26a3 01       		.uleb128 0x1
 8488 26a4 51       		.byte	0x51
 8489 26a5 03       		.uleb128 0x3
 8490 26a6 0A       		.byte	0xa
 8491 26a7 AA48     		.2byte	0x48aa
 8492 26a9 26       		.uleb128 0x26
 8493 26aa 01       		.uleb128 0x1
 8494 26ab 50       		.byte	0x50
 8495 26ac 01       		.uleb128 0x1
 8496 26ad 30       		.byte	0x30
 8497 26ae 00       		.byte	0
 8498 26af 25       		.uleb128 0x25
 8499 26b0 B8010000 		.4byte	.LVL286
 8500 26b4 482B0000 		.4byte	0x2b48
 8501 26b8 26       		.uleb128 0x26
 8502 26b9 01       		.uleb128 0x1
 8503 26ba 51       		.byte	0x51
 8504 26bb 02       		.uleb128 0x2
 8505 26bc 08       		.byte	0x8
 8506 26bd 5A       		.byte	0x5a
ARM GAS  C:\Users\srich\AppData\Local\Temp\ccv3JVxh.s 			page 151


 8507 26be 26       		.uleb128 0x26
 8508 26bf 01       		.uleb128 0x1
 8509 26c0 50       		.byte	0x50
 8510 26c1 02       		.uleb128 0x2
 8511 26c2 08       		.byte	0x8
 8512 26c3 A4       		.byte	0xa4
 8513 26c4 00       		.byte	0
 8514 26c5 00       		.byte	0
 8515 26c6 24       		.uleb128 0x24
 8516 26c7 92010000 		.4byte	.LVL280
 8517 26cb C8210000 		.4byte	0x21c8
 8518 26cf 2E       		.uleb128 0x2e
 8519 26d0 98010000 		.4byte	.LVL281
 8520 26d4 41210000 		.4byte	0x2141
 8521 26d8 E2260000 		.4byte	0x26e2
 8522 26dc 26       		.uleb128 0x26
 8523 26dd 01       		.uleb128 0x1
 8524 26de 50       		.byte	0x50
 8525 26df 01       		.uleb128 0x1
 8526 26e0 31       		.byte	0x31
 8527 26e1 00       		.byte	0
 8528 26e2 24       		.uleb128 0x24
 8529 26e3 A6010000 		.4byte	.LVL284
 8530 26e7 C8210000 		.4byte	0x21c8
 8531 26eb 25       		.uleb128 0x25
 8532 26ec BE010000 		.4byte	.LVL287
 8533 26f0 41210000 		.4byte	0x2141
 8534 26f4 26       		.uleb128 0x26
 8535 26f5 01       		.uleb128 0x1
 8536 26f6 50       		.byte	0x50
 8537 26f7 02       		.uleb128 0x2
 8538 26f8 75       		.byte	0x75
 8539 26f9 00       		.sleb128 0
 8540 26fa 00       		.byte	0
 8541 26fb 00       		.byte	0
 8542 26fc 1F       		.uleb128 0x1f
 8543 26fd BB010000 		.4byte	.LASF210
 8544 2701 01       		.byte	0x1
 8545 2702 0302     		.2byte	0x203
 8546 2704 59010000 		.4byte	0x159
 8547 2708 00000000 		.4byte	.LFB131
 8548 270c 7C000000 		.4byte	.LFE131-.LFB131
 8549 2710 01       		.uleb128 0x1
 8550 2711 9C       		.byte	0x9c
 8551 2712 A1270000 		.4byte	0x27a1
 8552 2716 20       		.uleb128 0x20
 8553 2717 61726700 		.ascii	"arg\000"
 8554 271b 01       		.byte	0x1
 8555 271c 0302     		.2byte	0x203
 8556 271e DF020000 		.4byte	0x2df
 8557 2722 B6120000 		.4byte	.LLST98
 8558 2726 21       		.uleb128 0x21
 8559 2727 F7020000 		.4byte	.LASF176
 8560 272b 01       		.byte	0x1
 8561 272c 0402     		.2byte	0x204
 8562 272e 6F010000 		.4byte	0x16f
 8563 2732 01       		.uleb128 0x1
ARM GAS  C:\Users\srich\AppData\Local\Temp\ccv3JVxh.s 			page 152


 8564 2733 53       		.byte	0x53
 8565 2734 23       		.uleb128 0x23
 8566 2735 38010000 		.4byte	.LASF211
 8567 2739 01       		.byte	0x1
 8568 273a 0D02     		.2byte	0x20d
 8569 273c 33000000 		.4byte	0x33
 8570 2740 D7120000 		.4byte	.LLST99
 8571 2744 24       		.uleb128 0x24
 8572 2745 10000000 		.4byte	.LVL289
 8573 2749 C8210000 		.4byte	0x21c8
 8574 274d 24       		.uleb128 0x24
 8575 274e 30000000 		.4byte	.LVL291
 8576 2752 D51F0000 		.4byte	0x1fd5
 8577 2756 24       		.uleb128 0x24
 8578 2757 34000000 		.4byte	.LVL292
 8579 275b 7A1D0000 		.4byte	0x1d7a
 8580 275f 24       		.uleb128 0x24
 8581 2760 38000000 		.4byte	.LVL293
 8582 2764 220B0000 		.4byte	0xb22
 8583 2768 2E       		.uleb128 0x2e
 8584 2769 40000000 		.4byte	.LVL295
 8585 276d 912C0000 		.4byte	0x2c91
 8586 2771 7C270000 		.4byte	0x277c
 8587 2775 26       		.uleb128 0x26
 8588 2776 01       		.uleb128 0x1
 8589 2777 50       		.byte	0x50
 8590 2778 02       		.uleb128 0x2
 8591 2779 08       		.byte	0x8
 8592 277a 32       		.byte	0x32
 8593 277b 00       		.byte	0
 8594 277c 24       		.uleb128 0x24
 8595 277d 56000000 		.4byte	.LVL296
 8596 2781 861B0000 		.4byte	0x1b86
 8597 2785 24       		.uleb128 0x24
 8598 2786 5A000000 		.4byte	.LVL297
 8599 278a 19220000 		.4byte	0x2219
 8600 278e 24       		.uleb128 0x24
 8601 278f 60000000 		.4byte	.LVL298
 8602 2793 A81C0000 		.4byte	0x1ca8
 8603 2797 24       		.uleb128 0x24
 8604 2798 64000000 		.4byte	.LVL299
 8605 279c CE1D0000 		.4byte	0x1dce
 8606 27a0 00       		.byte	0
 8607 27a1 2C       		.uleb128 0x2c
 8608 27a2 2B0B0000 		.4byte	0xb2b
 8609 27a6 00000000 		.4byte	.LFB136
 8610 27aa 18000000 		.4byte	.LFE136-.LFB136
 8611 27ae 01       		.uleb128 0x1
 8612 27af 9C       		.byte	0x9c
 8613 27b0 BE270000 		.4byte	0x27be
 8614 27b4 48       		.uleb128 0x48
 8615 27b5 380B0000 		.4byte	0xb38
 8616 27b9 F6120000 		.4byte	.LLST100
 8617 27bd 00       		.byte	0
 8618 27be 3E       		.uleb128 0x3e
 8619 27bf BD070000 		.4byte	.LASF212
 8620 27c3 01       		.byte	0x1
ARM GAS  C:\Users\srich\AppData\Local\Temp\ccv3JVxh.s 			page 153


 8621 27c4 4E02     		.2byte	0x24e
 8622 27c6 00000000 		.4byte	.LFB137
 8623 27ca 48000000 		.4byte	.LFE137-.LFB137
 8624 27ce 01       		.uleb128 0x1
 8625 27cf 9C       		.byte	0x9c
 8626 27d0 76280000 		.4byte	0x2876
 8627 27d4 42       		.uleb128 0x42
 8628 27d5 41210000 		.4byte	0x2141
 8629 27d9 0A000000 		.4byte	.LBB224
 8630 27dd 06000000 		.4byte	.LBE224-.LBB224
 8631 27e1 01       		.byte	0x1
 8632 27e2 5102     		.2byte	0x251
 8633 27e4 FF270000 		.4byte	0x27ff
 8634 27e8 36       		.uleb128 0x36
 8635 27e9 4E210000 		.4byte	0x214e
 8636 27ed 00       		.byte	0
 8637 27ee 25       		.uleb128 0x25
 8638 27ef 10000000 		.4byte	.LVL303
 8639 27f3 802C0000 		.4byte	0x2c80
 8640 27f7 26       		.uleb128 0x26
 8641 27f8 01       		.uleb128 0x1
 8642 27f9 50       		.byte	0x50
 8643 27fa 02       		.uleb128 0x2
 8644 27fb 74       		.byte	0x74
 8645 27fc 00       		.sleb128 0
 8646 27fd 00       		.byte	0
 8647 27fe 00       		.byte	0
 8648 27ff 24       		.uleb128 0x24
 8649 2800 0A000000 		.4byte	.LVL302
 8650 2804 AE2C0000 		.4byte	0x2cae
 8651 2808 24       		.uleb128 0x24
 8652 2809 14000000 		.4byte	.LVL304
 8653 280d BB2C0000 		.4byte	0x2cbb
 8654 2811 2E       		.uleb128 0x2e
 8655 2812 24000000 		.4byte	.LVL305
 8656 2816 C62C0000 		.4byte	0x2cc6
 8657 281a 45280000 		.4byte	0x2845
 8658 281e 26       		.uleb128 0x26
 8659 281f 01       		.uleb128 0x1
 8660 2820 53       		.byte	0x53
 8661 2821 05       		.uleb128 0x5
 8662 2822 03       		.byte	0x3
 8663 2823 00000000 		.4byte	DSPReader
 8664 2827 26       		.uleb128 0x26
 8665 2828 01       		.uleb128 0x1
 8666 2829 52       		.byte	0x52
 8667 282a 02       		.uleb128 0x2
 8668 282b 08       		.byte	0x8
 8669 282c 47       		.byte	0x47
 8670 282d 26       		.uleb128 0x26
 8671 282e 01       		.uleb128 0x1
 8672 282f 51       		.byte	0x51
 8673 2830 03       		.uleb128 0x3
 8674 2831 0A       		.byte	0xa
 8675 2832 D004     		.2byte	0x4d0
 8676 2834 26       		.uleb128 0x26
 8677 2835 01       		.uleb128 0x1
ARM GAS  C:\Users\srich\AppData\Local\Temp\ccv3JVxh.s 			page 154


 8678 2836 50       		.byte	0x50
 8679 2837 05       		.uleb128 0x5
 8680 2838 03       		.byte	0x3
 8681 2839 00000000 		.4byte	.LANCHOR7
 8682 283d 26       		.uleb128 0x26
 8683 283e 02       		.uleb128 0x2
 8684 283f 7D       		.byte	0x7d
 8685 2840 00       		.sleb128 0
 8686 2841 02       		.uleb128 0x2
 8687 2842 74       		.byte	0x74
 8688 2843 00       		.sleb128 0
 8689 2844 00       		.byte	0
 8690 2845 25       		.uleb128 0x25
 8691 2846 34000000 		.4byte	.LVL306
 8692 284a C62C0000 		.4byte	0x2cc6
 8693 284e 26       		.uleb128 0x26
 8694 284f 01       		.uleb128 0x1
 8695 2850 53       		.byte	0x53
 8696 2851 05       		.uleb128 0x5
 8697 2852 03       		.byte	0x3
 8698 2853 00000000 		.4byte	DSPThread
 8699 2857 26       		.uleb128 0x26
 8700 2858 01       		.uleb128 0x1
 8701 2859 52       		.byte	0x52
 8702 285a 02       		.uleb128 0x2
 8703 285b 08       		.byte	0x8
 8704 285c 47       		.byte	0x47
 8705 285d 26       		.uleb128 0x26
 8706 285e 01       		.uleb128 0x1
 8707 285f 51       		.byte	0x51
 8708 2860 03       		.uleb128 0x3
 8709 2861 0A       		.byte	0xa
 8710 2862 D004     		.2byte	0x4d0
 8711 2864 26       		.uleb128 0x26
 8712 2865 01       		.uleb128 0x1
 8713 2866 50       		.byte	0x50
 8714 2867 05       		.uleb128 0x5
 8715 2868 03       		.byte	0x3
 8716 2869 00000000 		.4byte	.LANCHOR8
 8717 286d 26       		.uleb128 0x26
 8718 286e 02       		.uleb128 0x2
 8719 286f 7D       		.byte	0x7d
 8720 2870 00       		.sleb128 0
 8721 2871 02       		.uleb128 0x2
 8722 2872 74       		.byte	0x74
 8723 2873 00       		.sleb128 0
 8724 2874 00       		.byte	0
 8725 2875 00       		.byte	0
 8726 2876 4A       		.uleb128 0x4a
 8727 2877 C5080000 		.4byte	.LASF213
 8728 287b 01       		.byte	0x1
 8729 287c 5D02     		.2byte	0x25d
 8730 287e 00000000 		.4byte	.LFB138
 8731 2882 A4000000 		.4byte	.LFE138-.LFB138
 8732 2886 01       		.uleb128 0x1
 8733 2887 9C       		.byte	0x9c
 8734 2888 FD290000 		.4byte	0x29fd
ARM GAS  C:\Users\srich\AppData\Local\Temp\ccv3JVxh.s 			page 155


 8735 288c 20       		.uleb128 0x20
 8736 288d 63687000 		.ascii	"chp\000"
 8737 2891 01       		.byte	0x1
 8738 2892 5D02     		.2byte	0x25d
 8739 2894 0E0C0000 		.4byte	0xc0e
 8740 2898 0A130000 		.4byte	.LLST101
 8741 289c 4B       		.uleb128 0x4b
 8742 289d A1070000 		.4byte	.LASF214
 8743 28a1 01       		.byte	0x1
 8744 28a2 5D02     		.2byte	0x25d
 8745 28a4 33000000 		.4byte	0x33
 8746 28a8 49130000 		.4byte	.LLST102
 8747 28ac 4B       		.uleb128 0x4b
 8748 28ad 38040000 		.4byte	.LASF215
 8749 28b1 01       		.byte	0x1
 8750 28b2 5D02     		.2byte	0x25d
 8751 28b4 FD290000 		.4byte	0x29fd
 8752 28b8 6A130000 		.4byte	.LLST103
 8753 28bc 4C       		.uleb128 0x4c
 8754 28bd 71070000 		.4byte	.LASF216
 8755 28c1 01       		.byte	0x1
 8756 28c2 6002     		.2byte	0x260
 8757 28c4 E4000000 		.4byte	0xe4
 8758 28c8 00       		.byte	0
 8759 28c9 2E       		.uleb128 0x2e
 8760 28ca 0C000000 		.4byte	.LVL309
 8761 28ce AF0B0000 		.4byte	0xbaf
 8762 28d2 E6280000 		.4byte	0x28e6
 8763 28d6 26       		.uleb128 0x26
 8764 28d7 01       		.uleb128 0x1
 8765 28d8 51       		.byte	0x51
 8766 28d9 05       		.uleb128 0x5
 8767 28da 03       		.byte	0x3
 8768 28db 18000000 		.4byte	.LC2
 8769 28df 26       		.uleb128 0x26
 8770 28e0 01       		.uleb128 0x1
 8771 28e1 50       		.byte	0x50
 8772 28e2 02       		.uleb128 0x2
 8773 28e3 74       		.byte	0x74
 8774 28e4 00       		.sleb128 0
 8775 28e5 00       		.byte	0
 8776 28e6 2E       		.uleb128 0x2e
 8777 28e7 14000000 		.4byte	.LVL310
 8778 28eb AF0B0000 		.4byte	0xbaf
 8779 28ef 03290000 		.4byte	0x2903
 8780 28f3 26       		.uleb128 0x26
 8781 28f4 01       		.uleb128 0x1
 8782 28f5 51       		.byte	0x51
 8783 28f6 05       		.uleb128 0x5
 8784 28f7 03       		.byte	0x3
 8785 28f8 1C000000 		.4byte	.LC3
 8786 28fc 26       		.uleb128 0x26
 8787 28fd 01       		.uleb128 0x1
 8788 28fe 50       		.byte	0x50
 8789 28ff 02       		.uleb128 0x2
 8790 2900 74       		.byte	0x74
 8791 2901 00       		.sleb128 0
ARM GAS  C:\Users\srich\AppData\Local\Temp\ccv3JVxh.s 			page 156


 8792 2902 00       		.byte	0
 8793 2903 24       		.uleb128 0x24
 8794 2904 1A000000 		.4byte	.LVL312
 8795 2908 AF0B0000 		.4byte	0xbaf
 8796 290c 2E       		.uleb128 0x2e
 8797 290d 22000000 		.4byte	.LVL313
 8798 2911 AF0B0000 		.4byte	0xbaf
 8799 2915 29290000 		.4byte	0x2929
 8800 2919 26       		.uleb128 0x26
 8801 291a 01       		.uleb128 0x1
 8802 291b 51       		.byte	0x51
 8803 291c 05       		.uleb128 0x5
 8804 291d 03       		.byte	0x3
 8805 291e 1C000000 		.4byte	.LC3
 8806 2922 26       		.uleb128 0x26
 8807 2923 01       		.uleb128 0x1
 8808 2924 50       		.byte	0x50
 8809 2925 02       		.uleb128 0x2
 8810 2926 74       		.byte	0x74
 8811 2927 00       		.sleb128 0
 8812 2928 00       		.byte	0
 8813 2929 2E       		.uleb128 0x2e
 8814 292a 2C000000 		.4byte	.LVL314
 8815 292e AF0B0000 		.4byte	0xbaf
 8816 2932 46290000 		.4byte	0x2946
 8817 2936 26       		.uleb128 0x26
 8818 2937 01       		.uleb128 0x1
 8819 2938 51       		.byte	0x51
 8820 2939 05       		.uleb128 0x5
 8821 293a 03       		.byte	0x3
 8822 293b 24000000 		.4byte	.LC4
 8823 293f 26       		.uleb128 0x26
 8824 2940 01       		.uleb128 0x1
 8825 2941 50       		.byte	0x50
 8826 2942 02       		.uleb128 0x2
 8827 2943 74       		.byte	0x74
 8828 2944 00       		.sleb128 0
 8829 2945 00       		.byte	0
 8830 2946 2E       		.uleb128 0x2e
 8831 2947 36000000 		.4byte	.LVL315
 8832 294b AF0B0000 		.4byte	0xbaf
 8833 294f 63290000 		.4byte	0x2963
 8834 2953 26       		.uleb128 0x26
 8835 2954 01       		.uleb128 0x1
 8836 2955 51       		.byte	0x51
 8837 2956 05       		.uleb128 0x5
 8838 2957 03       		.byte	0x3
 8839 2958 38000000 		.4byte	.LC5
 8840 295c 26       		.uleb128 0x26
 8841 295d 01       		.uleb128 0x1
 8842 295e 50       		.byte	0x50
 8843 295f 02       		.uleb128 0x2
 8844 2960 74       		.byte	0x74
 8845 2961 00       		.sleb128 0
 8846 2962 00       		.byte	0
 8847 2963 2E       		.uleb128 0x2e
 8848 2964 40000000 		.4byte	.LVL316
ARM GAS  C:\Users\srich\AppData\Local\Temp\ccv3JVxh.s 			page 157


 8849 2968 AF0B0000 		.4byte	0xbaf
 8850 296c 80290000 		.4byte	0x2980
 8851 2970 26       		.uleb128 0x26
 8852 2971 01       		.uleb128 0x1
 8853 2972 51       		.byte	0x51
 8854 2973 05       		.uleb128 0x5
 8855 2974 03       		.byte	0x3
 8856 2975 44000000 		.4byte	.LC6
 8857 2979 26       		.uleb128 0x26
 8858 297a 01       		.uleb128 0x1
 8859 297b 50       		.byte	0x50
 8860 297c 02       		.uleb128 0x2
 8861 297d 74       		.byte	0x74
 8862 297e 00       		.sleb128 0
 8863 297f 00       		.byte	0
 8864 2980 2E       		.uleb128 0x2e
 8865 2981 4A000000 		.4byte	.LVL317
 8866 2985 AF0B0000 		.4byte	0xbaf
 8867 2989 9D290000 		.4byte	0x299d
 8868 298d 26       		.uleb128 0x26
 8869 298e 01       		.uleb128 0x1
 8870 298f 51       		.byte	0x51
 8871 2990 05       		.uleb128 0x5
 8872 2991 03       		.byte	0x3
 8873 2992 54000000 		.4byte	.LC7
 8874 2996 26       		.uleb128 0x26
 8875 2997 01       		.uleb128 0x1
 8876 2998 50       		.byte	0x50
 8877 2999 02       		.uleb128 0x2
 8878 299a 74       		.byte	0x74
 8879 299b 00       		.sleb128 0
 8880 299c 00       		.byte	0
 8881 299d 2E       		.uleb128 0x2e
 8882 299e 54000000 		.4byte	.LVL318
 8883 29a2 AF0B0000 		.4byte	0xbaf
 8884 29a6 BA290000 		.4byte	0x29ba
 8885 29aa 26       		.uleb128 0x26
 8886 29ab 01       		.uleb128 0x1
 8887 29ac 51       		.byte	0x51
 8888 29ad 05       		.uleb128 0x5
 8889 29ae 03       		.byte	0x3
 8890 29af 64000000 		.4byte	.LC8
 8891 29b3 26       		.uleb128 0x26
 8892 29b4 01       		.uleb128 0x1
 8893 29b5 50       		.byte	0x50
 8894 29b6 02       		.uleb128 0x2
 8895 29b7 74       		.byte	0x74
 8896 29b8 00       		.sleb128 0
 8897 29b9 00       		.byte	0
 8898 29ba 2E       		.uleb128 0x2e
 8899 29bb 5E000000 		.4byte	.LVL319
 8900 29bf AF0B0000 		.4byte	0xbaf
 8901 29c3 D7290000 		.4byte	0x29d7
 8902 29c7 26       		.uleb128 0x26
 8903 29c8 01       		.uleb128 0x1
 8904 29c9 51       		.byte	0x51
 8905 29ca 05       		.uleb128 0x5
ARM GAS  C:\Users\srich\AppData\Local\Temp\ccv3JVxh.s 			page 158


 8906 29cb 03       		.byte	0x3
 8907 29cc 74000000 		.4byte	.LC9
 8908 29d0 26       		.uleb128 0x26
 8909 29d1 01       		.uleb128 0x1
 8910 29d2 50       		.byte	0x50
 8911 29d3 02       		.uleb128 0x2
 8912 29d4 74       		.byte	0x74
 8913 29d5 00       		.sleb128 0
 8914 29d6 00       		.byte	0
 8915 29d7 2E       		.uleb128 0x2e
 8916 29d8 64000000 		.4byte	.LVL320
 8917 29dc 912C0000 		.4byte	0x2c91
 8918 29e0 EB290000 		.4byte	0x29eb
 8919 29e4 26       		.uleb128 0x26
 8920 29e5 01       		.uleb128 0x1
 8921 29e6 50       		.byte	0x50
 8922 29e7 02       		.uleb128 0x2
 8923 29e8 08       		.byte	0x8
 8924 29e9 32       		.byte	0x32
 8925 29ea 00       		.byte	0
 8926 29eb 4D       		.uleb128 0x4d
 8927 29ec 70000000 		.4byte	.LVL321
 8928 29f0 26       		.uleb128 0x26
 8929 29f1 01       		.uleb128 0x1
 8930 29f2 51       		.byte	0x51
 8931 29f3 01       		.uleb128 0x1
 8932 29f4 30       		.byte	0x30
 8933 29f5 26       		.uleb128 0x26
 8934 29f6 01       		.uleb128 0x1
 8935 29f7 50       		.byte	0x50
 8936 29f8 02       		.uleb128 0x2
 8937 29f9 74       		.byte	0x74
 8938 29fa 00       		.sleb128 0
 8939 29fb 00       		.byte	0
 8940 29fc 00       		.byte	0
 8941 29fd 09       		.uleb128 0x9
 8942 29fe 04       		.byte	0x4
 8943 29ff 1B080000 		.4byte	0x81b
 8944 2a03 14       		.uleb128 0x14
 8945 2a04 EF000000 		.4byte	0xef
 8946 2a08 132A0000 		.4byte	0x2a13
 8947 2a0c 15       		.uleb128 0x15
 8948 2a0d 89030000 		.4byte	0x389
 8949 2a11 18       		.byte	0x18
 8950 2a12 00       		.byte	0
 8951 2a13 4E       		.uleb128 0x4e
 8952 2a14 4C020000 		.4byte	.LASF217
 8953 2a18 01       		.byte	0x1
 8954 2a19 20       		.byte	0x20
 8955 2a1a 032A0000 		.4byte	0x2a03
 8956 2a1e 05       		.uleb128 0x5
 8957 2a1f 03       		.byte	0x3
 8958 2a20 00000000 		.4byte	OldValues
 8959 2a24 4E       		.uleb128 0x4e
 8960 2a25 AA010000 		.4byte	.LASF218
 8961 2a29 01       		.byte	0x1
 8962 2a2a 21       		.byte	0x21
ARM GAS  C:\Users\srich\AppData\Local\Temp\ccv3JVxh.s 			page 159


 8963 2a2b 032A0000 		.4byte	0x2a03
 8964 2a2f 05       		.uleb128 0x5
 8965 2a30 03       		.byte	0x3
 8966 2a31 00000000 		.4byte	NewValues
 8967 2a35 4E       		.uleb128 0x4e
 8968 2a36 95070000 		.4byte	.LASF219
 8969 2a3a 01       		.byte	0x1
 8970 2a3b 24       		.byte	0x24
 8971 2a3c EF000000 		.4byte	0xef
 8972 2a40 05       		.uleb128 0x5
 8973 2a41 03       		.byte	0x3
 8974 2a42 00000000 		.4byte	MerlegPower
 8975 2a46 4E       		.uleb128 0x4e
 8976 2a47 35070000 		.4byte	.LASF220
 8977 2a4b 01       		.byte	0x1
 8978 2a4c 25       		.byte	0x25
 8979 2a4d CE000000 		.4byte	0xce
 8980 2a51 05       		.uleb128 0x5
 8981 2a52 03       		.byte	0x3
 8982 2a53 00000000 		.4byte	blinker
 8983 2a57 4E       		.uleb128 0x4e
 8984 2a58 B2040000 		.4byte	.LASF221
 8985 2a5c 01       		.byte	0x1
 8986 2a5d 26       		.byte	0x26
 8987 2a5e CE000000 		.4byte	0xce
 8988 2a62 05       		.uleb128 0x5
 8989 2a63 03       		.byte	0x3
 8990 2a64 00000000 		.4byte	TPBlinker
 8991 2a68 4E       		.uleb128 0x4e
 8992 2a69 DC080000 		.4byte	.LASF222
 8993 2a6d 01       		.byte	0x1
 8994 2a6e 28       		.byte	0x28
 8995 2a6f CE000000 		.4byte	0xce
 8996 2a73 05       		.uleb128 0x5
 8997 2a74 03       		.byte	0x3
 8998 2a75 00000000 		.4byte	bus_status
 8999 2a79 14       		.uleb128 0x14
 9000 2a7a E1020000 		.4byte	0x2e1
 9001 2a7e 892A0000 		.4byte	0x2a89
 9002 2a82 15       		.uleb128 0x15
 9003 2a83 89030000 		.4byte	0x389
 9004 2a87 99       		.byte	0x99
 9005 2a88 00       		.byte	0
 9006 2a89 21       		.uleb128 0x21
 9007 2a8a 23040000 		.4byte	.LASF223
 9008 2a8e 01       		.byte	0x1
 9009 2a8f 0202     		.2byte	0x202
 9010 2a91 792A0000 		.4byte	0x2a79
 9011 2a95 05       		.uleb128 0x5
 9012 2a96 03       		.byte	0x3
 9013 2a97 00000000 		.4byte	waDSPThread
 9014 2a9b 21       		.uleb128 0x21
 9015 2a9c 6C030000 		.4byte	.LASF224
 9016 2aa0 01       		.byte	0x1
 9017 2aa1 2402     		.2byte	0x224
 9018 2aa3 792A0000 		.4byte	0x2a79
 9019 2aa7 05       		.uleb128 0x5
ARM GAS  C:\Users\srich\AppData\Local\Temp\ccv3JVxh.s 			page 160


 9020 2aa8 03       		.byte	0x3
 9021 2aa9 00000000 		.4byte	waDSPReader
 9022 2aad 4F       		.uleb128 0x4f
 9023 2aae 72010000 		.4byte	.LASF225
 9024 2ab2 0A       		.byte	0xa
 9025 2ab3 F5       		.byte	0xf5
 9026 2ab4 44040000 		.4byte	0x444
 9027 2ab8 4F       		.uleb128 0x4f
 9028 2ab9 7D090000 		.4byte	.LASF226
 9029 2abd 0B       		.byte	0xb
 9030 2abe 6F       		.byte	0x6f
 9031 2abf A0040000 		.4byte	0x4a0
 9032 2ac3 50       		.uleb128 0x50
 9033 2ac4 F0080000 		.4byte	.LASF227
 9034 2ac8 17       		.byte	0x17
 9035 2ac9 9806     		.2byte	0x698
 9036 2acb 3B060000 		.4byte	0x63b
 9037 2acf 4F       		.uleb128 0x4f
 9038 2ad0 58010000 		.4byte	.LASF228
 9039 2ad4 18       		.byte	0x18
 9040 2ad5 0A       		.byte	0xa
 9041 2ad6 63080000 		.4byte	0x863
 9042 2ada 4F       		.uleb128 0x4f
 9043 2adb D0070000 		.4byte	.LASF229
 9044 2adf 18       		.byte	0x18
 9045 2ae0 0E       		.byte	0xe
 9046 2ae1 8F090000 		.4byte	0x98f
 9047 2ae5 51       		.uleb128 0x51
 9048 2ae6 706F7300 		.ascii	"pos\000"
 9049 2aea 01       		.byte	0x1
 9050 2aeb 23       		.byte	0x23
 9051 2aec AD0A0000 		.4byte	0xaad
 9052 2af0 05       		.uleb128 0x5
 9053 2af1 03       		.byte	0x3
 9054 2af2 00000000 		.4byte	pos
 9055 2af6 52       		.uleb128 0x52
 9056 2af7 E7080000 		.4byte	.LASF239
 9057 2afb 19       		.byte	0x19
 9058 2afc 19       		.byte	0x19
 9059 2afd CE000000 		.4byte	0xce
 9060 2b01 53       		.uleb128 0x53
 9061 2b02 D3030000 		.4byte	.LASF230
 9062 2b06 08       		.byte	0x8
 9063 2b07 7601     		.2byte	0x176
 9064 2b09 132B0000 		.4byte	0x2b13
 9065 2b0d 0E       		.uleb128 0xe
 9066 2b0e 6F010000 		.4byte	0x16f
 9067 2b12 00       		.byte	0
 9068 2b13 54       		.uleb128 0x54
 9069 2b14 3C000000 		.4byte	.LASF231
 9070 2b18 02       		.byte	0x2
 9071 2b19 28       		.byte	0x28
 9072 2b1a 2E2B0000 		.4byte	0x2b2e
 9073 2b1e 0E       		.uleb128 0xe
 9074 2b1f 0E0C0000 		.4byte	0xc0e
 9075 2b23 0E       		.uleb128 0xe
 9076 2b24 22050000 		.4byte	0x522
ARM GAS  C:\Users\srich\AppData\Local\Temp\ccv3JVxh.s 			page 161


 9077 2b28 0E       		.uleb128 0xe
 9078 2b29 B80A0000 		.4byte	0xab8
 9079 2b2d 00       		.byte	0
 9080 2b2e 55       		.uleb128 0x55
 9081 2b2f 36060000 		.4byte	.LASF233
 9082 2b33 19       		.byte	0x19
 9083 2b34 0F       		.byte	0xf
 9084 2b35 CE000000 		.4byte	0xce
 9085 2b39 482B0000 		.4byte	0x2b48
 9086 2b3d 0E       		.uleb128 0xe
 9087 2b3e 33000000 		.4byte	0x33
 9088 2b42 0E       		.uleb128 0xe
 9089 2b43 33000000 		.4byte	0x33
 9090 2b47 00       		.byte	0
 9091 2b48 54       		.uleb128 0x54
 9092 2b49 76000000 		.4byte	.LASF232
 9093 2b4d 19       		.byte	0x19
 9094 2b4e 0E       		.byte	0xe
 9095 2b4f 5E2B0000 		.4byte	0x2b5e
 9096 2b53 0E       		.uleb128 0xe
 9097 2b54 33000000 		.4byte	0x33
 9098 2b58 0E       		.uleb128 0xe
 9099 2b59 33000000 		.4byte	0x33
 9100 2b5d 00       		.byte	0
 9101 2b5e 55       		.uleb128 0x55
 9102 2b5f C8020000 		.4byte	.LASF234
 9103 2b63 19       		.byte	0x19
 9104 2b64 11       		.byte	0x11
 9105 2b65 CE000000 		.4byte	0xce
 9106 2b69 7D2B0000 		.4byte	0x2b7d
 9107 2b6d 0E       		.uleb128 0xe
 9108 2b6e 33000000 		.4byte	0x33
 9109 2b72 0E       		.uleb128 0xe
 9110 2b73 33000000 		.4byte	0x33
 9111 2b77 0E       		.uleb128 0xe
 9112 2b78 33000000 		.4byte	0x33
 9113 2b7c 00       		.byte	0
 9114 2b7d 55       		.uleb128 0x55
 9115 2b7e A0030000 		.4byte	.LASF235
 9116 2b82 19       		.byte	0x19
 9117 2b83 14       		.byte	0x14
 9118 2b84 CE000000 		.4byte	0xce
 9119 2b88 922B0000 		.4byte	0x2b92
 9120 2b8c 0E       		.uleb128 0xe
 9121 2b8d 33000000 		.4byte	0x33
 9122 2b91 00       		.byte	0
 9123 2b92 55       		.uleb128 0x55
 9124 2b93 78030000 		.4byte	.LASF236
 9125 2b97 19       		.byte	0x19
 9126 2b98 15       		.byte	0x15
 9127 2b99 CE000000 		.4byte	0xce
 9128 2b9d A72B0000 		.4byte	0x2ba7
 9129 2ba1 0E       		.uleb128 0xe
 9130 2ba2 33000000 		.4byte	0x33
 9131 2ba6 00       		.byte	0
 9132 2ba7 55       		.uleb128 0x55
 9133 2ba8 5D090000 		.4byte	.LASF237
ARM GAS  C:\Users\srich\AppData\Local\Temp\ccv3JVxh.s 			page 162


 9134 2bac 19       		.byte	0x19
 9135 2bad 1D       		.byte	0x1d
 9136 2bae CE000000 		.4byte	0xce
 9137 2bb2 D02B0000 		.4byte	0x2bd0
 9138 2bb6 0E       		.uleb128 0xe
 9139 2bb7 33000000 		.4byte	0x33
 9140 2bbb 0E       		.uleb128 0xe
 9141 2bbc 33000000 		.4byte	0x33
 9142 2bc0 0E       		.uleb128 0xe
 9143 2bc1 33000000 		.4byte	0x33
 9144 2bc5 0E       		.uleb128 0xe
 9145 2bc6 33000000 		.4byte	0x33
 9146 2bca 0E       		.uleb128 0xe
 9147 2bcb 33000000 		.4byte	0x33
 9148 2bcf 00       		.byte	0
 9149 2bd0 55       		.uleb128 0x55
 9150 2bd1 3D040000 		.4byte	.LASF238
 9151 2bd5 1A       		.byte	0x1a
 9152 2bd6 16       		.byte	0x16
 9153 2bd7 10010000 		.4byte	0x110
 9154 2bdb E52B0000 		.4byte	0x2be5
 9155 2bdf 0E       		.uleb128 0xe
 9156 2be0 CE000000 		.4byte	0xce
 9157 2be4 00       		.byte	0
 9158 2be5 52       		.uleb128 0x52
 9159 2be6 49090000 		.4byte	.LASF240
 9160 2bea 1B       		.byte	0x1b
 9161 2beb 15       		.byte	0x15
 9162 2bec 10010000 		.4byte	0x110
 9163 2bf0 56       		.uleb128 0x56
 9164 2bf1 79010000 		.4byte	.LASF241
 9165 2bf5 1B       		.byte	0x1b
 9166 2bf6 17       		.byte	0x17
 9167 2bf7 10010000 		.4byte	0x110
 9168 2bfb 012C0000 		.4byte	0x2c01
 9169 2bff 2A       		.uleb128 0x2a
 9170 2c00 00       		.byte	0
 9171 2c01 54       		.uleb128 0x54
 9172 2c02 8F0B0000 		.4byte	.LASF242
 9173 2c06 16       		.byte	0x16
 9174 2c07 19       		.byte	0x19
 9175 2c08 122C0000 		.4byte	0x2c12
 9176 2c0c 0E       		.uleb128 0xe
 9177 2c0d 122C0000 		.4byte	0x2c12
 9178 2c11 00       		.byte	0
 9179 2c12 09       		.uleb128 0x9
 9180 2c13 04       		.byte	0x4
 9181 2c14 AD0A0000 		.4byte	0xaad
 9182 2c18 3F       		.uleb128 0x3f
 9183 2c19 95040000 		.4byte	.LASF196
 9184 2c1d 01       		.byte	0x1
 9185 2c1e 2A01     		.2byte	0x12a
 9186 2c20 33000000 		.4byte	0x33
 9187 2c24 2A2C0000 		.4byte	0x2c2a
 9188 2c28 2A       		.uleb128 0x2a
 9189 2c29 00       		.byte	0
 9190 2c2a 55       		.uleb128 0x55
ARM GAS  C:\Users\srich\AppData\Local\Temp\ccv3JVxh.s 			page 163


 9191 2c2b C4000000 		.4byte	.LASF243
 9192 2c2f 15       		.byte	0x15
 9193 2c30 17       		.byte	0x17
 9194 2c31 EF000000 		.4byte	0xef
 9195 2c35 3F2C0000 		.4byte	0x2c3f
 9196 2c39 0E       		.uleb128 0xe
 9197 2c3a F7090000 		.4byte	0x9f7
 9198 2c3e 00       		.byte	0
 9199 2c3f 3F       		.uleb128 0x3f
 9200 2c40 3D070000 		.4byte	.LASF199
 9201 2c44 01       		.byte	0x1
 9202 2c45 4F01     		.2byte	0x14f
 9203 2c47 33000000 		.4byte	0x33
 9204 2c4b 512C0000 		.4byte	0x2c51
 9205 2c4f 2A       		.uleb128 0x2a
 9206 2c50 00       		.byte	0
 9207 2c51 3F       		.uleb128 0x3f
 9208 2c52 250A0000 		.4byte	.LASF200
 9209 2c56 01       		.byte	0x1
 9210 2c57 5301     		.2byte	0x153
 9211 2c59 33000000 		.4byte	0x33
 9212 2c5d 632C0000 		.4byte	0x2c63
 9213 2c61 2A       		.uleb128 0x2a
 9214 2c62 00       		.byte	0
 9215 2c63 3F       		.uleb128 0x3f
 9216 2c64 29030000 		.4byte	.LASF202
 9217 2c68 01       		.byte	0x1
 9218 2c69 5701     		.2byte	0x157
 9219 2c6b 33000000 		.4byte	0x33
 9220 2c6f 752C0000 		.4byte	0x2c75
 9221 2c73 2A       		.uleb128 0x2a
 9222 2c74 00       		.byte	0
 9223 2c75 52       		.uleb128 0x52
 9224 2c76 B2090000 		.4byte	.LASF244
 9225 2c7a 1B       		.byte	0x1b
 9226 2c7b 23       		.byte	0x23
 9227 2c7c CE000000 		.4byte	0xce
 9228 2c80 54       		.uleb128 0x54
 9229 2c81 61080000 		.4byte	.LASF245
 9230 2c85 19       		.byte	0x19
 9231 2c86 13       		.byte	0x13
 9232 2c87 912C0000 		.4byte	0x2c91
 9233 2c8b 0E       		.uleb128 0xe
 9234 2c8c 33000000 		.4byte	0x33
 9235 2c90 00       		.byte	0
 9236 2c91 53       		.uleb128 0x53
 9237 2c92 9A0A0000 		.4byte	.LASF246
 9238 2c96 08       		.byte	0x8
 9239 2c97 7501     		.2byte	0x175
 9240 2c99 A32C0000 		.4byte	0x2ca3
 9241 2c9d 0E       		.uleb128 0xe
 9242 2c9e 6F010000 		.4byte	0x16f
 9243 2ca2 00       		.byte	0
 9244 2ca3 52       		.uleb128 0x52
 9245 2ca4 6A050000 		.4byte	.LASF247
 9246 2ca8 19       		.byte	0x19
 9247 2ca9 0C       		.byte	0xc
ARM GAS  C:\Users\srich\AppData\Local\Temp\ccv3JVxh.s 			page 164


 9248 2caa CE000000 		.4byte	0xce
 9249 2cae 57       		.uleb128 0x57
 9250 2caf 6E080000 		.4byte	.LASF249
 9251 2cb3 19       		.byte	0x19
 9252 2cb4 20       		.byte	0x20
 9253 2cb5 BB2C0000 		.4byte	0x2cbb
 9254 2cb9 2A       		.uleb128 0x2a
 9255 2cba 00       		.byte	0
 9256 2cbb 52       		.uleb128 0x52
 9257 2cbc 78070000 		.4byte	.LASF250
 9258 2cc0 19       		.byte	0x19
 9259 2cc1 0D       		.byte	0xd
 9260 2cc2 CE000000 		.4byte	0xce
 9261 2cc6 58       		.uleb128 0x58
 9262 2cc7 83070000 		.4byte	.LASF251
 9263 2ccb 08       		.byte	0x8
 9264 2ccc 7001     		.2byte	0x170
 9265 2cce A3020000 		.4byte	0x2a3
 9266 2cd2 0E       		.uleb128 0xe
 9267 2cd3 DF020000 		.4byte	0x2df
 9268 2cd7 0E       		.uleb128 0xe
 9269 2cd8 3A000000 		.4byte	0x3a
 9270 2cdc 0E       		.uleb128 0xe
 9271 2cdd 4E010000 		.4byte	0x14e
 9272 2ce1 0E       		.uleb128 0xe
 9273 2ce2 3A050000 		.4byte	0x53a
 9274 2ce6 0E       		.uleb128 0xe
 9275 2ce7 DF020000 		.4byte	0x2df
 9276 2ceb 00       		.byte	0
 9277 2cec 00       		.byte	0
 9278              		.section	.debug_abbrev,"",%progbits
 9279              	.Ldebug_abbrev0:
 9280 0000 01       		.uleb128 0x1
 9281 0001 11       		.uleb128 0x11
 9282 0002 01       		.byte	0x1
 9283 0003 25       		.uleb128 0x25
 9284 0004 0E       		.uleb128 0xe
 9285 0005 13       		.uleb128 0x13
 9286 0006 0B       		.uleb128 0xb
 9287 0007 03       		.uleb128 0x3
 9288 0008 0E       		.uleb128 0xe
 9289 0009 1B       		.uleb128 0x1b
 9290 000a 0E       		.uleb128 0xe
 9291 000b 55       		.uleb128 0x55
 9292 000c 17       		.uleb128 0x17
 9293 000d 11       		.uleb128 0x11
 9294 000e 01       		.uleb128 0x1
 9295 000f 10       		.uleb128 0x10
 9296 0010 17       		.uleb128 0x17
 9297 0011 00       		.byte	0
 9298 0012 00       		.byte	0
 9299 0013 02       		.uleb128 0x2
 9300 0014 24       		.uleb128 0x24
 9301 0015 00       		.byte	0
 9302 0016 0B       		.uleb128 0xb
 9303 0017 0B       		.uleb128 0xb
 9304 0018 3E       		.uleb128 0x3e
ARM GAS  C:\Users\srich\AppData\Local\Temp\ccv3JVxh.s 			page 165


 9305 0019 0B       		.uleb128 0xb
 9306 001a 03       		.uleb128 0x3
 9307 001b 0E       		.uleb128 0xe
 9308 001c 00       		.byte	0
 9309 001d 00       		.byte	0
 9310 001e 03       		.uleb128 0x3
 9311 001f 24       		.uleb128 0x24
 9312 0020 00       		.byte	0
 9313 0021 0B       		.uleb128 0xb
 9314 0022 0B       		.uleb128 0xb
 9315 0023 3E       		.uleb128 0x3e
 9316 0024 0B       		.uleb128 0xb
 9317 0025 03       		.uleb128 0x3
 9318 0026 08       		.uleb128 0x8
 9319 0027 00       		.byte	0
 9320 0028 00       		.byte	0
 9321 0029 04       		.uleb128 0x4
 9322 002a 16       		.uleb128 0x16
 9323 002b 00       		.byte	0
 9324 002c 03       		.uleb128 0x3
 9325 002d 0E       		.uleb128 0xe
 9326 002e 3A       		.uleb128 0x3a
 9327 002f 0B       		.uleb128 0xb
 9328 0030 3B       		.uleb128 0x3b
 9329 0031 0B       		.uleb128 0xb
 9330 0032 49       		.uleb128 0x49
 9331 0033 13       		.uleb128 0x13
 9332 0034 00       		.byte	0
 9333 0035 00       		.byte	0
 9334 0036 05       		.uleb128 0x5
 9335 0037 13       		.uleb128 0x13
 9336 0038 01       		.byte	0x1
 9337 0039 03       		.uleb128 0x3
 9338 003a 0E       		.uleb128 0xe
 9339 003b 0B       		.uleb128 0xb
 9340 003c 0B       		.uleb128 0xb
 9341 003d 3A       		.uleb128 0x3a
 9342 003e 0B       		.uleb128 0xb
 9343 003f 3B       		.uleb128 0x3b
 9344 0040 0B       		.uleb128 0xb
 9345 0041 01       		.uleb128 0x1
 9346 0042 13       		.uleb128 0x13
 9347 0043 00       		.byte	0
 9348 0044 00       		.byte	0
 9349 0045 06       		.uleb128 0x6
 9350 0046 0D       		.uleb128 0xd
 9351 0047 00       		.byte	0
 9352 0048 03       		.uleb128 0x3
 9353 0049 0E       		.uleb128 0xe
 9354 004a 3A       		.uleb128 0x3a
 9355 004b 0B       		.uleb128 0xb
 9356 004c 3B       		.uleb128 0x3b
 9357 004d 0B       		.uleb128 0xb
 9358 004e 49       		.uleb128 0x49
 9359 004f 13       		.uleb128 0x13
 9360 0050 38       		.uleb128 0x38
 9361 0051 0B       		.uleb128 0xb
ARM GAS  C:\Users\srich\AppData\Local\Temp\ccv3JVxh.s 			page 166


 9362 0052 00       		.byte	0
 9363 0053 00       		.byte	0
 9364 0054 07       		.uleb128 0x7
 9365 0055 0D       		.uleb128 0xd
 9366 0056 00       		.byte	0
 9367 0057 03       		.uleb128 0x3
 9368 0058 08       		.uleb128 0x8
 9369 0059 3A       		.uleb128 0x3a
 9370 005a 0B       		.uleb128 0xb
 9371 005b 3B       		.uleb128 0x3b
 9372 005c 0B       		.uleb128 0xb
 9373 005d 49       		.uleb128 0x49
 9374 005e 13       		.uleb128 0x13
 9375 005f 38       		.uleb128 0x38
 9376 0060 0B       		.uleb128 0xb
 9377 0061 00       		.byte	0
 9378 0062 00       		.byte	0
 9379 0063 08       		.uleb128 0x8
 9380 0064 13       		.uleb128 0x13
 9381 0065 01       		.byte	0x1
 9382 0066 0B       		.uleb128 0xb
 9383 0067 0B       		.uleb128 0xb
 9384 0068 3A       		.uleb128 0x3a
 9385 0069 0B       		.uleb128 0xb
 9386 006a 3B       		.uleb128 0x3b
 9387 006b 0B       		.uleb128 0xb
 9388 006c 01       		.uleb128 0x1
 9389 006d 13       		.uleb128 0x13
 9390 006e 00       		.byte	0
 9391 006f 00       		.byte	0
 9392 0070 09       		.uleb128 0x9
 9393 0071 0F       		.uleb128 0xf
 9394 0072 00       		.byte	0
 9395 0073 0B       		.uleb128 0xb
 9396 0074 0B       		.uleb128 0xb
 9397 0075 49       		.uleb128 0x49
 9398 0076 13       		.uleb128 0x13
 9399 0077 00       		.byte	0
 9400 0078 00       		.byte	0
 9401 0079 0A       		.uleb128 0xa
 9402 007a 0F       		.uleb128 0xf
 9403 007b 00       		.byte	0
 9404 007c 0B       		.uleb128 0xb
 9405 007d 0B       		.uleb128 0xb
 9406 007e 00       		.byte	0
 9407 007f 00       		.byte	0
 9408 0080 0B       		.uleb128 0xb
 9409 0081 13       		.uleb128 0x13
 9410 0082 01       		.byte	0x1
 9411 0083 03       		.uleb128 0x3
 9412 0084 0E       		.uleb128 0xe
 9413 0085 0B       		.uleb128 0xb
 9414 0086 0B       		.uleb128 0xb
 9415 0087 3A       		.uleb128 0x3a
 9416 0088 0B       		.uleb128 0xb
 9417 0089 3B       		.uleb128 0x3b
 9418 008a 05       		.uleb128 0x5
ARM GAS  C:\Users\srich\AppData\Local\Temp\ccv3JVxh.s 			page 167


 9419 008b 01       		.uleb128 0x1
 9420 008c 13       		.uleb128 0x13
 9421 008d 00       		.byte	0
 9422 008e 00       		.byte	0
 9423 008f 0C       		.uleb128 0xc
 9424 0090 0D       		.uleb128 0xd
 9425 0091 00       		.byte	0
 9426 0092 03       		.uleb128 0x3
 9427 0093 08       		.uleb128 0x8
 9428 0094 3A       		.uleb128 0x3a
 9429 0095 0B       		.uleb128 0xb
 9430 0096 3B       		.uleb128 0x3b
 9431 0097 05       		.uleb128 0x5
 9432 0098 49       		.uleb128 0x49
 9433 0099 13       		.uleb128 0x13
 9434 009a 38       		.uleb128 0x38
 9435 009b 0B       		.uleb128 0xb
 9436 009c 00       		.byte	0
 9437 009d 00       		.byte	0
 9438 009e 0D       		.uleb128 0xd
 9439 009f 15       		.uleb128 0x15
 9440 00a0 01       		.byte	0x1
 9441 00a1 27       		.uleb128 0x27
 9442 00a2 19       		.uleb128 0x19
 9443 00a3 01       		.uleb128 0x1
 9444 00a4 13       		.uleb128 0x13
 9445 00a5 00       		.byte	0
 9446 00a6 00       		.byte	0
 9447 00a7 0E       		.uleb128 0xe
 9448 00a8 05       		.uleb128 0x5
 9449 00a9 00       		.byte	0
 9450 00aa 49       		.uleb128 0x49
 9451 00ab 13       		.uleb128 0x13
 9452 00ac 00       		.byte	0
 9453 00ad 00       		.byte	0
 9454 00ae 0F       		.uleb128 0xf
 9455 00af 35       		.uleb128 0x35
 9456 00b0 00       		.byte	0
 9457 00b1 49       		.uleb128 0x49
 9458 00b2 13       		.uleb128 0x13
 9459 00b3 00       		.byte	0
 9460 00b4 00       		.byte	0
 9461 00b5 10       		.uleb128 0x10
 9462 00b6 17       		.uleb128 0x17
 9463 00b7 01       		.byte	0x1
 9464 00b8 0B       		.uleb128 0xb
 9465 00b9 0B       		.uleb128 0xb
 9466 00ba 3A       		.uleb128 0x3a
 9467 00bb 0B       		.uleb128 0xb
 9468 00bc 3B       		.uleb128 0x3b
 9469 00bd 0B       		.uleb128 0xb
 9470 00be 01       		.uleb128 0x1
 9471 00bf 13       		.uleb128 0x13
 9472 00c0 00       		.byte	0
 9473 00c1 00       		.byte	0
 9474 00c2 11       		.uleb128 0x11
 9475 00c3 0D       		.uleb128 0xd
ARM GAS  C:\Users\srich\AppData\Local\Temp\ccv3JVxh.s 			page 168


 9476 00c4 00       		.byte	0
 9477 00c5 03       		.uleb128 0x3
 9478 00c6 0E       		.uleb128 0xe
 9479 00c7 3A       		.uleb128 0x3a
 9480 00c8 0B       		.uleb128 0xb
 9481 00c9 3B       		.uleb128 0x3b
 9482 00ca 0B       		.uleb128 0xb
 9483 00cb 49       		.uleb128 0x49
 9484 00cc 13       		.uleb128 0x13
 9485 00cd 00       		.byte	0
 9486 00ce 00       		.byte	0
 9487 00cf 12       		.uleb128 0x12
 9488 00d0 26       		.uleb128 0x26
 9489 00d1 00       		.byte	0
 9490 00d2 49       		.uleb128 0x49
 9491 00d3 13       		.uleb128 0x13
 9492 00d4 00       		.byte	0
 9493 00d5 00       		.byte	0
 9494 00d6 13       		.uleb128 0x13
 9495 00d7 15       		.uleb128 0x15
 9496 00d8 01       		.byte	0x1
 9497 00d9 27       		.uleb128 0x27
 9498 00da 19       		.uleb128 0x19
 9499 00db 49       		.uleb128 0x49
 9500 00dc 13       		.uleb128 0x13
 9501 00dd 01       		.uleb128 0x1
 9502 00de 13       		.uleb128 0x13
 9503 00df 00       		.byte	0
 9504 00e0 00       		.byte	0
 9505 00e1 14       		.uleb128 0x14
 9506 00e2 01       		.uleb128 0x1
 9507 00e3 01       		.byte	0x1
 9508 00e4 49       		.uleb128 0x49
 9509 00e5 13       		.uleb128 0x13
 9510 00e6 01       		.uleb128 0x1
 9511 00e7 13       		.uleb128 0x13
 9512 00e8 00       		.byte	0
 9513 00e9 00       		.byte	0
 9514 00ea 15       		.uleb128 0x15
 9515 00eb 21       		.uleb128 0x21
 9516 00ec 00       		.byte	0
 9517 00ed 49       		.uleb128 0x49
 9518 00ee 13       		.uleb128 0x13
 9519 00ef 2F       		.uleb128 0x2f
 9520 00f0 0B       		.uleb128 0xb
 9521 00f1 00       		.byte	0
 9522 00f2 00       		.byte	0
 9523 00f3 16       		.uleb128 0x16
 9524 00f4 04       		.uleb128 0x4
 9525 00f5 01       		.byte	0x1
 9526 00f6 03       		.uleb128 0x3
 9527 00f7 0E       		.uleb128 0xe
 9528 00f8 0B       		.uleb128 0xb
 9529 00f9 0B       		.uleb128 0xb
 9530 00fa 3A       		.uleb128 0x3a
 9531 00fb 0B       		.uleb128 0xb
 9532 00fc 3B       		.uleb128 0x3b
ARM GAS  C:\Users\srich\AppData\Local\Temp\ccv3JVxh.s 			page 169


 9533 00fd 0B       		.uleb128 0xb
 9534 00fe 01       		.uleb128 0x1
 9535 00ff 13       		.uleb128 0x13
 9536 0100 00       		.byte	0
 9537 0101 00       		.byte	0
 9538 0102 17       		.uleb128 0x17
 9539 0103 28       		.uleb128 0x28
 9540 0104 00       		.byte	0
 9541 0105 03       		.uleb128 0x3
 9542 0106 0E       		.uleb128 0xe
 9543 0107 1C       		.uleb128 0x1c
 9544 0108 0D       		.uleb128 0xd
 9545 0109 00       		.byte	0
 9546 010a 00       		.byte	0
 9547 010b 18       		.uleb128 0x18
 9548 010c 0D       		.uleb128 0xd
 9549 010d 00       		.byte	0
 9550 010e 03       		.uleb128 0x3
 9551 010f 0E       		.uleb128 0xe
 9552 0110 49       		.uleb128 0x49
 9553 0111 13       		.uleb128 0x13
 9554 0112 38       		.uleb128 0x38
 9555 0113 0B       		.uleb128 0xb
 9556 0114 34       		.uleb128 0x34
 9557 0115 19       		.uleb128 0x19
 9558 0116 00       		.byte	0
 9559 0117 00       		.byte	0
 9560 0118 19       		.uleb128 0x19
 9561 0119 2E       		.uleb128 0x2e
 9562 011a 01       		.byte	0x1
 9563 011b 3F       		.uleb128 0x3f
 9564 011c 19       		.uleb128 0x19
 9565 011d 03       		.uleb128 0x3
 9566 011e 0E       		.uleb128 0xe
 9567 011f 3A       		.uleb128 0x3a
 9568 0120 0B       		.uleb128 0xb
 9569 0121 3B       		.uleb128 0x3b
 9570 0122 0B       		.uleb128 0xb
 9571 0123 27       		.uleb128 0x27
 9572 0124 19       		.uleb128 0x19
 9573 0125 20       		.uleb128 0x20
 9574 0126 0B       		.uleb128 0xb
 9575 0127 01       		.uleb128 0x1
 9576 0128 13       		.uleb128 0x13
 9577 0129 00       		.byte	0
 9578 012a 00       		.byte	0
 9579 012b 1A       		.uleb128 0x1a
 9580 012c 05       		.uleb128 0x5
 9581 012d 00       		.byte	0
 9582 012e 03       		.uleb128 0x3
 9583 012f 0E       		.uleb128 0xe
 9584 0130 3A       		.uleb128 0x3a
 9585 0131 0B       		.uleb128 0xb
 9586 0132 3B       		.uleb128 0x3b
 9587 0133 0B       		.uleb128 0xb
 9588 0134 49       		.uleb128 0x49
 9589 0135 13       		.uleb128 0x13
ARM GAS  C:\Users\srich\AppData\Local\Temp\ccv3JVxh.s 			page 170


 9590 0136 00       		.byte	0
 9591 0137 00       		.byte	0
 9592 0138 1B       		.uleb128 0x1b
 9593 0139 05       		.uleb128 0x5
 9594 013a 00       		.byte	0
 9595 013b 03       		.uleb128 0x3
 9596 013c 08       		.uleb128 0x8
 9597 013d 3A       		.uleb128 0x3a
 9598 013e 0B       		.uleb128 0xb
 9599 013f 3B       		.uleb128 0x3b
 9600 0140 0B       		.uleb128 0xb
 9601 0141 49       		.uleb128 0x49
 9602 0142 13       		.uleb128 0x13
 9603 0143 00       		.byte	0
 9604 0144 00       		.byte	0
 9605 0145 1C       		.uleb128 0x1c
 9606 0146 2E       		.uleb128 0x2e
 9607 0147 00       		.byte	0
 9608 0148 3F       		.uleb128 0x3f
 9609 0149 19       		.uleb128 0x19
 9610 014a 03       		.uleb128 0x3
 9611 014b 0E       		.uleb128 0xe
 9612 014c 3A       		.uleb128 0x3a
 9613 014d 0B       		.uleb128 0xb
 9614 014e 3B       		.uleb128 0x3b
 9615 014f 05       		.uleb128 0x5
 9616 0150 20       		.uleb128 0x20
 9617 0151 0B       		.uleb128 0xb
 9618 0152 00       		.byte	0
 9619 0153 00       		.byte	0
 9620 0154 1D       		.uleb128 0x1d
 9621 0155 2E       		.uleb128 0x2e
 9622 0156 01       		.byte	0x1
 9623 0157 3F       		.uleb128 0x3f
 9624 0158 19       		.uleb128 0x19
 9625 0159 03       		.uleb128 0x3
 9626 015a 0E       		.uleb128 0xe
 9627 015b 3A       		.uleb128 0x3a
 9628 015c 0B       		.uleb128 0xb
 9629 015d 3B       		.uleb128 0x3b
 9630 015e 05       		.uleb128 0x5
 9631 015f 20       		.uleb128 0x20
 9632 0160 0B       		.uleb128 0xb
 9633 0161 01       		.uleb128 0x1
 9634 0162 13       		.uleb128 0x13
 9635 0163 00       		.byte	0
 9636 0164 00       		.byte	0
 9637 0165 1E       		.uleb128 0x1e
 9638 0166 34       		.uleb128 0x34
 9639 0167 00       		.byte	0
 9640 0168 03       		.uleb128 0x3
 9641 0169 08       		.uleb128 0x8
 9642 016a 3A       		.uleb128 0x3a
 9643 016b 0B       		.uleb128 0xb
 9644 016c 3B       		.uleb128 0x3b
 9645 016d 05       		.uleb128 0x5
 9646 016e 49       		.uleb128 0x49
ARM GAS  C:\Users\srich\AppData\Local\Temp\ccv3JVxh.s 			page 171


 9647 016f 13       		.uleb128 0x13
 9648 0170 00       		.byte	0
 9649 0171 00       		.byte	0
 9650 0172 1F       		.uleb128 0x1f
 9651 0173 2E       		.uleb128 0x2e
 9652 0174 01       		.byte	0x1
 9653 0175 03       		.uleb128 0x3
 9654 0176 0E       		.uleb128 0xe
 9655 0177 3A       		.uleb128 0x3a
 9656 0178 0B       		.uleb128 0xb
 9657 0179 3B       		.uleb128 0x3b
 9658 017a 05       		.uleb128 0x5
 9659 017b 27       		.uleb128 0x27
 9660 017c 19       		.uleb128 0x19
 9661 017d 49       		.uleb128 0x49
 9662 017e 13       		.uleb128 0x13
 9663 017f 11       		.uleb128 0x11
 9664 0180 01       		.uleb128 0x1
 9665 0181 12       		.uleb128 0x12
 9666 0182 06       		.uleb128 0x6
 9667 0183 40       		.uleb128 0x40
 9668 0184 18       		.uleb128 0x18
 9669 0185 9742     		.uleb128 0x2117
 9670 0187 19       		.uleb128 0x19
 9671 0188 01       		.uleb128 0x1
 9672 0189 13       		.uleb128 0x13
 9673 018a 00       		.byte	0
 9674 018b 00       		.byte	0
 9675 018c 20       		.uleb128 0x20
 9676 018d 05       		.uleb128 0x5
 9677 018e 00       		.byte	0
 9678 018f 03       		.uleb128 0x3
 9679 0190 08       		.uleb128 0x8
 9680 0191 3A       		.uleb128 0x3a
 9681 0192 0B       		.uleb128 0xb
 9682 0193 3B       		.uleb128 0x3b
 9683 0194 05       		.uleb128 0x5
 9684 0195 49       		.uleb128 0x49
 9685 0196 13       		.uleb128 0x13
 9686 0197 02       		.uleb128 0x2
 9687 0198 17       		.uleb128 0x17
 9688 0199 00       		.byte	0
 9689 019a 00       		.byte	0
 9690 019b 21       		.uleb128 0x21
 9691 019c 34       		.uleb128 0x34
 9692 019d 00       		.byte	0
 9693 019e 03       		.uleb128 0x3
 9694 019f 0E       		.uleb128 0xe
 9695 01a0 3A       		.uleb128 0x3a
 9696 01a1 0B       		.uleb128 0xb
 9697 01a2 3B       		.uleb128 0x3b
 9698 01a3 05       		.uleb128 0x5
 9699 01a4 49       		.uleb128 0x49
 9700 01a5 13       		.uleb128 0x13
 9701 01a6 02       		.uleb128 0x2
 9702 01a7 18       		.uleb128 0x18
 9703 01a8 00       		.byte	0
ARM GAS  C:\Users\srich\AppData\Local\Temp\ccv3JVxh.s 			page 172


 9704 01a9 00       		.byte	0
 9705 01aa 22       		.uleb128 0x22
 9706 01ab 0B       		.uleb128 0xb
 9707 01ac 01       		.byte	0x1
 9708 01ad 11       		.uleb128 0x11
 9709 01ae 01       		.uleb128 0x1
 9710 01af 12       		.uleb128 0x12
 9711 01b0 06       		.uleb128 0x6
 9712 01b1 00       		.byte	0
 9713 01b2 00       		.byte	0
 9714 01b3 23       		.uleb128 0x23
 9715 01b4 34       		.uleb128 0x34
 9716 01b5 00       		.byte	0
 9717 01b6 03       		.uleb128 0x3
 9718 01b7 0E       		.uleb128 0xe
 9719 01b8 3A       		.uleb128 0x3a
 9720 01b9 0B       		.uleb128 0xb
 9721 01ba 3B       		.uleb128 0x3b
 9722 01bb 05       		.uleb128 0x5
 9723 01bc 49       		.uleb128 0x49
 9724 01bd 13       		.uleb128 0x13
 9725 01be 02       		.uleb128 0x2
 9726 01bf 17       		.uleb128 0x17
 9727 01c0 00       		.byte	0
 9728 01c1 00       		.byte	0
 9729 01c2 24       		.uleb128 0x24
 9730 01c3 898201   		.uleb128 0x4109
 9731 01c6 00       		.byte	0
 9732 01c7 11       		.uleb128 0x11
 9733 01c8 01       		.uleb128 0x1
 9734 01c9 31       		.uleb128 0x31
 9735 01ca 13       		.uleb128 0x13
 9736 01cb 00       		.byte	0
 9737 01cc 00       		.byte	0
 9738 01cd 25       		.uleb128 0x25
 9739 01ce 898201   		.uleb128 0x4109
 9740 01d1 01       		.byte	0x1
 9741 01d2 11       		.uleb128 0x11
 9742 01d3 01       		.uleb128 0x1
 9743 01d4 31       		.uleb128 0x31
 9744 01d5 13       		.uleb128 0x13
 9745 01d6 00       		.byte	0
 9746 01d7 00       		.byte	0
 9747 01d8 26       		.uleb128 0x26
 9748 01d9 8A8201   		.uleb128 0x410a
 9749 01dc 00       		.byte	0
 9750 01dd 02       		.uleb128 0x2
 9751 01de 18       		.uleb128 0x18
 9752 01df 9142     		.uleb128 0x2111
 9753 01e1 18       		.uleb128 0x18
 9754 01e2 00       		.byte	0
 9755 01e3 00       		.byte	0
 9756 01e4 27       		.uleb128 0x27
 9757 01e5 2E       		.uleb128 0x2e
 9758 01e6 01       		.byte	0x1
 9759 01e7 03       		.uleb128 0x3
 9760 01e8 0E       		.uleb128 0xe
ARM GAS  C:\Users\srich\AppData\Local\Temp\ccv3JVxh.s 			page 173


 9761 01e9 3A       		.uleb128 0x3a
 9762 01ea 0B       		.uleb128 0xb
 9763 01eb 3B       		.uleb128 0x3b
 9764 01ec 0B       		.uleb128 0xb
 9765 01ed 27       		.uleb128 0x27
 9766 01ee 19       		.uleb128 0x19
 9767 01ef 11       		.uleb128 0x11
 9768 01f0 01       		.uleb128 0x1
 9769 01f1 12       		.uleb128 0x12
 9770 01f2 06       		.uleb128 0x6
 9771 01f3 40       		.uleb128 0x40
 9772 01f4 18       		.uleb128 0x18
 9773 01f5 9742     		.uleb128 0x2117
 9774 01f7 19       		.uleb128 0x19
 9775 01f8 01       		.uleb128 0x1
 9776 01f9 13       		.uleb128 0x13
 9777 01fa 00       		.byte	0
 9778 01fb 00       		.byte	0
 9779 01fc 28       		.uleb128 0x28
 9780 01fd 05       		.uleb128 0x5
 9781 01fe 00       		.byte	0
 9782 01ff 03       		.uleb128 0x3
 9783 0200 08       		.uleb128 0x8
 9784 0201 3A       		.uleb128 0x3a
 9785 0202 0B       		.uleb128 0xb
 9786 0203 3B       		.uleb128 0x3b
 9787 0204 0B       		.uleb128 0xb
 9788 0205 49       		.uleb128 0x49
 9789 0206 13       		.uleb128 0x13
 9790 0207 02       		.uleb128 0x2
 9791 0208 17       		.uleb128 0x17
 9792 0209 00       		.byte	0
 9793 020a 00       		.byte	0
 9794 020b 29       		.uleb128 0x29
 9795 020c 05       		.uleb128 0x5
 9796 020d 00       		.byte	0
 9797 020e 03       		.uleb128 0x3
 9798 020f 08       		.uleb128 0x8
 9799 0210 3A       		.uleb128 0x3a
 9800 0211 0B       		.uleb128 0xb
 9801 0212 3B       		.uleb128 0x3b
 9802 0213 0B       		.uleb128 0xb
 9803 0214 49       		.uleb128 0x49
 9804 0215 13       		.uleb128 0x13
 9805 0216 02       		.uleb128 0x2
 9806 0217 18       		.uleb128 0x18
 9807 0218 00       		.byte	0
 9808 0219 00       		.byte	0
 9809 021a 2A       		.uleb128 0x2a
 9810 021b 18       		.uleb128 0x18
 9811 021c 00       		.byte	0
 9812 021d 00       		.byte	0
 9813 021e 00       		.byte	0
 9814 021f 2B       		.uleb128 0x2b
 9815 0220 34       		.uleb128 0x34
 9816 0221 00       		.byte	0
 9817 0222 03       		.uleb128 0x3
ARM GAS  C:\Users\srich\AppData\Local\Temp\ccv3JVxh.s 			page 174


 9818 0223 08       		.uleb128 0x8
 9819 0224 3A       		.uleb128 0x3a
 9820 0225 0B       		.uleb128 0xb
 9821 0226 3B       		.uleb128 0x3b
 9822 0227 0B       		.uleb128 0xb
 9823 0228 49       		.uleb128 0x49
 9824 0229 13       		.uleb128 0x13
 9825 022a 02       		.uleb128 0x2
 9826 022b 18       		.uleb128 0x18
 9827 022c 00       		.byte	0
 9828 022d 00       		.byte	0
 9829 022e 2C       		.uleb128 0x2c
 9830 022f 2E       		.uleb128 0x2e
 9831 0230 01       		.byte	0x1
 9832 0231 31       		.uleb128 0x31
 9833 0232 13       		.uleb128 0x13
 9834 0233 11       		.uleb128 0x11
 9835 0234 01       		.uleb128 0x1
 9836 0235 12       		.uleb128 0x12
 9837 0236 06       		.uleb128 0x6
 9838 0237 40       		.uleb128 0x40
 9839 0238 18       		.uleb128 0x18
 9840 0239 9742     		.uleb128 0x2117
 9841 023b 19       		.uleb128 0x19
 9842 023c 01       		.uleb128 0x1
 9843 023d 13       		.uleb128 0x13
 9844 023e 00       		.byte	0
 9845 023f 00       		.byte	0
 9846 0240 2D       		.uleb128 0x2d
 9847 0241 05       		.uleb128 0x5
 9848 0242 00       		.byte	0
 9849 0243 31       		.uleb128 0x31
 9850 0244 13       		.uleb128 0x13
 9851 0245 02       		.uleb128 0x2
 9852 0246 17       		.uleb128 0x17
 9853 0247 00       		.byte	0
 9854 0248 00       		.byte	0
 9855 0249 2E       		.uleb128 0x2e
 9856 024a 898201   		.uleb128 0x4109
 9857 024d 01       		.byte	0x1
 9858 024e 11       		.uleb128 0x11
 9859 024f 01       		.uleb128 0x1
 9860 0250 31       		.uleb128 0x31
 9861 0251 13       		.uleb128 0x13
 9862 0252 01       		.uleb128 0x1
 9863 0253 13       		.uleb128 0x13
 9864 0254 00       		.byte	0
 9865 0255 00       		.byte	0
 9866 0256 2F       		.uleb128 0x2f
 9867 0257 898201   		.uleb128 0x4109
 9868 025a 01       		.byte	0x1
 9869 025b 11       		.uleb128 0x11
 9870 025c 01       		.uleb128 0x1
 9871 025d 9542     		.uleb128 0x2115
 9872 025f 19       		.uleb128 0x19
 9873 0260 31       		.uleb128 0x31
 9874 0261 13       		.uleb128 0x13
ARM GAS  C:\Users\srich\AppData\Local\Temp\ccv3JVxh.s 			page 175


 9875 0262 00       		.byte	0
 9876 0263 00       		.byte	0
 9877 0264 30       		.uleb128 0x30
 9878 0265 2E       		.uleb128 0x2e
 9879 0266 01       		.byte	0x1
 9880 0267 3F       		.uleb128 0x3f
 9881 0268 19       		.uleb128 0x19
 9882 0269 03       		.uleb128 0x3
 9883 026a 0E       		.uleb128 0xe
 9884 026b 3A       		.uleb128 0x3a
 9885 026c 0B       		.uleb128 0xb
 9886 026d 3B       		.uleb128 0x3b
 9887 026e 0B       		.uleb128 0xb
 9888 026f 27       		.uleb128 0x27
 9889 0270 19       		.uleb128 0x19
 9890 0271 49       		.uleb128 0x49
 9891 0272 13       		.uleb128 0x13
 9892 0273 11       		.uleb128 0x11
 9893 0274 01       		.uleb128 0x1
 9894 0275 12       		.uleb128 0x12
 9895 0276 06       		.uleb128 0x6
 9896 0277 40       		.uleb128 0x40
 9897 0278 18       		.uleb128 0x18
 9898 0279 9742     		.uleb128 0x2117
 9899 027b 19       		.uleb128 0x19
 9900 027c 01       		.uleb128 0x1
 9901 027d 13       		.uleb128 0x13
 9902 027e 00       		.byte	0
 9903 027f 00       		.byte	0
 9904 0280 31       		.uleb128 0x31
 9905 0281 05       		.uleb128 0x5
 9906 0282 00       		.byte	0
 9907 0283 03       		.uleb128 0x3
 9908 0284 0E       		.uleb128 0xe
 9909 0285 3A       		.uleb128 0x3a
 9910 0286 0B       		.uleb128 0xb
 9911 0287 3B       		.uleb128 0x3b
 9912 0288 0B       		.uleb128 0xb
 9913 0289 49       		.uleb128 0x49
 9914 028a 13       		.uleb128 0x13
 9915 028b 02       		.uleb128 0x2
 9916 028c 17       		.uleb128 0x17
 9917 028d 00       		.byte	0
 9918 028e 00       		.byte	0
 9919 028f 32       		.uleb128 0x32
 9920 0290 34       		.uleb128 0x34
 9921 0291 00       		.byte	0
 9922 0292 03       		.uleb128 0x3
 9923 0293 0E       		.uleb128 0xe
 9924 0294 3A       		.uleb128 0x3a
 9925 0295 0B       		.uleb128 0xb
 9926 0296 3B       		.uleb128 0x3b
 9927 0297 0B       		.uleb128 0xb
 9928 0298 49       		.uleb128 0x49
 9929 0299 13       		.uleb128 0x13
 9930 029a 02       		.uleb128 0x2
 9931 029b 17       		.uleb128 0x17
ARM GAS  C:\Users\srich\AppData\Local\Temp\ccv3JVxh.s 			page 176


 9932 029c 00       		.byte	0
 9933 029d 00       		.byte	0
 9934 029e 33       		.uleb128 0x33
 9935 029f 34       		.uleb128 0x34
 9936 02a0 00       		.byte	0
 9937 02a1 03       		.uleb128 0x3
 9938 02a2 08       		.uleb128 0x8
 9939 02a3 3A       		.uleb128 0x3a
 9940 02a4 0B       		.uleb128 0xb
 9941 02a5 3B       		.uleb128 0x3b
 9942 02a6 0B       		.uleb128 0xb
 9943 02a7 49       		.uleb128 0x49
 9944 02a8 13       		.uleb128 0x13
 9945 02a9 02       		.uleb128 0x2
 9946 02aa 17       		.uleb128 0x17
 9947 02ab 00       		.byte	0
 9948 02ac 00       		.byte	0
 9949 02ad 34       		.uleb128 0x34
 9950 02ae 2E       		.uleb128 0x2e
 9951 02af 01       		.byte	0x1
 9952 02b0 3F       		.uleb128 0x3f
 9953 02b1 19       		.uleb128 0x19
 9954 02b2 03       		.uleb128 0x3
 9955 02b3 0E       		.uleb128 0xe
 9956 02b4 3A       		.uleb128 0x3a
 9957 02b5 0B       		.uleb128 0xb
 9958 02b6 3B       		.uleb128 0x3b
 9959 02b7 0B       		.uleb128 0xb
 9960 02b8 27       		.uleb128 0x27
 9961 02b9 19       		.uleb128 0x19
 9962 02ba 11       		.uleb128 0x11
 9963 02bb 01       		.uleb128 0x1
 9964 02bc 12       		.uleb128 0x12
 9965 02bd 06       		.uleb128 0x6
 9966 02be 40       		.uleb128 0x40
 9967 02bf 18       		.uleb128 0x18
 9968 02c0 9742     		.uleb128 0x2117
 9969 02c2 19       		.uleb128 0x19
 9970 02c3 01       		.uleb128 0x1
 9971 02c4 13       		.uleb128 0x13
 9972 02c5 00       		.byte	0
 9973 02c6 00       		.byte	0
 9974 02c7 35       		.uleb128 0x35
 9975 02c8 1D       		.uleb128 0x1d
 9976 02c9 01       		.byte	0x1
 9977 02ca 31       		.uleb128 0x31
 9978 02cb 13       		.uleb128 0x13
 9979 02cc 11       		.uleb128 0x11
 9980 02cd 01       		.uleb128 0x1
 9981 02ce 12       		.uleb128 0x12
 9982 02cf 06       		.uleb128 0x6
 9983 02d0 58       		.uleb128 0x58
 9984 02d1 0B       		.uleb128 0xb
 9985 02d2 59       		.uleb128 0x59
 9986 02d3 0B       		.uleb128 0xb
 9987 02d4 01       		.uleb128 0x1
 9988 02d5 13       		.uleb128 0x13
ARM GAS  C:\Users\srich\AppData\Local\Temp\ccv3JVxh.s 			page 177


 9989 02d6 00       		.byte	0
 9990 02d7 00       		.byte	0
 9991 02d8 36       		.uleb128 0x36
 9992 02d9 05       		.uleb128 0x5
 9993 02da 00       		.byte	0
 9994 02db 31       		.uleb128 0x31
 9995 02dc 13       		.uleb128 0x13
 9996 02dd 1C       		.uleb128 0x1c
 9997 02de 0B       		.uleb128 0xb
 9998 02df 00       		.byte	0
 9999 02e0 00       		.byte	0
 10000 02e1 37       		.uleb128 0x37
 10001 02e2 05       		.uleb128 0x5
 10002 02e3 00       		.byte	0
 10003 02e4 31       		.uleb128 0x31
 10004 02e5 13       		.uleb128 0x13
 10005 02e6 02       		.uleb128 0x2
 10006 02e7 18       		.uleb128 0x18
 10007 02e8 00       		.byte	0
 10008 02e9 00       		.byte	0
 10009 02ea 38       		.uleb128 0x38
 10010 02eb 2E       		.uleb128 0x2e
 10011 02ec 01       		.byte	0x1
 10012 02ed 3F       		.uleb128 0x3f
 10013 02ee 19       		.uleb128 0x19
 10014 02ef 03       		.uleb128 0x3
 10015 02f0 0E       		.uleb128 0xe
 10016 02f1 3A       		.uleb128 0x3a
 10017 02f2 0B       		.uleb128 0xb
 10018 02f3 3B       		.uleb128 0x3b
 10019 02f4 0B       		.uleb128 0xb
 10020 02f5 11       		.uleb128 0x11
 10021 02f6 01       		.uleb128 0x1
 10022 02f7 12       		.uleb128 0x12
 10023 02f8 06       		.uleb128 0x6
 10024 02f9 40       		.uleb128 0x40
 10025 02fa 18       		.uleb128 0x18
 10026 02fb 9742     		.uleb128 0x2117
 10027 02fd 19       		.uleb128 0x19
 10028 02fe 01       		.uleb128 0x1
 10029 02ff 13       		.uleb128 0x13
 10030 0300 00       		.byte	0
 10031 0301 00       		.byte	0
 10032 0302 39       		.uleb128 0x39
 10033 0303 05       		.uleb128 0x5
 10034 0304 00       		.byte	0
 10035 0305 31       		.uleb128 0x31
 10036 0306 13       		.uleb128 0x13
 10037 0307 1C       		.uleb128 0x1c
 10038 0308 05       		.uleb128 0x5
 10039 0309 00       		.byte	0
 10040 030a 00       		.byte	0
 10041 030b 3A       		.uleb128 0x3a
 10042 030c 1D       		.uleb128 0x1d
 10043 030d 01       		.byte	0x1
 10044 030e 31       		.uleb128 0x31
 10045 030f 13       		.uleb128 0x13
ARM GAS  C:\Users\srich\AppData\Local\Temp\ccv3JVxh.s 			page 178


 10046 0310 52       		.uleb128 0x52
 10047 0311 01       		.uleb128 0x1
 10048 0312 55       		.uleb128 0x55
 10049 0313 17       		.uleb128 0x17
 10050 0314 58       		.uleb128 0x58
 10051 0315 0B       		.uleb128 0xb
 10052 0316 59       		.uleb128 0x59
 10053 0317 0B       		.uleb128 0xb
 10054 0318 01       		.uleb128 0x1
 10055 0319 13       		.uleb128 0x13
 10056 031a 00       		.byte	0
 10057 031b 00       		.byte	0
 10058 031c 3B       		.uleb128 0x3b
 10059 031d 34       		.uleb128 0x34
 10060 031e 00       		.byte	0
 10061 031f 03       		.uleb128 0x3
 10062 0320 0E       		.uleb128 0xe
 10063 0321 3A       		.uleb128 0x3a
 10064 0322 0B       		.uleb128 0xb
 10065 0323 3B       		.uleb128 0x3b
 10066 0324 0B       		.uleb128 0xb
 10067 0325 49       		.uleb128 0x49
 10068 0326 13       		.uleb128 0x13
 10069 0327 00       		.byte	0
 10070 0328 00       		.byte	0
 10071 0329 3C       		.uleb128 0x3c
 10072 032a 34       		.uleb128 0x34
 10073 032b 00       		.byte	0
 10074 032c 03       		.uleb128 0x3
 10075 032d 08       		.uleb128 0x8
 10076 032e 3A       		.uleb128 0x3a
 10077 032f 0B       		.uleb128 0xb
 10078 0330 3B       		.uleb128 0x3b
 10079 0331 05       		.uleb128 0x5
 10080 0332 49       		.uleb128 0x49
 10081 0333 13       		.uleb128 0x13
 10082 0334 02       		.uleb128 0x2
 10083 0335 17       		.uleb128 0x17
 10084 0336 00       		.byte	0
 10085 0337 00       		.byte	0
 10086 0338 3D       		.uleb128 0x3d
 10087 0339 0B       		.uleb128 0xb
 10088 033a 01       		.byte	0x1
 10089 033b 55       		.uleb128 0x55
 10090 033c 17       		.uleb128 0x17
 10091 033d 01       		.uleb128 0x1
 10092 033e 13       		.uleb128 0x13
 10093 033f 00       		.byte	0
 10094 0340 00       		.byte	0
 10095 0341 3E       		.uleb128 0x3e
 10096 0342 2E       		.uleb128 0x2e
 10097 0343 01       		.byte	0x1
 10098 0344 3F       		.uleb128 0x3f
 10099 0345 19       		.uleb128 0x19
 10100 0346 03       		.uleb128 0x3
 10101 0347 0E       		.uleb128 0xe
 10102 0348 3A       		.uleb128 0x3a
ARM GAS  C:\Users\srich\AppData\Local\Temp\ccv3JVxh.s 			page 179


 10103 0349 0B       		.uleb128 0xb
 10104 034a 3B       		.uleb128 0x3b
 10105 034b 05       		.uleb128 0x5
 10106 034c 11       		.uleb128 0x11
 10107 034d 01       		.uleb128 0x1
 10108 034e 12       		.uleb128 0x12
 10109 034f 06       		.uleb128 0x6
 10110 0350 40       		.uleb128 0x40
 10111 0351 18       		.uleb128 0x18
 10112 0352 9742     		.uleb128 0x2117
 10113 0354 19       		.uleb128 0x19
 10114 0355 01       		.uleb128 0x1
 10115 0356 13       		.uleb128 0x13
 10116 0357 00       		.byte	0
 10117 0358 00       		.byte	0
 10118 0359 3F       		.uleb128 0x3f
 10119 035a 2E       		.uleb128 0x2e
 10120 035b 01       		.byte	0x1
 10121 035c 3F       		.uleb128 0x3f
 10122 035d 19       		.uleb128 0x19
 10123 035e 03       		.uleb128 0x3
 10124 035f 0E       		.uleb128 0xe
 10125 0360 3A       		.uleb128 0x3a
 10126 0361 0B       		.uleb128 0xb
 10127 0362 3B       		.uleb128 0x3b
 10128 0363 05       		.uleb128 0x5
 10129 0364 49       		.uleb128 0x49
 10130 0365 13       		.uleb128 0x13
 10131 0366 3C       		.uleb128 0x3c
 10132 0367 19       		.uleb128 0x19
 10133 0368 01       		.uleb128 0x1
 10134 0369 13       		.uleb128 0x13
 10135 036a 00       		.byte	0
 10136 036b 00       		.byte	0
 10137 036c 40       		.uleb128 0x40
 10138 036d 2E       		.uleb128 0x2e
 10139 036e 01       		.byte	0x1
 10140 036f 3F       		.uleb128 0x3f
 10141 0370 19       		.uleb128 0x19
 10142 0371 03       		.uleb128 0x3
 10143 0372 0E       		.uleb128 0xe
 10144 0373 3A       		.uleb128 0x3a
 10145 0374 0B       		.uleb128 0xb
 10146 0375 3B       		.uleb128 0x3b
 10147 0376 05       		.uleb128 0x5
 10148 0377 11       		.uleb128 0x11
 10149 0378 01       		.uleb128 0x1
 10150 0379 12       		.uleb128 0x12
 10151 037a 06       		.uleb128 0x6
 10152 037b 40       		.uleb128 0x40
 10153 037c 18       		.uleb128 0x18
 10154 037d 9642     		.uleb128 0x2116
 10155 037f 19       		.uleb128 0x19
 10156 0380 01       		.uleb128 0x1
 10157 0381 13       		.uleb128 0x13
 10158 0382 00       		.byte	0
 10159 0383 00       		.byte	0
ARM GAS  C:\Users\srich\AppData\Local\Temp\ccv3JVxh.s 			page 180


 10160 0384 41       		.uleb128 0x41
 10161 0385 34       		.uleb128 0x34
 10162 0386 00       		.byte	0
 10163 0387 03       		.uleb128 0x3
 10164 0388 0E       		.uleb128 0xe
 10165 0389 3A       		.uleb128 0x3a
 10166 038a 0B       		.uleb128 0xb
 10167 038b 3B       		.uleb128 0x3b
 10168 038c 05       		.uleb128 0x5
 10169 038d 49       		.uleb128 0x49
 10170 038e 13       		.uleb128 0x13
 10171 038f 00       		.byte	0
 10172 0390 00       		.byte	0
 10173 0391 42       		.uleb128 0x42
 10174 0392 1D       		.uleb128 0x1d
 10175 0393 01       		.byte	0x1
 10176 0394 31       		.uleb128 0x31
 10177 0395 13       		.uleb128 0x13
 10178 0396 11       		.uleb128 0x11
 10179 0397 01       		.uleb128 0x1
 10180 0398 12       		.uleb128 0x12
 10181 0399 06       		.uleb128 0x6
 10182 039a 58       		.uleb128 0x58
 10183 039b 0B       		.uleb128 0xb
 10184 039c 59       		.uleb128 0x59
 10185 039d 05       		.uleb128 0x5
 10186 039e 01       		.uleb128 0x1
 10187 039f 13       		.uleb128 0x13
 10188 03a0 00       		.byte	0
 10189 03a1 00       		.byte	0
 10190 03a2 43       		.uleb128 0x43
 10191 03a3 2E       		.uleb128 0x2e
 10192 03a4 00       		.byte	0
 10193 03a5 3F       		.uleb128 0x3f
 10194 03a6 19       		.uleb128 0x19
 10195 03a7 03       		.uleb128 0x3
 10196 03a8 0E       		.uleb128 0xe
 10197 03a9 3A       		.uleb128 0x3a
 10198 03aa 0B       		.uleb128 0xb
 10199 03ab 3B       		.uleb128 0x3b
 10200 03ac 05       		.uleb128 0x5
 10201 03ad 27       		.uleb128 0x27
 10202 03ae 19       		.uleb128 0x19
 10203 03af 49       		.uleb128 0x49
 10204 03b0 13       		.uleb128 0x13
 10205 03b1 11       		.uleb128 0x11
 10206 03b2 01       		.uleb128 0x1
 10207 03b3 12       		.uleb128 0x12
 10208 03b4 06       		.uleb128 0x6
 10209 03b5 40       		.uleb128 0x40
 10210 03b6 18       		.uleb128 0x18
 10211 03b7 9742     		.uleb128 0x2117
 10212 03b9 19       		.uleb128 0x19
 10213 03ba 00       		.byte	0
 10214 03bb 00       		.byte	0
 10215 03bc 44       		.uleb128 0x44
 10216 03bd 2E       		.uleb128 0x2e
ARM GAS  C:\Users\srich\AppData\Local\Temp\ccv3JVxh.s 			page 181


 10217 03be 01       		.byte	0x1
 10218 03bf 3F       		.uleb128 0x3f
 10219 03c0 19       		.uleb128 0x19
 10220 03c1 03       		.uleb128 0x3
 10221 03c2 0E       		.uleb128 0xe
 10222 03c3 3A       		.uleb128 0x3a
 10223 03c4 0B       		.uleb128 0xb
 10224 03c5 3B       		.uleb128 0x3b
 10225 03c6 05       		.uleb128 0x5
 10226 03c7 27       		.uleb128 0x27
 10227 03c8 19       		.uleb128 0x19
 10228 03c9 20       		.uleb128 0x20
 10229 03ca 0B       		.uleb128 0xb
 10230 03cb 01       		.uleb128 0x1
 10231 03cc 13       		.uleb128 0x13
 10232 03cd 00       		.byte	0
 10233 03ce 00       		.byte	0
 10234 03cf 45       		.uleb128 0x45
 10235 03d0 05       		.uleb128 0x5
 10236 03d1 00       		.byte	0
 10237 03d2 03       		.uleb128 0x3
 10238 03d3 0E       		.uleb128 0xe
 10239 03d4 3A       		.uleb128 0x3a
 10240 03d5 0B       		.uleb128 0xb
 10241 03d6 3B       		.uleb128 0x3b
 10242 03d7 05       		.uleb128 0x5
 10243 03d8 49       		.uleb128 0x49
 10244 03d9 13       		.uleb128 0x13
 10245 03da 00       		.byte	0
 10246 03db 00       		.byte	0
 10247 03dc 46       		.uleb128 0x46
 10248 03dd 0B       		.uleb128 0xb
 10249 03de 01       		.byte	0x1
 10250 03df 00       		.byte	0
 10251 03e0 00       		.byte	0
 10252 03e1 47       		.uleb128 0x47
 10253 03e2 0B       		.uleb128 0xb
 10254 03e3 01       		.byte	0x1
 10255 03e4 11       		.uleb128 0x11
 10256 03e5 01       		.uleb128 0x1
 10257 03e6 12       		.uleb128 0x12
 10258 03e7 06       		.uleb128 0x6
 10259 03e8 01       		.uleb128 0x1
 10260 03e9 13       		.uleb128 0x13
 10261 03ea 00       		.byte	0
 10262 03eb 00       		.byte	0
 10263 03ec 48       		.uleb128 0x48
 10264 03ed 34       		.uleb128 0x34
 10265 03ee 00       		.byte	0
 10266 03ef 31       		.uleb128 0x31
 10267 03f0 13       		.uleb128 0x13
 10268 03f1 02       		.uleb128 0x2
 10269 03f2 17       		.uleb128 0x17
 10270 03f3 00       		.byte	0
 10271 03f4 00       		.byte	0
 10272 03f5 49       		.uleb128 0x49
 10273 03f6 898201   		.uleb128 0x4109
ARM GAS  C:\Users\srich\AppData\Local\Temp\ccv3JVxh.s 			page 182


 10274 03f9 00       		.byte	0
 10275 03fa 11       		.uleb128 0x11
 10276 03fb 01       		.uleb128 0x1
 10277 03fc 9542     		.uleb128 0x2115
 10278 03fe 19       		.uleb128 0x19
 10279 03ff 31       		.uleb128 0x31
 10280 0400 13       		.uleb128 0x13
 10281 0401 00       		.byte	0
 10282 0402 00       		.byte	0
 10283 0403 4A       		.uleb128 0x4a
 10284 0404 2E       		.uleb128 0x2e
 10285 0405 01       		.byte	0x1
 10286 0406 3F       		.uleb128 0x3f
 10287 0407 19       		.uleb128 0x19
 10288 0408 03       		.uleb128 0x3
 10289 0409 0E       		.uleb128 0xe
 10290 040a 3A       		.uleb128 0x3a
 10291 040b 0B       		.uleb128 0xb
 10292 040c 3B       		.uleb128 0x3b
 10293 040d 05       		.uleb128 0x5
 10294 040e 27       		.uleb128 0x27
 10295 040f 19       		.uleb128 0x19
 10296 0410 11       		.uleb128 0x11
 10297 0411 01       		.uleb128 0x1
 10298 0412 12       		.uleb128 0x12
 10299 0413 06       		.uleb128 0x6
 10300 0414 40       		.uleb128 0x40
 10301 0415 18       		.uleb128 0x18
 10302 0416 9742     		.uleb128 0x2117
 10303 0418 19       		.uleb128 0x19
 10304 0419 01       		.uleb128 0x1
 10305 041a 13       		.uleb128 0x13
 10306 041b 00       		.byte	0
 10307 041c 00       		.byte	0
 10308 041d 4B       		.uleb128 0x4b
 10309 041e 05       		.uleb128 0x5
 10310 041f 00       		.byte	0
 10311 0420 03       		.uleb128 0x3
 10312 0421 0E       		.uleb128 0xe
 10313 0422 3A       		.uleb128 0x3a
 10314 0423 0B       		.uleb128 0xb
 10315 0424 3B       		.uleb128 0x3b
 10316 0425 05       		.uleb128 0x5
 10317 0426 49       		.uleb128 0x49
 10318 0427 13       		.uleb128 0x13
 10319 0428 02       		.uleb128 0x2
 10320 0429 17       		.uleb128 0x17
 10321 042a 00       		.byte	0
 10322 042b 00       		.byte	0
 10323 042c 4C       		.uleb128 0x4c
 10324 042d 34       		.uleb128 0x34
 10325 042e 00       		.byte	0
 10326 042f 03       		.uleb128 0x3
 10327 0430 0E       		.uleb128 0xe
 10328 0431 3A       		.uleb128 0x3a
 10329 0432 0B       		.uleb128 0xb
 10330 0433 3B       		.uleb128 0x3b
ARM GAS  C:\Users\srich\AppData\Local\Temp\ccv3JVxh.s 			page 183


 10331 0434 05       		.uleb128 0x5
 10332 0435 49       		.uleb128 0x49
 10333 0436 13       		.uleb128 0x13
 10334 0437 1C       		.uleb128 0x1c
 10335 0438 0B       		.uleb128 0xb
 10336 0439 00       		.byte	0
 10337 043a 00       		.byte	0
 10338 043b 4D       		.uleb128 0x4d
 10339 043c 898201   		.uleb128 0x4109
 10340 043f 01       		.byte	0x1
 10341 0440 11       		.uleb128 0x11
 10342 0441 01       		.uleb128 0x1
 10343 0442 00       		.byte	0
 10344 0443 00       		.byte	0
 10345 0444 4E       		.uleb128 0x4e
 10346 0445 34       		.uleb128 0x34
 10347 0446 00       		.byte	0
 10348 0447 03       		.uleb128 0x3
 10349 0448 0E       		.uleb128 0xe
 10350 0449 3A       		.uleb128 0x3a
 10351 044a 0B       		.uleb128 0xb
 10352 044b 3B       		.uleb128 0x3b
 10353 044c 0B       		.uleb128 0xb
 10354 044d 49       		.uleb128 0x49
 10355 044e 13       		.uleb128 0x13
 10356 044f 02       		.uleb128 0x2
 10357 0450 18       		.uleb128 0x18
 10358 0451 00       		.byte	0
 10359 0452 00       		.byte	0
 10360 0453 4F       		.uleb128 0x4f
 10361 0454 34       		.uleb128 0x34
 10362 0455 00       		.byte	0
 10363 0456 03       		.uleb128 0x3
 10364 0457 0E       		.uleb128 0xe
 10365 0458 3A       		.uleb128 0x3a
 10366 0459 0B       		.uleb128 0xb
 10367 045a 3B       		.uleb128 0x3b
 10368 045b 0B       		.uleb128 0xb
 10369 045c 49       		.uleb128 0x49
 10370 045d 13       		.uleb128 0x13
 10371 045e 3F       		.uleb128 0x3f
 10372 045f 19       		.uleb128 0x19
 10373 0460 3C       		.uleb128 0x3c
 10374 0461 19       		.uleb128 0x19
 10375 0462 00       		.byte	0
 10376 0463 00       		.byte	0
 10377 0464 50       		.uleb128 0x50
 10378 0465 34       		.uleb128 0x34
 10379 0466 00       		.byte	0
 10380 0467 03       		.uleb128 0x3
 10381 0468 0E       		.uleb128 0xe
 10382 0469 3A       		.uleb128 0x3a
 10383 046a 0B       		.uleb128 0xb
 10384 046b 3B       		.uleb128 0x3b
 10385 046c 05       		.uleb128 0x5
 10386 046d 49       		.uleb128 0x49
 10387 046e 13       		.uleb128 0x13
ARM GAS  C:\Users\srich\AppData\Local\Temp\ccv3JVxh.s 			page 184


 10388 046f 3F       		.uleb128 0x3f
 10389 0470 19       		.uleb128 0x19
 10390 0471 3C       		.uleb128 0x3c
 10391 0472 19       		.uleb128 0x19
 10392 0473 00       		.byte	0
 10393 0474 00       		.byte	0
 10394 0475 51       		.uleb128 0x51
 10395 0476 34       		.uleb128 0x34
 10396 0477 00       		.byte	0
 10397 0478 03       		.uleb128 0x3
 10398 0479 08       		.uleb128 0x8
 10399 047a 3A       		.uleb128 0x3a
 10400 047b 0B       		.uleb128 0xb
 10401 047c 3B       		.uleb128 0x3b
 10402 047d 0B       		.uleb128 0xb
 10403 047e 49       		.uleb128 0x49
 10404 047f 13       		.uleb128 0x13
 10405 0480 3F       		.uleb128 0x3f
 10406 0481 19       		.uleb128 0x19
 10407 0482 02       		.uleb128 0x2
 10408 0483 18       		.uleb128 0x18
 10409 0484 00       		.byte	0
 10410 0485 00       		.byte	0
 10411 0486 52       		.uleb128 0x52
 10412 0487 2E       		.uleb128 0x2e
 10413 0488 00       		.byte	0
 10414 0489 3F       		.uleb128 0x3f
 10415 048a 19       		.uleb128 0x19
 10416 048b 03       		.uleb128 0x3
 10417 048c 0E       		.uleb128 0xe
 10418 048d 3A       		.uleb128 0x3a
 10419 048e 0B       		.uleb128 0xb
 10420 048f 3B       		.uleb128 0x3b
 10421 0490 0B       		.uleb128 0xb
 10422 0491 27       		.uleb128 0x27
 10423 0492 19       		.uleb128 0x19
 10424 0493 49       		.uleb128 0x49
 10425 0494 13       		.uleb128 0x13
 10426 0495 3C       		.uleb128 0x3c
 10427 0496 19       		.uleb128 0x19
 10428 0497 00       		.byte	0
 10429 0498 00       		.byte	0
 10430 0499 53       		.uleb128 0x53
 10431 049a 2E       		.uleb128 0x2e
 10432 049b 01       		.byte	0x1
 10433 049c 3F       		.uleb128 0x3f
 10434 049d 19       		.uleb128 0x19
 10435 049e 03       		.uleb128 0x3
 10436 049f 0E       		.uleb128 0xe
 10437 04a0 3A       		.uleb128 0x3a
 10438 04a1 0B       		.uleb128 0xb
 10439 04a2 3B       		.uleb128 0x3b
 10440 04a3 05       		.uleb128 0x5
 10441 04a4 27       		.uleb128 0x27
 10442 04a5 19       		.uleb128 0x19
 10443 04a6 3C       		.uleb128 0x3c
 10444 04a7 19       		.uleb128 0x19
ARM GAS  C:\Users\srich\AppData\Local\Temp\ccv3JVxh.s 			page 185


 10445 04a8 01       		.uleb128 0x1
 10446 04a9 13       		.uleb128 0x13
 10447 04aa 00       		.byte	0
 10448 04ab 00       		.byte	0
 10449 04ac 54       		.uleb128 0x54
 10450 04ad 2E       		.uleb128 0x2e
 10451 04ae 01       		.byte	0x1
 10452 04af 3F       		.uleb128 0x3f
 10453 04b0 19       		.uleb128 0x19
 10454 04b1 03       		.uleb128 0x3
 10455 04b2 0E       		.uleb128 0xe
 10456 04b3 3A       		.uleb128 0x3a
 10457 04b4 0B       		.uleb128 0xb
 10458 04b5 3B       		.uleb128 0x3b
 10459 04b6 0B       		.uleb128 0xb
 10460 04b7 27       		.uleb128 0x27
 10461 04b8 19       		.uleb128 0x19
 10462 04b9 3C       		.uleb128 0x3c
 10463 04ba 19       		.uleb128 0x19
 10464 04bb 01       		.uleb128 0x1
 10465 04bc 13       		.uleb128 0x13
 10466 04bd 00       		.byte	0
 10467 04be 00       		.byte	0
 10468 04bf 55       		.uleb128 0x55
 10469 04c0 2E       		.uleb128 0x2e
 10470 04c1 01       		.byte	0x1
 10471 04c2 3F       		.uleb128 0x3f
 10472 04c3 19       		.uleb128 0x19
 10473 04c4 03       		.uleb128 0x3
 10474 04c5 0E       		.uleb128 0xe
 10475 04c6 3A       		.uleb128 0x3a
 10476 04c7 0B       		.uleb128 0xb
 10477 04c8 3B       		.uleb128 0x3b
 10478 04c9 0B       		.uleb128 0xb
 10479 04ca 27       		.uleb128 0x27
 10480 04cb 19       		.uleb128 0x19
 10481 04cc 49       		.uleb128 0x49
 10482 04cd 13       		.uleb128 0x13
 10483 04ce 3C       		.uleb128 0x3c
 10484 04cf 19       		.uleb128 0x19
 10485 04d0 01       		.uleb128 0x1
 10486 04d1 13       		.uleb128 0x13
 10487 04d2 00       		.byte	0
 10488 04d3 00       		.byte	0
 10489 04d4 56       		.uleb128 0x56
 10490 04d5 2E       		.uleb128 0x2e
 10491 04d6 01       		.byte	0x1
 10492 04d7 3F       		.uleb128 0x3f
 10493 04d8 19       		.uleb128 0x19
 10494 04d9 03       		.uleb128 0x3
 10495 04da 0E       		.uleb128 0xe
 10496 04db 3A       		.uleb128 0x3a
 10497 04dc 0B       		.uleb128 0xb
 10498 04dd 3B       		.uleb128 0x3b
 10499 04de 0B       		.uleb128 0xb
 10500 04df 49       		.uleb128 0x49
 10501 04e0 13       		.uleb128 0x13
ARM GAS  C:\Users\srich\AppData\Local\Temp\ccv3JVxh.s 			page 186


 10502 04e1 3C       		.uleb128 0x3c
 10503 04e2 19       		.uleb128 0x19
 10504 04e3 01       		.uleb128 0x1
 10505 04e4 13       		.uleb128 0x13
 10506 04e5 00       		.byte	0
 10507 04e6 00       		.byte	0
 10508 04e7 57       		.uleb128 0x57
 10509 04e8 2E       		.uleb128 0x2e
 10510 04e9 01       		.byte	0x1
 10511 04ea 3F       		.uleb128 0x3f
 10512 04eb 19       		.uleb128 0x19
 10513 04ec 03       		.uleb128 0x3
 10514 04ed 0E       		.uleb128 0xe
 10515 04ee 3A       		.uleb128 0x3a
 10516 04ef 0B       		.uleb128 0xb
 10517 04f0 3B       		.uleb128 0x3b
 10518 04f1 0B       		.uleb128 0xb
 10519 04f2 3C       		.uleb128 0x3c
 10520 04f3 19       		.uleb128 0x19
 10521 04f4 01       		.uleb128 0x1
 10522 04f5 13       		.uleb128 0x13
 10523 04f6 00       		.byte	0
 10524 04f7 00       		.byte	0
 10525 04f8 58       		.uleb128 0x58
 10526 04f9 2E       		.uleb128 0x2e
 10527 04fa 01       		.byte	0x1
 10528 04fb 3F       		.uleb128 0x3f
 10529 04fc 19       		.uleb128 0x19
 10530 04fd 03       		.uleb128 0x3
 10531 04fe 0E       		.uleb128 0xe
 10532 04ff 3A       		.uleb128 0x3a
 10533 0500 0B       		.uleb128 0xb
 10534 0501 3B       		.uleb128 0x3b
 10535 0502 05       		.uleb128 0x5
 10536 0503 27       		.uleb128 0x27
 10537 0504 19       		.uleb128 0x19
 10538 0505 49       		.uleb128 0x49
 10539 0506 13       		.uleb128 0x13
 10540 0507 3C       		.uleb128 0x3c
 10541 0508 19       		.uleb128 0x19
 10542 0509 00       		.byte	0
 10543 050a 00       		.byte	0
 10544 050b 00       		.byte	0
 10545              		.section	.debug_loc,"",%progbits
 10546              	.Ldebug_loc0:
 10547              	.LLST0:
 10548 0000 00000000 		.4byte	.LVL0
 10549 0004 10000000 		.4byte	.LVL2
 10550 0008 0100     		.2byte	0x1
 10551 000a 50       		.byte	0x50
 10552 000b 10000000 		.4byte	.LVL2
 10553 000f 34000000 		.4byte	.LFE132
 10554 0013 0400     		.2byte	0x4
 10555 0015 F3       		.byte	0xf3
 10556 0016 01       		.uleb128 0x1
 10557 0017 50       		.byte	0x50
 10558 0018 9F       		.byte	0x9f
ARM GAS  C:\Users\srich\AppData\Local\Temp\ccv3JVxh.s 			page 187


 10559 0019 00000000 		.4byte	0
 10560 001d 00000000 		.4byte	0
 10561              	.LLST1:
 10562 0021 16000000 		.4byte	.LVL4
 10563 0025 1C000000 		.4byte	.LVL5
 10564 0029 0100     		.2byte	0x1
 10565 002b 50       		.byte	0x50
 10566 002c 00000000 		.4byte	0
 10567 0030 00000000 		.4byte	0
 10568              	.LLST2:
 10569 0034 00000000 		.4byte	.LVL7
 10570 0038 11000000 		.4byte	.LVL8-1
 10571 003c 0100     		.2byte	0x1
 10572 003e 50       		.byte	0x50
 10573 003f 11000000 		.4byte	.LVL8-1
 10574 0043 1C000000 		.4byte	.LFE118
 10575 0047 0400     		.2byte	0x4
 10576 0049 F3       		.byte	0xf3
 10577 004a 01       		.uleb128 0x1
 10578 004b 50       		.byte	0x50
 10579 004c 9F       		.byte	0x9f
 10580 004d 00000000 		.4byte	0
 10581 0051 00000000 		.4byte	0
 10582              	.LLST3:
 10583 0055 00000000 		.4byte	.LVL9
 10584 0059 0A000000 		.4byte	.LVL11
 10585 005d 0100     		.2byte	0x1
 10586 005f 50       		.byte	0x50
 10587 0060 0A000000 		.4byte	.LVL11
 10588 0064 0D000000 		.4byte	.LVL12-1
 10589 0068 0100     		.2byte	0x1
 10590 006a 51       		.byte	0x51
 10591 006b 0D000000 		.4byte	.LVL12-1
 10592 006f 1A000000 		.4byte	.LFE119
 10593 0073 0400     		.2byte	0x4
 10594 0075 F3       		.byte	0xf3
 10595 0076 01       		.uleb128 0x1
 10596 0077 50       		.byte	0x50
 10597 0078 9F       		.byte	0x9f
 10598 0079 00000000 		.4byte	0
 10599 007d 00000000 		.4byte	0
 10600              	.LLST4:
 10601 0081 00000000 		.4byte	.LVL9
 10602 0085 08000000 		.4byte	.LVL10
 10603 0089 0100     		.2byte	0x1
 10604 008b 51       		.byte	0x51
 10605 008c 08000000 		.4byte	.LVL10
 10606 0090 16000000 		.4byte	.LVL13
 10607 0094 0100     		.2byte	0x1
 10608 0096 55       		.byte	0x55
 10609 0097 16000000 		.4byte	.LVL13
 10610 009b 19000000 		.4byte	.LVL14-1
 10611 009f 0100     		.2byte	0x1
 10612 00a1 50       		.byte	0x50
 10613 00a2 19000000 		.4byte	.LVL14-1
 10614 00a6 1A000000 		.4byte	.LFE119
 10615 00aa 0400     		.2byte	0x4
ARM GAS  C:\Users\srich\AppData\Local\Temp\ccv3JVxh.s 			page 188


 10616 00ac F3       		.byte	0xf3
 10617 00ad 01       		.uleb128 0x1
 10618 00ae 51       		.byte	0x51
 10619 00af 9F       		.byte	0x9f
 10620 00b0 00000000 		.4byte	0
 10621 00b4 00000000 		.4byte	0
 10622              	.LLST5:
 10623 00b8 00000000 		.4byte	.LVL9
 10624 00bc 0D000000 		.4byte	.LVL12-1
 10625 00c0 0100     		.2byte	0x1
 10626 00c2 52       		.byte	0x52
 10627 00c3 0D000000 		.4byte	.LVL12-1
 10628 00c7 16000000 		.4byte	.LVL13
 10629 00cb 0100     		.2byte	0x1
 10630 00cd 54       		.byte	0x54
 10631 00ce 16000000 		.4byte	.LVL13
 10632 00d2 19000000 		.4byte	.LVL14-1
 10633 00d6 0100     		.2byte	0x1
 10634 00d8 51       		.byte	0x51
 10635 00d9 19000000 		.4byte	.LVL14-1
 10636 00dd 1A000000 		.4byte	.LFE119
 10637 00e1 0400     		.2byte	0x4
 10638 00e3 F3       		.byte	0xf3
 10639 00e4 01       		.uleb128 0x1
 10640 00e5 52       		.byte	0x52
 10641 00e6 9F       		.byte	0x9f
 10642 00e7 00000000 		.4byte	0
 10643 00eb 00000000 		.4byte	0
 10644              	.LLST6:
 10645 00ef 00000000 		.4byte	.LVL15
 10646 00f3 0C000000 		.4byte	.LVL17
 10647 00f7 0100     		.2byte	0x1
 10648 00f9 50       		.byte	0x50
 10649 00fa 0C000000 		.4byte	.LVL17
 10650 00fe 0F000000 		.4byte	.LVL18-1
 10651 0102 0100     		.2byte	0x1
 10652 0104 51       		.byte	0x51
 10653 0105 0F000000 		.4byte	.LVL18-1
 10654 0109 1E000000 		.4byte	.LFE120
 10655 010d 0400     		.2byte	0x4
 10656 010f F3       		.byte	0xf3
 10657 0110 01       		.uleb128 0x1
 10658 0111 50       		.byte	0x50
 10659 0112 9F       		.byte	0x9f
 10660 0113 00000000 		.4byte	0
 10661 0117 00000000 		.4byte	0
 10662              	.LLST7:
 10663 011b 00000000 		.4byte	.LVL15
 10664 011f 0A000000 		.4byte	.LVL16
 10665 0123 0100     		.2byte	0x1
 10666 0125 51       		.byte	0x51
 10667 0126 0A000000 		.4byte	.LVL16
 10668 012a 1A000000 		.4byte	.LVL19
 10669 012e 0100     		.2byte	0x1
 10670 0130 56       		.byte	0x56
 10671 0131 1A000000 		.4byte	.LVL19
 10672 0135 1D000000 		.4byte	.LVL20-1
ARM GAS  C:\Users\srich\AppData\Local\Temp\ccv3JVxh.s 			page 189


 10673 0139 0100     		.2byte	0x1
 10674 013b 50       		.byte	0x50
 10675 013c 1D000000 		.4byte	.LVL20-1
 10676 0140 1E000000 		.4byte	.LFE120
 10677 0144 0400     		.2byte	0x4
 10678 0146 F3       		.byte	0xf3
 10679 0147 01       		.uleb128 0x1
 10680 0148 51       		.byte	0x51
 10681 0149 9F       		.byte	0x9f
 10682 014a 00000000 		.4byte	0
 10683 014e 00000000 		.4byte	0
 10684              	.LLST8:
 10685 0152 00000000 		.4byte	.LVL15
 10686 0156 0F000000 		.4byte	.LVL18-1
 10687 015a 0100     		.2byte	0x1
 10688 015c 52       		.byte	0x52
 10689 015d 0F000000 		.4byte	.LVL18-1
 10690 0161 1A000000 		.4byte	.LVL19
 10691 0165 0100     		.2byte	0x1
 10692 0167 55       		.byte	0x55
 10693 0168 1A000000 		.4byte	.LVL19
 10694 016c 1D000000 		.4byte	.LVL20-1
 10695 0170 0100     		.2byte	0x1
 10696 0172 51       		.byte	0x51
 10697 0173 1D000000 		.4byte	.LVL20-1
 10698 0177 1E000000 		.4byte	.LFE120
 10699 017b 0400     		.2byte	0x4
 10700 017d F3       		.byte	0xf3
 10701 017e 01       		.uleb128 0x1
 10702 017f 52       		.byte	0x52
 10703 0180 9F       		.byte	0x9f
 10704 0181 00000000 		.4byte	0
 10705 0185 00000000 		.4byte	0
 10706              	.LLST9:
 10707 0189 00000000 		.4byte	.LVL15
 10708 018d 0F000000 		.4byte	.LVL18-1
 10709 0191 0100     		.2byte	0x1
 10710 0193 53       		.byte	0x53
 10711 0194 0F000000 		.4byte	.LVL18-1
 10712 0198 1A000000 		.4byte	.LVL19
 10713 019c 0100     		.2byte	0x1
 10714 019e 54       		.byte	0x54
 10715 019f 1A000000 		.4byte	.LVL19
 10716 01a3 1D000000 		.4byte	.LVL20-1
 10717 01a7 0100     		.2byte	0x1
 10718 01a9 52       		.byte	0x52
 10719 01aa 1D000000 		.4byte	.LVL20-1
 10720 01ae 1E000000 		.4byte	.LFE120
 10721 01b2 0400     		.2byte	0x4
 10722 01b4 F3       		.byte	0xf3
 10723 01b5 01       		.uleb128 0x1
 10724 01b6 53       		.byte	0x53
 10725 01b7 9F       		.byte	0x9f
 10726 01b8 00000000 		.4byte	0
 10727 01bc 00000000 		.4byte	0
 10728              	.LLST10:
 10729 01c0 00000000 		.4byte	.LVL21
ARM GAS  C:\Users\srich\AppData\Local\Temp\ccv3JVxh.s 			page 190


 10730 01c4 18000000 		.4byte	.LVL23
 10731 01c8 0100     		.2byte	0x1
 10732 01ca 50       		.byte	0x50
 10733 01cb 18000000 		.4byte	.LVL23
 10734 01cf 34000000 		.4byte	.LVL26
 10735 01d3 0100     		.2byte	0x1
 10736 01d5 50       		.byte	0x50
 10737 01d6 34000000 		.4byte	.LVL26
 10738 01da 3E000000 		.4byte	.LVL28
 10739 01de 0900     		.2byte	0x9
 10740 01e0 72       		.byte	0x72
 10741 01e1 00       		.sleb128 0
 10742 01e2 09       		.byte	0x9
 10743 01e3 F6       		.byte	0xf6
 10744 01e4 1E       		.byte	0x1e
 10745 01e5 70       		.byte	0x70
 10746 01e6 00       		.sleb128 0
 10747 01e7 22       		.byte	0x22
 10748 01e8 9F       		.byte	0x9f
 10749 01e9 3E000000 		.4byte	.LVL28
 10750 01ed 4C000000 		.4byte	.LVL31
 10751 01f1 0100     		.2byte	0x1
 10752 01f3 50       		.byte	0x50
 10753 01f4 4C000000 		.4byte	.LVL31
 10754 01f8 5E000000 		.4byte	.LVL34
 10755 01fc 3000     		.2byte	0x30
 10756 01fe 72       		.byte	0x72
 10757 01ff 00       		.sleb128 0
 10758 0200 09       		.byte	0x9
 10759 0201 F6       		.byte	0xf6
 10760 0202 1E       		.byte	0x1e
 10761 0203 74       		.byte	0x74
 10762 0204 00       		.sleb128 0
 10763 0205 09       		.byte	0x9
 10764 0206 9C       		.byte	0x9c
 10765 0207 1E       		.byte	0x1e
 10766 0208 F3       		.byte	0xf3
 10767 0209 01       		.uleb128 0x1
 10768 020a 50       		.byte	0x50
 10769 020b F7       		.byte	0xf7
 10770 020c 33       		.uleb128 0x33
 10771 020d F7       		.byte	0xf7
 10772 020e 25       		.uleb128 0x25
 10773 020f 0C       		.byte	0xc
 10774 0210 D34D6210 		.4byte	0x10624dd3
 10775 0214 F7       		.byte	0xf7
 10776 0215 25       		.uleb128 0x25
 10777 0216 1E       		.byte	0x1e
 10778 0217 08       		.byte	0x8
 10779 0218 20       		.byte	0x20
 10780 0219 F7       		.byte	0xf7
 10781 021a 25       		.uleb128 0x25
 10782 021b 25       		.byte	0x25
 10783 021c F7       		.byte	0xf7
 10784 021d 2C       		.uleb128 0x2c
 10785 021e 36       		.byte	0x36
 10786 021f 26       		.byte	0x26
ARM GAS  C:\Users\srich\AppData\Local\Temp\ccv3JVxh.s 			page 191


 10787 0220 76       		.byte	0x76
 10788 0221 00       		.sleb128 0
 10789 0222 1C       		.byte	0x1c
 10790 0223 0B       		.byte	0xb
 10791 0224 18FC     		.2byte	0xfc18
 10792 0226 1E       		.byte	0x1e
 10793 0227 F3       		.byte	0xf3
 10794 0228 01       		.uleb128 0x1
 10795 0229 50       		.byte	0x50
 10796 022a 22       		.byte	0x22
 10797 022b 22       		.byte	0x22
 10798 022c 22       		.byte	0x22
 10799 022d 9F       		.byte	0x9f
 10800 022e 5E000000 		.4byte	.LVL34
 10801 0232 60000000 		.4byte	.LVL35
 10802 0236 9500     		.2byte	0x95
 10803 0238 72       		.byte	0x72
 10804 0239 00       		.sleb128 0
 10805 023a 09       		.byte	0x9
 10806 023b F6       		.byte	0xf6
 10807 023c 1E       		.byte	0x1e
 10808 023d F3       		.byte	0xf3
 10809 023e 01       		.uleb128 0x1
 10810 023f 50       		.byte	0x50
 10811 0240 F7       		.byte	0xf7
 10812 0241 33       		.uleb128 0x33
 10813 0242 F7       		.byte	0xf7
 10814 0243 25       		.uleb128 0x25
 10815 0244 0C       		.byte	0xc
 10816 0245 D34D6210 		.4byte	0x10624dd3
 10817 0249 F7       		.byte	0xf7
 10818 024a 25       		.uleb128 0x25
 10819 024b 1E       		.byte	0x1e
 10820 024c 08       		.byte	0x8
 10821 024d 20       		.byte	0x20
 10822 024e F7       		.byte	0xf7
 10823 024f 25       		.uleb128 0x25
 10824 0250 25       		.byte	0x25
 10825 0251 F7       		.byte	0xf7
 10826 0252 2C       		.uleb128 0x2c
 10827 0253 36       		.byte	0x36
 10828 0254 26       		.byte	0x26
 10829 0255 F3       		.byte	0xf3
 10830 0256 01       		.uleb128 0x1
 10831 0257 50       		.byte	0x50
 10832 0258 4F       		.byte	0x4f
 10833 0259 26       		.byte	0x26
 10834 025a 1C       		.byte	0x1c
 10835 025b 0B       		.byte	0xb
 10836 025c 18FC     		.2byte	0xfc18
 10837 025e 1E       		.byte	0x1e
 10838 025f F3       		.byte	0xf3
 10839 0260 01       		.uleb128 0x1
 10840 0261 50       		.byte	0x50
 10841 0262 22       		.byte	0x22
 10842 0263 F7       		.byte	0xf7
 10843 0264 33       		.uleb128 0x33
ARM GAS  C:\Users\srich\AppData\Local\Temp\ccv3JVxh.s 			page 192


 10844 0265 F7       		.byte	0xf7
 10845 0266 25       		.uleb128 0x25
 10846 0267 0C       		.byte	0xc
 10847 0268 1F85EB51 		.4byte	0x51eb851f
 10848 026c F7       		.byte	0xf7
 10849 026d 25       		.uleb128 0x25
 10850 026e 1E       		.byte	0x1e
 10851 026f 08       		.byte	0x8
 10852 0270 20       		.byte	0x20
 10853 0271 F7       		.byte	0xf7
 10854 0272 25       		.uleb128 0x25
 10855 0273 25       		.byte	0x25
 10856 0274 F7       		.byte	0xf7
 10857 0275 2C       		.uleb128 0x2c
 10858 0276 35       		.byte	0x35
 10859 0277 26       		.byte	0x26
 10860 0278 F3       		.byte	0xf3
 10861 0279 01       		.uleb128 0x1
 10862 027a 50       		.byte	0x50
 10863 027b F7       		.byte	0xf7
 10864 027c 33       		.uleb128 0x33
 10865 027d F7       		.byte	0xf7
 10866 027e 25       		.uleb128 0x25
 10867 027f 0C       		.byte	0xc
 10868 0280 D34D6210 		.4byte	0x10624dd3
 10869 0284 F7       		.byte	0xf7
 10870 0285 25       		.uleb128 0x25
 10871 0286 1E       		.byte	0x1e
 10872 0287 08       		.byte	0x8
 10873 0288 20       		.byte	0x20
 10874 0289 F7       		.byte	0xf7
 10875 028a 25       		.uleb128 0x25
 10876 028b 25       		.byte	0x25
 10877 028c F7       		.byte	0xf7
 10878 028d 2C       		.uleb128 0x2c
 10879 028e 36       		.byte	0x36
 10880 028f 26       		.byte	0x26
 10881 0290 F3       		.byte	0xf3
 10882 0291 01       		.uleb128 0x1
 10883 0292 50       		.byte	0x50
 10884 0293 4F       		.byte	0x4f
 10885 0294 26       		.byte	0x26
 10886 0295 1C       		.byte	0x1c
 10887 0296 0B       		.byte	0xb
 10888 0297 18FC     		.2byte	0xfc18
 10889 0299 1E       		.byte	0x1e
 10890 029a F3       		.byte	0xf3
 10891 029b 01       		.uleb128 0x1
 10892 029c 50       		.byte	0x50
 10893 029d 22       		.byte	0x22
 10894 029e 4F       		.byte	0x4f
 10895 029f 26       		.byte	0x26
 10896 02a0 1C       		.byte	0x1c
 10897 02a1 09       		.byte	0x9
 10898 02a2 9C       		.byte	0x9c
 10899 02a3 1E       		.byte	0x1e
 10900 02a4 F3       		.byte	0xf3
ARM GAS  C:\Users\srich\AppData\Local\Temp\ccv3JVxh.s 			page 193


 10901 02a5 01       		.uleb128 0x1
 10902 02a6 50       		.byte	0x50
 10903 02a7 F7       		.byte	0xf7
 10904 02a8 33       		.uleb128 0x33
 10905 02a9 F7       		.byte	0xf7
 10906 02aa 25       		.uleb128 0x25
 10907 02ab 0C       		.byte	0xc
 10908 02ac D34D6210 		.4byte	0x10624dd3
 10909 02b0 F7       		.byte	0xf7
 10910 02b1 25       		.uleb128 0x25
 10911 02b2 1E       		.byte	0x1e
 10912 02b3 08       		.byte	0x8
 10913 02b4 20       		.byte	0x20
 10914 02b5 F7       		.byte	0xf7
 10915 02b6 25       		.uleb128 0x25
 10916 02b7 25       		.byte	0x25
 10917 02b8 F7       		.byte	0xf7
 10918 02b9 2C       		.uleb128 0x2c
 10919 02ba 36       		.byte	0x36
 10920 02bb 26       		.byte	0x26
 10921 02bc F3       		.byte	0xf3
 10922 02bd 01       		.uleb128 0x1
 10923 02be 50       		.byte	0x50
 10924 02bf 4F       		.byte	0x4f
 10925 02c0 26       		.byte	0x26
 10926 02c1 1C       		.byte	0x1c
 10927 02c2 0B       		.byte	0xb
 10928 02c3 18FC     		.2byte	0xfc18
 10929 02c5 1E       		.byte	0x1e
 10930 02c6 F3       		.byte	0xf3
 10931 02c7 01       		.uleb128 0x1
 10932 02c8 50       		.byte	0x50
 10933 02c9 22       		.byte	0x22
 10934 02ca 22       		.byte	0x22
 10935 02cb 22       		.byte	0x22
 10936 02cc 9F       		.byte	0x9f
 10937 02cd 60000000 		.4byte	.LVL35
 10938 02d1 64000000 		.4byte	.LVL37
 10939 02d5 3000     		.2byte	0x30
 10940 02d7 72       		.byte	0x72
 10941 02d8 00       		.sleb128 0
 10942 02d9 09       		.byte	0x9
 10943 02da F6       		.byte	0xf6
 10944 02db 1E       		.byte	0x1e
 10945 02dc 74       		.byte	0x74
 10946 02dd 00       		.sleb128 0
 10947 02de 09       		.byte	0x9
 10948 02df 9C       		.byte	0x9c
 10949 02e0 1E       		.byte	0x1e
 10950 02e1 F3       		.byte	0xf3
 10951 02e2 01       		.uleb128 0x1
 10952 02e3 50       		.byte	0x50
 10953 02e4 F7       		.byte	0xf7
 10954 02e5 33       		.uleb128 0x33
 10955 02e6 F7       		.byte	0xf7
 10956 02e7 25       		.uleb128 0x25
 10957 02e8 0C       		.byte	0xc
ARM GAS  C:\Users\srich\AppData\Local\Temp\ccv3JVxh.s 			page 194


 10958 02e9 D34D6210 		.4byte	0x10624dd3
 10959 02ed F7       		.byte	0xf7
 10960 02ee 25       		.uleb128 0x25
 10961 02ef 1E       		.byte	0x1e
 10962 02f0 08       		.byte	0x8
 10963 02f1 20       		.byte	0x20
 10964 02f2 F7       		.byte	0xf7
 10965 02f3 25       		.uleb128 0x25
 10966 02f4 25       		.byte	0x25
 10967 02f5 F7       		.byte	0xf7
 10968 02f6 2C       		.uleb128 0x2c
 10969 02f7 36       		.byte	0x36
 10970 02f8 26       		.byte	0x26
 10971 02f9 76       		.byte	0x76
 10972 02fa 00       		.sleb128 0
 10973 02fb 1C       		.byte	0x1c
 10974 02fc 0B       		.byte	0xb
 10975 02fd 18FC     		.2byte	0xfc18
 10976 02ff 1E       		.byte	0x1e
 10977 0300 F3       		.byte	0xf3
 10978 0301 01       		.uleb128 0x1
 10979 0302 50       		.byte	0x50
 10980 0303 22       		.byte	0x22
 10981 0304 22       		.byte	0x22
 10982 0305 22       		.byte	0x22
 10983 0306 9F       		.byte	0x9f
 10984 0307 64000000 		.4byte	.LVL37
 10985 030b 66000000 		.4byte	.LVL38
 10986 030f 9500     		.2byte	0x95
 10987 0311 72       		.byte	0x72
 10988 0312 00       		.sleb128 0
 10989 0313 09       		.byte	0x9
 10990 0314 F6       		.byte	0xf6
 10991 0315 1E       		.byte	0x1e
 10992 0316 F3       		.byte	0xf3
 10993 0317 01       		.uleb128 0x1
 10994 0318 50       		.byte	0x50
 10995 0319 F7       		.byte	0xf7
 10996 031a 33       		.uleb128 0x33
 10997 031b F7       		.byte	0xf7
 10998 031c 25       		.uleb128 0x25
 10999 031d 0C       		.byte	0xc
 11000 031e D34D6210 		.4byte	0x10624dd3
 11001 0322 F7       		.byte	0xf7
 11002 0323 25       		.uleb128 0x25
 11003 0324 1E       		.byte	0x1e
 11004 0325 08       		.byte	0x8
 11005 0326 20       		.byte	0x20
 11006 0327 F7       		.byte	0xf7
 11007 0328 25       		.uleb128 0x25
 11008 0329 25       		.byte	0x25
 11009 032a F7       		.byte	0xf7
 11010 032b 2C       		.uleb128 0x2c
 11011 032c 36       		.byte	0x36
 11012 032d 26       		.byte	0x26
 11013 032e F3       		.byte	0xf3
 11014 032f 01       		.uleb128 0x1
ARM GAS  C:\Users\srich\AppData\Local\Temp\ccv3JVxh.s 			page 195


 11015 0330 50       		.byte	0x50
 11016 0331 4F       		.byte	0x4f
 11017 0332 26       		.byte	0x26
 11018 0333 1C       		.byte	0x1c
 11019 0334 0B       		.byte	0xb
 11020 0335 18FC     		.2byte	0xfc18
 11021 0337 1E       		.byte	0x1e
 11022 0338 F3       		.byte	0xf3
 11023 0339 01       		.uleb128 0x1
 11024 033a 50       		.byte	0x50
 11025 033b 22       		.byte	0x22
 11026 033c F7       		.byte	0xf7
 11027 033d 33       		.uleb128 0x33
 11028 033e F7       		.byte	0xf7
 11029 033f 25       		.uleb128 0x25
 11030 0340 0C       		.byte	0xc
 11031 0341 1F85EB51 		.4byte	0x51eb851f
 11032 0345 F7       		.byte	0xf7
 11033 0346 25       		.uleb128 0x25
 11034 0347 1E       		.byte	0x1e
 11035 0348 08       		.byte	0x8
 11036 0349 20       		.byte	0x20
 11037 034a F7       		.byte	0xf7
 11038 034b 25       		.uleb128 0x25
 11039 034c 25       		.byte	0x25
 11040 034d F7       		.byte	0xf7
 11041 034e 2C       		.uleb128 0x2c
 11042 034f 35       		.byte	0x35
 11043 0350 26       		.byte	0x26
 11044 0351 F3       		.byte	0xf3
 11045 0352 01       		.uleb128 0x1
 11046 0353 50       		.byte	0x50
 11047 0354 F7       		.byte	0xf7
 11048 0355 33       		.uleb128 0x33
 11049 0356 F7       		.byte	0xf7
 11050 0357 25       		.uleb128 0x25
 11051 0358 0C       		.byte	0xc
 11052 0359 D34D6210 		.4byte	0x10624dd3
 11053 035d F7       		.byte	0xf7
 11054 035e 25       		.uleb128 0x25
 11055 035f 1E       		.byte	0x1e
 11056 0360 08       		.byte	0x8
 11057 0361 20       		.byte	0x20
 11058 0362 F7       		.byte	0xf7
 11059 0363 25       		.uleb128 0x25
 11060 0364 25       		.byte	0x25
 11061 0365 F7       		.byte	0xf7
 11062 0366 2C       		.uleb128 0x2c
 11063 0367 36       		.byte	0x36
 11064 0368 26       		.byte	0x26
 11065 0369 F3       		.byte	0xf3
 11066 036a 01       		.uleb128 0x1
 11067 036b 50       		.byte	0x50
 11068 036c 4F       		.byte	0x4f
 11069 036d 26       		.byte	0x26
 11070 036e 1C       		.byte	0x1c
 11071 036f 0B       		.byte	0xb
ARM GAS  C:\Users\srich\AppData\Local\Temp\ccv3JVxh.s 			page 196


 11072 0370 18FC     		.2byte	0xfc18
 11073 0372 1E       		.byte	0x1e
 11074 0373 F3       		.byte	0xf3
 11075 0374 01       		.uleb128 0x1
 11076 0375 50       		.byte	0x50
 11077 0376 22       		.byte	0x22
 11078 0377 4F       		.byte	0x4f
 11079 0378 26       		.byte	0x26
 11080 0379 1C       		.byte	0x1c
 11081 037a 09       		.byte	0x9
 11082 037b 9C       		.byte	0x9c
 11083 037c 1E       		.byte	0x1e
 11084 037d F3       		.byte	0xf3
 11085 037e 01       		.uleb128 0x1
 11086 037f 50       		.byte	0x50
 11087 0380 F7       		.byte	0xf7
 11088 0381 33       		.uleb128 0x33
 11089 0382 F7       		.byte	0xf7
 11090 0383 25       		.uleb128 0x25
 11091 0384 0C       		.byte	0xc
 11092 0385 D34D6210 		.4byte	0x10624dd3
 11093 0389 F7       		.byte	0xf7
 11094 038a 25       		.uleb128 0x25
 11095 038b 1E       		.byte	0x1e
 11096 038c 08       		.byte	0x8
 11097 038d 20       		.byte	0x20
 11098 038e F7       		.byte	0xf7
 11099 038f 25       		.uleb128 0x25
 11100 0390 25       		.byte	0x25
 11101 0391 F7       		.byte	0xf7
 11102 0392 2C       		.uleb128 0x2c
 11103 0393 36       		.byte	0x36
 11104 0394 26       		.byte	0x26
 11105 0395 F3       		.byte	0xf3
 11106 0396 01       		.uleb128 0x1
 11107 0397 50       		.byte	0x50
 11108 0398 4F       		.byte	0x4f
 11109 0399 26       		.byte	0x26
 11110 039a 1C       		.byte	0x1c
 11111 039b 0B       		.byte	0xb
 11112 039c 18FC     		.2byte	0xfc18
 11113 039e 1E       		.byte	0x1e
 11114 039f F3       		.byte	0xf3
 11115 03a0 01       		.uleb128 0x1
 11116 03a1 50       		.byte	0x50
 11117 03a2 22       		.byte	0x22
 11118 03a3 22       		.byte	0x22
 11119 03a4 22       		.byte	0x22
 11120 03a5 9F       		.byte	0x9f
 11121 03a6 66000000 		.4byte	.LVL38
 11122 03aa 68000000 		.4byte	.LVL39
 11123 03ae 0100     		.2byte	0x1
 11124 03b0 50       		.byte	0x50
 11125 03b1 68000000 		.4byte	.LVL39
 11126 03b5 7C000000 		.4byte	.LFE121
 11127 03b9 3000     		.2byte	0x30
 11128 03bb 72       		.byte	0x72
ARM GAS  C:\Users\srich\AppData\Local\Temp\ccv3JVxh.s 			page 197


 11129 03bc 00       		.sleb128 0
 11130 03bd 09       		.byte	0x9
 11131 03be F6       		.byte	0xf6
 11132 03bf 1E       		.byte	0x1e
 11133 03c0 74       		.byte	0x74
 11134 03c1 00       		.sleb128 0
 11135 03c2 09       		.byte	0x9
 11136 03c3 9C       		.byte	0x9c
 11137 03c4 1E       		.byte	0x1e
 11138 03c5 F3       		.byte	0xf3
 11139 03c6 01       		.uleb128 0x1
 11140 03c7 50       		.byte	0x50
 11141 03c8 F7       		.byte	0xf7
 11142 03c9 33       		.uleb128 0x33
 11143 03ca F7       		.byte	0xf7
 11144 03cb 25       		.uleb128 0x25
 11145 03cc 0C       		.byte	0xc
 11146 03cd D34D6210 		.4byte	0x10624dd3
 11147 03d1 F7       		.byte	0xf7
 11148 03d2 25       		.uleb128 0x25
 11149 03d3 1E       		.byte	0x1e
 11150 03d4 08       		.byte	0x8
 11151 03d5 20       		.byte	0x20
 11152 03d6 F7       		.byte	0xf7
 11153 03d7 25       		.uleb128 0x25
 11154 03d8 25       		.byte	0x25
 11155 03d9 F7       		.byte	0xf7
 11156 03da 2C       		.uleb128 0x2c
 11157 03db 36       		.byte	0x36
 11158 03dc 26       		.byte	0x26
 11159 03dd 76       		.byte	0x76
 11160 03de 00       		.sleb128 0
 11161 03df 1C       		.byte	0x1c
 11162 03e0 0B       		.byte	0xb
 11163 03e1 18FC     		.2byte	0xfc18
 11164 03e3 1E       		.byte	0x1e
 11165 03e4 F3       		.byte	0xf3
 11166 03e5 01       		.uleb128 0x1
 11167 03e6 50       		.byte	0x50
 11168 03e7 22       		.byte	0x22
 11169 03e8 22       		.byte	0x22
 11170 03e9 22       		.byte	0x22
 11171 03ea 9F       		.byte	0x9f
 11172 03eb 00000000 		.4byte	0
 11173 03ef 00000000 		.4byte	0
 11174              	.LLST11:
 11175 03f3 00000000 		.4byte	.LVL21
 11176 03f7 4A000000 		.4byte	.LVL30
 11177 03fb 0100     		.2byte	0x1
 11178 03fd 51       		.byte	0x51
 11179 03fe 4A000000 		.4byte	.LVL30
 11180 0402 4C000000 		.4byte	.LVL31
 11181 0406 0300     		.2byte	0x3
 11182 0408 71       		.byte	0x71
 11183 0409 7D       		.sleb128 -3
 11184 040a 9F       		.byte	0x9f
 11185 040b 4C000000 		.4byte	.LVL31
ARM GAS  C:\Users\srich\AppData\Local\Temp\ccv3JVxh.s 			page 198


 11186 040f 66000000 		.4byte	.LVL38
 11187 0413 0400     		.2byte	0x4
 11188 0415 F3       		.byte	0xf3
 11189 0416 01       		.uleb128 0x1
 11190 0417 51       		.byte	0x51
 11191 0418 9F       		.byte	0x9f
 11192 0419 66000000 		.4byte	.LVL38
 11193 041d 7C000000 		.4byte	.LFE121
 11194 0421 0100     		.2byte	0x1
 11195 0423 51       		.byte	0x51
 11196 0424 00000000 		.4byte	0
 11197 0428 00000000 		.4byte	0
 11198              	.LLST12:
 11199 042c 00000000 		.4byte	.LVL21
 11200 0430 14000000 		.4byte	.LVL22
 11201 0434 0200     		.2byte	0x2
 11202 0436 30       		.byte	0x30
 11203 0437 9F       		.byte	0x9f
 11204 0438 14000000 		.4byte	.LVL22
 11205 043c 3A000000 		.4byte	.LVL27
 11206 0440 0100     		.2byte	0x1
 11207 0442 53       		.byte	0x53
 11208 0443 3A000000 		.4byte	.LVL27
 11209 0447 5E000000 		.4byte	.LVL34
 11210 044b 1C00     		.2byte	0x1c
 11211 044d F3       		.byte	0xf3
 11212 044e 01       		.uleb128 0x1
 11213 044f 50       		.byte	0x50
 11214 0450 F7       		.byte	0xf7
 11215 0451 33       		.uleb128 0x33
 11216 0452 F7       		.byte	0xf7
 11217 0453 25       		.uleb128 0x25
 11218 0454 0C       		.byte	0xc
 11219 0455 D34D6210 		.4byte	0x10624dd3
 11220 0459 F7       		.byte	0xf7
 11221 045a 25       		.uleb128 0x25
 11222 045b 1E       		.byte	0x1e
 11223 045c 08       		.byte	0x8
 11224 045d 20       		.byte	0x20
 11225 045e F7       		.byte	0xf7
 11226 045f 25       		.uleb128 0x25
 11227 0460 25       		.byte	0x25
 11228 0461 F7       		.byte	0xf7
 11229 0462 2C       		.uleb128 0x2c
 11230 0463 36       		.byte	0x36
 11231 0464 26       		.byte	0x26
 11232 0465 76       		.byte	0x76
 11233 0466 00       		.sleb128 0
 11234 0467 1C       		.byte	0x1c
 11235 0468 9F       		.byte	0x9f
 11236 0469 5E000000 		.4byte	.LVL34
 11237 046d 60000000 		.4byte	.LVL35
 11238 0471 1F00     		.2byte	0x1f
 11239 0473 F3       		.byte	0xf3
 11240 0474 01       		.uleb128 0x1
 11241 0475 50       		.byte	0x50
 11242 0476 F7       		.byte	0xf7
ARM GAS  C:\Users\srich\AppData\Local\Temp\ccv3JVxh.s 			page 199


 11243 0477 33       		.uleb128 0x33
 11244 0478 F7       		.byte	0xf7
 11245 0479 25       		.uleb128 0x25
 11246 047a 0C       		.byte	0xc
 11247 047b D34D6210 		.4byte	0x10624dd3
 11248 047f F7       		.byte	0xf7
 11249 0480 25       		.uleb128 0x25
 11250 0481 1E       		.byte	0x1e
 11251 0482 08       		.byte	0x8
 11252 0483 20       		.byte	0x20
 11253 0484 F7       		.byte	0xf7
 11254 0485 25       		.uleb128 0x25
 11255 0486 25       		.byte	0x25
 11256 0487 F7       		.byte	0xf7
 11257 0488 2C       		.uleb128 0x2c
 11258 0489 36       		.byte	0x36
 11259 048a 26       		.byte	0x26
 11260 048b F3       		.byte	0xf3
 11261 048c 01       		.uleb128 0x1
 11262 048d 50       		.byte	0x50
 11263 048e 4F       		.byte	0x4f
 11264 048f 26       		.byte	0x26
 11265 0490 1C       		.byte	0x1c
 11266 0491 9F       		.byte	0x9f
 11267 0492 60000000 		.4byte	.LVL35
 11268 0496 64000000 		.4byte	.LVL37
 11269 049a 1C00     		.2byte	0x1c
 11270 049c F3       		.byte	0xf3
 11271 049d 01       		.uleb128 0x1
 11272 049e 50       		.byte	0x50
 11273 049f F7       		.byte	0xf7
 11274 04a0 33       		.uleb128 0x33
 11275 04a1 F7       		.byte	0xf7
 11276 04a2 25       		.uleb128 0x25
 11277 04a3 0C       		.byte	0xc
 11278 04a4 D34D6210 		.4byte	0x10624dd3
 11279 04a8 F7       		.byte	0xf7
 11280 04a9 25       		.uleb128 0x25
 11281 04aa 1E       		.byte	0x1e
 11282 04ab 08       		.byte	0x8
 11283 04ac 20       		.byte	0x20
 11284 04ad F7       		.byte	0xf7
 11285 04ae 25       		.uleb128 0x25
 11286 04af 25       		.byte	0x25
 11287 04b0 F7       		.byte	0xf7
 11288 04b1 2C       		.uleb128 0x2c
 11289 04b2 36       		.byte	0x36
 11290 04b3 26       		.byte	0x26
 11291 04b4 76       		.byte	0x76
 11292 04b5 00       		.sleb128 0
 11293 04b6 1C       		.byte	0x1c
 11294 04b7 9F       		.byte	0x9f
 11295 04b8 64000000 		.4byte	.LVL37
 11296 04bc 66000000 		.4byte	.LVL38
 11297 04c0 1F00     		.2byte	0x1f
 11298 04c2 F3       		.byte	0xf3
 11299 04c3 01       		.uleb128 0x1
ARM GAS  C:\Users\srich\AppData\Local\Temp\ccv3JVxh.s 			page 200


 11300 04c4 50       		.byte	0x50
 11301 04c5 F7       		.byte	0xf7
 11302 04c6 33       		.uleb128 0x33
 11303 04c7 F7       		.byte	0xf7
 11304 04c8 25       		.uleb128 0x25
 11305 04c9 0C       		.byte	0xc
 11306 04ca D34D6210 		.4byte	0x10624dd3
 11307 04ce F7       		.byte	0xf7
 11308 04cf 25       		.uleb128 0x25
 11309 04d0 1E       		.byte	0x1e
 11310 04d1 08       		.byte	0x8
 11311 04d2 20       		.byte	0x20
 11312 04d3 F7       		.byte	0xf7
 11313 04d4 25       		.uleb128 0x25
 11314 04d5 25       		.byte	0x25
 11315 04d6 F7       		.byte	0xf7
 11316 04d7 2C       		.uleb128 0x2c
 11317 04d8 36       		.byte	0x36
 11318 04d9 26       		.byte	0x26
 11319 04da F3       		.byte	0xf3
 11320 04db 01       		.uleb128 0x1
 11321 04dc 50       		.byte	0x50
 11322 04dd 4F       		.byte	0x4f
 11323 04de 26       		.byte	0x26
 11324 04df 1C       		.byte	0x1c
 11325 04e0 9F       		.byte	0x9f
 11326 04e1 66000000 		.4byte	.LVL38
 11327 04e5 7C000000 		.4byte	.LFE121
 11328 04e9 1C00     		.2byte	0x1c
 11329 04eb F3       		.byte	0xf3
 11330 04ec 01       		.uleb128 0x1
 11331 04ed 50       		.byte	0x50
 11332 04ee F7       		.byte	0xf7
 11333 04ef 33       		.uleb128 0x33
 11334 04f0 F7       		.byte	0xf7
 11335 04f1 25       		.uleb128 0x25
 11336 04f2 0C       		.byte	0xc
 11337 04f3 D34D6210 		.4byte	0x10624dd3
 11338 04f7 F7       		.byte	0xf7
 11339 04f8 25       		.uleb128 0x25
 11340 04f9 1E       		.byte	0x1e
 11341 04fa 08       		.byte	0x8
 11342 04fb 20       		.byte	0x20
 11343 04fc F7       		.byte	0xf7
 11344 04fd 25       		.uleb128 0x25
 11345 04fe 25       		.byte	0x25
 11346 04ff F7       		.byte	0xf7
 11347 0500 2C       		.uleb128 0x2c
 11348 0501 36       		.byte	0x36
 11349 0502 26       		.byte	0x26
 11350 0503 76       		.byte	0x76
 11351 0504 00       		.sleb128 0
 11352 0505 1C       		.byte	0x1c
 11353 0506 9F       		.byte	0x9f
 11354 0507 00000000 		.4byte	0
 11355 050b 00000000 		.4byte	0
 11356              	.LLST13:
ARM GAS  C:\Users\srich\AppData\Local\Temp\ccv3JVxh.s 			page 201


 11357 050f 00000000 		.4byte	.LVL21
 11358 0513 22000000 		.4byte	.LVL24
 11359 0517 0200     		.2byte	0x2
 11360 0519 30       		.byte	0x30
 11361 051a 9F       		.byte	0x9f
 11362 051b 22000000 		.4byte	.LVL24
 11363 051f 5E000000 		.4byte	.LVL34
 11364 0523 0100     		.2byte	0x1
 11365 0525 54       		.byte	0x54
 11366 0526 5E000000 		.4byte	.LVL34
 11367 052a 60000000 		.4byte	.LVL35
 11368 052e 6500     		.2byte	0x65
 11369 0530 F3       		.byte	0xf3
 11370 0531 01       		.uleb128 0x1
 11371 0532 50       		.byte	0x50
 11372 0533 F7       		.byte	0xf7
 11373 0534 33       		.uleb128 0x33
 11374 0535 F7       		.byte	0xf7
 11375 0536 25       		.uleb128 0x25
 11376 0537 0C       		.byte	0xc
 11377 0538 D34D6210 		.4byte	0x10624dd3
 11378 053c F7       		.byte	0xf7
 11379 053d 25       		.uleb128 0x25
 11380 053e 1E       		.byte	0x1e
 11381 053f 08       		.byte	0x8
 11382 0540 20       		.byte	0x20
 11383 0541 F7       		.byte	0xf7
 11384 0542 25       		.uleb128 0x25
 11385 0543 25       		.byte	0x25
 11386 0544 F7       		.byte	0xf7
 11387 0545 2C       		.uleb128 0x2c
 11388 0546 36       		.byte	0x36
 11389 0547 26       		.byte	0x26
 11390 0548 F3       		.byte	0xf3
 11391 0549 01       		.uleb128 0x1
 11392 054a 50       		.byte	0x50
 11393 054b 4F       		.byte	0x4f
 11394 054c 26       		.byte	0x26
 11395 054d 1C       		.byte	0x1c
 11396 054e 0B       		.byte	0xb
 11397 054f 18FC     		.2byte	0xfc18
 11398 0551 1E       		.byte	0x1e
 11399 0552 F3       		.byte	0xf3
 11400 0553 01       		.uleb128 0x1
 11401 0554 50       		.byte	0x50
 11402 0555 22       		.byte	0x22
 11403 0556 F7       		.byte	0xf7
 11404 0557 33       		.uleb128 0x33
 11405 0558 F7       		.byte	0xf7
 11406 0559 25       		.uleb128 0x25
 11407 055a 0C       		.byte	0xc
 11408 055b 1F85EB51 		.4byte	0x51eb851f
 11409 055f F7       		.byte	0xf7
 11410 0560 25       		.uleb128 0x25
 11411 0561 1E       		.byte	0x1e
 11412 0562 08       		.byte	0x8
 11413 0563 20       		.byte	0x20
ARM GAS  C:\Users\srich\AppData\Local\Temp\ccv3JVxh.s 			page 202


 11414 0564 F7       		.byte	0xf7
 11415 0565 25       		.uleb128 0x25
 11416 0566 25       		.byte	0x25
 11417 0567 F7       		.byte	0xf7
 11418 0568 2C       		.uleb128 0x2c
 11419 0569 35       		.byte	0x35
 11420 056a 26       		.byte	0x26
 11421 056b F3       		.byte	0xf3
 11422 056c 01       		.uleb128 0x1
 11423 056d 50       		.byte	0x50
 11424 056e F7       		.byte	0xf7
 11425 056f 33       		.uleb128 0x33
 11426 0570 F7       		.byte	0xf7
 11427 0571 25       		.uleb128 0x25
 11428 0572 0C       		.byte	0xc
 11429 0573 D34D6210 		.4byte	0x10624dd3
 11430 0577 F7       		.byte	0xf7
 11431 0578 25       		.uleb128 0x25
 11432 0579 1E       		.byte	0x1e
 11433 057a 08       		.byte	0x8
 11434 057b 20       		.byte	0x20
 11435 057c F7       		.byte	0xf7
 11436 057d 25       		.uleb128 0x25
 11437 057e 25       		.byte	0x25
 11438 057f F7       		.byte	0xf7
 11439 0580 2C       		.uleb128 0x2c
 11440 0581 36       		.byte	0x36
 11441 0582 26       		.byte	0x26
 11442 0583 F3       		.byte	0xf3
 11443 0584 01       		.uleb128 0x1
 11444 0585 50       		.byte	0x50
 11445 0586 4F       		.byte	0x4f
 11446 0587 26       		.byte	0x26
 11447 0588 1C       		.byte	0x1c
 11448 0589 0B       		.byte	0xb
 11449 058a 18FC     		.2byte	0xfc18
 11450 058c 1E       		.byte	0x1e
 11451 058d F3       		.byte	0xf3
 11452 058e 01       		.uleb128 0x1
 11453 058f 50       		.byte	0x50
 11454 0590 22       		.byte	0x22
 11455 0591 4F       		.byte	0x4f
 11456 0592 26       		.byte	0x26
 11457 0593 1C       		.byte	0x1c
 11458 0594 9F       		.byte	0x9f
 11459 0595 60000000 		.4byte	.LVL35
 11460 0599 64000000 		.4byte	.LVL37
 11461 059d 0100     		.2byte	0x1
 11462 059f 54       		.byte	0x54
 11463 05a0 64000000 		.4byte	.LVL37
 11464 05a4 66000000 		.4byte	.LVL38
 11465 05a8 6500     		.2byte	0x65
 11466 05aa F3       		.byte	0xf3
 11467 05ab 01       		.uleb128 0x1
 11468 05ac 50       		.byte	0x50
 11469 05ad F7       		.byte	0xf7
 11470 05ae 33       		.uleb128 0x33
ARM GAS  C:\Users\srich\AppData\Local\Temp\ccv3JVxh.s 			page 203


 11471 05af F7       		.byte	0xf7
 11472 05b0 25       		.uleb128 0x25
 11473 05b1 0C       		.byte	0xc
 11474 05b2 D34D6210 		.4byte	0x10624dd3
 11475 05b6 F7       		.byte	0xf7
 11476 05b7 25       		.uleb128 0x25
 11477 05b8 1E       		.byte	0x1e
 11478 05b9 08       		.byte	0x8
 11479 05ba 20       		.byte	0x20
 11480 05bb F7       		.byte	0xf7
 11481 05bc 25       		.uleb128 0x25
 11482 05bd 25       		.byte	0x25
 11483 05be F7       		.byte	0xf7
 11484 05bf 2C       		.uleb128 0x2c
 11485 05c0 36       		.byte	0x36
 11486 05c1 26       		.byte	0x26
 11487 05c2 F3       		.byte	0xf3
 11488 05c3 01       		.uleb128 0x1
 11489 05c4 50       		.byte	0x50
 11490 05c5 4F       		.byte	0x4f
 11491 05c6 26       		.byte	0x26
 11492 05c7 1C       		.byte	0x1c
 11493 05c8 0B       		.byte	0xb
 11494 05c9 18FC     		.2byte	0xfc18
 11495 05cb 1E       		.byte	0x1e
 11496 05cc F3       		.byte	0xf3
 11497 05cd 01       		.uleb128 0x1
 11498 05ce 50       		.byte	0x50
 11499 05cf 22       		.byte	0x22
 11500 05d0 F7       		.byte	0xf7
 11501 05d1 33       		.uleb128 0x33
 11502 05d2 F7       		.byte	0xf7
 11503 05d3 25       		.uleb128 0x25
 11504 05d4 0C       		.byte	0xc
 11505 05d5 1F85EB51 		.4byte	0x51eb851f
 11506 05d9 F7       		.byte	0xf7
 11507 05da 25       		.uleb128 0x25
 11508 05db 1E       		.byte	0x1e
 11509 05dc 08       		.byte	0x8
 11510 05dd 20       		.byte	0x20
 11511 05de F7       		.byte	0xf7
 11512 05df 25       		.uleb128 0x25
 11513 05e0 25       		.byte	0x25
 11514 05e1 F7       		.byte	0xf7
 11515 05e2 2C       		.uleb128 0x2c
 11516 05e3 35       		.byte	0x35
 11517 05e4 26       		.byte	0x26
 11518 05e5 F3       		.byte	0xf3
 11519 05e6 01       		.uleb128 0x1
 11520 05e7 50       		.byte	0x50
 11521 05e8 F7       		.byte	0xf7
 11522 05e9 33       		.uleb128 0x33
 11523 05ea F7       		.byte	0xf7
 11524 05eb 25       		.uleb128 0x25
 11525 05ec 0C       		.byte	0xc
 11526 05ed D34D6210 		.4byte	0x10624dd3
 11527 05f1 F7       		.byte	0xf7
ARM GAS  C:\Users\srich\AppData\Local\Temp\ccv3JVxh.s 			page 204


 11528 05f2 25       		.uleb128 0x25
 11529 05f3 1E       		.byte	0x1e
 11530 05f4 08       		.byte	0x8
 11531 05f5 20       		.byte	0x20
 11532 05f6 F7       		.byte	0xf7
 11533 05f7 25       		.uleb128 0x25
 11534 05f8 25       		.byte	0x25
 11535 05f9 F7       		.byte	0xf7
 11536 05fa 2C       		.uleb128 0x2c
 11537 05fb 36       		.byte	0x36
 11538 05fc 26       		.byte	0x26
 11539 05fd F3       		.byte	0xf3
 11540 05fe 01       		.uleb128 0x1
 11541 05ff 50       		.byte	0x50
 11542 0600 4F       		.byte	0x4f
 11543 0601 26       		.byte	0x26
 11544 0602 1C       		.byte	0x1c
 11545 0603 0B       		.byte	0xb
 11546 0604 18FC     		.2byte	0xfc18
 11547 0606 1E       		.byte	0x1e
 11548 0607 F3       		.byte	0xf3
 11549 0608 01       		.uleb128 0x1
 11550 0609 50       		.byte	0x50
 11551 060a 22       		.byte	0x22
 11552 060b 4F       		.byte	0x4f
 11553 060c 26       		.byte	0x26
 11554 060d 1C       		.byte	0x1c
 11555 060e 9F       		.byte	0x9f
 11556 060f 66000000 		.4byte	.LVL38
 11557 0613 7C000000 		.4byte	.LFE121
 11558 0617 0100     		.2byte	0x1
 11559 0619 54       		.byte	0x54
 11560 061a 00000000 		.4byte	0
 11561 061e 00000000 		.4byte	0
 11562              	.LLST14:
 11563 0622 00000000 		.4byte	.LVL21
 11564 0626 34000000 		.4byte	.LVL26
 11565 062a 0200     		.2byte	0x2
 11566 062c 30       		.byte	0x30
 11567 062d 9F       		.byte	0x9f
 11568 062e 34000000 		.4byte	.LVL26
 11569 0632 7C000000 		.4byte	.LFE121
 11570 0636 0100     		.2byte	0x1
 11571 0638 52       		.byte	0x52
 11572 0639 00000000 		.4byte	0
 11573 063d 00000000 		.4byte	0
 11574              	.LLST15:
 11575 0641 00000000 		.4byte	.LVL21
 11576 0645 34000000 		.4byte	.LVL26
 11577 0649 0200     		.2byte	0x2
 11578 064b 30       		.byte	0x30
 11579 064c 9F       		.byte	0x9f
 11580 064d 34000000 		.4byte	.LVL26
 11581 0651 3E000000 		.4byte	.LVL28
 11582 0655 0900     		.2byte	0x9
 11583 0657 72       		.byte	0x72
 11584 0658 00       		.sleb128 0
ARM GAS  C:\Users\srich\AppData\Local\Temp\ccv3JVxh.s 			page 205


 11585 0659 09       		.byte	0x9
 11586 065a F6       		.byte	0xf6
 11587 065b 1E       		.byte	0x1e
 11588 065c 70       		.byte	0x70
 11589 065d 00       		.sleb128 0
 11590 065e 22       		.byte	0x22
 11591 065f 9F       		.byte	0x9f
 11592 0660 3E000000 		.4byte	.LVL28
 11593 0664 4C000000 		.4byte	.LVL31
 11594 0668 0100     		.2byte	0x1
 11595 066a 50       		.byte	0x50
 11596 066b 4C000000 		.4byte	.LVL31
 11597 066f 5E000000 		.4byte	.LVL34
 11598 0673 3000     		.2byte	0x30
 11599 0675 72       		.byte	0x72
 11600 0676 00       		.sleb128 0
 11601 0677 09       		.byte	0x9
 11602 0678 F6       		.byte	0xf6
 11603 0679 1E       		.byte	0x1e
 11604 067a 74       		.byte	0x74
 11605 067b 00       		.sleb128 0
 11606 067c 09       		.byte	0x9
 11607 067d 9C       		.byte	0x9c
 11608 067e 1E       		.byte	0x1e
 11609 067f F3       		.byte	0xf3
 11610 0680 01       		.uleb128 0x1
 11611 0681 50       		.byte	0x50
 11612 0682 F7       		.byte	0xf7
 11613 0683 33       		.uleb128 0x33
 11614 0684 F7       		.byte	0xf7
 11615 0685 25       		.uleb128 0x25
 11616 0686 0C       		.byte	0xc
 11617 0687 D34D6210 		.4byte	0x10624dd3
 11618 068b F7       		.byte	0xf7
 11619 068c 25       		.uleb128 0x25
 11620 068d 1E       		.byte	0x1e
 11621 068e 08       		.byte	0x8
 11622 068f 20       		.byte	0x20
 11623 0690 F7       		.byte	0xf7
 11624 0691 25       		.uleb128 0x25
 11625 0692 25       		.byte	0x25
 11626 0693 F7       		.byte	0xf7
 11627 0694 2C       		.uleb128 0x2c
 11628 0695 36       		.byte	0x36
 11629 0696 26       		.byte	0x26
 11630 0697 76       		.byte	0x76
 11631 0698 00       		.sleb128 0
 11632 0699 1C       		.byte	0x1c
 11633 069a 0B       		.byte	0xb
 11634 069b 18FC     		.2byte	0xfc18
 11635 069d 1E       		.byte	0x1e
 11636 069e F3       		.byte	0xf3
 11637 069f 01       		.uleb128 0x1
 11638 06a0 50       		.byte	0x50
 11639 06a1 22       		.byte	0x22
 11640 06a2 22       		.byte	0x22
 11641 06a3 22       		.byte	0x22
ARM GAS  C:\Users\srich\AppData\Local\Temp\ccv3JVxh.s 			page 206


 11642 06a4 9F       		.byte	0x9f
 11643 06a5 5E000000 		.4byte	.LVL34
 11644 06a9 60000000 		.4byte	.LVL35
 11645 06ad 9500     		.2byte	0x95
 11646 06af 72       		.byte	0x72
 11647 06b0 00       		.sleb128 0
 11648 06b1 09       		.byte	0x9
 11649 06b2 F6       		.byte	0xf6
 11650 06b3 1E       		.byte	0x1e
 11651 06b4 F3       		.byte	0xf3
 11652 06b5 01       		.uleb128 0x1
 11653 06b6 50       		.byte	0x50
 11654 06b7 F7       		.byte	0xf7
 11655 06b8 33       		.uleb128 0x33
 11656 06b9 F7       		.byte	0xf7
 11657 06ba 25       		.uleb128 0x25
 11658 06bb 0C       		.byte	0xc
 11659 06bc D34D6210 		.4byte	0x10624dd3
 11660 06c0 F7       		.byte	0xf7
 11661 06c1 25       		.uleb128 0x25
 11662 06c2 1E       		.byte	0x1e
 11663 06c3 08       		.byte	0x8
 11664 06c4 20       		.byte	0x20
 11665 06c5 F7       		.byte	0xf7
 11666 06c6 25       		.uleb128 0x25
 11667 06c7 25       		.byte	0x25
 11668 06c8 F7       		.byte	0xf7
 11669 06c9 2C       		.uleb128 0x2c
 11670 06ca 36       		.byte	0x36
 11671 06cb 26       		.byte	0x26
 11672 06cc F3       		.byte	0xf3
 11673 06cd 01       		.uleb128 0x1
 11674 06ce 50       		.byte	0x50
 11675 06cf 4F       		.byte	0x4f
 11676 06d0 26       		.byte	0x26
 11677 06d1 1C       		.byte	0x1c
 11678 06d2 0B       		.byte	0xb
 11679 06d3 18FC     		.2byte	0xfc18
 11680 06d5 1E       		.byte	0x1e
 11681 06d6 F3       		.byte	0xf3
 11682 06d7 01       		.uleb128 0x1
 11683 06d8 50       		.byte	0x50
 11684 06d9 22       		.byte	0x22
 11685 06da F7       		.byte	0xf7
 11686 06db 33       		.uleb128 0x33
 11687 06dc F7       		.byte	0xf7
 11688 06dd 25       		.uleb128 0x25
 11689 06de 0C       		.byte	0xc
 11690 06df 1F85EB51 		.4byte	0x51eb851f
 11691 06e3 F7       		.byte	0xf7
 11692 06e4 25       		.uleb128 0x25
 11693 06e5 1E       		.byte	0x1e
 11694 06e6 08       		.byte	0x8
 11695 06e7 20       		.byte	0x20
 11696 06e8 F7       		.byte	0xf7
 11697 06e9 25       		.uleb128 0x25
 11698 06ea 25       		.byte	0x25
ARM GAS  C:\Users\srich\AppData\Local\Temp\ccv3JVxh.s 			page 207


 11699 06eb F7       		.byte	0xf7
 11700 06ec 2C       		.uleb128 0x2c
 11701 06ed 35       		.byte	0x35
 11702 06ee 26       		.byte	0x26
 11703 06ef F3       		.byte	0xf3
 11704 06f0 01       		.uleb128 0x1
 11705 06f1 50       		.byte	0x50
 11706 06f2 F7       		.byte	0xf7
 11707 06f3 33       		.uleb128 0x33
 11708 06f4 F7       		.byte	0xf7
 11709 06f5 25       		.uleb128 0x25
 11710 06f6 0C       		.byte	0xc
 11711 06f7 D34D6210 		.4byte	0x10624dd3
 11712 06fb F7       		.byte	0xf7
 11713 06fc 25       		.uleb128 0x25
 11714 06fd 1E       		.byte	0x1e
 11715 06fe 08       		.byte	0x8
 11716 06ff 20       		.byte	0x20
 11717 0700 F7       		.byte	0xf7
 11718 0701 25       		.uleb128 0x25
 11719 0702 25       		.byte	0x25
 11720 0703 F7       		.byte	0xf7
 11721 0704 2C       		.uleb128 0x2c
 11722 0705 36       		.byte	0x36
 11723 0706 26       		.byte	0x26
 11724 0707 F3       		.byte	0xf3
 11725 0708 01       		.uleb128 0x1
 11726 0709 50       		.byte	0x50
 11727 070a 4F       		.byte	0x4f
 11728 070b 26       		.byte	0x26
 11729 070c 1C       		.byte	0x1c
 11730 070d 0B       		.byte	0xb
 11731 070e 18FC     		.2byte	0xfc18
 11732 0710 1E       		.byte	0x1e
 11733 0711 F3       		.byte	0xf3
 11734 0712 01       		.uleb128 0x1
 11735 0713 50       		.byte	0x50
 11736 0714 22       		.byte	0x22
 11737 0715 4F       		.byte	0x4f
 11738 0716 26       		.byte	0x26
 11739 0717 1C       		.byte	0x1c
 11740 0718 09       		.byte	0x9
 11741 0719 9C       		.byte	0x9c
 11742 071a 1E       		.byte	0x1e
 11743 071b F3       		.byte	0xf3
 11744 071c 01       		.uleb128 0x1
 11745 071d 50       		.byte	0x50
 11746 071e F7       		.byte	0xf7
 11747 071f 33       		.uleb128 0x33
 11748 0720 F7       		.byte	0xf7
 11749 0721 25       		.uleb128 0x25
 11750 0722 0C       		.byte	0xc
 11751 0723 D34D6210 		.4byte	0x10624dd3
 11752 0727 F7       		.byte	0xf7
 11753 0728 25       		.uleb128 0x25
 11754 0729 1E       		.byte	0x1e
 11755 072a 08       		.byte	0x8
ARM GAS  C:\Users\srich\AppData\Local\Temp\ccv3JVxh.s 			page 208


 11756 072b 20       		.byte	0x20
 11757 072c F7       		.byte	0xf7
 11758 072d 25       		.uleb128 0x25
 11759 072e 25       		.byte	0x25
 11760 072f F7       		.byte	0xf7
 11761 0730 2C       		.uleb128 0x2c
 11762 0731 36       		.byte	0x36
 11763 0732 26       		.byte	0x26
 11764 0733 F3       		.byte	0xf3
 11765 0734 01       		.uleb128 0x1
 11766 0735 50       		.byte	0x50
 11767 0736 4F       		.byte	0x4f
 11768 0737 26       		.byte	0x26
 11769 0738 1C       		.byte	0x1c
 11770 0739 0B       		.byte	0xb
 11771 073a 18FC     		.2byte	0xfc18
 11772 073c 1E       		.byte	0x1e
 11773 073d F3       		.byte	0xf3
 11774 073e 01       		.uleb128 0x1
 11775 073f 50       		.byte	0x50
 11776 0740 22       		.byte	0x22
 11777 0741 22       		.byte	0x22
 11778 0742 22       		.byte	0x22
 11779 0743 9F       		.byte	0x9f
 11780 0744 60000000 		.4byte	.LVL35
 11781 0748 64000000 		.4byte	.LVL37
 11782 074c 3000     		.2byte	0x30
 11783 074e 72       		.byte	0x72
 11784 074f 00       		.sleb128 0
 11785 0750 09       		.byte	0x9
 11786 0751 F6       		.byte	0xf6
 11787 0752 1E       		.byte	0x1e
 11788 0753 74       		.byte	0x74
 11789 0754 00       		.sleb128 0
 11790 0755 09       		.byte	0x9
 11791 0756 9C       		.byte	0x9c
 11792 0757 1E       		.byte	0x1e
 11793 0758 F3       		.byte	0xf3
 11794 0759 01       		.uleb128 0x1
 11795 075a 50       		.byte	0x50
 11796 075b F7       		.byte	0xf7
 11797 075c 33       		.uleb128 0x33
 11798 075d F7       		.byte	0xf7
 11799 075e 25       		.uleb128 0x25
 11800 075f 0C       		.byte	0xc
 11801 0760 D34D6210 		.4byte	0x10624dd3
 11802 0764 F7       		.byte	0xf7
 11803 0765 25       		.uleb128 0x25
 11804 0766 1E       		.byte	0x1e
 11805 0767 08       		.byte	0x8
 11806 0768 20       		.byte	0x20
 11807 0769 F7       		.byte	0xf7
 11808 076a 25       		.uleb128 0x25
 11809 076b 25       		.byte	0x25
 11810 076c F7       		.byte	0xf7
 11811 076d 2C       		.uleb128 0x2c
 11812 076e 36       		.byte	0x36
ARM GAS  C:\Users\srich\AppData\Local\Temp\ccv3JVxh.s 			page 209


 11813 076f 26       		.byte	0x26
 11814 0770 76       		.byte	0x76
 11815 0771 00       		.sleb128 0
 11816 0772 1C       		.byte	0x1c
 11817 0773 0B       		.byte	0xb
 11818 0774 18FC     		.2byte	0xfc18
 11819 0776 1E       		.byte	0x1e
 11820 0777 F3       		.byte	0xf3
 11821 0778 01       		.uleb128 0x1
 11822 0779 50       		.byte	0x50
 11823 077a 22       		.byte	0x22
 11824 077b 22       		.byte	0x22
 11825 077c 22       		.byte	0x22
 11826 077d 9F       		.byte	0x9f
 11827 077e 64000000 		.4byte	.LVL37
 11828 0782 66000000 		.4byte	.LVL38
 11829 0786 9500     		.2byte	0x95
 11830 0788 72       		.byte	0x72
 11831 0789 00       		.sleb128 0
 11832 078a 09       		.byte	0x9
 11833 078b F6       		.byte	0xf6
 11834 078c 1E       		.byte	0x1e
 11835 078d F3       		.byte	0xf3
 11836 078e 01       		.uleb128 0x1
 11837 078f 50       		.byte	0x50
 11838 0790 F7       		.byte	0xf7
 11839 0791 33       		.uleb128 0x33
 11840 0792 F7       		.byte	0xf7
 11841 0793 25       		.uleb128 0x25
 11842 0794 0C       		.byte	0xc
 11843 0795 D34D6210 		.4byte	0x10624dd3
 11844 0799 F7       		.byte	0xf7
 11845 079a 25       		.uleb128 0x25
 11846 079b 1E       		.byte	0x1e
 11847 079c 08       		.byte	0x8
 11848 079d 20       		.byte	0x20
 11849 079e F7       		.byte	0xf7
 11850 079f 25       		.uleb128 0x25
 11851 07a0 25       		.byte	0x25
 11852 07a1 F7       		.byte	0xf7
 11853 07a2 2C       		.uleb128 0x2c
 11854 07a3 36       		.byte	0x36
 11855 07a4 26       		.byte	0x26
 11856 07a5 F3       		.byte	0xf3
 11857 07a6 01       		.uleb128 0x1
 11858 07a7 50       		.byte	0x50
 11859 07a8 4F       		.byte	0x4f
 11860 07a9 26       		.byte	0x26
 11861 07aa 1C       		.byte	0x1c
 11862 07ab 0B       		.byte	0xb
 11863 07ac 18FC     		.2byte	0xfc18
 11864 07ae 1E       		.byte	0x1e
 11865 07af F3       		.byte	0xf3
 11866 07b0 01       		.uleb128 0x1
 11867 07b1 50       		.byte	0x50
 11868 07b2 22       		.byte	0x22
 11869 07b3 F7       		.byte	0xf7
ARM GAS  C:\Users\srich\AppData\Local\Temp\ccv3JVxh.s 			page 210


 11870 07b4 33       		.uleb128 0x33
 11871 07b5 F7       		.byte	0xf7
 11872 07b6 25       		.uleb128 0x25
 11873 07b7 0C       		.byte	0xc
 11874 07b8 1F85EB51 		.4byte	0x51eb851f
 11875 07bc F7       		.byte	0xf7
 11876 07bd 25       		.uleb128 0x25
 11877 07be 1E       		.byte	0x1e
 11878 07bf 08       		.byte	0x8
 11879 07c0 20       		.byte	0x20
 11880 07c1 F7       		.byte	0xf7
 11881 07c2 25       		.uleb128 0x25
 11882 07c3 25       		.byte	0x25
 11883 07c4 F7       		.byte	0xf7
 11884 07c5 2C       		.uleb128 0x2c
 11885 07c6 35       		.byte	0x35
 11886 07c7 26       		.byte	0x26
 11887 07c8 F3       		.byte	0xf3
 11888 07c9 01       		.uleb128 0x1
 11889 07ca 50       		.byte	0x50
 11890 07cb F7       		.byte	0xf7
 11891 07cc 33       		.uleb128 0x33
 11892 07cd F7       		.byte	0xf7
 11893 07ce 25       		.uleb128 0x25
 11894 07cf 0C       		.byte	0xc
 11895 07d0 D34D6210 		.4byte	0x10624dd3
 11896 07d4 F7       		.byte	0xf7
 11897 07d5 25       		.uleb128 0x25
 11898 07d6 1E       		.byte	0x1e
 11899 07d7 08       		.byte	0x8
 11900 07d8 20       		.byte	0x20
 11901 07d9 F7       		.byte	0xf7
 11902 07da 25       		.uleb128 0x25
 11903 07db 25       		.byte	0x25
 11904 07dc F7       		.byte	0xf7
 11905 07dd 2C       		.uleb128 0x2c
 11906 07de 36       		.byte	0x36
 11907 07df 26       		.byte	0x26
 11908 07e0 F3       		.byte	0xf3
 11909 07e1 01       		.uleb128 0x1
 11910 07e2 50       		.byte	0x50
 11911 07e3 4F       		.byte	0x4f
 11912 07e4 26       		.byte	0x26
 11913 07e5 1C       		.byte	0x1c
 11914 07e6 0B       		.byte	0xb
 11915 07e7 18FC     		.2byte	0xfc18
 11916 07e9 1E       		.byte	0x1e
 11917 07ea F3       		.byte	0xf3
 11918 07eb 01       		.uleb128 0x1
 11919 07ec 50       		.byte	0x50
 11920 07ed 22       		.byte	0x22
 11921 07ee 4F       		.byte	0x4f
 11922 07ef 26       		.byte	0x26
 11923 07f0 1C       		.byte	0x1c
 11924 07f1 09       		.byte	0x9
 11925 07f2 9C       		.byte	0x9c
 11926 07f3 1E       		.byte	0x1e
ARM GAS  C:\Users\srich\AppData\Local\Temp\ccv3JVxh.s 			page 211


 11927 07f4 F3       		.byte	0xf3
 11928 07f5 01       		.uleb128 0x1
 11929 07f6 50       		.byte	0x50
 11930 07f7 F7       		.byte	0xf7
 11931 07f8 33       		.uleb128 0x33
 11932 07f9 F7       		.byte	0xf7
 11933 07fa 25       		.uleb128 0x25
 11934 07fb 0C       		.byte	0xc
 11935 07fc D34D6210 		.4byte	0x10624dd3
 11936 0800 F7       		.byte	0xf7
 11937 0801 25       		.uleb128 0x25
 11938 0802 1E       		.byte	0x1e
 11939 0803 08       		.byte	0x8
 11940 0804 20       		.byte	0x20
 11941 0805 F7       		.byte	0xf7
 11942 0806 25       		.uleb128 0x25
 11943 0807 25       		.byte	0x25
 11944 0808 F7       		.byte	0xf7
 11945 0809 2C       		.uleb128 0x2c
 11946 080a 36       		.byte	0x36
 11947 080b 26       		.byte	0x26
 11948 080c F3       		.byte	0xf3
 11949 080d 01       		.uleb128 0x1
 11950 080e 50       		.byte	0x50
 11951 080f 4F       		.byte	0x4f
 11952 0810 26       		.byte	0x26
 11953 0811 1C       		.byte	0x1c
 11954 0812 0B       		.byte	0xb
 11955 0813 18FC     		.2byte	0xfc18
 11956 0815 1E       		.byte	0x1e
 11957 0816 F3       		.byte	0xf3
 11958 0817 01       		.uleb128 0x1
 11959 0818 50       		.byte	0x50
 11960 0819 22       		.byte	0x22
 11961 081a 22       		.byte	0x22
 11962 081b 22       		.byte	0x22
 11963 081c 9F       		.byte	0x9f
 11964 081d 66000000 		.4byte	.LVL38
 11965 0821 68000000 		.4byte	.LVL39
 11966 0825 0100     		.2byte	0x1
 11967 0827 50       		.byte	0x50
 11968 0828 68000000 		.4byte	.LVL39
 11969 082c 7C000000 		.4byte	.LFE121
 11970 0830 3000     		.2byte	0x30
 11971 0832 72       		.byte	0x72
 11972 0833 00       		.sleb128 0
 11973 0834 09       		.byte	0x9
 11974 0835 F6       		.byte	0xf6
 11975 0836 1E       		.byte	0x1e
 11976 0837 74       		.byte	0x74
 11977 0838 00       		.sleb128 0
 11978 0839 09       		.byte	0x9
 11979 083a 9C       		.byte	0x9c
 11980 083b 1E       		.byte	0x1e
 11981 083c F3       		.byte	0xf3
 11982 083d 01       		.uleb128 0x1
 11983 083e 50       		.byte	0x50
ARM GAS  C:\Users\srich\AppData\Local\Temp\ccv3JVxh.s 			page 212


 11984 083f F7       		.byte	0xf7
 11985 0840 33       		.uleb128 0x33
 11986 0841 F7       		.byte	0xf7
 11987 0842 25       		.uleb128 0x25
 11988 0843 0C       		.byte	0xc
 11989 0844 D34D6210 		.4byte	0x10624dd3
 11990 0848 F7       		.byte	0xf7
 11991 0849 25       		.uleb128 0x25
 11992 084a 1E       		.byte	0x1e
 11993 084b 08       		.byte	0x8
 11994 084c 20       		.byte	0x20
 11995 084d F7       		.byte	0xf7
 11996 084e 25       		.uleb128 0x25
 11997 084f 25       		.byte	0x25
 11998 0850 F7       		.byte	0xf7
 11999 0851 2C       		.uleb128 0x2c
 12000 0852 36       		.byte	0x36
 12001 0853 26       		.byte	0x26
 12002 0854 76       		.byte	0x76
 12003 0855 00       		.sleb128 0
 12004 0856 1C       		.byte	0x1c
 12005 0857 0B       		.byte	0xb
 12006 0858 18FC     		.2byte	0xfc18
 12007 085a 1E       		.byte	0x1e
 12008 085b F3       		.byte	0xf3
 12009 085c 01       		.uleb128 0x1
 12010 085d 50       		.byte	0x50
 12011 085e 22       		.byte	0x22
 12012 085f 22       		.byte	0x22
 12013 0860 22       		.byte	0x22
 12014 0861 9F       		.byte	0x9f
 12015 0862 00000000 		.4byte	0
 12016 0866 00000000 		.4byte	0
 12017              	.LLST16:
 12018 086a 46000000 		.4byte	.LVL29
 12019 086e 4C000000 		.4byte	.LVL31
 12020 0872 0200     		.2byte	0x2
 12021 0874 33       		.byte	0x33
 12022 0875 9F       		.byte	0x9f
 12023 0876 4C000000 		.4byte	.LVL31
 12024 087a 5C000000 		.4byte	.LVL33
 12025 087e 0100     		.2byte	0x1
 12026 0880 50       		.byte	0x50
 12027 0881 60000000 		.4byte	.LVL35
 12028 0885 62000000 		.4byte	.LVL36
 12029 0889 0100     		.2byte	0x1
 12030 088b 50       		.byte	0x50
 12031 088c 66000000 		.4byte	.LVL38
 12032 0890 7C000000 		.4byte	.LFE121
 12033 0894 0200     		.2byte	0x2
 12034 0896 33       		.byte	0x33
 12035 0897 9F       		.byte	0x9f
 12036 0898 00000000 		.4byte	0
 12037 089c 00000000 		.4byte	0
 12038              	.LLST17:
 12039 08a0 00000000 		.4byte	.LVL40
 12040 08a4 16000000 		.4byte	.LVL41
ARM GAS  C:\Users\srich\AppData\Local\Temp\ccv3JVxh.s 			page 213


 12041 08a8 0100     		.2byte	0x1
 12042 08aa 50       		.byte	0x50
 12043 08ab 16000000 		.4byte	.LVL41
 12044 08af B4000000 		.4byte	.LFE122
 12045 08b3 0100     		.2byte	0x1
 12046 08b5 57       		.byte	0x57
 12047 08b6 00000000 		.4byte	0
 12048 08ba 00000000 		.4byte	0
 12049              	.LLST18:
 12050 08be 00000000 		.4byte	.LVL40
 12051 08c2 18000000 		.4byte	.LVL42
 12052 08c6 0100     		.2byte	0x1
 12053 08c8 51       		.byte	0x51
 12054 08c9 18000000 		.4byte	.LVL42
 12055 08cd B4000000 		.4byte	.LFE122
 12056 08d1 0100     		.2byte	0x1
 12057 08d3 58       		.byte	0x58
 12058 08d4 00000000 		.4byte	0
 12059 08d8 00000000 		.4byte	0
 12060              	.LLST19:
 12061 08dc 00000000 		.4byte	.LVL40
 12062 08e0 25000000 		.4byte	.LVL44-1
 12063 08e4 0100     		.2byte	0x1
 12064 08e6 52       		.byte	0x52
 12065 08e7 25000000 		.4byte	.LVL44-1
 12066 08eb 38000000 		.4byte	.LVL45
 12067 08ef 0200     		.2byte	0x2
 12068 08f1 7D       		.byte	0x7d
 12069 08f2 00       		.sleb128 0
 12070 08f3 38000000 		.4byte	.LVL45
 12071 08f7 58000000 		.4byte	.LVL50
 12072 08fb 0100     		.2byte	0x1
 12073 08fd 54       		.byte	0x54
 12074 08fe 58000000 		.4byte	.LVL50
 12075 0902 64000000 		.4byte	.LVL51
 12076 0906 0200     		.2byte	0x2
 12077 0908 7D       		.byte	0x7d
 12078 0909 00       		.sleb128 0
 12079 090a 64000000 		.4byte	.LVL51
 12080 090e 9E000000 		.4byte	.LVL62
 12081 0912 0100     		.2byte	0x1
 12082 0914 59       		.byte	0x59
 12083 0915 9E000000 		.4byte	.LVL62
 12084 0919 B4000000 		.4byte	.LFE122
 12085 091d 0200     		.2byte	0x2
 12086 091f 7D       		.byte	0x7d
 12087 0920 00       		.sleb128 0
 12088 0921 00000000 		.4byte	0
 12089 0925 00000000 		.4byte	0
 12090              	.LLST20:
 12091 0929 00000000 		.4byte	.LVL40
 12092 092d 25000000 		.4byte	.LVL44-1
 12093 0931 0100     		.2byte	0x1
 12094 0933 53       		.byte	0x53
 12095 0934 25000000 		.4byte	.LVL44-1
 12096 0938 B4000000 		.4byte	.LFE122
 12097 093c 0100     		.2byte	0x1
ARM GAS  C:\Users\srich\AppData\Local\Temp\ccv3JVxh.s 			page 214


 12098 093e 5B       		.byte	0x5b
 12099 093f 00000000 		.4byte	0
 12100 0943 00000000 		.4byte	0
 12101              	.LLST21:
 12102 0947 00000000 		.4byte	.LVL40
 12103 094b 9E000000 		.4byte	.LVL62
 12104 094f 0200     		.2byte	0x2
 12105 0951 91       		.byte	0x91
 12106 0952 00       		.sleb128 0
 12107 0953 9E000000 		.4byte	.LVL62
 12108 0957 B4000000 		.4byte	.LFE122
 12109 095b 0200     		.2byte	0x2
 12110 095d 91       		.byte	0x91
 12111 095e 00       		.sleb128 0
 12112 095f 00000000 		.4byte	0
 12113 0963 00000000 		.4byte	0
 12114              	.LLST22:
 12115 0967 00000000 		.4byte	.LVL40
 12116 096b 9E000000 		.4byte	.LVL62
 12117 096f 0200     		.2byte	0x2
 12118 0971 91       		.byte	0x91
 12119 0972 04       		.sleb128 4
 12120 0973 9E000000 		.4byte	.LVL62
 12121 0977 B4000000 		.4byte	.LFE122
 12122 097b 0200     		.2byte	0x2
 12123 097d 91       		.byte	0x91
 12124 097e 04       		.sleb128 4
 12125 097f 00000000 		.4byte	0
 12126 0983 00000000 		.4byte	0
 12127              	.LLST23:
 12128 0987 00000000 		.4byte	.LVL40
 12129 098b 9E000000 		.4byte	.LVL62
 12130 098f 0200     		.2byte	0x2
 12131 0991 91       		.byte	0x91
 12132 0992 08       		.sleb128 8
 12133 0993 9E000000 		.4byte	.LVL62
 12134 0997 B4000000 		.4byte	.LFE122
 12135 099b 0200     		.2byte	0x2
 12136 099d 91       		.byte	0x91
 12137 099e 08       		.sleb128 8
 12138 099f 00000000 		.4byte	0
 12139 09a3 00000000 		.4byte	0
 12140              	.LLST24:
 12141 09a7 20000000 		.4byte	.LVL43
 12142 09ab 25000000 		.4byte	.LVL44-1
 12143 09af 0100     		.2byte	0x1
 12144 09b1 52       		.byte	0x52
 12145 09b2 25000000 		.4byte	.LVL44-1
 12146 09b6 9A000000 		.4byte	.LVL61
 12147 09ba 0200     		.2byte	0x2
 12148 09bc 7D       		.byte	0x7d
 12149 09bd 00       		.sleb128 0
 12150 09be 9A000000 		.4byte	.LVL61
 12151 09c2 9E000000 		.4byte	.LVL62
 12152 09c6 0200     		.2byte	0x2
 12153 09c8 91       		.byte	0x91
 12154 09c9 40       		.sleb128 -64
ARM GAS  C:\Users\srich\AppData\Local\Temp\ccv3JVxh.s 			page 215


 12155 09ca 9E000000 		.4byte	.LVL62
 12156 09ce B4000000 		.4byte	.LFE122
 12157 09d2 0200     		.2byte	0x2
 12158 09d4 7D       		.byte	0x7d
 12159 09d5 00       		.sleb128 0
 12160 09d6 00000000 		.4byte	0
 12161 09da 00000000 		.4byte	0
 12162              	.LLST25:
 12163 09de 20000000 		.4byte	.LVL43
 12164 09e2 26000000 		.4byte	.LVL44
 12165 09e6 0200     		.2byte	0x2
 12166 09e8 30       		.byte	0x30
 12167 09e9 9F       		.byte	0x9f
 12168 09ea 26000000 		.4byte	.LVL44
 12169 09ee 38000000 		.4byte	.LVL45
 12170 09f2 0100     		.2byte	0x1
 12171 09f4 50       		.byte	0x50
 12172 09f5 38000000 		.4byte	.LVL45
 12173 09f9 B4000000 		.4byte	.LFE122
 12174 09fd 0100     		.2byte	0x1
 12175 09ff 56       		.byte	0x56
 12176 0a00 00000000 		.4byte	0
 12177 0a04 00000000 		.4byte	0
 12178              	.LLST26:
 12179 0a08 26000000 		.4byte	.LVL44
 12180 0a0c 38000000 		.4byte	.LVL45
 12181 0a10 0300     		.2byte	0x3
 12182 0a12 70       		.byte	0x70
 12183 0a13 7F       		.sleb128 -1
 12184 0a14 9F       		.byte	0x9f
 12185 0a15 64000000 		.4byte	.LVL51
 12186 0a19 6E000000 		.4byte	.LVL52
 12187 0a1d 0200     		.2byte	0x2
 12188 0a1f 31       		.byte	0x31
 12189 0a20 9F       		.byte	0x9f
 12190 0a21 6E000000 		.4byte	.LVL52
 12191 0a25 74000000 		.4byte	.LVL53
 12192 0a29 0300     		.2byte	0x3
 12193 0a2b 74       		.byte	0x74
 12194 0a2c 7F       		.sleb128 -1
 12195 0a2d 9F       		.byte	0x9f
 12196 0a2e 74000000 		.4byte	.LVL53
 12197 0a32 7C000000 		.4byte	.LVL55
 12198 0a36 0100     		.2byte	0x1
 12199 0a38 54       		.byte	0x54
 12200 0a39 7C000000 		.4byte	.LVL55
 12201 0a3d 96000000 		.4byte	.LVL59
 12202 0a41 0300     		.2byte	0x3
 12203 0a43 74       		.byte	0x74
 12204 0a44 7F       		.sleb128 -1
 12205 0a45 9F       		.byte	0x9f
 12206 0a46 96000000 		.4byte	.LVL59
 12207 0a4a 98000000 		.4byte	.LVL60
 12208 0a4e 0100     		.2byte	0x1
 12209 0a50 54       		.byte	0x54
 12210 0a51 00000000 		.4byte	0
 12211 0a55 00000000 		.4byte	0
ARM GAS  C:\Users\srich\AppData\Local\Temp\ccv3JVxh.s 			page 216


 12212              	.LLST27:
 12213 0a59 3C000000 		.4byte	.LVL46
 12214 0a5d 58000000 		.4byte	.LVL50
 12215 0a61 0600     		.2byte	0x6
 12216 0a63 75       		.byte	0x75
 12217 0a64 00       		.sleb128 0
 12218 0a65 08       		.byte	0x8
 12219 0a66 FF       		.byte	0xff
 12220 0a67 1A       		.byte	0x1a
 12221 0a68 9F       		.byte	0x9f
 12222 0a69 00000000 		.4byte	0
 12223 0a6d 00000000 		.4byte	0
 12224              	.LLST28:
 12225 0a71 3C000000 		.4byte	.LVL46
 12226 0a75 54000000 		.4byte	.LVL49
 12227 0a79 0100     		.2byte	0x1
 12228 0a7b 54       		.byte	0x54
 12229 0a7c 00000000 		.4byte	0
 12230 0a80 00000000 		.4byte	0
 12231              	.LLST29:
 12232 0a84 3C000000 		.4byte	.LVL46
 12233 0a88 58000000 		.4byte	.LVL50
 12234 0a8c 0100     		.2byte	0x1
 12235 0a8e 58       		.byte	0x58
 12236 0a8f 00000000 		.4byte	0
 12237 0a93 00000000 		.4byte	0
 12238              	.LLST30:
 12239 0a97 3C000000 		.4byte	.LVL46
 12240 0a9b 58000000 		.4byte	.LVL50
 12241 0a9f 0100     		.2byte	0x1
 12242 0aa1 57       		.byte	0x57
 12243 0aa2 00000000 		.4byte	0
 12244 0aa6 00000000 		.4byte	0
 12245              	.LLST31:
 12246 0aaa 7E000000 		.4byte	.LVL56
 12247 0aae 98000000 		.4byte	.LVL60
 12248 0ab2 0600     		.2byte	0x6
 12249 0ab4 7A       		.byte	0x7a
 12250 0ab5 00       		.sleb128 0
 12251 0ab6 08       		.byte	0x8
 12252 0ab7 FF       		.byte	0xff
 12253 0ab8 1A       		.byte	0x1a
 12254 0ab9 9F       		.byte	0x9f
 12255 0aba 00000000 		.4byte	0
 12256 0abe 00000000 		.4byte	0
 12257              	.LLST32:
 12258 0ac2 7E000000 		.4byte	.LVL56
 12259 0ac6 96000000 		.4byte	.LVL59
 12260 0aca 0100     		.2byte	0x1
 12261 0acc 59       		.byte	0x59
 12262 0acd 00000000 		.4byte	0
 12263 0ad1 00000000 		.4byte	0
 12264              	.LLST33:
 12265 0ad5 7E000000 		.4byte	.LVL56
 12266 0ad9 98000000 		.4byte	.LVL60
 12267 0add 0100     		.2byte	0x1
 12268 0adf 58       		.byte	0x58
ARM GAS  C:\Users\srich\AppData\Local\Temp\ccv3JVxh.s 			page 217


 12269 0ae0 00000000 		.4byte	0
 12270 0ae4 00000000 		.4byte	0
 12271              	.LLST34:
 12272 0ae8 7E000000 		.4byte	.LVL56
 12273 0aec 98000000 		.4byte	.LVL60
 12274 0af0 0100     		.2byte	0x1
 12275 0af2 57       		.byte	0x57
 12276 0af3 00000000 		.4byte	0
 12277 0af7 00000000 		.4byte	0
 12278              	.LLST35:
 12279 0afb 18000000 		.4byte	.LVL66
 12280 0aff 56000000 		.4byte	.LVL71
 12281 0b03 0200     		.2byte	0x2
 12282 0b05 30       		.byte	0x30
 12283 0b06 9F       		.byte	0x9f
 12284 0b07 00000000 		.4byte	0
 12285 0b0b 00000000 		.4byte	0
 12286              	.LLST37:
 12287 0b0f 18000000 		.4byte	.LVL66
 12288 0b13 56000000 		.4byte	.LVL71
 12289 0b17 0300     		.2byte	0x3
 12290 0b19 08       		.byte	0x8
 12291 0b1a A2       		.byte	0xa2
 12292 0b1b 9F       		.byte	0x9f
 12293 0b1c 00000000 		.4byte	0
 12294 0b20 00000000 		.4byte	0
 12295              	.LLST38:
 12296 0b24 18000000 		.4byte	.LVL66
 12297 0b28 56000000 		.4byte	.LVL71
 12298 0b2c 0400     		.2byte	0x4
 12299 0b2e 0A       		.byte	0xa
 12300 0b2f 4115     		.2byte	0x1541
 12301 0b31 9F       		.byte	0x9f
 12302 0b32 00000000 		.4byte	0
 12303 0b36 00000000 		.4byte	0
 12304              	.LLST39:
 12305 0b3a 44000000 		.4byte	.LVL69
 12306 0b3e 56000000 		.4byte	.LVL71
 12307 0b42 0300     		.2byte	0x3
 12308 0b44 08       		.byte	0x8
 12309 0b45 E2       		.byte	0xe2
 12310 0b46 9F       		.byte	0x9f
 12311 0b47 00000000 		.4byte	0
 12312 0b4b 00000000 		.4byte	0
 12313              	.LLST40:
 12314 0b4f 44000000 		.4byte	.LVL69
 12315 0b53 56000000 		.4byte	.LVL71
 12316 0b57 0300     		.2byte	0x3
 12317 0b59 08       		.byte	0x8
 12318 0b5a CF       		.byte	0xcf
 12319 0b5b 9F       		.byte	0x9f
 12320 0b5c 00000000 		.4byte	0
 12321 0b60 00000000 		.4byte	0
 12322              	.LLST41:
 12323 0b64 44000000 		.4byte	.LVL69
 12324 0b68 56000000 		.4byte	.LVL71
 12325 0b6c 0400     		.2byte	0x4
ARM GAS  C:\Users\srich\AppData\Local\Temp\ccv3JVxh.s 			page 218


 12326 0b6e 0A       		.byte	0xa
 12327 0b6f 8D48     		.2byte	0x488d
 12328 0b71 9F       		.byte	0x9f
 12329 0b72 00000000 		.4byte	0
 12330 0b76 00000000 		.4byte	0
 12331              	.LLST42:
 12332 0b7a 00000000 		.4byte	.LVL128
 12333 0b7e 0E000000 		.4byte	.LVL130
 12334 0b82 0200     		.2byte	0x2
 12335 0b84 30       		.byte	0x30
 12336 0b85 9F       		.byte	0x9f
 12337 0b86 0E000000 		.4byte	.LVL130
 12338 0b8a 17000000 		.4byte	.LVL131-1
 12339 0b8e 0100     		.2byte	0x1
 12340 0b90 53       		.byte	0x53
 12341 0b91 1E000000 		.4byte	.LVL132
 12342 0b95 24000000 		.4byte	.LVL133
 12343 0b99 0100     		.2byte	0x1
 12344 0b9b 50       		.byte	0x50
 12345 0b9c 24000000 		.4byte	.LVL133
 12346 0ba0 27000000 		.4byte	.LVL134-1
 12347 0ba4 0500     		.2byte	0x5
 12348 0ba6 03       		.byte	0x3
 12349 0ba7 04000000 		.4byte	NewValues+4
 12350 0bab 28000000 		.4byte	.LVL134
 12351 0baf 2C000000 		.4byte	.LVL135
 12352 0bb3 0600     		.2byte	0x6
 12353 0bb5 70       		.byte	0x70
 12354 0bb6 00       		.sleb128 0
 12355 0bb7 08       		.byte	0x8
 12356 0bb8 FF       		.byte	0xff
 12357 0bb9 1A       		.byte	0x1a
 12358 0bba 9F       		.byte	0x9f
 12359 0bbb 3A000000 		.4byte	.LVL136
 12360 0bbf 3F000000 		.4byte	.LVL137-1
 12361 0bc3 0600     		.2byte	0x6
 12362 0bc5 70       		.byte	0x70
 12363 0bc6 00       		.sleb128 0
 12364 0bc7 08       		.byte	0x8
 12365 0bc8 FF       		.byte	0xff
 12366 0bc9 1A       		.byte	0x1a
 12367 0bca 9F       		.byte	0x9f
 12368 0bcb 48000000 		.4byte	.LVL138
 12369 0bcf 64000000 		.4byte	.LVL142
 12370 0bd3 0100     		.2byte	0x1
 12371 0bd5 55       		.byte	0x55
 12372 0bd6 66000000 		.4byte	.LVL143
 12373 0bda 68000000 		.4byte	.LVL144
 12374 0bde 0200     		.2byte	0x2
 12375 0be0 30       		.byte	0x30
 12376 0be1 9F       		.byte	0x9f
 12377 0be2 68000000 		.4byte	.LVL144
 12378 0be6 78000000 		.4byte	.LVL147
 12379 0bea 0100     		.2byte	0x1
 12380 0bec 55       		.byte	0x55
 12381 0bed 78000000 		.4byte	.LVL147
 12382 0bf1 98000000 		.4byte	.LVL151
ARM GAS  C:\Users\srich\AppData\Local\Temp\ccv3JVxh.s 			page 219


 12383 0bf5 0200     		.2byte	0x2
 12384 0bf7 32       		.byte	0x32
 12385 0bf8 9F       		.byte	0x9f
 12386 0bf9 AE000000 		.4byte	.LVL153
 12387 0bfd B2000000 		.4byte	.LVL154
 12388 0c01 0100     		.2byte	0x1
 12389 0c03 50       		.byte	0x50
 12390 0c04 C0000000 		.4byte	.LVL156
 12391 0c08 CE000000 		.4byte	.LVL158
 12392 0c0c 0200     		.2byte	0x2
 12393 0c0e 30       		.byte	0x30
 12394 0c0f 9F       		.byte	0x9f
 12395 0c10 CE000000 		.4byte	.LVL158
 12396 0c14 D0000000 		.4byte	.LVL159
 12397 0c18 0100     		.2byte	0x1
 12398 0c1a 55       		.byte	0x55
 12399 0c1b D2000000 		.4byte	.LVL160
 12400 0c1f D4000000 		.4byte	.LVL161
 12401 0c23 0200     		.2byte	0x2
 12402 0c25 31       		.byte	0x31
 12403 0c26 9F       		.byte	0x9f
 12404 0c27 D4000000 		.4byte	.LVL161
 12405 0c2b D6000000 		.4byte	.LVL162
 12406 0c2f 0200     		.2byte	0x2
 12407 0c31 32       		.byte	0x32
 12408 0c32 9F       		.byte	0x9f
 12409 0c33 D6000000 		.4byte	.LVL162
 12410 0c37 D8000000 		.4byte	.LVL163
 12411 0c3b 0100     		.2byte	0x1
 12412 0c3d 50       		.byte	0x50
 12413 0c3e E6000000 		.4byte	.LVL166
 12414 0c42 EA000000 		.4byte	.LVL167
 12415 0c46 0200     		.2byte	0x2
 12416 0c48 31       		.byte	0x31
 12417 0c49 9F       		.byte	0x9f
 12418 0c4a EE000000 		.4byte	.LVL168
 12419 0c4e 08010000 		.4byte	.LFE124
 12420 0c52 0200     		.2byte	0x2
 12421 0c54 32       		.byte	0x32
 12422 0c55 9F       		.byte	0x9f
 12423 0c56 00000000 		.4byte	0
 12424 0c5a 00000000 		.4byte	0
 12425              	.LLST43:
 12426 0c5e 50000000 		.4byte	.LVL139
 12427 0c62 54000000 		.4byte	.LVL140
 12428 0c66 0B00     		.2byte	0xb
 12429 0c68 03       		.byte	0x3
 12430 0c69 30000000 		.4byte	pos+48
 12431 0c6d 94       		.byte	0x94
 12432 0c6e 01       		.byte	0x1
 12433 0c6f 08       		.byte	0x8
 12434 0c70 FF       		.byte	0xff
 12435 0c71 1A       		.byte	0x1a
 12436 0c72 9F       		.byte	0x9f
 12437 0c73 54000000 		.4byte	.LVL140
 12438 0c77 5A000000 		.4byte	.LVL141
 12439 0c7b 0100     		.2byte	0x1
ARM GAS  C:\Users\srich\AppData\Local\Temp\ccv3JVxh.s 			page 220


 12440 0c7d 53       		.byte	0x53
 12441 0c7e 5A000000 		.4byte	.LVL141
 12442 0c82 68000000 		.4byte	.LVL144
 12443 0c86 0B00     		.2byte	0xb
 12444 0c88 03       		.byte	0x3
 12445 0c89 30000000 		.4byte	pos+48
 12446 0c8d 94       		.byte	0x94
 12447 0c8e 01       		.byte	0x1
 12448 0c8f 08       		.byte	0x8
 12449 0c90 FF       		.byte	0xff
 12450 0c91 1A       		.byte	0x1a
 12451 0c92 9F       		.byte	0x9f
 12452 0c93 68000000 		.4byte	.LVL144
 12453 0c97 6A000000 		.4byte	.LVL145
 12454 0c9b 0100     		.2byte	0x1
 12455 0c9d 53       		.byte	0x53
 12456 0c9e 6A000000 		.4byte	.LVL145
 12457 0ca2 B2000000 		.4byte	.LVL154
 12458 0ca6 0B00     		.2byte	0xb
 12459 0ca8 03       		.byte	0x3
 12460 0ca9 30000000 		.4byte	pos+48
 12461 0cad 94       		.byte	0x94
 12462 0cae 01       		.byte	0x1
 12463 0caf 08       		.byte	0x8
 12464 0cb0 FF       		.byte	0xff
 12465 0cb1 1A       		.byte	0x1a
 12466 0cb2 9F       		.byte	0x9f
 12467 0cb3 CE000000 		.4byte	.LVL158
 12468 0cb7 08010000 		.4byte	.LFE124
 12469 0cbb 0B00     		.2byte	0xb
 12470 0cbd 03       		.byte	0x3
 12471 0cbe 30000000 		.4byte	pos+48
 12472 0cc2 94       		.byte	0x94
 12473 0cc3 01       		.byte	0x1
 12474 0cc4 08       		.byte	0x8
 12475 0cc5 FF       		.byte	0xff
 12476 0cc6 1A       		.byte	0x1a
 12477 0cc7 9F       		.byte	0x9f
 12478 0cc8 00000000 		.4byte	0
 12479 0ccc 00000000 		.4byte	0
 12480              	.LLST44:
 12481 0cd0 78000000 		.4byte	.LVL147
 12482 0cd4 7C000000 		.4byte	.LVL148
 12483 0cd8 0200     		.2byte	0x2
 12484 0cda 30       		.byte	0x30
 12485 0cdb 9F       		.byte	0x9f
 12486 0cdc D6000000 		.4byte	.LVL162
 12487 0ce0 D8000000 		.4byte	.LVL163
 12488 0ce4 0200     		.2byte	0x2
 12489 0ce6 30       		.byte	0x30
 12490 0ce7 9F       		.byte	0x9f
 12491 0ce8 00000000 		.4byte	0
 12492 0cec 00000000 		.4byte	0
 12493              	.LLST45:
 12494 0cf0 9C000000 		.4byte	.LVL152
 12495 0cf4 AE000000 		.4byte	.LVL153
 12496 0cf8 0800     		.2byte	0x8
ARM GAS  C:\Users\srich\AppData\Local\Temp\ccv3JVxh.s 			page 221


 12497 0cfa 73       		.byte	0x73
 12498 0cfb 00       		.sleb128 0
 12499 0cfc 3C       		.byte	0x3c
 12500 0cfd 1A       		.byte	0x1a
 12501 0cfe 08       		.byte	0x8
 12502 0cff FF       		.byte	0xff
 12503 0d00 1A       		.byte	0x1a
 12504 0d01 9F       		.byte	0x9f
 12505 0d02 D6000000 		.4byte	.LVL162
 12506 0d06 D8000000 		.4byte	.LVL163
 12507 0d0a 0200     		.2byte	0x2
 12508 0d0c 30       		.byte	0x30
 12509 0d0d 9F       		.byte	0x9f
 12510 0d0e D8000000 		.4byte	.LVL163
 12511 0d12 DA000000 		.4byte	.LVL164
 12512 0d16 0800     		.2byte	0x8
 12513 0d18 73       		.byte	0x73
 12514 0d19 00       		.sleb128 0
 12515 0d1a 3C       		.byte	0x3c
 12516 0d1b 1A       		.byte	0x1a
 12517 0d1c 08       		.byte	0x8
 12518 0d1d FF       		.byte	0xff
 12519 0d1e 1A       		.byte	0x1a
 12520 0d1f 9F       		.byte	0x9f
 12521 0d20 DA000000 		.4byte	.LVL164
 12522 0d24 DC000000 		.4byte	.LVL165
 12523 0d28 0A00     		.2byte	0xa
 12524 0d2a 71       		.byte	0x71
 12525 0d2b 00       		.sleb128 0
 12526 0d2c 94       		.byte	0x94
 12527 0d2d 01       		.byte	0x1
 12528 0d2e 3C       		.byte	0x3c
 12529 0d2f 1A       		.byte	0x1a
 12530 0d30 08       		.byte	0x8
 12531 0d31 FF       		.byte	0xff
 12532 0d32 1A       		.byte	0x1a
 12533 0d33 9F       		.byte	0x9f
 12534 0d34 00000000 		.4byte	0
 12535 0d38 00000000 		.4byte	0
 12536              	.LLST46:
 12537 0d3c 80000000 		.4byte	.LVL149
 12538 0d40 8C000000 		.4byte	.LVL150
 12539 0d44 0500     		.2byte	0x5
 12540 0d46 70       		.byte	0x70
 12541 0d47 00       		.sleb128 0
 12542 0d48 33       		.byte	0x33
 12543 0d49 1A       		.byte	0x1a
 12544 0d4a 9F       		.byte	0x9f
 12545 0d4b 8C000000 		.4byte	.LVL150
 12546 0d4f 98000000 		.4byte	.LVL151
 12547 0d53 0700     		.2byte	0x7
 12548 0d55 73       		.byte	0x73
 12549 0d56 00       		.sleb128 0
 12550 0d57 94       		.byte	0x94
 12551 0d58 01       		.byte	0x1
 12552 0d59 33       		.byte	0x33
 12553 0d5a 1A       		.byte	0x1a
ARM GAS  C:\Users\srich\AppData\Local\Temp\ccv3JVxh.s 			page 222


 12554 0d5b 9F       		.byte	0x9f
 12555 0d5c D4000000 		.4byte	.LVL161
 12556 0d60 D8000000 		.4byte	.LVL163
 12557 0d64 0700     		.2byte	0x7
 12558 0d66 73       		.byte	0x73
 12559 0d67 00       		.sleb128 0
 12560 0d68 94       		.byte	0x94
 12561 0d69 01       		.byte	0x1
 12562 0d6a 33       		.byte	0x33
 12563 0d6b 1A       		.byte	0x1a
 12564 0d6c 9F       		.byte	0x9f
 12565 0d6d 00000000 		.4byte	0
 12566 0d71 00000000 		.4byte	0
 12567              	.LLST47:
 12568 0d75 80000000 		.4byte	.LVL149
 12569 0d79 98000000 		.4byte	.LVL151
 12570 0d7d 0800     		.2byte	0x8
 12571 0d7f 73       		.byte	0x73
 12572 0d80 06       		.sleb128 6
 12573 0d81 94       		.byte	0x94
 12574 0d82 01       		.byte	0x1
 12575 0d83 09       		.byte	0x9
 12576 0d84 E0       		.byte	0xe0
 12577 0d85 1A       		.byte	0x1a
 12578 0d86 9F       		.byte	0x9f
 12579 0d87 D4000000 		.4byte	.LVL161
 12580 0d8b D8000000 		.4byte	.LVL163
 12581 0d8f 0800     		.2byte	0x8
 12582 0d91 73       		.byte	0x73
 12583 0d92 06       		.sleb128 6
 12584 0d93 94       		.byte	0x94
 12585 0d94 01       		.byte	0x1
 12586 0d95 09       		.byte	0x9
 12587 0d96 E0       		.byte	0xe0
 12588 0d97 1A       		.byte	0x1a
 12589 0d98 9F       		.byte	0x9f
 12590 0d99 00000000 		.4byte	0
 12591 0d9d 00000000 		.4byte	0
 12592              	.LLST48:
 12593 0da1 9C000000 		.4byte	.LVL152
 12594 0da5 AE000000 		.4byte	.LVL153
 12595 0da9 0500     		.2byte	0x5
 12596 0dab 73       		.byte	0x73
 12597 0dac 00       		.sleb128 0
 12598 0dad 33       		.byte	0x33
 12599 0dae 1A       		.byte	0x1a
 12600 0daf 9F       		.byte	0x9f
 12601 0db0 D8000000 		.4byte	.LVL163
 12602 0db4 DA000000 		.4byte	.LVL164
 12603 0db8 0500     		.2byte	0x5
 12604 0dba 73       		.byte	0x73
 12605 0dbb 00       		.sleb128 0
 12606 0dbc 33       		.byte	0x33
 12607 0dbd 1A       		.byte	0x1a
 12608 0dbe 9F       		.byte	0x9f
 12609 0dbf DA000000 		.4byte	.LVL164
 12610 0dc3 DC000000 		.4byte	.LVL165
ARM GAS  C:\Users\srich\AppData\Local\Temp\ccv3JVxh.s 			page 223


 12611 0dc7 0700     		.2byte	0x7
 12612 0dc9 71       		.byte	0x71
 12613 0dca 00       		.sleb128 0
 12614 0dcb 94       		.byte	0x94
 12615 0dcc 01       		.byte	0x1
 12616 0dcd 33       		.byte	0x33
 12617 0dce 1A       		.byte	0x1a
 12618 0dcf 9F       		.byte	0x9f
 12619 0dd0 00000000 		.4byte	0
 12620 0dd4 00000000 		.4byte	0
 12621              	.LLST49:
 12622 0dd8 62000000 		.4byte	.LVL173
 12623 0ddc 76000000 		.4byte	.LVL174
 12624 0de0 1100     		.2byte	0x11
 12625 0de2 70       		.byte	0x70
 12626 0de3 00       		.sleb128 0
 12627 0de4 12       		.byte	0x12
 12628 0de5 40       		.byte	0x40
 12629 0de6 24       		.byte	0x24
 12630 0de7 30       		.byte	0x30
 12631 0de8 16       		.byte	0x16
 12632 0de9 14       		.byte	0x14
 12633 0dea 40       		.byte	0x40
 12634 0deb 24       		.byte	0x24
 12635 0dec 2B       		.byte	0x2b
 12636 0ded 28       		.byte	0x28
 12637 0dee 0100     		.2byte	0x1
 12638 0df0 16       		.byte	0x16
 12639 0df1 13       		.byte	0x13
 12640 0df2 9F       		.byte	0x9f
 12641 0df3 86000000 		.4byte	.LVL176
 12642 0df7 90000000 		.4byte	.LVL177
 12643 0dfb 0100     		.2byte	0x1
 12644 0dfd 52       		.byte	0x52
 12645 0dfe 90000000 		.4byte	.LVL177
 12646 0e02 92000000 		.4byte	.LVL178
 12647 0e06 0100     		.2byte	0x1
 12648 0e08 53       		.byte	0x53
 12649 0e09 B2000000 		.4byte	.LVL182
 12650 0e0d B6000000 		.4byte	.LVL183
 12651 0e11 0100     		.2byte	0x1
 12652 0e13 52       		.byte	0x52
 12653 0e14 B6000000 		.4byte	.LVL183
 12654 0e18 BA000000 		.4byte	.LVL184
 12655 0e1c 0100     		.2byte	0x1
 12656 0e1e 51       		.byte	0x51
 12657 0e1f BA000000 		.4byte	.LVL184
 12658 0e23 BC000000 		.4byte	.LVL185
 12659 0e27 0400     		.2byte	0x4
 12660 0e29 71       		.byte	0x71
 12661 0e2a 00       		.sleb128 0
 12662 0e2b 1F       		.byte	0x1f
 12663 0e2c 9F       		.byte	0x9f
 12664 0e2d BC000000 		.4byte	.LVL185
 12665 0e31 EC000000 		.4byte	.LFE125
 12666 0e35 0100     		.2byte	0x1
 12667 0e37 52       		.byte	0x52
ARM GAS  C:\Users\srich\AppData\Local\Temp\ccv3JVxh.s 			page 224


 12668 0e38 00000000 		.4byte	0
 12669 0e3c 00000000 		.4byte	0
 12670              	.LLST50:
 12671 0e40 2C000000 		.4byte	.LVL171
 12672 0e44 44000000 		.4byte	.LVL172
 12673 0e48 0100     		.2byte	0x1
 12674 0e4a 52       		.byte	0x52
 12675 0e4b 00000000 		.4byte	0
 12676 0e4f 00000000 		.4byte	0
 12677              	.LLST51:
 12678 0e53 98000000 		.4byte	.LVL179
 12679 0e57 A2000000 		.4byte	.LVL180
 12680 0e5b 0100     		.2byte	0x1
 12681 0e5d 50       		.byte	0x50
 12682 0e5e 00000000 		.4byte	0
 12683 0e62 00000000 		.4byte	0
 12684              	.LLST52:
 12685 0e66 1A000000 		.4byte	.LVL189
 12686 0e6a 30000000 		.4byte	.LVL190
 12687 0e6e 0F00     		.2byte	0xf
 12688 0e70 70       		.byte	0x70
 12689 0e71 00       		.sleb128 0
 12690 0e72 12       		.byte	0x12
 12691 0e73 0A       		.byte	0xa
 12692 0e74 4001     		.2byte	0x140
 12693 0e76 16       		.byte	0x16
 12694 0e77 14       		.byte	0x14
 12695 0e78 2D       		.byte	0x2d
 12696 0e79 28       		.byte	0x28
 12697 0e7a 0100     		.2byte	0x1
 12698 0e7c 16       		.byte	0x16
 12699 0e7d 13       		.byte	0x13
 12700 0e7e 9F       		.byte	0x9f
 12701 0e7f 78000000 		.4byte	.LVL199
 12702 0e83 82000000 		.4byte	.LVL201
 12703 0e87 0100     		.2byte	0x1
 12704 0e89 50       		.byte	0x50
 12705 0e8a 82000000 		.4byte	.LVL201
 12706 0e8e 86000000 		.4byte	.LVL202
 12707 0e92 0100     		.2byte	0x1
 12708 0e94 53       		.byte	0x53
 12709 0e95 86000000 		.4byte	.LVL202
 12710 0e99 88000000 		.4byte	.LVL203
 12711 0e9d 0400     		.2byte	0x4
 12712 0e9f 70       		.byte	0x70
 12713 0ea0 00       		.sleb128 0
 12714 0ea1 1F       		.byte	0x1f
 12715 0ea2 9F       		.byte	0x9f
 12716 0ea3 88000000 		.4byte	.LVL203
 12717 0ea7 8B000000 		.4byte	.LVL204-1
 12718 0eab 0100     		.2byte	0x1
 12719 0ead 50       		.byte	0x50
 12720 0eae 9A000000 		.4byte	.LVL206
 12721 0eb2 A2000000 		.4byte	.LVL208
 12722 0eb6 0100     		.2byte	0x1
 12723 0eb8 50       		.byte	0x50
 12724 0eb9 A2000000 		.4byte	.LVL208
ARM GAS  C:\Users\srich\AppData\Local\Temp\ccv3JVxh.s 			page 225


 12725 0ebd A6000000 		.4byte	.LVL209
 12726 0ec1 0100     		.2byte	0x1
 12727 0ec3 53       		.byte	0x53
 12728 0ec4 A6000000 		.4byte	.LVL209
 12729 0ec8 D4000000 		.4byte	.LFE126
 12730 0ecc 0500     		.2byte	0x5
 12731 0ece 03       		.byte	0x3
 12732 0ecf 28000000 		.4byte	NewValues+40
 12733 0ed3 00000000 		.4byte	0
 12734 0ed7 00000000 		.4byte	0
 12735              	.LLST53:
 12736 0edb 0E000000 		.4byte	.LVL222
 12737 0edf 24000000 		.4byte	.LVL225
 12738 0ee3 0100     		.2byte	0x1
 12739 0ee5 56       		.byte	0x56
 12740 0ee6 00000000 		.4byte	0
 12741 0eea 00000000 		.4byte	0
 12742              	.LLST54:
 12743 0eee 0E000000 		.4byte	.LVL222
 12744 0ef2 24000000 		.4byte	.LVL225
 12745 0ef6 0200     		.2byte	0x2
 12746 0ef8 30       		.byte	0x30
 12747 0ef9 9F       		.byte	0x9f
 12748 0efa 00000000 		.4byte	0
 12749 0efe 00000000 		.4byte	0
 12750              	.LLST55:
 12751 0f02 0E000000 		.4byte	.LVL222
 12752 0f06 24000000 		.4byte	.LVL225
 12753 0f0a 0200     		.2byte	0x2
 12754 0f0c 35       		.byte	0x35
 12755 0f0d 9F       		.byte	0x9f
 12756 0f0e 00000000 		.4byte	0
 12757 0f12 00000000 		.4byte	0
 12758              	.LLST56:
 12759 0f16 0E000000 		.4byte	.LVL222
 12760 0f1a 24000000 		.4byte	.LVL225
 12761 0f1e 0300     		.2byte	0x3
 12762 0f20 08       		.byte	0x8
 12763 0f21 37       		.byte	0x37
 12764 0f22 9F       		.byte	0x9f
 12765 0f23 00000000 		.4byte	0
 12766 0f27 00000000 		.4byte	0
 12767              	.LLST57:
 12768 0f2b 44000000 		.4byte	.LVL228
 12769 0f2f 5E000000 		.4byte	.LVL231
 12770 0f33 0100     		.2byte	0x1
 12771 0f35 57       		.byte	0x57
 12772 0f36 00000000 		.4byte	0
 12773 0f3a 00000000 		.4byte	0
 12774              	.LLST58:
 12775 0f3e 00000000 		.4byte	.LVL232
 12776 0f42 06000000 		.4byte	.LVL233
 12777 0f46 0100     		.2byte	0x1
 12778 0f48 50       		.byte	0x50
 12779 0f49 06000000 		.4byte	.LVL233
 12780 0f4d 1A000000 		.4byte	.LVL237
 12781 0f51 0400     		.2byte	0x4
ARM GAS  C:\Users\srich\AppData\Local\Temp\ccv3JVxh.s 			page 226


 12782 0f53 F3       		.byte	0xf3
 12783 0f54 01       		.uleb128 0x1
 12784 0f55 50       		.byte	0x50
 12785 0f56 9F       		.byte	0x9f
 12786 0f57 1A000000 		.4byte	.LVL237
 12787 0f5b 1D000000 		.4byte	.LVL238-1
 12788 0f5f 0100     		.2byte	0x1
 12789 0f61 50       		.byte	0x50
 12790 0f62 1D000000 		.4byte	.LVL238-1
 12791 0f66 1E000000 		.4byte	.LFE134
 12792 0f6a 0400     		.2byte	0x4
 12793 0f6c F3       		.byte	0xf3
 12794 0f6d 01       		.uleb128 0x1
 12795 0f6e 50       		.byte	0x50
 12796 0f6f 9F       		.byte	0x9f
 12797 0f70 00000000 		.4byte	0
 12798 0f74 00000000 		.4byte	0
 12799              	.LLST59:
 12800 0f78 06000000 		.4byte	.LVL233
 12801 0f7c 0E000000 		.4byte	.LVL235
 12802 0f80 0100     		.2byte	0x1
 12803 0f82 54       		.byte	0x54
 12804 0f83 0E000000 		.4byte	.LVL235
 12805 0f87 14000000 		.4byte	.LVL236
 12806 0f8b 0300     		.2byte	0x3
 12807 0f8d 74       		.byte	0x74
 12808 0f8e 7F       		.sleb128 -1
 12809 0f8f 9F       		.byte	0x9f
 12810 0f90 14000000 		.4byte	.LVL236
 12811 0f94 1A000000 		.4byte	.LVL237
 12812 0f98 0100     		.2byte	0x1
 12813 0f9a 54       		.byte	0x54
 12814 0f9b 00000000 		.4byte	0
 12815 0f9f 00000000 		.4byte	0
 12816              	.LLST60:
 12817 0fa3 0A000000 		.4byte	.LVL240
 12818 0fa7 14000000 		.4byte	.LVL241
 12819 0fab 0200     		.2byte	0x2
 12820 0fad 30       		.byte	0x30
 12821 0fae 9F       		.byte	0x9f
 12822 0faf 00000000 		.4byte	0
 12823 0fb3 00000000 		.4byte	0
 12824              	.LLST61:
 12825 0fb7 10000000 		.4byte	.LVL242
 12826 0fbb 2A000000 		.4byte	.LVL245
 12827 0fbf 0100     		.2byte	0x1
 12828 0fc1 56       		.byte	0x56
 12829 0fc2 00000000 		.4byte	0
 12830 0fc6 00000000 		.4byte	0
 12831              	.LLST62:
 12832 0fca 10000000 		.4byte	.LVL242
 12833 0fce 2A000000 		.4byte	.LVL245
 12834 0fd2 0200     		.2byte	0x2
 12835 0fd4 34       		.byte	0x34
 12836 0fd5 9F       		.byte	0x9f
 12837 0fd6 00000000 		.4byte	0
 12838 0fda 00000000 		.4byte	0
ARM GAS  C:\Users\srich\AppData\Local\Temp\ccv3JVxh.s 			page 227


 12839              	.LLST63:
 12840 0fde 10000000 		.4byte	.LVL242
 12841 0fe2 2A000000 		.4byte	.LVL245
 12842 0fe6 0400     		.2byte	0x4
 12843 0fe8 0A       		.byte	0xa
 12844 0fe9 B201     		.2byte	0x1b2
 12845 0feb 9F       		.byte	0x9f
 12846 0fec 00000000 		.4byte	0
 12847 0ff0 00000000 		.4byte	0
 12848              	.LLST64:
 12849 0ff4 10000000 		.4byte	.LVL242
 12850 0ff8 2A000000 		.4byte	.LVL245
 12851 0ffc 0400     		.2byte	0x4
 12852 0ffe 0A       		.byte	0xa
 12853 0fff 1814     		.2byte	0x1418
 12854 1001 9F       		.byte	0x9f
 12855 1002 00000000 		.4byte	0
 12856 1006 00000000 		.4byte	0
 12857              	.LLST65:
 12858 100a 38000000 		.4byte	.LVL246
 12859 100e 54000000 		.4byte	.LVL249
 12860 1012 0100     		.2byte	0x1
 12861 1014 56       		.byte	0x56
 12862 1015 00000000 		.4byte	0
 12863 1019 00000000 		.4byte	0
 12864              	.LLST66:
 12865 101d 38000000 		.4byte	.LVL246
 12866 1021 54000000 		.4byte	.LVL249
 12867 1025 0300     		.2byte	0x3
 12868 1027 08       		.byte	0x8
 12869 1028 EB       		.byte	0xeb
 12870 1029 9F       		.byte	0x9f
 12871 102a 00000000 		.4byte	0
 12872 102e 00000000 		.4byte	0
 12873              	.LLST67:
 12874 1032 38000000 		.4byte	.LVL246
 12875 1036 54000000 		.4byte	.LVL249
 12876 103a 0400     		.2byte	0x4
 12877 103c 0A       		.byte	0xa
 12878 103d B201     		.2byte	0x1b2
 12879 103f 9F       		.byte	0x9f
 12880 1040 00000000 		.4byte	0
 12881 1044 00000000 		.4byte	0
 12882              	.LLST68:
 12883 1048 38000000 		.4byte	.LVL246
 12884 104c 54000000 		.4byte	.LVL249
 12885 1050 0400     		.2byte	0x4
 12886 1052 0A       		.byte	0xa
 12887 1053 2314     		.2byte	0x1423
 12888 1055 9F       		.byte	0x9f
 12889 1056 00000000 		.4byte	0
 12890 105a 00000000 		.4byte	0
 12891              	.LLST69:
 12892 105e 62000000 		.4byte	.LVL250
 12893 1062 7E000000 		.4byte	.LVL253
 12894 1066 0100     		.2byte	0x1
 12895 1068 56       		.byte	0x56
ARM GAS  C:\Users\srich\AppData\Local\Temp\ccv3JVxh.s 			page 228


 12896 1069 00000000 		.4byte	0
 12897 106d 00000000 		.4byte	0
 12898              	.LLST70:
 12899 1071 62000000 		.4byte	.LVL250
 12900 1075 7E000000 		.4byte	.LVL253
 12901 1079 0200     		.2byte	0x2
 12902 107b 3A       		.byte	0x3a
 12903 107c 9F       		.byte	0x9f
 12904 107d 00000000 		.4byte	0
 12905 1081 00000000 		.4byte	0
 12906              	.LLST71:
 12907 1085 62000000 		.4byte	.LVL250
 12908 1089 7E000000 		.4byte	.LVL253
 12909 108d 0400     		.2byte	0x4
 12910 108f 0A       		.byte	0xa
 12911 1090 7C01     		.2byte	0x17c
 12912 1092 9F       		.byte	0x9f
 12913 1093 00000000 		.4byte	0
 12914 1097 00000000 		.4byte	0
 12915              	.LLST72:
 12916 109b 62000000 		.4byte	.LVL250
 12917 109f 7E000000 		.4byte	.LVL253
 12918 10a3 0400     		.2byte	0x4
 12919 10a5 0A       		.byte	0xa
 12920 10a6 F113     		.2byte	0x13f1
 12921 10a8 9F       		.byte	0x9f
 12922 10a9 00000000 		.4byte	0
 12923 10ad 00000000 		.4byte	0
 12924              	.LLST73:
 12925 10b1 8C000000 		.4byte	.LVL254
 12926 10b5 A8000000 		.4byte	.LVL257
 12927 10b9 0100     		.2byte	0x1
 12928 10bb 56       		.byte	0x56
 12929 10bc 00000000 		.4byte	0
 12930 10c0 00000000 		.4byte	0
 12931              	.LLST74:
 12932 10c4 8C000000 		.4byte	.LVL254
 12933 10c8 A8000000 		.4byte	.LVL257
 12934 10cc 0300     		.2byte	0x3
 12935 10ce 08       		.byte	0x8
 12936 10cf D7       		.byte	0xd7
 12937 10d0 9F       		.byte	0x9f
 12938 10d1 00000000 		.4byte	0
 12939 10d5 00000000 		.4byte	0
 12940              	.LLST75:
 12941 10d9 8C000000 		.4byte	.LVL254
 12942 10dd A8000000 		.4byte	.LVL257
 12943 10e1 0400     		.2byte	0x4
 12944 10e3 0A       		.byte	0xa
 12945 10e4 8001     		.2byte	0x180
 12946 10e6 9F       		.byte	0x9f
 12947 10e7 00000000 		.4byte	0
 12948 10eb 00000000 		.4byte	0
 12949              	.LLST76:
 12950 10ef 8C000000 		.4byte	.LVL254
 12951 10f3 A8000000 		.4byte	.LVL257
 12952 10f7 0400     		.2byte	0x4
ARM GAS  C:\Users\srich\AppData\Local\Temp\ccv3JVxh.s 			page 229


 12953 10f9 0A       		.byte	0xa
 12954 10fa 2F15     		.2byte	0x152f
 12955 10fc 9F       		.byte	0x9f
 12956 10fd 00000000 		.4byte	0
 12957 1101 00000000 		.4byte	0
 12958              	.LLST77:
 12959 1105 B6000000 		.4byte	.LVL258
 12960 1109 D2000000 		.4byte	.LVL261
 12961 110d 0100     		.2byte	0x1
 12962 110f 56       		.byte	0x56
 12963 1110 00000000 		.4byte	0
 12964 1114 00000000 		.4byte	0
 12965              	.LLST78:
 12966 1118 B6000000 		.4byte	.LVL258
 12967 111c D2000000 		.4byte	.LVL261
 12968 1120 0300     		.2byte	0x3
 12969 1122 08       		.byte	0x8
 12970 1123 98       		.byte	0x98
 12971 1124 9F       		.byte	0x9f
 12972 1125 00000000 		.4byte	0
 12973 1129 00000000 		.4byte	0
 12974              	.LLST79:
 12975 112d B6000000 		.4byte	.LVL258
 12976 1131 D2000000 		.4byte	.LVL261
 12977 1135 0400     		.2byte	0x4
 12978 1137 0A       		.byte	0xa
 12979 1138 7F01     		.2byte	0x17f
 12980 113a 9F       		.byte	0x9f
 12981 113b 00000000 		.4byte	0
 12982 113f 00000000 		.4byte	0
 12983              	.LLST80:
 12984 1143 B6000000 		.4byte	.LVL258
 12985 1147 D2000000 		.4byte	.LVL261
 12986 114b 0400     		.2byte	0x4
 12987 114d 0A       		.byte	0xa
 12988 114e 0A14     		.2byte	0x140a
 12989 1150 9F       		.byte	0x9f
 12990 1151 00000000 		.4byte	0
 12991 1155 00000000 		.4byte	0
 12992              	.LLST81:
 12993 1159 E0000000 		.4byte	.LVL262
 12994 115d FA000000 		.4byte	.LVL265
 12995 1161 0100     		.2byte	0x1
 12996 1163 56       		.byte	0x56
 12997 1164 00000000 		.4byte	0
 12998 1168 00000000 		.4byte	0
 12999              	.LLST82:
 13000 116c E0000000 		.4byte	.LVL262
 13001 1170 FA000000 		.4byte	.LVL265
 13002 1174 0300     		.2byte	0x3
 13003 1176 08       		.byte	0x8
 13004 1177 4E       		.byte	0x4e
 13005 1178 9F       		.byte	0x9f
 13006 1179 00000000 		.4byte	0
 13007 117d 00000000 		.4byte	0
 13008              	.LLST83:
 13009 1181 E0000000 		.4byte	.LVL262
ARM GAS  C:\Users\srich\AppData\Local\Temp\ccv3JVxh.s 			page 230


 13010 1185 FA000000 		.4byte	.LVL265
 13011 1189 0400     		.2byte	0x4
 13012 118b 0A       		.byte	0xa
 13013 118c 8001     		.2byte	0x180
 13014 118e 9F       		.byte	0x9f
 13015 118f 00000000 		.4byte	0
 13016 1193 00000000 		.4byte	0
 13017              	.LLST84:
 13018 1197 E0000000 		.4byte	.LVL262
 13019 119b FA000000 		.4byte	.LVL265
 13020 119f 0200     		.2byte	0x2
 13021 11a1 30       		.byte	0x30
 13022 11a2 9F       		.byte	0x9f
 13023 11a3 00000000 		.4byte	0
 13024 11a7 00000000 		.4byte	0
 13025              	.LLST85:
 13026 11ab 08010000 		.4byte	.LVL266
 13027 11af 22010000 		.4byte	.LVL269
 13028 11b3 0100     		.2byte	0x1
 13029 11b5 56       		.byte	0x56
 13030 11b6 00000000 		.4byte	0
 13031 11ba 00000000 		.4byte	0
 13032              	.LLST86:
 13033 11be 08010000 		.4byte	.LVL266
 13034 11c2 22010000 		.4byte	.LVL269
 13035 11c6 0300     		.2byte	0x3
 13036 11c8 08       		.byte	0x8
 13037 11c9 3C       		.byte	0x3c
 13038 11ca 9F       		.byte	0x9f
 13039 11cb 00000000 		.4byte	0
 13040 11cf 00000000 		.4byte	0
 13041              	.LLST87:
 13042 11d3 08010000 		.4byte	.LVL266
 13043 11d7 22010000 		.4byte	.LVL269
 13044 11db 0200     		.2byte	0x2
 13045 11dd 48       		.byte	0x48
 13046 11de 9F       		.byte	0x9f
 13047 11df 00000000 		.4byte	0
 13048 11e3 00000000 		.4byte	0
 13049              	.LLST88:
 13050 11e7 08010000 		.4byte	.LVL266
 13051 11eb 22010000 		.4byte	.LVL269
 13052 11ef 0400     		.2byte	0x4
 13053 11f1 0A       		.byte	0xa
 13054 11f2 9148     		.2byte	0x4891
 13055 11f4 9F       		.byte	0x9f
 13056 11f5 00000000 		.4byte	0
 13057 11f9 00000000 		.4byte	0
 13058              	.LLST89:
 13059 11fd 30010000 		.4byte	.LVL270
 13060 1201 4A010000 		.4byte	.LVL273
 13061 1205 0100     		.2byte	0x1
 13062 1207 56       		.byte	0x56
 13063 1208 00000000 		.4byte	0
 13064 120c 00000000 		.4byte	0
 13065              	.LLST90:
 13066 1210 30010000 		.4byte	.LVL270
ARM GAS  C:\Users\srich\AppData\Local\Temp\ccv3JVxh.s 			page 231


 13067 1214 4A010000 		.4byte	.LVL273
 13068 1218 0300     		.2byte	0x3
 13069 121a 08       		.byte	0x8
 13070 121b E6       		.byte	0xe6
 13071 121c 9F       		.byte	0x9f
 13072 121d 00000000 		.4byte	0
 13073 1221 00000000 		.4byte	0
 13074              	.LLST91:
 13075 1225 30010000 		.4byte	.LVL270
 13076 1229 4A010000 		.4byte	.LVL273
 13077 122d 0300     		.2byte	0x3
 13078 122f 08       		.byte	0x8
 13079 1230 4F       		.byte	0x4f
 13080 1231 9F       		.byte	0x9f
 13081 1232 00000000 		.4byte	0
 13082 1236 00000000 		.4byte	0
 13083              	.LLST92:
 13084 123a 30010000 		.4byte	.LVL270
 13085 123e 4A010000 		.4byte	.LVL273
 13086 1242 0400     		.2byte	0x4
 13087 1244 0A       		.byte	0xa
 13088 1245 3E48     		.2byte	0x483e
 13089 1247 9F       		.byte	0x9f
 13090 1248 00000000 		.4byte	0
 13091 124c 00000000 		.4byte	0
 13092              	.LLST93:
 13093 1250 58010000 		.4byte	.LVL274
 13094 1254 72010000 		.4byte	.LVL277
 13095 1258 0100     		.2byte	0x1
 13096 125a 56       		.byte	0x56
 13097 125b 00000000 		.4byte	0
 13098 125f 00000000 		.4byte	0
 13099              	.LLST94:
 13100 1263 58010000 		.4byte	.LVL274
 13101 1267 72010000 		.4byte	.LVL277
 13102 126b 0300     		.2byte	0x3
 13103 126d 08       		.byte	0x8
 13104 126e 7B       		.byte	0x7b
 13105 126f 9F       		.byte	0x9f
 13106 1270 00000000 		.4byte	0
 13107 1274 00000000 		.4byte	0
 13108              	.LLST95:
 13109 1278 58010000 		.4byte	.LVL274
 13110 127c 72010000 		.4byte	.LVL277
 13111 1280 0200     		.2byte	0x2
 13112 1282 48       		.byte	0x48
 13113 1283 9F       		.byte	0x9f
 13114 1284 00000000 		.4byte	0
 13115 1288 00000000 		.4byte	0
 13116              	.LLST96:
 13117 128c 58010000 		.4byte	.LVL274
 13118 1290 72010000 		.4byte	.LVL277
 13119 1294 0400     		.2byte	0x4
 13120 1296 0A       		.byte	0xa
 13121 1297 E813     		.2byte	0x13e8
 13122 1299 9F       		.byte	0x9f
 13123 129a 00000000 		.4byte	0
ARM GAS  C:\Users\srich\AppData\Local\Temp\ccv3JVxh.s 			page 232


 13124 129e 00000000 		.4byte	0
 13125              	.LLST97:
 13126 12a2 88010000 		.4byte	.LVL278
 13127 12a6 9C010000 		.4byte	.LVL282
 13128 12aa 0200     		.2byte	0x2
 13129 12ac 30       		.byte	0x30
 13130 12ad 9F       		.byte	0x9f
 13131 12ae 00000000 		.4byte	0
 13132 12b2 00000000 		.4byte	0
 13133              	.LLST98:
 13134 12b6 00000000 		.4byte	.LVL288
 13135 12ba 0F000000 		.4byte	.LVL289-1
 13136 12be 0100     		.2byte	0x1
 13137 12c0 50       		.byte	0x50
 13138 12c1 0F000000 		.4byte	.LVL289-1
 13139 12c5 7C000000 		.4byte	.LFE131
 13140 12c9 0400     		.2byte	0x4
 13141 12cb F3       		.byte	0xf3
 13142 12cc 01       		.uleb128 0x1
 13143 12cd 50       		.byte	0x50
 13144 12ce 9F       		.byte	0x9f
 13145 12cf 00000000 		.4byte	0
 13146 12d3 00000000 		.4byte	0
 13147              	.LLST99:
 13148 12d7 10000000 		.4byte	.LVL289
 13149 12db 1A000000 		.4byte	.LVL290
 13150 12df 0200     		.2byte	0x2
 13151 12e1 30       		.byte	0x30
 13152 12e2 9F       		.byte	0x9f
 13153 12e3 1A000000 		.4byte	.LVL290
 13154 12e7 7C000000 		.4byte	.LFE131
 13155 12eb 0100     		.2byte	0x1
 13156 12ed 54       		.byte	0x54
 13157 12ee 00000000 		.4byte	0
 13158 12f2 00000000 		.4byte	0
 13159              	.LLST100:
 13160 12f6 00000000 		.4byte	.LVL300
 13161 12fa 0A000000 		.4byte	.LVL301
 13162 12fe 0200     		.2byte	0x2
 13163 1300 30       		.byte	0x30
 13164 1301 9F       		.byte	0x9f
 13165 1302 00000000 		.4byte	0
 13166 1306 00000000 		.4byte	0
 13167              	.LLST101:
 13168 130a 00000000 		.4byte	.LVL307
 13169 130e 0B000000 		.4byte	.LVL309-1
 13170 1312 0100     		.2byte	0x1
 13171 1314 50       		.byte	0x50
 13172 1315 0B000000 		.4byte	.LVL309-1
 13173 1319 16000000 		.4byte	.LVL311
 13174 131d 0100     		.2byte	0x1
 13175 131f 54       		.byte	0x54
 13176 1320 16000000 		.4byte	.LVL311
 13177 1324 19000000 		.4byte	.LVL312-1
 13178 1328 0100     		.2byte	0x1
 13179 132a 50       		.byte	0x50
 13180 132b 19000000 		.4byte	.LVL312-1
ARM GAS  C:\Users\srich\AppData\Local\Temp\ccv3JVxh.s 			page 233


 13181 132f 78000000 		.4byte	.LVL322
 13182 1333 0100     		.2byte	0x1
 13183 1335 54       		.byte	0x54
 13184 1336 78000000 		.4byte	.LVL322
 13185 133a A4000000 		.4byte	.LFE138
 13186 133e 0100     		.2byte	0x1
 13187 1340 50       		.byte	0x50
 13188 1341 00000000 		.4byte	0
 13189 1345 00000000 		.4byte	0
 13190              	.LLST102:
 13191 1349 00000000 		.4byte	.LVL307
 13192 134d 04000000 		.4byte	.LVL308
 13193 1351 0100     		.2byte	0x1
 13194 1353 51       		.byte	0x51
 13195 1354 04000000 		.4byte	.LVL308
 13196 1358 A4000000 		.4byte	.LFE138
 13197 135c 0400     		.2byte	0x4
 13198 135e F3       		.byte	0xf3
 13199 135f 01       		.uleb128 0x1
 13200 1360 51       		.byte	0x51
 13201 1361 9F       		.byte	0x9f
 13202 1362 00000000 		.4byte	0
 13203 1366 00000000 		.4byte	0
 13204              	.LLST103:
 13205 136a 00000000 		.4byte	.LVL307
 13206 136e 0B000000 		.4byte	.LVL309-1
 13207 1372 0100     		.2byte	0x1
 13208 1374 52       		.byte	0x52
 13209 1375 0B000000 		.4byte	.LVL309-1
 13210 1379 A4000000 		.4byte	.LFE138
 13211 137d 0400     		.2byte	0x4
 13212 137f F3       		.byte	0xf3
 13213 1380 01       		.uleb128 0x1
 13214 1381 52       		.byte	0x52
 13215 1382 9F       		.byte	0x9f
 13216 1383 00000000 		.4byte	0
 13217 1387 00000000 		.4byte	0
 13218              		.section	.debug_aranges,"",%progbits
 13219 0000 BC000000 		.4byte	0xbc
 13220 0004 0200     		.2byte	0x2
 13221 0006 00000000 		.4byte	.Ldebug_info0
 13222 000a 04       		.byte	0x4
 13223 000b 00       		.byte	0
 13224 000c 0000     		.2byte	0
 13225 000e 0000     		.2byte	0
 13226 0010 00000000 		.4byte	.LFB132
 13227 0014 34000000 		.4byte	.LFE132-.LFB132
 13228 0018 00000000 		.4byte	.LFB118
 13229 001c 1C000000 		.4byte	.LFE118-.LFB118
 13230 0020 00000000 		.4byte	.LFB119
 13231 0024 1A000000 		.4byte	.LFE119-.LFB119
 13232 0028 00000000 		.4byte	.LFB120
 13233 002c 1E000000 		.4byte	.LFE120-.LFB120
 13234 0030 00000000 		.4byte	.LFB121
 13235 0034 7C000000 		.4byte	.LFE121-.LFB121
 13236 0038 00000000 		.4byte	.LFB122
 13237 003c B4000000 		.4byte	.LFE122-.LFB122
ARM GAS  C:\Users\srich\AppData\Local\Temp\ccv3JVxh.s 			page 234


 13238 0040 00000000 		.4byte	.LFB123
 13239 0044 0C030000 		.4byte	.LFE123-.LFB123
 13240 0048 00000000 		.4byte	.LFB124
 13241 004c 08010000 		.4byte	.LFE124-.LFB124
 13242 0050 00000000 		.4byte	.LFB125
 13243 0054 EC000000 		.4byte	.LFE125-.LFB125
 13244 0058 00000000 		.4byte	.LFB126
 13245 005c D4000000 		.4byte	.LFE126-.LFB126
 13246 0060 00000000 		.4byte	.LFB128
 13247 0064 C0010000 		.4byte	.LFE128-.LFB128
 13248 0068 00000000 		.4byte	.LFB129
 13249 006c 3C000000 		.4byte	.LFE129-.LFB129
 13250 0070 00000000 		.4byte	.LFB130
 13251 0074 68000000 		.4byte	.LFE130-.LFB130
 13252 0078 00000000 		.4byte	.LFB133
 13253 007c 0C000000 		.4byte	.LFE133-.LFB133
 13254 0080 00000000 		.4byte	.LFB134
 13255 0084 1E000000 		.4byte	.LFE134-.LFB134
 13256 0088 00000000 		.4byte	.LFB135
 13257 008c 24000000 		.4byte	.LFE135-.LFB135
 13258 0090 00000000 		.4byte	.LFB127
 13259 0094 CC010000 		.4byte	.LFE127-.LFB127
 13260 0098 00000000 		.4byte	.LFB131
 13261 009c 7C000000 		.4byte	.LFE131-.LFB131
 13262 00a0 00000000 		.4byte	.LFB136
 13263 00a4 18000000 		.4byte	.LFE136-.LFB136
 13264 00a8 00000000 		.4byte	.LFB137
 13265 00ac 48000000 		.4byte	.LFE137-.LFB137
 13266 00b0 00000000 		.4byte	.LFB138
 13267 00b4 A4000000 		.4byte	.LFE138-.LFB138
 13268 00b8 00000000 		.4byte	0
 13269 00bc 00000000 		.4byte	0
 13270              		.section	.debug_ranges,"",%progbits
 13271              	.Ldebug_ranges0:
 13272 0000 D8000000 		.4byte	.LBB109
 13273 0004 E2000000 		.4byte	.LBE109
 13274 0008 E6000000 		.4byte	.LBB112
 13275 000c EE000000 		.4byte	.LBE112
 13276 0010 00000000 		.4byte	0
 13277 0014 00000000 		.4byte	0
 13278 0018 6A010000 		.4byte	.LBB119
 13279 001c 70010000 		.4byte	.LBE119
 13280 0020 72010000 		.4byte	.LBB123
 13281 0024 76010000 		.4byte	.LBE123
 13282 0028 78010000 		.4byte	.LBB124
 13283 002c 82010000 		.4byte	.LBE124
 13284 0030 00000000 		.4byte	0
 13285 0034 00000000 		.4byte	0
 13286 0038 96010000 		.4byte	.LBB125
 13287 003c 9E010000 		.4byte	.LBE125
 13288 0040 A2010000 		.4byte	.LBB128
 13289 0044 AC010000 		.4byte	.LBE128
 13290 0048 00000000 		.4byte	0
 13291 004c 00000000 		.4byte	0
 13292 0050 7C000000 		.4byte	.LBB149
 13293 0054 92000000 		.4byte	.LBE149
 13294 0058 D4000000 		.4byte	.LBB151
ARM GAS  C:\Users\srich\AppData\Local\Temp\ccv3JVxh.s 			page 235


 13295 005c D8000000 		.4byte	.LBE151
 13296 0060 00000000 		.4byte	0
 13297 0064 00000000 		.4byte	0
 13298 0068 98000000 		.4byte	.LBB150
 13299 006c AA000000 		.4byte	.LBE150
 13300 0070 D8000000 		.4byte	.LBB152
 13301 0074 08010000 		.4byte	.LBE152
 13302 0078 00000000 		.4byte	0
 13303 007c 00000000 		.4byte	0
 13304 0080 00000000 		.4byte	.LFB132
 13305 0084 34000000 		.4byte	.LFE132
 13306 0088 00000000 		.4byte	.LFB118
 13307 008c 1C000000 		.4byte	.LFE118
 13308 0090 00000000 		.4byte	.LFB119
 13309 0094 1A000000 		.4byte	.LFE119
 13310 0098 00000000 		.4byte	.LFB120
 13311 009c 1E000000 		.4byte	.LFE120
 13312 00a0 00000000 		.4byte	.LFB121
 13313 00a4 7C000000 		.4byte	.LFE121
 13314 00a8 00000000 		.4byte	.LFB122
 13315 00ac B4000000 		.4byte	.LFE122
 13316 00b0 00000000 		.4byte	.LFB123
 13317 00b4 0C030000 		.4byte	.LFE123
 13318 00b8 00000000 		.4byte	.LFB124
 13319 00bc 08010000 		.4byte	.LFE124
 13320 00c0 00000000 		.4byte	.LFB125
 13321 00c4 EC000000 		.4byte	.LFE125
 13322 00c8 00000000 		.4byte	.LFB126
 13323 00cc D4000000 		.4byte	.LFE126
 13324 00d0 00000000 		.4byte	.LFB128
 13325 00d4 C0010000 		.4byte	.LFE128
 13326 00d8 00000000 		.4byte	.LFB129
 13327 00dc 3C000000 		.4byte	.LFE129
 13328 00e0 00000000 		.4byte	.LFB130
 13329 00e4 68000000 		.4byte	.LFE130
 13330 00e8 00000000 		.4byte	.LFB133
 13331 00ec 0C000000 		.4byte	.LFE133
 13332 00f0 00000000 		.4byte	.LFB134
 13333 00f4 1E000000 		.4byte	.LFE134
 13334 00f8 00000000 		.4byte	.LFB135
 13335 00fc 24000000 		.4byte	.LFE135
 13336 0100 00000000 		.4byte	.LFB127
 13337 0104 CC010000 		.4byte	.LFE127
 13338 0108 00000000 		.4byte	.LFB131
 13339 010c 7C000000 		.4byte	.LFE131
 13340 0110 00000000 		.4byte	.LFB136
 13341 0114 18000000 		.4byte	.LFE136
 13342 0118 00000000 		.4byte	.LFB137
 13343 011c 48000000 		.4byte	.LFE137
 13344 0120 00000000 		.4byte	.LFB138
 13345 0124 A4000000 		.4byte	.LFE138
 13346 0128 00000000 		.4byte	0
 13347 012c 00000000 		.4byte	0
 13348              		.section	.debug_line,"",%progbits
 13349              	.Ldebug_line0:
 13350 0000 9E070000 		.section	.debug_str,"MS",%progbits,1
 13350      02002E03 
ARM GAS  C:\Users\srich\AppData\Local\Temp\ccv3JVxh.s 			page 236


 13350      00000201 
 13350      FB0E0D00 
 13350      01010101 
 13351              	.LASF204:
 13352 0000 52656672 		.ascii	"RefreshTempomatNumber\000"
 13352      65736854 
 13352      656D706F 
 13352      6D61744E 
 13352      756D6265 
 13353              	.LASF55:
 13354 0016 54687265 		.ascii	"ThreadsList\000"
 13354      6164734C 
 13354      69737400 
 13355              	.LASF61:
 13356 0022 76746675 		.ascii	"vtfunc_t\000"
 13356      6E635F74 
 13356      00
 13357              	.LASF131:
 13358 002b 5F5F7661 		.ascii	"__va_list\000"
 13358      5F6C6973 
 13358      7400
 13359              	.LASF46:
 13360 0035 705F7469 		.ascii	"p_time\000"
 13360      6D6500
 13361              	.LASF231:
 13362 003c 63687670 		.ascii	"chvprintf\000"
 13362      72696E74 
 13362      6600
 13363              	.LASF56:
 13364 0046 72656761 		.ascii	"regarm_t\000"
 13364      726D5F74 
 13364      00
 13365              	.LASF37:
 13366 004f 705F7072 		.ascii	"p_prio\000"
 13366      696F00
 13367              	.LASF160:
 13368 0056 74656D70 		.ascii	"temperature\000"
 13368      65726174 
 13368      75726500 
 13369              	.LASF203:
 13370 0062 52656672 		.ascii	"RefreshNumbers\000"
 13370      6573684E 
 13370      756D6265 
 13370      727300
 13371              	.LASF93:
 13372 0071 67657474 		.ascii	"gett\000"
 13372      00
 13373              	.LASF232:
 13374 0076 6D656469 		.ascii	"media_Image\000"
 13374      615F496D 
 13374      61676500 
 13375              	.LASF33:
 13376 0082 73797374 		.ascii	"systime_t\000"
 13376      696D655F 
 13376      7400
 13377              	.LASF109:
 13378 008c 4453505F 		.ascii	"DSP_AKKUHIBA\000"
ARM GAS  C:\Users\srich\AppData\Local\Temp\ccv3JVxh.s 			page 237


 13378      414B4B55 
 13378      48494241 
 13378      00
 13379              	.LASF79:
 13380 0099 6D5F6F77 		.ascii	"m_owner\000"
 13380      6E657200 
 13381              	.LASF68:
 13382 00a1 76745F73 		.ascii	"vt_systime\000"
 13382      79737469 
 13382      6D6500
 13383              	.LASF48:
 13384 00ac 705F6D73 		.ascii	"p_msgqueue\000"
 13384      67717565 
 13384      756500
 13385              	.LASF1:
 13386 00b7 756E7369 		.ascii	"unsigned int\000"
 13386      676E6564 
 13386      20696E74 
 13386      00
 13387              	.LASF243:
 13388 00c4 63616C63 		.ascii	"calcGetValue\000"
 13388      47657456 
 13388      616C7565 
 13388      00
 13389              	.LASF187:
 13390 00d1 50696374 		.ascii	"PictogramDataBinding\000"
 13390      6F677261 
 13390      6D446174 
 13390      6142696E 
 13390      64696E67 
 13391              	.LASF120:
 13392 00e6 4453505F 		.ascii	"DSP_TEMPOMAT\000"
 13392      54454D50 
 13392      4F4D4154 
 13392      00
 13393              	.LASF166:
 13394 00f3 43414C43 		.ascii	"CALC_AVG_SPEED\000"
 13394      5F415647 
 13394      5F535045 
 13394      454400
 13395              	.LASF47:
 13396 0102 705F7761 		.ascii	"p_waiting\000"
 13396      6974696E 
 13396      6700
 13397              	.LASF11:
 13398 010c 5F5F696E 		.ascii	"__int32_t\000"
 13398      7433325F 
 13398      7400
 13399              	.LASF248:
 13400 0116 44656C65 		.ascii	"DeleteOldValues\000"
 13400      74654F6C 
 13400      6456616C 
 13400      75657300 
 13401              	.LASF123:
 13402 0126 4453505F 		.ascii	"DSP_DISTANCETIZED\000"
 13402      44495354 
 13402      414E4345 
ARM GAS  C:\Users\srich\AppData\Local\Temp\ccv3JVxh.s 			page 238


 13402      54495A45 
 13402      4400
 13403              	.LASF211:
 13404 0138 72656672 		.ascii	"refresh\000"
 13404      65736800 
 13405              	.LASF87:
 13406 0140 42617365 		.ascii	"BaseSequentialStreamVMT\000"
 13406      53657175 
 13406      656E7469 
 13406      616C5374 
 13406      7265616D 
 13407              	.LASF228:
 13408 0158 626D7369 		.ascii	"bmsitems\000"
 13408      74656D73 
 13408      00
 13409              	.LASF253:
 13410 0161 7372632F 		.ascii	"src/dsp.c\000"
 13410      6473702E 
 13410      6300
 13411              	.LASF83:
 13412 016b 77746F62 		.ascii	"wtobjp\000"
 13412      6A7000
 13413              	.LASF225:
 13414 0172 76746C69 		.ascii	"vtlist\000"
 13414      737400
 13415              	.LASF241:
 13416 0179 47657443 		.ascii	"GetCurrentLimitIsOn\000"
 13416      75727265 
 13416      6E744C69 
 13416      6D697449 
 13416      734F6E00 
 13417              	.LASF209:
 13418 018d 44535052 		.ascii	"DSPReader\000"
 13418      65616465 
 13418      7200
 13419              	.LASF140:
 13420 0197 7061636B 		.ascii	"pack_resist\000"
 13420      5F726573 
 13420      69737400 
 13421              	.LASF84:
 13422 01a3 65776D61 		.ascii	"ewmask\000"
 13422      736B00
 13423              	.LASF218:
 13424 01aa 4E657756 		.ascii	"NewValues\000"
 13424      616C7565 
 13424      7300
 13425              	.LASF94:
 13426 01b4 77726974 		.ascii	"writet\000"
 13426      657400
 13427              	.LASF210:
 13428 01bb 44535054 		.ascii	"DSPThread\000"
 13428      68726561 
 13428      6400
 13429              	.LASF101:
 13430 01c5 6D656173 		.ascii	"measChannels2\000"
 13430      4368616E 
 13430      6E656C73 
ARM GAS  C:\Users\srich\AppData\Local\Temp\ccv3JVxh.s 			page 239


 13430      3200
 13431              	.LASF78:
 13432 01d3 6D5F7175 		.ascii	"m_queue\000"
 13432      65756500 
 13433              	.LASF65:
 13434 01db 76745F74 		.ascii	"vt_time\000"
 13434      696D6500 
 13435              	.LASF22:
 13436 01e3 75696E74 		.ascii	"uint32_t\000"
 13436      33325F74 
 13436      00
 13437              	.LASF17:
 13438 01ec 696E7438 		.ascii	"int8_t\000"
 13438      5F7400
 13439              	.LASF126:
 13440 01f3 4453505F 		.ascii	"DSP_NUM_MSG\000"
 13440      4E554D5F 
 13440      4D534700 
 13441              	.LASF32:
 13442 01ff 6576656E 		.ascii	"eventmask_t\000"
 13442      746D6173 
 13442      6B5F7400 
 13443              	.LASF71:
 13444 020b 725F7072 		.ascii	"r_prio\000"
 13444      696F00
 13445              	.LASF67:
 13446 0212 76745F70 		.ascii	"vt_par\000"
 13446      617200
 13447              	.LASF161:
 13448 0219 466C6167 		.ascii	"Flags\000"
 13448      7300
 13449              	.LASF128:
 13450 021f 666C6F61 		.ascii	"float\000"
 13450      7400
 13451              	.LASF30:
 13452 0225 74707269 		.ascii	"tprio_t\000"
 13452      6F5F7400 
 13453              	.LASF0:
 13454 022d 6C6F6E67 		.ascii	"long long unsigned int\000"
 13454      206C6F6E 
 13454      6720756E 
 13454      7369676E 
 13454      65642069 
 13455              	.LASF86:
 13456 0244 7466756E 		.ascii	"tfunc_t\000"
 13456      635F7400 
 13457              	.LASF217:
 13458 024c 4F6C6456 		.ascii	"OldValues\000"
 13458      616C7565 
 13458      7300
 13459              	.LASF164:
 13460 0256 43414C43 		.ascii	"CALC_MOTOR_POWER\000"
 13460      5F4D4F54 
 13460      4F525F50 
 13460      4F574552 
 13460      00
 13461              	.LASF254:
ARM GAS  C:\Users\srich\AppData\Local\Temp\ccv3JVxh.s 			page 240


 13462 0267 443A5C47 		.ascii	"D:\\GitHub\\Smarty\\smarty\\firmware\000"
 13462      69744875 
 13462      625C536D 
 13462      61727479 
 13462      5C736D61 
 13463              	.LASF183:
 13464 0288 66696C6C 		.ascii	"fill\000"
 13464      00
 13465              	.LASF145:
 13466 028d 6176675F 		.ascii	"avg_cell_voltage\000"
 13466      63656C6C 
 13466      5F766F6C 
 13466      74616765 
 13466      00
 13467              	.LASF157:
 13468 029e 7061636B 		.ascii	"pack_open_voltage\000"
 13468      5F6F7065 
 13468      6E5F766F 
 13468      6C746167 
 13468      6500
 13469              	.LASF134:
 13470 02b0 626D7349 		.ascii	"bmsItems\000"
 13470      74656D73 
 13470      00
 13471              	.LASF91:
 13472 02b9 42617365 		.ascii	"BaseChannelVMT\000"
 13472      4368616E 
 13472      6E656C56 
 13472      4D5400
 13473              	.LASF234:
 13474 02c8 6D656469 		.ascii	"media_VideoFrame\000"
 13474      615F5669 
 13474      64656F46 
 13474      72616D65 
 13474      00
 13475              	.LASF9:
 13476 02d9 5F5F7569 		.ascii	"__uint16_t\000"
 13476      6E743136 
 13476      5F7400
 13477              	.LASF185:
 13478 02e4 64696769 		.ascii	"digits\000"
 13478      747300
 13479              	.LASF102:
 13480 02eb 6473704D 		.ascii	"dspMessages\000"
 13480      65737361 
 13480      67657300 
 13481              	.LASF176:
 13482 02f7 74696D65 		.ascii	"time\000"
 13482      00
 13483              	.LASF150:
 13484 02fc 6D617869 		.ascii	"maximum_cell\000"
 13484      6D756D5F 
 13484      63656C6C 
 13484      00
 13485              	.LASF192:
 13486 0309 49735365 		.ascii	"IsSensorConnected\000"
 13486      6E736F72 
ARM GAS  C:\Users\srich\AppData\Local\Temp\ccv3JVxh.s 			page 241


 13486      436F6E6E 
 13486      65637465 
 13486      6400
 13487              	.LASF39:
 13488 031b 705F6E65 		.ascii	"p_newer\000"
 13488      77657200 
 13489              	.LASF178:
 13490 0323 76616C75 		.ascii	"value\000"
 13490      6500
 13491              	.LASF202:
 13492 0329 6D656173 		.ascii	"measGetValue_2\000"
 13492      47657456 
 13492      616C7565 
 13492      5F3200
 13493              	.LASF130:
 13494 0338 5F5F676E 		.ascii	"__gnuc_va_list\000"
 13494      75635F76 
 13494      615F6C69 
 13494      737400
 13495              	.LASF92:
 13496 0347 70757474 		.ascii	"putt\000"
 13496      00
 13497              	.LASF103:
 13498 034c 4453505F 		.ascii	"DSP_BALINDEX\000"
 13498      42414C49 
 13498      4E444558 
 13498      00
 13499              	.LASF2:
 13500 0359 73697A65 		.ascii	"size_t\000"
 13500      5F7400
 13501              	.LASF81:
 13502 0360 7264796D 		.ascii	"rdymsg\000"
 13502      736700
 13503              	.LASF180:
 13504 0367 78313030 		.ascii	"x100\000"
 13504      00
 13505              	.LASF224:
 13506 036c 77614453 		.ascii	"waDSPReader\000"
 13506      50526561 
 13506      64657200 
 13507              	.LASF236:
 13508 0378 6766785F 		.ascii	"gfx_TransparentColour\000"
 13508      5472616E 
 13508      73706172 
 13508      656E7443 
 13508      6F6C6F75 
 13509              	.LASF195:
 13510 038e 4E756D62 		.ascii	"NumberDataBinding\000"
 13510      65724461 
 13510      74614269 
 13510      6E64696E 
 13510      6700
 13511              	.LASF235:
 13512 03a0 6766785F 		.ascii	"gfx_Transparency\000"
 13512      5472616E 
 13512      73706172 
 13512      656E6379 
ARM GAS  C:\Users\srich\AppData\Local\Temp\ccv3JVxh.s 			page 242


 13512      00
 13513              	.LASF98:
 13514 03b1 4D454153 		.ascii	"MEAS2_THROTTLE\000"
 13514      325F5448 
 13514      524F5454 
 13514      4C4500
 13515              	.LASF25:
 13516 03c0 5F426F6F 		.ascii	"_Bool\000"
 13516      6C00
 13517              	.LASF141:
 13518 03c6 61766572 		.ascii	"average_temp\000"
 13518      6167655F 
 13518      74656D70 
 13518      00
 13519              	.LASF230:
 13520 03d3 63685468 		.ascii	"chThdSleepUntil\000"
 13520      64536C65 
 13520      6570556E 
 13520      74696C00 
 13521              	.LASF158:
 13522 03e3 54697265 		.ascii	"TirePressureStructure\000"
 13522      50726573 
 13522      73757265 
 13522      53747275 
 13522      63747572 
 13523              	.LASF168:
 13524 03f9 54656D70 		.ascii	"Temp\000"
 13524      00
 13525              	.LASF16:
 13526 03fe 5F5F7569 		.ascii	"__uint64_t\000"
 13526      6E743634 
 13526      5F7400
 13527              	.LASF125:
 13528 0409 4453505F 		.ascii	"DSP_TOLTES\000"
 13528      544F4C54 
 13528      455300
 13529              	.LASF182:
 13530 0414 6D617864 		.ascii	"maxdigit\000"
 13530      69676974 
 13530      00
 13531              	.LASF77:
 13532 041d 4D757465 		.ascii	"Mutex\000"
 13532      7800
 13533              	.LASF223:
 13534 0423 77614453 		.ascii	"waDSPThread\000"
 13534      50546872 
 13534      65616400 
 13535              	.LASF256:
 13536 042f 63687072 		.ascii	"chprintf\000"
 13536      696E7466 
 13536      00
 13537              	.LASF215:
 13538 0438 61726776 		.ascii	"argv\000"
 13538      00
 13539              	.LASF238:
 13540 043d 6765744C 		.ascii	"getLightFlashing\000"
 13540      69676874 
ARM GAS  C:\Users\srich\AppData\Local\Temp\ccv3JVxh.s 			page 243


 13540      466C6173 
 13540      68696E67 
 13540      00
 13541              	.LASF173:
 13542 044e 4672616D 		.ascii	"FrameNumber\000"
 13542      654E756D 
 13542      62657200 
 13543              	.LASF41:
 13544 045a 705F6E61 		.ascii	"p_name\000"
 13544      6D6500
 13545              	.LASF90:
 13546 0461 42617365 		.ascii	"BaseSequentialStream\000"
 13546      53657175 
 13546      656E7469 
 13546      616C5374 
 13546      7265616D 
 13547              	.LASF54:
 13548 0476 54687265 		.ascii	"ThreadsQueue\000"
 13548      61647351 
 13548      75657565 
 13548      00
 13549              	.LASF85:
 13550 0483 63686172 		.ascii	"char\000"
 13550      00
 13551              	.LASF257:
 13552 0488 436F6E76 		.ascii	"ConvertToBcd\000"
 13552      65727454 
 13552      6F426364 
 13552      00
 13553              	.LASF196:
 13554 0495 73706565 		.ascii	"speedGetSpeed\000"
 13554      64476574 
 13554      53706565 
 13554      6400
 13555              	.LASF73:
 13556 04a3 725F6E65 		.ascii	"r_newer\000"
 13556      77657200 
 13557              	.LASF34:
 13558 04ab 54687265 		.ascii	"Thread\000"
 13558      616400
 13559              	.LASF221:
 13560 04b2 5450426C 		.ascii	"TPBlinker\000"
 13560      696E6B65 
 13560      7200
 13561              	.LASF111:
 13562 04bc 4453505F 		.ascii	"DSP_LIGHT\000"
 13562      4C494748 
 13562      5400
 13563              	.LASF105:
 13564 04c6 4453505F 		.ascii	"DSP_TIME_H\000"
 13564      54494D45 
 13564      5F4800
 13565              	.LASF138:
 13566 04d1 7061636B 		.ascii	"pack_healt\000"
 13566      5F686561 
 13566      6C7400
 13567              	.LASF108:
ARM GAS  C:\Users\srich\AppData\Local\Temp\ccv3JVxh.s 			page 244


 13568 04dc 4453505F 		.ascii	"DSP_TIREPRESSURE\000"
 13568      54495245 
 13568      50524553 
 13568      53555245 
 13568      00
 13569              	.LASF172:
 13570 04ed 73656374 		.ascii	"sector\000"
 13570      6F7200
 13571              	.LASF40:
 13572 04f4 705F6F6C 		.ascii	"p_older\000"
 13572      64657200 
 13573              	.LASF186:
 13574 04fc 6766785F 		.ascii	"gfx_PlaceNumber\000"
 13574      506C6163 
 13574      654E756D 
 13574      62657200 
 13575              	.LASF137:
 13576 050c 7061636B 		.ascii	"pack_soc\000"
 13576      5F736F63 
 13576      00
 13577              	.LASF165:
 13578 0515 43414C43 		.ascii	"CALC_SUN_POWER\000"
 13578      5F53554E 
 13578      5F504F57 
 13578      455200
 13579              	.LASF18:
 13580 0524 75696E74 		.ascii	"uint8_t\000"
 13580      385F7400 
 13581              	.LASF96:
 13582 052c 42617365 		.ascii	"BaseChannel\000"
 13582      4368616E 
 13582      6E656C00 
 13583              	.LASF124:
 13584 0538 4453505F 		.ascii	"DSP_DISTANCE\000"
 13584      44495354 
 13584      414E4345 
 13584      00
 13585              	.LASF133:
 13586 0545 74696D65 		.ascii	"time_t\000"
 13586      5F7400
 13587              	.LASF152:
 13588 054c 6D696E69 		.ascii	"minimum_cell\000"
 13588      6D756D5F 
 13588      63656C6C 
 13588      00
 13589              	.LASF159:
 13590 0559 70726573 		.ascii	"pressure\000"
 13590      73757265 
 13590      00
 13591              	.LASF53:
 13592 0562 705F6D70 		.ascii	"p_mpool\000"
 13592      6F6F6C00 
 13593              	.LASF247:
 13594 056a 6766785F 		.ascii	"gfx_Cls\000"
 13594      436C7300 
 13595              	.LASF51:
 13596 0572 705F6D74 		.ascii	"p_mtxlist\000"
ARM GAS  C:\Users\srich\AppData\Local\Temp\ccv3JVxh.s 			page 245


 13596      786C6973 
 13596      7400
 13597              	.LASF42:
 13598 057c 705F7374 		.ascii	"p_state\000"
 13598      61746500 
 13599              	.LASF143:
 13600 0584 6C6F775F 		.ascii	"low_cell_volt\000"
 13600      63656C6C 
 13600      5F766F6C 
 13600      7400
 13601              	.LASF171:
 13602 0592 76615F6C 		.ascii	"va_list\000"
 13602      69737400 
 13603              	.LASF15:
 13604 059a 6C6F6E67 		.ascii	"long long int\000"
 13604      206C6F6E 
 13604      6720696E 
 13604      7400
 13605              	.LASF88:
 13606 05a8 77726974 		.ascii	"write\000"
 13606      6500
 13607              	.LASF117:
 13608 05ae 4453505F 		.ascii	"DSP_SUNPOWER\000"
 13608      53554E50 
 13608      4F574552 
 13608      00
 13609              	.LASF70:
 13610 05bb 725F7175 		.ascii	"r_queue\000"
 13610      65756500 
 13611              	.LASF31:
 13612 05c3 6D73675F 		.ascii	"msg_t\000"
 13612      7400
 13613              	.LASF135:
 13614 05c9 63757374 		.ascii	"custom_flag_1\000"
 13614      6F6D5F66 
 13614      6C61675F 
 13614      3100
 13615              	.LASF151:
 13616 05d7 63757374 		.ascii	"custom_flag_2\000"
 13616      6F6D5F66 
 13616      6C61675F 
 13616      3200
 13617              	.LASF174:
 13618 05e5 6766785F 		.ascii	"gfx_ShowGifXY\000"
 13618      53686F77 
 13618      47696658 
 13618      5900
 13619              	.LASF59:
 13620 05f3 636F6E74 		.ascii	"context\000"
 13620      65787400 
 13621              	.LASF191:
 13622 05fb 54697265 		.ascii	"TireLeakDetected\000"
 13622      4C65616B 
 13622      44657465 
 13622      63746564 
 13622      00
 13623              	.LASF188:
ARM GAS  C:\Users\srich\AppData\Local\Temp\ccv3JVxh.s 			page 246


 13624 060c 6E65775F 		.ascii	"new_val\000"
 13624      76616C00 
 13625              	.LASF148:
 13626 0614 7061636B 		.ascii	"pack_ccl\000"
 13626      5F63636C 
 13626      00
 13627              	.LASF43:
 13628 061d 705F666C 		.ascii	"p_flags\000"
 13628      61677300 
 13629              	.LASF7:
 13630 0625 5F5F696E 		.ascii	"__int16_t\000"
 13630      7431365F 
 13630      7400
 13631              	.LASF24:
 13632 062f 626F6F6C 		.ascii	"bool_t\000"
 13632      5F7400
 13633              	.LASF233:
 13634 0636 6D656469 		.ascii	"media_SetSector\000"
 13634      615F5365 
 13634      74536563 
 13634      746F7200 
 13635              	.LASF206:
 13636 0646 4F6E4F72 		.ascii	"OnOrOff\000"
 13636      4F666600 
 13637              	.LASF252:
 13638 064e 474E5520 		.ascii	"GNU C 4.9.3 20150529 (release) [ARM/embedded-4_9-br"
 13638      4320342E 
 13638      392E3320 
 13638      32303135 
 13638      30353239 
 13639 0681 616E6368 		.ascii	"anch revision 227977] -mcpu=cortex-m4 -mno-thumb-in"
 13639      20726576 
 13639      6973696F 
 13639      6E203232 
 13639      37393737 
 13640 06b4 74657277 		.ascii	"terwork -mthumb -ggdb -O2 -fomit-frame-pointer -fal"
 13640      6F726B20 
 13640      2D6D7468 
 13640      756D6220 
 13640      2D676764 
 13641 06e7 69676E2D 		.ascii	"ign-functions=16 -ffunction-sections -fdata-section"
 13641      66756E63 
 13641      74696F6E 
 13641      733D3136 
 13641      202D6666 
 13642 071a 73202D66 		.ascii	"s -fno-common\000"
 13642      6E6F2D63 
 13642      6F6D6D6F 
 13642      6E00
 13643              	.LASF163:
 13644 0728 63616C63 		.ascii	"calcChannels\000"
 13644      4368616E 
 13644      6E656C73 
 13644      00
 13645              	.LASF220:
 13646 0735 626C696E 		.ascii	"blinker\000"
 13646      6B657200 
ARM GAS  C:\Users\srich\AppData\Local\Temp\ccv3JVxh.s 			page 247


 13647              	.LASF199:
 13648 073d 4765744D 		.ascii	"GetMeterCounter\000"
 13648      65746572 
 13648      436F756E 
 13648      74657200 
 13649              	.LASF29:
 13650 074d 74736C69 		.ascii	"tslices_t\000"
 13650      6365735F 
 13650      7400
 13651              	.LASF74:
 13652 0757 725F6F6C 		.ascii	"r_older\000"
 13652      64657200 
 13653              	.LASF208:
 13654 075f 52656672 		.ascii	"RefreshPiktograms\000"
 13654      65736850 
 13654      696B746F 
 13654      6772616D 
 13654      7300
 13655              	.LASF216:
 13656 0771 76616C75 		.ascii	"values\000"
 13656      657300
 13657              	.LASF250:
 13658 0778 66696C65 		.ascii	"file_Mount\000"
 13658      5F4D6F75 
 13658      6E7400
 13659              	.LASF251:
 13660 0783 63685468 		.ascii	"chThdCreateStatic\000"
 13660      64437265 
 13660      61746553 
 13660      74617469 
 13660      6300
 13661              	.LASF219:
 13662 0795 4D65726C 		.ascii	"MerlegPower\000"
 13662      6567506F 
 13662      77657200 
 13663              	.LASF214:
 13664 07a1 61726763 		.ascii	"argc\000"
 13664      00
 13665              	.LASF49:
 13666 07a6 705F6D73 		.ascii	"p_msg\000"
 13666      6700
 13667              	.LASF3:
 13668 07ac 5F5F696E 		.ascii	"__int8_t\000"
 13668      74385F74 
 13668      00
 13669              	.LASF26:
 13670 07b5 746D6F64 		.ascii	"tmode_t\000"
 13670      655F7400 
 13671              	.LASF212:
 13672 07bd 64737049 		.ascii	"dspInit\000"
 13672      6E697400 
 13673              	.LASF193:
 13674 07c5 50726573 		.ascii	"PressFault\000"
 13674      73466175 
 13674      6C7400
 13675              	.LASF229:
 13676 07d0 54697265 		.ascii	"TirePressures\000"
ARM GAS  C:\Users\srich\AppData\Local\Temp\ccv3JVxh.s 			page 248


 13676      50726573 
 13676      73757265 
 13676      7300
 13677              	.LASF52:
 13678 07de 705F7265 		.ascii	"p_realprio\000"
 13678      616C7072 
 13678      696F00
 13679              	.LASF10:
 13680 07e9 73686F72 		.ascii	"short unsigned int\000"
 13680      7420756E 
 13680      7369676E 
 13680      65642069 
 13680      6E7400
 13681              	.LASF129:
 13682 07fc 6C6F6E67 		.ascii	"long double\000"
 13682      20646F75 
 13682      626C6500 
 13683              	.LASF118:
 13684 0808 4453505F 		.ascii	"DSP_MERLEGWATT\000"
 13684      4D45524C 
 13684      45475741 
 13684      545400
 13685              	.LASF20:
 13686 0817 75696E74 		.ascii	"uint16_t\000"
 13686      31365F74 
 13686      00
 13687              	.LASF119:
 13688 0820 4453505F 		.ascii	"DSP_MERLEGJEL\000"
 13688      4D45524C 
 13688      45474A45 
 13688      4C00
 13689              	.LASF58:
 13690 082e 696E7463 		.ascii	"intctx\000"
 13690      747800
 13691              	.LASF179:
 13692 0835 78313030 		.ascii	"x1000\000"
 13692      3000
 13693              	.LASF170:
 13694 083b 6E6D6561 		.ascii	"nmeaPosition_t\000"
 13694      506F7369 
 13694      74696F6E 
 13694      5F7400
 13695              	.LASF110:
 13696 084a 4453505F 		.ascii	"DSP_HIBA\000"
 13696      48494241 
 13696      00
 13697              	.LASF175:
 13698 0853 6766785F 		.ascii	"gfx_ShowPngXY\000"
 13698      53686F77 
 13698      506E6758 
 13698      5900
 13699              	.LASF245:
 13700 0861 6766785F 		.ascii	"gfx_Contrast\000"
 13700      436F6E74 
 13700      72617374 
 13700      00
 13701              	.LASF249:
ARM GAS  C:\Users\srich\AppData\Local\Temp\ccv3JVxh.s 			page 249


 13702 086e 53657269 		.ascii	"SerialInit\000"
 13702      616C496E 
 13702      697400
 13703              	.LASF147:
 13704 0879 746F7461 		.ascii	"total_pack_cycle\000"
 13704      6C5F7061 
 13704      636B5F63 
 13704      79636C65 
 13704      00
 13705              	.LASF156:
 13706 088a 66616E5F 		.ascii	"fan_speed\000"
 13706      73706565 
 13706      6400
 13707              	.LASF8:
 13708 0894 73686F72 		.ascii	"short int\000"
 13708      7420696E 
 13708      7400
 13709              	.LASF75:
 13710 089e 725F6375 		.ascii	"r_current\000"
 13710      7272656E 
 13710      7400
 13711              	.LASF50:
 13712 08a8 705F6570 		.ascii	"p_epending\000"
 13712      656E6469 
 13712      6E6700
 13713              	.LASF99:
 13714 08b3 4D454153 		.ascii	"MEAS2_REGEN_BRAKE\000"
 13714      325F5245 
 13714      47454E5F 
 13714      4252414B 
 13714      4500
 13715              	.LASF213:
 13716 08c5 636D645F 		.ascii	"cmd_dspvalues\000"
 13716      64737076 
 13716      616C7565 
 13716      7300
 13717              	.LASF12:
 13718 08d3 6C6F6E67 		.ascii	"long int\000"
 13718      20696E74 
 13718      00
 13719              	.LASF222:
 13720 08dc 6275735F 		.ascii	"bus_status\000"
 13720      73746174 
 13720      757300
 13721              	.LASF239:
 13722 08e7 6275735F 		.ascii	"bus_Read\000"
 13722      52656164 
 13722      00
 13723              	.LASF227:
 13724 08f0 49544D5F 		.ascii	"ITM_RxBuffer\000"
 13724      52784275 
 13724      66666572 
 13724      00
 13725              	.LASF136:
 13726 08fd 7061636B 		.ascii	"pack_inst_volt\000"
 13726      5F696E73 
 13726      745F766F 
ARM GAS  C:\Users\srich\AppData\Local\Temp\ccv3JVxh.s 			page 250


 13726      6C7400
 13727              	.LASF19:
 13728 090c 696E7431 		.ascii	"int16_t\000"
 13728      365F7400 
 13729              	.LASF115:
 13730 0914 4453505F 		.ascii	"DSP_MOTORPOWER\000"
 13730      4D4F544F 
 13730      52504F57 
 13730      455200
 13731              	.LASF181:
 13732 0923 64697374 		.ascii	"distance\000"
 13732      616E6365 
 13732      00
 13733              	.LASF104:
 13734 092c 4453505F 		.ascii	"DSP_JOBBINDEX\000"
 13734      4A4F4242 
 13734      494E4445 
 13734      5800
 13735              	.LASF177:
 13736 093a 74656D70 		.ascii	"temp\000"
 13736      00
 13737              	.LASF207:
 13738 093f 52654472 		.ascii	"ReDrawLcd\000"
 13738      61774C63 
 13738      6400
 13739              	.LASF240:
 13740 0949 63727569 		.ascii	"cruiseStatus\000"
 13740      73655374 
 13740      61747573 
 13740      00
 13741              	.LASF35:
 13742 0956 705F6E65 		.ascii	"p_next\000"
 13742      787400
 13743              	.LASF237:
 13744 095d 64726177 		.ascii	"draw_line\000"
 13744      5F6C696E 
 13744      6500
 13745              	.LASF23:
 13746 0967 75696E74 		.ascii	"uint64_t\000"
 13746      36345F74 
 13746      00
 13747              	.LASF38:
 13748 0970 705F6374 		.ascii	"p_ctx\000"
 13748      7800
 13749              	.LASF184:
 13750 0976 6F726967 		.ascii	"orig_y\000"
 13750      5F7900
 13751              	.LASF226:
 13752 097d 726C6973 		.ascii	"rlist\000"
 13752      7400
 13753              	.LASF97:
 13754 0983 4D454153 		.ascii	"MEAS2_CURR1\000"
 13754      325F4355 
 13754      52523100 
 13755              	.LASF69:
 13756 098f 56544C69 		.ascii	"VTList\000"
 13756      737400
ARM GAS  C:\Users\srich\AppData\Local\Temp\ccv3JVxh.s 			page 251


 13757              	.LASF62:
 13758 0996 56697274 		.ascii	"VirtualTimer\000"
 13758      75616C54 
 13758      696D6572 
 13758      00
 13759              	.LASF5:
 13760 09a3 5F5F7569 		.ascii	"__uint8_t\000"
 13760      6E74385F 
 13760      7400
 13761              	.LASF89:
 13762 09ad 72656164 		.ascii	"read\000"
 13762      00
 13763              	.LASF244:
 13764 09b2 63727569 		.ascii	"cruiseGet\000"
 13764      73654765 
 13764      7400
 13765              	.LASF121:
 13766 09bc 4453505F 		.ascii	"DSP_TEMPOMATJEL\000"
 13766      54454D50 
 13766      4F4D4154 
 13766      4A454C00 
 13767              	.LASF112:
 13768 09cc 4453505F 		.ascii	"DSP_GPS\000"
 13768      47505300 
 13769              	.LASF201:
 13770 09d4 47617567 		.ascii	"GaugeDataBinding\000"
 13770      65446174 
 13770      6142696E 
 13770      64696E67 
 13770      00
 13771              	.LASF36:
 13772 09e5 705F7072 		.ascii	"p_prev\000"
 13772      657600
 13773              	.LASF60:
 13774 09ec 73697A65 		.ascii	"sizetype\000"
 13774      74797065 
 13774      00
 13775              	.LASF28:
 13776 09f5 74726566 		.ascii	"trefs_t\000"
 13776      735F7400 
 13777              	.LASF106:
 13778 09fd 4453505F 		.ascii	"DSP_TIME_M\000"
 13778      54494D45 
 13778      5F4D00
 13779              	.LASF14:
 13780 0a08 6C6F6E67 		.ascii	"long unsigned int\000"
 13780      20756E73 
 13780      69676E65 
 13780      6420696E 
 13780      7400
 13781              	.LASF107:
 13782 0a1a 4453505F 		.ascii	"DSP_TIME_S\000"
 13782      54494D45 
 13782      5F5300
 13783              	.LASF200:
 13784 0a25 4765744B 		.ascii	"GetKmeterDistance\000"
 13784      6D657465 
ARM GAS  C:\Users\srich\AppData\Local\Temp\ccv3JVxh.s 			page 252


 13784      72446973 
 13784      74616E63 
 13784      6500
 13785              	.LASF169:
 13786 0a37 546F6632 		.ascii	"Tof2\000"
 13786      00
 13787              	.LASF21:
 13788 0a3c 696E7433 		.ascii	"int32_t\000"
 13788      325F7400 
 13789              	.LASF27:
 13790 0a44 74737461 		.ascii	"tstate_t\000"
 13790      74655F74 
 13790      00
 13791              	.LASF197:
 13792 0a4d 64617973 		.ascii	"dayseconds\000"
 13792      65636F6E 
 13792      647300
 13793              	.LASF6:
 13794 0a58 756E7369 		.ascii	"unsigned char\000"
 13794      676E6564 
 13794      20636861 
 13794      7200
 13795              	.LASF13:
 13796 0a66 5F5F7569 		.ascii	"__uint32_t\000"
 13796      6E743332 
 13796      5F7400
 13797              	.LASF146:
 13798 0a71 7061636B 		.ascii	"pack_current\000"
 13798      5F637572 
 13798      72656E74 
 13798      00
 13799              	.LASF44:
 13800 0a7e 705F7265 		.ascii	"p_refs\000"
 13800      667300
 13801              	.LASF76:
 13802 0a85 52656164 		.ascii	"ReadyList\000"
 13802      794C6973 
 13802      7400
 13803              	.LASF190:
 13804 0a8f 4973496E 		.ascii	"IsInCharge\000"
 13804      43686172 
 13804      676500
 13805              	.LASF246:
 13806 0a9a 63685468 		.ascii	"chThdSleep\000"
 13806      64536C65 
 13806      657000
 13807              	.LASF153:
 13808 0aa5 68696768 		.ascii	"high_cell_volt_num\000"
 13808      5F63656C 
 13808      6C5F766F 
 13808      6C745F6E 
 13808      756D00
 13809              	.LASF205:
 13810 0ab8 44697370 		.ascii	"DisplayOnOff\000"
 13810      6C61794F 
 13810      6E4F6666 
 13810      00
ARM GAS  C:\Users\srich\AppData\Local\Temp\ccv3JVxh.s 			page 253


 13811              	.LASF45:
 13812 0ac5 705F7072 		.ascii	"p_preempt\000"
 13812      65656D70 
 13812      7400
 13813              	.LASF57:
 13814 0acf 73746B61 		.ascii	"stkalign_t\000"
 13814      6C69676E 
 13814      5F7400
 13815              	.LASF189:
 13816 0ada 73617465 		.ascii	"satellites\000"
 13816      6C6C6974 
 13816      657300
 13817              	.LASF63:
 13818 0ae5 76745F6E 		.ascii	"vt_next\000"
 13818      65787400 
 13819              	.LASF113:
 13820 0aed 4453505F 		.ascii	"DSP_MERLEGGRAF\000"
 13820      4D45524C 
 13820      45474752 
 13820      414600
 13821              	.LASF100:
 13822 0afc 4D454153 		.ascii	"MEAS2_NUM_CH\000"
 13822      325F4E55 
 13822      4D5F4348 
 13822      00
 13823              	.LASF132:
 13824 0b09 5F5F6170 		.ascii	"__ap\000"
 13824      00
 13825              	.LASF162:
 13826 0b0e 54697265 		.ascii	"TirePressureThresholdDetection\000"
 13826      50726573 
 13826      73757265 
 13826      54687265 
 13826      73686F6C 
 13827              	.LASF258:
 13828 0b2d 64737047 		.ascii	"dspGetValue\000"
 13828      65745661 
 13828      6C756500 
 13829              	.LASF114:
 13830 0b39 4453505F 		.ascii	"DSP_KMORA\000"
 13830      4B4D4F52 
 13830      4100
 13831              	.LASF80:
 13832 0b43 6D5F6E65 		.ascii	"m_next\000"
 13832      787400
 13833              	.LASF139:
 13834 0b4a 7061636B 		.ascii	"pack_amps\000"
 13834      5F616D70 
 13834      7300
 13835              	.LASF4:
 13836 0b54 7369676E 		.ascii	"signed char\000"
 13836      65642063 
 13836      68617200 
 13837              	.LASF95:
 13838 0b60 72656164 		.ascii	"readt\000"
 13838      7400
 13839              	.LASF144:
ARM GAS  C:\Users\srich\AppData\Local\Temp\ccv3JVxh.s 			page 254


 13840 0b66 68696768 		.ascii	"high_cell_volt\000"
 13840      5F63656C 
 13840      6C5F766F 
 13840      6C7400
 13841              	.LASF72:
 13842 0b75 725F6374 		.ascii	"r_ctx\000"
 13842      7800
 13843              	.LASF149:
 13844 0b7b 7061636B 		.ascii	"pack_dcl\000"
 13844      5F64636C 
 13844      00
 13845              	.LASF194:
 13846 0b84 4C6F6164 		.ascii	"LoadImages\000"
 13846      496D6167 
 13846      657300
 13847              	.LASF242:
 13848 0b8f 6E6D6561 		.ascii	"nmeaGetCurrentPosition\000"
 13848      47657443 
 13848      75727265 
 13848      6E74506F 
 13848      73697469 
 13849              	.LASF66:
 13850 0ba6 76745F66 		.ascii	"vt_func\000"
 13850      756E6300 
 13851              	.LASF127:
 13852 0bae 646F7562 		.ascii	"double\000"
 13852      6C6500
 13853              	.LASF64:
 13854 0bb5 76745F70 		.ascii	"vt_prev\000"
 13854      72657600 
 13855              	.LASF116:
 13856 0bbd 4453505F 		.ascii	"DSP_AKKUSOC\000"
 13856      414B4B55 
 13856      534F4300 
 13857              	.LASF255:
 13858 0bc9 52656672 		.ascii	"RefreshGauge\000"
 13858      65736847 
 13858      61756765 
 13858      00
 13859              	.LASF167:
 13860 0bd6 43414C43 		.ascii	"CALC_NUM_CH\000"
 13860      5F4E554D 
 13860      5F434800 
 13861              	.LASF122:
 13862 0be2 4453505F 		.ascii	"DSP_FEK\000"
 13862      46454B00 
 13863              	.LASF142:
 13864 0bea 696E7465 		.ascii	"internal_temp\000"
 13864      726E616C 
 13864      5F74656D 
 13864      7000
 13865              	.LASF154:
 13866 0bf8 6C6F775F 		.ascii	"low_cell_volt_num\000"
 13866      63656C6C 
 13866      5F766F6C 
 13866      745F6E75 
 13866      6D00
ARM GAS  C:\Users\srich\AppData\Local\Temp\ccv3JVxh.s 			page 255


 13867              	.LASF82:
 13868 0c0a 65786974 		.ascii	"exitcode\000"
 13868      636F6465 
 13868      00
 13869              	.LASF198:
 13870 0c13 6D657465 		.ascii	"meter\000"
 13870      7200
 13871              	.LASF155:
 13872 0c19 73757070 		.ascii	"supply_12v\000"
 13872      6C795F31 
 13872      327600
 13873              		.ident	"GCC: (GNU Tools for ARM Embedded Processors) 4.9.3 20150529 (release) [ARM/embedded-4_9-br
ARM GAS  C:\Users\srich\AppData\Local\Temp\ccv3JVxh.s 			page 256


DEFINED SYMBOLS
                            *ABS*:00000000 dsp.c
C:\Users\srich\AppData\Local\Temp\ccv3JVxh.s:19     .text.DSPReader:00000000 $t
C:\Users\srich\AppData\Local\Temp\ccv3JVxh.s:24     .text.DSPReader:00000000 DSPReader
C:\Users\srich\AppData\Local\Temp\ccv3JVxh.s:76     .text.DSPReader:00000024 $d
C:\Users\srich\AppData\Local\Temp\ccv3JVxh.s:84     .text.chprintf:00000000 $t
C:\Users\srich\AppData\Local\Temp\ccv3JVxh.s:89     .text.chprintf:00000000 chprintf
C:\Users\srich\AppData\Local\Temp\ccv3JVxh.s:132    .text.gfx_ShowPngXY:00000000 $t
C:\Users\srich\AppData\Local\Temp\ccv3JVxh.s:138    .text.gfx_ShowPngXY:00000000 gfx_ShowPngXY
C:\Users\srich\AppData\Local\Temp\ccv3JVxh.s:179    .text.gfx_ShowGifXY:00000000 $t
C:\Users\srich\AppData\Local\Temp\ccv3JVxh.s:185    .text.gfx_ShowGifXY:00000000 gfx_ShowGifXY
C:\Users\srich\AppData\Local\Temp\ccv3JVxh.s:228    .text.ConvertToBcd:00000000 $t
C:\Users\srich\AppData\Local\Temp\ccv3JVxh.s:234    .text.ConvertToBcd:00000000 ConvertToBcd
C:\Users\srich\AppData\Local\Temp\ccv3JVxh.s:349    .text.ConvertToBcd:0000006c $d
C:\Users\srich\AppData\Local\Temp\ccv3JVxh.s:357    .text.gfx_PlaceNumber:00000000 $t
C:\Users\srich\AppData\Local\Temp\ccv3JVxh.s:363    .text.gfx_PlaceNumber:00000000 gfx_PlaceNumber
C:\Users\srich\AppData\Local\Temp\ccv3JVxh.s:531    .text.LoadImages:00000000 $t
C:\Users\srich\AppData\Local\Temp\ccv3JVxh.s:537    .text.LoadImages:00000000 LoadImages
C:\Users\srich\AppData\Local\Temp\ccv3JVxh.s:1079   .text.LoadImages:00000308 $d
C:\Users\srich\AppData\Local\Temp\ccv3JVxh.s:1084   .text.PictogramDataBinding:00000000 $t
C:\Users\srich\AppData\Local\Temp\ccv3JVxh.s:1090   .text.PictogramDataBinding:00000000 PictogramDataBinding
C:\Users\srich\AppData\Local\Temp\ccv3JVxh.s:1321   .text.PictogramDataBinding:000000f0 $d
C:\Users\srich\AppData\Local\Temp\ccv3JVxh.s:1332   .text.NumberDataBinding:00000000 $t
C:\Users\srich\AppData\Local\Temp\ccv3JVxh.s:1338   .text.NumberDataBinding:00000000 NumberDataBinding
C:\Users\srich\AppData\Local\Temp\ccv3JVxh.s:1485   .text.NumberDataBinding:000000c4 $d
C:\Users\srich\AppData\Local\Temp\ccv3JVxh.s:1503   .text.GaugeDataBinding:00000000 $t
C:\Users\srich\AppData\Local\Temp\ccv3JVxh.s:1509   .text.GaugeDataBinding:00000000 GaugeDataBinding
C:\Users\srich\AppData\Local\Temp\ccv3JVxh.s:1635   .text.GaugeDataBinding:000000a8 $d
C:\Users\srich\AppData\Local\Temp\ccv3JVxh.s:1650   .text.RefreshNumbers:00000000 $t
C:\Users\srich\AppData\Local\Temp\ccv3JVxh.s:1656   .text.RefreshNumbers:00000000 RefreshNumbers
C:\Users\srich\AppData\Local\Temp\ccv3JVxh.s:1929   .text.RefreshNumbers:000001b8 $d
C:\Users\srich\AppData\Local\Temp\ccv3JVxh.s:1935   .text.RefreshTempomatNumber:00000000 $t
C:\Users\srich\AppData\Local\Temp\ccv3JVxh.s:1941   .text.RefreshTempomatNumber:00000000 RefreshTempomatNumber
C:\Users\srich\AppData\Local\Temp\ccv3JVxh.s:1992   .text.RefreshTempomatNumber:00000034 $d
C:\Users\srich\AppData\Local\Temp\ccv3JVxh.s:1998   .text.RefreshGauge:00000000 $t
C:\Users\srich\AppData\Local\Temp\ccv3JVxh.s:2004   .text.RefreshGauge:00000000 RefreshGauge
C:\Users\srich\AppData\Local\Temp\ccv3JVxh.s:2095   .text.RefreshGauge:00000060 $d
C:\Users\srich\AppData\Local\Temp\ccv3JVxh.s:2103   .text.dspGetValue:00000000 $t
C:\Users\srich\AppData\Local\Temp\ccv3JVxh.s:2109   .text.dspGetValue:00000000 dspGetValue
C:\Users\srich\AppData\Local\Temp\ccv3JVxh.s:2124   .text.dspGetValue:00000008 $d
C:\Users\srich\AppData\Local\Temp\ccv3JVxh.s:2129   .text.DisplayOnOff:00000000 $t
C:\Users\srich\AppData\Local\Temp\ccv3JVxh.s:2135   .text.DisplayOnOff:00000000 DisplayOnOff
C:\Users\srich\AppData\Local\Temp\ccv3JVxh.s:2181   .text.ReDrawLcd:00000000 $t
C:\Users\srich\AppData\Local\Temp\ccv3JVxh.s:2187   .text.ReDrawLcd:00000000 ReDrawLcd
C:\Users\srich\AppData\Local\Temp\ccv3JVxh.s:2222   .text.ReDrawLcd:00000020 $d
C:\Users\srich\AppData\Local\Temp\ccv3JVxh.s:2227   .text.RefreshPiktograms:00000000 $t
C:\Users\srich\AppData\Local\Temp\ccv3JVxh.s:2233   .text.RefreshPiktograms:00000000 RefreshPiktograms
C:\Users\srich\AppData\Local\Temp\ccv3JVxh.s:2570   .text.RefreshPiktograms:000001c4 $d
C:\Users\srich\AppData\Local\Temp\ccv3JVxh.s:2576   .text.DSPThread:00000000 $t
C:\Users\srich\AppData\Local\Temp\ccv3JVxh.s:2581   .text.DSPThread:00000000 DSPThread
C:\Users\srich\AppData\Local\Temp\ccv3JVxh.s:2669   .text.DSPThread:00000068 $d
C:\Users\srich\AppData\Local\Temp\ccv3JVxh.s:2678   .text.DeleteOldValues:00000000 $t
C:\Users\srich\AppData\Local\Temp\ccv3JVxh.s:2684   .text.DeleteOldValues:00000000 DeleteOldValues
C:\Users\srich\AppData\Local\Temp\ccv3JVxh.s:2708   .text.DeleteOldValues:00000014 $d
C:\Users\srich\AppData\Local\Temp\ccv3JVxh.s:2713   .text.dspInit:00000000 $t
C:\Users\srich\AppData\Local\Temp\ccv3JVxh.s:2719   .text.dspInit:00000000 dspInit
C:\Users\srich\AppData\Local\Temp\ccv3JVxh.s:2772   .text.dspInit:00000038 $d
ARM GAS  C:\Users\srich\AppData\Local\Temp\ccv3JVxh.s 			page 257


C:\Users\srich\AppData\Local\Temp\ccv3JVxh.s:2780   .text.cmd_dspvalues:00000000 $t
C:\Users\srich\AppData\Local\Temp\ccv3JVxh.s:2786   .text.cmd_dspvalues:00000000 cmd_dspvalues
C:\Users\srich\AppData\Local\Temp\ccv3JVxh.s:2889   .text.cmd_dspvalues:0000007c $d
C:\Users\srich\AppData\Local\Temp\ccv3JVxh.s:2992   .bss.pos:00000000 pos
C:\Users\srich\AppData\Local\Temp\ccv3JVxh.s:2907   .bss.bus_status:00000000 bus_status
C:\Users\srich\AppData\Local\Temp\ccv3JVxh.s:2908   .bss.bus_status:00000000 $d
C:\Users\srich\AppData\Local\Temp\ccv3JVxh.s:2913   .bss.blinker:00000000 blinker
C:\Users\srich\AppData\Local\Temp\ccv3JVxh.s:2914   .bss.blinker:00000000 $d
C:\Users\srich\AppData\Local\Temp\ccv3JVxh.s:2916   .bss.waDSPThread:00000000 $d
C:\Users\srich\AppData\Local\Temp\ccv3JVxh.s:2920   .bss.waDSPThread:00000000 waDSPThread
C:\Users\srich\AppData\Local\Temp\ccv3JVxh.s:2926   .data.TPBlinker:00000000 TPBlinker
C:\Users\srich\AppData\Local\Temp\ccv3JVxh.s:2929   .rodata.str1.4:00000000 $d
C:\Users\srich\AppData\Local\Temp\ccv3JVxh.s:2958   .bss.waDSPReader:00000000 $d
C:\Users\srich\AppData\Local\Temp\ccv3JVxh.s:2962   .bss.waDSPReader:00000000 waDSPReader
C:\Users\srich\AppData\Local\Temp\ccv3JVxh.s:2965   .data.NewValues:00000000 $d
C:\Users\srich\AppData\Local\Temp\ccv3JVxh.s:2969   .data.NewValues:00000000 NewValues
C:\Users\srich\AppData\Local\Temp\ccv3JVxh.s:2973   .bss.MerlegPower:00000000 $d
C:\Users\srich\AppData\Local\Temp\ccv3JVxh.s:2977   .bss.MerlegPower:00000000 MerlegPower
C:\Users\srich\AppData\Local\Temp\ccv3JVxh.s:2980   .data.OldValues:00000000 $d
C:\Users\srich\AppData\Local\Temp\ccv3JVxh.s:2984   .data.OldValues:00000000 OldValues
C:\Users\srich\AppData\Local\Temp\ccv3JVxh.s:2988   .bss.pos:00000000 $d
                     .debug_frame:00000010 $d

UNDEFINED SYMBOLS
bus_Read
chThdSleepUntil
rlist
vtlist
chvprintf
media_SetSector
media_Image
media_VideoFrame
gfx_Transparency
gfx_TransparentColour
draw_line
getLightFlashing
cruiseStatus
GetCurrentLimitIsOn
nmeaGetCurrentPosition
bmsitems
TirePressures
speedGetSpeed
calcGetValue
GetMeterCounter
GetKmeterDistance
__aeabi_i2d
__aeabi_dmul
__aeabi_d2iz
__aeabi_ddiv
measGetValue_2
cruiseGet
gfx_Contrast
chThdSleep
gfx_Cls
SerialInit
file_Mount
chThdCreateStatic
ARM GAS  C:\Users\srich\AppData\Local\Temp\ccv3JVxh.s 			page 258


