ARM GAS  C:\Users\danit\AppData\Local\Temp\cc88b6Ga.s 			page 1


   1              		.syntax unified
   2              		.cpu cortex-m4
   3              		.fpu softvfp
   4              		.eabi_attribute 20, 1
   5              		.eabi_attribute 21, 1
   6              		.eabi_attribute 23, 3
   7              		.eabi_attribute 24, 1
   8              		.eabi_attribute 25, 1
   9              		.eabi_attribute 26, 1
  10              		.eabi_attribute 30, 2
  11              		.eabi_attribute 34, 1
  12              		.eabi_attribute 18, 4
  13              		.thumb
  14              		.file	"dsp.c"
  15              		.text
  16              	.Ltext0:
  17              		.cfi_sections	.debug_frame
  18              		.section	.text.dspTask,"ax",%progbits
  19              		.align	2
  20              		.p2align 4,,15
  21              		.thumb
  22              		.thumb_func
  23              		.type	dspTask, %function
  24              	dspTask:
  25              	.LFB123:
  26              		.file 1 "src/dsp.c"
  27              		.loc 1 210 0
  28              		.cfi_startproc
  29              		@ args = 0, pretend = 0, frame = 8
  30              		@ frame_needed = 0, uses_anonymous_args = 0
  31              	.LVL0:
  32 0000 2DE9F04F 		push	{r4, r5, r6, r7, r8, r9, r10, fp, lr}
  33              		.cfi_def_cfa_offset 36
  34              		.cfi_offset 4, -36
  35              		.cfi_offset 5, -32
  36              		.cfi_offset 6, -28
  37              		.cfi_offset 7, -24
  38              		.cfi_offset 8, -20
  39              		.cfi_offset 9, -16
  40              		.cfi_offset 10, -12
  41              		.cfi_offset 11, -8
  42              		.cfi_offset 14, -4
  43              		.loc 1 214 0
  44 0004 AC4B     		ldr	r3, .L164
  45              		.loc 1 215 0
  46 0006 AD49     		ldr	r1, .L164+4
  47              		.loc 1 214 0
  48 0008 9B69     		ldr	r3, [r3, #24]
  49 000a AD4D     		ldr	r5, .L164+8
  50 000c AD4A     		ldr	r2, .L164+12
  51              		.loc 1 215 0
  52 000e C968     		ldr	r1, [r1, #12]
  53 0010 AD4C     		ldr	r4, .L164+16
  54 0012 DFF8D882 		ldr	r8, .L164+52
  55 0016 AD4F     		ldr	r7, .L164+20
  56 0018 AD4E     		ldr	r6, .L164+24
  57 001a DFF8C092 		ldr	r9, .L164+36
ARM GAS  C:\Users\danit\AppData\Local\Temp\cc88b6Ga.s 			page 2


  58              		.loc 1 214 0
  59 001e 9A61     		str	r2, [r3, #24]
  60              		.loc 1 210 0
  61 0020 83B0     		sub	sp, sp, #12
  62              		.cfi_def_cfa_offset 48
  63              	.LBB2:
  64              		.loc 1 230 0
  65 0022 AB46     		mov	fp, r5
  66              	.LVL1:
  67              	.L2:
  68              		.loc 1 220 0
  69 0024 2368     		ldr	r3, [r4]
  70 0026 0133     		adds	r3, r3, #1
  71 0028 2360     		str	r3, [r4]
  72              		.loc 1 222 0
  73 002a DB07     		lsls	r3, r3, #31
  74 002c 00F1B885 		bmi	.L152
  75              		.loc 1 230 0
  76 0030 2B68     		ldr	r3, [r5]
  77              		.loc 1 231 0
  78 0032 3A78     		ldrb	r2, [r7]	@ zero_extendqisi2
  79 0034 A549     		ldr	r1, .L164+20
  80              		.loc 1 230 0
  81 0036 0133     		adds	r3, r3, #1
  82 0038 2B60     		str	r3, [r5]
  83              		.loc 1 231 0
  84 003a 002A     		cmp	r2, #0
  85 003c 00F0BA85 		beq	.L6
  86 0040 012A     		cmp	r2, #1
  87 0042 40F0B385 		bne	.L153
  88              		.loc 1 242 0
  89 0046 3278     		ldrb	r2, [r6]	@ zero_extendqisi2
  90 0048 202A     		cmp	r2, #32
  91 004a 2CD8     		bhi	.L11
  92 004c DFE812F0 		tbh	[pc, r2, lsl #1]
  93              	.L13:
  94 0050 8305     		.2byte	(.L12-.L13)/2
  95 0052 E804     		.2byte	(.L14-.L13)/2
  96 0054 A504     		.2byte	(.L15-.L13)/2
  97 0056 7D04     		.2byte	(.L16-.L13)/2
  98 0058 5904     		.2byte	(.L17-.L13)/2
  99 005a 2804     		.2byte	(.L18-.L13)/2
 100 005c FA03     		.2byte	(.L19-.L13)/2
 101 005e C101     		.2byte	(.L20-.L13)/2
 102 0060 5D02     		.2byte	(.L21-.L13)/2
 103 0062 1102     		.2byte	(.L22-.L13)/2
 104 0064 7401     		.2byte	(.L23-.L13)/2
 105 0066 4005     		.2byte	(.L24-.L13)/2
 106 0068 6205     		.2byte	(.L25-.L13)/2
 107 006a 5103     		.2byte	(.L26-.L13)/2
 108 006c 2105     		.2byte	(.L27-.L13)/2
 109 006e 3702     		.2byte	(.L28-.L13)/2
 110 0070 C803     		.2byte	(.L29-.L13)/2
 111 0072 AB02     		.2byte	(.L30-.L13)/2
 112 0074 A003     		.2byte	(.L31-.L13)/2
 113 0076 9801     		.2byte	(.L32-.L13)/2
 114 0078 1D03     		.2byte	(.L33-.L13)/2
ARM GAS  C:\Users\danit\AppData\Local\Temp\cc88b6Ga.s 			page 3


 115 007a DC02     		.2byte	(.L34-.L13)/2
 116 007c 7803     		.2byte	(.L35-.L13)/2
 117 007e E701     		.2byte	(.L36-.L13)/2
 118 0080 5301     		.2byte	(.L37-.L13)/2
 119 0082 0A01     		.2byte	(.L38-.L13)/2
 120 0084 8B02     		.2byte	(.L39-.L13)/2
 121 0086 EB00     		.2byte	(.L40-.L13)/2
 122 0088 C000     		.2byte	(.L41-.L13)/2
 123 008a 9A00     		.2byte	(.L42-.L13)/2
 124 008c 6300     		.2byte	(.L43-.L13)/2
 125 008e 3D00     		.2byte	(.L44-.L13)/2
 126 0090 2400     		.2byte	(.L45-.L13)/2
 127              	.LVL2:
 128              		.p2align 1
 129              	.L107:
 130              	.LBB3:
 131              		.loc 1 842 0
 132 0092 0132     		adds	r2, r2, #1
 133 0094 D2B2     		uxtb	r2, r2
 134 0096 3270     		strb	r2, [r6]
 135              	.LVL3:
 136              	.L45:
 137              		.loc 1 847 0
 138 0098 59F82230 		ldr	r3, [r9, r2, lsl #2]
 139 009c DFF83CA2 		ldr	r10, .L164+36
 140 00a0 002B     		cmp	r3, #0
 141 00a2 40F0D785 		bne	.L154
 142              	.LVL4:
 143              	.L11:
 144              	.LBE3:
 145              		.loc 1 859 0
 146 00a6 0132     		adds	r2, r2, #1
 147              		.loc 1 860 0
 148 00a8 4FF0000A 		mov	r10, #0
 149              		.loc 1 859 0
 150 00ac 3270     		strb	r2, [r6]
 151              		.loc 1 860 0
 152 00ae C5F800A0 		str	r10, [r5]
 153              		.loc 1 861 0
 154 00b2 FFF7FEFF 		bl	gfxGetDspAnsZero
 155              	.LVL5:
 156              		.loc 1 862 0
 157 00b6 3378     		ldrb	r3, [r6]	@ zero_extendqisi2
 158              		.loc 1 859 0
 159 00b8 854A     		ldr	r2, .L164+24
 160              		.loc 1 862 0
 161 00ba 212B     		cmp	r3, #33
 162 00bc B2D9     		bls	.L2
 163              		.loc 1 863 0
 164 00be 82F800A0 		strb	r10, [r2]
 165 00c2 AFE7     		b	.L2
 166              	.LVL6:
 167              	.L103:
 168              	.LBB4:
 169              		.loc 1 816 0
 170 00c4 0132     		adds	r2, r2, #1
 171 00c6 D2B2     		uxtb	r2, r2
ARM GAS  C:\Users\danit\AppData\Local\Temp\cc88b6Ga.s 			page 4


 172 00c8 1A70     		strb	r2, [r3]
 173              	.LVL7:
 174              	.L44:
 175              		.loc 1 819 0
 176 00ca 824B     		ldr	r3, .L164+28
 177 00cc 1B79     		ldrb	r3, [r3, #4]	@ zero_extendqisi2
 178 00ce 13F00103 		ands	r3, r3, #1
 179 00d2 00F08685 		beq	.L104
 180              	.LVL8:
 181              		.loc 1 823 0
 182 00d6 804B     		ldr	r3, .L164+32
 183 00d8 4FF0000A 		mov	r10, #0
 184 00dc A3F800A0 		strh	r10, [r3]	@ movhi
 185              	.LVL9:
 186              	.L105:
 187              		.loc 1 833 0
 188 00e0 59F82210 		ldr	r1, [r9, r2, lsl #2]
 189 00e4 7D4B     		ldr	r3, .L164+36
 190 00e6 0093     		str	r3, [sp]
 191 00e8 5145     		cmp	r1, r10
 192 00ea D2D0     		beq	.L107
 193              		.loc 1 834 0
 194 00ec 1721     		movs	r1, #23
 195 00ee 0020     		movs	r0, #0
 196 00f0 FFF7FEFF 		bl	media_SetSector
 197              	.LVL10:
 198              		.loc 1 835 0
 199 00f4 FFF7FEFF 		bl	gfxGetDspAns
 200              	.LVL11:
 201              		.loc 1 836 0
 202 00f8 40F27710 		movw	r0, #375
 203 00fc 5021     		movs	r1, #80
 204              	.L147:
 205 00fe 5246     		mov	r2, r10
 206 0100 FFF7FEFF 		bl	media_VideoFrame
 207              	.LVL12:
 208              		.loc 1 838 0
 209 0104 3278     		ldrb	r2, [r6]	@ zero_extendqisi2
 210 0106 009B     		ldr	r3, [sp]
 211              		.loc 1 837 0
 212 0108 0021     		movs	r1, #0
 213              		.loc 1 838 0
 214 010a 43F822A0 		str	r10, [r3, r2, lsl #2]
 215              		.loc 1 837 0
 216 010e 3970     		strb	r1, [r7]
 217              		.loc 1 839 0
 218 0110 C9E7     		b	.L11
 219              	.L100:
 220              		.loc 1 793 0
 221 0112 0132     		adds	r2, r2, #1
 222 0114 3270     		strb	r2, [r6]
 223              	.LVL13:
 224              	.L43:
 225              		.loc 1 796 0
 226 0116 0420     		movs	r0, #4
 227 0118 FFF7FEFF 		bl	measGetValue
 228              	.LVL14:
ARM GAS  C:\Users\danit\AppData\Local\Temp\cc88b6Ga.s 			page 5


 229 011c 0028     		cmp	r0, #0
 230 011e 00F07485 		beq	.L128
 231              		.loc 1 798 0
 232 0122 6F4B     		ldr	r3, .L164+40
 233 0124 1B88     		ldrh	r3, [r3]
 234 0126 0133     		adds	r3, r3, #1
 235 0128 9BB2     		uxth	r3, r3
 236              		.loc 1 799 0
 237 012a 092B     		cmp	r3, #9
 238 012c 40F2E385 		bls	.L129
 239              	.LVL15:
 240              		.loc 1 800 0 discriminator 4
 241 0130 142B     		cmp	r3, #20
 242              		.loc 1 799 0 discriminator 4
 243 0132 4FF0020A 		mov	r10, #2
 244              		.loc 1 800 0 discriminator 4
 245 0136 88BF     		it	hi
 246 0138 0023     		movhi	r3, #0
 247              	.LVL16:
 248              	.L102:
 249 013a 694A     		ldr	r2, .L164+40
 250 013c 1380     		strh	r3, [r2]	@ movhi
 251              	.L101:
 252              	.LVL17:
 253              		.loc 1 807 0
 254 013e 3278     		ldrb	r2, [r6]	@ zero_extendqisi2
 255 0140 DFF898C1 		ldr	ip, .L164+36
 256 0144 59F82210 		ldr	r1, [r9, r2, lsl #2]
 257 0148 614B     		ldr	r3, .L164+24
 258 014a CDF800C0 		str	ip, [sp]
 259 014e 5145     		cmp	r1, r10
 260 0150 B8D0     		beq	.L103
 261              		.loc 1 808 0
 262 0152 7921     		movs	r1, #121
 263 0154 0020     		movs	r0, #0
 264 0156 0193     		str	r3, [sp, #4]
 265 0158 FFF7FEFF 		bl	media_SetSector
 266              	.LVL18:
 267              		.loc 1 809 0
 268 015c FFF7FEFF 		bl	gfxGetDspAns
 269              	.LVL19:
 270              		.loc 1 810 0
 271 0160 40F27710 		movw	r0, #375
 272 0164 AA21     		movs	r1, #170
 273              	.L148:
 274 0166 5246     		mov	r2, r10
 275 0168 FFF7FEFF 		bl	media_VideoFrame
 276              	.LVL20:
 277              		.loc 1 812 0
 278 016c 019B     		ldr	r3, [sp, #4]
 279 016e DDF800C0 		ldr	ip, [sp]
 280 0172 1A78     		ldrb	r2, [r3]	@ zero_extendqisi2
 281              		.loc 1 811 0
 282 0174 0023     		movs	r3, #0
 283              		.loc 1 812 0
 284 0176 4CF822A0 		str	r10, [ip, r2, lsl #2]
 285              		.loc 1 811 0
ARM GAS  C:\Users\danit\AppData\Local\Temp\cc88b6Ga.s 			page 6


 286 017a 3B70     		strb	r3, [r7]
 287              		.loc 1 813 0
 288 017c 93E7     		b	.L11
 289              	.L97:
 290              		.loc 1 770 0
 291 017e 0132     		adds	r2, r2, #1
 292 0180 D2B2     		uxtb	r2, r2
 293 0182 3270     		strb	r2, [r6]
 294              	.LVL21:
 295              	.L42:
 296              		.loc 1 773 0
 297 0184 534B     		ldr	r3, .L164+28
 298 0186 1B89     		ldrh	r3, [r3, #8]
 299 0188 0A2B     		cmp	r3, #10
 300 018a 00F23A85 		bhi	.L125
 301              		.loc 1 779 0
 302 018e 554B     		ldr	r3, .L164+44
 303 0190 1B88     		ldrh	r3, [r3]
 304 0192 0133     		adds	r3, r3, #1
 305 0194 9BB2     		uxth	r3, r3
 306              		.loc 1 780 0
 307 0196 092B     		cmp	r3, #9
 308 0198 40F2B185 		bls	.L126
 309              	.LVL22:
 310              		.loc 1 781 0 discriminator 4
 311 019c 142B     		cmp	r3, #20
 312              		.loc 1 780 0 discriminator 4
 313 019e 4FF0020A 		mov	r10, #2
 314              		.loc 1 781 0 discriminator 4
 315 01a2 88BF     		it	hi
 316 01a4 0023     		movhi	r3, #0
 317              	.LVL23:
 318              	.L99:
 319 01a6 4F49     		ldr	r1, .L164+44
 320 01a8 0B80     		strh	r3, [r1]	@ movhi
 321              	.L98:
 322              	.LVL24:
 323              		.loc 1 784 0
 324 01aa 59F82210 		ldr	r1, [r9, r2, lsl #2]
 325 01ae 4B4B     		ldr	r3, .L164+36
 326 01b0 0093     		str	r3, [sp]
 327 01b2 5145     		cmp	r1, r10
 328 01b4 ADD0     		beq	.L100
 329              		.loc 1 785 0
 330 01b6 0020     		movs	r0, #0
 331 01b8 0146     		mov	r1, r0
 332 01ba FFF7FEFF 		bl	media_SetSector
 333              	.LVL25:
 334              		.loc 1 786 0
 335 01be FFF7FEFF 		bl	gfxGetDspAns
 336              	.LVL26:
 337              		.loc 1 787 0
 338 01c2 40F27710 		movw	r0, #375
 339 01c6 DB21     		movs	r1, #219
 340 01c8 99E7     		b	.L147
 341              	.L94:
 342              		.loc 1 747 0
ARM GAS  C:\Users\danit\AppData\Local\Temp\cc88b6Ga.s 			page 7


 343 01ca 0132     		adds	r2, r2, #1
 344 01cc D2B2     		uxtb	r2, r2
 345 01ce 1A70     		strb	r2, [r3]
 346              	.LVL27:
 347              	.L41:
 348 01d0 404B     		ldr	r3, .L164+28
 349 01d2 1B79     		ldrb	r3, [r3, #4]	@ zero_extendqisi2
 350 01d4 03F00203 		and	r3, r3, #2
 351              		.loc 1 750 0
 352 01d8 03F0FF01 		and	r1, r3, #255
 353 01dc 002B     		cmp	r3, #0
 354 01de 40F01785 		bne	.L122
 355              		.loc 1 756 0
 356 01e2 414B     		ldr	r3, .L164+48
 357 01e4 1B88     		ldrh	r3, [r3]
 358 01e6 0133     		adds	r3, r3, #1
 359 01e8 9BB2     		uxth	r3, r3
 360              		.loc 1 757 0
 361 01ea 092B     		cmp	r3, #9
 362 01ec 40F27F85 		bls	.L123
 363              	.LVL28:
 364              		.loc 1 758 0 discriminator 4
 365 01f0 142B     		cmp	r3, #20
 366 01f2 88BF     		it	hi
 367 01f4 0B46     		movhi	r3, r1
 368              		.loc 1 757 0 discriminator 4
 369 01f6 4FF0020A 		mov	r10, #2
 370              	.LVL29:
 371              	.L96:
 372              		.loc 1 758 0 discriminator 4
 373 01fa 3B49     		ldr	r1, .L164+48
 374 01fc 0B80     		strh	r3, [r1]	@ movhi
 375              	.L95:
 376              	.LVL30:
 377              		.loc 1 761 0
 378 01fe 59F82210 		ldr	r1, [r9, r2, lsl #2]
 379 0202 364B     		ldr	r3, .L164+36
 380 0204 0093     		str	r3, [sp]
 381 0206 5145     		cmp	r1, r10
 382 0208 B9D0     		beq	.L97
 383              		.loc 1 762 0
 384 020a 44F26151 		movw	r1, #17761
 385 020e 0020     		movs	r0, #0
 386 0210 FFF7FEFF 		bl	media_SetSector
 387              	.LVL31:
 388              		.loc 1 763 0
 389 0214 FFF7FEFF 		bl	gfxGetDspAns
 390              	.LVL32:
 391              		.loc 1 764 0
 392 0218 40F27710 		movw	r0, #375
 393 021c 1A21     		movs	r1, #26
 394 021e 6EE7     		b	.L147
 395              	.L93:
 396              		.loc 1 727 0
 397 0220 0132     		adds	r2, r2, #1
 398 0222 8CF80020 		strb	r2, [ip]
 399              	.LVL33:
ARM GAS  C:\Users\danit\AppData\Local\Temp\cc88b6Ga.s 			page 8


 400              	.L40:
 401              		.loc 1 730 0
 402 0226 0520     		movs	r0, #5
 403 0228 FFF7FEFF 		bl	getLightFlashing
 404              	.LVL34:
 405              		.loc 1 738 0
 406 022c 3278     		ldrb	r2, [r6]	@ zero_extendqisi2
 407 022e DFF8ACC0 		ldr	ip, .L164+36
 408 0232 59F82210 		ldr	r1, [r9, r2, lsl #2]
 409 0236 264B     		ldr	r3, .L164+24
 410 0238 CDF800C0 		str	ip, [sp]
 411              		.loc 1 730 0
 412 023c 80F00100 		eor	r0, r0, #1
 413              		.loc 1 732 0
 414 0240 5FFA80FA 		uxtb	r10, r0
 415              	.LVL35:
 416              		.loc 1 738 0
 417 0244 5145     		cmp	r1, r10
 418 0246 C0D0     		beq	.L94
 419              		.loc 1 739 0
 420 0248 6E21     		movs	r1, #110
 421 024a 0020     		movs	r0, #0
 422 024c 0193     		str	r3, [sp, #4]
 423 024e FFF7FEFF 		bl	media_SetSector
 424              	.LVL36:
 425              		.loc 1 740 0
 426 0252 FFF7FEFF 		bl	gfxGetDspAns
 427              	.LVL37:
 428              		.loc 1 741 0
 429 0256 4FF4D970 		mov	r0, #434
 430 025a B721     		movs	r1, #183
 431 025c 83E7     		b	.L148
 432              	.L90:
 433              		.loc 1 694 0
 434 025e 0132     		adds	r2, r2, #1
 435 0260 8CF80020 		strb	r2, [ip]
 436              	.LVL38:
 437              	.L38:
 438              		.loc 1 697 0
 439 0264 0320     		movs	r0, #3
 440 0266 FFF7FEFF 		bl	getLightFlashing
 441              	.LVL39:
 442 026a 0028     		cmp	r0, #0
 443 026c 00F0E984 		beq	.L155
 444 0270 4FF0000A 		mov	r10, #0
 445              	.L91:
 446              	.LVL40:
 447              		.loc 1 700 0
 448 0274 3278     		ldrb	r2, [r6]	@ zero_extendqisi2
 449 0276 194B     		ldr	r3, .L164+36
 450 0278 59F82210 		ldr	r1, [r9, r2, lsl #2]
 451 027c DFF850C0 		ldr	ip, .L164+24
 452 0280 0093     		str	r3, [sp]
 453 0282 5145     		cmp	r1, r10
 454 0284 00F06C81 		beq	.L92
 455              		.loc 1 701 0
 456 0288 3921     		movs	r1, #57
ARM GAS  C:\Users\danit\AppData\Local\Temp\cc88b6Ga.s 			page 9


 457 028a 0020     		movs	r0, #0
 458 028c CDF804C0 		str	ip, [sp, #4]
 459 0290 FFF7FEFF 		bl	media_SetSector
 460              	.LVL41:
 461              		.loc 1 702 0
 462 0294 FFF7FEFF 		bl	gfxGetDspAns
 463              	.LVL42:
 464              		.loc 1 703 0
 465 0298 4FF4D970 		mov	r0, #434
 466 029c 0821     		movs	r1, #8
 467              	.L146:
 468              		.loc 1 333 0
 469 029e 5246     		mov	r2, r10
 470 02a0 FFF7FEFF 		bl	media_VideoFrame
 471              	.LVL43:
 472              		.loc 1 335 0
 473 02a4 DDF804C0 		ldr	ip, [sp, #4]
 474 02a8 009B     		ldr	r3, [sp]
 475 02aa 9CF80020 		ldrb	r2, [ip]	@ zero_extendqisi2
 476              		.loc 1 334 0
 477 02ae 0021     		movs	r1, #0
 478              		.loc 1 335 0
 479 02b0 43F822A0 		str	r10, [r3, r2, lsl #2]
 480              		.loc 1 334 0
 481 02b4 3970     		strb	r1, [r7]
 482              		.loc 1 336 0
 483 02b6 F6E6     		b	.L11
 484              	.L165:
 485              		.align	2
 486              	.L164:
 487 02b8 00000000 		.word	rlist
 488 02bc 00000000 		.word	vtlist
 489 02c0 00000000 		.word	.LANCHOR2
 490 02c4 00000000 		.word	.LC0
 491 02c8 00000000 		.word	.LANCHOR0
 492 02cc 00000000 		.word	.LANCHOR3
 493 02d0 00000000 		.word	.LANCHOR6
 494 02d4 00000000 		.word	bmsitems
 495 02d8 00000000 		.word	.LANCHOR11
 496 02dc 00000000 		.word	.LANCHOR7
 497 02e0 00000000 		.word	.LANCHOR10
 498 02e4 00000000 		.word	.LANCHOR9
 499 02e8 00000000 		.word	.LANCHOR8
 500 02ec 00000000 		.word	.LANCHOR1
 501              	.LVL44:
 502              	.L88:
 503              		.loc 1 678 0
 504 02f0 0131     		adds	r1, r1, #1
 505 02f2 8CF80010 		strb	r1, [ip]
 506              	.LVL45:
 507              	.L37:
 508              		.loc 1 681 0
 509 02f6 0220     		movs	r0, #2
 510 02f8 FFF7FEFF 		bl	getLightFlashing
 511              	.LVL46:
 512 02fc 0028     		cmp	r0, #0
 513 02fe 00F09784 		beq	.L156
ARM GAS  C:\Users\danit\AppData\Local\Temp\cc88b6Ga.s 			page 10


 514 0302 4FF0000A 		mov	r10, #0
 515              	.L89:
 516              	.LVL47:
 517              		.loc 1 685 0
 518 0306 3278     		ldrb	r2, [r6]	@ zero_extendqisi2
 519 0308 D74B     		ldr	r3, .L166
 520 030a 59F82210 		ldr	r1, [r9, r2, lsl #2]
 521 030e DFF86CC3 		ldr	ip, .L166+20
 522 0312 0093     		str	r3, [sp]
 523 0314 5145     		cmp	r1, r10
 524 0316 A2D0     		beq	.L90
 525              		.loc 1 686 0
 526 0318 4421     		movs	r1, #68
 527 031a 0020     		movs	r0, #0
 528 031c CDF804C0 		str	ip, [sp, #4]
 529 0320 FFF7FEFF 		bl	media_SetSector
 530              	.LVL48:
 531              		.loc 1 687 0
 532 0324 FFF7FEFF 		bl	gfxGetDspAns
 533              	.LVL49:
 534              		.loc 1 688 0
 535 0328 4FF4D970 		mov	r0, #434
 536 032c E721     		movs	r1, #231
 537 032e B6E7     		b	.L146
 538              	.L64:
 539              		.loc 1 424 0
 540 0330 0EF10102 		add	r2, lr, #1
 541 0334 D2B2     		uxtb	r2, r2
 542 0336 1A70     		strb	r2, [r3]
 543              	.LVL50:
 544              	.L23:
 545              		.loc 1 427 0
 546 0338 CC4B     		ldr	r3, .L166+4
 547 033a 1889     		ldrh	r0, [r3, #8]
 548              	.LVL51:
 549              		.loc 1 428 0
 550 033c 40F2CE73 		movw	r3, #1998
 551 0340 00F2E731 		addw	r1, r0, #999
 552 0344 9942     		cmp	r1, r3
 553              		.loc 1 432 0
 554 0346 88BF     		it	hi
 555 0348 C94B     		ldrhi	r3, .L166+8
 556              		.loc 1 434 0
 557 034a 59F82210 		ldr	r1, [r9, r2, lsl #2]
 558              		.loc 1 432 0
 559 034e 86BF     		itte	hi
 560 0350 83FB003A 		smullhi	r3, r10, r3, r0
 561 0354 4FEA9A1A 		lsrhi	r10, r10, #6
 562              	.LVL52:
 563              		.loc 1 429 0
 564 0358 4FF00A0A 		movls	r10, #10
 565              	.LVL53:
 566              		.loc 1 434 0
 567 035c C24B     		ldr	r3, .L166
 568 035e 0093     		str	r3, [sp]
 569 0360 5145     		cmp	r1, r10
 570 0362 00F05D84 		beq	.L66
ARM GAS  C:\Users\danit\AppData\Local\Temp\cc88b6Ga.s 			page 11


 571              		.loc 1 435 0
 572 0366 44F29941 		movw	r1, #17561
 573 036a 0020     		movs	r0, #0
 574 036c FFF7FEFF 		bl	media_SetSector
 575              	.LVL54:
 576              		.loc 1 436 0
 577 0370 FFF7FEFF 		bl	gfxGetDspAns
 578              	.LVL55:
 579              		.loc 1 437 0
 580 0374 6C20     		movs	r0, #108
 581 0376 2721     		movs	r1, #39
 582 0378 C1E6     		b	.L147
 583              	.L78:
 584              		.loc 1 579 0
 585 037a 4B1C     		adds	r3, r1, #1
 586 037c 8CF80030 		strb	r3, [ip]
 587              	.LVL56:
 588              	.L32:
 589              		.loc 1 582 0
 590 0380 0020     		movs	r0, #0
 591 0382 FFF7FEFF 		bl	calcGetValue
 592              	.LVL57:
 593              		.loc 1 583 0
 594 0386 0028     		cmp	r0, #0
 595 0388 C0F2A484 		blt	.L119
 596              		.loc 1 586 0
 597 038c B84B     		ldr	r3, .L166+8
 598 038e 83FB003A 		smull	r3, r10, r3, r0
 599 0392 C017     		asrs	r0, r0, #31
 600              	.LVL58:
 601              		.loc 1 587 0
 602 0394 D0EBAA1A 		rsbs	r10, r0, r10, asr #6
 603              	.LVL59:
 604 0398 08BF     		it	eq
 605 039a 4FF00A0A 		moveq	r10, #10
 606              	.LVL60:
 607              	.L79:
 608              		.loc 1 589 0 discriminator 4
 609 039e 3278     		ldrb	r2, [r6]	@ zero_extendqisi2
 610 03a0 B14B     		ldr	r3, .L166
 611 03a2 59F82210 		ldr	r1, [r9, r2, lsl #2]
 612 03a6 DFF8D4C2 		ldr	ip, .L166+20
 613 03aa 0093     		str	r3, [sp]
 614 03ac 8A45     		cmp	r10, r1
 615 03ae 00F06981 		beq	.L80
 616              		.loc 1 590 0
 617 03b2 44F29941 		movw	r1, #17561
 618 03b6 0020     		movs	r0, #0
 619 03b8 CDF804C0 		str	ip, [sp, #4]
 620 03bc FFF7FEFF 		bl	media_SetSector
 621              	.LVL61:
 622              		.loc 1 591 0
 623 03c0 FFF7FEFF 		bl	gfxGetDspAns
 624              	.LVL62:
 625              		.loc 1 592 0
 626 03c4 4220     		movs	r0, #66
 627 03c6 A821     		movs	r1, #168
ARM GAS  C:\Users\danit\AppData\Local\Temp\cc88b6Ga.s 			page 12


 628 03c8 69E7     		b	.L146
 629              	.L59:
 630              		.loc 1 376 0
 631 03ca 0EF1010E 		add	lr, lr, #1
 632 03ce 8CF800E0 		strb	lr, [ip]
 633              	.LVL63:
 634              	.L20:
 635              		.loc 1 379 0
 636 03d2 FFF7FEFF 		bl	cruiseGet
 637              	.LVL64:
 638 03d6 A74B     		ldr	r3, .L166+12
 639              		.loc 1 381 0
 640 03d8 3178     		ldrb	r1, [r6]	@ zero_extendqisi2
 641 03da DFF8A0C2 		ldr	ip, .L166+20
 642 03de 59F82120 		ldr	r2, [r9, r1, lsl #2]
 643              		.loc 1 379 0
 644 03e2 A3FB003A 		umull	r3, r10, r3, r0
 645 03e6 CAF3471A 		ubfx	r10, r10, #5, #8
 646              	.LVL65:
 647 03ea BAF1000F 		cmp	r10, #0
 648 03ee 08BF     		it	eq
 649 03f0 4FF00A0A 		moveq	r10, #10
 650              	.LVL66:
 651              		.loc 1 381 0
 652 03f4 9C4B     		ldr	r3, .L166
 653 03f6 0093     		str	r3, [sp]
 654 03f8 9245     		cmp	r10, r2
 655 03fa 00F08380 		beq	.L61
 656              		.loc 1 382 0
 657 03fe 44F28C41 		movw	r1, #17548
 658 0402 0020     		movs	r0, #0
 659 0404 CDF804C0 		str	ip, [sp, #4]
 660 0408 FFF7FEFF 		bl	media_SetSector
 661              	.LVL67:
 662              		.loc 1 383 0
 663 040c FFF7FEFF 		bl	gfxGetDspAns
 664              	.LVL68:
 665              		.loc 1 384 0
 666 0410 40F23B10 		movw	r0, #315
 667 0414 CD21     		movs	r1, #205
 668 0416 42E7     		b	.L146
 669              	.L87:
 670              		.loc 1 659 0
 671 0418 0131     		adds	r1, r1, #1
 672 041a 8CF80010 		strb	r1, [ip]
 673              	.LVL69:
 674              	.L36:
 675              		.loc 1 662 0
 676 041e 0220     		movs	r0, #2
 677 0420 FFF7FEFF 		bl	measGetValue_2
 678              	.LVL70:
 679              		.loc 1 663 0
 680 0424 C0EBC003 		rsb	r3, r0, r0, lsl #3
 681 0428 00EB8300 		add	r0, r0, r3, lsl #2
 682              	.LVL71:
 683              		.loc 1 669 0
 684 042c 8E4B     		ldr	r3, .L166
ARM GAS  C:\Users\danit\AppData\Local\Temp\cc88b6Ga.s 			page 13


 685 042e 0093     		str	r3, [sp]
 686              		.loc 1 664 0
 687 0430 8F4B     		ldr	r3, .L166+8
 688              		.loc 1 669 0
 689 0432 3178     		ldrb	r1, [r6]	@ zero_extendqisi2
 690 0434 DFF844C2 		ldr	ip, .L166+20
 691 0438 59F82120 		ldr	r2, [r9, r1, lsl #2]
 692              		.loc 1 664 0
 693 043c A3FB003A 		umull	r3, r10, r3, r0
 694 0440 4FEA9A1A 		lsr	r10, r10, #6
 695              	.LVL72:
 696              		.loc 1 665 0
 697 0444 BAF5827F 		cmp	r10, #260
 698 0448 28BF     		it	cs
 699 044a 4FF4827A 		movcs	r10, #260
 700              	.LVL73:
 701              		.loc 1 669 0
 702 044e 5245     		cmp	r2, r10
 703 0450 3FF44EAF 		beq	.L88
 704              		.loc 1 670 0
 705 0454 0020     		movs	r0, #0
 706              	.LVL74:
 707 0456 41F63711 		movw	r1, #6455
 708 045a CDF804C0 		str	ip, [sp, #4]
 709 045e FFF7FEFF 		bl	media_SetSector
 710              	.LVL75:
 711              		.loc 1 671 0
 712 0462 FFF7FEFF 		bl	gfxGetDspAns
 713              	.LVL76:
 714              		.loc 1 672 0
 715 0466 0320     		movs	r0, #3
 716              	.L149:
 717              		.loc 1 333 0
 718 0468 0021     		movs	r1, #0
 719 046a 18E7     		b	.L146
 720              	.L63:
 721              		.loc 1 410 0
 722 046c 0132     		adds	r2, r2, #1
 723 046e 8CF80020 		strb	r2, [ip]
 724              	.LVL77:
 725              	.L22:
 726              		.loc 1 413 0
 727 0472 FFF7FEFF 		bl	cruiseGet
 728              	.LVL78:
 729 0476 804A     		ldr	r2, .L166+16
 730              		.loc 1 415 0
 731 0478 DFF8ECC1 		ldr	ip, .L166
 732 047c CDF800C0 		str	ip, [sp]
 733              		.loc 1 413 0
 734 0480 A2FB00C2 		umull	ip, r2, r2, r0
 735              		.loc 1 415 0
 736 0484 96F800E0 		ldrb	lr, [r6]	@ zero_extendqisi2
 737 0488 7C4B     		ldr	r3, .L166+20
 738 048a 59F82E10 		ldr	r1, [r9, lr, lsl #2]
 739              		.loc 1 413 0
 740 048e D208     		lsrs	r2, r2, #3
 741 0490 02EB8202 		add	r2, r2, r2, lsl #2
ARM GAS  C:\Users\danit\AppData\Local\Temp\cc88b6Ga.s 			page 14


 742 0494 A0EB4202 		sub	r2, r0, r2, lsl #1
 743 0498 5FFA82FA 		uxtb	r10, r2
 744              	.LVL79:
 745              		.loc 1 415 0
 746 049c 5145     		cmp	r1, r10
 747 049e 3FF447AF 		beq	.L64
 748              		.loc 1 416 0
 749 04a2 44F28C41 		movw	r1, #17548
 750 04a6 0020     		movs	r0, #0
 751 04a8 0193     		str	r3, [sp, #4]
 752 04aa FFF7FEFF 		bl	media_SetSector
 753              	.LVL80:
 754              		.loc 1 417 0
 755 04ae FFF7FEFF 		bl	gfxGetDspAns
 756              	.LVL81:
 757              		.loc 1 418 0
 758 04b2 40F23B10 		movw	r0, #315
 759 04b6 F521     		movs	r1, #245
 760 04b8 55E6     		b	.L148
 761              	.L71:
 762              		.loc 1 509 0
 763 04ba 0132     		adds	r2, r2, #1
 764 04bc 3270     		strb	r2, [r6]
 765              	.LVL82:
 766              	.L28:
 767              		.loc 1 512 0
 768 04be 0120     		movs	r0, #1
 769 04c0 FFF7FEFF 		bl	calcGetValue
 770              	.LVL83:
 771              		.loc 1 516 0
 772 04c4 684B     		ldr	r3, .L166
 773 04c6 0093     		str	r3, [sp]
 774              		.loc 1 512 0
 775 04c8 694B     		ldr	r3, .L166+8
 776              		.loc 1 516 0
 777 04ca 96F800E0 		ldrb	lr, [r6]	@ zero_extendqisi2
 778 04ce DFF8ACC1 		ldr	ip, .L166+20
 779 04d2 59F82E10 		ldr	r1, [r9, lr, lsl #2]
 780              		.loc 1 512 0
 781 04d6 83FB003A 		smull	r3, r10, r3, r0
 782 04da C217     		asrs	r2, r0, #31
 783              	.LVL84:
 784              		.loc 1 514 0
 785 04dc D2EBAA1A 		rsbs	r10, r2, r10, asr #6
 786              	.LVL85:
 787 04e0 08BF     		it	eq
 788 04e2 4FF00A0A 		moveq	r10, #10
 789              	.LVL86:
 790              		.loc 1 516 0
 791 04e6 8A45     		cmp	r10, r1
 792 04e8 00F07681 		beq	.L73
 793              		.loc 1 517 0
 794 04ec 44F29941 		movw	r1, #17561
 795 04f0 0020     		movs	r0, #0
 796 04f2 CDF804C0 		str	ip, [sp, #4]
 797 04f6 FFF7FEFF 		bl	media_SetSector
 798              	.LVL87:
ARM GAS  C:\Users\danit\AppData\Local\Temp\cc88b6Ga.s 			page 15


 799              		.loc 1 518 0
 800 04fa FFF7FEFF 		bl	gfxGetDspAns
 801              	.LVL88:
 802              		.loc 1 519 0
 803 04fe 6C20     		movs	r0, #108
 804 0500 A821     		movs	r1, #168
 805 0502 CCE6     		b	.L146
 806              	.L61:
 807              		.loc 1 390 0
 808 0504 0131     		adds	r1, r1, #1
 809 0506 8CF80010 		strb	r1, [ip]
 810              	.LVL89:
 811              	.L21:
 812              		.loc 1 393 0
 813 050a FFF7FEFF 		bl	cruiseGet
 814              	.LVL90:
 815 050e 5A4B     		ldr	r3, .L166+16
 816              		.loc 1 394 0
 817 0510 5B4A     		ldr	r2, .L166+24
 818              		.loc 1 393 0
 819 0512 A3FB0013 		umull	r1, r3, r3, r0
 820 0516 C3F3C703 		ubfx	r3, r3, #3, #8
 821              	.LVL91:
 822              		.loc 1 394 0
 823 051a 82FB032A 		smull	r2, r10, r2, r3
 824              		.loc 1 396 0
 825 051e D9F81C20 		ldr	r2, [r9, #28]
 826              		.loc 1 394 0
 827 0522 4FEA9A0A 		lsr	r10, r10, #2
 828 0526 0AEB8A0A 		add	r10, r10, r10, lsl #2
 829              		.loc 1 396 0
 830 052a 0A2A     		cmp	r2, #10
 831              		.loc 1 394 0
 832 052c A3EB4A0A 		sub	r10, r3, r10, lsl #1
 833              	.LVL92:
 834              		.loc 1 396 0
 835 0530 00F0A983 		beq	.L157
 836              	.LVL93:
 837              	.L62:
 838              		.loc 1 401 0
 839 0534 3278     		ldrb	r2, [r6]	@ zero_extendqisi2
 840 0536 4C4B     		ldr	r3, .L166
 841 0538 59F82210 		ldr	r1, [r9, r2, lsl #2]
 842 053c DFF83CC1 		ldr	ip, .L166+20
 843 0540 0093     		str	r3, [sp]
 844 0542 5145     		cmp	r1, r10
 845 0544 92D0     		beq	.L63
 846              		.loc 1 402 0
 847 0546 44F28C41 		movw	r1, #17548
 848 054a 0020     		movs	r0, #0
 849 054c CDF804C0 		str	ip, [sp, #4]
 850 0550 FFF7FEFF 		bl	media_SetSector
 851              	.LVL94:
 852              		.loc 1 403 0
 853 0554 FFF7FEFF 		bl	gfxGetDspAns
 854              	.LVL95:
 855              		.loc 1 404 0
ARM GAS  C:\Users\danit\AppData\Local\Temp\cc88b6Ga.s 			page 16


 856 0558 40F23B10 		movw	r0, #315
 857 055c E121     		movs	r1, #225
 858 055e 9EE6     		b	.L146
 859              	.L92:
 860              		.loc 1 709 0
 861 0560 0132     		adds	r2, r2, #1
 862 0562 8CF80020 		strb	r2, [ip]
 863              	.LVL96:
 864              	.L39:
 865              		.loc 1 712 0
 866 0566 FFF7FEFF 		bl	cruiseStatus
 867              	.LVL97:
 868              		.loc 1 718 0
 869 056a 3278     		ldrb	r2, [r6]	@ zero_extendqisi2
 870 056c 3E4B     		ldr	r3, .L166
 871 056e 59F82210 		ldr	r1, [r9, r2, lsl #2]
 872 0572 DFF808C1 		ldr	ip, .L166+20
 873 0576 0093     		str	r3, [sp]
 874              		.loc 1 712 0
 875 0578 80F00100 		eor	r0, r0, #1
 876              		.loc 1 714 0
 877 057c 5FFA80FA 		uxtb	r10, r0
 878              	.LVL98:
 879              		.loc 1 718 0
 880 0580 5145     		cmp	r1, r10
 881 0582 3FF44DAE 		beq	.L93
 882              		.loc 1 719 0
 883 0586 44F24E51 		movw	r1, #17742
 884 058a 0020     		movs	r0, #0
 885 058c CDF804C0 		str	ip, [sp, #4]
 886 0590 FFF7FEFF 		bl	media_SetSector
 887              	.LVL99:
 888              		.loc 1 720 0
 889 0594 FFF7FEFF 		bl	gfxGetDspAns
 890              	.LVL100:
 891              		.loc 1 721 0
 892 0598 4FF4D970 		mov	r0, #434
 893 059c 3A21     		movs	r1, #58
 894 059e 7EE6     		b	.L146
 895              	.L75:
 896              		.loc 1 545 0
 897 05a0 0132     		adds	r2, r2, #1
 898 05a2 8CF80020 		strb	r2, [ip]
 899              	.LVL101:
 900              	.L30:
 901              		.loc 1 548 0
 902 05a6 0120     		movs	r0, #1
 903 05a8 FFF7FEFF 		bl	calcGetValue
 904              	.LVL102:
 905 05ac 3449     		ldr	r1, .L166+24
 906              		.loc 1 551 0
 907 05ae D9F84020 		ldr	r2, [r9, #64]
 908              		.loc 1 548 0
 909 05b2 81FB00E3 		smull	lr, r3, r1, r0
 910 05b6 C017     		asrs	r0, r0, #31
 911 05b8 C0EBA303 		rsb	r3, r0, r3, asr #2
 912              	.LVL103:
ARM GAS  C:\Users\danit\AppData\Local\Temp\cc88b6Ga.s 			page 17


 913              		.loc 1 549 0
 914 05bc 81FB0301 		smull	r0, r1, r1, r3
 915 05c0 4FEAE37A 		asr	r10, r3, #31
 916 05c4 CAEBA10A 		rsb	r10, r10, r1, asr #2
 917 05c8 0AEB8A0A 		add	r10, r10, r10, lsl #2
 918              		.loc 1 551 0
 919 05cc 0A2A     		cmp	r2, #10
 920              		.loc 1 549 0
 921 05ce A3EB4A0A 		sub	r10, r3, r10, lsl #1
 922              	.LVL104:
 923              		.loc 1 551 0
 924 05d2 00F05E83 		beq	.L158
 925              	.LVL105:
 926              	.L76:
 927              		.loc 1 556 0
 928 05d6 3278     		ldrb	r2, [r6]	@ zero_extendqisi2
 929 05d8 234B     		ldr	r3, .L166
 930 05da 59F82210 		ldr	r1, [r9, r2, lsl #2]
 931 05de DFF89CC0 		ldr	ip, .L166+20
 932 05e2 0093     		str	r3, [sp]
 933 05e4 5145     		cmp	r1, r10
 934 05e6 00F0D080 		beq	.L77
 935              		.loc 1 557 0
 936 05ea 44F29941 		movw	r1, #17561
 937 05ee 0020     		movs	r0, #0
 938 05f0 CDF804C0 		str	ip, [sp, #4]
 939 05f4 FFF7FEFF 		bl	media_SetSector
 940              	.LVL106:
 941              		.loc 1 558 0
 942 05f8 FFF7FEFF 		bl	gfxGetDspAns
 943              	.LVL107:
 944              		.loc 1 559 0
 945 05fc 6C20     		movs	r0, #108
 946 05fe D021     		movs	r1, #208
 947 0600 4DE6     		b	.L146
 948              	.L83:
 949              		.loc 1 621 0
 950 0602 0132     		adds	r2, r2, #1
 951 0604 8CF80020 		strb	r2, [ip]
 952              	.LVL108:
 953              	.L34:
 954              		.loc 1 624 0
 955 0608 0020     		movs	r0, #0
 956 060a FFF7FEFF 		bl	calcGetValue
 957              	.LVL109:
 958              		.loc 1 625 0
 959 060e 0028     		cmp	r0, #0
 960 0610 C0F25783 		blt	.L84
 961              		.loc 1 627 0
 962 0614 1A49     		ldr	r1, .L166+24
 963              		.loc 1 630 0
 964 0616 D9F85020 		ldr	r2, [r9, #80]
 965              		.loc 1 627 0
 966 061a 81FB00E3 		smull	lr, r3, r1, r0
 967 061e C017     		asrs	r0, r0, #31
 968              	.LVL110:
 969 0620 C0EBA303 		rsb	r3, r0, r3, asr #2
ARM GAS  C:\Users\danit\AppData\Local\Temp\cc88b6Ga.s 			page 18


 970              	.LVL111:
 971              		.loc 1 628 0
 972 0624 81FB0301 		smull	r0, r1, r1, r3
 973 0628 4FEAE37A 		asr	r10, r3, #31
 974 062c CAEBA10A 		rsb	r10, r10, r1, asr #2
 975 0630 0AEB8A0A 		add	r10, r10, r10, lsl #2
 976              		.loc 1 630 0
 977 0634 0A2A     		cmp	r2, #10
 978              		.loc 1 628 0
 979 0636 A3EB4A0A 		sub	r10, r3, r10, lsl #1
 980              	.LVL112:
 981              		.loc 1 630 0
 982 063a 00F03C83 		beq	.L159
 983              	.LVL113:
 984              	.L85:
 985              		.loc 1 635 0
 986 063e 3278     		ldrb	r2, [r6]	@ zero_extendqisi2
 987 0640 094B     		ldr	r3, .L166
 988 0642 59F82210 		ldr	r1, [r9, r2, lsl #2]
 989 0646 DFF834C0 		ldr	ip, .L166+20
 990 064a 0093     		str	r3, [sp]
 991 064c 5145     		cmp	r1, r10
 992 064e 74D0     		beq	.L86
 993              		.loc 1 636 0
 994 0650 44F29941 		movw	r1, #17561
 995 0654 0020     		movs	r0, #0
 996 0656 CDF804C0 		str	ip, [sp, #4]
 997 065a FFF7FEFF 		bl	media_SetSector
 998              	.LVL114:
 999              		.loc 1 637 0
 1000 065e FFF7FEFF 		bl	gfxGetDspAns
 1001              	.LVL115:
 1002              		.loc 1 638 0
 1003 0662 4220     		movs	r0, #66
 1004 0664 D021     		movs	r1, #208
 1005 0666 1AE6     		b	.L146
 1006              	.L167:
 1007              		.align	2
 1008              	.L166:
 1009 0668 00000000 		.word	.LANCHOR7
 1010 066c 00000000 		.word	bmsitems
 1011 0670 D34D6210 		.word	274877907
 1012 0674 1F85EB51 		.word	1374389535
 1013 0678 CDCCCCCC 		.word	-858993459
 1014 067c 00000000 		.word	.LANCHOR6
 1015 0680 67666666 		.word	1717986919
 1016              	.L80:
 1017              		.loc 1 598 0
 1018 0684 0132     		adds	r2, r2, #1
 1019 0686 8CF80020 		strb	r2, [ip]
 1020              	.LVL116:
 1021              	.L33:
 1022              		.loc 1 601 0
 1023 068a 0020     		movs	r0, #0
 1024 068c FFF7FEFF 		bl	calcGetValue
 1025              	.LVL117:
 1026              		.loc 1 602 0
ARM GAS  C:\Users\danit\AppData\Local\Temp\cc88b6Ga.s 			page 19


 1027 0690 0028     		cmp	r0, #0
 1028 0692 C0F22383 		blt	.L81
 1029              		.loc 1 604 0
 1030 0696 DA4B     		ldr	r3, .L168
 1031              		.loc 1 605 0
 1032 0698 DA49     		ldr	r1, .L168+4
 1033              		.loc 1 604 0
 1034 069a 83FB0023 		smull	r2, r3, r3, r0
 1035 069e C017     		asrs	r0, r0, #31
 1036              	.LVL118:
 1037 06a0 C0EB6313 		rsb	r3, r0, r3, asr #5
 1038              	.LVL119:
 1039              		.loc 1 607 0
 1040 06a4 D9F84C20 		ldr	r2, [r9, #76]
 1041              		.loc 1 605 0
 1042 06a8 81FB0301 		smull	r0, r1, r1, r3
 1043 06ac 4FEAE37A 		asr	r10, r3, #31
 1044 06b0 CAEBA10A 		rsb	r10, r10, r1, asr #2
 1045 06b4 0AEB8A0A 		add	r10, r10, r10, lsl #2
 1046              		.loc 1 607 0
 1047 06b8 0A2A     		cmp	r2, #10
 1048              		.loc 1 605 0
 1049 06ba A3EB4A0A 		sub	r10, r3, r10, lsl #1
 1050              	.LVL120:
 1051              		.loc 1 607 0
 1052 06be 00F0DC82 		beq	.L160
 1053              	.LVL121:
 1054              	.L82:
 1055              		.loc 1 612 0
 1056 06c2 3278     		ldrb	r2, [r6]	@ zero_extendqisi2
 1057 06c4 D04B     		ldr	r3, .L168+8
 1058 06c6 59F82210 		ldr	r1, [r9, r2, lsl #2]
 1059 06ca DFF84CC3 		ldr	ip, .L168+24
 1060 06ce 0093     		str	r3, [sp]
 1061 06d0 5145     		cmp	r1, r10
 1062 06d2 96D0     		beq	.L83
 1063              		.loc 1 613 0
 1064 06d4 44F29941 		movw	r1, #17561
 1065 06d8 0020     		movs	r0, #0
 1066 06da CDF804C0 		str	ip, [sp, #4]
 1067 06de FFF7FEFF 		bl	media_SetSector
 1068              	.LVL122:
 1069              		.loc 1 614 0
 1070 06e2 FFF7FEFF 		bl	gfxGetDspAns
 1071              	.LVL123:
 1072              		.loc 1 615 0
 1073 06e6 4220     		movs	r0, #66
 1074 06e8 BC21     		movs	r1, #188
 1075 06ea D8E5     		b	.L146
 1076              	.L68:
 1077              		.loc 1 478 0
 1078 06ec 0132     		adds	r2, r2, #1
 1079 06ee D2B2     		uxtb	r2, r2
 1080 06f0 3270     		strb	r2, [r6]
 1081              	.LVL124:
 1082              	.L26:
 1083              		.loc 1 481 0
ARM GAS  C:\Users\danit\AppData\Local\Temp\cc88b6Ga.s 			page 20


 1084 06f2 C64B     		ldr	r3, .L168+12
 1085 06f4 C648     		ldr	r0, .L168+16
 1086 06f6 93F80FE0 		ldrb	lr, [r3, #15]	@ zero_extendqisi2
 1087              		.loc 1 486 0
 1088 06fa C34B     		ldr	r3, .L168+8
 1089 06fc 0093     		str	r3, [sp]
 1090              		.loc 1 482 0
 1091 06fe C149     		ldr	r1, .L168+4
 1092              		.loc 1 481 0
 1093 0700 A0FB0E30 		umull	r3, r0, r0, lr
 1094 0704 C008     		lsrs	r0, r0, #3
 1095              	.LVL125:
 1096              		.loc 1 482 0
 1097 0706 81FB003A 		smull	r3, r10, r1, r0
 1098 070a 4FEA9A0A 		lsr	r10, r10, #2
 1099 070e 0AEB8A0A 		add	r10, r10, r10, lsl #2
 1100              	.LVL126:
 1101              		.loc 1 484 0
 1102 0712 B0EB4A0A 		subs	r10, r0, r10, lsl #1
 1103              	.LVL127:
 1104              		.loc 1 486 0
 1105 0716 59F82230 		ldr	r3, [r9, r2, lsl #2]
 1106              		.loc 1 484 0
 1107 071a 08BF     		it	eq
 1108 071c 4FF00A0A 		moveq	r10, #10
 1109              	.LVL128:
 1110              		.loc 1 486 0
 1111 0720 9A45     		cmp	r10, r3
 1112 0722 00F07982 		beq	.L70
 1113              		.loc 1 487 0
 1114 0726 44F29941 		movw	r1, #17561
 1115 072a 0020     		movs	r0, #0
 1116 072c FFF7FEFF 		bl	media_SetSector
 1117              	.LVL129:
 1118              		.loc 1 488 0
 1119 0730 FFF7FEFF 		bl	gfxGetDspAns
 1120              	.LVL130:
 1121              		.loc 1 489 0
 1122 0734 4220     		movs	r0, #66
 1123 0736 3B21     		movs	r1, #59
 1124 0738 E1E4     		b	.L147
 1125              	.L86:
 1126              		.loc 1 644 0
 1127 073a 0132     		adds	r2, r2, #1
 1128 073c 8CF80020 		strb	r2, [ip]
 1129              	.LVL131:
 1130              	.L35:
 1131              		.loc 1 647 0
 1132 0740 0020     		movs	r0, #0
 1133 0742 FFF7FEFF 		bl	calcGetValue
 1134              	.LVL132:
 1135 0746 AF4B     		ldr	r3, .L168+4
 1136              		.loc 1 650 0
 1137 0748 3178     		ldrb	r1, [r6]	@ zero_extendqisi2
 1138 074a DFF8CCC2 		ldr	ip, .L168+24
 1139 074e 59F82120 		ldr	r2, [r9, r1, lsl #2]
 1140              		.loc 1 647 0
ARM GAS  C:\Users\danit\AppData\Local\Temp\cc88b6Ga.s 			page 21


 1141 0752 83FB003A 		smull	r3, r10, r3, r0
 1142 0756 C317     		asrs	r3, r0, #31
 1143 0758 C3EBAA0A 		rsb	r10, r3, r10, asr #2
 1144 075c 0AEB8A0A 		add	r10, r10, r10, lsl #2
 1145 0760 A0EB4A0A 		sub	r10, r0, r10, lsl #1
 1146              	.LVL133:
 1147 0764 2AEAEA7A 		bic	r10, r10, r10, asr #31
 1148              	.LVL134:
 1149              		.loc 1 650 0
 1150 0768 A74B     		ldr	r3, .L168+8
 1151 076a 0093     		str	r3, [sp]
 1152 076c 5245     		cmp	r2, r10
 1153 076e 3FF453AE 		beq	.L87
 1154              		.loc 1 651 0
 1155 0772 44F29941 		movw	r1, #17561
 1156 0776 0020     		movs	r0, #0
 1157 0778 CDF804C0 		str	ip, [sp, #4]
 1158 077c FFF7FEFF 		bl	media_SetSector
 1159              	.LVL135:
 1160              		.loc 1 652 0
 1161 0780 FFF7FEFF 		bl	gfxGetDspAns
 1162              	.LVL136:
 1163              		.loc 1 653 0
 1164 0784 4220     		movs	r0, #66
 1165 0786 E421     		movs	r1, #228
 1166 0788 89E5     		b	.L146
 1167              	.L77:
 1168              		.loc 1 565 0
 1169 078a 0132     		adds	r2, r2, #1
 1170 078c 8CF80020 		strb	r2, [ip]
 1171              	.LVL137:
 1172              	.L31:
 1173              		.loc 1 568 0
 1174 0790 0120     		movs	r0, #1
 1175 0792 FFF7FEFF 		bl	calcGetValue
 1176              	.LVL138:
 1177 0796 9B4B     		ldr	r3, .L168+4
 1178              		.loc 1 570 0
 1179 0798 3178     		ldrb	r1, [r6]	@ zero_extendqisi2
 1180 079a DFF87CC2 		ldr	ip, .L168+24
 1181 079e 59F82120 		ldr	r2, [r9, r1, lsl #2]
 1182              		.loc 1 568 0
 1183 07a2 83FB00E3 		smull	lr, r3, r3, r0
 1184 07a6 4FEAE07A 		asr	r10, r0, #31
 1185 07aa CAEBA30A 		rsb	r10, r10, r3, asr #2
 1186 07ae 0AEB8A0A 		add	r10, r10, r10, lsl #2
 1187 07b2 A0EB4A0A 		sub	r10, r0, r10, lsl #1
 1188              	.LVL139:
 1189              		.loc 1 570 0
 1190 07b6 944B     		ldr	r3, .L168+8
 1191 07b8 0093     		str	r3, [sp]
 1192 07ba 5245     		cmp	r2, r10
 1193 07bc 3FF4DDAD 		beq	.L78
 1194              		.loc 1 571 0
 1195 07c0 44F29941 		movw	r1, #17561
 1196 07c4 0020     		movs	r0, #0
 1197 07c6 CDF804C0 		str	ip, [sp, #4]
ARM GAS  C:\Users\danit\AppData\Local\Temp\cc88b6Ga.s 			page 22


 1198 07ca FFF7FEFF 		bl	media_SetSector
 1199              	.LVL140:
 1200              		.loc 1 572 0
 1201 07ce FFF7FEFF 		bl	gfxGetDspAns
 1202              	.LVL141:
 1203              		.loc 1 573 0
 1204 07d2 6C20     		movs	r0, #108
 1205 07d4 E421     		movs	r1, #228
 1206 07d6 62E5     		b	.L146
 1207              	.L73:
 1208              		.loc 1 525 0
 1209 07d8 0EF10103 		add	r3, lr, #1
 1210 07dc 8CF80030 		strb	r3, [ip]
 1211              	.LVL142:
 1212              	.L29:
 1213              		.loc 1 528 0
 1214 07e0 0120     		movs	r0, #1
 1215 07e2 FFF7FEFF 		bl	calcGetValue
 1216              	.LVL143:
 1217 07e6 864B     		ldr	r3, .L168
 1218              		.loc 1 529 0
 1219 07e8 8649     		ldr	r1, .L168+4
 1220              		.loc 1 528 0
 1221 07ea 83FB0023 		smull	r2, r3, r3, r0
 1222 07ee C017     		asrs	r0, r0, #31
 1223 07f0 C0EB6313 		rsb	r3, r0, r3, asr #5
 1224              	.LVL144:
 1225              		.loc 1 531 0
 1226 07f4 D9F83C20 		ldr	r2, [r9, #60]
 1227              		.loc 1 529 0
 1228 07f8 81FB0301 		smull	r0, r1, r1, r3
 1229 07fc 4FEAE37A 		asr	r10, r3, #31
 1230 0800 CAEBA10A 		rsb	r10, r10, r1, asr #2
 1231 0804 0AEB8A0A 		add	r10, r10, r10, lsl #2
 1232              		.loc 1 531 0
 1233 0808 0A2A     		cmp	r2, #10
 1234              		.loc 1 529 0
 1235 080a A3EB4A0A 		sub	r10, r3, r10, lsl #1
 1236              	.LVL145:
 1237              		.loc 1 531 0
 1238 080e 00F04682 		beq	.L161
 1239              	.LVL146:
 1240              	.L74:
 1241              		.loc 1 536 0
 1242 0812 3278     		ldrb	r2, [r6]	@ zero_extendqisi2
 1243 0814 7C4B     		ldr	r3, .L168+8
 1244 0816 59F82210 		ldr	r1, [r9, r2, lsl #2]
 1245 081a DFF8FCC1 		ldr	ip, .L168+24
 1246 081e 0093     		str	r3, [sp]
 1247 0820 5145     		cmp	r1, r10
 1248 0822 3FF4BDAE 		beq	.L75
 1249              		.loc 1 537 0
 1250 0826 44F29941 		movw	r1, #17561
 1251 082a 0020     		movs	r0, #0
 1252 082c CDF804C0 		str	ip, [sp, #4]
 1253 0830 FFF7FEFF 		bl	media_SetSector
 1254              	.LVL147:
ARM GAS  C:\Users\danit\AppData\Local\Temp\cc88b6Ga.s 			page 23


 1255              		.loc 1 538 0
 1256 0834 FFF7FEFF 		bl	gfxGetDspAns
 1257              	.LVL148:
 1258              		.loc 1 539 0
 1259 0838 6C20     		movs	r0, #108
 1260 083a BC21     		movs	r1, #188
 1261 083c 2FE5     		b	.L146
 1262              	.L58:
 1263              		.loc 1 360 0
 1264 083e 0132     		adds	r2, r2, #1
 1265 0840 8CF80020 		strb	r2, [ip]
 1266              	.LVL149:
 1267              	.L19:
 1268              		.loc 1 363 0
 1269 0844 FFF7FEFF 		bl	calcAvgSpeed
 1270              	.LVL150:
 1271              		.loc 1 364 0
 1272 0848 6E4A     		ldr	r2, .L168+4
 1273              		.loc 1 367 0
 1274 084a 96F800E0 		ldrb	lr, [r6]	@ zero_extendqisi2
 1275 084e DFF8C8C1 		ldr	ip, .L168+24
 1276 0852 59F82E10 		ldr	r1, [r9, lr, lsl #2]
 1277              		.loc 1 364 0
 1278 0856 82FB00A3 		smull	r10, r3, r2, r0
 1279 085a C017     		asrs	r0, r0, #31
 1280              	.LVL151:
 1281 085c C0EBA303 		rsb	r3, r0, r3, asr #2
 1282              	.LVL152:
 1283              		.loc 1 365 0
 1284 0860 82FB0302 		smull	r0, r2, r2, r3
 1285 0864 4FEAE37A 		asr	r10, r3, #31
 1286 0868 CAEBA20A 		rsb	r10, r10, r2, asr #2
 1287 086c 0AEB8A0A 		add	r10, r10, r10, lsl #2
 1288 0870 A3EB4A0A 		sub	r10, r3, r10, lsl #1
 1289              	.LVL153:
 1290              		.loc 1 367 0
 1291 0874 5145     		cmp	r1, r10
 1292 0876 644B     		ldr	r3, .L168+8
 1293 0878 0093     		str	r3, [sp]
 1294 087a 3FF4A6AD 		beq	.L59
 1295              		.loc 1 368 0
 1296 087e 44F28C41 		movw	r1, #17548
 1297 0882 0020     		movs	r0, #0
 1298 0884 CDF804C0 		str	ip, [sp, #4]
 1299 0888 FFF7FEFF 		bl	media_SetSector
 1300              	.LVL154:
 1301              		.loc 1 369 0
 1302 088c FFF7FEFF 		bl	gfxGetDspAns
 1303              	.LVL155:
 1304              		.loc 1 370 0
 1305 0890 40F23B10 		movw	r0, #315
 1306 0894 2821     		movs	r1, #40
 1307 0896 02E5     		b	.L146
 1308              	.L56:
 1309              		.loc 1 339 0
 1310 0898 0EF10103 		add	r3, lr, #1
 1311 089c 8CF80030 		strb	r3, [ip]
ARM GAS  C:\Users\danit\AppData\Local\Temp\cc88b6Ga.s 			page 24


 1312              	.LVL156:
 1313              	.L18:
 1314              		.loc 1 342 0
 1315 08a0 FFF7FEFF 		bl	calcAvgSpeed
 1316              	.LVL157:
 1317              		.loc 1 343 0
 1318 08a4 564B     		ldr	r3, .L168
 1319              		.loc 1 344 0
 1320 08a6 5749     		ldr	r1, .L168+4
 1321              		.loc 1 343 0
 1322 08a8 83FB0023 		smull	r2, r3, r3, r0
 1323 08ac C017     		asrs	r0, r0, #31
 1324              	.LVL158:
 1325 08ae C0EB6313 		rsb	r3, r0, r3, asr #5
 1326              	.LVL159:
 1327              		.loc 1 346 0
 1328 08b2 D9F81020 		ldr	r2, [r9, #16]
 1329              		.loc 1 344 0
 1330 08b6 81FB0301 		smull	r0, r1, r1, r3
 1331 08ba 4FEAE37A 		asr	r10, r3, #31
 1332 08be CAEBA10A 		rsb	r10, r10, r1, asr #2
 1333 08c2 0AEB8A0A 		add	r10, r10, r10, lsl #2
 1334              		.loc 1 346 0
 1335 08c6 0A2A     		cmp	r2, #10
 1336              		.loc 1 344 0
 1337 08c8 A3EB4A0A 		sub	r10, r3, r10, lsl #1
 1338              	.LVL160:
 1339              		.loc 1 346 0
 1340 08cc 00F0ED81 		beq	.L162
 1341              	.LVL161:
 1342              	.L57:
 1343              		.loc 1 351 0
 1344 08d0 3278     		ldrb	r2, [r6]	@ zero_extendqisi2
 1345 08d2 4D4B     		ldr	r3, .L168+8
 1346 08d4 59F82210 		ldr	r1, [r9, r2, lsl #2]
 1347 08d8 DFF83CC1 		ldr	ip, .L168+24
 1348 08dc 0093     		str	r3, [sp]
 1349 08de 5145     		cmp	r1, r10
 1350 08e0 ADD0     		beq	.L58
 1351              		.loc 1 352 0
 1352 08e2 44F28C41 		movw	r1, #17548
 1353 08e6 0020     		movs	r0, #0
 1354 08e8 CDF804C0 		str	ip, [sp, #4]
 1355 08ec FFF7FEFF 		bl	media_SetSector
 1356              	.LVL162:
 1357              		.loc 1 353 0
 1358 08f0 FFF7FEFF 		bl	gfxGetDspAns
 1359              	.LVL163:
 1360              		.loc 1 354 0
 1361 08f4 40F23B10 		movw	r0, #315
 1362 08f8 1421     		movs	r1, #20
 1363 08fa D0E4     		b	.L146
 1364              	.L54:
 1365              		.loc 1 322 0
 1366 08fc 0131     		adds	r1, r1, #1
 1367 08fe 8CF80010 		strb	r1, [ip]
 1368              	.LVL164:
ARM GAS  C:\Users\danit\AppData\Local\Temp\cc88b6Ga.s 			page 25


 1369              	.L17:
 1370              		.loc 1 325 0
 1371 0902 FFF7FEFF 		bl	calcAvgSpeed
 1372              	.LVL165:
 1373              		.loc 1 330 0
 1374 0906 404B     		ldr	r3, .L168+8
 1375 0908 0093     		str	r3, [sp]
 1376              		.loc 1 326 0
 1377 090a 424B     		ldr	r3, .L168+20
 1378              		.loc 1 330 0
 1379 090c 96F800E0 		ldrb	lr, [r6]	@ zero_extendqisi2
 1380 0910 DFF804C1 		ldr	ip, .L168+24
 1381 0914 59F82E10 		ldr	r1, [r9, lr, lsl #2]
 1382              		.loc 1 326 0
 1383 0918 83FB003A 		smull	r3, r10, r3, r0
 1384 091c C217     		asrs	r2, r0, #31
 1385              	.LVL166:
 1386              		.loc 1 328 0
 1387 091e D2EBAA1A 		rsbs	r10, r2, r10, asr #6
 1388              	.LVL167:
 1389 0922 08BF     		it	eq
 1390 0924 4FF00A0A 		moveq	r10, #10
 1391              	.LVL168:
 1392              		.loc 1 330 0
 1393 0928 8A45     		cmp	r10, r1
 1394 092a B5D0     		beq	.L56
 1395              		.loc 1 331 0
 1396 092c 0020     		movs	r0, #0
 1397 092e 44F28C41 		movw	r1, #17548
 1398 0932 CDF804C0 		str	ip, [sp, #4]
 1399 0936 FFF7FEFF 		bl	media_SetSector
 1400              	.LVL169:
 1401              		.loc 1 332 0
 1402 093a FFF7FEFF 		bl	gfxGetDspAns
 1403              	.LVL170:
 1404              		.loc 1 333 0
 1405 093e 40F23B10 		movw	r0, #315
 1406 0942 91E5     		b	.L149
 1407              	.L53:
 1408              		.loc 1 302 0
 1409 0944 0131     		adds	r1, r1, #1
 1410 0946 8CF80010 		strb	r1, [ip]
 1411              	.LVL171:
 1412              	.L16:
 1413              		.loc 1 305 0
 1414 094a FFF7FEFF 		bl	speedGetSpeed
 1415              	.LVL172:
 1416 094e 2D4A     		ldr	r2, .L168+4
 1417              		.loc 1 309 0
 1418 0950 3178     		ldrb	r1, [r6]	@ zero_extendqisi2
 1419 0952 2D4B     		ldr	r3, .L168+8
 1420 0954 0093     		str	r3, [sp]
 1421              		.loc 1 305 0
 1422 0956 82FB003A 		smull	r3, r10, r2, r0
 1423 095a C017     		asrs	r0, r0, #31
 1424              		.loc 1 309 0
 1425 095c 59F82130 		ldr	r3, [r9, r1, lsl #2]
ARM GAS  C:\Users\danit\AppData\Local\Temp\cc88b6Ga.s 			page 26


 1426 0960 DFF8B4C0 		ldr	ip, .L168+24
 1427              		.loc 1 305 0
 1428 0964 C0EB6A0A 		rsb	r10, r0, r10, asr #1
 1429              	.LVL173:
 1430              		.loc 1 309 0
 1431 0968 5345     		cmp	r3, r10
 1432 096a C7D0     		beq	.L54
 1433              		.loc 1 310 0
 1434 096c 0120     		movs	r0, #1
 1435 096e CDF804C0 		str	ip, [sp, #4]
 1436 0972 FFF7FEFF 		bl	gfx_Transparency
 1437              	.LVL174:
 1438              		.loc 1 311 0
 1439 0976 FFF7FEFF 		bl	gfxGetDspAns
 1440              	.LVL175:
 1441              		.loc 1 312 0
 1442 097a 1F20     		movs	r0, #31
 1443 097c FFF7FEFF 		bl	gfx_TransparentColour
 1444              	.LVL176:
 1445              		.loc 1 313 0
 1446 0980 FFF7FEFF 		bl	gfxGetDspAns
 1447              	.LVL177:
 1448              		.loc 1 314 0
 1449 0984 8A21     		movs	r1, #138
 1450 0986 0020     		movs	r0, #0
 1451 0988 FFF7FEFF 		bl	media_SetSector
 1452              	.LVL178:
 1453              		.loc 1 315 0
 1454 098c FFF7FEFF 		bl	gfxGetDspAns
 1455              	.LVL179:
 1456              		.loc 1 316 0
 1457 0990 9420     		movs	r0, #148
 1458 0992 1521     		movs	r1, #21
 1459 0994 83E4     		b	.L146
 1460              	.L52:
 1461              		.loc 1 285 0
 1462 0996 0132     		adds	r2, r2, #1
 1463 0998 1A70     		strb	r2, [r3]
 1464              	.LVL180:
 1465              	.L15:
 1466              		.loc 1 288 0
 1467 099a FFF7FEFF 		bl	speedGetSpeed
 1468              	.LVL181:
 1469 099e 194B     		ldr	r3, .L168+4
 1470              		.loc 1 292 0
 1471 09a0 3178     		ldrb	r1, [r6]	@ zero_extendqisi2
 1472 09a2 DFF874C0 		ldr	ip, .L168+24
 1473 09a6 59F82120 		ldr	r2, [r9, r1, lsl #2]
 1474              		.loc 1 288 0
 1475 09aa 83FB003E 		smull	r3, lr, r3, r0
 1476 09ae C317     		asrs	r3, r0, #31
 1477 09b0 C3EBAE03 		rsb	r3, r3, lr, asr #2
 1478 09b4 03EB8303 		add	r3, r3, r3, lsl #2
 1479 09b8 A0EB4303 		sub	r3, r0, r3, lsl #1
 1480 09bc 1FFA83FA 		uxth	r10, r3
 1481              	.LVL182:
 1482              		.loc 1 292 0
ARM GAS  C:\Users\danit\AppData\Local\Temp\cc88b6Ga.s 			page 27


 1483 09c0 5245     		cmp	r2, r10
 1484 09c2 114B     		ldr	r3, .L168+8
 1485 09c4 0093     		str	r3, [sp]
 1486 09c6 BDD0     		beq	.L53
 1487              		.loc 1 293 0
 1488 09c8 44F2B341 		movw	r1, #17587
 1489 09cc 0020     		movs	r0, #0
 1490 09ce CDF804C0 		str	ip, [sp, #4]
 1491 09d2 FFF7FEFF 		bl	media_SetSector
 1492              	.LVL183:
 1493              		.loc 1 294 0
 1494 09d6 FFF7FEFF 		bl	gfxGetDspAns
 1495              	.LVL184:
 1496              		.loc 1 295 0
 1497 09da BA20     		movs	r0, #186
 1498 09dc A721     		movs	r1, #167
 1499 09de 5246     		mov	r2, r10
 1500 09e0 FFF7FEFF 		bl	media_VideoFrame
 1501              	.LVL185:
 1502              		.loc 1 297 0
 1503 09e4 DDF804C0 		ldr	ip, [sp, #4]
 1504 09e8 009B     		ldr	r3, [sp]
 1505 09ea 9CF80010 		ldrb	r1, [ip]	@ zero_extendqisi2
 1506              		.loc 1 296 0
 1507 09ee 0020     		movs	r0, #0
 1508              		.loc 1 298 0
 1509 09f0 4A1C     		adds	r2, r1, #1
 1510              		.loc 1 297 0
 1511 09f2 43F821A0 		str	r10, [r3, r1, lsl #2]
 1512              		.loc 1 298 0
 1513 09f6 D2B2     		uxtb	r2, r2
 1514              		.loc 1 296 0
 1515 09f8 3870     		strb	r0, [r7]
 1516              		.loc 1 299 0
 1517 09fa FFF754BB 		b	.L11
 1518              	.L169:
 1519 09fe 00BF     		.align	2
 1520              	.L168:
 1521 0a00 1F85EB51 		.word	1374389535
 1522 0a04 67666666 		.word	1717986919
 1523 0a08 00000000 		.word	.LANCHOR7
 1524 0a0c 00000000 		.word	bmsitems
 1525 0a10 CDCCCCCC 		.word	-858993459
 1526 0a14 D34D6210 		.word	274877907
 1527 0a18 00000000 		.word	.LANCHOR6
 1528              	.L50:
 1529              		.loc 1 260 0
 1530 0a1c 0132     		adds	r2, r2, #1
 1531 0a1e 1A70     		strb	r2, [r3]
 1532              	.LVL186:
 1533              	.L14:
 1534              		.loc 1 263 0
 1535 0a20 FFF7FEFF 		bl	speedGetSpeed
 1536              	.LVL187:
 1537 0a24 BC49     		ldr	r1, .L170
 1538              		.loc 1 267 0
 1539 0a26 D9F80020 		ldr	r2, [r9]
ARM GAS  C:\Users\danit\AppData\Local\Temp\cc88b6Ga.s 			page 28


 1540              		.loc 1 263 0
 1541 0a2a 81FB00E3 		smull	lr, r3, r1, r0
 1542 0a2e C017     		asrs	r0, r0, #31
 1543 0a30 C0EBA303 		rsb	r3, r0, r3, asr #2
 1544 0a34 9BB2     		uxth	r3, r3
 1545              	.LVL188:
 1546              		.loc 1 264 0
 1547 0a36 81FB0301 		smull	r0, r1, r1, r3
 1548 0a3a 4FEA910A 		lsr	r10, r1, #2
 1549 0a3e 0AEB8A0A 		add	r10, r10, r10, lsl #2
 1550              		.loc 1 267 0
 1551 0a42 0A2A     		cmp	r2, #10
 1552              		.loc 1 264 0
 1553 0a44 A3EB4A0A 		sub	r10, r3, r10, lsl #1
 1554              	.LVL189:
 1555              		.loc 1 267 0
 1556 0a48 00F06081 		beq	.L163
 1557              	.LVL190:
 1558              	.L51:
 1559              		.loc 1 274 0
 1560 0a4c 3278     		ldrb	r2, [r6]	@ zero_extendqisi2
 1561 0a4e DFF8D8C2 		ldr	ip, .L170+16
 1562 0a52 59F82210 		ldr	r1, [r9, r2, lsl #2]
 1563 0a56 B14B     		ldr	r3, .L170+4
 1564 0a58 CDF800C0 		str	ip, [sp]
 1565 0a5c 5145     		cmp	r1, r10
 1566 0a5e 9AD0     		beq	.L52
 1567              		.loc 1 276 0
 1568 0a60 44F2B341 		movw	r1, #17587
 1569 0a64 0020     		movs	r0, #0
 1570 0a66 0193     		str	r3, [sp, #4]
 1571 0a68 FFF7FEFF 		bl	media_SetSector
 1572              	.LVL191:
 1573              		.loc 1 277 0
 1574 0a6c FFF7FEFF 		bl	gfxGetDspAns
 1575              	.LVL192:
 1576              		.loc 1 278 0
 1577 0a70 BA20     		movs	r0, #186
 1578 0a72 7521     		movs	r1, #117
 1579              	.L145:
 1580 0a74 5246     		mov	r2, r10
 1581 0a76 FFF7FEFF 		bl	media_VideoFrame
 1582              	.LVL193:
 1583              		.loc 1 280 0
 1584 0a7a 019B     		ldr	r3, [sp, #4]
 1585 0a7c DDF800C0 		ldr	ip, [sp]
 1586 0a80 1B78     		ldrb	r3, [r3]	@ zero_extendqisi2
 1587              		.loc 1 279 0
 1588 0a82 0021     		movs	r1, #0
 1589              		.loc 1 281 0
 1590 0a84 5A1C     		adds	r2, r3, #1
 1591              		.loc 1 280 0
 1592 0a86 4CF823A0 		str	r10, [ip, r3, lsl #2]
 1593              		.loc 1 281 0
 1594 0a8a D2B2     		uxtb	r2, r2
 1595              		.loc 1 279 0
 1596 0a8c 3970     		strb	r1, [r7]
ARM GAS  C:\Users\danit\AppData\Local\Temp\cc88b6Ga.s 			page 29


 1597              		.loc 1 282 0
 1598 0a8e FFF70ABB 		b	.L11
 1599              	.LVL194:
 1600              	.L27:
 1601 0a92 A34B     		ldr	r3, .L170+8
 1602 0a94 93F80FE0 		ldrb	lr, [r3, #15]	@ zero_extendqisi2
 1603              	.L46:
 1604              		.loc 1 498 0
 1605 0a98 A249     		ldr	r1, .L170+12
 1606              		.loc 1 500 0
 1607 0a9a A34B     		ldr	r3, .L170+16
 1608 0a9c 0093     		str	r3, [sp]
 1609              		.loc 1 498 0
 1610 0a9e A1FB0E31 		umull	r3, r1, r1, lr
 1611 0aa2 C908     		lsrs	r1, r1, #3
 1612 0aa4 01EB8101 		add	r1, r1, r1, lsl #2
 1613              		.loc 1 500 0
 1614 0aa8 59F82200 		ldr	r0, [r9, r2, lsl #2]
 1615              		.loc 1 498 0
 1616 0aac AEEB4101 		sub	r1, lr, r1, lsl #1
 1617 0ab0 5FFA81FA 		uxtb	r10, r1
 1618              	.LVL195:
 1619              		.loc 1 500 0
 1620 0ab4 5045     		cmp	r0, r10
 1621 0ab6 3FF400AD 		beq	.L71
 1622              		.loc 1 501 0
 1623 0aba 44F29941 		movw	r1, #17561
 1624 0abe 0020     		movs	r0, #0
 1625 0ac0 FFF7FEFF 		bl	media_SetSector
 1626              	.LVL196:
 1627              		.loc 1 502 0
 1628 0ac4 FFF7FEFF 		bl	gfxGetDspAns
 1629              	.LVL197:
 1630              		.loc 1 503 0
 1631 0ac8 4220     		movs	r0, #66
 1632 0aca 4F21     		movs	r1, #79
 1633 0acc FFF717BB 		b	.L147
 1634              	.LVL198:
 1635              	.L24:
 1636 0ad0 934B     		ldr	r3, .L170+8
 1637 0ad2 1889     		ldrh	r0, [r3, #8]
 1638              	.L48:
 1639              		.loc 1 446 0
 1640 0ad4 954B     		ldr	r3, .L170+20
 1641              		.loc 1 447 0
 1642 0ad6 9049     		ldr	r1, .L170
 1643              		.loc 1 446 0
 1644 0ad8 A3FB003E 		umull	r3, lr, r3, r0
 1645 0adc 4FEA5E1E 		lsr	lr, lr, #5
 1646              	.LVL199:
 1647              		.loc 1 454 0
 1648 0ae0 914B     		ldr	r3, .L170+16
 1649 0ae2 0093     		str	r3, [sp]
 1650              		.loc 1 447 0
 1651 0ae4 81FB0E3A 		smull	r3, r10, r1, lr
 1652 0ae8 4FEA9A0A 		lsr	r10, r10, #2
 1653 0aec 0AEB8A0A 		add	r10, r10, r10, lsl #2
ARM GAS  C:\Users\danit\AppData\Local\Temp\cc88b6Ga.s 			page 30


 1654              		.loc 1 454 0
 1655 0af0 59F82230 		ldr	r3, [r9, r2, lsl #2]
 1656              		.loc 1 447 0
 1657 0af4 AEEB4A0A 		sub	r10, lr, r10, lsl #1
 1658              	.LVL200:
 1659              		.loc 1 454 0
 1660 0af8 5345     		cmp	r3, r10
 1661 0afa 00F09580 		beq	.L67
 1662              		.loc 1 455 0
 1663 0afe 44F29941 		movw	r1, #17561
 1664 0b02 0020     		movs	r0, #0
 1665 0b04 FFF7FEFF 		bl	media_SetSector
 1666              	.LVL201:
 1667              		.loc 1 456 0
 1668 0b08 FFF7FEFF 		bl	gfxGetDspAns
 1669              	.LVL202:
 1670              		.loc 1 457 0
 1671 0b0c 6C20     		movs	r0, #108
 1672 0b0e 3B21     		movs	r1, #59
 1673 0b10 FFF7F5BA 		b	.L147
 1674              	.LVL203:
 1675              	.L25:
 1676 0b14 824B     		ldr	r3, .L170+8
 1677 0b16 1889     		ldrh	r0, [r3, #8]
 1678              	.L47:
 1679              		.loc 1 466 0
 1680 0b18 824B     		ldr	r3, .L170+12
 1681              		.loc 1 467 0
 1682 0b1a 7F49     		ldr	r1, .L170
 1683              		.loc 1 466 0
 1684 0b1c A3FB0003 		umull	r0, r3, r3, r0
 1685 0b20 DB08     		lsrs	r3, r3, #3
 1686              	.LVL204:
 1687              		.loc 1 467 0
 1688 0b22 81FB031A 		smull	r1, r10, r1, r3
 1689 0b26 4FEA9A0A 		lsr	r10, r10, #2
 1690 0b2a 0AEB8A0A 		add	r10, r10, r10, lsl #2
 1691 0b2e A3EB4A0A 		sub	r10, r3, r10, lsl #1
 1692              	.LVL205:
 1693              		.loc 1 469 0
 1694 0b32 7D4B     		ldr	r3, .L170+16
 1695 0b34 0093     		str	r3, [sp]
 1696 0b36 59F82230 		ldr	r3, [r9, r2, lsl #2]
 1697 0b3a 5345     		cmp	r3, r10
 1698 0b3c 3FF4D6AD 		beq	.L68
 1699              		.loc 1 470 0
 1700 0b40 44F29941 		movw	r1, #17561
 1701 0b44 0020     		movs	r0, #0
 1702 0b46 FFF7FEFF 		bl	media_SetSector
 1703              	.LVL206:
 1704              		.loc 1 471 0
 1705 0b4a FFF7FEFF 		bl	gfxGetDspAns
 1706              	.LVL207:
 1707              		.loc 1 472 0
 1708 0b4e 6C20     		movs	r0, #108
 1709 0b50 4F21     		movs	r1, #79
 1710 0b52 FFF7D4BA 		b	.L147
ARM GAS  C:\Users\danit\AppData\Local\Temp\cc88b6Ga.s 			page 31


 1711              	.LVL208:
 1712              	.L12:
 1713              		.loc 1 245 0
 1714 0b56 FFF7FEFF 		bl	speedGetSpeed
 1715              	.LVL209:
 1716 0b5a 744B     		ldr	r3, .L170+20
 1717              		.loc 1 250 0
 1718 0b5c 3278     		ldrb	r2, [r6]	@ zero_extendqisi2
 1719 0b5e DFF8C8C1 		ldr	ip, .L170+16
 1720 0b62 59F82210 		ldr	r1, [r9, r2, lsl #2]
 1721 0b66 CDF800C0 		str	ip, [sp]
 1722              		.loc 1 245 0
 1723 0b6a 83FB003A 		smull	r3, r10, r3, r0
 1724 0b6e C017     		asrs	r0, r0, #31
 1725 0b70 C0EB6A1A 		rsb	r10, r0, r10, asr #5
 1726 0b74 0FFA8AFA 		sxth	r10, r10
 1727              	.LVL210:
 1728              		.loc 1 246 0
 1729 0b78 BAF1000F 		cmp	r10, #0
 1730 0b7c 08BF     		it	eq
 1731 0b7e 4FF00A0A 		moveq	r10, #10
 1732              	.LVL211:
 1733              		.loc 1 250 0
 1734 0b82 8A45     		cmp	r10, r1
 1735 0b84 654B     		ldr	r3, .L170+4
 1736 0b86 3FF449AF 		beq	.L50
 1737              		.loc 1 251 0
 1738 0b8a 44F2B341 		movw	r1, #17587
 1739 0b8e 0020     		movs	r0, #0
 1740 0b90 0193     		str	r3, [sp, #4]
 1741 0b92 FFF7FEFF 		bl	media_SetSector
 1742              	.LVL212:
 1743              		.loc 1 252 0
 1744 0b96 FFF7FEFF 		bl	gfxGetDspAns
 1745              	.LVL213:
 1746              		.loc 1 253 0
 1747 0b9a BA20     		movs	r0, #186
 1748 0b9c 4321     		movs	r1, #67
 1749 0b9e 69E7     		b	.L145
 1750              	.LVL214:
 1751              	.L152:
 1752              	.LBE4:
 1753              		.loc 1 224 0
 1754 0ba0 FFF7FEFF 		bl	bus_Read
 1755              	.LVL215:
 1756 0ba4 88F80000 		strb	r0, [r8]
 1757 0ba8 FFF73CBA 		b	.L2
 1758              	.L153:
 1759              		.loc 1 867 0
 1760 0bac 0123     		movs	r3, #1
 1761 0bae 0B70     		strb	r3, [r1]
 1762              		.loc 1 868 0
 1763 0bb0 FFF738BA 		b	.L2
 1764              	.L6:
 1765              		.loc 1 233 0
 1766 0bb4 FFF7FEFF 		bl	gfxGetDspAns
 1767              	.LVL216:
ARM GAS  C:\Users\danit\AppData\Local\Temp\cc88b6Ga.s 			page 32


 1768 0bb8 5D4B     		ldr	r3, .L170+24
 1769 0bba C0B2     		uxtb	r0, r0
 1770              		.loc 1 234 0
 1771 0bbc 0628     		cmp	r0, #6
 1772              		.loc 1 233 0
 1773 0bbe 1870     		strb	r0, [r3]
 1774              		.loc 1 234 0
 1775 0bc0 03D0     		beq	.L8
 1776              		.loc 1 234 0 is_stmt 0 discriminator 1
 1777 0bc2 DBF80030 		ldr	r3, [fp]
 1778 0bc6 072B     		cmp	r3, #7
 1779 0bc8 01DD     		ble	.L9
 1780              	.L8:
 1781              		.loc 1 235 0 is_stmt 1
 1782 0bca 0123     		movs	r3, #1
 1783 0bcc 3B70     		strb	r3, [r7]
 1784              	.L9:
 1785              		.loc 1 237 0
 1786 0bce FFF7FEFF 		bl	gfxGetDspAns
 1787              	.LVL217:
 1788 0bd2 0628     		cmp	r0, #6
 1789 0bd4 7FF426AA 		bne	.L2
 1790              		.loc 1 238 0
 1791 0bd8 564A     		ldr	r2, .L170+28
 1792 0bda 0123     		movs	r3, #1
 1793 0bdc 1370     		strb	r3, [r2]
 1794 0bde FFF721BA 		b	.L2
 1795              	.L104:
 1796              	.LBB5:
 1797              		.loc 1 828 0
 1798 0be2 5549     		ldr	r1, .L170+32
 1799 0be4 0988     		ldrh	r1, [r1]
 1800 0be6 0131     		adds	r1, r1, #1
 1801 0be8 89B2     		uxth	r1, r1
 1802              		.loc 1 829 0
 1803 0bea 0929     		cmp	r1, #9
 1804 0bec 40F28B80 		bls	.L131
 1805              	.LVL218:
 1806              		.loc 1 830 0 discriminator 4
 1807 0bf0 1429     		cmp	r1, #20
 1808 0bf2 88BF     		it	hi
 1809 0bf4 1946     		movhi	r1, r3
 1810              		.loc 1 829 0 discriminator 4
 1811 0bf6 4FF0020A 		mov	r10, #2
 1812              	.LVL219:
 1813              	.L106:
 1814              		.loc 1 830 0 discriminator 4
 1815 0bfa 4F4B     		ldr	r3, .L170+32
 1816 0bfc 1980     		strh	r1, [r3]	@ movhi
 1817 0bfe FFF76FBA 		b	.L105
 1818              	.L125:
 1819              		.loc 1 775 0
 1820 0c02 4FF0000A 		mov	r10, #0
 1821 0c06 FFF7D0BA 		b	.L98
 1822              	.L128:
 1823              		.loc 1 804 0
 1824 0c0a 8246     		mov	r10, r0
ARM GAS  C:\Users\danit\AppData\Local\Temp\cc88b6Ga.s 			page 33


 1825 0c0c FFF797BA 		b	.L101
 1826              	.L122:
 1827              		.loc 1 752 0
 1828 0c10 4FF0000A 		mov	r10, #0
 1829 0c14 FFF7F3BA 		b	.L95
 1830              	.LVL220:
 1831              	.L70:
 1832              		.loc 1 495 0
 1833 0c18 0132     		adds	r2, r2, #1
 1834 0c1a D2B2     		uxtb	r2, r2
 1835 0c1c 3270     		strb	r2, [r6]
 1836 0c1e 3BE7     		b	.L46
 1837              	.L66:
 1838              		.loc 1 443 0
 1839 0c20 0132     		adds	r2, r2, #1
 1840 0c22 D2B2     		uxtb	r2, r2
 1841 0c24 3270     		strb	r2, [r6]
 1842 0c26 55E7     		b	.L48
 1843              	.L67:
 1844              		.loc 1 463 0
 1845 0c28 0132     		adds	r2, r2, #1
 1846 0c2a D2B2     		uxtb	r2, r2
 1847 0c2c 3270     		strb	r2, [r6]
 1848 0c2e 73E7     		b	.L47
 1849              	.LVL221:
 1850              	.L156:
 1851              		.loc 1 681 0 discriminator 2
 1852 0c30 0420     		movs	r0, #4
 1853 0c32 FFF7FEFF 		bl	getLightFlashing
 1854              	.LVL222:
 1855 0c36 80F00100 		eor	r0, r0, #1
 1856 0c3a 5FFA80FA 		uxtb	r10, r0
 1857 0c3e FFF762BB 		b	.L89
 1858              	.L155:
 1859              		.loc 1 697 0 discriminator 2
 1860 0c42 0420     		movs	r0, #4
 1861 0c44 FFF7FEFF 		bl	getLightFlashing
 1862              	.LVL223:
 1863 0c48 80F00100 		eor	r0, r0, #1
 1864 0c4c 5FFA80FA 		uxtb	r10, r0
 1865 0c50 FFF710BB 		b	.L91
 1866              	.LVL224:
 1867              	.L154:
 1868              		.loc 1 848 0
 1869 0c54 4F21     		movs	r1, #79
 1870 0c56 0020     		movs	r0, #0
 1871 0c58 FFF7FEFF 		bl	media_SetSector
 1872              	.LVL225:
 1873              		.loc 1 849 0
 1874 0c5c FFF7FEFF 		bl	gfxGetDspAns
 1875              	.LVL226:
 1876              		.loc 1 850 0
 1877 0c60 0022     		movs	r2, #0
 1878 0c62 40F2B310 		movw	r0, #435
 1879 0c66 7621     		movs	r1, #118
 1880 0c68 FFF7FEFF 		bl	media_VideoFrame
 1881              	.LVL227:
ARM GAS  C:\Users\danit\AppData\Local\Temp\cc88b6Ga.s 			page 34


 1882              		.loc 1 852 0
 1883 0c6c 3278     		ldrb	r2, [r6]	@ zero_extendqisi2
 1884              		.loc 1 851 0
 1885 0c6e 0023     		movs	r3, #0
 1886              		.loc 1 852 0
 1887 0c70 4AF82230 		str	r3, [r10, r2, lsl #2]
 1888              		.loc 1 851 0
 1889 0c74 3B70     		strb	r3, [r7]
 1890 0c76 FFF716BA 		b	.L11
 1891              	.LVL228:
 1892              	.L160:
 1893              		.loc 1 609 0
 1894 0c7a BAF1000F 		cmp	r10, #0
 1895 0c7e 08BF     		it	eq
 1896 0c80 4FF00A0A 		moveq	r10, #10
 1897              	.LVL229:
 1898 0c84 1DE5     		b	.L82
 1899              	.LVL230:
 1900              	.L157:
 1901              		.loc 1 398 0
 1902 0c86 BAF1000F 		cmp	r10, #0
 1903 0c8a 08BF     		it	eq
 1904 0c8c 4FF00A0A 		moveq	r10, #10
 1905              	.LVL231:
 1906 0c90 50E4     		b	.L62
 1907              	.LVL232:
 1908              	.L158:
 1909              		.loc 1 553 0
 1910 0c92 BAF1000F 		cmp	r10, #0
 1911 0c96 08BF     		it	eq
 1912 0c98 4FF00A0A 		moveq	r10, #10
 1913              	.LVL233:
 1914 0c9c 9BE4     		b	.L76
 1915              	.LVL234:
 1916              	.L161:
 1917              		.loc 1 533 0
 1918 0c9e BAF1000F 		cmp	r10, #0
 1919 0ca2 08BF     		it	eq
 1920 0ca4 4FF00A0A 		moveq	r10, #10
 1921              	.LVL235:
 1922 0ca8 B3E5     		b	.L74
 1923              	.LVL236:
 1924              	.L162:
 1925              		.loc 1 348 0
 1926 0caa BAF1000F 		cmp	r10, #0
 1927 0cae 08BF     		it	eq
 1928 0cb0 4FF00A0A 		moveq	r10, #10
 1929              	.LVL237:
 1930 0cb4 0CE6     		b	.L57
 1931              	.LVL238:
 1932              	.L159:
 1933              		.loc 1 632 0
 1934 0cb6 BAF1000F 		cmp	r10, #0
 1935 0cba 08BF     		it	eq
 1936 0cbc 4FF00A0A 		moveq	r10, #10
 1937              	.LVL239:
 1938 0cc0 BDE4     		b	.L85
ARM GAS  C:\Users\danit\AppData\Local\Temp\cc88b6Ga.s 			page 35


 1939              	.LVL240:
 1940              	.L84:
 1941              		.loc 1 630 0
 1942 0cc2 D9F85030 		ldr	r3, [r9, #80]
 1943              		.loc 1 628 0
 1944 0cc6 0A2B     		cmp	r3, #10
 1945 0cc8 0CBF     		ite	eq
 1946 0cca 4FF00A0A 		moveq	r10, #10
 1947 0cce 4FF0000A 		movne	r10, #0
 1948 0cd2 B4E4     		b	.L85
 1949              	.LVL241:
 1950              	.L119:
 1951              		.loc 1 587 0
 1952 0cd4 4FF00A0A 		mov	r10, #10
 1953 0cd8 FFF761BB 		b	.L79
 1954              	.L81:
 1955              	.LVL242:
 1956              		.loc 1 607 0
 1957 0cdc D9F84C30 		ldr	r3, [r9, #76]
 1958              		.loc 1 605 0
 1959 0ce0 0A2B     		cmp	r3, #10
 1960 0ce2 0CBF     		ite	eq
 1961 0ce4 4FF00A0A 		moveq	r10, #10
 1962 0ce8 4FF0000A 		movne	r10, #0
 1963 0cec E9E4     		b	.L82
 1964              	.LVL243:
 1965              	.L123:
 1966              		.loc 1 757 0
 1967 0cee 4FF0010A 		mov	r10, #1
 1968 0cf2 FFF782BA 		b	.L96
 1969              	.L129:
 1970              		.loc 1 799 0
 1971 0cf6 4FF0010A 		mov	r10, #1
 1972 0cfa FFF71EBA 		b	.L102
 1973              	.L126:
 1974              		.loc 1 780 0
 1975 0cfe 4FF0010A 		mov	r10, #1
 1976 0d02 FFF750BA 		b	.L99
 1977              	.L131:
 1978              		.loc 1 829 0
 1979 0d06 4FF0010A 		mov	r10, #1
 1980 0d0a 76E7     		b	.L106
 1981              	.LVL244:
 1982              	.L163:
 1983              		.loc 1 269 0
 1984 0d0c BAF1000F 		cmp	r10, #0
 1985 0d10 08BF     		it	eq
 1986 0d12 4FF00A0A 		moveq	r10, #10
 1987              	.LVL245:
 1988 0d16 99E6     		b	.L51
 1989              	.L171:
 1990              		.align	2
 1991              	.L170:
 1992 0d18 67666666 		.word	1717986919
 1993 0d1c 00000000 		.word	.LANCHOR6
 1994 0d20 00000000 		.word	bmsitems
 1995 0d24 CDCCCCCC 		.word	-858993459
ARM GAS  C:\Users\danit\AppData\Local\Temp\cc88b6Ga.s 			page 36


 1996 0d28 00000000 		.word	.LANCHOR7
 1997 0d2c 1F85EB51 		.word	1374389535
 1998 0d30 00000000 		.word	.LANCHOR4
 1999 0d34 00000000 		.word	.LANCHOR5
 2000 0d38 00000000 		.word	.LANCHOR11
 2001              	.LBE5:
 2002              	.LBE2:
 2003              		.cfi_endproc
 2004              	.LFE123:
 2005              		.size	dspTask, .-dspTask
 2006              		.section	.text.chprintf,"ax",%progbits
 2007              		.align	2
 2008              		.p2align 4,,15
 2009              		.thumb
 2010              		.thumb_func
 2011              		.type	chprintf, %function
 2012              	chprintf:
 2013              	.LFB118:
 2014              		.file 2 "../../../ChibiOS/os/various/chprintf.h"
 2015              		.loc 2 69 0
 2016              		.cfi_startproc
 2017              		@ args = 4, pretend = 12, frame = 8
 2018              		@ frame_needed = 0, uses_anonymous_args = 1
 2019              	.LVL246:
 2020 0000 0EB4     		push	{r1, r2, r3}
 2021              		.cfi_def_cfa_offset 12
 2022              		.cfi_offset 1, -12
 2023              		.cfi_offset 2, -8
 2024              		.cfi_offset 3, -4
 2025 0002 00B5     		push	{lr}
 2026              		.cfi_def_cfa_offset 16
 2027              		.cfi_offset 14, -16
 2028 0004 82B0     		sub	sp, sp, #8
 2029              		.cfi_def_cfa_offset 24
 2030              		.loc 2 69 0
 2031 0006 03AA     		add	r2, sp, #12
 2032 0008 52F8041B 		ldr	r1, [r2], #4
 2033              		.loc 2 72 0
 2034 000c 0192     		str	r2, [sp, #4]
 2035              		.loc 2 73 0
 2036 000e FFF7FEFF 		bl	chvprintf
 2037              	.LVL247:
 2038              		.loc 2 75 0
 2039 0012 02B0     		add	sp, sp, #8
 2040              		.cfi_def_cfa_offset 16
 2041              		@ sp needed
 2042 0014 5DF804EB 		ldr	lr, [sp], #4
 2043              		.cfi_restore 14
 2044              		.cfi_def_cfa_offset 12
 2045 0018 03B0     		add	sp, sp, #12
 2046              		.cfi_restore 3
 2047              		.cfi_restore 2
 2048              		.cfi_restore 1
 2049              		.cfi_def_cfa_offset 0
 2050 001a 7047     		bx	lr
 2051              		.cfi_endproc
 2052              	.LFE118:
ARM GAS  C:\Users\danit\AppData\Local\Temp\cc88b6Ga.s 			page 37


 2053              		.size	chprintf, .-chprintf
 2054              		.section	.text.dsp_LoadTop,"ax",%progbits
 2055              		.align	2
 2056              		.p2align 4,,15
 2057              		.global	dsp_LoadTop
 2058              		.thumb
 2059              		.thumb_func
 2060              		.type	dsp_LoadTop, %function
 2061              	dsp_LoadTop:
 2062              	.LFB119:
 2063              		.loc 1 81 0
 2064              		.cfi_startproc
 2065              		@ args = 0, pretend = 0, frame = 0
 2066              		@ frame_needed = 0, uses_anonymous_args = 0
 2067 0000 08B5     		push	{r3, lr}
 2068              		.cfi_def_cfa_offset 8
 2069              		.cfi_offset 3, -8
 2070              		.cfi_offset 14, -4
 2071              		.loc 1 83 0
 2072 0002 0020     		movs	r0, #0
 2073 0004 3921     		movs	r1, #57
 2074 0006 FFF7FEFF 		bl	media_SetSector
 2075              	.LVL248:
 2076              		.loc 1 84 0
 2077 000a 0022     		movs	r2, #0
 2078 000c 4FF4D970 		mov	r0, #434
 2079 0010 0821     		movs	r1, #8
 2080 0012 FFF7FEFF 		bl	media_VideoFrame
 2081              	.LVL249:
 2082              		.loc 1 86 0
 2083 0016 0020     		movs	r0, #0
 2084 0018 44F24E51 		movw	r1, #17742
 2085 001c FFF7FEFF 		bl	media_SetSector
 2086              	.LVL250:
 2087              		.loc 1 87 0
 2088 0020 0022     		movs	r2, #0
 2089 0022 4FF4D970 		mov	r0, #434
 2090 0026 3A21     		movs	r1, #58
 2091 0028 FFF7FEFF 		bl	media_VideoFrame
 2092              	.LVL251:
 2093              		.loc 1 89 0
 2094 002c 0020     		movs	r0, #0
 2095 002e 6E21     		movs	r1, #110
 2096 0030 FFF7FEFF 		bl	media_SetSector
 2097              	.LVL252:
 2098              		.loc 1 90 0
 2099 0034 0022     		movs	r2, #0
 2100 0036 4FF4D970 		mov	r0, #434
 2101 003a B721     		movs	r1, #183
 2102 003c FFF7FEFF 		bl	media_VideoFrame
 2103              	.LVL253:
 2104              		.loc 1 92 0
 2105 0040 0020     		movs	r0, #0
 2106 0042 4421     		movs	r1, #68
 2107 0044 FFF7FEFF 		bl	media_SetSector
 2108              	.LVL254:
 2109              		.loc 1 93 0
ARM GAS  C:\Users\danit\AppData\Local\Temp\cc88b6Ga.s 			page 38


 2110 0048 0022     		movs	r2, #0
 2111 004a 4FF4D970 		mov	r0, #434
 2112 004e E721     		movs	r1, #231
 2113 0050 FFF7FEFF 		bl	media_VideoFrame
 2114              	.LVL255:
 2115              		.loc 1 95 0
 2116 0054 0020     		movs	r0, #0
 2117 0056 44F26151 		movw	r1, #17761
 2118 005a FFF7FEFF 		bl	media_SetSector
 2119              	.LVL256:
 2120              		.loc 1 96 0
 2121 005e 0022     		movs	r2, #0
 2122 0060 40F27710 		movw	r0, #375
 2123 0064 1A21     		movs	r1, #26
 2124 0066 FFF7FEFF 		bl	media_VideoFrame
 2125              	.LVL257:
 2126              		.loc 1 98 0
 2127 006a 0020     		movs	r0, #0
 2128 006c 1721     		movs	r1, #23
 2129 006e FFF7FEFF 		bl	media_SetSector
 2130              	.LVL258:
 2131              		.loc 1 99 0
 2132 0072 0022     		movs	r2, #0
 2133 0074 40F27710 		movw	r0, #375
 2134 0078 5021     		movs	r1, #80
 2135 007a FFF7FEFF 		bl	media_VideoFrame
 2136              	.LVL259:
 2137              		.loc 1 101 0
 2138 007e 0020     		movs	r0, #0
 2139 0080 7921     		movs	r1, #121
 2140 0082 FFF7FEFF 		bl	media_SetSector
 2141              	.LVL260:
 2142              		.loc 1 102 0
 2143 0086 0022     		movs	r2, #0
 2144 0088 40F27710 		movw	r0, #375
 2145 008c AA21     		movs	r1, #170
 2146 008e FFF7FEFF 		bl	media_VideoFrame
 2147              	.LVL261:
 2148              		.loc 1 104 0
 2149 0092 0020     		movs	r0, #0
 2150 0094 0146     		mov	r1, r0
 2151 0096 FFF7FEFF 		bl	media_SetSector
 2152              	.LVL262:
 2153              		.loc 1 105 0
 2154 009a 0022     		movs	r2, #0
 2155 009c 40F27710 		movw	r0, #375
 2156 00a0 DB21     		movs	r1, #219
 2157 00a2 FFF7FEFF 		bl	media_VideoFrame
 2158              	.LVL263:
 2159              		.loc 1 107 0
 2160 00a6 0020     		movs	r0, #0
 2161 00a8 1121     		movs	r1, #17
 2162 00aa FFF7FEFF 		bl	media_SetSector
 2163              	.LVL264:
 2164              		.loc 1 108 0
 2165 00ae 4FF4AA70 		mov	r0, #340
 2166 00b2 0421     		movs	r1, #4
ARM GAS  C:\Users\danit\AppData\Local\Temp\cc88b6Ga.s 			page 39


 2167 00b4 FFF7FEFF 		bl	media_Image
 2168              	.LVL265:
 2169              		.loc 1 110 0
 2170 00b8 0020     		movs	r0, #0
 2171 00ba 44F25951 		movw	r1, #17753
 2172 00be FFF7FEFF 		bl	media_SetSector
 2173              	.LVL266:
 2174              		.loc 1 111 0
 2175 00c2 4FF4AA70 		mov	r0, #340
 2176 00c6 A621     		movs	r1, #166
 2177              		.loc 1 113 0
 2178 00c8 BDE80840 		pop	{r3, lr}
 2179              		.cfi_restore 14
 2180              		.cfi_restore 3
 2181              		.cfi_def_cfa_offset 0
 2182              		.loc 1 111 0
 2183 00cc FFF7FEBF 		b	media_Image
 2184              	.LVL267:
 2185              		.cfi_endproc
 2186              	.LFE119:
 2187              		.size	dsp_LoadTop, .-dsp_LoadTop
 2188              		.section	.text.dsp_LoadMidle,"ax",%progbits
 2189              		.align	2
 2190              		.p2align 4,,15
 2191              		.global	dsp_LoadMidle
 2192              		.thumb
 2193              		.thumb_func
 2194              		.type	dsp_LoadMidle, %function
 2195              	dsp_LoadMidle:
 2196              	.LFB120:
 2197              		.loc 1 114 0
 2198              		.cfi_startproc
 2199              		@ args = 0, pretend = 0, frame = 0
 2200              		@ frame_needed = 0, uses_anonymous_args = 0
 2201 0000 08B5     		push	{r3, lr}
 2202              		.cfi_def_cfa_offset 8
 2203              		.cfi_offset 3, -8
 2204              		.cfi_offset 14, -4
 2205              		.loc 1 116 0
 2206 0002 0120     		movs	r0, #1
 2207 0004 FFF7FEFF 		bl	gfx_Transparency
 2208              	.LVL268:
 2209              		.loc 1 117 0
 2210 0008 1F20     		movs	r0, #31
 2211 000a FFF7FEFF 		bl	gfx_TransparentColour
 2212              	.LVL269:
 2213              		.loc 1 118 0
 2214 000e 0020     		movs	r0, #0
 2215 0010 8A21     		movs	r1, #138
 2216 0012 FFF7FEFF 		bl	media_SetSector
 2217              	.LVL270:
 2218              		.loc 1 119 0
 2219 0016 0022     		movs	r2, #0
 2220 0018 9420     		movs	r0, #148
 2221 001a 1521     		movs	r1, #21
 2222 001c FFF7FEFF 		bl	media_VideoFrame
 2223              	.LVL271:
ARM GAS  C:\Users\danit\AppData\Local\Temp\cc88b6Ga.s 			page 40


 2224              		.loc 1 121 0
 2225 0020 0020     		movs	r0, #0
 2226 0022 6A21     		movs	r1, #106
 2227 0024 FFF7FEFF 		bl	media_SetSector
 2228              	.LVL272:
 2229              		.loc 1 122 0
 2230 0028 A820     		movs	r0, #168
 2231 002a CC21     		movs	r1, #204
 2232 002c FFF7FEFF 		bl	media_Image
 2233              	.LVL273:
 2234              		.loc 1 124 0
 2235 0030 0020     		movs	r0, #0
 2236 0032 44F28C41 		movw	r1, #17548
 2237 0036 FFF7FEFF 		bl	media_SetSector
 2238              	.LVL274:
 2239              		.loc 1 125 0
 2240 003a 0022     		movs	r2, #0
 2241 003c 40F23B10 		movw	r0, #315
 2242 0040 F421     		movs	r1, #244
 2243 0042 FFF7FEFF 		bl	media_VideoFrame
 2244              	.LVL275:
 2245              		.loc 1 126 0
 2246 0046 0020     		movs	r0, #0
 2247 0048 44F28C41 		movw	r1, #17548
 2248 004c FFF7FEFF 		bl	media_SetSector
 2249              	.LVL276:
 2250              		.loc 1 127 0
 2251 0050 0022     		movs	r2, #0
 2252 0052 40F23B10 		movw	r0, #315
 2253 0056 2821     		movs	r1, #40
 2254 0058 FFF7FEFF 		bl	media_VideoFrame
 2255              	.LVL277:
 2256              		.loc 1 129 0
 2257 005c 0020     		movs	r0, #0
 2258 005e 44F2B341 		movw	r1, #17587
 2259 0062 FFF7FEFF 		bl	media_SetSector
 2260              	.LVL278:
 2261              		.loc 1 130 0
 2262 0066 BA20     		movs	r0, #186
 2263 0068 A721     		movs	r1, #167
 2264 006a 0022     		movs	r2, #0
 2265              		.loc 1 132 0
 2266 006c BDE80840 		pop	{r3, lr}
 2267              		.cfi_restore 14
 2268              		.cfi_restore 3
 2269              		.cfi_def_cfa_offset 0
 2270              		.loc 1 130 0
 2271 0070 FFF7FEBF 		b	media_VideoFrame
 2272              	.LVL279:
 2273              		.cfi_endproc
 2274              	.LFE120:
 2275              		.size	dsp_LoadMidle, .-dsp_LoadMidle
 2276              		.section	.text.dsp_LoadBottom,"ax",%progbits
 2277              		.align	2
 2278              		.p2align 4,,15
 2279              		.global	dsp_LoadBottom
 2280              		.thumb
ARM GAS  C:\Users\danit\AppData\Local\Temp\cc88b6Ga.s 			page 41


 2281              		.thumb_func
 2282              		.type	dsp_LoadBottom, %function
 2283              	dsp_LoadBottom:
 2284              	.LFB121:
 2285              		.loc 1 133 0
 2286              		.cfi_startproc
 2287              		@ args = 0, pretend = 0, frame = 0
 2288              		@ frame_needed = 0, uses_anonymous_args = 0
 2289 0000 10B5     		push	{r4, lr}
 2290              		.cfi_def_cfa_offset 8
 2291              		.cfi_offset 4, -8
 2292              		.cfi_offset 14, -4
 2293 0002 82B0     		sub	sp, sp, #8
 2294              		.cfi_def_cfa_offset 16
 2295              		.loc 1 135 0
 2296 0004 4FF6FF74 		movw	r4, #65535
 2297 0008 4FF4B470 		mov	r0, #360
 2298 000c 0094     		str	r4, [sp]
 2299 000e 0246     		mov	r2, r0
 2300 0010 0021     		movs	r1, #0
 2301 0012 4FF48873 		mov	r3, #272
 2302 0016 FFF7FEFF 		bl	draw_line
 2303              	.LVL280:
 2304              		.loc 1 136 0
 2305 001a 9120     		movs	r0, #145
 2306 001c 4FF48873 		mov	r3, #272
 2307 0020 0246     		mov	r2, r0
 2308 0022 0094     		str	r4, [sp]
 2309 0024 0021     		movs	r1, #0
 2310 0026 FFF7FEFF 		bl	draw_line
 2311              	.LVL281:
 2312              		.loc 1 138 0
 2313 002a 0020     		movs	r0, #0
 2314 002c 2E21     		movs	r1, #46
 2315 002e FFF7FEFF 		bl	media_SetSector
 2316              	.LVL282:
 2317              		.loc 1 139 0
 2318 0032 0022     		movs	r2, #0
 2319 0034 6C20     		movs	r0, #108
 2320 0036 0521     		movs	r1, #5
 2321 0038 FFF7FEFF 		bl	media_VideoFrame
 2322              	.LVL283:
 2323              		.loc 1 141 0
 2324 003c 0020     		movs	r0, #0
 2325 003e 2E21     		movs	r1, #46
 2326 0040 FFF7FEFF 		bl	media_SetSector
 2327              	.LVL284:
 2328              		.loc 1 142 0
 2329 0044 0122     		movs	r2, #1
 2330 0046 6C20     		movs	r0, #108
 2331 0048 8721     		movs	r1, #135
 2332 004a FFF7FEFF 		bl	media_VideoFrame
 2333              	.LVL285:
 2334              		.loc 1 144 0
 2335 004e 0020     		movs	r0, #0
 2336 0050 2E21     		movs	r1, #46
 2337 0052 FFF7FEFF 		bl	media_SetSector
ARM GAS  C:\Users\danit\AppData\Local\Temp\cc88b6Ga.s 			page 42


 2338              	.LVL286:
 2339              		.loc 1 145 0
 2340 0056 0222     		movs	r2, #2
 2341 0058 4220     		movs	r0, #66
 2342 005a 8721     		movs	r1, #135
 2343 005c FFF7FEFF 		bl	media_VideoFrame
 2344              	.LVL287:
 2345              		.loc 1 147 0
 2346 0060 0020     		movs	r0, #0
 2347 0062 44F27251 		movw	r1, #17778
 2348 0066 FFF7FEFF 		bl	media_SetSector
 2349              	.LVL288:
 2350              		.loc 1 148 0
 2351 006a 4120     		movs	r0, #65
 2352 006c 0521     		movs	r1, #5
 2353 006e FFF7FEFF 		bl	media_Image
 2354              	.LVL289:
 2355              		.loc 1 150 0
 2356 0072 0020     		movs	r0, #0
 2357 0074 44F29941 		movw	r1, #17561
 2358 0078 FFF7FEFF 		bl	media_SetSector
 2359              	.LVL290:
 2360              		.loc 1 151 0
 2361 007c 0022     		movs	r2, #0
 2362 007e 6C20     		movs	r0, #108
 2363 0080 4F21     		movs	r1, #79
 2364 0082 FFF7FEFF 		bl	media_VideoFrame
 2365              	.LVL291:
 2366              		.loc 1 152 0
 2367 0086 0020     		movs	r0, #0
 2368 0088 44F29941 		movw	r1, #17561
 2369 008c FFF7FEFF 		bl	media_SetSector
 2370              	.LVL292:
 2371              		.loc 1 153 0
 2372 0090 0022     		movs	r2, #0
 2373 0092 6C20     		movs	r0, #108
 2374 0094 E421     		movs	r1, #228
 2375 0096 FFF7FEFF 		bl	media_VideoFrame
 2376              	.LVL293:
 2377              		.loc 1 154 0
 2378 009a 0020     		movs	r0, #0
 2379 009c 44F29941 		movw	r1, #17561
 2380 00a0 FFF7FEFF 		bl	media_SetSector
 2381              	.LVL294:
 2382              		.loc 1 155 0
 2383 00a4 0022     		movs	r2, #0
 2384 00a6 4220     		movs	r0, #66
 2385 00a8 4F21     		movs	r1, #79
 2386 00aa FFF7FEFF 		bl	media_VideoFrame
 2387              	.LVL295:
 2388              		.loc 1 156 0
 2389 00ae 0020     		movs	r0, #0
 2390 00b0 44F29941 		movw	r1, #17561
 2391 00b4 FFF7FEFF 		bl	media_SetSector
 2392              	.LVL296:
 2393              		.loc 1 157 0
 2394 00b8 0022     		movs	r2, #0
ARM GAS  C:\Users\danit\AppData\Local\Temp\cc88b6Ga.s 			page 43


 2395 00ba 4220     		movs	r0, #66
 2396 00bc E421     		movs	r1, #228
 2397 00be FFF7FEFF 		bl	media_VideoFrame
 2398              	.LVL297:
 2399              		.loc 1 159 0
 2400 00c2 0020     		movs	r0, #0
 2401 00c4 2821     		movs	r1, #40
 2402 00c6 FFF7FEFF 		bl	media_SetSector
 2403              	.LVL298:
 2404              		.loc 1 160 0
 2405 00ca 0222     		movs	r2, #2
 2406 00cc 6620     		movs	r0, #102
 2407 00ce 6921     		movs	r1, #105
 2408 00d0 FFF7FEFF 		bl	media_VideoFrame
 2409              	.LVL299:
 2410              		.loc 1 161 0
 2411 00d4 0020     		movs	r0, #0
 2412 00d6 2821     		movs	r1, #40
 2413 00d8 FFF7FEFF 		bl	media_SetSector
 2414              	.LVL300:
 2415              		.loc 1 162 0
 2416 00dc 0122     		movs	r2, #1
 2417 00de 4120     		movs	r0, #65
 2418 00e0 6921     		movs	r1, #105
 2419 00e2 FFF7FEFF 		bl	media_VideoFrame
 2420              	.LVL301:
 2421              		.loc 1 163 0
 2422 00e6 0020     		movs	r0, #0
 2423 00e8 2821     		movs	r1, #40
 2424 00ea FFF7FEFF 		bl	media_SetSector
 2425              	.LVL302:
 2426              		.loc 1 164 0
 2427 00ee 0022     		movs	r2, #0
 2428 00f0 6620     		movs	r0, #102
 2429 00f2 F921     		movs	r1, #249
 2430 00f4 FFF7FEFF 		bl	media_VideoFrame
 2431              	.LVL303:
 2432              		.loc 1 165 0
 2433 00f8 0020     		movs	r0, #0
 2434 00fa 2821     		movs	r1, #40
 2435 00fc FFF7FEFF 		bl	media_SetSector
 2436              	.LVL304:
 2437              		.loc 1 166 0
 2438 0100 0022     		movs	r2, #0
 2439 0102 4120     		movs	r0, #65
 2440 0104 F921     		movs	r1, #249
 2441 0106 FFF7FEFF 		bl	media_VideoFrame
 2442              	.LVL305:
 2443              		.loc 1 168 0
 2444 010a 0020     		movs	r0, #0
 2445 010c 41F63711 		movw	r1, #6455
 2446 0110 FFF7FEFF 		bl	media_SetSector
 2447              	.LVL306:
 2448              		.loc 1 169 0
 2449 0114 0021     		movs	r1, #0
 2450 0116 0A46     		mov	r2, r1
 2451 0118 0320     		movs	r0, #3
ARM GAS  C:\Users\danit\AppData\Local\Temp\cc88b6Ga.s 			page 44


 2452              		.loc 1 171 0
 2453 011a 02B0     		add	sp, sp, #8
 2454              		.cfi_def_cfa_offset 8
 2455              		@ sp needed
 2456 011c BDE81040 		pop	{r4, lr}
 2457              		.cfi_restore 14
 2458              		.cfi_restore 4
 2459              		.cfi_def_cfa_offset 0
 2460              		.loc 1 169 0
 2461 0120 FFF7FEBF 		b	media_VideoFrame
 2462              	.LVL307:
 2463              		.cfi_endproc
 2464              	.LFE121:
 2465              		.size	dsp_LoadBottom, .-dsp_LoadBottom
 2466              		.section	.text.dsp_RefreshMidle,"ax",%progbits
 2467              		.align	2
 2468              		.p2align 4,,15
 2469              		.global	dsp_RefreshMidle
 2470              		.thumb
 2471              		.thumb_func
 2472              		.type	dsp_RefreshMidle, %function
 2473              	dsp_RefreshMidle:
 2474              	.LFB122:
 2475              		.loc 1 173 0
 2476              		.cfi_startproc
 2477              		@ args = 0, pretend = 0, frame = 0
 2478              		@ frame_needed = 0, uses_anonymous_args = 0
 2479              	.LVL308:
 2480 0000 38B5     		push	{r3, r4, r5, lr}
 2481              		.cfi_def_cfa_offset 16
 2482              		.cfi_offset 3, -16
 2483              		.cfi_offset 4, -12
 2484              		.cfi_offset 5, -8
 2485              		.cfi_offset 14, -4
 2486              		.loc 1 173 0
 2487 0002 0546     		mov	r5, r0
 2488              		.loc 1 175 0
 2489 0004 0120     		movs	r0, #1
 2490              	.LVL309:
 2491 0006 FFF7FEFF 		bl	gfx_Transparency
 2492              	.LVL310:
 2493              		.loc 1 176 0
 2494 000a 1F20     		movs	r0, #31
 2495 000c FFF7FEFF 		bl	gfx_TransparentColour
 2496              	.LVL311:
 2497              		.loc 1 177 0
 2498 0010 0020     		movs	r0, #0
 2499 0012 8A21     		movs	r1, #138
 2500 0014 FFF7FEFF 		bl	media_SetSector
 2501              	.LVL312:
 2502              		.loc 1 178 0
 2503 0018 344A     		ldr	r2, .L185
 2504 001a EC17     		asrs	r4, r5, #31
 2505 001c 82FB0532 		smull	r3, r2, r2, r5
 2506 0020 C4EB6202 		rsb	r2, r4, r2, asr #1
 2507 0024 9420     		movs	r0, #148
 2508 0026 1521     		movs	r1, #21
ARM GAS  C:\Users\danit\AppData\Local\Temp\cc88b6Ga.s 			page 45


 2509 0028 FFF7FEFF 		bl	media_VideoFrame
 2510              	.LVL313:
 2511              		.loc 1 180 0
 2512 002c 0020     		movs	r0, #0
 2513 002e 6A21     		movs	r1, #106
 2514 0030 FFF7FEFF 		bl	media_SetSector
 2515              	.LVL314:
 2516              		.loc 1 181 0
 2517 0034 A820     		movs	r0, #168
 2518 0036 CC21     		movs	r1, #204
 2519 0038 FFF7FEFF 		bl	media_Image
 2520              	.LVL315:
 2521              		.loc 1 183 0
 2522 003c 0020     		movs	r0, #0
 2523 003e 44F28C41 		movw	r1, #17548
 2524 0042 FFF7FEFF 		bl	media_SetSector
 2525              	.LVL316:
 2526              		.loc 1 184 0
 2527 0046 0022     		movs	r2, #0
 2528 0048 40F23B10 		movw	r0, #315
 2529 004c F421     		movs	r1, #244
 2530 004e FFF7FEFF 		bl	media_VideoFrame
 2531              	.LVL317:
 2532              		.loc 1 185 0
 2533 0052 0020     		movs	r0, #0
 2534 0054 44F28C41 		movw	r1, #17548
 2535 0058 FFF7FEFF 		bl	media_SetSector
 2536              	.LVL318:
 2537              		.loc 1 186 0
 2538 005c 40F23B10 		movw	r0, #315
 2539 0060 2121     		movs	r1, #33
 2540 0062 0022     		movs	r2, #0
 2541 0064 FFF7FEFF 		bl	media_VideoFrame
 2542              	.LVL319:
 2543              		.loc 1 188 0
 2544 0068 05F16303 		add	r3, r5, #99
 2545 006c C62B     		cmp	r3, #198
 2546              		.loc 1 189 0
 2547 006e 4FF00000 		mov	r0, #0
 2548 0072 44F2B341 		movw	r1, #17587
 2549              		.loc 1 188 0
 2550 0076 2CD8     		bhi	.L184
 2551              		.loc 1 193 0
 2552 0078 FFF7FEFF 		bl	media_SetSector
 2553              	.LVL320:
 2554              		.loc 1 194 0
 2555 007c BA20     		movs	r0, #186
 2556 007e 4321     		movs	r1, #67
 2557 0080 0A22     		movs	r2, #10
 2558 0082 FFF7FEFF 		bl	media_VideoFrame
 2559              	.LVL321:
 2560              	.L182:
 2561              		.loc 1 196 0
 2562 0086 44F2B341 		movw	r1, #17587
 2563 008a 0020     		movs	r0, #0
 2564 008c FFF7FEFF 		bl	media_SetSector
 2565              	.LVL322:
ARM GAS  C:\Users\danit\AppData\Local\Temp\cc88b6Ga.s 			page 46


 2566              		.loc 1 197 0
 2567 0090 164A     		ldr	r2, .L185
 2568 0092 82FB0513 		smull	r1, r3, r2, r5
 2569 0096 C4EBA304 		rsb	r4, r4, r3, asr #2
 2570 009a 82FB0432 		smull	r3, r2, r2, r4
 2571 009e E317     		asrs	r3, r4, #31
 2572 00a0 C3EBA202 		rsb	r2, r3, r2, asr #2
 2573 00a4 02EB8202 		add	r2, r2, r2, lsl #2
 2574 00a8 A4EB4202 		sub	r2, r4, r2, lsl #1
 2575 00ac BA20     		movs	r0, #186
 2576 00ae 7521     		movs	r1, #117
 2577 00b0 FFF7FEFF 		bl	media_VideoFrame
 2578              	.LVL323:
 2579              		.loc 1 198 0
 2580 00b4 0020     		movs	r0, #0
 2581 00b6 44F2B341 		movw	r1, #17587
 2582 00ba FFF7FEFF 		bl	media_SetSector
 2583              	.LVL324:
 2584              		.loc 1 199 0
 2585 00be 04EB8402 		add	r2, r4, r4, lsl #2
 2586 00c2 A5EB4202 		sub	r2, r5, r2, lsl #1
 2587 00c6 BA20     		movs	r0, #186
 2588 00c8 A721     		movs	r1, #167
 2589              		.loc 1 200 0
 2590 00ca BDE83840 		pop	{r3, r4, r5, lr}
 2591              		.cfi_remember_state
 2592              		.cfi_restore 14
 2593              		.cfi_restore 5
 2594              		.cfi_restore 4
 2595              		.cfi_restore 3
 2596              		.cfi_def_cfa_offset 0
 2597              	.LVL325:
 2598              		.loc 1 199 0
 2599 00ce FFF7FEBF 		b	media_VideoFrame
 2600              	.LVL326:
 2601              	.L184:
 2602              		.cfi_restore_state
 2603              		.loc 1 189 0
 2604 00d2 FFF7FEFF 		bl	media_SetSector
 2605              	.LVL327:
 2606              		.loc 1 190 0
 2607 00d6 064A     		ldr	r2, .L185+4
 2608 00d8 82FB0532 		smull	r3, r2, r2, r5
 2609 00dc C4EB6212 		rsb	r2, r4, r2, asr #5
 2610 00e0 BA20     		movs	r0, #186
 2611 00e2 4321     		movs	r1, #67
 2612 00e4 FFF7FEFF 		bl	media_VideoFrame
 2613              	.LVL328:
 2614 00e8 CDE7     		b	.L182
 2615              	.L186:
 2616 00ea 00BF     		.align	2
 2617              	.L185:
 2618 00ec 67666666 		.word	1717986919
 2619 00f0 1F85EB51 		.word	1374389535
 2620              		.cfi_endproc
 2621              	.LFE122:
 2622              		.size	dsp_RefreshMidle, .-dsp_RefreshMidle
ARM GAS  C:\Users\danit\AppData\Local\Temp\cc88b6Ga.s 			page 47


 2623              		.section	.text.dspInit,"ax",%progbits
 2624              		.align	2
 2625              		.p2align 4,,15
 2626              		.global	dspInit
 2627              		.thumb
 2628              		.thumb_func
 2629              		.type	dspInit, %function
 2630              	dspInit:
 2631              	.LFB124:
 2632              		.loc 1 878 0
 2633              		.cfi_startproc
 2634              		@ args = 0, pretend = 0, frame = 0
 2635              		@ frame_needed = 0, uses_anonymous_args = 0
 2636 0000 F0B5     		push	{r4, r5, r6, r7, lr}
 2637              		.cfi_def_cfa_offset 20
 2638              		.cfi_offset 4, -20
 2639              		.cfi_offset 5, -16
 2640              		.cfi_offset 6, -12
 2641              		.cfi_offset 7, -8
 2642              		.cfi_offset 14, -4
 2643 0002 83B0     		sub	sp, sp, #12
 2644              		.cfi_def_cfa_offset 32
 2645              		.loc 1 880 0
 2646 0004 FFF7FEFF 		bl	gfx_Cls
 2647              	.LVL329:
 2648              		.loc 1 887 0
 2649 0008 0F4F     		ldr	r7, .L189
 2650              		.loc 1 888 0
 2651 000a 104E     		ldr	r6, .L189+4
 2652              		.loc 1 889 0
 2653 000c 104D     		ldr	r5, .L189+8
 2654              		.loc 1 881 0
 2655 000e FFF7FEFF 		bl	file_Mount
 2656              	.LVL330:
 2657              		.loc 1 882 0
 2658 0012 FFF7FEFF 		bl	dsp_LoadTop
 2659              	.LVL331:
 2660              		.loc 1 883 0
 2661 0016 FFF7FEFF 		bl	dsp_LoadMidle
 2662              	.LVL332:
 2663              		.loc 1 884 0
 2664 001a FFF7FEFF 		bl	dsp_LoadBottom
 2665              	.LVL333:
 2666              		.loc 1 885 0
 2667 001e FFF7FEFF 		bl	bus_In
 2668              	.LVL334:
 2669              		.loc 1 886 0
 2670 0022 DFF838E0 		ldr	lr, .L189+20
 2671              		.loc 1 890 0
 2672 0026 0B4B     		ldr	r3, .L189+12
 2673 0028 0B48     		ldr	r0, .L189+16
 2674              		.loc 1 886 0
 2675 002a 0024     		movs	r4, #0
 2676              		.loc 1 890 0
 2677 002c 0094     		str	r4, [sp]
 2678 002e 4FF49A61 		mov	r1, #1232
 2679 0032 4722     		movs	r2, #71
ARM GAS  C:\Users\danit\AppData\Local\Temp\cc88b6Ga.s 			page 48


 2680              		.loc 1 886 0
 2681 0034 8EF80040 		strb	r4, [lr]
 2682              		.loc 1 887 0
 2683 0038 3C70     		strb	r4, [r7]
 2684              		.loc 1 888 0
 2685 003a 3470     		strb	r4, [r6]
 2686              		.loc 1 889 0
 2687 003c 2C60     		str	r4, [r5]
 2688              		.loc 1 890 0
 2689 003e FFF7FEFF 		bl	chThdCreateStatic
 2690              	.LVL335:
 2691              		.loc 1 891 0
 2692 0042 03B0     		add	sp, sp, #12
 2693              		.cfi_def_cfa_offset 20
 2694              		@ sp needed
 2695 0044 F0BD     		pop	{r4, r5, r6, r7, pc}
 2696              	.L190:
 2697 0046 00BF     		.align	2
 2698              	.L189:
 2699 0048 00000000 		.word	.LANCHOR6
 2700 004c 00000000 		.word	.LANCHOR3
 2701 0050 00000000 		.word	.LANCHOR0
 2702 0054 00000000 		.word	dspTask
 2703 0058 00000000 		.word	.LANCHOR12
 2704 005c 00000000 		.word	.LANCHOR5
 2705              		.cfi_endproc
 2706              	.LFE124:
 2707              		.size	dspInit, .-dspInit
 2708              		.section	.text.dspGetItem,"ax",%progbits
 2709              		.align	2
 2710              		.p2align 4,,15
 2711              		.global	dspGetItem
 2712              		.thumb
 2713              		.thumb_func
 2714              		.type	dspGetItem, %function
 2715              	dspGetItem:
 2716              	.LFB125:
 2717              		.loc 1 893 0
 2718              		.cfi_startproc
 2719              		@ args = 0, pretend = 0, frame = 0
 2720              		@ frame_needed = 0, uses_anonymous_args = 0
 2721              		@ link register save eliminated.
 2722              	.LVL336:
 2723              		.loc 1 897 0
 2724 0000 0020     		movs	r0, #0
 2725 0002 7047     		bx	lr
 2726              		.cfi_endproc
 2727              	.LFE125:
 2728              		.size	dspGetItem, .-dspGetItem
 2729              		.section	.text.dspGetValue,"ax",%progbits
 2730              		.align	2
 2731              		.p2align 4,,15
 2732              		.global	dspGetValue
 2733              		.thumb
 2734              		.thumb_func
 2735              		.type	dspGetValue, %function
 2736              	dspGetValue:
ARM GAS  C:\Users\danit\AppData\Local\Temp\cc88b6Ga.s 			page 49


 2737              	.LFB126:
 2738              		.loc 1 899 0
 2739              		.cfi_startproc
 2740              		@ args = 0, pretend = 0, frame = 0
 2741              		@ frame_needed = 0, uses_anonymous_args = 0
 2742              		@ link register save eliminated.
 2743              		.loc 1 900 0
 2744 0000 014B     		ldr	r3, .L193
 2745              		.loc 1 901 0
 2746 0002 1878     		ldrb	r0, [r3]	@ zero_extendqisi2
 2747 0004 7047     		bx	lr
 2748              	.L194:
 2749 0006 00BF     		.align	2
 2750              	.L193:
 2751 0008 00000000 		.word	.LANCHOR1
 2752              		.cfi_endproc
 2753              	.LFE126:
 2754              		.size	dspGetValue, .-dspGetValue
 2755              		.section	.text.dsp_active,"ax",%progbits
 2756              		.align	2
 2757              		.p2align 4,,15
 2758              		.global	dsp_active
 2759              		.thumb
 2760              		.thumb_func
 2761              		.type	dsp_active, %function
 2762              	dsp_active:
 2763              	.LFB127:
 2764              		.loc 1 903 0
 2765              		.cfi_startproc
 2766              		@ args = 0, pretend = 0, frame = 0
 2767              		@ frame_needed = 0, uses_anonymous_args = 0
 2768              		@ link register save eliminated.
 2769              		.loc 1 904 0
 2770 0000 014B     		ldr	r3, .L196
 2771              		.loc 1 905 0
 2772 0002 1878     		ldrb	r0, [r3]	@ zero_extendqisi2
 2773 0004 7047     		bx	lr
 2774              	.L197:
 2775 0006 00BF     		.align	2
 2776              	.L196:
 2777 0008 00000000 		.word	.LANCHOR5
 2778              		.cfi_endproc
 2779              	.LFE127:
 2780              		.size	dsp_active, .-dsp_active
 2781              		.section	.text.cmd_dspvalues,"ax",%progbits
 2782              		.align	2
 2783              		.p2align 4,,15
 2784              		.global	cmd_dspvalues
 2785              		.thumb
 2786              		.thumb_func
 2787              		.type	cmd_dspvalues, %function
 2788              	cmd_dspvalues:
 2789              	.LFB128:
 2790              		.loc 1 907 0
 2791              		.cfi_startproc
 2792              		@ args = 0, pretend = 0, frame = 0
 2793              		@ frame_needed = 0, uses_anonymous_args = 0
ARM GAS  C:\Users\danit\AppData\Local\Temp\cc88b6Ga.s 			page 50


 2794              	.LVL337:
 2795 0000 F8B5     		push	{r3, r4, r5, r6, r7, lr}
 2796              		.cfi_def_cfa_offset 24
 2797              		.cfi_offset 3, -24
 2798              		.cfi_offset 4, -20
 2799              		.cfi_offset 5, -16
 2800              		.cfi_offset 6, -12
 2801              		.cfi_offset 7, -8
 2802              		.cfi_offset 14, -4
 2803              		.loc 1 912 0
 2804 0002 2E49     		ldr	r1, .L207
 2805              	.LVL338:
 2806 0004 2E4E     		ldr	r6, .L207+4
 2807              		.loc 1 931 0
 2808 0006 2F4F     		ldr	r7, .L207+8
 2809              		.loc 1 907 0
 2810 0008 0546     		mov	r5, r0
 2811              		.loc 1 912 0
 2812 000a FFF7FEFF 		bl	chprintf
 2813              	.LVL339:
 2814              		.loc 1 913 0
 2815 000e 2846     		mov	r0, r5
 2816 0010 2D49     		ldr	r1, .L207+12
 2817 0012 FFF7FEFF 		bl	chprintf
 2818              	.LVL340:
 2819              	.L199:
 2820              		.loc 1 914 0
 2821 0016 2B68     		ldr	r3, [r5]
 2822 0018 2846     		mov	r0, r5
 2823 001a 5B69     		ldr	r3, [r3, #20]
 2824 001c 0021     		movs	r1, #0
 2825 001e 9847     		blx	r3
 2826              	.LVL341:
 2827 0020 0130     		adds	r0, r0, #1
 2828 0022 49D1     		bne	.L206
 2829              		.loc 1 915 0
 2830 0024 0022     		movs	r2, #0
 2831 0026 1346     		mov	r3, r2
 2832 0028 2846     		mov	r0, r5
 2833 002a 2849     		ldr	r1, .L207+16
 2834 002c FFF7FEFF 		bl	chprintf
 2835              	.LVL342:
 2836              		.loc 1 916 0
 2837 0030 274B     		ldr	r3, .L207+20
 2838 0032 2849     		ldr	r1, .L207+24
 2839 0034 1A78     		ldrb	r2, [r3]	@ zero_extendqisi2
 2840 0036 2846     		mov	r0, r5
 2841 0038 FFF7FEFF 		bl	chprintf
 2842              	.LVL343:
 2843              		.loc 1 917 0
 2844 003c 2846     		mov	r0, r5
 2845 003e 2649     		ldr	r1, .L207+28
 2846 0040 FFF7FEFF 		bl	chprintf
 2847              	.LVL344:
 2848 0044 0824     		movs	r4, #8
 2849              	.LVL345:
 2850              	.L200:
ARM GAS  C:\Users\danit\AppData\Local\Temp\cc88b6Ga.s 			page 51


 2851              		.loc 1 920 0 discriminator 3
 2852 0046 2846     		mov	r0, r5
 2853 0048 2449     		ldr	r1, .L207+32
 2854 004a 0022     		movs	r2, #0
 2855 004c FFF7FEFF 		bl	chprintf
 2856              	.LVL346:
 2857              		.loc 1 918 0 discriminator 3
 2858 0050 013C     		subs	r4, r4, #1
 2859              	.LVL347:
 2860 0052 F8D1     		bne	.L200
 2861              		.loc 1 922 0
 2862 0054 2846     		mov	r0, r5
 2863 0056 2249     		ldr	r1, .L207+36
 2864 0058 224C     		ldr	r4, .L207+40
 2865              	.LVL348:
 2866 005a FFF7FEFF 		bl	chprintf
 2867              	.LVL349:
 2868              		.loc 1 923 0
 2869 005e 2846     		mov	r0, r5
 2870 0060 2149     		ldr	r1, .L207+44
 2871 0062 FFF7FEFF 		bl	chprintf
 2872              	.LVL350:
 2873              	.L201:
 2874              		.loc 1 926 0 discriminator 3
 2875 0066 54F8042F 		ldr	r2, [r4, #4]!
 2876 006a 1C49     		ldr	r1, .L207+32
 2877 006c 2846     		mov	r0, r5
 2878 006e FFF7FEFF 		bl	chprintf
 2879              	.LVL351:
 2880              		.loc 1 924 0 discriminator 3
 2881 0072 B442     		cmp	r4, r6
 2882 0074 F7D1     		bne	.L201
 2883              		.loc 1 928 0
 2884 0076 2846     		mov	r0, r5
 2885 0078 1949     		ldr	r1, .L207+36
 2886 007a FFF7FEFF 		bl	chprintf
 2887              	.LVL352:
 2888              		.loc 1 929 0
 2889 007e 1B4B     		ldr	r3, .L207+48
 2890 0080 1B49     		ldr	r1, .L207+52
 2891 0082 1A78     		ldrb	r2, [r3]	@ zero_extendqisi2
 2892 0084 2846     		mov	r0, r5
 2893 0086 FFF7FEFF 		bl	chprintf
 2894              	.LVL353:
 2895              		.loc 1 930 0
 2896 008a 1A4B     		ldr	r3, .L207+56
 2897 008c 1A49     		ldr	r1, .L207+60
 2898 008e 1A68     		ldr	r2, [r3]
 2899 0090 2846     		mov	r0, r5
 2900 0092 FFF7FEFF 		bl	chprintf
 2901              	.LVL354:
 2902              		.loc 1 931 0
 2903 0096 3A69     		ldr	r2, [r7, #16]
 2904 0098 1849     		ldr	r1, .L207+64
 2905 009a 2846     		mov	r0, r5
 2906 009c C2F34002 		ubfx	r2, r2, #1, #1
 2907 00a0 FFF7FEFF 		bl	chprintf
ARM GAS  C:\Users\danit\AppData\Local\Temp\cc88b6Ga.s 			page 52


 2908              	.LVL355:
 2909              		.loc 1 932 0
 2910 00a4 164B     		ldr	r3, .L207+68
 2911 00a6 1749     		ldr	r1, .L207+72
 2912 00a8 1A78     		ldrb	r2, [r3]	@ zero_extendqisi2
 2913 00aa 2846     		mov	r0, r5
 2914 00ac FFF7FEFF 		bl	chprintf
 2915              	.LVL356:
 2916              		.loc 1 934 0
 2917 00b0 9620     		movs	r0, #150
 2918 00b2 FFF7FEFF 		bl	chThdSleep
 2919              	.LVL357:
 2920 00b6 AEE7     		b	.L199
 2921              	.L206:
 2922              		.loc 1 936 0
 2923 00b8 F8BD     		pop	{r3, r4, r5, r6, r7, pc}
 2924              	.LVL358:
 2925              	.L208:
 2926 00ba 00BF     		.align	2
 2927              	.L207:
 2928 00bc 08000000 		.word	.LC1
 2929 00c0 80000000 		.word	.LANCHOR7+128
 2930 00c4 00040240 		.word	1073873920
 2931 00c8 0C000000 		.word	.LC2
 2932 00cc 14000000 		.word	.LC3
 2933 00d0 00000000 		.word	.LANCHOR1
 2934 00d4 20000000 		.word	.LC4
 2935 00d8 34000000 		.word	.LC5
 2936 00dc 40000000 		.word	.LC6
 2937 00e0 44000000 		.word	.LC7
 2938 00e4 FCFFFFFF 		.word	.LANCHOR7-4
 2939 00e8 48000000 		.word	.LC8
 2940 00ec 00000000 		.word	.LANCHOR6
 2941 00f0 58000000 		.word	.LC9
 2942 00f4 00000000 		.word	.LANCHOR0
 2943 00f8 6C000000 		.word	.LC10
 2944 00fc 7C000000 		.word	.LC11
 2945 0100 00000000 		.word	.LANCHOR4
 2946 0104 88000000 		.word	.LC12
 2947              		.cfi_endproc
 2948              	.LFE128:
 2949              		.size	cmd_dspvalues, .-cmd_dspvalues
 2950              		.section	.text.cmdfrappans_dspmessages,"ax",%progbits
 2951              		.align	2
 2952              		.p2align 4,,15
 2953              		.global	cmdfrappans_dspmessages
 2954              		.thumb
 2955              		.thumb_func
 2956              		.type	cmdfrappans_dspmessages, %function
 2957              	cmdfrappans_dspmessages:
 2958              	.LFB129:
 2959              		.loc 1 938 0
 2960              		.cfi_startproc
 2961              		@ args = 0, pretend = 0, frame = 0
 2962              		@ frame_needed = 0, uses_anonymous_args = 0
 2963              	.LVL359:
 2964 0000 70B5     		push	{r4, r5, r6, lr}
ARM GAS  C:\Users\danit\AppData\Local\Temp\cc88b6Ga.s 			page 53


 2965              		.cfi_def_cfa_offset 16
 2966              		.cfi_offset 4, -16
 2967              		.cfi_offset 5, -12
 2968              		.cfi_offset 6, -8
 2969              		.cfi_offset 14, -4
 2970              		.loc 1 938 0
 2971 0002 0446     		mov	r4, r0
 2972 0004 0D46     		mov	r5, r1
 2973              		.loc 1 942 0
 2974 0006 3F49     		ldr	r1, .L223
 2975              	.LVL360:
 2976              		.loc 1 938 0
 2977 0008 1646     		mov	r6, r2
 2978              		.loc 1 942 0
 2979 000a FFF7FEFF 		bl	chprintf
 2980              	.LVL361:
 2981              		.loc 1 943 0
 2982 000e 2046     		mov	r0, r4
 2983 0010 3D49     		ldr	r1, .L223+4
 2984 0012 FFF7FEFF 		bl	chprintf
 2985              	.LVL362:
 2986              		.loc 1 944 0
 2987 0016 2368     		ldr	r3, [r4]
 2988 0018 2046     		mov	r0, r4
 2989 001a 5B69     		ldr	r3, [r3, #20]
 2990 001c 0021     		movs	r1, #0
 2991 001e 9847     		blx	r3
 2992              	.LVL363:
 2993 0020 0130     		adds	r0, r0, #1
 2994 0022 11D0     		beq	.L218
 2995              	.LVL364:
 2996              	.L210:
 2997              	.LDL1:
 2998              		.loc 1 989 0
 2999 0024 2046     		mov	r0, r4
 3000 0026 3949     		ldr	r1, .L223+8
 3001 0028 FFF7FEFF 		bl	chprintf
 3002              	.LVL365:
 3003              		.loc 1 990 0
 3004 002c 2046     		mov	r0, r4
 3005 002e 3849     		ldr	r1, .L223+12
 3006 0030 FFF7FEFF 		bl	chprintf
 3007              	.LVL366:
 3008              		.loc 1 991 0
 3009 0034 2046     		mov	r0, r4
 3010 0036 3749     		ldr	r1, .L223+16
 3011 0038 FFF7FEFF 		bl	chprintf
 3012              	.LVL367:
 3013              		.loc 1 992 0
 3014 003c 2046     		mov	r0, r4
 3015 003e 3649     		ldr	r1, .L223+20
 3016              		.loc 1 996 0
 3017 0040 BDE87040 		pop	{r4, r5, r6, lr}
 3018              		.cfi_remember_state
 3019              		.cfi_restore 14
 3020              		.cfi_restore 6
 3021              		.cfi_restore 5
ARM GAS  C:\Users\danit\AppData\Local\Temp\cc88b6Ga.s 			page 54


 3022              		.cfi_restore 4
 3023              		.cfi_def_cfa_offset 0
 3024              	.LVL368:
 3025              		.loc 1 992 0
 3026 0044 FFF7FEBF 		b	chprintf
 3027              	.LVL369:
 3028              	.L218:
 3029              		.cfi_restore_state
 3030              	.LBB6:
 3031              		.loc 1 945 0
 3032 0048 0022     		movs	r2, #0
 3033 004a 1346     		mov	r3, r2
 3034 004c 2046     		mov	r0, r4
 3035 004e 3349     		ldr	r1, .L223+24
 3036 0050 FFF7FEFF 		bl	chprintf
 3037              	.LVL370:
 3038              		.loc 1 947 0
 3039 0054 012D     		cmp	r5, #1
 3040 0056 11D0     		beq	.L219
 3041              		.loc 1 977 0
 3042 0058 022D     		cmp	r5, #2
 3043 005a E3D1     		bne	.L210
 3044              		.loc 1 977 0 is_stmt 0 discriminator 1
 3045 005c 3068     		ldr	r0, [r6]
 3046 005e 3049     		ldr	r1, .L223+28
 3047 0060 FFF7FEFF 		bl	strcmp
 3048              	.LVL371:
 3049 0064 0028     		cmp	r0, #0
 3050 0066 DDD1     		bne	.L210
 3051              	.LBB7:
 3052              		.loc 1 979 0 is_stmt 1
 3053 0068 2046     		mov	r0, r4
 3054 006a 2E49     		ldr	r1, .L223+32
 3055 006c FFF7FEFF 		bl	chprintf
 3056              	.LVL372:
 3057              		.loc 1 980 0
 3058 0070 7068     		ldr	r0, [r6, #4]
 3059 0072 FFF7FEFF 		bl	atol
 3060              	.LVL373:
 3061 0076 2C4B     		ldr	r3, .L223+36
 3062 0078 1860     		str	r0, [r3]
 3063              		.loc 1 981 0
 3064 007a 70BD     		pop	{r4, r5, r6, pc}
 3065              	.LVL374:
 3066              	.L219:
 3067              	.LBE7:
 3068              		.loc 1 947 0 discriminator 1
 3069 007c 3568     		ldr	r5, [r6]
 3070              	.LVL375:
 3071 007e 2B49     		ldr	r1, .L223+40
 3072 0080 2846     		mov	r0, r5
 3073 0082 FFF7FEFF 		bl	strcmp
 3074              	.LVL376:
 3075 0086 D8B1     		cbz	r0, .L220
 3076              		.loc 1 954 0 discriminator 1
 3077 0088 2846     		mov	r0, r5
 3078 008a 2949     		ldr	r1, .L223+44
ARM GAS  C:\Users\danit\AppData\Local\Temp\cc88b6Ga.s 			page 55


 3079 008c FFF7FEFF 		bl	strcmp
 3080              	.LVL377:
 3081 0090 0646     		mov	r6, r0
 3082              	.LVL378:
 3083 0092 E8B1     		cbz	r0, .L221
 3084              		.loc 1 962 0 discriminator 1
 3085 0094 2846     		mov	r0, r5
 3086 0096 2749     		ldr	r1, .L223+48
 3087 0098 FFF7FEFF 		bl	strcmp
 3088              	.LVL379:
 3089 009c 0646     		mov	r6, r0
 3090 009e 10B3     		cbz	r0, .L222
 3091              		.loc 1 971 0 discriminator 1
 3092 00a0 2846     		mov	r0, r5
 3093 00a2 2549     		ldr	r1, .L223+52
 3094 00a4 FFF7FEFF 		bl	strcmp
 3095              	.LVL380:
 3096 00a8 0028     		cmp	r0, #0
 3097 00aa BBD1     		bne	.L210
 3098              		.loc 1 973 0
 3099 00ac 2046     		mov	r0, r4
 3100 00ae 1D49     		ldr	r1, .L223+32
 3101 00b0 FFF7FEFF 		bl	chprintf
 3102              	.LVL381:
 3103              		.loc 1 974 0
 3104 00b4 4FF47840 		mov	r0, #63488
 3105              	.LBE6:
 3106              		.loc 1 996 0
 3107 00b8 BDE87040 		pop	{r4, r5, r6, lr}
 3108              		.cfi_remember_state
 3109              		.cfi_restore 14
 3110              		.cfi_restore 6
 3111              		.cfi_restore 5
 3112              		.cfi_restore 4
 3113              		.cfi_def_cfa_offset 0
 3114              	.LVL382:
 3115              	.LBB8:
 3116              		.loc 1 974 0
 3117 00bc FFF7FEBF 		b	gfx_BGcolour
 3118              	.LVL383:
 3119              	.L220:
 3120              		.cfi_restore_state
 3121              		.loc 1 949 0
 3122 00c0 2046     		mov	r0, r4
 3123 00c2 1E49     		ldr	r1, .L223+56
 3124 00c4 FFF7FEFF 		bl	chprintf
 3125              	.LVL384:
 3126              	.LBE8:
 3127              		.loc 1 996 0
 3128 00c8 BDE87040 		pop	{r4, r5, r6, lr}
 3129              		.cfi_remember_state
 3130              		.cfi_restore 14
 3131              		.cfi_restore 6
 3132              		.cfi_restore 5
 3133              		.cfi_restore 4
 3134              		.cfi_def_cfa_offset 0
 3135              	.LVL385:
ARM GAS  C:\Users\danit\AppData\Local\Temp\cc88b6Ga.s 			page 56


 3136              	.LBB9:
 3137              		.loc 1 950 0
 3138 00cc FFF7FEBF 		b	gfx_Cls
 3139              	.LVL386:
 3140              	.L221:
 3141              		.cfi_restore_state
 3142              		.loc 1 956 0
 3143 00d0 2046     		mov	r0, r4
 3144 00d2 1B49     		ldr	r1, .L223+60
 3145 00d4 FFF7FEFF 		bl	chprintf
 3146              	.LVL387:
 3147              		.loc 1 957 0
 3148 00d8 3046     		mov	r0, r6
 3149 00da 41F6C111 		movw	r1, #6593
 3150              	.LBE9:
 3151              		.loc 1 996 0
 3152 00de BDE87040 		pop	{r4, r5, r6, lr}
 3153              		.cfi_remember_state
 3154              		.cfi_restore 14
 3155              		.cfi_restore 6
 3156              		.cfi_restore 5
 3157              		.cfi_restore 4
 3158              		.cfi_def_cfa_offset 0
 3159              	.LVL388:
 3160              	.LBB10:
 3161              		.loc 1 957 0
 3162 00e2 FFF7FEBF 		b	media_SetSector
 3163              	.LVL389:
 3164              	.L222:
 3165              		.cfi_restore_state
 3166              		.loc 1 964 0
 3167 00e6 2046     		mov	r0, r4
 3168 00e8 1649     		ldr	r1, .L223+64
 3169 00ea FFF7FEFF 		bl	chprintf
 3170              	.LVL390:
 3171              		.loc 1 966 0
 3172 00ee 3046     		mov	r0, r6
 3173 00f0 41F6C111 		movw	r1, #6593
 3174 00f4 FFF7FEFF 		bl	media_SetSector
 3175              	.LVL391:
 3176              		.loc 1 967 0
 3177 00f8 3046     		mov	r0, r6
 3178 00fa 3146     		mov	r1, r6
 3179              	.LBE10:
 3180              		.loc 1 996 0
 3181 00fc BDE87040 		pop	{r4, r5, r6, lr}
 3182              		.cfi_restore 14
 3183              		.cfi_restore 6
 3184              		.cfi_restore 5
 3185              		.cfi_restore 4
 3186              		.cfi_def_cfa_offset 0
 3187              	.LVL392:
 3188              	.LBB11:
 3189              		.loc 1 967 0
 3190 0100 FFF7FEBF 		b	media_Image
 3191              	.LVL393:
 3192              	.L224:
ARM GAS  C:\Users\danit\AppData\Local\Temp\cc88b6Ga.s 			page 57


 3193              		.align	2
 3194              	.L223:
 3195 0104 08000000 		.word	.LC1
 3196 0108 0C000000 		.word	.LC2
 3197 010c 74010000 		.word	.LC22
 3198 0110 84010000 		.word	.LC23
 3199 0114 94010000 		.word	.LC24
 3200 0118 A4010000 		.word	.LC25
 3201 011c 14000000 		.word	.LC3
 3202 0120 6C010000 		.word	.LC21
 3203 0124 40010000 		.word	.LC20
 3204 0128 00000000 		.word	.LANCHOR13
 3205 012c 98000000 		.word	.LC13
 3206 0130 CC000000 		.word	.LC15
 3207 0134 00010000 		.word	.LC17
 3208 0138 34010000 		.word	.LC19
 3209 013c A0000000 		.word	.LC14
 3210 0140 D4000000 		.word	.LC16
 3211 0144 08010000 		.word	.LC18
 3212              	.LBE11:
 3213              		.cfi_endproc
 3214              	.LFE129:
 3215              		.size	cmdfrappans_dspmessages, .-cmdfrappans_dspmessages
 3216              		.global	cruise_assis
 3217              		.global	db2
 3218              		.global	db
 3219              		.global	c
 3220              		.global	dsp_activ
 3221              		.global	dspmessages
 3222              		.global	dspstate
 3223              		.section	.bss.bus_num,"aw",%nobits
 3224              		.align	2
 3225              		.set	.LANCHOR0,. + 0
 3226              		.type	bus_num, %object
 3227              		.size	bus_num, 4
 3228              	bus_num:
 3229 0000 00000000 		.space	4
 3230              		.section	.bss.danger,"aw",%nobits
 3231              		.align	1
 3232              		.set	.LANCHOR11,. + 0
 3233              		.type	danger, %object
 3234              		.size	danger, 2
 3235              	danger:
 3236 0000 0000     		.space	2
 3237              		.section	.bss.cruise_assis,"aw",%nobits
 3238              		.type	cruise_assis, %object
 3239              		.size	cruise_assis, 1
 3240              	cruise_assis:
 3241 0000 00       		.space	1
 3242              		.section	.bss.valasz,"aw",%nobits
 3243              		.set	.LANCHOR4,. + 0
 3244              		.type	valasz, %object
 3245              		.size	valasz, 1
 3246              	valasz:
 3247 0000 00       		.space	1
 3248              		.section	.bss.over_charge,"aw",%nobits
 3249              		.align	1
ARM GAS  C:\Users\danit\AppData\Local\Temp\cc88b6Ga.s 			page 58


 3250              		.set	.LANCHOR8,. + 0
 3251              		.type	over_charge, %object
 3252              		.size	over_charge, 2
 3253              	over_charge:
 3254 0000 0000     		.space	2
 3255              		.section	.bss.discharge,"aw",%nobits
 3256              		.align	1
 3257              		.set	.LANCHOR9,. + 0
 3258              		.type	discharge, %object
 3259              		.size	discharge, 2
 3260              	discharge:
 3261 0000 0000     		.space	2
 3262              		.section	.bss.tasknumber,"aw",%nobits
 3263              		.align	2
 3264              		.set	.LANCHOR2,. + 0
 3265              		.type	tasknumber, %object
 3266              		.size	tasknumber, 4
 3267              	tasknumber:
 3268 0000 00000000 		.space	4
 3269              		.section	.bss.bus_status,"aw",%nobits
 3270              		.set	.LANCHOR1,. + 0
 3271              		.type	bus_status, %object
 3272              		.size	bus_status, 1
 3273              	bus_status:
 3274 0000 00       		.space	1
 3275              		.section	.bss.c,"aw",%nobits
 3276              		.type	c, %object
 3277              		.size	c, 1
 3278              	c:
 3279 0000 00       		.space	1
 3280              		.section	.bss.dsp_activ,"aw",%nobits
 3281              		.set	.LANCHOR5,. + 0
 3282              		.type	dsp_activ, %object
 3283              		.size	dsp_activ, 1
 3284              	dsp_activ:
 3285 0000 00       		.space	1
 3286              		.section	.bss.motor_temp,"aw",%nobits
 3287              		.align	1
 3288              		.set	.LANCHOR10,. + 0
 3289              		.type	motor_temp, %object
 3290              		.size	motor_temp, 2
 3291              	motor_temp:
 3292 0000 0000     		.space	2
 3293              		.section	.bss.wadspTask,"aw",%nobits
 3294              		.align	3
 3295              		.set	.LANCHOR12,. + 0
 3296              		.type	wadspTask, %object
 3297              		.size	wadspTask, 1232
 3298              	wadspTask:
 3299 0000 00000000 		.space	1232
 3299      00000000 
 3299      00000000 
 3299      00000000 
 3299      00000000 
 3300              		.section	.rodata.str1.4,"aMS",%progbits,1
 3301              		.align	2
 3302              	.LC0:
ARM GAS  C:\Users\danit\AppData\Local\Temp\cc88b6Ga.s 			page 59


 3303 0000 64737054 		.ascii	"dspTask\000"
 3303      61736B00 
 3304              	.LC1:
 3305 0008 1B6300   		.ascii	"\033c\000"
 3306 000b 00       		.space	1
 3307              	.LC2:
 3308 000c 1B5B324A 		.ascii	"\033[2J\000"
 3308      00
 3309 0011 000000   		.space	3
 3310              	.LC3:
 3311 0014 1B5B2564 		.ascii	"\033[%d;%dH\000"
 3311      3B256448 
 3311      00
 3312 001d 000000   		.space	3
 3313              	.LC4:
 3314 0020 6275735F 		.ascii	"bus_status: %x\015\012\000"
 3314      73746174 
 3314      75733A20 
 3314      25780D0A 
 3314      00
 3315 0031 000000   		.space	3
 3316              	.LC5:
 3317 0034 6275735F 		.ascii	"bus_bit[]: \000"
 3317      6269745B 
 3317      5D3A2000 
 3318              	.LC6:
 3319 0040 25642000 		.ascii	"%d \000"
 3320              	.LC7:
 3321 0044 0D0A00   		.ascii	"\015\012\000"
 3322 0047 00       		.space	1
 3323              	.LC8:
 3324 0048 64737056 		.ascii	"dspValues[]: \000"
 3324      616C7565 
 3324      735B5D3A 
 3324      2000
 3325 0056 0000     		.space	2
 3326              	.LC9:
 3327 0058 6473706D 		.ascii	"dspmessages: %d\015\012\000"
 3327      65737361 
 3327      6765733A 
 3327      2025640D 
 3327      0A00
 3328 006a 0000     		.space	2
 3329              	.LC10:
 3330 006c 6275735F 		.ascii	"bus_num: %d\015\012\000"
 3330      6E756D3A 
 3330      2025640D 
 3330      0A00
 3331 007a 0000     		.space	2
 3332              	.LC11:
 3333 007c 42555437 		.ascii	"BUT7: %d\015\012\000"
 3333      3A202564 
 3333      0D0A00
 3334 0087 00       		.space	1
 3335              	.LC12:
 3336 0088 76616C61 		.ascii	"valasz: %d\015\012\000"
 3336      737A3A20 
ARM GAS  C:\Users\danit\AppData\Local\Temp\cc88b6Ga.s 			page 60


 3336      25640D0A 
 3336      00
 3337 0095 000000   		.space	3
 3338              	.LC13:
 3339 0098 436C6561 		.ascii	"Clear\000"
 3339      7200
 3340 009e 0000     		.space	2
 3341              	.LC14:
 3342 00a0 2D2D2D2D 		.ascii	"-------------- dps clear --------------\015\012\000"
 3342      2D2D2D2D 
 3342      2D2D2D2D 
 3342      2D2D2064 
 3342      70732063 
 3343 00ca 0000     		.space	2
 3344              	.LC15:
 3345 00cc 53656374 		.ascii	"Sector\000"
 3345      6F7200
 3346 00d3 00       		.space	1
 3347              	.LC16:
 3348 00d4 2D2D2D2D 		.ascii	"--------------Set sector --------------\015\012\000"
 3348      2D2D2D2D 
 3348      2D2D2D2D 
 3348      2D2D5365 
 3348      74207365 
 3349 00fe 0000     		.space	2
 3350              	.LC17:
 3351 0100 496D6167 		.ascii	"Image\000"
 3351      6500
 3352 0106 0000     		.space	2
 3353              	.LC18:
 3354 0108 2D2D2D2D 		.ascii	"-------------- media Image --------------\015\012\000"
 3354      2D2D2D2D 
 3354      2D2D2D2D 
 3354      2D2D206D 
 3354      65646961 
 3355              	.LC19:
 3356 0134 4261636B 		.ascii	"Background\000"
 3356      67726F75 
 3356      6E6400
 3357 013f 00       		.space	1
 3358              	.LC20:
 3359 0140 2D2D2D2D 		.ascii	"-------------- Background --------------\015\012\000"
 3359      2D2D2D2D 
 3359      2D2D2D2D 
 3359      2D2D2042 
 3359      61636B67 
 3360 016b 00       		.space	1
 3361              	.LC21:
 3362 016c 53706565 		.ascii	"Speed\000"
 3362      6400
 3363 0172 0000     		.space	2
 3364              	.LC22:
 3365 0174 55736167 		.ascii	"Usage: Clear\015\012\000"
 3365      653A2043 
 3365      6C656172 
 3365      0D0A00
 3366 0183 00       		.space	1
ARM GAS  C:\Users\danit\AppData\Local\Temp\cc88b6Ga.s 			page 61


 3367              	.LC23:
 3368 0184 20202020 		.ascii	"       Sector\015\012\000"
 3368      20202053 
 3368      6563746F 
 3368      720D0A00 
 3369              	.LC24:
 3370 0194 20202020 		.ascii	"       Image\015\012\000"
 3370      20202049 
 3370      6D616765 
 3370      0D0A00
 3371 01a3 00       		.space	1
 3372              	.LC25:
 3373 01a4 20202020 		.ascii	"       Background\015\012\000"
 3373      20202042 
 3373      61636B67 
 3373      726F756E 
 3373      640D0A00 
 3374              		.section	.data.db,"aw",%progbits
 3375              		.align	2
 3376              		.set	.LANCHOR13,. + 0
 3377              		.type	db, %object
 3378              		.size	db, 4
 3379              	db:
 3380 0000 7F000000 		.word	127
 3381              		.section	.bss.db2,"aw",%nobits
 3382              		.align	2
 3383              		.type	db2, %object
 3384              		.size	db2, 4
 3385              	db2:
 3386 0000 00000000 		.space	4
 3387              		.section	.data.dspValue,"aw",%progbits
 3388              		.align	2
 3389              		.set	.LANCHOR7,. + 0
 3390              		.type	dspValue, %object
 3391              		.size	dspValue, 140
 3392              	dspValue:
 3393 0000 FFFFFFFF 		.word	-1
 3394 0004 00000000 		.space	136
 3394      00000000 
 3394      00000000 
 3394      00000000 
 3394      00000000 
 3395              		.section	.bss.dspmessages,"aw",%nobits
 3396              		.set	.LANCHOR6,. + 0
 3397              		.type	dspmessages, %object
 3398              		.size	dspmessages, 1
 3399              	dspmessages:
 3400 0000 00       		.space	1
 3401              		.section	.bss.dspstate,"aw",%nobits
 3402              		.set	.LANCHOR3,. + 0
 3403              		.type	dspstate, %object
 3404              		.size	dspstate, 1
 3405              	dspstate:
 3406 0000 00       		.space	1
 3407              		.text
 3408              	.Letext0:
 3409              		.file 3 "c:\\program files (x86)\\gnu tools arm embedded\\4.9 2015q2\\lib\\gcc\\arm-none-eabi\\4.9
ARM GAS  C:\Users\danit\AppData\Local\Temp\cc88b6Ga.s 			page 62


 3410              		.file 4 "c:\\program files (x86)\\gnu tools arm embedded\\4.9 2015q2\\arm-none-eabi\\include\\mach
 3411              		.file 5 "c:\\program files (x86)\\gnu tools arm embedded\\4.9 2015q2\\arm-none-eabi\\include\\sys\
 3412              		.file 6 "../../../ChibiOS/os/ports/GCC/ARMCMx/chtypes.h"
 3413              		.file 7 "../../../ChibiOS/os/kernel/include/chlists.h"
 3414              		.file 8 "../../../ChibiOS/os/kernel/include/chthreads.h"
 3415              		.file 9 "../../../ChibiOS/os/ports/GCC/ARMCMx/chcore_v7m.h"
 3416              		.file 10 "../../../ChibiOS/os/kernel/include/chvt.h"
 3417              		.file 11 "../../../ChibiOS/os/kernel/include/chschd.h"
 3418              		.file 12 "../../../ChibiOS/os/kernel/include/chmtx.h"
 3419              		.file 13 "../../../ChibiOS/os/kernel/include/chstreams.h"
 3420              		.file 14 "../../../ChibiOS/os/hal/include/io_channel.h"
 3421              		.file 15 "../../../ChibiOS/os/hal/platforms/STM32/GPIOv2/pal_lld.h"
 3422              		.file 16 "include/meas.h"
 3423              		.file 17 "c:\\program files (x86)\\gnu tools arm embedded\\4.9 2015q2\\lib\\gcc\\arm-none-eabi\\4.
 3424              		.file 18 "<built-in>"
 3425              		.file 19 "include/can_items.h"
 3426              		.file 20 "include/calc.h"
 3427              		.file 21 "../../../ChibiOS/os/ports/common/ARMCMx/CMSIS/include/core_cm4.h"
 3428              		.file 22 "include/can_comm.h"
 3429              		.file 23 "include/gfx.h"
 3430              		.file 24 "include/light.h"
 3431              		.file 25 "include/cruise.h"
 3432              		.section	.debug_info,"",%progbits
 3433              	.Ldebug_info0:
 3434 0000 3F250000 		.4byte	0x253f
 3435 0004 0400     		.2byte	0x4
 3436 0006 00000000 		.4byte	.Ldebug_abbrev0
 3437 000a 04       		.byte	0x4
 3438 000b 01       		.uleb128 0x1
 3439 000c 67090000 		.4byte	.LASF251
 3440 0010 01       		.byte	0x1
 3441 0011 53010000 		.4byte	.LASF252
 3442 0015 D70B0000 		.4byte	.LASF253
 3443 0019 50000000 		.4byte	.Ldebug_ranges0+0x50
 3444 001d 00000000 		.4byte	0
 3445 0021 00000000 		.4byte	.Ldebug_line0
 3446 0025 02       		.uleb128 0x2
 3447 0026 08       		.byte	0x8
 3448 0027 07       		.byte	0x7
 3449 0028 7E020000 		.4byte	.LASF0
 3450 002c 02       		.uleb128 0x2
 3451 002d 04       		.byte	0x4
 3452 002e 07       		.byte	0x7
 3453 002f BB000000 		.4byte	.LASF1
 3454 0033 03       		.uleb128 0x3
 3455 0034 04       		.byte	0x4
 3456 0035 05       		.byte	0x5
 3457 0036 696E7400 		.ascii	"int\000"
 3458 003a 04       		.uleb128 0x4
 3459 003b B5030000 		.4byte	.LASF3
 3460 003f 03       		.byte	0x3
 3461 0040 D4       		.byte	0xd4
 3462 0041 2C000000 		.4byte	0x2c
 3463 0045 02       		.uleb128 0x2
 3464 0046 01       		.byte	0x1
 3465 0047 06       		.byte	0x6
 3466 0048 510B0000 		.4byte	.LASF2
ARM GAS  C:\Users\danit\AppData\Local\Temp\cc88b6Ga.s 			page 63


 3467 004c 04       		.uleb128 0x4
 3468 004d B3080000 		.4byte	.LASF4
 3469 0051 04       		.byte	0x4
 3470 0052 1D       		.byte	0x1d
 3471 0053 57000000 		.4byte	0x57
 3472 0057 02       		.uleb128 0x2
 3473 0058 01       		.byte	0x1
 3474 0059 08       		.byte	0x8
 3475 005a 59090000 		.4byte	.LASF5
 3476 005e 04       		.uleb128 0x4
 3477 005f 3F060000 		.4byte	.LASF6
 3478 0063 04       		.byte	0x4
 3479 0064 29       		.byte	0x29
 3480 0065 69000000 		.4byte	0x69
 3481 0069 02       		.uleb128 0x2
 3482 006a 02       		.byte	0x2
 3483 006b 05       		.byte	0x5
 3484 006c C3070000 		.4byte	.LASF7
 3485 0070 04       		.uleb128 0x4
 3486 0071 F6020000 		.4byte	.LASF8
 3487 0075 04       		.byte	0x4
 3488 0076 2B       		.byte	0x2b
 3489 0077 7B000000 		.4byte	0x7b
 3490 007b 02       		.uleb128 0x2
 3491 007c 02       		.byte	0x2
 3492 007d 07       		.byte	0x7
 3493 007e 2E070000 		.4byte	.LASF9
 3494 0082 04       		.uleb128 0x4
 3495 0083 14010000 		.4byte	.LASF10
 3496 0087 04       		.byte	0x4
 3497 0088 3F       		.byte	0x3f
 3498 0089 8D000000 		.4byte	0x8d
 3499 008d 02       		.uleb128 0x2
 3500 008e 04       		.byte	0x4
 3501 008f 05       		.byte	0x5
 3502 0090 02080000 		.4byte	.LASF11
 3503 0094 04       		.uleb128 0x4
 3504 0095 82070000 		.4byte	.LASF12
 3505 0099 04       		.byte	0x4
 3506 009a 41       		.byte	0x41
 3507 009b 9F000000 		.4byte	0x9f
 3508 009f 02       		.uleb128 0x2
 3509 00a0 04       		.byte	0x4
 3510 00a1 07       		.byte	0x7
 3511 00a2 19090000 		.4byte	.LASF13
 3512 00a6 02       		.uleb128 0x2
 3513 00a7 08       		.byte	0x8
 3514 00a8 05       		.byte	0x5
 3515 00a9 A8050000 		.4byte	.LASF14
 3516 00ad 04       		.uleb128 0x4
 3517 00ae 0C040000 		.4byte	.LASF15
 3518 00b2 04       		.byte	0x4
 3519 00b3 5B       		.byte	0x5b
 3520 00b4 25000000 		.4byte	0x25
 3521 00b8 04       		.uleb128 0x4
 3522 00b9 38050000 		.4byte	.LASF16
 3523 00bd 05       		.byte	0x5
ARM GAS  C:\Users\danit\AppData\Local\Temp\cc88b6Ga.s 			page 64


 3524 00be 14       		.byte	0x14
 3525 00bf 4C000000 		.4byte	0x4c
 3526 00c3 04       		.uleb128 0x4
 3527 00c4 44080000 		.4byte	.LASF17
 3528 00c8 05       		.byte	0x5
 3529 00c9 19       		.byte	0x19
 3530 00ca 5E000000 		.4byte	0x5e
 3531 00ce 04       		.uleb128 0x4
 3532 00cf 5B070000 		.4byte	.LASF18
 3533 00d3 05       		.byte	0x5
 3534 00d4 1A       		.byte	0x1a
 3535 00d5 70000000 		.4byte	0x70
 3536 00d9 04       		.uleb128 0x4
 3537 00da 36090000 		.4byte	.LASF19
 3538 00de 05       		.byte	0x5
 3539 00df 1F       		.byte	0x1f
 3540 00e0 82000000 		.4byte	0x82
 3541 00e4 04       		.uleb128 0x4
 3542 00e5 2D020000 		.4byte	.LASF20
 3543 00e9 05       		.byte	0x5
 3544 00ea 20       		.byte	0x20
 3545 00eb 94000000 		.4byte	0x94
 3546 00ef 04       		.uleb128 0x4
 3547 00f0 76080000 		.4byte	.LASF21
 3548 00f4 05       		.byte	0x5
 3549 00f5 26       		.byte	0x26
 3550 00f6 AD000000 		.4byte	0xad
 3551 00fa 04       		.uleb128 0x4
 3552 00fb E0030000 		.4byte	.LASF22
 3553 00ff 06       		.byte	0x6
 3554 0100 2B       		.byte	0x2b
 3555 0101 05010000 		.4byte	0x105
 3556 0105 02       		.uleb128 0x2
 3557 0106 01       		.byte	0x1
 3558 0107 02       		.byte	0x2
 3559 0108 F6030000 		.4byte	.LASF23
 3560 010c 04       		.uleb128 0x4
 3561 010d 0B070000 		.4byte	.LASF24
 3562 0111 06       		.byte	0x6
 3563 0112 2C       		.byte	0x2c
 3564 0113 B8000000 		.4byte	0xb8
 3565 0117 04       		.uleb128 0x4
 3566 0118 3E090000 		.4byte	.LASF25
 3567 011c 06       		.byte	0x6
 3568 011d 2D       		.byte	0x2d
 3569 011e B8000000 		.4byte	0xb8
 3570 0122 04       		.uleb128 0x4
 3571 0123 11090000 		.4byte	.LASF26
 3572 0127 06       		.byte	0x6
 3573 0128 2E       		.byte	0x2e
 3574 0129 B8000000 		.4byte	0xb8
 3575 012d 04       		.uleb128 0x4
 3576 012e B0060000 		.4byte	.LASF27
 3577 0132 06       		.byte	0x6
 3578 0133 2F       		.byte	0x2f
 3579 0134 B8000000 		.4byte	0xb8
 3580 0138 04       		.uleb128 0x4
ARM GAS  C:\Users\danit\AppData\Local\Temp\cc88b6Ga.s 			page 65


 3581 0139 76020000 		.4byte	.LASF28
 3582 013d 06       		.byte	0x6
 3583 013e 30       		.byte	0x30
 3584 013f E4000000 		.4byte	0xe4
 3585 0143 04       		.uleb128 0x4
 3586 0144 D8050000 		.4byte	.LASF29
 3587 0148 06       		.byte	0x6
 3588 0149 31       		.byte	0x31
 3589 014a D9000000 		.4byte	0xd9
 3590 014e 04       		.uleb128 0x4
 3591 014f 56020000 		.4byte	.LASF30
 3592 0153 06       		.byte	0x6
 3593 0154 33       		.byte	0x33
 3594 0155 E4000000 		.4byte	0xe4
 3595 0159 04       		.uleb128 0x4
 3596 015a 9B000000 		.4byte	.LASF31
 3597 015e 06       		.byte	0x6
 3598 015f 35       		.byte	0x35
 3599 0160 E4000000 		.4byte	0xe4
 3600 0164 04       		.uleb128 0x4
 3601 0165 DD040000 		.4byte	.LASF32
 3602 0169 07       		.byte	0x7
 3603 016a 2A       		.byte	0x2a
 3604 016b 6F010000 		.4byte	0x16f
 3605 016f 05       		.uleb128 0x5
 3606 0170 DD040000 		.4byte	.LASF32
 3607 0174 48       		.byte	0x48
 3608 0175 08       		.byte	0x8
 3609 0176 5E       		.byte	0x5e
 3610 0177 6C020000 		.4byte	0x26c
 3611 017b 06       		.uleb128 0x6
 3612 017c 6F080000 		.4byte	.LASF33
 3613 0180 08       		.byte	0x8
 3614 0181 5F       		.byte	0x5f
 3615 0182 8D020000 		.4byte	0x28d
 3616 0186 00       		.byte	0
 3617 0187 06       		.uleb128 0x6
 3618 0188 01090000 		.4byte	.LASF34
 3619 018c 08       		.byte	0x8
 3620 018d 61       		.byte	0x61
 3621 018e 8D020000 		.4byte	0x28d
 3622 0192 04       		.byte	0x4
 3623 0193 06       		.uleb128 0x6
 3624 0194 79000000 		.4byte	.LASF35
 3625 0198 08       		.byte	0x8
 3626 0199 63       		.byte	0x63
 3627 019a 38010000 		.4byte	0x138
 3628 019e 08       		.byte	0x8
 3629 019f 06       		.uleb128 0x6
 3630 01a0 7F080000 		.4byte	.LASF36
 3631 01a4 08       		.byte	0x8
 3632 01a5 64       		.byte	0x64
 3633 01a6 52030000 		.4byte	0x352
 3634 01aa 0C       		.byte	0xc
 3635 01ab 06       		.uleb128 0x6
 3636 01ac 470C0000 		.4byte	.LASF37
 3637 01b0 08       		.byte	0x8
ARM GAS  C:\Users\danit\AppData\Local\Temp\cc88b6Ga.s 			page 66


 3638 01b1 66       		.byte	0x66
 3639 01b2 8D020000 		.4byte	0x28d
 3640 01b6 10       		.byte	0x10
 3641 01b7 06       		.uleb128 0x6
 3642 01b8 11050000 		.4byte	.LASF38
 3643 01bc 08       		.byte	0x8
 3644 01bd 67       		.byte	0x67
 3645 01be 8D020000 		.4byte	0x28d
 3646 01c2 14       		.byte	0x14
 3647 01c3 06       		.uleb128 0x6
 3648 01c4 80040000 		.4byte	.LASF39
 3649 01c8 08       		.byte	0x8
 3650 01c9 6E       		.byte	0x6e
 3651 01ca 11050000 		.4byte	0x511
 3652 01ce 18       		.byte	0x18
 3653 01cf 06       		.uleb128 0x6
 3654 01d0 21050000 		.4byte	.LASF40
 3655 01d4 08       		.byte	0x8
 3656 01d5 79       		.byte	0x79
 3657 01d6 17010000 		.4byte	0x117
 3658 01da 1C       		.byte	0x1c
 3659 01db 06       		.uleb128 0x6
 3660 01dc 37060000 		.4byte	.LASF41
 3661 01e0 08       		.byte	0x8
 3662 01e1 7D       		.byte	0x7d
 3663 01e2 0C010000 		.4byte	0x10c
 3664 01e6 1D       		.byte	0x1d
 3665 01e7 06       		.uleb128 0x6
 3666 01e8 4E0A0000 		.4byte	.LASF42
 3667 01ec 08       		.byte	0x8
 3668 01ed 82       		.byte	0x82
 3669 01ee 22010000 		.4byte	0x122
 3670 01f2 1E       		.byte	0x1e
 3671 01f3 06       		.uleb128 0x6
 3672 01f4 A20A0000 		.4byte	.LASF43
 3673 01f8 08       		.byte	0x8
 3674 01f9 88       		.byte	0x88
 3675 01fa 2D010000 		.4byte	0x12d
 3676 01fe 1F       		.byte	0x1f
 3677 01ff 06       		.uleb128 0x6
 3678 0200 5A000000 		.4byte	.LASF44
 3679 0204 08       		.byte	0x8
 3680 0205 8F       		.byte	0x8f
 3681 0206 2E040000 		.4byte	0x42e
 3682 020a 20       		.byte	0x20
 3683 020b 07       		.uleb128 0x7
 3684 020c 705F7500 		.ascii	"p_u\000"
 3685 0210 08       		.byte	0x8
 3686 0211 B4       		.byte	0xb4
 3687 0212 DC040000 		.4byte	0x4dc
 3688 0216 24       		.byte	0x24
 3689 0217 06       		.uleb128 0x6
 3690 0218 F9000000 		.4byte	.LASF45
 3691 021c 08       		.byte	0x8
 3692 021d B9       		.byte	0xb9
 3693 021e B3020000 		.4byte	0x2b3
 3694 0222 28       		.byte	0x28
ARM GAS  C:\Users\danit\AppData\Local\Temp\cc88b6Ga.s 			page 67


 3695 0223 06       		.uleb128 0x6
 3696 0224 B0000000 		.4byte	.LASF46
 3697 0228 08       		.byte	0x8
 3698 0229 BF       		.byte	0xbf
 3699 022a 93020000 		.4byte	0x293
 3700 022e 2C       		.byte	0x2c
 3701 022f 06       		.uleb128 0x6
 3702 0230 05070000 		.4byte	.LASF47
 3703 0234 08       		.byte	0x8
 3704 0235 C3       		.byte	0xc3
 3705 0236 43010000 		.4byte	0x143
 3706 023a 34       		.byte	0x34
 3707 023b 06       		.uleb128 0x6
 3708 023c D7070000 		.4byte	.LASF48
 3709 0240 08       		.byte	0x8
 3710 0241 C9       		.byte	0xc9
 3711 0242 4E010000 		.4byte	0x14e
 3712 0246 38       		.byte	0x38
 3713 0247 06       		.uleb128 0x6
 3714 0248 73050000 		.4byte	.LASF49
 3715 024c 08       		.byte	0x8
 3716 024d D0       		.byte	0xd0
 3717 024e 23050000 		.4byte	0x523
 3718 0252 3C       		.byte	0x3c
 3719 0253 06       		.uleb128 0x6
 3720 0254 1B070000 		.4byte	.LASF50
 3721 0258 08       		.byte	0x8
 3722 0259 D4       		.byte	0xd4
 3723 025a 38010000 		.4byte	0x138
 3724 025e 40       		.byte	0x40
 3725 025f 06       		.uleb128 0x6
 3726 0260 63050000 		.4byte	.LASF51
 3727 0264 08       		.byte	0x8
 3728 0265 DA       		.byte	0xda
 3729 0266 C9020000 		.4byte	0x2c9
 3730 026a 44       		.byte	0x44
 3731 026b 00       		.byte	0
 3732 026c 08       		.uleb128 0x8
 3733 026d 08       		.byte	0x8
 3734 026e 07       		.byte	0x7
 3735 026f 61       		.byte	0x61
 3736 0270 8D020000 		.4byte	0x28d
 3737 0274 06       		.uleb128 0x6
 3738 0275 6F080000 		.4byte	.LASF33
 3739 0279 07       		.byte	0x7
 3740 027a 62       		.byte	0x62
 3741 027b 8D020000 		.4byte	0x28d
 3742 027f 00       		.byte	0
 3743 0280 06       		.uleb128 0x6
 3744 0281 01090000 		.4byte	.LASF34
 3745 0285 07       		.byte	0x7
 3746 0286 64       		.byte	0x64
 3747 0287 8D020000 		.4byte	0x28d
 3748 028b 04       		.byte	0x4
 3749 028c 00       		.byte	0
 3750 028d 09       		.uleb128 0x9
 3751 028e 04       		.byte	0x4
ARM GAS  C:\Users\danit\AppData\Local\Temp\cc88b6Ga.s 			page 68


 3752 028f 64010000 		.4byte	0x164
 3753 0293 04       		.uleb128 0x4
 3754 0294 9C040000 		.4byte	.LASF52
 3755 0298 07       		.byte	0x7
 3756 0299 66       		.byte	0x66
 3757 029a 6C020000 		.4byte	0x26c
 3758 029e 08       		.uleb128 0x8
 3759 029f 04       		.byte	0x4
 3760 02a0 07       		.byte	0x7
 3761 02a1 6B       		.byte	0x6b
 3762 02a2 B3020000 		.4byte	0x2b3
 3763 02a6 06       		.uleb128 0x6
 3764 02a7 6F080000 		.4byte	.LASF33
 3765 02ab 07       		.byte	0x7
 3766 02ac 6D       		.byte	0x6d
 3767 02ad 8D020000 		.4byte	0x28d
 3768 02b1 00       		.byte	0
 3769 02b2 00       		.byte	0
 3770 02b3 04       		.uleb128 0x4
 3771 02b4 0B000000 		.4byte	.LASF53
 3772 02b8 07       		.byte	0x7
 3773 02b9 70       		.byte	0x70
 3774 02ba 9E020000 		.4byte	0x29e
 3775 02be 04       		.uleb128 0x4
 3776 02bf 70000000 		.4byte	.LASF54
 3777 02c3 09       		.byte	0x9
 3778 02c4 E5       		.byte	0xe5
 3779 02c5 C9020000 		.4byte	0x2c9
 3780 02c9 0A       		.uleb128 0xa
 3781 02ca 04       		.byte	0x4
 3782 02cb 04       		.uleb128 0x4
 3783 02cc AC0A0000 		.4byte	.LASF55
 3784 02d0 09       		.byte	0x9
 3785 02d1 EB       		.byte	0xeb
 3786 02d2 EF000000 		.4byte	0xef
 3787 02d6 0B       		.uleb128 0xb
 3788 02d7 70070000 		.4byte	.LASF56
 3789 02db 24       		.byte	0x24
 3790 02dc 09       		.byte	0x9
 3791 02dd 0C01     		.2byte	0x10c
 3792 02df 52030000 		.4byte	0x352
 3793 02e3 0C       		.uleb128 0xc
 3794 02e4 723400   		.ascii	"r4\000"
 3795 02e7 09       		.byte	0x9
 3796 02e8 1F01     		.2byte	0x11f
 3797 02ea BE020000 		.4byte	0x2be
 3798 02ee 00       		.byte	0
 3799 02ef 0C       		.uleb128 0xc
 3800 02f0 723500   		.ascii	"r5\000"
 3801 02f3 09       		.byte	0x9
 3802 02f4 2001     		.2byte	0x120
 3803 02f6 BE020000 		.4byte	0x2be
 3804 02fa 04       		.byte	0x4
 3805 02fb 0C       		.uleb128 0xc
 3806 02fc 723600   		.ascii	"r6\000"
 3807 02ff 09       		.byte	0x9
 3808 0300 2101     		.2byte	0x121
ARM GAS  C:\Users\danit\AppData\Local\Temp\cc88b6Ga.s 			page 69


 3809 0302 BE020000 		.4byte	0x2be
 3810 0306 08       		.byte	0x8
 3811 0307 0C       		.uleb128 0xc
 3812 0308 723700   		.ascii	"r7\000"
 3813 030b 09       		.byte	0x9
 3814 030c 2201     		.2byte	0x122
 3815 030e BE020000 		.4byte	0x2be
 3816 0312 0C       		.byte	0xc
 3817 0313 0C       		.uleb128 0xc
 3818 0314 723800   		.ascii	"r8\000"
 3819 0317 09       		.byte	0x9
 3820 0318 2301     		.2byte	0x123
 3821 031a BE020000 		.4byte	0x2be
 3822 031e 10       		.byte	0x10
 3823 031f 0C       		.uleb128 0xc
 3824 0320 723900   		.ascii	"r9\000"
 3825 0323 09       		.byte	0x9
 3826 0324 2401     		.2byte	0x124
 3827 0326 BE020000 		.4byte	0x2be
 3828 032a 14       		.byte	0x14
 3829 032b 0C       		.uleb128 0xc
 3830 032c 72313000 		.ascii	"r10\000"
 3831 0330 09       		.byte	0x9
 3832 0331 2501     		.2byte	0x125
 3833 0333 BE020000 		.4byte	0x2be
 3834 0337 18       		.byte	0x18
 3835 0338 0C       		.uleb128 0xc
 3836 0339 72313100 		.ascii	"r11\000"
 3837 033d 09       		.byte	0x9
 3838 033e 2601     		.2byte	0x126
 3839 0340 BE020000 		.4byte	0x2be
 3840 0344 1C       		.byte	0x1c
 3841 0345 0C       		.uleb128 0xc
 3842 0346 6C7200   		.ascii	"lr\000"
 3843 0349 09       		.byte	0x9
 3844 034a 2701     		.2byte	0x127
 3845 034c BE020000 		.4byte	0x2be
 3846 0350 20       		.byte	0x20
 3847 0351 00       		.byte	0
 3848 0352 0B       		.uleb128 0xb
 3849 0353 0B060000 		.4byte	.LASF57
 3850 0357 04       		.byte	0x4
 3851 0358 09       		.byte	0x9
 3852 0359 3101     		.2byte	0x131
 3853 035b 6D030000 		.4byte	0x36d
 3854 035f 0C       		.uleb128 0xc
 3855 0360 72313300 		.ascii	"r13\000"
 3856 0364 09       		.byte	0x9
 3857 0365 3201     		.2byte	0x132
 3858 0367 6D030000 		.4byte	0x36d
 3859 036b 00       		.byte	0
 3860 036c 00       		.byte	0
 3861 036d 09       		.uleb128 0x9
 3862 036e 04       		.byte	0x4
 3863 036f D6020000 		.4byte	0x2d6
 3864 0373 0D       		.uleb128 0xd
 3865 0374 E4000000 		.4byte	0xe4
ARM GAS  C:\Users\danit\AppData\Local\Temp\cc88b6Ga.s 			page 70


 3866 0378 02       		.uleb128 0x2
 3867 0379 04       		.byte	0x4
 3868 037a 07       		.byte	0x7
 3869 037b 08090000 		.4byte	.LASF58
 3870 037f 04       		.uleb128 0x4
 3871 0380 17000000 		.4byte	.LASF59
 3872 0384 0A       		.byte	0xa
 3873 0385 58       		.byte	0x58
 3874 0386 8A030000 		.4byte	0x38a
 3875 038a 09       		.uleb128 0x9
 3876 038b 04       		.byte	0x4
 3877 038c 90030000 		.4byte	0x390
 3878 0390 0E       		.uleb128 0xe
 3879 0391 9B030000 		.4byte	0x39b
 3880 0395 0F       		.uleb128 0xf
 3881 0396 C9020000 		.4byte	0x2c9
 3882 039a 00       		.byte	0
 3883 039b 04       		.uleb128 0x4
 3884 039c 97080000 		.4byte	.LASF60
 3885 03a0 0A       		.byte	0xa
 3886 03a1 5D       		.byte	0x5d
 3887 03a2 A6030000 		.4byte	0x3a6
 3888 03a6 05       		.uleb128 0x5
 3889 03a7 97080000 		.4byte	.LASF60
 3890 03ab 14       		.byte	0x14
 3891 03ac 0A       		.byte	0xa
 3892 03ad 64       		.byte	0x64
 3893 03ae EF030000 		.4byte	0x3ef
 3894 03b2 06       		.uleb128 0x6
 3895 03b3 D10A0000 		.4byte	.LASF61
 3896 03b7 0A       		.byte	0xa
 3897 03b8 65       		.byte	0x65
 3898 03b9 EF030000 		.4byte	0x3ef
 3899 03bd 00       		.byte	0
 3900 03be 06       		.uleb128 0x6
 3901 03bf C00B0000 		.4byte	.LASF62
 3902 03c3 0A       		.byte	0xa
 3903 03c4 67       		.byte	0x67
 3904 03c5 EF030000 		.4byte	0x3ef
 3905 03c9 04       		.byte	0x4
 3906 03ca 06       		.uleb128 0x6
 3907 03cb 25020000 		.4byte	.LASF63
 3908 03cf 0A       		.byte	0xa
 3909 03d0 69       		.byte	0x69
 3910 03d1 59010000 		.4byte	0x159
 3911 03d5 08       		.byte	0x8
 3912 03d6 06       		.uleb128 0x6
 3913 03d7 990B0000 		.4byte	.LASF64
 3914 03db 0A       		.byte	0xa
 3915 03dc 6A       		.byte	0x6a
 3916 03dd 7F030000 		.4byte	0x37f
 3917 03e1 0C       		.byte	0xc
 3918 03e2 06       		.uleb128 0x6
 3919 03e3 69020000 		.4byte	.LASF65
 3920 03e7 0A       		.byte	0xa
 3921 03e8 6C       		.byte	0x6c
 3922 03e9 C9020000 		.4byte	0x2c9
ARM GAS  C:\Users\danit\AppData\Local\Temp\cc88b6Ga.s 			page 71


 3923 03ed 10       		.byte	0x10
 3924 03ee 00       		.byte	0
 3925 03ef 09       		.uleb128 0x9
 3926 03f0 04       		.byte	0x4
 3927 03f1 9B030000 		.4byte	0x39b
 3928 03f5 08       		.uleb128 0x8
 3929 03f6 10       		.byte	0x10
 3930 03f7 0A       		.byte	0xa
 3931 03f8 76       		.byte	0x76
 3932 03f9 2E040000 		.4byte	0x42e
 3933 03fd 06       		.uleb128 0x6
 3934 03fe D10A0000 		.4byte	.LASF61
 3935 0402 0A       		.byte	0xa
 3936 0403 77       		.byte	0x77
 3937 0404 EF030000 		.4byte	0x3ef
 3938 0408 00       		.byte	0
 3939 0409 06       		.uleb128 0x6
 3940 040a C00B0000 		.4byte	.LASF62
 3941 040e 0A       		.byte	0xa
 3942 040f 79       		.byte	0x79
 3943 0410 EF030000 		.4byte	0x3ef
 3944 0414 04       		.byte	0x4
 3945 0415 06       		.uleb128 0x6
 3946 0416 25020000 		.4byte	.LASF63
 3947 041a 0A       		.byte	0xa
 3948 041b 7B       		.byte	0x7b
 3949 041c 59010000 		.4byte	0x159
 3950 0420 08       		.byte	0x8
 3951 0421 06       		.uleb128 0x6
 3952 0422 A5000000 		.4byte	.LASF66
 3953 0426 0A       		.byte	0xa
 3954 0427 7C       		.byte	0x7c
 3955 0428 2E040000 		.4byte	0x42e
 3956 042c 0C       		.byte	0xc
 3957 042d 00       		.byte	0
 3958 042e 0D       		.uleb128 0xd
 3959 042f 59010000 		.4byte	0x159
 3960 0433 04       		.uleb128 0x4
 3961 0434 FF040000 		.4byte	.LASF67
 3962 0438 0A       		.byte	0xa
 3963 0439 7D       		.byte	0x7d
 3964 043a F5030000 		.4byte	0x3f5
 3965 043e 08       		.uleb128 0x8
 3966 043f 1C       		.byte	0x1c
 3967 0440 0B       		.byte	0xb
 3968 0441 5E       		.byte	0x5e
 3969 0442 8F040000 		.4byte	0x48f
 3970 0446 06       		.uleb128 0x6
 3971 0447 BC050000 		.4byte	.LASF68
 3972 044b 0B       		.byte	0xb
 3973 044c 5F       		.byte	0x5f
 3974 044d 93020000 		.4byte	0x293
 3975 0451 00       		.byte	0
 3976 0452 06       		.uleb128 0x6
 3977 0453 62020000 		.4byte	.LASF69
 3978 0457 0B       		.byte	0xb
 3979 0458 60       		.byte	0x60
ARM GAS  C:\Users\danit\AppData\Local\Temp\cc88b6Ga.s 			page 72


 3980 0459 38010000 		.4byte	0x138
 3981 045d 08       		.byte	0x8
 3982 045e 06       		.uleb128 0x6
 3983 045f 720B0000 		.4byte	.LASF70
 3984 0463 0B       		.byte	0xb
 3985 0464 62       		.byte	0x62
 3986 0465 52030000 		.4byte	0x352
 3987 0469 0C       		.byte	0xc
 3988 046a 06       		.uleb128 0x6
 3989 046b D5040000 		.4byte	.LASF71
 3990 046f 0B       		.byte	0xb
 3991 0470 65       		.byte	0x65
 3992 0471 8D020000 		.4byte	0x28d
 3993 0475 10       		.byte	0x10
 3994 0476 06       		.uleb128 0x6
 3995 0477 BA060000 		.4byte	.LASF72
 3996 047b 0B       		.byte	0xb
 3997 047c 66       		.byte	0x66
 3998 047d 8D020000 		.4byte	0x28d
 3999 0481 14       		.byte	0x14
 4000 0482 06       		.uleb128 0x6
 4001 0483 CD070000 		.4byte	.LASF73
 4002 0487 0B       		.byte	0xb
 4003 0488 69       		.byte	0x69
 4004 0489 8D020000 		.4byte	0x28d
 4005 048d 18       		.byte	0x18
 4006 048e 00       		.byte	0
 4007 048f 04       		.uleb128 0x4
 4008 0490 550A0000 		.4byte	.LASF74
 4009 0494 0B       		.byte	0xb
 4010 0495 6B       		.byte	0x6b
 4011 0496 3E040000 		.4byte	0x43e
 4012 049a 05       		.uleb128 0x5
 4013 049b 3F040000 		.4byte	.LASF75
 4014 049f 10       		.byte	0x10
 4015 04a0 0C       		.byte	0xc
 4016 04a1 2C       		.byte	0x2c
 4017 04a2 CB040000 		.4byte	0x4cb
 4018 04a6 06       		.uleb128 0x6
 4019 04a7 1D020000 		.4byte	.LASF76
 4020 04ab 0C       		.byte	0xc
 4021 04ac 2D       		.byte	0x2d
 4022 04ad 93020000 		.4byte	0x293
 4023 04b1 00       		.byte	0
 4024 04b2 06       		.uleb128 0x6
 4025 04b3 660C0000 		.4byte	.LASF77
 4026 04b7 0C       		.byte	0xc
 4027 04b8 2F       		.byte	0x2f
 4028 04b9 8D020000 		.4byte	0x28d
 4029 04bd 08       		.byte	0x8
 4030 04be 06       		.uleb128 0x6
 4031 04bf 2A0B0000 		.4byte	.LASF78
 4032 04c3 0C       		.byte	0xc
 4033 04c4 31       		.byte	0x31
 4034 04c5 CB040000 		.4byte	0x4cb
 4035 04c9 0C       		.byte	0xc
 4036 04ca 00       		.byte	0
ARM GAS  C:\Users\danit\AppData\Local\Temp\cc88b6Ga.s 			page 73


 4037 04cb 09       		.uleb128 0x9
 4038 04cc 04       		.byte	0x4
 4039 04cd 9A040000 		.4byte	0x49a
 4040 04d1 04       		.uleb128 0x4
 4041 04d2 3F040000 		.4byte	.LASF75
 4042 04d6 0C       		.byte	0xc
 4043 04d7 33       		.byte	0x33
 4044 04d8 9A040000 		.4byte	0x49a
 4045 04dc 10       		.uleb128 0x10
 4046 04dd 04       		.byte	0x4
 4047 04de 08       		.byte	0x8
 4048 04df 96       		.byte	0x96
 4049 04e0 11050000 		.4byte	0x511
 4050 04e4 11       		.uleb128 0x11
 4051 04e5 BC030000 		.4byte	.LASF79
 4052 04e9 08       		.byte	0x8
 4053 04ea 9D       		.byte	0x9d
 4054 04eb 43010000 		.4byte	0x143
 4055 04ef 11       		.uleb128 0x11
 4056 04f0 2A0C0000 		.4byte	.LASF80
 4057 04f4 08       		.byte	0x8
 4058 04f5 A4       		.byte	0xa4
 4059 04f6 43010000 		.4byte	0x143
 4060 04fa 11       		.uleb128 0x11
 4061 04fb 5D010000 		.4byte	.LASF81
 4062 04ff 08       		.byte	0x8
 4063 0500 AB       		.byte	0xab
 4064 0501 C9020000 		.4byte	0x2c9
 4065 0505 11       		.uleb128 0x11
 4066 0506 CA0A0000 		.4byte	.LASF82
 4067 050a 08       		.byte	0x8
 4068 050b B2       		.byte	0xb2
 4069 050c 4E010000 		.4byte	0x14e
 4070 0510 00       		.byte	0
 4071 0511 09       		.uleb128 0x9
 4072 0512 04       		.byte	0x4
 4073 0513 17050000 		.4byte	0x517
 4074 0517 12       		.uleb128 0x12
 4075 0518 1C050000 		.4byte	0x51c
 4076 051c 02       		.uleb128 0x2
 4077 051d 01       		.byte	0x1
 4078 051e 08       		.byte	0x8
 4079 051f B5040000 		.4byte	.LASF83
 4080 0523 09       		.uleb128 0x9
 4081 0524 04       		.byte	0x4
 4082 0525 D1040000 		.4byte	0x4d1
 4083 0529 04       		.uleb128 0x4
 4084 052a 95020000 		.4byte	.LASF84
 4085 052e 08       		.byte	0x8
 4086 052f E5       		.byte	0xe5
 4087 0530 34050000 		.4byte	0x534
 4088 0534 09       		.uleb128 0x9
 4089 0535 04       		.byte	0x4
 4090 0536 3A050000 		.4byte	0x53a
 4091 053a 13       		.uleb128 0x13
 4092 053b 43010000 		.4byte	0x143
 4093 053f 49050000 		.4byte	0x549
ARM GAS  C:\Users\danit\AppData\Local\Temp\cc88b6Ga.s 			page 74


 4094 0543 0F       		.uleb128 0xf
 4095 0544 C9020000 		.4byte	0x2c9
 4096 0548 00       		.byte	0
 4097 0549 09       		.uleb128 0x9
 4098 054a 04       		.byte	0x4
 4099 054b B8000000 		.4byte	0xb8
 4100 054f 05       		.uleb128 0x5
 4101 0550 1E010000 		.4byte	.LASF85
 4102 0554 10       		.byte	0x10
 4103 0555 0D       		.byte	0xd
 4104 0556 48       		.byte	0x48
 4105 0557 8C050000 		.4byte	0x58c
 4106 055b 06       		.uleb128 0x6
 4107 055c B6050000 		.4byte	.LASF86
 4108 0560 0D       		.byte	0xd
 4109 0561 49       		.byte	0x49
 4110 0562 B0050000 		.4byte	0x5b0
 4111 0566 00       		.byte	0
 4112 0567 06       		.uleb128 0x6
 4113 0568 BD080000 		.4byte	.LASF87
 4114 056c 0D       		.byte	0xd
 4115 056d 49       		.byte	0x49
 4116 056e CF050000 		.4byte	0x5cf
 4117 0572 04       		.byte	0x4
 4118 0573 07       		.uleb128 0x7
 4119 0574 70757400 		.ascii	"put\000"
 4120 0578 0D       		.byte	0xd
 4121 0579 49       		.byte	0x49
 4122 057a E9050000 		.4byte	0x5e9
 4123 057e 08       		.byte	0x8
 4124 057f 07       		.uleb128 0x7
 4125 0580 67657400 		.ascii	"get\000"
 4126 0584 0D       		.byte	0xd
 4127 0585 49       		.byte	0x49
 4128 0586 34050000 		.4byte	0x534
 4129 058a 0C       		.byte	0xc
 4130 058b 00       		.byte	0
 4131 058c 13       		.uleb128 0x13
 4132 058d 3A000000 		.4byte	0x3a
 4133 0591 A5050000 		.4byte	0x5a5
 4134 0595 0F       		.uleb128 0xf
 4135 0596 C9020000 		.4byte	0x2c9
 4136 059a 0F       		.uleb128 0xf
 4137 059b A5050000 		.4byte	0x5a5
 4138 059f 0F       		.uleb128 0xf
 4139 05a0 3A000000 		.4byte	0x3a
 4140 05a4 00       		.byte	0
 4141 05a5 09       		.uleb128 0x9
 4142 05a6 04       		.byte	0x4
 4143 05a7 AB050000 		.4byte	0x5ab
 4144 05ab 12       		.uleb128 0x12
 4145 05ac B8000000 		.4byte	0xb8
 4146 05b0 09       		.uleb128 0x9
 4147 05b1 04       		.byte	0x4
 4148 05b2 8C050000 		.4byte	0x58c
 4149 05b6 13       		.uleb128 0x13
 4150 05b7 3A000000 		.4byte	0x3a
ARM GAS  C:\Users\danit\AppData\Local\Temp\cc88b6Ga.s 			page 75


 4151 05bb CF050000 		.4byte	0x5cf
 4152 05bf 0F       		.uleb128 0xf
 4153 05c0 C9020000 		.4byte	0x2c9
 4154 05c4 0F       		.uleb128 0xf
 4155 05c5 49050000 		.4byte	0x549
 4156 05c9 0F       		.uleb128 0xf
 4157 05ca 3A000000 		.4byte	0x3a
 4158 05ce 00       		.byte	0
 4159 05cf 09       		.uleb128 0x9
 4160 05d0 04       		.byte	0x4
 4161 05d1 B6050000 		.4byte	0x5b6
 4162 05d5 13       		.uleb128 0x13
 4163 05d6 43010000 		.4byte	0x143
 4164 05da E9050000 		.4byte	0x5e9
 4165 05de 0F       		.uleb128 0xf
 4166 05df C9020000 		.4byte	0x2c9
 4167 05e3 0F       		.uleb128 0xf
 4168 05e4 B8000000 		.4byte	0xb8
 4169 05e8 00       		.byte	0
 4170 05e9 09       		.uleb128 0x9
 4171 05ea 04       		.byte	0x4
 4172 05eb D5050000 		.4byte	0x5d5
 4173 05ef 08       		.uleb128 0x8
 4174 05f0 04       		.byte	0x4
 4175 05f1 0D       		.byte	0xd
 4176 05f2 51       		.byte	0x51
 4177 05f3 04060000 		.4byte	0x604
 4178 05f7 07       		.uleb128 0x7
 4179 05f8 766D7400 		.ascii	"vmt\000"
 4180 05fc 0D       		.byte	0xd
 4181 05fd 53       		.byte	0x53
 4182 05fe 04060000 		.4byte	0x604
 4183 0602 00       		.byte	0
 4184 0603 00       		.byte	0
 4185 0604 09       		.uleb128 0x9
 4186 0605 04       		.byte	0x4
 4187 0606 0A060000 		.4byte	0x60a
 4188 060a 12       		.uleb128 0x12
 4189 060b 4F050000 		.4byte	0x54f
 4190 060f 04       		.uleb128 0x4
 4191 0610 87040000 		.4byte	.LASF88
 4192 0614 0D       		.byte	0xd
 4193 0615 55       		.byte	0x55
 4194 0616 EF050000 		.4byte	0x5ef
 4195 061a 0D       		.uleb128 0xd
 4196 061b D9000000 		.4byte	0xd9
 4197 061f 05       		.uleb128 0x5
 4198 0620 F1010000 		.4byte	.LASF89
 4199 0624 20       		.byte	0x20
 4200 0625 0E       		.byte	0xe
 4201 0626 4E       		.byte	0x4e
 4202 0627 8C060000 		.4byte	0x68c
 4203 062b 06       		.uleb128 0x6
 4204 062c B6050000 		.4byte	.LASF86
 4205 0630 0E       		.byte	0xe
 4206 0631 4F       		.byte	0x4f
 4207 0632 B0050000 		.4byte	0x5b0
ARM GAS  C:\Users\danit\AppData\Local\Temp\cc88b6Ga.s 			page 76


 4208 0636 00       		.byte	0
 4209 0637 06       		.uleb128 0x6
 4210 0638 BD080000 		.4byte	.LASF87
 4211 063c 0E       		.byte	0xe
 4212 063d 4F       		.byte	0x4f
 4213 063e CF050000 		.4byte	0x5cf
 4214 0642 04       		.byte	0x4
 4215 0643 07       		.uleb128 0x7
 4216 0644 70757400 		.ascii	"put\000"
 4217 0648 0E       		.byte	0xe
 4218 0649 4F       		.byte	0x4f
 4219 064a E9050000 		.4byte	0x5e9
 4220 064e 08       		.byte	0x8
 4221 064f 07       		.uleb128 0x7
 4222 0650 67657400 		.ascii	"get\000"
 4223 0654 0E       		.byte	0xe
 4224 0655 4F       		.byte	0x4f
 4225 0656 34050000 		.4byte	0x534
 4226 065a 0C       		.byte	0xc
 4227 065b 06       		.uleb128 0x6
 4228 065c A4030000 		.4byte	.LASF90
 4229 0660 0E       		.byte	0xe
 4230 0661 4F       		.byte	0x4f
 4231 0662 A5060000 		.4byte	0x6a5
 4232 0666 10       		.byte	0x10
 4233 0667 06       		.uleb128 0x6
 4234 0668 8A000000 		.4byte	.LASF91
 4235 066c 0E       		.byte	0xe
 4236 066d 4F       		.byte	0x4f
 4237 066e BF060000 		.4byte	0x6bf
 4238 0672 14       		.byte	0x14
 4239 0673 06       		.uleb128 0x6
 4240 0674 EA010000 		.4byte	.LASF92
 4241 0678 0E       		.byte	0xe
 4242 0679 4F       		.byte	0x4f
 4243 067a E3060000 		.4byte	0x6e3
 4244 067e 18       		.byte	0x18
 4245 067f 06       		.uleb128 0x6
 4246 0680 5D0B0000 		.4byte	.LASF93
 4247 0684 0E       		.byte	0xe
 4248 0685 4F       		.byte	0x4f
 4249 0686 07070000 		.4byte	0x707
 4250 068a 1C       		.byte	0x1c
 4251 068b 00       		.byte	0
 4252 068c 13       		.uleb128 0x13
 4253 068d 43010000 		.4byte	0x143
 4254 0691 A5060000 		.4byte	0x6a5
 4255 0695 0F       		.uleb128 0xf
 4256 0696 C9020000 		.4byte	0x2c9
 4257 069a 0F       		.uleb128 0xf
 4258 069b B8000000 		.4byte	0xb8
 4259 069f 0F       		.uleb128 0xf
 4260 06a0 59010000 		.4byte	0x159
 4261 06a4 00       		.byte	0
 4262 06a5 09       		.uleb128 0x9
 4263 06a6 04       		.byte	0x4
 4264 06a7 8C060000 		.4byte	0x68c
ARM GAS  C:\Users\danit\AppData\Local\Temp\cc88b6Ga.s 			page 77


 4265 06ab 13       		.uleb128 0x13
 4266 06ac 43010000 		.4byte	0x143
 4267 06b0 BF060000 		.4byte	0x6bf
 4268 06b4 0F       		.uleb128 0xf
 4269 06b5 C9020000 		.4byte	0x2c9
 4270 06b9 0F       		.uleb128 0xf
 4271 06ba 59010000 		.4byte	0x159
 4272 06be 00       		.byte	0
 4273 06bf 09       		.uleb128 0x9
 4274 06c0 04       		.byte	0x4
 4275 06c1 AB060000 		.4byte	0x6ab
 4276 06c5 13       		.uleb128 0x13
 4277 06c6 3A000000 		.4byte	0x3a
 4278 06ca E3060000 		.4byte	0x6e3
 4279 06ce 0F       		.uleb128 0xf
 4280 06cf C9020000 		.4byte	0x2c9
 4281 06d3 0F       		.uleb128 0xf
 4282 06d4 A5050000 		.4byte	0x5a5
 4283 06d8 0F       		.uleb128 0xf
 4284 06d9 3A000000 		.4byte	0x3a
 4285 06dd 0F       		.uleb128 0xf
 4286 06de 59010000 		.4byte	0x159
 4287 06e2 00       		.byte	0
 4288 06e3 09       		.uleb128 0x9
 4289 06e4 04       		.byte	0x4
 4290 06e5 C5060000 		.4byte	0x6c5
 4291 06e9 13       		.uleb128 0x13
 4292 06ea 3A000000 		.4byte	0x3a
 4293 06ee 07070000 		.4byte	0x707
 4294 06f2 0F       		.uleb128 0xf
 4295 06f3 C9020000 		.4byte	0x2c9
 4296 06f7 0F       		.uleb128 0xf
 4297 06f8 49050000 		.4byte	0x549
 4298 06fc 0F       		.uleb128 0xf
 4299 06fd 3A000000 		.4byte	0x3a
 4300 0701 0F       		.uleb128 0xf
 4301 0702 59010000 		.4byte	0x159
 4302 0706 00       		.byte	0
 4303 0707 09       		.uleb128 0x9
 4304 0708 04       		.byte	0x4
 4305 0709 E9060000 		.4byte	0x6e9
 4306 070d 08       		.uleb128 0x8
 4307 070e 04       		.byte	0x4
 4308 070f 0E       		.byte	0xe
 4309 0710 59       		.byte	0x59
 4310 0711 22070000 		.4byte	0x722
 4311 0715 07       		.uleb128 0x7
 4312 0716 766D7400 		.ascii	"vmt\000"
 4313 071a 0E       		.byte	0xe
 4314 071b 5B       		.byte	0x5b
 4315 071c 22070000 		.4byte	0x722
 4316 0720 00       		.byte	0
 4317 0721 00       		.byte	0
 4318 0722 09       		.uleb128 0x9
 4319 0723 04       		.byte	0x4
 4320 0724 28070000 		.4byte	0x728
 4321 0728 12       		.uleb128 0x12
ARM GAS  C:\Users\danit\AppData\Local\Temp\cc88b6Ga.s 			page 78


 4322 0729 1F060000 		.4byte	0x61f
 4323 072d 04       		.uleb128 0x4
 4324 072e 40050000 		.4byte	.LASF94
 4325 0732 0E       		.byte	0xe
 4326 0733 5D       		.byte	0x5d
 4327 0734 0D070000 		.4byte	0x70d
 4328 0738 08       		.uleb128 0x8
 4329 0739 04       		.byte	0x4
 4330 073a 0F       		.byte	0xf
 4331 073b 96       		.byte	0x96
 4332 073c 59070000 		.4byte	0x759
 4333 0740 07       		.uleb128 0x7
 4334 0741 73657400 		.ascii	"set\000"
 4335 0745 0F       		.byte	0xf
 4336 0746 97       		.byte	0x97
 4337 0747 CE000000 		.4byte	0xce
 4338 074b 00       		.byte	0
 4339 074c 06       		.uleb128 0x6
 4340 074d 64030000 		.4byte	.LASF95
 4341 0751 0F       		.byte	0xf
 4342 0752 98       		.byte	0x98
 4343 0753 CE000000 		.4byte	0xce
 4344 0757 02       		.byte	0x2
 4345 0758 00       		.byte	0
 4346 0759 10       		.uleb128 0x10
 4347 075a 04       		.byte	0x4
 4348 075b 0F       		.byte	0xf
 4349 075c 94       		.byte	0x94
 4350 075d 74070000 		.4byte	0x774
 4351 0761 14       		.uleb128 0x14
 4352 0762 5700     		.ascii	"W\000"
 4353 0764 0F       		.byte	0xf
 4354 0765 95       		.byte	0x95
 4355 0766 E4000000 		.4byte	0xe4
 4356 076a 14       		.uleb128 0x14
 4357 076b 4800     		.ascii	"H\000"
 4358 076d 0F       		.byte	0xf
 4359 076e 99       		.byte	0x99
 4360 076f 38070000 		.4byte	0x738
 4361 0773 00       		.byte	0
 4362 0774 08       		.uleb128 0x8
 4363 0775 28       		.byte	0x28
 4364 0776 0F       		.byte	0xf
 4365 0777 8C       		.byte	0x8c
 4366 0778 F5070000 		.4byte	0x7f5
 4367 077c 06       		.uleb128 0x6
 4368 077d FC030000 		.4byte	.LASF96
 4369 0781 0F       		.byte	0xf
 4370 0782 8E       		.byte	0x8e
 4371 0783 73030000 		.4byte	0x373
 4372 0787 00       		.byte	0
 4373 0788 06       		.uleb128 0x6
 4374 0789 5B080000 		.4byte	.LASF97
 4375 078d 0F       		.byte	0xf
 4376 078e 8F       		.byte	0x8f
 4377 078f 73030000 		.4byte	0x373
 4378 0793 04       		.byte	0x4
ARM GAS  C:\Users\danit\AppData\Local\Temp\cc88b6Ga.s 			page 79


 4379 0794 06       		.uleb128 0x6
 4380 0795 26070000 		.4byte	.LASF98
 4381 0799 0F       		.byte	0xf
 4382 079a 90       		.byte	0x90
 4383 079b 73030000 		.4byte	0x373
 4384 079f 08       		.byte	0x8
 4385 07a0 06       		.uleb128 0x6
 4386 07a1 6E040000 		.4byte	.LASF99
 4387 07a5 0F       		.byte	0xf
 4388 07a6 91       		.byte	0x91
 4389 07a7 73030000 		.4byte	0x373
 4390 07ab 0C       		.byte	0xc
 4391 07ac 07       		.uleb128 0x7
 4392 07ad 49445200 		.ascii	"IDR\000"
 4393 07b1 0F       		.byte	0xf
 4394 07b2 92       		.byte	0x92
 4395 07b3 73030000 		.4byte	0x373
 4396 07b7 10       		.byte	0x10
 4397 07b8 07       		.uleb128 0x7
 4398 07b9 4F445200 		.ascii	"ODR\000"
 4399 07bd 0F       		.byte	0xf
 4400 07be 93       		.byte	0x93
 4401 07bf 73030000 		.4byte	0x373
 4402 07c3 14       		.byte	0x14
 4403 07c4 06       		.uleb128 0x6
 4404 07c5 61000000 		.4byte	.LASF100
 4405 07c9 0F       		.byte	0xf
 4406 07ca 9A       		.byte	0x9a
 4407 07cb F5070000 		.4byte	0x7f5
 4408 07cf 18       		.byte	0x18
 4409 07d0 06       		.uleb128 0x6
 4410 07d1 4F0C0000 		.4byte	.LASF101
 4411 07d5 0F       		.byte	0xf
 4412 07d6 9B       		.byte	0x9b
 4413 07d7 73030000 		.4byte	0x373
 4414 07db 1C       		.byte	0x1c
 4415 07dc 06       		.uleb128 0x6
 4416 07dd 2B030000 		.4byte	.LASF102
 4417 07e1 0F       		.byte	0xf
 4418 07e2 9C       		.byte	0x9c
 4419 07e3 73030000 		.4byte	0x373
 4420 07e7 20       		.byte	0x20
 4421 07e8 06       		.uleb128 0x6
 4422 07e9 47090000 		.4byte	.LASF103
 4423 07ed 0F       		.byte	0xf
 4424 07ee 9D       		.byte	0x9d
 4425 07ef 73030000 		.4byte	0x373
 4426 07f3 24       		.byte	0x24
 4427 07f4 00       		.byte	0
 4428 07f5 0D       		.uleb128 0xd
 4429 07f6 59070000 		.4byte	0x759
 4430 07fa 04       		.uleb128 0x4
 4431 07fb DD080000 		.4byte	.LASF104
 4432 07ff 0F       		.byte	0xf
 4433 0800 9E       		.byte	0x9e
 4434 0801 74070000 		.4byte	0x774
 4435 0805 15       		.uleb128 0x15
ARM GAS  C:\Users\danit\AppData\Local\Temp\cc88b6Ga.s 			page 80


 4436 0806 17040000 		.4byte	.LASF113
 4437 080a 01       		.byte	0x1
 4438 080b 10       		.byte	0x10
 4439 080c 0C       		.byte	0xc
 4440 080d 42080000 		.4byte	0x842
 4441 0811 16       		.uleb128 0x16
 4442 0812 E50A0000 		.4byte	.LASF105
 4443 0816 00       		.sleb128 0
 4444 0817 16       		.uleb128 0x16
 4445 0818 B7010000 		.4byte	.LASF106
 4446 081c 01       		.sleb128 1
 4447 081d 16       		.uleb128 0x16
 4448 081e C2010000 		.4byte	.LASF107
 4449 0822 02       		.sleb128 2
 4450 0823 16       		.uleb128 0x16
 4451 0824 C9060000 		.4byte	.LASF108
 4452 0828 03       		.sleb128 3
 4453 0829 16       		.uleb128 0x16
 4454 082a 3D030000 		.4byte	.LASF109
 4455 082e 04       		.sleb128 4
 4456 082f 16       		.uleb128 0x16
 4457 0830 00000000 		.4byte	.LASF110
 4458 0834 05       		.sleb128 5
 4459 0835 16       		.uleb128 0x16
 4460 0836 77070000 		.4byte	.LASF111
 4461 083a 06       		.sleb128 6
 4462 083b 16       		.uleb128 0x16
 4463 083c D90A0000 		.4byte	.LASF112
 4464 0840 07       		.sleb128 7
 4465 0841 00       		.byte	0
 4466 0842 15       		.uleb128 0x15
 4467 0843 00020000 		.4byte	.LASF114
 4468 0847 01       		.byte	0x1
 4469 0848 10       		.byte	0x10
 4470 0849 18       		.byte	0x18
 4471 084a 67080000 		.4byte	0x867
 4472 084e 16       		.uleb128 0x16
 4473 084f 8B080000 		.4byte	.LASF115
 4474 0853 00       		.sleb128 0
 4475 0854 16       		.uleb128 0x16
 4476 0855 E7030000 		.4byte	.LASF116
 4477 0859 01       		.sleb128 1
 4478 085a 16       		.uleb128 0x16
 4479 085b E2070000 		.4byte	.LASF117
 4480 085f 02       		.sleb128 2
 4481 0860 16       		.uleb128 0x16
 4482 0861 4C090000 		.4byte	.LASF118
 4483 0865 03       		.sleb128 3
 4484 0866 00       		.byte	0
 4485 0867 09       		.uleb128 0x9
 4486 0868 04       		.byte	0x4
 4487 0869 1C050000 		.4byte	0x51c
 4488 086d 02       		.uleb128 0x2
 4489 086e 08       		.byte	0x8
 4490 086f 04       		.byte	0x4
 4491 0870 B90B0000 		.4byte	.LASF119
 4492 0874 02       		.uleb128 0x2
ARM GAS  C:\Users\danit\AppData\Local\Temp\cc88b6Ga.s 			page 81


 4493 0875 04       		.byte	0x4
 4494 0876 04       		.byte	0x4
 4495 0877 70020000 		.4byte	.LASF120
 4496 087b 02       		.uleb128 0x2
 4497 087c 08       		.byte	0x8
 4498 087d 04       		.byte	0x4
 4499 087e 4F070000 		.4byte	.LASF121
 4500 0882 04       		.uleb128 0x4
 4501 0883 8A030000 		.4byte	.LASF122
 4502 0887 11       		.byte	0x11
 4503 0888 28       		.byte	0x28
 4504 0889 8D080000 		.4byte	0x88d
 4505 088d 05       		.uleb128 0x5
 4506 088e 50000000 		.4byte	.LASF123
 4507 0892 04       		.byte	0x4
 4508 0893 12       		.byte	0x12
 4509 0894 00       		.byte	0
 4510 0895 A4080000 		.4byte	0x8a4
 4511 0899 17       		.uleb128 0x17
 4512 089a 49060000 		.4byte	.LASF124
 4513 089e C9020000 		.4byte	0x2c9
 4514 08a2 00       		.byte	0
 4515 08a3 00       		.byte	0
 4516 08a4 05       		.uleb128 0x5
 4517 08a5 DC020000 		.4byte	.LASF125
 4518 08a9 2C       		.byte	0x2c
 4519 08aa 13       		.byte	0x13
 4520 08ab 15       		.byte	0x15
 4521 08ac D0090000 		.4byte	0x9d0
 4522 08b0 07       		.uleb128 0x7
 4523 08b1 696400   		.ascii	"id\000"
 4524 08b4 13       		.byte	0x13
 4525 08b5 17       		.byte	0x17
 4526 08b6 E4000000 		.4byte	0xe4
 4527 08ba 00       		.byte	0
 4528 08bb 06       		.uleb128 0x6
 4529 08bc DE050000 		.4byte	.LASF126
 4530 08c0 13       		.byte	0x13
 4531 08c1 18       		.byte	0x18
 4532 08c2 B8000000 		.4byte	0xb8
 4533 08c6 04       		.byte	0x4
 4534 08c7 06       		.uleb128 0x6
 4535 08c8 2C080000 		.4byte	.LASF127
 4536 08cc 13       		.byte	0x13
 4537 08cd 19       		.byte	0x19
 4538 08ce CE000000 		.4byte	0xce
 4539 08d2 06       		.byte	0x6
 4540 08d3 06       		.uleb128 0x6
 4541 08d4 9A070000 		.4byte	.LASF128
 4542 08d8 13       		.byte	0x13
 4543 08d9 1A       		.byte	0x1a
 4544 08da CE000000 		.4byte	0xce
 4545 08de 08       		.byte	0x8
 4546 08df 06       		.uleb128 0x6
 4547 08e0 06050000 		.4byte	.LASF129
 4548 08e4 13       		.byte	0x13
 4549 08e5 1B       		.byte	0x1b
ARM GAS  C:\Users\danit\AppData\Local\Temp\cc88b6Ga.s 			page 82


 4550 08e6 B8000000 		.4byte	0xb8
 4551 08ea 0A       		.byte	0xa
 4552 08eb 06       		.uleb128 0x6
 4553 08ec 310B0000 		.4byte	.LASF130
 4554 08f0 13       		.byte	0x13
 4555 08f1 1C       		.byte	0x1c
 4556 08f2 CE000000 		.4byte	0xce
 4557 08f6 0C       		.byte	0xc
 4558 08f7 06       		.uleb128 0x6
 4559 08f8 6B010000 		.4byte	.LASF131
 4560 08fc 13       		.byte	0x13
 4561 08fd 1D       		.byte	0x1d
 4562 08fe B8000000 		.4byte	0xb8
 4563 0902 0E       		.byte	0xe
 4564 0903 06       		.uleb128 0x6
 4565 0904 32040000 		.4byte	.LASF132
 4566 0908 13       		.byte	0x13
 4567 0909 1E       		.byte	0x1e
 4568 090a B8000000 		.4byte	0xb8
 4569 090e 0F       		.byte	0xf
 4570 090f 06       		.uleb128 0x6
 4571 0910 0A0C0000 		.4byte	.LASF133
 4572 0914 13       		.byte	0x13
 4573 0915 1F       		.byte	0x1f
 4574 0916 B8000000 		.4byte	0xb8
 4575 091a 10       		.byte	0x10
 4576 091b 06       		.uleb128 0x6
 4577 091c 7D050000 		.4byte	.LASF134
 4578 0920 13       		.byte	0x13
 4579 0921 20       		.byte	0x20
 4580 0922 CE000000 		.4byte	0xce
 4581 0926 12       		.byte	0x12
 4582 0927 06       		.uleb128 0x6
 4583 0928 630B0000 		.4byte	.LASF135
 4584 092c 13       		.byte	0x13
 4585 092d 21       		.byte	0x21
 4586 092e CE000000 		.4byte	0xce
 4587 0932 14       		.byte	0x14
 4588 0933 06       		.uleb128 0x6
 4589 0934 B9020000 		.4byte	.LASF136
 4590 0938 13       		.byte	0x13
 4591 0939 22       		.byte	0x22
 4592 093a CE000000 		.4byte	0xce
 4593 093e 16       		.byte	0x16
 4594 093f 06       		.uleb128 0x6
 4595 0940 410A0000 		.4byte	.LASF137
 4596 0944 13       		.byte	0x13
 4597 0945 23       		.byte	0x23
 4598 0946 C3000000 		.4byte	0xc3
 4599 094a 18       		.byte	0x18
 4600 094b 06       		.uleb128 0x6
 4601 094c CC080000 		.4byte	.LASF138
 4602 0950 13       		.byte	0x13
 4603 0951 24       		.byte	0x24
 4604 0952 B8000000 		.4byte	0xb8
 4605 0956 1A       		.byte	0x1a
 4606 0957 06       		.uleb128 0x6
ARM GAS  C:\Users\danit\AppData\Local\Temp\cc88b6Ga.s 			page 83


 4607 0958 2E060000 		.4byte	.LASF139
 4608 095c 13       		.byte	0x13
 4609 095d 25       		.byte	0x25
 4610 095e B8000000 		.4byte	0xb8
 4611 0962 1B       		.byte	0x1b
 4612 0963 06       		.uleb128 0x6
 4613 0964 780B0000 		.4byte	.LASF140
 4614 0968 13       		.byte	0x13
 4615 0969 26       		.byte	0x26
 4616 096a B8000000 		.4byte	0xb8
 4617 096e 1C       		.byte	0x1c
 4618 096f 06       		.uleb128 0x6
 4619 0970 1E030000 		.4byte	.LASF141
 4620 0974 13       		.byte	0x13
 4621 0975 27       		.byte	0x27
 4622 0976 CE000000 		.4byte	0xce
 4623 097a 1E       		.byte	0x1e
 4624 097b 06       		.uleb128 0x6
 4625 097c EC050000 		.4byte	.LASF142
 4626 0980 13       		.byte	0x13
 4627 0981 28       		.byte	0x28
 4628 0982 B8000000 		.4byte	0xb8
 4629 0986 20       		.byte	0x20
 4630 0987 06       		.uleb128 0x6
 4631 0988 56050000 		.4byte	.LASF143
 4632 098c 13       		.byte	0x13
 4633 098d 29       		.byte	0x29
 4634 098e CE000000 		.4byte	0xce
 4635 0992 22       		.byte	0x22
 4636 0993 06       		.uleb128 0x6
 4637 0994 7A0A0000 		.4byte	.LASF144
 4638 0998 13       		.byte	0x13
 4639 0999 2A       		.byte	0x2a
 4640 099a B8000000 		.4byte	0xb8
 4641 099e 24       		.byte	0x24
 4642 099f 06       		.uleb128 0x6
 4643 09a0 180C0000 		.4byte	.LASF145
 4644 09a4 13       		.byte	0x13
 4645 09a5 2B       		.byte	0x2b
 4646 09a6 B8000000 		.4byte	0xb8
 4647 09aa 25       		.byte	0x25
 4648 09ab 06       		.uleb128 0x6
 4649 09ac 5B0C0000 		.4byte	.LASF146
 4650 09b0 13       		.byte	0x13
 4651 09b1 2C       		.byte	0x2c
 4652 09b2 B8000000 		.4byte	0xb8
 4653 09b6 26       		.byte	0x26
 4654 09b7 06       		.uleb128 0x6
 4655 09b8 02040000 		.4byte	.LASF147
 4656 09bc 13       		.byte	0x13
 4657 09bd 2D       		.byte	0x2d
 4658 09be B8000000 		.4byte	0xb8
 4659 09c2 27       		.byte	0x27
 4660 09c3 06       		.uleb128 0x6
 4661 09c4 CA020000 		.4byte	.LASF148
 4662 09c8 13       		.byte	0x13
 4663 09c9 2E       		.byte	0x2e
ARM GAS  C:\Users\danit\AppData\Local\Temp\cc88b6Ga.s 			page 84


 4664 09ca CE000000 		.4byte	0xce
 4665 09ce 28       		.byte	0x28
 4666 09cf 00       		.byte	0
 4667 09d0 15       		.uleb128 0x15
 4668 09d1 7B060000 		.4byte	.LASF149
 4669 09d5 01       		.byte	0x1
 4670 09d6 14       		.byte	0x14
 4671 09d7 0C       		.byte	0xc
 4672 09d8 F5090000 		.4byte	0x9f5
 4673 09dc 16       		.uleb128 0x16
 4674 09dd 9D020000 		.4byte	.LASF150
 4675 09e1 00       		.sleb128 0
 4676 09e2 16       		.uleb128 0x16
 4677 09e3 29050000 		.4byte	.LASF151
 4678 09e7 01       		.sleb128 1
 4679 09e8 16       		.uleb128 0x16
 4680 09e9 EA000000 		.4byte	.LASF152
 4681 09ed 02       		.sleb128 2
 4682 09ee 16       		.uleb128 0x16
 4683 09ef A9040000 		.4byte	.LASF153
 4684 09f3 03       		.sleb128 3
 4685 09f4 00       		.byte	0
 4686 09f5 04       		.uleb128 0x4
 4687 09f6 8B050000 		.4byte	.LASF154
 4688 09fa 11       		.byte	0x11
 4689 09fb 62       		.byte	0x62
 4690 09fc 82080000 		.4byte	0x882
 4691 0a00 15       		.uleb128 0x15
 4692 0a01 8D0A0000 		.4byte	.LASF155
 4693 0a05 01       		.byte	0x1
 4694 0a06 01       		.byte	0x1
 4695 0a07 1B       		.byte	0x1b
 4696 0a08 190A0000 		.4byte	0xa19
 4697 0a0c 16       		.uleb128 0x16
 4698 0a0d 0D030000 		.4byte	.LASF156
 4699 0a11 00       		.sleb128 0
 4700 0a12 16       		.uleb128 0x16
 4701 0a13 74040000 		.4byte	.LASF157
 4702 0a17 01       		.sleb128 1
 4703 0a18 00       		.byte	0
 4704 0a19 15       		.uleb128 0x15
 4705 0a1a 01030000 		.4byte	.LASF158
 4706 0a1e 01       		.byte	0x1
 4707 0a1f 01       		.byte	0x1
 4708 0a20 20       		.byte	0x20
 4709 0a21 F20A0000 		.4byte	0xaf2
 4710 0a25 16       		.uleb128 0x16
 4711 0a26 0E020000 		.4byte	.LASF159
 4712 0a2a 00       		.sleb128 0
 4713 0a2b 16       		.uleb128 0x16
 4714 0a2c C4050000 		.4byte	.LASF160
 4715 0a30 01       		.sleb128 1
 4716 0a31 16       		.uleb128 0x16
 4717 0a32 A3060000 		.4byte	.LASF161
 4718 0a36 02       		.sleb128 2
 4719 0a37 16       		.uleb128 0x16
 4720 0a38 80000000 		.4byte	.LASF162
ARM GAS  C:\Users\danit\AppData\Local\Temp\cc88b6Ga.s 			page 85


 4721 0a3c 03       		.sleb128 3
 4722 0a3d 16       		.uleb128 0x16
 4723 0a3e D7010000 		.4byte	.LASF163
 4724 0a42 04       		.sleb128 4
 4725 0a43 16       		.uleb128 0x16
 4726 0a44 EF0A0000 		.4byte	.LASF164
 4727 0a48 05       		.sleb128 5
 4728 0a49 16       		.uleb128 0x16
 4729 0a4a A10B0000 		.4byte	.LASF165
 4730 0a4e 06       		.sleb128 6
 4731 0a4f 16       		.uleb128 0x16
 4732 0a50 330C0000 		.4byte	.LASF166
 4733 0a54 07       		.sleb128 7
 4734 0a55 16       		.uleb128 0x16
 4735 0a56 810B0000 		.4byte	.LASF167
 4736 0a5a 08       		.sleb128 8
 4737 0a5b 16       		.uleb128 0x16
 4738 0a5c 3E000000 		.4byte	.LASF168
 4739 0a60 09       		.sleb128 9
 4740 0a61 16       		.uleb128 0x16
 4741 0a62 80010000 		.4byte	.LASF169
 4742 0a66 0A       		.sleb128 10
 4743 0a67 16       		.uleb128 0x16
 4744 0a68 1A0B0000 		.4byte	.LASF170
 4745 0a6c 0B       		.sleb128 11
 4746 0a6d 16       		.uleb128 0x16
 4747 0a6e C80B0000 		.4byte	.LASF171
 4748 0a72 0C       		.sleb128 12
 4749 0a73 16       		.uleb128 0x16
 4750 0a74 93050000 		.4byte	.LASF172
 4751 0a78 0D       		.sleb128 13
 4752 0a79 16       		.uleb128 0x16
 4753 0a7a 36020000 		.4byte	.LASF173
 4754 0a7e 0E       		.sleb128 14
 4755 0a7f 16       		.uleb128 0x16
 4756 0a80 3F010000 		.4byte	.LASF174
 4757 0a84 0F       		.sleb128 15
 4758 0a85 16       		.uleb128 0x16
 4759 0a86 1B060000 		.4byte	.LASF175
 4760 0a8a 10       		.sleb128 16
 4761 0a8b 16       		.uleb128 0x16
 4762 0a8c 91010000 		.4byte	.LASF176
 4763 0a90 11       		.sleb128 17
 4764 0a91 16       		.uleb128 0x16
 4765 0a92 79030000 		.4byte	.LASF177
 4766 0a96 12       		.sleb128 18
 4767 0a97 16       		.uleb128 0x16
 4768 0a98 3B0B0000 		.4byte	.LASF178
 4769 0a9c 13       		.sleb128 19
 4770 0a9d 16       		.uleb128 0x16
 4771 0a9e 5E060000 		.4byte	.LASF179
 4772 0aa2 14       		.sleb128 20
 4773 0aa3 16       		.uleb128 0x16
 4774 0aa4 A3010000 		.4byte	.LASF180
 4775 0aa8 15       		.sleb128 21
 4776 0aa9 16       		.uleb128 0x16
 4777 0aaa B70A0000 		.4byte	.LASF181
ARM GAS  C:\Users\danit\AppData\Local\Temp\cc88b6Ga.s 			page 86


 4778 0aae 16       		.sleb128 22
 4779 0aaf 16       		.uleb128 0x16
 4780 0ab0 20000000 		.4byte	.LASF182
 4781 0ab4 17       		.sleb128 23
 4782 0ab5 16       		.uleb128 0x16
 4783 0ab6 93060000 		.4byte	.LASF183
 4784 0aba 18       		.sleb128 24
 4785 0abb 16       		.uleb128 0x16
 4786 0abc A3070000 		.4byte	.LASF184
 4787 0ac0 19       		.sleb128 25
 4788 0ac1 16       		.uleb128 0x16
 4789 0ac2 DD000000 		.4byte	.LASF185
 4790 0ac6 1A       		.sleb128 26
 4791 0ac7 16       		.uleb128 0x16
 4792 0ac8 F5040000 		.4byte	.LASF186
 4793 0acc 1B       		.sleb128 27
 4794 0acd 16       		.uleb128 0x16
 4795 0ace 5F0A0000 		.4byte	.LASF187
 4796 0ad2 1C       		.sleb128 28
 4797 0ad3 16       		.uleb128 0x16
 4798 0ad4 24040000 		.4byte	.LASF188
 4799 0ad8 1D       		.sleb128 29
 4800 0ad9 16       		.uleb128 0x16
 4801 0ada A4080000 		.4byte	.LASF189
 4802 0ade 1E       		.sleb128 30
 4803 0adf 16       		.uleb128 0x16
 4804 0ae0 88060000 		.4byte	.LASF190
 4805 0ae4 1F       		.sleb128 31
 4806 0ae5 16       		.uleb128 0x16
 4807 0ae6 30000000 		.4byte	.LASF191
 4808 0aea 20       		.sleb128 32
 4809 0aeb 16       		.uleb128 0x16
 4810 0aec 4A020000 		.4byte	.LASF192
 4811 0af0 21       		.sleb128 33
 4812 0af1 00       		.byte	0
 4813 0af2 18       		.uleb128 0x18
 4814 0af3 19050000 		.4byte	.LASF254
 4815 0af7 01       		.byte	0x1
 4816 0af8 D2       		.byte	0xd2
 4817 0af9 43010000 		.4byte	0x143
 4818 0afd 00000000 		.4byte	.LFB123
 4819 0b01 3C0D0000 		.4byte	.LFE123-.LFB123
 4820 0b05 01       		.uleb128 0x1
 4821 0b06 9C       		.byte	0x9c
 4822 0b07 5E120000 		.4byte	0x125e
 4823 0b0b 19       		.uleb128 0x19
 4824 0b0c 61726700 		.ascii	"arg\000"
 4825 0b10 01       		.byte	0x1
 4826 0b11 D2       		.byte	0xd2
 4827 0b12 C9020000 		.4byte	0x2c9
 4828 0b16 00000000 		.4byte	.LLST0
 4829 0b1a 1A       		.uleb128 0x1a
 4830 0b1b 19030000 		.4byte	.LASF193
 4831 0b1f 01       		.byte	0x1
 4832 0b20 D3       		.byte	0xd3
 4833 0b21 59010000 		.4byte	0x159
 4834 0b25 01       		.uleb128 0x1
ARM GAS  C:\Users\danit\AppData\Local\Temp\cc88b6Ga.s 			page 87


 4835 0b26 51       		.byte	0x51
 4836 0b27 1B       		.uleb128 0x1b
 4837 0b28 22000000 		.4byte	.LBB2
 4838 0b2c 1A0D0000 		.4byte	.LBE2-.LBB2
 4839 0b30 1C       		.uleb128 0x1c
 4840 0b31 13060000 		.4byte	.LASF194
 4841 0b35 01       		.byte	0x1
 4842 0b36 D9       		.byte	0xd9
 4843 0b37 D9000000 		.4byte	0xd9
 4844 0b3b 21000000 		.4byte	.LLST1
 4845 0b3f 1C       		.uleb128 0x1c
 4846 0b40 A9030000 		.4byte	.LASF195
 4847 0b44 01       		.byte	0x1
 4848 0b45 DA       		.byte	0xda
 4849 0b46 E4000000 		.4byte	0xe4
 4850 0b4a 5D040000 		.4byte	.LLST2
 4851 0b4e 1D       		.uleb128 0x1d
 4852 0b4f 00000000 		.4byte	.Ldebug_ranges0+0
 4853 0b53 38120000 		.4byte	0x1238
 4854 0b57 1E       		.uleb128 0x1e
 4855 0b58 C7040000 		.4byte	.LASF196
 4856 0b5c 01       		.byte	0x1
 4857 0b5d F5       		.byte	0xf5
 4858 0b5e 33000000 		.4byte	0x33
 4859 0b62 680B0000 		.4byte	0xb68
 4860 0b66 1F       		.uleb128 0x1f
 4861 0b67 00       		.byte	0
 4862 0b68 20       		.uleb128 0x20
 4863 0b69 6A030000 		.4byte	.LASF197
 4864 0b6d 01       		.byte	0x1
 4865 0b6e 9602     		.2byte	0x296
 4866 0b70 33000000 		.4byte	0x33
 4867 0b74 7A0B0000 		.4byte	0xb7a
 4868 0b78 1F       		.uleb128 0x1f
 4869 0b79 00       		.byte	0
 4870 0b7a 21       		.uleb128 0x21
 4871 0b7b F4000000 		.4byte	.LVL10
 4872 0b7f 83230000 		.4byte	0x2383
 4873 0b83 920B0000 		.4byte	0xb92
 4874 0b87 22       		.uleb128 0x22
 4875 0b88 01       		.uleb128 0x1
 4876 0b89 51       		.byte	0x51
 4877 0b8a 01       		.uleb128 0x1
 4878 0b8b 47       		.byte	0x47
 4879 0b8c 22       		.uleb128 0x22
 4880 0b8d 01       		.uleb128 0x1
 4881 0b8e 50       		.byte	0x50
 4882 0b8f 01       		.uleb128 0x1
 4883 0b90 30       		.byte	0x30
 4884 0b91 00       		.byte	0
 4885 0b92 23       		.uleb128 0x23
 4886 0b93 F8000000 		.4byte	.LVL11
 4887 0b97 99230000 		.4byte	0x2399
 4888 0b9b 21       		.uleb128 0x21
 4889 0b9c 04010000 		.4byte	.LVL12
 4890 0ba0 A4230000 		.4byte	0x23a4
 4891 0ba4 AF0B0000 		.4byte	0xbaf
ARM GAS  C:\Users\danit\AppData\Local\Temp\cc88b6Ga.s 			page 88


 4892 0ba8 22       		.uleb128 0x22
 4893 0ba9 01       		.uleb128 0x1
 4894 0baa 52       		.byte	0x52
 4895 0bab 02       		.uleb128 0x2
 4896 0bac 7A       		.byte	0x7a
 4897 0bad 00       		.sleb128 0
 4898 0bae 00       		.byte	0
 4899 0baf 21       		.uleb128 0x21
 4900 0bb0 1C010000 		.4byte	.LVL14
 4901 0bb4 BF230000 		.4byte	0x23bf
 4902 0bb8 C20B0000 		.4byte	0xbc2
 4903 0bbc 22       		.uleb128 0x22
 4904 0bbd 01       		.uleb128 0x1
 4905 0bbe 50       		.byte	0x50
 4906 0bbf 01       		.uleb128 0x1
 4907 0bc0 34       		.byte	0x34
 4908 0bc1 00       		.byte	0
 4909 0bc2 21       		.uleb128 0x21
 4910 0bc3 5C010000 		.4byte	.LVL18
 4911 0bc7 83230000 		.4byte	0x2383
 4912 0bcb DB0B0000 		.4byte	0xbdb
 4913 0bcf 22       		.uleb128 0x22
 4914 0bd0 01       		.uleb128 0x1
 4915 0bd1 51       		.byte	0x51
 4916 0bd2 02       		.uleb128 0x2
 4917 0bd3 08       		.byte	0x8
 4918 0bd4 79       		.byte	0x79
 4919 0bd5 22       		.uleb128 0x22
 4920 0bd6 01       		.uleb128 0x1
 4921 0bd7 50       		.byte	0x50
 4922 0bd8 01       		.uleb128 0x1
 4923 0bd9 30       		.byte	0x30
 4924 0bda 00       		.byte	0
 4925 0bdb 23       		.uleb128 0x23
 4926 0bdc 60010000 		.4byte	.LVL19
 4927 0be0 99230000 		.4byte	0x2399
 4928 0be4 21       		.uleb128 0x21
 4929 0be5 6C010000 		.4byte	.LVL20
 4930 0be9 A4230000 		.4byte	0x23a4
 4931 0bed F80B0000 		.4byte	0xbf8
 4932 0bf1 22       		.uleb128 0x22
 4933 0bf2 01       		.uleb128 0x1
 4934 0bf3 52       		.byte	0x52
 4935 0bf4 02       		.uleb128 0x2
 4936 0bf5 7A       		.byte	0x7a
 4937 0bf6 00       		.sleb128 0
 4938 0bf7 00       		.byte	0
 4939 0bf8 21       		.uleb128 0x21
 4940 0bf9 BE010000 		.4byte	.LVL25
 4941 0bfd 83230000 		.4byte	0x2383
 4942 0c01 100C0000 		.4byte	0xc10
 4943 0c05 22       		.uleb128 0x22
 4944 0c06 01       		.uleb128 0x1
 4945 0c07 51       		.byte	0x51
 4946 0c08 01       		.uleb128 0x1
 4947 0c09 30       		.byte	0x30
 4948 0c0a 22       		.uleb128 0x22
ARM GAS  C:\Users\danit\AppData\Local\Temp\cc88b6Ga.s 			page 89


 4949 0c0b 01       		.uleb128 0x1
 4950 0c0c 50       		.byte	0x50
 4951 0c0d 01       		.uleb128 0x1
 4952 0c0e 30       		.byte	0x30
 4953 0c0f 00       		.byte	0
 4954 0c10 23       		.uleb128 0x23
 4955 0c11 C2010000 		.4byte	.LVL26
 4956 0c15 99230000 		.4byte	0x2399
 4957 0c19 21       		.uleb128 0x21
 4958 0c1a 14020000 		.4byte	.LVL31
 4959 0c1e 83230000 		.4byte	0x2383
 4960 0c22 330C0000 		.4byte	0xc33
 4961 0c26 22       		.uleb128 0x22
 4962 0c27 01       		.uleb128 0x1
 4963 0c28 51       		.byte	0x51
 4964 0c29 03       		.uleb128 0x3
 4965 0c2a 0A       		.byte	0xa
 4966 0c2b 6145     		.2byte	0x4561
 4967 0c2d 22       		.uleb128 0x22
 4968 0c2e 01       		.uleb128 0x1
 4969 0c2f 50       		.byte	0x50
 4970 0c30 01       		.uleb128 0x1
 4971 0c31 30       		.byte	0x30
 4972 0c32 00       		.byte	0
 4973 0c33 23       		.uleb128 0x23
 4974 0c34 18020000 		.4byte	.LVL32
 4975 0c38 99230000 		.4byte	0x2399
 4976 0c3c 21       		.uleb128 0x21
 4977 0c3d 2C020000 		.4byte	.LVL34
 4978 0c41 D4230000 		.4byte	0x23d4
 4979 0c45 4F0C0000 		.4byte	0xc4f
 4980 0c49 22       		.uleb128 0x22
 4981 0c4a 01       		.uleb128 0x1
 4982 0c4b 50       		.byte	0x50
 4983 0c4c 01       		.uleb128 0x1
 4984 0c4d 35       		.byte	0x35
 4985 0c4e 00       		.byte	0
 4986 0c4f 21       		.uleb128 0x21
 4987 0c50 52020000 		.4byte	.LVL36
 4988 0c54 83230000 		.4byte	0x2383
 4989 0c58 680C0000 		.4byte	0xc68
 4990 0c5c 22       		.uleb128 0x22
 4991 0c5d 01       		.uleb128 0x1
 4992 0c5e 51       		.byte	0x51
 4993 0c5f 02       		.uleb128 0x2
 4994 0c60 08       		.byte	0x8
 4995 0c61 6E       		.byte	0x6e
 4996 0c62 22       		.uleb128 0x22
 4997 0c63 01       		.uleb128 0x1
 4998 0c64 50       		.byte	0x50
 4999 0c65 01       		.uleb128 0x1
 5000 0c66 30       		.byte	0x30
 5001 0c67 00       		.byte	0
 5002 0c68 23       		.uleb128 0x23
 5003 0c69 56020000 		.4byte	.LVL37
 5004 0c6d 99230000 		.4byte	0x2399
 5005 0c71 21       		.uleb128 0x21
ARM GAS  C:\Users\danit\AppData\Local\Temp\cc88b6Ga.s 			page 90


 5006 0c72 6A020000 		.4byte	.LVL39
 5007 0c76 D4230000 		.4byte	0x23d4
 5008 0c7a 840C0000 		.4byte	0xc84
 5009 0c7e 22       		.uleb128 0x22
 5010 0c7f 01       		.uleb128 0x1
 5011 0c80 50       		.byte	0x50
 5012 0c81 01       		.uleb128 0x1
 5013 0c82 33       		.byte	0x33
 5014 0c83 00       		.byte	0
 5015 0c84 21       		.uleb128 0x21
 5016 0c85 94020000 		.4byte	.LVL41
 5017 0c89 83230000 		.4byte	0x2383
 5018 0c8d 9D0C0000 		.4byte	0xc9d
 5019 0c91 22       		.uleb128 0x22
 5020 0c92 01       		.uleb128 0x1
 5021 0c93 51       		.byte	0x51
 5022 0c94 02       		.uleb128 0x2
 5023 0c95 08       		.byte	0x8
 5024 0c96 39       		.byte	0x39
 5025 0c97 22       		.uleb128 0x22
 5026 0c98 01       		.uleb128 0x1
 5027 0c99 50       		.byte	0x50
 5028 0c9a 01       		.uleb128 0x1
 5029 0c9b 30       		.byte	0x30
 5030 0c9c 00       		.byte	0
 5031 0c9d 23       		.uleb128 0x23
 5032 0c9e 98020000 		.4byte	.LVL42
 5033 0ca2 99230000 		.4byte	0x2399
 5034 0ca6 21       		.uleb128 0x21
 5035 0ca7 A4020000 		.4byte	.LVL43
 5036 0cab A4230000 		.4byte	0x23a4
 5037 0caf BA0C0000 		.4byte	0xcba
 5038 0cb3 22       		.uleb128 0x22
 5039 0cb4 01       		.uleb128 0x1
 5040 0cb5 52       		.byte	0x52
 5041 0cb6 02       		.uleb128 0x2
 5042 0cb7 7A       		.byte	0x7a
 5043 0cb8 00       		.sleb128 0
 5044 0cb9 00       		.byte	0
 5045 0cba 21       		.uleb128 0x21
 5046 0cbb FC020000 		.4byte	.LVL46
 5047 0cbf D4230000 		.4byte	0x23d4
 5048 0cc3 CD0C0000 		.4byte	0xccd
 5049 0cc7 22       		.uleb128 0x22
 5050 0cc8 01       		.uleb128 0x1
 5051 0cc9 50       		.byte	0x50
 5052 0cca 01       		.uleb128 0x1
 5053 0ccb 32       		.byte	0x32
 5054 0ccc 00       		.byte	0
 5055 0ccd 21       		.uleb128 0x21
 5056 0cce 24030000 		.4byte	.LVL48
 5057 0cd2 83230000 		.4byte	0x2383
 5058 0cd6 E60C0000 		.4byte	0xce6
 5059 0cda 22       		.uleb128 0x22
 5060 0cdb 01       		.uleb128 0x1
 5061 0cdc 51       		.byte	0x51
 5062 0cdd 02       		.uleb128 0x2
ARM GAS  C:\Users\danit\AppData\Local\Temp\cc88b6Ga.s 			page 91


 5063 0cde 08       		.byte	0x8
 5064 0cdf 44       		.byte	0x44
 5065 0ce0 22       		.uleb128 0x22
 5066 0ce1 01       		.uleb128 0x1
 5067 0ce2 50       		.byte	0x50
 5068 0ce3 01       		.uleb128 0x1
 5069 0ce4 30       		.byte	0x30
 5070 0ce5 00       		.byte	0
 5071 0ce6 23       		.uleb128 0x23
 5072 0ce7 28030000 		.4byte	.LVL49
 5073 0ceb 99230000 		.4byte	0x2399
 5074 0cef 21       		.uleb128 0x21
 5075 0cf0 70030000 		.4byte	.LVL54
 5076 0cf4 83230000 		.4byte	0x2383
 5077 0cf8 090D0000 		.4byte	0xd09
 5078 0cfc 22       		.uleb128 0x22
 5079 0cfd 01       		.uleb128 0x1
 5080 0cfe 51       		.byte	0x51
 5081 0cff 03       		.uleb128 0x3
 5082 0d00 0A       		.byte	0xa
 5083 0d01 9944     		.2byte	0x4499
 5084 0d03 22       		.uleb128 0x22
 5085 0d04 01       		.uleb128 0x1
 5086 0d05 50       		.byte	0x50
 5087 0d06 01       		.uleb128 0x1
 5088 0d07 30       		.byte	0x30
 5089 0d08 00       		.byte	0
 5090 0d09 23       		.uleb128 0x23
 5091 0d0a 74030000 		.4byte	.LVL55
 5092 0d0e 99230000 		.4byte	0x2399
 5093 0d12 21       		.uleb128 0x21
 5094 0d13 86030000 		.4byte	.LVL57
 5095 0d17 E9230000 		.4byte	0x23e9
 5096 0d1b 250D0000 		.4byte	0xd25
 5097 0d1f 22       		.uleb128 0x22
 5098 0d20 01       		.uleb128 0x1
 5099 0d21 50       		.byte	0x50
 5100 0d22 01       		.uleb128 0x1
 5101 0d23 30       		.byte	0x30
 5102 0d24 00       		.byte	0
 5103 0d25 21       		.uleb128 0x21
 5104 0d26 C0030000 		.4byte	.LVL61
 5105 0d2a 83230000 		.4byte	0x2383
 5106 0d2e 3F0D0000 		.4byte	0xd3f
 5107 0d32 22       		.uleb128 0x22
 5108 0d33 01       		.uleb128 0x1
 5109 0d34 51       		.byte	0x51
 5110 0d35 03       		.uleb128 0x3
 5111 0d36 0A       		.byte	0xa
 5112 0d37 9944     		.2byte	0x4499
 5113 0d39 22       		.uleb128 0x22
 5114 0d3a 01       		.uleb128 0x1
 5115 0d3b 50       		.byte	0x50
 5116 0d3c 01       		.uleb128 0x1
 5117 0d3d 30       		.byte	0x30
 5118 0d3e 00       		.byte	0
 5119 0d3f 23       		.uleb128 0x23
ARM GAS  C:\Users\danit\AppData\Local\Temp\cc88b6Ga.s 			page 92


 5120 0d40 C4030000 		.4byte	.LVL62
 5121 0d44 99230000 		.4byte	0x2399
 5122 0d48 23       		.uleb128 0x23
 5123 0d49 D6030000 		.4byte	.LVL64
 5124 0d4d FE230000 		.4byte	0x23fe
 5125 0d51 21       		.uleb128 0x21
 5126 0d52 0C040000 		.4byte	.LVL67
 5127 0d56 83230000 		.4byte	0x2383
 5128 0d5a 6B0D0000 		.4byte	0xd6b
 5129 0d5e 22       		.uleb128 0x22
 5130 0d5f 01       		.uleb128 0x1
 5131 0d60 51       		.byte	0x51
 5132 0d61 03       		.uleb128 0x3
 5133 0d62 0A       		.byte	0xa
 5134 0d63 8C44     		.2byte	0x448c
 5135 0d65 22       		.uleb128 0x22
 5136 0d66 01       		.uleb128 0x1
 5137 0d67 50       		.byte	0x50
 5138 0d68 01       		.uleb128 0x1
 5139 0d69 30       		.byte	0x30
 5140 0d6a 00       		.byte	0
 5141 0d6b 23       		.uleb128 0x23
 5142 0d6c 10040000 		.4byte	.LVL68
 5143 0d70 99230000 		.4byte	0x2399
 5144 0d74 21       		.uleb128 0x21
 5145 0d75 24040000 		.4byte	.LVL70
 5146 0d79 09240000 		.4byte	0x2409
 5147 0d7d 870D0000 		.4byte	0xd87
 5148 0d81 22       		.uleb128 0x22
 5149 0d82 01       		.uleb128 0x1
 5150 0d83 50       		.byte	0x50
 5151 0d84 01       		.uleb128 0x1
 5152 0d85 32       		.byte	0x32
 5153 0d86 00       		.byte	0
 5154 0d87 21       		.uleb128 0x21
 5155 0d88 62040000 		.4byte	.LVL75
 5156 0d8c 83230000 		.4byte	0x2383
 5157 0d90 A10D0000 		.4byte	0xda1
 5158 0d94 22       		.uleb128 0x22
 5159 0d95 01       		.uleb128 0x1
 5160 0d96 51       		.byte	0x51
 5161 0d97 03       		.uleb128 0x3
 5162 0d98 0A       		.byte	0xa
 5163 0d99 3719     		.2byte	0x1937
 5164 0d9b 22       		.uleb128 0x22
 5165 0d9c 01       		.uleb128 0x1
 5166 0d9d 50       		.byte	0x50
 5167 0d9e 01       		.uleb128 0x1
 5168 0d9f 30       		.byte	0x30
 5169 0da0 00       		.byte	0
 5170 0da1 23       		.uleb128 0x23
 5171 0da2 66040000 		.4byte	.LVL76
 5172 0da6 99230000 		.4byte	0x2399
 5173 0daa 23       		.uleb128 0x23
 5174 0dab 76040000 		.4byte	.LVL78
 5175 0daf FE230000 		.4byte	0x23fe
 5176 0db3 21       		.uleb128 0x21
ARM GAS  C:\Users\danit\AppData\Local\Temp\cc88b6Ga.s 			page 93


 5177 0db4 AE040000 		.4byte	.LVL80
 5178 0db8 83230000 		.4byte	0x2383
 5179 0dbc CD0D0000 		.4byte	0xdcd
 5180 0dc0 22       		.uleb128 0x22
 5181 0dc1 01       		.uleb128 0x1
 5182 0dc2 51       		.byte	0x51
 5183 0dc3 03       		.uleb128 0x3
 5184 0dc4 0A       		.byte	0xa
 5185 0dc5 8C44     		.2byte	0x448c
 5186 0dc7 22       		.uleb128 0x22
 5187 0dc8 01       		.uleb128 0x1
 5188 0dc9 50       		.byte	0x50
 5189 0dca 01       		.uleb128 0x1
 5190 0dcb 30       		.byte	0x30
 5191 0dcc 00       		.byte	0
 5192 0dcd 23       		.uleb128 0x23
 5193 0dce B2040000 		.4byte	.LVL81
 5194 0dd2 99230000 		.4byte	0x2399
 5195 0dd6 21       		.uleb128 0x21
 5196 0dd7 C4040000 		.4byte	.LVL83
 5197 0ddb E9230000 		.4byte	0x23e9
 5198 0ddf E90D0000 		.4byte	0xde9
 5199 0de3 22       		.uleb128 0x22
 5200 0de4 01       		.uleb128 0x1
 5201 0de5 50       		.byte	0x50
 5202 0de6 01       		.uleb128 0x1
 5203 0de7 31       		.byte	0x31
 5204 0de8 00       		.byte	0
 5205 0de9 21       		.uleb128 0x21
 5206 0dea FA040000 		.4byte	.LVL87
 5207 0dee 83230000 		.4byte	0x2383
 5208 0df2 030E0000 		.4byte	0xe03
 5209 0df6 22       		.uleb128 0x22
 5210 0df7 01       		.uleb128 0x1
 5211 0df8 51       		.byte	0x51
 5212 0df9 03       		.uleb128 0x3
 5213 0dfa 0A       		.byte	0xa
 5214 0dfb 9944     		.2byte	0x4499
 5215 0dfd 22       		.uleb128 0x22
 5216 0dfe 01       		.uleb128 0x1
 5217 0dff 50       		.byte	0x50
 5218 0e00 01       		.uleb128 0x1
 5219 0e01 30       		.byte	0x30
 5220 0e02 00       		.byte	0
 5221 0e03 23       		.uleb128 0x23
 5222 0e04 FE040000 		.4byte	.LVL88
 5223 0e08 99230000 		.4byte	0x2399
 5224 0e0c 23       		.uleb128 0x23
 5225 0e0d 0E050000 		.4byte	.LVL90
 5226 0e11 FE230000 		.4byte	0x23fe
 5227 0e15 21       		.uleb128 0x21
 5228 0e16 54050000 		.4byte	.LVL94
 5229 0e1a 83230000 		.4byte	0x2383
 5230 0e1e 2F0E0000 		.4byte	0xe2f
 5231 0e22 22       		.uleb128 0x22
 5232 0e23 01       		.uleb128 0x1
 5233 0e24 51       		.byte	0x51
ARM GAS  C:\Users\danit\AppData\Local\Temp\cc88b6Ga.s 			page 94


 5234 0e25 03       		.uleb128 0x3
 5235 0e26 0A       		.byte	0xa
 5236 0e27 8C44     		.2byte	0x448c
 5237 0e29 22       		.uleb128 0x22
 5238 0e2a 01       		.uleb128 0x1
 5239 0e2b 50       		.byte	0x50
 5240 0e2c 01       		.uleb128 0x1
 5241 0e2d 30       		.byte	0x30
 5242 0e2e 00       		.byte	0
 5243 0e2f 23       		.uleb128 0x23
 5244 0e30 58050000 		.4byte	.LVL95
 5245 0e34 99230000 		.4byte	0x2399
 5246 0e38 23       		.uleb128 0x23
 5247 0e39 6A050000 		.4byte	.LVL97
 5248 0e3d 1B240000 		.4byte	0x241b
 5249 0e41 21       		.uleb128 0x21
 5250 0e42 94050000 		.4byte	.LVL99
 5251 0e46 83230000 		.4byte	0x2383
 5252 0e4a 5B0E0000 		.4byte	0xe5b
 5253 0e4e 22       		.uleb128 0x22
 5254 0e4f 01       		.uleb128 0x1
 5255 0e50 51       		.byte	0x51
 5256 0e51 03       		.uleb128 0x3
 5257 0e52 0A       		.byte	0xa
 5258 0e53 4E45     		.2byte	0x454e
 5259 0e55 22       		.uleb128 0x22
 5260 0e56 01       		.uleb128 0x1
 5261 0e57 50       		.byte	0x50
 5262 0e58 01       		.uleb128 0x1
 5263 0e59 30       		.byte	0x30
 5264 0e5a 00       		.byte	0
 5265 0e5b 23       		.uleb128 0x23
 5266 0e5c 98050000 		.4byte	.LVL100
 5267 0e60 99230000 		.4byte	0x2399
 5268 0e64 21       		.uleb128 0x21
 5269 0e65 AC050000 		.4byte	.LVL102
 5270 0e69 E9230000 		.4byte	0x23e9
 5271 0e6d 770E0000 		.4byte	0xe77
 5272 0e71 22       		.uleb128 0x22
 5273 0e72 01       		.uleb128 0x1
 5274 0e73 50       		.byte	0x50
 5275 0e74 01       		.uleb128 0x1
 5276 0e75 31       		.byte	0x31
 5277 0e76 00       		.byte	0
 5278 0e77 21       		.uleb128 0x21
 5279 0e78 F8050000 		.4byte	.LVL106
 5280 0e7c 83230000 		.4byte	0x2383
 5281 0e80 910E0000 		.4byte	0xe91
 5282 0e84 22       		.uleb128 0x22
 5283 0e85 01       		.uleb128 0x1
 5284 0e86 51       		.byte	0x51
 5285 0e87 03       		.uleb128 0x3
 5286 0e88 0A       		.byte	0xa
 5287 0e89 9944     		.2byte	0x4499
 5288 0e8b 22       		.uleb128 0x22
 5289 0e8c 01       		.uleb128 0x1
 5290 0e8d 50       		.byte	0x50
ARM GAS  C:\Users\danit\AppData\Local\Temp\cc88b6Ga.s 			page 95


 5291 0e8e 01       		.uleb128 0x1
 5292 0e8f 30       		.byte	0x30
 5293 0e90 00       		.byte	0
 5294 0e91 23       		.uleb128 0x23
 5295 0e92 FC050000 		.4byte	.LVL107
 5296 0e96 99230000 		.4byte	0x2399
 5297 0e9a 21       		.uleb128 0x21
 5298 0e9b 0E060000 		.4byte	.LVL109
 5299 0e9f E9230000 		.4byte	0x23e9
 5300 0ea3 AD0E0000 		.4byte	0xead
 5301 0ea7 22       		.uleb128 0x22
 5302 0ea8 01       		.uleb128 0x1
 5303 0ea9 50       		.byte	0x50
 5304 0eaa 01       		.uleb128 0x1
 5305 0eab 30       		.byte	0x30
 5306 0eac 00       		.byte	0
 5307 0ead 21       		.uleb128 0x21
 5308 0eae 5E060000 		.4byte	.LVL114
 5309 0eb2 83230000 		.4byte	0x2383
 5310 0eb6 C70E0000 		.4byte	0xec7
 5311 0eba 22       		.uleb128 0x22
 5312 0ebb 01       		.uleb128 0x1
 5313 0ebc 51       		.byte	0x51
 5314 0ebd 03       		.uleb128 0x3
 5315 0ebe 0A       		.byte	0xa
 5316 0ebf 9944     		.2byte	0x4499
 5317 0ec1 22       		.uleb128 0x22
 5318 0ec2 01       		.uleb128 0x1
 5319 0ec3 50       		.byte	0x50
 5320 0ec4 01       		.uleb128 0x1
 5321 0ec5 30       		.byte	0x30
 5322 0ec6 00       		.byte	0
 5323 0ec7 23       		.uleb128 0x23
 5324 0ec8 62060000 		.4byte	.LVL115
 5325 0ecc 99230000 		.4byte	0x2399
 5326 0ed0 21       		.uleb128 0x21
 5327 0ed1 90060000 		.4byte	.LVL117
 5328 0ed5 E9230000 		.4byte	0x23e9
 5329 0ed9 E30E0000 		.4byte	0xee3
 5330 0edd 22       		.uleb128 0x22
 5331 0ede 01       		.uleb128 0x1
 5332 0edf 50       		.byte	0x50
 5333 0ee0 01       		.uleb128 0x1
 5334 0ee1 30       		.byte	0x30
 5335 0ee2 00       		.byte	0
 5336 0ee3 21       		.uleb128 0x21
 5337 0ee4 E2060000 		.4byte	.LVL122
 5338 0ee8 83230000 		.4byte	0x2383
 5339 0eec FD0E0000 		.4byte	0xefd
 5340 0ef0 22       		.uleb128 0x22
 5341 0ef1 01       		.uleb128 0x1
 5342 0ef2 51       		.byte	0x51
 5343 0ef3 03       		.uleb128 0x3
 5344 0ef4 0A       		.byte	0xa
 5345 0ef5 9944     		.2byte	0x4499
 5346 0ef7 22       		.uleb128 0x22
 5347 0ef8 01       		.uleb128 0x1
ARM GAS  C:\Users\danit\AppData\Local\Temp\cc88b6Ga.s 			page 96


 5348 0ef9 50       		.byte	0x50
 5349 0efa 01       		.uleb128 0x1
 5350 0efb 30       		.byte	0x30
 5351 0efc 00       		.byte	0
 5352 0efd 23       		.uleb128 0x23
 5353 0efe E6060000 		.4byte	.LVL123
 5354 0f02 99230000 		.4byte	0x2399
 5355 0f06 21       		.uleb128 0x21
 5356 0f07 30070000 		.4byte	.LVL129
 5357 0f0b 83230000 		.4byte	0x2383
 5358 0f0f 200F0000 		.4byte	0xf20
 5359 0f13 22       		.uleb128 0x22
 5360 0f14 01       		.uleb128 0x1
 5361 0f15 51       		.byte	0x51
 5362 0f16 03       		.uleb128 0x3
 5363 0f17 0A       		.byte	0xa
 5364 0f18 9944     		.2byte	0x4499
 5365 0f1a 22       		.uleb128 0x22
 5366 0f1b 01       		.uleb128 0x1
 5367 0f1c 50       		.byte	0x50
 5368 0f1d 01       		.uleb128 0x1
 5369 0f1e 30       		.byte	0x30
 5370 0f1f 00       		.byte	0
 5371 0f20 23       		.uleb128 0x23
 5372 0f21 34070000 		.4byte	.LVL130
 5373 0f25 99230000 		.4byte	0x2399
 5374 0f29 21       		.uleb128 0x21
 5375 0f2a 46070000 		.4byte	.LVL132
 5376 0f2e E9230000 		.4byte	0x23e9
 5377 0f32 3C0F0000 		.4byte	0xf3c
 5378 0f36 22       		.uleb128 0x22
 5379 0f37 01       		.uleb128 0x1
 5380 0f38 50       		.byte	0x50
 5381 0f39 01       		.uleb128 0x1
 5382 0f3a 30       		.byte	0x30
 5383 0f3b 00       		.byte	0
 5384 0f3c 21       		.uleb128 0x21
 5385 0f3d 80070000 		.4byte	.LVL135
 5386 0f41 83230000 		.4byte	0x2383
 5387 0f45 560F0000 		.4byte	0xf56
 5388 0f49 22       		.uleb128 0x22
 5389 0f4a 01       		.uleb128 0x1
 5390 0f4b 51       		.byte	0x51
 5391 0f4c 03       		.uleb128 0x3
 5392 0f4d 0A       		.byte	0xa
 5393 0f4e 9944     		.2byte	0x4499
 5394 0f50 22       		.uleb128 0x22
 5395 0f51 01       		.uleb128 0x1
 5396 0f52 50       		.byte	0x50
 5397 0f53 01       		.uleb128 0x1
 5398 0f54 30       		.byte	0x30
 5399 0f55 00       		.byte	0
 5400 0f56 23       		.uleb128 0x23
 5401 0f57 84070000 		.4byte	.LVL136
 5402 0f5b 99230000 		.4byte	0x2399
 5403 0f5f 21       		.uleb128 0x21
 5404 0f60 96070000 		.4byte	.LVL138
ARM GAS  C:\Users\danit\AppData\Local\Temp\cc88b6Ga.s 			page 97


 5405 0f64 E9230000 		.4byte	0x23e9
 5406 0f68 720F0000 		.4byte	0xf72
 5407 0f6c 22       		.uleb128 0x22
 5408 0f6d 01       		.uleb128 0x1
 5409 0f6e 50       		.byte	0x50
 5410 0f6f 01       		.uleb128 0x1
 5411 0f70 31       		.byte	0x31
 5412 0f71 00       		.byte	0
 5413 0f72 21       		.uleb128 0x21
 5414 0f73 CE070000 		.4byte	.LVL140
 5415 0f77 83230000 		.4byte	0x2383
 5416 0f7b 8C0F0000 		.4byte	0xf8c
 5417 0f7f 22       		.uleb128 0x22
 5418 0f80 01       		.uleb128 0x1
 5419 0f81 51       		.byte	0x51
 5420 0f82 03       		.uleb128 0x3
 5421 0f83 0A       		.byte	0xa
 5422 0f84 9944     		.2byte	0x4499
 5423 0f86 22       		.uleb128 0x22
 5424 0f87 01       		.uleb128 0x1
 5425 0f88 50       		.byte	0x50
 5426 0f89 01       		.uleb128 0x1
 5427 0f8a 30       		.byte	0x30
 5428 0f8b 00       		.byte	0
 5429 0f8c 23       		.uleb128 0x23
 5430 0f8d D2070000 		.4byte	.LVL141
 5431 0f91 99230000 		.4byte	0x2399
 5432 0f95 21       		.uleb128 0x21
 5433 0f96 E6070000 		.4byte	.LVL143
 5434 0f9a E9230000 		.4byte	0x23e9
 5435 0f9e A80F0000 		.4byte	0xfa8
 5436 0fa2 22       		.uleb128 0x22
 5437 0fa3 01       		.uleb128 0x1
 5438 0fa4 50       		.byte	0x50
 5439 0fa5 01       		.uleb128 0x1
 5440 0fa6 31       		.byte	0x31
 5441 0fa7 00       		.byte	0
 5442 0fa8 21       		.uleb128 0x21
 5443 0fa9 34080000 		.4byte	.LVL147
 5444 0fad 83230000 		.4byte	0x2383
 5445 0fb1 C20F0000 		.4byte	0xfc2
 5446 0fb5 22       		.uleb128 0x22
 5447 0fb6 01       		.uleb128 0x1
 5448 0fb7 51       		.byte	0x51
 5449 0fb8 03       		.uleb128 0x3
 5450 0fb9 0A       		.byte	0xa
 5451 0fba 9944     		.2byte	0x4499
 5452 0fbc 22       		.uleb128 0x22
 5453 0fbd 01       		.uleb128 0x1
 5454 0fbe 50       		.byte	0x50
 5455 0fbf 01       		.uleb128 0x1
 5456 0fc0 30       		.byte	0x30
 5457 0fc1 00       		.byte	0
 5458 0fc2 23       		.uleb128 0x23
 5459 0fc3 38080000 		.4byte	.LVL148
 5460 0fc7 99230000 		.4byte	0x2399
 5461 0fcb 23       		.uleb128 0x23
ARM GAS  C:\Users\danit\AppData\Local\Temp\cc88b6Ga.s 			page 98


 5462 0fcc 48080000 		.4byte	.LVL150
 5463 0fd0 26240000 		.4byte	0x2426
 5464 0fd4 21       		.uleb128 0x21
 5465 0fd5 8C080000 		.4byte	.LVL154
 5466 0fd9 83230000 		.4byte	0x2383
 5467 0fdd EE0F0000 		.4byte	0xfee
 5468 0fe1 22       		.uleb128 0x22
 5469 0fe2 01       		.uleb128 0x1
 5470 0fe3 51       		.byte	0x51
 5471 0fe4 03       		.uleb128 0x3
 5472 0fe5 0A       		.byte	0xa
 5473 0fe6 8C44     		.2byte	0x448c
 5474 0fe8 22       		.uleb128 0x22
 5475 0fe9 01       		.uleb128 0x1
 5476 0fea 50       		.byte	0x50
 5477 0feb 01       		.uleb128 0x1
 5478 0fec 30       		.byte	0x30
 5479 0fed 00       		.byte	0
 5480 0fee 23       		.uleb128 0x23
 5481 0fef 90080000 		.4byte	.LVL155
 5482 0ff3 99230000 		.4byte	0x2399
 5483 0ff7 23       		.uleb128 0x23
 5484 0ff8 A4080000 		.4byte	.LVL157
 5485 0ffc 26240000 		.4byte	0x2426
 5486 1000 21       		.uleb128 0x21
 5487 1001 F0080000 		.4byte	.LVL162
 5488 1005 83230000 		.4byte	0x2383
 5489 1009 1A100000 		.4byte	0x101a
 5490 100d 22       		.uleb128 0x22
 5491 100e 01       		.uleb128 0x1
 5492 100f 51       		.byte	0x51
 5493 1010 03       		.uleb128 0x3
 5494 1011 0A       		.byte	0xa
 5495 1012 8C44     		.2byte	0x448c
 5496 1014 22       		.uleb128 0x22
 5497 1015 01       		.uleb128 0x1
 5498 1016 50       		.byte	0x50
 5499 1017 01       		.uleb128 0x1
 5500 1018 30       		.byte	0x30
 5501 1019 00       		.byte	0
 5502 101a 23       		.uleb128 0x23
 5503 101b F4080000 		.4byte	.LVL163
 5504 101f 99230000 		.4byte	0x2399
 5505 1023 23       		.uleb128 0x23
 5506 1024 06090000 		.4byte	.LVL165
 5507 1028 26240000 		.4byte	0x2426
 5508 102c 21       		.uleb128 0x21
 5509 102d 3A090000 		.4byte	.LVL169
 5510 1031 83230000 		.4byte	0x2383
 5511 1035 46100000 		.4byte	0x1046
 5512 1039 22       		.uleb128 0x22
 5513 103a 01       		.uleb128 0x1
 5514 103b 51       		.byte	0x51
 5515 103c 03       		.uleb128 0x3
 5516 103d 0A       		.byte	0xa
 5517 103e 8C44     		.2byte	0x448c
 5518 1040 22       		.uleb128 0x22
ARM GAS  C:\Users\danit\AppData\Local\Temp\cc88b6Ga.s 			page 99


 5519 1041 01       		.uleb128 0x1
 5520 1042 50       		.byte	0x50
 5521 1043 01       		.uleb128 0x1
 5522 1044 30       		.byte	0x30
 5523 1045 00       		.byte	0
 5524 1046 23       		.uleb128 0x23
 5525 1047 3E090000 		.4byte	.LVL170
 5526 104b 99230000 		.4byte	0x2399
 5527 104f 23       		.uleb128 0x23
 5528 1050 4E090000 		.4byte	.LVL172
 5529 1054 31240000 		.4byte	0x2431
 5530 1058 21       		.uleb128 0x21
 5531 1059 76090000 		.4byte	.LVL174
 5532 105d 42240000 		.4byte	0x2442
 5533 1061 6B100000 		.4byte	0x106b
 5534 1065 22       		.uleb128 0x22
 5535 1066 01       		.uleb128 0x1
 5536 1067 50       		.byte	0x50
 5537 1068 01       		.uleb128 0x1
 5538 1069 31       		.byte	0x31
 5539 106a 00       		.byte	0
 5540 106b 23       		.uleb128 0x23
 5541 106c 7A090000 		.4byte	.LVL175
 5542 1070 99230000 		.4byte	0x2399
 5543 1074 21       		.uleb128 0x21
 5544 1075 80090000 		.4byte	.LVL176
 5545 1079 53240000 		.4byte	0x2453
 5546 107d 87100000 		.4byte	0x1087
 5547 1081 22       		.uleb128 0x22
 5548 1082 01       		.uleb128 0x1
 5549 1083 50       		.byte	0x50
 5550 1084 01       		.uleb128 0x1
 5551 1085 4F       		.byte	0x4f
 5552 1086 00       		.byte	0
 5553 1087 23       		.uleb128 0x23
 5554 1088 84090000 		.4byte	.LVL177
 5555 108c 99230000 		.4byte	0x2399
 5556 1090 21       		.uleb128 0x21
 5557 1091 8C090000 		.4byte	.LVL178
 5558 1095 83230000 		.4byte	0x2383
 5559 1099 A9100000 		.4byte	0x10a9
 5560 109d 22       		.uleb128 0x22
 5561 109e 01       		.uleb128 0x1
 5562 109f 51       		.byte	0x51
 5563 10a0 02       		.uleb128 0x2
 5564 10a1 08       		.byte	0x8
 5565 10a2 8A       		.byte	0x8a
 5566 10a3 22       		.uleb128 0x22
 5567 10a4 01       		.uleb128 0x1
 5568 10a5 50       		.byte	0x50
 5569 10a6 01       		.uleb128 0x1
 5570 10a7 30       		.byte	0x30
 5571 10a8 00       		.byte	0
 5572 10a9 23       		.uleb128 0x23
 5573 10aa 90090000 		.4byte	.LVL179
 5574 10ae 99230000 		.4byte	0x2399
 5575 10b2 23       		.uleb128 0x23
ARM GAS  C:\Users\danit\AppData\Local\Temp\cc88b6Ga.s 			page 100


 5576 10b3 9E090000 		.4byte	.LVL181
 5577 10b7 31240000 		.4byte	0x2431
 5578 10bb 21       		.uleb128 0x21
 5579 10bc D6090000 		.4byte	.LVL183
 5580 10c0 83230000 		.4byte	0x2383
 5581 10c4 D5100000 		.4byte	0x10d5
 5582 10c8 22       		.uleb128 0x22
 5583 10c9 01       		.uleb128 0x1
 5584 10ca 51       		.byte	0x51
 5585 10cb 03       		.uleb128 0x3
 5586 10cc 0A       		.byte	0xa
 5587 10cd B344     		.2byte	0x44b3
 5588 10cf 22       		.uleb128 0x22
 5589 10d0 01       		.uleb128 0x1
 5590 10d1 50       		.byte	0x50
 5591 10d2 01       		.uleb128 0x1
 5592 10d3 30       		.byte	0x30
 5593 10d4 00       		.byte	0
 5594 10d5 23       		.uleb128 0x23
 5595 10d6 DA090000 		.4byte	.LVL184
 5596 10da 99230000 		.4byte	0x2399
 5597 10de 21       		.uleb128 0x21
 5598 10df E4090000 		.4byte	.LVL185
 5599 10e3 A4230000 		.4byte	0x23a4
 5600 10e7 FE100000 		.4byte	0x10fe
 5601 10eb 22       		.uleb128 0x22
 5602 10ec 01       		.uleb128 0x1
 5603 10ed 52       		.byte	0x52
 5604 10ee 02       		.uleb128 0x2
 5605 10ef 7A       		.byte	0x7a
 5606 10f0 00       		.sleb128 0
 5607 10f1 22       		.uleb128 0x22
 5608 10f2 01       		.uleb128 0x1
 5609 10f3 51       		.byte	0x51
 5610 10f4 02       		.uleb128 0x2
 5611 10f5 08       		.byte	0x8
 5612 10f6 A7       		.byte	0xa7
 5613 10f7 22       		.uleb128 0x22
 5614 10f8 01       		.uleb128 0x1
 5615 10f9 50       		.byte	0x50
 5616 10fa 02       		.uleb128 0x2
 5617 10fb 08       		.byte	0x8
 5618 10fc BA       		.byte	0xba
 5619 10fd 00       		.byte	0
 5620 10fe 23       		.uleb128 0x23
 5621 10ff 240A0000 		.4byte	.LVL187
 5622 1103 31240000 		.4byte	0x2431
 5623 1107 21       		.uleb128 0x21
 5624 1108 6C0A0000 		.4byte	.LVL191
 5625 110c 83230000 		.4byte	0x2383
 5626 1110 21110000 		.4byte	0x1121
 5627 1114 22       		.uleb128 0x22
 5628 1115 01       		.uleb128 0x1
 5629 1116 51       		.byte	0x51
 5630 1117 03       		.uleb128 0x3
 5631 1118 0A       		.byte	0xa
 5632 1119 B344     		.2byte	0x44b3
ARM GAS  C:\Users\danit\AppData\Local\Temp\cc88b6Ga.s 			page 101


 5633 111b 22       		.uleb128 0x22
 5634 111c 01       		.uleb128 0x1
 5635 111d 50       		.byte	0x50
 5636 111e 01       		.uleb128 0x1
 5637 111f 30       		.byte	0x30
 5638 1120 00       		.byte	0
 5639 1121 23       		.uleb128 0x23
 5640 1122 700A0000 		.4byte	.LVL192
 5641 1126 99230000 		.4byte	0x2399
 5642 112a 21       		.uleb128 0x21
 5643 112b 7A0A0000 		.4byte	.LVL193
 5644 112f A4230000 		.4byte	0x23a4
 5645 1133 3E110000 		.4byte	0x113e
 5646 1137 22       		.uleb128 0x22
 5647 1138 01       		.uleb128 0x1
 5648 1139 52       		.byte	0x52
 5649 113a 02       		.uleb128 0x2
 5650 113b 7A       		.byte	0x7a
 5651 113c 00       		.sleb128 0
 5652 113d 00       		.byte	0
 5653 113e 21       		.uleb128 0x21
 5654 113f C40A0000 		.4byte	.LVL196
 5655 1143 83230000 		.4byte	0x2383
 5656 1147 58110000 		.4byte	0x1158
 5657 114b 22       		.uleb128 0x22
 5658 114c 01       		.uleb128 0x1
 5659 114d 51       		.byte	0x51
 5660 114e 03       		.uleb128 0x3
 5661 114f 0A       		.byte	0xa
 5662 1150 9944     		.2byte	0x4499
 5663 1152 22       		.uleb128 0x22
 5664 1153 01       		.uleb128 0x1
 5665 1154 50       		.byte	0x50
 5666 1155 01       		.uleb128 0x1
 5667 1156 30       		.byte	0x30
 5668 1157 00       		.byte	0
 5669 1158 23       		.uleb128 0x23
 5670 1159 C80A0000 		.4byte	.LVL197
 5671 115d 99230000 		.4byte	0x2399
 5672 1161 21       		.uleb128 0x21
 5673 1162 080B0000 		.4byte	.LVL201
 5674 1166 83230000 		.4byte	0x2383
 5675 116a 7B110000 		.4byte	0x117b
 5676 116e 22       		.uleb128 0x22
 5677 116f 01       		.uleb128 0x1
 5678 1170 51       		.byte	0x51
 5679 1171 03       		.uleb128 0x3
 5680 1172 0A       		.byte	0xa
 5681 1173 9944     		.2byte	0x4499
 5682 1175 22       		.uleb128 0x22
 5683 1176 01       		.uleb128 0x1
 5684 1177 50       		.byte	0x50
 5685 1178 01       		.uleb128 0x1
 5686 1179 30       		.byte	0x30
 5687 117a 00       		.byte	0
 5688 117b 23       		.uleb128 0x23
 5689 117c 0C0B0000 		.4byte	.LVL202
ARM GAS  C:\Users\danit\AppData\Local\Temp\cc88b6Ga.s 			page 102


 5690 1180 99230000 		.4byte	0x2399
 5691 1184 21       		.uleb128 0x21
 5692 1185 4A0B0000 		.4byte	.LVL206
 5693 1189 83230000 		.4byte	0x2383
 5694 118d 9E110000 		.4byte	0x119e
 5695 1191 22       		.uleb128 0x22
 5696 1192 01       		.uleb128 0x1
 5697 1193 51       		.byte	0x51
 5698 1194 03       		.uleb128 0x3
 5699 1195 0A       		.byte	0xa
 5700 1196 9944     		.2byte	0x4499
 5701 1198 22       		.uleb128 0x22
 5702 1199 01       		.uleb128 0x1
 5703 119a 50       		.byte	0x50
 5704 119b 01       		.uleb128 0x1
 5705 119c 30       		.byte	0x30
 5706 119d 00       		.byte	0
 5707 119e 23       		.uleb128 0x23
 5708 119f 4E0B0000 		.4byte	.LVL207
 5709 11a3 99230000 		.4byte	0x2399
 5710 11a7 23       		.uleb128 0x23
 5711 11a8 5A0B0000 		.4byte	.LVL209
 5712 11ac 31240000 		.4byte	0x2431
 5713 11b0 21       		.uleb128 0x21
 5714 11b1 960B0000 		.4byte	.LVL212
 5715 11b5 83230000 		.4byte	0x2383
 5716 11b9 CA110000 		.4byte	0x11ca
 5717 11bd 22       		.uleb128 0x22
 5718 11be 01       		.uleb128 0x1
 5719 11bf 51       		.byte	0x51
 5720 11c0 03       		.uleb128 0x3
 5721 11c1 0A       		.byte	0xa
 5722 11c2 B344     		.2byte	0x44b3
 5723 11c4 22       		.uleb128 0x22
 5724 11c5 01       		.uleb128 0x1
 5725 11c6 50       		.byte	0x50
 5726 11c7 01       		.uleb128 0x1
 5727 11c8 30       		.byte	0x30
 5728 11c9 00       		.byte	0
 5729 11ca 23       		.uleb128 0x23
 5730 11cb 9A0B0000 		.4byte	.LVL213
 5731 11cf 99230000 		.4byte	0x2399
 5732 11d3 21       		.uleb128 0x21
 5733 11d4 360C0000 		.4byte	.LVL222
 5734 11d8 D4230000 		.4byte	0x23d4
 5735 11dc E6110000 		.4byte	0x11e6
 5736 11e0 22       		.uleb128 0x22
 5737 11e1 01       		.uleb128 0x1
 5738 11e2 50       		.byte	0x50
 5739 11e3 01       		.uleb128 0x1
 5740 11e4 34       		.byte	0x34
 5741 11e5 00       		.byte	0
 5742 11e6 21       		.uleb128 0x21
 5743 11e7 480C0000 		.4byte	.LVL223
 5744 11eb D4230000 		.4byte	0x23d4
 5745 11ef F9110000 		.4byte	0x11f9
 5746 11f3 22       		.uleb128 0x22
ARM GAS  C:\Users\danit\AppData\Local\Temp\cc88b6Ga.s 			page 103


 5747 11f4 01       		.uleb128 0x1
 5748 11f5 50       		.byte	0x50
 5749 11f6 01       		.uleb128 0x1
 5750 11f7 34       		.byte	0x34
 5751 11f8 00       		.byte	0
 5752 11f9 21       		.uleb128 0x21
 5753 11fa 5C0C0000 		.4byte	.LVL225
 5754 11fe 83230000 		.4byte	0x2383
 5755 1202 12120000 		.4byte	0x1212
 5756 1206 22       		.uleb128 0x22
 5757 1207 01       		.uleb128 0x1
 5758 1208 51       		.byte	0x51
 5759 1209 02       		.uleb128 0x2
 5760 120a 08       		.byte	0x8
 5761 120b 4F       		.byte	0x4f
 5762 120c 22       		.uleb128 0x22
 5763 120d 01       		.uleb128 0x1
 5764 120e 50       		.byte	0x50
 5765 120f 01       		.uleb128 0x1
 5766 1210 30       		.byte	0x30
 5767 1211 00       		.byte	0
 5768 1212 23       		.uleb128 0x23
 5769 1213 600C0000 		.4byte	.LVL226
 5770 1217 99230000 		.4byte	0x2399
 5771 121b 24       		.uleb128 0x24
 5772 121c 6C0C0000 		.4byte	.LVL227
 5773 1220 A4230000 		.4byte	0x23a4
 5774 1224 22       		.uleb128 0x22
 5775 1225 01       		.uleb128 0x1
 5776 1226 52       		.byte	0x52
 5777 1227 01       		.uleb128 0x1
 5778 1228 30       		.byte	0x30
 5779 1229 22       		.uleb128 0x22
 5780 122a 01       		.uleb128 0x1
 5781 122b 51       		.byte	0x51
 5782 122c 02       		.uleb128 0x2
 5783 122d 08       		.byte	0x8
 5784 122e 76       		.byte	0x76
 5785 122f 22       		.uleb128 0x22
 5786 1230 01       		.uleb128 0x1
 5787 1231 50       		.byte	0x50
 5788 1232 03       		.uleb128 0x3
 5789 1233 0A       		.byte	0xa
 5790 1234 B301     		.2byte	0x1b3
 5791 1236 00       		.byte	0
 5792 1237 00       		.byte	0
 5793 1238 23       		.uleb128 0x23
 5794 1239 B6000000 		.4byte	.LVL5
 5795 123d 64240000 		.4byte	0x2464
 5796 1241 23       		.uleb128 0x23
 5797 1242 A40B0000 		.4byte	.LVL215
 5798 1246 6B240000 		.4byte	0x246b
 5799 124a 23       		.uleb128 0x23
 5800 124b B80B0000 		.4byte	.LVL216
 5801 124f 99230000 		.4byte	0x2399
 5802 1253 23       		.uleb128 0x23
 5803 1254 D20B0000 		.4byte	.LVL217
ARM GAS  C:\Users\danit\AppData\Local\Temp\cc88b6Ga.s 			page 104


 5804 1258 99230000 		.4byte	0x2399
 5805 125c 00       		.byte	0
 5806 125d 00       		.byte	0
 5807 125e 25       		.uleb128 0x25
 5808 125f 4F040000 		.4byte	.LASF255
 5809 1263 02       		.byte	0x2
 5810 1264 45       		.byte	0x45
 5811 1265 00000000 		.4byte	.LFB118
 5812 1269 1C000000 		.4byte	.LFE118-.LFB118
 5813 126d 01       		.uleb128 0x1
 5814 126e 9C       		.byte	0x9c
 5815 126f BD120000 		.4byte	0x12bd
 5816 1273 19       		.uleb128 0x19
 5817 1274 63687000 		.ascii	"chp\000"
 5818 1278 02       		.byte	0x2
 5819 1279 45       		.byte	0x45
 5820 127a BD120000 		.4byte	0x12bd
 5821 127e FD040000 		.4byte	.LLST3
 5822 1282 26       		.uleb128 0x26
 5823 1283 666D7400 		.ascii	"fmt\000"
 5824 1287 02       		.byte	0x2
 5825 1288 45       		.byte	0x45
 5826 1289 11050000 		.4byte	0x511
 5827 128d 02       		.uleb128 0x2
 5828 128e 91       		.byte	0x91
 5829 128f 74       		.sleb128 -12
 5830 1290 1F       		.uleb128 0x1f
 5831 1291 27       		.uleb128 0x27
 5832 1292 617000   		.ascii	"ap\000"
 5833 1295 02       		.byte	0x2
 5834 1296 46       		.byte	0x46
 5835 1297 F5090000 		.4byte	0x9f5
 5836 129b 02       		.uleb128 0x2
 5837 129c 91       		.byte	0x91
 5838 129d 6C       		.sleb128 -20
 5839 129e 24       		.uleb128 0x24
 5840 129f 12000000 		.4byte	.LVL247
 5841 12a3 76240000 		.4byte	0x2476
 5842 12a7 22       		.uleb128 0x22
 5843 12a8 01       		.uleb128 0x1
 5844 12a9 52       		.byte	0x52
 5845 12aa 02       		.uleb128 0x2
 5846 12ab 91       		.byte	0x91
 5847 12ac 60       		.sleb128 -32
 5848 12ad 22       		.uleb128 0x22
 5849 12ae 01       		.uleb128 0x1
 5850 12af 51       		.byte	0x51
 5851 12b0 03       		.uleb128 0x3
 5852 12b1 91       		.byte	0x91
 5853 12b2 5C       		.sleb128 -36
 5854 12b3 06       		.byte	0x6
 5855 12b4 22       		.uleb128 0x22
 5856 12b5 01       		.uleb128 0x1
 5857 12b6 50       		.byte	0x50
 5858 12b7 03       		.uleb128 0x3
 5859 12b8 F3       		.byte	0xf3
 5860 12b9 01       		.uleb128 0x1
ARM GAS  C:\Users\danit\AppData\Local\Temp\cc88b6Ga.s 			page 105


 5861 12ba 50       		.byte	0x50
 5862 12bb 00       		.byte	0
 5863 12bc 00       		.byte	0
 5864 12bd 09       		.uleb128 0x9
 5865 12be 04       		.byte	0x4
 5866 12bf 0F060000 		.4byte	0x60f
 5867 12c3 28       		.uleb128 0x28
 5868 12c4 E2060000 		.4byte	.LASF198
 5869 12c8 01       		.byte	0x1
 5870 12c9 51       		.byte	0x51
 5871 12ca 00000000 		.4byte	.LFB119
 5872 12ce D0000000 		.4byte	.LFE119-.LFB119
 5873 12d2 01       		.uleb128 0x1
 5874 12d3 9C       		.byte	0x9c
 5875 12d4 02150000 		.4byte	0x1502
 5876 12d8 21       		.uleb128 0x21
 5877 12d9 0A000000 		.4byte	.LVL248
 5878 12dd 83230000 		.4byte	0x2383
 5879 12e1 F1120000 		.4byte	0x12f1
 5880 12e5 22       		.uleb128 0x22
 5881 12e6 01       		.uleb128 0x1
 5882 12e7 51       		.byte	0x51
 5883 12e8 02       		.uleb128 0x2
 5884 12e9 08       		.byte	0x8
 5885 12ea 39       		.byte	0x39
 5886 12eb 22       		.uleb128 0x22
 5887 12ec 01       		.uleb128 0x1
 5888 12ed 50       		.byte	0x50
 5889 12ee 01       		.uleb128 0x1
 5890 12ef 30       		.byte	0x30
 5891 12f0 00       		.byte	0
 5892 12f1 21       		.uleb128 0x21
 5893 12f2 16000000 		.4byte	.LVL249
 5894 12f6 A4230000 		.4byte	0x23a4
 5895 12fa 10130000 		.4byte	0x1310
 5896 12fe 22       		.uleb128 0x22
 5897 12ff 01       		.uleb128 0x1
 5898 1300 52       		.byte	0x52
 5899 1301 01       		.uleb128 0x1
 5900 1302 30       		.byte	0x30
 5901 1303 22       		.uleb128 0x22
 5902 1304 01       		.uleb128 0x1
 5903 1305 51       		.byte	0x51
 5904 1306 01       		.uleb128 0x1
 5905 1307 38       		.byte	0x38
 5906 1308 22       		.uleb128 0x22
 5907 1309 01       		.uleb128 0x1
 5908 130a 50       		.byte	0x50
 5909 130b 03       		.uleb128 0x3
 5910 130c 0A       		.byte	0xa
 5911 130d B201     		.2byte	0x1b2
 5912 130f 00       		.byte	0
 5913 1310 21       		.uleb128 0x21
 5914 1311 20000000 		.4byte	.LVL250
 5915 1315 83230000 		.4byte	0x2383
 5916 1319 2A130000 		.4byte	0x132a
 5917 131d 22       		.uleb128 0x22
ARM GAS  C:\Users\danit\AppData\Local\Temp\cc88b6Ga.s 			page 106


 5918 131e 01       		.uleb128 0x1
 5919 131f 51       		.byte	0x51
 5920 1320 03       		.uleb128 0x3
 5921 1321 0A       		.byte	0xa
 5922 1322 4E45     		.2byte	0x454e
 5923 1324 22       		.uleb128 0x22
 5924 1325 01       		.uleb128 0x1
 5925 1326 50       		.byte	0x50
 5926 1327 01       		.uleb128 0x1
 5927 1328 30       		.byte	0x30
 5928 1329 00       		.byte	0
 5929 132a 21       		.uleb128 0x21
 5930 132b 2C000000 		.4byte	.LVL251
 5931 132f A4230000 		.4byte	0x23a4
 5932 1333 4A130000 		.4byte	0x134a
 5933 1337 22       		.uleb128 0x22
 5934 1338 01       		.uleb128 0x1
 5935 1339 52       		.byte	0x52
 5936 133a 01       		.uleb128 0x1
 5937 133b 30       		.byte	0x30
 5938 133c 22       		.uleb128 0x22
 5939 133d 01       		.uleb128 0x1
 5940 133e 51       		.byte	0x51
 5941 133f 02       		.uleb128 0x2
 5942 1340 08       		.byte	0x8
 5943 1341 3A       		.byte	0x3a
 5944 1342 22       		.uleb128 0x22
 5945 1343 01       		.uleb128 0x1
 5946 1344 50       		.byte	0x50
 5947 1345 03       		.uleb128 0x3
 5948 1346 0A       		.byte	0xa
 5949 1347 B201     		.2byte	0x1b2
 5950 1349 00       		.byte	0
 5951 134a 21       		.uleb128 0x21
 5952 134b 34000000 		.4byte	.LVL252
 5953 134f 83230000 		.4byte	0x2383
 5954 1353 63130000 		.4byte	0x1363
 5955 1357 22       		.uleb128 0x22
 5956 1358 01       		.uleb128 0x1
 5957 1359 51       		.byte	0x51
 5958 135a 02       		.uleb128 0x2
 5959 135b 08       		.byte	0x8
 5960 135c 6E       		.byte	0x6e
 5961 135d 22       		.uleb128 0x22
 5962 135e 01       		.uleb128 0x1
 5963 135f 50       		.byte	0x50
 5964 1360 01       		.uleb128 0x1
 5965 1361 30       		.byte	0x30
 5966 1362 00       		.byte	0
 5967 1363 21       		.uleb128 0x21
 5968 1364 40000000 		.4byte	.LVL253
 5969 1368 A4230000 		.4byte	0x23a4
 5970 136c 83130000 		.4byte	0x1383
 5971 1370 22       		.uleb128 0x22
 5972 1371 01       		.uleb128 0x1
 5973 1372 52       		.byte	0x52
 5974 1373 01       		.uleb128 0x1
ARM GAS  C:\Users\danit\AppData\Local\Temp\cc88b6Ga.s 			page 107


 5975 1374 30       		.byte	0x30
 5976 1375 22       		.uleb128 0x22
 5977 1376 01       		.uleb128 0x1
 5978 1377 51       		.byte	0x51
 5979 1378 02       		.uleb128 0x2
 5980 1379 08       		.byte	0x8
 5981 137a B7       		.byte	0xb7
 5982 137b 22       		.uleb128 0x22
 5983 137c 01       		.uleb128 0x1
 5984 137d 50       		.byte	0x50
 5985 137e 03       		.uleb128 0x3
 5986 137f 0A       		.byte	0xa
 5987 1380 B201     		.2byte	0x1b2
 5988 1382 00       		.byte	0
 5989 1383 21       		.uleb128 0x21
 5990 1384 48000000 		.4byte	.LVL254
 5991 1388 83230000 		.4byte	0x2383
 5992 138c 9C130000 		.4byte	0x139c
 5993 1390 22       		.uleb128 0x22
 5994 1391 01       		.uleb128 0x1
 5995 1392 51       		.byte	0x51
 5996 1393 02       		.uleb128 0x2
 5997 1394 08       		.byte	0x8
 5998 1395 44       		.byte	0x44
 5999 1396 22       		.uleb128 0x22
 6000 1397 01       		.uleb128 0x1
 6001 1398 50       		.byte	0x50
 6002 1399 01       		.uleb128 0x1
 6003 139a 30       		.byte	0x30
 6004 139b 00       		.byte	0
 6005 139c 21       		.uleb128 0x21
 6006 139d 54000000 		.4byte	.LVL255
 6007 13a1 A4230000 		.4byte	0x23a4
 6008 13a5 BC130000 		.4byte	0x13bc
 6009 13a9 22       		.uleb128 0x22
 6010 13aa 01       		.uleb128 0x1
 6011 13ab 52       		.byte	0x52
 6012 13ac 01       		.uleb128 0x1
 6013 13ad 30       		.byte	0x30
 6014 13ae 22       		.uleb128 0x22
 6015 13af 01       		.uleb128 0x1
 6016 13b0 51       		.byte	0x51
 6017 13b1 02       		.uleb128 0x2
 6018 13b2 08       		.byte	0x8
 6019 13b3 E7       		.byte	0xe7
 6020 13b4 22       		.uleb128 0x22
 6021 13b5 01       		.uleb128 0x1
 6022 13b6 50       		.byte	0x50
 6023 13b7 03       		.uleb128 0x3
 6024 13b8 0A       		.byte	0xa
 6025 13b9 B201     		.2byte	0x1b2
 6026 13bb 00       		.byte	0
 6027 13bc 21       		.uleb128 0x21
 6028 13bd 5E000000 		.4byte	.LVL256
 6029 13c1 83230000 		.4byte	0x2383
 6030 13c5 D6130000 		.4byte	0x13d6
 6031 13c9 22       		.uleb128 0x22
ARM GAS  C:\Users\danit\AppData\Local\Temp\cc88b6Ga.s 			page 108


 6032 13ca 01       		.uleb128 0x1
 6033 13cb 51       		.byte	0x51
 6034 13cc 03       		.uleb128 0x3
 6035 13cd 0A       		.byte	0xa
 6036 13ce 6145     		.2byte	0x4561
 6037 13d0 22       		.uleb128 0x22
 6038 13d1 01       		.uleb128 0x1
 6039 13d2 50       		.byte	0x50
 6040 13d3 01       		.uleb128 0x1
 6041 13d4 30       		.byte	0x30
 6042 13d5 00       		.byte	0
 6043 13d6 21       		.uleb128 0x21
 6044 13d7 6A000000 		.4byte	.LVL257
 6045 13db A4230000 		.4byte	0x23a4
 6046 13df F5130000 		.4byte	0x13f5
 6047 13e3 22       		.uleb128 0x22
 6048 13e4 01       		.uleb128 0x1
 6049 13e5 52       		.byte	0x52
 6050 13e6 01       		.uleb128 0x1
 6051 13e7 30       		.byte	0x30
 6052 13e8 22       		.uleb128 0x22
 6053 13e9 01       		.uleb128 0x1
 6054 13ea 51       		.byte	0x51
 6055 13eb 01       		.uleb128 0x1
 6056 13ec 4A       		.byte	0x4a
 6057 13ed 22       		.uleb128 0x22
 6058 13ee 01       		.uleb128 0x1
 6059 13ef 50       		.byte	0x50
 6060 13f0 03       		.uleb128 0x3
 6061 13f1 0A       		.byte	0xa
 6062 13f2 7701     		.2byte	0x177
 6063 13f4 00       		.byte	0
 6064 13f5 21       		.uleb128 0x21
 6065 13f6 72000000 		.4byte	.LVL258
 6066 13fa 83230000 		.4byte	0x2383
 6067 13fe 0D140000 		.4byte	0x140d
 6068 1402 22       		.uleb128 0x22
 6069 1403 01       		.uleb128 0x1
 6070 1404 51       		.byte	0x51
 6071 1405 01       		.uleb128 0x1
 6072 1406 47       		.byte	0x47
 6073 1407 22       		.uleb128 0x22
 6074 1408 01       		.uleb128 0x1
 6075 1409 50       		.byte	0x50
 6076 140a 01       		.uleb128 0x1
 6077 140b 30       		.byte	0x30
 6078 140c 00       		.byte	0
 6079 140d 21       		.uleb128 0x21
 6080 140e 7E000000 		.4byte	.LVL259
 6081 1412 A4230000 		.4byte	0x23a4
 6082 1416 2D140000 		.4byte	0x142d
 6083 141a 22       		.uleb128 0x22
 6084 141b 01       		.uleb128 0x1
 6085 141c 52       		.byte	0x52
 6086 141d 01       		.uleb128 0x1
 6087 141e 30       		.byte	0x30
 6088 141f 22       		.uleb128 0x22
ARM GAS  C:\Users\danit\AppData\Local\Temp\cc88b6Ga.s 			page 109


 6089 1420 01       		.uleb128 0x1
 6090 1421 51       		.byte	0x51
 6091 1422 02       		.uleb128 0x2
 6092 1423 08       		.byte	0x8
 6093 1424 50       		.byte	0x50
 6094 1425 22       		.uleb128 0x22
 6095 1426 01       		.uleb128 0x1
 6096 1427 50       		.byte	0x50
 6097 1428 03       		.uleb128 0x3
 6098 1429 0A       		.byte	0xa
 6099 142a 7701     		.2byte	0x177
 6100 142c 00       		.byte	0
 6101 142d 21       		.uleb128 0x21
 6102 142e 86000000 		.4byte	.LVL260
 6103 1432 83230000 		.4byte	0x2383
 6104 1436 46140000 		.4byte	0x1446
 6105 143a 22       		.uleb128 0x22
 6106 143b 01       		.uleb128 0x1
 6107 143c 51       		.byte	0x51
 6108 143d 02       		.uleb128 0x2
 6109 143e 08       		.byte	0x8
 6110 143f 79       		.byte	0x79
 6111 1440 22       		.uleb128 0x22
 6112 1441 01       		.uleb128 0x1
 6113 1442 50       		.byte	0x50
 6114 1443 01       		.uleb128 0x1
 6115 1444 30       		.byte	0x30
 6116 1445 00       		.byte	0
 6117 1446 21       		.uleb128 0x21
 6118 1447 92000000 		.4byte	.LVL261
 6119 144b A4230000 		.4byte	0x23a4
 6120 144f 66140000 		.4byte	0x1466
 6121 1453 22       		.uleb128 0x22
 6122 1454 01       		.uleb128 0x1
 6123 1455 52       		.byte	0x52
 6124 1456 01       		.uleb128 0x1
 6125 1457 30       		.byte	0x30
 6126 1458 22       		.uleb128 0x22
 6127 1459 01       		.uleb128 0x1
 6128 145a 51       		.byte	0x51
 6129 145b 02       		.uleb128 0x2
 6130 145c 08       		.byte	0x8
 6131 145d AA       		.byte	0xaa
 6132 145e 22       		.uleb128 0x22
 6133 145f 01       		.uleb128 0x1
 6134 1460 50       		.byte	0x50
 6135 1461 03       		.uleb128 0x3
 6136 1462 0A       		.byte	0xa
 6137 1463 7701     		.2byte	0x177
 6138 1465 00       		.byte	0
 6139 1466 21       		.uleb128 0x21
 6140 1467 9A000000 		.4byte	.LVL262
 6141 146b 83230000 		.4byte	0x2383
 6142 146f 7E140000 		.4byte	0x147e
 6143 1473 22       		.uleb128 0x22
 6144 1474 01       		.uleb128 0x1
 6145 1475 51       		.byte	0x51
ARM GAS  C:\Users\danit\AppData\Local\Temp\cc88b6Ga.s 			page 110


 6146 1476 01       		.uleb128 0x1
 6147 1477 30       		.byte	0x30
 6148 1478 22       		.uleb128 0x22
 6149 1479 01       		.uleb128 0x1
 6150 147a 50       		.byte	0x50
 6151 147b 01       		.uleb128 0x1
 6152 147c 30       		.byte	0x30
 6153 147d 00       		.byte	0
 6154 147e 21       		.uleb128 0x21
 6155 147f A6000000 		.4byte	.LVL263
 6156 1483 A4230000 		.4byte	0x23a4
 6157 1487 9E140000 		.4byte	0x149e
 6158 148b 22       		.uleb128 0x22
 6159 148c 01       		.uleb128 0x1
 6160 148d 52       		.byte	0x52
 6161 148e 01       		.uleb128 0x1
 6162 148f 30       		.byte	0x30
 6163 1490 22       		.uleb128 0x22
 6164 1491 01       		.uleb128 0x1
 6165 1492 51       		.byte	0x51
 6166 1493 02       		.uleb128 0x2
 6167 1494 08       		.byte	0x8
 6168 1495 DB       		.byte	0xdb
 6169 1496 22       		.uleb128 0x22
 6170 1497 01       		.uleb128 0x1
 6171 1498 50       		.byte	0x50
 6172 1499 03       		.uleb128 0x3
 6173 149a 0A       		.byte	0xa
 6174 149b 7701     		.2byte	0x177
 6175 149d 00       		.byte	0
 6176 149e 21       		.uleb128 0x21
 6177 149f AE000000 		.4byte	.LVL264
 6178 14a3 83230000 		.4byte	0x2383
 6179 14a7 B6140000 		.4byte	0x14b6
 6180 14ab 22       		.uleb128 0x22
 6181 14ac 01       		.uleb128 0x1
 6182 14ad 51       		.byte	0x51
 6183 14ae 01       		.uleb128 0x1
 6184 14af 41       		.byte	0x41
 6185 14b0 22       		.uleb128 0x22
 6186 14b1 01       		.uleb128 0x1
 6187 14b2 50       		.byte	0x50
 6188 14b3 01       		.uleb128 0x1
 6189 14b4 30       		.byte	0x30
 6190 14b5 00       		.byte	0
 6191 14b6 21       		.uleb128 0x21
 6192 14b7 B8000000 		.4byte	.LVL265
 6193 14bb 91240000 		.4byte	0x2491
 6194 14bf D0140000 		.4byte	0x14d0
 6195 14c3 22       		.uleb128 0x22
 6196 14c4 01       		.uleb128 0x1
 6197 14c5 51       		.byte	0x51
 6198 14c6 01       		.uleb128 0x1
 6199 14c7 34       		.byte	0x34
 6200 14c8 22       		.uleb128 0x22
 6201 14c9 01       		.uleb128 0x1
 6202 14ca 50       		.byte	0x50
ARM GAS  C:\Users\danit\AppData\Local\Temp\cc88b6Ga.s 			page 111


 6203 14cb 03       		.uleb128 0x3
 6204 14cc 0A       		.byte	0xa
 6205 14cd 5401     		.2byte	0x154
 6206 14cf 00       		.byte	0
 6207 14d0 21       		.uleb128 0x21
 6208 14d1 C2000000 		.4byte	.LVL266
 6209 14d5 83230000 		.4byte	0x2383
 6210 14d9 EA140000 		.4byte	0x14ea
 6211 14dd 22       		.uleb128 0x22
 6212 14de 01       		.uleb128 0x1
 6213 14df 51       		.byte	0x51
 6214 14e0 03       		.uleb128 0x3
 6215 14e1 0A       		.byte	0xa
 6216 14e2 5945     		.2byte	0x4559
 6217 14e4 22       		.uleb128 0x22
 6218 14e5 01       		.uleb128 0x1
 6219 14e6 50       		.byte	0x50
 6220 14e7 01       		.uleb128 0x1
 6221 14e8 30       		.byte	0x30
 6222 14e9 00       		.byte	0
 6223 14ea 29       		.uleb128 0x29
 6224 14eb D0000000 		.4byte	.LVL267
 6225 14ef 91240000 		.4byte	0x2491
 6226 14f3 22       		.uleb128 0x22
 6227 14f4 01       		.uleb128 0x1
 6228 14f5 51       		.byte	0x51
 6229 14f6 02       		.uleb128 0x2
 6230 14f7 08       		.byte	0x8
 6231 14f8 A6       		.byte	0xa6
 6232 14f9 22       		.uleb128 0x22
 6233 14fa 01       		.uleb128 0x1
 6234 14fb 50       		.byte	0x50
 6235 14fc 03       		.uleb128 0x3
 6236 14fd 0A       		.byte	0xa
 6237 14fe 5401     		.2byte	0x154
 6238 1500 00       		.byte	0
 6239 1501 00       		.byte	0
 6240 1502 28       		.uleb128 0x28
 6241 1503 41070000 		.4byte	.LASF199
 6242 1507 01       		.byte	0x1
 6243 1508 72       		.byte	0x72
 6244 1509 00000000 		.4byte	.LFB120
 6245 150d 74000000 		.4byte	.LFE120-.LFB120
 6246 1511 01       		.uleb128 0x1
 6247 1512 9C       		.byte	0x9c
 6248 1513 51160000 		.4byte	0x1651
 6249 1517 21       		.uleb128 0x21
 6250 1518 08000000 		.4byte	.LVL268
 6251 151c 42240000 		.4byte	0x2442
 6252 1520 2A150000 		.4byte	0x152a
 6253 1524 22       		.uleb128 0x22
 6254 1525 01       		.uleb128 0x1
 6255 1526 50       		.byte	0x50
 6256 1527 01       		.uleb128 0x1
 6257 1528 31       		.byte	0x31
 6258 1529 00       		.byte	0
 6259 152a 21       		.uleb128 0x21
ARM GAS  C:\Users\danit\AppData\Local\Temp\cc88b6Ga.s 			page 112


 6260 152b 0E000000 		.4byte	.LVL269
 6261 152f 53240000 		.4byte	0x2453
 6262 1533 3D150000 		.4byte	0x153d
 6263 1537 22       		.uleb128 0x22
 6264 1538 01       		.uleb128 0x1
 6265 1539 50       		.byte	0x50
 6266 153a 01       		.uleb128 0x1
 6267 153b 4F       		.byte	0x4f
 6268 153c 00       		.byte	0
 6269 153d 21       		.uleb128 0x21
 6270 153e 16000000 		.4byte	.LVL270
 6271 1542 83230000 		.4byte	0x2383
 6272 1546 56150000 		.4byte	0x1556
 6273 154a 22       		.uleb128 0x22
 6274 154b 01       		.uleb128 0x1
 6275 154c 51       		.byte	0x51
 6276 154d 02       		.uleb128 0x2
 6277 154e 08       		.byte	0x8
 6278 154f 8A       		.byte	0x8a
 6279 1550 22       		.uleb128 0x22
 6280 1551 01       		.uleb128 0x1
 6281 1552 50       		.byte	0x50
 6282 1553 01       		.uleb128 0x1
 6283 1554 30       		.byte	0x30
 6284 1555 00       		.byte	0
 6285 1556 21       		.uleb128 0x21
 6286 1557 20000000 		.4byte	.LVL271
 6287 155b A4230000 		.4byte	0x23a4
 6288 155f 74150000 		.4byte	0x1574
 6289 1563 22       		.uleb128 0x22
 6290 1564 01       		.uleb128 0x1
 6291 1565 52       		.byte	0x52
 6292 1566 01       		.uleb128 0x1
 6293 1567 30       		.byte	0x30
 6294 1568 22       		.uleb128 0x22
 6295 1569 01       		.uleb128 0x1
 6296 156a 51       		.byte	0x51
 6297 156b 01       		.uleb128 0x1
 6298 156c 45       		.byte	0x45
 6299 156d 22       		.uleb128 0x22
 6300 156e 01       		.uleb128 0x1
 6301 156f 50       		.byte	0x50
 6302 1570 02       		.uleb128 0x2
 6303 1571 08       		.byte	0x8
 6304 1572 94       		.byte	0x94
 6305 1573 00       		.byte	0
 6306 1574 21       		.uleb128 0x21
 6307 1575 28000000 		.4byte	.LVL272
 6308 1579 83230000 		.4byte	0x2383
 6309 157d 8D150000 		.4byte	0x158d
 6310 1581 22       		.uleb128 0x22
 6311 1582 01       		.uleb128 0x1
 6312 1583 51       		.byte	0x51
 6313 1584 02       		.uleb128 0x2
 6314 1585 08       		.byte	0x8
 6315 1586 6A       		.byte	0x6a
 6316 1587 22       		.uleb128 0x22
ARM GAS  C:\Users\danit\AppData\Local\Temp\cc88b6Ga.s 			page 113


 6317 1588 01       		.uleb128 0x1
 6318 1589 50       		.byte	0x50
 6319 158a 01       		.uleb128 0x1
 6320 158b 30       		.byte	0x30
 6321 158c 00       		.byte	0
 6322 158d 21       		.uleb128 0x21
 6323 158e 30000000 		.4byte	.LVL273
 6324 1592 91240000 		.4byte	0x2491
 6325 1596 A7150000 		.4byte	0x15a7
 6326 159a 22       		.uleb128 0x22
 6327 159b 01       		.uleb128 0x1
 6328 159c 51       		.byte	0x51
 6329 159d 02       		.uleb128 0x2
 6330 159e 08       		.byte	0x8
 6331 159f CC       		.byte	0xcc
 6332 15a0 22       		.uleb128 0x22
 6333 15a1 01       		.uleb128 0x1
 6334 15a2 50       		.byte	0x50
 6335 15a3 02       		.uleb128 0x2
 6336 15a4 08       		.byte	0x8
 6337 15a5 A8       		.byte	0xa8
 6338 15a6 00       		.byte	0
 6339 15a7 21       		.uleb128 0x21
 6340 15a8 3A000000 		.4byte	.LVL274
 6341 15ac 83230000 		.4byte	0x2383
 6342 15b0 C1150000 		.4byte	0x15c1
 6343 15b4 22       		.uleb128 0x22
 6344 15b5 01       		.uleb128 0x1
 6345 15b6 51       		.byte	0x51
 6346 15b7 03       		.uleb128 0x3
 6347 15b8 0A       		.byte	0xa
 6348 15b9 8C44     		.2byte	0x448c
 6349 15bb 22       		.uleb128 0x22
 6350 15bc 01       		.uleb128 0x1
 6351 15bd 50       		.byte	0x50
 6352 15be 01       		.uleb128 0x1
 6353 15bf 30       		.byte	0x30
 6354 15c0 00       		.byte	0
 6355 15c1 21       		.uleb128 0x21
 6356 15c2 46000000 		.4byte	.LVL275
 6357 15c6 A4230000 		.4byte	0x23a4
 6358 15ca E1150000 		.4byte	0x15e1
 6359 15ce 22       		.uleb128 0x22
 6360 15cf 01       		.uleb128 0x1
 6361 15d0 52       		.byte	0x52
 6362 15d1 01       		.uleb128 0x1
 6363 15d2 30       		.byte	0x30
 6364 15d3 22       		.uleb128 0x22
 6365 15d4 01       		.uleb128 0x1
 6366 15d5 51       		.byte	0x51
 6367 15d6 02       		.uleb128 0x2
 6368 15d7 08       		.byte	0x8
 6369 15d8 F4       		.byte	0xf4
 6370 15d9 22       		.uleb128 0x22
 6371 15da 01       		.uleb128 0x1
 6372 15db 50       		.byte	0x50
 6373 15dc 03       		.uleb128 0x3
ARM GAS  C:\Users\danit\AppData\Local\Temp\cc88b6Ga.s 			page 114


 6374 15dd 0A       		.byte	0xa
 6375 15de 3B01     		.2byte	0x13b
 6376 15e0 00       		.byte	0
 6377 15e1 21       		.uleb128 0x21
 6378 15e2 50000000 		.4byte	.LVL276
 6379 15e6 83230000 		.4byte	0x2383
 6380 15ea FB150000 		.4byte	0x15fb
 6381 15ee 22       		.uleb128 0x22
 6382 15ef 01       		.uleb128 0x1
 6383 15f0 51       		.byte	0x51
 6384 15f1 03       		.uleb128 0x3
 6385 15f2 0A       		.byte	0xa
 6386 15f3 8C44     		.2byte	0x448c
 6387 15f5 22       		.uleb128 0x22
 6388 15f6 01       		.uleb128 0x1
 6389 15f7 50       		.byte	0x50
 6390 15f8 01       		.uleb128 0x1
 6391 15f9 30       		.byte	0x30
 6392 15fa 00       		.byte	0
 6393 15fb 21       		.uleb128 0x21
 6394 15fc 5C000000 		.4byte	.LVL277
 6395 1600 A4230000 		.4byte	0x23a4
 6396 1604 1B160000 		.4byte	0x161b
 6397 1608 22       		.uleb128 0x22
 6398 1609 01       		.uleb128 0x1
 6399 160a 52       		.byte	0x52
 6400 160b 01       		.uleb128 0x1
 6401 160c 30       		.byte	0x30
 6402 160d 22       		.uleb128 0x22
 6403 160e 01       		.uleb128 0x1
 6404 160f 51       		.byte	0x51
 6405 1610 02       		.uleb128 0x2
 6406 1611 08       		.byte	0x8
 6407 1612 28       		.byte	0x28
 6408 1613 22       		.uleb128 0x22
 6409 1614 01       		.uleb128 0x1
 6410 1615 50       		.byte	0x50
 6411 1616 03       		.uleb128 0x3
 6412 1617 0A       		.byte	0xa
 6413 1618 3B01     		.2byte	0x13b
 6414 161a 00       		.byte	0
 6415 161b 21       		.uleb128 0x21
 6416 161c 66000000 		.4byte	.LVL278
 6417 1620 83230000 		.4byte	0x2383
 6418 1624 35160000 		.4byte	0x1635
 6419 1628 22       		.uleb128 0x22
 6420 1629 01       		.uleb128 0x1
 6421 162a 51       		.byte	0x51
 6422 162b 03       		.uleb128 0x3
 6423 162c 0A       		.byte	0xa
 6424 162d B344     		.2byte	0x44b3
 6425 162f 22       		.uleb128 0x22
 6426 1630 01       		.uleb128 0x1
 6427 1631 50       		.byte	0x50
 6428 1632 01       		.uleb128 0x1
 6429 1633 30       		.byte	0x30
 6430 1634 00       		.byte	0
ARM GAS  C:\Users\danit\AppData\Local\Temp\cc88b6Ga.s 			page 115


 6431 1635 29       		.uleb128 0x29
 6432 1636 74000000 		.4byte	.LVL279
 6433 163a A4230000 		.4byte	0x23a4
 6434 163e 22       		.uleb128 0x22
 6435 163f 01       		.uleb128 0x1
 6436 1640 52       		.byte	0x52
 6437 1641 01       		.uleb128 0x1
 6438 1642 30       		.byte	0x30
 6439 1643 22       		.uleb128 0x22
 6440 1644 01       		.uleb128 0x1
 6441 1645 51       		.byte	0x51
 6442 1646 02       		.uleb128 0x2
 6443 1647 08       		.byte	0x8
 6444 1648 A7       		.byte	0xa7
 6445 1649 22       		.uleb128 0x22
 6446 164a 01       		.uleb128 0x1
 6447 164b 50       		.byte	0x50
 6448 164c 02       		.uleb128 0x2
 6449 164d 08       		.byte	0x8
 6450 164e BA       		.byte	0xba
 6451 164f 00       		.byte	0
 6452 1650 00       		.byte	0
 6453 1651 28       		.uleb128 0x28
 6454 1652 4C080000 		.4byte	.LASF200
 6455 1656 01       		.byte	0x1
 6456 1657 85       		.byte	0x85
 6457 1658 00000000 		.4byte	.LFB121
 6458 165c 24010000 		.4byte	.LFE121-.LFB121
 6459 1660 01       		.uleb128 0x1
 6460 1661 9C       		.byte	0x9c
 6461 1662 A5190000 		.4byte	0x19a5
 6462 1666 1E       		.uleb128 0x1e
 6463 1667 4C050000 		.4byte	.LASF201
 6464 166b 01       		.byte	0x1
 6465 166c 87       		.byte	0x87
 6466 166d 33000000 		.4byte	0x33
 6467 1671 77160000 		.4byte	0x1677
 6468 1675 1F       		.uleb128 0x1f
 6469 1676 00       		.byte	0
 6470 1677 21       		.uleb128 0x21
 6471 1678 1A000000 		.4byte	.LVL280
 6472 167c A7240000 		.4byte	0x24a7
 6473 1680 A6160000 		.4byte	0x16a6
 6474 1684 22       		.uleb128 0x22
 6475 1685 01       		.uleb128 0x1
 6476 1686 53       		.byte	0x53
 6477 1687 03       		.uleb128 0x3
 6478 1688 0A       		.byte	0xa
 6479 1689 1001     		.2byte	0x110
 6480 168b 22       		.uleb128 0x22
 6481 168c 01       		.uleb128 0x1
 6482 168d 52       		.byte	0x52
 6483 168e 03       		.uleb128 0x3
 6484 168f 0A       		.byte	0xa
 6485 1690 6801     		.2byte	0x168
 6486 1692 22       		.uleb128 0x22
 6487 1693 01       		.uleb128 0x1
ARM GAS  C:\Users\danit\AppData\Local\Temp\cc88b6Ga.s 			page 116


 6488 1694 51       		.byte	0x51
 6489 1695 01       		.uleb128 0x1
 6490 1696 30       		.byte	0x30
 6491 1697 22       		.uleb128 0x22
 6492 1698 01       		.uleb128 0x1
 6493 1699 50       		.byte	0x50
 6494 169a 03       		.uleb128 0x3
 6495 169b 0A       		.byte	0xa
 6496 169c 6801     		.2byte	0x168
 6497 169e 22       		.uleb128 0x22
 6498 169f 02       		.uleb128 0x2
 6499 16a0 7D       		.byte	0x7d
 6500 16a1 00       		.sleb128 0
 6501 16a2 02       		.uleb128 0x2
 6502 16a3 74       		.byte	0x74
 6503 16a4 00       		.sleb128 0
 6504 16a5 00       		.byte	0
 6505 16a6 21       		.uleb128 0x21
 6506 16a7 2A000000 		.4byte	.LVL281
 6507 16ab A7240000 		.4byte	0x24a7
 6508 16af D3160000 		.4byte	0x16d3
 6509 16b3 22       		.uleb128 0x22
 6510 16b4 01       		.uleb128 0x1
 6511 16b5 53       		.byte	0x53
 6512 16b6 03       		.uleb128 0x3
 6513 16b7 0A       		.byte	0xa
 6514 16b8 1001     		.2byte	0x110
 6515 16ba 22       		.uleb128 0x22
 6516 16bb 01       		.uleb128 0x1
 6517 16bc 52       		.byte	0x52
 6518 16bd 02       		.uleb128 0x2
 6519 16be 08       		.byte	0x8
 6520 16bf 91       		.byte	0x91
 6521 16c0 22       		.uleb128 0x22
 6522 16c1 01       		.uleb128 0x1
 6523 16c2 51       		.byte	0x51
 6524 16c3 01       		.uleb128 0x1
 6525 16c4 30       		.byte	0x30
 6526 16c5 22       		.uleb128 0x22
 6527 16c6 01       		.uleb128 0x1
 6528 16c7 50       		.byte	0x50
 6529 16c8 02       		.uleb128 0x2
 6530 16c9 08       		.byte	0x8
 6531 16ca 91       		.byte	0x91
 6532 16cb 22       		.uleb128 0x22
 6533 16cc 02       		.uleb128 0x2
 6534 16cd 7D       		.byte	0x7d
 6535 16ce 00       		.sleb128 0
 6536 16cf 02       		.uleb128 0x2
 6537 16d0 74       		.byte	0x74
 6538 16d1 00       		.sleb128 0
 6539 16d2 00       		.byte	0
 6540 16d3 21       		.uleb128 0x21
 6541 16d4 32000000 		.4byte	.LVL282
 6542 16d8 83230000 		.4byte	0x2383
 6543 16dc EC160000 		.4byte	0x16ec
 6544 16e0 22       		.uleb128 0x22
ARM GAS  C:\Users\danit\AppData\Local\Temp\cc88b6Ga.s 			page 117


 6545 16e1 01       		.uleb128 0x1
 6546 16e2 51       		.byte	0x51
 6547 16e3 02       		.uleb128 0x2
 6548 16e4 08       		.byte	0x8
 6549 16e5 2E       		.byte	0x2e
 6550 16e6 22       		.uleb128 0x22
 6551 16e7 01       		.uleb128 0x1
 6552 16e8 50       		.byte	0x50
 6553 16e9 01       		.uleb128 0x1
 6554 16ea 30       		.byte	0x30
 6555 16eb 00       		.byte	0
 6556 16ec 21       		.uleb128 0x21
 6557 16ed 3C000000 		.4byte	.LVL283
 6558 16f1 A4230000 		.4byte	0x23a4
 6559 16f5 0A170000 		.4byte	0x170a
 6560 16f9 22       		.uleb128 0x22
 6561 16fa 01       		.uleb128 0x1
 6562 16fb 52       		.byte	0x52
 6563 16fc 01       		.uleb128 0x1
 6564 16fd 30       		.byte	0x30
 6565 16fe 22       		.uleb128 0x22
 6566 16ff 01       		.uleb128 0x1
 6567 1700 51       		.byte	0x51
 6568 1701 01       		.uleb128 0x1
 6569 1702 35       		.byte	0x35
 6570 1703 22       		.uleb128 0x22
 6571 1704 01       		.uleb128 0x1
 6572 1705 50       		.byte	0x50
 6573 1706 02       		.uleb128 0x2
 6574 1707 08       		.byte	0x8
 6575 1708 6C       		.byte	0x6c
 6576 1709 00       		.byte	0
 6577 170a 21       		.uleb128 0x21
 6578 170b 44000000 		.4byte	.LVL284
 6579 170f 83230000 		.4byte	0x2383
 6580 1713 23170000 		.4byte	0x1723
 6581 1717 22       		.uleb128 0x22
 6582 1718 01       		.uleb128 0x1
 6583 1719 51       		.byte	0x51
 6584 171a 02       		.uleb128 0x2
 6585 171b 08       		.byte	0x8
 6586 171c 2E       		.byte	0x2e
 6587 171d 22       		.uleb128 0x22
 6588 171e 01       		.uleb128 0x1
 6589 171f 50       		.byte	0x50
 6590 1720 01       		.uleb128 0x1
 6591 1721 30       		.byte	0x30
 6592 1722 00       		.byte	0
 6593 1723 21       		.uleb128 0x21
 6594 1724 4E000000 		.4byte	.LVL285
 6595 1728 A4230000 		.4byte	0x23a4
 6596 172c 42170000 		.4byte	0x1742
 6597 1730 22       		.uleb128 0x22
 6598 1731 01       		.uleb128 0x1
 6599 1732 52       		.byte	0x52
 6600 1733 01       		.uleb128 0x1
 6601 1734 31       		.byte	0x31
ARM GAS  C:\Users\danit\AppData\Local\Temp\cc88b6Ga.s 			page 118


 6602 1735 22       		.uleb128 0x22
 6603 1736 01       		.uleb128 0x1
 6604 1737 51       		.byte	0x51
 6605 1738 02       		.uleb128 0x2
 6606 1739 08       		.byte	0x8
 6607 173a 87       		.byte	0x87
 6608 173b 22       		.uleb128 0x22
 6609 173c 01       		.uleb128 0x1
 6610 173d 50       		.byte	0x50
 6611 173e 02       		.uleb128 0x2
 6612 173f 08       		.byte	0x8
 6613 1740 6C       		.byte	0x6c
 6614 1741 00       		.byte	0
 6615 1742 21       		.uleb128 0x21
 6616 1743 56000000 		.4byte	.LVL286
 6617 1747 83230000 		.4byte	0x2383
 6618 174b 5B170000 		.4byte	0x175b
 6619 174f 22       		.uleb128 0x22
 6620 1750 01       		.uleb128 0x1
 6621 1751 51       		.byte	0x51
 6622 1752 02       		.uleb128 0x2
 6623 1753 08       		.byte	0x8
 6624 1754 2E       		.byte	0x2e
 6625 1755 22       		.uleb128 0x22
 6626 1756 01       		.uleb128 0x1
 6627 1757 50       		.byte	0x50
 6628 1758 01       		.uleb128 0x1
 6629 1759 30       		.byte	0x30
 6630 175a 00       		.byte	0
 6631 175b 21       		.uleb128 0x21
 6632 175c 60000000 		.4byte	.LVL287
 6633 1760 A4230000 		.4byte	0x23a4
 6634 1764 7A170000 		.4byte	0x177a
 6635 1768 22       		.uleb128 0x22
 6636 1769 01       		.uleb128 0x1
 6637 176a 52       		.byte	0x52
 6638 176b 01       		.uleb128 0x1
 6639 176c 32       		.byte	0x32
 6640 176d 22       		.uleb128 0x22
 6641 176e 01       		.uleb128 0x1
 6642 176f 51       		.byte	0x51
 6643 1770 02       		.uleb128 0x2
 6644 1771 08       		.byte	0x8
 6645 1772 87       		.byte	0x87
 6646 1773 22       		.uleb128 0x22
 6647 1774 01       		.uleb128 0x1
 6648 1775 50       		.byte	0x50
 6649 1776 02       		.uleb128 0x2
 6650 1777 08       		.byte	0x8
 6651 1778 42       		.byte	0x42
 6652 1779 00       		.byte	0
 6653 177a 21       		.uleb128 0x21
 6654 177b 6A000000 		.4byte	.LVL288
 6655 177f 83230000 		.4byte	0x2383
 6656 1783 94170000 		.4byte	0x1794
 6657 1787 22       		.uleb128 0x22
 6658 1788 01       		.uleb128 0x1
ARM GAS  C:\Users\danit\AppData\Local\Temp\cc88b6Ga.s 			page 119


 6659 1789 51       		.byte	0x51
 6660 178a 03       		.uleb128 0x3
 6661 178b 0A       		.byte	0xa
 6662 178c 7245     		.2byte	0x4572
 6663 178e 22       		.uleb128 0x22
 6664 178f 01       		.uleb128 0x1
 6665 1790 50       		.byte	0x50
 6666 1791 01       		.uleb128 0x1
 6667 1792 30       		.byte	0x30
 6668 1793 00       		.byte	0
 6669 1794 21       		.uleb128 0x21
 6670 1795 72000000 		.4byte	.LVL289
 6671 1799 91240000 		.4byte	0x2491
 6672 179d AD170000 		.4byte	0x17ad
 6673 17a1 22       		.uleb128 0x22
 6674 17a2 01       		.uleb128 0x1
 6675 17a3 51       		.byte	0x51
 6676 17a4 01       		.uleb128 0x1
 6677 17a5 35       		.byte	0x35
 6678 17a6 22       		.uleb128 0x22
 6679 17a7 01       		.uleb128 0x1
 6680 17a8 50       		.byte	0x50
 6681 17a9 02       		.uleb128 0x2
 6682 17aa 08       		.byte	0x8
 6683 17ab 41       		.byte	0x41
 6684 17ac 00       		.byte	0
 6685 17ad 21       		.uleb128 0x21
 6686 17ae 7C000000 		.4byte	.LVL290
 6687 17b2 83230000 		.4byte	0x2383
 6688 17b6 C7170000 		.4byte	0x17c7
 6689 17ba 22       		.uleb128 0x22
 6690 17bb 01       		.uleb128 0x1
 6691 17bc 51       		.byte	0x51
 6692 17bd 03       		.uleb128 0x3
 6693 17be 0A       		.byte	0xa
 6694 17bf 9944     		.2byte	0x4499
 6695 17c1 22       		.uleb128 0x22
 6696 17c2 01       		.uleb128 0x1
 6697 17c3 50       		.byte	0x50
 6698 17c4 01       		.uleb128 0x1
 6699 17c5 30       		.byte	0x30
 6700 17c6 00       		.byte	0
 6701 17c7 21       		.uleb128 0x21
 6702 17c8 86000000 		.4byte	.LVL291
 6703 17cc A4230000 		.4byte	0x23a4
 6704 17d0 E6170000 		.4byte	0x17e6
 6705 17d4 22       		.uleb128 0x22
 6706 17d5 01       		.uleb128 0x1
 6707 17d6 52       		.byte	0x52
 6708 17d7 01       		.uleb128 0x1
 6709 17d8 30       		.byte	0x30
 6710 17d9 22       		.uleb128 0x22
 6711 17da 01       		.uleb128 0x1
 6712 17db 51       		.byte	0x51
 6713 17dc 02       		.uleb128 0x2
 6714 17dd 08       		.byte	0x8
 6715 17de 4F       		.byte	0x4f
ARM GAS  C:\Users\danit\AppData\Local\Temp\cc88b6Ga.s 			page 120


 6716 17df 22       		.uleb128 0x22
 6717 17e0 01       		.uleb128 0x1
 6718 17e1 50       		.byte	0x50
 6719 17e2 02       		.uleb128 0x2
 6720 17e3 08       		.byte	0x8
 6721 17e4 6C       		.byte	0x6c
 6722 17e5 00       		.byte	0
 6723 17e6 21       		.uleb128 0x21
 6724 17e7 90000000 		.4byte	.LVL292
 6725 17eb 83230000 		.4byte	0x2383
 6726 17ef 00180000 		.4byte	0x1800
 6727 17f3 22       		.uleb128 0x22
 6728 17f4 01       		.uleb128 0x1
 6729 17f5 51       		.byte	0x51
 6730 17f6 03       		.uleb128 0x3
 6731 17f7 0A       		.byte	0xa
 6732 17f8 9944     		.2byte	0x4499
 6733 17fa 22       		.uleb128 0x22
 6734 17fb 01       		.uleb128 0x1
 6735 17fc 50       		.byte	0x50
 6736 17fd 01       		.uleb128 0x1
 6737 17fe 30       		.byte	0x30
 6738 17ff 00       		.byte	0
 6739 1800 21       		.uleb128 0x21
 6740 1801 9A000000 		.4byte	.LVL293
 6741 1805 A4230000 		.4byte	0x23a4
 6742 1809 1F180000 		.4byte	0x181f
 6743 180d 22       		.uleb128 0x22
 6744 180e 01       		.uleb128 0x1
 6745 180f 52       		.byte	0x52
 6746 1810 01       		.uleb128 0x1
 6747 1811 30       		.byte	0x30
 6748 1812 22       		.uleb128 0x22
 6749 1813 01       		.uleb128 0x1
 6750 1814 51       		.byte	0x51
 6751 1815 02       		.uleb128 0x2
 6752 1816 08       		.byte	0x8
 6753 1817 E4       		.byte	0xe4
 6754 1818 22       		.uleb128 0x22
 6755 1819 01       		.uleb128 0x1
 6756 181a 50       		.byte	0x50
 6757 181b 02       		.uleb128 0x2
 6758 181c 08       		.byte	0x8
 6759 181d 6C       		.byte	0x6c
 6760 181e 00       		.byte	0
 6761 181f 21       		.uleb128 0x21
 6762 1820 A4000000 		.4byte	.LVL294
 6763 1824 83230000 		.4byte	0x2383
 6764 1828 39180000 		.4byte	0x1839
 6765 182c 22       		.uleb128 0x22
 6766 182d 01       		.uleb128 0x1
 6767 182e 51       		.byte	0x51
 6768 182f 03       		.uleb128 0x3
 6769 1830 0A       		.byte	0xa
 6770 1831 9944     		.2byte	0x4499
 6771 1833 22       		.uleb128 0x22
 6772 1834 01       		.uleb128 0x1
ARM GAS  C:\Users\danit\AppData\Local\Temp\cc88b6Ga.s 			page 121


 6773 1835 50       		.byte	0x50
 6774 1836 01       		.uleb128 0x1
 6775 1837 30       		.byte	0x30
 6776 1838 00       		.byte	0
 6777 1839 21       		.uleb128 0x21
 6778 183a AE000000 		.4byte	.LVL295
 6779 183e A4230000 		.4byte	0x23a4
 6780 1842 58180000 		.4byte	0x1858
 6781 1846 22       		.uleb128 0x22
 6782 1847 01       		.uleb128 0x1
 6783 1848 52       		.byte	0x52
 6784 1849 01       		.uleb128 0x1
 6785 184a 30       		.byte	0x30
 6786 184b 22       		.uleb128 0x22
 6787 184c 01       		.uleb128 0x1
 6788 184d 51       		.byte	0x51
 6789 184e 02       		.uleb128 0x2
 6790 184f 08       		.byte	0x8
 6791 1850 4F       		.byte	0x4f
 6792 1851 22       		.uleb128 0x22
 6793 1852 01       		.uleb128 0x1
 6794 1853 50       		.byte	0x50
 6795 1854 02       		.uleb128 0x2
 6796 1855 08       		.byte	0x8
 6797 1856 42       		.byte	0x42
 6798 1857 00       		.byte	0
 6799 1858 21       		.uleb128 0x21
 6800 1859 B8000000 		.4byte	.LVL296
 6801 185d 83230000 		.4byte	0x2383
 6802 1861 72180000 		.4byte	0x1872
 6803 1865 22       		.uleb128 0x22
 6804 1866 01       		.uleb128 0x1
 6805 1867 51       		.byte	0x51
 6806 1868 03       		.uleb128 0x3
 6807 1869 0A       		.byte	0xa
 6808 186a 9944     		.2byte	0x4499
 6809 186c 22       		.uleb128 0x22
 6810 186d 01       		.uleb128 0x1
 6811 186e 50       		.byte	0x50
 6812 186f 01       		.uleb128 0x1
 6813 1870 30       		.byte	0x30
 6814 1871 00       		.byte	0
 6815 1872 21       		.uleb128 0x21
 6816 1873 C2000000 		.4byte	.LVL297
 6817 1877 A4230000 		.4byte	0x23a4
 6818 187b 91180000 		.4byte	0x1891
 6819 187f 22       		.uleb128 0x22
 6820 1880 01       		.uleb128 0x1
 6821 1881 52       		.byte	0x52
 6822 1882 01       		.uleb128 0x1
 6823 1883 30       		.byte	0x30
 6824 1884 22       		.uleb128 0x22
 6825 1885 01       		.uleb128 0x1
 6826 1886 51       		.byte	0x51
 6827 1887 02       		.uleb128 0x2
 6828 1888 08       		.byte	0x8
 6829 1889 E4       		.byte	0xe4
ARM GAS  C:\Users\danit\AppData\Local\Temp\cc88b6Ga.s 			page 122


 6830 188a 22       		.uleb128 0x22
 6831 188b 01       		.uleb128 0x1
 6832 188c 50       		.byte	0x50
 6833 188d 02       		.uleb128 0x2
 6834 188e 08       		.byte	0x8
 6835 188f 42       		.byte	0x42
 6836 1890 00       		.byte	0
 6837 1891 21       		.uleb128 0x21
 6838 1892 CA000000 		.4byte	.LVL298
 6839 1896 83230000 		.4byte	0x2383
 6840 189a AA180000 		.4byte	0x18aa
 6841 189e 22       		.uleb128 0x22
 6842 189f 01       		.uleb128 0x1
 6843 18a0 51       		.byte	0x51
 6844 18a1 02       		.uleb128 0x2
 6845 18a2 08       		.byte	0x8
 6846 18a3 28       		.byte	0x28
 6847 18a4 22       		.uleb128 0x22
 6848 18a5 01       		.uleb128 0x1
 6849 18a6 50       		.byte	0x50
 6850 18a7 01       		.uleb128 0x1
 6851 18a8 30       		.byte	0x30
 6852 18a9 00       		.byte	0
 6853 18aa 21       		.uleb128 0x21
 6854 18ab D4000000 		.4byte	.LVL299
 6855 18af A4230000 		.4byte	0x23a4
 6856 18b3 C9180000 		.4byte	0x18c9
 6857 18b7 22       		.uleb128 0x22
 6858 18b8 01       		.uleb128 0x1
 6859 18b9 52       		.byte	0x52
 6860 18ba 01       		.uleb128 0x1
 6861 18bb 32       		.byte	0x32
 6862 18bc 22       		.uleb128 0x22
 6863 18bd 01       		.uleb128 0x1
 6864 18be 51       		.byte	0x51
 6865 18bf 02       		.uleb128 0x2
 6866 18c0 08       		.byte	0x8
 6867 18c1 69       		.byte	0x69
 6868 18c2 22       		.uleb128 0x22
 6869 18c3 01       		.uleb128 0x1
 6870 18c4 50       		.byte	0x50
 6871 18c5 02       		.uleb128 0x2
 6872 18c6 08       		.byte	0x8
 6873 18c7 66       		.byte	0x66
 6874 18c8 00       		.byte	0
 6875 18c9 21       		.uleb128 0x21
 6876 18ca DC000000 		.4byte	.LVL300
 6877 18ce 83230000 		.4byte	0x2383
 6878 18d2 E2180000 		.4byte	0x18e2
 6879 18d6 22       		.uleb128 0x22
 6880 18d7 01       		.uleb128 0x1
 6881 18d8 51       		.byte	0x51
 6882 18d9 02       		.uleb128 0x2
 6883 18da 08       		.byte	0x8
 6884 18db 28       		.byte	0x28
 6885 18dc 22       		.uleb128 0x22
 6886 18dd 01       		.uleb128 0x1
ARM GAS  C:\Users\danit\AppData\Local\Temp\cc88b6Ga.s 			page 123


 6887 18de 50       		.byte	0x50
 6888 18df 01       		.uleb128 0x1
 6889 18e0 30       		.byte	0x30
 6890 18e1 00       		.byte	0
 6891 18e2 21       		.uleb128 0x21
 6892 18e3 E6000000 		.4byte	.LVL301
 6893 18e7 A4230000 		.4byte	0x23a4
 6894 18eb 01190000 		.4byte	0x1901
 6895 18ef 22       		.uleb128 0x22
 6896 18f0 01       		.uleb128 0x1
 6897 18f1 52       		.byte	0x52
 6898 18f2 01       		.uleb128 0x1
 6899 18f3 31       		.byte	0x31
 6900 18f4 22       		.uleb128 0x22
 6901 18f5 01       		.uleb128 0x1
 6902 18f6 51       		.byte	0x51
 6903 18f7 02       		.uleb128 0x2
 6904 18f8 08       		.byte	0x8
 6905 18f9 69       		.byte	0x69
 6906 18fa 22       		.uleb128 0x22
 6907 18fb 01       		.uleb128 0x1
 6908 18fc 50       		.byte	0x50
 6909 18fd 02       		.uleb128 0x2
 6910 18fe 08       		.byte	0x8
 6911 18ff 41       		.byte	0x41
 6912 1900 00       		.byte	0
 6913 1901 21       		.uleb128 0x21
 6914 1902 EE000000 		.4byte	.LVL302
 6915 1906 83230000 		.4byte	0x2383
 6916 190a 1A190000 		.4byte	0x191a
 6917 190e 22       		.uleb128 0x22
 6918 190f 01       		.uleb128 0x1
 6919 1910 51       		.byte	0x51
 6920 1911 02       		.uleb128 0x2
 6921 1912 08       		.byte	0x8
 6922 1913 28       		.byte	0x28
 6923 1914 22       		.uleb128 0x22
 6924 1915 01       		.uleb128 0x1
 6925 1916 50       		.byte	0x50
 6926 1917 01       		.uleb128 0x1
 6927 1918 30       		.byte	0x30
 6928 1919 00       		.byte	0
 6929 191a 21       		.uleb128 0x21
 6930 191b F8000000 		.4byte	.LVL303
 6931 191f A4230000 		.4byte	0x23a4
 6932 1923 39190000 		.4byte	0x1939
 6933 1927 22       		.uleb128 0x22
 6934 1928 01       		.uleb128 0x1
 6935 1929 52       		.byte	0x52
 6936 192a 01       		.uleb128 0x1
 6937 192b 30       		.byte	0x30
 6938 192c 22       		.uleb128 0x22
 6939 192d 01       		.uleb128 0x1
 6940 192e 51       		.byte	0x51
 6941 192f 02       		.uleb128 0x2
 6942 1930 08       		.byte	0x8
 6943 1931 F9       		.byte	0xf9
ARM GAS  C:\Users\danit\AppData\Local\Temp\cc88b6Ga.s 			page 124


 6944 1932 22       		.uleb128 0x22
 6945 1933 01       		.uleb128 0x1
 6946 1934 50       		.byte	0x50
 6947 1935 02       		.uleb128 0x2
 6948 1936 08       		.byte	0x8
 6949 1937 66       		.byte	0x66
 6950 1938 00       		.byte	0
 6951 1939 21       		.uleb128 0x21
 6952 193a 00010000 		.4byte	.LVL304
 6953 193e 83230000 		.4byte	0x2383
 6954 1942 52190000 		.4byte	0x1952
 6955 1946 22       		.uleb128 0x22
 6956 1947 01       		.uleb128 0x1
 6957 1948 51       		.byte	0x51
 6958 1949 02       		.uleb128 0x2
 6959 194a 08       		.byte	0x8
 6960 194b 28       		.byte	0x28
 6961 194c 22       		.uleb128 0x22
 6962 194d 01       		.uleb128 0x1
 6963 194e 50       		.byte	0x50
 6964 194f 01       		.uleb128 0x1
 6965 1950 30       		.byte	0x30
 6966 1951 00       		.byte	0
 6967 1952 21       		.uleb128 0x21
 6968 1953 0A010000 		.4byte	.LVL305
 6969 1957 A4230000 		.4byte	0x23a4
 6970 195b 71190000 		.4byte	0x1971
 6971 195f 22       		.uleb128 0x22
 6972 1960 01       		.uleb128 0x1
 6973 1961 52       		.byte	0x52
 6974 1962 01       		.uleb128 0x1
 6975 1963 30       		.byte	0x30
 6976 1964 22       		.uleb128 0x22
 6977 1965 01       		.uleb128 0x1
 6978 1966 51       		.byte	0x51
 6979 1967 02       		.uleb128 0x2
 6980 1968 08       		.byte	0x8
 6981 1969 F9       		.byte	0xf9
 6982 196a 22       		.uleb128 0x22
 6983 196b 01       		.uleb128 0x1
 6984 196c 50       		.byte	0x50
 6985 196d 02       		.uleb128 0x2
 6986 196e 08       		.byte	0x8
 6987 196f 41       		.byte	0x41
 6988 1970 00       		.byte	0
 6989 1971 21       		.uleb128 0x21
 6990 1972 14010000 		.4byte	.LVL306
 6991 1976 83230000 		.4byte	0x2383
 6992 197a 8B190000 		.4byte	0x198b
 6993 197e 22       		.uleb128 0x22
 6994 197f 01       		.uleb128 0x1
 6995 1980 51       		.byte	0x51
 6996 1981 03       		.uleb128 0x3
 6997 1982 0A       		.byte	0xa
 6998 1983 3719     		.2byte	0x1937
 6999 1985 22       		.uleb128 0x22
 7000 1986 01       		.uleb128 0x1
ARM GAS  C:\Users\danit\AppData\Local\Temp\cc88b6Ga.s 			page 125


 7001 1987 50       		.byte	0x50
 7002 1988 01       		.uleb128 0x1
 7003 1989 30       		.byte	0x30
 7004 198a 00       		.byte	0
 7005 198b 29       		.uleb128 0x29
 7006 198c 24010000 		.4byte	.LVL307
 7007 1990 A4230000 		.4byte	0x23a4
 7008 1994 22       		.uleb128 0x22
 7009 1995 01       		.uleb128 0x1
 7010 1996 52       		.byte	0x52
 7011 1997 01       		.uleb128 0x1
 7012 1998 30       		.byte	0x30
 7013 1999 22       		.uleb128 0x22
 7014 199a 01       		.uleb128 0x1
 7015 199b 51       		.byte	0x51
 7016 199c 01       		.uleb128 0x1
 7017 199d 30       		.byte	0x30
 7018 199e 22       		.uleb128 0x22
 7019 199f 01       		.uleb128 0x1
 7020 19a0 50       		.byte	0x50
 7021 19a1 01       		.uleb128 0x1
 7022 19a2 33       		.byte	0x33
 7023 19a3 00       		.byte	0
 7024 19a4 00       		.byte	0
 7025 19a5 28       		.uleb128 0x28
 7026 19a6 B2070000 		.4byte	.LASF202
 7027 19aa 01       		.byte	0x1
 7028 19ab AD       		.byte	0xad
 7029 19ac 00000000 		.4byte	.LFB122
 7030 19b0 F4000000 		.4byte	.LFE122-.LFB122
 7031 19b4 01       		.uleb128 0x1
 7032 19b5 9C       		.byte	0x9c
 7033 19b6 161C0000 		.4byte	0x1c16
 7034 19ba 2A       		.uleb128 0x2a
 7035 19bb D2050000 		.4byte	.LASF203
 7036 19bf 01       		.byte	0x1
 7037 19c0 AD       		.byte	0xad
 7038 19c1 33000000 		.4byte	0x33
 7039 19c5 1E050000 		.4byte	.LLST4
 7040 19c9 21       		.uleb128 0x21
 7041 19ca 0A000000 		.4byte	.LVL310
 7042 19ce 42240000 		.4byte	0x2442
 7043 19d2 DC190000 		.4byte	0x19dc
 7044 19d6 22       		.uleb128 0x22
 7045 19d7 01       		.uleb128 0x1
 7046 19d8 50       		.byte	0x50
 7047 19d9 01       		.uleb128 0x1
 7048 19da 31       		.byte	0x31
 7049 19db 00       		.byte	0
 7050 19dc 21       		.uleb128 0x21
 7051 19dd 10000000 		.4byte	.LVL311
 7052 19e1 53240000 		.4byte	0x2453
 7053 19e5 EF190000 		.4byte	0x19ef
 7054 19e9 22       		.uleb128 0x22
 7055 19ea 01       		.uleb128 0x1
 7056 19eb 50       		.byte	0x50
 7057 19ec 01       		.uleb128 0x1
ARM GAS  C:\Users\danit\AppData\Local\Temp\cc88b6Ga.s 			page 126


 7058 19ed 4F       		.byte	0x4f
 7059 19ee 00       		.byte	0
 7060 19ef 21       		.uleb128 0x21
 7061 19f0 18000000 		.4byte	.LVL312
 7062 19f4 83230000 		.4byte	0x2383
 7063 19f8 081A0000 		.4byte	0x1a08
 7064 19fc 22       		.uleb128 0x22
 7065 19fd 01       		.uleb128 0x1
 7066 19fe 51       		.byte	0x51
 7067 19ff 02       		.uleb128 0x2
 7068 1a00 08       		.byte	0x8
 7069 1a01 8A       		.byte	0x8a
 7070 1a02 22       		.uleb128 0x22
 7071 1a03 01       		.uleb128 0x1
 7072 1a04 50       		.byte	0x50
 7073 1a05 01       		.uleb128 0x1
 7074 1a06 30       		.byte	0x30
 7075 1a07 00       		.byte	0
 7076 1a08 21       		.uleb128 0x21
 7077 1a09 2C000000 		.4byte	.LVL313
 7078 1a0d A4230000 		.4byte	0x23a4
 7079 1a11 3F1A0000 		.4byte	0x1a3f
 7080 1a15 22       		.uleb128 0x22
 7081 1a16 01       		.uleb128 0x1
 7082 1a17 52       		.byte	0x52
 7083 1a18 1A       		.uleb128 0x1a
 7084 1a19 75       		.byte	0x75
 7085 1a1a 00       		.sleb128 0
 7086 1a1b F7       		.byte	0xf7
 7087 1a1c 33       		.uleb128 0x33
 7088 1a1d F7       		.byte	0xf7
 7089 1a1e 25       		.uleb128 0x25
 7090 1a1f 0C       		.byte	0xc
 7091 1a20 67666666 		.4byte	0x66666667
 7092 1a24 F7       		.byte	0xf7
 7093 1a25 25       		.uleb128 0x25
 7094 1a26 1E       		.byte	0x1e
 7095 1a27 08       		.byte	0x8
 7096 1a28 20       		.byte	0x20
 7097 1a29 F7       		.byte	0xf7
 7098 1a2a 25       		.uleb128 0x25
 7099 1a2b 25       		.byte	0x25
 7100 1a2c F7       		.byte	0xf7
 7101 1a2d 2C       		.uleb128 0x2c
 7102 1a2e 31       		.byte	0x31
 7103 1a2f 26       		.byte	0x26
 7104 1a30 74       		.byte	0x74
 7105 1a31 00       		.sleb128 0
 7106 1a32 1C       		.byte	0x1c
 7107 1a33 22       		.uleb128 0x22
 7108 1a34 01       		.uleb128 0x1
 7109 1a35 51       		.byte	0x51
 7110 1a36 01       		.uleb128 0x1
 7111 1a37 45       		.byte	0x45
 7112 1a38 22       		.uleb128 0x22
 7113 1a39 01       		.uleb128 0x1
 7114 1a3a 50       		.byte	0x50
ARM GAS  C:\Users\danit\AppData\Local\Temp\cc88b6Ga.s 			page 127


 7115 1a3b 02       		.uleb128 0x2
 7116 1a3c 08       		.byte	0x8
 7117 1a3d 94       		.byte	0x94
 7118 1a3e 00       		.byte	0
 7119 1a3f 21       		.uleb128 0x21
 7120 1a40 34000000 		.4byte	.LVL314
 7121 1a44 83230000 		.4byte	0x2383
 7122 1a48 581A0000 		.4byte	0x1a58
 7123 1a4c 22       		.uleb128 0x22
 7124 1a4d 01       		.uleb128 0x1
 7125 1a4e 51       		.byte	0x51
 7126 1a4f 02       		.uleb128 0x2
 7127 1a50 08       		.byte	0x8
 7128 1a51 6A       		.byte	0x6a
 7129 1a52 22       		.uleb128 0x22
 7130 1a53 01       		.uleb128 0x1
 7131 1a54 50       		.byte	0x50
 7132 1a55 01       		.uleb128 0x1
 7133 1a56 30       		.byte	0x30
 7134 1a57 00       		.byte	0
 7135 1a58 21       		.uleb128 0x21
 7136 1a59 3C000000 		.4byte	.LVL315
 7137 1a5d 91240000 		.4byte	0x2491
 7138 1a61 721A0000 		.4byte	0x1a72
 7139 1a65 22       		.uleb128 0x22
 7140 1a66 01       		.uleb128 0x1
 7141 1a67 51       		.byte	0x51
 7142 1a68 02       		.uleb128 0x2
 7143 1a69 08       		.byte	0x8
 7144 1a6a CC       		.byte	0xcc
 7145 1a6b 22       		.uleb128 0x22
 7146 1a6c 01       		.uleb128 0x1
 7147 1a6d 50       		.byte	0x50
 7148 1a6e 02       		.uleb128 0x2
 7149 1a6f 08       		.byte	0x8
 7150 1a70 A8       		.byte	0xa8
 7151 1a71 00       		.byte	0
 7152 1a72 21       		.uleb128 0x21
 7153 1a73 46000000 		.4byte	.LVL316
 7154 1a77 83230000 		.4byte	0x2383
 7155 1a7b 8C1A0000 		.4byte	0x1a8c
 7156 1a7f 22       		.uleb128 0x22
 7157 1a80 01       		.uleb128 0x1
 7158 1a81 51       		.byte	0x51
 7159 1a82 03       		.uleb128 0x3
 7160 1a83 0A       		.byte	0xa
 7161 1a84 8C44     		.2byte	0x448c
 7162 1a86 22       		.uleb128 0x22
 7163 1a87 01       		.uleb128 0x1
 7164 1a88 50       		.byte	0x50
 7165 1a89 01       		.uleb128 0x1
 7166 1a8a 30       		.byte	0x30
 7167 1a8b 00       		.byte	0
 7168 1a8c 21       		.uleb128 0x21
 7169 1a8d 52000000 		.4byte	.LVL317
 7170 1a91 A4230000 		.4byte	0x23a4
 7171 1a95 AC1A0000 		.4byte	0x1aac
ARM GAS  C:\Users\danit\AppData\Local\Temp\cc88b6Ga.s 			page 128


 7172 1a99 22       		.uleb128 0x22
 7173 1a9a 01       		.uleb128 0x1
 7174 1a9b 52       		.byte	0x52
 7175 1a9c 01       		.uleb128 0x1
 7176 1a9d 30       		.byte	0x30
 7177 1a9e 22       		.uleb128 0x22
 7178 1a9f 01       		.uleb128 0x1
 7179 1aa0 51       		.byte	0x51
 7180 1aa1 02       		.uleb128 0x2
 7181 1aa2 08       		.byte	0x8
 7182 1aa3 F4       		.byte	0xf4
 7183 1aa4 22       		.uleb128 0x22
 7184 1aa5 01       		.uleb128 0x1
 7185 1aa6 50       		.byte	0x50
 7186 1aa7 03       		.uleb128 0x3
 7187 1aa8 0A       		.byte	0xa
 7188 1aa9 3B01     		.2byte	0x13b
 7189 1aab 00       		.byte	0
 7190 1aac 21       		.uleb128 0x21
 7191 1aad 5C000000 		.4byte	.LVL318
 7192 1ab1 83230000 		.4byte	0x2383
 7193 1ab5 C61A0000 		.4byte	0x1ac6
 7194 1ab9 22       		.uleb128 0x22
 7195 1aba 01       		.uleb128 0x1
 7196 1abb 51       		.byte	0x51
 7197 1abc 03       		.uleb128 0x3
 7198 1abd 0A       		.byte	0xa
 7199 1abe 8C44     		.2byte	0x448c
 7200 1ac0 22       		.uleb128 0x22
 7201 1ac1 01       		.uleb128 0x1
 7202 1ac2 50       		.byte	0x50
 7203 1ac3 01       		.uleb128 0x1
 7204 1ac4 30       		.byte	0x30
 7205 1ac5 00       		.byte	0
 7206 1ac6 21       		.uleb128 0x21
 7207 1ac7 68000000 		.4byte	.LVL319
 7208 1acb A4230000 		.4byte	0x23a4
 7209 1acf E61A0000 		.4byte	0x1ae6
 7210 1ad3 22       		.uleb128 0x22
 7211 1ad4 01       		.uleb128 0x1
 7212 1ad5 52       		.byte	0x52
 7213 1ad6 01       		.uleb128 0x1
 7214 1ad7 30       		.byte	0x30
 7215 1ad8 22       		.uleb128 0x22
 7216 1ad9 01       		.uleb128 0x1
 7217 1ada 51       		.byte	0x51
 7218 1adb 02       		.uleb128 0x2
 7219 1adc 08       		.byte	0x8
 7220 1add 21       		.byte	0x21
 7221 1ade 22       		.uleb128 0x22
 7222 1adf 01       		.uleb128 0x1
 7223 1ae0 50       		.byte	0x50
 7224 1ae1 03       		.uleb128 0x3
 7225 1ae2 0A       		.byte	0xa
 7226 1ae3 3B01     		.2byte	0x13b
 7227 1ae5 00       		.byte	0
 7228 1ae6 21       		.uleb128 0x21
ARM GAS  C:\Users\danit\AppData\Local\Temp\cc88b6Ga.s 			page 129


 7229 1ae7 7C000000 		.4byte	.LVL320
 7230 1aeb 83230000 		.4byte	0x2383
 7231 1aef 001B0000 		.4byte	0x1b00
 7232 1af3 22       		.uleb128 0x22
 7233 1af4 01       		.uleb128 0x1
 7234 1af5 51       		.byte	0x51
 7235 1af6 03       		.uleb128 0x3
 7236 1af7 0A       		.byte	0xa
 7237 1af8 B344     		.2byte	0x44b3
 7238 1afa 22       		.uleb128 0x22
 7239 1afb 01       		.uleb128 0x1
 7240 1afc 50       		.byte	0x50
 7241 1afd 01       		.uleb128 0x1
 7242 1afe 30       		.byte	0x30
 7243 1aff 00       		.byte	0
 7244 1b00 21       		.uleb128 0x21
 7245 1b01 86000000 		.4byte	.LVL321
 7246 1b05 A4230000 		.4byte	0x23a4
 7247 1b09 1F1B0000 		.4byte	0x1b1f
 7248 1b0d 22       		.uleb128 0x22
 7249 1b0e 01       		.uleb128 0x1
 7250 1b0f 52       		.byte	0x52
 7251 1b10 01       		.uleb128 0x1
 7252 1b11 3A       		.byte	0x3a
 7253 1b12 22       		.uleb128 0x22
 7254 1b13 01       		.uleb128 0x1
 7255 1b14 51       		.byte	0x51
 7256 1b15 02       		.uleb128 0x2
 7257 1b16 08       		.byte	0x8
 7258 1b17 43       		.byte	0x43
 7259 1b18 22       		.uleb128 0x22
 7260 1b19 01       		.uleb128 0x1
 7261 1b1a 50       		.byte	0x50
 7262 1b1b 02       		.uleb128 0x2
 7263 1b1c 08       		.byte	0x8
 7264 1b1d BA       		.byte	0xba
 7265 1b1e 00       		.byte	0
 7266 1b1f 21       		.uleb128 0x21
 7267 1b20 90000000 		.4byte	.LVL322
 7268 1b24 83230000 		.4byte	0x2383
 7269 1b28 391B0000 		.4byte	0x1b39
 7270 1b2c 22       		.uleb128 0x22
 7271 1b2d 01       		.uleb128 0x1
 7272 1b2e 51       		.byte	0x51
 7273 1b2f 03       		.uleb128 0x3
 7274 1b30 0A       		.byte	0xa
 7275 1b31 B344     		.2byte	0x44b3
 7276 1b33 22       		.uleb128 0x22
 7277 1b34 01       		.uleb128 0x1
 7278 1b35 50       		.byte	0x50
 7279 1b36 01       		.uleb128 0x1
 7280 1b37 30       		.byte	0x30
 7281 1b38 00       		.byte	0
 7282 1b39 21       		.uleb128 0x21
 7283 1b3a B4000000 		.4byte	.LVL323
 7284 1b3e A4230000 		.4byte	0x23a4
 7285 1b42 7A1B0000 		.4byte	0x1b7a
ARM GAS  C:\Users\danit\AppData\Local\Temp\cc88b6Ga.s 			page 130


 7286 1b46 22       		.uleb128 0x22
 7287 1b47 01       		.uleb128 0x1
 7288 1b48 52       		.byte	0x52
 7289 1b49 23       		.uleb128 0x23
 7290 1b4a 74       		.byte	0x74
 7291 1b4b 00       		.sleb128 0
 7292 1b4c 74       		.byte	0x74
 7293 1b4d 00       		.sleb128 0
 7294 1b4e F7       		.byte	0xf7
 7295 1b4f 33       		.uleb128 0x33
 7296 1b50 F7       		.byte	0xf7
 7297 1b51 25       		.uleb128 0x25
 7298 1b52 0C       		.byte	0xc
 7299 1b53 67666666 		.4byte	0x66666667
 7300 1b57 F7       		.byte	0xf7
 7301 1b58 25       		.uleb128 0x25
 7302 1b59 1E       		.byte	0x1e
 7303 1b5a 08       		.byte	0x8
 7304 1b5b 20       		.byte	0x20
 7305 1b5c F7       		.byte	0xf7
 7306 1b5d 25       		.uleb128 0x25
 7307 1b5e 25       		.byte	0x25
 7308 1b5f F7       		.byte	0xf7
 7309 1b60 2C       		.uleb128 0x2c
 7310 1b61 32       		.byte	0x32
 7311 1b62 26       		.byte	0x26
 7312 1b63 74       		.byte	0x74
 7313 1b64 00       		.sleb128 0
 7314 1b65 4F       		.byte	0x4f
 7315 1b66 26       		.byte	0x26
 7316 1b67 1C       		.byte	0x1c
 7317 1b68 35       		.byte	0x35
 7318 1b69 1E       		.byte	0x1e
 7319 1b6a 31       		.byte	0x31
 7320 1b6b 24       		.byte	0x24
 7321 1b6c 1C       		.byte	0x1c
 7322 1b6d 22       		.uleb128 0x22
 7323 1b6e 01       		.uleb128 0x1
 7324 1b6f 51       		.byte	0x51
 7325 1b70 02       		.uleb128 0x2
 7326 1b71 08       		.byte	0x8
 7327 1b72 75       		.byte	0x75
 7328 1b73 22       		.uleb128 0x22
 7329 1b74 01       		.uleb128 0x1
 7330 1b75 50       		.byte	0x50
 7331 1b76 02       		.uleb128 0x2
 7332 1b77 08       		.byte	0x8
 7333 1b78 BA       		.byte	0xba
 7334 1b79 00       		.byte	0
 7335 1b7a 21       		.uleb128 0x21
 7336 1b7b BE000000 		.4byte	.LVL324
 7337 1b7f 83230000 		.4byte	0x2383
 7338 1b83 941B0000 		.4byte	0x1b94
 7339 1b87 22       		.uleb128 0x22
 7340 1b88 01       		.uleb128 0x1
 7341 1b89 51       		.byte	0x51
 7342 1b8a 03       		.uleb128 0x3
ARM GAS  C:\Users\danit\AppData\Local\Temp\cc88b6Ga.s 			page 131


 7343 1b8b 0A       		.byte	0xa
 7344 1b8c B344     		.2byte	0x44b3
 7345 1b8e 22       		.uleb128 0x22
 7346 1b8f 01       		.uleb128 0x1
 7347 1b90 50       		.byte	0x50
 7348 1b91 01       		.uleb128 0x1
 7349 1b92 30       		.byte	0x30
 7350 1b93 00       		.byte	0
 7351 1b94 2B       		.uleb128 0x2b
 7352 1b95 D2000000 		.4byte	.LVL326
 7353 1b99 A4230000 		.4byte	0x23a4
 7354 1b9d D81B0000 		.4byte	0x1bd8
 7355 1ba1 22       		.uleb128 0x22
 7356 1ba2 01       		.uleb128 0x1
 7357 1ba3 52       		.byte	0x52
 7358 1ba4 26       		.uleb128 0x26
 7359 1ba5 F3       		.byte	0xf3
 7360 1ba6 01       		.uleb128 0x1
 7361 1ba7 50       		.byte	0x50
 7362 1ba8 F3       		.byte	0xf3
 7363 1ba9 01       		.uleb128 0x1
 7364 1baa 50       		.byte	0x50
 7365 1bab F7       		.byte	0xf7
 7366 1bac 33       		.uleb128 0x33
 7367 1bad F7       		.byte	0xf7
 7368 1bae 25       		.uleb128 0x25
 7369 1baf 0C       		.byte	0xc
 7370 1bb0 67666666 		.4byte	0x66666667
 7371 1bb4 F7       		.byte	0xf7
 7372 1bb5 25       		.uleb128 0x25
 7373 1bb6 1E       		.byte	0x1e
 7374 1bb7 08       		.byte	0x8
 7375 1bb8 20       		.byte	0x20
 7376 1bb9 F7       		.byte	0xf7
 7377 1bba 25       		.uleb128 0x25
 7378 1bbb 25       		.byte	0x25
 7379 1bbc F7       		.byte	0xf7
 7380 1bbd 2C       		.uleb128 0x2c
 7381 1bbe 32       		.byte	0x32
 7382 1bbf 26       		.byte	0x26
 7383 1bc0 F3       		.byte	0xf3
 7384 1bc1 01       		.uleb128 0x1
 7385 1bc2 50       		.byte	0x50
 7386 1bc3 4F       		.byte	0x4f
 7387 1bc4 26       		.byte	0x26
 7388 1bc5 1C       		.byte	0x1c
 7389 1bc6 35       		.byte	0x35
 7390 1bc7 1E       		.byte	0x1e
 7391 1bc8 31       		.byte	0x31
 7392 1bc9 24       		.byte	0x24
 7393 1bca 1C       		.byte	0x1c
 7394 1bcb 22       		.uleb128 0x22
 7395 1bcc 01       		.uleb128 0x1
 7396 1bcd 51       		.byte	0x51
 7397 1bce 02       		.uleb128 0x2
 7398 1bcf 08       		.byte	0x8
 7399 1bd0 A7       		.byte	0xa7
ARM GAS  C:\Users\danit\AppData\Local\Temp\cc88b6Ga.s 			page 132


 7400 1bd1 22       		.uleb128 0x22
 7401 1bd2 01       		.uleb128 0x1
 7402 1bd3 50       		.byte	0x50
 7403 1bd4 02       		.uleb128 0x2
 7404 1bd5 08       		.byte	0x8
 7405 1bd6 BA       		.byte	0xba
 7406 1bd7 00       		.byte	0
 7407 1bd8 23       		.uleb128 0x23
 7408 1bd9 D6000000 		.4byte	.LVL327
 7409 1bdd 83230000 		.4byte	0x2383
 7410 1be1 24       		.uleb128 0x24
 7411 1be2 E8000000 		.4byte	.LVL328
 7412 1be6 A4230000 		.4byte	0x23a4
 7413 1bea 22       		.uleb128 0x22
 7414 1beb 01       		.uleb128 0x1
 7415 1bec 52       		.byte	0x52
 7416 1bed 1A       		.uleb128 0x1a
 7417 1bee 75       		.byte	0x75
 7418 1bef 00       		.sleb128 0
 7419 1bf0 F7       		.byte	0xf7
 7420 1bf1 33       		.uleb128 0x33
 7421 1bf2 F7       		.byte	0xf7
 7422 1bf3 25       		.uleb128 0x25
 7423 1bf4 0C       		.byte	0xc
 7424 1bf5 1F85EB51 		.4byte	0x51eb851f
 7425 1bf9 F7       		.byte	0xf7
 7426 1bfa 25       		.uleb128 0x25
 7427 1bfb 1E       		.byte	0x1e
 7428 1bfc 08       		.byte	0x8
 7429 1bfd 20       		.byte	0x20
 7430 1bfe F7       		.byte	0xf7
 7431 1bff 25       		.uleb128 0x25
 7432 1c00 25       		.byte	0x25
 7433 1c01 F7       		.byte	0xf7
 7434 1c02 2C       		.uleb128 0x2c
 7435 1c03 35       		.byte	0x35
 7436 1c04 26       		.byte	0x26
 7437 1c05 74       		.byte	0x74
 7438 1c06 00       		.sleb128 0
 7439 1c07 1C       		.byte	0x1c
 7440 1c08 22       		.uleb128 0x22
 7441 1c09 01       		.uleb128 0x1
 7442 1c0a 51       		.byte	0x51
 7443 1c0b 02       		.uleb128 0x2
 7444 1c0c 08       		.byte	0x8
 7445 1c0d 43       		.byte	0x43
 7446 1c0e 22       		.uleb128 0x22
 7447 1c0f 01       		.uleb128 0x1
 7448 1c10 50       		.byte	0x50
 7449 1c11 02       		.uleb128 0x2
 7450 1c12 08       		.byte	0x8
 7451 1c13 BA       		.byte	0xba
 7452 1c14 00       		.byte	0
 7453 1c15 00       		.byte	0
 7454 1c16 2C       		.uleb128 0x2c
 7455 1c17 13070000 		.4byte	.LASF204
 7456 1c1b 01       		.byte	0x1
ARM GAS  C:\Users\danit\AppData\Local\Temp\cc88b6Ga.s 			page 133


 7457 1c1c 6E03     		.2byte	0x36e
 7458 1c1e 00000000 		.4byte	.LFB124
 7459 1c22 60000000 		.4byte	.LFE124-.LFB124
 7460 1c26 01       		.uleb128 0x1
 7461 1c27 9C       		.byte	0x9c
 7462 1c28 8C1C0000 		.4byte	0x1c8c
 7463 1c2c 23       		.uleb128 0x23
 7464 1c2d 08000000 		.4byte	.LVL329
 7465 1c31 B8240000 		.4byte	0x24b8
 7466 1c35 23       		.uleb128 0x23
 7467 1c36 12000000 		.4byte	.LVL330
 7468 1c3a BF240000 		.4byte	0x24bf
 7469 1c3e 23       		.uleb128 0x23
 7470 1c3f 16000000 		.4byte	.LVL331
 7471 1c43 C3120000 		.4byte	0x12c3
 7472 1c47 23       		.uleb128 0x23
 7473 1c48 1A000000 		.4byte	.LVL332
 7474 1c4c 02150000 		.4byte	0x1502
 7475 1c50 23       		.uleb128 0x23
 7476 1c51 1E000000 		.4byte	.LVL333
 7477 1c55 51160000 		.4byte	0x1651
 7478 1c59 23       		.uleb128 0x23
 7479 1c5a 22000000 		.4byte	.LVL334
 7480 1c5e C6240000 		.4byte	0x24c6
 7481 1c62 24       		.uleb128 0x24
 7482 1c63 42000000 		.4byte	.LVL335
 7483 1c67 CD240000 		.4byte	0x24cd
 7484 1c6b 22       		.uleb128 0x22
 7485 1c6c 01       		.uleb128 0x1
 7486 1c6d 53       		.byte	0x53
 7487 1c6e 05       		.uleb128 0x5
 7488 1c6f 03       		.byte	0x3
 7489 1c70 00000000 		.4byte	dspTask
 7490 1c74 22       		.uleb128 0x22
 7491 1c75 01       		.uleb128 0x1
 7492 1c76 52       		.byte	0x52
 7493 1c77 02       		.uleb128 0x2
 7494 1c78 08       		.byte	0x8
 7495 1c79 47       		.byte	0x47
 7496 1c7a 22       		.uleb128 0x22
 7497 1c7b 01       		.uleb128 0x1
 7498 1c7c 51       		.byte	0x51
 7499 1c7d 03       		.uleb128 0x3
 7500 1c7e 0A       		.byte	0xa
 7501 1c7f D004     		.2byte	0x4d0
 7502 1c81 22       		.uleb128 0x22
 7503 1c82 01       		.uleb128 0x1
 7504 1c83 50       		.byte	0x50
 7505 1c84 05       		.uleb128 0x5
 7506 1c85 03       		.byte	0x3
 7507 1c86 00000000 		.4byte	.LANCHOR12
 7508 1c8a 00       		.byte	0
 7509 1c8b 00       		.byte	0
 7510 1c8c 2D       		.uleb128 0x2d
 7511 1c8d 2B090000 		.4byte	.LASF256
 7512 1c91 01       		.byte	0x1
 7513 1c92 7D03     		.2byte	0x37d
ARM GAS  C:\Users\danit\AppData\Local\Temp\cc88b6Ga.s 			page 134


 7514 1c94 FA000000 		.4byte	0xfa
 7515 1c98 00000000 		.4byte	.LFB125
 7516 1c9c 04000000 		.4byte	.LFE125-.LFB125
 7517 1ca0 01       		.uleb128 0x1
 7518 1ca1 9C       		.byte	0x9c
 7519 1ca2 B61C0000 		.4byte	0x1cb6
 7520 1ca6 2E       		.uleb128 0x2e
 7521 1ca7 636800   		.ascii	"ch\000"
 7522 1caa 01       		.byte	0x1
 7523 1cab 7D03     		.2byte	0x37d
 7524 1cad B8000000 		.4byte	0xb8
 7525 1cb1 55050000 		.4byte	.LLST5
 7526 1cb5 00       		.byte	0
 7527 1cb6 2F       		.uleb128 0x2f
 7528 1cb7 0E0B0000 		.4byte	.LASF205
 7529 1cbb 01       		.byte	0x1
 7530 1cbc 8303     		.2byte	0x383
 7531 1cbe CE000000 		.4byte	0xce
 7532 1cc2 00000000 		.4byte	.LFB126
 7533 1cc6 0C000000 		.4byte	.LFE126-.LFB126
 7534 1cca 01       		.uleb128 0x1
 7535 1ccb 9C       		.byte	0x9c
 7536 1ccc 2F       		.uleb128 0x2f
 7537 1ccd FA050000 		.4byte	.LASF206
 7538 1cd1 01       		.byte	0x1
 7539 1cd2 8703     		.2byte	0x387
 7540 1cd4 FA000000 		.4byte	0xfa
 7541 1cd8 00000000 		.4byte	.LFB127
 7542 1cdc 0C000000 		.4byte	.LFE127-.LFB127
 7543 1ce0 01       		.uleb128 0x1
 7544 1ce1 9C       		.byte	0x9c
 7545 1ce2 2C       		.uleb128 0x2c
 7546 1ce3 F4070000 		.4byte	.LASF207
 7547 1ce7 01       		.byte	0x1
 7548 1ce8 8B03     		.2byte	0x38b
 7549 1cea 00000000 		.4byte	.LFB128
 7550 1cee 08010000 		.4byte	.LFE128-.LFB128
 7551 1cf2 01       		.uleb128 0x1
 7552 1cf3 9C       		.byte	0x9c
 7553 1cf4 011F0000 		.4byte	0x1f01
 7554 1cf8 2E       		.uleb128 0x2e
 7555 1cf9 63687000 		.ascii	"chp\000"
 7556 1cfd 01       		.byte	0x1
 7557 1cfe 8B03     		.2byte	0x38b
 7558 1d00 BD120000 		.4byte	0x12bd
 7559 1d04 68050000 		.4byte	.LLST6
 7560 1d08 30       		.uleb128 0x30
 7561 1d09 00070000 		.4byte	.LASF208
 7562 1d0d 01       		.byte	0x1
 7563 1d0e 8B03     		.2byte	0x38b
 7564 1d10 33000000 		.4byte	0x33
 7565 1d14 94050000 		.4byte	.LLST7
 7566 1d18 30       		.uleb128 0x30
 7567 1d19 58040000 		.4byte	.LASF209
 7568 1d1d 01       		.byte	0x1
 7569 1d1e 8B03     		.2byte	0x38b
 7570 1d20 011F0000 		.4byte	0x1f01
ARM GAS  C:\Users\danit\AppData\Local\Temp\cc88b6Ga.s 			page 135


 7571 1d24 B5050000 		.4byte	.LLST8
 7572 1d28 31       		.uleb128 0x31
 7573 1d29 6900     		.ascii	"i\000"
 7574 1d2b 01       		.byte	0x1
 7575 1d2c 8F03     		.2byte	0x38f
 7576 1d2e 33000000 		.4byte	0x33
 7577 1d32 D6050000 		.4byte	.LLST9
 7578 1d36 21       		.uleb128 0x21
 7579 1d37 0E000000 		.4byte	.LVL339
 7580 1d3b 5E120000 		.4byte	0x125e
 7581 1d3f 531D0000 		.4byte	0x1d53
 7582 1d43 22       		.uleb128 0x22
 7583 1d44 01       		.uleb128 0x1
 7584 1d45 51       		.byte	0x51
 7585 1d46 05       		.uleb128 0x5
 7586 1d47 03       		.byte	0x3
 7587 1d48 08000000 		.4byte	.LC1
 7588 1d4c 22       		.uleb128 0x22
 7589 1d4d 01       		.uleb128 0x1
 7590 1d4e 50       		.byte	0x50
 7591 1d4f 02       		.uleb128 0x2
 7592 1d50 75       		.byte	0x75
 7593 1d51 00       		.sleb128 0
 7594 1d52 00       		.byte	0
 7595 1d53 21       		.uleb128 0x21
 7596 1d54 16000000 		.4byte	.LVL340
 7597 1d58 5E120000 		.4byte	0x125e
 7598 1d5c 701D0000 		.4byte	0x1d70
 7599 1d60 22       		.uleb128 0x22
 7600 1d61 01       		.uleb128 0x1
 7601 1d62 51       		.byte	0x51
 7602 1d63 05       		.uleb128 0x5
 7603 1d64 03       		.byte	0x3
 7604 1d65 0C000000 		.4byte	.LC2
 7605 1d69 22       		.uleb128 0x22
 7606 1d6a 01       		.uleb128 0x1
 7607 1d6b 50       		.byte	0x50
 7608 1d6c 02       		.uleb128 0x2
 7609 1d6d 75       		.byte	0x75
 7610 1d6e 00       		.sleb128 0
 7611 1d6f 00       		.byte	0
 7612 1d70 32       		.uleb128 0x32
 7613 1d71 20000000 		.4byte	.LVL341
 7614 1d75 851D0000 		.4byte	0x1d85
 7615 1d79 22       		.uleb128 0x22
 7616 1d7a 01       		.uleb128 0x1
 7617 1d7b 51       		.byte	0x51
 7618 1d7c 01       		.uleb128 0x1
 7619 1d7d 30       		.byte	0x30
 7620 1d7e 22       		.uleb128 0x22
 7621 1d7f 01       		.uleb128 0x1
 7622 1d80 50       		.byte	0x50
 7623 1d81 02       		.uleb128 0x2
 7624 1d82 75       		.byte	0x75
 7625 1d83 00       		.sleb128 0
 7626 1d84 00       		.byte	0
 7627 1d85 21       		.uleb128 0x21
ARM GAS  C:\Users\danit\AppData\Local\Temp\cc88b6Ga.s 			page 136


 7628 1d86 30000000 		.4byte	.LVL342
 7629 1d8a 5E120000 		.4byte	0x125e
 7630 1d8e AC1D0000 		.4byte	0x1dac
 7631 1d92 22       		.uleb128 0x22
 7632 1d93 01       		.uleb128 0x1
 7633 1d94 53       		.byte	0x53
 7634 1d95 01       		.uleb128 0x1
 7635 1d96 30       		.byte	0x30
 7636 1d97 22       		.uleb128 0x22
 7637 1d98 01       		.uleb128 0x1
 7638 1d99 52       		.byte	0x52
 7639 1d9a 01       		.uleb128 0x1
 7640 1d9b 30       		.byte	0x30
 7641 1d9c 22       		.uleb128 0x22
 7642 1d9d 01       		.uleb128 0x1
 7643 1d9e 51       		.byte	0x51
 7644 1d9f 05       		.uleb128 0x5
 7645 1da0 03       		.byte	0x3
 7646 1da1 14000000 		.4byte	.LC3
 7647 1da5 22       		.uleb128 0x22
 7648 1da6 01       		.uleb128 0x1
 7649 1da7 50       		.byte	0x50
 7650 1da8 02       		.uleb128 0x2
 7651 1da9 75       		.byte	0x75
 7652 1daa 00       		.sleb128 0
 7653 1dab 00       		.byte	0
 7654 1dac 21       		.uleb128 0x21
 7655 1dad 3C000000 		.4byte	.LVL343
 7656 1db1 5E120000 		.4byte	0x125e
 7657 1db5 C91D0000 		.4byte	0x1dc9
 7658 1db9 22       		.uleb128 0x22
 7659 1dba 01       		.uleb128 0x1
 7660 1dbb 51       		.byte	0x51
 7661 1dbc 05       		.uleb128 0x5
 7662 1dbd 03       		.byte	0x3
 7663 1dbe 20000000 		.4byte	.LC4
 7664 1dc2 22       		.uleb128 0x22
 7665 1dc3 01       		.uleb128 0x1
 7666 1dc4 50       		.byte	0x50
 7667 1dc5 02       		.uleb128 0x2
 7668 1dc6 75       		.byte	0x75
 7669 1dc7 00       		.sleb128 0
 7670 1dc8 00       		.byte	0
 7671 1dc9 21       		.uleb128 0x21
 7672 1dca 44000000 		.4byte	.LVL344
 7673 1dce 5E120000 		.4byte	0x125e
 7674 1dd2 E61D0000 		.4byte	0x1de6
 7675 1dd6 22       		.uleb128 0x22
 7676 1dd7 01       		.uleb128 0x1
 7677 1dd8 51       		.byte	0x51
 7678 1dd9 05       		.uleb128 0x5
 7679 1dda 03       		.byte	0x3
 7680 1ddb 34000000 		.4byte	.LC5
 7681 1ddf 22       		.uleb128 0x22
 7682 1de0 01       		.uleb128 0x1
 7683 1de1 50       		.byte	0x50
 7684 1de2 02       		.uleb128 0x2
ARM GAS  C:\Users\danit\AppData\Local\Temp\cc88b6Ga.s 			page 137


 7685 1de3 75       		.byte	0x75
 7686 1de4 00       		.sleb128 0
 7687 1de5 00       		.byte	0
 7688 1de6 21       		.uleb128 0x21
 7689 1de7 50000000 		.4byte	.LVL346
 7690 1deb 5E120000 		.4byte	0x125e
 7691 1def 081E0000 		.4byte	0x1e08
 7692 1df3 22       		.uleb128 0x22
 7693 1df4 01       		.uleb128 0x1
 7694 1df5 52       		.byte	0x52
 7695 1df6 01       		.uleb128 0x1
 7696 1df7 30       		.byte	0x30
 7697 1df8 22       		.uleb128 0x22
 7698 1df9 01       		.uleb128 0x1
 7699 1dfa 51       		.byte	0x51
 7700 1dfb 05       		.uleb128 0x5
 7701 1dfc 03       		.byte	0x3
 7702 1dfd 40000000 		.4byte	.LC6
 7703 1e01 22       		.uleb128 0x22
 7704 1e02 01       		.uleb128 0x1
 7705 1e03 50       		.byte	0x50
 7706 1e04 02       		.uleb128 0x2
 7707 1e05 75       		.byte	0x75
 7708 1e06 00       		.sleb128 0
 7709 1e07 00       		.byte	0
 7710 1e08 21       		.uleb128 0x21
 7711 1e09 5E000000 		.4byte	.LVL349
 7712 1e0d 5E120000 		.4byte	0x125e
 7713 1e11 251E0000 		.4byte	0x1e25
 7714 1e15 22       		.uleb128 0x22
 7715 1e16 01       		.uleb128 0x1
 7716 1e17 51       		.byte	0x51
 7717 1e18 05       		.uleb128 0x5
 7718 1e19 03       		.byte	0x3
 7719 1e1a 44000000 		.4byte	.LC7
 7720 1e1e 22       		.uleb128 0x22
 7721 1e1f 01       		.uleb128 0x1
 7722 1e20 50       		.byte	0x50
 7723 1e21 02       		.uleb128 0x2
 7724 1e22 75       		.byte	0x75
 7725 1e23 00       		.sleb128 0
 7726 1e24 00       		.byte	0
 7727 1e25 21       		.uleb128 0x21
 7728 1e26 66000000 		.4byte	.LVL350
 7729 1e2a 5E120000 		.4byte	0x125e
 7730 1e2e 421E0000 		.4byte	0x1e42
 7731 1e32 22       		.uleb128 0x22
 7732 1e33 01       		.uleb128 0x1
 7733 1e34 51       		.byte	0x51
 7734 1e35 05       		.uleb128 0x5
 7735 1e36 03       		.byte	0x3
 7736 1e37 48000000 		.4byte	.LC8
 7737 1e3b 22       		.uleb128 0x22
 7738 1e3c 01       		.uleb128 0x1
 7739 1e3d 50       		.byte	0x50
 7740 1e3e 02       		.uleb128 0x2
 7741 1e3f 75       		.byte	0x75
ARM GAS  C:\Users\danit\AppData\Local\Temp\cc88b6Ga.s 			page 138


 7742 1e40 00       		.sleb128 0
 7743 1e41 00       		.byte	0
 7744 1e42 21       		.uleb128 0x21
 7745 1e43 72000000 		.4byte	.LVL351
 7746 1e47 5E120000 		.4byte	0x125e
 7747 1e4b 5F1E0000 		.4byte	0x1e5f
 7748 1e4f 22       		.uleb128 0x22
 7749 1e50 01       		.uleb128 0x1
 7750 1e51 51       		.byte	0x51
 7751 1e52 05       		.uleb128 0x5
 7752 1e53 03       		.byte	0x3
 7753 1e54 40000000 		.4byte	.LC6
 7754 1e58 22       		.uleb128 0x22
 7755 1e59 01       		.uleb128 0x1
 7756 1e5a 50       		.byte	0x50
 7757 1e5b 02       		.uleb128 0x2
 7758 1e5c 75       		.byte	0x75
 7759 1e5d 00       		.sleb128 0
 7760 1e5e 00       		.byte	0
 7761 1e5f 21       		.uleb128 0x21
 7762 1e60 7E000000 		.4byte	.LVL352
 7763 1e64 5E120000 		.4byte	0x125e
 7764 1e68 7C1E0000 		.4byte	0x1e7c
 7765 1e6c 22       		.uleb128 0x22
 7766 1e6d 01       		.uleb128 0x1
 7767 1e6e 51       		.byte	0x51
 7768 1e6f 05       		.uleb128 0x5
 7769 1e70 03       		.byte	0x3
 7770 1e71 44000000 		.4byte	.LC7
 7771 1e75 22       		.uleb128 0x22
 7772 1e76 01       		.uleb128 0x1
 7773 1e77 50       		.byte	0x50
 7774 1e78 02       		.uleb128 0x2
 7775 1e79 75       		.byte	0x75
 7776 1e7a 00       		.sleb128 0
 7777 1e7b 00       		.byte	0
 7778 1e7c 21       		.uleb128 0x21
 7779 1e7d 8A000000 		.4byte	.LVL353
 7780 1e81 5E120000 		.4byte	0x125e
 7781 1e85 991E0000 		.4byte	0x1e99
 7782 1e89 22       		.uleb128 0x22
 7783 1e8a 01       		.uleb128 0x1
 7784 1e8b 51       		.byte	0x51
 7785 1e8c 05       		.uleb128 0x5
 7786 1e8d 03       		.byte	0x3
 7787 1e8e 58000000 		.4byte	.LC9
 7788 1e92 22       		.uleb128 0x22
 7789 1e93 01       		.uleb128 0x1
 7790 1e94 50       		.byte	0x50
 7791 1e95 02       		.uleb128 0x2
 7792 1e96 75       		.byte	0x75
 7793 1e97 00       		.sleb128 0
 7794 1e98 00       		.byte	0
 7795 1e99 21       		.uleb128 0x21
 7796 1e9a 96000000 		.4byte	.LVL354
 7797 1e9e 5E120000 		.4byte	0x125e
 7798 1ea2 B61E0000 		.4byte	0x1eb6
ARM GAS  C:\Users\danit\AppData\Local\Temp\cc88b6Ga.s 			page 139


 7799 1ea6 22       		.uleb128 0x22
 7800 1ea7 01       		.uleb128 0x1
 7801 1ea8 51       		.byte	0x51
 7802 1ea9 05       		.uleb128 0x5
 7803 1eaa 03       		.byte	0x3
 7804 1eab 6C000000 		.4byte	.LC10
 7805 1eaf 22       		.uleb128 0x22
 7806 1eb0 01       		.uleb128 0x1
 7807 1eb1 50       		.byte	0x50
 7808 1eb2 02       		.uleb128 0x2
 7809 1eb3 75       		.byte	0x75
 7810 1eb4 00       		.sleb128 0
 7811 1eb5 00       		.byte	0
 7812 1eb6 21       		.uleb128 0x21
 7813 1eb7 A4000000 		.4byte	.LVL355
 7814 1ebb 5E120000 		.4byte	0x125e
 7815 1ebf D31E0000 		.4byte	0x1ed3
 7816 1ec3 22       		.uleb128 0x22
 7817 1ec4 01       		.uleb128 0x1
 7818 1ec5 51       		.byte	0x51
 7819 1ec6 05       		.uleb128 0x5
 7820 1ec7 03       		.byte	0x3
 7821 1ec8 7C000000 		.4byte	.LC11
 7822 1ecc 22       		.uleb128 0x22
 7823 1ecd 01       		.uleb128 0x1
 7824 1ece 50       		.byte	0x50
 7825 1ecf 02       		.uleb128 0x2
 7826 1ed0 75       		.byte	0x75
 7827 1ed1 00       		.sleb128 0
 7828 1ed2 00       		.byte	0
 7829 1ed3 21       		.uleb128 0x21
 7830 1ed4 B0000000 		.4byte	.LVL356
 7831 1ed8 5E120000 		.4byte	0x125e
 7832 1edc F01E0000 		.4byte	0x1ef0
 7833 1ee0 22       		.uleb128 0x22
 7834 1ee1 01       		.uleb128 0x1
 7835 1ee2 51       		.byte	0x51
 7836 1ee3 05       		.uleb128 0x5
 7837 1ee4 03       		.byte	0x3
 7838 1ee5 88000000 		.4byte	.LC12
 7839 1ee9 22       		.uleb128 0x22
 7840 1eea 01       		.uleb128 0x1
 7841 1eeb 50       		.byte	0x50
 7842 1eec 02       		.uleb128 0x2
 7843 1eed 75       		.byte	0x75
 7844 1eee 00       		.sleb128 0
 7845 1eef 00       		.byte	0
 7846 1ef0 24       		.uleb128 0x24
 7847 1ef1 B6000000 		.4byte	.LVL357
 7848 1ef5 F7240000 		.4byte	0x24f7
 7849 1ef9 22       		.uleb128 0x22
 7850 1efa 01       		.uleb128 0x1
 7851 1efb 50       		.byte	0x50
 7852 1efc 02       		.uleb128 0x2
 7853 1efd 08       		.byte	0x8
 7854 1efe 96       		.byte	0x96
 7855 1eff 00       		.byte	0
ARM GAS  C:\Users\danit\AppData\Local\Temp\cc88b6Ga.s 			page 140


 7856 1f00 00       		.byte	0
 7857 1f01 09       		.uleb128 0x9
 7858 1f02 04       		.byte	0x4
 7859 1f03 67080000 		.4byte	0x867
 7860 1f07 2C       		.uleb128 0x2c
 7861 1f08 4C030000 		.4byte	.LASF210
 7862 1f0c 01       		.byte	0x1
 7863 1f0d AA03     		.2byte	0x3aa
 7864 1f0f 00000000 		.4byte	.LFB129
 7865 1f13 48010000 		.4byte	.LFE129-.LFB129
 7866 1f17 01       		.uleb128 0x1
 7867 1f18 9C       		.byte	0x9c
 7868 1f19 F8210000 		.4byte	0x21f8
 7869 1f1d 2E       		.uleb128 0x2e
 7870 1f1e 63687000 		.ascii	"chp\000"
 7871 1f22 01       		.byte	0x1
 7872 1f23 AA03     		.2byte	0x3aa
 7873 1f25 BD120000 		.4byte	0x12bd
 7874 1f29 17060000 		.4byte	.LLST10
 7875 1f2d 30       		.uleb128 0x30
 7876 1f2e 00070000 		.4byte	.LASF208
 7877 1f32 01       		.byte	0x1
 7878 1f33 AA03     		.2byte	0x3aa
 7879 1f35 33000000 		.4byte	0x33
 7880 1f39 B2060000 		.4byte	.LLST11
 7881 1f3d 30       		.uleb128 0x30
 7882 1f3e 58040000 		.4byte	.LASF209
 7883 1f42 01       		.byte	0x1
 7884 1f43 AA03     		.2byte	0x3aa
 7885 1f45 011F0000 		.4byte	0x1f01
 7886 1f49 F7060000 		.4byte	.LLST12
 7887 1f4d 33       		.uleb128 0x33
 7888 1f4e 05060000 		.4byte	.LASF257
 7889 1f52 01       		.byte	0x1
 7890 1f53 DD03     		.2byte	0x3dd
 7891 1f55 24000000 		.4byte	.LDL1
 7892 1f59 1D       		.uleb128 0x1d
 7893 1f5a 20000000 		.4byte	.Ldebug_ranges0+0x20
 7894 1f5e 37210000 		.4byte	0x2137
 7895 1f62 1E       		.uleb128 0x1e
 7896 1f63 540C0000 		.4byte	.LASF211
 7897 1f67 12       		.byte	0x12
 7898 1f68 00       		.byte	0
 7899 1f69 33000000 		.4byte	0x33
 7900 1f6d 731F0000 		.4byte	0x1f73
 7901 1f71 1F       		.uleb128 0x1f
 7902 1f72 00       		.byte	0
 7903 1f73 34       		.uleb128 0x34
 7904 1f74 68000000 		.4byte	.LBB7
 7905 1f78 14000000 		.4byte	.LBE7-.LBB7
 7906 1f7c B91F0000 		.4byte	0x1fb9
 7907 1f80 20       		.uleb128 0x20
 7908 1f81 940B0000 		.4byte	.LASF212
 7909 1f85 01       		.byte	0x1
 7910 1f86 D403     		.2byte	0x3d4
 7911 1f88 33000000 		.4byte	0x33
 7912 1f8c 921F0000 		.4byte	0x1f92
ARM GAS  C:\Users\danit\AppData\Local\Temp\cc88b6Ga.s 			page 141


 7913 1f90 1F       		.uleb128 0x1f
 7914 1f91 00       		.byte	0
 7915 1f92 21       		.uleb128 0x21
 7916 1f93 70000000 		.4byte	.LVL372
 7917 1f97 5E120000 		.4byte	0x125e
 7918 1f9b AF1F0000 		.4byte	0x1faf
 7919 1f9f 22       		.uleb128 0x22
 7920 1fa0 01       		.uleb128 0x1
 7921 1fa1 51       		.byte	0x51
 7922 1fa2 05       		.uleb128 0x5
 7923 1fa3 03       		.byte	0x3
 7924 1fa4 40010000 		.4byte	.LC20
 7925 1fa8 22       		.uleb128 0x22
 7926 1fa9 01       		.uleb128 0x1
 7927 1faa 50       		.byte	0x50
 7928 1fab 02       		.uleb128 0x2
 7929 1fac 74       		.byte	0x74
 7930 1fad 00       		.sleb128 0
 7931 1fae 00       		.byte	0
 7932 1faf 23       		.uleb128 0x23
 7933 1fb0 76000000 		.4byte	.LVL373
 7934 1fb4 09250000 		.4byte	0x2509
 7935 1fb8 00       		.byte	0
 7936 1fb9 21       		.uleb128 0x21
 7937 1fba 54000000 		.4byte	.LVL370
 7938 1fbe 5E120000 		.4byte	0x125e
 7939 1fc2 E01F0000 		.4byte	0x1fe0
 7940 1fc6 22       		.uleb128 0x22
 7941 1fc7 01       		.uleb128 0x1
 7942 1fc8 53       		.byte	0x53
 7943 1fc9 01       		.uleb128 0x1
 7944 1fca 30       		.byte	0x30
 7945 1fcb 22       		.uleb128 0x22
 7946 1fcc 01       		.uleb128 0x1
 7947 1fcd 52       		.byte	0x52
 7948 1fce 01       		.uleb128 0x1
 7949 1fcf 30       		.byte	0x30
 7950 1fd0 22       		.uleb128 0x22
 7951 1fd1 01       		.uleb128 0x1
 7952 1fd2 51       		.byte	0x51
 7953 1fd3 05       		.uleb128 0x5
 7954 1fd4 03       		.byte	0x3
 7955 1fd5 14000000 		.4byte	.LC3
 7956 1fd9 22       		.uleb128 0x22
 7957 1fda 01       		.uleb128 0x1
 7958 1fdb 50       		.byte	0x50
 7959 1fdc 02       		.uleb128 0x2
 7960 1fdd 74       		.byte	0x74
 7961 1fde 00       		.sleb128 0
 7962 1fdf 00       		.byte	0
 7963 1fe0 21       		.uleb128 0x21
 7964 1fe1 64000000 		.4byte	.LVL371
 7965 1fe5 1B250000 		.4byte	0x251b
 7966 1fe9 F71F0000 		.4byte	0x1ff7
 7967 1fed 22       		.uleb128 0x22
 7968 1fee 01       		.uleb128 0x1
 7969 1fef 51       		.byte	0x51
ARM GAS  C:\Users\danit\AppData\Local\Temp\cc88b6Ga.s 			page 142


 7970 1ff0 05       		.uleb128 0x5
 7971 1ff1 03       		.byte	0x3
 7972 1ff2 6C010000 		.4byte	.LC21
 7973 1ff6 00       		.byte	0
 7974 1ff7 21       		.uleb128 0x21
 7975 1ff8 86000000 		.4byte	.LVL376
 7976 1ffc 1B250000 		.4byte	0x251b
 7977 2000 14200000 		.4byte	0x2014
 7978 2004 22       		.uleb128 0x22
 7979 2005 01       		.uleb128 0x1
 7980 2006 51       		.byte	0x51
 7981 2007 05       		.uleb128 0x5
 7982 2008 03       		.byte	0x3
 7983 2009 98000000 		.4byte	.LC13
 7984 200d 22       		.uleb128 0x22
 7985 200e 01       		.uleb128 0x1
 7986 200f 50       		.byte	0x50
 7987 2010 02       		.uleb128 0x2
 7988 2011 75       		.byte	0x75
 7989 2012 00       		.sleb128 0
 7990 2013 00       		.byte	0
 7991 2014 21       		.uleb128 0x21
 7992 2015 90000000 		.4byte	.LVL377
 7993 2019 1B250000 		.4byte	0x251b
 7994 201d 31200000 		.4byte	0x2031
 7995 2021 22       		.uleb128 0x22
 7996 2022 01       		.uleb128 0x1
 7997 2023 51       		.byte	0x51
 7998 2024 05       		.uleb128 0x5
 7999 2025 03       		.byte	0x3
 8000 2026 CC000000 		.4byte	.LC15
 8001 202a 22       		.uleb128 0x22
 8002 202b 01       		.uleb128 0x1
 8003 202c 50       		.byte	0x50
 8004 202d 02       		.uleb128 0x2
 8005 202e 75       		.byte	0x75
 8006 202f 00       		.sleb128 0
 8007 2030 00       		.byte	0
 8008 2031 21       		.uleb128 0x21
 8009 2032 9C000000 		.4byte	.LVL379
 8010 2036 1B250000 		.4byte	0x251b
 8011 203a 4E200000 		.4byte	0x204e
 8012 203e 22       		.uleb128 0x22
 8013 203f 01       		.uleb128 0x1
 8014 2040 51       		.byte	0x51
 8015 2041 05       		.uleb128 0x5
 8016 2042 03       		.byte	0x3
 8017 2043 00010000 		.4byte	.LC17
 8018 2047 22       		.uleb128 0x22
 8019 2048 01       		.uleb128 0x1
 8020 2049 50       		.byte	0x50
 8021 204a 02       		.uleb128 0x2
 8022 204b 75       		.byte	0x75
 8023 204c 00       		.sleb128 0
 8024 204d 00       		.byte	0
 8025 204e 21       		.uleb128 0x21
 8026 204f A8000000 		.4byte	.LVL380
ARM GAS  C:\Users\danit\AppData\Local\Temp\cc88b6Ga.s 			page 143


 8027 2053 1B250000 		.4byte	0x251b
 8028 2057 6B200000 		.4byte	0x206b
 8029 205b 22       		.uleb128 0x22
 8030 205c 01       		.uleb128 0x1
 8031 205d 51       		.byte	0x51
 8032 205e 05       		.uleb128 0x5
 8033 205f 03       		.byte	0x3
 8034 2060 34010000 		.4byte	.LC19
 8035 2064 22       		.uleb128 0x22
 8036 2065 01       		.uleb128 0x1
 8037 2066 50       		.byte	0x50
 8038 2067 02       		.uleb128 0x2
 8039 2068 75       		.byte	0x75
 8040 2069 00       		.sleb128 0
 8041 206a 00       		.byte	0
 8042 206b 21       		.uleb128 0x21
 8043 206c B4000000 		.4byte	.LVL381
 8044 2070 5E120000 		.4byte	0x125e
 8045 2074 88200000 		.4byte	0x2088
 8046 2078 22       		.uleb128 0x22
 8047 2079 01       		.uleb128 0x1
 8048 207a 51       		.byte	0x51
 8049 207b 05       		.uleb128 0x5
 8050 207c 03       		.byte	0x3
 8051 207d 40010000 		.4byte	.LC20
 8052 2081 22       		.uleb128 0x22
 8053 2082 01       		.uleb128 0x1
 8054 2083 50       		.byte	0x50
 8055 2084 02       		.uleb128 0x2
 8056 2085 74       		.byte	0x74
 8057 2086 00       		.sleb128 0
 8058 2087 00       		.byte	0
 8059 2088 2B       		.uleb128 0x2b
 8060 2089 C0000000 		.4byte	.LVL383
 8061 208d 35250000 		.4byte	0x2535
 8062 2091 9D200000 		.4byte	0x209d
 8063 2095 22       		.uleb128 0x22
 8064 2096 01       		.uleb128 0x1
 8065 2097 50       		.byte	0x50
 8066 2098 03       		.uleb128 0x3
 8067 2099 0A       		.byte	0xa
 8068 209a 00F8     		.2byte	0xf800
 8069 209c 00       		.byte	0
 8070 209d 21       		.uleb128 0x21
 8071 209e C8000000 		.4byte	.LVL384
 8072 20a2 5E120000 		.4byte	0x125e
 8073 20a6 BA200000 		.4byte	0x20ba
 8074 20aa 22       		.uleb128 0x22
 8075 20ab 01       		.uleb128 0x1
 8076 20ac 51       		.byte	0x51
 8077 20ad 05       		.uleb128 0x5
 8078 20ae 03       		.byte	0x3
 8079 20af A0000000 		.4byte	.LC14
 8080 20b3 22       		.uleb128 0x22
 8081 20b4 01       		.uleb128 0x1
 8082 20b5 50       		.byte	0x50
 8083 20b6 02       		.uleb128 0x2
ARM GAS  C:\Users\danit\AppData\Local\Temp\cc88b6Ga.s 			page 144


 8084 20b7 74       		.byte	0x74
 8085 20b8 00       		.sleb128 0
 8086 20b9 00       		.byte	0
 8087 20ba 35       		.uleb128 0x35
 8088 20bb D0000000 		.4byte	.LVL386
 8089 20bf B8240000 		.4byte	0x24b8
 8090 20c3 21       		.uleb128 0x21
 8091 20c4 D8000000 		.4byte	.LVL387
 8092 20c8 5E120000 		.4byte	0x125e
 8093 20cc E0200000 		.4byte	0x20e0
 8094 20d0 22       		.uleb128 0x22
 8095 20d1 01       		.uleb128 0x1
 8096 20d2 51       		.byte	0x51
 8097 20d3 05       		.uleb128 0x5
 8098 20d4 03       		.byte	0x3
 8099 20d5 D4000000 		.4byte	.LC16
 8100 20d9 22       		.uleb128 0x22
 8101 20da 01       		.uleb128 0x1
 8102 20db 50       		.byte	0x50
 8103 20dc 02       		.uleb128 0x2
 8104 20dd 74       		.byte	0x74
 8105 20de 00       		.sleb128 0
 8106 20df 00       		.byte	0
 8107 20e0 2B       		.uleb128 0x2b
 8108 20e1 E6000000 		.4byte	.LVL389
 8109 20e5 83230000 		.4byte	0x2383
 8110 20e9 F5200000 		.4byte	0x20f5
 8111 20ed 22       		.uleb128 0x22
 8112 20ee 01       		.uleb128 0x1
 8113 20ef 51       		.byte	0x51
 8114 20f0 03       		.uleb128 0x3
 8115 20f1 0A       		.byte	0xa
 8116 20f2 C119     		.2byte	0x19c1
 8117 20f4 00       		.byte	0
 8118 20f5 21       		.uleb128 0x21
 8119 20f6 EE000000 		.4byte	.LVL390
 8120 20fa 5E120000 		.4byte	0x125e
 8121 20fe 12210000 		.4byte	0x2112
 8122 2102 22       		.uleb128 0x22
 8123 2103 01       		.uleb128 0x1
 8124 2104 51       		.byte	0x51
 8125 2105 05       		.uleb128 0x5
 8126 2106 03       		.byte	0x3
 8127 2107 08010000 		.4byte	.LC18
 8128 210b 22       		.uleb128 0x22
 8129 210c 01       		.uleb128 0x1
 8130 210d 50       		.byte	0x50
 8131 210e 02       		.uleb128 0x2
 8132 210f 74       		.byte	0x74
 8133 2110 00       		.sleb128 0
 8134 2111 00       		.byte	0
 8135 2112 21       		.uleb128 0x21
 8136 2113 F8000000 		.4byte	.LVL391
 8137 2117 83230000 		.4byte	0x2383
 8138 211b 2D210000 		.4byte	0x212d
 8139 211f 22       		.uleb128 0x22
 8140 2120 01       		.uleb128 0x1
ARM GAS  C:\Users\danit\AppData\Local\Temp\cc88b6Ga.s 			page 145


 8141 2121 51       		.byte	0x51
 8142 2122 03       		.uleb128 0x3
 8143 2123 0A       		.byte	0xa
 8144 2124 C119     		.2byte	0x19c1
 8145 2126 22       		.uleb128 0x22
 8146 2127 01       		.uleb128 0x1
 8147 2128 50       		.byte	0x50
 8148 2129 02       		.uleb128 0x2
 8149 212a 76       		.byte	0x76
 8150 212b 00       		.sleb128 0
 8151 212c 00       		.byte	0
 8152 212d 35       		.uleb128 0x35
 8153 212e 04010000 		.4byte	.LVL393
 8154 2132 91240000 		.4byte	0x2491
 8155 2136 00       		.byte	0
 8156 2137 21       		.uleb128 0x21
 8157 2138 0E000000 		.4byte	.LVL361
 8158 213c 5E120000 		.4byte	0x125e
 8159 2140 54210000 		.4byte	0x2154
 8160 2144 22       		.uleb128 0x22
 8161 2145 01       		.uleb128 0x1
 8162 2146 51       		.byte	0x51
 8163 2147 05       		.uleb128 0x5
 8164 2148 03       		.byte	0x3
 8165 2149 08000000 		.4byte	.LC1
 8166 214d 22       		.uleb128 0x22
 8167 214e 01       		.uleb128 0x1
 8168 214f 50       		.byte	0x50
 8169 2150 02       		.uleb128 0x2
 8170 2151 74       		.byte	0x74
 8171 2152 00       		.sleb128 0
 8172 2153 00       		.byte	0
 8173 2154 21       		.uleb128 0x21
 8174 2155 16000000 		.4byte	.LVL362
 8175 2159 5E120000 		.4byte	0x125e
 8176 215d 71210000 		.4byte	0x2171
 8177 2161 22       		.uleb128 0x22
 8178 2162 01       		.uleb128 0x1
 8179 2163 51       		.byte	0x51
 8180 2164 05       		.uleb128 0x5
 8181 2165 03       		.byte	0x3
 8182 2166 0C000000 		.4byte	.LC2
 8183 216a 22       		.uleb128 0x22
 8184 216b 01       		.uleb128 0x1
 8185 216c 50       		.byte	0x50
 8186 216d 02       		.uleb128 0x2
 8187 216e 74       		.byte	0x74
 8188 216f 00       		.sleb128 0
 8189 2170 00       		.byte	0
 8190 2171 32       		.uleb128 0x32
 8191 2172 20000000 		.4byte	.LVL363
 8192 2176 86210000 		.4byte	0x2186
 8193 217a 22       		.uleb128 0x22
 8194 217b 01       		.uleb128 0x1
 8195 217c 51       		.byte	0x51
 8196 217d 01       		.uleb128 0x1
 8197 217e 30       		.byte	0x30
ARM GAS  C:\Users\danit\AppData\Local\Temp\cc88b6Ga.s 			page 146


 8198 217f 22       		.uleb128 0x22
 8199 2180 01       		.uleb128 0x1
 8200 2181 50       		.byte	0x50
 8201 2182 02       		.uleb128 0x2
 8202 2183 74       		.byte	0x74
 8203 2184 00       		.sleb128 0
 8204 2185 00       		.byte	0
 8205 2186 21       		.uleb128 0x21
 8206 2187 2C000000 		.4byte	.LVL365
 8207 218b 5E120000 		.4byte	0x125e
 8208 218f A3210000 		.4byte	0x21a3
 8209 2193 22       		.uleb128 0x22
 8210 2194 01       		.uleb128 0x1
 8211 2195 51       		.byte	0x51
 8212 2196 05       		.uleb128 0x5
 8213 2197 03       		.byte	0x3
 8214 2198 74010000 		.4byte	.LC22
 8215 219c 22       		.uleb128 0x22
 8216 219d 01       		.uleb128 0x1
 8217 219e 50       		.byte	0x50
 8218 219f 02       		.uleb128 0x2
 8219 21a0 74       		.byte	0x74
 8220 21a1 00       		.sleb128 0
 8221 21a2 00       		.byte	0
 8222 21a3 21       		.uleb128 0x21
 8223 21a4 34000000 		.4byte	.LVL366
 8224 21a8 5E120000 		.4byte	0x125e
 8225 21ac C0210000 		.4byte	0x21c0
 8226 21b0 22       		.uleb128 0x22
 8227 21b1 01       		.uleb128 0x1
 8228 21b2 51       		.byte	0x51
 8229 21b3 05       		.uleb128 0x5
 8230 21b4 03       		.byte	0x3
 8231 21b5 84010000 		.4byte	.LC23
 8232 21b9 22       		.uleb128 0x22
 8233 21ba 01       		.uleb128 0x1
 8234 21bb 50       		.byte	0x50
 8235 21bc 02       		.uleb128 0x2
 8236 21bd 74       		.byte	0x74
 8237 21be 00       		.sleb128 0
 8238 21bf 00       		.byte	0
 8239 21c0 21       		.uleb128 0x21
 8240 21c1 3C000000 		.4byte	.LVL367
 8241 21c5 5E120000 		.4byte	0x125e
 8242 21c9 DD210000 		.4byte	0x21dd
 8243 21cd 22       		.uleb128 0x22
 8244 21ce 01       		.uleb128 0x1
 8245 21cf 51       		.byte	0x51
 8246 21d0 05       		.uleb128 0x5
 8247 21d1 03       		.byte	0x3
 8248 21d2 94010000 		.4byte	.LC24
 8249 21d6 22       		.uleb128 0x22
 8250 21d7 01       		.uleb128 0x1
 8251 21d8 50       		.byte	0x50
 8252 21d9 02       		.uleb128 0x2
 8253 21da 74       		.byte	0x74
 8254 21db 00       		.sleb128 0
ARM GAS  C:\Users\danit\AppData\Local\Temp\cc88b6Ga.s 			page 147


 8255 21dc 00       		.byte	0
 8256 21dd 29       		.uleb128 0x29
 8257 21de 48000000 		.4byte	.LVL369
 8258 21e2 5E120000 		.4byte	0x125e
 8259 21e6 22       		.uleb128 0x22
 8260 21e7 01       		.uleb128 0x1
 8261 21e8 51       		.byte	0x51
 8262 21e9 05       		.uleb128 0x5
 8263 21ea 03       		.byte	0x3
 8264 21eb A4010000 		.4byte	.LC25
 8265 21ef 22       		.uleb128 0x22
 8266 21f0 01       		.uleb128 0x1
 8267 21f1 50       		.byte	0x50
 8268 21f2 03       		.uleb128 0x3
 8269 21f3 F3       		.byte	0xf3
 8270 21f4 01       		.uleb128 0x1
 8271 21f5 50       		.byte	0x50
 8272 21f6 00       		.byte	0
 8273 21f7 00       		.byte	0
 8274 21f8 36       		.uleb128 0x36
 8275 21f9 D9000000 		.4byte	0xd9
 8276 21fd 08220000 		.4byte	0x2208
 8277 2201 37       		.uleb128 0x37
 8278 2202 78030000 		.4byte	0x378
 8279 2206 22       		.byte	0x22
 8280 2207 00       		.byte	0
 8281 2208 1A       		.uleb128 0x1a
 8282 2209 77010000 		.4byte	.LASF213
 8283 220d 01       		.byte	0x1
 8284 220e 46       		.byte	0x46
 8285 220f F8210000 		.4byte	0x21f8
 8286 2213 05       		.uleb128 0x5
 8287 2214 03       		.byte	0x3
 8288 2215 00000000 		.4byte	dspValue
 8289 2219 1A       		.uleb128 0x1a
 8290 221a 99030000 		.4byte	.LASF214
 8291 221e 01       		.byte	0x1
 8292 221f 47       		.byte	0x47
 8293 2220 33000000 		.4byte	0x33
 8294 2224 05       		.uleb128 0x5
 8295 2225 03       		.byte	0x3
 8296 2226 00000000 		.4byte	tasknumber
 8297 222a 1A       		.uleb128 0x1a
 8298 222b 0B080000 		.4byte	.LASF215
 8299 222f 01       		.byte	0x1
 8300 2230 48       		.byte	0x48
 8301 2231 B8000000 		.4byte	0xb8
 8302 2235 05       		.uleb128 0x5
 8303 2236 03       		.byte	0x3
 8304 2237 00000000 		.4byte	bus_status
 8305 223b 36       		.uleb128 0x36
 8306 223c FA000000 		.4byte	0xfa
 8307 2240 4B220000 		.4byte	0x224b
 8308 2244 37       		.uleb128 0x37
 8309 2245 78030000 		.4byte	0x378
 8310 2249 07       		.byte	0x7
 8311 224a 00       		.byte	0
ARM GAS  C:\Users\danit\AppData\Local\Temp\cc88b6Ga.s 			page 148


 8312 224b 38       		.uleb128 0x38
 8313 224c 73060000 		.4byte	.LASF258
 8314 2250 01       		.byte	0x1
 8315 2251 4B       		.byte	0x4b
 8316 2252 56220000 		.4byte	0x2256
 8317 2256 12       		.uleb128 0x12
 8318 2257 3B220000 		.4byte	0x223b
 8319 225b 1A       		.uleb128 0x1a
 8320 225c C3030000 		.4byte	.LASF216
 8321 2260 01       		.byte	0x1
 8322 2261 4C       		.byte	0x4c
 8323 2262 CE000000 		.4byte	0xce
 8324 2266 05       		.uleb128 0x5
 8325 2267 03       		.byte	0x3
 8326 2268 00000000 		.4byte	danger
 8327 226c 1A       		.uleb128 0x1a
 8328 226d AE020000 		.4byte	.LASF217
 8329 2271 01       		.byte	0x1
 8330 2272 4C       		.byte	0x4c
 8331 2273 CE000000 		.4byte	0xce
 8332 2277 05       		.uleb128 0x5
 8333 2278 03       		.byte	0x3
 8334 2279 00000000 		.4byte	motor_temp
 8335 227d 1A       		.uleb128 0x1a
 8336 227e CD010000 		.4byte	.LASF218
 8337 2282 01       		.byte	0x1
 8338 2283 4C       		.byte	0x4c
 8339 2284 CE000000 		.4byte	0xce
 8340 2288 05       		.uleb128 0x5
 8341 2289 03       		.byte	0x3
 8342 228a 00000000 		.4byte	discharge
 8343 228e 1A       		.uleb128 0x1a
 8344 228f 64070000 		.4byte	.LASF219
 8345 2293 01       		.byte	0x1
 8346 2294 4C       		.byte	0x4c
 8347 2295 CE000000 		.4byte	0xce
 8348 2299 05       		.uleb128 0x5
 8349 229a 03       		.byte	0x3
 8350 229b 00000000 		.4byte	over_charge
 8351 229f 1A       		.uleb128 0x1a
 8352 22a0 D5000000 		.4byte	.LASF220
 8353 22a4 01       		.byte	0x1
 8354 22a5 CA       		.byte	0xca
 8355 22a6 E4000000 		.4byte	0xe4
 8356 22aa 05       		.uleb128 0x5
 8357 22ab 03       		.byte	0x3
 8358 22ac 00000000 		.4byte	bus_num
 8359 22b0 1A       		.uleb128 0x1a
 8360 22b1 C2060000 		.4byte	.LASF221
 8361 22b5 01       		.byte	0x1
 8362 22b6 CB       		.byte	0xcb
 8363 22b7 B8000000 		.4byte	0xb8
 8364 22bb 05       		.uleb128 0x5
 8365 22bc 03       		.byte	0x3
 8366 22bd 00000000 		.4byte	valasz
 8367 22c1 36       		.uleb128 0x36
 8368 22c2 CB020000 		.4byte	0x2cb
ARM GAS  C:\Users\danit\AppData\Local\Temp\cc88b6Ga.s 			page 149


 8369 22c6 D1220000 		.4byte	0x22d1
 8370 22ca 37       		.uleb128 0x37
 8371 22cb 78030000 		.4byte	0x378
 8372 22cf 99       		.byte	0x99
 8373 22d0 00       		.byte	0
 8374 22d1 1A       		.uleb128 0x1a
 8375 22d2 45040000 		.4byte	.LASF222
 8376 22d6 01       		.byte	0x1
 8377 22d7 D1       		.byte	0xd1
 8378 22d8 C1220000 		.4byte	0x22c1
 8379 22dc 05       		.uleb128 0x5
 8380 22dd 03       		.byte	0x3
 8381 22de 00000000 		.4byte	wadspTask
 8382 22e2 39       		.uleb128 0x39
 8383 22e3 64010000 		.4byte	.LASF223
 8384 22e7 0A       		.byte	0xa
 8385 22e8 F5       		.byte	0xf5
 8386 22e9 33040000 		.4byte	0x433
 8387 22ed 39       		.uleb128 0x39
 8388 22ee 85080000 		.4byte	.LASF224
 8389 22f2 0B       		.byte	0xb
 8390 22f3 6F       		.byte	0x6f
 8391 22f4 8F040000 		.4byte	0x48f
 8392 22f8 3A       		.uleb128 0x3a
 8393 22f9 1F080000 		.4byte	.LASF225
 8394 22fd 15       		.byte	0x15
 8395 22fe 9806     		.2byte	0x698
 8396 2300 1A060000 		.4byte	0x61a
 8397 2304 39       		.uleb128 0x39
 8398 2305 36010000 		.4byte	.LASF226
 8399 2309 16       		.byte	0x16
 8400 230a 0A       		.byte	0xa
 8401 230b A4080000 		.4byte	0x8a4
 8402 230f 3B       		.uleb128 0x3b
 8403 2310 3B080000 		.4byte	.LASF227
 8404 2314 01       		.byte	0x1
 8405 2315 1E       		.byte	0x1e
 8406 2316 000A0000 		.4byte	0xa00
 8407 231a 05       		.uleb128 0x5
 8408 231b 03       		.byte	0x3
 8409 231c 00000000 		.4byte	dspstate
 8410 2320 3B       		.uleb128 0x3b
 8411 2321 960A0000 		.4byte	.LASF228
 8412 2325 01       		.byte	0x1
 8413 2326 44       		.byte	0x44
 8414 2327 190A0000 		.4byte	0xa19
 8415 232b 05       		.uleb128 0x5
 8416 232c 03       		.byte	0x3
 8417 232d 00000000 		.4byte	dspmessages
 8418 2331 3B       		.uleb128 0x3b
 8419 2332 EA080000 		.4byte	.LASF229
 8420 2336 01       		.byte	0x1
 8421 2337 49       		.byte	0x49
 8422 2338 FA000000 		.4byte	0xfa
 8423 233c 05       		.uleb128 0x5
 8424 233d 03       		.byte	0x3
 8425 233e 00000000 		.4byte	dsp_activ
ARM GAS  C:\Users\danit\AppData\Local\Temp\cc88b6Ga.s 			page 150


 8426 2342 3C       		.uleb128 0x3c
 8427 2343 6300     		.ascii	"c\000"
 8428 2345 01       		.byte	0x1
 8429 2346 4A       		.byte	0x4a
 8430 2347 B8000000 		.4byte	0xb8
 8431 234b 05       		.uleb128 0x5
 8432 234c 03       		.byte	0x3
 8433 234d 00000000 		.4byte	c
 8434 2351 3C       		.uleb128 0x3c
 8435 2352 646200   		.ascii	"db\000"
 8436 2355 01       		.byte	0x1
 8437 2356 4E       		.byte	0x4e
 8438 2357 33000000 		.4byte	0x33
 8439 235b 05       		.uleb128 0x5
 8440 235c 03       		.byte	0x3
 8441 235d 00000000 		.4byte	db
 8442 2361 3C       		.uleb128 0x3c
 8443 2362 64623200 		.ascii	"db2\000"
 8444 2366 01       		.byte	0x1
 8445 2367 4F       		.byte	0x4f
 8446 2368 33000000 		.4byte	0x33
 8447 236c 05       		.uleb128 0x5
 8448 236d 03       		.byte	0x3
 8449 236e 00000000 		.4byte	db2
 8450 2372 3B       		.uleb128 0x3b
 8451 2373 F4080000 		.4byte	.LASF230
 8452 2377 01       		.byte	0x1
 8453 2378 CC       		.byte	0xcc
 8454 2379 FA000000 		.4byte	0xfa
 8455 237d 05       		.uleb128 0x5
 8456 237e 03       		.byte	0x3
 8457 237f 00000000 		.4byte	cruise_assis
 8458 2383 3D       		.uleb128 0x3d
 8459 2384 4E060000 		.4byte	.LASF231
 8460 2388 17       		.byte	0x17
 8461 2389 0F       		.byte	0xf
 8462 238a 99230000 		.4byte	0x2399
 8463 238e 0F       		.uleb128 0xf
 8464 238f 33000000 		.4byte	0x33
 8465 2393 0F       		.uleb128 0xf
 8466 2394 33000000 		.4byte	0x33
 8467 2398 00       		.byte	0
 8468 2399 3E       		.uleb128 0x3e
 8469 239a 8D070000 		.4byte	.LASF236
 8470 239e 17       		.byte	0x17
 8471 239f 1C       		.byte	0x1c
 8472 23a0 CE000000 		.4byte	0xce
 8473 23a4 3D       		.uleb128 0x3d
 8474 23a5 E5020000 		.4byte	.LASF232
 8475 23a9 17       		.byte	0x17
 8476 23aa 17       		.byte	0x17
 8477 23ab BF230000 		.4byte	0x23bf
 8478 23af 0F       		.uleb128 0xf
 8479 23b0 33000000 		.4byte	0x33
 8480 23b4 0F       		.uleb128 0xf
 8481 23b5 33000000 		.4byte	0x33
 8482 23b9 0F       		.uleb128 0xf
ARM GAS  C:\Users\danit\AppData\Local\Temp\cc88b6Ga.s 			page 151


 8483 23ba 33000000 		.4byte	0x33
 8484 23be 00       		.byte	0
 8485 23bf 3F       		.uleb128 0x3f
 8486 23c0 010B0000 		.4byte	.LASF233
 8487 23c4 10       		.byte	0x10
 8488 23c5 25       		.byte	0x25
 8489 23c6 C3000000 		.4byte	0xc3
 8490 23ca D4230000 		.4byte	0x23d4
 8491 23ce 0F       		.uleb128 0xf
 8492 23cf 05080000 		.4byte	0x805
 8493 23d3 00       		.byte	0
 8494 23d4 3F       		.uleb128 0x3f
 8495 23d5 5D040000 		.4byte	.LASF234
 8496 23d9 18       		.byte	0x18
 8497 23da 16       		.byte	0x16
 8498 23db FA000000 		.4byte	0xfa
 8499 23df E9230000 		.4byte	0x23e9
 8500 23e3 0F       		.uleb128 0xf
 8501 23e4 B8000000 		.4byte	0xb8
 8502 23e8 00       		.byte	0
 8503 23e9 3F       		.uleb128 0x3f
 8504 23ea C8000000 		.4byte	.LASF235
 8505 23ee 14       		.byte	0x14
 8506 23ef 17       		.byte	0x17
 8507 23f0 D9000000 		.4byte	0xd9
 8508 23f4 FE230000 		.4byte	0x23fe
 8509 23f8 0F       		.uleb128 0xf
 8510 23f9 D0090000 		.4byte	0x9d0
 8511 23fd 00       		.byte	0
 8512 23fe 3E       		.uleb128 0x3e
 8513 23ff C2080000 		.4byte	.LASF237
 8514 2403 19       		.byte	0x19
 8515 2404 22       		.byte	0x22
 8516 2405 B8000000 		.4byte	0xb8
 8517 2409 20       		.uleb128 0x20
 8518 240a 6A030000 		.4byte	.LASF197
 8519 240e 01       		.byte	0x1
 8520 240f 9602     		.2byte	0x296
 8521 2411 33000000 		.4byte	0x33
 8522 2415 1B240000 		.4byte	0x241b
 8523 2419 1F       		.uleb128 0x1f
 8524 241a 00       		.byte	0
 8525 241b 3E       		.uleb128 0x3e
 8526 241c 62080000 		.4byte	.LASF238
 8527 2420 19       		.byte	0x19
 8528 2421 15       		.byte	0x15
 8529 2422 FA000000 		.4byte	0xfa
 8530 2426 3E       		.uleb128 0x3e
 8531 2427 BA040000 		.4byte	.LASF239
 8532 242b 14       		.byte	0x14
 8533 242c 19       		.byte	0x19
 8534 242d E4000000 		.4byte	0xe4
 8535 2431 1E       		.uleb128 0x1e
 8536 2432 C7040000 		.4byte	.LASF196
 8537 2436 01       		.byte	0x1
 8538 2437 F5       		.byte	0xf5
 8539 2438 33000000 		.4byte	0x33
ARM GAS  C:\Users\danit\AppData\Local\Temp\cc88b6Ga.s 			page 152


 8540 243c 42240000 		.4byte	0x2442
 8541 2440 1F       		.uleb128 0x1f
 8542 2441 00       		.byte	0
 8543 2442 3D       		.uleb128 0x3d
 8544 2443 E4040000 		.4byte	.LASF240
 8545 2447 17       		.byte	0x17
 8546 2448 14       		.byte	0x14
 8547 2449 53240000 		.4byte	0x2453
 8548 244d 0F       		.uleb128 0xf
 8549 244e 33000000 		.4byte	0x33
 8550 2452 00       		.byte	0
 8551 2453 3D       		.uleb128 0x3d
 8552 2454 CA030000 		.4byte	.LASF241
 8553 2458 17       		.byte	0x17
 8554 2459 15       		.byte	0x15
 8555 245a 64240000 		.4byte	0x2464
 8556 245e 0F       		.uleb128 0xf
 8557 245f 33000000 		.4byte	0x33
 8558 2463 00       		.byte	0
 8559 2464 40       		.uleb128 0x40
 8560 2465 03010000 		.4byte	.LASF245
 8561 2469 17       		.byte	0x17
 8562 246a 1D       		.byte	0x1d
 8563 246b 3E       		.uleb128 0x3e
 8564 246c 16080000 		.4byte	.LASF242
 8565 2470 17       		.byte	0x17
 8566 2471 1A       		.byte	0x1a
 8567 2472 CE000000 		.4byte	0xce
 8568 2476 3D       		.uleb128 0x3d
 8569 2477 66000000 		.4byte	.LASF243
 8570 247b 02       		.byte	0x2
 8571 247c 28       		.byte	0x28
 8572 247d 91240000 		.4byte	0x2491
 8573 2481 0F       		.uleb128 0xf
 8574 2482 BD120000 		.4byte	0x12bd
 8575 2486 0F       		.uleb128 0xf
 8576 2487 11050000 		.4byte	0x511
 8577 248b 0F       		.uleb128 0xf
 8578 248c F5090000 		.4byte	0x9f5
 8579 2490 00       		.byte	0
 8580 2491 3D       		.uleb128 0x3d
 8581 2492 8F000000 		.4byte	.LASF244
 8582 2496 17       		.byte	0x17
 8583 2497 0E       		.byte	0xe
 8584 2498 A7240000 		.4byte	0x24a7
 8585 249c 0F       		.uleb128 0xf
 8586 249d 33000000 		.4byte	0x33
 8587 24a1 0F       		.uleb128 0xf
 8588 24a2 33000000 		.4byte	0x33
 8589 24a6 00       		.byte	0
 8590 24a7 1E       		.uleb128 0x1e
 8591 24a8 4C050000 		.4byte	.LASF201
 8592 24ac 01       		.byte	0x1
 8593 24ad 87       		.byte	0x87
 8594 24ae 33000000 		.4byte	0x33
 8595 24b2 B8240000 		.4byte	0x24b8
 8596 24b6 1F       		.uleb128 0x1f
ARM GAS  C:\Users\danit\AppData\Local\Temp\cc88b6Ga.s 			page 153


 8597 24b7 00       		.byte	0
 8598 24b8 40       		.uleb128 0x40
 8599 24b9 6B050000 		.4byte	.LASF246
 8600 24bd 17       		.byte	0x17
 8601 24be 0C       		.byte	0xc
 8602 24bf 40       		.uleb128 0x40
 8603 24c0 D7060000 		.4byte	.LASF247
 8604 24c4 17       		.byte	0x17
 8605 24c5 0D       		.byte	0xd
 8606 24c6 40       		.uleb128 0x40
 8607 24c7 B20B0000 		.4byte	.LASF248
 8608 24cb 17       		.byte	0x17
 8609 24cc 1B       		.byte	0x1b
 8610 24cd 41       		.uleb128 0x41
 8611 24ce EE060000 		.4byte	.LASF249
 8612 24d2 08       		.byte	0x8
 8613 24d3 7001     		.2byte	0x170
 8614 24d5 8D020000 		.4byte	0x28d
 8615 24d9 F7240000 		.4byte	0x24f7
 8616 24dd 0F       		.uleb128 0xf
 8617 24de C9020000 		.4byte	0x2c9
 8618 24e2 0F       		.uleb128 0xf
 8619 24e3 3A000000 		.4byte	0x3a
 8620 24e7 0F       		.uleb128 0xf
 8621 24e8 38010000 		.4byte	0x138
 8622 24ec 0F       		.uleb128 0xf
 8623 24ed 29050000 		.4byte	0x529
 8624 24f1 0F       		.uleb128 0xf
 8625 24f2 C9020000 		.4byte	0x2c9
 8626 24f6 00       		.byte	0
 8627 24f7 42       		.uleb128 0x42
 8628 24f8 6F0A0000 		.4byte	.LASF250
 8629 24fc 08       		.byte	0x8
 8630 24fd 7501     		.2byte	0x175
 8631 24ff 09250000 		.4byte	0x2509
 8632 2503 0F       		.uleb128 0xf
 8633 2504 59010000 		.4byte	0x159
 8634 2508 00       		.byte	0
 8635 2509 20       		.uleb128 0x20
 8636 250a 940B0000 		.4byte	.LASF212
 8637 250e 01       		.byte	0x1
 8638 250f D403     		.2byte	0x3d4
 8639 2511 33000000 		.4byte	0x33
 8640 2515 1B250000 		.4byte	0x251b
 8641 2519 1F       		.uleb128 0x1f
 8642 251a 00       		.byte	0
 8643 251b 3F       		.uleb128 0x3f
 8644 251c 540C0000 		.4byte	.LASF211
 8645 2520 12       		.byte	0x12
 8646 2521 00       		.byte	0
 8647 2522 33000000 		.4byte	0x33
 8648 2526 35250000 		.4byte	0x2535
 8649 252a 0F       		.uleb128 0xf
 8650 252b 11050000 		.4byte	0x511
 8651 252f 0F       		.uleb128 0xf
 8652 2530 11050000 		.4byte	0x511
 8653 2534 00       		.byte	0
ARM GAS  C:\Users\danit\AppData\Local\Temp\cc88b6Ga.s 			page 154


 8654 2535 43       		.uleb128 0x43
 8655 2536 30030000 		.4byte	.LASF259
 8656 253a 17       		.byte	0x17
 8657 253b 12       		.byte	0x12
 8658 253c 0F       		.uleb128 0xf
 8659 253d 33000000 		.4byte	0x33
 8660 2541 00       		.byte	0
 8661 2542 00       		.byte	0
 8662              		.section	.debug_abbrev,"",%progbits
 8663              	.Ldebug_abbrev0:
 8664 0000 01       		.uleb128 0x1
 8665 0001 11       		.uleb128 0x11
 8666 0002 01       		.byte	0x1
 8667 0003 25       		.uleb128 0x25
 8668 0004 0E       		.uleb128 0xe
 8669 0005 13       		.uleb128 0x13
 8670 0006 0B       		.uleb128 0xb
 8671 0007 03       		.uleb128 0x3
 8672 0008 0E       		.uleb128 0xe
 8673 0009 1B       		.uleb128 0x1b
 8674 000a 0E       		.uleb128 0xe
 8675 000b 55       		.uleb128 0x55
 8676 000c 17       		.uleb128 0x17
 8677 000d 11       		.uleb128 0x11
 8678 000e 01       		.uleb128 0x1
 8679 000f 10       		.uleb128 0x10
 8680 0010 17       		.uleb128 0x17
 8681 0011 00       		.byte	0
 8682 0012 00       		.byte	0
 8683 0013 02       		.uleb128 0x2
 8684 0014 24       		.uleb128 0x24
 8685 0015 00       		.byte	0
 8686 0016 0B       		.uleb128 0xb
 8687 0017 0B       		.uleb128 0xb
 8688 0018 3E       		.uleb128 0x3e
 8689 0019 0B       		.uleb128 0xb
 8690 001a 03       		.uleb128 0x3
 8691 001b 0E       		.uleb128 0xe
 8692 001c 00       		.byte	0
 8693 001d 00       		.byte	0
 8694 001e 03       		.uleb128 0x3
 8695 001f 24       		.uleb128 0x24
 8696 0020 00       		.byte	0
 8697 0021 0B       		.uleb128 0xb
 8698 0022 0B       		.uleb128 0xb
 8699 0023 3E       		.uleb128 0x3e
 8700 0024 0B       		.uleb128 0xb
 8701 0025 03       		.uleb128 0x3
 8702 0026 08       		.uleb128 0x8
 8703 0027 00       		.byte	0
 8704 0028 00       		.byte	0
 8705 0029 04       		.uleb128 0x4
 8706 002a 16       		.uleb128 0x16
 8707 002b 00       		.byte	0
 8708 002c 03       		.uleb128 0x3
 8709 002d 0E       		.uleb128 0xe
 8710 002e 3A       		.uleb128 0x3a
ARM GAS  C:\Users\danit\AppData\Local\Temp\cc88b6Ga.s 			page 155


 8711 002f 0B       		.uleb128 0xb
 8712 0030 3B       		.uleb128 0x3b
 8713 0031 0B       		.uleb128 0xb
 8714 0032 49       		.uleb128 0x49
 8715 0033 13       		.uleb128 0x13
 8716 0034 00       		.byte	0
 8717 0035 00       		.byte	0
 8718 0036 05       		.uleb128 0x5
 8719 0037 13       		.uleb128 0x13
 8720 0038 01       		.byte	0x1
 8721 0039 03       		.uleb128 0x3
 8722 003a 0E       		.uleb128 0xe
 8723 003b 0B       		.uleb128 0xb
 8724 003c 0B       		.uleb128 0xb
 8725 003d 3A       		.uleb128 0x3a
 8726 003e 0B       		.uleb128 0xb
 8727 003f 3B       		.uleb128 0x3b
 8728 0040 0B       		.uleb128 0xb
 8729 0041 01       		.uleb128 0x1
 8730 0042 13       		.uleb128 0x13
 8731 0043 00       		.byte	0
 8732 0044 00       		.byte	0
 8733 0045 06       		.uleb128 0x6
 8734 0046 0D       		.uleb128 0xd
 8735 0047 00       		.byte	0
 8736 0048 03       		.uleb128 0x3
 8737 0049 0E       		.uleb128 0xe
 8738 004a 3A       		.uleb128 0x3a
 8739 004b 0B       		.uleb128 0xb
 8740 004c 3B       		.uleb128 0x3b
 8741 004d 0B       		.uleb128 0xb
 8742 004e 49       		.uleb128 0x49
 8743 004f 13       		.uleb128 0x13
 8744 0050 38       		.uleb128 0x38
 8745 0051 0B       		.uleb128 0xb
 8746 0052 00       		.byte	0
 8747 0053 00       		.byte	0
 8748 0054 07       		.uleb128 0x7
 8749 0055 0D       		.uleb128 0xd
 8750 0056 00       		.byte	0
 8751 0057 03       		.uleb128 0x3
 8752 0058 08       		.uleb128 0x8
 8753 0059 3A       		.uleb128 0x3a
 8754 005a 0B       		.uleb128 0xb
 8755 005b 3B       		.uleb128 0x3b
 8756 005c 0B       		.uleb128 0xb
 8757 005d 49       		.uleb128 0x49
 8758 005e 13       		.uleb128 0x13
 8759 005f 38       		.uleb128 0x38
 8760 0060 0B       		.uleb128 0xb
 8761 0061 00       		.byte	0
 8762 0062 00       		.byte	0
 8763 0063 08       		.uleb128 0x8
 8764 0064 13       		.uleb128 0x13
 8765 0065 01       		.byte	0x1
 8766 0066 0B       		.uleb128 0xb
 8767 0067 0B       		.uleb128 0xb
ARM GAS  C:\Users\danit\AppData\Local\Temp\cc88b6Ga.s 			page 156


 8768 0068 3A       		.uleb128 0x3a
 8769 0069 0B       		.uleb128 0xb
 8770 006a 3B       		.uleb128 0x3b
 8771 006b 0B       		.uleb128 0xb
 8772 006c 01       		.uleb128 0x1
 8773 006d 13       		.uleb128 0x13
 8774 006e 00       		.byte	0
 8775 006f 00       		.byte	0
 8776 0070 09       		.uleb128 0x9
 8777 0071 0F       		.uleb128 0xf
 8778 0072 00       		.byte	0
 8779 0073 0B       		.uleb128 0xb
 8780 0074 0B       		.uleb128 0xb
 8781 0075 49       		.uleb128 0x49
 8782 0076 13       		.uleb128 0x13
 8783 0077 00       		.byte	0
 8784 0078 00       		.byte	0
 8785 0079 0A       		.uleb128 0xa
 8786 007a 0F       		.uleb128 0xf
 8787 007b 00       		.byte	0
 8788 007c 0B       		.uleb128 0xb
 8789 007d 0B       		.uleb128 0xb
 8790 007e 00       		.byte	0
 8791 007f 00       		.byte	0
 8792 0080 0B       		.uleb128 0xb
 8793 0081 13       		.uleb128 0x13
 8794 0082 01       		.byte	0x1
 8795 0083 03       		.uleb128 0x3
 8796 0084 0E       		.uleb128 0xe
 8797 0085 0B       		.uleb128 0xb
 8798 0086 0B       		.uleb128 0xb
 8799 0087 3A       		.uleb128 0x3a
 8800 0088 0B       		.uleb128 0xb
 8801 0089 3B       		.uleb128 0x3b
 8802 008a 05       		.uleb128 0x5
 8803 008b 01       		.uleb128 0x1
 8804 008c 13       		.uleb128 0x13
 8805 008d 00       		.byte	0
 8806 008e 00       		.byte	0
 8807 008f 0C       		.uleb128 0xc
 8808 0090 0D       		.uleb128 0xd
 8809 0091 00       		.byte	0
 8810 0092 03       		.uleb128 0x3
 8811 0093 08       		.uleb128 0x8
 8812 0094 3A       		.uleb128 0x3a
 8813 0095 0B       		.uleb128 0xb
 8814 0096 3B       		.uleb128 0x3b
 8815 0097 05       		.uleb128 0x5
 8816 0098 49       		.uleb128 0x49
 8817 0099 13       		.uleb128 0x13
 8818 009a 38       		.uleb128 0x38
 8819 009b 0B       		.uleb128 0xb
 8820 009c 00       		.byte	0
 8821 009d 00       		.byte	0
 8822 009e 0D       		.uleb128 0xd
 8823 009f 35       		.uleb128 0x35
 8824 00a0 00       		.byte	0
ARM GAS  C:\Users\danit\AppData\Local\Temp\cc88b6Ga.s 			page 157


 8825 00a1 49       		.uleb128 0x49
 8826 00a2 13       		.uleb128 0x13
 8827 00a3 00       		.byte	0
 8828 00a4 00       		.byte	0
 8829 00a5 0E       		.uleb128 0xe
 8830 00a6 15       		.uleb128 0x15
 8831 00a7 01       		.byte	0x1
 8832 00a8 27       		.uleb128 0x27
 8833 00a9 19       		.uleb128 0x19
 8834 00aa 01       		.uleb128 0x1
 8835 00ab 13       		.uleb128 0x13
 8836 00ac 00       		.byte	0
 8837 00ad 00       		.byte	0
 8838 00ae 0F       		.uleb128 0xf
 8839 00af 05       		.uleb128 0x5
 8840 00b0 00       		.byte	0
 8841 00b1 49       		.uleb128 0x49
 8842 00b2 13       		.uleb128 0x13
 8843 00b3 00       		.byte	0
 8844 00b4 00       		.byte	0
 8845 00b5 10       		.uleb128 0x10
 8846 00b6 17       		.uleb128 0x17
 8847 00b7 01       		.byte	0x1
 8848 00b8 0B       		.uleb128 0xb
 8849 00b9 0B       		.uleb128 0xb
 8850 00ba 3A       		.uleb128 0x3a
 8851 00bb 0B       		.uleb128 0xb
 8852 00bc 3B       		.uleb128 0x3b
 8853 00bd 0B       		.uleb128 0xb
 8854 00be 01       		.uleb128 0x1
 8855 00bf 13       		.uleb128 0x13
 8856 00c0 00       		.byte	0
 8857 00c1 00       		.byte	0
 8858 00c2 11       		.uleb128 0x11
 8859 00c3 0D       		.uleb128 0xd
 8860 00c4 00       		.byte	0
 8861 00c5 03       		.uleb128 0x3
 8862 00c6 0E       		.uleb128 0xe
 8863 00c7 3A       		.uleb128 0x3a
 8864 00c8 0B       		.uleb128 0xb
 8865 00c9 3B       		.uleb128 0x3b
 8866 00ca 0B       		.uleb128 0xb
 8867 00cb 49       		.uleb128 0x49
 8868 00cc 13       		.uleb128 0x13
 8869 00cd 00       		.byte	0
 8870 00ce 00       		.byte	0
 8871 00cf 12       		.uleb128 0x12
 8872 00d0 26       		.uleb128 0x26
 8873 00d1 00       		.byte	0
 8874 00d2 49       		.uleb128 0x49
 8875 00d3 13       		.uleb128 0x13
 8876 00d4 00       		.byte	0
 8877 00d5 00       		.byte	0
 8878 00d6 13       		.uleb128 0x13
 8879 00d7 15       		.uleb128 0x15
 8880 00d8 01       		.byte	0x1
 8881 00d9 27       		.uleb128 0x27
ARM GAS  C:\Users\danit\AppData\Local\Temp\cc88b6Ga.s 			page 158


 8882 00da 19       		.uleb128 0x19
 8883 00db 49       		.uleb128 0x49
 8884 00dc 13       		.uleb128 0x13
 8885 00dd 01       		.uleb128 0x1
 8886 00de 13       		.uleb128 0x13
 8887 00df 00       		.byte	0
 8888 00e0 00       		.byte	0
 8889 00e1 14       		.uleb128 0x14
 8890 00e2 0D       		.uleb128 0xd
 8891 00e3 00       		.byte	0
 8892 00e4 03       		.uleb128 0x3
 8893 00e5 08       		.uleb128 0x8
 8894 00e6 3A       		.uleb128 0x3a
 8895 00e7 0B       		.uleb128 0xb
 8896 00e8 3B       		.uleb128 0x3b
 8897 00e9 0B       		.uleb128 0xb
 8898 00ea 49       		.uleb128 0x49
 8899 00eb 13       		.uleb128 0x13
 8900 00ec 00       		.byte	0
 8901 00ed 00       		.byte	0
 8902 00ee 15       		.uleb128 0x15
 8903 00ef 04       		.uleb128 0x4
 8904 00f0 01       		.byte	0x1
 8905 00f1 03       		.uleb128 0x3
 8906 00f2 0E       		.uleb128 0xe
 8907 00f3 0B       		.uleb128 0xb
 8908 00f4 0B       		.uleb128 0xb
 8909 00f5 3A       		.uleb128 0x3a
 8910 00f6 0B       		.uleb128 0xb
 8911 00f7 3B       		.uleb128 0x3b
 8912 00f8 0B       		.uleb128 0xb
 8913 00f9 01       		.uleb128 0x1
 8914 00fa 13       		.uleb128 0x13
 8915 00fb 00       		.byte	0
 8916 00fc 00       		.byte	0
 8917 00fd 16       		.uleb128 0x16
 8918 00fe 28       		.uleb128 0x28
 8919 00ff 00       		.byte	0
 8920 0100 03       		.uleb128 0x3
 8921 0101 0E       		.uleb128 0xe
 8922 0102 1C       		.uleb128 0x1c
 8923 0103 0D       		.uleb128 0xd
 8924 0104 00       		.byte	0
 8925 0105 00       		.byte	0
 8926 0106 17       		.uleb128 0x17
 8927 0107 0D       		.uleb128 0xd
 8928 0108 00       		.byte	0
 8929 0109 03       		.uleb128 0x3
 8930 010a 0E       		.uleb128 0xe
 8931 010b 49       		.uleb128 0x49
 8932 010c 13       		.uleb128 0x13
 8933 010d 38       		.uleb128 0x38
 8934 010e 0B       		.uleb128 0xb
 8935 010f 34       		.uleb128 0x34
 8936 0110 19       		.uleb128 0x19
 8937 0111 00       		.byte	0
 8938 0112 00       		.byte	0
ARM GAS  C:\Users\danit\AppData\Local\Temp\cc88b6Ga.s 			page 159


 8939 0113 18       		.uleb128 0x18
 8940 0114 2E       		.uleb128 0x2e
 8941 0115 01       		.byte	0x1
 8942 0116 03       		.uleb128 0x3
 8943 0117 0E       		.uleb128 0xe
 8944 0118 3A       		.uleb128 0x3a
 8945 0119 0B       		.uleb128 0xb
 8946 011a 3B       		.uleb128 0x3b
 8947 011b 0B       		.uleb128 0xb
 8948 011c 27       		.uleb128 0x27
 8949 011d 19       		.uleb128 0x19
 8950 011e 49       		.uleb128 0x49
 8951 011f 13       		.uleb128 0x13
 8952 0120 11       		.uleb128 0x11
 8953 0121 01       		.uleb128 0x1
 8954 0122 12       		.uleb128 0x12
 8955 0123 06       		.uleb128 0x6
 8956 0124 40       		.uleb128 0x40
 8957 0125 18       		.uleb128 0x18
 8958 0126 9742     		.uleb128 0x2117
 8959 0128 19       		.uleb128 0x19
 8960 0129 01       		.uleb128 0x1
 8961 012a 13       		.uleb128 0x13
 8962 012b 00       		.byte	0
 8963 012c 00       		.byte	0
 8964 012d 19       		.uleb128 0x19
 8965 012e 05       		.uleb128 0x5
 8966 012f 00       		.byte	0
 8967 0130 03       		.uleb128 0x3
 8968 0131 08       		.uleb128 0x8
 8969 0132 3A       		.uleb128 0x3a
 8970 0133 0B       		.uleb128 0xb
 8971 0134 3B       		.uleb128 0x3b
 8972 0135 0B       		.uleb128 0xb
 8973 0136 49       		.uleb128 0x49
 8974 0137 13       		.uleb128 0x13
 8975 0138 02       		.uleb128 0x2
 8976 0139 17       		.uleb128 0x17
 8977 013a 00       		.byte	0
 8978 013b 00       		.byte	0
 8979 013c 1A       		.uleb128 0x1a
 8980 013d 34       		.uleb128 0x34
 8981 013e 00       		.byte	0
 8982 013f 03       		.uleb128 0x3
 8983 0140 0E       		.uleb128 0xe
 8984 0141 3A       		.uleb128 0x3a
 8985 0142 0B       		.uleb128 0xb
 8986 0143 3B       		.uleb128 0x3b
 8987 0144 0B       		.uleb128 0xb
 8988 0145 49       		.uleb128 0x49
 8989 0146 13       		.uleb128 0x13
 8990 0147 02       		.uleb128 0x2
 8991 0148 18       		.uleb128 0x18
 8992 0149 00       		.byte	0
 8993 014a 00       		.byte	0
 8994 014b 1B       		.uleb128 0x1b
 8995 014c 0B       		.uleb128 0xb
ARM GAS  C:\Users\danit\AppData\Local\Temp\cc88b6Ga.s 			page 160


 8996 014d 01       		.byte	0x1
 8997 014e 11       		.uleb128 0x11
 8998 014f 01       		.uleb128 0x1
 8999 0150 12       		.uleb128 0x12
 9000 0151 06       		.uleb128 0x6
 9001 0152 00       		.byte	0
 9002 0153 00       		.byte	0
 9003 0154 1C       		.uleb128 0x1c
 9004 0155 34       		.uleb128 0x34
 9005 0156 00       		.byte	0
 9006 0157 03       		.uleb128 0x3
 9007 0158 0E       		.uleb128 0xe
 9008 0159 3A       		.uleb128 0x3a
 9009 015a 0B       		.uleb128 0xb
 9010 015b 3B       		.uleb128 0x3b
 9011 015c 0B       		.uleb128 0xb
 9012 015d 49       		.uleb128 0x49
 9013 015e 13       		.uleb128 0x13
 9014 015f 02       		.uleb128 0x2
 9015 0160 17       		.uleb128 0x17
 9016 0161 00       		.byte	0
 9017 0162 00       		.byte	0
 9018 0163 1D       		.uleb128 0x1d
 9019 0164 0B       		.uleb128 0xb
 9020 0165 01       		.byte	0x1
 9021 0166 55       		.uleb128 0x55
 9022 0167 17       		.uleb128 0x17
 9023 0168 01       		.uleb128 0x1
 9024 0169 13       		.uleb128 0x13
 9025 016a 00       		.byte	0
 9026 016b 00       		.byte	0
 9027 016c 1E       		.uleb128 0x1e
 9028 016d 2E       		.uleb128 0x2e
 9029 016e 01       		.byte	0x1
 9030 016f 3F       		.uleb128 0x3f
 9031 0170 19       		.uleb128 0x19
 9032 0171 03       		.uleb128 0x3
 9033 0172 0E       		.uleb128 0xe
 9034 0173 3A       		.uleb128 0x3a
 9035 0174 0B       		.uleb128 0xb
 9036 0175 3B       		.uleb128 0x3b
 9037 0176 0B       		.uleb128 0xb
 9038 0177 49       		.uleb128 0x49
 9039 0178 13       		.uleb128 0x13
 9040 0179 3C       		.uleb128 0x3c
 9041 017a 19       		.uleb128 0x19
 9042 017b 01       		.uleb128 0x1
 9043 017c 13       		.uleb128 0x13
 9044 017d 00       		.byte	0
 9045 017e 00       		.byte	0
 9046 017f 1F       		.uleb128 0x1f
 9047 0180 18       		.uleb128 0x18
 9048 0181 00       		.byte	0
 9049 0182 00       		.byte	0
 9050 0183 00       		.byte	0
 9051 0184 20       		.uleb128 0x20
 9052 0185 2E       		.uleb128 0x2e
ARM GAS  C:\Users\danit\AppData\Local\Temp\cc88b6Ga.s 			page 161


 9053 0186 01       		.byte	0x1
 9054 0187 3F       		.uleb128 0x3f
 9055 0188 19       		.uleb128 0x19
 9056 0189 03       		.uleb128 0x3
 9057 018a 0E       		.uleb128 0xe
 9058 018b 3A       		.uleb128 0x3a
 9059 018c 0B       		.uleb128 0xb
 9060 018d 3B       		.uleb128 0x3b
 9061 018e 05       		.uleb128 0x5
 9062 018f 49       		.uleb128 0x49
 9063 0190 13       		.uleb128 0x13
 9064 0191 3C       		.uleb128 0x3c
 9065 0192 19       		.uleb128 0x19
 9066 0193 01       		.uleb128 0x1
 9067 0194 13       		.uleb128 0x13
 9068 0195 00       		.byte	0
 9069 0196 00       		.byte	0
 9070 0197 21       		.uleb128 0x21
 9071 0198 898201   		.uleb128 0x4109
 9072 019b 01       		.byte	0x1
 9073 019c 11       		.uleb128 0x11
 9074 019d 01       		.uleb128 0x1
 9075 019e 31       		.uleb128 0x31
 9076 019f 13       		.uleb128 0x13
 9077 01a0 01       		.uleb128 0x1
 9078 01a1 13       		.uleb128 0x13
 9079 01a2 00       		.byte	0
 9080 01a3 00       		.byte	0
 9081 01a4 22       		.uleb128 0x22
 9082 01a5 8A8201   		.uleb128 0x410a
 9083 01a8 00       		.byte	0
 9084 01a9 02       		.uleb128 0x2
 9085 01aa 18       		.uleb128 0x18
 9086 01ab 9142     		.uleb128 0x2111
 9087 01ad 18       		.uleb128 0x18
 9088 01ae 00       		.byte	0
 9089 01af 00       		.byte	0
 9090 01b0 23       		.uleb128 0x23
 9091 01b1 898201   		.uleb128 0x4109
 9092 01b4 00       		.byte	0
 9093 01b5 11       		.uleb128 0x11
 9094 01b6 01       		.uleb128 0x1
 9095 01b7 31       		.uleb128 0x31
 9096 01b8 13       		.uleb128 0x13
 9097 01b9 00       		.byte	0
 9098 01ba 00       		.byte	0
 9099 01bb 24       		.uleb128 0x24
 9100 01bc 898201   		.uleb128 0x4109
 9101 01bf 01       		.byte	0x1
 9102 01c0 11       		.uleb128 0x11
 9103 01c1 01       		.uleb128 0x1
 9104 01c2 31       		.uleb128 0x31
 9105 01c3 13       		.uleb128 0x13
 9106 01c4 00       		.byte	0
 9107 01c5 00       		.byte	0
 9108 01c6 25       		.uleb128 0x25
 9109 01c7 2E       		.uleb128 0x2e
ARM GAS  C:\Users\danit\AppData\Local\Temp\cc88b6Ga.s 			page 162


 9110 01c8 01       		.byte	0x1
 9111 01c9 03       		.uleb128 0x3
 9112 01ca 0E       		.uleb128 0xe
 9113 01cb 3A       		.uleb128 0x3a
 9114 01cc 0B       		.uleb128 0xb
 9115 01cd 3B       		.uleb128 0x3b
 9116 01ce 0B       		.uleb128 0xb
 9117 01cf 27       		.uleb128 0x27
 9118 01d0 19       		.uleb128 0x19
 9119 01d1 11       		.uleb128 0x11
 9120 01d2 01       		.uleb128 0x1
 9121 01d3 12       		.uleb128 0x12
 9122 01d4 06       		.uleb128 0x6
 9123 01d5 40       		.uleb128 0x40
 9124 01d6 18       		.uleb128 0x18
 9125 01d7 9742     		.uleb128 0x2117
 9126 01d9 19       		.uleb128 0x19
 9127 01da 01       		.uleb128 0x1
 9128 01db 13       		.uleb128 0x13
 9129 01dc 00       		.byte	0
 9130 01dd 00       		.byte	0
 9131 01de 26       		.uleb128 0x26
 9132 01df 05       		.uleb128 0x5
 9133 01e0 00       		.byte	0
 9134 01e1 03       		.uleb128 0x3
 9135 01e2 08       		.uleb128 0x8
 9136 01e3 3A       		.uleb128 0x3a
 9137 01e4 0B       		.uleb128 0xb
 9138 01e5 3B       		.uleb128 0x3b
 9139 01e6 0B       		.uleb128 0xb
 9140 01e7 49       		.uleb128 0x49
 9141 01e8 13       		.uleb128 0x13
 9142 01e9 02       		.uleb128 0x2
 9143 01ea 18       		.uleb128 0x18
 9144 01eb 00       		.byte	0
 9145 01ec 00       		.byte	0
 9146 01ed 27       		.uleb128 0x27
 9147 01ee 34       		.uleb128 0x34
 9148 01ef 00       		.byte	0
 9149 01f0 03       		.uleb128 0x3
 9150 01f1 08       		.uleb128 0x8
 9151 01f2 3A       		.uleb128 0x3a
 9152 01f3 0B       		.uleb128 0xb
 9153 01f4 3B       		.uleb128 0x3b
 9154 01f5 0B       		.uleb128 0xb
 9155 01f6 49       		.uleb128 0x49
 9156 01f7 13       		.uleb128 0x13
 9157 01f8 02       		.uleb128 0x2
 9158 01f9 18       		.uleb128 0x18
 9159 01fa 00       		.byte	0
 9160 01fb 00       		.byte	0
 9161 01fc 28       		.uleb128 0x28
 9162 01fd 2E       		.uleb128 0x2e
 9163 01fe 01       		.byte	0x1
 9164 01ff 3F       		.uleb128 0x3f
 9165 0200 19       		.uleb128 0x19
 9166 0201 03       		.uleb128 0x3
ARM GAS  C:\Users\danit\AppData\Local\Temp\cc88b6Ga.s 			page 163


 9167 0202 0E       		.uleb128 0xe
 9168 0203 3A       		.uleb128 0x3a
 9169 0204 0B       		.uleb128 0xb
 9170 0205 3B       		.uleb128 0x3b
 9171 0206 0B       		.uleb128 0xb
 9172 0207 27       		.uleb128 0x27
 9173 0208 19       		.uleb128 0x19
 9174 0209 11       		.uleb128 0x11
 9175 020a 01       		.uleb128 0x1
 9176 020b 12       		.uleb128 0x12
 9177 020c 06       		.uleb128 0x6
 9178 020d 40       		.uleb128 0x40
 9179 020e 18       		.uleb128 0x18
 9180 020f 9742     		.uleb128 0x2117
 9181 0211 19       		.uleb128 0x19
 9182 0212 01       		.uleb128 0x1
 9183 0213 13       		.uleb128 0x13
 9184 0214 00       		.byte	0
 9185 0215 00       		.byte	0
 9186 0216 29       		.uleb128 0x29
 9187 0217 898201   		.uleb128 0x4109
 9188 021a 01       		.byte	0x1
 9189 021b 11       		.uleb128 0x11
 9190 021c 01       		.uleb128 0x1
 9191 021d 9542     		.uleb128 0x2115
 9192 021f 19       		.uleb128 0x19
 9193 0220 31       		.uleb128 0x31
 9194 0221 13       		.uleb128 0x13
 9195 0222 00       		.byte	0
 9196 0223 00       		.byte	0
 9197 0224 2A       		.uleb128 0x2a
 9198 0225 05       		.uleb128 0x5
 9199 0226 00       		.byte	0
 9200 0227 03       		.uleb128 0x3
 9201 0228 0E       		.uleb128 0xe
 9202 0229 3A       		.uleb128 0x3a
 9203 022a 0B       		.uleb128 0xb
 9204 022b 3B       		.uleb128 0x3b
 9205 022c 0B       		.uleb128 0xb
 9206 022d 49       		.uleb128 0x49
 9207 022e 13       		.uleb128 0x13
 9208 022f 02       		.uleb128 0x2
 9209 0230 17       		.uleb128 0x17
 9210 0231 00       		.byte	0
 9211 0232 00       		.byte	0
 9212 0233 2B       		.uleb128 0x2b
 9213 0234 898201   		.uleb128 0x4109
 9214 0237 01       		.byte	0x1
 9215 0238 11       		.uleb128 0x11
 9216 0239 01       		.uleb128 0x1
 9217 023a 9542     		.uleb128 0x2115
 9218 023c 19       		.uleb128 0x19
 9219 023d 31       		.uleb128 0x31
 9220 023e 13       		.uleb128 0x13
 9221 023f 01       		.uleb128 0x1
 9222 0240 13       		.uleb128 0x13
 9223 0241 00       		.byte	0
ARM GAS  C:\Users\danit\AppData\Local\Temp\cc88b6Ga.s 			page 164


 9224 0242 00       		.byte	0
 9225 0243 2C       		.uleb128 0x2c
 9226 0244 2E       		.uleb128 0x2e
 9227 0245 01       		.byte	0x1
 9228 0246 3F       		.uleb128 0x3f
 9229 0247 19       		.uleb128 0x19
 9230 0248 03       		.uleb128 0x3
 9231 0249 0E       		.uleb128 0xe
 9232 024a 3A       		.uleb128 0x3a
 9233 024b 0B       		.uleb128 0xb
 9234 024c 3B       		.uleb128 0x3b
 9235 024d 05       		.uleb128 0x5
 9236 024e 27       		.uleb128 0x27
 9237 024f 19       		.uleb128 0x19
 9238 0250 11       		.uleb128 0x11
 9239 0251 01       		.uleb128 0x1
 9240 0252 12       		.uleb128 0x12
 9241 0253 06       		.uleb128 0x6
 9242 0254 40       		.uleb128 0x40
 9243 0255 18       		.uleb128 0x18
 9244 0256 9742     		.uleb128 0x2117
 9245 0258 19       		.uleb128 0x19
 9246 0259 01       		.uleb128 0x1
 9247 025a 13       		.uleb128 0x13
 9248 025b 00       		.byte	0
 9249 025c 00       		.byte	0
 9250 025d 2D       		.uleb128 0x2d
 9251 025e 2E       		.uleb128 0x2e
 9252 025f 01       		.byte	0x1
 9253 0260 3F       		.uleb128 0x3f
 9254 0261 19       		.uleb128 0x19
 9255 0262 03       		.uleb128 0x3
 9256 0263 0E       		.uleb128 0xe
 9257 0264 3A       		.uleb128 0x3a
 9258 0265 0B       		.uleb128 0xb
 9259 0266 3B       		.uleb128 0x3b
 9260 0267 05       		.uleb128 0x5
 9261 0268 27       		.uleb128 0x27
 9262 0269 19       		.uleb128 0x19
 9263 026a 49       		.uleb128 0x49
 9264 026b 13       		.uleb128 0x13
 9265 026c 11       		.uleb128 0x11
 9266 026d 01       		.uleb128 0x1
 9267 026e 12       		.uleb128 0x12
 9268 026f 06       		.uleb128 0x6
 9269 0270 40       		.uleb128 0x40
 9270 0271 18       		.uleb128 0x18
 9271 0272 9742     		.uleb128 0x2117
 9272 0274 19       		.uleb128 0x19
 9273 0275 01       		.uleb128 0x1
 9274 0276 13       		.uleb128 0x13
 9275 0277 00       		.byte	0
 9276 0278 00       		.byte	0
 9277 0279 2E       		.uleb128 0x2e
 9278 027a 05       		.uleb128 0x5
 9279 027b 00       		.byte	0
 9280 027c 03       		.uleb128 0x3
ARM GAS  C:\Users\danit\AppData\Local\Temp\cc88b6Ga.s 			page 165


 9281 027d 08       		.uleb128 0x8
 9282 027e 3A       		.uleb128 0x3a
 9283 027f 0B       		.uleb128 0xb
 9284 0280 3B       		.uleb128 0x3b
 9285 0281 05       		.uleb128 0x5
 9286 0282 49       		.uleb128 0x49
 9287 0283 13       		.uleb128 0x13
 9288 0284 02       		.uleb128 0x2
 9289 0285 17       		.uleb128 0x17
 9290 0286 00       		.byte	0
 9291 0287 00       		.byte	0
 9292 0288 2F       		.uleb128 0x2f
 9293 0289 2E       		.uleb128 0x2e
 9294 028a 00       		.byte	0
 9295 028b 3F       		.uleb128 0x3f
 9296 028c 19       		.uleb128 0x19
 9297 028d 03       		.uleb128 0x3
 9298 028e 0E       		.uleb128 0xe
 9299 028f 3A       		.uleb128 0x3a
 9300 0290 0B       		.uleb128 0xb
 9301 0291 3B       		.uleb128 0x3b
 9302 0292 05       		.uleb128 0x5
 9303 0293 27       		.uleb128 0x27
 9304 0294 19       		.uleb128 0x19
 9305 0295 49       		.uleb128 0x49
 9306 0296 13       		.uleb128 0x13
 9307 0297 11       		.uleb128 0x11
 9308 0298 01       		.uleb128 0x1
 9309 0299 12       		.uleb128 0x12
 9310 029a 06       		.uleb128 0x6
 9311 029b 40       		.uleb128 0x40
 9312 029c 18       		.uleb128 0x18
 9313 029d 9742     		.uleb128 0x2117
 9314 029f 19       		.uleb128 0x19
 9315 02a0 00       		.byte	0
 9316 02a1 00       		.byte	0
 9317 02a2 30       		.uleb128 0x30
 9318 02a3 05       		.uleb128 0x5
 9319 02a4 00       		.byte	0
 9320 02a5 03       		.uleb128 0x3
 9321 02a6 0E       		.uleb128 0xe
 9322 02a7 3A       		.uleb128 0x3a
 9323 02a8 0B       		.uleb128 0xb
 9324 02a9 3B       		.uleb128 0x3b
 9325 02aa 05       		.uleb128 0x5
 9326 02ab 49       		.uleb128 0x49
 9327 02ac 13       		.uleb128 0x13
 9328 02ad 02       		.uleb128 0x2
 9329 02ae 17       		.uleb128 0x17
 9330 02af 00       		.byte	0
 9331 02b0 00       		.byte	0
 9332 02b1 31       		.uleb128 0x31
 9333 02b2 34       		.uleb128 0x34
 9334 02b3 00       		.byte	0
 9335 02b4 03       		.uleb128 0x3
 9336 02b5 08       		.uleb128 0x8
 9337 02b6 3A       		.uleb128 0x3a
ARM GAS  C:\Users\danit\AppData\Local\Temp\cc88b6Ga.s 			page 166


 9338 02b7 0B       		.uleb128 0xb
 9339 02b8 3B       		.uleb128 0x3b
 9340 02b9 05       		.uleb128 0x5
 9341 02ba 49       		.uleb128 0x49
 9342 02bb 13       		.uleb128 0x13
 9343 02bc 02       		.uleb128 0x2
 9344 02bd 17       		.uleb128 0x17
 9345 02be 00       		.byte	0
 9346 02bf 00       		.byte	0
 9347 02c0 32       		.uleb128 0x32
 9348 02c1 898201   		.uleb128 0x4109
 9349 02c4 01       		.byte	0x1
 9350 02c5 11       		.uleb128 0x11
 9351 02c6 01       		.uleb128 0x1
 9352 02c7 01       		.uleb128 0x1
 9353 02c8 13       		.uleb128 0x13
 9354 02c9 00       		.byte	0
 9355 02ca 00       		.byte	0
 9356 02cb 33       		.uleb128 0x33
 9357 02cc 0A       		.uleb128 0xa
 9358 02cd 00       		.byte	0
 9359 02ce 03       		.uleb128 0x3
 9360 02cf 0E       		.uleb128 0xe
 9361 02d0 3A       		.uleb128 0x3a
 9362 02d1 0B       		.uleb128 0xb
 9363 02d2 3B       		.uleb128 0x3b
 9364 02d3 05       		.uleb128 0x5
 9365 02d4 11       		.uleb128 0x11
 9366 02d5 01       		.uleb128 0x1
 9367 02d6 00       		.byte	0
 9368 02d7 00       		.byte	0
 9369 02d8 34       		.uleb128 0x34
 9370 02d9 0B       		.uleb128 0xb
 9371 02da 01       		.byte	0x1
 9372 02db 11       		.uleb128 0x11
 9373 02dc 01       		.uleb128 0x1
 9374 02dd 12       		.uleb128 0x12
 9375 02de 06       		.uleb128 0x6
 9376 02df 01       		.uleb128 0x1
 9377 02e0 13       		.uleb128 0x13
 9378 02e1 00       		.byte	0
 9379 02e2 00       		.byte	0
 9380 02e3 35       		.uleb128 0x35
 9381 02e4 898201   		.uleb128 0x4109
 9382 02e7 00       		.byte	0
 9383 02e8 11       		.uleb128 0x11
 9384 02e9 01       		.uleb128 0x1
 9385 02ea 9542     		.uleb128 0x2115
 9386 02ec 19       		.uleb128 0x19
 9387 02ed 31       		.uleb128 0x31
 9388 02ee 13       		.uleb128 0x13
 9389 02ef 00       		.byte	0
 9390 02f0 00       		.byte	0
 9391 02f1 36       		.uleb128 0x36
 9392 02f2 01       		.uleb128 0x1
 9393 02f3 01       		.byte	0x1
 9394 02f4 49       		.uleb128 0x49
ARM GAS  C:\Users\danit\AppData\Local\Temp\cc88b6Ga.s 			page 167


 9395 02f5 13       		.uleb128 0x13
 9396 02f6 01       		.uleb128 0x1
 9397 02f7 13       		.uleb128 0x13
 9398 02f8 00       		.byte	0
 9399 02f9 00       		.byte	0
 9400 02fa 37       		.uleb128 0x37
 9401 02fb 21       		.uleb128 0x21
 9402 02fc 00       		.byte	0
 9403 02fd 49       		.uleb128 0x49
 9404 02fe 13       		.uleb128 0x13
 9405 02ff 2F       		.uleb128 0x2f
 9406 0300 0B       		.uleb128 0xb
 9407 0301 00       		.byte	0
 9408 0302 00       		.byte	0
 9409 0303 38       		.uleb128 0x38
 9410 0304 34       		.uleb128 0x34
 9411 0305 00       		.byte	0
 9412 0306 03       		.uleb128 0x3
 9413 0307 0E       		.uleb128 0xe
 9414 0308 3A       		.uleb128 0x3a
 9415 0309 0B       		.uleb128 0xb
 9416 030a 3B       		.uleb128 0x3b
 9417 030b 0B       		.uleb128 0xb
 9418 030c 49       		.uleb128 0x49
 9419 030d 13       		.uleb128 0x13
 9420 030e 00       		.byte	0
 9421 030f 00       		.byte	0
 9422 0310 39       		.uleb128 0x39
 9423 0311 34       		.uleb128 0x34
 9424 0312 00       		.byte	0
 9425 0313 03       		.uleb128 0x3
 9426 0314 0E       		.uleb128 0xe
 9427 0315 3A       		.uleb128 0x3a
 9428 0316 0B       		.uleb128 0xb
 9429 0317 3B       		.uleb128 0x3b
 9430 0318 0B       		.uleb128 0xb
 9431 0319 49       		.uleb128 0x49
 9432 031a 13       		.uleb128 0x13
 9433 031b 3F       		.uleb128 0x3f
 9434 031c 19       		.uleb128 0x19
 9435 031d 3C       		.uleb128 0x3c
 9436 031e 19       		.uleb128 0x19
 9437 031f 00       		.byte	0
 9438 0320 00       		.byte	0
 9439 0321 3A       		.uleb128 0x3a
 9440 0322 34       		.uleb128 0x34
 9441 0323 00       		.byte	0
 9442 0324 03       		.uleb128 0x3
 9443 0325 0E       		.uleb128 0xe
 9444 0326 3A       		.uleb128 0x3a
 9445 0327 0B       		.uleb128 0xb
 9446 0328 3B       		.uleb128 0x3b
 9447 0329 05       		.uleb128 0x5
 9448 032a 49       		.uleb128 0x49
 9449 032b 13       		.uleb128 0x13
 9450 032c 3F       		.uleb128 0x3f
 9451 032d 19       		.uleb128 0x19
ARM GAS  C:\Users\danit\AppData\Local\Temp\cc88b6Ga.s 			page 168


 9452 032e 3C       		.uleb128 0x3c
 9453 032f 19       		.uleb128 0x19
 9454 0330 00       		.byte	0
 9455 0331 00       		.byte	0
 9456 0332 3B       		.uleb128 0x3b
 9457 0333 34       		.uleb128 0x34
 9458 0334 00       		.byte	0
 9459 0335 03       		.uleb128 0x3
 9460 0336 0E       		.uleb128 0xe
 9461 0337 3A       		.uleb128 0x3a
 9462 0338 0B       		.uleb128 0xb
 9463 0339 3B       		.uleb128 0x3b
 9464 033a 0B       		.uleb128 0xb
 9465 033b 49       		.uleb128 0x49
 9466 033c 13       		.uleb128 0x13
 9467 033d 3F       		.uleb128 0x3f
 9468 033e 19       		.uleb128 0x19
 9469 033f 02       		.uleb128 0x2
 9470 0340 18       		.uleb128 0x18
 9471 0341 00       		.byte	0
 9472 0342 00       		.byte	0
 9473 0343 3C       		.uleb128 0x3c
 9474 0344 34       		.uleb128 0x34
 9475 0345 00       		.byte	0
 9476 0346 03       		.uleb128 0x3
 9477 0347 08       		.uleb128 0x8
 9478 0348 3A       		.uleb128 0x3a
 9479 0349 0B       		.uleb128 0xb
 9480 034a 3B       		.uleb128 0x3b
 9481 034b 0B       		.uleb128 0xb
 9482 034c 49       		.uleb128 0x49
 9483 034d 13       		.uleb128 0x13
 9484 034e 3F       		.uleb128 0x3f
 9485 034f 19       		.uleb128 0x19
 9486 0350 02       		.uleb128 0x2
 9487 0351 18       		.uleb128 0x18
 9488 0352 00       		.byte	0
 9489 0353 00       		.byte	0
 9490 0354 3D       		.uleb128 0x3d
 9491 0355 2E       		.uleb128 0x2e
 9492 0356 01       		.byte	0x1
 9493 0357 3F       		.uleb128 0x3f
 9494 0358 19       		.uleb128 0x19
 9495 0359 03       		.uleb128 0x3
 9496 035a 0E       		.uleb128 0xe
 9497 035b 3A       		.uleb128 0x3a
 9498 035c 0B       		.uleb128 0xb
 9499 035d 3B       		.uleb128 0x3b
 9500 035e 0B       		.uleb128 0xb
 9501 035f 27       		.uleb128 0x27
 9502 0360 19       		.uleb128 0x19
 9503 0361 3C       		.uleb128 0x3c
 9504 0362 19       		.uleb128 0x19
 9505 0363 01       		.uleb128 0x1
 9506 0364 13       		.uleb128 0x13
 9507 0365 00       		.byte	0
 9508 0366 00       		.byte	0
ARM GAS  C:\Users\danit\AppData\Local\Temp\cc88b6Ga.s 			page 169


 9509 0367 3E       		.uleb128 0x3e
 9510 0368 2E       		.uleb128 0x2e
 9511 0369 00       		.byte	0
 9512 036a 3F       		.uleb128 0x3f
 9513 036b 19       		.uleb128 0x19
 9514 036c 03       		.uleb128 0x3
 9515 036d 0E       		.uleb128 0xe
 9516 036e 3A       		.uleb128 0x3a
 9517 036f 0B       		.uleb128 0xb
 9518 0370 3B       		.uleb128 0x3b
 9519 0371 0B       		.uleb128 0xb
 9520 0372 27       		.uleb128 0x27
 9521 0373 19       		.uleb128 0x19
 9522 0374 49       		.uleb128 0x49
 9523 0375 13       		.uleb128 0x13
 9524 0376 3C       		.uleb128 0x3c
 9525 0377 19       		.uleb128 0x19
 9526 0378 00       		.byte	0
 9527 0379 00       		.byte	0
 9528 037a 3F       		.uleb128 0x3f
 9529 037b 2E       		.uleb128 0x2e
 9530 037c 01       		.byte	0x1
 9531 037d 3F       		.uleb128 0x3f
 9532 037e 19       		.uleb128 0x19
 9533 037f 03       		.uleb128 0x3
 9534 0380 0E       		.uleb128 0xe
 9535 0381 3A       		.uleb128 0x3a
 9536 0382 0B       		.uleb128 0xb
 9537 0383 3B       		.uleb128 0x3b
 9538 0384 0B       		.uleb128 0xb
 9539 0385 27       		.uleb128 0x27
 9540 0386 19       		.uleb128 0x19
 9541 0387 49       		.uleb128 0x49
 9542 0388 13       		.uleb128 0x13
 9543 0389 3C       		.uleb128 0x3c
 9544 038a 19       		.uleb128 0x19
 9545 038b 01       		.uleb128 0x1
 9546 038c 13       		.uleb128 0x13
 9547 038d 00       		.byte	0
 9548 038e 00       		.byte	0
 9549 038f 40       		.uleb128 0x40
 9550 0390 2E       		.uleb128 0x2e
 9551 0391 00       		.byte	0
 9552 0392 3F       		.uleb128 0x3f
 9553 0393 19       		.uleb128 0x19
 9554 0394 03       		.uleb128 0x3
 9555 0395 0E       		.uleb128 0xe
 9556 0396 3A       		.uleb128 0x3a
 9557 0397 0B       		.uleb128 0xb
 9558 0398 3B       		.uleb128 0x3b
 9559 0399 0B       		.uleb128 0xb
 9560 039a 27       		.uleb128 0x27
 9561 039b 19       		.uleb128 0x19
 9562 039c 3C       		.uleb128 0x3c
 9563 039d 19       		.uleb128 0x19
 9564 039e 00       		.byte	0
 9565 039f 00       		.byte	0
ARM GAS  C:\Users\danit\AppData\Local\Temp\cc88b6Ga.s 			page 170


 9566 03a0 41       		.uleb128 0x41
 9567 03a1 2E       		.uleb128 0x2e
 9568 03a2 01       		.byte	0x1
 9569 03a3 3F       		.uleb128 0x3f
 9570 03a4 19       		.uleb128 0x19
 9571 03a5 03       		.uleb128 0x3
 9572 03a6 0E       		.uleb128 0xe
 9573 03a7 3A       		.uleb128 0x3a
 9574 03a8 0B       		.uleb128 0xb
 9575 03a9 3B       		.uleb128 0x3b
 9576 03aa 05       		.uleb128 0x5
 9577 03ab 27       		.uleb128 0x27
 9578 03ac 19       		.uleb128 0x19
 9579 03ad 49       		.uleb128 0x49
 9580 03ae 13       		.uleb128 0x13
 9581 03af 3C       		.uleb128 0x3c
 9582 03b0 19       		.uleb128 0x19
 9583 03b1 01       		.uleb128 0x1
 9584 03b2 13       		.uleb128 0x13
 9585 03b3 00       		.byte	0
 9586 03b4 00       		.byte	0
 9587 03b5 42       		.uleb128 0x42
 9588 03b6 2E       		.uleb128 0x2e
 9589 03b7 01       		.byte	0x1
 9590 03b8 3F       		.uleb128 0x3f
 9591 03b9 19       		.uleb128 0x19
 9592 03ba 03       		.uleb128 0x3
 9593 03bb 0E       		.uleb128 0xe
 9594 03bc 3A       		.uleb128 0x3a
 9595 03bd 0B       		.uleb128 0xb
 9596 03be 3B       		.uleb128 0x3b
 9597 03bf 05       		.uleb128 0x5
 9598 03c0 27       		.uleb128 0x27
 9599 03c1 19       		.uleb128 0x19
 9600 03c2 3C       		.uleb128 0x3c
 9601 03c3 19       		.uleb128 0x19
 9602 03c4 01       		.uleb128 0x1
 9603 03c5 13       		.uleb128 0x13
 9604 03c6 00       		.byte	0
 9605 03c7 00       		.byte	0
 9606 03c8 43       		.uleb128 0x43
 9607 03c9 2E       		.uleb128 0x2e
 9608 03ca 01       		.byte	0x1
 9609 03cb 3F       		.uleb128 0x3f
 9610 03cc 19       		.uleb128 0x19
 9611 03cd 03       		.uleb128 0x3
 9612 03ce 0E       		.uleb128 0xe
 9613 03cf 3A       		.uleb128 0x3a
 9614 03d0 0B       		.uleb128 0xb
 9615 03d1 3B       		.uleb128 0x3b
 9616 03d2 0B       		.uleb128 0xb
 9617 03d3 27       		.uleb128 0x27
 9618 03d4 19       		.uleb128 0x19
 9619 03d5 3C       		.uleb128 0x3c
 9620 03d6 19       		.uleb128 0x19
 9621 03d7 00       		.byte	0
 9622 03d8 00       		.byte	0
ARM GAS  C:\Users\danit\AppData\Local\Temp\cc88b6Ga.s 			page 171


 9623 03d9 00       		.byte	0
 9624              		.section	.debug_loc,"",%progbits
 9625              	.Ldebug_loc0:
 9626              	.LLST0:
 9627 0000 00000000 		.4byte	.LVL0
 9628 0004 24000000 		.4byte	.LVL1
 9629 0008 0100     		.2byte	0x1
 9630 000a 50       		.byte	0x50
 9631 000b 24000000 		.4byte	.LVL1
 9632 000f 3C0D0000 		.4byte	.LFE123
 9633 0013 0400     		.2byte	0x4
 9634 0015 F3       		.byte	0xf3
 9635 0016 01       		.uleb128 0x1
 9636 0017 50       		.byte	0x50
 9637 0018 9F       		.byte	0x9f
 9638 0019 00000000 		.4byte	0
 9639 001d 00000000 		.4byte	0
 9640              	.LLST1:
 9641 0021 92000000 		.4byte	.LVL2
 9642 0025 98000000 		.4byte	.LVL3
 9643 0029 0100     		.2byte	0x1
 9644 002b 5A       		.byte	0x5a
 9645 002c 98000000 		.4byte	.LVL3
 9646 0030 A6000000 		.4byte	.LVL4
 9647 0034 0200     		.2byte	0x2
 9648 0036 30       		.byte	0x30
 9649 0037 9F       		.byte	0x9f
 9650 0038 C4000000 		.4byte	.LVL6
 9651 003c CA000000 		.4byte	.LVL7
 9652 0040 0100     		.2byte	0x1
 9653 0042 5A       		.byte	0x5a
 9654 0043 D6000000 		.4byte	.LVL8
 9655 0047 E0000000 		.4byte	.LVL9
 9656 004b 0200     		.2byte	0x2
 9657 004d 30       		.byte	0x30
 9658 004e 9F       		.byte	0x9f
 9659 004f E0000000 		.4byte	.LVL9
 9660 0053 16010000 		.4byte	.LVL13
 9661 0057 0100     		.2byte	0x1
 9662 0059 5A       		.byte	0x5a
 9663 005a 30010000 		.4byte	.LVL15
 9664 005e 3A010000 		.4byte	.LVL16
 9665 0062 0200     		.2byte	0x2
 9666 0064 32       		.byte	0x32
 9667 0065 9F       		.byte	0x9f
 9668 0066 3E010000 		.4byte	.LVL17
 9669 006a 84010000 		.4byte	.LVL21
 9670 006e 0100     		.2byte	0x1
 9671 0070 5A       		.byte	0x5a
 9672 0071 9C010000 		.4byte	.LVL22
 9673 0075 A6010000 		.4byte	.LVL23
 9674 0079 0200     		.2byte	0x2
 9675 007b 32       		.byte	0x32
 9676 007c 9F       		.byte	0x9f
 9677 007d AA010000 		.4byte	.LVL24
 9678 0081 D0010000 		.4byte	.LVL27
 9679 0085 0100     		.2byte	0x1
ARM GAS  C:\Users\danit\AppData\Local\Temp\cc88b6Ga.s 			page 172


 9680 0087 5A       		.byte	0x5a
 9681 0088 F0010000 		.4byte	.LVL28
 9682 008c FA010000 		.4byte	.LVL29
 9683 0090 0200     		.2byte	0x2
 9684 0092 32       		.byte	0x32
 9685 0093 9F       		.byte	0x9f
 9686 0094 FE010000 		.4byte	.LVL30
 9687 0098 26020000 		.4byte	.LVL33
 9688 009c 0100     		.2byte	0x1
 9689 009e 5A       		.byte	0x5a
 9690 009f 44020000 		.4byte	.LVL35
 9691 00a3 64020000 		.4byte	.LVL38
 9692 00a7 0100     		.2byte	0x1
 9693 00a9 5A       		.byte	0x5a
 9694 00aa 74020000 		.4byte	.LVL40
 9695 00ae F6020000 		.4byte	.LVL45
 9696 00b2 0100     		.2byte	0x1
 9697 00b4 5A       		.byte	0x5a
 9698 00b5 06030000 		.4byte	.LVL47
 9699 00b9 38030000 		.4byte	.LVL50
 9700 00bd 0100     		.2byte	0x1
 9701 00bf 5A       		.byte	0x5a
 9702 00c0 3C030000 		.4byte	.LVL51
 9703 00c4 58030000 		.4byte	.LVL52
 9704 00c8 0700     		.2byte	0x7
 9705 00ca 70       		.byte	0x70
 9706 00cb 00       		.sleb128 0
 9707 00cc 0A       		.byte	0xa
 9708 00cd FFFF     		.2byte	0xffff
 9709 00cf 1A       		.byte	0x1a
 9710 00d0 9F       		.byte	0x9f
 9711 00d1 58030000 		.4byte	.LVL52
 9712 00d5 80030000 		.4byte	.LVL56
 9713 00d9 0100     		.2byte	0x1
 9714 00db 5A       		.byte	0x5a
 9715 00dc 86030000 		.4byte	.LVL57
 9716 00e0 94030000 		.4byte	.LVL58
 9717 00e4 0100     		.2byte	0x1
 9718 00e6 50       		.byte	0x50
 9719 00e7 94030000 		.4byte	.LVL58
 9720 00eb 98030000 		.4byte	.LVL59
 9721 00ef 0800     		.2byte	0x8
 9722 00f1 7A       		.byte	0x7a
 9723 00f2 00       		.sleb128 0
 9724 00f3 36       		.byte	0x36
 9725 00f4 26       		.byte	0x26
 9726 00f5 70       		.byte	0x70
 9727 00f6 00       		.sleb128 0
 9728 00f7 1C       		.byte	0x1c
 9729 00f8 9F       		.byte	0x9f
 9730 00f9 98030000 		.4byte	.LVL59
 9731 00fd D2030000 		.4byte	.LVL63
 9732 0101 0100     		.2byte	0x1
 9733 0103 5A       		.byte	0x5a
 9734 0104 EA030000 		.4byte	.LVL65
 9735 0108 F4030000 		.4byte	.LVL66
 9736 010c 0600     		.2byte	0x6
ARM GAS  C:\Users\danit\AppData\Local\Temp\cc88b6Ga.s 			page 173


 9737 010e 7A       		.byte	0x7a
 9738 010f 00       		.sleb128 0
 9739 0110 08       		.byte	0x8
 9740 0111 FF       		.byte	0xff
 9741 0112 1A       		.byte	0x1a
 9742 0113 9F       		.byte	0x9f
 9743 0114 F4030000 		.4byte	.LVL66
 9744 0118 1E040000 		.4byte	.LVL69
 9745 011c 0100     		.2byte	0x1
 9746 011e 5A       		.byte	0x5a
 9747 011f 4E040000 		.4byte	.LVL73
 9748 0123 72040000 		.4byte	.LVL77
 9749 0127 0100     		.2byte	0x1
 9750 0129 5A       		.byte	0x5a
 9751 012a 9C040000 		.4byte	.LVL79
 9752 012e BE040000 		.4byte	.LVL82
 9753 0132 0100     		.2byte	0x1
 9754 0134 5A       		.byte	0x5a
 9755 0135 DC040000 		.4byte	.LVL84
 9756 0139 E0040000 		.4byte	.LVL85
 9757 013d 0800     		.2byte	0x8
 9758 013f 7A       		.byte	0x7a
 9759 0140 00       		.sleb128 0
 9760 0141 36       		.byte	0x36
 9761 0142 26       		.byte	0x26
 9762 0143 72       		.byte	0x72
 9763 0144 00       		.sleb128 0
 9764 0145 1C       		.byte	0x1c
 9765 0146 9F       		.byte	0x9f
 9766 0147 E0040000 		.4byte	.LVL85
 9767 014b 0A050000 		.4byte	.LVL89
 9768 014f 0100     		.2byte	0x1
 9769 0151 5A       		.byte	0x5a
 9770 0152 1A050000 		.4byte	.LVL91
 9771 0156 30050000 		.4byte	.LVL92
 9772 015a 0100     		.2byte	0x1
 9773 015c 53       		.byte	0x53
 9774 015d 30050000 		.4byte	.LVL92
 9775 0161 66050000 		.4byte	.LVL96
 9776 0165 0100     		.2byte	0x1
 9777 0167 5A       		.byte	0x5a
 9778 0168 80050000 		.4byte	.LVL98
 9779 016c A6050000 		.4byte	.LVL101
 9780 0170 0100     		.2byte	0x1
 9781 0172 5A       		.byte	0x5a
 9782 0173 BC050000 		.4byte	.LVL103
 9783 0177 D2050000 		.4byte	.LVL104
 9784 017b 0100     		.2byte	0x1
 9785 017d 53       		.byte	0x53
 9786 017e D2050000 		.4byte	.LVL104
 9787 0182 08060000 		.4byte	.LVL108
 9788 0186 0100     		.2byte	0x1
 9789 0188 5A       		.byte	0x5a
 9790 0189 0E060000 		.4byte	.LVL109
 9791 018d 20060000 		.4byte	.LVL110
 9792 0191 0100     		.2byte	0x1
 9793 0193 50       		.byte	0x50
ARM GAS  C:\Users\danit\AppData\Local\Temp\cc88b6Ga.s 			page 174


 9794 0194 24060000 		.4byte	.LVL111
 9795 0198 3A060000 		.4byte	.LVL112
 9796 019c 0100     		.2byte	0x1
 9797 019e 53       		.byte	0x53
 9798 019f 3A060000 		.4byte	.LVL112
 9799 01a3 8A060000 		.4byte	.LVL116
 9800 01a7 0100     		.2byte	0x1
 9801 01a9 5A       		.byte	0x5a
 9802 01aa 90060000 		.4byte	.LVL117
 9803 01ae A0060000 		.4byte	.LVL118
 9804 01b2 0100     		.2byte	0x1
 9805 01b4 50       		.byte	0x50
 9806 01b5 A4060000 		.4byte	.LVL119
 9807 01b9 BE060000 		.4byte	.LVL120
 9808 01bd 0100     		.2byte	0x1
 9809 01bf 53       		.byte	0x53
 9810 01c0 BE060000 		.4byte	.LVL120
 9811 01c4 F2060000 		.4byte	.LVL124
 9812 01c8 0100     		.2byte	0x1
 9813 01ca 5A       		.byte	0x5a
 9814 01cb 06070000 		.4byte	.LVL125
 9815 01cf 12070000 		.4byte	.LVL126
 9816 01d3 0100     		.2byte	0x1
 9817 01d5 50       		.byte	0x50
 9818 01d6 12070000 		.4byte	.LVL126
 9819 01da 16070000 		.4byte	.LVL127
 9820 01de 0800     		.2byte	0x8
 9821 01e0 70       		.byte	0x70
 9822 01e1 00       		.sleb128 0
 9823 01e2 7A       		.byte	0x7a
 9824 01e3 00       		.sleb128 0
 9825 01e4 31       		.byte	0x31
 9826 01e5 24       		.byte	0x24
 9827 01e6 1C       		.byte	0x1c
 9828 01e7 9F       		.byte	0x9f
 9829 01e8 16070000 		.4byte	.LVL127
 9830 01ec 40070000 		.4byte	.LVL131
 9831 01f0 0100     		.2byte	0x1
 9832 01f2 5A       		.byte	0x5a
 9833 01f3 64070000 		.4byte	.LVL133
 9834 01f7 90070000 		.4byte	.LVL137
 9835 01fb 0100     		.2byte	0x1
 9836 01fd 5A       		.byte	0x5a
 9837 01fe B6070000 		.4byte	.LVL139
 9838 0202 E0070000 		.4byte	.LVL142
 9839 0206 0100     		.2byte	0x1
 9840 0208 5A       		.byte	0x5a
 9841 0209 F4070000 		.4byte	.LVL144
 9842 020d 0E080000 		.4byte	.LVL145
 9843 0211 0100     		.2byte	0x1
 9844 0213 53       		.byte	0x53
 9845 0214 0E080000 		.4byte	.LVL145
 9846 0218 44080000 		.4byte	.LVL149
 9847 021c 0100     		.2byte	0x1
 9848 021e 5A       		.byte	0x5a
 9849 021f 48080000 		.4byte	.LVL150
 9850 0223 5C080000 		.4byte	.LVL151
ARM GAS  C:\Users\danit\AppData\Local\Temp\cc88b6Ga.s 			page 175


 9851 0227 0100     		.2byte	0x1
 9852 0229 50       		.byte	0x50
 9853 022a 60080000 		.4byte	.LVL152
 9854 022e 74080000 		.4byte	.LVL153
 9855 0232 0100     		.2byte	0x1
 9856 0234 53       		.byte	0x53
 9857 0235 74080000 		.4byte	.LVL153
 9858 0239 A0080000 		.4byte	.LVL156
 9859 023d 0100     		.2byte	0x1
 9860 023f 5A       		.byte	0x5a
 9861 0240 A4080000 		.4byte	.LVL157
 9862 0244 AE080000 		.4byte	.LVL158
 9863 0248 0100     		.2byte	0x1
 9864 024a 50       		.byte	0x50
 9865 024b B2080000 		.4byte	.LVL159
 9866 024f CC080000 		.4byte	.LVL160
 9867 0253 0100     		.2byte	0x1
 9868 0255 53       		.byte	0x53
 9869 0256 CC080000 		.4byte	.LVL160
 9870 025a 02090000 		.4byte	.LVL164
 9871 025e 0100     		.2byte	0x1
 9872 0260 5A       		.byte	0x5a
 9873 0261 06090000 		.4byte	.LVL165
 9874 0265 1E090000 		.4byte	.LVL166
 9875 0269 0100     		.2byte	0x1
 9876 026b 50       		.byte	0x50
 9877 026c 1E090000 		.4byte	.LVL166
 9878 0270 22090000 		.4byte	.LVL167
 9879 0274 0800     		.2byte	0x8
 9880 0276 7A       		.byte	0x7a
 9881 0277 00       		.sleb128 0
 9882 0278 36       		.byte	0x36
 9883 0279 26       		.byte	0x26
 9884 027a 72       		.byte	0x72
 9885 027b 00       		.sleb128 0
 9886 027c 1C       		.byte	0x1c
 9887 027d 9F       		.byte	0x9f
 9888 027e 22090000 		.4byte	.LVL167
 9889 0282 4A090000 		.4byte	.LVL171
 9890 0286 0100     		.2byte	0x1
 9891 0288 5A       		.byte	0x5a
 9892 0289 68090000 		.4byte	.LVL173
 9893 028d 9A090000 		.4byte	.LVL180
 9894 0291 0100     		.2byte	0x1
 9895 0293 5A       		.byte	0x5a
 9896 0294 C0090000 		.4byte	.LVL182
 9897 0298 200A0000 		.4byte	.LVL186
 9898 029c 0100     		.2byte	0x1
 9899 029e 5A       		.byte	0x5a
 9900 029f 360A0000 		.4byte	.LVL188
 9901 02a3 480A0000 		.4byte	.LVL189
 9902 02a7 0100     		.2byte	0x1
 9903 02a9 53       		.byte	0x53
 9904 02aa 480A0000 		.4byte	.LVL189
 9905 02ae 920A0000 		.4byte	.LVL194
 9906 02b2 0100     		.2byte	0x1
 9907 02b4 5A       		.byte	0x5a
ARM GAS  C:\Users\danit\AppData\Local\Temp\cc88b6Ga.s 			page 176


 9908 02b5 B40A0000 		.4byte	.LVL195
 9909 02b9 D00A0000 		.4byte	.LVL198
 9910 02bd 0100     		.2byte	0x1
 9911 02bf 5A       		.byte	0x5a
 9912 02c0 E00A0000 		.4byte	.LVL199
 9913 02c4 F80A0000 		.4byte	.LVL200
 9914 02c8 0100     		.2byte	0x1
 9915 02ca 5E       		.byte	0x5e
 9916 02cb F80A0000 		.4byte	.LVL200
 9917 02cf 140B0000 		.4byte	.LVL203
 9918 02d3 0100     		.2byte	0x1
 9919 02d5 5A       		.byte	0x5a
 9920 02d6 220B0000 		.4byte	.LVL204
 9921 02da 320B0000 		.4byte	.LVL205
 9922 02de 0100     		.2byte	0x1
 9923 02e0 53       		.byte	0x53
 9924 02e1 320B0000 		.4byte	.LVL205
 9925 02e5 560B0000 		.4byte	.LVL208
 9926 02e9 0100     		.2byte	0x1
 9927 02eb 5A       		.byte	0x5a
 9928 02ec 780B0000 		.4byte	.LVL210
 9929 02f0 A00B0000 		.4byte	.LVL214
 9930 02f4 0100     		.2byte	0x1
 9931 02f6 5A       		.byte	0x5a
 9932 02f7 F00B0000 		.4byte	.LVL218
 9933 02fb FA0B0000 		.4byte	.LVL219
 9934 02ff 0200     		.2byte	0x2
 9935 0301 32       		.byte	0x32
 9936 0302 9F       		.byte	0x9f
 9937 0303 180C0000 		.4byte	.LVL220
 9938 0307 300C0000 		.4byte	.LVL221
 9939 030b 0100     		.2byte	0x1
 9940 030d 5A       		.byte	0x5a
 9941 030e 540C0000 		.4byte	.LVL224
 9942 0312 7A0C0000 		.4byte	.LVL228
 9943 0316 0200     		.2byte	0x2
 9944 0318 30       		.byte	0x30
 9945 0319 9F       		.byte	0x9f
 9946 031a 7A0C0000 		.4byte	.LVL228
 9947 031e 840C0000 		.4byte	.LVL229
 9948 0322 0100     		.2byte	0x1
 9949 0324 5A       		.byte	0x5a
 9950 0325 840C0000 		.4byte	.LVL229
 9951 0329 860C0000 		.4byte	.LVL230
 9952 032d 1100     		.2byte	0x11
 9953 032f 73       		.byte	0x73
 9954 0330 00       		.sleb128 0
 9955 0331 71       		.byte	0x71
 9956 0332 00       		.sleb128 0
 9957 0333 32       		.byte	0x32
 9958 0334 26       		.byte	0x26
 9959 0335 73       		.byte	0x73
 9960 0336 00       		.sleb128 0
 9961 0337 4F       		.byte	0x4f
 9962 0338 26       		.byte	0x26
 9963 0339 1C       		.byte	0x1c
 9964 033a 35       		.byte	0x35
ARM GAS  C:\Users\danit\AppData\Local\Temp\cc88b6Ga.s 			page 177


 9965 033b 1E       		.byte	0x1e
 9966 033c 31       		.byte	0x31
 9967 033d 24       		.byte	0x24
 9968 033e 1C       		.byte	0x1c
 9969 033f 9F       		.byte	0x9f
 9970 0340 860C0000 		.4byte	.LVL230
 9971 0344 900C0000 		.4byte	.LVL231
 9972 0348 0100     		.2byte	0x1
 9973 034a 5A       		.byte	0x5a
 9974 034b 900C0000 		.4byte	.LVL231
 9975 034f 920C0000 		.4byte	.LVL232
 9976 0353 1F00     		.2byte	0x1f
 9977 0355 73       		.byte	0x73
 9978 0356 00       		.sleb128 0
 9979 0357 73       		.byte	0x73
 9980 0358 00       		.sleb128 0
 9981 0359 F7       		.byte	0xf7
 9982 035a 33       		.uleb128 0x33
 9983 035b F7       		.byte	0xf7
 9984 035c 25       		.uleb128 0x25
 9985 035d 0C       		.byte	0xc
 9986 035e 67666666 		.4byte	0x66666667
 9987 0362 F7       		.byte	0xf7
 9988 0363 25       		.uleb128 0x25
 9989 0364 1E       		.byte	0x1e
 9990 0365 08       		.byte	0x8
 9991 0366 20       		.byte	0x20
 9992 0367 F7       		.byte	0xf7
 9993 0368 25       		.uleb128 0x25
 9994 0369 25       		.byte	0x25
 9995 036a F7       		.byte	0xf7
 9996 036b 2C       		.uleb128 0x2c
 9997 036c 32       		.byte	0x32
 9998 036d 25       		.byte	0x25
 9999 036e 35       		.byte	0x35
 10000 036f 1E       		.byte	0x1e
 10001 0370 31       		.byte	0x31
 10002 0371 24       		.byte	0x24
 10003 0372 1C       		.byte	0x1c
 10004 0373 9F       		.byte	0x9f
 10005 0374 920C0000 		.4byte	.LVL232
 10006 0378 9C0C0000 		.4byte	.LVL233
 10007 037c 0100     		.2byte	0x1
 10008 037e 5A       		.byte	0x5a
 10009 037f 9C0C0000 		.4byte	.LVL233
 10010 0383 9E0C0000 		.4byte	.LVL234
 10011 0387 1100     		.2byte	0x11
 10012 0389 73       		.byte	0x73
 10013 038a 00       		.sleb128 0
 10014 038b 71       		.byte	0x71
 10015 038c 00       		.sleb128 0
 10016 038d 32       		.byte	0x32
 10017 038e 26       		.byte	0x26
 10018 038f 73       		.byte	0x73
 10019 0390 00       		.sleb128 0
 10020 0391 4F       		.byte	0x4f
 10021 0392 26       		.byte	0x26
ARM GAS  C:\Users\danit\AppData\Local\Temp\cc88b6Ga.s 			page 178


 10022 0393 1C       		.byte	0x1c
 10023 0394 35       		.byte	0x35
 10024 0395 1E       		.byte	0x1e
 10025 0396 31       		.byte	0x31
 10026 0397 24       		.byte	0x24
 10027 0398 1C       		.byte	0x1c
 10028 0399 9F       		.byte	0x9f
 10029 039a 9E0C0000 		.4byte	.LVL234
 10030 039e A80C0000 		.4byte	.LVL235
 10031 03a2 0100     		.2byte	0x1
 10032 03a4 5A       		.byte	0x5a
 10033 03a5 A80C0000 		.4byte	.LVL235
 10034 03a9 AA0C0000 		.4byte	.LVL236
 10035 03ad 1100     		.2byte	0x11
 10036 03af 73       		.byte	0x73
 10037 03b0 00       		.sleb128 0
 10038 03b1 71       		.byte	0x71
 10039 03b2 00       		.sleb128 0
 10040 03b3 32       		.byte	0x32
 10041 03b4 26       		.byte	0x26
 10042 03b5 73       		.byte	0x73
 10043 03b6 00       		.sleb128 0
 10044 03b7 4F       		.byte	0x4f
 10045 03b8 26       		.byte	0x26
 10046 03b9 1C       		.byte	0x1c
 10047 03ba 35       		.byte	0x35
 10048 03bb 1E       		.byte	0x1e
 10049 03bc 31       		.byte	0x31
 10050 03bd 24       		.byte	0x24
 10051 03be 1C       		.byte	0x1c
 10052 03bf 9F       		.byte	0x9f
 10053 03c0 AA0C0000 		.4byte	.LVL236
 10054 03c4 B40C0000 		.4byte	.LVL237
 10055 03c8 0100     		.2byte	0x1
 10056 03ca 5A       		.byte	0x5a
 10057 03cb B40C0000 		.4byte	.LVL237
 10058 03cf B60C0000 		.4byte	.LVL238
 10059 03d3 1100     		.2byte	0x11
 10060 03d5 73       		.byte	0x73
 10061 03d6 00       		.sleb128 0
 10062 03d7 71       		.byte	0x71
 10063 03d8 00       		.sleb128 0
 10064 03d9 32       		.byte	0x32
 10065 03da 26       		.byte	0x26
 10066 03db 73       		.byte	0x73
 10067 03dc 00       		.sleb128 0
 10068 03dd 4F       		.byte	0x4f
 10069 03de 26       		.byte	0x26
 10070 03df 1C       		.byte	0x1c
 10071 03e0 35       		.byte	0x35
 10072 03e1 1E       		.byte	0x1e
 10073 03e2 31       		.byte	0x31
 10074 03e3 24       		.byte	0x24
 10075 03e4 1C       		.byte	0x1c
 10076 03e5 9F       		.byte	0x9f
 10077 03e6 B60C0000 		.4byte	.LVL238
 10078 03ea C00C0000 		.4byte	.LVL239
ARM GAS  C:\Users\danit\AppData\Local\Temp\cc88b6Ga.s 			page 179


 10079 03ee 0100     		.2byte	0x1
 10080 03f0 5A       		.byte	0x5a
 10081 03f1 C00C0000 		.4byte	.LVL239
 10082 03f5 C20C0000 		.4byte	.LVL240
 10083 03f9 1100     		.2byte	0x11
 10084 03fb 73       		.byte	0x73
 10085 03fc 00       		.sleb128 0
 10086 03fd 71       		.byte	0x71
 10087 03fe 00       		.sleb128 0
 10088 03ff 32       		.byte	0x32
 10089 0400 26       		.byte	0x26
 10090 0401 73       		.byte	0x73
 10091 0402 00       		.sleb128 0
 10092 0403 4F       		.byte	0x4f
 10093 0404 26       		.byte	0x26
 10094 0405 1C       		.byte	0x1c
 10095 0406 35       		.byte	0x35
 10096 0407 1E       		.byte	0x1e
 10097 0408 31       		.byte	0x31
 10098 0409 24       		.byte	0x24
 10099 040a 1C       		.byte	0x1c
 10100 040b 9F       		.byte	0x9f
 10101 040c C20C0000 		.4byte	.LVL240
 10102 0410 D40C0000 		.4byte	.LVL241
 10103 0414 0200     		.2byte	0x2
 10104 0416 30       		.byte	0x30
 10105 0417 9F       		.byte	0x9f
 10106 0418 D40C0000 		.4byte	.LVL241
 10107 041c DC0C0000 		.4byte	.LVL242
 10108 0420 0100     		.2byte	0x1
 10109 0422 50       		.byte	0x50
 10110 0423 DC0C0000 		.4byte	.LVL242
 10111 0427 EE0C0000 		.4byte	.LVL243
 10112 042b 0200     		.2byte	0x2
 10113 042d 30       		.byte	0x30
 10114 042e 9F       		.byte	0x9f
 10115 042f 0C0D0000 		.4byte	.LVL244
 10116 0433 160D0000 		.4byte	.LVL245
 10117 0437 0100     		.2byte	0x1
 10118 0439 5A       		.byte	0x5a
 10119 043a 160D0000 		.4byte	.LVL245
 10120 043e 3C0D0000 		.4byte	.LFE123
 10121 0442 1100     		.2byte	0x11
 10122 0444 73       		.byte	0x73
 10123 0445 00       		.sleb128 0
 10124 0446 71       		.byte	0x71
 10125 0447 00       		.sleb128 0
 10126 0448 32       		.byte	0x32
 10127 0449 25       		.byte	0x25
 10128 044a 32       		.byte	0x32
 10129 044b 24       		.byte	0x24
 10130 044c 71       		.byte	0x71
 10131 044d 00       		.sleb128 0
 10132 044e 32       		.byte	0x32
 10133 044f 25       		.byte	0x25
 10134 0450 22       		.byte	0x22
 10135 0451 31       		.byte	0x31
ARM GAS  C:\Users\danit\AppData\Local\Temp\cc88b6Ga.s 			page 180


 10136 0452 24       		.byte	0x24
 10137 0453 1C       		.byte	0x1c
 10138 0454 9F       		.byte	0x9f
 10139 0455 00000000 		.4byte	0
 10140 0459 00000000 		.4byte	0
 10141              	.LLST2:
 10142 045d F0020000 		.4byte	.LVL44
 10143 0461 F6020000 		.4byte	.LVL45
 10144 0465 2C00     		.2byte	0x2c
 10145 0467 70       		.byte	0x70
 10146 0468 00       		.sleb128 0
 10147 0469 F7       		.byte	0xf7
 10148 046a 2C       		.uleb128 0x2c
 10149 046b F7       		.byte	0xf7
 10150 046c 25       		.uleb128 0x25
 10151 046d 0C       		.byte	0xc
 10152 046e D34D6210 		.4byte	0x10624dd3
 10153 0472 F7       		.byte	0xf7
 10154 0473 25       		.uleb128 0x25
 10155 0474 1E       		.byte	0x1e
 10156 0475 08       		.byte	0x8
 10157 0476 20       		.byte	0x20
 10158 0477 F7       		.byte	0xf7
 10159 0478 25       		.uleb128 0x25
 10160 0479 25       		.byte	0x25
 10161 047a F7       		.byte	0xf7
 10162 047b 2C       		.uleb128 0x2c
 10163 047c 36       		.byte	0x36
 10164 047d 25       		.byte	0x25
 10165 047e 12       		.byte	0x12
 10166 047f 40       		.byte	0x40
 10167 0480 4B       		.byte	0x4b
 10168 0481 24       		.byte	0x24
 10169 0482 22       		.byte	0x22
 10170 0483 0A       		.byte	0xa
 10171 0484 0401     		.2byte	0x104
 10172 0486 16       		.byte	0x16
 10173 0487 14       		.byte	0x14
 10174 0488 40       		.byte	0x40
 10175 0489 4B       		.byte	0x4b
 10176 048a 24       		.byte	0x24
 10177 048b 22       		.byte	0x22
 10178 048c 2D       		.byte	0x2d
 10179 048d 28       		.byte	0x28
 10180 048e 0100     		.2byte	0x1
 10181 0490 16       		.byte	0x16
 10182 0491 13       		.byte	0x13
 10183 0492 9F       		.byte	0x9f
 10184 0493 24040000 		.4byte	.LVL70
 10185 0497 44040000 		.4byte	.LVL72
 10186 049b 0100     		.2byte	0x1
 10187 049d 50       		.byte	0x50
 10188 049e 44040000 		.4byte	.LVL72
 10189 04a2 4E040000 		.4byte	.LVL73
 10190 04a6 1700     		.2byte	0x17
 10191 04a8 7A       		.byte	0x7a
 10192 04a9 00       		.sleb128 0
ARM GAS  C:\Users\danit\AppData\Local\Temp\cc88b6Ga.s 			page 181


 10193 04aa 12       		.byte	0x12
 10194 04ab 40       		.byte	0x40
 10195 04ac 4B       		.byte	0x4b
 10196 04ad 24       		.byte	0x24
 10197 04ae 22       		.byte	0x22
 10198 04af 0A       		.byte	0xa
 10199 04b0 0401     		.2byte	0x104
 10200 04b2 16       		.byte	0x16
 10201 04b3 14       		.byte	0x14
 10202 04b4 40       		.byte	0x40
 10203 04b5 4B       		.byte	0x4b
 10204 04b6 24       		.byte	0x24
 10205 04b7 22       		.byte	0x22
 10206 04b8 2D       		.byte	0x2d
 10207 04b9 28       		.byte	0x28
 10208 04ba 0100     		.2byte	0x1
 10209 04bc 16       		.byte	0x16
 10210 04bd 13       		.byte	0x13
 10211 04be 9F       		.byte	0x9f
 10212 04bf 4E040000 		.4byte	.LVL73
 10213 04c3 56040000 		.4byte	.LVL74
 10214 04c7 2C00     		.2byte	0x2c
 10215 04c9 70       		.byte	0x70
 10216 04ca 00       		.sleb128 0
 10217 04cb F7       		.byte	0xf7
 10218 04cc 2C       		.uleb128 0x2c
 10219 04cd F7       		.byte	0xf7
 10220 04ce 25       		.uleb128 0x25
 10221 04cf 0C       		.byte	0xc
 10222 04d0 D34D6210 		.4byte	0x10624dd3
 10223 04d4 F7       		.byte	0xf7
 10224 04d5 25       		.uleb128 0x25
 10225 04d6 1E       		.byte	0x1e
 10226 04d7 08       		.byte	0x8
 10227 04d8 20       		.byte	0x20
 10228 04d9 F7       		.byte	0xf7
 10229 04da 25       		.uleb128 0x25
 10230 04db 25       		.byte	0x25
 10231 04dc F7       		.byte	0xf7
 10232 04dd 2C       		.uleb128 0x2c
 10233 04de 36       		.byte	0x36
 10234 04df 25       		.byte	0x25
 10235 04e0 12       		.byte	0x12
 10236 04e1 40       		.byte	0x40
 10237 04e2 4B       		.byte	0x4b
 10238 04e3 24       		.byte	0x24
 10239 04e4 22       		.byte	0x22
 10240 04e5 0A       		.byte	0xa
 10241 04e6 0401     		.2byte	0x104
 10242 04e8 16       		.byte	0x16
 10243 04e9 14       		.byte	0x14
 10244 04ea 40       		.byte	0x40
 10245 04eb 4B       		.byte	0x4b
 10246 04ec 24       		.byte	0x24
 10247 04ed 22       		.byte	0x22
 10248 04ee 2D       		.byte	0x2d
 10249 04ef 28       		.byte	0x28
ARM GAS  C:\Users\danit\AppData\Local\Temp\cc88b6Ga.s 			page 182


 10250 04f0 0100     		.2byte	0x1
 10251 04f2 16       		.byte	0x16
 10252 04f3 13       		.byte	0x13
 10253 04f4 9F       		.byte	0x9f
 10254 04f5 00000000 		.4byte	0
 10255 04f9 00000000 		.4byte	0
 10256              	.LLST3:
 10257 04fd 00000000 		.4byte	.LVL246
 10258 0501 11000000 		.4byte	.LVL247-1
 10259 0505 0100     		.2byte	0x1
 10260 0507 50       		.byte	0x50
 10261 0508 11000000 		.4byte	.LVL247-1
 10262 050c 1C000000 		.4byte	.LFE118
 10263 0510 0400     		.2byte	0x4
 10264 0512 F3       		.byte	0xf3
 10265 0513 01       		.uleb128 0x1
 10266 0514 50       		.byte	0x50
 10267 0515 9F       		.byte	0x9f
 10268 0516 00000000 		.4byte	0
 10269 051a 00000000 		.4byte	0
 10270              	.LLST4:
 10271 051e 00000000 		.4byte	.LVL308
 10272 0522 06000000 		.4byte	.LVL309
 10273 0526 0100     		.2byte	0x1
 10274 0528 50       		.byte	0x50
 10275 0529 06000000 		.4byte	.LVL309
 10276 052d CE000000 		.4byte	.LVL325
 10277 0531 0100     		.2byte	0x1
 10278 0533 55       		.byte	0x55
 10279 0534 CE000000 		.4byte	.LVL325
 10280 0538 D2000000 		.4byte	.LVL326
 10281 053c 0400     		.2byte	0x4
 10282 053e F3       		.byte	0xf3
 10283 053f 01       		.uleb128 0x1
 10284 0540 50       		.byte	0x50
 10285 0541 9F       		.byte	0x9f
 10286 0542 D2000000 		.4byte	.LVL326
 10287 0546 F4000000 		.4byte	.LFE122
 10288 054a 0100     		.2byte	0x1
 10289 054c 55       		.byte	0x55
 10290 054d 00000000 		.4byte	0
 10291 0551 00000000 		.4byte	0
 10292              	.LLST5:
 10293 0555 00000000 		.4byte	.LVL336
 10294 0559 00000000 		.4byte	.LVL336
 10295 055d 0100     		.2byte	0x1
 10296 055f 50       		.byte	0x50
 10297 0560 00000000 		.4byte	0
 10298 0564 00000000 		.4byte	0
 10299              	.LLST6:
 10300 0568 00000000 		.4byte	.LVL337
 10301 056c 0D000000 		.4byte	.LVL339-1
 10302 0570 0100     		.2byte	0x1
 10303 0572 50       		.byte	0x50
 10304 0573 0D000000 		.4byte	.LVL339-1
 10305 0577 BA000000 		.4byte	.LVL358
 10306 057b 0100     		.2byte	0x1
ARM GAS  C:\Users\danit\AppData\Local\Temp\cc88b6Ga.s 			page 183


 10307 057d 55       		.byte	0x55
 10308 057e BA000000 		.4byte	.LVL358
 10309 0582 08010000 		.4byte	.LFE128
 10310 0586 0400     		.2byte	0x4
 10311 0588 F3       		.byte	0xf3
 10312 0589 01       		.uleb128 0x1
 10313 058a 50       		.byte	0x50
 10314 058b 9F       		.byte	0x9f
 10315 058c 00000000 		.4byte	0
 10316 0590 00000000 		.4byte	0
 10317              	.LLST7:
 10318 0594 00000000 		.4byte	.LVL337
 10319 0598 04000000 		.4byte	.LVL338
 10320 059c 0100     		.2byte	0x1
 10321 059e 51       		.byte	0x51
 10322 059f 04000000 		.4byte	.LVL338
 10323 05a3 08010000 		.4byte	.LFE128
 10324 05a7 0400     		.2byte	0x4
 10325 05a9 F3       		.byte	0xf3
 10326 05aa 01       		.uleb128 0x1
 10327 05ab 51       		.byte	0x51
 10328 05ac 9F       		.byte	0x9f
 10329 05ad 00000000 		.4byte	0
 10330 05b1 00000000 		.4byte	0
 10331              	.LLST8:
 10332 05b5 00000000 		.4byte	.LVL337
 10333 05b9 0D000000 		.4byte	.LVL339-1
 10334 05bd 0100     		.2byte	0x1
 10335 05bf 52       		.byte	0x52
 10336 05c0 0D000000 		.4byte	.LVL339-1
 10337 05c4 08010000 		.4byte	.LFE128
 10338 05c8 0400     		.2byte	0x4
 10339 05ca F3       		.byte	0xf3
 10340 05cb 01       		.uleb128 0x1
 10341 05cc 52       		.byte	0x52
 10342 05cd 9F       		.byte	0x9f
 10343 05ce 00000000 		.4byte	0
 10344 05d2 00000000 		.4byte	0
 10345              	.LLST9:
 10346 05d6 44000000 		.4byte	.LVL344
 10347 05da 46000000 		.4byte	.LVL345
 10348 05de 0200     		.2byte	0x2
 10349 05e0 30       		.byte	0x30
 10350 05e1 9F       		.byte	0x9f
 10351 05e2 46000000 		.4byte	.LVL345
 10352 05e6 50000000 		.4byte	.LVL346
 10353 05ea 0500     		.2byte	0x5
 10354 05ec 38       		.byte	0x38
 10355 05ed 74       		.byte	0x74
 10356 05ee 00       		.sleb128 0
 10357 05ef 1C       		.byte	0x1c
 10358 05f0 9F       		.byte	0x9f
 10359 05f1 50000000 		.4byte	.LVL346
 10360 05f5 52000000 		.4byte	.LVL347
 10361 05f9 0500     		.2byte	0x5
 10362 05fb 39       		.byte	0x39
 10363 05fc 74       		.byte	0x74
ARM GAS  C:\Users\danit\AppData\Local\Temp\cc88b6Ga.s 			page 184


 10364 05fd 00       		.sleb128 0
 10365 05fe 1C       		.byte	0x1c
 10366 05ff 9F       		.byte	0x9f
 10367 0600 52000000 		.4byte	.LVL347
 10368 0604 5A000000 		.4byte	.LVL348
 10369 0608 0500     		.2byte	0x5
 10370 060a 38       		.byte	0x38
 10371 060b 74       		.byte	0x74
 10372 060c 00       		.sleb128 0
 10373 060d 1C       		.byte	0x1c
 10374 060e 9F       		.byte	0x9f
 10375 060f 00000000 		.4byte	0
 10376 0613 00000000 		.4byte	0
 10377              	.LLST10:
 10378 0617 00000000 		.4byte	.LVL359
 10379 061b 0D000000 		.4byte	.LVL361-1
 10380 061f 0100     		.2byte	0x1
 10381 0621 50       		.byte	0x50
 10382 0622 0D000000 		.4byte	.LVL361-1
 10383 0626 44000000 		.4byte	.LVL368
 10384 062a 0100     		.2byte	0x1
 10385 062c 54       		.byte	0x54
 10386 062d 44000000 		.4byte	.LVL368
 10387 0631 47000000 		.4byte	.LVL369-1
 10388 0635 0100     		.2byte	0x1
 10389 0637 50       		.byte	0x50
 10390 0638 47000000 		.4byte	.LVL369-1
 10391 063c 48000000 		.4byte	.LVL369
 10392 0640 0400     		.2byte	0x4
 10393 0642 F3       		.byte	0xf3
 10394 0643 01       		.uleb128 0x1
 10395 0644 50       		.byte	0x50
 10396 0645 9F       		.byte	0x9f
 10397 0646 48000000 		.4byte	.LVL369
 10398 064a BC000000 		.4byte	.LVL382
 10399 064e 0100     		.2byte	0x1
 10400 0650 54       		.byte	0x54
 10401 0651 BC000000 		.4byte	.LVL382
 10402 0655 C0000000 		.4byte	.LVL383
 10403 0659 0400     		.2byte	0x4
 10404 065b F3       		.byte	0xf3
 10405 065c 01       		.uleb128 0x1
 10406 065d 50       		.byte	0x50
 10407 065e 9F       		.byte	0x9f
 10408 065f C0000000 		.4byte	.LVL383
 10409 0663 CC000000 		.4byte	.LVL385
 10410 0667 0100     		.2byte	0x1
 10411 0669 54       		.byte	0x54
 10412 066a CC000000 		.4byte	.LVL385
 10413 066e D0000000 		.4byte	.LVL386
 10414 0672 0400     		.2byte	0x4
 10415 0674 F3       		.byte	0xf3
 10416 0675 01       		.uleb128 0x1
 10417 0676 50       		.byte	0x50
 10418 0677 9F       		.byte	0x9f
 10419 0678 D0000000 		.4byte	.LVL386
 10420 067c E2000000 		.4byte	.LVL388
ARM GAS  C:\Users\danit\AppData\Local\Temp\cc88b6Ga.s 			page 185


 10421 0680 0100     		.2byte	0x1
 10422 0682 54       		.byte	0x54
 10423 0683 E2000000 		.4byte	.LVL388
 10424 0687 E6000000 		.4byte	.LVL389
 10425 068b 0400     		.2byte	0x4
 10426 068d F3       		.byte	0xf3
 10427 068e 01       		.uleb128 0x1
 10428 068f 50       		.byte	0x50
 10429 0690 9F       		.byte	0x9f
 10430 0691 E6000000 		.4byte	.LVL389
 10431 0695 00010000 		.4byte	.LVL392
 10432 0699 0100     		.2byte	0x1
 10433 069b 54       		.byte	0x54
 10434 069c 00010000 		.4byte	.LVL392
 10435 06a0 48010000 		.4byte	.LFE129
 10436 06a4 0400     		.2byte	0x4
 10437 06a6 F3       		.byte	0xf3
 10438 06a7 01       		.uleb128 0x1
 10439 06a8 50       		.byte	0x50
 10440 06a9 9F       		.byte	0x9f
 10441 06aa 00000000 		.4byte	0
 10442 06ae 00000000 		.4byte	0
 10443              	.LLST11:
 10444 06b2 00000000 		.4byte	.LVL359
 10445 06b6 08000000 		.4byte	.LVL360
 10446 06ba 0100     		.2byte	0x1
 10447 06bc 51       		.byte	0x51
 10448 06bd 08000000 		.4byte	.LVL360
 10449 06c1 24000000 		.4byte	.LVL364
 10450 06c5 0100     		.2byte	0x1
 10451 06c7 55       		.byte	0x55
 10452 06c8 24000000 		.4byte	.LVL364
 10453 06cc 48000000 		.4byte	.LVL369
 10454 06d0 0400     		.2byte	0x4
 10455 06d2 F3       		.byte	0xf3
 10456 06d3 01       		.uleb128 0x1
 10457 06d4 51       		.byte	0x51
 10458 06d5 9F       		.byte	0x9f
 10459 06d6 48000000 		.4byte	.LVL369
 10460 06da 7E000000 		.4byte	.LVL375
 10461 06de 0100     		.2byte	0x1
 10462 06e0 55       		.byte	0x55
 10463 06e1 7E000000 		.4byte	.LVL375
 10464 06e5 48010000 		.4byte	.LFE129
 10465 06e9 0400     		.2byte	0x4
 10466 06eb F3       		.byte	0xf3
 10467 06ec 01       		.uleb128 0x1
 10468 06ed 51       		.byte	0x51
 10469 06ee 9F       		.byte	0x9f
 10470 06ef 00000000 		.4byte	0
 10471 06f3 00000000 		.4byte	0
 10472              	.LLST12:
 10473 06f7 00000000 		.4byte	.LVL359
 10474 06fb 0D000000 		.4byte	.LVL361-1
 10475 06ff 0100     		.2byte	0x1
 10476 0701 52       		.byte	0x52
 10477 0702 0D000000 		.4byte	.LVL361-1
ARM GAS  C:\Users\danit\AppData\Local\Temp\cc88b6Ga.s 			page 186


 10478 0706 24000000 		.4byte	.LVL364
 10479 070a 0100     		.2byte	0x1
 10480 070c 56       		.byte	0x56
 10481 070d 24000000 		.4byte	.LVL364
 10482 0711 48000000 		.4byte	.LVL369
 10483 0715 0400     		.2byte	0x4
 10484 0717 F3       		.byte	0xf3
 10485 0718 01       		.uleb128 0x1
 10486 0719 52       		.byte	0x52
 10487 071a 9F       		.byte	0x9f
 10488 071b 48000000 		.4byte	.LVL369
 10489 071f 92000000 		.4byte	.LVL378
 10490 0723 0100     		.2byte	0x1
 10491 0725 56       		.byte	0x56
 10492 0726 92000000 		.4byte	.LVL378
 10493 072a C0000000 		.4byte	.LVL383
 10494 072e 0400     		.2byte	0x4
 10495 0730 F3       		.byte	0xf3
 10496 0731 01       		.uleb128 0x1
 10497 0732 52       		.byte	0x52
 10498 0733 9F       		.byte	0x9f
 10499 0734 C0000000 		.4byte	.LVL383
 10500 0738 CC000000 		.4byte	.LVL385
 10501 073c 0100     		.2byte	0x1
 10502 073e 56       		.byte	0x56
 10503 073f CC000000 		.4byte	.LVL385
 10504 0743 48010000 		.4byte	.LFE129
 10505 0747 0400     		.2byte	0x4
 10506 0749 F3       		.byte	0xf3
 10507 074a 01       		.uleb128 0x1
 10508 074b 52       		.byte	0x52
 10509 074c 9F       		.byte	0x9f
 10510 074d 00000000 		.4byte	0
 10511 0751 00000000 		.4byte	0
 10512              		.section	.debug_aranges,"",%progbits
 10513 0000 74000000 		.4byte	0x74
 10514 0004 0200     		.2byte	0x2
 10515 0006 00000000 		.4byte	.Ldebug_info0
 10516 000a 04       		.byte	0x4
 10517 000b 00       		.byte	0
 10518 000c 0000     		.2byte	0
 10519 000e 0000     		.2byte	0
 10520 0010 00000000 		.4byte	.LFB123
 10521 0014 3C0D0000 		.4byte	.LFE123-.LFB123
 10522 0018 00000000 		.4byte	.LFB118
 10523 001c 1C000000 		.4byte	.LFE118-.LFB118
 10524 0020 00000000 		.4byte	.LFB119
 10525 0024 D0000000 		.4byte	.LFE119-.LFB119
 10526 0028 00000000 		.4byte	.LFB120
 10527 002c 74000000 		.4byte	.LFE120-.LFB120
 10528 0030 00000000 		.4byte	.LFB121
 10529 0034 24010000 		.4byte	.LFE121-.LFB121
 10530 0038 00000000 		.4byte	.LFB122
 10531 003c F4000000 		.4byte	.LFE122-.LFB122
 10532 0040 00000000 		.4byte	.LFB124
 10533 0044 60000000 		.4byte	.LFE124-.LFB124
 10534 0048 00000000 		.4byte	.LFB125
ARM GAS  C:\Users\danit\AppData\Local\Temp\cc88b6Ga.s 			page 187


 10535 004c 04000000 		.4byte	.LFE125-.LFB125
 10536 0050 00000000 		.4byte	.LFB126
 10537 0054 0C000000 		.4byte	.LFE126-.LFB126
 10538 0058 00000000 		.4byte	.LFB127
 10539 005c 0C000000 		.4byte	.LFE127-.LFB127
 10540 0060 00000000 		.4byte	.LFB128
 10541 0064 08010000 		.4byte	.LFE128-.LFB128
 10542 0068 00000000 		.4byte	.LFB129
 10543 006c 48010000 		.4byte	.LFE129-.LFB129
 10544 0070 00000000 		.4byte	0
 10545 0074 00000000 		.4byte	0
 10546              		.section	.debug_ranges,"",%progbits
 10547              	.Ldebug_ranges0:
 10548 0000 92000000 		.4byte	.LBB3
 10549 0004 A6000000 		.4byte	.LBE3
 10550 0008 C4000000 		.4byte	.LBB4
 10551 000c A00B0000 		.4byte	.LBE4
 10552 0010 E20B0000 		.4byte	.LBB5
 10553 0014 3C0D0000 		.4byte	.LBE5
 10554 0018 00000000 		.4byte	0
 10555 001c 00000000 		.4byte	0
 10556 0020 48000000 		.4byte	.LBB6
 10557 0024 B8000000 		.4byte	.LBE6
 10558 0028 BC000000 		.4byte	.LBB8
 10559 002c C8000000 		.4byte	.LBE8
 10560 0030 CC000000 		.4byte	.LBB9
 10561 0034 DE000000 		.4byte	.LBE9
 10562 0038 E2000000 		.4byte	.LBB10
 10563 003c FC000000 		.4byte	.LBE10
 10564 0040 00010000 		.4byte	.LBB11
 10565 0044 48010000 		.4byte	.LBE11
 10566 0048 00000000 		.4byte	0
 10567 004c 00000000 		.4byte	0
 10568 0050 00000000 		.4byte	.LFB123
 10569 0054 3C0D0000 		.4byte	.LFE123
 10570 0058 00000000 		.4byte	.LFB118
 10571 005c 1C000000 		.4byte	.LFE118
 10572 0060 00000000 		.4byte	.LFB119
 10573 0064 D0000000 		.4byte	.LFE119
 10574 0068 00000000 		.4byte	.LFB120
 10575 006c 74000000 		.4byte	.LFE120
 10576 0070 00000000 		.4byte	.LFB121
 10577 0074 24010000 		.4byte	.LFE121
 10578 0078 00000000 		.4byte	.LFB122
 10579 007c F4000000 		.4byte	.LFE122
 10580 0080 00000000 		.4byte	.LFB124
 10581 0084 60000000 		.4byte	.LFE124
 10582 0088 00000000 		.4byte	.LFB125
 10583 008c 04000000 		.4byte	.LFE125
 10584 0090 00000000 		.4byte	.LFB126
 10585 0094 0C000000 		.4byte	.LFE126
 10586 0098 00000000 		.4byte	.LFB127
 10587 009c 0C000000 		.4byte	.LFE127
 10588 00a0 00000000 		.4byte	.LFB128
 10589 00a4 08010000 		.4byte	.LFE128
 10590 00a8 00000000 		.4byte	.LFB129
 10591 00ac 48010000 		.4byte	.LFE129
ARM GAS  C:\Users\danit\AppData\Local\Temp\cc88b6Ga.s 			page 188


 10592 00b0 00000000 		.4byte	0
 10593 00b4 00000000 		.4byte	0
 10594              		.section	.debug_line,"",%progbits
 10595              	.Ldebug_line0:
 10596 0000 BF070000 		.section	.debug_str,"MS",%progbits,1
 10596      02005203 
 10596      00000201 
 10596      FB0E0D00 
 10596      01010101 
 10597              	.LASF110:
 10598 0000 4D454153 		.ascii	"MEAS_CHP_B\000"
 10598      5F434850 
 10598      5F4200
 10599              	.LASF53:
 10600 000b 54687265 		.ascii	"ThreadsList\000"
 10600      6164734C 
 10600      69737400 
 10601              	.LASF59:
 10602 0017 76746675 		.ascii	"vtfunc_t\000"
 10602      6E635F74 
 10602      00
 10603              	.LASF182:
 10604 0020 4453505F 		.ascii	"DSP_REGEN_BRAKE\000"
 10604      52454745 
 10604      4E5F4252 
 10604      414B4500 
 10605              	.LASF191:
 10606 0030 4453505F 		.ascii	"DSP_INDICATOR\000"
 10606      494E4449 
 10606      4341544F 
 10606      5200
 10607              	.LASF168:
 10608 003e 4453505F 		.ascii	"DSP_x1_TEMP_SPEED\000"
 10608      78315F54 
 10608      454D505F 
 10608      53504545 
 10608      4400
 10609              	.LASF123:
 10610 0050 5F5F7661 		.ascii	"__va_list\000"
 10610      5F6C6973 
 10610      7400
 10611              	.LASF44:
 10612 005a 705F7469 		.ascii	"p_time\000"
 10612      6D6500
 10613              	.LASF100:
 10614 0061 42535252 		.ascii	"BSRR\000"
 10614      00
 10615              	.LASF243:
 10616 0066 63687670 		.ascii	"chvprintf\000"
 10616      72696E74 
 10616      6600
 10617              	.LASF54:
 10618 0070 72656761 		.ascii	"regarm_t\000"
 10618      726D5F74 
 10618      00
 10619              	.LASF35:
 10620 0079 705F7072 		.ascii	"p_prio\000"
ARM GAS  C:\Users\danit\AppData\Local\Temp\cc88b6Ga.s 			page 189


 10620      696F00
 10621              	.LASF162:
 10622 0080 4453505F 		.ascii	"DSP_GAUGE\000"
 10622      47415547 
 10622      4500
 10623              	.LASF91:
 10624 008a 67657474 		.ascii	"gett\000"
 10624      00
 10625              	.LASF244:
 10626 008f 6D656469 		.ascii	"media_Image\000"
 10626      615F496D 
 10626      61676500 
 10627              	.LASF31:
 10628 009b 73797374 		.ascii	"systime_t\000"
 10628      696D655F 
 10628      7400
 10629              	.LASF66:
 10630 00a5 76745F73 		.ascii	"vt_systime\000"
 10630      79737469 
 10630      6D6500
 10631              	.LASF46:
 10632 00b0 705F6D73 		.ascii	"p_msgqueue\000"
 10632      67717565 
 10632      756500
 10633              	.LASF1:
 10634 00bb 756E7369 		.ascii	"unsigned int\000"
 10634      676E6564 
 10634      20696E74 
 10634      00
 10635              	.LASF235:
 10636 00c8 63616C63 		.ascii	"calcGetValue\000"
 10636      47657456 
 10636      616C7565 
 10636      00
 10637              	.LASF220:
 10638 00d5 6275735F 		.ascii	"bus_num\000"
 10638      6E756D00 
 10639              	.LASF185:
 10640 00dd 4453505F 		.ascii	"DSP_TEMPOMAT\000"
 10640      54454D50 
 10640      4F4D4154 
 10640      00
 10641              	.LASF152:
 10642 00ea 43414C43 		.ascii	"CALC_AVG_SPEED\000"
 10642      5F415647 
 10642      5F535045 
 10642      454400
 10643              	.LASF45:
 10644 00f9 705F7761 		.ascii	"p_waiting\000"
 10644      6974696E 
 10644      6700
 10645              	.LASF245:
 10646 0103 67667847 		.ascii	"gfxGetDspAnsZero\000"
 10646      65744473 
 10646      70416E73 
 10646      5A65726F 
 10646      00
ARM GAS  C:\Users\danit\AppData\Local\Temp\cc88b6Ga.s 			page 190


 10647              	.LASF10:
 10648 0114 5F5F696E 		.ascii	"__int32_t\000"
 10648      7433325F 
 10648      7400
 10649              	.LASF85:
 10650 011e 42617365 		.ascii	"BaseSequentialStreamVMT\000"
 10650      53657175 
 10650      656E7469 
 10650      616C5374 
 10650      7265616D 
 10651              	.LASF226:
 10652 0136 626D7369 		.ascii	"bmsitems\000"
 10652      74656D73 
 10652      00
 10653              	.LASF174:
 10654 013f 4453505F 		.ascii	"DSP_x1000_SUN_POWER\000"
 10654      78313030 
 10654      305F5355 
 10654      4E5F504F 
 10654      57455200 
 10655              	.LASF252:
 10656 0153 7372632F 		.ascii	"src/dsp.c\000"
 10656      6473702E 
 10656      6300
 10657              	.LASF81:
 10658 015d 77746F62 		.ascii	"wtobjp\000"
 10658      6A7000
 10659              	.LASF223:
 10660 0164 76746C69 		.ascii	"vtlist\000"
 10660      737400
 10661              	.LASF131:
 10662 016b 7061636B 		.ascii	"pack_resist\000"
 10662      5F726573 
 10662      69737400 
 10663              	.LASF213:
 10664 0177 64737056 		.ascii	"dspValue\000"
 10664      616C7565 
 10664      00
 10665              	.LASF169:
 10666 0180 4453505F 		.ascii	"DSP_x100_BATTERY\000"
 10666      78313030 
 10666      5F424154 
 10666      54455259 
 10666      00
 10667              	.LASF176:
 10668 0191 4453505F 		.ascii	"DSP_x10_SUN_POWER\000"
 10668      7831305F 
 10668      53554E5F 
 10668      504F5745 
 10668      5200
 10669              	.LASF180:
 10670 01a3 4453505F 		.ascii	"DSP_x10_MOTOR_POWER\000"
 10670      7831305F 
 10670      4D4F544F 
 10670      525F504F 
 10670      57455200 
 10671              	.LASF106:
ARM GAS  C:\Users\danit\AppData\Local\Temp\cc88b6Ga.s 			page 191


 10672 01b7 4D454153 		.ascii	"MEAS_TEMP1\000"
 10672      5F54454D 
 10672      503100
 10673              	.LASF107:
 10674 01c2 4D454153 		.ascii	"MEAS_TEMP2\000"
 10674      5F54454D 
 10674      503200
 10675              	.LASF218:
 10676 01cd 64697363 		.ascii	"discharge\000"
 10676      68617267 
 10676      6500
 10677              	.LASF163:
 10678 01d7 4453505F 		.ascii	"DSP_x100_AVG_SPEED\000"
 10678      78313030 
 10678      5F415647 
 10678      5F535045 
 10678      454400
 10679              	.LASF92:
 10680 01ea 77726974 		.ascii	"writet\000"
 10680      657400
 10681              	.LASF89:
 10682 01f1 42617365 		.ascii	"BaseChannelVMT\000"
 10682      4368616E 
 10682      6E656C56 
 10682      4D5400
 10683              	.LASF114:
 10684 0200 6D656173 		.ascii	"measChannels2\000"
 10684      4368616E 
 10684      6E656C73 
 10684      3200
 10685              	.LASF159:
 10686 020e 4453505F 		.ascii	"DSP_x100_SPEED\000"
 10686      78313030 
 10686      5F535045 
 10686      454400
 10687              	.LASF76:
 10688 021d 6D5F7175 		.ascii	"m_queue\000"
 10688      65756500 
 10689              	.LASF63:
 10690 0225 76745F74 		.ascii	"vt_time\000"
 10690      696D6500 
 10691              	.LASF20:
 10692 022d 75696E74 		.ascii	"uint32_t\000"
 10692      33325F74 
 10692      00
 10693              	.LASF173:
 10694 0236 4453505F 		.ascii	"DSP_x1_BATTERY_TEMP\000"
 10694      78315F42 
 10694      41545445 
 10694      52595F54 
 10694      454D5000 
 10695              	.LASF192:
 10696 024a 4453505F 		.ascii	"DSP_NUM_MSG\000"
 10696      4E554D5F 
 10696      4D534700 
 10697              	.LASF30:
 10698 0256 6576656E 		.ascii	"eventmask_t\000"
ARM GAS  C:\Users\danit\AppData\Local\Temp\cc88b6Ga.s 			page 192


 10698      746D6173 
 10698      6B5F7400 
 10699              	.LASF69:
 10700 0262 725F7072 		.ascii	"r_prio\000"
 10700      696F00
 10701              	.LASF65:
 10702 0269 76745F70 		.ascii	"vt_par\000"
 10702      617200
 10703              	.LASF120:
 10704 0270 666C6F61 		.ascii	"float\000"
 10704      7400
 10705              	.LASF28:
 10706 0276 74707269 		.ascii	"tprio_t\000"
 10706      6F5F7400 
 10707              	.LASF0:
 10708 027e 6C6F6E67 		.ascii	"long long unsigned int\000"
 10708      206C6F6E 
 10708      6720756E 
 10708      7369676E 
 10708      65642069 
 10709              	.LASF84:
 10710 0295 7466756E 		.ascii	"tfunc_t\000"
 10710      635F7400 
 10711              	.LASF150:
 10712 029d 43414C43 		.ascii	"CALC_MOTOR_POWER\000"
 10712      5F4D4F54 
 10712      4F525F50 
 10712      4F574552 
 10712      00
 10713              	.LASF217:
 10714 02ae 6D6F746F 		.ascii	"motor_temp\000"
 10714      725F7465 
 10714      6D7000
 10715              	.LASF136:
 10716 02b9 6176675F 		.ascii	"avg_cell_voltage\000"
 10716      63656C6C 
 10716      5F766F6C 
 10716      74616765 
 10716      00
 10717              	.LASF148:
 10718 02ca 7061636B 		.ascii	"pack_open_voltage\000"
 10718      5F6F7065 
 10718      6E5F766F 
 10718      6C746167 
 10718      6500
 10719              	.LASF125:
 10720 02dc 626D7349 		.ascii	"bmsItems\000"
 10720      74656D73 
 10720      00
 10721              	.LASF232:
 10722 02e5 6D656469 		.ascii	"media_VideoFrame\000"
 10722      615F5669 
 10722      64656F46 
 10722      72616D65 
 10722      00
 10723              	.LASF8:
 10724 02f6 5F5F7569 		.ascii	"__uint16_t\000"
ARM GAS  C:\Users\danit\AppData\Local\Temp\cc88b6Ga.s 			page 193


 10724      6E743136 
 10724      5F7400
 10725              	.LASF158:
 10726 0301 6473704D 		.ascii	"dspMessages\000"
 10726      65737361 
 10726      67657300 
 10727              	.LASF156:
 10728 030d 4453505F 		.ascii	"DSP_WAITING\000"
 10728      57414954 
 10728      494E4700 
 10729              	.LASF193:
 10730 0319 74696D65 		.ascii	"time\000"
 10730      00
 10731              	.LASF141:
 10732 031e 6D617869 		.ascii	"maximum_cell\000"
 10732      6D756D5F 
 10732      63656C6C 
 10732      00
 10733              	.LASF102:
 10734 032b 4146524C 		.ascii	"AFRL\000"
 10734      00
 10735              	.LASF259:
 10736 0330 6766785F 		.ascii	"gfx_BGcolour\000"
 10736      4247636F 
 10736      6C6F7572 
 10736      00
 10737              	.LASF109:
 10738 033d 4D454153 		.ascii	"MEAS_OVER_HEAT\000"
 10738      5F4F5645 
 10738      525F4845 
 10738      415400
 10739              	.LASF210:
 10740 034c 636D6466 		.ascii	"cmdfrappans_dspmessages\000"
 10740      72617070 
 10740      616E735F 
 10740      6473706D 
 10740      65737361 
 10741              	.LASF95:
 10742 0364 636C6561 		.ascii	"clear\000"
 10742      7200
 10743              	.LASF197:
 10744 036a 6D656173 		.ascii	"measGetValue_2\000"
 10744      47657456 
 10744      616C7565 
 10744      5F3200
 10745              	.LASF177:
 10746 0379 4453505F 		.ascii	"DSP_x1_SUN_POWER\000"
 10746      78315F53 
 10746      554E5F50 
 10746      4F574552 
 10746      00
 10747              	.LASF122:
 10748 038a 5F5F676E 		.ascii	"__gnuc_va_list\000"
 10748      75635F76 
 10748      615F6C69 
 10748      737400
 10749              	.LASF214:
ARM GAS  C:\Users\danit\AppData\Local\Temp\cc88b6Ga.s 			page 194


 10750 0399 7461736B 		.ascii	"tasknumber\000"
 10750      6E756D62 
 10750      657200
 10751              	.LASF90:
 10752 03a4 70757474 		.ascii	"putt\000"
 10752      00
 10753              	.LASF195:
 10754 03a9 72656765 		.ascii	"regen_assis\000"
 10754      6E5F6173 
 10754      73697300 
 10755              	.LASF3:
 10756 03b5 73697A65 		.ascii	"size_t\000"
 10756      5F7400
 10757              	.LASF79:
 10758 03bc 7264796D 		.ascii	"rdymsg\000"
 10758      736700
 10759              	.LASF216:
 10760 03c3 64616E67 		.ascii	"danger\000"
 10760      657200
 10761              	.LASF241:
 10762 03ca 6766785F 		.ascii	"gfx_TransparentColour\000"
 10762      5472616E 
 10762      73706172 
 10762      656E7443 
 10762      6F6C6F75 
 10763              	.LASF22:
 10764 03e0 626F6F6C 		.ascii	"bool_t\000"
 10764      5F7400
 10765              	.LASF116:
 10766 03e7 4D454153 		.ascii	"MEAS2_THROTTLE\000"
 10766      325F5448 
 10766      524F5454 
 10766      4C4500
 10767              	.LASF23:
 10768 03f6 5F426F6F 		.ascii	"_Bool\000"
 10768      6C00
 10769              	.LASF96:
 10770 03fc 4D4F4445 		.ascii	"MODER\000"
 10770      5200
 10771              	.LASF147:
 10772 0402 66616E5F 		.ascii	"fan_speed\000"
 10772      73706565 
 10772      6400
 10773              	.LASF15:
 10774 040c 5F5F7569 		.ascii	"__uint64_t\000"
 10774      6E743634 
 10774      5F7400
 10775              	.LASF113:
 10776 0417 6D656173 		.ascii	"measChannels\000"
 10776      4368616E 
 10776      6E656C73 
 10776      00
 10777              	.LASF188:
 10778 0424 4453505F 		.ascii	"DSP_DISCHARGE\000"
 10778      44495343 
 10778      48415247 
 10778      4500
ARM GAS  C:\Users\danit\AppData\Local\Temp\cc88b6Ga.s 			page 195


 10779              	.LASF132:
 10780 0432 61766572 		.ascii	"average_temp\000"
 10780      6167655F 
 10780      74656D70 
 10780      00
 10781              	.LASF75:
 10782 043f 4D757465 		.ascii	"Mutex\000"
 10782      7800
 10783              	.LASF222:
 10784 0445 77616473 		.ascii	"wadspTask\000"
 10784      70546173 
 10784      6B00
 10785              	.LASF255:
 10786 044f 63687072 		.ascii	"chprintf\000"
 10786      696E7466 
 10786      00
 10787              	.LASF209:
 10788 0458 61726776 		.ascii	"argv\000"
 10788      00
 10789              	.LASF234:
 10790 045d 6765744C 		.ascii	"getLightFlashing\000"
 10790      69676874 
 10790      466C6173 
 10790      68696E67 
 10790      00
 10791              	.LASF99:
 10792 046e 50555044 		.ascii	"PUPDR\000"
 10792      5200
 10793              	.LASF157:
 10794 0474 4453505F 		.ascii	"DSP_RUNNING\000"
 10794      52554E4E 
 10794      494E4700 
 10795              	.LASF39:
 10796 0480 705F6E61 		.ascii	"p_name\000"
 10796      6D6500
 10797              	.LASF88:
 10798 0487 42617365 		.ascii	"BaseSequentialStream\000"
 10798      53657175 
 10798      656E7469 
 10798      616C5374 
 10798      7265616D 
 10799              	.LASF52:
 10800 049c 54687265 		.ascii	"ThreadsQueue\000"
 10800      61647351 
 10800      75657565 
 10800      00
 10801              	.LASF153:
 10802 04a9 43414C43 		.ascii	"CALC_NUM_CH\000"
 10802      5F4E554D 
 10802      5F434800 
 10803              	.LASF83:
 10804 04b5 63686172 		.ascii	"char\000"
 10804      00
 10805              	.LASF239:
 10806 04ba 63616C63 		.ascii	"calcAvgSpeed\000"
 10806      41766753 
 10806      70656564 
ARM GAS  C:\Users\danit\AppData\Local\Temp\cc88b6Ga.s 			page 196


 10806      00
 10807              	.LASF196:
 10808 04c7 73706565 		.ascii	"speedGetSpeed\000"
 10808      64476574 
 10808      53706565 
 10808      6400
 10809              	.LASF71:
 10810 04d5 725F6E65 		.ascii	"r_newer\000"
 10810      77657200 
 10811              	.LASF32:
 10812 04dd 54687265 		.ascii	"Thread\000"
 10812      616400
 10813              	.LASF240:
 10814 04e4 6766785F 		.ascii	"gfx_Transparency\000"
 10814      5472616E 
 10814      73706172 
 10814      656E6379 
 10814      00
 10815              	.LASF186:
 10816 04f5 4453505F 		.ascii	"DSP_LIGHT\000"
 10816      4C494748 
 10816      5400
 10817              	.LASF67:
 10818 04ff 56544C69 		.ascii	"VTList\000"
 10818      737400
 10819              	.LASF129:
 10820 0506 7061636B 		.ascii	"pack_healt\000"
 10820      5F686561 
 10820      6C7400
 10821              	.LASF38:
 10822 0511 705F6F6C 		.ascii	"p_older\000"
 10822      64657200 
 10823              	.LASF254:
 10824 0519 64737054 		.ascii	"dspTask\000"
 10824      61736B00 
 10825              	.LASF40:
 10826 0521 705F7374 		.ascii	"p_state\000"
 10826      61746500 
 10827              	.LASF151:
 10828 0529 43414C43 		.ascii	"CALC_SUN_POWER\000"
 10828      5F53554E 
 10828      5F504F57 
 10828      455200
 10829              	.LASF16:
 10830 0538 75696E74 		.ascii	"uint8_t\000"
 10830      385F7400 
 10831              	.LASF94:
 10832 0540 42617365 		.ascii	"BaseChannel\000"
 10832      4368616E 
 10832      6E656C00 
 10833              	.LASF201:
 10834 054c 64726177 		.ascii	"draw_line\000"
 10834      5F6C696E 
 10834      6500
 10835              	.LASF143:
 10836 0556 6D696E69 		.ascii	"minimum_cell\000"
 10836      6D756D5F 
ARM GAS  C:\Users\danit\AppData\Local\Temp\cc88b6Ga.s 			page 197


 10836      63656C6C 
 10836      00
 10837              	.LASF51:
 10838 0563 705F6D70 		.ascii	"p_mpool\000"
 10838      6F6F6C00 
 10839              	.LASF246:
 10840 056b 6766785F 		.ascii	"gfx_Cls\000"
 10840      436C7300 
 10841              	.LASF49:
 10842 0573 705F6D74 		.ascii	"p_mtxlist\000"
 10842      786C6973 
 10842      7400
 10843              	.LASF134:
 10844 057d 6C6F775F 		.ascii	"low_cell_volt\000"
 10844      63656C6C 
 10844      5F766F6C 
 10844      7400
 10845              	.LASF154:
 10846 058b 76615F6C 		.ascii	"va_list\000"
 10846      69737400 
 10847              	.LASF172:
 10848 0593 4453505F 		.ascii	"DSP_x10_BATTERY_TEMP\000"
 10848      7831305F 
 10848      42415454 
 10848      4552595F 
 10848      54454D50 
 10849              	.LASF14:
 10850 05a8 6C6F6E67 		.ascii	"long long int\000"
 10850      206C6F6E 
 10850      6720696E 
 10850      7400
 10851              	.LASF86:
 10852 05b6 77726974 		.ascii	"write\000"
 10852      6500
 10853              	.LASF68:
 10854 05bc 725F7175 		.ascii	"r_queue\000"
 10854      65756500 
 10855              	.LASF160:
 10856 05c4 4453505F 		.ascii	"DSP_x10_SPEED\000"
 10856      7831305F 
 10856      53504545 
 10856      4400
 10857              	.LASF203:
 10858 05d2 6672616D 		.ascii	"frame\000"
 10858      6500
 10859              	.LASF29:
 10860 05d8 6D73675F 		.ascii	"msg_t\000"
 10860      7400
 10861              	.LASF126:
 10862 05de 63757374 		.ascii	"custom_flag_1\000"
 10862      6F6D5F66 
 10862      6C61675F 
 10862      3100
 10863              	.LASF142:
 10864 05ec 63757374 		.ascii	"custom_flag_2\000"
 10864      6F6D5F66 
 10864      6C61675F 
ARM GAS  C:\Users\danit\AppData\Local\Temp\cc88b6Ga.s 			page 198


 10864      3200
 10865              	.LASF206:
 10866 05fa 6473705F 		.ascii	"dsp_active\000"
 10866      61637469 
 10866      766500
 10867              	.LASF257:
 10868 0605 4552524F 		.ascii	"ERROR\000"
 10868      5200
 10869              	.LASF57:
 10870 060b 636F6E74 		.ascii	"context\000"
 10870      65787400 
 10871              	.LASF194:
 10872 0613 6E65775F 		.ascii	"new_val\000"
 10872      76616C00 
 10873              	.LASF175:
 10874 061b 4453505F 		.ascii	"DSP_x100_SUN_POWER\000"
 10874      78313030 
 10874      5F53554E 
 10874      5F504F57 
 10874      455200
 10875              	.LASF139:
 10876 062e 7061636B 		.ascii	"pack_ccl\000"
 10876      5F63636C 
 10876      00
 10877              	.LASF41:
 10878 0637 705F666C 		.ascii	"p_flags\000"
 10878      61677300 
 10879              	.LASF6:
 10880 063f 5F5F696E 		.ascii	"__int16_t\000"
 10880      7431365F 
 10880      7400
 10881              	.LASF124:
 10882 0649 5F5F6170 		.ascii	"__ap\000"
 10882      00
 10883              	.LASF231:
 10884 064e 6D656469 		.ascii	"media_SetSector\000"
 10884      615F5365 
 10884      74536563 
 10884      746F7200 
 10885              	.LASF179:
 10886 065e 4453505F 		.ascii	"DSP_x100_MOTOR_POWER\000"
 10886      78313030 
 10886      5F4D4F54 
 10886      4F525F50 
 10886      4F574552 
 10887              	.LASF258:
 10888 0673 6275735F 		.ascii	"bus_bit\000"
 10888      62697400 
 10889              	.LASF149:
 10890 067b 63616C63 		.ascii	"calcChannels\000"
 10890      4368616E 
 10890      6E656C73 
 10890      00
 10891              	.LASF190:
 10892 0688 4453505F 		.ascii	"DSP_DANGER\000"
 10892      44414E47 
 10892      455200
ARM GAS  C:\Users\danit\AppData\Local\Temp\cc88b6Ga.s 			page 199


 10893              	.LASF183:
 10894 0693 4453505F 		.ascii	"DSP_INDEX_RIGHT\000"
 10894      494E4445 
 10894      585F5249 
 10894      47485400 
 10895              	.LASF161:
 10896 06a3 4453505F 		.ascii	"DSP_x1_SPEED\000"
 10896      78315F53 
 10896      50454544 
 10896      00
 10897              	.LASF27:
 10898 06b0 74736C69 		.ascii	"tslices_t\000"
 10898      6365735F 
 10898      7400
 10899              	.LASF72:
 10900 06ba 725F6F6C 		.ascii	"r_older\000"
 10900      64657200 
 10901              	.LASF221:
 10902 06c2 76616C61 		.ascii	"valasz\000"
 10902      737A00
 10903              	.LASF108:
 10904 06c9 4D454153 		.ascii	"MEAS_STEERING\000"
 10904      5F535445 
 10904      4552494E 
 10904      4700
 10905              	.LASF247:
 10906 06d7 66696C65 		.ascii	"file_Mount\000"
 10906      5F4D6F75 
 10906      6E7400
 10907              	.LASF198:
 10908 06e2 6473705F 		.ascii	"dsp_LoadTop\000"
 10908      4C6F6164 
 10908      546F7000 
 10909              	.LASF249:
 10910 06ee 63685468 		.ascii	"chThdCreateStatic\000"
 10910      64437265 
 10910      61746553 
 10910      74617469 
 10910      6300
 10911              	.LASF208:
 10912 0700 61726763 		.ascii	"argc\000"
 10912      00
 10913              	.LASF47:
 10914 0705 705F6D73 		.ascii	"p_msg\000"
 10914      6700
 10915              	.LASF24:
 10916 070b 746D6F64 		.ascii	"tmode_t\000"
 10916      655F7400 
 10917              	.LASF204:
 10918 0713 64737049 		.ascii	"dspInit\000"
 10918      6E697400 
 10919              	.LASF50:
 10920 071b 705F7265 		.ascii	"p_realprio\000"
 10920      616C7072 
 10920      696F00
 10921              	.LASF98:
 10922 0726 4F535045 		.ascii	"OSPEEDR\000"
ARM GAS  C:\Users\danit\AppData\Local\Temp\cc88b6Ga.s 			page 200


 10922      45445200 
 10923              	.LASF9:
 10924 072e 73686F72 		.ascii	"short unsigned int\000"
 10924      7420756E 
 10924      7369676E 
 10924      65642069 
 10924      6E7400
 10925              	.LASF199:
 10926 0741 6473705F 		.ascii	"dsp_LoadMidle\000"
 10926      4C6F6164 
 10926      4D69646C 
 10926      6500
 10927              	.LASF121:
 10928 074f 6C6F6E67 		.ascii	"long double\000"
 10928      20646F75 
 10928      626C6500 
 10929              	.LASF18:
 10930 075b 75696E74 		.ascii	"uint16_t\000"
 10930      31365F74 
 10930      00
 10931              	.LASF219:
 10932 0764 6F766572 		.ascii	"over_charge\000"
 10932      5F636861 
 10932      72676500 
 10933              	.LASF56:
 10934 0770 696E7463 		.ascii	"intctx\000"
 10934      747800
 10935              	.LASF111:
 10936 0777 4D454153 		.ascii	"MEAS_CHP_J\000"
 10936      5F434850 
 10936      5F4A00
 10937              	.LASF12:
 10938 0782 5F5F7569 		.ascii	"__uint32_t\000"
 10938      6E743332 
 10938      5F7400
 10939              	.LASF236:
 10940 078d 67667847 		.ascii	"gfxGetDspAns\000"
 10940      65744473 
 10940      70416E73 
 10940      00
 10941              	.LASF128:
 10942 079a 7061636B 		.ascii	"pack_soc\000"
 10942      5F736F63 
 10942      00
 10943              	.LASF184:
 10944 07a3 4453505F 		.ascii	"DSP_INDEX_LEFT\000"
 10944      494E4445 
 10944      585F4C45 
 10944      465400
 10945              	.LASF202:
 10946 07b2 6473705F 		.ascii	"dsp_RefreshMidle\000"
 10946      52656672 
 10946      6573684D 
 10946      69646C65 
 10946      00
 10947              	.LASF7:
 10948 07c3 73686F72 		.ascii	"short int\000"
ARM GAS  C:\Users\danit\AppData\Local\Temp\cc88b6Ga.s 			page 201


 10948      7420696E 
 10948      7400
 10949              	.LASF73:
 10950 07cd 725F6375 		.ascii	"r_current\000"
 10950      7272656E 
 10950      7400
 10951              	.LASF48:
 10952 07d7 705F6570 		.ascii	"p_epending\000"
 10952      656E6469 
 10952      6E6700
 10953              	.LASF117:
 10954 07e2 4D454153 		.ascii	"MEAS2_REGEN_BRAKE\000"
 10954      325F5245 
 10954      47454E5F 
 10954      4252414B 
 10954      4500
 10955              	.LASF207:
 10956 07f4 636D645F 		.ascii	"cmd_dspvalues\000"
 10956      64737076 
 10956      616C7565 
 10956      7300
 10957              	.LASF11:
 10958 0802 6C6F6E67 		.ascii	"long int\000"
 10958      20696E74 
 10958      00
 10959              	.LASF215:
 10960 080b 6275735F 		.ascii	"bus_status\000"
 10960      73746174 
 10960      757300
 10961              	.LASF242:
 10962 0816 6275735F 		.ascii	"bus_Read\000"
 10962      52656164 
 10962      00
 10963              	.LASF225:
 10964 081f 49544D5F 		.ascii	"ITM_RxBuffer\000"
 10964      52784275 
 10964      66666572 
 10964      00
 10965              	.LASF127:
 10966 082c 7061636B 		.ascii	"pack_inst_volt\000"
 10966      5F696E73 
 10966      745F766F 
 10966      6C7400
 10967              	.LASF227:
 10968 083b 64737073 		.ascii	"dspstate\000"
 10968      74617465 
 10968      00
 10969              	.LASF17:
 10970 0844 696E7431 		.ascii	"int16_t\000"
 10970      365F7400 
 10971              	.LASF200:
 10972 084c 6473705F 		.ascii	"dsp_LoadBottom\000"
 10972      4C6F6164 
 10972      426F7474 
 10972      6F6D00
 10973              	.LASF97:
 10974 085b 4F545950 		.ascii	"OTYPER\000"
ARM GAS  C:\Users\danit\AppData\Local\Temp\cc88b6Ga.s 			page 202


 10974      455200
 10975              	.LASF238:
 10976 0862 63727569 		.ascii	"cruiseStatus\000"
 10976      73655374 
 10976      61747573 
 10976      00
 10977              	.LASF33:
 10978 086f 705F6E65 		.ascii	"p_next\000"
 10978      787400
 10979              	.LASF21:
 10980 0876 75696E74 		.ascii	"uint64_t\000"
 10980      36345F74 
 10980      00
 10981              	.LASF36:
 10982 087f 705F6374 		.ascii	"p_ctx\000"
 10982      7800
 10983              	.LASF224:
 10984 0885 726C6973 		.ascii	"rlist\000"
 10984      7400
 10985              	.LASF115:
 10986 088b 4D454153 		.ascii	"MEAS2_CURR1\000"
 10986      325F4355 
 10986      52523100 
 10987              	.LASF60:
 10988 0897 56697274 		.ascii	"VirtualTimer\000"
 10988      75616C54 
 10988      696D6572 
 10988      00
 10989              	.LASF189:
 10990 08a4 4453505F 		.ascii	"DSP_MOTOR_TEMO\000"
 10990      4D4F544F 
 10990      525F5445 
 10990      4D4F00
 10991              	.LASF4:
 10992 08b3 5F5F7569 		.ascii	"__uint8_t\000"
 10992      6E74385F 
 10992      7400
 10993              	.LASF87:
 10994 08bd 72656164 		.ascii	"read\000"
 10994      00
 10995              	.LASF237:
 10996 08c2 63727569 		.ascii	"cruiseGet\000"
 10996      73654765 
 10996      7400
 10997              	.LASF138:
 10998 08cc 746F7461 		.ascii	"total_pack_cycle\000"
 10998      6C5F7061 
 10998      636B5F63 
 10998      79636C65 
 10998      00
 10999              	.LASF104:
 11000 08dd 4750494F 		.ascii	"GPIO_TypeDef\000"
 11000      5F547970 
 11000      65446566 
 11000      00
 11001              	.LASF229:
 11002 08ea 6473705F 		.ascii	"dsp_activ\000"
ARM GAS  C:\Users\danit\AppData\Local\Temp\cc88b6Ga.s 			page 203


 11002      61637469 
 11002      7600
 11003              	.LASF230:
 11004 08f4 63727569 		.ascii	"cruise_assis\000"
 11004      73655F61 
 11004      73736973 
 11004      00
 11005              	.LASF34:
 11006 0901 705F7072 		.ascii	"p_prev\000"
 11006      657600
 11007              	.LASF58:
 11008 0908 73697A65 		.ascii	"sizetype\000"
 11008      74797065 
 11008      00
 11009              	.LASF26:
 11010 0911 74726566 		.ascii	"trefs_t\000"
 11010      735F7400 
 11011              	.LASF13:
 11012 0919 6C6F6E67 		.ascii	"long unsigned int\000"
 11012      20756E73 
 11012      69676E65 
 11012      6420696E 
 11012      7400
 11013              	.LASF256:
 11014 092b 64737047 		.ascii	"dspGetItem\000"
 11014      65744974 
 11014      656D00
 11015              	.LASF19:
 11016 0936 696E7433 		.ascii	"int32_t\000"
 11016      325F7400 
 11017              	.LASF25:
 11018 093e 74737461 		.ascii	"tstate_t\000"
 11018      74655F74 
 11018      00
 11019              	.LASF103:
 11020 0947 41465248 		.ascii	"AFRH\000"
 11020      00
 11021              	.LASF118:
 11022 094c 4D454153 		.ascii	"MEAS2_NUM_CH\000"
 11022      325F4E55 
 11022      4D5F4348 
 11022      00
 11023              	.LASF5:
 11024 0959 756E7369 		.ascii	"unsigned char\000"
 11024      676E6564 
 11024      20636861 
 11024      7200
 11025              	.LASF251:
 11026 0967 474E5520 		.ascii	"GNU C 4.9.3 20150529 (release) [ARM/embedded-4_9-br"
 11026      4320342E 
 11026      392E3320 
 11026      32303135 
 11026      30353239 
 11027 099a 616E6368 		.ascii	"anch revision 224288] -mcpu=cortex-m4 -mno-thumb-in"
 11027      20726576 
 11027      6973696F 
 11027      6E203232 
ARM GAS  C:\Users\danit\AppData\Local\Temp\cc88b6Ga.s 			page 204


 11027      34323838 
 11028 09cd 74657277 		.ascii	"terwork -mthumb -ggdb -O2 -fomit-frame-pointer -fal"
 11028      6F726B20 
 11028      2D6D7468 
 11028      756D6220 
 11028      2D676764 
 11029 0a00 69676E2D 		.ascii	"ign-functions=16 -ffunction-sections -fdata-section"
 11029      66756E63 
 11029      74696F6E 
 11029      733D3136 
 11029      202D6666 
 11030 0a33 73202D66 		.ascii	"s -fno-common\000"
 11030      6E6F2D63 
 11030      6F6D6D6F 
 11030      6E00
 11031              	.LASF137:
 11032 0a41 7061636B 		.ascii	"pack_current\000"
 11032      5F637572 
 11032      72656E74 
 11032      00
 11033              	.LASF42:
 11034 0a4e 705F7265 		.ascii	"p_refs\000"
 11034      667300
 11035              	.LASF74:
 11036 0a55 52656164 		.ascii	"ReadyList\000"
 11036      794C6973 
 11036      7400
 11037              	.LASF187:
 11038 0a5f 4453505F 		.ascii	"DSP_OVER_CHARGE\000"
 11038      4F564552 
 11038      5F434841 
 11038      52474500 
 11039              	.LASF250:
 11040 0a6f 63685468 		.ascii	"chThdSleep\000"
 11040      64536C65 
 11040      657000
 11041              	.LASF144:
 11042 0a7a 68696768 		.ascii	"high_cell_volt_num\000"
 11042      5F63656C 
 11042      6C5F766F 
 11042      6C745F6E 
 11042      756D00
 11043              	.LASF155:
 11044 0a8d 64737053 		.ascii	"dspState\000"
 11044      74617465 
 11044      00
 11045              	.LASF228:
 11046 0a96 6473706D 		.ascii	"dspmessages\000"
 11046      65737361 
 11046      67657300 
 11047              	.LASF43:
 11048 0aa2 705F7072 		.ascii	"p_preempt\000"
 11048      65656D70 
 11048      7400
 11049              	.LASF55:
 11050 0aac 73746B61 		.ascii	"stkalign_t\000"
 11050      6C69676E 
ARM GAS  C:\Users\danit\AppData\Local\Temp\cc88b6Ga.s 			page 205


 11050      5F7400
 11051              	.LASF181:
 11052 0ab7 4453505F 		.ascii	"DSP_x1_MOTOR_POWER\000"
 11052      78315F4D 
 11052      4F544F52 
 11052      5F504F57 
 11052      455200
 11053              	.LASF82:
 11054 0aca 65776D61 		.ascii	"ewmask\000"
 11054      736B00
 11055              	.LASF61:
 11056 0ad1 76745F6E 		.ascii	"vt_next\000"
 11056      65787400 
 11057              	.LASF112:
 11058 0ad9 4D454153 		.ascii	"MEAS_NUM_CH\000"
 11058      5F4E554D 
 11058      5F434800 
 11059              	.LASF105:
 11060 0ae5 4D454153 		.ascii	"MEAS_UBAT\000"
 11060      5F554241 
 11060      5400
 11061              	.LASF164:
 11062 0aef 4453505F 		.ascii	"DSP_x10_AVG_SPEED\000"
 11062      7831305F 
 11062      4156475F 
 11062      53504545 
 11062      4400
 11063              	.LASF233:
 11064 0b01 6D656173 		.ascii	"measGetValue\000"
 11064      47657456 
 11064      616C7565 
 11064      00
 11065              	.LASF205:
 11066 0b0e 64737047 		.ascii	"dspGetValue\000"
 11066      65745661 
 11066      6C756500 
 11067              	.LASF170:
 11068 0b1a 4453505F 		.ascii	"DSP_x10_BATTERY\000"
 11068      7831305F 
 11068      42415454 
 11068      45525900 
 11069              	.LASF78:
 11070 0b2a 6D5F6E65 		.ascii	"m_next\000"
 11070      787400
 11071              	.LASF130:
 11072 0b31 7061636B 		.ascii	"pack_amps\000"
 11072      5F616D70 
 11072      7300
 11073              	.LASF178:
 11074 0b3b 4453505F 		.ascii	"DSP_x1000_MOTOR_POWER\000"
 11074      78313030 
 11074      305F4D4F 
 11074      544F525F 
 11074      504F5745 
 11075              	.LASF2:
 11076 0b51 7369676E 		.ascii	"signed char\000"
 11076      65642063 
ARM GAS  C:\Users\danit\AppData\Local\Temp\cc88b6Ga.s 			page 206


 11076      68617200 
 11077              	.LASF93:
 11078 0b5d 72656164 		.ascii	"readt\000"
 11078      7400
 11079              	.LASF135:
 11080 0b63 68696768 		.ascii	"high_cell_volt\000"
 11080      5F63656C 
 11080      6C5F766F 
 11080      6C7400
 11081              	.LASF70:
 11082 0b72 725F6374 		.ascii	"r_ctx\000"
 11082      7800
 11083              	.LASF140:
 11084 0b78 7061636B 		.ascii	"pack_dcl\000"
 11084      5F64636C 
 11084      00
 11085              	.LASF167:
 11086 0b81 4453505F 		.ascii	"DSP_x10_TEMP_SPEED\000"
 11086      7831305F 
 11086      54454D50 
 11086      5F535045 
 11086      454400
 11087              	.LASF212:
 11088 0b94 61746F6C 		.ascii	"atol\000"
 11088      00
 11089              	.LASF64:
 11090 0b99 76745F66 		.ascii	"vt_func\000"
 11090      756E6300 
 11091              	.LASF165:
 11092 0ba1 4453505F 		.ascii	"DSP_x1_AVG_SPEED\000"
 11092      78315F41 
 11092      56475F53 
 11092      50454544 
 11092      00
 11093              	.LASF248:
 11094 0bb2 6275735F 		.ascii	"bus_In\000"
 11094      496E00
 11095              	.LASF119:
 11096 0bb9 646F7562 		.ascii	"double\000"
 11096      6C6500
 11097              	.LASF62:
 11098 0bc0 76745F70 		.ascii	"vt_prev\000"
 11098      72657600 
 11099              	.LASF171:
 11100 0bc8 4453505F 		.ascii	"DSP_x1_BATTERY\000"
 11100      78315F42 
 11100      41545445 
 11100      525900
 11101              	.LASF253:
 11102 0bd7 443A5C44 		.ascii	"D:\\Dani\\MegaLux\\Repo\\Smarty\\Smarty\\smarty\\fi"
 11102      616E695C 
 11102      4D656761 
 11102      4C75785C 
 11102      5265706F 
 11103 0c03 726D7761 		.ascii	"rmware\000"
 11103      726500
 11104              	.LASF133:
ARM GAS  C:\Users\danit\AppData\Local\Temp\cc88b6Ga.s 			page 207


 11105 0c0a 696E7465 		.ascii	"internal_temp\000"
 11105      726E616C 
 11105      5F74656D 
 11105      7000
 11106              	.LASF145:
 11107 0c18 6C6F775F 		.ascii	"low_cell_volt_num\000"
 11107      63656C6C 
 11107      5F766F6C 
 11107      745F6E75 
 11107      6D00
 11108              	.LASF80:
 11109 0c2a 65786974 		.ascii	"exitcode\000"
 11109      636F6465 
 11109      00
 11110              	.LASF166:
 11111 0c33 4453505F 		.ascii	"DSP_x100_TEMP_SPEED\000"
 11111      78313030 
 11111      5F54454D 
 11111      505F5350 
 11111      45454400 
 11112              	.LASF37:
 11113 0c47 705F6E65 		.ascii	"p_newer\000"
 11113      77657200 
 11114              	.LASF101:
 11115 0c4f 4C434B52 		.ascii	"LCKR\000"
 11115      00
 11116              	.LASF211:
 11117 0c54 73747263 		.ascii	"strcmp\000"
 11117      6D7000
 11118              	.LASF146:
 11119 0c5b 73757070 		.ascii	"supply_12v\000"
 11119      6C795F31 
 11119      327600
 11120              	.LASF77:
 11121 0c66 6D5F6F77 		.ascii	"m_owner\000"
 11121      6E657200 
 11122              		.ident	"GCC: (GNU Tools for ARM Embedded Processors) 4.9.3 20150529 (release) [ARM/embedded-4_9-br
ARM GAS  C:\Users\danit\AppData\Local\Temp\cc88b6Ga.s 			page 208


DEFINED SYMBOLS
                            *ABS*:00000000 dsp.c
C:\Users\danit\AppData\Local\Temp\cc88b6Ga.s:19     .text.dspTask:00000000 $t
C:\Users\danit\AppData\Local\Temp\cc88b6Ga.s:24     .text.dspTask:00000000 dspTask
C:\Users\danit\AppData\Local\Temp\cc88b6Ga.s:94     .text.dspTask:00000050 $d
C:\Users\danit\AppData\Local\Temp\cc88b6Ga.s:128    .text.dspTask:00000092 $t
C:\Users\danit\AppData\Local\Temp\cc88b6Ga.s:487    .text.dspTask:000002b8 $d
C:\Users\danit\AppData\Local\Temp\cc88b6Ga.s:504    .text.dspTask:000002f0 $t
C:\Users\danit\AppData\Local\Temp\cc88b6Ga.s:1009   .text.dspTask:00000668 $d
C:\Users\danit\AppData\Local\Temp\cc88b6Ga.s:1018   .text.dspTask:00000684 $t
C:\Users\danit\AppData\Local\Temp\cc88b6Ga.s:1521   .text.dspTask:00000a00 $d
C:\Users\danit\AppData\Local\Temp\cc88b6Ga.s:1530   .text.dspTask:00000a1c $t
C:\Users\danit\AppData\Local\Temp\cc88b6Ga.s:1992   .text.dspTask:00000d18 $d
C:\Users\danit\AppData\Local\Temp\cc88b6Ga.s:2007   .text.chprintf:00000000 $t
C:\Users\danit\AppData\Local\Temp\cc88b6Ga.s:2012   .text.chprintf:00000000 chprintf
C:\Users\danit\AppData\Local\Temp\cc88b6Ga.s:2055   .text.dsp_LoadTop:00000000 $t
C:\Users\danit\AppData\Local\Temp\cc88b6Ga.s:2061   .text.dsp_LoadTop:00000000 dsp_LoadTop
C:\Users\danit\AppData\Local\Temp\cc88b6Ga.s:2189   .text.dsp_LoadMidle:00000000 $t
C:\Users\danit\AppData\Local\Temp\cc88b6Ga.s:2195   .text.dsp_LoadMidle:00000000 dsp_LoadMidle
C:\Users\danit\AppData\Local\Temp\cc88b6Ga.s:2277   .text.dsp_LoadBottom:00000000 $t
C:\Users\danit\AppData\Local\Temp\cc88b6Ga.s:2283   .text.dsp_LoadBottom:00000000 dsp_LoadBottom
C:\Users\danit\AppData\Local\Temp\cc88b6Ga.s:2467   .text.dsp_RefreshMidle:00000000 $t
C:\Users\danit\AppData\Local\Temp\cc88b6Ga.s:2473   .text.dsp_RefreshMidle:00000000 dsp_RefreshMidle
C:\Users\danit\AppData\Local\Temp\cc88b6Ga.s:2618   .text.dsp_RefreshMidle:000000ec $d
C:\Users\danit\AppData\Local\Temp\cc88b6Ga.s:2624   .text.dspInit:00000000 $t
C:\Users\danit\AppData\Local\Temp\cc88b6Ga.s:2630   .text.dspInit:00000000 dspInit
C:\Users\danit\AppData\Local\Temp\cc88b6Ga.s:2699   .text.dspInit:00000048 $d
C:\Users\danit\AppData\Local\Temp\cc88b6Ga.s:2709   .text.dspGetItem:00000000 $t
C:\Users\danit\AppData\Local\Temp\cc88b6Ga.s:2715   .text.dspGetItem:00000000 dspGetItem
C:\Users\danit\AppData\Local\Temp\cc88b6Ga.s:2730   .text.dspGetValue:00000000 $t
C:\Users\danit\AppData\Local\Temp\cc88b6Ga.s:2736   .text.dspGetValue:00000000 dspGetValue
C:\Users\danit\AppData\Local\Temp\cc88b6Ga.s:2751   .text.dspGetValue:00000008 $d
C:\Users\danit\AppData\Local\Temp\cc88b6Ga.s:2756   .text.dsp_active:00000000 $t
C:\Users\danit\AppData\Local\Temp\cc88b6Ga.s:2762   .text.dsp_active:00000000 dsp_active
C:\Users\danit\AppData\Local\Temp\cc88b6Ga.s:2777   .text.dsp_active:00000008 $d
C:\Users\danit\AppData\Local\Temp\cc88b6Ga.s:2782   .text.cmd_dspvalues:00000000 $t
C:\Users\danit\AppData\Local\Temp\cc88b6Ga.s:2788   .text.cmd_dspvalues:00000000 cmd_dspvalues
C:\Users\danit\AppData\Local\Temp\cc88b6Ga.s:2928   .text.cmd_dspvalues:000000bc $d
C:\Users\danit\AppData\Local\Temp\cc88b6Ga.s:2951   .text.cmdfrappans_dspmessages:00000000 $t
C:\Users\danit\AppData\Local\Temp\cc88b6Ga.s:2957   .text.cmdfrappans_dspmessages:00000000 cmdfrappans_dspmessages
C:\Users\danit\AppData\Local\Temp\cc88b6Ga.s:3195   .text.cmdfrappans_dspmessages:00000104 $d
C:\Users\danit\AppData\Local\Temp\cc88b6Ga.s:3240   .bss.cruise_assis:00000000 cruise_assis
C:\Users\danit\AppData\Local\Temp\cc88b6Ga.s:3385   .bss.db2:00000000 db2
C:\Users\danit\AppData\Local\Temp\cc88b6Ga.s:3379   .data.db:00000000 db
C:\Users\danit\AppData\Local\Temp\cc88b6Ga.s:3278   .bss.c:00000000 c
C:\Users\danit\AppData\Local\Temp\cc88b6Ga.s:3284   .bss.dsp_activ:00000000 dsp_activ
C:\Users\danit\AppData\Local\Temp\cc88b6Ga.s:3399   .bss.dspmessages:00000000 dspmessages
C:\Users\danit\AppData\Local\Temp\cc88b6Ga.s:3405   .bss.dspstate:00000000 dspstate
C:\Users\danit\AppData\Local\Temp\cc88b6Ga.s:3224   .bss.bus_num:00000000 $d
C:\Users\danit\AppData\Local\Temp\cc88b6Ga.s:3228   .bss.bus_num:00000000 bus_num
C:\Users\danit\AppData\Local\Temp\cc88b6Ga.s:3231   .bss.danger:00000000 $d
C:\Users\danit\AppData\Local\Temp\cc88b6Ga.s:3235   .bss.danger:00000000 danger
C:\Users\danit\AppData\Local\Temp\cc88b6Ga.s:3241   .bss.cruise_assis:00000000 $d
C:\Users\danit\AppData\Local\Temp\cc88b6Ga.s:3246   .bss.valasz:00000000 valasz
C:\Users\danit\AppData\Local\Temp\cc88b6Ga.s:3247   .bss.valasz:00000000 $d
C:\Users\danit\AppData\Local\Temp\cc88b6Ga.s:3249   .bss.over_charge:00000000 $d
C:\Users\danit\AppData\Local\Temp\cc88b6Ga.s:3253   .bss.over_charge:00000000 over_charge
ARM GAS  C:\Users\danit\AppData\Local\Temp\cc88b6Ga.s 			page 209


C:\Users\danit\AppData\Local\Temp\cc88b6Ga.s:3256   .bss.discharge:00000000 $d
C:\Users\danit\AppData\Local\Temp\cc88b6Ga.s:3260   .bss.discharge:00000000 discharge
C:\Users\danit\AppData\Local\Temp\cc88b6Ga.s:3263   .bss.tasknumber:00000000 $d
C:\Users\danit\AppData\Local\Temp\cc88b6Ga.s:3267   .bss.tasknumber:00000000 tasknumber
C:\Users\danit\AppData\Local\Temp\cc88b6Ga.s:3273   .bss.bus_status:00000000 bus_status
C:\Users\danit\AppData\Local\Temp\cc88b6Ga.s:3274   .bss.bus_status:00000000 $d
C:\Users\danit\AppData\Local\Temp\cc88b6Ga.s:3279   .bss.c:00000000 $d
C:\Users\danit\AppData\Local\Temp\cc88b6Ga.s:3285   .bss.dsp_activ:00000000 $d
C:\Users\danit\AppData\Local\Temp\cc88b6Ga.s:3287   .bss.motor_temp:00000000 $d
C:\Users\danit\AppData\Local\Temp\cc88b6Ga.s:3291   .bss.motor_temp:00000000 motor_temp
C:\Users\danit\AppData\Local\Temp\cc88b6Ga.s:3294   .bss.wadspTask:00000000 $d
C:\Users\danit\AppData\Local\Temp\cc88b6Ga.s:3298   .bss.wadspTask:00000000 wadspTask
C:\Users\danit\AppData\Local\Temp\cc88b6Ga.s:3301   .rodata.str1.4:00000000 $d
C:\Users\danit\AppData\Local\Temp\cc88b6Ga.s:3375   .data.db:00000000 $d
C:\Users\danit\AppData\Local\Temp\cc88b6Ga.s:3382   .bss.db2:00000000 $d
C:\Users\danit\AppData\Local\Temp\cc88b6Ga.s:3388   .data.dspValue:00000000 $d
C:\Users\danit\AppData\Local\Temp\cc88b6Ga.s:3392   .data.dspValue:00000000 dspValue
C:\Users\danit\AppData\Local\Temp\cc88b6Ga.s:3400   .bss.dspmessages:00000000 $d
C:\Users\danit\AppData\Local\Temp\cc88b6Ga.s:3406   .bss.dspstate:00000000 $d
                     .debug_frame:00000010 $d

UNDEFINED SYMBOLS
gfxGetDspAnsZero
media_SetSector
gfxGetDspAns
media_VideoFrame
measGetValue
getLightFlashing
rlist
vtlist
bmsitems
calcGetValue
cruiseGet
measGetValue_2
cruiseStatus
calcAvgSpeed
speedGetSpeed
gfx_Transparency
gfx_TransparentColour
bus_Read
chvprintf
media_Image
draw_line
gfx_Cls
file_Mount
bus_In
chThdCreateStatic
chThdSleep
strcmp
atol
gfx_BGcolour
