ARM GAS  C:\Users\DNIEL~1\AppData\Local\Temp\ccaMIE7p.s 			page 1


   1              		.syntax unified
   2              		.cpu cortex-m4
   3              		.fpu softvfp
   4              		.eabi_attribute 20, 1
   5              		.eabi_attribute 21, 1
   6              		.eabi_attribute 23, 3
   7              		.eabi_attribute 24, 1
   8              		.eabi_attribute 25, 1
   9              		.eabi_attribute 26, 1
  10              		.eabi_attribute 30, 2
  11              		.eabi_attribute 18, 4
  12              		.thumb
  13              		.file	"dsp.c"
  14              		.section	.debug_abbrev,"",%progbits
  15              	.Ldebug_abbrev0:
  16              		.section	.debug_info,"",%progbits
  17              	.Ldebug_info0:
  18              		.section	.debug_line,"",%progbits
  19              	.Ldebug_line0:
  20 0000 9C070000 		.text
  20      0200F202 
  20      00000201 
  20      FB0E0D00 
  20      01010101 
  21              	.Ltext0:
  22              		.cfi_sections	.debug_frame
  23              		.section	.text.chprintf,"ax",%progbits
  24              		.align	2
  25              		.p2align 4,,15
  26              		.thumb
  27              		.thumb_func
  28              		.type	chprintf, %function
  29              	chprintf:
  30              	.LFB118:
  31              		.file 1 "../../../ChibiOS/os/various/chprintf.h"
  32              		.loc 1 69 0
  33              		.cfi_startproc
  34              		@ args = 4, pretend = 12, frame = 8
  35              		@ frame_needed = 0, uses_anonymous_args = 1
  36              	.LVL0:
  37 0000 0EB4     		push	{r1, r2, r3}
  38              	.LCFI0:
  39              		.cfi_def_cfa_offset 12
  40 0002 00B5     		push	{lr}
  41              	.LCFI1:
  42              		.cfi_def_cfa_offset 16
  43 0004 82B0     		sub	sp, sp, #8
  44              	.LCFI2:
  45              		.cfi_def_cfa_offset 24
  46              		.loc 1 69 0
  47 0006 03AB     		add	r3, sp, #12
  48              		.cfi_offset 14, -16
  49              		.cfi_offset 3, -4
  50              		.cfi_offset 2, -8
  51              		.cfi_offset 1, -12
  52 0008 53F8041B 		ldr	r1, [r3], #4
  53              		.loc 1 73 0
ARM GAS  C:\Users\DNIEL~1\AppData\Local\Temp\ccaMIE7p.s 			page 2


  54 000c 1A46     		mov	r2, r3
  55              		.loc 1 72 0
  56 000e 0193     		str	r3, [sp, #4]
  57              		.loc 1 73 0
  58 0010 FFF7FEFF 		bl	chvprintf
  59              	.LVL1:
  60              		.loc 1 75 0
  61 0014 02B0     		add	sp, sp, #8
  62 0016 5DF804EB 		pop	{lr}
  63 001a 03B0     		add	sp, sp, #12
  64 001c 7047     		bx	lr
  65              		.cfi_endproc
  66              	.LFE118:
  67              		.size	chprintf, .-chprintf
  68 001e 00BF     		.section	.text.dspTask,"ax",%progbits
  69              		.align	2
  70              		.p2align 4,,15
  71              		.thumb
  72              		.thumb_func
  73              		.type	dspTask, %function
  74              	dspTask:
  75              	.LFB123:
  76              		.file 2 "src/dsp.c"
  77              		.loc 2 209 0
  78              		.cfi_startproc
  79              		@ args = 0, pretend = 0, frame = 8
  80              		@ frame_needed = 0, uses_anonymous_args = 0
  81              	.LVL2:
  82 0000 2DE9F04F 		push	{r4, r5, r6, r7, r8, r9, sl, fp, lr}
  83              	.LCFI3:
  84              		.cfi_def_cfa_offset 36
  85              		.loc 2 213 0
  86 0004 9E48     		ldr	r0, .L149
  87              	.LVL3:
  88              		.loc 2 214 0
  89 0006 9F4D     		ldr	r5, .L149+4
  90              		.cfi_offset 14, -4
  91              		.cfi_offset 11, -8
  92              		.cfi_offset 10, -12
  93              		.cfi_offset 9, -16
  94              		.cfi_offset 8, -20
  95              		.cfi_offset 7, -24
  96              		.cfi_offset 6, -28
  97              		.cfi_offset 5, -32
  98              		.cfi_offset 4, -36
  99 0008 9F4B     		ldr	r3, .L149+8
 100              		.loc 2 213 0
 101 000a 8269     		ldr	r2, [r0, #24]
 102 000c 9F49     		ldr	r1, .L149+12
 103              		.loc 2 214 0
 104 000e DB68     		ldr	r3, [r3, #12]
 105 0010 DFF8A082 		ldr	r8, .L149+52
 106 0014 2B68     		ldr	r3, [r5, #0]
 107 0016 9E4C     		ldr	r4, .L149+16
 108 0018 9E4E     		ldr	r6, .L149+20
 109 001a DFF89CA2 		ldr	sl, .L149+56
 110 001e 9E4F     		ldr	r7, .L149+24
ARM GAS  C:\Users\DNIEL~1\AppData\Local\Temp\ccaMIE7p.s 			page 3


 111 0020 DFF88092 		ldr	r9, .L149+36
 112              	.LBB2:
 113              	.LBB3:
 114              		.loc 2 634 0
 115 0024 DFF894B2 		ldr	fp, .L149+60
 116              	.LBE3:
 117              	.LBE2:
 118              		.loc 2 213 0
 119 0028 9161     		str	r1, [r2, #24]
 120              		.loc 2 209 0
 121 002a 83B0     		sub	sp, sp, #12
 122              	.LCFI4:
 123              		.cfi_def_cfa_offset 48
 124              	.L126:
 125              	.LBB14:
 126              		.loc 2 219 0
 127 002c 0133     		adds	r3, r3, #1
 128              		.loc 2 221 0
 129 002e 13F0010F 		tst	r3, #1
 130              		.loc 2 219 0
 131 0032 2B60     		str	r3, [r5, #0]
 132              		.loc 2 221 0
 133 0034 1DD1     		bne	.L135
 134              	.L4:
 135              		.loc 2 229 0
 136 0036 2168     		ldr	r1, [r4, #0]
 137              		.loc 2 230 0
 138 0038 3278     		ldrb	r2, [r6, #0]	@ zero_extendqisi2
 139              		.loc 2 229 0
 140 003a 481C     		adds	r0, r1, #1
 141 003c 2060     		str	r0, [r4, #0]
 142              		.loc 2 230 0
 143 003e 22BB     		cbnz	r2, .L136
 144              		.loc 2 232 0
 145 0040 FFF7FEFF 		bl	gfxGetDspAns
 146 0044 5FFA80FC 		uxtb	ip, r0
 147              		.loc 2 233 0
 148 0048 BCF1060F 		cmp	ip, #6
 149              		.loc 2 232 0
 150 004c 8AF800C0 		strb	ip, [sl, #0]
 151              		.loc 2 233 0
 152 0050 03D0     		beq	.L9
 153              		.loc 2 233 0 is_stmt 0 discriminator 1
 154 0052 8F4B     		ldr	r3, .L149+16
 155 0054 1A68     		ldr	r2, [r3, #0]
 156 0056 072A     		cmp	r2, #7
 157 0058 01DD     		ble	.L10
 158              	.L9:
 159              		.loc 2 234 0 is_stmt 1
 160 005a 0120     		movs	r0, #1
 161 005c 3070     		strb	r0, [r6, #0]
 162              	.L10:
 163              		.loc 2 236 0
 164 005e FFF7FEFF 		bl	gfxGetDspAns
 165 0062 0628     		cmp	r0, #6
 166 0064 0CD0     		beq	.L11
 167              		.loc 2 838 0
ARM GAS  C:\Users\DNIEL~1\AppData\Local\Temp\ccaMIE7p.s 			page 4


 168 0066 2B68     		ldr	r3, [r5, #0]
 169              	.L139:
 170              		.loc 2 219 0
 171 0068 0133     		adds	r3, r3, #1
 172              		.loc 2 221 0
 173 006a 13F0010F 		tst	r3, #1
 174              		.loc 2 219 0
 175 006e 2B60     		str	r3, [r5, #0]
 176              		.loc 2 221 0
 177 0070 E1D0     		beq	.L4
 178              	.L135:
 179              		.loc 2 223 0
 180 0072 FFF7FEFF 		bl	bus_Read
 181 0076 8349     		ldr	r1, .L149+4
 182 0078 88F80000 		strb	r0, [r8, #0]
 183 007c 0B68     		ldr	r3, [r1, #0]
 184 007e D5E7     		b	.L126
 185              	.L11:
 186              		.loc 2 237 0
 187 0080 8649     		ldr	r1, .L149+28
 188 0082 2B68     		ldr	r3, [r5, #0]
 189 0084 0122     		movs	r2, #1
 190 0086 0A70     		strb	r2, [r1, #0]
 191 0088 D0E7     		b	.L126
 192              	.L136:
 193              		.loc 2 230 0
 194 008a 012A     		cmp	r2, #1
 195 008c 03D0     		beq	.L137
 196              		.loc 2 842 0
 197 008e 814A     		ldr	r2, .L149+20
 198 0090 0121     		movs	r1, #1
 199 0092 1170     		strb	r1, [r2, #0]
 200 0094 CAE7     		b	.L126
 201              	.L137:
 202              		.loc 2 241 0
 203 0096 3A78     		ldrb	r2, [r7, #0]	@ zero_extendqisi2
 204 0098 1F2A     		cmp	r2, #31
 205 009a 59D8     		bhi	.L12
 206 009c DFE812F0 		tbh	[pc, r2, lsl #1]
 207              	.L45:
 208 00a0 9504     		.2byte	(.L13-.L45)/2
 209 00a2 EC03     		.2byte	(.L14-.L45)/2
 210 00a4 B903     		.2byte	(.L15-.L45)/2
 211 00a6 9103     		.2byte	(.L16-.L45)/2
 212 00a8 1105     		.2byte	(.L104-.L45)/2
 213 00aa 5C04     		.2byte	(.L105-.L45)/2
 214 00ac D504     		.2byte	(.L106-.L45)/2
 215 00ae DA01     		.2byte	(.L20-.L45)/2
 216 00b0 4802     		.2byte	(.L21-.L45)/2
 217 00b2 2302     		.2byte	(.L22-.L45)/2
 218 00b4 EE04     		.2byte	(.L107-.L45)/2
 219 00b6 7504     		.2byte	(.L24-.L45)/2
 220 00b8 B604     		.2byte	(.L25-.L45)/2
 221 00ba 3504     		.2byte	(.L108-.L45)/2
 222 00bc 1404     		.2byte	(.L27-.L45)/2
 223 00be 8A01     		.2byte	(.L28-.L45)/2
 224 00c0 0503     		.2byte	(.L29-.L45)/2
ARM GAS  C:\Users\DNIEL~1\AppData\Local\Temp\ccaMIE7p.s 			page 5


 225 00c2 D302     		.2byte	(.L30-.L45)/2
 226 00c4 6503     		.2byte	(.L31-.L45)/2
 227 00c6 FD01     		.2byte	(.L32-.L45)/2
 228 00c8 A302     		.2byte	(.L33-.L45)/2
 229 00ca 7302     		.2byte	(.L34-.L45)/2
 230 00cc 3F03     		.2byte	(.L35-.L45)/2
 231 00ce B301     		.2byte	(.L36-.L45)/2
 232 00d0 6D01     		.2byte	(.L37-.L45)/2
 233 00d2 4F01     		.2byte	(.L38-.L45)/2
 234 00d4 3201     		.2byte	(.L39-.L45)/2
 235 00d6 1501     		.2byte	(.L40-.L45)/2
 236 00d8 C200     		.2byte	(.L41-.L45)/2
 237 00da 9200     		.2byte	(.L42-.L45)/2
 238 00dc 2200     		.2byte	(.L43-.L45)/2
 239 00de 6B00     		.2byte	(.L44-.L45)/2
 240              	.LVL4:
 241              	.L95:
 242              	.LBB4:
 243              		.loc 2 780 0
 244 00e0 511C     		adds	r1, r2, #1
 245 00e2 3970     		strb	r1, [r7, #0]
 246              	.LVL5:
 247              	.L43:
 248              		.loc 2 783 0
 249 00e4 0420     		movs	r0, #4
 250 00e6 FFF7FEFF 		bl	measGetValue
 251 00ea 0028     		cmp	r0, #0
 252 00ec 00F01185 		beq	.L122
 253              		.loc 2 785 0
 254 00f0 DFF8ACE1 		ldr	lr, .L149+32
 255 00f4 BEF80000 		ldrh	r0, [lr, #0]
 256 00f8 431C     		adds	r3, r0, #1
 257 00fa 9AB2     		uxth	r2, r3
 258              		.loc 2 786 0
 259 00fc 092A     		cmp	r2, #9
 260 00fe 40F26485 		bls	.L123
 261              	.LVL6:
 262              		.loc 2 787 0 discriminator 3
 263 0102 142A     		cmp	r2, #20
 264 0104 40F27185 		bls	.L138
 265              		.loc 2 786 0
 266 0108 0223     		movs	r3, #2
 267              		.loc 2 787 0
 268 010a 0022     		movs	r2, #0
 269              	.LVL7:
 270              	.L98:
 271              		.loc 2 787 0 is_stmt 0 discriminator 3
 272 010c 6449     		ldr	r1, .L149+32
 273 010e 0A80     		strh	r2, [r1, #0]	@ movhi
 274              	.L96:
 275              	.LVL8:
 276              		.loc 2 794 0 is_stmt 1
 277 0110 3A78     		ldrb	r2, [r7, #0]	@ zero_extendqisi2
 278 0112 DFF884C1 		ldr	ip, .L149+24
 279 0116 59F82200 		ldr	r0, [r9, r2, lsl #2]
 280 011a 9842     		cmp	r0, r3
 281 011c 27D0     		beq	.L99
ARM GAS  C:\Users\DNIEL~1\AppData\Local\Temp\ccaMIE7p.s 			page 6


 282              		.loc 2 795 0
 283 011e 5E21     		movs	r1, #94
 284 0120 0020     		movs	r0, #0
 285 0122 0093     		str	r3, [sp, #0]
 286 0124 CDF804C0 		str	ip, [sp, #4]
 287 0128 FFF7FEFF 		bl	media_SetSector
 288              	.LVL9:
 289              		.loc 2 796 0
 290 012c FFF7FEFF 		bl	gfxGetDspAns
 291              		.loc 2 797 0
 292 0130 40F27710 		movw	r0, #375
 293 0134 AA21     		movs	r1, #170
 294              	.L130:
 295 0136 009A     		ldr	r2, [sp, #0]
 296 0138 FFF7FEFF 		bl	media_VideoFrame
 297              		.loc 2 799 0
 298 013c DDF804C0 		ldr	ip, [sp, #4]
 299 0140 9CF80020 		ldrb	r2, [ip, #0]	@ zero_extendqisi2
 300              	.L131:
 301 0144 5749     		ldr	r1, .L149+36
 302 0146 009B     		ldr	r3, [sp, #0]
 303              		.loc 2 798 0
 304 0148 0020     		movs	r0, #0
 305              		.loc 2 799 0
 306 014a 41F82230 		str	r3, [r1, r2, lsl #2]
 307              		.loc 2 798 0
 308 014e 3070     		strb	r0, [r6, #0]
 309              	.L12:
 310              	.LBE4:
 311              		.loc 2 834 0
 312 0150 531C     		adds	r3, r2, #1
 313              		.loc 2 835 0
 314 0152 0020     		movs	r0, #0
 315              		.loc 2 834 0
 316 0154 3B70     		strb	r3, [r7, #0]
 317              		.loc 2 835 0
 318 0156 2060     		str	r0, [r4, #0]
 319              		.loc 2 836 0
 320 0158 0090     		str	r0, [sp, #0]
 321 015a FFF7FEFF 		bl	gfxGetDspAnsZero
 322              		.loc 2 837 0
 323 015e 3A78     		ldrb	r2, [r7, #0]	@ zero_extendqisi2
 324 0160 0099     		ldr	r1, [sp, #0]
 325              		.loc 2 838 0
 326 0162 2B68     		ldr	r3, [r5, #0]
 327              		.loc 2 837 0
 328 0164 202A     		cmp	r2, #32
 329              		.loc 2 838 0
 330 0166 84BF     		itt	hi
 331 0168 4B4A     		ldrhi	r2, .L149+24
 332 016a 1170     		strbhi	r1, [r2, #0]
 333 016c 7CE7     		b	.L139
 334              	.LVL10:
 335              	.L99:
 336              	.LBB5:
 337              		.loc 2 803 0
 338 016e 0132     		adds	r2, r2, #1
ARM GAS  C:\Users\DNIEL~1\AppData\Local\Temp\ccaMIE7p.s 			page 7


 339 0170 D2B2     		uxtb	r2, r2
 340 0172 8CF80020 		strb	r2, [ip, #0]
 341              	.LVL11:
 342              	.L44:
 343              		.loc 2 806 0
 344 0176 4C49     		ldr	r1, .L149+40
 345 0178 91F804E0 		ldrb	lr, [r1, #4]	@ zero_extendqisi2
 346 017c 1EF0010F 		tst	lr, #1
 347 0180 00F0BA84 		beq	.L100
 348              	.LVL12:
 349              		.loc 2 810 0
 350 0184 DFF838C1 		ldr	ip, .L149+64
 351 0188 0023     		movs	r3, #0
 352 018a ACF80030 		strh	r3, [ip, #0]	@ movhi
 353              	.LVL13:
 354              	.L101:
 355              		.loc 2 822 0
 356 018e 59F82200 		ldr	r0, [r9, r2, lsl #2]
 357 0192 0228     		cmp	r0, #2
 358 0194 DCD0     		beq	.L12
 359              		.loc 2 823 0
 360 0196 1721     		movs	r1, #23
 361 0198 0020     		movs	r0, #0
 362 019a FFF7FEFF 		bl	media_SetSector
 363              		.loc 2 824 0
 364 019e FFF7FEFF 		bl	gfxGetDspAns
 365              		.loc 2 825 0
 366 01a2 40F27710 		movw	r0, #375
 367 01a6 5021     		movs	r1, #80
 368 01a8 0222     		movs	r2, #2
 369 01aa FFF7FEFF 		bl	media_VideoFrame
 370              		.loc 2 827 0
 371 01ae 3A78     		ldrb	r2, [r7, #0]	@ zero_extendqisi2
 372 01b0 3C4B     		ldr	r3, .L149+36
 373 01b2 0220     		movs	r0, #2
 374              		.loc 2 826 0
 375 01b4 0021     		movs	r1, #0
 376              		.loc 2 827 0
 377 01b6 43F82200 		str	r0, [r3, r2, lsl #2]
 378              		.loc 2 826 0
 379 01ba 3170     		strb	r1, [r6, #0]
 380 01bc C8E7     		b	.L12
 381              	.LVL14:
 382              	.L91:
 383              		.loc 2 757 0
 384 01be 531C     		adds	r3, r2, #1
 385              	.LVL15:
 386 01c0 DAB2     		uxtb	r2, r3
 387 01c2 3A70     		strb	r2, [r7, #0]
 388              	.L42:
 389              		.loc 2 760 0
 390 01c4 DFF8E0E0 		ldr	lr, .L149+40
 391 01c8 BEF808C0 		ldrh	ip, [lr, #8]
 392 01cc BCF10A0F 		cmp	ip, #10
 393 01d0 00F28F84 		bhi	.L119
 394              		.loc 2 766 0
 395 01d4 354B     		ldr	r3, .L149+44
ARM GAS  C:\Users\DNIEL~1\AppData\Local\Temp\ccaMIE7p.s 			page 8


 396 01d6 1988     		ldrh	r1, [r3, #0]
 397 01d8 481C     		adds	r0, r1, #1
 398 01da 81B2     		uxth	r1, r0
 399              		.loc 2 767 0
 400 01dc 0929     		cmp	r1, #9
 401 01de 40F2F784 		bls	.L120
 402              	.LVL16:
 403              		.loc 2 768 0 discriminator 3
 404 01e2 1429     		cmp	r1, #20
 405 01e4 40F20485 		bls	.L140
 406              		.loc 2 767 0
 407 01e8 0223     		movs	r3, #2
 408              		.loc 2 768 0
 409 01ea 0021     		movs	r1, #0
 410              	.LVL17:
 411              	.L94:
 412              		.loc 2 768 0 is_stmt 0 discriminator 3
 413 01ec DFF8BCC0 		ldr	ip, .L149+44
 414 01f0 ACF80010 		strh	r1, [ip, #0]	@ movhi
 415              	.L92:
 416              	.LVL18:
 417              		.loc 2 771 0 is_stmt 1
 418 01f4 59F82200 		ldr	r0, [r9, r2, lsl #2]
 419 01f8 9842     		cmp	r0, r3
 420 01fa 3FF471AF 		beq	.L95
 421              		.loc 2 772 0
 422 01fe 0020     		movs	r0, #0
 423 0200 0146     		mov	r1, r0
 424 0202 0093     		str	r3, [sp, #0]
 425 0204 FFF7FEFF 		bl	media_SetSector
 426              	.LVL19:
 427              		.loc 2 773 0
 428 0208 FFF7FEFF 		bl	gfxGetDspAns
 429              		.loc 2 774 0
 430 020c 009A     		ldr	r2, [sp, #0]
 431 020e 40F27710 		movw	r0, #375
 432 0212 DB21     		movs	r1, #219
 433 0214 FFF7FEFF 		bl	media_VideoFrame
 434              		.loc 2 776 0
 435 0218 3A78     		ldrb	r2, [r7, #0]	@ zero_extendqisi2
 436 021a 93E7     		b	.L131
 437              	.LVL20:
 438              	.L87:
 439              		.loc 2 734 0
 440 021c 0132     		adds	r2, r2, #1
 441 021e D2B2     		uxtb	r2, r2
 442 0220 8CF80020 		strb	r2, [ip, #0]
 443              	.LVL21:
 444              	.L41:
 445              		.loc 2 737 0
 446 0224 204B     		ldr	r3, .L149+40
 447 0226 93F804C0 		ldrb	ip, [r3, #4]	@ zero_extendqisi2
 448 022a 0CF0020E 		and	lr, ip, #2
 449 022e 5FFA8EF1 		uxtb	r1, lr
 450 0232 0029     		cmp	r1, #0
 451 0234 40F07084 		bne	.L116
 452              		.loc 2 743 0
ARM GAS  C:\Users\DNIEL~1\AppData\Local\Temp\ccaMIE7p.s 			page 9


 453 0238 1D48     		ldr	r0, .L149+48
 454 023a 0388     		ldrh	r3, [r0, #0]
 455 023c 581C     		adds	r0, r3, #1
 456 023e 80B2     		uxth	r0, r0
 457              		.loc 2 744 0
 458 0240 0928     		cmp	r0, #9
 459 0242 40F2C884 		bls	.L117
 460              	.LVL22:
 461              		.loc 2 745 0 discriminator 3
 462 0246 1428     		cmp	r0, #20
 463 0248 40F2CC84 		bls	.L141
 464              		.loc 2 744 0
 465 024c 0223     		movs	r3, #2
 466              		.loc 2 745 0
 467 024e 0846     		mov	r0, r1
 468              	.LVL23:
 469              	.L90:
 470              		.loc 2 745 0 is_stmt 0 discriminator 3
 471 0250 DFF85CE0 		ldr	lr, .L149+48
 472 0254 AEF80000 		strh	r0, [lr, #0]	@ movhi
 473              	.L88:
 474              	.LVL24:
 475              		.loc 2 748 0 is_stmt 1
 476 0258 59F82210 		ldr	r1, [r9, r2, lsl #2]
 477 025c 9942     		cmp	r1, r3
 478 025e AED0     		beq	.L91
 479              		.loc 2 749 0
 480 0260 44F24651 		movw	r1, #17734
 481 0264 0020     		movs	r0, #0
 482 0266 0093     		str	r3, [sp, #0]
 483 0268 FFF7FEFF 		bl	media_SetSector
 484              	.LVL25:
 485              		.loc 2 750 0
 486 026c FFF7FEFF 		bl	gfxGetDspAns
 487              		.loc 2 751 0
 488 0270 009A     		ldr	r2, [sp, #0]
 489 0272 40F27710 		movw	r0, #375
 490 0276 1A21     		movs	r1, #26
 491 0278 FFF7FEFF 		bl	media_VideoFrame
 492              		.loc 2 753 0
 493 027c 3A78     		ldrb	r2, [r7, #0]	@ zero_extendqisi2
 494 027e 61E7     		b	.L131
 495              	.L150:
 496              		.align	2
 497              	.L149:
 498 0280 00000000 		.word	rlist
 499 0284 00000000 		.word	.LANCHOR0
 500 0288 00000000 		.word	vtlist
 501 028c 00000000 		.word	.LC0
 502 0290 00000000 		.word	.LANCHOR2
 503 0294 00000000 		.word	.LANCHOR3
 504 0298 00000000 		.word	.LANCHOR6
 505 029c 00000000 		.word	.LANCHOR5
 506 02a0 00000000 		.word	.LANCHOR10
 507 02a4 00000000 		.word	.LANCHOR7
 508 02a8 00000000 		.word	bmsitems
 509 02ac 00000000 		.word	.LANCHOR9
ARM GAS  C:\Users\DNIEL~1\AppData\Local\Temp\ccaMIE7p.s 			page 10


 510 02b0 00000000 		.word	.LANCHOR8
 511 02b4 00000000 		.word	.LANCHOR1
 512 02b8 00000000 		.word	.LANCHOR4
 513 02bc 67666666 		.word	1717986919
 514 02c0 00000000 		.word	.LANCHOR11
 515              	.LVL26:
 516              	.L86:
 517              		.loc 2 714 0
 518 02c4 531C     		adds	r3, r2, #1
 519              	.LVL27:
 520 02c6 8CF80030 		strb	r3, [ip, #0]
 521              	.L40:
 522              		.loc 2 717 0
 523 02ca 0520     		movs	r0, #5
 524 02cc FFF7FEFF 		bl	getLightFlashing
 525              		.loc 2 725 0
 526 02d0 3A78     		ldrb	r2, [r7, #0]	@ zero_extendqisi2
 527 02d2 DFF840C4 		ldr	ip, .L151+12
 528 02d6 59F82210 		ldr	r1, [r9, r2, lsl #2]
 529              		.loc 2 209 0
 530 02da 80F00100 		eor	r0, r0, #1
 531              		.loc 2 719 0
 532 02de C3B2     		uxtb	r3, r0
 533              	.LVL28:
 534              		.loc 2 725 0
 535 02e0 9942     		cmp	r1, r3
 536 02e2 9BD0     		beq	.L87
 537              		.loc 2 726 0
 538 02e4 5321     		movs	r1, #83
 539 02e6 0020     		movs	r0, #0
 540 02e8 0093     		str	r3, [sp, #0]
 541 02ea CDF804C0 		str	ip, [sp, #4]
 542 02ee FFF7FEFF 		bl	media_SetSector
 543              	.LVL29:
 544              		.loc 2 727 0
 545 02f2 FFF7FEFF 		bl	gfxGetDspAns
 546              		.loc 2 728 0
 547 02f6 40F2B110 		movw	r0, #433
 548 02fa 9A21     		movs	r1, #154
 549 02fc 1BE7     		b	.L130
 550              	.LVL30:
 551              	.L85:
 552              		.loc 2 696 0
 553 02fe 0132     		adds	r2, r2, #1
 554 0300 8CF80020 		strb	r2, [ip, #0]
 555              	.LVL31:
 556              	.L39:
 557              		.loc 2 699 0
 558 0304 FFF7FEFF 		bl	cruiseStatus
 559              		.loc 2 705 0
 560 0308 3A78     		ldrb	r2, [r7, #0]	@ zero_extendqisi2
 561 030a DFF808C4 		ldr	ip, .L151+12
 562 030e 59F82210 		ldr	r1, [r9, r2, lsl #2]
 563              		.loc 2 209 0
 564 0312 80F00100 		eor	r0, r0, #1
 565              		.loc 2 701 0
 566 0316 C3B2     		uxtb	r3, r0
ARM GAS  C:\Users\DNIEL~1\AppData\Local\Temp\ccaMIE7p.s 			page 11


 567              	.LVL32:
 568              		.loc 2 705 0
 569 0318 9942     		cmp	r1, r3
 570 031a D3D0     		beq	.L86
 571              		.loc 2 706 0
 572 031c 44F23351 		movw	r1, #17715
 573 0320 0020     		movs	r0, #0
 574 0322 0093     		str	r3, [sp, #0]
 575 0324 CDF804C0 		str	ip, [sp, #4]
 576 0328 FFF7FEFF 		bl	media_SetSector
 577              	.LVL33:
 578              		.loc 2 707 0
 579 032c FFF7FEFF 		bl	gfxGetDspAns
 580              		.loc 2 708 0
 581 0330 40F2B110 		movw	r0, #433
 582 0334 3D21     		movs	r1, #61
 583 0336 FEE6     		b	.L130
 584              	.LVL34:
 585              	.L83:
 586              		.loc 2 681 0
 587 0338 531C     		adds	r3, r2, #1
 588              	.LVL35:
 589 033a 8CF80030 		strb	r3, [ip, #0]
 590              	.L38:
 591              		.loc 2 684 0
 592 033e 0320     		movs	r0, #3
 593 0340 FFF7FEFF 		bl	getLightFlashing
 594 0344 0028     		cmp	r0, #0
 595 0346 00F01184 		beq	.L142
 596 034a 0023     		movs	r3, #0
 597              	.L84:
 598              	.LVL36:
 599              		.loc 2 687 0
 600 034c 3A78     		ldrb	r2, [r7, #0]	@ zero_extendqisi2
 601 034e DFF8C4C3 		ldr	ip, .L151+12
 602 0352 59F82210 		ldr	r1, [r9, r2, lsl #2]
 603 0356 9942     		cmp	r1, r3
 604 0358 D1D0     		beq	.L85
 605              		.loc 2 688 0
 606 035a 3921     		movs	r1, #57
 607 035c 0020     		movs	r0, #0
 608 035e 0093     		str	r3, [sp, #0]
 609 0360 CDF804C0 		str	ip, [sp, #4]
 610 0364 FFF7FEFF 		bl	media_SetSector
 611              	.LVL37:
 612              		.loc 2 689 0
 613 0368 FFF7FEFF 		bl	gfxGetDspAns
 614              		.loc 2 690 0
 615 036c 40F2B110 		movw	r0, #433
 616 0370 0721     		movs	r1, #7
 617 0372 E0E6     		b	.L130
 618              	.LVL38:
 619              	.L81:
 620              		.loc 2 665 0
 621 0374 0132     		adds	r2, r2, #1
 622 0376 8CF80020 		strb	r2, [ip, #0]
 623              	.LVL39:
ARM GAS  C:\Users\DNIEL~1\AppData\Local\Temp\ccaMIE7p.s 			page 12


 624              	.L37:
 625              		.loc 2 668 0
 626 037a 0220     		movs	r0, #2
 627 037c FFF7FEFF 		bl	getLightFlashing
 628 0380 0028     		cmp	r0, #0
 629 0382 00F00B84 		beq	.L143
 630 0386 0023     		movs	r3, #0
 631              	.L82:
 632              	.LVL40:
 633              		.loc 2 672 0
 634 0388 3A78     		ldrb	r2, [r7, #0]	@ zero_extendqisi2
 635 038a DFF888C3 		ldr	ip, .L151+12
 636 038e 59F82200 		ldr	r0, [r9, r2, lsl #2]
 637 0392 9842     		cmp	r0, r3
 638 0394 D0D0     		beq	.L83
 639              		.loc 2 673 0
 640 0396 4421     		movs	r1, #68
 641 0398 0020     		movs	r0, #0
 642 039a 0093     		str	r3, [sp, #0]
 643 039c CDF804C0 		str	ip, [sp, #4]
 644 03a0 FFF7FEFF 		bl	media_SetSector
 645              	.LVL41:
 646              		.loc 2 674 0
 647 03a4 FFF7FEFF 		bl	gfxGetDspAns
 648              		.loc 2 675 0
 649 03a8 40F2B110 		movw	r0, #433
 650 03ac E621     		movs	r1, #230
 651 03ae C2E6     		b	.L130
 652              	.LVL42:
 653              	.L69:
 654              		.loc 2 493 0
 655 03b0 0131     		adds	r1, r1, #1
 656 03b2 3970     		strb	r1, [r7, #0]
 657              	.LVL43:
 658              	.L28:
 659              		.loc 2 496 0
 660 03b4 0120     		movs	r0, #1
 661 03b6 FFF7FEFF 		bl	calcGetValue
 662              		.loc 2 500 0
 663 03ba 3A78     		ldrb	r2, [r7, #0]	@ zero_extendqisi2
 664 03bc DFF854C3 		ldr	ip, .L151+12
 665 03c0 59F82210 		ldr	r1, [r9, r2, lsl #2]
 666 03c4 8142     		cmp	r1, r0
 667              		.loc 2 496 0
 668 03c6 0346     		mov	r3, r0
 669              	.LVL44:
 670              		.loc 2 500 0
 671 03c8 00F06C81 		beq	.L70
 672              		.loc 2 501 0
 673 03cc 44F27E41 		movw	r1, #17534
 674 03d0 0020     		movs	r0, #0
 675              	.LVL45:
 676 03d2 CDF804C0 		str	ip, [sp, #4]
 677 03d6 0093     		str	r3, [sp, #0]
 678 03d8 FFF7FEFF 		bl	media_SetSector
 679              	.LVL46:
 680              		.loc 2 502 0
ARM GAS  C:\Users\DNIEL~1\AppData\Local\Temp\ccaMIE7p.s 			page 13


 681 03dc FFF7FEFF 		bl	gfxGetDspAns
 682              		.loc 2 503 0
 683 03e0 009A     		ldr	r2, [sp, #0]
 684 03e2 C948     		ldr	r0, .L151
 685 03e4 D317     		asrs	r3, r2, #31
 686 03e6 80FB020E 		smull	r0, lr, r0, r2
 687 03ea C3EBAE12 		rsb	r2, r3, lr, asr #6
 688 03ee 6C20     		movs	r0, #108
 689 03f0 A821     		movs	r1, #168
 690 03f2 FFF7FEFF 		bl	media_VideoFrame
 691              		.loc 2 506 0
 692 03f6 DDF804C0 		ldr	ip, [sp, #4]
 693 03fa 9CF80020 		ldrb	r2, [ip, #0]	@ zero_extendqisi2
 694 03fe A1E6     		b	.L131
 695              	.LVL47:
 696              	.L80:
 697              		.loc 2 646 0
 698 0400 0132     		adds	r2, r2, #1
 699 0402 8CF80020 		strb	r2, [ip, #0]
 700              	.LVL48:
 701              	.L36:
 702              		.loc 2 649 0
 703 0406 0220     		movs	r0, #2
 704 0408 FFF7FEFF 		bl	measGetValue_2
 705              	.LVL49:
 706              		.loc 2 651 0
 707 040c DFF8F8E2 		ldr	lr, .L151
 708              		.loc 2 656 0
 709 0410 3A78     		ldrb	r2, [r7, #0]	@ zero_extendqisi2
 710              		.loc 2 650 0
 711 0412 C0EBC00C 		rsb	ip, r0, r0, lsl #3
 712 0416 00EB8C01 		add	r1, r0, ip, lsl #2
 713              	.LVL50:
 714              		.loc 2 651 0
 715 041a AEFB01E3 		umull	lr, r3, lr, r1
 716 041e 9B09     		lsrs	r3, r3, #6
 717              	.LVL51:
 718              		.loc 2 656 0
 719 0420 59F82200 		ldr	r0, [r9, r2, lsl #2]
 720 0424 DFF8ECC2 		ldr	ip, .L151+12
 721              		.loc 2 652 0
 722 0428 B3F5827F 		cmp	r3, #260
 723 042c 28BF     		it	cs
 724 042e 4FF48273 		movcs	r3, #260
 725              	.LVL52:
 726              		.loc 2 656 0
 727 0432 9842     		cmp	r0, r3
 728 0434 9ED0     		beq	.L81
 729              		.loc 2 657 0
 730 0436 41F61C11 		movw	r1, #6428
 731 043a 0020     		movs	r0, #0
 732 043c 0093     		str	r3, [sp, #0]
 733 043e CDF804C0 		str	ip, [sp, #4]
 734 0442 FFF7FEFF 		bl	media_SetSector
 735              	.LVL53:
 736              		.loc 2 658 0
 737 0446 FFF7FEFF 		bl	gfxGetDspAns
ARM GAS  C:\Users\DNIEL~1\AppData\Local\Temp\ccaMIE7p.s 			page 14


 738              		.loc 2 659 0
 739 044a 0320     		movs	r0, #3
 740 044c 0021     		movs	r1, #0
 741 044e 72E6     		b	.L130
 742              	.LVL54:
 743              	.L57:
 744              		.loc 2 360 0
 745 0450 531C     		adds	r3, r2, #1
 746 0452 3B70     		strb	r3, [r7, #0]
 747              	.LVL55:
 748              	.L20:
 749              		.loc 2 363 0
 750 0454 FFF7FEFF 		bl	cruiseGet
 751 0458 DFF8B4E2 		ldr	lr, .L151+8
 752              		.loc 2 365 0
 753 045c 3A78     		ldrb	r2, [r7, #0]	@ zero_extendqisi2
 754 045e DFF8B4C2 		ldr	ip, .L151+12
 755 0462 59F82210 		ldr	r1, [r9, r2, lsl #2]
 756              		.loc 2 363 0
 757 0466 AEFB00E0 		umull	lr, r0, lr, r0
 758 046a C0F34713 		ubfx	r3, r0, #5, #8
 759              	.LVL56:
 760              		.loc 2 364 0
 761 046e 002B     		cmp	r3, #0
 762 0470 08BF     		it	eq
 763 0472 0A23     		moveq	r3, #10
 764              	.LVL57:
 765              		.loc 2 365 0
 766 0474 8B42     		cmp	r3, r1
 767 0476 58D0     		beq	.L59
 768              		.loc 2 366 0
 769 0478 44F27141 		movw	r1, #17521
 770 047c 0020     		movs	r0, #0
 771 047e 0093     		str	r3, [sp, #0]
 772 0480 CDF804C0 		str	ip, [sp, #4]
 773 0484 FFF7FEFF 		bl	media_SetSector
 774              		.loc 2 367 0
 775 0488 FFF7FEFF 		bl	gfxGetDspAns
 776              		.loc 2 368 0
 777 048c 40F23B10 		movw	r0, #315
 778 0490 CD21     		movs	r1, #205
 779 0492 50E6     		b	.L130
 780              	.LVL58:
 781              	.L73:
 782              		.loc 2 566 0
 783 0494 531C     		adds	r3, r2, #1
 784 0496 8CF80030 		strb	r3, [ip, #0]
 785              	.LVL59:
 786              	.L32:
 787              		.loc 2 569 0
 788 049a 0020     		movs	r0, #0
 789 049c FFF7FEFF 		bl	calcGetValue
 790              	.LVL60:
 791              		.loc 2 570 0
 792 04a0 0028     		cmp	r0, #0
 793 04a2 C0F29083 		blt	.L110
 794              		.loc 2 573 0
ARM GAS  C:\Users\DNIEL~1\AppData\Local\Temp\ccaMIE7p.s 			page 15


 795 04a6 9849     		ldr	r1, .L151
 796 04a8 C217     		asrs	r2, r0, #31
 797 04aa 81FB001C 		smull	r1, ip, r1, r0
 798              	.LVL61:
 799              		.loc 2 574 0
 800 04ae D2EBAC13 		rsbs	r3, r2, ip, asr #6
 801 04b2 08BF     		it	eq
 802 04b4 0A23     		moveq	r3, #10
 803              	.LVL62:
 804              	.L74:
 805              		.loc 2 576 0 discriminator 3
 806 04b6 3A78     		ldrb	r2, [r7, #0]	@ zero_extendqisi2
 807 04b8 DFF858C2 		ldr	ip, .L151+12
 808 04bc 59F82200 		ldr	r0, [r9, r2, lsl #2]
 809 04c0 8342     		cmp	r3, r0
 810 04c2 00F08D80 		beq	.L75
 811              		.loc 2 577 0
 812 04c6 44F27E41 		movw	r1, #17534
 813 04ca 0020     		movs	r0, #0
 814 04cc 0093     		str	r3, [sp, #0]
 815 04ce CDF804C0 		str	ip, [sp, #4]
 816 04d2 FFF7FEFF 		bl	media_SetSector
 817              		.loc 2 578 0
 818 04d6 FFF7FEFF 		bl	gfxGetDspAns
 819              		.loc 2 579 0
 820 04da 4220     		movs	r0, #66
 821 04dc A821     		movs	r1, #168
 822 04de 2AE6     		b	.L130
 823              	.L61:
 824              		.loc 2 394 0
 825 04e0 0132     		adds	r2, r2, #1
 826 04e2 8CF80020 		strb	r2, [ip, #0]
 827              	.L22:
 828              		.loc 2 397 0
 829 04e6 FFF7FEFF 		bl	cruiseGet
 830 04ea 884B     		ldr	r3, .L151+4
 831              		.loc 2 399 0
 832 04ec 3A78     		ldrb	r2, [r7, #0]	@ zero_extendqisi2
 833 04ee DFF824C2 		ldr	ip, .L151+12
 834 04f2 59F82210 		ldr	r1, [r9, r2, lsl #2]
 835              		.loc 2 397 0
 836 04f6 A3FB00E3 		umull	lr, r3, r3, r0
 837 04fa DB08     		lsrs	r3, r3, #3
 838 04fc 03EB8303 		add	r3, r3, r3, lsl #2
 839 0500 A0EB430E 		sub	lr, r0, r3, lsl #1
 840 0504 5FFA8EF3 		uxtb	r3, lr
 841              	.LVL63:
 842              		.loc 2 399 0
 843 0508 9942     		cmp	r1, r3
 844 050a 00F01183 		beq	.L62
 845              		.loc 2 400 0
 846 050e 44F27141 		movw	r1, #17521
 847 0512 0020     		movs	r0, #0
 848 0514 0093     		str	r3, [sp, #0]
 849 0516 CDF804C0 		str	ip, [sp, #4]
 850 051a FFF7FEFF 		bl	media_SetSector
 851              	.LVL64:
ARM GAS  C:\Users\DNIEL~1\AppData\Local\Temp\ccaMIE7p.s 			page 16


 852              		.loc 2 401 0
 853 051e FFF7FEFF 		bl	gfxGetDspAns
 854              		.loc 2 402 0
 855 0522 40F23B10 		movw	r0, #315
 856 0526 F521     		movs	r1, #245
 857 0528 05E6     		b	.L130
 858              	.L59:
 859              		.loc 2 374 0
 860 052a 0132     		adds	r2, r2, #1
 861 052c 8CF80020 		strb	r2, [ip, #0]
 862              	.L21:
 863              		.loc 2 377 0
 864 0530 FFF7FEFF 		bl	cruiseGet
 865 0534 754B     		ldr	r3, .L151+4
 866              		.loc 2 380 0
 867 0536 D9F81C10 		ldr	r1, [r9, #28]
 868              		.loc 2 377 0
 869 053a A3FB00C0 		umull	ip, r0, r3, r0
 870 053e C0F3C700 		ubfx	r0, r0, #3, #8
 871              	.LVL65:
 872              		.loc 2 378 0
 873 0542 8BFB00E2 		smull	lr, r2, fp, r0
 874 0546 9308     		lsrs	r3, r2, #2
 875 0548 03EB830C 		add	ip, r3, r3, lsl #2
 876              		.loc 2 380 0
 877 054c 0A29     		cmp	r1, #10
 878              		.loc 2 378 0
 879 054e A0EB4C03 		sub	r3, r0, ip, lsl #1
 880              	.LVL66:
 881              		.loc 2 380 0
 882 0552 00F03083 		beq	.L144
 883              	.L60:
 884              		.loc 2 385 0
 885 0556 3A78     		ldrb	r2, [r7, #0]	@ zero_extendqisi2
 886 0558 DFF8B8C1 		ldr	ip, .L151+12
 887 055c 59F82210 		ldr	r1, [r9, r2, lsl #2]
 888 0560 9942     		cmp	r1, r3
 889 0562 BDD0     		beq	.L61
 890              		.loc 2 386 0
 891 0564 44F27141 		movw	r1, #17521
 892 0568 0020     		movs	r0, #0
 893 056a 0093     		str	r3, [sp, #0]
 894 056c CDF804C0 		str	ip, [sp, #4]
 895 0570 FFF7FEFF 		bl	media_SetSector
 896              		.loc 2 387 0
 897 0574 FFF7FEFF 		bl	gfxGetDspAns
 898              		.loc 2 388 0
 899 0578 40F23B10 		movw	r0, #315
 900 057c E121     		movs	r1, #225
 901 057e DAE5     		b	.L130
 902              	.L77:
 903              		.loc 2 608 0
 904 0580 0132     		adds	r2, r2, #1
 905 0582 8CF80020 		strb	r2, [ip, #0]
 906              	.L34:
 907              		.loc 2 611 0
 908 0586 0020     		movs	r0, #0
ARM GAS  C:\Users\DNIEL~1\AppData\Local\Temp\ccaMIE7p.s 			page 17


 909 0588 FFF7FEFF 		bl	calcGetValue
 910              	.LVL67:
 911 058c 20EAE073 		bic	r3, r0, r0, asr #31
 912              	.LVL68:
 913              		.loc 2 614 0
 914 0590 D817     		asrs	r0, r3, #31
 915 0592 8BFB03E2 		smull	lr, r2, fp, r3
 916 0596 C0EBA202 		rsb	r2, r0, r2, asr #2
 917              	.LVL69:
 918              		.loc 2 615 0
 919 059a D317     		asrs	r3, r2, #31
 920 059c 8BFB0201 		smull	r0, r1, fp, r2
 921              		.loc 2 617 0
 922 05a0 D9F85000 		ldr	r0, [r9, #80]
 923              		.loc 2 615 0
 924 05a4 C3EBA10C 		rsb	ip, r3, r1, asr #2
 925 05a8 0CEB8C0E 		add	lr, ip, ip, lsl #2
 926              		.loc 2 617 0
 927 05ac 0A28     		cmp	r0, #10
 928              		.loc 2 615 0
 929 05ae A2EB4E03 		sub	r3, r2, lr, lsl #1
 930              	.LVL70:
 931              		.loc 2 617 0
 932 05b2 00F0FC82 		beq	.L145
 933              	.L78:
 934              		.loc 2 622 0
 935 05b6 3A78     		ldrb	r2, [r7, #0]	@ zero_extendqisi2
 936 05b8 DFF858C1 		ldr	ip, .L151+12
 937 05bc 59F82210 		ldr	r1, [r9, r2, lsl #2]
 938 05c0 9942     		cmp	r1, r3
 939 05c2 00F0A980 		beq	.L79
 940              		.loc 2 623 0
 941 05c6 44F27E41 		movw	r1, #17534
 942 05ca 0020     		movs	r0, #0
 943 05cc 0093     		str	r3, [sp, #0]
 944 05ce CDF804C0 		str	ip, [sp, #4]
 945 05d2 FFF7FEFF 		bl	media_SetSector
 946              		.loc 2 624 0
 947 05d6 FFF7FEFF 		bl	gfxGetDspAns
 948              		.loc 2 625 0
 949 05da 4220     		movs	r0, #66
 950 05dc D021     		movs	r1, #208
 951 05de AAE5     		b	.L130
 952              	.L75:
 953              		.loc 2 585 0
 954 05e0 531C     		adds	r3, r2, #1
 955 05e2 8CF80030 		strb	r3, [ip, #0]
 956              	.L33:
 957              		.loc 2 588 0
 958 05e6 0020     		movs	r0, #0
 959 05e8 FFF7FEFF 		bl	calcGetValue
 960              	.LVL71:
 961              		.loc 2 591 0
 962 05ec 484B     		ldr	r3, .L151+8
 963              		.loc 2 588 0
 964 05ee 20EAE070 		bic	r0, r0, r0, asr #31
 965              	.LVL72:
ARM GAS  C:\Users\DNIEL~1\AppData\Local\Temp\ccaMIE7p.s 			page 18


 966              		.loc 2 591 0
 967 05f2 83FB003C 		smull	r3, ip, r3, r0
 968 05f6 C217     		asrs	r2, r0, #31
 969 05f8 C2EB6C12 		rsb	r2, r2, ip, asr #5
 970              	.LVL73:
 971              		.loc 2 592 0
 972 05fc 8BFB02C1 		smull	ip, r1, fp, r2
 973 0600 D317     		asrs	r3, r2, #31
 974 0602 C3EBA100 		rsb	r0, r3, r1, asr #2
 975              		.loc 2 594 0
 976 0606 D9F84C10 		ldr	r1, [r9, #76]
 977              		.loc 2 592 0
 978 060a 00EB800C 		add	ip, r0, r0, lsl #2
 979              		.loc 2 594 0
 980 060e 0A29     		cmp	r1, #10
 981              		.loc 2 592 0
 982 0610 A2EB4C03 		sub	r3, r2, ip, lsl #1
 983              	.LVL74:
 984              		.loc 2 594 0
 985 0614 00F0D382 		beq	.L146
 986              	.L76:
 987              		.loc 2 599 0
 988 0618 3A78     		ldrb	r2, [r7, #0]	@ zero_extendqisi2
 989 061a DFF8F8C0 		ldr	ip, .L151+12
 990 061e 59F82210 		ldr	r1, [r9, r2, lsl #2]
 991 0622 9942     		cmp	r1, r3
 992 0624 ACD0     		beq	.L77
 993              		.loc 2 600 0
 994 0626 44F27E41 		movw	r1, #17534
 995 062a 0020     		movs	r0, #0
 996 062c 0093     		str	r3, [sp, #0]
 997 062e CDF804C0 		str	ip, [sp, #4]
 998 0632 FFF7FEFF 		bl	media_SetSector
 999              		.loc 2 601 0
 1000 0636 FFF7FEFF 		bl	gfxGetDspAns
 1001              		.loc 2 602 0
 1002 063a 4220     		movs	r0, #66
 1003 063c BC21     		movs	r1, #188
 1004 063e 7AE5     		b	.L130
 1005              	.LVL75:
 1006              	.L71:
 1007              		.loc 2 531 0
 1008 0640 511C     		adds	r1, r2, #1
 1009 0642 8CF80010 		strb	r1, [ip, #0]
 1010              	.LVL76:
 1011              	.L30:
 1012              		.loc 2 534 0
 1013 0646 0120     		movs	r0, #1
 1014 0648 FFF7FEFF 		bl	calcGetValue
 1015              		.loc 2 541 0
 1016 064c 3A78     		ldrb	r2, [r7, #0]	@ zero_extendqisi2
 1017 064e DFF8C4C0 		ldr	ip, .L151+12
 1018 0652 59F82210 		ldr	r1, [r9, r2, lsl #2]
 1019 0656 8142     		cmp	r1, r0
 1020              		.loc 2 534 0
 1021 0658 0346     		mov	r3, r0
 1022              	.LVL77:
ARM GAS  C:\Users\DNIEL~1\AppData\Local\Temp\ccaMIE7p.s 			page 19


 1023              		.loc 2 541 0
 1024 065a 00F08380 		beq	.L72
 1025              		.loc 2 542 0
 1026 065e 44F27E41 		movw	r1, #17534
 1027 0662 0020     		movs	r0, #0
 1028              	.LVL78:
 1029 0664 0093     		str	r3, [sp, #0]
 1030 0666 CDF804C0 		str	ip, [sp, #4]
 1031 066a FFF7FEFF 		bl	media_SetSector
 1032              	.LVL79:
 1033              		.loc 2 543 0
 1034 066e FFF7FEFF 		bl	gfxGetDspAns
 1035              		.loc 2 544 0
 1036 0672 009A     		ldr	r2, [sp, #0]
 1037 0674 8BFB020C 		smull	r0, ip, fp, r2
 1038 0678 D317     		asrs	r3, r2, #31
 1039 067a C3EBAC0E 		rsb	lr, r3, ip, asr #2
 1040 067e 8BFB0E21 		smull	r2, r1, fp, lr
 1041 0682 4FEAEE70 		asr	r0, lr, #31
 1042 0686 C0EBA102 		rsb	r2, r0, r1, asr #2
 1043 068a 02EB8203 		add	r3, r2, r2, lsl #2
 1044 068e AEEB4302 		sub	r2, lr, r3, lsl #1
 1045 0692 6C20     		movs	r0, #108
 1046 0694 D021     		movs	r1, #208
 1047 0696 FFF7FEFF 		bl	media_VideoFrame
 1048              		.loc 2 547 0
 1049 069a DDF804C0 		ldr	ip, [sp, #4]
 1050 069e 9CF80020 		ldrb	r2, [ip, #0]	@ zero_extendqisi2
 1051 06a2 4FE5     		b	.L131
 1052              	.LVL80:
 1053              	.L70:
 1054              		.loc 2 510 0
 1055 06a4 511C     		adds	r1, r2, #1
 1056 06a6 8CF80010 		strb	r1, [ip, #0]
 1057              	.LVL81:
 1058              	.L29:
 1059              		.loc 2 513 0
 1060 06aa 0120     		movs	r0, #1
 1061 06ac FFF7FEFF 		bl	calcGetValue
 1062              		.loc 2 521 0
 1063 06b0 3A78     		ldrb	r2, [r7, #0]	@ zero_extendqisi2
 1064 06b2 DFF860C0 		ldr	ip, .L151+12
 1065 06b6 59F82210 		ldr	r1, [r9, r2, lsl #2]
 1066 06ba 8142     		cmp	r1, r0
 1067              		.loc 2 513 0
 1068 06bc 0346     		mov	r3, r0
 1069              	.LVL82:
 1070              		.loc 2 521 0
 1071 06be BFD0     		beq	.L71
 1072              		.loc 2 522 0
 1073 06c0 44F27E41 		movw	r1, #17534
 1074 06c4 0020     		movs	r0, #0
 1075              	.LVL83:
 1076 06c6 0093     		str	r3, [sp, #0]
 1077 06c8 CDF804C0 		str	ip, [sp, #4]
 1078 06cc FFF7FEFF 		bl	media_SetSector
 1079              	.LVL84:
ARM GAS  C:\Users\DNIEL~1\AppData\Local\Temp\ccaMIE7p.s 			page 20


 1080              		.loc 2 523 0
 1081 06d0 FFF7FEFF 		bl	gfxGetDspAns
 1082              		.loc 2 524 0
 1083 06d4 009A     		ldr	r2, [sp, #0]
 1084 06d6 0E48     		ldr	r0, .L151+8
 1085 06d8 D317     		asrs	r3, r2, #31
 1086 06da 80FB021C 		smull	r1, ip, r0, r2
 1087 06de C3EB6C1E 		rsb	lr, r3, ip, asr #5
 1088 06e2 8BFB0E21 		smull	r2, r1, fp, lr
 1089 06e6 4FEAEE70 		asr	r0, lr, #31
 1090 06ea C0EBA102 		rsb	r2, r0, r1, asr #2
 1091 06ee 02EB8203 		add	r3, r2, r2, lsl #2
 1092 06f2 AEEB4302 		sub	r2, lr, r3, lsl #1
 1093 06f6 6C20     		movs	r0, #108
 1094 06f8 BC21     		movs	r1, #188
 1095 06fa FFF7FEFF 		bl	media_VideoFrame
 1096              		.loc 2 527 0
 1097 06fe DDF804C0 		ldr	ip, [sp, #4]
 1098 0702 9CF80020 		ldrb	r2, [ip, #0]	@ zero_extendqisi2
 1099 0706 1DE5     		b	.L131
 1100              	.L152:
 1101              		.align	2
 1102              	.L151:
 1103 0708 D34D6210 		.word	274877907
 1104 070c CDCCCCCC 		.word	-858993459
 1105 0710 1F85EB51 		.word	1374389535
 1106 0714 00000000 		.word	.LANCHOR6
 1107              	.L79:
 1108              		.loc 2 631 0
 1109 0718 0132     		adds	r2, r2, #1
 1110 071a 8CF80020 		strb	r2, [ip, #0]
 1111              	.L35:
 1112              		.loc 2 634 0
 1113 071e 0020     		movs	r0, #0
 1114 0720 FFF7FEFF 		bl	calcGetValue
 1115 0724 8BFB001C 		smull	r1, ip, fp, r0
 1116 0728 C117     		asrs	r1, r0, #31
 1117 072a C1EBAC03 		rsb	r3, r1, ip, asr #2
 1118              		.loc 2 637 0
 1119 072e 3A78     		ldrb	r2, [r7, #0]	@ zero_extendqisi2
 1120 0730 DFF85CC4 		ldr	ip, .L153+16
 1121 0734 59F82210 		ldr	r1, [r9, r2, lsl #2]
 1122              		.loc 2 634 0
 1123 0738 03EB8303 		add	r3, r3, r3, lsl #2
 1124 073c A0EB4300 		sub	r0, r0, r3, lsl #1
 1125 0740 20EAE073 		bic	r3, r0, r0, asr #31
 1126              	.LVL85:
 1127              		.loc 2 637 0
 1128 0744 9942     		cmp	r1, r3
 1129 0746 3FF45BAE 		beq	.L80
 1130              		.loc 2 638 0
 1131 074a 44F27E41 		movw	r1, #17534
 1132 074e 0020     		movs	r0, #0
 1133 0750 0093     		str	r3, [sp, #0]
 1134 0752 CDF804C0 		str	ip, [sp, #4]
 1135 0756 FFF7FEFF 		bl	media_SetSector
 1136              	.LVL86:
ARM GAS  C:\Users\DNIEL~1\AppData\Local\Temp\ccaMIE7p.s 			page 21


 1137              		.loc 2 639 0
 1138 075a FFF7FEFF 		bl	gfxGetDspAns
 1139              		.loc 2 640 0
 1140 075e 4220     		movs	r0, #66
 1141 0760 E421     		movs	r1, #228
 1142 0762 E8E4     		b	.L130
 1143              	.LVL87:
 1144              	.L72:
 1145              		.loc 2 551 0
 1146 0764 501C     		adds	r0, r2, #1
 1147              	.LVL88:
 1148 0766 8CF80000 		strb	r0, [ip, #0]
 1149              	.LVL89:
 1150              	.L31:
 1151              		.loc 2 554 0
 1152 076a 0120     		movs	r0, #1
 1153 076c FFF7FEFF 		bl	calcGetValue
 1154              		.loc 2 556 0
 1155 0770 3A78     		ldrb	r2, [r7, #0]	@ zero_extendqisi2
 1156 0772 DFF81CC4 		ldr	ip, .L153+16
 1157 0776 59F82210 		ldr	r1, [r9, r2, lsl #2]
 1158 077a 8142     		cmp	r1, r0
 1159              		.loc 2 554 0
 1160 077c 0346     		mov	r3, r0
 1161              	.LVL90:
 1162              		.loc 2 556 0
 1163 077e 3FF489AE 		beq	.L73
 1164              		.loc 2 557 0
 1165 0782 44F27E41 		movw	r1, #17534
 1166 0786 0020     		movs	r0, #0
 1167              	.LVL91:
 1168 0788 CDF804C0 		str	ip, [sp, #4]
 1169 078c 0093     		str	r3, [sp, #0]
 1170 078e FFF7FEFF 		bl	media_SetSector
 1171              	.LVL92:
 1172              		.loc 2 558 0
 1173 0792 FFF7FEFF 		bl	gfxGetDspAns
 1174              		.loc 2 559 0
 1175 0796 009B     		ldr	r3, [sp, #0]
 1176 0798 8BFB03E1 		smull	lr, r1, fp, r3
 1177 079c D817     		asrs	r0, r3, #31
 1178 079e C0EBA102 		rsb	r2, r0, r1, asr #2
 1179 07a2 02EB820E 		add	lr, r2, r2, lsl #2
 1180 07a6 A3EB4E02 		sub	r2, r3, lr, lsl #1
 1181 07aa 6C20     		movs	r0, #108
 1182 07ac E421     		movs	r1, #228
 1183 07ae FFF7FEFF 		bl	media_VideoFrame
 1184              		.loc 2 562 0
 1185 07b2 DDF804C0 		ldr	ip, [sp, #4]
 1186 07b6 9CF80020 		ldrb	r2, [ip, #0]	@ zero_extendqisi2
 1187 07ba C3E4     		b	.L131
 1188              	.LVL93:
 1189              	.L53:
 1190              		.loc 2 301 0
 1191 07bc 501C     		adds	r0, r2, #1
 1192 07be 8CF80000 		strb	r0, [ip, #0]
 1193              	.LVL94:
ARM GAS  C:\Users\DNIEL~1\AppData\Local\Temp\ccaMIE7p.s 			page 22


 1194              	.L16:
 1195              		.loc 2 304 0
 1196 07c2 FFF7FEFF 		bl	speedGetSpeed
 1197              		.loc 2 308 0
 1198 07c6 3A78     		ldrb	r2, [r7, #0]	@ zero_extendqisi2
 1199 07c8 DFF8C4C3 		ldr	ip, .L153+16
 1200 07cc 59F82210 		ldr	r1, [r9, r2, lsl #2]
 1201              		.loc 2 304 0
 1202 07d0 8BFB00E3 		smull	lr, r3, fp, r0
 1203 07d4 C017     		asrs	r0, r0, #31
 1204 07d6 C0EB6303 		rsb	r3, r0, r3, asr #1
 1205              	.LVL95:
 1206              		.loc 2 308 0
 1207 07da 9942     		cmp	r1, r3
 1208 07dc 00F0C181 		beq	.L54
 1209              		.loc 2 309 0
 1210 07e0 0120     		movs	r0, #1
 1211 07e2 0093     		str	r3, [sp, #0]
 1212 07e4 CDF804C0 		str	ip, [sp, #4]
 1213 07e8 FFF7FEFF 		bl	gfx_Transparency
 1214              	.LVL96:
 1215              		.loc 2 310 0
 1216 07ec FFF7FEFF 		bl	gfxGetDspAns
 1217              		.loc 2 311 0
 1218 07f0 1F20     		movs	r0, #31
 1219 07f2 FFF7FEFF 		bl	gfx_TransparentColour
 1220              		.loc 2 312 0
 1221 07f6 FFF7FEFF 		bl	gfxGetDspAns
 1222              		.loc 2 313 0
 1223 07fa 6F21     		movs	r1, #111
 1224 07fc 0020     		movs	r0, #0
 1225 07fe FFF7FEFF 		bl	media_SetSector
 1226              		.loc 2 314 0
 1227 0802 FFF7FEFF 		bl	gfxGetDspAns
 1228              		.loc 2 315 0
 1229 0806 9420     		movs	r0, #148
 1230 0808 1521     		movs	r1, #21
 1231 080a 94E4     		b	.L130
 1232              	.L52:
 1233              		.loc 2 284 0
 1234 080c 511C     		adds	r1, r2, #1
 1235 080e 8CF80010 		strb	r1, [ip, #0]
 1236              	.L15:
 1237              		.loc 2 287 0
 1238 0812 FFF7FEFF 		bl	speedGetSpeed
 1239 0816 C117     		asrs	r1, r0, #31
 1240 0818 8BFB00EC 		smull	lr, ip, fp, r0
 1241 081c C1EBAC0E 		rsb	lr, r1, ip, asr #2
 1242              		.loc 2 291 0
 1243 0820 3A78     		ldrb	r2, [r7, #0]	@ zero_extendqisi2
 1244 0822 DFF86CC3 		ldr	ip, .L153+16
 1245 0826 59F82210 		ldr	r1, [r9, r2, lsl #2]
 1246              		.loc 2 287 0
 1247 082a 0EEB8E03 		add	r3, lr, lr, lsl #2
 1248 082e A0EB430E 		sub	lr, r0, r3, lsl #1
 1249 0832 1FFA8EF3 		uxth	r3, lr
 1250              	.LVL97:
ARM GAS  C:\Users\DNIEL~1\AppData\Local\Temp\ccaMIE7p.s 			page 23


 1251              		.loc 2 291 0
 1252 0836 9942     		cmp	r1, r3
 1253 0838 C0D0     		beq	.L53
 1254              		.loc 2 292 0
 1255 083a 44F29841 		movw	r1, #17560
 1256 083e 0020     		movs	r0, #0
 1257 0840 0093     		str	r3, [sp, #0]
 1258 0842 CDF804C0 		str	ip, [sp, #4]
 1259 0846 FFF7FEFF 		bl	media_SetSector
 1260              	.LVL98:
 1261              		.loc 2 293 0
 1262 084a FFF7FEFF 		bl	gfxGetDspAns
 1263              		.loc 2 294 0
 1264 084e BA20     		movs	r0, #186
 1265 0850 A721     		movs	r1, #167
 1266              	.L129:
 1267              		.loc 2 277 0
 1268 0852 009A     		ldr	r2, [sp, #0]
 1269 0854 FFF7FEFF 		bl	media_VideoFrame
 1270              		.loc 2 279 0
 1271 0858 DDF804C0 		ldr	ip, [sp, #4]
 1272 085c 009B     		ldr	r3, [sp, #0]
 1273 085e 9CF80010 		ldrb	r1, [ip, #0]	@ zero_extendqisi2
 1274              		.loc 2 278 0
 1275 0862 0020     		movs	r0, #0
 1276 0864 3070     		strb	r0, [r6, #0]
 1277              		.loc 2 279 0
 1278 0866 C648     		ldr	r0, .L153
 1279              		.loc 2 280 0
 1280 0868 4A1C     		adds	r2, r1, #1
 1281              		.loc 2 279 0
 1282 086a 40F82130 		str	r3, [r0, r1, lsl #2]
 1283              		.loc 2 280 0
 1284 086e D2B2     		uxtb	r2, r2
 1285              		.loc 2 281 0
 1286 0870 6EE4     		b	.L12
 1287              	.L50:
 1288              		.loc 2 259 0
 1289 0872 511C     		adds	r1, r2, #1
 1290 0874 8CF80010 		strb	r1, [ip, #0]
 1291              	.L14:
 1292              		.loc 2 262 0
 1293 0878 FFF7FEFF 		bl	speedGetSpeed
 1294 087c 8BFB003C 		smull	r3, ip, fp, r0
 1295 0880 C217     		asrs	r2, r0, #31
 1296 0882 C2EBAC00 		rsb	r0, r2, ip, asr #2
 1297 0886 82B2     		uxth	r2, r0
 1298              	.LVL99:
 1299              		.loc 2 263 0
 1300 0888 8BFB02C1 		smull	ip, r1, fp, r2
 1301              		.loc 2 266 0
 1302 088c D9F80000 		ldr	r0, [r9, #0]
 1303              		.loc 2 263 0
 1304 0890 8B08     		lsrs	r3, r1, #2
 1305 0892 03EB830C 		add	ip, r3, r3, lsl #2
 1306              		.loc 2 266 0
 1307 0896 0A28     		cmp	r0, #10
ARM GAS  C:\Users\DNIEL~1\AppData\Local\Temp\ccaMIE7p.s 			page 24


 1308              		.loc 2 263 0
 1309 0898 A2EB4C03 		sub	r3, r2, ip, lsl #1
 1310              	.LVL100:
 1311              		.loc 2 266 0
 1312 089c 00F09E81 		beq	.L147
 1313              	.L51:
 1314              		.loc 2 273 0
 1315 08a0 3A78     		ldrb	r2, [r7, #0]	@ zero_extendqisi2
 1316 08a2 DFF8ECC2 		ldr	ip, .L153+16
 1317 08a6 59F82210 		ldr	r1, [r9, r2, lsl #2]
 1318 08aa 9942     		cmp	r1, r3
 1319 08ac AED0     		beq	.L52
 1320              		.loc 2 275 0
 1321 08ae 44F29841 		movw	r1, #17560
 1322 08b2 0020     		movs	r0, #0
 1323 08b4 0093     		str	r3, [sp, #0]
 1324 08b6 CDF804C0 		str	ip, [sp, #4]
 1325 08ba FFF7FEFF 		bl	media_SetSector
 1326              		.loc 2 276 0
 1327 08be FFF7FEFF 		bl	gfxGetDspAns
 1328              		.loc 2 277 0
 1329 08c2 BA20     		movs	r0, #186
 1330 08c4 7521     		movs	r1, #117
 1331 08c6 C4E7     		b	.L129
 1332              	.L27:
 1333              	.LBE5:
 1334              		.loc 2 241 0
 1335 08c8 AE4B     		ldr	r3, .L153+4
 1336 08ca DA7B     		ldrb	r2, [r3, #15]	@ zero_extendqisi2
 1337 08cc 0E21     		movs	r1, #14
 1338              	.L46:
 1339              	.LBB6:
 1340              		.loc 2 482 0
 1341 08ce AE4B     		ldr	r3, .L153+8
 1342              		.loc 2 484 0
 1343 08d0 59F82100 		ldr	r0, [r9, r1, lsl #2]
 1344              		.loc 2 482 0
 1345 08d4 A3FB02E3 		umull	lr, r3, r3, r2
 1346 08d8 DB08     		lsrs	r3, r3, #3
 1347 08da 03EB8303 		add	r3, r3, r3, lsl #2
 1348 08de A2EB430C 		sub	ip, r2, r3, lsl #1
 1349 08e2 5FFA8CF3 		uxtb	r3, ip
 1350              	.LVL101:
 1351              		.loc 2 484 0
 1352 08e6 9842     		cmp	r0, r3
 1353 08e8 3FF462AD 		beq	.L69
 1354              		.loc 2 485 0
 1355 08ec 44F27E41 		movw	r1, #17534
 1356 08f0 0020     		movs	r0, #0
 1357 08f2 0093     		str	r3, [sp, #0]
 1358 08f4 FFF7FEFF 		bl	media_SetSector
 1359              	.LVL102:
 1360              		.loc 2 486 0
 1361 08f8 FFF7FEFF 		bl	gfxGetDspAns
 1362              		.loc 2 487 0
 1363 08fc 4220     		movs	r0, #66
 1364              	.L133:
ARM GAS  C:\Users\DNIEL~1\AppData\Local\Temp\ccaMIE7p.s 			page 25


 1365 08fe 009A     		ldr	r2, [sp, #0]
 1366 0900 4F21     		movs	r1, #79
 1367 0902 FFF7FEFF 		bl	media_VideoFrame
 1368              		.loc 2 489 0
 1369 0906 3A78     		ldrb	r2, [r7, #0]	@ zero_extendqisi2
 1370 0908 1CE4     		b	.L131
 1371              	.L108:
 1372              	.LBE6:
 1373              		.loc 2 241 0
 1374 090a 0D20     		movs	r0, #13
 1375              	.L26:
 1376              	.LBB7:
 1377              		.loc 2 465 0
 1378 090c DFF874E2 		ldr	lr, .L153+4
 1379 0910 9D49     		ldr	r1, .L153+8
 1380 0912 9EF80F20 		ldrb	r2, [lr, #15]	@ zero_extendqisi2
 1381              		.loc 2 470 0
 1382 0916 59F820E0 		ldr	lr, [r9, r0, lsl #2]
 1383              		.loc 2 465 0
 1384 091a A1FB0213 		umull	r1, r3, r1, r2
 1385 091e DB08     		lsrs	r3, r3, #3
 1386              		.loc 2 466 0
 1387 0920 8BFB03C1 		smull	ip, r1, fp, r3
 1388 0924 8908     		lsrs	r1, r1, #2
 1389 0926 01EB810C 		add	ip, r1, r1, lsl #2
 1390              		.loc 2 468 0
 1391 092a B3EB4C03 		subs	r3, r3, ip, lsl #1
 1392 092e 08BF     		it	eq
 1393 0930 0A23     		moveq	r3, #10
 1394              		.loc 2 470 0
 1395 0932 7345     		cmp	r3, lr
 1396 0934 00F00181 		beq	.L68
 1397              		.loc 2 471 0
 1398 0938 44F27E41 		movw	r1, #17534
 1399 093c 0020     		movs	r0, #0
 1400 093e 0093     		str	r3, [sp, #0]
 1401 0940 FFF7FEFF 		bl	media_SetSector
 1402              		.loc 2 472 0
 1403 0944 FFF7FEFF 		bl	gfxGetDspAns
 1404              		.loc 2 473 0
 1405 0948 4220     		movs	r0, #66
 1406              	.L132:
 1407 094a 009A     		ldr	r2, [sp, #0]
 1408 094c 3B21     		movs	r1, #59
 1409 094e FFF7FEFF 		bl	media_VideoFrame
 1410              		.loc 2 475 0
 1411 0952 3A78     		ldrb	r2, [r7, #0]	@ zero_extendqisi2
 1412 0954 FFF7F6BB 		b	.L131
 1413              	.L105:
 1414              	.LBE7:
 1415              		.loc 2 241 0
 1416 0958 0522     		movs	r2, #5
 1417              	.L18:
 1418              	.LVL103:
 1419              	.LBB8:
 1420              		.loc 2 338 0
 1421 095a 59F82200 		ldr	r0, [r9, r2, lsl #2]
ARM GAS  C:\Users\DNIEL~1\AppData\Local\Temp\ccaMIE7p.s 			page 26


 1422 095e 40F2E333 		movw	r3, #995
 1423 0962 9842     		cmp	r0, r3
 1424 0964 00F0F580 		beq	.L56
 1425              		.loc 2 339 0
 1426 0968 44F27141 		movw	r1, #17521
 1427 096c 0020     		movs	r0, #0
 1428 096e 0093     		str	r3, [sp, #0]
 1429 0970 FFF7FEFF 		bl	media_SetSector
 1430              		.loc 2 340 0
 1431 0974 FFF7FEFF 		bl	gfxGetDspAns
 1432              		.loc 2 341 0
 1433 0978 0922     		movs	r2, #9
 1434 097a 40F23B10 		movw	r0, #315
 1435 097e 1421     		movs	r1, #20
 1436 0980 FFF7FEFF 		bl	media_VideoFrame
 1437              		.loc 2 343 0
 1438 0984 3A78     		ldrb	r2, [r7, #0]	@ zero_extendqisi2
 1439 0986 FFF7DDBB 		b	.L131
 1440              	.LVL104:
 1441              	.L24:
 1442              	.LBE8:
 1443              		.loc 2 241 0
 1444 098a DFF8F8C1 		ldr	ip, .L153+4
 1445 098e BCF80820 		ldrh	r2, [ip, #8]
 1446 0992 0B20     		movs	r0, #11
 1447              	.L48:
 1448              	.LBB9:
 1449              		.loc 2 430 0
 1450 0994 DFF8F4E1 		ldr	lr, .L153+12
 1451 0998 AEFB02E1 		umull	lr, r1, lr, r2
 1452 099c 4909     		lsrs	r1, r1, #5
 1453              	.LVL105:
 1454              		.loc 2 431 0
 1455 099e 8BFB01C3 		smull	ip, r3, fp, r1
 1456 09a2 9B08     		lsrs	r3, r3, #2
 1457 09a4 03EB8303 		add	r3, r3, r3, lsl #2
 1458              		.loc 2 438 0
 1459 09a8 59F820C0 		ldr	ip, [r9, r0, lsl #2]
 1460              		.loc 2 431 0
 1461 09ac A1EB4303 		sub	r3, r1, r3, lsl #1
 1462              	.LVL106:
 1463              		.loc 2 438 0
 1464 09b0 9C45     		cmp	ip, r3
 1465 09b2 00F0CA80 		beq	.L65
 1466              		.loc 2 439 0
 1467 09b6 44F27E41 		movw	r1, #17534
 1468 09ba 0020     		movs	r0, #0
 1469 09bc 0093     		str	r3, [sp, #0]
 1470 09be FFF7FEFF 		bl	media_SetSector
 1471              		.loc 2 440 0
 1472 09c2 FFF7FEFF 		bl	gfxGetDspAns
 1473              		.loc 2 441 0
 1474 09c6 6C20     		movs	r0, #108
 1475 09c8 BFE7     		b	.L132
 1476              	.L13:
 1477              		.loc 2 244 0
 1478 09ca FFF7FEFF 		bl	speedGetSpeed
ARM GAS  C:\Users\DNIEL~1\AppData\Local\Temp\ccaMIE7p.s 			page 27


 1479 09ce 6F4A     		ldr	r2, .L153+12
 1480              		.loc 2 249 0
 1481 09d0 DFF8BCC1 		ldr	ip, .L153+16
 1482              		.loc 2 244 0
 1483 09d4 82FB0013 		smull	r1, r3, r2, r0
 1484 09d8 C017     		asrs	r0, r0, #31
 1485              		.loc 2 249 0
 1486 09da 3A78     		ldrb	r2, [r7, #0]	@ zero_extendqisi2
 1487              		.loc 2 244 0
 1488 09dc C0EB6310 		rsb	r0, r0, r3, asr #5
 1489              		.loc 2 249 0
 1490 09e0 59F82210 		ldr	r1, [r9, r2, lsl #2]
 1491              		.loc 2 244 0
 1492 09e4 03B2     		sxth	r3, r0
 1493              	.LVL107:
 1494              		.loc 2 245 0
 1495 09e6 002B     		cmp	r3, #0
 1496 09e8 08BF     		it	eq
 1497 09ea 0A23     		moveq	r3, #10
 1498              	.LVL108:
 1499              		.loc 2 249 0
 1500 09ec 8B42     		cmp	r3, r1
 1501 09ee 3FF440AF 		beq	.L50
 1502              		.loc 2 250 0
 1503 09f2 44F29841 		movw	r1, #17560
 1504 09f6 0020     		movs	r0, #0
 1505 09f8 0093     		str	r3, [sp, #0]
 1506 09fa CDF804C0 		str	ip, [sp, #4]
 1507 09fe FFF7FEFF 		bl	media_SetSector
 1508              		.loc 2 251 0
 1509 0a02 FFF7FEFF 		bl	gfxGetDspAns
 1510              		.loc 2 252 0
 1511 0a06 BA20     		movs	r0, #186
 1512 0a08 4321     		movs	r1, #67
 1513 0a0a 22E7     		b	.L129
 1514              	.L25:
 1515              	.LBE9:
 1516              		.loc 2 241 0
 1517 0a0c DFF874E1 		ldr	lr, .L153+4
 1518 0a10 BEF80820 		ldrh	r2, [lr, #8]
 1519 0a14 0C21     		movs	r1, #12
 1520              	.L47:
 1521              	.LBB10:
 1522              		.loc 2 450 0
 1523 0a16 5C4B     		ldr	r3, .L153+8
 1524              		.loc 2 453 0
 1525 0a18 59F82100 		ldr	r0, [r9, r1, lsl #2]
 1526              		.loc 2 450 0
 1527 0a1c A3FB02E2 		umull	lr, r2, r3, r2
 1528 0a20 D208     		lsrs	r2, r2, #3
 1529              	.LVL109:
 1530              		.loc 2 451 0
 1531 0a22 8BFB02C3 		smull	ip, r3, fp, r2
 1532 0a26 9B08     		lsrs	r3, r3, #2
 1533 0a28 03EB830C 		add	ip, r3, r3, lsl #2
 1534 0a2c A2EB4C03 		sub	r3, r2, ip, lsl #1
 1535              	.LVL110:
ARM GAS  C:\Users\DNIEL~1\AppData\Local\Temp\ccaMIE7p.s 			page 28


 1536              		.loc 2 453 0
 1537 0a30 9842     		cmp	r0, r3
 1538 0a32 00F08680 		beq	.L66
 1539              		.loc 2 454 0
 1540 0a36 44F27E41 		movw	r1, #17534
 1541 0a3a 0020     		movs	r0, #0
 1542 0a3c 0093     		str	r3, [sp, #0]
 1543 0a3e FFF7FEFF 		bl	media_SetSector
 1544              		.loc 2 455 0
 1545 0a42 FFF7FEFF 		bl	gfxGetDspAns
 1546              		.loc 2 456 0
 1547 0a46 6C20     		movs	r0, #108
 1548 0a48 59E7     		b	.L133
 1549              	.L106:
 1550              	.LBE10:
 1551              		.loc 2 241 0
 1552 0a4a 0622     		movs	r2, #6
 1553              	.L19:
 1554              	.LVL111:
 1555              	.LBB11:
 1556              		.loc 2 351 0
 1557 0a4c 59F82210 		ldr	r1, [r9, r2, lsl #2]
 1558 0a50 40F2E333 		movw	r3, #995
 1559 0a54 9942     		cmp	r1, r3
 1560 0a56 3FF4FBAC 		beq	.L57
 1561              		.loc 2 352 0
 1562 0a5a 44F27141 		movw	r1, #17521
 1563 0a5e 0020     		movs	r0, #0
 1564 0a60 0093     		str	r3, [sp, #0]
 1565 0a62 FFF7FEFF 		bl	media_SetSector
 1566              		.loc 2 353 0
 1567 0a66 FFF7FEFF 		bl	gfxGetDspAns
 1568              		.loc 2 354 0
 1569 0a6a 0522     		movs	r2, #5
 1570 0a6c 40F23B10 		movw	r0, #315
 1571 0a70 2821     		movs	r1, #40
 1572 0a72 FFF7FEFF 		bl	media_VideoFrame
 1573              		.loc 2 356 0
 1574 0a76 3A78     		ldrb	r2, [r7, #0]	@ zero_extendqisi2
 1575 0a78 FFF764BB 		b	.L131
 1576              	.LVL112:
 1577              	.L107:
 1578              	.LBE11:
 1579              		.loc 2 241 0
 1580 0a7c 0A21     		movs	r1, #10
 1581              	.L23:
 1582              	.LBB12:
 1583              		.loc 2 411 0
 1584 0a7e 414A     		ldr	r2, .L153+4
 1585 0a80 1289     		ldrh	r2, [r2, #8]
 1586              	.LVL113:
 1587              		.loc 2 412 0
 1588 0a82 02F57870 		add	r0, r2, #992
 1589 0a86 C31D     		adds	r3, r0, #7
 1590 0a88 40F2CE7C 		movw	ip, #1998
 1591 0a8c 6345     		cmp	r3, ip
 1592 0a8e 46D9     		bls	.L109
ARM GAS  C:\Users\DNIEL~1\AppData\Local\Temp\ccaMIE7p.s 			page 29


 1593              		.loc 2 416 0
 1594 0a90 DFF800E1 		ldr	lr, .L153+20
 1595              		.loc 2 418 0
 1596 0a94 59F82100 		ldr	r0, [r9, r1, lsl #2]
 1597              		.loc 2 416 0
 1598 0a98 8EFB02C3 		smull	ip, r3, lr, r2
 1599 0a9c 9B09     		lsrs	r3, r3, #6
 1600              	.LVL114:
 1601              		.loc 2 418 0
 1602 0a9e 9842     		cmp	r0, r3
 1603 0aa0 42D0     		beq	.L64
 1604              	.L148:
 1605              		.loc 2 419 0
 1606 0aa2 44F27E41 		movw	r1, #17534
 1607 0aa6 0020     		movs	r0, #0
 1608 0aa8 0093     		str	r3, [sp, #0]
 1609 0aaa FFF7FEFF 		bl	media_SetSector
 1610              	.LVL115:
 1611              		.loc 2 420 0
 1612 0aae FFF7FEFF 		bl	gfxGetDspAns
 1613              		.loc 2 421 0
 1614 0ab2 009A     		ldr	r2, [sp, #0]
 1615 0ab4 6C20     		movs	r0, #108
 1616 0ab6 2721     		movs	r1, #39
 1617 0ab8 FFF7FEFF 		bl	media_VideoFrame
 1618              		.loc 2 423 0
 1619 0abc 3A78     		ldrb	r2, [r7, #0]	@ zero_extendqisi2
 1620 0abe FFF741BB 		b	.L131
 1621              	.L104:
 1622              	.LBE12:
 1623              		.loc 2 241 0
 1624 0ac2 0422     		movs	r2, #4
 1625              	.L17:
 1626              	.LVL116:
 1627              	.LBB13:
 1628              		.loc 2 325 0
 1629 0ac4 59F82210 		ldr	r1, [r9, r2, lsl #2]
 1630 0ac8 40F2E333 		movw	r3, #995
 1631 0acc 9942     		cmp	r1, r3
 1632 0ace 44D0     		beq	.L55
 1633              		.loc 2 326 0
 1634 0ad0 44F27141 		movw	r1, #17521
 1635 0ad4 0020     		movs	r0, #0
 1636 0ad6 0093     		str	r3, [sp, #0]
 1637 0ad8 FFF7FEFF 		bl	media_SetSector
 1638              		.loc 2 327 0
 1639 0adc FFF7FEFF 		bl	gfxGetDspAns
 1640              		.loc 2 328 0
 1641 0ae0 0922     		movs	r2, #9
 1642 0ae2 40F23B10 		movw	r0, #315
 1643 0ae6 0021     		movs	r1, #0
 1644 0ae8 FFF7FEFF 		bl	media_VideoFrame
 1645              		.loc 2 330 0
 1646 0aec 3A78     		ldrb	r2, [r7, #0]	@ zero_extendqisi2
 1647 0aee FFF729BB 		b	.L131
 1648              	.LVL117:
 1649              	.L119:
ARM GAS  C:\Users\DNIEL~1\AppData\Local\Temp\ccaMIE7p.s 			page 30


 1650              		.loc 2 762 0
 1651 0af2 0023     		movs	r3, #0
 1652 0af4 FFF77EBB 		b	.L92
 1653              	.L100:
 1654              		.loc 2 815 0
 1655 0af8 DFF89CE0 		ldr	lr, .L153+24
 1656 0afc BEF80030 		ldrh	r3, [lr, #0]
 1657 0b00 591C     		adds	r1, r3, #1
 1658 0b02 88B2     		uxth	r0, r1
 1659              	.LVL118:
 1660              		.loc 2 817 0
 1661 0b04 1428     		cmp	r0, #20
 1662 0b06 88BF     		it	hi
 1663 0b08 0020     		movhi	r0, #0
 1664 0b0a AEF80000 		strh	r0, [lr, #0]	@ movhi
 1665 0b0e FFF73EBB 		b	.L101
 1666              	.LVL119:
 1667              	.L122:
 1668              		.loc 2 791 0
 1669 0b12 0346     		mov	r3, r0
 1670 0b14 FFF7FCBA 		b	.L96
 1671              	.L116:
 1672              		.loc 2 739 0
 1673 0b18 0023     		movs	r3, #0
 1674 0b1a FFF79DBB 		b	.L88
 1675              	.LVL120:
 1676              	.L109:
 1677              		.loc 2 418 0
 1678 0b1e 59F82100 		ldr	r0, [r9, r1, lsl #2]
 1679              		.loc 2 413 0
 1680 0b22 0A23     		movs	r3, #10
 1681              	.LVL121:
 1682              		.loc 2 418 0
 1683 0b24 9842     		cmp	r0, r3
 1684 0b26 BCD1     		bne	.L148
 1685              	.L64:
 1686              		.loc 2 427 0
 1687 0b28 0131     		adds	r1, r1, #1
 1688 0b2a C8B2     		uxtb	r0, r1
 1689 0b2c 3870     		strb	r0, [r7, #0]
 1690 0b2e 31E7     		b	.L48
 1691              	.L62:
 1692              		.loc 2 408 0
 1693 0b30 501C     		adds	r0, r2, #1
 1694 0b32 C1B2     		uxtb	r1, r0
 1695 0b34 8CF80010 		strb	r1, [ip, #0]
 1696 0b38 A1E7     		b	.L23
 1697              	.LVL122:
 1698              	.L68:
 1699              		.loc 2 479 0
 1700 0b3a 0130     		adds	r0, r0, #1
 1701 0b3c C1B2     		uxtb	r1, r0
 1702 0b3e 3970     		strb	r1, [r7, #0]
 1703 0b40 C5E6     		b	.L46
 1704              	.L66:
 1705              		.loc 2 462 0
 1706 0b42 0131     		adds	r1, r1, #1
ARM GAS  C:\Users\DNIEL~1\AppData\Local\Temp\ccaMIE7p.s 			page 31


 1707 0b44 C8B2     		uxtb	r0, r1
 1708 0b46 3870     		strb	r0, [r7, #0]
 1709 0b48 E0E6     		b	.L26
 1710              	.L65:
 1711              		.loc 2 447 0
 1712 0b4a 0130     		adds	r0, r0, #1
 1713 0b4c C1B2     		uxtb	r1, r0
 1714 0b4e 3970     		strb	r1, [r7, #0]
 1715 0b50 61E7     		b	.L47
 1716              	.LVL123:
 1717              	.L56:
 1718              		.loc 2 347 0
 1719 0b52 0132     		adds	r2, r2, #1
 1720 0b54 D2B2     		uxtb	r2, r2
 1721 0b56 3A70     		strb	r2, [r7, #0]
 1722 0b58 78E7     		b	.L19
 1723              	.L55:
 1724              		.loc 2 334 0
 1725 0b5a 531C     		adds	r3, r2, #1
 1726 0b5c DAB2     		uxtb	r2, r3
 1727 0b5e 3A70     		strb	r2, [r7, #0]
 1728 0b60 FBE6     		b	.L18
 1729              	.LVL124:
 1730              	.L54:
 1731              		.loc 2 321 0
 1732 0b62 0132     		adds	r2, r2, #1
 1733 0b64 D2B2     		uxtb	r2, r2
 1734 0b66 8CF80020 		strb	r2, [ip, #0]
 1735 0b6a ABE7     		b	.L17
 1736              	.LVL125:
 1737              	.L142:
 1738              		.loc 2 684 0 discriminator 2
 1739 0b6c 0420     		movs	r0, #4
 1740 0b6e FFF7FEFF 		bl	getLightFlashing
 1741              		.loc 2 686 0 discriminator 2
 1742 0b72 D0F10103 		rsbs	r3, r0, #1
 1743 0b76 38BF     		it	cc
 1744 0b78 0023     		movcc	r3, #0
 1745 0b7a FFF7E7BB 		b	.L84
 1746              	.L154:
 1747 0b7e 00BF     		.align	2
 1748              	.L153:
 1749 0b80 00000000 		.word	.LANCHOR7
 1750 0b84 00000000 		.word	bmsitems
 1751 0b88 CDCCCCCC 		.word	-858993459
 1752 0b8c 1F85EB51 		.word	1374389535
 1753 0b90 00000000 		.word	.LANCHOR6
 1754 0b94 D34D6210 		.word	274877907
 1755 0b98 00000000 		.word	.LANCHOR11
 1756              	.L143:
 1757              		.loc 2 668 0 discriminator 2
 1758 0b9c 0420     		movs	r0, #4
 1759 0b9e FFF7FEFF 		bl	getLightFlashing
 1760              		.loc 2 670 0 discriminator 2
 1761 0ba2 D0F10103 		rsbs	r3, r0, #1
 1762 0ba6 38BF     		it	cc
 1763 0ba8 0023     		movcc	r3, #0
ARM GAS  C:\Users\DNIEL~1\AppData\Local\Temp\ccaMIE7p.s 			page 32


 1764 0baa FFF7EDBB 		b	.L82
 1765              	.L145:
 1766              		.loc 2 619 0
 1767 0bae 002B     		cmp	r3, #0
 1768 0bb0 08BF     		it	eq
 1769 0bb2 0A23     		moveq	r3, #10
 1770 0bb4 FFE4     		b	.L78
 1771              	.L144:
 1772              		.loc 2 382 0
 1773 0bb6 002B     		cmp	r3, #0
 1774 0bb8 08BF     		it	eq
 1775 0bba 0A23     		moveq	r3, #10
 1776 0bbc CBE4     		b	.L60
 1777              	.L146:
 1778              		.loc 2 596 0
 1779 0bbe 002B     		cmp	r3, #0
 1780 0bc0 08BF     		it	eq
 1781 0bc2 0A23     		moveq	r3, #10
 1782 0bc4 28E5     		b	.L76
 1783              	.LVL126:
 1784              	.L110:
 1785              		.loc 2 574 0
 1786 0bc6 0A23     		movs	r3, #10
 1787 0bc8 75E4     		b	.L74
 1788              	.LVL127:
 1789              	.L123:
 1790              		.loc 2 786 0
 1791 0bca 0123     		movs	r3, #1
 1792 0bcc FFF79EBA 		b	.L98
 1793              	.L120:
 1794              		.loc 2 767 0
 1795 0bd0 0123     		movs	r3, #1
 1796 0bd2 FFF70BBB 		b	.L94
 1797              	.L117:
 1798              		.loc 2 744 0
 1799 0bd6 0123     		movs	r3, #1
 1800 0bd8 FFF73ABB 		b	.L90
 1801              	.L147:
 1802              		.loc 2 268 0
 1803 0bdc 002B     		cmp	r3, #0
 1804 0bde 08BF     		it	eq
 1805 0be0 0A23     		moveq	r3, #10
 1806 0be2 5DE6     		b	.L51
 1807              	.LVL128:
 1808              	.L141:
 1809              		.loc 2 744 0
 1810 0be4 0223     		movs	r3, #2
 1811 0be6 FFF733BB 		b	.L90
 1812              	.L138:
 1813              		.loc 2 786 0
 1814 0bea 0223     		movs	r3, #2
 1815 0bec FFF78EBA 		b	.L98
 1816              	.L140:
 1817              		.loc 2 767 0
 1818 0bf0 0223     		movs	r3, #2
 1819 0bf2 FFF7FBBA 		b	.L94
 1820              	.LBE13:
ARM GAS  C:\Users\DNIEL~1\AppData\Local\Temp\ccaMIE7p.s 			page 33


 1821              	.LBE14:
 1822              		.cfi_endproc
 1823              	.LFE123:
 1824              		.size	dspTask, .-dspTask
 1825 0bf6 00BFAFF3 		.section	.text.dsp_LoadTop,"ax",%progbits
 1825      0080AFF3 
 1825      0080
 1826              		.align	2
 1827              		.p2align 4,,15
 1828              		.global	dsp_LoadTop
 1829              		.thumb
 1830              		.thumb_func
 1831              		.type	dsp_LoadTop, %function
 1832              	dsp_LoadTop:
 1833              	.LFB119:
 1834              		.loc 2 80 0
 1835              		.cfi_startproc
 1836              		@ args = 0, pretend = 0, frame = 0
 1837              		@ frame_needed = 0, uses_anonymous_args = 0
 1838 0000 10B5     		push	{r4, lr}
 1839              	.LCFI5:
 1840              		.cfi_def_cfa_offset 8
 1841              		.loc 2 82 0
 1842 0002 0020     		movs	r0, #0
 1843 0004 3921     		movs	r1, #57
 1844              		.cfi_offset 14, -4
 1845              		.cfi_offset 4, -8
 1846 0006 FFF7FEFF 		bl	media_SetSector
 1847              		.loc 2 83 0
 1848 000a 0022     		movs	r2, #0
 1849 000c 0721     		movs	r1, #7
 1850 000e 40F2B110 		movw	r0, #433
 1851 0012 FFF7FEFF 		bl	media_VideoFrame
 1852              		.loc 2 85 0
 1853 0016 0020     		movs	r0, #0
 1854 0018 44F23351 		movw	r1, #17715
 1855 001c FFF7FEFF 		bl	media_SetSector
 1856              		.loc 2 86 0
 1857 0020 0022     		movs	r2, #0
 1858 0022 3D21     		movs	r1, #61
 1859 0024 40F2B110 		movw	r0, #433
 1860 0028 FFF7FEFF 		bl	media_VideoFrame
 1861              		.loc 2 88 0
 1862 002c 0020     		movs	r0, #0
 1863 002e 5321     		movs	r1, #83
 1864 0030 FFF7FEFF 		bl	media_SetSector
 1865              		.loc 2 89 0
 1866 0034 0022     		movs	r2, #0
 1867 0036 9A21     		movs	r1, #154
 1868 0038 40F2B110 		movw	r0, #433
 1869 003c FFF7FEFF 		bl	media_VideoFrame
 1870              		.loc 2 91 0
 1871 0040 0020     		movs	r0, #0
 1872 0042 4421     		movs	r1, #68
 1873 0044 FFF7FEFF 		bl	media_SetSector
 1874              		.loc 2 92 0
 1875 0048 0022     		movs	r2, #0
ARM GAS  C:\Users\DNIEL~1\AppData\Local\Temp\ccaMIE7p.s 			page 34


 1876 004a E621     		movs	r1, #230
 1877 004c 40F2B110 		movw	r0, #433
 1878 0050 FFF7FEFF 		bl	media_VideoFrame
 1879              		.loc 2 94 0
 1880 0054 0020     		movs	r0, #0
 1881 0056 44F24651 		movw	r1, #17734
 1882 005a FFF7FEFF 		bl	media_SetSector
 1883              		.loc 2 95 0
 1884 005e 0022     		movs	r2, #0
 1885 0060 1A21     		movs	r1, #26
 1886 0062 40F27710 		movw	r0, #375
 1887 0066 FFF7FEFF 		bl	media_VideoFrame
 1888              		.loc 2 97 0
 1889 006a 0020     		movs	r0, #0
 1890 006c 1721     		movs	r1, #23
 1891 006e FFF7FEFF 		bl	media_SetSector
 1892              		.loc 2 98 0
 1893 0072 0222     		movs	r2, #2
 1894 0074 40F27710 		movw	r0, #375
 1895 0078 5021     		movs	r1, #80
 1896 007a FFF7FEFF 		bl	media_VideoFrame
 1897              		.loc 2 100 0
 1898 007e 0020     		movs	r0, #0
 1899 0080 5E21     		movs	r1, #94
 1900 0082 FFF7FEFF 		bl	media_SetSector
 1901              		.loc 2 101 0
 1902 0086 0022     		movs	r2, #0
 1903 0088 AA21     		movs	r1, #170
 1904 008a 40F27710 		movw	r0, #375
 1905 008e FFF7FEFF 		bl	media_VideoFrame
 1906              		.loc 2 103 0
 1907 0092 0020     		movs	r0, #0
 1908 0094 0146     		mov	r1, r0
 1909 0096 FFF7FEFF 		bl	media_SetSector
 1910              		.loc 2 104 0
 1911 009a 0022     		movs	r2, #0
 1912 009c DB21     		movs	r1, #219
 1913 009e 40F27710 		movw	r0, #375
 1914 00a2 FFF7FEFF 		bl	media_VideoFrame
 1915              		.loc 2 106 0
 1916 00a6 0020     		movs	r0, #0
 1917 00a8 1121     		movs	r1, #17
 1918 00aa FFF7FEFF 		bl	media_SetSector
 1919              		.loc 2 107 0
 1920 00ae 0421     		movs	r1, #4
 1921 00b0 4FF4AA70 		mov	r0, #340
 1922 00b4 FFF7FEFF 		bl	media_Image
 1923              		.loc 2 109 0
 1924 00b8 0020     		movs	r0, #0
 1925 00ba 44F23E51 		movw	r1, #17726
 1926 00be FFF7FEFF 		bl	media_SetSector
 1927              		.loc 2 110 0
 1928 00c2 4FF4AA70 		mov	r0, #340
 1929 00c6 A621     		movs	r1, #166
 1930              		.loc 2 112 0
 1931 00c8 BDE81040 		pop	{r4, lr}
 1932              		.loc 2 110 0
ARM GAS  C:\Users\DNIEL~1\AppData\Local\Temp\ccaMIE7p.s 			page 35


 1933 00cc FFF7FEBF 		b	media_Image
 1934              		.cfi_endproc
 1935              	.LFE119:
 1936              		.size	dsp_LoadTop, .-dsp_LoadTop
 1937              		.section	.text.dsp_LoadMidle,"ax",%progbits
 1938              		.align	2
 1939              		.p2align 4,,15
 1940              		.global	dsp_LoadMidle
 1941              		.thumb
 1942              		.thumb_func
 1943              		.type	dsp_LoadMidle, %function
 1944              	dsp_LoadMidle:
 1945              	.LFB120:
 1946              		.loc 2 113 0
 1947              		.cfi_startproc
 1948              		@ args = 0, pretend = 0, frame = 0
 1949              		@ frame_needed = 0, uses_anonymous_args = 0
 1950 0000 10B5     		push	{r4, lr}
 1951              	.LCFI6:
 1952              		.cfi_def_cfa_offset 8
 1953              		.loc 2 115 0
 1954 0002 0120     		movs	r0, #1
 1955              		.cfi_offset 14, -4
 1956              		.cfi_offset 4, -8
 1957 0004 FFF7FEFF 		bl	gfx_Transparency
 1958              		.loc 2 116 0
 1959 0008 1F20     		movs	r0, #31
 1960 000a FFF7FEFF 		bl	gfx_TransparentColour
 1961              		.loc 2 117 0
 1962 000e 0020     		movs	r0, #0
 1963 0010 6F21     		movs	r1, #111
 1964 0012 FFF7FEFF 		bl	media_SetSector
 1965              		.loc 2 118 0
 1966 0016 0022     		movs	r2, #0
 1967 0018 9420     		movs	r0, #148
 1968 001a 1521     		movs	r1, #21
 1969 001c FFF7FEFF 		bl	media_VideoFrame
 1970              		.loc 2 120 0
 1971 0020 0020     		movs	r0, #0
 1972 0022 4F21     		movs	r1, #79
 1973 0024 FFF7FEFF 		bl	media_SetSector
 1974              		.loc 2 121 0
 1975 0028 A820     		movs	r0, #168
 1976 002a CC21     		movs	r1, #204
 1977 002c FFF7FEFF 		bl	media_Image
 1978              		.loc 2 123 0
 1979 0030 0020     		movs	r0, #0
 1980 0032 44F27141 		movw	r1, #17521
 1981 0036 FFF7FEFF 		bl	media_SetSector
 1982              		.loc 2 124 0
 1983 003a 0022     		movs	r2, #0
 1984 003c F421     		movs	r1, #244
 1985 003e 40F23B10 		movw	r0, #315
 1986 0042 FFF7FEFF 		bl	media_VideoFrame
 1987              		.loc 2 125 0
 1988 0046 0020     		movs	r0, #0
 1989 0048 44F27141 		movw	r1, #17521
ARM GAS  C:\Users\DNIEL~1\AppData\Local\Temp\ccaMIE7p.s 			page 36


 1990 004c FFF7FEFF 		bl	media_SetSector
 1991              		.loc 2 126 0
 1992 0050 0022     		movs	r2, #0
 1993 0052 2821     		movs	r1, #40
 1994 0054 40F23B10 		movw	r0, #315
 1995 0058 FFF7FEFF 		bl	media_VideoFrame
 1996              		.loc 2 128 0
 1997 005c 0020     		movs	r0, #0
 1998 005e 44F29841 		movw	r1, #17560
 1999 0062 FFF7FEFF 		bl	media_SetSector
 2000              		.loc 2 129 0
 2001 0066 BA20     		movs	r0, #186
 2002 0068 A721     		movs	r1, #167
 2003 006a 0022     		movs	r2, #0
 2004              		.loc 2 131 0
 2005 006c BDE81040 		pop	{r4, lr}
 2006              		.loc 2 129 0
 2007 0070 FFF7FEBF 		b	media_VideoFrame
 2008              		.cfi_endproc
 2009              	.LFE120:
 2010              		.size	dsp_LoadMidle, .-dsp_LoadMidle
 2011 0074 AFF30080 		.section	.text.dsp_LoadBottom,"ax",%progbits
 2011      AFF30080 
 2011      AFF30080 
 2012              		.align	2
 2013              		.p2align 4,,15
 2014              		.global	dsp_LoadBottom
 2015              		.thumb
 2016              		.thumb_func
 2017              		.type	dsp_LoadBottom, %function
 2018              	dsp_LoadBottom:
 2019              	.LFB121:
 2020              		.loc 2 132 0
 2021              		.cfi_startproc
 2022              		@ args = 0, pretend = 0, frame = 0
 2023              		@ frame_needed = 0, uses_anonymous_args = 0
 2024 0000 10B5     		push	{r4, lr}
 2025              	.LCFI7:
 2026              		.cfi_def_cfa_offset 8
 2027              		.loc 2 134 0
 2028 0002 4FF4B470 		mov	r0, #360
 2029              		.loc 2 132 0
 2030 0006 82B0     		sub	sp, sp, #8
 2031              	.LCFI8:
 2032              		.cfi_def_cfa_offset 16
 2033              		.loc 2 134 0
 2034 0008 4FF6FF74 		movw	r4, #65535
 2035              		.cfi_offset 14, -4
 2036              		.cfi_offset 4, -8
 2037 000c 0021     		movs	r1, #0
 2038 000e 0246     		mov	r2, r0
 2039 0010 4FF48873 		mov	r3, #272
 2040 0014 0094     		str	r4, [sp, #0]
 2041 0016 FFF7FEFF 		bl	draw_line
 2042              		.loc 2 135 0
 2043 001a 9120     		movs	r0, #145
 2044 001c 4FF48873 		mov	r3, #272
ARM GAS  C:\Users\DNIEL~1\AppData\Local\Temp\ccaMIE7p.s 			page 37


 2045 0020 0246     		mov	r2, r0
 2046 0022 0021     		movs	r1, #0
 2047 0024 0094     		str	r4, [sp, #0]
 2048 0026 FFF7FEFF 		bl	draw_line
 2049              		.loc 2 137 0
 2050 002a 0020     		movs	r0, #0
 2051 002c 2E21     		movs	r1, #46
 2052 002e FFF7FEFF 		bl	media_SetSector
 2053              		.loc 2 138 0
 2054 0032 0022     		movs	r2, #0
 2055 0034 6C20     		movs	r0, #108
 2056 0036 0521     		movs	r1, #5
 2057 0038 FFF7FEFF 		bl	media_VideoFrame
 2058              		.loc 2 140 0
 2059 003c 0020     		movs	r0, #0
 2060 003e 2E21     		movs	r1, #46
 2061 0040 FFF7FEFF 		bl	media_SetSector
 2062              		.loc 2 141 0
 2063 0044 0122     		movs	r2, #1
 2064 0046 6C20     		movs	r0, #108
 2065 0048 8721     		movs	r1, #135
 2066 004a FFF7FEFF 		bl	media_VideoFrame
 2067              		.loc 2 143 0
 2068 004e 0020     		movs	r0, #0
 2069 0050 2E21     		movs	r1, #46
 2070 0052 FFF7FEFF 		bl	media_SetSector
 2071              		.loc 2 144 0
 2072 0056 0222     		movs	r2, #2
 2073 0058 4220     		movs	r0, #66
 2074 005a 8721     		movs	r1, #135
 2075 005c FFF7FEFF 		bl	media_VideoFrame
 2076              		.loc 2 146 0
 2077 0060 0020     		movs	r0, #0
 2078 0062 44F25751 		movw	r1, #17751
 2079 0066 FFF7FEFF 		bl	media_SetSector
 2080              		.loc 2 147 0
 2081 006a 4120     		movs	r0, #65
 2082 006c 0521     		movs	r1, #5
 2083 006e FFF7FEFF 		bl	media_Image
 2084              		.loc 2 149 0
 2085 0072 0020     		movs	r0, #0
 2086 0074 44F27E41 		movw	r1, #17534
 2087 0078 FFF7FEFF 		bl	media_SetSector
 2088              		.loc 2 150 0
 2089 007c 0022     		movs	r2, #0
 2090 007e 6C20     		movs	r0, #108
 2091 0080 4F21     		movs	r1, #79
 2092 0082 FFF7FEFF 		bl	media_VideoFrame
 2093              		.loc 2 151 0
 2094 0086 0020     		movs	r0, #0
 2095 0088 44F27E41 		movw	r1, #17534
 2096 008c FFF7FEFF 		bl	media_SetSector
 2097              		.loc 2 152 0
 2098 0090 0022     		movs	r2, #0
 2099 0092 6C20     		movs	r0, #108
 2100 0094 E421     		movs	r1, #228
 2101 0096 FFF7FEFF 		bl	media_VideoFrame
ARM GAS  C:\Users\DNIEL~1\AppData\Local\Temp\ccaMIE7p.s 			page 38


 2102              		.loc 2 153 0
 2103 009a 0020     		movs	r0, #0
 2104 009c 44F27E41 		movw	r1, #17534
 2105 00a0 FFF7FEFF 		bl	media_SetSector
 2106              		.loc 2 154 0
 2107 00a4 0022     		movs	r2, #0
 2108 00a6 4220     		movs	r0, #66
 2109 00a8 4F21     		movs	r1, #79
 2110 00aa FFF7FEFF 		bl	media_VideoFrame
 2111              		.loc 2 155 0
 2112 00ae 0020     		movs	r0, #0
 2113 00b0 44F27E41 		movw	r1, #17534
 2114 00b4 FFF7FEFF 		bl	media_SetSector
 2115              		.loc 2 156 0
 2116 00b8 0022     		movs	r2, #0
 2117 00ba 4220     		movs	r0, #66
 2118 00bc E421     		movs	r1, #228
 2119 00be FFF7FEFF 		bl	media_VideoFrame
 2120              		.loc 2 158 0
 2121 00c2 0020     		movs	r0, #0
 2122 00c4 2821     		movs	r1, #40
 2123 00c6 FFF7FEFF 		bl	media_SetSector
 2124              		.loc 2 159 0
 2125 00ca 0222     		movs	r2, #2
 2126 00cc 6620     		movs	r0, #102
 2127 00ce 6921     		movs	r1, #105
 2128 00d0 FFF7FEFF 		bl	media_VideoFrame
 2129              		.loc 2 160 0
 2130 00d4 2821     		movs	r1, #40
 2131 00d6 0020     		movs	r0, #0
 2132 00d8 FFF7FEFF 		bl	media_SetSector
 2133              		.loc 2 161 0
 2134 00dc 0122     		movs	r2, #1
 2135 00de 4120     		movs	r0, #65
 2136 00e0 6921     		movs	r1, #105
 2137 00e2 FFF7FEFF 		bl	media_VideoFrame
 2138              		.loc 2 162 0
 2139 00e6 0020     		movs	r0, #0
 2140 00e8 2821     		movs	r1, #40
 2141 00ea FFF7FEFF 		bl	media_SetSector
 2142              		.loc 2 163 0
 2143 00ee 0022     		movs	r2, #0
 2144 00f0 6620     		movs	r0, #102
 2145 00f2 F921     		movs	r1, #249
 2146 00f4 FFF7FEFF 		bl	media_VideoFrame
 2147              		.loc 2 164 0
 2148 00f8 0020     		movs	r0, #0
 2149 00fa 2821     		movs	r1, #40
 2150 00fc FFF7FEFF 		bl	media_SetSector
 2151              		.loc 2 165 0
 2152 0100 0022     		movs	r2, #0
 2153 0102 4120     		movs	r0, #65
 2154 0104 F921     		movs	r1, #249
 2155 0106 FFF7FEFF 		bl	media_VideoFrame
 2156              		.loc 2 167 0
 2157 010a 0020     		movs	r0, #0
 2158 010c 41F61C11 		movw	r1, #6428
ARM GAS  C:\Users\DNIEL~1\AppData\Local\Temp\ccaMIE7p.s 			page 39


 2159 0110 FFF7FEFF 		bl	media_SetSector
 2160              		.loc 2 168 0
 2161 0114 0021     		movs	r1, #0
 2162 0116 0320     		movs	r0, #3
 2163 0118 0A46     		mov	r2, r1
 2164              		.loc 2 170 0
 2165 011a 02B0     		add	sp, sp, #8
 2166 011c BDE81040 		pop	{r4, lr}
 2167              		.loc 2 168 0
 2168 0120 FFF7FEBF 		b	media_VideoFrame
 2169              		.cfi_endproc
 2170              	.LFE121:
 2171              		.size	dsp_LoadBottom, .-dsp_LoadBottom
 2172 0124 AFF30080 		.section	.text.dsp_RefreshMidle,"ax",%progbits
 2172      AFF30080 
 2172      AFF30080 
 2173              		.align	2
 2174              		.p2align 4,,15
 2175              		.global	dsp_RefreshMidle
 2176              		.thumb
 2177              		.thumb_func
 2178              		.type	dsp_RefreshMidle, %function
 2179              	dsp_RefreshMidle:
 2180              	.LFB122:
 2181              		.loc 2 172 0
 2182              		.cfi_startproc
 2183              		@ args = 0, pretend = 0, frame = 0
 2184              		@ frame_needed = 0, uses_anonymous_args = 0
 2185              	.LVL129:
 2186 0000 70B5     		push	{r4, r5, r6, lr}
 2187              	.LCFI9:
 2188              		.cfi_def_cfa_offset 16
 2189              		.loc 2 172 0
 2190 0002 0446     		mov	r4, r0
 2191              		.cfi_offset 14, -4
 2192              		.cfi_offset 6, -8
 2193              		.cfi_offset 5, -12
 2194              		.cfi_offset 4, -16
 2195              		.loc 2 174 0
 2196 0004 0120     		movs	r0, #1
 2197              	.LVL130:
 2198 0006 FFF7FEFF 		bl	gfx_Transparency
 2199              		.loc 2 175 0
 2200 000a 1F20     		movs	r0, #31
 2201 000c FFF7FEFF 		bl	gfx_TransparentColour
 2202              		.loc 2 176 0
 2203 0010 6F21     		movs	r1, #111
 2204 0012 0020     		movs	r0, #0
 2205 0014 FFF7FEFF 		bl	media_SetSector
 2206              		.loc 2 177 0
 2207 0018 3548     		ldr	r0, .L162
 2208 001a E517     		asrs	r5, r4, #31
 2209 001c 80FB0412 		smull	r1, r2, r0, r4
 2210 0020 C5EB6202 		rsb	r2, r5, r2, asr #1
 2211 0024 9420     		movs	r0, #148
 2212 0026 1521     		movs	r1, #21
 2213 0028 FFF7FEFF 		bl	media_VideoFrame
ARM GAS  C:\Users\DNIEL~1\AppData\Local\Temp\ccaMIE7p.s 			page 40


 2214              		.loc 2 179 0
 2215 002c 0020     		movs	r0, #0
 2216 002e 4F21     		movs	r1, #79
 2217 0030 FFF7FEFF 		bl	media_SetSector
 2218              		.loc 2 180 0
 2219 0034 A820     		movs	r0, #168
 2220 0036 CC21     		movs	r1, #204
 2221 0038 FFF7FEFF 		bl	media_Image
 2222              		.loc 2 182 0
 2223 003c 0020     		movs	r0, #0
 2224 003e 44F27141 		movw	r1, #17521
 2225 0042 FFF7FEFF 		bl	media_SetSector
 2226              		.loc 2 183 0
 2227 0046 0022     		movs	r2, #0
 2228 0048 F421     		movs	r1, #244
 2229 004a 40F23B10 		movw	r0, #315
 2230 004e FFF7FEFF 		bl	media_VideoFrame
 2231              		.loc 2 184 0
 2232 0052 0020     		movs	r0, #0
 2233 0054 44F27141 		movw	r1, #17521
 2234 0058 FFF7FEFF 		bl	media_SetSector
 2235              		.loc 2 185 0
 2236 005c 2121     		movs	r1, #33
 2237 005e 0022     		movs	r2, #0
 2238 0060 40F23B10 		movw	r0, #315
 2239 0064 FFF7FEFF 		bl	media_VideoFrame
 2240              		.loc 2 187 0
 2241 0068 04F16303 		add	r3, r4, #99
 2242 006c C62B     		cmp	r3, #198
 2243 006e 2FD8     		bhi	.L161
 2244              		.loc 2 192 0
 2245 0070 0020     		movs	r0, #0
 2246 0072 44F29841 		movw	r1, #17560
 2247 0076 FFF7FEFF 		bl	media_SetSector
 2248              		.loc 2 193 0
 2249 007a BA20     		movs	r0, #186
 2250 007c 4321     		movs	r1, #67
 2251 007e 0A22     		movs	r2, #10
 2252 0080 FFF7FEFF 		bl	media_VideoFrame
 2253              	.L160:
 2254              		.loc 2 195 0
 2255 0084 0020     		movs	r0, #0
 2256 0086 44F29841 		movw	r1, #17560
 2257 008a FFF7FEFF 		bl	media_SetSector
 2258              		.loc 2 196 0
 2259 008e 184A     		ldr	r2, .L162
 2260 0090 82FB041C 		smull	r1, ip, r2, r4
 2261 0094 C5EBAC05 		rsb	r5, r5, ip, asr #2
 2262 0098 82FB0530 		smull	r3, r0, r2, r5
 2263 009c E917     		asrs	r1, r5, #31
 2264 009e C1EBA002 		rsb	r2, r1, r0, asr #2
 2265 00a2 02EB8203 		add	r3, r2, r2, lsl #2
 2266 00a6 A5EB4302 		sub	r2, r5, r3, lsl #1
 2267 00aa BA20     		movs	r0, #186
 2268 00ac 7521     		movs	r1, #117
 2269 00ae FFF7FEFF 		bl	media_VideoFrame
 2270              		.loc 2 197 0
ARM GAS  C:\Users\DNIEL~1\AppData\Local\Temp\ccaMIE7p.s 			page 41


 2271 00b2 0020     		movs	r0, #0
 2272 00b4 44F29841 		movw	r1, #17560
 2273 00b8 FFF7FEFF 		bl	media_SetSector
 2274              		.loc 2 198 0
 2275 00bc 05EB8505 		add	r5, r5, r5, lsl #2
 2276 00c0 BA20     		movs	r0, #186
 2277 00c2 A721     		movs	r1, #167
 2278 00c4 A4EB4502 		sub	r2, r4, r5, lsl #1
 2279              		.loc 2 199 0
 2280 00c8 BDE87040 		pop	{r4, r5, r6, lr}
 2281              		.loc 2 198 0
 2282 00cc FFF7FEBF 		b	media_VideoFrame
 2283              	.L161:
 2284              		.loc 2 188 0
 2285 00d0 0020     		movs	r0, #0
 2286 00d2 44F29841 		movw	r1, #17560
 2287 00d6 FFF7FEFF 		bl	media_SetSector
 2288              		.loc 2 189 0
 2289 00da 0649     		ldr	r1, .L162+4
 2290 00dc 81FB043C 		smull	r3, ip, r1, r4
 2291 00e0 BA20     		movs	r0, #186
 2292 00e2 4321     		movs	r1, #67
 2293 00e4 C5EB6C12 		rsb	r2, r5, ip, asr #5
 2294 00e8 FFF7FEFF 		bl	media_VideoFrame
 2295 00ec CAE7     		b	.L160
 2296              	.L163:
 2297 00ee 00BF     		.align	2
 2298              	.L162:
 2299 00f0 67666666 		.word	1717986919
 2300 00f4 1F85EB51 		.word	1374389535
 2301              		.cfi_endproc
 2302              	.LFE122:
 2303              		.size	dsp_RefreshMidle, .-dsp_RefreshMidle
 2304 00f8 AFF30080 		.section	.text.dspInit,"ax",%progbits
 2304      AFF30080 
 2305              		.align	2
 2306              		.p2align 4,,15
 2307              		.global	dspInit
 2308              		.thumb
 2309              		.thumb_func
 2310              		.type	dspInit, %function
 2311              	dspInit:
 2312              	.LFB124:
 2313              		.loc 2 853 0
 2314              		.cfi_startproc
 2315              		@ args = 0, pretend = 0, frame = 0
 2316              		@ frame_needed = 0, uses_anonymous_args = 0
 2317 0000 30B5     		push	{r4, r5, lr}
 2318              	.LCFI10:
 2319              		.cfi_def_cfa_offset 12
 2320              		.loc 2 861 0
 2321 0002 104D     		ldr	r5, .L165
 2322              		.cfi_offset 14, -4
 2323              		.cfi_offset 5, -8
 2324              		.cfi_offset 4, -12
 2325              		.loc 2 853 0
 2326 0004 83B0     		sub	sp, sp, #12
ARM GAS  C:\Users\DNIEL~1\AppData\Local\Temp\ccaMIE7p.s 			page 42


 2327              	.LCFI11:
 2328              		.cfi_def_cfa_offset 24
 2329              		.loc 2 861 0
 2330 0006 0024     		movs	r4, #0
 2331              		.loc 2 855 0
 2332 0008 FFF7FEFF 		bl	gfx_Cls
 2333              		.loc 2 856 0
 2334 000c FFF7FEFF 		bl	file_Mount
 2335              		.loc 2 857 0
 2336 0010 FFF7FEFF 		bl	dsp_LoadTop
 2337              		.loc 2 858 0
 2338 0014 FFF7FEFF 		bl	dsp_LoadMidle
 2339              		.loc 2 859 0
 2340 0018 FFF7FEFF 		bl	dsp_LoadBottom
 2341              		.loc 2 860 0
 2342 001c FFF7FEFF 		bl	bus_In
 2343              		.loc 2 861 0
 2344 0020 2C70     		strb	r4, [r5, #0]
 2345              		.loc 2 862 0
 2346 0022 094D     		ldr	r5, .L165+4
 2347              		.loc 2 865 0
 2348 0024 094B     		ldr	r3, .L165+8
 2349              		.loc 2 862 0
 2350 0026 2C70     		strb	r4, [r5, #0]
 2351              		.loc 2 863 0
 2352 0028 094D     		ldr	r5, .L165+12
 2353              		.loc 2 865 0
 2354 002a 0A48     		ldr	r0, .L165+16
 2355              		.loc 2 863 0
 2356 002c 2C70     		strb	r4, [r5, #0]
 2357              		.loc 2 864 0
 2358 002e 0A4D     		ldr	r5, .L165+20
 2359              		.loc 2 865 0
 2360 0030 4FF49A61 		mov	r1, #1232
 2361              		.loc 2 864 0
 2362 0034 2C60     		str	r4, [r5, #0]
 2363              		.loc 2 865 0
 2364 0036 4722     		movs	r2, #71
 2365 0038 0094     		str	r4, [sp, #0]
 2366 003a FFF7FEFF 		bl	chThdCreateStatic
 2367              		.loc 2 866 0
 2368 003e 03B0     		add	sp, sp, #12
 2369 0040 30BD     		pop	{r4, r5, pc}
 2370              	.L166:
 2371 0042 00BF     		.align	2
 2372              	.L165:
 2373 0044 00000000 		.word	.LANCHOR5
 2374 0048 00000000 		.word	.LANCHOR6
 2375 004c 00000000 		.word	dspTask
 2376 0050 00000000 		.word	.LANCHOR3
 2377 0054 00000000 		.word	.LANCHOR12
 2378 0058 00000000 		.word	.LANCHOR0
 2379              		.cfi_endproc
 2380              	.LFE124:
 2381              		.size	dspInit, .-dspInit
 2382 005c AFF30080 		.section	.text.dspGetItem,"ax",%progbits
 2383              		.align	2
ARM GAS  C:\Users\DNIEL~1\AppData\Local\Temp\ccaMIE7p.s 			page 43


 2384              		.p2align 4,,15
 2385              		.global	dspGetItem
 2386              		.thumb
 2387              		.thumb_func
 2388              		.type	dspGetItem, %function
 2389              	dspGetItem:
 2390              	.LFB125:
 2391              		.loc 2 868 0
 2392              		.cfi_startproc
 2393              		@ args = 0, pretend = 0, frame = 0
 2394              		@ frame_needed = 0, uses_anonymous_args = 0
 2395              		@ link register save eliminated.
 2396              	.LVL131:
 2397              		.loc 2 869 0
 2398 0000 18B1     		cbz	r0, .L168
 2399 0002 0828     		cmp	r0, #8
 2400 0004 28BF     		it	cs
 2401 0006 0820     		movcs	r0, #8
 2402              	.LVL132:
 2403 0008 0138     		subs	r0, r0, #1
 2404              	.L168:
 2405              		.loc 2 871 0 discriminator 3
 2406 000a 014B     		ldr	r3, .L170
 2407              		.loc 2 872 0 discriminator 3
 2408 000c 185C     		ldrb	r0, [r3, r0]	@ zero_extendqisi2
 2409 000e 7047     		bx	lr
 2410              	.L171:
 2411              		.align	2
 2412              	.L170:
 2413 0010 00000000 		.word	.LANCHOR13
 2414              		.cfi_endproc
 2415              	.LFE125:
 2416              		.size	dspGetItem, .-dspGetItem
 2417 0014 AFF30080 		.section	.text.dspGetValue,"ax",%progbits
 2417      AFF30080 
 2417      AFF30080 
 2418              		.align	2
 2419              		.p2align 4,,15
 2420              		.global	dspGetValue
 2421              		.thumb
 2422              		.thumb_func
 2423              		.type	dspGetValue, %function
 2424              	dspGetValue:
 2425              	.LFB126:
 2426              		.loc 2 874 0
 2427              		.cfi_startproc
 2428              		@ args = 0, pretend = 0, frame = 0
 2429              		@ frame_needed = 0, uses_anonymous_args = 0
 2430              		@ link register save eliminated.
 2431              		.loc 2 875 0
 2432 0000 014B     		ldr	r3, .L173
 2433              		.loc 2 876 0
 2434 0002 1878     		ldrb	r0, [r3, #0]	@ zero_extendqisi2
 2435 0004 7047     		bx	lr
 2436              	.L174:
 2437 0006 00BF     		.align	2
 2438              	.L173:
ARM GAS  C:\Users\DNIEL~1\AppData\Local\Temp\ccaMIE7p.s 			page 44


 2439 0008 00000000 		.word	.LANCHOR1
 2440              		.cfi_endproc
 2441              	.LFE126:
 2442              		.size	dspGetValue, .-dspGetValue
 2443 000c AFF30080 		.section	.text.dsp_active,"ax",%progbits
 2444              		.align	2
 2445              		.p2align 4,,15
 2446              		.global	dsp_active
 2447              		.thumb
 2448              		.thumb_func
 2449              		.type	dsp_active, %function
 2450              	dsp_active:
 2451              	.LFB127:
 2452              		.loc 2 878 0
 2453              		.cfi_startproc
 2454              		@ args = 0, pretend = 0, frame = 0
 2455              		@ frame_needed = 0, uses_anonymous_args = 0
 2456              		@ link register save eliminated.
 2457              		.loc 2 878 0
 2458 0000 014B     		ldr	r3, .L176
 2459              		.loc 2 880 0
 2460 0002 1878     		ldrb	r0, [r3, #0]	@ zero_extendqisi2
 2461 0004 7047     		bx	lr
 2462              	.L177:
 2463 0006 00BF     		.align	2
 2464              	.L176:
 2465 0008 00000000 		.word	.LANCHOR5
 2466              		.cfi_endproc
 2467              	.LFE127:
 2468              		.size	dsp_active, .-dsp_active
 2469 000c AFF30080 		.section	.text.cmd_dspvalues,"ax",%progbits
 2470              		.align	2
 2471              		.p2align 4,,15
 2472              		.global	cmd_dspvalues
 2473              		.thumb
 2474              		.thumb_func
 2475              		.type	cmd_dspvalues, %function
 2476              	cmd_dspvalues:
 2477              	.LFB128:
 2478              		.loc 2 882 0
 2479              		.cfi_startproc
 2480              		@ args = 0, pretend = 0, frame = 0
 2481              		@ frame_needed = 0, uses_anonymous_args = 0
 2482              	.LVL133:
 2483 0000 2DE9F041 		push	{r4, r5, r6, r7, r8, lr}
 2484              	.LCFI12:
 2485              		.cfi_def_cfa_offset 24
 2486              		.loc 2 887 0
 2487 0004 4D49     		ldr	r1, .L189
 2488              	.LVL134:
 2489              		.loc 2 891 0
 2490 0006 DFF88081 		ldr	r8, .L189+76
 2491              		.cfi_offset 14, -4
 2492              		.cfi_offset 8, -8
 2493              		.cfi_offset 7, -12
 2494              		.cfi_offset 6, -16
 2495              		.cfi_offset 5, -20
ARM GAS  C:\Users\DNIEL~1\AppData\Local\Temp\ccaMIE7p.s 			page 45


 2496              		.cfi_offset 4, -24
 2497              		.loc 2 882 0
 2498 000a 4D4E     		ldr	r6, .L189+4
 2499 000c 0546     		mov	r5, r0
 2500              		.loc 2 887 0
 2501 000e FFF7FEFF 		bl	chprintf
 2502              	.LVL135:
 2503              		.loc 2 888 0
 2504 0012 2846     		mov	r0, r5
 2505 0014 4B49     		ldr	r1, .L189+8
 2506 0016 FFF7FEFF 		bl	chprintf
 2507              		.loc 2 889 0
 2508 001a 2968     		ldr	r1, [r5, #0]
 2509 001c 2846     		mov	r0, r5
 2510 001e 4B69     		ldr	r3, [r1, #20]
 2511 0020 0021     		movs	r1, #0
 2512 0022 9847     		blx	r3
 2513 0024 B0F1FF3F 		cmp	r0, #-1
 2514 0028 40F08580 		bne	.L188
 2515              	.L181:
 2516              		.loc 2 890 0
 2517 002c 0022     		movs	r2, #0
 2518 002e 1346     		mov	r3, r2
 2519 0030 4549     		ldr	r1, .L189+12
 2520              		.loc 2 895 0
 2521 0032 464F     		ldr	r7, .L189+16
 2522              		.loc 2 882 0
 2523 0034 464C     		ldr	r4, .L189+20
 2524              		.loc 2 890 0
 2525 0036 2846     		mov	r0, r5
 2526 0038 FFF7FEFF 		bl	chprintf
 2527              		.loc 2 891 0
 2528 003c 98F80020 		ldrb	r2, [r8, #0]	@ zero_extendqisi2
 2529 0040 4449     		ldr	r1, .L189+24
 2530 0042 2846     		mov	r0, r5
 2531 0044 FFF7FEFF 		bl	chprintf
 2532              		.loc 2 892 0
 2533 0048 2846     		mov	r0, r5
 2534 004a 4349     		ldr	r1, .L189+28
 2535 004c FFF7FEFF 		bl	chprintf
 2536              	.LVL136:
 2537              		.loc 2 895 0
 2538 0050 4249     		ldr	r1, .L189+32
 2539 0052 3A78     		ldrb	r2, [r7, #0]	@ zero_extendqisi2
 2540 0054 2846     		mov	r0, r5
 2541 0056 FFF7FEFF 		bl	chprintf
 2542              	.LVL137:
 2543 005a 2846     		mov	r0, r5
 2544 005c 3F49     		ldr	r1, .L189+32
 2545 005e 7A78     		ldrb	r2, [r7, #1]	@ zero_extendqisi2
 2546 0060 FFF7FEFF 		bl	chprintf
 2547              	.LVL138:
 2548 0064 2846     		mov	r0, r5
 2549 0066 3D49     		ldr	r1, .L189+32
 2550 0068 BA78     		ldrb	r2, [r7, #2]	@ zero_extendqisi2
 2551 006a FFF7FEFF 		bl	chprintf
 2552              	.LVL139:
ARM GAS  C:\Users\DNIEL~1\AppData\Local\Temp\ccaMIE7p.s 			page 46


 2553 006e 2846     		mov	r0, r5
 2554 0070 3A49     		ldr	r1, .L189+32
 2555 0072 FA78     		ldrb	r2, [r7, #3]	@ zero_extendqisi2
 2556 0074 FFF7FEFF 		bl	chprintf
 2557              	.LVL140:
 2558 0078 2846     		mov	r0, r5
 2559 007a 3849     		ldr	r1, .L189+32
 2560 007c 3A79     		ldrb	r2, [r7, #4]	@ zero_extendqisi2
 2561 007e FFF7FEFF 		bl	chprintf
 2562              	.LVL141:
 2563 0082 2846     		mov	r0, r5
 2564 0084 3549     		ldr	r1, .L189+32
 2565 0086 7A79     		ldrb	r2, [r7, #5]	@ zero_extendqisi2
 2566 0088 FFF7FEFF 		bl	chprintf
 2567              	.LVL142:
 2568 008c 2846     		mov	r0, r5
 2569 008e 3349     		ldr	r1, .L189+32
 2570 0090 BA79     		ldrb	r2, [r7, #6]	@ zero_extendqisi2
 2571 0092 FFF7FEFF 		bl	chprintf
 2572              	.LVL143:
 2573 0096 FA79     		ldrb	r2, [r7, #7]	@ zero_extendqisi2
 2574 0098 3049     		ldr	r1, .L189+32
 2575 009a 2846     		mov	r0, r5
 2576 009c FFF7FEFF 		bl	chprintf
 2577              	.LVL144:
 2578              		.loc 2 897 0
 2579 00a0 2846     		mov	r0, r5
 2580 00a2 2F49     		ldr	r1, .L189+36
 2581 00a4 FFF7FEFF 		bl	chprintf
 2582              		.loc 2 898 0
 2583 00a8 2846     		mov	r0, r5
 2584 00aa 2E49     		ldr	r1, .L189+40
 2585 00ac FFF7FEFF 		bl	chprintf
 2586              	.LVL145:
 2587              		.loc 2 901 0
 2588 00b0 2A49     		ldr	r1, .L189+32
 2589 00b2 2268     		ldr	r2, [r4, #0]
 2590 00b4 2846     		mov	r0, r5
 2591 00b6 FFF7FEFF 		bl	chprintf
 2592              	.LVL146:
 2593 00ba 2846     		mov	r0, r5
 2594 00bc 2749     		ldr	r1, .L189+32
 2595 00be 54F8042F 		ldr	r2, [r4, #4]!
 2596 00c2 FFF7FEFF 		bl	chprintf
 2597              	.L180:
 2598              		.loc 2 882 0 discriminator 2
 2599 00c6 271D     		adds	r7, r4, #4
 2600              		.loc 2 901 0 discriminator 2
 2601 00c8 6268     		ldr	r2, [r4, #4]
 2602 00ca 2449     		ldr	r1, .L189+32
 2603 00cc 2846     		mov	r0, r5
 2604 00ce FFF7FEFF 		bl	chprintf
 2605              		.loc 2 882 0 discriminator 2
 2606 00d2 0834     		adds	r4, r4, #8
 2607              		.loc 2 901 0 discriminator 2
 2608 00d4 2846     		mov	r0, r5
 2609 00d6 2149     		ldr	r1, .L189+32
ARM GAS  C:\Users\DNIEL~1\AppData\Local\Temp\ccaMIE7p.s 			page 47


 2610 00d8 7A68     		ldr	r2, [r7, #4]
 2611 00da FFF7FEFF 		bl	chprintf
 2612              		.loc 2 899 0 discriminator 2
 2613 00de B442     		cmp	r4, r6
 2614 00e0 F1D1     		bne	.L180
 2615              		.loc 2 903 0
 2616 00e2 2846     		mov	r0, r5
 2617 00e4 1E49     		ldr	r1, .L189+36
 2618 00e6 FFF7FEFF 		bl	chprintf
 2619              		.loc 2 904 0
 2620 00ea 1F4A     		ldr	r2, .L189+44
 2621 00ec 1F49     		ldr	r1, .L189+48
 2622 00ee 1278     		ldrb	r2, [r2, #0]	@ zero_extendqisi2
 2623 00f0 2846     		mov	r0, r5
 2624 00f2 FFF7FEFF 		bl	chprintf
 2625              		.loc 2 905 0
 2626 00f6 1E4B     		ldr	r3, .L189+52
 2627 00f8 1E49     		ldr	r1, .L189+56
 2628 00fa 1A68     		ldr	r2, [r3, #0]
 2629 00fc 2846     		mov	r0, r5
 2630 00fe FFF7FEFF 		bl	chprintf
 2631              		.loc 2 906 0
 2632 0102 1D48     		ldr	r0, .L189+60
 2633 0104 1D49     		ldr	r1, .L189+64
 2634 0106 0269     		ldr	r2, [r0, #16]
 2635 0108 2846     		mov	r0, r5
 2636 010a C2F34002 		ubfx	r2, r2, #1, #1
 2637 010e FFF7FEFF 		bl	chprintf
 2638              		.loc 2 907 0
 2639 0112 1B4B     		ldr	r3, .L189+68
 2640 0114 1B49     		ldr	r1, .L189+72
 2641 0116 1A78     		ldrb	r2, [r3, #0]	@ zero_extendqisi2
 2642 0118 2846     		mov	r0, r5
 2643 011a FFF7FEFF 		bl	chprintf
 2644              		.loc 2 909 0
 2645 011e 9620     		movs	r0, #150
 2646 0120 FFF7FEFF 		bl	chThdSleep
 2647              		.loc 2 889 0
 2648 0124 2968     		ldr	r1, [r5, #0]
 2649 0126 2846     		mov	r0, r5
 2650 0128 4B69     		ldr	r3, [r1, #20]
 2651 012a 0021     		movs	r1, #0
 2652 012c 9847     		blx	r3
 2653 012e B0F1FF3F 		cmp	r0, #-1
 2654 0132 3FF47BAF 		beq	.L181
 2655              	.L188:
 2656              		.loc 2 911 0
 2657 0136 BDE8F081 		pop	{r4, r5, r6, r7, r8, pc}
 2658              	.L190:
 2659 013a 00BF     		.align	2
 2660              	.L189:
 2661 013c 08000000 		.word	.LC1
 2662 0140 7C000000 		.word	.LANCHOR7+124
 2663 0144 0C000000 		.word	.LC2
 2664 0148 14000000 		.word	.LC3
 2665 014c 00000000 		.word	.LANCHOR13
 2666 0150 00000000 		.word	.LANCHOR7
ARM GAS  C:\Users\DNIEL~1\AppData\Local\Temp\ccaMIE7p.s 			page 48


 2667 0154 20000000 		.word	.LC4
 2668 0158 34000000 		.word	.LC5
 2669 015c 40000000 		.word	.LC6
 2670 0160 44000000 		.word	.LC7
 2671 0164 48000000 		.word	.LC8
 2672 0168 00000000 		.word	.LANCHOR6
 2673 016c 58000000 		.word	.LC9
 2674 0170 00000000 		.word	.LANCHOR0
 2675 0174 6C000000 		.word	.LC10
 2676 0178 00040240 		.word	1073873920
 2677 017c 7C000000 		.word	.LC11
 2678 0180 00000000 		.word	.LANCHOR4
 2679 0184 88000000 		.word	.LC12
 2680 0188 00000000 		.word	.LANCHOR1
 2681              		.cfi_endproc
 2682              	.LFE128:
 2683              		.size	cmd_dspvalues, .-cmd_dspvalues
 2684 018c AFF30080 		.section	.text.cmdfrappans_dspmessages,"ax",%progbits
 2685              		.align	2
 2686              		.p2align 4,,15
 2687              		.global	cmdfrappans_dspmessages
 2688              		.thumb
 2689              		.thumb_func
 2690              		.type	cmdfrappans_dspmessages, %function
 2691              	cmdfrappans_dspmessages:
 2692              	.LFB129:
 2693              		.loc 2 913 0
 2694              		.cfi_startproc
 2695              		@ args = 0, pretend = 0, frame = 0
 2696              		@ frame_needed = 0, uses_anonymous_args = 0
 2697              	.LVL147:
 2698 0000 70B5     		push	{r4, r5, r6, lr}
 2699              	.LCFI13:
 2700              		.cfi_def_cfa_offset 16
 2701              		.loc 2 913 0
 2702 0002 0446     		mov	r4, r0
 2703              		.cfi_offset 14, -4
 2704              		.cfi_offset 6, -8
 2705              		.cfi_offset 5, -12
 2706              		.cfi_offset 4, -16
 2707 0004 0D46     		mov	r5, r1
 2708              		.loc 2 917 0
 2709 0006 4149     		ldr	r1, .L203
 2710              	.LVL148:
 2711              		.loc 2 913 0
 2712 0008 1646     		mov	r6, r2
 2713              		.loc 2 917 0
 2714 000a FFF7FEFF 		bl	chprintf
 2715              	.LVL149:
 2716              		.loc 2 918 0
 2717 000e 2046     		mov	r0, r4
 2718 0010 3F49     		ldr	r1, .L203+4
 2719 0012 FFF7FEFF 		bl	chprintf
 2720              		.loc 2 919 0
 2721 0016 2168     		ldr	r1, [r4, #0]
 2722 0018 2046     		mov	r0, r4
 2723 001a 4B69     		ldr	r3, [r1, #20]
ARM GAS  C:\Users\DNIEL~1\AppData\Local\Temp\ccaMIE7p.s 			page 49


 2724 001c 0021     		movs	r1, #0
 2725 001e 9847     		blx	r3
 2726 0020 B0F1FF3F 		cmp	r0, #-1
 2727 0024 11D0     		beq	.L198
 2728              	.LVL150:
 2729              	.L192:
 2730              		.loc 2 964 0
 2731 0026 2046     		mov	r0, r4
 2732 0028 3A49     		ldr	r1, .L203+8
 2733 002a FFF7FEFF 		bl	chprintf
 2734              		.loc 2 965 0
 2735 002e 2046     		mov	r0, r4
 2736 0030 3949     		ldr	r1, .L203+12
 2737 0032 FFF7FEFF 		bl	chprintf
 2738              		.loc 2 966 0
 2739 0036 2046     		mov	r0, r4
 2740 0038 3849     		ldr	r1, .L203+16
 2741 003a FFF7FEFF 		bl	chprintf
 2742              		.loc 2 967 0
 2743 003e 3849     		ldr	r1, .L203+20
 2744 0040 2046     		mov	r0, r4
 2745              		.loc 2 971 0
 2746 0042 BDE87040 		pop	{r4, r5, r6, lr}
 2747              		.loc 2 967 0
 2748 0046 FFF7FEBF 		b	chprintf
 2749              	.LVL151:
 2750              	.L198:
 2751              	.LBB15:
 2752              		.loc 2 920 0
 2753 004a 0022     		movs	r2, #0
 2754 004c 2046     		mov	r0, r4
 2755 004e 3549     		ldr	r1, .L203+24
 2756 0050 1346     		mov	r3, r2
 2757 0052 FFF7FEFF 		bl	chprintf
 2758              		.loc 2 922 0
 2759 0056 012D     		cmp	r5, #1
 2760 0058 11D0     		beq	.L199
 2761              		.loc 2 952 0
 2762 005a 022D     		cmp	r5, #2
 2763 005c E3D1     		bne	.L192
 2764              		.loc 2 952 0 is_stmt 0 discriminator 1
 2765 005e 3068     		ldr	r0, [r6, #0]
 2766 0060 3149     		ldr	r1, .L203+28
 2767 0062 FFF7FEFF 		bl	strcmp
 2768 0066 0028     		cmp	r0, #0
 2769 0068 DDD1     		bne	.L192
 2770              	.LBB16:
 2771              		.loc 2 954 0 is_stmt 1
 2772 006a 2046     		mov	r0, r4
 2773 006c 2F49     		ldr	r1, .L203+32
 2774 006e FFF7FEFF 		bl	chprintf
 2775              		.loc 2 955 0
 2776 0072 7068     		ldr	r0, [r6, #4]
 2777 0074 FFF7FEFF 		bl	atol
 2778 0078 2D4A     		ldr	r2, .L203+36
 2779 007a 1060     		str	r0, [r2, #0]
 2780              	.LBE16:
ARM GAS  C:\Users\DNIEL~1\AppData\Local\Temp\ccaMIE7p.s 			page 50


 2781              	.LBE15:
 2782              		.loc 2 971 0
 2783 007c 70BD     		pop	{r4, r5, r6, pc}
 2784              	.L199:
 2785              	.LBB17:
 2786              		.loc 2 922 0 discriminator 1
 2787 007e 3568     		ldr	r5, [r6, #0]
 2788              	.LVL152:
 2789 0080 2C49     		ldr	r1, .L203+40
 2790 0082 2846     		mov	r0, r5
 2791 0084 FFF7FEFF 		bl	strcmp
 2792 0088 0028     		cmp	r0, #0
 2793 008a 1DD0     		beq	.L200
 2794              		.loc 2 929 0 discriminator 1
 2795 008c 2846     		mov	r0, r5
 2796 008e 2A49     		ldr	r1, .L203+44
 2797 0090 FFF7FEFF 		bl	strcmp
 2798 0094 0646     		mov	r6, r0
 2799              	.LVL153:
 2800 0096 0028     		cmp	r0, #0
 2801 0098 1ED0     		beq	.L201
 2802              		.loc 2 937 0 discriminator 1
 2803 009a 2846     		mov	r0, r5
 2804 009c 2749     		ldr	r1, .L203+48
 2805 009e FFF7FEFF 		bl	strcmp
 2806 00a2 0646     		mov	r6, r0
 2807 00a4 0028     		cmp	r0, #0
 2808 00a6 22D0     		beq	.L202
 2809              		.loc 2 946 0 discriminator 1
 2810 00a8 2846     		mov	r0, r5
 2811 00aa 2549     		ldr	r1, .L203+52
 2812 00ac FFF7FEFF 		bl	strcmp
 2813 00b0 0028     		cmp	r0, #0
 2814 00b2 B8D1     		bne	.L192
 2815              		.loc 2 948 0
 2816 00b4 2046     		mov	r0, r4
 2817 00b6 1D49     		ldr	r1, .L203+32
 2818 00b8 FFF7FEFF 		bl	chprintf
 2819              		.loc 2 949 0
 2820 00bc 4FF47840 		mov	r0, #63488
 2821              	.LBE17:
 2822              		.loc 2 971 0
 2823 00c0 BDE87040 		pop	{r4, r5, r6, lr}
 2824              	.LBB18:
 2825              		.loc 2 949 0
 2826 00c4 FFF7FEBF 		b	gfx_BGcolour
 2827              	.LVL154:
 2828              	.L200:
 2829              		.loc 2 924 0
 2830 00c8 2046     		mov	r0, r4
 2831 00ca 1E49     		ldr	r1, .L203+56
 2832 00cc FFF7FEFF 		bl	chprintf
 2833              	.LBE18:
 2834              		.loc 2 971 0
 2835 00d0 BDE87040 		pop	{r4, r5, r6, lr}
 2836              	.LBB19:
 2837              		.loc 2 925 0
ARM GAS  C:\Users\DNIEL~1\AppData\Local\Temp\ccaMIE7p.s 			page 51


 2838 00d4 FFF7FEBF 		b	gfx_Cls
 2839              	.LVL155:
 2840              	.L201:
 2841              		.loc 2 931 0
 2842 00d8 2046     		mov	r0, r4
 2843 00da 1B49     		ldr	r1, .L203+60
 2844 00dc FFF7FEFF 		bl	chprintf
 2845              		.loc 2 932 0
 2846 00e0 3046     		mov	r0, r6
 2847 00e2 41F6C111 		movw	r1, #6593
 2848              	.LBE19:
 2849              		.loc 2 971 0
 2850 00e6 BDE87040 		pop	{r4, r5, r6, lr}
 2851              	.LBB20:
 2852              		.loc 2 932 0
 2853 00ea FFF7FEBF 		b	media_SetSector
 2854              	.L202:
 2855              		.loc 2 939 0
 2856 00ee 2046     		mov	r0, r4
 2857 00f0 1649     		ldr	r1, .L203+64
 2858 00f2 FFF7FEFF 		bl	chprintf
 2859              		.loc 2 941 0
 2860 00f6 3046     		mov	r0, r6
 2861 00f8 41F6C111 		movw	r1, #6593
 2862 00fc FFF7FEFF 		bl	media_SetSector
 2863              		.loc 2 942 0
 2864 0100 3046     		mov	r0, r6
 2865 0102 3146     		mov	r1, r6
 2866              	.LBE20:
 2867              		.loc 2 971 0
 2868 0104 BDE87040 		pop	{r4, r5, r6, lr}
 2869              	.LBB21:
 2870              		.loc 2 942 0
 2871 0108 FFF7FEBF 		b	media_Image
 2872              	.L204:
 2873              		.align	2
 2874              	.L203:
 2875 010c 08000000 		.word	.LC1
 2876 0110 0C000000 		.word	.LC2
 2877 0114 74010000 		.word	.LC22
 2878 0118 84010000 		.word	.LC23
 2879 011c 94010000 		.word	.LC24
 2880 0120 A4010000 		.word	.LC25
 2881 0124 14000000 		.word	.LC3
 2882 0128 6C010000 		.word	.LC21
 2883 012c 40010000 		.word	.LC20
 2884 0130 00000000 		.word	.LANCHOR14
 2885 0134 98000000 		.word	.LC13
 2886 0138 CC000000 		.word	.LC15
 2887 013c 00010000 		.word	.LC17
 2888 0140 34010000 		.word	.LC19
 2889 0144 A0000000 		.word	.LC14
 2890 0148 D4000000 		.word	.LC16
 2891 014c 08010000 		.word	.LC18
 2892              	.LBE21:
 2893              		.cfi_endproc
 2894              	.LFE129:
ARM GAS  C:\Users\DNIEL~1\AppData\Local\Temp\ccaMIE7p.s 			page 52


 2895              		.size	cmdfrappans_dspmessages, .-cmdfrappans_dspmessages
 2896              		.global	db
 2897              		.global	db2
 2898              		.global	cruise_assis
 2899              		.global	dspstate
 2900              		.global	dspmessages
 2901              		.global	dsp_activ
 2902              		.global	c
 2903              		.section	.bss.bus_num,"aw",%nobits
 2904              		.align	2
 2905              		.set	.LANCHOR0,. + 0
 2906              		.type	bus_num, %object
 2907              		.size	bus_num, 4
 2908              	bus_num:
 2909 0000 00000000 		.space	4
 2910              		.section	.bss.danger,"aw",%nobits
 2911              		.align	1
 2912              		.set	.LANCHOR11,. + 0
 2913              		.type	danger, %object
 2914              		.size	danger, 2
 2915              	danger:
 2916 0000 0000     		.space	2
 2917              		.section	.bss.cruise_assis,"aw",%nobits
 2918              		.type	cruise_assis, %object
 2919              		.size	cruise_assis, 1
 2920              	cruise_assis:
 2921 0000 00       		.space	1
 2922              		.section	.bss.valasz,"aw",%nobits
 2923              		.set	.LANCHOR4,. + 0
 2924              		.type	valasz, %object
 2925              		.size	valasz, 1
 2926              	valasz:
 2927 0000 00       		.space	1
 2928              		.section	.bss.over_charge,"aw",%nobits
 2929              		.align	1
 2930              		.set	.LANCHOR8,. + 0
 2931              		.type	over_charge, %object
 2932              		.size	over_charge, 2
 2933              	over_charge:
 2934 0000 0000     		.space	2
 2935              		.section	.bss.discharge,"aw",%nobits
 2936              		.align	1
 2937              		.set	.LANCHOR9,. + 0
 2938              		.type	discharge, %object
 2939              		.size	discharge, 2
 2940              	discharge:
 2941 0000 0000     		.space	2
 2942              		.section	.bss.tasknumber,"aw",%nobits
 2943              		.align	2
 2944              		.set	.LANCHOR2,. + 0
 2945              		.type	tasknumber, %object
 2946              		.size	tasknumber, 4
 2947              	tasknumber:
 2948 0000 00000000 		.space	4
 2949              		.section	.bss.bus_status,"aw",%nobits
 2950              		.set	.LANCHOR1,. + 0
 2951              		.type	bus_status, %object
ARM GAS  C:\Users\DNIEL~1\AppData\Local\Temp\ccaMIE7p.s 			page 53


 2952              		.size	bus_status, 1
 2953              	bus_status:
 2954 0000 00       		.space	1
 2955              		.section	.bss.c,"aw",%nobits
 2956              		.type	c, %object
 2957              		.size	c, 1
 2958              	c:
 2959 0000 00       		.space	1
 2960              		.section	.bss.dsp_activ,"aw",%nobits
 2961              		.set	.LANCHOR5,. + 0
 2962              		.type	dsp_activ, %object
 2963              		.size	dsp_activ, 1
 2964              	dsp_activ:
 2965 0000 00       		.space	1
 2966              		.section	.bss.motor_temp,"aw",%nobits
 2967              		.align	1
 2968              		.set	.LANCHOR10,. + 0
 2969              		.type	motor_temp, %object
 2970              		.size	motor_temp, 2
 2971              	motor_temp:
 2972 0000 0000     		.space	2
 2973              		.section	.bss.wadspTask,"aw",%nobits
 2974              		.align	3
 2975              		.set	.LANCHOR12,. + 0
 2976              		.type	wadspTask, %object
 2977              		.size	wadspTask, 1232
 2978              	wadspTask:
 2979 0000 00000000 		.space	1232
 2979      00000000 
 2979      00000000 
 2979      00000000 
 2979      00000000 
 2980              		.section	.rodata.str1.4,"aMS",%progbits,1
 2981              		.align	2
 2982              	.LC0:
 2983 0000 64737054 		.ascii	"dspTask\000"
 2983      61736B00 
 2984              	.LC1:
 2985 0008 1B6300   		.ascii	"\033c\000"
 2986 000b 00       		.space	1
 2987              	.LC2:
 2988 000c 1B5B324A 		.ascii	"\033[2J\000"
 2988      00
 2989 0011 000000   		.space	3
 2990              	.LC3:
 2991 0014 1B5B2564 		.ascii	"\033[%d;%dH\000"
 2991      3B256448 
 2991      00
 2992 001d 000000   		.space	3
 2993              	.LC4:
 2994 0020 6275735F 		.ascii	"bus_status: %x\015\012\000"
 2994      73746174 
 2994      75733A20 
 2994      25780D0A 
 2994      00
 2995 0031 000000   		.space	3
 2996              	.LC5:
ARM GAS  C:\Users\DNIEL~1\AppData\Local\Temp\ccaMIE7p.s 			page 54


 2997 0034 6275735F 		.ascii	"bus_bit[]: \000"
 2997      6269745B 
 2997      5D3A2000 
 2998              	.LC6:
 2999 0040 25642000 		.ascii	"%d \000"
 3000              	.LC7:
 3001 0044 0D0A00   		.ascii	"\015\012\000"
 3002 0047 00       		.space	1
 3003              	.LC8:
 3004 0048 64737056 		.ascii	"dspValues[]: \000"
 3004      616C7565 
 3004      735B5D3A 
 3004      2000
 3005 0056 0000     		.space	2
 3006              	.LC9:
 3007 0058 6473706D 		.ascii	"dspmessages: %d\015\012\000"
 3007      65737361 
 3007      6765733A 
 3007      2025640D 
 3007      0A00
 3008 006a 0000     		.space	2
 3009              	.LC10:
 3010 006c 6275735F 		.ascii	"bus_num: %d\015\012\000"
 3010      6E756D3A 
 3010      2025640D 
 3010      0A00
 3011 007a 0000     		.space	2
 3012              	.LC11:
 3013 007c 42555437 		.ascii	"BUT7: %d\015\012\000"
 3013      3A202564 
 3013      0D0A00
 3014 0087 00       		.space	1
 3015              	.LC12:
 3016 0088 76616C61 		.ascii	"valasz: %d\015\012\000"
 3016      737A3A20 
 3016      25640D0A 
 3016      00
 3017 0095 000000   		.space	3
 3018              	.LC13:
 3019 0098 436C6561 		.ascii	"Clear\000"
 3019      7200
 3020 009e 0000     		.space	2
 3021              	.LC14:
 3022 00a0 2D2D2D2D 		.ascii	"-------------- dps clear --------------\015\012\000"
 3022      2D2D2D2D 
 3022      2D2D2D2D 
 3022      2D2D2064 
 3022      70732063 
 3023 00ca 0000     		.space	2
 3024              	.LC15:
 3025 00cc 53656374 		.ascii	"Sector\000"
 3025      6F7200
 3026 00d3 00       		.space	1
 3027              	.LC16:
 3028 00d4 2D2D2D2D 		.ascii	"--------------Set sector --------------\015\012\000"
 3028      2D2D2D2D 
 3028      2D2D2D2D 
ARM GAS  C:\Users\DNIEL~1\AppData\Local\Temp\ccaMIE7p.s 			page 55


 3028      2D2D5365 
 3028      74207365 
 3029 00fe 0000     		.space	2
 3030              	.LC17:
 3031 0100 496D6167 		.ascii	"Image\000"
 3031      6500
 3032 0106 0000     		.space	2
 3033              	.LC18:
 3034 0108 2D2D2D2D 		.ascii	"-------------- media Image --------------\015\012\000"
 3034      2D2D2D2D 
 3034      2D2D2D2D 
 3034      2D2D206D 
 3034      65646961 
 3035              	.LC19:
 3036 0134 4261636B 		.ascii	"Background\000"
 3036      67726F75 
 3036      6E6400
 3037 013f 00       		.space	1
 3038              	.LC20:
 3039 0140 2D2D2D2D 		.ascii	"-------------- Background --------------\015\012\000"
 3039      2D2D2D2D 
 3039      2D2D2D2D 
 3039      2D2D2042 
 3039      61636B67 
 3040 016b 00       		.space	1
 3041              	.LC21:
 3042 016c 53706565 		.ascii	"Speed\000"
 3042      6400
 3043 0172 0000     		.space	2
 3044              	.LC22:
 3045 0174 55736167 		.ascii	"Usage: Clear\015\012\000"
 3045      653A2043 
 3045      6C656172 
 3045      0D0A00
 3046 0183 00       		.space	1
 3047              	.LC23:
 3048 0184 20202020 		.ascii	"       Sector\015\012\000"
 3048      20202053 
 3048      6563746F 
 3048      720D0A00 
 3049              	.LC24:
 3050 0194 20202020 		.ascii	"       Image\015\012\000"
 3050      20202049 
 3050      6D616765 
 3050      0D0A00
 3051 01a3 00       		.space	1
 3052              	.LC25:
 3053 01a4 20202020 		.ascii	"       Background\015\012\000"
 3053      20202042 
 3053      61636B67 
 3053      726F756E 
 3053      640D0A00 
 3054              		.section	.data.db,"aw",%progbits
 3055              		.align	2
 3056              		.set	.LANCHOR14,. + 0
 3057              		.type	db, %object
 3058              		.size	db, 4
ARM GAS  C:\Users\DNIEL~1\AppData\Local\Temp\ccaMIE7p.s 			page 56


 3059              	db:
 3060 0000 7F000000 		.word	127
 3061              		.section	.bss.bus_bit,"aw",%nobits
 3062              		.align	2
 3063              		.set	.LANCHOR13,. + 0
 3064              		.type	bus_bit, %object
 3065              		.size	bus_bit, 8
 3066              	bus_bit:
 3067 0000 00000000 		.space	8
 3067      00000000 
 3068              		.section	.bss.db2,"aw",%nobits
 3069              		.align	2
 3070              		.type	db2, %object
 3071              		.size	db2, 4
 3072              	db2:
 3073 0000 00000000 		.space	4
 3074              		.section	.data.dspValue,"aw",%progbits
 3075              		.align	2
 3076              		.set	.LANCHOR7,. + 0
 3077              		.type	dspValue, %object
 3078              		.size	dspValue, 136
 3079              	dspValue:
 3080 0000 FFFFFFFF 		.word	-1
 3081 0004 00000000 		.space	132
 3081      00000000 
 3081      00000000 
 3081      00000000 
 3081      00000000 
 3082              		.section	.bss.dspmessages,"aw",%nobits
 3083              		.set	.LANCHOR6,. + 0
 3084              		.type	dspmessages, %object
 3085              		.size	dspmessages, 1
 3086              	dspmessages:
 3087 0000 00       		.space	1
 3088              		.section	.bss.dspstate,"aw",%nobits
 3089              		.set	.LANCHOR3,. + 0
 3090              		.type	dspstate, %object
 3091              		.size	dspstate, 1
 3092              	dspstate:
 3093 0000 00       		.space	1
 3094              		.text
 3095              	.Letext0:
 3096              		.section	.debug_loc,"",%progbits
 3097              	.Ldebug_loc0:
 3098              	.LLST0:
 3099 0000 00000000 		.4byte	.LFB118
 3100 0004 02000000 		.4byte	.LCFI0
 3101 0008 0200     		.2byte	0x2
 3102 000a 7D       		.byte	0x7d
 3103 000b 00       		.sleb128 0
 3104 000c 02000000 		.4byte	.LCFI0
 3105 0010 04000000 		.4byte	.LCFI1
 3106 0014 0200     		.2byte	0x2
 3107 0016 7D       		.byte	0x7d
 3108 0017 0C       		.sleb128 12
 3109 0018 04000000 		.4byte	.LCFI1
 3110 001c 06000000 		.4byte	.LCFI2
ARM GAS  C:\Users\DNIEL~1\AppData\Local\Temp\ccaMIE7p.s 			page 57


 3111 0020 0200     		.2byte	0x2
 3112 0022 7D       		.byte	0x7d
 3113 0023 10       		.sleb128 16
 3114 0024 06000000 		.4byte	.LCFI2
 3115 0028 1E000000 		.4byte	.LFE118
 3116 002c 0200     		.2byte	0x2
 3117 002e 7D       		.byte	0x7d
 3118 002f 18       		.sleb128 24
 3119 0030 00000000 		.4byte	0x0
 3120 0034 00000000 		.4byte	0x0
 3121              	.LLST1:
 3122 0038 00000000 		.4byte	.LVL0
 3123 003c 13000000 		.4byte	.LVL1-1
 3124 0040 0100     		.2byte	0x1
 3125 0042 50       		.byte	0x50
 3126 0043 00000000 		.4byte	0x0
 3127 0047 00000000 		.4byte	0x0
 3128              	.LLST2:
 3129 004b 00000000 		.4byte	.LFB123
 3130 004f 04000000 		.4byte	.LCFI3
 3131 0053 0200     		.2byte	0x2
 3132 0055 7D       		.byte	0x7d
 3133 0056 00       		.sleb128 0
 3134 0057 04000000 		.4byte	.LCFI3
 3135 005b 2C000000 		.4byte	.LCFI4
 3136 005f 0200     		.2byte	0x2
 3137 0061 7D       		.byte	0x7d
 3138 0062 24       		.sleb128 36
 3139 0063 2C000000 		.4byte	.LCFI4
 3140 0067 F60B0000 		.4byte	.LFE123
 3141 006b 0200     		.2byte	0x2
 3142 006d 7D       		.byte	0x7d
 3143 006e 30       		.sleb128 48
 3144 006f 00000000 		.4byte	0x0
 3145 0073 00000000 		.4byte	0x0
 3146              	.LLST3:
 3147 0077 00000000 		.4byte	.LVL2
 3148 007b 06000000 		.4byte	.LVL3
 3149 007f 0100     		.2byte	0x1
 3150 0081 50       		.byte	0x50
 3151 0082 00000000 		.4byte	0x0
 3152 0086 00000000 		.4byte	0x0
 3153              	.LLST4:
 3154 008a E0000000 		.4byte	.LVL4
 3155 008e E4000000 		.4byte	.LVL5
 3156 0092 0100     		.2byte	0x1
 3157 0094 53       		.byte	0x53
 3158 0095 02010000 		.4byte	.LVL6
 3159 0099 0C010000 		.4byte	.LVL7
 3160 009d 0200     		.2byte	0x2
 3161 009f 32       		.byte	0x32
 3162 00a0 9F       		.byte	0x9f
 3163 00a1 10010000 		.4byte	.LVL8
 3164 00a5 2B010000 		.4byte	.LVL9-1
 3165 00a9 0100     		.2byte	0x1
 3166 00ab 53       		.byte	0x53
 3167 00ac 6E010000 		.4byte	.LVL10
ARM GAS  C:\Users\DNIEL~1\AppData\Local\Temp\ccaMIE7p.s 			page 58


 3168 00b0 76010000 		.4byte	.LVL11
 3169 00b4 0100     		.2byte	0x1
 3170 00b6 53       		.byte	0x53
 3171 00b7 84010000 		.4byte	.LVL12
 3172 00bb 8E010000 		.4byte	.LVL13
 3173 00bf 0200     		.2byte	0x2
 3174 00c1 30       		.byte	0x30
 3175 00c2 9F       		.byte	0x9f
 3176 00c3 8E010000 		.4byte	.LVL13
 3177 00c7 BE010000 		.4byte	.LVL14
 3178 00cb 0200     		.2byte	0x2
 3179 00cd 32       		.byte	0x32
 3180 00ce 9F       		.byte	0x9f
 3181 00cf BE010000 		.4byte	.LVL14
 3182 00d3 C0010000 		.4byte	.LVL15
 3183 00d7 0100     		.2byte	0x1
 3184 00d9 53       		.byte	0x53
 3185 00da E2010000 		.4byte	.LVL16
 3186 00de EC010000 		.4byte	.LVL17
 3187 00e2 0200     		.2byte	0x2
 3188 00e4 32       		.byte	0x32
 3189 00e5 9F       		.byte	0x9f
 3190 00e6 F4010000 		.4byte	.LVL18
 3191 00ea 07020000 		.4byte	.LVL19-1
 3192 00ee 0100     		.2byte	0x1
 3193 00f0 53       		.byte	0x53
 3194 00f1 1C020000 		.4byte	.LVL20
 3195 00f5 24020000 		.4byte	.LVL21
 3196 00f9 0100     		.2byte	0x1
 3197 00fb 53       		.byte	0x53
 3198 00fc 46020000 		.4byte	.LVL22
 3199 0100 50020000 		.4byte	.LVL23
 3200 0104 0200     		.2byte	0x2
 3201 0106 32       		.byte	0x32
 3202 0107 9F       		.byte	0x9f
 3203 0108 58020000 		.4byte	.LVL24
 3204 010c 6B020000 		.4byte	.LVL25-1
 3205 0110 0100     		.2byte	0x1
 3206 0112 53       		.byte	0x53
 3207 0113 C4020000 		.4byte	.LVL26
 3208 0117 C6020000 		.4byte	.LVL27
 3209 011b 0100     		.2byte	0x1
 3210 011d 53       		.byte	0x53
 3211 011e E0020000 		.4byte	.LVL28
 3212 0122 F1020000 		.4byte	.LVL29-1
 3213 0126 0100     		.2byte	0x1
 3214 0128 53       		.byte	0x53
 3215 0129 FE020000 		.4byte	.LVL30
 3216 012d 04030000 		.4byte	.LVL31
 3217 0131 0100     		.2byte	0x1
 3218 0133 53       		.byte	0x53
 3219 0134 18030000 		.4byte	.LVL32
 3220 0138 2B030000 		.4byte	.LVL33-1
 3221 013c 0100     		.2byte	0x1
 3222 013e 53       		.byte	0x53
 3223 013f 38030000 		.4byte	.LVL34
 3224 0143 3A030000 		.4byte	.LVL35
ARM GAS  C:\Users\DNIEL~1\AppData\Local\Temp\ccaMIE7p.s 			page 59


 3225 0147 0100     		.2byte	0x1
 3226 0149 53       		.byte	0x53
 3227 014a 4C030000 		.4byte	.LVL36
 3228 014e 67030000 		.4byte	.LVL37-1
 3229 0152 0100     		.2byte	0x1
 3230 0154 53       		.byte	0x53
 3231 0155 74030000 		.4byte	.LVL38
 3232 0159 7A030000 		.4byte	.LVL39
 3233 015d 0100     		.2byte	0x1
 3234 015f 53       		.byte	0x53
 3235 0160 88030000 		.4byte	.LVL40
 3236 0164 A3030000 		.4byte	.LVL41-1
 3237 0168 0100     		.2byte	0x1
 3238 016a 53       		.byte	0x53
 3239 016b B0030000 		.4byte	.LVL42
 3240 016f B4030000 		.4byte	.LVL43
 3241 0173 0100     		.2byte	0x1
 3242 0175 53       		.byte	0x53
 3243 0176 C8030000 		.4byte	.LVL44
 3244 017a D2030000 		.4byte	.LVL45
 3245 017e 0100     		.2byte	0x1
 3246 0180 50       		.byte	0x50
 3247 0181 D2030000 		.4byte	.LVL45
 3248 0185 DB030000 		.4byte	.LVL46-1
 3249 0189 0100     		.2byte	0x1
 3250 018b 53       		.byte	0x53
 3251 018c 00040000 		.4byte	.LVL47
 3252 0190 06040000 		.4byte	.LVL48
 3253 0194 0100     		.2byte	0x1
 3254 0196 53       		.byte	0x53
 3255 0197 32040000 		.4byte	.LVL52
 3256 019b 45040000 		.4byte	.LVL53-1
 3257 019f 0100     		.2byte	0x1
 3258 01a1 53       		.byte	0x53
 3259 01a2 50040000 		.4byte	.LVL54
 3260 01a6 54040000 		.4byte	.LVL55
 3261 01aa 0400     		.2byte	0x4
 3262 01ac 0A       		.byte	0xa
 3263 01ad E303     		.2byte	0x3e3
 3264 01af 9F       		.byte	0x9f
 3265 01b0 6E040000 		.4byte	.LVL56
 3266 01b4 74040000 		.4byte	.LVL57
 3267 01b8 0100     		.2byte	0x1
 3268 01ba 53       		.byte	0x53
 3269 01bb 94040000 		.4byte	.LVL58
 3270 01bf 9A040000 		.4byte	.LVL59
 3271 01c3 0100     		.2byte	0x1
 3272 01c5 50       		.byte	0x50
 3273 01c6 A0040000 		.4byte	.LVL60
 3274 01ca AE040000 		.4byte	.LVL61
 3275 01ce 0100     		.2byte	0x1
 3276 01d0 50       		.byte	0x50
 3277 01d1 AE040000 		.4byte	.LVL61
 3278 01d5 B6040000 		.4byte	.LVL62
 3279 01d9 0800     		.2byte	0x8
 3280 01db 7C       		.byte	0x7c
 3281 01dc 00       		.sleb128 0
ARM GAS  C:\Users\DNIEL~1\AppData\Local\Temp\ccaMIE7p.s 			page 60


 3282 01dd 36       		.byte	0x36
 3283 01de 26       		.byte	0x26
 3284 01df 72       		.byte	0x72
 3285 01e0 00       		.sleb128 0
 3286 01e1 1C       		.byte	0x1c
 3287 01e2 9F       		.byte	0x9f
 3288 01e3 08050000 		.4byte	.LVL63
 3289 01e7 1D050000 		.4byte	.LVL64-1
 3290 01eb 0100     		.2byte	0x1
 3291 01ed 53       		.byte	0x53
 3292 01ee 42050000 		.4byte	.LVL65
 3293 01f2 52050000 		.4byte	.LVL66
 3294 01f6 0100     		.2byte	0x1
 3295 01f8 50       		.byte	0x50
 3296 01f9 8C050000 		.4byte	.LVL67
 3297 01fd 90050000 		.4byte	.LVL68
 3298 0201 0100     		.2byte	0x1
 3299 0203 50       		.byte	0x50
 3300 0204 90050000 		.4byte	.LVL68
 3301 0208 9A050000 		.4byte	.LVL69
 3302 020c 0100     		.2byte	0x1
 3303 020e 53       		.byte	0x53
 3304 020f 9A050000 		.4byte	.LVL69
 3305 0213 B2050000 		.4byte	.LVL70
 3306 0217 0100     		.2byte	0x1
 3307 0219 52       		.byte	0x52
 3308 021a EC050000 		.4byte	.LVL71
 3309 021e F2050000 		.4byte	.LVL72
 3310 0222 0100     		.2byte	0x1
 3311 0224 50       		.byte	0x50
 3312 0225 F2050000 		.4byte	.LVL72
 3313 0229 FC050000 		.4byte	.LVL73
 3314 022d 0100     		.2byte	0x1
 3315 022f 50       		.byte	0x50
 3316 0230 FC050000 		.4byte	.LVL73
 3317 0234 14060000 		.4byte	.LVL74
 3318 0238 0100     		.2byte	0x1
 3319 023a 52       		.byte	0x52
 3320 023b 40060000 		.4byte	.LVL75
 3321 023f 46060000 		.4byte	.LVL76
 3322 0243 0100     		.2byte	0x1
 3323 0245 50       		.byte	0x50
 3324 0246 5A060000 		.4byte	.LVL77
 3325 024a 64060000 		.4byte	.LVL78
 3326 024e 0100     		.2byte	0x1
 3327 0250 50       		.byte	0x50
 3328 0251 64060000 		.4byte	.LVL78
 3329 0255 6D060000 		.4byte	.LVL79-1
 3330 0259 0100     		.2byte	0x1
 3331 025b 53       		.byte	0x53
 3332 025c A4060000 		.4byte	.LVL80
 3333 0260 AA060000 		.4byte	.LVL81
 3334 0264 0100     		.2byte	0x1
 3335 0266 50       		.byte	0x50
 3336 0267 BE060000 		.4byte	.LVL82
 3337 026b C6060000 		.4byte	.LVL83
 3338 026f 0100     		.2byte	0x1
ARM GAS  C:\Users\DNIEL~1\AppData\Local\Temp\ccaMIE7p.s 			page 61


 3339 0271 50       		.byte	0x50
 3340 0272 C6060000 		.4byte	.LVL83
 3341 0276 CF060000 		.4byte	.LVL84-1
 3342 027a 0100     		.2byte	0x1
 3343 027c 53       		.byte	0x53
 3344 027d 44070000 		.4byte	.LVL85
 3345 0281 59070000 		.4byte	.LVL86-1
 3346 0285 0100     		.2byte	0x1
 3347 0287 53       		.byte	0x53
 3348 0288 64070000 		.4byte	.LVL87
 3349 028c 66070000 		.4byte	.LVL88
 3350 0290 0100     		.2byte	0x1
 3351 0292 50       		.byte	0x50
 3352 0293 66070000 		.4byte	.LVL88
 3353 0297 6A070000 		.4byte	.LVL89
 3354 029b 0100     		.2byte	0x1
 3355 029d 53       		.byte	0x53
 3356 029e 7E070000 		.4byte	.LVL90
 3357 02a2 88070000 		.4byte	.LVL91
 3358 02a6 0100     		.2byte	0x1
 3359 02a8 50       		.byte	0x50
 3360 02a9 88070000 		.4byte	.LVL91
 3361 02ad 91070000 		.4byte	.LVL92-1
 3362 02b1 0100     		.2byte	0x1
 3363 02b3 53       		.byte	0x53
 3364 02b4 BC070000 		.4byte	.LVL93
 3365 02b8 C2070000 		.4byte	.LVL94
 3366 02bc 0100     		.2byte	0x1
 3367 02be 53       		.byte	0x53
 3368 02bf DA070000 		.4byte	.LVL95
 3369 02c3 EB070000 		.4byte	.LVL96-1
 3370 02c7 0100     		.2byte	0x1
 3371 02c9 53       		.byte	0x53
 3372 02ca 36080000 		.4byte	.LVL97
 3373 02ce 49080000 		.4byte	.LVL98-1
 3374 02d2 0100     		.2byte	0x1
 3375 02d4 53       		.byte	0x53
 3376 02d5 88080000 		.4byte	.LVL99
 3377 02d9 9C080000 		.4byte	.LVL100
 3378 02dd 0100     		.2byte	0x1
 3379 02df 52       		.byte	0x52
 3380 02e0 E6080000 		.4byte	.LVL101
 3381 02e4 F7080000 		.4byte	.LVL102-1
 3382 02e8 0100     		.2byte	0x1
 3383 02ea 53       		.byte	0x53
 3384 02eb 5A090000 		.4byte	.LVL103
 3385 02ef 8A090000 		.4byte	.LVL104
 3386 02f3 0400     		.2byte	0x4
 3387 02f5 0A       		.byte	0xa
 3388 02f6 E303     		.2byte	0x3e3
 3389 02f8 9F       		.byte	0x9f
 3390 02f9 9E090000 		.4byte	.LVL105
 3391 02fd B0090000 		.4byte	.LVL106
 3392 0301 0100     		.2byte	0x1
 3393 0303 51       		.byte	0x51
 3394 0304 E6090000 		.4byte	.LVL107
 3395 0308 EC090000 		.4byte	.LVL108
ARM GAS  C:\Users\DNIEL~1\AppData\Local\Temp\ccaMIE7p.s 			page 62


 3396 030c 0100     		.2byte	0x1
 3397 030e 53       		.byte	0x53
 3398 030f 220A0000 		.4byte	.LVL109
 3399 0313 300A0000 		.4byte	.LVL110
 3400 0317 0100     		.2byte	0x1
 3401 0319 52       		.byte	0x52
 3402 031a 4C0A0000 		.4byte	.LVL111
 3403 031e 7C0A0000 		.4byte	.LVL112
 3404 0322 0400     		.2byte	0x4
 3405 0324 0A       		.byte	0xa
 3406 0325 E303     		.2byte	0x3e3
 3407 0327 9F       		.byte	0x9f
 3408 0328 820A0000 		.4byte	.LVL113
 3409 032c 9E0A0000 		.4byte	.LVL114
 3410 0330 0100     		.2byte	0x1
 3411 0332 52       		.byte	0x52
 3412 0333 9E0A0000 		.4byte	.LVL114
 3413 0337 AD0A0000 		.4byte	.LVL115-1
 3414 033b 0100     		.2byte	0x1
 3415 033d 53       		.byte	0x53
 3416 033e C40A0000 		.4byte	.LVL116
 3417 0342 F20A0000 		.4byte	.LVL117
 3418 0346 0400     		.2byte	0x4
 3419 0348 0A       		.byte	0xa
 3420 0349 E303     		.2byte	0x3e3
 3421 034b 9F       		.byte	0x9f
 3422 034c 040B0000 		.4byte	.LVL118
 3423 0350 120B0000 		.4byte	.LVL119
 3424 0354 0200     		.2byte	0x2
 3425 0356 31       		.byte	0x31
 3426 0357 9F       		.byte	0x9f
 3427 0358 1E0B0000 		.4byte	.LVL120
 3428 035c 240B0000 		.4byte	.LVL121
 3429 0360 0100     		.2byte	0x1
 3430 0362 52       		.byte	0x52
 3431 0363 240B0000 		.4byte	.LVL121
 3432 0367 3A0B0000 		.4byte	.LVL122
 3433 036b 0100     		.2byte	0x1
 3434 036d 53       		.byte	0x53
 3435 036e 520B0000 		.4byte	.LVL123
 3436 0372 620B0000 		.4byte	.LVL124
 3437 0376 0400     		.2byte	0x4
 3438 0378 0A       		.byte	0xa
 3439 0379 E303     		.2byte	0x3e3
 3440 037b 9F       		.byte	0x9f
 3441 037c 620B0000 		.4byte	.LVL124
 3442 0380 6C0B0000 		.4byte	.LVL125
 3443 0384 0100     		.2byte	0x1
 3444 0386 53       		.byte	0x53
 3445 0387 C60B0000 		.4byte	.LVL126
 3446 038b CA0B0000 		.4byte	.LVL127
 3447 038f 0100     		.2byte	0x1
 3448 0391 50       		.byte	0x50
 3449 0392 E40B0000 		.4byte	.LVL128
 3450 0396 F60B0000 		.4byte	.LFE123
 3451 039a 0200     		.2byte	0x2
 3452 039c 32       		.byte	0x32
ARM GAS  C:\Users\DNIEL~1\AppData\Local\Temp\ccaMIE7p.s 			page 63


 3453 039d 9F       		.byte	0x9f
 3454 039e 00000000 		.4byte	0x0
 3455 03a2 00000000 		.4byte	0x0
 3456              	.LLST5:
 3457 03a6 74030000 		.4byte	.LVL38
 3458 03aa 7A030000 		.4byte	.LVL39
 3459 03ae 0100     		.2byte	0x1
 3460 03b0 53       		.byte	0x53
 3461 03b1 0C040000 		.4byte	.LVL49
 3462 03b5 1A040000 		.4byte	.LVL50
 3463 03b9 0100     		.2byte	0x1
 3464 03bb 50       		.byte	0x50
 3465 03bc 1A040000 		.4byte	.LVL50
 3466 03c0 20040000 		.4byte	.LVL51
 3467 03c4 0100     		.2byte	0x1
 3468 03c6 51       		.byte	0x51
 3469 03c7 32040000 		.4byte	.LVL52
 3470 03cb 45040000 		.4byte	.LVL53-1
 3471 03cf 0100     		.2byte	0x1
 3472 03d1 53       		.byte	0x53
 3473 03d2 00000000 		.4byte	0x0
 3474 03d6 00000000 		.4byte	0x0
 3475              	.LLST6:
 3476 03da 00000000 		.4byte	.LFB119
 3477 03de 02000000 		.4byte	.LCFI5
 3478 03e2 0200     		.2byte	0x2
 3479 03e4 7D       		.byte	0x7d
 3480 03e5 00       		.sleb128 0
 3481 03e6 02000000 		.4byte	.LCFI5
 3482 03ea D0000000 		.4byte	.LFE119
 3483 03ee 0200     		.2byte	0x2
 3484 03f0 7D       		.byte	0x7d
 3485 03f1 08       		.sleb128 8
 3486 03f2 00000000 		.4byte	0x0
 3487 03f6 00000000 		.4byte	0x0
 3488              	.LLST7:
 3489 03fa 00000000 		.4byte	.LFB120
 3490 03fe 02000000 		.4byte	.LCFI6
 3491 0402 0200     		.2byte	0x2
 3492 0404 7D       		.byte	0x7d
 3493 0405 00       		.sleb128 0
 3494 0406 02000000 		.4byte	.LCFI6
 3495 040a 74000000 		.4byte	.LFE120
 3496 040e 0200     		.2byte	0x2
 3497 0410 7D       		.byte	0x7d
 3498 0411 08       		.sleb128 8
 3499 0412 00000000 		.4byte	0x0
 3500 0416 00000000 		.4byte	0x0
 3501              	.LLST8:
 3502 041a 00000000 		.4byte	.LFB121
 3503 041e 02000000 		.4byte	.LCFI7
 3504 0422 0200     		.2byte	0x2
 3505 0424 7D       		.byte	0x7d
 3506 0425 00       		.sleb128 0
 3507 0426 02000000 		.4byte	.LCFI7
 3508 042a 08000000 		.4byte	.LCFI8
 3509 042e 0200     		.2byte	0x2
ARM GAS  C:\Users\DNIEL~1\AppData\Local\Temp\ccaMIE7p.s 			page 64


 3510 0430 7D       		.byte	0x7d
 3511 0431 08       		.sleb128 8
 3512 0432 08000000 		.4byte	.LCFI8
 3513 0436 24010000 		.4byte	.LFE121
 3514 043a 0200     		.2byte	0x2
 3515 043c 7D       		.byte	0x7d
 3516 043d 10       		.sleb128 16
 3517 043e 00000000 		.4byte	0x0
 3518 0442 00000000 		.4byte	0x0
 3519              	.LLST9:
 3520 0446 00000000 		.4byte	.LFB122
 3521 044a 02000000 		.4byte	.LCFI9
 3522 044e 0200     		.2byte	0x2
 3523 0450 7D       		.byte	0x7d
 3524 0451 00       		.sleb128 0
 3525 0452 02000000 		.4byte	.LCFI9
 3526 0456 F8000000 		.4byte	.LFE122
 3527 045a 0200     		.2byte	0x2
 3528 045c 7D       		.byte	0x7d
 3529 045d 10       		.sleb128 16
 3530 045e 00000000 		.4byte	0x0
 3531 0462 00000000 		.4byte	0x0
 3532              	.LLST10:
 3533 0466 00000000 		.4byte	.LVL129
 3534 046a 06000000 		.4byte	.LVL130
 3535 046e 0100     		.2byte	0x1
 3536 0470 50       		.byte	0x50
 3537 0471 06000000 		.4byte	.LVL130
 3538 0475 F8000000 		.4byte	.LFE122
 3539 0479 0100     		.2byte	0x1
 3540 047b 54       		.byte	0x54
 3541 047c 00000000 		.4byte	0x0
 3542 0480 00000000 		.4byte	0x0
 3543              	.LLST11:
 3544 0484 00000000 		.4byte	.LFB124
 3545 0488 02000000 		.4byte	.LCFI10
 3546 048c 0200     		.2byte	0x2
 3547 048e 7D       		.byte	0x7d
 3548 048f 00       		.sleb128 0
 3549 0490 02000000 		.4byte	.LCFI10
 3550 0494 06000000 		.4byte	.LCFI11
 3551 0498 0200     		.2byte	0x2
 3552 049a 7D       		.byte	0x7d
 3553 049b 0C       		.sleb128 12
 3554 049c 06000000 		.4byte	.LCFI11
 3555 04a0 5C000000 		.4byte	.LFE124
 3556 04a4 0200     		.2byte	0x2
 3557 04a6 7D       		.byte	0x7d
 3558 04a7 18       		.sleb128 24
 3559 04a8 00000000 		.4byte	0x0
 3560 04ac 00000000 		.4byte	0x0
 3561              	.LLST12:
 3562 04b0 00000000 		.4byte	.LVL131
 3563 04b4 08000000 		.4byte	.LVL132
 3564 04b8 0100     		.2byte	0x1
 3565 04ba 50       		.byte	0x50
 3566 04bb 00000000 		.4byte	0x0
ARM GAS  C:\Users\DNIEL~1\AppData\Local\Temp\ccaMIE7p.s 			page 65


 3567 04bf 00000000 		.4byte	0x0
 3568              	.LLST13:
 3569 04c3 00000000 		.4byte	.LFB128
 3570 04c7 04000000 		.4byte	.LCFI12
 3571 04cb 0200     		.2byte	0x2
 3572 04cd 7D       		.byte	0x7d
 3573 04ce 00       		.sleb128 0
 3574 04cf 04000000 		.4byte	.LCFI12
 3575 04d3 8C010000 		.4byte	.LFE128
 3576 04d7 0200     		.2byte	0x2
 3577 04d9 7D       		.byte	0x7d
 3578 04da 18       		.sleb128 24
 3579 04db 00000000 		.4byte	0x0
 3580 04df 00000000 		.4byte	0x0
 3581              	.LLST14:
 3582 04e3 00000000 		.4byte	.LVL133
 3583 04e7 11000000 		.4byte	.LVL135-1
 3584 04eb 0100     		.2byte	0x1
 3585 04ed 50       		.byte	0x50
 3586 04ee 11000000 		.4byte	.LVL135-1
 3587 04f2 8C010000 		.4byte	.LFE128
 3588 04f6 0100     		.2byte	0x1
 3589 04f8 55       		.byte	0x55
 3590 04f9 00000000 		.4byte	0x0
 3591 04fd 00000000 		.4byte	0x0
 3592              	.LLST15:
 3593 0501 00000000 		.4byte	.LVL133
 3594 0505 06000000 		.4byte	.LVL134
 3595 0509 0100     		.2byte	0x1
 3596 050b 51       		.byte	0x51
 3597 050c 00000000 		.4byte	0x0
 3598 0510 00000000 		.4byte	0x0
 3599              	.LLST16:
 3600 0514 00000000 		.4byte	.LVL133
 3601 0518 11000000 		.4byte	.LVL135-1
 3602 051c 0100     		.2byte	0x1
 3603 051e 52       		.byte	0x52
 3604 051f 00000000 		.4byte	0x0
 3605 0523 00000000 		.4byte	0x0
 3606              	.LLST17:
 3607 0527 50000000 		.4byte	.LVL136
 3608 052b 5A000000 		.4byte	.LVL137
 3609 052f 0200     		.2byte	0x2
 3610 0531 30       		.byte	0x30
 3611 0532 9F       		.byte	0x9f
 3612 0533 5A000000 		.4byte	.LVL137
 3613 0537 64000000 		.4byte	.LVL138
 3614 053b 0200     		.2byte	0x2
 3615 053d 31       		.byte	0x31
 3616 053e 9F       		.byte	0x9f
 3617 053f 64000000 		.4byte	.LVL138
 3618 0543 6E000000 		.4byte	.LVL139
 3619 0547 0200     		.2byte	0x2
 3620 0549 32       		.byte	0x32
 3621 054a 9F       		.byte	0x9f
 3622 054b 6E000000 		.4byte	.LVL139
 3623 054f 78000000 		.4byte	.LVL140
ARM GAS  C:\Users\DNIEL~1\AppData\Local\Temp\ccaMIE7p.s 			page 66


 3624 0553 0200     		.2byte	0x2
 3625 0555 33       		.byte	0x33
 3626 0556 9F       		.byte	0x9f
 3627 0557 78000000 		.4byte	.LVL140
 3628 055b 82000000 		.4byte	.LVL141
 3629 055f 0200     		.2byte	0x2
 3630 0561 34       		.byte	0x34
 3631 0562 9F       		.byte	0x9f
 3632 0563 82000000 		.4byte	.LVL141
 3633 0567 8C000000 		.4byte	.LVL142
 3634 056b 0200     		.2byte	0x2
 3635 056d 35       		.byte	0x35
 3636 056e 9F       		.byte	0x9f
 3637 056f 8C000000 		.4byte	.LVL142
 3638 0573 96000000 		.4byte	.LVL143
 3639 0577 0200     		.2byte	0x2
 3640 0579 36       		.byte	0x36
 3641 057a 9F       		.byte	0x9f
 3642 057b 96000000 		.4byte	.LVL143
 3643 057f A0000000 		.4byte	.LVL144
 3644 0583 0200     		.2byte	0x2
 3645 0585 37       		.byte	0x37
 3646 0586 9F       		.byte	0x9f
 3647 0587 A0000000 		.4byte	.LVL144
 3648 058b B0000000 		.4byte	.LVL145
 3649 058f 0200     		.2byte	0x2
 3650 0591 38       		.byte	0x38
 3651 0592 9F       		.byte	0x9f
 3652 0593 B0000000 		.4byte	.LVL145
 3653 0597 BA000000 		.4byte	.LVL146
 3654 059b 0200     		.2byte	0x2
 3655 059d 30       		.byte	0x30
 3656 059e 9F       		.byte	0x9f
 3657 059f 00000000 		.4byte	0x0
 3658 05a3 00000000 		.4byte	0x0
 3659              	.LLST18:
 3660 05a7 00000000 		.4byte	.LFB129
 3661 05ab 02000000 		.4byte	.LCFI13
 3662 05af 0200     		.2byte	0x2
 3663 05b1 7D       		.byte	0x7d
 3664 05b2 00       		.sleb128 0
 3665 05b3 02000000 		.4byte	.LCFI13
 3666 05b7 50010000 		.4byte	.LFE129
 3667 05bb 0200     		.2byte	0x2
 3668 05bd 7D       		.byte	0x7d
 3669 05be 10       		.sleb128 16
 3670 05bf 00000000 		.4byte	0x0
 3671 05c3 00000000 		.4byte	0x0
 3672              	.LLST19:
 3673 05c7 00000000 		.4byte	.LVL147
 3674 05cb 0D000000 		.4byte	.LVL149-1
 3675 05cf 0100     		.2byte	0x1
 3676 05d1 50       		.byte	0x50
 3677 05d2 0D000000 		.4byte	.LVL149-1
 3678 05d6 50010000 		.4byte	.LFE129
 3679 05da 0100     		.2byte	0x1
 3680 05dc 54       		.byte	0x54
ARM GAS  C:\Users\DNIEL~1\AppData\Local\Temp\ccaMIE7p.s 			page 67


 3681 05dd 00000000 		.4byte	0x0
 3682 05e1 00000000 		.4byte	0x0
 3683              	.LLST20:
 3684 05e5 00000000 		.4byte	.LVL147
 3685 05e9 08000000 		.4byte	.LVL148
 3686 05ed 0100     		.2byte	0x1
 3687 05ef 51       		.byte	0x51
 3688 05f0 08000000 		.4byte	.LVL148
 3689 05f4 26000000 		.4byte	.LVL150
 3690 05f8 0100     		.2byte	0x1
 3691 05fa 55       		.byte	0x55
 3692 05fb 4A000000 		.4byte	.LVL151
 3693 05ff 80000000 		.4byte	.LVL152
 3694 0603 0100     		.2byte	0x1
 3695 0605 55       		.byte	0x55
 3696 0606 00000000 		.4byte	0x0
 3697 060a 00000000 		.4byte	0x0
 3698              	.LLST21:
 3699 060e 00000000 		.4byte	.LVL147
 3700 0612 0D000000 		.4byte	.LVL149-1
 3701 0616 0100     		.2byte	0x1
 3702 0618 52       		.byte	0x52
 3703 0619 0D000000 		.4byte	.LVL149-1
 3704 061d 26000000 		.4byte	.LVL150
 3705 0621 0100     		.2byte	0x1
 3706 0623 56       		.byte	0x56
 3707 0624 4A000000 		.4byte	.LVL151
 3708 0628 96000000 		.4byte	.LVL153
 3709 062c 0100     		.2byte	0x1
 3710 062e 56       		.byte	0x56
 3711 062f C8000000 		.4byte	.LVL154
 3712 0633 D8000000 		.4byte	.LVL155
 3713 0637 0100     		.2byte	0x1
 3714 0639 56       		.byte	0x56
 3715 063a 00000000 		.4byte	0x0
 3716 063e 00000000 		.4byte	0x0
 3717              		.file 3 "c:\\program files (x86)\\codesourcery\\sourcery g++ lite\\bin\\../lib/gcc/arm-none-eabi/4
 3718              		.file 4 "c:\\program files (x86)\\codesourcery\\sourcery g++ lite\\bin\\../lib/gcc/arm-none-eabi/4
 3719              		.file 5 "../../../ChibiOS/os/ports/GCC/ARMCMx/chtypes.h"
 3720              		.file 6 "../../../ChibiOS/os/kernel/include/chlists.h"
 3721              		.file 7 "../../../ChibiOS/os/kernel/include/chthreads.h"
 3722              		.file 8 "../../../ChibiOS/os/ports/GCC/ARMCMx/chcore_v7m.h"
 3723              		.file 9 "../../../ChibiOS/os/kernel/include/chvt.h"
 3724              		.file 10 "../../../ChibiOS/os/kernel/include/chschd.h"
 3725              		.file 11 "../../../ChibiOS/os/kernel/include/chmtx.h"
 3726              		.file 12 "../../../ChibiOS/os/kernel/include/chstreams.h"
 3727              		.file 13 "../../../ChibiOS/os/hal/include/io_channel.h"
 3728              		.file 14 "../../../ChibiOS/os/hal/platforms/STM32/GPIOv2/pal_lld.h"
 3729              		.file 15 "include/meas.h"
 3730              		.file 16 "c:\\program files (x86)\\codesourcery\\sourcery g++ lite\\bin\\../lib/gcc/arm-none-eabi/
 3731              		.file 17 "<built-in>"
 3732              		.file 18 "include/can_items.h"
 3733              		.file 19 "include/calc.h"
 3734              		.file 20 "../../../ChibiOS/os/ports/common/ARMCMx/CMSIS/include/core_cm4.h"
 3735              		.file 21 "include/can_comm.h"
 3736              		.section	.debug_info
 3737 0000 1B100000 		.4byte	0x101b
ARM GAS  C:\Users\DNIEL~1\AppData\Local\Temp\ccaMIE7p.s 			page 68


 3738 0004 0200     		.2byte	0x2
 3739 0006 00000000 		.4byte	.Ldebug_abbrev0
 3740 000a 04       		.byte	0x4
 3741 000b 01       		.uleb128 0x1
 3742 000c F8030000 		.4byte	.LASF222
 3743 0010 01       		.byte	0x1
 3744 0011 ED000000 		.4byte	.LASF223
 3745 0015 6A060000 		.4byte	.LASF224
 3746 0019 00000000 		.4byte	0x0
 3747 001d 00000000 		.4byte	0x0
 3748 0021 B0000000 		.4byte	.Ldebug_ranges0+0xb0
 3749 0025 00000000 		.4byte	.Ldebug_line0
 3750 0029 02       		.uleb128 0x2
 3751 002a 04       		.byte	0x4
 3752 002b 05       		.byte	0x5
 3753 002c 696E7400 		.ascii	"int\000"
 3754 0030 03       		.uleb128 0x3
 3755 0031 25030000 		.4byte	.LASF2
 3756 0035 03       		.byte	0x3
 3757 0036 D3       		.byte	0xd3
 3758 0037 3B000000 		.4byte	0x3b
 3759 003b 04       		.uleb128 0x4
 3760 003c 04       		.byte	0x4
 3761 003d 07       		.byte	0x7
 3762 003e 8C000000 		.4byte	.LASF0
 3763 0042 04       		.uleb128 0x4
 3764 0043 01       		.byte	0x1
 3765 0044 06       		.byte	0x6
 3766 0045 2B090000 		.4byte	.LASF1
 3767 0049 03       		.uleb128 0x3
 3768 004a 6D040000 		.4byte	.LASF3
 3769 004e 04       		.byte	0x4
 3770 004f 2A       		.byte	0x2a
 3771 0050 54000000 		.4byte	0x54
 3772 0054 04       		.uleb128 0x4
 3773 0055 01       		.byte	0x1
 3774 0056 08       		.byte	0x8
 3775 0057 1F080000 		.4byte	.LASF4
 3776 005b 03       		.uleb128 0x3
 3777 005c 1C020000 		.4byte	.LASF5
 3778 0060 04       		.byte	0x4
 3779 0061 35       		.byte	0x35
 3780 0062 66000000 		.4byte	0x66
 3781 0066 04       		.uleb128 0x4
 3782 0067 02       		.byte	0x2
 3783 0068 05       		.byte	0x5
 3784 0069 CD060000 		.4byte	.LASF6
 3785 006d 03       		.uleb128 0x3
 3786 006e 55060000 		.4byte	.LASF7
 3787 0072 04       		.byte	0x4
 3788 0073 36       		.byte	0x36
 3789 0074 78000000 		.4byte	0x78
 3790 0078 04       		.uleb128 0x4
 3791 0079 02       		.byte	0x2
 3792 007a 07       		.byte	0x7
 3793 007b 28060000 		.4byte	.LASF8
 3794 007f 03       		.uleb128 0x3
ARM GAS  C:\Users\DNIEL~1\AppData\Local\Temp\ccaMIE7p.s 			page 69


 3795 0080 05080000 		.4byte	.LASF9
 3796 0084 04       		.byte	0x4
 3797 0085 4F       		.byte	0x4f
 3798 0086 8A000000 		.4byte	0x8a
 3799 008a 04       		.uleb128 0x4
 3800 008b 04       		.byte	0x4
 3801 008c 05       		.byte	0x5
 3802 008d 0C070000 		.4byte	.LASF10
 3803 0091 03       		.uleb128 0x3
 3804 0092 B4010000 		.4byte	.LASF11
 3805 0096 04       		.byte	0x4
 3806 0097 50       		.byte	0x50
 3807 0098 9C000000 		.4byte	0x9c
 3808 009c 04       		.uleb128 0x4
 3809 009d 04       		.byte	0x4
 3810 009e 07       		.byte	0x7
 3811 009f E8070000 		.4byte	.LASF12
 3812 00a3 04       		.uleb128 0x4
 3813 00a4 08       		.byte	0x8
 3814 00a5 05       		.byte	0x5
 3815 00a6 DF040000 		.4byte	.LASF13
 3816 00aa 03       		.uleb128 0x3
 3817 00ab 62070000 		.4byte	.LASF14
 3818 00af 04       		.byte	0x4
 3819 00b0 78       		.byte	0x78
 3820 00b1 B5000000 		.4byte	0xb5
 3821 00b5 04       		.uleb128 0x4
 3822 00b6 08       		.byte	0x8
 3823 00b7 07       		.byte	0x7
 3824 00b8 05020000 		.4byte	.LASF15
 3825 00bc 03       		.uleb128 0x3
 3826 00bd 3A030000 		.4byte	.LASF16
 3827 00c1 05       		.byte	0x5
 3828 00c2 2B       		.byte	0x2b
 3829 00c3 C7000000 		.4byte	0xc7
 3830 00c7 04       		.uleb128 0x4
 3831 00c8 01       		.byte	0x1
 3832 00c9 02       		.byte	0x2
 3833 00ca 50030000 		.4byte	.LASF17
 3834 00ce 03       		.uleb128 0x3
 3835 00cf 05060000 		.4byte	.LASF18
 3836 00d3 05       		.byte	0x5
 3837 00d4 2C       		.byte	0x2c
 3838 00d5 49000000 		.4byte	0x49
 3839 00d9 03       		.uleb128 0x3
 3840 00da 21040000 		.4byte	.LASF19
 3841 00de 05       		.byte	0x5
 3842 00df 2D       		.byte	0x2d
 3843 00e0 49000000 		.4byte	0x49
 3844 00e4 03       		.uleb128 0x3
 3845 00e5 E0070000 		.4byte	.LASF20
 3846 00e9 05       		.byte	0x5
 3847 00ea 2E       		.byte	0x2e
 3848 00eb 49000000 		.4byte	0x49
 3849 00ef 03       		.uleb128 0x3
 3850 00f0 C7050000 		.4byte	.LASF21
 3851 00f4 05       		.byte	0x5
ARM GAS  C:\Users\DNIEL~1\AppData\Local\Temp\ccaMIE7p.s 			page 70


 3852 00f5 2F       		.byte	0x2f
 3853 00f6 49000000 		.4byte	0x49
 3854 00fa 03       		.uleb128 0x3
 3855 00fb FD010000 		.4byte	.LASF22
 3856 00ff 05       		.byte	0x5
 3857 0100 30       		.byte	0x30
 3858 0101 91000000 		.4byte	0x91
 3859 0105 03       		.uleb128 0x3
 3860 0106 09050000 		.4byte	.LASF23
 3861 010a 05       		.byte	0x5
 3862 010b 31       		.byte	0x31
 3863 010c 7F000000 		.4byte	0x7f
 3864 0110 03       		.uleb128 0x3
 3865 0111 DD010000 		.4byte	.LASF24
 3866 0115 05       		.byte	0x5
 3867 0116 33       		.byte	0x33
 3868 0117 91000000 		.4byte	0x91
 3869 011b 03       		.uleb128 0x3
 3870 011c 6C000000 		.4byte	.LASF25
 3871 0120 05       		.byte	0x5
 3872 0121 35       		.byte	0x35
 3873 0122 91000000 		.4byte	0x91
 3874 0126 03       		.uleb128 0x3
 3875 0127 1A040000 		.4byte	.LASF26
 3876 012b 06       		.byte	0x6
 3877 012c 2A       		.byte	0x2a
 3878 012d 31010000 		.4byte	0x131
 3879 0131 05       		.uleb128 0x5
 3880 0132 1A040000 		.4byte	.LASF26
 3881 0136 48       		.byte	0x48
 3882 0137 07       		.byte	0x7
 3883 0138 5E       		.byte	0x5e
 3884 0139 56020000 		.4byte	0x256
 3885 013d 06       		.uleb128 0x6
 3886 013e 5B070000 		.4byte	.LASF27
 3887 0142 07       		.byte	0x7
 3888 0143 5F       		.byte	0x5f
 3889 0144 7B020000 		.4byte	0x27b
 3890 0148 02       		.byte	0x2
 3891 0149 23       		.byte	0x23
 3892 014a 00       		.uleb128 0x0
 3893 014b 06       		.uleb128 0x6
 3894 014c D9070000 		.4byte	.LASF28
 3895 0150 07       		.byte	0x7
 3896 0151 61       		.byte	0x61
 3897 0152 7B020000 		.4byte	0x27b
 3898 0156 02       		.byte	0x2
 3899 0157 23       		.byte	0x23
 3900 0158 04       		.uleb128 0x4
 3901 0159 06       		.uleb128 0x6
 3902 015a 56000000 		.4byte	.LASF29
 3903 015e 07       		.byte	0x7
 3904 015f 63       		.byte	0x63
 3905 0160 FA000000 		.4byte	0xfa
 3906 0164 02       		.byte	0x2
 3907 0165 23       		.byte	0x23
 3908 0166 08       		.uleb128 0x8
ARM GAS  C:\Users\DNIEL~1\AppData\Local\Temp\ccaMIE7p.s 			page 71


 3909 0167 06       		.uleb128 0x6
 3910 0168 6B070000 		.4byte	.LASF30
 3911 016c 07       		.byte	0x7
 3912 016d 64       		.byte	0x64
 3913 016e 54030000 		.4byte	0x354
 3914 0172 02       		.byte	0x2
 3915 0173 23       		.byte	0x23
 3916 0174 0C       		.uleb128 0xc
 3917 0175 06       		.uleb128 0x6
 3918 0176 E7090000 		.4byte	.LASF31
 3919 017a 07       		.byte	0x7
 3920 017b 66       		.byte	0x66
 3921 017c 7B020000 		.4byte	0x27b
 3922 0180 02       		.byte	0x2
 3923 0181 23       		.byte	0x23
 3924 0182 10       		.uleb128 0x10
 3925 0183 06       		.uleb128 0x6
 3926 0184 46040000 		.4byte	.LASF32
 3927 0188 07       		.byte	0x7
 3928 0189 67       		.byte	0x67
 3929 018a 7B020000 		.4byte	0x27b
 3930 018e 02       		.byte	0x2
 3931 018f 23       		.byte	0x23
 3932 0190 14       		.uleb128 0x14
 3933 0191 06       		.uleb128 0x6
 3934 0192 BE030000 		.4byte	.LASF33
 3935 0196 07       		.byte	0x7
 3936 0197 6E       		.byte	0x6e
 3937 0198 33050000 		.4byte	0x533
 3938 019c 02       		.byte	0x2
 3939 019d 23       		.byte	0x23
 3940 019e 18       		.uleb128 0x18
 3941 019f 06       		.uleb128 0x6
 3942 01a0 56040000 		.4byte	.LASF34
 3943 01a4 07       		.byte	0x7
 3944 01a5 79       		.byte	0x79
 3945 01a6 D9000000 		.4byte	0xd9
 3946 01aa 02       		.byte	0x2
 3947 01ab 23       		.byte	0x23
 3948 01ac 1C       		.uleb128 0x1c
 3949 01ad 06       		.uleb128 0x6
 3950 01ae 68050000 		.4byte	.LASF35
 3951 01b2 07       		.byte	0x7
 3952 01b3 7D       		.byte	0x7d
 3953 01b4 CE000000 		.4byte	0xce
 3954 01b8 02       		.byte	0x2
 3955 01b9 23       		.byte	0x23
 3956 01ba 1D       		.uleb128 0x1d
 3957 01bb 06       		.uleb128 0x6
 3958 01bc 3A080000 		.4byte	.LASF36
 3959 01c0 07       		.byte	0x7
 3960 01c1 82       		.byte	0x82
 3961 01c2 E4000000 		.4byte	0xe4
 3962 01c6 02       		.byte	0x2
 3963 01c7 23       		.byte	0x23
 3964 01c8 1E       		.uleb128 0x1e
 3965 01c9 06       		.uleb128 0x6
ARM GAS  C:\Users\DNIEL~1\AppData\Local\Temp\ccaMIE7p.s 			page 72


 3966 01ca 83080000 		.4byte	.LASF37
 3967 01ce 07       		.byte	0x7
 3968 01cf 88       		.byte	0x88
 3969 01d0 EF000000 		.4byte	0xef
 3970 01d4 02       		.byte	0x2
 3971 01d5 23       		.byte	0x23
 3972 01d6 1F       		.uleb128 0x1f
 3973 01d7 06       		.uleb128 0x6
 3974 01d8 41000000 		.4byte	.LASF38
 3975 01dc 07       		.byte	0x7
 3976 01dd 8F       		.byte	0x8f
 3977 01de 3E040000 		.4byte	0x43e
 3978 01e2 02       		.byte	0x2
 3979 01e3 23       		.byte	0x23
 3980 01e4 20       		.uleb128 0x20
 3981 01e5 07       		.uleb128 0x7
 3982 01e6 705F7500 		.ascii	"p_u\000"
 3983 01ea 07       		.byte	0x7
 3984 01eb B4       		.byte	0xb4
 3985 01ec FE040000 		.4byte	0x4fe
 3986 01f0 02       		.byte	0x2
 3987 01f1 23       		.byte	0x23
 3988 01f2 24       		.uleb128 0x24
 3989 01f3 06       		.uleb128 0x6
 3990 01f4 AE000000 		.4byte	.LASF39
 3991 01f8 07       		.byte	0x7
 3992 01f9 B9       		.byte	0xb9
 3993 01fa A3020000 		.4byte	0x2a3
 3994 01fe 02       		.byte	0x2
 3995 01ff 23       		.byte	0x23
 3996 0200 28       		.uleb128 0x28
 3997 0201 06       		.uleb128 0x6
 3998 0202 81000000 		.4byte	.LASF40
 3999 0206 07       		.byte	0x7
 4000 0207 BF       		.byte	0xbf
 4001 0208 81020000 		.4byte	0x281
 4002 020c 02       		.byte	0x2
 4003 020d 23       		.byte	0x23
 4004 020e 2C       		.uleb128 0x2c
 4005 020f 06       		.uleb128 0x6
 4006 0210 FF050000 		.4byte	.LASF41
 4007 0214 07       		.byte	0x7
 4008 0215 C3       		.byte	0xc3
 4009 0216 05010000 		.4byte	0x105
 4010 021a 02       		.byte	0x2
 4011 021b 23       		.byte	0x23
 4012 021c 34       		.uleb128 0x34
 4013 021d 06       		.uleb128 0x6
 4014 021e E1060000 		.4byte	.LASF42
 4015 0222 07       		.byte	0x7
 4016 0223 C9       		.byte	0xc9
 4017 0224 10010000 		.4byte	0x110
 4018 0228 02       		.byte	0x2
 4019 0229 23       		.byte	0x23
 4020 022a 38       		.uleb128 0x38
 4021 022b 06       		.uleb128 0x6
 4022 022c AA040000 		.4byte	.LASF43
ARM GAS  C:\Users\DNIEL~1\AppData\Local\Temp\ccaMIE7p.s 			page 73


 4023 0230 07       		.byte	0x7
 4024 0231 D0       		.byte	0xd0
 4025 0232 45050000 		.4byte	0x545
 4026 0236 02       		.byte	0x2
 4027 0237 23       		.byte	0x23
 4028 0238 3C       		.uleb128 0x3c
 4029 0239 06       		.uleb128 0x6
 4030 023a 15060000 		.4byte	.LASF44
 4031 023e 07       		.byte	0x7
 4032 023f D4       		.byte	0xd4
 4033 0240 FA000000 		.4byte	0xfa
 4034 0244 02       		.byte	0x2
 4035 0245 23       		.byte	0x23
 4036 0246 40       		.uleb128 0x40
 4037 0247 06       		.uleb128 0x6
 4038 0248 98040000 		.4byte	.LASF45
 4039 024c 07       		.byte	0x7
 4040 024d DA       		.byte	0xda
 4041 024e B9020000 		.4byte	0x2b9
 4042 0252 02       		.byte	0x2
 4043 0253 23       		.byte	0x23
 4044 0254 44       		.uleb128 0x44
 4045 0255 00       		.byte	0x0
 4046 0256 08       		.uleb128 0x8
 4047 0257 08       		.byte	0x8
 4048 0258 06       		.byte	0x6
 4049 0259 61       		.byte	0x61
 4050 025a 7B020000 		.4byte	0x27b
 4051 025e 06       		.uleb128 0x6
 4052 025f 5B070000 		.4byte	.LASF27
 4053 0263 06       		.byte	0x6
 4054 0264 62       		.byte	0x62
 4055 0265 7B020000 		.4byte	0x27b
 4056 0269 02       		.byte	0x2
 4057 026a 23       		.byte	0x23
 4058 026b 00       		.uleb128 0x0
 4059 026c 06       		.uleb128 0x6
 4060 026d D9070000 		.4byte	.LASF28
 4061 0271 06       		.byte	0x6
 4062 0272 64       		.byte	0x64
 4063 0273 7B020000 		.4byte	0x27b
 4064 0277 02       		.byte	0x2
 4065 0278 23       		.byte	0x23
 4066 0279 04       		.uleb128 0x4
 4067 027a 00       		.byte	0x0
 4068 027b 09       		.uleb128 0x9
 4069 027c 04       		.byte	0x4
 4070 027d 26010000 		.4byte	0x126
 4071 0281 03       		.uleb128 0x3
 4072 0282 DA030000 		.4byte	.LASF46
 4073 0286 06       		.byte	0x6
 4074 0287 66       		.byte	0x66
 4075 0288 56020000 		.4byte	0x256
 4076 028c 08       		.uleb128 0x8
 4077 028d 04       		.byte	0x4
 4078 028e 06       		.byte	0x6
 4079 028f 6B       		.byte	0x6b
ARM GAS  C:\Users\DNIEL~1\AppData\Local\Temp\ccaMIE7p.s 			page 74


 4080 0290 A3020000 		.4byte	0x2a3
 4081 0294 06       		.uleb128 0x6
 4082 0295 5B070000 		.4byte	.LASF27
 4083 0299 06       		.byte	0x6
 4084 029a 6D       		.byte	0x6d
 4085 029b 7B020000 		.4byte	0x27b
 4086 029f 02       		.byte	0x2
 4087 02a0 23       		.byte	0x23
 4088 02a1 00       		.uleb128 0x0
 4089 02a2 00       		.byte	0x0
 4090 02a3 03       		.uleb128 0x3
 4091 02a4 00000000 		.4byte	.LASF47
 4092 02a8 06       		.byte	0x6
 4093 02a9 70       		.byte	0x70
 4094 02aa 8C020000 		.4byte	0x28c
 4095 02ae 03       		.uleb128 0x3
 4096 02af 4D000000 		.4byte	.LASF48
 4097 02b3 08       		.byte	0x8
 4098 02b4 E5       		.byte	0xe5
 4099 02b5 B9020000 		.4byte	0x2b9
 4100 02b9 0A       		.uleb128 0xa
 4101 02ba 04       		.byte	0x4
 4102 02bb 03       		.uleb128 0x3
 4103 02bc 8D080000 		.4byte	.LASF49
 4104 02c0 08       		.byte	0x8
 4105 02c1 EB       		.byte	0xeb
 4106 02c2 AA000000 		.4byte	0xaa
 4107 02c6 0B       		.uleb128 0xb
 4108 02c7 9D060000 		.4byte	.LASF50
 4109 02cb 24       		.byte	0x24
 4110 02cc 08       		.byte	0x8
 4111 02cd 0C01     		.2byte	0x10c
 4112 02cf 54030000 		.4byte	0x354
 4113 02d3 0C       		.uleb128 0xc
 4114 02d4 723400   		.ascii	"r4\000"
 4115 02d7 08       		.byte	0x8
 4116 02d8 1F01     		.2byte	0x11f
 4117 02da AE020000 		.4byte	0x2ae
 4118 02de 02       		.byte	0x2
 4119 02df 23       		.byte	0x23
 4120 02e0 00       		.uleb128 0x0
 4121 02e1 0C       		.uleb128 0xc
 4122 02e2 723500   		.ascii	"r5\000"
 4123 02e5 08       		.byte	0x8
 4124 02e6 2001     		.2byte	0x120
 4125 02e8 AE020000 		.4byte	0x2ae
 4126 02ec 02       		.byte	0x2
 4127 02ed 23       		.byte	0x23
 4128 02ee 04       		.uleb128 0x4
 4129 02ef 0C       		.uleb128 0xc
 4130 02f0 723600   		.ascii	"r6\000"
 4131 02f3 08       		.byte	0x8
 4132 02f4 2101     		.2byte	0x121
 4133 02f6 AE020000 		.4byte	0x2ae
 4134 02fa 02       		.byte	0x2
 4135 02fb 23       		.byte	0x23
 4136 02fc 08       		.uleb128 0x8
ARM GAS  C:\Users\DNIEL~1\AppData\Local\Temp\ccaMIE7p.s 			page 75


 4137 02fd 0C       		.uleb128 0xc
 4138 02fe 723700   		.ascii	"r7\000"
 4139 0301 08       		.byte	0x8
 4140 0302 2201     		.2byte	0x122
 4141 0304 AE020000 		.4byte	0x2ae
 4142 0308 02       		.byte	0x2
 4143 0309 23       		.byte	0x23
 4144 030a 0C       		.uleb128 0xc
 4145 030b 0C       		.uleb128 0xc
 4146 030c 723800   		.ascii	"r8\000"
 4147 030f 08       		.byte	0x8
 4148 0310 2301     		.2byte	0x123
 4149 0312 AE020000 		.4byte	0x2ae
 4150 0316 02       		.byte	0x2
 4151 0317 23       		.byte	0x23
 4152 0318 10       		.uleb128 0x10
 4153 0319 0C       		.uleb128 0xc
 4154 031a 723900   		.ascii	"r9\000"
 4155 031d 08       		.byte	0x8
 4156 031e 2401     		.2byte	0x124
 4157 0320 AE020000 		.4byte	0x2ae
 4158 0324 02       		.byte	0x2
 4159 0325 23       		.byte	0x23
 4160 0326 14       		.uleb128 0x14
 4161 0327 0C       		.uleb128 0xc
 4162 0328 72313000 		.ascii	"r10\000"
 4163 032c 08       		.byte	0x8
 4164 032d 2501     		.2byte	0x125
 4165 032f AE020000 		.4byte	0x2ae
 4166 0333 02       		.byte	0x2
 4167 0334 23       		.byte	0x23
 4168 0335 18       		.uleb128 0x18
 4169 0336 0C       		.uleb128 0xc
 4170 0337 72313100 		.ascii	"r11\000"
 4171 033b 08       		.byte	0x8
 4172 033c 2601     		.2byte	0x126
 4173 033e AE020000 		.4byte	0x2ae
 4174 0342 02       		.byte	0x2
 4175 0343 23       		.byte	0x23
 4176 0344 1C       		.uleb128 0x1c
 4177 0345 0C       		.uleb128 0xc
 4178 0346 6C7200   		.ascii	"lr\000"
 4179 0349 08       		.byte	0x8
 4180 034a 2701     		.2byte	0x127
 4181 034c AE020000 		.4byte	0x2ae
 4182 0350 02       		.byte	0x2
 4183 0351 23       		.byte	0x23
 4184 0352 20       		.uleb128 0x20
 4185 0353 00       		.byte	0x0
 4186 0354 0B       		.uleb128 0xb
 4187 0355 3C050000 		.4byte	.LASF51
 4188 0359 04       		.byte	0x4
 4189 035a 08       		.byte	0x8
 4190 035b 3101     		.2byte	0x131
 4191 035d 71030000 		.4byte	0x371
 4192 0361 0C       		.uleb128 0xc
 4193 0362 72313300 		.ascii	"r13\000"
ARM GAS  C:\Users\DNIEL~1\AppData\Local\Temp\ccaMIE7p.s 			page 76


 4194 0366 08       		.byte	0x8
 4195 0367 3201     		.2byte	0x132
 4196 0369 71030000 		.4byte	0x371
 4197 036d 02       		.byte	0x2
 4198 036e 23       		.byte	0x23
 4199 036f 00       		.uleb128 0x0
 4200 0370 00       		.byte	0x0
 4201 0371 09       		.uleb128 0x9
 4202 0372 04       		.byte	0x4
 4203 0373 C6020000 		.4byte	0x2c6
 4204 0377 0D       		.uleb128 0xd
 4205 0378 91000000 		.4byte	0x91
 4206 037c 03       		.uleb128 0x3
 4207 037d 0C000000 		.4byte	.LASF52
 4208 0381 09       		.byte	0x9
 4209 0382 58       		.byte	0x58
 4210 0383 87030000 		.4byte	0x387
 4211 0387 09       		.uleb128 0x9
 4212 0388 04       		.byte	0x4
 4213 0389 8D030000 		.4byte	0x38d
 4214 038d 0E       		.uleb128 0xe
 4215 038e 01       		.byte	0x1
 4216 038f 99030000 		.4byte	0x399
 4217 0393 0F       		.uleb128 0xf
 4218 0394 B9020000 		.4byte	0x2b9
 4219 0398 00       		.byte	0x0
 4220 0399 03       		.uleb128 0x3
 4221 039a 83070000 		.4byte	.LASF53
 4222 039e 09       		.byte	0x9
 4223 039f 5D       		.byte	0x5d
 4224 03a0 A4030000 		.4byte	0x3a4
 4225 03a4 05       		.uleb128 0x5
 4226 03a5 83070000 		.4byte	.LASF53
 4227 03a9 14       		.byte	0x14
 4228 03aa 09       		.byte	0x9
 4229 03ab 64       		.byte	0x64
 4230 03ac F7030000 		.4byte	0x3f7
 4231 03b0 06       		.uleb128 0x6
 4232 03b1 B2080000 		.4byte	.LASF54
 4233 03b5 09       		.byte	0x9
 4234 03b6 65       		.byte	0x65
 4235 03b7 F7030000 		.4byte	0x3f7
 4236 03bb 02       		.byte	0x2
 4237 03bc 23       		.byte	0x23
 4238 03bd 00       		.uleb128 0x0
 4239 03be 06       		.uleb128 0x6
 4240 03bf 93090000 		.4byte	.LASF55
 4241 03c3 09       		.byte	0x9
 4242 03c4 67       		.byte	0x67
 4243 03c5 F7030000 		.4byte	0x3f7
 4244 03c9 02       		.byte	0x2
 4245 03ca 23       		.byte	0x23
 4246 03cb 04       		.uleb128 0x4
 4247 03cc 06       		.uleb128 0x6
 4248 03cd AC010000 		.4byte	.LASF56
 4249 03d1 09       		.byte	0x9
 4250 03d2 69       		.byte	0x69
ARM GAS  C:\Users\DNIEL~1\AppData\Local\Temp\ccaMIE7p.s 			page 77


 4251 03d3 1B010000 		.4byte	0x11b
 4252 03d7 02       		.byte	0x2
 4253 03d8 23       		.byte	0x23
 4254 03d9 08       		.uleb128 0x8
 4255 03da 06       		.uleb128 0x6
 4256 03db 73090000 		.4byte	.LASF57
 4257 03df 09       		.byte	0x9
 4258 03e0 6A       		.byte	0x6a
 4259 03e1 7C030000 		.4byte	0x37c
 4260 03e5 02       		.byte	0x2
 4261 03e6 23       		.byte	0x23
 4262 03e7 0C       		.uleb128 0xc
 4263 03e8 06       		.uleb128 0x6
 4264 03e9 F0010000 		.4byte	.LASF58
 4265 03ed 09       		.byte	0x9
 4266 03ee 6C       		.byte	0x6c
 4267 03ef B9020000 		.4byte	0x2b9
 4268 03f3 02       		.byte	0x2
 4269 03f4 23       		.byte	0x23
 4270 03f5 10       		.uleb128 0x10
 4271 03f6 00       		.byte	0x0
 4272 03f7 09       		.uleb128 0x9
 4273 03f8 04       		.byte	0x4
 4274 03f9 99030000 		.4byte	0x399
 4275 03fd 08       		.uleb128 0x8
 4276 03fe 10       		.byte	0x10
 4277 03ff 09       		.byte	0x9
 4278 0400 76       		.byte	0x76
 4279 0401 3E040000 		.4byte	0x43e
 4280 0405 06       		.uleb128 0x6
 4281 0406 B2080000 		.4byte	.LASF54
 4282 040a 09       		.byte	0x9
 4283 040b 77       		.byte	0x77
 4284 040c F7030000 		.4byte	0x3f7
 4285 0410 02       		.byte	0x2
 4286 0411 23       		.byte	0x23
 4287 0412 00       		.uleb128 0x0
 4288 0413 06       		.uleb128 0x6
 4289 0414 93090000 		.4byte	.LASF55
 4290 0418 09       		.byte	0x9
 4291 0419 79       		.byte	0x79
 4292 041a F7030000 		.4byte	0x3f7
 4293 041e 02       		.byte	0x2
 4294 041f 23       		.byte	0x23
 4295 0420 04       		.uleb128 0x4
 4296 0421 06       		.uleb128 0x6
 4297 0422 AC010000 		.4byte	.LASF56
 4298 0426 09       		.byte	0x9
 4299 0427 7B       		.byte	0x7b
 4300 0428 1B010000 		.4byte	0x11b
 4301 042c 02       		.byte	0x2
 4302 042d 23       		.byte	0x23
 4303 042e 08       		.uleb128 0x8
 4304 042f 06       		.uleb128 0x6
 4305 0430 76000000 		.4byte	.LASF59
 4306 0434 09       		.byte	0x9
 4307 0435 7C       		.byte	0x7c
ARM GAS  C:\Users\DNIEL~1\AppData\Local\Temp\ccaMIE7p.s 			page 78


 4308 0436 3E040000 		.4byte	0x43e
 4309 043a 02       		.byte	0x2
 4310 043b 23       		.byte	0x23
 4311 043c 0C       		.uleb128 0xc
 4312 043d 00       		.byte	0x0
 4313 043e 0D       		.uleb128 0xd
 4314 043f 1B010000 		.4byte	0x11b
 4315 0443 03       		.uleb128 0x3
 4316 0444 34040000 		.4byte	.LASF60
 4317 0448 09       		.byte	0x9
 4318 0449 7D       		.byte	0x7d
 4319 044a FD030000 		.4byte	0x3fd
 4320 044e 08       		.uleb128 0x8
 4321 044f 1C       		.byte	0x1c
 4322 0450 0A       		.byte	0xa
 4323 0451 5E       		.byte	0x5e
 4324 0452 AB040000 		.4byte	0x4ab
 4325 0456 06       		.uleb128 0x6
 4326 0457 F3040000 		.4byte	.LASF61
 4327 045b 0A       		.byte	0xa
 4328 045c 5F       		.byte	0x5f
 4329 045d 81020000 		.4byte	0x281
 4330 0461 02       		.byte	0x2
 4331 0462 23       		.byte	0x23
 4332 0463 00       		.uleb128 0x0
 4333 0464 06       		.uleb128 0x6
 4334 0465 E9010000 		.4byte	.LASF62
 4335 0469 0A       		.byte	0xa
 4336 046a 60       		.byte	0x60
 4337 046b FA000000 		.4byte	0xfa
 4338 046f 02       		.byte	0x2
 4339 0470 23       		.byte	0x23
 4340 0471 08       		.uleb128 0x8
 4341 0472 06       		.uleb128 0x6
 4342 0473 4C090000 		.4byte	.LASF63
 4343 0477 0A       		.byte	0xa
 4344 0478 62       		.byte	0x62
 4345 0479 54030000 		.4byte	0x354
 4346 047d 02       		.byte	0x2
 4347 047e 23       		.byte	0x23
 4348 047f 0C       		.uleb128 0xc
 4349 0480 06       		.uleb128 0x6
 4350 0481 12040000 		.4byte	.LASF64
 4351 0485 0A       		.byte	0xa
 4352 0486 65       		.byte	0x65
 4353 0487 7B020000 		.4byte	0x27b
 4354 048b 02       		.byte	0x2
 4355 048c 23       		.byte	0x23
 4356 048d 10       		.uleb128 0x10
 4357 048e 06       		.uleb128 0x6
 4358 048f D1050000 		.4byte	.LASF65
 4359 0493 0A       		.byte	0xa
 4360 0494 66       		.byte	0x66
 4361 0495 7B020000 		.4byte	0x27b
 4362 0499 02       		.byte	0x2
 4363 049a 23       		.byte	0x23
 4364 049b 14       		.uleb128 0x14
ARM GAS  C:\Users\DNIEL~1\AppData\Local\Temp\ccaMIE7p.s 			page 79


 4365 049c 06       		.uleb128 0x6
 4366 049d D7060000 		.4byte	.LASF66
 4367 04a1 0A       		.byte	0xa
 4368 04a2 69       		.byte	0x69
 4369 04a3 7B020000 		.4byte	0x27b
 4370 04a7 02       		.byte	0x2
 4371 04a8 23       		.byte	0x23
 4372 04a9 18       		.uleb128 0x18
 4373 04aa 00       		.byte	0x0
 4374 04ab 03       		.uleb128 0x3
 4375 04ac 41080000 		.4byte	.LASF67
 4376 04b0 0A       		.byte	0xa
 4377 04b1 6B       		.byte	0x6b
 4378 04b2 4E040000 		.4byte	0x44e
 4379 04b6 05       		.uleb128 0x5
 4380 04b7 8E030000 		.4byte	.LASF68
 4381 04bb 10       		.byte	0x10
 4382 04bc 0B       		.byte	0xb
 4383 04bd 2C       		.byte	0x2c
 4384 04be ED040000 		.4byte	0x4ed
 4385 04c2 06       		.uleb128 0x6
 4386 04c3 A4010000 		.4byte	.LASF69
 4387 04c7 0B       		.byte	0xb
 4388 04c8 2D       		.byte	0x2d
 4389 04c9 81020000 		.4byte	0x281
 4390 04cd 02       		.byte	0x2
 4391 04ce 23       		.byte	0x23
 4392 04cf 00       		.uleb128 0x0
 4393 04d0 06       		.uleb128 0x6
 4394 04d1 100A0000 		.4byte	.LASF70
 4395 04d5 0B       		.byte	0xb
 4396 04d6 2F       		.byte	0x2f
 4397 04d7 7B020000 		.4byte	0x27b
 4398 04db 02       		.byte	0x2
 4399 04dc 23       		.byte	0x23
 4400 04dd 08       		.uleb128 0x8
 4401 04de 06       		.uleb128 0x6
 4402 04df 04090000 		.4byte	.LASF71
 4403 04e3 0B       		.byte	0xb
 4404 04e4 31       		.byte	0x31
 4405 04e5 ED040000 		.4byte	0x4ed
 4406 04e9 02       		.byte	0x2
 4407 04ea 23       		.byte	0x23
 4408 04eb 0C       		.uleb128 0xc
 4409 04ec 00       		.byte	0x0
 4410 04ed 09       		.uleb128 0x9
 4411 04ee 04       		.byte	0x4
 4412 04ef B6040000 		.4byte	0x4b6
 4413 04f3 03       		.uleb128 0x3
 4414 04f4 8E030000 		.4byte	.LASF68
 4415 04f8 0B       		.byte	0xb
 4416 04f9 33       		.byte	0x33
 4417 04fa B6040000 		.4byte	0x4b6
 4418 04fe 10       		.uleb128 0x10
 4419 04ff 04       		.byte	0x4
 4420 0500 07       		.byte	0x7
 4421 0501 96       		.byte	0x96
ARM GAS  C:\Users\DNIEL~1\AppData\Local\Temp\ccaMIE7p.s 			page 80


 4422 0502 33050000 		.4byte	0x533
 4423 0506 11       		.uleb128 0x11
 4424 0507 2C030000 		.4byte	.LASF72
 4425 050b 07       		.byte	0x7
 4426 050c 9D       		.byte	0x9d
 4427 050d 05010000 		.4byte	0x105
 4428 0511 11       		.uleb128 0x11
 4429 0512 CA090000 		.4byte	.LASF73
 4430 0516 07       		.byte	0x7
 4431 0517 A4       		.byte	0xa4
 4432 0518 05010000 		.4byte	0x105
 4433 051c 11       		.uleb128 0x11
 4434 051d F7000000 		.4byte	.LASF74
 4435 0521 07       		.byte	0x7
 4436 0522 AB       		.byte	0xab
 4437 0523 B9020000 		.4byte	0x2b9
 4438 0527 11       		.uleb128 0x11
 4439 0528 AB080000 		.4byte	.LASF75
 4440 052c 07       		.byte	0x7
 4441 052d B2       		.byte	0xb2
 4442 052e 10010000 		.4byte	0x110
 4443 0532 00       		.byte	0x0
 4444 0533 09       		.uleb128 0x9
 4445 0534 04       		.byte	0x4
 4446 0535 39050000 		.4byte	0x539
 4447 0539 12       		.uleb128 0x12
 4448 053a 3E050000 		.4byte	0x53e
 4449 053e 04       		.uleb128 0x4
 4450 053f 01       		.byte	0x1
 4451 0540 08       		.byte	0x8
 4452 0541 F3030000 		.4byte	.LASF76
 4453 0545 09       		.uleb128 0x9
 4454 0546 04       		.byte	0x4
 4455 0547 F3040000 		.4byte	0x4f3
 4456 054b 09       		.uleb128 0x9
 4457 054c 04       		.byte	0x4
 4458 054d 51050000 		.4byte	0x551
 4459 0551 13       		.uleb128 0x13
 4460 0552 01       		.byte	0x1
 4461 0553 05010000 		.4byte	0x105
 4462 0557 61050000 		.4byte	0x561
 4463 055b 0F       		.uleb128 0xf
 4464 055c B9020000 		.4byte	0x2b9
 4465 0560 00       		.byte	0x0
 4466 0561 09       		.uleb128 0x9
 4467 0562 04       		.byte	0x4
 4468 0563 49000000 		.4byte	0x49
 4469 0567 05       		.uleb128 0x5
 4470 0568 B8000000 		.4byte	.LASF77
 4471 056c 10       		.byte	0x10
 4472 056d 0C       		.byte	0xc
 4473 056e 48       		.byte	0x48
 4474 056f AC050000 		.4byte	0x5ac
 4475 0573 06       		.uleb128 0x6
 4476 0574 ED040000 		.4byte	.LASF78
 4477 0578 0C       		.byte	0xc
 4478 0579 49       		.byte	0x49
ARM GAS  C:\Users\DNIEL~1\AppData\Local\Temp\ccaMIE7p.s 			page 81


 4479 057a D1050000 		.4byte	0x5d1
 4480 057e 02       		.byte	0x2
 4481 057f 23       		.byte	0x23
 4482 0580 00       		.uleb128 0x0
 4483 0581 06       		.uleb128 0x6
 4484 0582 9F070000 		.4byte	.LASF79
 4485 0586 0C       		.byte	0xc
 4486 0587 49       		.byte	0x49
 4487 0588 F1050000 		.4byte	0x5f1
 4488 058c 02       		.byte	0x2
 4489 058d 23       		.byte	0x23
 4490 058e 04       		.uleb128 0x4
 4491 058f 07       		.uleb128 0x7
 4492 0590 70757400 		.ascii	"put\000"
 4493 0594 0C       		.byte	0xc
 4494 0595 49       		.byte	0x49
 4495 0596 0C060000 		.4byte	0x60c
 4496 059a 02       		.byte	0x2
 4497 059b 23       		.byte	0x23
 4498 059c 08       		.uleb128 0x8
 4499 059d 07       		.uleb128 0x7
 4500 059e 67657400 		.ascii	"get\000"
 4501 05a2 0C       		.byte	0xc
 4502 05a3 49       		.byte	0x49
 4503 05a4 4B050000 		.4byte	0x54b
 4504 05a8 02       		.byte	0x2
 4505 05a9 23       		.byte	0x23
 4506 05aa 0C       		.uleb128 0xc
 4507 05ab 00       		.byte	0x0
 4508 05ac 13       		.uleb128 0x13
 4509 05ad 01       		.byte	0x1
 4510 05ae 30000000 		.4byte	0x30
 4511 05b2 C6050000 		.4byte	0x5c6
 4512 05b6 0F       		.uleb128 0xf
 4513 05b7 B9020000 		.4byte	0x2b9
 4514 05bb 0F       		.uleb128 0xf
 4515 05bc C6050000 		.4byte	0x5c6
 4516 05c0 0F       		.uleb128 0xf
 4517 05c1 30000000 		.4byte	0x30
 4518 05c5 00       		.byte	0x0
 4519 05c6 09       		.uleb128 0x9
 4520 05c7 04       		.byte	0x4
 4521 05c8 CC050000 		.4byte	0x5cc
 4522 05cc 12       		.uleb128 0x12
 4523 05cd 49000000 		.4byte	0x49
 4524 05d1 09       		.uleb128 0x9
 4525 05d2 04       		.byte	0x4
 4526 05d3 AC050000 		.4byte	0x5ac
 4527 05d7 13       		.uleb128 0x13
 4528 05d8 01       		.byte	0x1
 4529 05d9 30000000 		.4byte	0x30
 4530 05dd F1050000 		.4byte	0x5f1
 4531 05e1 0F       		.uleb128 0xf
 4532 05e2 B9020000 		.4byte	0x2b9
 4533 05e6 0F       		.uleb128 0xf
 4534 05e7 61050000 		.4byte	0x561
 4535 05eb 0F       		.uleb128 0xf
ARM GAS  C:\Users\DNIEL~1\AppData\Local\Temp\ccaMIE7p.s 			page 82


 4536 05ec 30000000 		.4byte	0x30
 4537 05f0 00       		.byte	0x0
 4538 05f1 09       		.uleb128 0x9
 4539 05f2 04       		.byte	0x4
 4540 05f3 D7050000 		.4byte	0x5d7
 4541 05f7 13       		.uleb128 0x13
 4542 05f8 01       		.byte	0x1
 4543 05f9 05010000 		.4byte	0x105
 4544 05fd 0C060000 		.4byte	0x60c
 4545 0601 0F       		.uleb128 0xf
 4546 0602 B9020000 		.4byte	0x2b9
 4547 0606 0F       		.uleb128 0xf
 4548 0607 49000000 		.4byte	0x49
 4549 060b 00       		.byte	0x0
 4550 060c 09       		.uleb128 0x9
 4551 060d 04       		.byte	0x4
 4552 060e F7050000 		.4byte	0x5f7
 4553 0612 08       		.uleb128 0x8
 4554 0613 04       		.byte	0x4
 4555 0614 0C       		.byte	0xc
 4556 0615 51       		.byte	0x51
 4557 0616 29060000 		.4byte	0x629
 4558 061a 07       		.uleb128 0x7
 4559 061b 766D7400 		.ascii	"vmt\000"
 4560 061f 0C       		.byte	0xc
 4561 0620 53       		.byte	0x53
 4562 0621 29060000 		.4byte	0x629
 4563 0625 02       		.byte	0x2
 4564 0626 23       		.byte	0x23
 4565 0627 00       		.uleb128 0x0
 4566 0628 00       		.byte	0x0
 4567 0629 09       		.uleb128 0x9
 4568 062a 04       		.byte	0x4
 4569 062b 2F060000 		.4byte	0x62f
 4570 062f 12       		.uleb128 0x12
 4571 0630 67050000 		.4byte	0x567
 4572 0634 03       		.uleb128 0x3
 4573 0635 C5030000 		.4byte	.LASF80
 4574 0639 0C       		.byte	0xc
 4575 063a 55       		.byte	0x55
 4576 063b 12060000 		.4byte	0x612
 4577 063f 0D       		.uleb128 0xd
 4578 0640 7F000000 		.4byte	0x7f
 4579 0644 05       		.uleb128 0x5
 4580 0645 78010000 		.4byte	.LASF81
 4581 0649 20       		.byte	0x20
 4582 064a 0D       		.byte	0xd
 4583 064b 4E       		.byte	0x4e
 4584 064c C1060000 		.4byte	0x6c1
 4585 0650 06       		.uleb128 0x6
 4586 0651 ED040000 		.4byte	.LASF78
 4587 0655 0D       		.byte	0xd
 4588 0656 4F       		.byte	0x4f
 4589 0657 D1050000 		.4byte	0x5d1
 4590 065b 02       		.byte	0x2
 4591 065c 23       		.byte	0x23
 4592 065d 00       		.uleb128 0x0
ARM GAS  C:\Users\DNIEL~1\AppData\Local\Temp\ccaMIE7p.s 			page 83


 4593 065e 06       		.uleb128 0x6
 4594 065f 9F070000 		.4byte	.LASF79
 4595 0663 0D       		.byte	0xd
 4596 0664 4F       		.byte	0x4f
 4597 0665 F1050000 		.4byte	0x5f1
 4598 0669 02       		.byte	0x2
 4599 066a 23       		.byte	0x23
 4600 066b 04       		.uleb128 0x4
 4601 066c 07       		.uleb128 0x7
 4602 066d 70757400 		.ascii	"put\000"
 4603 0671 0D       		.byte	0xd
 4604 0672 4F       		.byte	0x4f
 4605 0673 0C060000 		.4byte	0x60c
 4606 0677 02       		.byte	0x2
 4607 0678 23       		.byte	0x23
 4608 0679 08       		.uleb128 0x8
 4609 067a 07       		.uleb128 0x7
 4610 067b 67657400 		.ascii	"get\000"
 4611 067f 0D       		.byte	0xd
 4612 0680 4F       		.byte	0x4f
 4613 0681 4B050000 		.4byte	0x54b
 4614 0685 02       		.byte	0x2
 4615 0686 23       		.byte	0x23
 4616 0687 0C       		.uleb128 0xc
 4617 0688 06       		.uleb128 0x6
 4618 0689 14030000 		.4byte	.LASF82
 4619 068d 0D       		.byte	0xd
 4620 068e 4F       		.byte	0x4f
 4621 068f DB060000 		.4byte	0x6db
 4622 0693 02       		.byte	0x2
 4623 0694 23       		.byte	0x23
 4624 0695 10       		.uleb128 0x10
 4625 0696 06       		.uleb128 0x6
 4626 0697 67000000 		.4byte	.LASF83
 4627 069b 0D       		.byte	0xd
 4628 069c 4F       		.byte	0x4f
 4629 069d F6060000 		.4byte	0x6f6
 4630 06a1 02       		.byte	0x2
 4631 06a2 23       		.byte	0x23
 4632 06a3 14       		.uleb128 0x14
 4633 06a4 06       		.uleb128 0x6
 4634 06a5 71010000 		.4byte	.LASF84
 4635 06a9 0D       		.byte	0xd
 4636 06aa 4F       		.byte	0x4f
 4637 06ab 1B070000 		.4byte	0x71b
 4638 06af 02       		.byte	0x2
 4639 06b0 23       		.byte	0x23
 4640 06b1 18       		.uleb128 0x18
 4641 06b2 06       		.uleb128 0x6
 4642 06b3 37090000 		.4byte	.LASF85
 4643 06b7 0D       		.byte	0xd
 4644 06b8 4F       		.byte	0x4f
 4645 06b9 40070000 		.4byte	0x740
 4646 06bd 02       		.byte	0x2
 4647 06be 23       		.byte	0x23
 4648 06bf 1C       		.uleb128 0x1c
 4649 06c0 00       		.byte	0x0
ARM GAS  C:\Users\DNIEL~1\AppData\Local\Temp\ccaMIE7p.s 			page 84


 4650 06c1 13       		.uleb128 0x13
 4651 06c2 01       		.byte	0x1
 4652 06c3 05010000 		.4byte	0x105
 4653 06c7 DB060000 		.4byte	0x6db
 4654 06cb 0F       		.uleb128 0xf
 4655 06cc B9020000 		.4byte	0x2b9
 4656 06d0 0F       		.uleb128 0xf
 4657 06d1 49000000 		.4byte	0x49
 4658 06d5 0F       		.uleb128 0xf
 4659 06d6 1B010000 		.4byte	0x11b
 4660 06da 00       		.byte	0x0
 4661 06db 09       		.uleb128 0x9
 4662 06dc 04       		.byte	0x4
 4663 06dd C1060000 		.4byte	0x6c1
 4664 06e1 13       		.uleb128 0x13
 4665 06e2 01       		.byte	0x1
 4666 06e3 05010000 		.4byte	0x105
 4667 06e7 F6060000 		.4byte	0x6f6
 4668 06eb 0F       		.uleb128 0xf
 4669 06ec B9020000 		.4byte	0x2b9
 4670 06f0 0F       		.uleb128 0xf
 4671 06f1 1B010000 		.4byte	0x11b
 4672 06f5 00       		.byte	0x0
 4673 06f6 09       		.uleb128 0x9
 4674 06f7 04       		.byte	0x4
 4675 06f8 E1060000 		.4byte	0x6e1
 4676 06fc 13       		.uleb128 0x13
 4677 06fd 01       		.byte	0x1
 4678 06fe 30000000 		.4byte	0x30
 4679 0702 1B070000 		.4byte	0x71b
 4680 0706 0F       		.uleb128 0xf
 4681 0707 B9020000 		.4byte	0x2b9
 4682 070b 0F       		.uleb128 0xf
 4683 070c C6050000 		.4byte	0x5c6
 4684 0710 0F       		.uleb128 0xf
 4685 0711 30000000 		.4byte	0x30
 4686 0715 0F       		.uleb128 0xf
 4687 0716 1B010000 		.4byte	0x11b
 4688 071a 00       		.byte	0x0
 4689 071b 09       		.uleb128 0x9
 4690 071c 04       		.byte	0x4
 4691 071d FC060000 		.4byte	0x6fc
 4692 0721 13       		.uleb128 0x13
 4693 0722 01       		.byte	0x1
 4694 0723 30000000 		.4byte	0x30
 4695 0727 40070000 		.4byte	0x740
 4696 072b 0F       		.uleb128 0xf
 4697 072c B9020000 		.4byte	0x2b9
 4698 0730 0F       		.uleb128 0xf
 4699 0731 61050000 		.4byte	0x561
 4700 0735 0F       		.uleb128 0xf
 4701 0736 30000000 		.4byte	0x30
 4702 073a 0F       		.uleb128 0xf
 4703 073b 1B010000 		.4byte	0x11b
 4704 073f 00       		.byte	0x0
 4705 0740 09       		.uleb128 0x9
 4706 0741 04       		.byte	0x4
ARM GAS  C:\Users\DNIEL~1\AppData\Local\Temp\ccaMIE7p.s 			page 85


 4707 0742 21070000 		.4byte	0x721
 4708 0746 08       		.uleb128 0x8
 4709 0747 04       		.byte	0x4
 4710 0748 0D       		.byte	0xd
 4711 0749 59       		.byte	0x59
 4712 074a 5D070000 		.4byte	0x75d
 4713 074e 07       		.uleb128 0x7
 4714 074f 766D7400 		.ascii	"vmt\000"
 4715 0753 0D       		.byte	0xd
 4716 0754 5B       		.byte	0x5b
 4717 0755 5D070000 		.4byte	0x75d
 4718 0759 02       		.byte	0x2
 4719 075a 23       		.byte	0x23
 4720 075b 00       		.uleb128 0x0
 4721 075c 00       		.byte	0x0
 4722 075d 09       		.uleb128 0x9
 4723 075e 04       		.byte	0x4
 4724 075f 63070000 		.4byte	0x763
 4725 0763 12       		.uleb128 0x12
 4726 0764 44060000 		.4byte	0x644
 4727 0768 03       		.uleb128 0x3
 4728 0769 75040000 		.4byte	.LASF86
 4729 076d 0D       		.byte	0xd
 4730 076e 5D       		.byte	0x5d
 4731 076f 46070000 		.4byte	0x746
 4732 0773 08       		.uleb128 0x8
 4733 0774 04       		.byte	0x4
 4734 0775 0E       		.byte	0xe
 4735 0776 96       		.byte	0x96
 4736 0777 98070000 		.4byte	0x798
 4737 077b 07       		.uleb128 0x7
 4738 077c 73657400 		.ascii	"set\000"
 4739 0780 0E       		.byte	0xe
 4740 0781 97       		.byte	0x97
 4741 0782 6D000000 		.4byte	0x6d
 4742 0786 02       		.byte	0x2
 4743 0787 23       		.byte	0x23
 4744 0788 00       		.uleb128 0x0
 4745 0789 06       		.uleb128 0x6
 4746 078a C2020000 		.4byte	.LASF87
 4747 078e 0E       		.byte	0xe
 4748 078f 98       		.byte	0x98
 4749 0790 6D000000 		.4byte	0x6d
 4750 0794 02       		.byte	0x2
 4751 0795 23       		.byte	0x23
 4752 0796 02       		.uleb128 0x2
 4753 0797 00       		.byte	0x0
 4754 0798 10       		.uleb128 0x10
 4755 0799 04       		.byte	0x4
 4756 079a 0E       		.byte	0xe
 4757 079b 94       		.byte	0x94
 4758 079c B3070000 		.4byte	0x7b3
 4759 07a0 14       		.uleb128 0x14
 4760 07a1 5700     		.ascii	"W\000"
 4761 07a3 0E       		.byte	0xe
 4762 07a4 95       		.byte	0x95
 4763 07a5 91000000 		.4byte	0x91
ARM GAS  C:\Users\DNIEL~1\AppData\Local\Temp\ccaMIE7p.s 			page 86


 4764 07a9 14       		.uleb128 0x14
 4765 07aa 4800     		.ascii	"H\000"
 4766 07ac 0E       		.byte	0xe
 4767 07ad 99       		.byte	0x99
 4768 07ae 73070000 		.4byte	0x773
 4769 07b2 00       		.byte	0x0
 4770 07b3 08       		.uleb128 0x8
 4771 07b4 28       		.byte	0x28
 4772 07b5 0E       		.byte	0xe
 4773 07b6 8C       		.byte	0x8c
 4774 07b7 48080000 		.4byte	0x848
 4775 07bb 06       		.uleb128 0x6
 4776 07bc 56030000 		.4byte	.LASF88
 4777 07c0 0E       		.byte	0xe
 4778 07c1 8E       		.byte	0x8e
 4779 07c2 77030000 		.4byte	0x377
 4780 07c6 02       		.byte	0x2
 4781 07c7 23       		.byte	0x23
 4782 07c8 00       		.uleb128 0x0
 4783 07c9 06       		.uleb128 0x6
 4784 07ca 54070000 		.4byte	.LASF89
 4785 07ce 0E       		.byte	0xe
 4786 07cf 8F       		.byte	0x8f
 4787 07d0 77030000 		.4byte	0x377
 4788 07d4 02       		.byte	0x2
 4789 07d5 23       		.byte	0x23
 4790 07d6 04       		.uleb128 0x4
 4791 07d7 06       		.uleb128 0x6
 4792 07d8 20060000 		.4byte	.LASF90
 4793 07dc 0E       		.byte	0xe
 4794 07dd 90       		.byte	0x90
 4795 07de 77030000 		.4byte	0x377
 4796 07e2 02       		.byte	0x2
 4797 07e3 23       		.byte	0x23
 4798 07e4 08       		.uleb128 0x8
 4799 07e5 06       		.uleb128 0x6
 4800 07e6 AC030000 		.4byte	.LASF91
 4801 07ea 0E       		.byte	0xe
 4802 07eb 91       		.byte	0x91
 4803 07ec 77030000 		.4byte	0x377
 4804 07f0 02       		.byte	0x2
 4805 07f1 23       		.byte	0x23
 4806 07f2 0C       		.uleb128 0xc
 4807 07f3 07       		.uleb128 0x7
 4808 07f4 49445200 		.ascii	"IDR\000"
 4809 07f8 0E       		.byte	0xe
 4810 07f9 92       		.byte	0x92
 4811 07fa 77030000 		.4byte	0x377
 4812 07fe 02       		.byte	0x2
 4813 07ff 23       		.byte	0x23
 4814 0800 10       		.uleb128 0x10
 4815 0801 07       		.uleb128 0x7
 4816 0802 4F445200 		.ascii	"ODR\000"
 4817 0806 0E       		.byte	0xe
 4818 0807 93       		.byte	0x93
 4819 0808 77030000 		.4byte	0x377
 4820 080c 02       		.byte	0x2
ARM GAS  C:\Users\DNIEL~1\AppData\Local\Temp\ccaMIE7p.s 			page 87


 4821 080d 23       		.byte	0x23
 4822 080e 14       		.uleb128 0x14
 4823 080f 06       		.uleb128 0x6
 4824 0810 48000000 		.4byte	.LASF92
 4825 0814 0E       		.byte	0xe
 4826 0815 9A       		.byte	0x9a
 4827 0816 48080000 		.4byte	0x848
 4828 081a 02       		.byte	0x2
 4829 081b 23       		.byte	0x23
 4830 081c 18       		.uleb128 0x18
 4831 081d 06       		.uleb128 0x6
 4832 081e F9090000 		.4byte	.LASF93
 4833 0822 0E       		.byte	0xe
 4834 0823 9B       		.byte	0x9b
 4835 0824 77030000 		.4byte	0x377
 4836 0828 02       		.byte	0x2
 4837 0829 23       		.byte	0x23
 4838 082a 1C       		.uleb128 0x1c
 4839 082b 06       		.uleb128 0x6
 4840 082c 96020000 		.4byte	.LASF94
 4841 0830 0E       		.byte	0xe
 4842 0831 9C       		.byte	0x9c
 4843 0832 77030000 		.4byte	0x377
 4844 0836 02       		.byte	0x2
 4845 0837 23       		.byte	0x23
 4846 0838 20       		.uleb128 0x20
 4847 0839 06       		.uleb128 0x6
 4848 083a 0D080000 		.4byte	.LASF95
 4849 083e 0E       		.byte	0xe
 4850 083f 9D       		.byte	0x9d
 4851 0840 77030000 		.4byte	0x377
 4852 0844 02       		.byte	0x2
 4853 0845 23       		.byte	0x23
 4854 0846 24       		.uleb128 0x24
 4855 0847 00       		.byte	0x0
 4856 0848 0D       		.uleb128 0xd
 4857 0849 98070000 		.4byte	0x798
 4858 084d 03       		.uleb128 0x3
 4859 084e B5070000 		.4byte	.LASF96
 4860 0852 0E       		.byte	0xe
 4861 0853 9E       		.byte	0x9e
 4862 0854 B3070000 		.4byte	0x7b3
 4863 0858 15       		.uleb128 0x15
 4864 0859 66030000 		.4byte	.LASF105
 4865 085d 01       		.byte	0x1
 4866 085e 0F       		.byte	0xf
 4867 085f 0C       		.byte	0xc
 4868 0860 95080000 		.4byte	0x895
 4869 0864 16       		.uleb128 0x16
 4870 0865 C6080000 		.4byte	.LASF97
 4871 0869 00       		.sleb128 0
 4872 086a 16       		.uleb128 0x16
 4873 086b 51010000 		.4byte	.LASF98
 4874 086f 01       		.sleb128 1
 4875 0870 16       		.uleb128 0x16
 4876 0871 5C010000 		.4byte	.LASF99
 4877 0875 02       		.sleb128 2
ARM GAS  C:\Users\DNIEL~1\AppData\Local\Temp\ccaMIE7p.s 			page 88


 4878 0876 16       		.uleb128 0x16
 4879 0877 E0050000 		.4byte	.LASF100
 4880 087b 03       		.sleb128 3
 4881 087c 16       		.uleb128 0x16
 4882 087d 9B020000 		.4byte	.LASF101
 4883 0881 04       		.sleb128 4
 4884 0882 16       		.uleb128 0x16
 4885 0883 A0040000 		.4byte	.LASF102
 4886 0887 05       		.sleb128 5
 4887 0888 16       		.uleb128 0x16
 4888 0889 EF090000 		.4byte	.LASF103
 4889 088d 06       		.sleb128 6
 4890 088e 16       		.uleb128 0x16
 4891 088f BA080000 		.4byte	.LASF104
 4892 0893 07       		.sleb128 7
 4893 0894 00       		.byte	0x0
 4894 0895 15       		.uleb128 0x15
 4895 0896 87010000 		.4byte	.LASF106
 4896 089a 01       		.byte	0x1
 4897 089b 0F       		.byte	0xf
 4898 089c 18       		.byte	0x18
 4899 089d BA080000 		.4byte	0x8ba
 4900 08a1 16       		.uleb128 0x16
 4901 08a2 77070000 		.4byte	.LASF107
 4902 08a6 00       		.sleb128 0
 4903 08a7 16       		.uleb128 0x16
 4904 08a8 41030000 		.4byte	.LASF108
 4905 08ac 01       		.sleb128 1
 4906 08ad 16       		.uleb128 0x16
 4907 08ae EC060000 		.4byte	.LASF109
 4908 08b2 02       		.sleb128 2
 4909 08b3 16       		.uleb128 0x16
 4910 08b4 12080000 		.4byte	.LASF110
 4911 08b8 03       		.sleb128 3
 4912 08b9 00       		.byte	0x0
 4913 08ba 09       		.uleb128 0x9
 4914 08bb 04       		.byte	0x4
 4915 08bc 3E050000 		.4byte	0x53e
 4916 08c0 04       		.uleb128 0x4
 4917 08c1 08       		.byte	0x8
 4918 08c2 04       		.byte	0x4
 4919 08c3 8C090000 		.4byte	.LASF111
 4920 08c7 04       		.uleb128 0x4
 4921 08c8 04       		.byte	0x4
 4922 08c9 04       		.byte	0x4
 4923 08ca F7010000 		.4byte	.LASF112
 4924 08ce 04       		.uleb128 0x4
 4925 08cf 08       		.byte	0x8
 4926 08d0 04       		.byte	0x4
 4927 08d1 49060000 		.4byte	.LASF113
 4928 08d5 03       		.uleb128 0x3
 4929 08d6 FA020000 		.4byte	.LASF114
 4930 08da 10       		.byte	0x10
 4931 08db 28       		.byte	0x28
 4932 08dc E0080000 		.4byte	0x8e0
 4933 08e0 05       		.uleb128 0x5
 4934 08e1 37000000 		.4byte	.LASF115
ARM GAS  C:\Users\DNIEL~1\AppData\Local\Temp\ccaMIE7p.s 			page 89


 4935 08e5 04       		.byte	0x4
 4936 08e6 11       		.byte	0x11
 4937 08e7 00       		.byte	0x0
 4938 08e8 FA080000 		.4byte	0x8fa
 4939 08ec 17       		.uleb128 0x17
 4940 08ed 70050000 		.4byte	.LASF116
 4941 08f1 B9020000 		.4byte	0x2b9
 4942 08f5 02       		.byte	0x2
 4943 08f6 23       		.byte	0x23
 4944 08f7 00       		.uleb128 0x0
 4945 08f8 01       		.byte	0x1
 4946 08f9 00       		.byte	0x0
 4947 08fa 05       		.uleb128 0x5
 4948 08fb 63020000 		.4byte	.LASF117
 4949 08ff 2C       		.byte	0x2c
 4950 0900 12       		.byte	0x12
 4951 0901 15       		.byte	0x15
 4952 0902 560A0000 		.4byte	0xa56
 4953 0906 07       		.uleb128 0x7
 4954 0907 696400   		.ascii	"id\000"
 4955 090a 12       		.byte	0x12
 4956 090b 17       		.byte	0x17
 4957 090c 91000000 		.4byte	0x91
 4958 0910 02       		.byte	0x2
 4959 0911 23       		.byte	0x23
 4960 0912 00       		.uleb128 0x0
 4961 0913 06       		.uleb128 0x6
 4962 0914 0F050000 		.4byte	.LASF118
 4963 0918 12       		.byte	0x12
 4964 0919 18       		.byte	0x18
 4965 091a 49000000 		.4byte	0x49
 4966 091e 02       		.byte	0x2
 4967 091f 23       		.byte	0x23
 4968 0920 04       		.uleb128 0x4
 4969 0921 06       		.uleb128 0x6
 4970 0922 2D070000 		.4byte	.LASF119
 4971 0926 12       		.byte	0x12
 4972 0927 19       		.byte	0x19
 4973 0928 6D000000 		.4byte	0x6d
 4974 092c 02       		.byte	0x2
 4975 092d 23       		.byte	0x23
 4976 092e 06       		.uleb128 0x6
 4977 092f 06       		.uleb128 0x6
 4978 0930 A4060000 		.4byte	.LASF120
 4979 0934 12       		.byte	0x12
 4980 0935 1A       		.byte	0x1a
 4981 0936 6D000000 		.4byte	0x6d
 4982 093a 02       		.byte	0x2
 4983 093b 23       		.byte	0x23
 4984 093c 08       		.uleb128 0x8
 4985 093d 06       		.uleb128 0x6
 4986 093e 3B040000 		.4byte	.LASF121
 4987 0942 12       		.byte	0x12
 4988 0943 1B       		.byte	0x1b
 4989 0944 49000000 		.4byte	0x49
 4990 0948 02       		.byte	0x2
 4991 0949 23       		.byte	0x23
ARM GAS  C:\Users\DNIEL~1\AppData\Local\Temp\ccaMIE7p.s 			page 90


 4992 094a 0A       		.uleb128 0xa
 4993 094b 06       		.uleb128 0x6
 4994 094c 0B090000 		.4byte	.LASF122
 4995 0950 12       		.byte	0x12
 4996 0951 1C       		.byte	0x1c
 4997 0952 6D000000 		.4byte	0x6d
 4998 0956 02       		.byte	0x2
 4999 0957 23       		.byte	0x23
 5000 0958 0C       		.uleb128 0xc
 5001 0959 06       		.uleb128 0x6
 5002 095a 05010000 		.4byte	.LASF123
 5003 095e 12       		.byte	0x12
 5004 095f 1D       		.byte	0x1d
 5005 0960 49000000 		.4byte	0x49
 5006 0964 02       		.byte	0x2
 5007 0965 23       		.byte	0x23
 5008 0966 0E       		.uleb128 0xe
 5009 0967 06       		.uleb128 0x6
 5010 0968 81030000 		.4byte	.LASF124
 5011 096c 12       		.byte	0x12
 5012 096d 1E       		.byte	0x1e
 5013 096e 49000000 		.4byte	0x49
 5014 0972 02       		.byte	0x2
 5015 0973 23       		.byte	0x23
 5016 0974 0F       		.uleb128 0xf
 5017 0975 06       		.uleb128 0x6
 5018 0976 AA090000 		.4byte	.LASF125
 5019 097a 12       		.byte	0x12
 5020 097b 1F       		.byte	0x1f
 5021 097c 49000000 		.4byte	0x49
 5022 0980 02       		.byte	0x2
 5023 0981 23       		.byte	0x23
 5024 0982 10       		.uleb128 0x10
 5025 0983 06       		.uleb128 0x6
 5026 0984 B4040000 		.4byte	.LASF126
 5027 0988 12       		.byte	0x12
 5028 0989 20       		.byte	0x20
 5029 098a 6D000000 		.4byte	0x6d
 5030 098e 02       		.byte	0x2
 5031 098f 23       		.byte	0x23
 5032 0990 12       		.uleb128 0x12
 5033 0991 06       		.uleb128 0x6
 5034 0992 3D090000 		.4byte	.LASF127
 5035 0996 12       		.byte	0x12
 5036 0997 21       		.byte	0x21
 5037 0998 6D000000 		.4byte	0x6d
 5038 099c 02       		.byte	0x2
 5039 099d 23       		.byte	0x23
 5040 099e 14       		.uleb128 0x14
 5041 099f 06       		.uleb128 0x6
 5042 09a0 40020000 		.4byte	.LASF128
 5043 09a4 12       		.byte	0x12
 5044 09a5 22       		.byte	0x22
 5045 09a6 6D000000 		.4byte	0x6d
 5046 09aa 02       		.byte	0x2
 5047 09ab 23       		.byte	0x23
 5048 09ac 16       		.uleb128 0x16
ARM GAS  C:\Users\DNIEL~1\AppData\Local\Temp\ccaMIE7p.s 			page 91


 5049 09ad 06       		.uleb128 0x6
 5050 09ae 2D080000 		.4byte	.LASF129
 5051 09b2 12       		.byte	0x12
 5052 09b3 23       		.byte	0x23
 5053 09b4 5B000000 		.4byte	0x5b
 5054 09b8 02       		.byte	0x2
 5055 09b9 23       		.byte	0x23
 5056 09ba 18       		.uleb128 0x18
 5057 09bb 06       		.uleb128 0x6
 5058 09bc A4070000 		.4byte	.LASF130
 5059 09c0 12       		.byte	0x12
 5060 09c1 24       		.byte	0x24
 5061 09c2 49000000 		.4byte	0x49
 5062 09c6 02       		.byte	0x2
 5063 09c7 23       		.byte	0x23
 5064 09c8 1A       		.uleb128 0x1a
 5065 09c9 06       		.uleb128 0x6
 5066 09ca 5F050000 		.4byte	.LASF131
 5067 09ce 12       		.byte	0x12
 5068 09cf 25       		.byte	0x25
 5069 09d0 49000000 		.4byte	0x49
 5070 09d4 02       		.byte	0x2
 5071 09d5 23       		.byte	0x23
 5072 09d6 1B       		.uleb128 0x1b
 5073 09d7 06       		.uleb128 0x6
 5074 09d8 52090000 		.4byte	.LASF132
 5075 09dc 12       		.byte	0x12
 5076 09dd 26       		.byte	0x26
 5077 09de 49000000 		.4byte	0x49
 5078 09e2 02       		.byte	0x2
 5079 09e3 23       		.byte	0x23
 5080 09e4 1C       		.uleb128 0x1c
 5081 09e5 06       		.uleb128 0x6
 5082 09e6 89020000 		.4byte	.LASF133
 5083 09ea 12       		.byte	0x12
 5084 09eb 27       		.byte	0x27
 5085 09ec 6D000000 		.4byte	0x6d
 5086 09f0 02       		.byte	0x2
 5087 09f1 23       		.byte	0x23
 5088 09f2 1E       		.uleb128 0x1e
 5089 09f3 06       		.uleb128 0x6
 5090 09f4 1D050000 		.4byte	.LASF134
 5091 09f8 12       		.byte	0x12
 5092 09f9 28       		.byte	0x28
 5093 09fa 49000000 		.4byte	0x49
 5094 09fe 02       		.byte	0x2
 5095 09ff 23       		.byte	0x23
 5096 0a00 20       		.uleb128 0x20
 5097 0a01 06       		.uleb128 0x6
 5098 0a02 8B040000 		.4byte	.LASF135
 5099 0a06 12       		.byte	0x12
 5100 0a07 29       		.byte	0x29
 5101 0a08 6D000000 		.4byte	0x6d
 5102 0a0c 02       		.byte	0x2
 5103 0a0d 23       		.byte	0x23
 5104 0a0e 22       		.uleb128 0x22
 5105 0a0f 06       		.uleb128 0x6
ARM GAS  C:\Users\DNIEL~1\AppData\Local\Temp\ccaMIE7p.s 			page 92


 5106 0a10 5B080000 		.4byte	.LASF136
 5107 0a14 12       		.byte	0x12
 5108 0a15 2A       		.byte	0x2a
 5109 0a16 49000000 		.4byte	0x49
 5110 0a1a 02       		.byte	0x2
 5111 0a1b 23       		.byte	0x23
 5112 0a1c 24       		.uleb128 0x24
 5113 0a1d 06       		.uleb128 0x6
 5114 0a1e B8090000 		.4byte	.LASF137
 5115 0a22 12       		.byte	0x12
 5116 0a23 2B       		.byte	0x2b
 5117 0a24 49000000 		.4byte	0x49
 5118 0a28 02       		.byte	0x2
 5119 0a29 23       		.byte	0x23
 5120 0a2a 25       		.uleb128 0x25
 5121 0a2b 06       		.uleb128 0x6
 5122 0a2c 050A0000 		.4byte	.LASF138
 5123 0a30 12       		.byte	0x12
 5124 0a31 2C       		.byte	0x2c
 5125 0a32 49000000 		.4byte	0x49
 5126 0a36 02       		.byte	0x2
 5127 0a37 23       		.byte	0x23
 5128 0a38 26       		.uleb128 0x26
 5129 0a39 06       		.uleb128 0x6
 5130 0a3a 5C030000 		.4byte	.LASF139
 5131 0a3e 12       		.byte	0x12
 5132 0a3f 2D       		.byte	0x2d
 5133 0a40 49000000 		.4byte	0x49
 5134 0a44 02       		.byte	0x2
 5135 0a45 23       		.byte	0x23
 5136 0a46 27       		.uleb128 0x27
 5137 0a47 06       		.uleb128 0x6
 5138 0a48 51020000 		.4byte	.LASF140
 5139 0a4c 12       		.byte	0x12
 5140 0a4d 2E       		.byte	0x2e
 5141 0a4e 6D000000 		.4byte	0x6d
 5142 0a52 02       		.byte	0x2
 5143 0a53 23       		.byte	0x23
 5144 0a54 28       		.uleb128 0x28
 5145 0a55 00       		.byte	0x0
 5146 0a56 15       		.uleb128 0x15
 5147 0a57 92050000 		.4byte	.LASF141
 5148 0a5b 01       		.byte	0x1
 5149 0a5c 13       		.byte	0x13
 5150 0a5d 0C       		.byte	0xc
 5151 0a5e 750A0000 		.4byte	0xa75
 5152 0a62 16       		.uleb128 0x16
 5153 0a63 24020000 		.4byte	.LASF142
 5154 0a67 00       		.sleb128 0
 5155 0a68 16       		.uleb128 0x16
 5156 0a69 5E040000 		.4byte	.LASF143
 5157 0a6d 01       		.sleb128 1
 5158 0a6e 16       		.uleb128 0x16
 5159 0a6f E7030000 		.4byte	.LASF144
 5160 0a73 02       		.sleb128 2
 5161 0a74 00       		.byte	0x0
 5162 0a75 03       		.uleb128 0x3
ARM GAS  C:\Users\DNIEL~1\AppData\Local\Temp\ccaMIE7p.s 			page 93


 5163 0a76 C2040000 		.4byte	.LASF145
 5164 0a7a 10       		.byte	0x10
 5165 0a7b 66       		.byte	0x66
 5166 0a7c D5080000 		.4byte	0x8d5
 5167 0a80 15       		.uleb128 0x15
 5168 0a81 6E080000 		.4byte	.LASF146
 5169 0a85 01       		.byte	0x1
 5170 0a86 02       		.byte	0x2
 5171 0a87 1B       		.byte	0x1b
 5172 0a88 990A0000 		.4byte	0xa99
 5173 0a8c 16       		.uleb128 0x16
 5174 0a8d 78020000 		.4byte	.LASF147
 5175 0a91 00       		.sleb128 0
 5176 0a92 16       		.uleb128 0x16
 5177 0a93 B2030000 		.4byte	.LASF148
 5178 0a97 01       		.sleb128 1
 5179 0a98 00       		.byte	0x0
 5180 0a99 15       		.uleb128 0x15
 5181 0a9a 6C020000 		.4byte	.LASF149
 5182 0a9e 01       		.byte	0x1
 5183 0a9f 02       		.byte	0x2
 5184 0aa0 20       		.byte	0x20
 5185 0aa1 6C0B0000 		.4byte	0xb6c
 5186 0aa5 16       		.uleb128 0x16
 5187 0aa6 95010000 		.4byte	.LASF150
 5188 0aaa 00       		.sleb128 0
 5189 0aab 16       		.uleb128 0x16
 5190 0aac FB040000 		.4byte	.LASF151
 5191 0ab0 01       		.sleb128 1
 5192 0ab1 16       		.uleb128 0x16
 5193 0ab2 BA050000 		.4byte	.LASF152
 5194 0ab6 02       		.sleb128 2
 5195 0ab7 16       		.uleb128 0x16
 5196 0ab8 5D000000 		.4byte	.LASF153
 5197 0abc 03       		.sleb128 3
 5198 0abd 16       		.uleb128 0x16
 5199 0abe D0080000 		.4byte	.LASF154
 5200 0ac2 04       		.sleb128 4
 5201 0ac3 16       		.uleb128 0x16
 5202 0ac4 7B090000 		.4byte	.LASF155
 5203 0ac8 05       		.sleb128 5
 5204 0ac9 16       		.uleb128 0x16
 5205 0aca E8020000 		.4byte	.LASF156
 5206 0ace 06       		.sleb128 6
 5207 0acf 16       		.uleb128 0x16
 5208 0ad0 D3090000 		.4byte	.LASF157
 5209 0ad4 07       		.sleb128 7
 5210 0ad5 16       		.uleb128 0x16
 5211 0ad6 5B090000 		.4byte	.LASF158
 5212 0ada 08       		.sleb128 8
 5213 0adb 16       		.uleb128 0x16
 5214 0adc 25000000 		.4byte	.LASF159
 5215 0ae0 09       		.sleb128 9
 5216 0ae1 16       		.uleb128 0x16
 5217 0ae2 1A010000 		.4byte	.LASF160
 5218 0ae6 0A       		.sleb128 10
 5219 0ae7 16       		.uleb128 0x16
ARM GAS  C:\Users\DNIEL~1\AppData\Local\Temp\ccaMIE7p.s 			page 94


 5220 0ae8 F4080000 		.4byte	.LASF161
 5221 0aec 0B       		.sleb128 11
 5222 0aed 16       		.uleb128 0x16
 5223 0aee 9B090000 		.4byte	.LASF162
 5224 0af2 0C       		.sleb128 12
 5225 0af3 16       		.uleb128 0x16
 5226 0af4 CA040000 		.4byte	.LASF163
 5227 0af8 0D       		.sleb128 13
 5228 0af9 16       		.uleb128 0x16
 5229 0afa BD010000 		.4byte	.LASF164
 5230 0afe 0E       		.sleb128 14
 5231 0aff 16       		.uleb128 0x16
 5232 0b00 D9000000 		.4byte	.LASF165
 5233 0b04 0F       		.sleb128 15
 5234 0b05 16       		.uleb128 0x16
 5235 0b06 4C050000 		.4byte	.LASF166
 5236 0b0a 10       		.sleb128 16
 5237 0b0b 16       		.uleb128 0x16
 5238 0b0c 2B010000 		.4byte	.LASF167
 5239 0b10 11       		.sleb128 17
 5240 0b11 16       		.uleb128 0x16
 5241 0b12 D7020000 		.4byte	.LASF168
 5242 0b16 12       		.sleb128 18
 5243 0b17 16       		.uleb128 0x16
 5244 0b18 15090000 		.4byte	.LASF169
 5245 0b1c 13       		.sleb128 19
 5246 0b1d 16       		.uleb128 0x16
 5247 0b1e 75050000 		.4byte	.LASF170
 5248 0b22 14       		.sleb128 20
 5249 0b23 16       		.uleb128 0x16
 5250 0b24 3D010000 		.4byte	.LASF171
 5251 0b28 15       		.sleb128 21
 5252 0b29 16       		.uleb128 0x16
 5253 0b2a 98080000 		.4byte	.LASF172
 5254 0b2e 16       		.sleb128 22
 5255 0b2f 16       		.uleb128 0x16
 5256 0b30 15000000 		.4byte	.LASF173
 5257 0b34 17       		.sleb128 23
 5258 0b35 16       		.uleb128 0x16
 5259 0b36 AA050000 		.4byte	.LASF174
 5260 0b3a 18       		.sleb128 24
 5261 0b3b 16       		.uleb128 0x16
 5262 0b3c AD060000 		.4byte	.LASF175
 5263 0b40 19       		.sleb128 25
 5264 0b41 16       		.uleb128 0x16
 5265 0b42 A1000000 		.4byte	.LASF176
 5266 0b46 1A       		.sleb128 26
 5267 0b47 16       		.uleb128 0x16
 5268 0b48 2A040000 		.4byte	.LASF177
 5269 0b4c 1B       		.sleb128 27
 5270 0b4d 16       		.uleb128 0x16
 5271 0b4e 4B080000 		.4byte	.LASF178
 5272 0b52 1C       		.sleb128 28
 5273 0b53 16       		.uleb128 0x16
 5274 0b54 73030000 		.4byte	.LASF179
 5275 0b58 1D       		.sleb128 29
 5276 0b59 16       		.uleb128 0x16
ARM GAS  C:\Users\DNIEL~1\AppData\Local\Temp\ccaMIE7p.s 			page 95


 5277 0b5a 90070000 		.4byte	.LASF180
 5278 0b5e 1E       		.sleb128 30
 5279 0b5f 16       		.uleb128 0x16
 5280 0b60 9F050000 		.4byte	.LASF181
 5281 0b64 1F       		.sleb128 31
 5282 0b65 16       		.uleb128 0x16
 5283 0b66 D1010000 		.4byte	.LASF182
 5284 0b6a 20       		.sleb128 32
 5285 0b6b 00       		.byte	0x0
 5286 0b6c 18       		.uleb128 0x18
 5287 0b6d 9E030000 		.4byte	.LASF225
 5288 0b71 01       		.byte	0x1
 5289 0b72 45       		.byte	0x45
 5290 0b73 01       		.byte	0x1
 5291 0b74 00000000 		.4byte	.LFB118
 5292 0b78 1E000000 		.4byte	.LFE118
 5293 0b7c 00000000 		.4byte	.LLST0
 5294 0b80 B00B0000 		.4byte	0xbb0
 5295 0b84 19       		.uleb128 0x19
 5296 0b85 63687000 		.ascii	"chp\000"
 5297 0b89 01       		.byte	0x1
 5298 0b8a 45       		.byte	0x45
 5299 0b8b B00B0000 		.4byte	0xbb0
 5300 0b8f 38000000 		.4byte	.LLST1
 5301 0b93 1A       		.uleb128 0x1a
 5302 0b94 666D7400 		.ascii	"fmt\000"
 5303 0b98 01       		.byte	0x1
 5304 0b99 45       		.byte	0x45
 5305 0b9a 33050000 		.4byte	0x533
 5306 0b9e 02       		.byte	0x2
 5307 0b9f 91       		.byte	0x91
 5308 0ba0 74       		.sleb128 -12
 5309 0ba1 1B       		.uleb128 0x1b
 5310 0ba2 1C       		.uleb128 0x1c
 5311 0ba3 617000   		.ascii	"ap\000"
 5312 0ba6 01       		.byte	0x1
 5313 0ba7 46       		.byte	0x46
 5314 0ba8 750A0000 		.4byte	0xa75
 5315 0bac 02       		.byte	0x2
 5316 0bad 91       		.byte	0x91
 5317 0bae 6C       		.sleb128 -20
 5318 0baf 00       		.byte	0x0
 5319 0bb0 09       		.uleb128 0x9
 5320 0bb1 04       		.byte	0x4
 5321 0bb2 34060000 		.4byte	0x634
 5322 0bb6 1D       		.uleb128 0x1d
 5323 0bb7 4E040000 		.4byte	.LASF226
 5324 0bbb 02       		.byte	0x2
 5325 0bbc D1       		.byte	0xd1
 5326 0bbd 01       		.byte	0x1
 5327 0bbe 05010000 		.4byte	0x105
 5328 0bc2 00000000 		.4byte	.LFB123
 5329 0bc6 F60B0000 		.4byte	.LFE123
 5330 0bca 4B000000 		.4byte	.LLST2
 5331 0bce 3C0C0000 		.4byte	0xc3c
 5332 0bd2 19       		.uleb128 0x19
 5333 0bd3 61726700 		.ascii	"arg\000"
ARM GAS  C:\Users\DNIEL~1\AppData\Local\Temp\ccaMIE7p.s 			page 96


 5334 0bd7 02       		.byte	0x2
 5335 0bd8 D1       		.byte	0xd1
 5336 0bd9 B9020000 		.4byte	0x2b9
 5337 0bdd 77000000 		.4byte	.LLST3
 5338 0be1 1E       		.uleb128 0x1e
 5339 0be2 84020000 		.4byte	.LASF183
 5340 0be6 02       		.byte	0x2
 5341 0be7 D2       		.byte	0xd2
 5342 0be8 1B010000 		.4byte	0x11b
 5343 0bec 01       		.byte	0x1
 5344 0bed 53       		.byte	0x53
 5345 0bee 1F       		.uleb128 0x1f
 5346 0bef 00000000 		.4byte	.Ldebug_ranges0+0x0
 5347 0bf3 20       		.uleb128 0x20
 5348 0bf4 44050000 		.4byte	.LASF184
 5349 0bf8 02       		.byte	0x2
 5350 0bf9 D8       		.byte	0xd8
 5351 0bfa 7F000000 		.4byte	0x7f
 5352 0bfe 8A000000 		.4byte	.LLST4
 5353 0c02 20       		.uleb128 0x20
 5354 0c03 19030000 		.4byte	.LASF185
 5355 0c07 02       		.byte	0x2
 5356 0c08 D9       		.byte	0xd9
 5357 0c09 91000000 		.4byte	0x91
 5358 0c0d A6030000 		.4byte	.LLST5
 5359 0c11 1F       		.uleb128 0x1f
 5360 0c12 18000000 		.4byte	.Ldebug_ranges0+0x18
 5361 0c16 21       		.uleb128 0x21
 5362 0c17 01       		.byte	0x1
 5363 0c18 04040000 		.4byte	.LASF200
 5364 0c1c 02       		.byte	0x2
 5365 0c1d F4       		.byte	0xf4
 5366 0c1e 29000000 		.4byte	0x29
 5367 0c22 01       		.byte	0x1
 5368 0c23 290C0000 		.4byte	0xc29
 5369 0c27 1B       		.uleb128 0x1b
 5370 0c28 00       		.byte	0x0
 5371 0c29 22       		.uleb128 0x22
 5372 0c2a 01       		.byte	0x1
 5373 0c2b C8020000 		.4byte	.LASF188
 5374 0c2f 02       		.byte	0x2
 5375 0c30 8902     		.2byte	0x289
 5376 0c32 29000000 		.4byte	0x29
 5377 0c36 01       		.byte	0x1
 5378 0c37 1B       		.uleb128 0x1b
 5379 0c38 00       		.byte	0x0
 5380 0c39 00       		.byte	0x0
 5381 0c3a 00       		.byte	0x0
 5382 0c3b 00       		.byte	0x0
 5383 0c3c 23       		.uleb128 0x23
 5384 0c3d 01       		.byte	0x1
 5385 0c3e EE050000 		.4byte	.LASF186
 5386 0c42 02       		.byte	0x2
 5387 0c43 50       		.byte	0x50
 5388 0c44 01       		.byte	0x1
 5389 0c45 00000000 		.4byte	.LFB119
 5390 0c49 D0000000 		.4byte	.LFE119
ARM GAS  C:\Users\DNIEL~1\AppData\Local\Temp\ccaMIE7p.s 			page 97


 5391 0c4d DA030000 		.4byte	.LLST6
 5392 0c51 23       		.uleb128 0x23
 5393 0c52 01       		.byte	0x1
 5394 0c53 3B060000 		.4byte	.LASF187
 5395 0c57 02       		.byte	0x2
 5396 0c58 71       		.byte	0x71
 5397 0c59 01       		.byte	0x1
 5398 0c5a 00000000 		.4byte	.LFB120
 5399 0c5e 74000000 		.4byte	.LFE120
 5400 0c62 FA030000 		.4byte	.LLST7
 5401 0c66 24       		.uleb128 0x24
 5402 0c67 01       		.byte	0x1
 5403 0c68 45070000 		.4byte	.LASF190
 5404 0c6c 02       		.byte	0x2
 5405 0c6d 84       		.byte	0x84
 5406 0c6e 01       		.byte	0x1
 5407 0c6f 00000000 		.4byte	.LFB121
 5408 0c73 24010000 		.4byte	.LFE121
 5409 0c77 1A040000 		.4byte	.LLST8
 5410 0c7b 8F0C0000 		.4byte	0xc8f
 5411 0c7f 25       		.uleb128 0x25
 5412 0c80 01       		.byte	0x1
 5413 0c81 81040000 		.4byte	.LASF189
 5414 0c85 02       		.byte	0x2
 5415 0c86 86       		.byte	0x86
 5416 0c87 29000000 		.4byte	0x29
 5417 0c8b 01       		.byte	0x1
 5418 0c8c 1B       		.uleb128 0x1b
 5419 0c8d 00       		.byte	0x0
 5420 0c8e 00       		.byte	0x0
 5421 0c8f 24       		.uleb128 0x24
 5422 0c90 01       		.byte	0x1
 5423 0c91 BC060000 		.4byte	.LASF191
 5424 0c95 02       		.byte	0x2
 5425 0c96 AC       		.byte	0xac
 5426 0c97 01       		.byte	0x1
 5427 0c98 00000000 		.4byte	.LFB122
 5428 0c9c F8000000 		.4byte	.LFE122
 5429 0ca0 46040000 		.4byte	.LLST9
 5430 0ca4 B80C0000 		.4byte	0xcb8
 5431 0ca8 26       		.uleb128 0x26
 5432 0ca9 E2080000 		.4byte	.LASF192
 5433 0cad 02       		.byte	0x2
 5434 0cae AC       		.byte	0xac
 5435 0caf 29000000 		.4byte	0x29
 5436 0cb3 66040000 		.4byte	.LLST10
 5437 0cb7 00       		.byte	0x0
 5438 0cb8 27       		.uleb128 0x27
 5439 0cb9 01       		.byte	0x1
 5440 0cba 0D060000 		.4byte	.LASF193
 5441 0cbe 02       		.byte	0x2
 5442 0cbf 5503     		.2byte	0x355
 5443 0cc1 01       		.byte	0x1
 5444 0cc2 00000000 		.4byte	.LFB124
 5445 0cc6 5C000000 		.4byte	.LFE124
 5446 0cca 84040000 		.4byte	.LLST11
 5447 0cce 28       		.uleb128 0x28
ARM GAS  C:\Users\DNIEL~1\AppData\Local\Temp\ccaMIE7p.s 			page 98


 5448 0ccf 01       		.byte	0x1
 5449 0cd0 FA070000 		.4byte	.LASF227
 5450 0cd4 02       		.byte	0x2
 5451 0cd5 6403     		.2byte	0x364
 5452 0cd7 01       		.byte	0x1
 5453 0cd8 BC000000 		.4byte	0xbc
 5454 0cdc 00000000 		.4byte	.LFB125
 5455 0ce0 14000000 		.4byte	.LFE125
 5456 0ce4 02       		.byte	0x2
 5457 0ce5 7D       		.byte	0x7d
 5458 0ce6 00       		.sleb128 0
 5459 0ce7 FB0C0000 		.4byte	0xcfb
 5460 0ceb 29       		.uleb128 0x29
 5461 0cec 636800   		.ascii	"ch\000"
 5462 0cef 02       		.byte	0x2
 5463 0cf0 6403     		.2byte	0x364
 5464 0cf2 49000000 		.4byte	0x49
 5465 0cf6 B0040000 		.4byte	.LLST12
 5466 0cfa 00       		.byte	0x0
 5467 0cfb 2A       		.uleb128 0x2a
 5468 0cfc 01       		.byte	0x1
 5469 0cfd E8080000 		.4byte	.LASF194
 5470 0d01 02       		.byte	0x2
 5471 0d02 6A03     		.2byte	0x36a
 5472 0d04 01       		.byte	0x1
 5473 0d05 6D000000 		.4byte	0x6d
 5474 0d09 00000000 		.4byte	.LFB126
 5475 0d0d 0C000000 		.4byte	.LFE126
 5476 0d11 02       		.byte	0x2
 5477 0d12 7D       		.byte	0x7d
 5478 0d13 00       		.sleb128 0
 5479 0d14 2A       		.uleb128 0x2a
 5480 0d15 01       		.byte	0x1
 5481 0d16 2B050000 		.4byte	.LASF195
 5482 0d1a 02       		.byte	0x2
 5483 0d1b 6E03     		.2byte	0x36e
 5484 0d1d 01       		.byte	0x1
 5485 0d1e BC000000 		.4byte	0xbc
 5486 0d22 00000000 		.4byte	.LFB127
 5487 0d26 0C000000 		.4byte	.LFE127
 5488 0d2a 02       		.byte	0x2
 5489 0d2b 7D       		.byte	0x7d
 5490 0d2c 00       		.sleb128 0
 5491 0d2d 2B       		.uleb128 0x2b
 5492 0d2e 01       		.byte	0x1
 5493 0d2f FE060000 		.4byte	.LASF196
 5494 0d33 02       		.byte	0x2
 5495 0d34 7203     		.2byte	0x372
 5496 0d36 01       		.byte	0x1
 5497 0d37 00000000 		.4byte	.LFB128
 5498 0d3b 8C010000 		.4byte	.LFE128
 5499 0d3f C3040000 		.4byte	.LLST13
 5500 0d43 860D0000 		.4byte	0xd86
 5501 0d47 29       		.uleb128 0x29
 5502 0d48 63687000 		.ascii	"chp\000"
 5503 0d4c 02       		.byte	0x2
 5504 0d4d 7203     		.2byte	0x372
ARM GAS  C:\Users\DNIEL~1\AppData\Local\Temp\ccaMIE7p.s 			page 99


 5505 0d4f B00B0000 		.4byte	0xbb0
 5506 0d53 E3040000 		.4byte	.LLST14
 5507 0d57 2C       		.uleb128 0x2c
 5508 0d58 FA050000 		.4byte	.LASF197
 5509 0d5c 02       		.byte	0x2
 5510 0d5d 7203     		.2byte	0x372
 5511 0d5f 29000000 		.4byte	0x29
 5512 0d63 01050000 		.4byte	.LLST15
 5513 0d67 2C       		.uleb128 0x2c
 5514 0d68 A7030000 		.4byte	.LASF198
 5515 0d6c 02       		.byte	0x2
 5516 0d6d 7203     		.2byte	0x372
 5517 0d6f 860D0000 		.4byte	0xd86
 5518 0d73 14050000 		.4byte	.LLST16
 5519 0d77 2D       		.uleb128 0x2d
 5520 0d78 6900     		.ascii	"i\000"
 5521 0d7a 02       		.byte	0x2
 5522 0d7b 7603     		.2byte	0x376
 5523 0d7d 29000000 		.4byte	0x29
 5524 0d81 27050000 		.4byte	.LLST17
 5525 0d85 00       		.byte	0x0
 5526 0d86 09       		.uleb128 0x9
 5527 0d87 04       		.byte	0x4
 5528 0d88 BA080000 		.4byte	0x8ba
 5529 0d8c 2B       		.uleb128 0x2b
 5530 0d8d 01       		.byte	0x1
 5531 0d8e AA020000 		.4byte	.LASF199
 5532 0d92 02       		.byte	0x2
 5533 0d93 9103     		.2byte	0x391
 5534 0d95 01       		.byte	0x1
 5535 0d96 00000000 		.4byte	.LFB129
 5536 0d9a 50010000 		.4byte	.LFE129
 5537 0d9e A7050000 		.4byte	.LLST18
 5538 0da2 160E0000 		.4byte	0xe16
 5539 0da6 29       		.uleb128 0x29
 5540 0da7 63687000 		.ascii	"chp\000"
 5541 0dab 02       		.byte	0x2
 5542 0dac 9103     		.2byte	0x391
 5543 0dae B00B0000 		.4byte	0xbb0
 5544 0db2 C7050000 		.4byte	.LLST19
 5545 0db6 2C       		.uleb128 0x2c
 5546 0db7 FA050000 		.4byte	.LASF197
 5547 0dbb 02       		.byte	0x2
 5548 0dbc 9103     		.2byte	0x391
 5549 0dbe 29000000 		.4byte	0x29
 5550 0dc2 E5050000 		.4byte	.LLST20
 5551 0dc6 2C       		.uleb128 0x2c
 5552 0dc7 A7030000 		.4byte	.LASF198
 5553 0dcb 02       		.byte	0x2
 5554 0dcc 9103     		.2byte	0x391
 5555 0dce 860D0000 		.4byte	0xd86
 5556 0dd2 0E060000 		.4byte	.LLST21
 5557 0dd6 2E       		.uleb128 0x2e
 5558 0dd7 36050000 		.4byte	.LASF228
 5559 0ddb 02       		.byte	0x2
 5560 0ddc C403     		.2byte	0x3c4
 5561 0dde 26000000 		.4byte	.L192
ARM GAS  C:\Users\DNIEL~1\AppData\Local\Temp\ccaMIE7p.s 			page 100


 5562 0de2 1F       		.uleb128 0x1f
 5563 0de3 78000000 		.4byte	.Ldebug_ranges0+0x78
 5564 0de7 21       		.uleb128 0x21
 5565 0de8 01       		.byte	0x1
 5566 0de9 FE090000 		.4byte	.LASF201
 5567 0ded 11       		.byte	0x11
 5568 0dee 00       		.byte	0x0
 5569 0def 29000000 		.4byte	0x29
 5570 0df3 01       		.byte	0x1
 5571 0df4 FA0D0000 		.4byte	0xdfa
 5572 0df8 1B       		.uleb128 0x1b
 5573 0df9 00       		.byte	0x0
 5574 0dfa 2F       		.uleb128 0x2f
 5575 0dfb 6A000000 		.4byte	.LBB16
 5576 0dff 7C000000 		.4byte	.LBE16
 5577 0e03 22       		.uleb128 0x22
 5578 0e04 01       		.byte	0x1
 5579 0e05 6E090000 		.4byte	.LASF202
 5580 0e09 02       		.byte	0x2
 5581 0e0a BB03     		.2byte	0x3bb
 5582 0e0c 29000000 		.4byte	0x29
 5583 0e10 01       		.byte	0x1
 5584 0e11 1B       		.uleb128 0x1b
 5585 0e12 00       		.byte	0x0
 5586 0e13 00       		.byte	0x0
 5587 0e14 00       		.byte	0x0
 5588 0e15 00       		.byte	0x0
 5589 0e16 30       		.uleb128 0x30
 5590 0e17 FE000000 		.4byte	.LASF203
 5591 0e1b 09       		.byte	0x9
 5592 0e1c F5       		.byte	0xf5
 5593 0e1d 43040000 		.4byte	0x443
 5594 0e21 01       		.byte	0x1
 5595 0e22 01       		.byte	0x1
 5596 0e23 30       		.uleb128 0x30
 5597 0e24 71070000 		.4byte	.LASF204
 5598 0e28 0A       		.byte	0xa
 5599 0e29 6F       		.byte	0x6f
 5600 0e2a AB040000 		.4byte	0x4ab
 5601 0e2e 01       		.byte	0x1
 5602 0e2f 01       		.byte	0x1
 5603 0e30 31       		.uleb128 0x31
 5604 0e31 20070000 		.4byte	.LASF205
 5605 0e35 14       		.byte	0x14
 5606 0e36 9806     		.2byte	0x698
 5607 0e38 3F060000 		.4byte	0x63f
 5608 0e3c 01       		.byte	0x1
 5609 0e3d 01       		.byte	0x1
 5610 0e3e 30       		.uleb128 0x30
 5611 0e3f D0000000 		.4byte	.LASF206
 5612 0e43 15       		.byte	0x15
 5613 0e44 0A       		.byte	0xa
 5614 0e45 FA080000 		.4byte	0x8fa
 5615 0e49 01       		.byte	0x1
 5616 0e4a 01       		.byte	0x1
 5617 0e4b 30       		.uleb128 0x30
 5618 0e4c 3C070000 		.4byte	.LASF207
ARM GAS  C:\Users\DNIEL~1\AppData\Local\Temp\ccaMIE7p.s 			page 101


 5619 0e50 02       		.byte	0x2
 5620 0e51 1E       		.byte	0x1e
 5621 0e52 800A0000 		.4byte	0xa80
 5622 0e56 01       		.byte	0x1
 5623 0e57 01       		.byte	0x1
 5624 0e58 30       		.uleb128 0x30
 5625 0e59 77080000 		.4byte	.LASF208
 5626 0e5d 02       		.byte	0x2
 5627 0e5e 43       		.byte	0x43
 5628 0e5f 990A0000 		.4byte	0xa99
 5629 0e63 01       		.byte	0x1
 5630 0e64 01       		.byte	0x1
 5631 0e65 32       		.uleb128 0x32
 5632 0e66 7F000000 		.4byte	0x7f
 5633 0e6a 750E0000 		.4byte	0xe75
 5634 0e6e 33       		.uleb128 0x33
 5635 0e6f 3B000000 		.4byte	0x3b
 5636 0e73 21       		.byte	0x21
 5637 0e74 00       		.byte	0x0
 5638 0e75 1E       		.uleb128 0x1e
 5639 0e76 11010000 		.4byte	.LASF209
 5640 0e7a 02       		.byte	0x2
 5641 0e7b 45       		.byte	0x45
 5642 0e7c 650E0000 		.4byte	0xe65
 5643 0e80 05       		.byte	0x5
 5644 0e81 03       		.byte	0x3
 5645 0e82 00000000 		.4byte	dspValue
 5646 0e86 1E       		.uleb128 0x1e
 5647 0e87 09030000 		.4byte	.LASF210
 5648 0e8b 02       		.byte	0x2
 5649 0e8c 46       		.byte	0x46
 5650 0e8d 29000000 		.4byte	0x29
 5651 0e91 05       		.byte	0x5
 5652 0e92 03       		.byte	0x3
 5653 0e93 00000000 		.4byte	tasknumber
 5654 0e97 1E       		.uleb128 0x1e
 5655 0e98 15070000 		.4byte	.LASF211
 5656 0e9c 02       		.byte	0x2
 5657 0e9d 47       		.byte	0x47
 5658 0e9e 49000000 		.4byte	0x49
 5659 0ea2 05       		.byte	0x5
 5660 0ea3 03       		.byte	0x3
 5661 0ea4 00000000 		.4byte	bus_status
 5662 0ea8 30       		.uleb128 0x30
 5663 0ea9 C2070000 		.4byte	.LASF212
 5664 0ead 02       		.byte	0x2
 5665 0eae 48       		.byte	0x48
 5666 0eaf BC000000 		.4byte	0xbc
 5667 0eb3 01       		.byte	0x1
 5668 0eb4 01       		.byte	0x1
 5669 0eb5 32       		.uleb128 0x32
 5670 0eb6 BC000000 		.4byte	0xbc
 5671 0eba C50E0000 		.4byte	0xec5
 5672 0ebe 33       		.uleb128 0x33
 5673 0ebf 3B000000 		.4byte	0x3b
 5674 0ec3 07       		.byte	0x7
 5675 0ec4 00       		.byte	0x0
ARM GAS  C:\Users\DNIEL~1\AppData\Local\Temp\ccaMIE7p.s 			page 102


 5676 0ec5 1E       		.uleb128 0x1e
 5677 0ec6 8A050000 		.4byte	.LASF213
 5678 0eca 02       		.byte	0x2
 5679 0ecb 4A       		.byte	0x4a
 5680 0ecc D60E0000 		.4byte	0xed6
 5681 0ed0 05       		.byte	0x5
 5682 0ed1 03       		.byte	0x3
 5683 0ed2 00000000 		.4byte	bus_bit
 5684 0ed6 12       		.uleb128 0x12
 5685 0ed7 B50E0000 		.4byte	0xeb5
 5686 0edb 1E       		.uleb128 0x1e
 5687 0edc 33030000 		.4byte	.LASF214
 5688 0ee0 02       		.byte	0x2
 5689 0ee1 4B       		.byte	0x4b
 5690 0ee2 6D000000 		.4byte	0x6d
 5691 0ee6 05       		.byte	0x5
 5692 0ee7 03       		.byte	0x3
 5693 0ee8 00000000 		.4byte	danger
 5694 0eec 1E       		.uleb128 0x1e
 5695 0eed 35020000 		.4byte	.LASF215
 5696 0ef1 02       		.byte	0x2
 5697 0ef2 4B       		.byte	0x4b
 5698 0ef3 6D000000 		.4byte	0x6d
 5699 0ef7 05       		.byte	0x5
 5700 0ef8 03       		.byte	0x3
 5701 0ef9 00000000 		.4byte	motor_temp
 5702 0efd 1E       		.uleb128 0x1e
 5703 0efe 67010000 		.4byte	.LASF216
 5704 0f02 02       		.byte	0x2
 5705 0f03 4B       		.byte	0x4b
 5706 0f04 6D000000 		.4byte	0x6d
 5707 0f08 05       		.byte	0x5
 5708 0f09 03       		.byte	0x3
 5709 0f0a 00000000 		.4byte	discharge
 5710 0f0e 1E       		.uleb128 0x1e
 5711 0f0f 5E060000 		.4byte	.LASF217
 5712 0f13 02       		.byte	0x2
 5713 0f14 4B       		.byte	0x4b
 5714 0f15 6D000000 		.4byte	0x6d
 5715 0f19 05       		.byte	0x5
 5716 0f1a 03       		.byte	0x3
 5717 0f1b 00000000 		.4byte	over_charge
 5718 0f1f 34       		.uleb128 0x34
 5719 0f20 646200   		.ascii	"db\000"
 5720 0f23 02       		.byte	0x2
 5721 0f24 4D       		.byte	0x4d
 5722 0f25 29000000 		.4byte	0x29
 5723 0f29 01       		.byte	0x1
 5724 0f2a 01       		.byte	0x1
 5725 0f2b 1E       		.uleb128 0x1e
 5726 0f2c 99000000 		.4byte	.LASF218
 5727 0f30 02       		.byte	0x2
 5728 0f31 C9       		.byte	0xc9
 5729 0f32 91000000 		.4byte	0x91
 5730 0f36 05       		.byte	0x5
 5731 0f37 03       		.byte	0x3
 5732 0f38 00000000 		.4byte	bus_num
ARM GAS  C:\Users\DNIEL~1\AppData\Local\Temp\ccaMIE7p.s 			page 103


 5733 0f3c 1E       		.uleb128 0x1e
 5734 0f3d D9050000 		.4byte	.LASF219
 5735 0f41 02       		.byte	0x2
 5736 0f42 CA       		.byte	0xca
 5737 0f43 49000000 		.4byte	0x49
 5738 0f47 05       		.byte	0x5
 5739 0f48 03       		.byte	0x3
 5740 0f49 00000000 		.4byte	valasz
 5741 0f4d 32       		.uleb128 0x32
 5742 0f4e BB020000 		.4byte	0x2bb
 5743 0f52 5D0F0000 		.4byte	0xf5d
 5744 0f56 33       		.uleb128 0x33
 5745 0f57 3B000000 		.4byte	0x3b
 5746 0f5b 99       		.byte	0x99
 5747 0f5c 00       		.byte	0x0
 5748 0f5d 1E       		.uleb128 0x1e
 5749 0f5e 94030000 		.4byte	.LASF220
 5750 0f62 02       		.byte	0x2
 5751 0f63 D0       		.byte	0xd0
 5752 0f64 4D0F0000 		.4byte	0xf4d
 5753 0f68 05       		.byte	0x5
 5754 0f69 03       		.byte	0x3
 5755 0f6a 00000000 		.4byte	wadspTask
 5756 0f6e 30       		.uleb128 0x30
 5757 0f6f FE000000 		.4byte	.LASF203
 5758 0f73 09       		.byte	0x9
 5759 0f74 F5       		.byte	0xf5
 5760 0f75 43040000 		.4byte	0x443
 5761 0f79 01       		.byte	0x1
 5762 0f7a 01       		.byte	0x1
 5763 0f7b 30       		.uleb128 0x30
 5764 0f7c 71070000 		.4byte	.LASF204
 5765 0f80 0A       		.byte	0xa
 5766 0f81 6F       		.byte	0x6f
 5767 0f82 AB040000 		.4byte	0x4ab
 5768 0f86 01       		.byte	0x1
 5769 0f87 01       		.byte	0x1
 5770 0f88 31       		.uleb128 0x31
 5771 0f89 20070000 		.4byte	.LASF205
 5772 0f8d 14       		.byte	0x14
 5773 0f8e 9806     		.2byte	0x698
 5774 0f90 3F060000 		.4byte	0x63f
 5775 0f94 01       		.byte	0x1
 5776 0f95 01       		.byte	0x1
 5777 0f96 30       		.uleb128 0x30
 5778 0f97 D0000000 		.4byte	.LASF206
 5779 0f9b 15       		.byte	0x15
 5780 0f9c 0A       		.byte	0xa
 5781 0f9d FA080000 		.4byte	0x8fa
 5782 0fa1 01       		.byte	0x1
 5783 0fa2 01       		.byte	0x1
 5784 0fa3 35       		.uleb128 0x35
 5785 0fa4 3C070000 		.4byte	.LASF207
 5786 0fa8 02       		.byte	0x2
 5787 0fa9 1E       		.byte	0x1e
 5788 0faa 800A0000 		.4byte	0xa80
 5789 0fae 01       		.byte	0x1
ARM GAS  C:\Users\DNIEL~1\AppData\Local\Temp\ccaMIE7p.s 			page 104


 5790 0faf 05       		.byte	0x5
 5791 0fb0 03       		.byte	0x3
 5792 0fb1 00000000 		.4byte	dspstate
 5793 0fb5 35       		.uleb128 0x35
 5794 0fb6 77080000 		.4byte	.LASF208
 5795 0fba 02       		.byte	0x2
 5796 0fbb 43       		.byte	0x43
 5797 0fbc 990A0000 		.4byte	0xa99
 5798 0fc0 01       		.byte	0x1
 5799 0fc1 05       		.byte	0x5
 5800 0fc2 03       		.byte	0x3
 5801 0fc3 00000000 		.4byte	dspmessages
 5802 0fc7 35       		.uleb128 0x35
 5803 0fc8 C2070000 		.4byte	.LASF212
 5804 0fcc 02       		.byte	0x2
 5805 0fcd 48       		.byte	0x48
 5806 0fce BC000000 		.4byte	0xbc
 5807 0fd2 01       		.byte	0x1
 5808 0fd3 05       		.byte	0x5
 5809 0fd4 03       		.byte	0x3
 5810 0fd5 00000000 		.4byte	dsp_activ
 5811 0fd9 36       		.uleb128 0x36
 5812 0fda 6300     		.ascii	"c\000"
 5813 0fdc 02       		.byte	0x2
 5814 0fdd 49       		.byte	0x49
 5815 0fde 49000000 		.4byte	0x49
 5816 0fe2 01       		.byte	0x1
 5817 0fe3 05       		.byte	0x5
 5818 0fe4 03       		.byte	0x3
 5819 0fe5 00000000 		.4byte	c
 5820 0fe9 36       		.uleb128 0x36
 5821 0fea 646200   		.ascii	"db\000"
 5822 0fed 02       		.byte	0x2
 5823 0fee 4D       		.byte	0x4d
 5824 0fef 29000000 		.4byte	0x29
 5825 0ff3 01       		.byte	0x1
 5826 0ff4 05       		.byte	0x5
 5827 0ff5 03       		.byte	0x3
 5828 0ff6 00000000 		.4byte	db
 5829 0ffa 36       		.uleb128 0x36
 5830 0ffb 64623200 		.ascii	"db2\000"
 5831 0fff 02       		.byte	0x2
 5832 1000 4E       		.byte	0x4e
 5833 1001 29000000 		.4byte	0x29
 5834 1005 01       		.byte	0x1
 5835 1006 05       		.byte	0x5
 5836 1007 03       		.byte	0x3
 5837 1008 00000000 		.4byte	db2
 5838 100c 35       		.uleb128 0x35
 5839 100d CC070000 		.4byte	.LASF221
 5840 1011 02       		.byte	0x2
 5841 1012 CB       		.byte	0xcb
 5842 1013 BC000000 		.4byte	0xbc
 5843 1017 01       		.byte	0x1
 5844 1018 05       		.byte	0x5
 5845 1019 03       		.byte	0x3
 5846 101a 00000000 		.4byte	cruise_assis
ARM GAS  C:\Users\DNIEL~1\AppData\Local\Temp\ccaMIE7p.s 			page 105


 5847 101e 00       		.byte	0x0
 5848              		.section	.debug_abbrev
 5849 0000 01       		.uleb128 0x1
 5850 0001 11       		.uleb128 0x11
 5851 0002 01       		.byte	0x1
 5852 0003 25       		.uleb128 0x25
 5853 0004 0E       		.uleb128 0xe
 5854 0005 13       		.uleb128 0x13
 5855 0006 0B       		.uleb128 0xb
 5856 0007 03       		.uleb128 0x3
 5857 0008 0E       		.uleb128 0xe
 5858 0009 1B       		.uleb128 0x1b
 5859 000a 0E       		.uleb128 0xe
 5860 000b 11       		.uleb128 0x11
 5861 000c 01       		.uleb128 0x1
 5862 000d 52       		.uleb128 0x52
 5863 000e 01       		.uleb128 0x1
 5864 000f 55       		.uleb128 0x55
 5865 0010 06       		.uleb128 0x6
 5866 0011 10       		.uleb128 0x10
 5867 0012 06       		.uleb128 0x6
 5868 0013 00       		.byte	0x0
 5869 0014 00       		.byte	0x0
 5870 0015 02       		.uleb128 0x2
 5871 0016 24       		.uleb128 0x24
 5872 0017 00       		.byte	0x0
 5873 0018 0B       		.uleb128 0xb
 5874 0019 0B       		.uleb128 0xb
 5875 001a 3E       		.uleb128 0x3e
 5876 001b 0B       		.uleb128 0xb
 5877 001c 03       		.uleb128 0x3
 5878 001d 08       		.uleb128 0x8
 5879 001e 00       		.byte	0x0
 5880 001f 00       		.byte	0x0
 5881 0020 03       		.uleb128 0x3
 5882 0021 16       		.uleb128 0x16
 5883 0022 00       		.byte	0x0
 5884 0023 03       		.uleb128 0x3
 5885 0024 0E       		.uleb128 0xe
 5886 0025 3A       		.uleb128 0x3a
 5887 0026 0B       		.uleb128 0xb
 5888 0027 3B       		.uleb128 0x3b
 5889 0028 0B       		.uleb128 0xb
 5890 0029 49       		.uleb128 0x49
 5891 002a 13       		.uleb128 0x13
 5892 002b 00       		.byte	0x0
 5893 002c 00       		.byte	0x0
 5894 002d 04       		.uleb128 0x4
 5895 002e 24       		.uleb128 0x24
 5896 002f 00       		.byte	0x0
 5897 0030 0B       		.uleb128 0xb
 5898 0031 0B       		.uleb128 0xb
 5899 0032 3E       		.uleb128 0x3e
 5900 0033 0B       		.uleb128 0xb
 5901 0034 03       		.uleb128 0x3
 5902 0035 0E       		.uleb128 0xe
 5903 0036 00       		.byte	0x0
ARM GAS  C:\Users\DNIEL~1\AppData\Local\Temp\ccaMIE7p.s 			page 106


 5904 0037 00       		.byte	0x0
 5905 0038 05       		.uleb128 0x5
 5906 0039 13       		.uleb128 0x13
 5907 003a 01       		.byte	0x1
 5908 003b 03       		.uleb128 0x3
 5909 003c 0E       		.uleb128 0xe
 5910 003d 0B       		.uleb128 0xb
 5911 003e 0B       		.uleb128 0xb
 5912 003f 3A       		.uleb128 0x3a
 5913 0040 0B       		.uleb128 0xb
 5914 0041 3B       		.uleb128 0x3b
 5915 0042 0B       		.uleb128 0xb
 5916 0043 01       		.uleb128 0x1
 5917 0044 13       		.uleb128 0x13
 5918 0045 00       		.byte	0x0
 5919 0046 00       		.byte	0x0
 5920 0047 06       		.uleb128 0x6
 5921 0048 0D       		.uleb128 0xd
 5922 0049 00       		.byte	0x0
 5923 004a 03       		.uleb128 0x3
 5924 004b 0E       		.uleb128 0xe
 5925 004c 3A       		.uleb128 0x3a
 5926 004d 0B       		.uleb128 0xb
 5927 004e 3B       		.uleb128 0x3b
 5928 004f 0B       		.uleb128 0xb
 5929 0050 49       		.uleb128 0x49
 5930 0051 13       		.uleb128 0x13
 5931 0052 38       		.uleb128 0x38
 5932 0053 0A       		.uleb128 0xa
 5933 0054 00       		.byte	0x0
 5934 0055 00       		.byte	0x0
 5935 0056 07       		.uleb128 0x7
 5936 0057 0D       		.uleb128 0xd
 5937 0058 00       		.byte	0x0
 5938 0059 03       		.uleb128 0x3
 5939 005a 08       		.uleb128 0x8
 5940 005b 3A       		.uleb128 0x3a
 5941 005c 0B       		.uleb128 0xb
 5942 005d 3B       		.uleb128 0x3b
 5943 005e 0B       		.uleb128 0xb
 5944 005f 49       		.uleb128 0x49
 5945 0060 13       		.uleb128 0x13
 5946 0061 38       		.uleb128 0x38
 5947 0062 0A       		.uleb128 0xa
 5948 0063 00       		.byte	0x0
 5949 0064 00       		.byte	0x0
 5950 0065 08       		.uleb128 0x8
 5951 0066 13       		.uleb128 0x13
 5952 0067 01       		.byte	0x1
 5953 0068 0B       		.uleb128 0xb
 5954 0069 0B       		.uleb128 0xb
 5955 006a 3A       		.uleb128 0x3a
 5956 006b 0B       		.uleb128 0xb
 5957 006c 3B       		.uleb128 0x3b
 5958 006d 0B       		.uleb128 0xb
 5959 006e 01       		.uleb128 0x1
 5960 006f 13       		.uleb128 0x13
ARM GAS  C:\Users\DNIEL~1\AppData\Local\Temp\ccaMIE7p.s 			page 107


 5961 0070 00       		.byte	0x0
 5962 0071 00       		.byte	0x0
 5963 0072 09       		.uleb128 0x9
 5964 0073 0F       		.uleb128 0xf
 5965 0074 00       		.byte	0x0
 5966 0075 0B       		.uleb128 0xb
 5967 0076 0B       		.uleb128 0xb
 5968 0077 49       		.uleb128 0x49
 5969 0078 13       		.uleb128 0x13
 5970 0079 00       		.byte	0x0
 5971 007a 00       		.byte	0x0
 5972 007b 0A       		.uleb128 0xa
 5973 007c 0F       		.uleb128 0xf
 5974 007d 00       		.byte	0x0
 5975 007e 0B       		.uleb128 0xb
 5976 007f 0B       		.uleb128 0xb
 5977 0080 00       		.byte	0x0
 5978 0081 00       		.byte	0x0
 5979 0082 0B       		.uleb128 0xb
 5980 0083 13       		.uleb128 0x13
 5981 0084 01       		.byte	0x1
 5982 0085 03       		.uleb128 0x3
 5983 0086 0E       		.uleb128 0xe
 5984 0087 0B       		.uleb128 0xb
 5985 0088 0B       		.uleb128 0xb
 5986 0089 3A       		.uleb128 0x3a
 5987 008a 0B       		.uleb128 0xb
 5988 008b 3B       		.uleb128 0x3b
 5989 008c 05       		.uleb128 0x5
 5990 008d 01       		.uleb128 0x1
 5991 008e 13       		.uleb128 0x13
 5992 008f 00       		.byte	0x0
 5993 0090 00       		.byte	0x0
 5994 0091 0C       		.uleb128 0xc
 5995 0092 0D       		.uleb128 0xd
 5996 0093 00       		.byte	0x0
 5997 0094 03       		.uleb128 0x3
 5998 0095 08       		.uleb128 0x8
 5999 0096 3A       		.uleb128 0x3a
 6000 0097 0B       		.uleb128 0xb
 6001 0098 3B       		.uleb128 0x3b
 6002 0099 05       		.uleb128 0x5
 6003 009a 49       		.uleb128 0x49
 6004 009b 13       		.uleb128 0x13
 6005 009c 38       		.uleb128 0x38
 6006 009d 0A       		.uleb128 0xa
 6007 009e 00       		.byte	0x0
 6008 009f 00       		.byte	0x0
 6009 00a0 0D       		.uleb128 0xd
 6010 00a1 35       		.uleb128 0x35
 6011 00a2 00       		.byte	0x0
 6012 00a3 49       		.uleb128 0x49
 6013 00a4 13       		.uleb128 0x13
 6014 00a5 00       		.byte	0x0
 6015 00a6 00       		.byte	0x0
 6016 00a7 0E       		.uleb128 0xe
 6017 00a8 15       		.uleb128 0x15
ARM GAS  C:\Users\DNIEL~1\AppData\Local\Temp\ccaMIE7p.s 			page 108


 6018 00a9 01       		.byte	0x1
 6019 00aa 27       		.uleb128 0x27
 6020 00ab 0C       		.uleb128 0xc
 6021 00ac 01       		.uleb128 0x1
 6022 00ad 13       		.uleb128 0x13
 6023 00ae 00       		.byte	0x0
 6024 00af 00       		.byte	0x0
 6025 00b0 0F       		.uleb128 0xf
 6026 00b1 05       		.uleb128 0x5
 6027 00b2 00       		.byte	0x0
 6028 00b3 49       		.uleb128 0x49
 6029 00b4 13       		.uleb128 0x13
 6030 00b5 00       		.byte	0x0
 6031 00b6 00       		.byte	0x0
 6032 00b7 10       		.uleb128 0x10
 6033 00b8 17       		.uleb128 0x17
 6034 00b9 01       		.byte	0x1
 6035 00ba 0B       		.uleb128 0xb
 6036 00bb 0B       		.uleb128 0xb
 6037 00bc 3A       		.uleb128 0x3a
 6038 00bd 0B       		.uleb128 0xb
 6039 00be 3B       		.uleb128 0x3b
 6040 00bf 0B       		.uleb128 0xb
 6041 00c0 01       		.uleb128 0x1
 6042 00c1 13       		.uleb128 0x13
 6043 00c2 00       		.byte	0x0
 6044 00c3 00       		.byte	0x0
 6045 00c4 11       		.uleb128 0x11
 6046 00c5 0D       		.uleb128 0xd
 6047 00c6 00       		.byte	0x0
 6048 00c7 03       		.uleb128 0x3
 6049 00c8 0E       		.uleb128 0xe
 6050 00c9 3A       		.uleb128 0x3a
 6051 00ca 0B       		.uleb128 0xb
 6052 00cb 3B       		.uleb128 0x3b
 6053 00cc 0B       		.uleb128 0xb
 6054 00cd 49       		.uleb128 0x49
 6055 00ce 13       		.uleb128 0x13
 6056 00cf 00       		.byte	0x0
 6057 00d0 00       		.byte	0x0
 6058 00d1 12       		.uleb128 0x12
 6059 00d2 26       		.uleb128 0x26
 6060 00d3 00       		.byte	0x0
 6061 00d4 49       		.uleb128 0x49
 6062 00d5 13       		.uleb128 0x13
 6063 00d6 00       		.byte	0x0
 6064 00d7 00       		.byte	0x0
 6065 00d8 13       		.uleb128 0x13
 6066 00d9 15       		.uleb128 0x15
 6067 00da 01       		.byte	0x1
 6068 00db 27       		.uleb128 0x27
 6069 00dc 0C       		.uleb128 0xc
 6070 00dd 49       		.uleb128 0x49
 6071 00de 13       		.uleb128 0x13
 6072 00df 01       		.uleb128 0x1
 6073 00e0 13       		.uleb128 0x13
 6074 00e1 00       		.byte	0x0
ARM GAS  C:\Users\DNIEL~1\AppData\Local\Temp\ccaMIE7p.s 			page 109


 6075 00e2 00       		.byte	0x0
 6076 00e3 14       		.uleb128 0x14
 6077 00e4 0D       		.uleb128 0xd
 6078 00e5 00       		.byte	0x0
 6079 00e6 03       		.uleb128 0x3
 6080 00e7 08       		.uleb128 0x8
 6081 00e8 3A       		.uleb128 0x3a
 6082 00e9 0B       		.uleb128 0xb
 6083 00ea 3B       		.uleb128 0x3b
 6084 00eb 0B       		.uleb128 0xb
 6085 00ec 49       		.uleb128 0x49
 6086 00ed 13       		.uleb128 0x13
 6087 00ee 00       		.byte	0x0
 6088 00ef 00       		.byte	0x0
 6089 00f0 15       		.uleb128 0x15
 6090 00f1 04       		.uleb128 0x4
 6091 00f2 01       		.byte	0x1
 6092 00f3 03       		.uleb128 0x3
 6093 00f4 0E       		.uleb128 0xe
 6094 00f5 0B       		.uleb128 0xb
 6095 00f6 0B       		.uleb128 0xb
 6096 00f7 3A       		.uleb128 0x3a
 6097 00f8 0B       		.uleb128 0xb
 6098 00f9 3B       		.uleb128 0x3b
 6099 00fa 0B       		.uleb128 0xb
 6100 00fb 01       		.uleb128 0x1
 6101 00fc 13       		.uleb128 0x13
 6102 00fd 00       		.byte	0x0
 6103 00fe 00       		.byte	0x0
 6104 00ff 16       		.uleb128 0x16
 6105 0100 28       		.uleb128 0x28
 6106 0101 00       		.byte	0x0
 6107 0102 03       		.uleb128 0x3
 6108 0103 0E       		.uleb128 0xe
 6109 0104 1C       		.uleb128 0x1c
 6110 0105 0D       		.uleb128 0xd
 6111 0106 00       		.byte	0x0
 6112 0107 00       		.byte	0x0
 6113 0108 17       		.uleb128 0x17
 6114 0109 0D       		.uleb128 0xd
 6115 010a 00       		.byte	0x0
 6116 010b 03       		.uleb128 0x3
 6117 010c 0E       		.uleb128 0xe
 6118 010d 49       		.uleb128 0x49
 6119 010e 13       		.uleb128 0x13
 6120 010f 38       		.uleb128 0x38
 6121 0110 0A       		.uleb128 0xa
 6122 0111 34       		.uleb128 0x34
 6123 0112 0C       		.uleb128 0xc
 6124 0113 00       		.byte	0x0
 6125 0114 00       		.byte	0x0
 6126 0115 18       		.uleb128 0x18
 6127 0116 2E       		.uleb128 0x2e
 6128 0117 01       		.byte	0x1
 6129 0118 03       		.uleb128 0x3
 6130 0119 0E       		.uleb128 0xe
 6131 011a 3A       		.uleb128 0x3a
ARM GAS  C:\Users\DNIEL~1\AppData\Local\Temp\ccaMIE7p.s 			page 110


 6132 011b 0B       		.uleb128 0xb
 6133 011c 3B       		.uleb128 0x3b
 6134 011d 0B       		.uleb128 0xb
 6135 011e 27       		.uleb128 0x27
 6136 011f 0C       		.uleb128 0xc
 6137 0120 11       		.uleb128 0x11
 6138 0121 01       		.uleb128 0x1
 6139 0122 12       		.uleb128 0x12
 6140 0123 01       		.uleb128 0x1
 6141 0124 40       		.uleb128 0x40
 6142 0125 06       		.uleb128 0x6
 6143 0126 01       		.uleb128 0x1
 6144 0127 13       		.uleb128 0x13
 6145 0128 00       		.byte	0x0
 6146 0129 00       		.byte	0x0
 6147 012a 19       		.uleb128 0x19
 6148 012b 05       		.uleb128 0x5
 6149 012c 00       		.byte	0x0
 6150 012d 03       		.uleb128 0x3
 6151 012e 08       		.uleb128 0x8
 6152 012f 3A       		.uleb128 0x3a
 6153 0130 0B       		.uleb128 0xb
 6154 0131 3B       		.uleb128 0x3b
 6155 0132 0B       		.uleb128 0xb
 6156 0133 49       		.uleb128 0x49
 6157 0134 13       		.uleb128 0x13
 6158 0135 02       		.uleb128 0x2
 6159 0136 06       		.uleb128 0x6
 6160 0137 00       		.byte	0x0
 6161 0138 00       		.byte	0x0
 6162 0139 1A       		.uleb128 0x1a
 6163 013a 05       		.uleb128 0x5
 6164 013b 00       		.byte	0x0
 6165 013c 03       		.uleb128 0x3
 6166 013d 08       		.uleb128 0x8
 6167 013e 3A       		.uleb128 0x3a
 6168 013f 0B       		.uleb128 0xb
 6169 0140 3B       		.uleb128 0x3b
 6170 0141 0B       		.uleb128 0xb
 6171 0142 49       		.uleb128 0x49
 6172 0143 13       		.uleb128 0x13
 6173 0144 02       		.uleb128 0x2
 6174 0145 0A       		.uleb128 0xa
 6175 0146 00       		.byte	0x0
 6176 0147 00       		.byte	0x0
 6177 0148 1B       		.uleb128 0x1b
 6178 0149 18       		.uleb128 0x18
 6179 014a 00       		.byte	0x0
 6180 014b 00       		.byte	0x0
 6181 014c 00       		.byte	0x0
 6182 014d 1C       		.uleb128 0x1c
 6183 014e 34       		.uleb128 0x34
 6184 014f 00       		.byte	0x0
 6185 0150 03       		.uleb128 0x3
 6186 0151 08       		.uleb128 0x8
 6187 0152 3A       		.uleb128 0x3a
 6188 0153 0B       		.uleb128 0xb
ARM GAS  C:\Users\DNIEL~1\AppData\Local\Temp\ccaMIE7p.s 			page 111


 6189 0154 3B       		.uleb128 0x3b
 6190 0155 0B       		.uleb128 0xb
 6191 0156 49       		.uleb128 0x49
 6192 0157 13       		.uleb128 0x13
 6193 0158 02       		.uleb128 0x2
 6194 0159 0A       		.uleb128 0xa
 6195 015a 00       		.byte	0x0
 6196 015b 00       		.byte	0x0
 6197 015c 1D       		.uleb128 0x1d
 6198 015d 2E       		.uleb128 0x2e
 6199 015e 01       		.byte	0x1
 6200 015f 03       		.uleb128 0x3
 6201 0160 0E       		.uleb128 0xe
 6202 0161 3A       		.uleb128 0x3a
 6203 0162 0B       		.uleb128 0xb
 6204 0163 3B       		.uleb128 0x3b
 6205 0164 0B       		.uleb128 0xb
 6206 0165 27       		.uleb128 0x27
 6207 0166 0C       		.uleb128 0xc
 6208 0167 49       		.uleb128 0x49
 6209 0168 13       		.uleb128 0x13
 6210 0169 11       		.uleb128 0x11
 6211 016a 01       		.uleb128 0x1
 6212 016b 12       		.uleb128 0x12
 6213 016c 01       		.uleb128 0x1
 6214 016d 40       		.uleb128 0x40
 6215 016e 06       		.uleb128 0x6
 6216 016f 01       		.uleb128 0x1
 6217 0170 13       		.uleb128 0x13
 6218 0171 00       		.byte	0x0
 6219 0172 00       		.byte	0x0
 6220 0173 1E       		.uleb128 0x1e
 6221 0174 34       		.uleb128 0x34
 6222 0175 00       		.byte	0x0
 6223 0176 03       		.uleb128 0x3
 6224 0177 0E       		.uleb128 0xe
 6225 0178 3A       		.uleb128 0x3a
 6226 0179 0B       		.uleb128 0xb
 6227 017a 3B       		.uleb128 0x3b
 6228 017b 0B       		.uleb128 0xb
 6229 017c 49       		.uleb128 0x49
 6230 017d 13       		.uleb128 0x13
 6231 017e 02       		.uleb128 0x2
 6232 017f 0A       		.uleb128 0xa
 6233 0180 00       		.byte	0x0
 6234 0181 00       		.byte	0x0
 6235 0182 1F       		.uleb128 0x1f
 6236 0183 0B       		.uleb128 0xb
 6237 0184 01       		.byte	0x1
 6238 0185 55       		.uleb128 0x55
 6239 0186 06       		.uleb128 0x6
 6240 0187 00       		.byte	0x0
 6241 0188 00       		.byte	0x0
 6242 0189 20       		.uleb128 0x20
 6243 018a 34       		.uleb128 0x34
 6244 018b 00       		.byte	0x0
 6245 018c 03       		.uleb128 0x3
ARM GAS  C:\Users\DNIEL~1\AppData\Local\Temp\ccaMIE7p.s 			page 112


 6246 018d 0E       		.uleb128 0xe
 6247 018e 3A       		.uleb128 0x3a
 6248 018f 0B       		.uleb128 0xb
 6249 0190 3B       		.uleb128 0x3b
 6250 0191 0B       		.uleb128 0xb
 6251 0192 49       		.uleb128 0x49
 6252 0193 13       		.uleb128 0x13
 6253 0194 02       		.uleb128 0x2
 6254 0195 06       		.uleb128 0x6
 6255 0196 00       		.byte	0x0
 6256 0197 00       		.byte	0x0
 6257 0198 21       		.uleb128 0x21
 6258 0199 2E       		.uleb128 0x2e
 6259 019a 01       		.byte	0x1
 6260 019b 3F       		.uleb128 0x3f
 6261 019c 0C       		.uleb128 0xc
 6262 019d 03       		.uleb128 0x3
 6263 019e 0E       		.uleb128 0xe
 6264 019f 3A       		.uleb128 0x3a
 6265 01a0 0B       		.uleb128 0xb
 6266 01a1 3B       		.uleb128 0x3b
 6267 01a2 0B       		.uleb128 0xb
 6268 01a3 49       		.uleb128 0x49
 6269 01a4 13       		.uleb128 0x13
 6270 01a5 3C       		.uleb128 0x3c
 6271 01a6 0C       		.uleb128 0xc
 6272 01a7 01       		.uleb128 0x1
 6273 01a8 13       		.uleb128 0x13
 6274 01a9 00       		.byte	0x0
 6275 01aa 00       		.byte	0x0
 6276 01ab 22       		.uleb128 0x22
 6277 01ac 2E       		.uleb128 0x2e
 6278 01ad 01       		.byte	0x1
 6279 01ae 3F       		.uleb128 0x3f
 6280 01af 0C       		.uleb128 0xc
 6281 01b0 03       		.uleb128 0x3
 6282 01b1 0E       		.uleb128 0xe
 6283 01b2 3A       		.uleb128 0x3a
 6284 01b3 0B       		.uleb128 0xb
 6285 01b4 3B       		.uleb128 0x3b
 6286 01b5 05       		.uleb128 0x5
 6287 01b6 49       		.uleb128 0x49
 6288 01b7 13       		.uleb128 0x13
 6289 01b8 3C       		.uleb128 0x3c
 6290 01b9 0C       		.uleb128 0xc
 6291 01ba 00       		.byte	0x0
 6292 01bb 00       		.byte	0x0
 6293 01bc 23       		.uleb128 0x23
 6294 01bd 2E       		.uleb128 0x2e
 6295 01be 00       		.byte	0x0
 6296 01bf 3F       		.uleb128 0x3f
 6297 01c0 0C       		.uleb128 0xc
 6298 01c1 03       		.uleb128 0x3
 6299 01c2 0E       		.uleb128 0xe
 6300 01c3 3A       		.uleb128 0x3a
 6301 01c4 0B       		.uleb128 0xb
 6302 01c5 3B       		.uleb128 0x3b
ARM GAS  C:\Users\DNIEL~1\AppData\Local\Temp\ccaMIE7p.s 			page 113


 6303 01c6 0B       		.uleb128 0xb
 6304 01c7 27       		.uleb128 0x27
 6305 01c8 0C       		.uleb128 0xc
 6306 01c9 11       		.uleb128 0x11
 6307 01ca 01       		.uleb128 0x1
 6308 01cb 12       		.uleb128 0x12
 6309 01cc 01       		.uleb128 0x1
 6310 01cd 40       		.uleb128 0x40
 6311 01ce 06       		.uleb128 0x6
 6312 01cf 00       		.byte	0x0
 6313 01d0 00       		.byte	0x0
 6314 01d1 24       		.uleb128 0x24
 6315 01d2 2E       		.uleb128 0x2e
 6316 01d3 01       		.byte	0x1
 6317 01d4 3F       		.uleb128 0x3f
 6318 01d5 0C       		.uleb128 0xc
 6319 01d6 03       		.uleb128 0x3
 6320 01d7 0E       		.uleb128 0xe
 6321 01d8 3A       		.uleb128 0x3a
 6322 01d9 0B       		.uleb128 0xb
 6323 01da 3B       		.uleb128 0x3b
 6324 01db 0B       		.uleb128 0xb
 6325 01dc 27       		.uleb128 0x27
 6326 01dd 0C       		.uleb128 0xc
 6327 01de 11       		.uleb128 0x11
 6328 01df 01       		.uleb128 0x1
 6329 01e0 12       		.uleb128 0x12
 6330 01e1 01       		.uleb128 0x1
 6331 01e2 40       		.uleb128 0x40
 6332 01e3 06       		.uleb128 0x6
 6333 01e4 01       		.uleb128 0x1
 6334 01e5 13       		.uleb128 0x13
 6335 01e6 00       		.byte	0x0
 6336 01e7 00       		.byte	0x0
 6337 01e8 25       		.uleb128 0x25
 6338 01e9 2E       		.uleb128 0x2e
 6339 01ea 01       		.byte	0x1
 6340 01eb 3F       		.uleb128 0x3f
 6341 01ec 0C       		.uleb128 0xc
 6342 01ed 03       		.uleb128 0x3
 6343 01ee 0E       		.uleb128 0xe
 6344 01ef 3A       		.uleb128 0x3a
 6345 01f0 0B       		.uleb128 0xb
 6346 01f1 3B       		.uleb128 0x3b
 6347 01f2 0B       		.uleb128 0xb
 6348 01f3 49       		.uleb128 0x49
 6349 01f4 13       		.uleb128 0x13
 6350 01f5 3C       		.uleb128 0x3c
 6351 01f6 0C       		.uleb128 0xc
 6352 01f7 00       		.byte	0x0
 6353 01f8 00       		.byte	0x0
 6354 01f9 26       		.uleb128 0x26
 6355 01fa 05       		.uleb128 0x5
 6356 01fb 00       		.byte	0x0
 6357 01fc 03       		.uleb128 0x3
 6358 01fd 0E       		.uleb128 0xe
 6359 01fe 3A       		.uleb128 0x3a
ARM GAS  C:\Users\DNIEL~1\AppData\Local\Temp\ccaMIE7p.s 			page 114


 6360 01ff 0B       		.uleb128 0xb
 6361 0200 3B       		.uleb128 0x3b
 6362 0201 0B       		.uleb128 0xb
 6363 0202 49       		.uleb128 0x49
 6364 0203 13       		.uleb128 0x13
 6365 0204 02       		.uleb128 0x2
 6366 0205 06       		.uleb128 0x6
 6367 0206 00       		.byte	0x0
 6368 0207 00       		.byte	0x0
 6369 0208 27       		.uleb128 0x27
 6370 0209 2E       		.uleb128 0x2e
 6371 020a 00       		.byte	0x0
 6372 020b 3F       		.uleb128 0x3f
 6373 020c 0C       		.uleb128 0xc
 6374 020d 03       		.uleb128 0x3
 6375 020e 0E       		.uleb128 0xe
 6376 020f 3A       		.uleb128 0x3a
 6377 0210 0B       		.uleb128 0xb
 6378 0211 3B       		.uleb128 0x3b
 6379 0212 05       		.uleb128 0x5
 6380 0213 27       		.uleb128 0x27
 6381 0214 0C       		.uleb128 0xc
 6382 0215 11       		.uleb128 0x11
 6383 0216 01       		.uleb128 0x1
 6384 0217 12       		.uleb128 0x12
 6385 0218 01       		.uleb128 0x1
 6386 0219 40       		.uleb128 0x40
 6387 021a 06       		.uleb128 0x6
 6388 021b 00       		.byte	0x0
 6389 021c 00       		.byte	0x0
 6390 021d 28       		.uleb128 0x28
 6391 021e 2E       		.uleb128 0x2e
 6392 021f 01       		.byte	0x1
 6393 0220 3F       		.uleb128 0x3f
 6394 0221 0C       		.uleb128 0xc
 6395 0222 03       		.uleb128 0x3
 6396 0223 0E       		.uleb128 0xe
 6397 0224 3A       		.uleb128 0x3a
 6398 0225 0B       		.uleb128 0xb
 6399 0226 3B       		.uleb128 0x3b
 6400 0227 05       		.uleb128 0x5
 6401 0228 27       		.uleb128 0x27
 6402 0229 0C       		.uleb128 0xc
 6403 022a 49       		.uleb128 0x49
 6404 022b 13       		.uleb128 0x13
 6405 022c 11       		.uleb128 0x11
 6406 022d 01       		.uleb128 0x1
 6407 022e 12       		.uleb128 0x12
 6408 022f 01       		.uleb128 0x1
 6409 0230 40       		.uleb128 0x40
 6410 0231 0A       		.uleb128 0xa
 6411 0232 01       		.uleb128 0x1
 6412 0233 13       		.uleb128 0x13
 6413 0234 00       		.byte	0x0
 6414 0235 00       		.byte	0x0
 6415 0236 29       		.uleb128 0x29
 6416 0237 05       		.uleb128 0x5
ARM GAS  C:\Users\DNIEL~1\AppData\Local\Temp\ccaMIE7p.s 			page 115


 6417 0238 00       		.byte	0x0
 6418 0239 03       		.uleb128 0x3
 6419 023a 08       		.uleb128 0x8
 6420 023b 3A       		.uleb128 0x3a
 6421 023c 0B       		.uleb128 0xb
 6422 023d 3B       		.uleb128 0x3b
 6423 023e 05       		.uleb128 0x5
 6424 023f 49       		.uleb128 0x49
 6425 0240 13       		.uleb128 0x13
 6426 0241 02       		.uleb128 0x2
 6427 0242 06       		.uleb128 0x6
 6428 0243 00       		.byte	0x0
 6429 0244 00       		.byte	0x0
 6430 0245 2A       		.uleb128 0x2a
 6431 0246 2E       		.uleb128 0x2e
 6432 0247 00       		.byte	0x0
 6433 0248 3F       		.uleb128 0x3f
 6434 0249 0C       		.uleb128 0xc
 6435 024a 03       		.uleb128 0x3
 6436 024b 0E       		.uleb128 0xe
 6437 024c 3A       		.uleb128 0x3a
 6438 024d 0B       		.uleb128 0xb
 6439 024e 3B       		.uleb128 0x3b
 6440 024f 05       		.uleb128 0x5
 6441 0250 27       		.uleb128 0x27
 6442 0251 0C       		.uleb128 0xc
 6443 0252 49       		.uleb128 0x49
 6444 0253 13       		.uleb128 0x13
 6445 0254 11       		.uleb128 0x11
 6446 0255 01       		.uleb128 0x1
 6447 0256 12       		.uleb128 0x12
 6448 0257 01       		.uleb128 0x1
 6449 0258 40       		.uleb128 0x40
 6450 0259 0A       		.uleb128 0xa
 6451 025a 00       		.byte	0x0
 6452 025b 00       		.byte	0x0
 6453 025c 2B       		.uleb128 0x2b
 6454 025d 2E       		.uleb128 0x2e
 6455 025e 01       		.byte	0x1
 6456 025f 3F       		.uleb128 0x3f
 6457 0260 0C       		.uleb128 0xc
 6458 0261 03       		.uleb128 0x3
 6459 0262 0E       		.uleb128 0xe
 6460 0263 3A       		.uleb128 0x3a
 6461 0264 0B       		.uleb128 0xb
 6462 0265 3B       		.uleb128 0x3b
 6463 0266 05       		.uleb128 0x5
 6464 0267 27       		.uleb128 0x27
 6465 0268 0C       		.uleb128 0xc
 6466 0269 11       		.uleb128 0x11
 6467 026a 01       		.uleb128 0x1
 6468 026b 12       		.uleb128 0x12
 6469 026c 01       		.uleb128 0x1
 6470 026d 40       		.uleb128 0x40
 6471 026e 06       		.uleb128 0x6
 6472 026f 01       		.uleb128 0x1
 6473 0270 13       		.uleb128 0x13
ARM GAS  C:\Users\DNIEL~1\AppData\Local\Temp\ccaMIE7p.s 			page 116


 6474 0271 00       		.byte	0x0
 6475 0272 00       		.byte	0x0
 6476 0273 2C       		.uleb128 0x2c
 6477 0274 05       		.uleb128 0x5
 6478 0275 00       		.byte	0x0
 6479 0276 03       		.uleb128 0x3
 6480 0277 0E       		.uleb128 0xe
 6481 0278 3A       		.uleb128 0x3a
 6482 0279 0B       		.uleb128 0xb
 6483 027a 3B       		.uleb128 0x3b
 6484 027b 05       		.uleb128 0x5
 6485 027c 49       		.uleb128 0x49
 6486 027d 13       		.uleb128 0x13
 6487 027e 02       		.uleb128 0x2
 6488 027f 06       		.uleb128 0x6
 6489 0280 00       		.byte	0x0
 6490 0281 00       		.byte	0x0
 6491 0282 2D       		.uleb128 0x2d
 6492 0283 34       		.uleb128 0x34
 6493 0284 00       		.byte	0x0
 6494 0285 03       		.uleb128 0x3
 6495 0286 08       		.uleb128 0x8
 6496 0287 3A       		.uleb128 0x3a
 6497 0288 0B       		.uleb128 0xb
 6498 0289 3B       		.uleb128 0x3b
 6499 028a 05       		.uleb128 0x5
 6500 028b 49       		.uleb128 0x49
 6501 028c 13       		.uleb128 0x13
 6502 028d 02       		.uleb128 0x2
 6503 028e 06       		.uleb128 0x6
 6504 028f 00       		.byte	0x0
 6505 0290 00       		.byte	0x0
 6506 0291 2E       		.uleb128 0x2e
 6507 0292 0A       		.uleb128 0xa
 6508 0293 00       		.byte	0x0
 6509 0294 03       		.uleb128 0x3
 6510 0295 0E       		.uleb128 0xe
 6511 0296 3A       		.uleb128 0x3a
 6512 0297 0B       		.uleb128 0xb
 6513 0298 3B       		.uleb128 0x3b
 6514 0299 05       		.uleb128 0x5
 6515 029a 11       		.uleb128 0x11
 6516 029b 01       		.uleb128 0x1
 6517 029c 00       		.byte	0x0
 6518 029d 00       		.byte	0x0
 6519 029e 2F       		.uleb128 0x2f
 6520 029f 0B       		.uleb128 0xb
 6521 02a0 01       		.byte	0x1
 6522 02a1 11       		.uleb128 0x11
 6523 02a2 01       		.uleb128 0x1
 6524 02a3 12       		.uleb128 0x12
 6525 02a4 01       		.uleb128 0x1
 6526 02a5 00       		.byte	0x0
 6527 02a6 00       		.byte	0x0
 6528 02a7 30       		.uleb128 0x30
 6529 02a8 34       		.uleb128 0x34
 6530 02a9 00       		.byte	0x0
ARM GAS  C:\Users\DNIEL~1\AppData\Local\Temp\ccaMIE7p.s 			page 117


 6531 02aa 03       		.uleb128 0x3
 6532 02ab 0E       		.uleb128 0xe
 6533 02ac 3A       		.uleb128 0x3a
 6534 02ad 0B       		.uleb128 0xb
 6535 02ae 3B       		.uleb128 0x3b
 6536 02af 0B       		.uleb128 0xb
 6537 02b0 49       		.uleb128 0x49
 6538 02b1 13       		.uleb128 0x13
 6539 02b2 3F       		.uleb128 0x3f
 6540 02b3 0C       		.uleb128 0xc
 6541 02b4 3C       		.uleb128 0x3c
 6542 02b5 0C       		.uleb128 0xc
 6543 02b6 00       		.byte	0x0
 6544 02b7 00       		.byte	0x0
 6545 02b8 31       		.uleb128 0x31
 6546 02b9 34       		.uleb128 0x34
 6547 02ba 00       		.byte	0x0
 6548 02bb 03       		.uleb128 0x3
 6549 02bc 0E       		.uleb128 0xe
 6550 02bd 3A       		.uleb128 0x3a
 6551 02be 0B       		.uleb128 0xb
 6552 02bf 3B       		.uleb128 0x3b
 6553 02c0 05       		.uleb128 0x5
 6554 02c1 49       		.uleb128 0x49
 6555 02c2 13       		.uleb128 0x13
 6556 02c3 3F       		.uleb128 0x3f
 6557 02c4 0C       		.uleb128 0xc
 6558 02c5 3C       		.uleb128 0x3c
 6559 02c6 0C       		.uleb128 0xc
 6560 02c7 00       		.byte	0x0
 6561 02c8 00       		.byte	0x0
 6562 02c9 32       		.uleb128 0x32
 6563 02ca 01       		.uleb128 0x1
 6564 02cb 01       		.byte	0x1
 6565 02cc 49       		.uleb128 0x49
 6566 02cd 13       		.uleb128 0x13
 6567 02ce 01       		.uleb128 0x1
 6568 02cf 13       		.uleb128 0x13
 6569 02d0 00       		.byte	0x0
 6570 02d1 00       		.byte	0x0
 6571 02d2 33       		.uleb128 0x33
 6572 02d3 21       		.uleb128 0x21
 6573 02d4 00       		.byte	0x0
 6574 02d5 49       		.uleb128 0x49
 6575 02d6 13       		.uleb128 0x13
 6576 02d7 2F       		.uleb128 0x2f
 6577 02d8 0B       		.uleb128 0xb
 6578 02d9 00       		.byte	0x0
 6579 02da 00       		.byte	0x0
 6580 02db 34       		.uleb128 0x34
 6581 02dc 34       		.uleb128 0x34
 6582 02dd 00       		.byte	0x0
 6583 02de 03       		.uleb128 0x3
 6584 02df 08       		.uleb128 0x8
 6585 02e0 3A       		.uleb128 0x3a
 6586 02e1 0B       		.uleb128 0xb
 6587 02e2 3B       		.uleb128 0x3b
ARM GAS  C:\Users\DNIEL~1\AppData\Local\Temp\ccaMIE7p.s 			page 118


 6588 02e3 0B       		.uleb128 0xb
 6589 02e4 49       		.uleb128 0x49
 6590 02e5 13       		.uleb128 0x13
 6591 02e6 3F       		.uleb128 0x3f
 6592 02e7 0C       		.uleb128 0xc
 6593 02e8 3C       		.uleb128 0x3c
 6594 02e9 0C       		.uleb128 0xc
 6595 02ea 00       		.byte	0x0
 6596 02eb 00       		.byte	0x0
 6597 02ec 35       		.uleb128 0x35
 6598 02ed 34       		.uleb128 0x34
 6599 02ee 00       		.byte	0x0
 6600 02ef 03       		.uleb128 0x3
 6601 02f0 0E       		.uleb128 0xe
 6602 02f1 3A       		.uleb128 0x3a
 6603 02f2 0B       		.uleb128 0xb
 6604 02f3 3B       		.uleb128 0x3b
 6605 02f4 0B       		.uleb128 0xb
 6606 02f5 49       		.uleb128 0x49
 6607 02f6 13       		.uleb128 0x13
 6608 02f7 3F       		.uleb128 0x3f
 6609 02f8 0C       		.uleb128 0xc
 6610 02f9 02       		.uleb128 0x2
 6611 02fa 0A       		.uleb128 0xa
 6612 02fb 00       		.byte	0x0
 6613 02fc 00       		.byte	0x0
 6614 02fd 36       		.uleb128 0x36
 6615 02fe 34       		.uleb128 0x34
 6616 02ff 00       		.byte	0x0
 6617 0300 03       		.uleb128 0x3
 6618 0301 08       		.uleb128 0x8
 6619 0302 3A       		.uleb128 0x3a
 6620 0303 0B       		.uleb128 0xb
 6621 0304 3B       		.uleb128 0x3b
 6622 0305 0B       		.uleb128 0xb
 6623 0306 49       		.uleb128 0x49
 6624 0307 13       		.uleb128 0x13
 6625 0308 3F       		.uleb128 0x3f
 6626 0309 0C       		.uleb128 0xc
 6627 030a 02       		.uleb128 0x2
 6628 030b 0A       		.uleb128 0xa
 6629 030c 00       		.byte	0x0
 6630 030d 00       		.byte	0x0
 6631 030e 00       		.byte	0x0
 6632              		.section	.debug_pubnames,"",%progbits
 6633 0000 11010000 		.4byte	0x111
 6634 0004 0200     		.2byte	0x2
 6635 0006 00000000 		.4byte	.Ldebug_info0
 6636 000a 1F100000 		.4byte	0x101f
 6637 000e 3C0C0000 		.4byte	0xc3c
 6638 0012 6473705F 		.ascii	"dsp_LoadTop\000"
 6638      4C6F6164 
 6638      546F7000 
 6639 001e 510C0000 		.4byte	0xc51
 6640 0022 6473705F 		.ascii	"dsp_LoadMidle\000"
 6640      4C6F6164 
 6640      4D69646C 
ARM GAS  C:\Users\DNIEL~1\AppData\Local\Temp\ccaMIE7p.s 			page 119


 6640      6500
 6641 0030 660C0000 		.4byte	0xc66
 6642 0034 6473705F 		.ascii	"dsp_LoadBottom\000"
 6642      4C6F6164 
 6642      426F7474 
 6642      6F6D00
 6643 0043 8F0C0000 		.4byte	0xc8f
 6644 0047 6473705F 		.ascii	"dsp_RefreshMidle\000"
 6644      52656672 
 6644      6573684D 
 6644      69646C65 
 6644      00
 6645 0058 B80C0000 		.4byte	0xcb8
 6646 005c 64737049 		.ascii	"dspInit\000"
 6646      6E697400 
 6647 0064 CE0C0000 		.4byte	0xcce
 6648 0068 64737047 		.ascii	"dspGetItem\000"
 6648      65744974 
 6648      656D00
 6649 0073 FB0C0000 		.4byte	0xcfb
 6650 0077 64737047 		.ascii	"dspGetValue\000"
 6650      65745661 
 6650      6C756500 
 6651 0083 140D0000 		.4byte	0xd14
 6652 0087 6473705F 		.ascii	"dsp_active\000"
 6652      61637469 
 6652      766500
 6653 0092 2D0D0000 		.4byte	0xd2d
 6654 0096 636D645F 		.ascii	"cmd_dspvalues\000"
 6654      64737076 
 6654      616C7565 
 6654      7300
 6655 00a4 8C0D0000 		.4byte	0xd8c
 6656 00a8 636D6466 		.ascii	"cmdfrappans_dspmessages\000"
 6656      72617070 
 6656      616E735F 
 6656      6473706D 
 6656      65737361 
 6657 00c0 A30F0000 		.4byte	0xfa3
 6658 00c4 64737073 		.ascii	"dspstate\000"
 6658      74617465 
 6658      00
 6659 00cd B50F0000 		.4byte	0xfb5
 6660 00d1 6473706D 		.ascii	"dspmessages\000"
 6660      65737361 
 6660      67657300 
 6661 00dd C70F0000 		.4byte	0xfc7
 6662 00e1 6473705F 		.ascii	"dsp_activ\000"
 6662      61637469 
 6662      7600
 6663 00eb D90F0000 		.4byte	0xfd9
 6664 00ef 6300     		.ascii	"c\000"
 6665 00f1 E90F0000 		.4byte	0xfe9
 6666 00f5 646200   		.ascii	"db\000"
 6667 00f8 FA0F0000 		.4byte	0xffa
 6668 00fc 64623200 		.ascii	"db2\000"
 6669 0100 0C100000 		.4byte	0x100c
ARM GAS  C:\Users\DNIEL~1\AppData\Local\Temp\ccaMIE7p.s 			page 120


 6670 0104 63727569 		.ascii	"cruise_assis\000"
 6670      73655F61 
 6670      73736973 
 6670      00
 6671 0111 00000000 		.4byte	0x0
 6672              		.section	.debug_pubtypes,"",%progbits
 6673 0000 90020000 		.4byte	0x290
 6674 0004 0200     		.2byte	0x2
 6675 0006 00000000 		.4byte	.Ldebug_info0
 6676 000a 1F100000 		.4byte	0x101f
 6677 000e 30000000 		.4byte	0x30
 6678 0012 73697A65 		.ascii	"size_t\000"
 6678      5F7400
 6679 0019 49000000 		.4byte	0x49
 6680 001d 75696E74 		.ascii	"uint8_t\000"
 6680      385F7400 
 6681 0025 5B000000 		.4byte	0x5b
 6682 0029 696E7431 		.ascii	"int16_t\000"
 6682      365F7400 
 6683 0031 6D000000 		.4byte	0x6d
 6684 0035 75696E74 		.ascii	"uint16_t\000"
 6684      31365F74 
 6684      00
 6685 003e 7F000000 		.4byte	0x7f
 6686 0042 696E7433 		.ascii	"int32_t\000"
 6686      325F7400 
 6687 004a 91000000 		.4byte	0x91
 6688 004e 75696E74 		.ascii	"uint32_t\000"
 6688      33325F74 
 6688      00
 6689 0057 AA000000 		.4byte	0xaa
 6690 005b 75696E74 		.ascii	"uint64_t\000"
 6690      36345F74 
 6690      00
 6691 0064 BC000000 		.4byte	0xbc
 6692 0068 626F6F6C 		.ascii	"bool_t\000"
 6692      5F7400
 6693 006f CE000000 		.4byte	0xce
 6694 0073 746D6F64 		.ascii	"tmode_t\000"
 6694      655F7400 
 6695 007b D9000000 		.4byte	0xd9
 6696 007f 74737461 		.ascii	"tstate_t\000"
 6696      74655F74 
 6696      00
 6697 0088 E4000000 		.4byte	0xe4
 6698 008c 74726566 		.ascii	"trefs_t\000"
 6698      735F7400 
 6699 0094 EF000000 		.4byte	0xef
 6700 0098 74736C69 		.ascii	"tslices_t\000"
 6700      6365735F 
 6700      7400
 6701 00a2 FA000000 		.4byte	0xfa
 6702 00a6 74707269 		.ascii	"tprio_t\000"
 6702      6F5F7400 
 6703 00ae 05010000 		.4byte	0x105
 6704 00b2 6D73675F 		.ascii	"msg_t\000"
 6704      7400
ARM GAS  C:\Users\DNIEL~1\AppData\Local\Temp\ccaMIE7p.s 			page 121


 6705 00b8 10010000 		.4byte	0x110
 6706 00bc 6576656E 		.ascii	"eventmask_t\000"
 6706      746D6173 
 6706      6B5F7400 
 6707 00c8 1B010000 		.4byte	0x11b
 6708 00cc 73797374 		.ascii	"systime_t\000"
 6708      696D655F 
 6708      7400
 6709 00d6 26010000 		.4byte	0x126
 6710 00da 54687265 		.ascii	"Thread\000"
 6710      616400
 6711 00e1 81020000 		.4byte	0x281
 6712 00e5 54687265 		.ascii	"ThreadsQueue\000"
 6712      61647351 
 6712      75657565 
 6712      00
 6713 00f2 A3020000 		.4byte	0x2a3
 6714 00f6 54687265 		.ascii	"ThreadsList\000"
 6714      6164734C 
 6714      69737400 
 6715 0102 AE020000 		.4byte	0x2ae
 6716 0106 72656761 		.ascii	"regarm_t\000"
 6716      726D5F74 
 6716      00
 6717 010f BB020000 		.4byte	0x2bb
 6718 0113 73746B61 		.ascii	"stkalign_t\000"
 6718      6C69676E 
 6718      5F7400
 6719 011e C6020000 		.4byte	0x2c6
 6720 0122 696E7463 		.ascii	"intctx\000"
 6720      747800
 6721 0129 54030000 		.4byte	0x354
 6722 012d 636F6E74 		.ascii	"context\000"
 6722      65787400 
 6723 0135 7C030000 		.4byte	0x37c
 6724 0139 76746675 		.ascii	"vtfunc_t\000"
 6724      6E635F74 
 6724      00
 6725 0142 99030000 		.4byte	0x399
 6726 0146 56697274 		.ascii	"VirtualTimer\000"
 6726      75616C54 
 6726      696D6572 
 6726      00
 6727 0153 A4030000 		.4byte	0x3a4
 6728 0157 56697274 		.ascii	"VirtualTimer\000"
 6728      75616C54 
 6728      696D6572 
 6728      00
 6729 0164 43040000 		.4byte	0x443
 6730 0168 56544C69 		.ascii	"VTList\000"
 6730      737400
 6731 016f AB040000 		.4byte	0x4ab
 6732 0173 52656164 		.ascii	"ReadyList\000"
 6732      794C6973 
 6732      7400
 6733 017d B6040000 		.4byte	0x4b6
 6734 0181 4D757465 		.ascii	"Mutex\000"
ARM GAS  C:\Users\DNIEL~1\AppData\Local\Temp\ccaMIE7p.s 			page 122


 6734      7800
 6735 0187 F3040000 		.4byte	0x4f3
 6736 018b 4D757465 		.ascii	"Mutex\000"
 6736      7800
 6737 0191 31010000 		.4byte	0x131
 6738 0195 54687265 		.ascii	"Thread\000"
 6738      616400
 6739 019c 67050000 		.4byte	0x567
 6740 01a0 42617365 		.ascii	"BaseSequentialStreamVMT\000"
 6740      53657175 
 6740      656E7469 
 6740      616C5374 
 6740      7265616D 
 6741 01b8 34060000 		.4byte	0x634
 6742 01bc 42617365 		.ascii	"BaseSequentialStream\000"
 6742      53657175 
 6742      656E7469 
 6742      616C5374 
 6742      7265616D 
 6743 01d1 44060000 		.4byte	0x644
 6744 01d5 42617365 		.ascii	"BaseChannelVMT\000"
 6744      4368616E 
 6744      6E656C56 
 6744      4D5400
 6745 01e4 68070000 		.4byte	0x768
 6746 01e8 42617365 		.ascii	"BaseChannel\000"
 6746      4368616E 
 6746      6E656C00 
 6747 01f4 4D080000 		.4byte	0x84d
 6748 01f8 4750494F 		.ascii	"GPIO_TypeDef\000"
 6748      5F547970 
 6748      65446566 
 6748      00
 6749 0205 58080000 		.4byte	0x858
 6750 0209 6D656173 		.ascii	"measChannels\000"
 6750      4368616E 
 6750      6E656C73 
 6750      00
 6751 0216 95080000 		.4byte	0x895
 6752 021a 6D656173 		.ascii	"measChannels2\000"
 6752      4368616E 
 6752      6E656C73 
 6752      3200
 6753 0228 E0080000 		.4byte	0x8e0
 6754 022c 5F5F7661 		.ascii	"__va_list\000"
 6754      5F6C6973 
 6754      7400
 6755 0236 D5080000 		.4byte	0x8d5
 6756 023a 5F5F676E 		.ascii	"__gnuc_va_list\000"
 6756      75635F76 
 6756      615F6C69 
 6756      737400
 6757 0249 FA080000 		.4byte	0x8fa
 6758 024d 626D7349 		.ascii	"bmsItems\000"
 6758      74656D73 
 6758      00
 6759 0256 560A0000 		.4byte	0xa56
ARM GAS  C:\Users\DNIEL~1\AppData\Local\Temp\ccaMIE7p.s 			page 123


 6760 025a 63616C63 		.ascii	"calcChannels\000"
 6760      4368616E 
 6760      6E656C73 
 6760      00
 6761 0267 750A0000 		.4byte	0xa75
 6762 026b 76615F6C 		.ascii	"va_list\000"
 6762      69737400 
 6763 0273 800A0000 		.4byte	0xa80
 6764 0277 64737053 		.ascii	"dspState\000"
 6764      74617465 
 6764      00
 6765 0280 990A0000 		.4byte	0xa99
 6766 0284 6473704D 		.ascii	"dspMessages\000"
 6766      65737361 
 6766      67657300 
 6767 0290 00000000 		.4byte	0x0
 6768              		.section	.debug_aranges,"",%progbits
 6769 0000 74000000 		.4byte	0x74
 6770 0004 0200     		.2byte	0x2
 6771 0006 00000000 		.4byte	.Ldebug_info0
 6772 000a 04       		.byte	0x4
 6773 000b 00       		.byte	0x0
 6774 000c 0000     		.2byte	0x0
 6775 000e 0000     		.2byte	0x0
 6776 0010 00000000 		.4byte	.LFB118
 6777 0014 1E000000 		.4byte	.LFE118-.LFB118
 6778 0018 00000000 		.4byte	.LFB123
 6779 001c F60B0000 		.4byte	.LFE123-.LFB123
 6780 0020 00000000 		.4byte	.LFB119
 6781 0024 D0000000 		.4byte	.LFE119-.LFB119
 6782 0028 00000000 		.4byte	.LFB120
 6783 002c 74000000 		.4byte	.LFE120-.LFB120
 6784 0030 00000000 		.4byte	.LFB121
 6785 0034 24010000 		.4byte	.LFE121-.LFB121
 6786 0038 00000000 		.4byte	.LFB122
 6787 003c F8000000 		.4byte	.LFE122-.LFB122
 6788 0040 00000000 		.4byte	.LFB124
 6789 0044 5C000000 		.4byte	.LFE124-.LFB124
 6790 0048 00000000 		.4byte	.LFB125
 6791 004c 14000000 		.4byte	.LFE125-.LFB125
 6792 0050 00000000 		.4byte	.LFB126
 6793 0054 0C000000 		.4byte	.LFE126-.LFB126
 6794 0058 00000000 		.4byte	.LFB127
 6795 005c 0C000000 		.4byte	.LFE127-.LFB127
 6796 0060 00000000 		.4byte	.LFB128
 6797 0064 8C010000 		.4byte	.LFE128-.LFB128
 6798 0068 00000000 		.4byte	.LFB129
 6799 006c 50010000 		.4byte	.LFE129-.LFB129
 6800 0070 00000000 		.4byte	0x0
 6801 0074 00000000 		.4byte	0x0
 6802              		.section	.debug_ranges,"",%progbits
 6803              	.Ldebug_ranges0:
 6804 0000 24000000 		.4byte	.LBB2
 6805 0004 28000000 		.4byte	.LBE2
 6806 0008 2C000000 		.4byte	.LBB14
 6807 000c F60B0000 		.4byte	.LBE14
 6808 0010 00000000 		.4byte	0x0
ARM GAS  C:\Users\DNIEL~1\AppData\Local\Temp\ccaMIE7p.s 			page 124


 6809 0014 00000000 		.4byte	0x0
 6810 0018 24000000 		.4byte	.LBB3
 6811 001c 28000000 		.4byte	.LBE3
 6812 0020 C40A0000 		.4byte	.LBB13
 6813 0024 F60B0000 		.4byte	.LBE13
 6814 0028 7E0A0000 		.4byte	.LBB12
 6815 002c C20A0000 		.4byte	.LBE12
 6816 0030 4C0A0000 		.4byte	.LBB11
 6817 0034 7C0A0000 		.4byte	.LBE11
 6818 0038 160A0000 		.4byte	.LBB10
 6819 003c 4A0A0000 		.4byte	.LBE10
 6820 0040 94090000 		.4byte	.LBB9
 6821 0044 0C0A0000 		.4byte	.LBE9
 6822 0048 5A090000 		.4byte	.LBB8
 6823 004c 8A090000 		.4byte	.LBE8
 6824 0050 0C090000 		.4byte	.LBB7
 6825 0054 58090000 		.4byte	.LBE7
 6826 0058 CE080000 		.4byte	.LBB6
 6827 005c 0A090000 		.4byte	.LBE6
 6828 0060 6E010000 		.4byte	.LBB5
 6829 0064 C8080000 		.4byte	.LBE5
 6830 0068 E0000000 		.4byte	.LBB4
 6831 006c 50010000 		.4byte	.LBE4
 6832 0070 00000000 		.4byte	0x0
 6833 0074 00000000 		.4byte	0x0
 6834 0078 4A000000 		.4byte	.LBB15
 6835 007c 7C000000 		.4byte	.LBE15
 6836 0080 08010000 		.4byte	.LBB21
 6837 0084 50010000 		.4byte	.LBE21
 6838 0088 EA000000 		.4byte	.LBB20
 6839 008c 04010000 		.4byte	.LBE20
 6840 0090 D4000000 		.4byte	.LBB19
 6841 0094 E6000000 		.4byte	.LBE19
 6842 0098 C4000000 		.4byte	.LBB18
 6843 009c D0000000 		.4byte	.LBE18
 6844 00a0 7E000000 		.4byte	.LBB17
 6845 00a4 C0000000 		.4byte	.LBE17
 6846 00a8 00000000 		.4byte	0x0
 6847 00ac 00000000 		.4byte	0x0
 6848 00b0 00000000 		.4byte	.LFB118
 6849 00b4 1E000000 		.4byte	.LFE118
 6850 00b8 00000000 		.4byte	.LFB123
 6851 00bc F60B0000 		.4byte	.LFE123
 6852 00c0 00000000 		.4byte	.LFB119
 6853 00c4 D0000000 		.4byte	.LFE119
 6854 00c8 00000000 		.4byte	.LFB120
 6855 00cc 74000000 		.4byte	.LFE120
 6856 00d0 00000000 		.4byte	.LFB121
 6857 00d4 24010000 		.4byte	.LFE121
 6858 00d8 00000000 		.4byte	.LFB122
 6859 00dc F8000000 		.4byte	.LFE122
 6860 00e0 00000000 		.4byte	.LFB124
 6861 00e4 5C000000 		.4byte	.LFE124
 6862 00e8 00000000 		.4byte	.LFB125
 6863 00ec 14000000 		.4byte	.LFE125
 6864 00f0 00000000 		.4byte	.LFB126
 6865 00f4 0C000000 		.4byte	.LFE126
ARM GAS  C:\Users\DNIEL~1\AppData\Local\Temp\ccaMIE7p.s 			page 125


 6866 00f8 00000000 		.4byte	.LFB127
 6867 00fc 0C000000 		.4byte	.LFE127
 6868 0100 00000000 		.4byte	.LFB128
 6869 0104 8C010000 		.4byte	.LFE128
 6870 0108 00000000 		.4byte	.LFB129
 6871 010c 50010000 		.4byte	.LFE129
 6872 0110 00000000 		.4byte	0x0
 6873 0114 00000000 		.4byte	0x0
 6874              		.section	.debug_str,"MS",%progbits,1
 6875              	.LASF47:
 6876 0000 54687265 		.ascii	"ThreadsList\000"
 6876      6164734C 
 6876      69737400 
 6877              	.LASF52:
 6878 000c 76746675 		.ascii	"vtfunc_t\000"
 6878      6E635F74 
 6878      00
 6879              	.LASF173:
 6880 0015 4453505F 		.ascii	"DSP_REGEN_BRAKE\000"
 6880      52454745 
 6880      4E5F4252 
 6880      414B4500 
 6881              	.LASF159:
 6882 0025 4453505F 		.ascii	"DSP_x1_TEMP_SPEED\000"
 6882      78315F54 
 6882      454D505F 
 6882      53504545 
 6882      4400
 6883              	.LASF115:
 6884 0037 5F5F7661 		.ascii	"__va_list\000"
 6884      5F6C6973 
 6884      7400
 6885              	.LASF38:
 6886 0041 705F7469 		.ascii	"p_time\000"
 6886      6D6500
 6887              	.LASF92:
 6888 0048 42535252 		.ascii	"BSRR\000"
 6888      00
 6889              	.LASF48:
 6890 004d 72656761 		.ascii	"regarm_t\000"
 6890      726D5F74 
 6890      00
 6891              	.LASF29:
 6892 0056 705F7072 		.ascii	"p_prio\000"
 6892      696F00
 6893              	.LASF153:
 6894 005d 4453505F 		.ascii	"DSP_GAUGE\000"
 6894      47415547 
 6894      4500
 6895              	.LASF83:
 6896 0067 67657474 		.ascii	"gett\000"
 6896      00
 6897              	.LASF25:
 6898 006c 73797374 		.ascii	"systime_t\000"
 6898      696D655F 
 6898      7400
 6899              	.LASF59:
ARM GAS  C:\Users\DNIEL~1\AppData\Local\Temp\ccaMIE7p.s 			page 126


 6900 0076 76745F73 		.ascii	"vt_systime\000"
 6900      79737469 
 6900      6D6500
 6901              	.LASF40:
 6902 0081 705F6D73 		.ascii	"p_msgqueue\000"
 6902      67717565 
 6902      756500
 6903              	.LASF0:
 6904 008c 756E7369 		.ascii	"unsigned int\000"
 6904      676E6564 
 6904      20696E74 
 6904      00
 6905              	.LASF218:
 6906 0099 6275735F 		.ascii	"bus_num\000"
 6906      6E756D00 
 6907              	.LASF176:
 6908 00a1 4453505F 		.ascii	"DSP_TEMPOMAT\000"
 6908      54454D50 
 6908      4F4D4154 
 6908      00
 6909              	.LASF39:
 6910 00ae 705F7761 		.ascii	"p_waiting\000"
 6910      6974696E 
 6910      6700
 6911              	.LASF77:
 6912 00b8 42617365 		.ascii	"BaseSequentialStreamVMT\000"
 6912      53657175 
 6912      656E7469 
 6912      616C5374 
 6912      7265616D 
 6913              	.LASF206:
 6914 00d0 626D7369 		.ascii	"bmsitems\000"
 6914      74656D73 
 6914      00
 6915              	.LASF165:
 6916 00d9 4453505F 		.ascii	"DSP_x1000_SUN_POWER\000"
 6916      78313030 
 6916      305F5355 
 6916      4E5F504F 
 6916      57455200 
 6917              	.LASF223:
 6918 00ed 7372632F 		.ascii	"src/dsp.c\000"
 6918      6473702E 
 6918      6300
 6919              	.LASF74:
 6920 00f7 77746F62 		.ascii	"wtobjp\000"
 6920      6A7000
 6921              	.LASF203:
 6922 00fe 76746C69 		.ascii	"vtlist\000"
 6922      737400
 6923              	.LASF123:
 6924 0105 7061636B 		.ascii	"pack_resist\000"
 6924      5F726573 
 6924      69737400 
 6925              	.LASF209:
 6926 0111 64737056 		.ascii	"dspValue\000"
 6926      616C7565 
ARM GAS  C:\Users\DNIEL~1\AppData\Local\Temp\ccaMIE7p.s 			page 127


 6926      00
 6927              	.LASF160:
 6928 011a 4453505F 		.ascii	"DSP_x100_BATTERY\000"
 6928      78313030 
 6928      5F424154 
 6928      54455259 
 6928      00
 6929              	.LASF167:
 6930 012b 4453505F 		.ascii	"DSP_x10_SUN_POWER\000"
 6930      7831305F 
 6930      53554E5F 
 6930      504F5745 
 6930      5200
 6931              	.LASF171:
 6932 013d 4453505F 		.ascii	"DSP_x10_MOTOR_POWER\000"
 6932      7831305F 
 6932      4D4F544F 
 6932      525F504F 
 6932      57455200 
 6933              	.LASF98:
 6934 0151 4D454153 		.ascii	"MEAS_TEMP1\000"
 6934      5F54454D 
 6934      503100
 6935              	.LASF99:
 6936 015c 4D454153 		.ascii	"MEAS_TEMP2\000"
 6936      5F54454D 
 6936      503200
 6937              	.LASF216:
 6938 0167 64697363 		.ascii	"discharge\000"
 6938      68617267 
 6938      6500
 6939              	.LASF84:
 6940 0171 77726974 		.ascii	"writet\000"
 6940      657400
 6941              	.LASF81:
 6942 0178 42617365 		.ascii	"BaseChannelVMT\000"
 6942      4368616E 
 6942      6E656C56 
 6942      4D5400
 6943              	.LASF106:
 6944 0187 6D656173 		.ascii	"measChannels2\000"
 6944      4368616E 
 6944      6E656C73 
 6944      3200
 6945              	.LASF150:
 6946 0195 4453505F 		.ascii	"DSP_x100_SPEED\000"
 6946      78313030 
 6946      5F535045 
 6946      454400
 6947              	.LASF69:
 6948 01a4 6D5F7175 		.ascii	"m_queue\000"
 6948      65756500 
 6949              	.LASF56:
 6950 01ac 76745F74 		.ascii	"vt_time\000"
 6950      696D6500 
 6951              	.LASF11:
 6952 01b4 75696E74 		.ascii	"uint32_t\000"
ARM GAS  C:\Users\DNIEL~1\AppData\Local\Temp\ccaMIE7p.s 			page 128


 6952      33325F74 
 6952      00
 6953              	.LASF164:
 6954 01bd 4453505F 		.ascii	"DSP_x1_BATTERY_TEMP\000"
 6954      78315F42 
 6954      41545445 
 6954      52595F54 
 6954      454D5000 
 6955              	.LASF182:
 6956 01d1 4453505F 		.ascii	"DSP_NUM_MSG\000"
 6956      4E554D5F 
 6956      4D534700 
 6957              	.LASF24:
 6958 01dd 6576656E 		.ascii	"eventmask_t\000"
 6958      746D6173 
 6958      6B5F7400 
 6959              	.LASF62:
 6960 01e9 725F7072 		.ascii	"r_prio\000"
 6960      696F00
 6961              	.LASF58:
 6962 01f0 76745F70 		.ascii	"vt_par\000"
 6962      617200
 6963              	.LASF112:
 6964 01f7 666C6F61 		.ascii	"float\000"
 6964      7400
 6965              	.LASF22:
 6966 01fd 74707269 		.ascii	"tprio_t\000"
 6966      6F5F7400 
 6967              	.LASF15:
 6968 0205 6C6F6E67 		.ascii	"long long unsigned int\000"
 6968      206C6F6E 
 6968      6720756E 
 6968      7369676E 
 6968      65642069 
 6969              	.LASF5:
 6970 021c 696E7431 		.ascii	"int16_t\000"
 6970      365F7400 
 6971              	.LASF142:
 6972 0224 43414C43 		.ascii	"CALC_MOTOR_POWER\000"
 6972      5F4D4F54 
 6972      4F525F50 
 6972      4F574552 
 6972      00
 6973              	.LASF215:
 6974 0235 6D6F746F 		.ascii	"motor_temp\000"
 6974      725F7465 
 6974      6D7000
 6975              	.LASF128:
 6976 0240 6176675F 		.ascii	"avg_cell_voltage\000"
 6976      63656C6C 
 6976      5F766F6C 
 6976      74616765 
 6976      00
 6977              	.LASF140:
 6978 0251 7061636B 		.ascii	"pack_open_voltage\000"
 6978      5F6F7065 
 6978      6E5F766F 
ARM GAS  C:\Users\DNIEL~1\AppData\Local\Temp\ccaMIE7p.s 			page 129


 6978      6C746167 
 6978      6500
 6979              	.LASF117:
 6980 0263 626D7349 		.ascii	"bmsItems\000"
 6980      74656D73 
 6980      00
 6981              	.LASF149:
 6982 026c 6473704D 		.ascii	"dspMessages\000"
 6982      65737361 
 6982      67657300 
 6983              	.LASF147:
 6984 0278 4453505F 		.ascii	"DSP_WAITING\000"
 6984      57414954 
 6984      494E4700 
 6985              	.LASF183:
 6986 0284 74696D65 		.ascii	"time\000"
 6986      00
 6987              	.LASF133:
 6988 0289 6D617869 		.ascii	"maximum_cell\000"
 6988      6D756D5F 
 6988      63656C6C 
 6988      00
 6989              	.LASF94:
 6990 0296 4146524C 		.ascii	"AFRL\000"
 6990      00
 6991              	.LASF101:
 6992 029b 4D454153 		.ascii	"MEAS_OVER_HEAT\000"
 6992      5F4F5645 
 6992      525F4845 
 6992      415400
 6993              	.LASF199:
 6994 02aa 636D6466 		.ascii	"cmdfrappans_dspmessages\000"
 6994      72617070 
 6994      616E735F 
 6994      6473706D 
 6994      65737361 
 6995              	.LASF87:
 6996 02c2 636C6561 		.ascii	"clear\000"
 6996      7200
 6997              	.LASF188:
 6998 02c8 6D656173 		.ascii	"measGetValue_2\000"
 6998      47657456 
 6998      616C7565 
 6998      5F3200
 6999              	.LASF168:
 7000 02d7 4453505F 		.ascii	"DSP_x1_SUN_POWER\000"
 7000      78315F53 
 7000      554E5F50 
 7000      4F574552 
 7000      00
 7001              	.LASF156:
 7002 02e8 4453505F 		.ascii	"DSP_x01_AVG_SPEED\000"
 7002      7830315F 
 7002      4156475F 
 7002      53504545 
 7002      4400
 7003              	.LASF114:
ARM GAS  C:\Users\DNIEL~1\AppData\Local\Temp\ccaMIE7p.s 			page 130


 7004 02fa 5F5F676E 		.ascii	"__gnuc_va_list\000"
 7004      75635F76 
 7004      615F6C69 
 7004      737400
 7005              	.LASF210:
 7006 0309 7461736B 		.ascii	"tasknumber\000"
 7006      6E756D62 
 7006      657200
 7007              	.LASF82:
 7008 0314 70757474 		.ascii	"putt\000"
 7008      00
 7009              	.LASF185:
 7010 0319 72656765 		.ascii	"regen_assis\000"
 7010      6E5F6173 
 7010      73697300 
 7011              	.LASF2:
 7012 0325 73697A65 		.ascii	"size_t\000"
 7012      5F7400
 7013              	.LASF72:
 7014 032c 7264796D 		.ascii	"rdymsg\000"
 7014      736700
 7015              	.LASF214:
 7016 0333 64616E67 		.ascii	"danger\000"
 7016      657200
 7017              	.LASF16:
 7018 033a 626F6F6C 		.ascii	"bool_t\000"
 7018      5F7400
 7019              	.LASF108:
 7020 0341 4D454153 		.ascii	"MEAS2_THROTTLE\000"
 7020      325F5448 
 7020      524F5454 
 7020      4C4500
 7021              	.LASF17:
 7022 0350 5F426F6F 		.ascii	"_Bool\000"
 7022      6C00
 7023              	.LASF88:
 7024 0356 4D4F4445 		.ascii	"MODER\000"
 7024      5200
 7025              	.LASF139:
 7026 035c 66616E5F 		.ascii	"fan_speed\000"
 7026      73706565 
 7026      6400
 7027              	.LASF105:
 7028 0366 6D656173 		.ascii	"measChannels\000"
 7028      4368616E 
 7028      6E656C73 
 7028      00
 7029              	.LASF179:
 7030 0373 4453505F 		.ascii	"DSP_DISCHARGE\000"
 7030      44495343 
 7030      48415247 
 7030      4500
 7031              	.LASF124:
 7032 0381 61766572 		.ascii	"average_temp\000"
 7032      6167655F 
 7032      74656D70 
 7032      00
ARM GAS  C:\Users\DNIEL~1\AppData\Local\Temp\ccaMIE7p.s 			page 131


 7033              	.LASF68:
 7034 038e 4D757465 		.ascii	"Mutex\000"
 7034      7800
 7035              	.LASF220:
 7036 0394 77616473 		.ascii	"wadspTask\000"
 7036      70546173 
 7036      6B00
 7037              	.LASF225:
 7038 039e 63687072 		.ascii	"chprintf\000"
 7038      696E7466 
 7038      00
 7039              	.LASF198:
 7040 03a7 61726776 		.ascii	"argv\000"
 7040      00
 7041              	.LASF91:
 7042 03ac 50555044 		.ascii	"PUPDR\000"
 7042      5200
 7043              	.LASF148:
 7044 03b2 4453505F 		.ascii	"DSP_RUNNING\000"
 7044      52554E4E 
 7044      494E4700 
 7045              	.LASF33:
 7046 03be 705F6E61 		.ascii	"p_name\000"
 7046      6D6500
 7047              	.LASF80:
 7048 03c5 42617365 		.ascii	"BaseSequentialStream\000"
 7048      53657175 
 7048      656E7469 
 7048      616C5374 
 7048      7265616D 
 7049              	.LASF46:
 7050 03da 54687265 		.ascii	"ThreadsQueue\000"
 7050      61647351 
 7050      75657565 
 7050      00
 7051              	.LASF144:
 7052 03e7 43414C43 		.ascii	"CALC_NUM_CH\000"
 7052      5F4E554D 
 7052      5F434800 
 7053              	.LASF76:
 7054 03f3 63686172 		.ascii	"char\000"
 7054      00
 7055              	.LASF222:
 7056 03f8 474E5520 		.ascii	"GNU C 4.5.2\000"
 7056      4320342E 
 7056      352E3200 
 7057              	.LASF200:
 7058 0404 73706565 		.ascii	"speedGetSpeed\000"
 7058      64476574 
 7058      53706565 
 7058      6400
 7059              	.LASF64:
 7060 0412 725F6E65 		.ascii	"r_newer\000"
 7060      77657200 
 7061              	.LASF26:
 7062 041a 54687265 		.ascii	"Thread\000"
 7062      616400
ARM GAS  C:\Users\DNIEL~1\AppData\Local\Temp\ccaMIE7p.s 			page 132


 7063              	.LASF19:
 7064 0421 74737461 		.ascii	"tstate_t\000"
 7064      74655F74 
 7064      00
 7065              	.LASF177:
 7066 042a 4453505F 		.ascii	"DSP_LIGHT\000"
 7066      4C494748 
 7066      5400
 7067              	.LASF60:
 7068 0434 56544C69 		.ascii	"VTList\000"
 7068      737400
 7069              	.LASF121:
 7070 043b 7061636B 		.ascii	"pack_healt\000"
 7070      5F686561 
 7070      6C7400
 7071              	.LASF32:
 7072 0446 705F6F6C 		.ascii	"p_older\000"
 7072      64657200 
 7073              	.LASF226:
 7074 044e 64737054 		.ascii	"dspTask\000"
 7074      61736B00 
 7075              	.LASF34:
 7076 0456 705F7374 		.ascii	"p_state\000"
 7076      61746500 
 7077              	.LASF143:
 7078 045e 43414C43 		.ascii	"CALC_SUN_POWER\000"
 7078      5F53554E 
 7078      5F504F57 
 7078      455200
 7079              	.LASF3:
 7080 046d 75696E74 		.ascii	"uint8_t\000"
 7080      385F7400 
 7081              	.LASF86:
 7082 0475 42617365 		.ascii	"BaseChannel\000"
 7082      4368616E 
 7082      6E656C00 
 7083              	.LASF189:
 7084 0481 64726177 		.ascii	"draw_line\000"
 7084      5F6C696E 
 7084      6500
 7085              	.LASF135:
 7086 048b 6D696E69 		.ascii	"minimum_cell\000"
 7086      6D756D5F 
 7086      63656C6C 
 7086      00
 7087              	.LASF45:
 7088 0498 705F6D70 		.ascii	"p_mpool\000"
 7088      6F6F6C00 
 7089              	.LASF102:
 7090 04a0 4D454153 		.ascii	"MEAS_SEN2\000"
 7090      5F53454E 
 7090      3200
 7091              	.LASF43:
 7092 04aa 705F6D74 		.ascii	"p_mtxlist\000"
 7092      786C6973 
 7092      7400
 7093              	.LASF126:
ARM GAS  C:\Users\DNIEL~1\AppData\Local\Temp\ccaMIE7p.s 			page 133


 7094 04b4 6C6F775F 		.ascii	"low_cell_volt\000"
 7094      63656C6C 
 7094      5F766F6C 
 7094      7400
 7095              	.LASF145:
 7096 04c2 76615F6C 		.ascii	"va_list\000"
 7096      69737400 
 7097              	.LASF163:
 7098 04ca 4453505F 		.ascii	"DSP_x10_BATTERY_TEMP\000"
 7098      7831305F 
 7098      42415454 
 7098      4552595F 
 7098      54454D50 
 7099              	.LASF13:
 7100 04df 6C6F6E67 		.ascii	"long long int\000"
 7100      206C6F6E 
 7100      6720696E 
 7100      7400
 7101              	.LASF78:
 7102 04ed 77726974 		.ascii	"write\000"
 7102      6500
 7103              	.LASF61:
 7104 04f3 725F7175 		.ascii	"r_queue\000"
 7104      65756500 
 7105              	.LASF151:
 7106 04fb 4453505F 		.ascii	"DSP_x10_SPEED\000"
 7106      7831305F 
 7106      53504545 
 7106      4400
 7107              	.LASF23:
 7108 0509 6D73675F 		.ascii	"msg_t\000"
 7108      7400
 7109              	.LASF118:
 7110 050f 63757374 		.ascii	"custom_flag_1\000"
 7110      6F6D5F66 
 7110      6C61675F 
 7110      3100
 7111              	.LASF134:
 7112 051d 63757374 		.ascii	"custom_flag_2\000"
 7112      6F6D5F66 
 7112      6C61675F 
 7112      3200
 7113              	.LASF195:
 7114 052b 6473705F 		.ascii	"dsp_active\000"
 7114      61637469 
 7114      766500
 7115              	.LASF228:
 7116 0536 4552524F 		.ascii	"ERROR\000"
 7116      5200
 7117              	.LASF51:
 7118 053c 636F6E74 		.ascii	"context\000"
 7118      65787400 
 7119              	.LASF184:
 7120 0544 6E65775F 		.ascii	"new_val\000"
 7120      76616C00 
 7121              	.LASF166:
 7122 054c 4453505F 		.ascii	"DSP_x100_SUN_POWER\000"
ARM GAS  C:\Users\DNIEL~1\AppData\Local\Temp\ccaMIE7p.s 			page 134


 7122      78313030 
 7122      5F53554E 
 7122      5F504F57 
 7122      455200
 7123              	.LASF131:
 7124 055f 7061636B 		.ascii	"pack_ccl\000"
 7124      5F63636C 
 7124      00
 7125              	.LASF35:
 7126 0568 705F666C 		.ascii	"p_flags\000"
 7126      61677300 
 7127              	.LASF116:
 7128 0570 5F5F6170 		.ascii	"__ap\000"
 7128      00
 7129              	.LASF170:
 7130 0575 4453505F 		.ascii	"DSP_x100_MOTOR_POWER\000"
 7130      78313030 
 7130      5F4D4F54 
 7130      4F525F50 
 7130      4F574552 
 7131              	.LASF213:
 7132 058a 6275735F 		.ascii	"bus_bit\000"
 7132      62697400 
 7133              	.LASF141:
 7134 0592 63616C63 		.ascii	"calcChannels\000"
 7134      4368616E 
 7134      6E656C73 
 7134      00
 7135              	.LASF181:
 7136 059f 4453505F 		.ascii	"DSP_DANGER\000"
 7136      44414E47 
 7136      455200
 7137              	.LASF174:
 7138 05aa 4453505F 		.ascii	"DSP_INDEX_RIGHT\000"
 7138      494E4445 
 7138      585F5249 
 7138      47485400 
 7139              	.LASF152:
 7140 05ba 4453505F 		.ascii	"DSP_x1_SPEED\000"
 7140      78315F53 
 7140      50454544 
 7140      00
 7141              	.LASF21:
 7142 05c7 74736C69 		.ascii	"tslices_t\000"
 7142      6365735F 
 7142      7400
 7143              	.LASF65:
 7144 05d1 725F6F6C 		.ascii	"r_older\000"
 7144      64657200 
 7145              	.LASF219:
 7146 05d9 76616C61 		.ascii	"valasz\000"
 7146      737A00
 7147              	.LASF100:
 7148 05e0 4D454153 		.ascii	"MEAS_STEERING\000"
 7148      5F535445 
 7148      4552494E 
 7148      4700
ARM GAS  C:\Users\DNIEL~1\AppData\Local\Temp\ccaMIE7p.s 			page 135


 7149              	.LASF186:
 7150 05ee 6473705F 		.ascii	"dsp_LoadTop\000"
 7150      4C6F6164 
 7150      546F7000 
 7151              	.LASF197:
 7152 05fa 61726763 		.ascii	"argc\000"
 7152      00
 7153              	.LASF41:
 7154 05ff 705F6D73 		.ascii	"p_msg\000"
 7154      6700
 7155              	.LASF18:
 7156 0605 746D6F64 		.ascii	"tmode_t\000"
 7156      655F7400 
 7157              	.LASF193:
 7158 060d 64737049 		.ascii	"dspInit\000"
 7158      6E697400 
 7159              	.LASF44:
 7160 0615 705F7265 		.ascii	"p_realprio\000"
 7160      616C7072 
 7160      696F00
 7161              	.LASF90:
 7162 0620 4F535045 		.ascii	"OSPEEDR\000"
 7162      45445200 
 7163              	.LASF8:
 7164 0628 73686F72 		.ascii	"short unsigned int\000"
 7164      7420756E 
 7164      7369676E 
 7164      65642069 
 7164      6E7400
 7165              	.LASF187:
 7166 063b 6473705F 		.ascii	"dsp_LoadMidle\000"
 7166      4C6F6164 
 7166      4D69646C 
 7166      6500
 7167              	.LASF113:
 7168 0649 6C6F6E67 		.ascii	"long double\000"
 7168      20646F75 
 7168      626C6500 
 7169              	.LASF7:
 7170 0655 75696E74 		.ascii	"uint16_t\000"
 7170      31365F74 
 7170      00
 7171              	.LASF217:
 7172 065e 6F766572 		.ascii	"over_charge\000"
 7172      5F636861 
 7172      72676500 
 7173              	.LASF224:
 7174 066a 433A5C44 		.ascii	"C:\\Dani\\MegaLux\\Repo\\Smarty\\Smarty\\smarty\\fi"
 7174      616E695C 
 7174      4D656761 
 7174      4C75785C 
 7174      5265706F 
 7175 0696 726D7761 		.ascii	"rmware\000"
 7175      726500
 7176              	.LASF50:
 7177 069d 696E7463 		.ascii	"intctx\000"
 7177      747800
ARM GAS  C:\Users\DNIEL~1\AppData\Local\Temp\ccaMIE7p.s 			page 136


 7178              	.LASF120:
 7179 06a4 7061636B 		.ascii	"pack_soc\000"
 7179      5F736F63 
 7179      00
 7180              	.LASF175:
 7181 06ad 4453505F 		.ascii	"DSP_INDEX_LEFT\000"
 7181      494E4445 
 7181      585F4C45 
 7181      465400
 7182              	.LASF191:
 7183 06bc 6473705F 		.ascii	"dsp_RefreshMidle\000"
 7183      52656672 
 7183      6573684D 
 7183      69646C65 
 7183      00
 7184              	.LASF6:
 7185 06cd 73686F72 		.ascii	"short int\000"
 7185      7420696E 
 7185      7400
 7186              	.LASF66:
 7187 06d7 725F6375 		.ascii	"r_current\000"
 7187      7272656E 
 7187      7400
 7188              	.LASF42:
 7189 06e1 705F6570 		.ascii	"p_epending\000"
 7189      656E6469 
 7189      6E6700
 7190              	.LASF109:
 7191 06ec 4D454153 		.ascii	"MEAS2_REGEN_BRAKE\000"
 7191      325F5245 
 7191      47454E5F 
 7191      4252414B 
 7191      4500
 7192              	.LASF196:
 7193 06fe 636D645F 		.ascii	"cmd_dspvalues\000"
 7193      64737076 
 7193      616C7565 
 7193      7300
 7194              	.LASF10:
 7195 070c 6C6F6E67 		.ascii	"long int\000"
 7195      20696E74 
 7195      00
 7196              	.LASF211:
 7197 0715 6275735F 		.ascii	"bus_status\000"
 7197      73746174 
 7197      757300
 7198              	.LASF205:
 7199 0720 49544D5F 		.ascii	"ITM_RxBuffer\000"
 7199      52784275 
 7199      66666572 
 7199      00
 7200              	.LASF119:
 7201 072d 7061636B 		.ascii	"pack_inst_volt\000"
 7201      5F696E73 
 7201      745F766F 
 7201      6C7400
 7202              	.LASF207:
ARM GAS  C:\Users\DNIEL~1\AppData\Local\Temp\ccaMIE7p.s 			page 137


 7203 073c 64737073 		.ascii	"dspstate\000"
 7203      74617465 
 7203      00
 7204              	.LASF190:
 7205 0745 6473705F 		.ascii	"dsp_LoadBottom\000"
 7205      4C6F6164 
 7205      426F7474 
 7205      6F6D00
 7206              	.LASF89:
 7207 0754 4F545950 		.ascii	"OTYPER\000"
 7207      455200
 7208              	.LASF27:
 7209 075b 705F6E65 		.ascii	"p_next\000"
 7209      787400
 7210              	.LASF14:
 7211 0762 75696E74 		.ascii	"uint64_t\000"
 7211      36345F74 
 7211      00
 7212              	.LASF30:
 7213 076b 705F6374 		.ascii	"p_ctx\000"
 7213      7800
 7214              	.LASF204:
 7215 0771 726C6973 		.ascii	"rlist\000"
 7215      7400
 7216              	.LASF107:
 7217 0777 4D454153 		.ascii	"MEAS2_CURR1\000"
 7217      325F4355 
 7217      52523100 
 7218              	.LASF53:
 7219 0783 56697274 		.ascii	"VirtualTimer\000"
 7219      75616C54 
 7219      696D6572 
 7219      00
 7220              	.LASF180:
 7221 0790 4453505F 		.ascii	"DSP_MOTOR_TEMO\000"
 7221      4D4F544F 
 7221      525F5445 
 7221      4D4F00
 7222              	.LASF79:
 7223 079f 72656164 		.ascii	"read\000"
 7223      00
 7224              	.LASF130:
 7225 07a4 746F7461 		.ascii	"total_pack_cycle\000"
 7225      6C5F7061 
 7225      636B5F63 
 7225      79636C65 
 7225      00
 7226              	.LASF96:
 7227 07b5 4750494F 		.ascii	"GPIO_TypeDef\000"
 7227      5F547970 
 7227      65446566 
 7227      00
 7228              	.LASF212:
 7229 07c2 6473705F 		.ascii	"dsp_activ\000"
 7229      61637469 
 7229      7600
 7230              	.LASF221:
ARM GAS  C:\Users\DNIEL~1\AppData\Local\Temp\ccaMIE7p.s 			page 138


 7231 07cc 63727569 		.ascii	"cruise_assis\000"
 7231      73655F61 
 7231      73736973 
 7231      00
 7232              	.LASF28:
 7233 07d9 705F7072 		.ascii	"p_prev\000"
 7233      657600
 7234              	.LASF20:
 7235 07e0 74726566 		.ascii	"trefs_t\000"
 7235      735F7400 
 7236              	.LASF12:
 7237 07e8 6C6F6E67 		.ascii	"long unsigned int\000"
 7237      20756E73 
 7237      69676E65 
 7237      6420696E 
 7237      7400
 7238              	.LASF227:
 7239 07fa 64737047 		.ascii	"dspGetItem\000"
 7239      65744974 
 7239      656D00
 7240              	.LASF9:
 7241 0805 696E7433 		.ascii	"int32_t\000"
 7241      325F7400 
 7242              	.LASF95:
 7243 080d 41465248 		.ascii	"AFRH\000"
 7243      00
 7244              	.LASF110:
 7245 0812 4D454153 		.ascii	"MEAS2_NUM_CH\000"
 7245      325F4E55 
 7245      4D5F4348 
 7245      00
 7246              	.LASF4:
 7247 081f 756E7369 		.ascii	"unsigned char\000"
 7247      676E6564 
 7247      20636861 
 7247      7200
 7248              	.LASF129:
 7249 082d 7061636B 		.ascii	"pack_current\000"
 7249      5F637572 
 7249      72656E74 
 7249      00
 7250              	.LASF36:
 7251 083a 705F7265 		.ascii	"p_refs\000"
 7251      667300
 7252              	.LASF67:
 7253 0841 52656164 		.ascii	"ReadyList\000"
 7253      794C6973 
 7253      7400
 7254              	.LASF178:
 7255 084b 4453505F 		.ascii	"DSP_OVER_CHARGE\000"
 7255      4F564552 
 7255      5F434841 
 7255      52474500 
 7256              	.LASF136:
 7257 085b 68696768 		.ascii	"high_cell_volt_num\000"
 7257      5F63656C 
 7257      6C5F766F 
ARM GAS  C:\Users\DNIEL~1\AppData\Local\Temp\ccaMIE7p.s 			page 139


 7257      6C745F6E 
 7257      756D00
 7258              	.LASF146:
 7259 086e 64737053 		.ascii	"dspState\000"
 7259      74617465 
 7259      00
 7260              	.LASF208:
 7261 0877 6473706D 		.ascii	"dspmessages\000"
 7261      65737361 
 7261      67657300 
 7262              	.LASF37:
 7263 0883 705F7072 		.ascii	"p_preempt\000"
 7263      65656D70 
 7263      7400
 7264              	.LASF49:
 7265 088d 73746B61 		.ascii	"stkalign_t\000"
 7265      6C69676E 
 7265      5F7400
 7266              	.LASF172:
 7267 0898 4453505F 		.ascii	"DSP_x1_MOTOR_POWER\000"
 7267      78315F4D 
 7267      4F544F52 
 7267      5F504F57 
 7267      455200
 7268              	.LASF75:
 7269 08ab 65776D61 		.ascii	"ewmask\000"
 7269      736B00
 7270              	.LASF54:
 7271 08b2 76745F6E 		.ascii	"vt_next\000"
 7271      65787400 
 7272              	.LASF104:
 7273 08ba 4D454153 		.ascii	"MEAS_NUM_CH\000"
 7273      5F4E554D 
 7273      5F434800 
 7274              	.LASF97:
 7275 08c6 4D454153 		.ascii	"MEAS_UBAT\000"
 7275      5F554241 
 7275      5400
 7276              	.LASF154:
 7277 08d0 4453505F 		.ascii	"DSP_x10_AVG_SPEED\000"
 7277      7831305F 
 7277      4156475F 
 7277      53504545 
 7277      4400
 7278              	.LASF192:
 7279 08e2 6672616D 		.ascii	"frame\000"
 7279      6500
 7280              	.LASF194:
 7281 08e8 64737047 		.ascii	"dspGetValue\000"
 7281      65745661 
 7281      6C756500 
 7282              	.LASF161:
 7283 08f4 4453505F 		.ascii	"DSP_x10_BATTERY\000"
 7283      7831305F 
 7283      42415454 
 7283      45525900 
 7284              	.LASF71:
ARM GAS  C:\Users\DNIEL~1\AppData\Local\Temp\ccaMIE7p.s 			page 140


 7285 0904 6D5F6E65 		.ascii	"m_next\000"
 7285      787400
 7286              	.LASF122:
 7287 090b 7061636B 		.ascii	"pack_amps\000"
 7287      5F616D70 
 7287      7300
 7288              	.LASF169:
 7289 0915 4453505F 		.ascii	"DSP_x1000_MOTOR_POWER\000"
 7289      78313030 
 7289      305F4D4F 
 7289      544F525F 
 7289      504F5745 
 7290              	.LASF1:
 7291 092b 7369676E 		.ascii	"signed char\000"
 7291      65642063 
 7291      68617200 
 7292              	.LASF85:
 7293 0937 72656164 		.ascii	"readt\000"
 7293      7400
 7294              	.LASF127:
 7295 093d 68696768 		.ascii	"high_cell_volt\000"
 7295      5F63656C 
 7295      6C5F766F 
 7295      6C7400
 7296              	.LASF63:
 7297 094c 725F6374 		.ascii	"r_ctx\000"
 7297      7800
 7298              	.LASF132:
 7299 0952 7061636B 		.ascii	"pack_dcl\000"
 7299      5F64636C 
 7299      00
 7300              	.LASF158:
 7301 095b 4453505F 		.ascii	"DSP_x10_TEMP_SPEED\000"
 7301      7831305F 
 7301      54454D50 
 7301      5F535045 
 7301      454400
 7302              	.LASF202:
 7303 096e 61746F6C 		.ascii	"atol\000"
 7303      00
 7304              	.LASF57:
 7305 0973 76745F66 		.ascii	"vt_func\000"
 7305      756E6300 
 7306              	.LASF155:
 7307 097b 4453505F 		.ascii	"DSP_x1_AVG_SPEED\000"
 7307      78315F41 
 7307      56475F53 
 7307      50454544 
 7307      00
 7308              	.LASF111:
 7309 098c 646F7562 		.ascii	"double\000"
 7309      6C6500
 7310              	.LASF55:
 7311 0993 76745F70 		.ascii	"vt_prev\000"
 7311      72657600 
 7312              	.LASF162:
 7313 099b 4453505F 		.ascii	"DSP_x1_BATTERY\000"
ARM GAS  C:\Users\DNIEL~1\AppData\Local\Temp\ccaMIE7p.s 			page 141


 7313      78315F42 
 7313      41545445 
 7313      525900
 7314              	.LASF125:
 7315 09aa 696E7465 		.ascii	"internal_temp\000"
 7315      726E616C 
 7315      5F74656D 
 7315      7000
 7316              	.LASF137:
 7317 09b8 6C6F775F 		.ascii	"low_cell_volt_num\000"
 7317      63656C6C 
 7317      5F766F6C 
 7317      745F6E75 
 7317      6D00
 7318              	.LASF73:
 7319 09ca 65786974 		.ascii	"exitcode\000"
 7319      636F6465 
 7319      00
 7320              	.LASF157:
 7321 09d3 4453505F 		.ascii	"DSP_x100_TEMP_SPEED\000"
 7321      78313030 
 7321      5F54454D 
 7321      505F5350 
 7321      45454400 
 7322              	.LASF31:
 7323 09e7 705F6E65 		.ascii	"p_newer\000"
 7323      77657200 
 7324              	.LASF103:
 7325 09ef 4D454153 		.ascii	"MEAS_SEN3\000"
 7325      5F53454E 
 7325      3300
 7326              	.LASF93:
 7327 09f9 4C434B52 		.ascii	"LCKR\000"
 7327      00
 7328              	.LASF201:
 7329 09fe 73747263 		.ascii	"strcmp\000"
 7329      6D7000
 7330              	.LASF138:
 7331 0a05 73757070 		.ascii	"supply_12v\000"
 7331      6C795F31 
 7331      327600
 7332              	.LASF70:
 7333 0a10 6D5F6F77 		.ascii	"m_owner\000"
 7333      6E657200 
 7334              		.ident	"GCC: (Sourcery G++ Lite 2011.03-42) 4.5.2"
ARM GAS  C:\Users\DNIEL~1\AppData\Local\Temp\ccaMIE7p.s 			page 142


DEFINED SYMBOLS
                            *ABS*:00000000 dsp.c
C:\Users\DNIEL~1\AppData\Local\Temp\ccaMIE7p.s:24     .text.chprintf:00000000 $t
C:\Users\DNIEL~1\AppData\Local\Temp\ccaMIE7p.s:29     .text.chprintf:00000000 chprintf
C:\Users\DNIEL~1\AppData\Local\Temp\ccaMIE7p.s:69     .text.dspTask:00000000 $t
C:\Users\DNIEL~1\AppData\Local\Temp\ccaMIE7p.s:74     .text.dspTask:00000000 dspTask
C:\Users\DNIEL~1\AppData\Local\Temp\ccaMIE7p.s:208    .text.dspTask:000000a0 $d
C:\Users\DNIEL~1\AppData\Local\Temp\ccaMIE7p.s:244    .text.dspTask:000000e0 $t
C:\Users\DNIEL~1\AppData\Local\Temp\ccaMIE7p.s:498    .text.dspTask:00000280 $d
C:\Users\DNIEL~1\AppData\Local\Temp\ccaMIE7p.s:518    .text.dspTask:000002c4 $t
C:\Users\DNIEL~1\AppData\Local\Temp\ccaMIE7p.s:1103   .text.dspTask:00000708 $d
C:\Users\DNIEL~1\AppData\Local\Temp\ccaMIE7p.s:1109   .text.dspTask:00000718 $t
C:\Users\DNIEL~1\AppData\Local\Temp\ccaMIE7p.s:1749   .text.dspTask:00000b80 $d
C:\Users\DNIEL~1\AppData\Local\Temp\ccaMIE7p.s:1758   .text.dspTask:00000b9c $t
C:\Users\DNIEL~1\AppData\Local\Temp\ccaMIE7p.s:1826   .text.dsp_LoadTop:00000000 $t
C:\Users\DNIEL~1\AppData\Local\Temp\ccaMIE7p.s:1832   .text.dsp_LoadTop:00000000 dsp_LoadTop
C:\Users\DNIEL~1\AppData\Local\Temp\ccaMIE7p.s:1938   .text.dsp_LoadMidle:00000000 $t
C:\Users\DNIEL~1\AppData\Local\Temp\ccaMIE7p.s:1944   .text.dsp_LoadMidle:00000000 dsp_LoadMidle
C:\Users\DNIEL~1\AppData\Local\Temp\ccaMIE7p.s:2012   .text.dsp_LoadBottom:00000000 $t
C:\Users\DNIEL~1\AppData\Local\Temp\ccaMIE7p.s:2018   .text.dsp_LoadBottom:00000000 dsp_LoadBottom
C:\Users\DNIEL~1\AppData\Local\Temp\ccaMIE7p.s:2173   .text.dsp_RefreshMidle:00000000 $t
C:\Users\DNIEL~1\AppData\Local\Temp\ccaMIE7p.s:2179   .text.dsp_RefreshMidle:00000000 dsp_RefreshMidle
C:\Users\DNIEL~1\AppData\Local\Temp\ccaMIE7p.s:2299   .text.dsp_RefreshMidle:000000f0 $d
C:\Users\DNIEL~1\AppData\Local\Temp\ccaMIE7p.s:2305   .text.dspInit:00000000 $t
C:\Users\DNIEL~1\AppData\Local\Temp\ccaMIE7p.s:2311   .text.dspInit:00000000 dspInit
C:\Users\DNIEL~1\AppData\Local\Temp\ccaMIE7p.s:2373   .text.dspInit:00000044 $d
C:\Users\DNIEL~1\AppData\Local\Temp\ccaMIE7p.s:2383   .text.dspGetItem:00000000 $t
C:\Users\DNIEL~1\AppData\Local\Temp\ccaMIE7p.s:2389   .text.dspGetItem:00000000 dspGetItem
C:\Users\DNIEL~1\AppData\Local\Temp\ccaMIE7p.s:2413   .text.dspGetItem:00000010 $d
C:\Users\DNIEL~1\AppData\Local\Temp\ccaMIE7p.s:2418   .text.dspGetValue:00000000 $t
C:\Users\DNIEL~1\AppData\Local\Temp\ccaMIE7p.s:2424   .text.dspGetValue:00000000 dspGetValue
C:\Users\DNIEL~1\AppData\Local\Temp\ccaMIE7p.s:2439   .text.dspGetValue:00000008 $d
C:\Users\DNIEL~1\AppData\Local\Temp\ccaMIE7p.s:2444   .text.dsp_active:00000000 $t
C:\Users\DNIEL~1\AppData\Local\Temp\ccaMIE7p.s:2450   .text.dsp_active:00000000 dsp_active
C:\Users\DNIEL~1\AppData\Local\Temp\ccaMIE7p.s:2465   .text.dsp_active:00000008 $d
C:\Users\DNIEL~1\AppData\Local\Temp\ccaMIE7p.s:2470   .text.cmd_dspvalues:00000000 $t
C:\Users\DNIEL~1\AppData\Local\Temp\ccaMIE7p.s:2476   .text.cmd_dspvalues:00000000 cmd_dspvalues
C:\Users\DNIEL~1\AppData\Local\Temp\ccaMIE7p.s:2661   .text.cmd_dspvalues:0000013c $d
C:\Users\DNIEL~1\AppData\Local\Temp\ccaMIE7p.s:2685   .text.cmdfrappans_dspmessages:00000000 $t
C:\Users\DNIEL~1\AppData\Local\Temp\ccaMIE7p.s:2691   .text.cmdfrappans_dspmessages:00000000 cmdfrappans_dspmessages
C:\Users\DNIEL~1\AppData\Local\Temp\ccaMIE7p.s:2875   .text.cmdfrappans_dspmessages:0000010c $d
C:\Users\DNIEL~1\AppData\Local\Temp\ccaMIE7p.s:3059   .data.db:00000000 db
C:\Users\DNIEL~1\AppData\Local\Temp\ccaMIE7p.s:3072   .bss.db2:00000000 db2
C:\Users\DNIEL~1\AppData\Local\Temp\ccaMIE7p.s:2920   .bss.cruise_assis:00000000 cruise_assis
C:\Users\DNIEL~1\AppData\Local\Temp\ccaMIE7p.s:3092   .bss.dspstate:00000000 dspstate
C:\Users\DNIEL~1\AppData\Local\Temp\ccaMIE7p.s:3086   .bss.dspmessages:00000000 dspmessages
C:\Users\DNIEL~1\AppData\Local\Temp\ccaMIE7p.s:2964   .bss.dsp_activ:00000000 dsp_activ
C:\Users\DNIEL~1\AppData\Local\Temp\ccaMIE7p.s:2958   .bss.c:00000000 c
C:\Users\DNIEL~1\AppData\Local\Temp\ccaMIE7p.s:2904   .bss.bus_num:00000000 $d
C:\Users\DNIEL~1\AppData\Local\Temp\ccaMIE7p.s:2908   .bss.bus_num:00000000 bus_num
C:\Users\DNIEL~1\AppData\Local\Temp\ccaMIE7p.s:2911   .bss.danger:00000000 $d
C:\Users\DNIEL~1\AppData\Local\Temp\ccaMIE7p.s:2915   .bss.danger:00000000 danger
C:\Users\DNIEL~1\AppData\Local\Temp\ccaMIE7p.s:2921   .bss.cruise_assis:00000000 $d
C:\Users\DNIEL~1\AppData\Local\Temp\ccaMIE7p.s:2926   .bss.valasz:00000000 valasz
C:\Users\DNIEL~1\AppData\Local\Temp\ccaMIE7p.s:2927   .bss.valasz:00000000 $d
C:\Users\DNIEL~1\AppData\Local\Temp\ccaMIE7p.s:2929   .bss.over_charge:00000000 $d
C:\Users\DNIEL~1\AppData\Local\Temp\ccaMIE7p.s:2933   .bss.over_charge:00000000 over_charge
ARM GAS  C:\Users\DNIEL~1\AppData\Local\Temp\ccaMIE7p.s 			page 143


C:\Users\DNIEL~1\AppData\Local\Temp\ccaMIE7p.s:2936   .bss.discharge:00000000 $d
C:\Users\DNIEL~1\AppData\Local\Temp\ccaMIE7p.s:2940   .bss.discharge:00000000 discharge
C:\Users\DNIEL~1\AppData\Local\Temp\ccaMIE7p.s:2943   .bss.tasknumber:00000000 $d
C:\Users\DNIEL~1\AppData\Local\Temp\ccaMIE7p.s:2947   .bss.tasknumber:00000000 tasknumber
C:\Users\DNIEL~1\AppData\Local\Temp\ccaMIE7p.s:2953   .bss.bus_status:00000000 bus_status
C:\Users\DNIEL~1\AppData\Local\Temp\ccaMIE7p.s:2954   .bss.bus_status:00000000 $d
C:\Users\DNIEL~1\AppData\Local\Temp\ccaMIE7p.s:2959   .bss.c:00000000 $d
C:\Users\DNIEL~1\AppData\Local\Temp\ccaMIE7p.s:2965   .bss.dsp_activ:00000000 $d
C:\Users\DNIEL~1\AppData\Local\Temp\ccaMIE7p.s:2967   .bss.motor_temp:00000000 $d
C:\Users\DNIEL~1\AppData\Local\Temp\ccaMIE7p.s:2971   .bss.motor_temp:00000000 motor_temp
C:\Users\DNIEL~1\AppData\Local\Temp\ccaMIE7p.s:2974   .bss.wadspTask:00000000 $d
C:\Users\DNIEL~1\AppData\Local\Temp\ccaMIE7p.s:2978   .bss.wadspTask:00000000 wadspTask
C:\Users\DNIEL~1\AppData\Local\Temp\ccaMIE7p.s:2981   .rodata.str1.4:00000000 $d
C:\Users\DNIEL~1\AppData\Local\Temp\ccaMIE7p.s:3055   .data.db:00000000 $d
C:\Users\DNIEL~1\AppData\Local\Temp\ccaMIE7p.s:3062   .bss.bus_bit:00000000 $d
C:\Users\DNIEL~1\AppData\Local\Temp\ccaMIE7p.s:3066   .bss.bus_bit:00000000 bus_bit
C:\Users\DNIEL~1\AppData\Local\Temp\ccaMIE7p.s:3069   .bss.db2:00000000 $d
C:\Users\DNIEL~1\AppData\Local\Temp\ccaMIE7p.s:3075   .data.dspValue:00000000 $d
C:\Users\DNIEL~1\AppData\Local\Temp\ccaMIE7p.s:3079   .data.dspValue:00000000 dspValue
C:\Users\DNIEL~1\AppData\Local\Temp\ccaMIE7p.s:3087   .bss.dspmessages:00000000 $d
C:\Users\DNIEL~1\AppData\Local\Temp\ccaMIE7p.s:3093   .bss.dspstate:00000000 $d
                     .debug_frame:00000010 $d
C:\Users\DNIEL~1\AppData\Local\Temp\ccaMIE7p.s:2304   .text.dsp_RefreshMidle:000000f8 $t
C:\Users\DNIEL~1\AppData\Local\Temp\ccaMIE7p.s:2382   .text.dspInit:0000005c $t
C:\Users\DNIEL~1\AppData\Local\Temp\ccaMIE7p.s:2417   .text.dspGetItem:00000014 $t
C:\Users\DNIEL~1\AppData\Local\Temp\ccaMIE7p.s:2443   .text.dspGetValue:0000000c $t
C:\Users\DNIEL~1\AppData\Local\Temp\ccaMIE7p.s:2469   .text.dsp_active:0000000c $t
C:\Users\DNIEL~1\AppData\Local\Temp\ccaMIE7p.s:2684   .text.cmd_dspvalues:0000018c $t

UNDEFINED SYMBOLS
chvprintf
gfxGetDspAns
bus_Read
measGetValue
media_SetSector
media_VideoFrame
gfxGetDspAnsZero
rlist
vtlist
bmsitems
getLightFlashing
cruiseStatus
calcGetValue
measGetValue_2
cruiseGet
speedGetSpeed
gfx_Transparency
gfx_TransparentColour
media_Image
draw_line
gfx_Cls
file_Mount
bus_In
chThdCreateStatic
chThdSleep
strcmp
atol
ARM GAS  C:\Users\DNIEL~1\AppData\Local\Temp\ccaMIE7p.s 			page 144


gfx_BGcolour
