ARM GAS  C:\Users\DNIEL~1\AppData\Local\Temp\cc02LuPk.s 			page 1


   1              		.syntax unified
   2              		.cpu cortex-m4
   3              		.fpu softvfp
   4              		.eabi_attribute 20, 1
   5              		.eabi_attribute 21, 1
   6              		.eabi_attribute 23, 3
   7              		.eabi_attribute 24, 1
   8              		.eabi_attribute 25, 1
   9              		.eabi_attribute 26, 1
  10              		.eabi_attribute 30, 2
  11              		.eabi_attribute 18, 4
  12              		.thumb
  13              		.file	"eeprom.c"
  20 0000 2F040000 		.text
  20      02000103 
  20      00000201 
  20      FB0E0D00 
  20      01010101 
  21              	.Ltext0:
  22              		.cfi_sections	.debug_frame
  23              		.section	.text.chprintf,"ax",%progbits
  24              		.align	2
  25              		.p2align 4,,15
  26              		.thumb
  27              		.thumb_func
  28              		.type	chprintf, %function
  29              	chprintf:
  30              	.LFB118:
  31              		.file 1 "../../../ChibiOS/os/various/chprintf.h"
  32              		.loc 1 69 0
  33              		.cfi_startproc
  34              		@ args = 4, pretend = 12, frame = 8
  35              		@ frame_needed = 0, uses_anonymous_args = 1
  36              	.LVL0:
  37 0000 0EB4     		push	{r1, r2, r3}
  38              	.LCFI0:
  39              		.cfi_def_cfa_offset 12
  40 0002 00B5     		push	{lr}
  41              	.LCFI1:
  42              		.cfi_def_cfa_offset 16
  43 0004 82B0     		sub	sp, sp, #8
  44              	.LCFI2:
  45              		.cfi_def_cfa_offset 24
  46              		.loc 1 69 0
  47 0006 03AB     		add	r3, sp, #12
  48              		.cfi_offset 14, -16
  49              		.cfi_offset 3, -4
  50              		.cfi_offset 2, -8
  51              		.cfi_offset 1, -12
  52 0008 53F8041B 		ldr	r1, [r3], #4
  53              		.loc 1 73 0
ARM GAS  C:\Users\DNIEL~1\AppData\Local\Temp\cc02LuPk.s 			page 2


  54 000c 1A46     		mov	r2, r3
  55              		.loc 1 72 0
  56 000e 0193     		str	r3, [sp, #4]
  57              		.loc 1 73 0
  58 0010 FFF7FEFF 		bl	chvprintf
  59              	.LVL1:
  60              		.loc 1 75 0
  61 0014 02B0     		add	sp, sp, #8
  62 0016 5DF804EB 		pop	{lr}
  63 001a 03B0     		add	sp, sp, #12
  64 001c 7047     		bx	lr
  65              		.cfi_endproc
  66              	.LFE118:
  67              		.size	chprintf, .-chprintf
  68 001e 00BF     		.section	.text.eepromInit,"ax",%progbits
  69              		.align	2
  70              		.p2align 4,,15
  71              		.global	eepromInit
  72              		.thumb
  73              		.thumb_func
  74              		.type	eepromInit, %function
  75              	eepromInit:
  76              	.LFB119:
  77              		.file 2 "src/eeprom.c"
  78              		.loc 2 27 0
  79              		.cfi_startproc
  80              		@ args = 0, pretend = 0, frame = 0
  81              		@ frame_needed = 0, uses_anonymous_args = 0
  82              		@ link register save eliminated.
  83              		.loc 2 28 0
  84 0000 0148     		ldr	r0, .L3
  85 0002 0249     		ldr	r1, .L3+4
  86              		.loc 2 29 0
  87              		.loc 2 28 0
  88 0004 FFF7FEBF 		b	i2cStart
  89              	.L4:
  90              		.align	2
  91              	.L3:
  92 0008 00000000 		.word	I2CD1
  93 000c 00000000 		.word	.LANCHOR0
  94              		.cfi_endproc
  95              	.LFE119:
  96              		.size	eepromInit, .-eepromInit
  97              		.section	.text.eepromGetItembyName,"ax",%progbits
  98              		.align	2
  99              		.p2align 4,,15
 100              		.global	eepromGetItembyName
 101              		.thumb
 102              		.thumb_func
 103              		.type	eepromGetItembyName, %function
 104              	eepromGetItembyName:
 105              	.LFB120:
 106              		.loc 2 31 0
 107              		.cfi_startproc
 108              		@ args = 0, pretend = 0, frame = 0
 109              		@ frame_needed = 0, uses_anonymous_args = 0
 110              		@ link register save eliminated.
ARM GAS  C:\Users\DNIEL~1\AppData\Local\Temp\cc02LuPk.s 			page 3


 111              	.LVL2:
 112              		.loc 2 35 0
 113 0000 244B     		ldr	r3, .L28
 114 0002 5A79     		ldrb	r2, [r3, #5]	@ zero_extendqisi2
 115 0004 8242     		cmp	r2, r0
 116 0006 2FD0     		beq	.L9
 117              		.loc 2 36 0
 118 0008 082A     		cmp	r2, #8
 119 000a 2BD0     		beq	.L24
 120              	.LVL3:
 121              		.loc 2 35 0
 122 000c DA7A     		ldrb	r2, [r3, #11]	@ zero_extendqisi2
 123 000e 8242     		cmp	r2, r0
 124 0010 30D0     		beq	.L11
 125              		.loc 2 36 0
 126 0012 082A     		cmp	r2, #8
 127 0014 26D0     		beq	.L24
 128              	.LVL4:
 129              		.loc 2 35 0
 130 0016 5A7C     		ldrb	r2, [r3, #17]	@ zero_extendqisi2
 131 0018 8242     		cmp	r2, r0
 132 001a 2DD0     		beq	.L13
 133              		.loc 2 36 0
 134 001c 082A     		cmp	r2, #8
 135 001e 21D0     		beq	.L24
 136              	.LVL5:
 137              		.loc 2 35 0
 138 0020 DA7D     		ldrb	r2, [r3, #23]	@ zero_extendqisi2
 139 0022 8242     		cmp	r2, r0
 140 0024 2AD0     		beq	.L15
 141              		.loc 2 36 0
 142 0026 082A     		cmp	r2, #8
 143 0028 1CD0     		beq	.L24
 144              	.LVL6:
 145              		.loc 2 35 0
 146 002a 5A7F     		ldrb	r2, [r3, #29]	@ zero_extendqisi2
 147 002c 8242     		cmp	r2, r0
 148 002e 27D0     		beq	.L17
 149              		.loc 2 36 0
 150 0030 082A     		cmp	r2, #8
 151 0032 17D0     		beq	.L24
 152              	.LVL7:
 153              		.loc 2 35 0
 154 0034 93F82310 		ldrb	r1, [r3, #35]	@ zero_extendqisi2
 155 0038 8142     		cmp	r1, r0
 156 003a 23D0     		beq	.L19
 157              		.loc 2 36 0
 158 003c 0829     		cmp	r1, #8
 159 003e 11D0     		beq	.L24
 160              	.LVL8:
 161              		.loc 2 35 0
 162 0040 93F82910 		ldrb	r1, [r3, #41]	@ zero_extendqisi2
 163 0044 8142     		cmp	r1, r0
 164 0046 1FD0     		beq	.L21
 165              		.loc 2 36 0
 166 0048 0829     		cmp	r1, #8
 167 004a 0BD0     		beq	.L24
ARM GAS  C:\Users\DNIEL~1\AppData\Local\Temp\cc02LuPk.s 			page 4


 168              	.LVL9:
 169              		.loc 2 35 0
 170 004c 93F82F10 		ldrb	r1, [r3, #47]	@ zero_extendqisi2
 171 0050 8142     		cmp	r1, r0
 172 0052 1BD0     		beq	.L23
 173              		.loc 2 36 0
 174 0054 0829     		cmp	r1, #8
 175 0056 05D0     		beq	.L24
 176              	.LVL10:
 177              		.loc 2 35 0
 178 0058 93F83520 		ldrb	r2, [r3, #53]	@ zero_extendqisi2
 179 005c 8242     		cmp	r2, r0
 180 005e 17D0     		beq	.L27
 181              		.loc 2 43 0
 182 0060 0020     		movs	r0, #0
 183              	.LVL11:
 184              		.loc 2 48 0
 185 0062 7047     		bx	lr
 186              	.LVL12:
 187              	.L24:
 188              		.loc 2 43 0
 189 0064 0020     		movs	r0, #0
 190              	.LVL13:
 191 0066 7047     		bx	lr
 192              	.LVL14:
 193              	.L9:
 194              		.loc 2 35 0
 195 0068 0020     		movs	r0, #0
 196              	.LVL15:
 197              	.L6:
 198              		.loc 2 46 0
 199 006a 00EB4000 		add	r0, r0, r0, lsl #1
 200 006e 03EB4000 		add	r0, r3, r0, lsl #1
 201 0072 7047     		bx	lr
 202              	.LVL16:
 203              	.L11:
 204              		.loc 2 40 0
 205 0074 0120     		movs	r0, #1
 206              	.LVL17:
 207 0076 F8E7     		b	.L6
 208              	.LVL18:
 209              	.L13:
 210 0078 0220     		movs	r0, #2
 211              	.LVL19:
 212 007a F6E7     		b	.L6
 213              	.LVL20:
 214              	.L15:
 215 007c 0320     		movs	r0, #3
 216              	.LVL21:
 217 007e F4E7     		b	.L6
 218              	.LVL22:
 219              	.L17:
 220 0080 0420     		movs	r0, #4
 221              	.LVL23:
 222 0082 F2E7     		b	.L6
 223              	.LVL24:
 224              	.L19:
ARM GAS  C:\Users\DNIEL~1\AppData\Local\Temp\cc02LuPk.s 			page 5


 225 0084 0520     		movs	r0, #5
 226              	.LVL25:
 227 0086 F0E7     		b	.L6
 228              	.LVL26:
 229              	.L21:
 230 0088 0620     		movs	r0, #6
 231              	.LVL27:
 232 008a EEE7     		b	.L6
 233              	.LVL28:
 234              	.L23:
 235 008c 0720     		movs	r0, #7
 236              	.LVL29:
 237 008e ECE7     		b	.L6
 238              	.LVL30:
 239              	.L27:
 240 0090 0820     		movs	r0, #8
 241              	.LVL31:
 242 0092 EAE7     		b	.L6
 243              	.L29:
 244              		.align	2
 245              	.L28:
 246 0094 00000000 		.word	.LANCHOR1
 247              		.cfi_endproc
 248              	.LFE120:
 249              		.size	eepromGetItembyName, .-eepromGetItembyName
 250 0098 AFF30080 		.section	.text.eepromWrite,"ax",%progbits
 250      AFF30080 
 251              		.align	2
 252              		.p2align 4,,15
 253              		.global	eepromWrite
 254              		.thumb
 255              		.thumb_func
 256              		.type	eepromWrite, %function
 257              	eepromWrite:
 258              	.LFB121:
 259              		.loc 2 50 0
 260              		.cfi_startproc
 261              		@ args = 0, pretend = 0, frame = 8
 262              		@ frame_needed = 0, uses_anonymous_args = 0
 263              	.LVL32:
 264 0000 F0B5     		push	{r4, r5, r6, r7, lr}
 265              	.LCFI3:
 266              		.cfi_def_cfa_offset 20
 267 0002 87B0     		sub	sp, sp, #28
 268              	.LCFI4:
 269              		.cfi_def_cfa_offset 48
 270              		.loc 2 50 0
 271 0004 0C46     		mov	r4, r1
 272              		.cfi_offset 14, -4
 273              		.cfi_offset 7, -8
 274              		.cfi_offset 6, -12
 275              		.cfi_offset 5, -16
 276              		.cfi_offset 4, -20
 277              		.loc 2 57 0
 278 0006 FFF7FEFF 		bl	eepromGetItembyName
 279              	.LVL33:
 280              		.loc 2 59 0
ARM GAS  C:\Users\DNIEL~1\AppData\Local\Temp\cc02LuPk.s 			page 6


 281 000a 4388     		ldrh	r3, [r0, #2]
 282 000c 1A0A     		lsrs	r2, r3, #8
 283 000e 8DF81020 		strb	r2, [sp, #16]
 284              		.loc 2 60 0
 285 0012 8DF81130 		strb	r3, [sp, #17]
 286              		.loc 2 62 0
 287 0016 0279     		ldrb	r2, [r0, #4]	@ zero_extendqisi2
 288              		.loc 2 57 0
 289 0018 0646     		mov	r6, r0
 290              	.LVL34:
 291              		.loc 2 62 0
 292 001a 002A     		cmp	r2, #0
 293 001c 35D0     		beq	.L44
 294              		.loc 2 50 0
 295 001e 511C     		adds	r1, r2, #1
 296 0020 04AD     		add	r5, sp, #16
 297 0022 501E     		subs	r0, r2, #1
 298              	.LVL35:
 299 0024 6B18     		adds	r3, r5, r1
 300 0026 C200     		lsls	r2, r0, #3
 301              	.LVL36:
 302 0028 AF1C     		adds	r7, r5, #2
 303 002a 691C     		adds	r1, r5, #1
 304              	.LVL37:
 305 002c 13F0010F 		tst	r3, #1
 306 0030 06D0     		beq	.L33
 307              	.LVL38:
 308              	.L41:
 309              		.loc 2 63 0
 310 0032 013B     		subs	r3, r3, #1
 311              		.loc 2 64 0
 312 0034 34FA02F0 		lsrs	r0, r4, r2
 313 0038 083A     		subs	r2, r2, #8
 314              		.loc 2 62 0
 315 003a 8B42     		cmp	r3, r1
 316              		.loc 2 64 0
 317 003c 5870     		strb	r0, [r3, #1]
 318              		.loc 2 62 0
 319 003e 0BD0     		beq	.L31
 320              	.L33:
 321              		.loc 2 63 0
 322 0040 BB42     		cmp	r3, r7
 323 0042 07D0     		beq	.L32
 324 0044 013B     		subs	r3, r3, #1
 325              		.loc 2 64 0
 326 0046 34FA02F0 		lsrs	r0, r4, r2
 327 004a 083A     		subs	r2, r2, #8
 328              		.loc 2 62 0
 329 004c 8B42     		cmp	r3, r1
 330              		.loc 2 64 0
 331 004e 5870     		strb	r0, [r3, #1]
 332              		.loc 2 62 0
 333 0050 EFD1     		bne	.L41
 334 0052 01E0     		b	.L31
 335              	.L32:
 336              		.loc 2 67 0
 337 0054 8DF81240 		strb	r4, [sp, #18]
ARM GAS  C:\Users\DNIEL~1\AppData\Local\Temp\cc02LuPk.s 			page 7


 338              	.L31:
 339              		.loc 2 70 0
 340 0058 0D48     		ldr	r0, .L45
 341 005a FFF7FEFF 		bl	i2cAcquireBus
 342              		.loc 2 71 0
 343 005e 3379     		ldrb	r3, [r6, #4]	@ zero_extendqisi2
 344 0060 0B48     		ldr	r0, .L45
 345 0062 0024     		movs	r4, #0
 346              	.LVL39:
 347 0064 5021     		movs	r1, #80
 348 0066 0233     		adds	r3, r3, #2
 349 0068 2A46     		mov	r2, r5
 350 006a 0094     		str	r4, [sp, #0]
 351 006c 0194     		str	r4, [sp, #4]
 352 006e 4FF0FF34 		mov	r4, #-1
 353 0072 0294     		str	r4, [sp, #8]
 354 0074 FFF7FEFF 		bl	i2cMasterTransmitTimeout
 355 0078 0446     		mov	r4, r0
 356              	.LVL40:
 357              		.loc 2 72 0
 358 007a 0548     		ldr	r0, .L45
 359              	.LVL41:
 360 007c FFF7FEFF 		bl	i2cReleaseBus
 361              		.loc 2 79 0
 362 0080 201E     		subs	r0, r4, #0
 363 0082 18BF     		it	ne
 364 0084 0120     		movne	r0, #1
 365 0086 07B0     		add	sp, sp, #28
 366 0088 F0BD     		pop	{r4, r5, r6, r7, pc}
 367              	.LVL42:
 368              	.L44:
 369 008a 04AD     		add	r5, sp, #16
 370 008c E4E7     		b	.L31
 371              	.L46:
 372 008e 00BF     		.align	2
 373              	.L45:
 374 0090 00000000 		.word	I2CD1
 375              		.cfi_endproc
 376              	.LFE121:
 377              		.size	eepromWrite, .-eepromWrite
 378 0094 AFF30080 		.section	.text.eepromRead,"ax",%progbits
 378      AFF30080 
 378      AFF30080 
 379              		.align	2
 380              		.p2align 4,,15
 381              		.global	eepromRead
 382              		.thumb
 383              		.thumb_func
 384              		.type	eepromRead, %function
 385              	eepromRead:
 386              	.LFB122:
 387              		.loc 2 81 0
 388              		.cfi_startproc
 389              		@ args = 0, pretend = 0, frame = 8
 390              		@ frame_needed = 0, uses_anonymous_args = 0
 391              	.LVL43:
 392 0000 70B5     		push	{r4, r5, r6, lr}
ARM GAS  C:\Users\DNIEL~1\AppData\Local\Temp\cc02LuPk.s 			page 8


 393              	.LCFI5:
 394              		.cfi_def_cfa_offset 16
 395 0002 86B0     		sub	sp, sp, #24
 396              	.LCFI6:
 397              		.cfi_def_cfa_offset 40
 398              		.loc 2 81 0
 399 0004 0E46     		mov	r6, r1
 400              		.cfi_offset 14, -4
 401              		.cfi_offset 6, -8
 402              		.cfi_offset 5, -12
 403              		.cfi_offset 4, -16
 404              		.loc 2 82 0
 405 0006 0021     		movs	r1, #0
 406              	.LVL44:
 407 0008 ADF81410 		strh	r1, [sp, #20]	@ movhi
 408              	.LVL45:
 409              		.loc 2 86 0
 410 000c FFF7FEFF 		bl	eepromGetItembyName
 411              	.LVL46:
 412              		.loc 2 91 0
 413 0010 0F4C     		ldr	r4, .L48
 414              		.loc 2 88 0
 415 0012 4388     		ldrh	r3, [r0, #2]
 416              		.loc 2 86 0
 417 0014 0546     		mov	r5, r0
 418              	.LVL47:
 419              		.loc 2 88 0
 420 0016 1A0A     		lsrs	r2, r3, #8
 421              		.loc 2 91 0
 422 0018 2046     		mov	r0, r4
 423              	.LVL48:
 424              		.loc 2 88 0
 425 001a 8DF81420 		strb	r2, [sp, #20]
 426              		.loc 2 89 0
 427 001e 8DF81530 		strb	r3, [sp, #21]
 428              		.loc 2 91 0
 429 0022 FFF7FEFF 		bl	i2cAcquireBus
 430              		.loc 2 92 0
 431 0026 0096     		str	r6, [sp, #0]
 432 0028 2D79     		ldrb	r5, [r5, #4]	@ zero_extendqisi2
 433              	.LVL49:
 434 002a 5021     		movs	r1, #80
 435 002c 0223     		movs	r3, #2
 436 002e 05AA     		add	r2, sp, #20
 437 0030 0195     		str	r5, [sp, #4]
 438 0032 2046     		mov	r0, r4
 439 0034 4FF0FF35 		mov	r5, #-1
 440 0038 0295     		str	r5, [sp, #8]
 441 003a FFF7FEFF 		bl	i2cMasterTransmitTimeout
 442 003e 0546     		mov	r5, r0
 443              	.LVL50:
 444              		.loc 2 93 0
 445 0040 2046     		mov	r0, r4
 446              	.LVL51:
 447 0042 FFF7FEFF 		bl	i2cReleaseBus
 448              		.loc 2 100 0
 449 0046 281E     		subs	r0, r5, #0
ARM GAS  C:\Users\DNIEL~1\AppData\Local\Temp\cc02LuPk.s 			page 9


 450 0048 18BF     		it	ne
 451 004a 0120     		movne	r0, #1
 452 004c 06B0     		add	sp, sp, #24
 453 004e 70BD     		pop	{r4, r5, r6, pc}
 454              	.L49:
 455              		.align	2
 456              	.L48:
 457 0050 00000000 		.word	I2CD1
 458              		.cfi_endproc
 459              	.LFE122:
 460              		.size	eepromRead, .-eepromRead
 461 0054 AFF30080 		.section	.text.cmd_eepromTest,"ax",%progbits
 461      AFF30080 
 461      AFF30080 
 462              		.align	2
 463              		.p2align 4,,15
 464              		.global	cmd_eepromTest
 465              		.thumb
 466              		.thumb_func
 467              		.type	cmd_eepromTest, %function
 468              	cmd_eepromTest:
 469              	.LFB123:
 470              		.loc 2 102 0
 471              		.cfi_startproc
 472              		@ args = 0, pretend = 0, frame = 8
 473              		@ frame_needed = 0, uses_anonymous_args = 0
 474              	.LVL52:
 475 0000 10B5     		push	{r4, lr}
 476              	.LCFI7:
 477              		.cfi_def_cfa_offset 8
 478 0002 82B0     		sub	sp, sp, #8
 479              	.LCFI8:
 480              		.cfi_def_cfa_offset 16
 481              		.loc 2 107 0
 482 0004 0023     		movs	r3, #0
 483              		.loc 2 102 0
 484 0006 0446     		mov	r4, r0
 485              		.cfi_offset 14, -4
 486              		.cfi_offset 4, -8
 487              		.loc 2 109 0
 488 0008 1949     		ldr	r1, .L54
 489              	.LVL53:
 490              		.loc 2 107 0
 491 000a 0193     		str	r3, [sp, #4]
 492              	.LVL54:
 493              		.loc 2 109 0
 494 000c FFF7FEFF 		bl	chprintf
 495              	.LVL55:
 496              		.loc 2 110 0
 497 0010 2046     		mov	r0, r4
 498 0012 1849     		ldr	r1, .L54+4
 499 0014 FFF7FEFF 		bl	chprintf
 500              		.loc 2 112 0
 501 0018 2046     		mov	r0, r4
 502 001a 1749     		ldr	r1, .L54+8
 503 001c 1022     		movs	r2, #16
 504 001e 4FF44E73 		mov	r3, #824
ARM GAS  C:\Users\DNIEL~1\AppData\Local\Temp\cc02LuPk.s 			page 10


 505 0022 FFF7FEFF 		bl	chprintf
 506              		.loc 2 115 0
 507 0026 0720     		movs	r0, #7
 508 0028 4FF44E71 		mov	r1, #824
 509 002c FFF7FEFF 		bl	eepromWrite
 510 0030 C0B9     		cbnz	r0, .L53
 511              	.L51:
 512              		.loc 2 119 0
 513 0032 1249     		ldr	r1, .L54+12
 514 0034 2046     		mov	r0, r4
 515 0036 FFF7FEFF 		bl	chprintf
 516              		.loc 2 120 0
 517 003a 2046     		mov	r0, r4
 518 003c 1049     		ldr	r1, .L54+16
 519 003e FFF7FEFF 		bl	chprintf
 520              		.loc 2 122 0
 521 0042 0720     		movs	r0, #7
 522 0044 01A9     		add	r1, sp, #4
 523 0046 FFF7FEFF 		bl	eepromRead
 524 004a 18B1     		cbz	r0, .L52
 525              		.loc 2 123 0
 526 004c 2046     		mov	r0, r4
 527 004e 0D49     		ldr	r1, .L54+20
 528 0050 FFF7FEFF 		bl	chprintf
 529              	.L52:
 530              		.loc 2 125 0
 531 0054 2046     		mov	r0, r4
 532 0056 0C49     		ldr	r1, .L54+24
 533 0058 019B     		ldr	r3, [sp, #4]
 534 005a 1022     		movs	r2, #16
 535 005c FFF7FEFF 		bl	chprintf
 536              		.loc 2 126 0
 537 0060 02B0     		add	sp, sp, #8
 538 0062 10BD     		pop	{r4, pc}
 539              	.L53:
 540              		.loc 2 116 0
 541 0064 2046     		mov	r0, r4
 542 0066 0949     		ldr	r1, .L54+28
 543 0068 FFF7FEFF 		bl	chprintf
 544 006c E1E7     		b	.L51
 545              	.L55:
 546 006e 00BF     		.align	2
 547              	.L54:
 548 0070 00000000 		.word	.LC0
 549 0074 04000000 		.word	.LC1
 550 0078 0C000000 		.word	.LC2
 551 007c 58000000 		.word	.LC4
 552 0080 78000000 		.word	.LC5
 553 0084 90000000 		.word	.LC6
 554 0088 A8000000 		.word	.LC7
 555 008c 40000000 		.word	.LC3
 556              		.cfi_endproc
 557              	.LFE123:
 558              		.size	cmd_eepromTest, .-cmd_eepromTest
 559              		.section	.text.cmd_eepromAllData,"ax",%progbits
 560              		.align	2
 561              		.p2align 4,,15
ARM GAS  C:\Users\DNIEL~1\AppData\Local\Temp\cc02LuPk.s 			page 11


 562              		.global	cmd_eepromAllData
 563              		.thumb
 564              		.thumb_func
 565              		.type	cmd_eepromAllData, %function
 566              	cmd_eepromAllData:
 567              	.LFB124:
 568              		.loc 2 128 0
 569              		.cfi_startproc
 570              		@ args = 0, pretend = 0, frame = 8
 571              		@ frame_needed = 0, uses_anonymous_args = 0
 572              	.LVL56:
 573 0000 F0B5     		push	{r4, r5, r6, r7, lr}
 574              	.LCFI9:
 575              		.cfi_def_cfa_offset 20
 576 0002 83B0     		sub	sp, sp, #12
 577              	.LCFI10:
 578              		.cfi_def_cfa_offset 32
 579              		.loc 2 130 0
 580 0004 02AD     		add	r5, sp, #8
 581              		.cfi_offset 14, -4
 582              		.cfi_offset 7, -8
 583              		.cfi_offset 6, -12
 584              		.cfi_offset 5, -16
 585              		.cfi_offset 4, -20
 586 0006 0026     		movs	r6, #0
 587              		.loc 2 128 0
 588 0008 0446     		mov	r4, r0
 589              		.loc 2 130 0
 590 000a 45F8046D 		str	r6, [r5, #-4]!
 591              	.LVL57:
 592              		.loc 2 145 0
 593 000e 7349     		ldr	r1, .L80
 594              	.LVL58:
 595 0010 FFF7FEFF 		bl	chprintf
 596              	.LVL59:
 597              		.loc 2 146 0
 598 0014 2046     		mov	r0, r4
 599 0016 7249     		ldr	r1, .L80+4
 600 0018 FFF7FEFF 		bl	chprintf
 601              		.loc 2 148 0
 602 001c 3246     		mov	r2, r6
 603 001e 3346     		mov	r3, r6
 604 0020 2046     		mov	r0, r4
 605 0022 7049     		ldr	r1, .L80+8
 606 0024 FFF7FEFF 		bl	chprintf
 607              	.LVL60:
 608              		.loc 2 152 0
 609 0028 3046     		mov	r0, r6
 610 002a 2946     		mov	r1, r5
 611 002c FFF7FEFF 		bl	eepromRead
 612 0030 0646     		mov	r6, r0
 613 0032 0028     		cmp	r0, #0
 614 0034 71D1     		bne	.L57
 615              		.loc 2 157 0
 616 0036 2046     		mov	r0, r4
 617 0038 6B49     		ldr	r1, .L80+12
 618 003a 6C4A     		ldr	r2, .L80+16
ARM GAS  C:\Users\DNIEL~1\AppData\Local\Temp\cc02LuPk.s 			page 12


 619 003c 019B     		ldr	r3, [sp, #4]
 620 003e FFF7FEFF 		bl	chprintf
 621              		.loc 2 152 0
 622 0042 0120     		movs	r0, #1
 623 0044 2946     		mov	r1, r5
 624              		.loc 2 158 0
 625 0046 0196     		str	r6, [sp, #4]
 626              	.LVL61:
 627              		.loc 2 152 0
 628 0048 FFF7FEFF 		bl	eepromRead
 629 004c 0646     		mov	r6, r0
 630 004e 0028     		cmp	r0, #0
 631 0050 6FD1     		bne	.L59
 632              	.L73:
 633              		.loc 2 157 0
 634 0052 2046     		mov	r0, r4
 635 0054 6449     		ldr	r1, .L80+12
 636 0056 664A     		ldr	r2, .L80+20
 637 0058 019B     		ldr	r3, [sp, #4]
 638 005a FFF7FEFF 		bl	chprintf
 639              		.loc 2 152 0
 640 005e 0220     		movs	r0, #2
 641 0060 2946     		mov	r1, r5
 642              		.loc 2 158 0
 643 0062 0196     		str	r6, [sp, #4]
 644              	.LVL62:
 645              		.loc 2 152 0
 646 0064 FFF7FEFF 		bl	eepromRead
 647 0068 0646     		mov	r6, r0
 648 006a 0028     		cmp	r0, #0
 649 006c 6DD1     		bne	.L61
 650              	.L74:
 651              		.loc 2 157 0
 652 006e 2046     		mov	r0, r4
 653 0070 5D49     		ldr	r1, .L80+12
 654 0072 604A     		ldr	r2, .L80+24
 655 0074 019B     		ldr	r3, [sp, #4]
 656 0076 FFF7FEFF 		bl	chprintf
 657              		.loc 2 152 0
 658 007a 0320     		movs	r0, #3
 659 007c 2946     		mov	r1, r5
 660              		.loc 2 158 0
 661 007e 0196     		str	r6, [sp, #4]
 662              	.LVL63:
 663              		.loc 2 152 0
 664 0080 FFF7FEFF 		bl	eepromRead
 665 0084 0646     		mov	r6, r0
 666 0086 0028     		cmp	r0, #0
 667 0088 6BD1     		bne	.L63
 668              	.L75:
 669              		.loc 2 157 0
 670 008a 2046     		mov	r0, r4
 671 008c 5649     		ldr	r1, .L80+12
 672 008e 5A4A     		ldr	r2, .L80+28
 673 0090 019B     		ldr	r3, [sp, #4]
 674 0092 FFF7FEFF 		bl	chprintf
 675              		.loc 2 152 0
ARM GAS  C:\Users\DNIEL~1\AppData\Local\Temp\cc02LuPk.s 			page 13


 676 0096 0420     		movs	r0, #4
 677 0098 2946     		mov	r1, r5
 678              		.loc 2 158 0
 679 009a 0196     		str	r6, [sp, #4]
 680              	.LVL64:
 681              		.loc 2 152 0
 682 009c FFF7FEFF 		bl	eepromRead
 683 00a0 0646     		mov	r6, r0
 684 00a2 0028     		cmp	r0, #0
 685 00a4 69D1     		bne	.L65
 686              	.L76:
 687              		.loc 2 157 0
 688 00a6 2046     		mov	r0, r4
 689 00a8 4F49     		ldr	r1, .L80+12
 690 00aa 544A     		ldr	r2, .L80+32
 691 00ac 019B     		ldr	r3, [sp, #4]
 692 00ae FFF7FEFF 		bl	chprintf
 693              		.loc 2 152 0
 694 00b2 0520     		movs	r0, #5
 695 00b4 2946     		mov	r1, r5
 696              		.loc 2 158 0
 697 00b6 0196     		str	r6, [sp, #4]
 698              	.LVL65:
 699              		.loc 2 152 0
 700 00b8 FFF7FEFF 		bl	eepromRead
 701 00bc 0646     		mov	r6, r0
 702 00be 0028     		cmp	r0, #0
 703 00c0 67D1     		bne	.L67
 704              	.L77:
 705              		.loc 2 157 0
 706 00c2 2046     		mov	r0, r4
 707 00c4 4849     		ldr	r1, .L80+12
 708 00c6 4E4A     		ldr	r2, .L80+36
 709 00c8 019B     		ldr	r3, [sp, #4]
 710 00ca FFF7FEFF 		bl	chprintf
 711              		.loc 2 152 0
 712 00ce 0620     		movs	r0, #6
 713 00d0 2946     		mov	r1, r5
 714              		.loc 2 158 0
 715 00d2 0196     		str	r6, [sp, #4]
 716              	.LVL66:
 717              		.loc 2 152 0
 718 00d4 FFF7FEFF 		bl	eepromRead
 719 00d8 0746     		mov	r7, r0
 720 00da 0028     		cmp	r0, #0
 721 00dc 65D1     		bne	.L69
 722              	.L78:
 723              		.loc 2 157 0
 724 00de 494E     		ldr	r6, .L80+40
 725 00e0 019B     		ldr	r3, [sp, #4]
 726 00e2 B269     		ldr	r2, [r6, #24]
 727 00e4 4049     		ldr	r1, .L80+12
 728 00e6 2046     		mov	r0, r4
 729 00e8 FFF7FEFF 		bl	chprintf
 730              		.loc 2 163 0
 731 00ec 2046     		mov	r0, r4
 732 00ee 4649     		ldr	r1, .L80+44
ARM GAS  C:\Users\DNIEL~1\AppData\Local\Temp\cc02LuPk.s 			page 14


 733              		.loc 2 158 0
 734 00f0 0197     		str	r7, [sp, #4]
 735              		.loc 2 163 0
 736 00f2 FFF7FEFF 		bl	chprintf
 737              	.LVL67:
 738              		.loc 2 152 0
 739 00f6 2946     		mov	r1, r5
 740 00f8 0720     		movs	r0, #7
 741 00fa FFF7FEFF 		bl	eepromRead
 742 00fe 0546     		mov	r5, r0
 743 0100 0028     		cmp	r0, #0
 744 0102 63D0     		beq	.L71
 745              	.L79:
 746              		.loc 2 153 0
 747 0104 2046     		mov	r0, r4
 748 0106 4149     		ldr	r1, .L80+48
 749 0108 F269     		ldr	r2, [r6, #28]
 750 010a FFF7FEFF 		bl	chprintf
 751              	.L72:
 752              		.loc 2 163 0
 753 010e 2046     		mov	r0, r4
 754 0110 3D49     		ldr	r1, .L80+44
 755 0112 FFF7FEFF 		bl	chprintf
 756              	.LVL68:
 757              		.loc 2 166 0
 758 0116 03B0     		add	sp, sp, #12
 759 0118 F0BD     		pop	{r4, r5, r6, r7, pc}
 760              	.LVL69:
 761              	.L57:
 762              		.loc 2 153 0
 763 011a 2046     		mov	r0, r4
 764 011c 3B49     		ldr	r1, .L80+48
 765 011e 334A     		ldr	r2, .L80+16
 766 0120 FFF7FEFF 		bl	chprintf
 767              	.LVL70:
 768              		.loc 2 152 0
 769 0124 0120     		movs	r0, #1
 770 0126 2946     		mov	r1, r5
 771 0128 FFF7FEFF 		bl	eepromRead
 772 012c 0646     		mov	r6, r0
 773 012e 0028     		cmp	r0, #0
 774 0130 8FD0     		beq	.L73
 775              	.L59:
 776              		.loc 2 153 0
 777 0132 2046     		mov	r0, r4
 778 0134 3549     		ldr	r1, .L80+48
 779 0136 2E4A     		ldr	r2, .L80+20
 780 0138 FFF7FEFF 		bl	chprintf
 781              	.LVL71:
 782              		.loc 2 152 0
 783 013c 0220     		movs	r0, #2
 784 013e 2946     		mov	r1, r5
 785 0140 FFF7FEFF 		bl	eepromRead
 786 0144 0646     		mov	r6, r0
 787 0146 0028     		cmp	r0, #0
 788 0148 91D0     		beq	.L74
 789              	.L61:
ARM GAS  C:\Users\DNIEL~1\AppData\Local\Temp\cc02LuPk.s 			page 15


 790              		.loc 2 153 0
 791 014a 2046     		mov	r0, r4
 792 014c 2F49     		ldr	r1, .L80+48
 793 014e 294A     		ldr	r2, .L80+24
 794 0150 FFF7FEFF 		bl	chprintf
 795              	.LVL72:
 796              		.loc 2 152 0
 797 0154 0320     		movs	r0, #3
 798 0156 2946     		mov	r1, r5
 799 0158 FFF7FEFF 		bl	eepromRead
 800 015c 0646     		mov	r6, r0
 801 015e 0028     		cmp	r0, #0
 802 0160 93D0     		beq	.L75
 803              	.L63:
 804              		.loc 2 153 0
 805 0162 2046     		mov	r0, r4
 806 0164 2949     		ldr	r1, .L80+48
 807 0166 244A     		ldr	r2, .L80+28
 808 0168 FFF7FEFF 		bl	chprintf
 809              	.LVL73:
 810              		.loc 2 152 0
 811 016c 0420     		movs	r0, #4
 812 016e 2946     		mov	r1, r5
 813 0170 FFF7FEFF 		bl	eepromRead
 814 0174 0646     		mov	r6, r0
 815 0176 0028     		cmp	r0, #0
 816 0178 95D0     		beq	.L76
 817              	.L65:
 818              		.loc 2 153 0
 819 017a 2046     		mov	r0, r4
 820 017c 2349     		ldr	r1, .L80+48
 821 017e 1F4A     		ldr	r2, .L80+32
 822 0180 FFF7FEFF 		bl	chprintf
 823              	.LVL74:
 824              		.loc 2 152 0
 825 0184 0520     		movs	r0, #5
 826 0186 2946     		mov	r1, r5
 827 0188 FFF7FEFF 		bl	eepromRead
 828 018c 0646     		mov	r6, r0
 829 018e 0028     		cmp	r0, #0
 830 0190 97D0     		beq	.L77
 831              	.L67:
 832              		.loc 2 153 0
 833 0192 2046     		mov	r0, r4
 834 0194 1D49     		ldr	r1, .L80+48
 835 0196 1A4A     		ldr	r2, .L80+36
 836 0198 FFF7FEFF 		bl	chprintf
 837              	.LVL75:
 838              		.loc 2 152 0
 839 019c 0620     		movs	r0, #6
 840 019e 2946     		mov	r1, r5
 841 01a0 FFF7FEFF 		bl	eepromRead
 842 01a4 0746     		mov	r7, r0
 843 01a6 0028     		cmp	r0, #0
 844 01a8 99D0     		beq	.L78
 845              	.L69:
 846              		.loc 2 153 0
ARM GAS  C:\Users\DNIEL~1\AppData\Local\Temp\cc02LuPk.s 			page 16


 847 01aa 164E     		ldr	r6, .L80+40
 848 01ac 1749     		ldr	r1, .L80+48
 849 01ae B269     		ldr	r2, [r6, #24]
 850 01b0 2046     		mov	r0, r4
 851 01b2 FFF7FEFF 		bl	chprintf
 852              		.loc 2 163 0
 853 01b6 2046     		mov	r0, r4
 854 01b8 1349     		ldr	r1, .L80+44
 855 01ba FFF7FEFF 		bl	chprintf
 856              	.LVL76:
 857              		.loc 2 152 0
 858 01be 2946     		mov	r1, r5
 859 01c0 0720     		movs	r0, #7
 860 01c2 FFF7FEFF 		bl	eepromRead
 861 01c6 0546     		mov	r5, r0
 862 01c8 0028     		cmp	r0, #0
 863 01ca 9BD1     		bne	.L79
 864              	.L71:
 865              		.loc 2 157 0
 866 01cc 2046     		mov	r0, r4
 867 01ce 0649     		ldr	r1, .L80+12
 868 01d0 F269     		ldr	r2, [r6, #28]
 869 01d2 019B     		ldr	r3, [sp, #4]
 870 01d4 FFF7FEFF 		bl	chprintf
 871              		.loc 2 158 0
 872 01d8 0195     		str	r5, [sp, #4]
 873              	.LVL77:
 874 01da 98E7     		b	.L72
 875              	.L81:
 876              		.align	2
 877              	.L80:
 878 01dc 00000000 		.word	.LC0
 879 01e0 04000000 		.word	.LC1
 880 01e4 C8000000 		.word	.LC8
 881 01e8 D4000000 		.word	.LC9
 882 01ec E4000000 		.word	.LC10
 883 01f0 0C010000 		.word	.LC12
 884 01f4 1C010000 		.word	.LC13
 885 01f8 2C010000 		.word	.LC14
 886 01fc 3C010000 		.word	.LC15
 887 0200 4C010000 		.word	.LC16
 888 0204 00000000 		.word	.LANCHOR2
 889 0208 58010000 		.word	.LC17
 890 020c F4000000 		.word	.LC11
 891              		.cfi_endproc
 892              	.LFE124:
 893              		.size	cmd_eepromAllData, .-cmd_eepromAllData
 894              		.section	.rodata.str1.4,"aMS",%progbits,1
 895              		.align	2
 896              	.LC0:
 897 0000 1B6300   		.ascii	"\033c\000"
 898 0003 00       		.space	1
 899              	.LC1:
 900 0004 1B5B324A 		.ascii	"\033[2J\000"
 900      00
 901 0009 000000   		.space	3
 902              	.LC2:
ARM GAS  C:\Users\DNIEL~1\AppData\Local\Temp\cc02LuPk.s 			page 17


 903 000c 45455052 		.ascii	"EEPROM write test !\015\012Address: 0x%02x, Value: "
 903      4F4D2077 
 903      72697465 
 903      20746573 
 903      7420210D 
 904 0039 25326400 		.ascii	"%2d\000"
 905 003d 000000   		.space	3
 906              	.LC3:
 907 0040 45455052 		.ascii	"EEPROM write error! \015\012\000"
 907      4F4D2077 
 907      72697465 
 907      20657272 
 907      6F722120 
 908 0057 00       		.space	1
 909              	.LC4:
 910 0058 0D0A2D2D 		.ascii	"\015\012----------------------- \015\012\000"
 910      2D2D2D2D 
 910      2D2D2D2D 
 910      2D2D2D2D 
 910      2D2D2D2D 
 911 0075 000000   		.space	3
 912              	.LC5:
 913 0078 45455052 		.ascii	"EEPROM read test ! \015\012\000"
 913      4F4D2072 
 913      65616420 
 913      74657374 
 913      2021200D 
 914 008e 0000     		.space	2
 915              	.LC6:
 916 0090 45455052 		.ascii	"EEPROM read error! \015\012\000"
 916      4F4D2072 
 916      65616420 
 916      6572726F 
 916      7221200D 
 917 00a6 0000     		.space	2
 918              	.LC7:
 919 00a8 41646472 		.ascii	"Address: 0x%02x, value: %2d\015\012\000"
 919      6573733A 
 919      20307825 
 919      3032782C 
 919      2076616C 
 920 00c6 0000     		.space	2
 921              	.LC8:
 922 00c8 1B5B2564 		.ascii	"\033[%d;%dH\000"
 922      3B256448 
 922      00
 923 00d1 000000   		.space	3
 924              	.LC9:
 925 00d4 25323073 		.ascii	"%20s: %15d\015\012\000"
 925      3A202531 
 925      35640D0A 
 925      00
 926 00e1 000000   		.space	3
 927              	.LC10:
 928 00e4 43525549 		.ascii	"CRUISE_CONTROLL\000"
 928      53455F43 
 928      4F4E5452 
ARM GAS  C:\Users\DNIEL~1\AppData\Local\Temp\cc02LuPk.s 			page 18


 928      4F4C4C00 
 929              	.LC11:
 930 00f4 25732045 		.ascii	"%s EEPROM read error!\015\012\000"
 930      4550524F 
 930      4D207265 
 930      61642065 
 930      72726F72 
 931              	.LC12:
 932 010c 4D494E5F 		.ascii	"MIN_THROTTLE\000"
 932      5448524F 
 932      54544C45 
 932      00
 933 0119 000000   		.space	3
 934              	.LC13:
 935 011c 4D41585F 		.ascii	"MAX_THROTTLE\000"
 935      5448524F 
 935      54544C45 
 935      00
 936 0129 000000   		.space	3
 937              	.LC14:
 938 012c 4D494E5F 		.ascii	"MIN_REGEN_BRAKE\000"
 938      52454745 
 938      4E5F4252 
 938      414B4500 
 939              	.LC15:
 940 013c 4D41585F 		.ascii	"MAX_REGEN_BRAKE\000"
 940      52454745 
 940      4E5F4252 
 940      414B4500 
 941              	.LC16:
 942 014c 4C415354 		.ascii	"LAST_ITEM\000"
 942      5F495445 
 942      4D00
 943 0156 0000     		.space	2
 944              	.LC17:
 945 0158 0D0A00   		.ascii	"\015\012\000"
 946 015b 00       		.section	.data.eepromitems,"aw",%progbits
 947              		.align	2
 948              		.set	.LANCHOR1,. + 0
 949              		.type	eepromitems, %object
 950              		.size	eepromitems, 48
 951              	eepromitems:
 952 0000 1000     		.short	16
 953 0002 1000     		.short	16
 954 0004 04       		.byte	4
 955 0005 00       		.byte	0
 956 0006 1100     		.short	17
 957 0008 1400     		.short	20
 958 000a 04       		.byte	4
 959 000b 01       		.byte	1
 960 000c 1200     		.short	18
 961 000e 1800     		.short	24
 962 0010 04       		.byte	4
 963 0011 02       		.byte	2
 964 0012 1300     		.short	19
 965 0014 1C00     		.short	28
 966 0016 04       		.byte	4
ARM GAS  C:\Users\DNIEL~1\AppData\Local\Temp\cc02LuPk.s 			page 19


 967 0017 03       		.byte	3
 968 0018 1400     		.short	20
 969 001a 2000     		.short	32
 970 001c 04       		.byte	4
 971 001d 04       		.byte	4
 972 001e 1500     		.short	21
 973 0020 2400     		.short	36
 974 0022 04       		.byte	4
 975 0023 05       		.byte	5
 976 0024 1600     		.short	22
 977 0026 2800     		.short	40
 978 0028 04       		.byte	4
 979 0029 06       		.byte	6
 980 002a FBFF     		.short	-5
 981 002c FBFF     		.short	-5
 982 002e 04       		.byte	4
 983 002f 07       		.byte	7
 984              		.section	.rodata.i2ccfg,"a",%progbits
 985              		.align	2
 986              		.set	.LANCHOR0,. + 0
 987              		.type	i2ccfg, %object
 988              		.size	i2ccfg, 12
 989              	i2ccfg:
 990 0000 01       		.byte	1
 991 0001 000000   		.space	3
 992 0004 801A0600 		.word	400000
 993 0008 02       		.byte	2
 994 0009 000000   		.space	3
 995              		.section	.rodata.names.8307,"a",%progbits
 996              		.align	2
 997              		.set	.LANCHOR2,. + 0
 998              		.type	names.8307, %object
 999              		.size	names.8307, 24
 1000              	names.8307:
 1001 0000 E4000000 		.word	.LC10
 1002 0004 0C010000 		.word	.LC12
 1003 0008 1C010000 		.word	.LC13
 1004 000c 2C010000 		.word	.LC14
 1005 0010 3C010000 		.word	.LC15
 1006 0014 4C010000 		.word	.LC16
 1007              		.text
 1008              	.Letext0: