ARM GAS  C:\Users\DNIEL~1\AppData\Local\Temp\cc3FOZrA.s 			page 1


   1              		.syntax unified
   2              		.cpu cortex-m4
   3              		.fpu softvfp
   4              		.eabi_attribute 20, 1
   5              		.eabi_attribute 21, 1
   6              		.eabi_attribute 23, 3
   7              		.eabi_attribute 24, 1
   8              		.eabi_attribute 25, 1
   9              		.eabi_attribute 26, 1
  10              		.eabi_attribute 30, 2
  11              		.eabi_attribute 18, 4
  12              		.thumb
  13              		.file	"evtimer.c"
  20 0000 C7010000 		.text
  20      02007401 
  20      00000201 
  20      FB0E0D00 
  20      01010101 
  21              	.Ltext0:
  22              		.cfi_sections	.debug_frame
  23              		.section	.text.tmrcb,"ax",%progbits
  24              		.align	2
  25              		.p2align 4,,15
  26              		.thumb
  27              		.thumb_func
  28              		.type	tmrcb, %function
  29              	tmrcb:
  30              	.LFB7:
  31              		.file 1 "../../../ChibiOS/os/various/evtimer.c"
  32              		.loc 1 28 0
  33              		.cfi_startproc
  34              		@ args = 0, pretend = 0, frame = 0
  35              		@ frame_needed = 0, uses_anonymous_args = 0
  36              	.LVL0:
  37 0000 10B5     		push	{r4, lr}
  38              	.LCFI0:
  39              		.cfi_def_cfa_offset 8
  40              	.LBB2:
  41              		.loc 1 31 0
  42 0002 2023     		movs	r3, #32
  43              	.LVL1:
  44              	.LBE2:
  45              		.loc 1 28 0
  46 0004 0446     		mov	r4, r0
  47              		.cfi_offset 14, -4
  48              		.cfi_offset 4, -8
  49              	.LVL2:
  50              	.LBB3:
  51              		.loc 1 31 0
  52              	@ 31 "../../../ChibiOS/os/various/evtimer.c" 1
  53 0006 83F31188 		msr     BASEPRI, r3
ARM GAS  C:\Users\DNIEL~1\AppData\Local\Temp\cc3FOZrA.s 			page 2


  54              	@ 0 "" 2
  55              	.LVL3:
  56              		.thumb
  57              	.LBE3:
  58              		.loc 1 32 0
  59 000a 0021     		movs	r1, #0
  60 000c 1430     		adds	r0, r0, #20
  61              	.LVL4:
  62 000e FFF7FEFF 		bl	chEvtBroadcastFlagsI
  63              	.LVL5:
  64              		.loc 1 33 0
  65 0012 2346     		mov	r3, r4
  66 0014 2046     		mov	r0, r4
  67 0016 A169     		ldr	r1, [r4, #24]
  68 0018 034A     		ldr	r2, .L2
  69 001a FFF7FEFF 		bl	chVTSetI
  70              	.LBB4:
  71              		.loc 1 34 0
  72 001e 0023     		movs	r3, #0
  73              	.LVL6:
  74              	@ 34 "../../../ChibiOS/os/various/evtimer.c" 1
  75 0020 83F31188 		msr     BASEPRI, r3
  76              	@ 0 "" 2
  77              	.LVL7:
  78              		.thumb
  79              	.LBE4:
  80              		.loc 1 35 0
  81 0024 10BD     		pop	{r4, pc}
  82              	.L3:
  83 0026 00BF     		.align	2
  84              	.L2:
  85 0028 00000000 		.word	tmrcb
  86              		.cfi_endproc
  87              	.LFE7:
  88              		.size	tmrcb, .-tmrcb
  89 002c AFF30080 		.section	.text.evtStart,"ax",%progbits
  90              		.align	2
  91              		.p2align 4,,15
  92              		.global	evtStart
  93              		.thumb
  94              		.thumb_func
  95              		.type	evtStart, %function
  96              	evtStart:
  97              	.LFB8:
  98              		.loc 1 43 0
  99              		.cfi_startproc
 100              		@ args = 0, pretend = 0, frame = 0
 101              		@ frame_needed = 0, uses_anonymous_args = 0
 102              	.LVL8:
 103 0000 10B5     		push	{r4, lr}
 104              	.LCFI1:
 105              		.cfi_def_cfa_offset 8
 106              	.LBB5:
 107              		.loc 1 45 0
 108 0002 2023     		movs	r3, #32
 109              	.LVL9:
 110              	@ 45 "../../../ChibiOS/os/various/evtimer.c" 1
ARM GAS  C:\Users\DNIEL~1\AppData\Local\Temp\cc3FOZrA.s 			page 3


 111 0004 83F31188 		msr     BASEPRI, r3
 112              	@ 0 "" 2
 113              	.LVL10:
 114              		.thumb
 115              	.LBE5:
 116              		.loc 1 47 0
 117 0008 C368     		ldr	r3, [r0, #12]
 118              	.LVL11:
 119 000a 1BB1     		cbz	r3, .L7
 120              		.cfi_offset 14, -4
 121              		.cfi_offset 4, -8
 122              	.LBB6:
 123              		.loc 1 50 0
 124 000c 0023     		movs	r3, #0
 125              	.LVL12:
 126              	@ 50 "../../../ChibiOS/os/various/evtimer.c" 1
 127 000e 83F31188 		msr     BASEPRI, r3
 128              	@ 0 "" 2
 129              	.LVL13:
 130              		.thumb
 131              	.LBE6:
 132              		.loc 1 51 0
 133 0012 10BD     		pop	{r4, pc}
 134              	.LVL14:
 135              	.L7:
 136              		.loc 1 48 0
 137 0014 0346     		mov	r3, r0
 138 0016 8169     		ldr	r1, [r0, #24]
 139 0018 034A     		ldr	r2, .L8
 140 001a FFF7FEFF 		bl	chVTSetI
 141              	.LVL15:
 142              	.LBB7:
 143              		.loc 1 50 0
 144 001e 0023     		movs	r3, #0
 145              	@ 50 "../../../ChibiOS/os/various/evtimer.c" 1
 146 0020 83F31188 		msr     BASEPRI, r3
 147              	@ 0 "" 2
 148              	.LVL16:
 149              		.thumb
 150              	.LBE7:
 151              		.loc 1 51 0
 152 0024 10BD     		pop	{r4, pc}
 153              	.L9:
 154 0026 00BF     		.align	2
 155              	.L8:
 156 0028 00000000 		.word	tmrcb
 157              		.cfi_endproc
 158              	.LFE8:
 159              		.size	evtStart, .-evtStart
 160 002c AFF30080 		.section	.text.evtStop,"ax",%progbits
 161              		.align	2
 162              		.p2align 4,,15
 163              		.global	evtStop
 164              		.thumb
 165              		.thumb_func
 166              		.type	evtStop, %function
 167              	evtStop:
ARM GAS  C:\Users\DNIEL~1\AppData\Local\Temp\cc3FOZrA.s 			page 4


 168              	.LFB9:
 169              		.loc 1 59 0
 170              		.cfi_startproc
 171              		@ args = 0, pretend = 0, frame = 0
 172              		@ frame_needed = 0, uses_anonymous_args = 0
 173              	.LVL17:
 174 0000 08B5     		push	{r3, lr}
 175              	.LCFI2:
 176              		.cfi_def_cfa_offset 8
 177              	.LBB8:
 178              		.loc 1 61 0
 179 0002 2023     		movs	r3, #32
 180              		.cfi_offset 14, -4
 181              		.cfi_offset 3, -8
 182              	.LVL18:
 183              	@ 61 "../../../ChibiOS/os/various/evtimer.c" 1
 184 0004 83F31188 		msr     BASEPRI, r3
 185              	@ 0 "" 2
 186              	.LVL19:
 187              		.thumb
 188              	.LBE8:
 189 0008 C368     		ldr	r3, [r0, #12]
 190              	.LVL20:
 191 000a 0BB1     		cbz	r3, .L11
 192              		.loc 1 61 0 is_stmt 0 discriminator 1
 193 000c FFF7FEFF 		bl	chVTResetI
 194              	.LVL21:
 195              	.L11:
 196              	.LBB9:
 197              		.loc 1 61 0 discriminator 2
 198 0010 0023     		movs	r3, #0
 199              	.LVL22:
 200              	@ 61 "../../../ChibiOS/os/various/evtimer.c" 1
 201 0012 83F31188 		msr     BASEPRI, r3
 202              	@ 0 "" 2
 203              	.LVL23:
 204              		.thumb
 205              	.LBE9:
 206              		.loc 1 62 0 is_stmt 1 discriminator 2
 207 0016 08BD     		pop	{r3, pc}
 208              		.cfi_endproc
 209              	.LFE9:
 210              		.size	evtStop, .-evtStop
 211 0018 AFF30080 		.text
 211      AFF30080 
 212              	.Letext0: