ARM GAS  C:\Users\DNIEL~1\AppData\Local\Temp\cc3FOZrA.s 			page 1


   1              		.syntax unified
   2              		.cpu cortex-m4
   3              		.fpu softvfp
   4              		.eabi_attribute 20, 1
   5              		.eabi_attribute 21, 1
   6              		.eabi_attribute 23, 3
   7              		.eabi_attribute 24, 1
   8              		.eabi_attribute 25, 1
   9              		.eabi_attribute 26, 1
  10              		.eabi_attribute 30, 2
  11              		.eabi_attribute 18, 4
  12              		.thumb
  13              		.file	"evtimer.c"
  14              		.section	.debug_abbrev,"",%progbits
  15              	.Ldebug_abbrev0:
  16              		.section	.debug_info,"",%progbits
  17              	.Ldebug_info0:
  18              		.section	.debug_line,"",%progbits
  19              	.Ldebug_line0:
  20 0000 C7010000 		.text
  20      02007401 
  20      00000201 
  20      FB0E0D00 
  20      01010101 
  21              	.Ltext0:
  22              		.cfi_sections	.debug_frame
  23              		.section	.text.tmrcb,"ax",%progbits
  24              		.align	2
  25              		.p2align 4,,15
  26              		.thumb
  27              		.thumb_func
  28              		.type	tmrcb, %function
  29              	tmrcb:
  30              	.LFB7:
  31              		.file 1 "../../../ChibiOS/os/various/evtimer.c"
  32              		.loc 1 28 0
  33              		.cfi_startproc
  34              		@ args = 0, pretend = 0, frame = 0
  35              		@ frame_needed = 0, uses_anonymous_args = 0
  36              	.LVL0:
  37 0000 10B5     		push	{r4, lr}
  38              	.LCFI0:
  39              		.cfi_def_cfa_offset 8
  40              	.LBB2:
  41              		.loc 1 31 0
  42 0002 2023     		movs	r3, #32
  43              	.LVL1:
  44              	.LBE2:
  45              		.loc 1 28 0
  46 0004 0446     		mov	r4, r0
  47              		.cfi_offset 14, -4
  48              		.cfi_offset 4, -8
  49              	.LVL2:
  50              	.LBB3:
  51              		.loc 1 31 0
  52              	@ 31 "../../../ChibiOS/os/various/evtimer.c" 1
  53 0006 83F31188 		msr     BASEPRI, r3
ARM GAS  C:\Users\DNIEL~1\AppData\Local\Temp\cc3FOZrA.s 			page 2


  54              	@ 0 "" 2
  55              	.LVL3:
  56              		.thumb
  57              	.LBE3:
  58              		.loc 1 32 0
  59 000a 0021     		movs	r1, #0
  60 000c 1430     		adds	r0, r0, #20
  61              	.LVL4:
  62 000e FFF7FEFF 		bl	chEvtBroadcastFlagsI
  63              	.LVL5:
  64              		.loc 1 33 0
  65 0012 2346     		mov	r3, r4
  66 0014 2046     		mov	r0, r4
  67 0016 A169     		ldr	r1, [r4, #24]
  68 0018 034A     		ldr	r2, .L2
  69 001a FFF7FEFF 		bl	chVTSetI
  70              	.LBB4:
  71              		.loc 1 34 0
  72 001e 0023     		movs	r3, #0
  73              	.LVL6:
  74              	@ 34 "../../../ChibiOS/os/various/evtimer.c" 1
  75 0020 83F31188 		msr     BASEPRI, r3
  76              	@ 0 "" 2
  77              	.LVL7:
  78              		.thumb
  79              	.LBE4:
  80              		.loc 1 35 0
  81 0024 10BD     		pop	{r4, pc}
  82              	.L3:
  83 0026 00BF     		.align	2
  84              	.L2:
  85 0028 00000000 		.word	tmrcb
  86              		.cfi_endproc
  87              	.LFE7:
  88              		.size	tmrcb, .-tmrcb
  89 002c AFF30080 		.section	.text.evtStart,"ax",%progbits
  90              		.align	2
  91              		.p2align 4,,15
  92              		.global	evtStart
  93              		.thumb
  94              		.thumb_func
  95              		.type	evtStart, %function
  96              	evtStart:
  97              	.LFB8:
  98              		.loc 1 43 0
  99              		.cfi_startproc
 100              		@ args = 0, pretend = 0, frame = 0
 101              		@ frame_needed = 0, uses_anonymous_args = 0
 102              	.LVL8:
 103 0000 10B5     		push	{r4, lr}
 104              	.LCFI1:
 105              		.cfi_def_cfa_offset 8
 106              	.LBB5:
 107              		.loc 1 45 0
 108 0002 2023     		movs	r3, #32
 109              	.LVL9:
 110              	@ 45 "../../../ChibiOS/os/various/evtimer.c" 1
ARM GAS  C:\Users\DNIEL~1\AppData\Local\Temp\cc3FOZrA.s 			page 3


 111 0004 83F31188 		msr     BASEPRI, r3
 112              	@ 0 "" 2
 113              	.LVL10:
 114              		.thumb
 115              	.LBE5:
 116              		.loc 1 47 0
 117 0008 C368     		ldr	r3, [r0, #12]
 118              	.LVL11:
 119 000a 1BB1     		cbz	r3, .L7
 120              		.cfi_offset 14, -4
 121              		.cfi_offset 4, -8
 122              	.LBB6:
 123              		.loc 1 50 0
 124 000c 0023     		movs	r3, #0
 125              	.LVL12:
 126              	@ 50 "../../../ChibiOS/os/various/evtimer.c" 1
 127 000e 83F31188 		msr     BASEPRI, r3
 128              	@ 0 "" 2
 129              	.LVL13:
 130              		.thumb
 131              	.LBE6:
 132              		.loc 1 51 0
 133 0012 10BD     		pop	{r4, pc}
 134              	.LVL14:
 135              	.L7:
 136              		.loc 1 48 0
 137 0014 0346     		mov	r3, r0
 138 0016 8169     		ldr	r1, [r0, #24]
 139 0018 034A     		ldr	r2, .L8
 140 001a FFF7FEFF 		bl	chVTSetI
 141              	.LVL15:
 142              	.LBB7:
 143              		.loc 1 50 0
 144 001e 0023     		movs	r3, #0
 145              	@ 50 "../../../ChibiOS/os/various/evtimer.c" 1
 146 0020 83F31188 		msr     BASEPRI, r3
 147              	@ 0 "" 2
 148              	.LVL16:
 149              		.thumb
 150              	.LBE7:
 151              		.loc 1 51 0
 152 0024 10BD     		pop	{r4, pc}
 153              	.L9:
 154 0026 00BF     		.align	2
 155              	.L8:
 156 0028 00000000 		.word	tmrcb
 157              		.cfi_endproc
 158              	.LFE8:
 159              		.size	evtStart, .-evtStart
 160 002c AFF30080 		.section	.text.evtStop,"ax",%progbits
 161              		.align	2
 162              		.p2align 4,,15
 163              		.global	evtStop
 164              		.thumb
 165              		.thumb_func
 166              		.type	evtStop, %function
 167              	evtStop:
ARM GAS  C:\Users\DNIEL~1\AppData\Local\Temp\cc3FOZrA.s 			page 4


 168              	.LFB9:
 169              		.loc 1 59 0
 170              		.cfi_startproc
 171              		@ args = 0, pretend = 0, frame = 0
 172              		@ frame_needed = 0, uses_anonymous_args = 0
 173              	.LVL17:
 174 0000 08B5     		push	{r3, lr}
 175              	.LCFI2:
 176              		.cfi_def_cfa_offset 8
 177              	.LBB8:
 178              		.loc 1 61 0
 179 0002 2023     		movs	r3, #32
 180              		.cfi_offset 14, -4
 181              		.cfi_offset 3, -8
 182              	.LVL18:
 183              	@ 61 "../../../ChibiOS/os/various/evtimer.c" 1
 184 0004 83F31188 		msr     BASEPRI, r3
 185              	@ 0 "" 2
 186              	.LVL19:
 187              		.thumb
 188              	.LBE8:
 189 0008 C368     		ldr	r3, [r0, #12]
 190              	.LVL20:
 191 000a 0BB1     		cbz	r3, .L11
 192              		.loc 1 61 0 is_stmt 0 discriminator 1
 193 000c FFF7FEFF 		bl	chVTResetI
 194              	.LVL21:
 195              	.L11:
 196              	.LBB9:
 197              		.loc 1 61 0 discriminator 2
 198 0010 0023     		movs	r3, #0
 199              	.LVL22:
 200              	@ 61 "../../../ChibiOS/os/various/evtimer.c" 1
 201 0012 83F31188 		msr     BASEPRI, r3
 202              	@ 0 "" 2
 203              	.LVL23:
 204              		.thumb
 205              	.LBE9:
 206              		.loc 1 62 0 is_stmt 1 discriminator 2
 207 0016 08BD     		pop	{r3, pc}
 208              		.cfi_endproc
 209              	.LFE9:
 210              		.size	evtStop, .-evtStop
 211 0018 AFF30080 		.text
 211      AFF30080 
 212              	.Letext0:
 213              		.section	.debug_loc,"",%progbits
 214              	.Ldebug_loc0:
 215              	.LLST0:
 216 0000 00000000 		.4byte	.LFB7
 217 0004 02000000 		.4byte	.LCFI0
 218 0008 0200     		.2byte	0x2
 219 000a 7D       		.byte	0x7d
 220 000b 00       		.sleb128 0
 221 000c 02000000 		.4byte	.LCFI0
 222 0010 2C000000 		.4byte	.LFE7
 223 0014 0200     		.2byte	0x2
ARM GAS  C:\Users\DNIEL~1\AppData\Local\Temp\cc3FOZrA.s 			page 5


 224 0016 7D       		.byte	0x7d
 225 0017 08       		.sleb128 8
 226 0018 00000000 		.4byte	0x0
 227 001c 00000000 		.4byte	0x0
 228              	.LLST1:
 229 0020 00000000 		.4byte	.LVL0
 230 0024 0E000000 		.4byte	.LVL4
 231 0028 0100     		.2byte	0x1
 232 002a 50       		.byte	0x50
 233 002b 0E000000 		.4byte	.LVL4
 234 002f 2C000000 		.4byte	.LFE7
 235 0033 0100     		.2byte	0x1
 236 0035 54       		.byte	0x54
 237 0036 00000000 		.4byte	0x0
 238 003a 00000000 		.4byte	0x0
 239              	.LLST2:
 240 003e 06000000 		.4byte	.LVL2
 241 0042 0E000000 		.4byte	.LVL4
 242 0046 0100     		.2byte	0x1
 243 0048 50       		.byte	0x50
 244 0049 0E000000 		.4byte	.LVL4
 245 004d 2C000000 		.4byte	.LFE7
 246 0051 0100     		.2byte	0x1
 247 0053 54       		.byte	0x54
 248 0054 00000000 		.4byte	0x0
 249 0058 00000000 		.4byte	0x0
 250              	.LLST3:
 251 005c 0A000000 		.4byte	.LVL3
 252 0060 11000000 		.4byte	.LVL5-1
 253 0064 0100     		.2byte	0x1
 254 0066 53       		.byte	0x53
 255 0067 00000000 		.4byte	0x0
 256 006b 00000000 		.4byte	0x0
 257              	.LLST4:
 258 006f 24000000 		.4byte	.LVL7
 259 0073 2C000000 		.4byte	.LFE7
 260 0077 0100     		.2byte	0x1
 261 0079 53       		.byte	0x53
 262 007a 00000000 		.4byte	0x0
 263 007e 00000000 		.4byte	0x0
 264              	.LLST5:
 265 0082 00000000 		.4byte	.LFB8
 266 0086 02000000 		.4byte	.LCFI1
 267 008a 0200     		.2byte	0x2
 268 008c 7D       		.byte	0x7d
 269 008d 00       		.sleb128 0
 270 008e 02000000 		.4byte	.LCFI1
 271 0092 2C000000 		.4byte	.LFE8
 272 0096 0200     		.2byte	0x2
 273 0098 7D       		.byte	0x7d
 274 0099 08       		.sleb128 8
 275 009a 00000000 		.4byte	0x0
 276 009e 00000000 		.4byte	0x0
 277              	.LLST6:
 278 00a2 00000000 		.4byte	.LVL8
 279 00a6 1D000000 		.4byte	.LVL15-1
 280 00aa 0100     		.2byte	0x1
ARM GAS  C:\Users\DNIEL~1\AppData\Local\Temp\cc3FOZrA.s 			page 6


 281 00ac 50       		.byte	0x50
 282 00ad 00000000 		.4byte	0x0
 283 00b1 00000000 		.4byte	0x0
 284              	.LLST7:
 285 00b5 08000000 		.4byte	.LVL10
 286 00b9 0A000000 		.4byte	.LVL11
 287 00bd 0100     		.2byte	0x1
 288 00bf 53       		.byte	0x53
 289 00c0 00000000 		.4byte	0x0
 290 00c4 00000000 		.4byte	0x0
 291              	.LLST8:
 292 00c8 12000000 		.4byte	.LVL13
 293 00cc 14000000 		.4byte	.LVL14
 294 00d0 0100     		.2byte	0x1
 295 00d2 53       		.byte	0x53
 296 00d3 24000000 		.4byte	.LVL16
 297 00d7 2C000000 		.4byte	.LFE8
 298 00db 0100     		.2byte	0x1
 299 00dd 53       		.byte	0x53
 300 00de 00000000 		.4byte	0x0
 301 00e2 00000000 		.4byte	0x0
 302              	.LLST9:
 303 00e6 00000000 		.4byte	.LFB9
 304 00ea 02000000 		.4byte	.LCFI2
 305 00ee 0200     		.2byte	0x2
 306 00f0 7D       		.byte	0x7d
 307 00f1 00       		.sleb128 0
 308 00f2 02000000 		.4byte	.LCFI2
 309 00f6 18000000 		.4byte	.LFE9
 310 00fa 0200     		.2byte	0x2
 311 00fc 7D       		.byte	0x7d
 312 00fd 08       		.sleb128 8
 313 00fe 00000000 		.4byte	0x0
 314 0102 00000000 		.4byte	0x0
 315              	.LLST10:
 316 0106 00000000 		.4byte	.LVL17
 317 010a 0F000000 		.4byte	.LVL21-1
 318 010e 0100     		.2byte	0x1
 319 0110 50       		.byte	0x50
 320 0111 00000000 		.4byte	0x0
 321 0115 00000000 		.4byte	0x0
 322              	.LLST11:
 323 0119 08000000 		.4byte	.LVL19
 324 011d 0A000000 		.4byte	.LVL20
 325 0121 0100     		.2byte	0x1
 326 0123 53       		.byte	0x53
 327 0124 00000000 		.4byte	0x0
 328 0128 00000000 		.4byte	0x0
 329              	.LLST12:
 330 012c 16000000 		.4byte	.LVL23
 331 0130 18000000 		.4byte	.LFE9
 332 0134 0100     		.2byte	0x1
 333 0136 53       		.byte	0x53
 334 0137 00000000 		.4byte	0x0
 335 013b 00000000 		.4byte	0x0
 336              		.file 2 "c:\\program files (x86)\\codesourcery\\sourcery g++ lite\\bin\\../lib/gcc/arm-none-eabi/4
 337              		.file 3 "../../../ChibiOS/os/ports/GCC/ARMCMx/chtypes.h"
ARM GAS  C:\Users\DNIEL~1\AppData\Local\Temp\cc3FOZrA.s 			page 7


 338              		.file 4 "../../../ChibiOS/os/kernel/include/chlists.h"
 339              		.file 5 "../../../ChibiOS/os/kernel/include/chthreads.h"
 340              		.file 6 "../../../ChibiOS/os/ports/GCC/ARMCMx/chcore_v7m.h"
 341              		.file 7 "../../../ChibiOS/os/kernel/include/chvt.h"
 342              		.file 8 "../../../ChibiOS/os/kernel/include/chmtx.h"
 343              		.file 9 "../../../ChibiOS/os/kernel/include/chevents.h"
 344              		.file 10 "../../../ChibiOS/os/various/evtimer.h"
 345              		.section	.debug_info
 346 0000 35060000 		.4byte	0x635
 347 0004 0200     		.2byte	0x2
 348 0006 00000000 		.4byte	.Ldebug_abbrev0
 349 000a 04       		.byte	0x4
 350 000b 01       		.uleb128 0x1
 351 000c F2020000 		.4byte	.LASF74
 352 0010 01       		.byte	0x1
 353 0011 12000000 		.4byte	.LASF75
 354 0015 A1000000 		.4byte	.LASF76
 355 0019 00000000 		.4byte	0x0
 356 001d 00000000 		.4byte	0x0
 357 0021 30000000 		.4byte	.Ldebug_ranges0+0x30
 358 0025 00000000 		.4byte	.Ldebug_line0
 359 0029 02       		.uleb128 0x2
 360 002a 04       		.byte	0x4
 361 002b 05       		.byte	0x5
 362 002c 696E7400 		.ascii	"int\000"
 363 0030 03       		.uleb128 0x3
 364 0031 04       		.byte	0x4
 365 0032 07       		.byte	0x7
 366 0033 0B010000 		.4byte	.LASF0
 367 0037 03       		.uleb128 0x3
 368 0038 01       		.byte	0x1
 369 0039 06       		.byte	0x6
 370 003a 7D000000 		.4byte	.LASF1
 371 003e 04       		.uleb128 0x4
 372 003f D5020000 		.4byte	.LASF5
 373 0043 02       		.byte	0x2
 374 0044 2A       		.byte	0x2a
 375 0045 49000000 		.4byte	0x49
 376 0049 03       		.uleb128 0x3
 377 004a 01       		.byte	0x1
 378 004b 08       		.byte	0x8
 379 004c D9010000 		.4byte	.LASF2
 380 0050 03       		.uleb128 0x3
 381 0051 02       		.byte	0x2
 382 0052 05       		.byte	0x5
 383 0053 06020000 		.4byte	.LASF3
 384 0057 03       		.uleb128 0x3
 385 0058 02       		.byte	0x2
 386 0059 07       		.byte	0x7
 387 005a 3A010000 		.4byte	.LASF4
 388 005e 04       		.uleb128 0x4
 389 005f D1010000 		.4byte	.LASF6
 390 0063 02       		.byte	0x2
 391 0064 4F       		.byte	0x4f
 392 0065 69000000 		.4byte	0x69
 393 0069 03       		.uleb128 0x3
 394 006a 04       		.byte	0x4
ARM GAS  C:\Users\DNIEL~1\AppData\Local\Temp\cc3FOZrA.s 			page 8


 395 006b 05       		.byte	0x5
 396 006c D4000000 		.4byte	.LASF7
 397 0070 04       		.uleb128 0x4
 398 0071 4A020000 		.4byte	.LASF8
 399 0075 02       		.byte	0x2
 400 0076 50       		.byte	0x50
 401 0077 7B000000 		.4byte	0x7b
 402 007b 03       		.uleb128 0x3
 403 007c 04       		.byte	0x4
 404 007d 07       		.byte	0x7
 405 007e 20010000 		.4byte	.LASF9
 406 0082 03       		.uleb128 0x3
 407 0083 08       		.byte	0x8
 408 0084 05       		.byte	0x5
 409 0085 6F000000 		.4byte	.LASF10
 410 0089 03       		.uleb128 0x3
 411 008a 08       		.byte	0x8
 412 008b 07       		.byte	0x7
 413 008c 3F000000 		.4byte	.LASF11
 414 0090 03       		.uleb128 0x3
 415 0091 01       		.byte	0x1
 416 0092 02       		.byte	0x2
 417 0093 CB010000 		.4byte	.LASF12
 418 0097 04       		.uleb128 0x4
 419 0098 5B010000 		.4byte	.LASF13
 420 009c 03       		.byte	0x3
 421 009d 2C       		.byte	0x2c
 422 009e 3E000000 		.4byte	0x3e
 423 00a2 04       		.uleb128 0x4
 424 00a3 DD000000 		.4byte	.LASF14
 425 00a7 03       		.byte	0x3
 426 00a8 2D       		.byte	0x2d
 427 00a9 3E000000 		.4byte	0x3e
 428 00ad 04       		.uleb128 0x4
 429 00ae B4010000 		.4byte	.LASF15
 430 00b2 03       		.byte	0x3
 431 00b3 2E       		.byte	0x2e
 432 00b4 3E000000 		.4byte	0x3e
 433 00b8 04       		.uleb128 0x4
 434 00b9 60020000 		.4byte	.LASF16
 435 00bd 03       		.byte	0x3
 436 00be 2F       		.byte	0x2f
 437 00bf 3E000000 		.4byte	0x3e
 438 00c3 04       		.uleb128 0x4
 439 00c4 C3010000 		.4byte	.LASF17
 440 00c8 03       		.byte	0x3
 441 00c9 30       		.byte	0x30
 442 00ca 70000000 		.4byte	0x70
 443 00ce 04       		.uleb128 0x4
 444 00cf 4D010000 		.4byte	.LASF18
 445 00d3 03       		.byte	0x3
 446 00d4 31       		.byte	0x31
 447 00d5 5E000000 		.4byte	0x5e
 448 00d9 04       		.uleb128 0x4
 449 00da 6F010000 		.4byte	.LASF19
 450 00de 03       		.byte	0x3
 451 00df 33       		.byte	0x33
ARM GAS  C:\Users\DNIEL~1\AppData\Local\Temp\cc3FOZrA.s 			page 9


 452 00e0 70000000 		.4byte	0x70
 453 00e4 04       		.uleb128 0x4
 454 00e5 C2020000 		.4byte	.LASF20
 455 00e9 03       		.byte	0x3
 456 00ea 34       		.byte	0x34
 457 00eb 70000000 		.4byte	0x70
 458 00ef 04       		.uleb128 0x4
 459 00f0 7C020000 		.4byte	.LASF21
 460 00f4 03       		.byte	0x3
 461 00f5 35       		.byte	0x35
 462 00f6 70000000 		.4byte	0x70
 463 00fa 04       		.uleb128 0x4
 464 00fb 38020000 		.4byte	.LASF22
 465 00ff 04       		.byte	0x4
 466 0100 2A       		.byte	0x2a
 467 0101 05010000 		.4byte	0x105
 468 0105 05       		.uleb128 0x5
 469 0106 38020000 		.4byte	.LASF22
 470 010a 48       		.byte	0x48
 471 010b 05       		.byte	0x5
 472 010c 5E       		.byte	0x5e
 473 010d 2A020000 		.4byte	0x22a
 474 0111 06       		.uleb128 0x6
 475 0112 29020000 		.4byte	.LASF23
 476 0116 05       		.byte	0x5
 477 0117 5F       		.byte	0x5f
 478 0118 4F020000 		.4byte	0x24f
 479 011c 02       		.byte	0x2
 480 011d 23       		.byte	0x23
 481 011e 00       		.uleb128 0x0
 482 011f 06       		.uleb128 0x6
 483 0120 BC010000 		.4byte	.LASF24
 484 0124 05       		.byte	0x5
 485 0125 61       		.byte	0x61
 486 0126 4F020000 		.4byte	0x24f
 487 012a 02       		.byte	0x2
 488 012b 23       		.byte	0x23
 489 012c 04       		.uleb128 0x4
 490 012d 06       		.uleb128 0x6
 491 012e 68000000 		.4byte	.LASF25
 492 0132 05       		.byte	0x5
 493 0133 63       		.byte	0x63
 494 0134 C3000000 		.4byte	0xc3
 495 0138 02       		.byte	0x2
 496 0139 23       		.byte	0x23
 497 013a 08       		.uleb128 0x8
 498 013b 06       		.uleb128 0x6
 499 013c 1B030000 		.4byte	.LASF26
 500 0140 05       		.byte	0x5
 501 0141 64       		.byte	0x64
 502 0142 1D030000 		.4byte	0x31d
 503 0146 02       		.byte	0x2
 504 0147 23       		.byte	0x23
 505 0148 0C       		.uleb128 0xc
 506 0149 06       		.uleb128 0x6
 507 014a E6000000 		.4byte	.LASF27
 508 014e 05       		.byte	0x5
ARM GAS  C:\Users\DNIEL~1\AppData\Local\Temp\cc3FOZrA.s 			page 10


 509 014f 66       		.byte	0x66
 510 0150 4F020000 		.4byte	0x24f
 511 0154 02       		.byte	0x2
 512 0155 23       		.byte	0x23
 513 0156 10       		.uleb128 0x10
 514 0157 06       		.uleb128 0x6
 515 0158 97010000 		.4byte	.LASF28
 516 015c 05       		.byte	0x5
 517 015d 67       		.byte	0x67
 518 015e 4F020000 		.4byte	0x24f
 519 0162 02       		.byte	0x2
 520 0163 23       		.byte	0x23
 521 0164 14       		.uleb128 0x14
 522 0165 06       		.uleb128 0x6
 523 0166 FE020000 		.4byte	.LASF29
 524 016a 05       		.byte	0x5
 525 016b 6E       		.byte	0x6e
 526 016c BF040000 		.4byte	0x4bf
 527 0170 02       		.byte	0x2
 528 0171 23       		.byte	0x23
 529 0172 18       		.uleb128 0x18
 530 0173 06       		.uleb128 0x6
 531 0174 10020000 		.4byte	.LASF30
 532 0178 05       		.byte	0x5
 533 0179 79       		.byte	0x79
 534 017a A2000000 		.4byte	0xa2
 535 017e 02       		.byte	0x2
 536 017f 23       		.byte	0x23
 537 0180 1C       		.uleb128 0x1c
 538 0181 06       		.uleb128 0x6
 539 0182 30020000 		.4byte	.LASF31
 540 0186 05       		.byte	0x5
 541 0187 7D       		.byte	0x7d
 542 0188 97000000 		.4byte	0x97
 543 018c 02       		.byte	0x2
 544 018d 23       		.byte	0x23
 545 018e 1D       		.uleb128 0x1d
 546 018f 06       		.uleb128 0x6
 547 0190 CE020000 		.4byte	.LASF32
 548 0194 05       		.byte	0x5
 549 0195 82       		.byte	0x82
 550 0196 AD000000 		.4byte	0xad
 551 019a 02       		.byte	0x2
 552 019b 23       		.byte	0x23
 553 019c 1E       		.uleb128 0x1e
 554 019d 06       		.uleb128 0x6
 555 019e 18020000 		.4byte	.LASF33
 556 01a2 05       		.byte	0x5
 557 01a3 88       		.byte	0x88
 558 01a4 B8000000 		.4byte	0xb8
 559 01a8 02       		.byte	0x2
 560 01a9 23       		.byte	0x23
 561 01aa 1F       		.uleb128 0x1f
 562 01ab 06       		.uleb128 0x6
 563 01ac A2020000 		.4byte	.LASF34
 564 01b0 05       		.byte	0x5
 565 01b1 8F       		.byte	0x8f
ARM GAS  C:\Users\DNIEL~1\AppData\Local\Temp\cc3FOZrA.s 			page 11


 566 01b2 C1030000 		.4byte	0x3c1
 567 01b6 02       		.byte	0x2
 568 01b7 23       		.byte	0x23
 569 01b8 20       		.uleb128 0x20
 570 01b9 07       		.uleb128 0x7
 571 01ba 705F7500 		.ascii	"p_u\000"
 572 01be 05       		.byte	0x5
 573 01bf B4       		.byte	0xb4
 574 01c0 8A040000 		.4byte	0x48a
 575 01c4 02       		.byte	0x2
 576 01c5 23       		.byte	0x23
 577 01c6 24       		.uleb128 0x24
 578 01c7 06       		.uleb128 0x6
 579 01c8 21030000 		.4byte	.LASF35
 580 01cc 05       		.byte	0x5
 581 01cd B9       		.byte	0xb9
 582 01ce 77020000 		.4byte	0x277
 583 01d2 02       		.byte	0x2
 584 01d3 23       		.byte	0x23
 585 01d4 28       		.uleb128 0x28
 586 01d5 06       		.uleb128 0x6
 587 01d6 B0020000 		.4byte	.LASF36
 588 01da 05       		.byte	0x5
 589 01db BF       		.byte	0xbf
 590 01dc 55020000 		.4byte	0x255
 591 01e0 02       		.byte	0x2
 592 01e1 23       		.byte	0x23
 593 01e2 2C       		.uleb128 0x2c
 594 01e3 06       		.uleb128 0x6
 595 01e4 0C000000 		.4byte	.LASF37
 596 01e8 05       		.byte	0x5
 597 01e9 C3       		.byte	0xc3
 598 01ea CE000000 		.4byte	0xce
 599 01ee 02       		.byte	0x2
 600 01ef 23       		.byte	0x23
 601 01f0 34       		.uleb128 0x34
 602 01f1 06       		.uleb128 0x6
 603 01f2 3F020000 		.4byte	.LASF38
 604 01f6 05       		.byte	0x5
 605 01f7 C9       		.byte	0xc9
 606 01f8 D9000000 		.4byte	0xd9
 607 01fc 02       		.byte	0x2
 608 01fd 23       		.byte	0x23
 609 01fe 38       		.uleb128 0x38
 610 01ff 06       		.uleb128 0x6
 611 0200 FC010000 		.4byte	.LASF39
 612 0204 05       		.byte	0x5
 613 0205 D0       		.byte	0xd0
 614 0206 D1040000 		.4byte	0x4d1
 615 020a 02       		.byte	0x2
 616 020b 23       		.byte	0x23
 617 020c 3C       		.uleb128 0x3c
 618 020d 06       		.uleb128 0x6
 619 020e 86020000 		.4byte	.LASF40
 620 0212 05       		.byte	0x5
 621 0213 D4       		.byte	0xd4
 622 0214 C3000000 		.4byte	0xc3
ARM GAS  C:\Users\DNIEL~1\AppData\Local\Temp\cc3FOZrA.s 			page 12


 623 0218 02       		.byte	0x2
 624 0219 23       		.byte	0x23
 625 021a 40       		.uleb128 0x40
 626 021b 06       		.uleb128 0x6
 627 021c 91000000 		.4byte	.LASF41
 628 0220 05       		.byte	0x5
 629 0221 DA       		.byte	0xda
 630 0222 8D020000 		.4byte	0x28d
 631 0226 02       		.byte	0x2
 632 0227 23       		.byte	0x23
 633 0228 44       		.uleb128 0x44
 634 0229 00       		.byte	0x0
 635 022a 08       		.uleb128 0x8
 636 022b 08       		.byte	0x8
 637 022c 04       		.byte	0x4
 638 022d 61       		.byte	0x61
 639 022e 4F020000 		.4byte	0x24f
 640 0232 06       		.uleb128 0x6
 641 0233 29020000 		.4byte	.LASF23
 642 0237 04       		.byte	0x4
 643 0238 62       		.byte	0x62
 644 0239 4F020000 		.4byte	0x24f
 645 023d 02       		.byte	0x2
 646 023e 23       		.byte	0x23
 647 023f 00       		.uleb128 0x0
 648 0240 06       		.uleb128 0x6
 649 0241 BC010000 		.4byte	.LASF24
 650 0245 04       		.byte	0x4
 651 0246 64       		.byte	0x64
 652 0247 4F020000 		.4byte	0x24f
 653 024b 02       		.byte	0x2
 654 024c 23       		.byte	0x23
 655 024d 04       		.uleb128 0x4
 656 024e 00       		.byte	0x0
 657 024f 09       		.uleb128 0x9
 658 0250 04       		.byte	0x4
 659 0251 FA000000 		.4byte	0xfa
 660 0255 04       		.uleb128 0x4
 661 0256 9F010000 		.4byte	.LASF42
 662 025a 04       		.byte	0x4
 663 025b 66       		.byte	0x66
 664 025c 2A020000 		.4byte	0x22a
 665 0260 08       		.uleb128 0x8
 666 0261 04       		.byte	0x4
 667 0262 04       		.byte	0x4
 668 0263 6B       		.byte	0x6b
 669 0264 77020000 		.4byte	0x277
 670 0268 06       		.uleb128 0x6
 671 0269 29020000 		.4byte	.LASF23
 672 026d 04       		.byte	0x4
 673 026e 6D       		.byte	0x6d
 674 026f 4F020000 		.4byte	0x24f
 675 0273 02       		.byte	0x2
 676 0274 23       		.byte	0x23
 677 0275 00       		.uleb128 0x0
 678 0276 00       		.byte	0x0
 679 0277 04       		.uleb128 0x4
ARM GAS  C:\Users\DNIEL~1\AppData\Local\Temp\cc3FOZrA.s 			page 13


 680 0278 63010000 		.4byte	.LASF43
 681 027c 04       		.byte	0x4
 682 027d 70       		.byte	0x70
 683 027e 60020000 		.4byte	0x260
 684 0282 04       		.uleb128 0x4
 685 0283 EE000000 		.4byte	.LASF44
 686 0287 06       		.byte	0x6
 687 0288 E5       		.byte	0xe5
 688 0289 8D020000 		.4byte	0x28d
 689 028d 0A       		.uleb128 0xa
 690 028e 04       		.byte	0x4
 691 028f 0B       		.uleb128 0xb
 692 0290 A9020000 		.4byte	.LASF45
 693 0294 24       		.byte	0x24
 694 0295 06       		.byte	0x6
 695 0296 0C01     		.2byte	0x10c
 696 0298 1D030000 		.4byte	0x31d
 697 029c 0C       		.uleb128 0xc
 698 029d 723400   		.ascii	"r4\000"
 699 02a0 06       		.byte	0x6
 700 02a1 1F01     		.2byte	0x11f
 701 02a3 82020000 		.4byte	0x282
 702 02a7 02       		.byte	0x2
 703 02a8 23       		.byte	0x23
 704 02a9 00       		.uleb128 0x0
 705 02aa 0C       		.uleb128 0xc
 706 02ab 723500   		.ascii	"r5\000"
 707 02ae 06       		.byte	0x6
 708 02af 2001     		.2byte	0x120
 709 02b1 82020000 		.4byte	0x282
 710 02b5 02       		.byte	0x2
 711 02b6 23       		.byte	0x23
 712 02b7 04       		.uleb128 0x4
 713 02b8 0C       		.uleb128 0xc
 714 02b9 723600   		.ascii	"r6\000"
 715 02bc 06       		.byte	0x6
 716 02bd 2101     		.2byte	0x121
 717 02bf 82020000 		.4byte	0x282
 718 02c3 02       		.byte	0x2
 719 02c4 23       		.byte	0x23
 720 02c5 08       		.uleb128 0x8
 721 02c6 0C       		.uleb128 0xc
 722 02c7 723700   		.ascii	"r7\000"
 723 02ca 06       		.byte	0x6
 724 02cb 2201     		.2byte	0x122
 725 02cd 82020000 		.4byte	0x282
 726 02d1 02       		.byte	0x2
 727 02d2 23       		.byte	0x23
 728 02d3 0C       		.uleb128 0xc
 729 02d4 0C       		.uleb128 0xc
 730 02d5 723800   		.ascii	"r8\000"
 731 02d8 06       		.byte	0x6
 732 02d9 2301     		.2byte	0x123
 733 02db 82020000 		.4byte	0x282
 734 02df 02       		.byte	0x2
 735 02e0 23       		.byte	0x23
 736 02e1 10       		.uleb128 0x10
ARM GAS  C:\Users\DNIEL~1\AppData\Local\Temp\cc3FOZrA.s 			page 14


 737 02e2 0C       		.uleb128 0xc
 738 02e3 723900   		.ascii	"r9\000"
 739 02e6 06       		.byte	0x6
 740 02e7 2401     		.2byte	0x124
 741 02e9 82020000 		.4byte	0x282
 742 02ed 02       		.byte	0x2
 743 02ee 23       		.byte	0x23
 744 02ef 14       		.uleb128 0x14
 745 02f0 0C       		.uleb128 0xc
 746 02f1 72313000 		.ascii	"r10\000"
 747 02f5 06       		.byte	0x6
 748 02f6 2501     		.2byte	0x125
 749 02f8 82020000 		.4byte	0x282
 750 02fc 02       		.byte	0x2
 751 02fd 23       		.byte	0x23
 752 02fe 18       		.uleb128 0x18
 753 02ff 0C       		.uleb128 0xc
 754 0300 72313100 		.ascii	"r11\000"
 755 0304 06       		.byte	0x6
 756 0305 2601     		.2byte	0x126
 757 0307 82020000 		.4byte	0x282
 758 030b 02       		.byte	0x2
 759 030c 23       		.byte	0x23
 760 030d 1C       		.uleb128 0x1c
 761 030e 0C       		.uleb128 0xc
 762 030f 6C7200   		.ascii	"lr\000"
 763 0312 06       		.byte	0x6
 764 0313 2701     		.2byte	0x127
 765 0315 82020000 		.4byte	0x282
 766 0319 02       		.byte	0x2
 767 031a 23       		.byte	0x23
 768 031b 20       		.uleb128 0x20
 769 031c 00       		.byte	0x0
 770 031d 0B       		.uleb128 0xb
 771 031e 32010000 		.4byte	.LASF46
 772 0322 04       		.byte	0x4
 773 0323 06       		.byte	0x6
 774 0324 3101     		.2byte	0x131
 775 0326 3A030000 		.4byte	0x33a
 776 032a 0C       		.uleb128 0xc
 777 032b 72313300 		.ascii	"r13\000"
 778 032f 06       		.byte	0x6
 779 0330 3201     		.2byte	0x132
 780 0332 3A030000 		.4byte	0x33a
 781 0336 02       		.byte	0x2
 782 0337 23       		.byte	0x23
 783 0338 00       		.uleb128 0x0
 784 0339 00       		.byte	0x0
 785 033a 09       		.uleb128 0x9
 786 033b 04       		.byte	0x4
 787 033c 8F020000 		.4byte	0x28f
 788 0340 04       		.uleb128 0x4
 789 0341 91020000 		.4byte	.LASF47
 790 0345 07       		.byte	0x7
 791 0346 58       		.byte	0x58
 792 0347 4B030000 		.4byte	0x34b
 793 034b 09       		.uleb128 0x9
ARM GAS  C:\Users\DNIEL~1\AppData\Local\Temp\cc3FOZrA.s 			page 15


 794 034c 04       		.byte	0x4
 795 034d 51030000 		.4byte	0x351
 796 0351 0D       		.uleb128 0xd
 797 0352 01       		.byte	0x1
 798 0353 5D030000 		.4byte	0x35d
 799 0357 0E       		.uleb128 0xe
 800 0358 8D020000 		.4byte	0x28d
 801 035c 00       		.byte	0x0
 802 035d 04       		.uleb128 0x4
 803 035e 53020000 		.4byte	.LASF48
 804 0362 07       		.byte	0x7
 805 0363 5D       		.byte	0x5d
 806 0364 68030000 		.4byte	0x368
 807 0368 05       		.uleb128 0x5
 808 0369 53020000 		.4byte	.LASF48
 809 036d 14       		.byte	0x14
 810 036e 07       		.byte	0x7
 811 036f 64       		.byte	0x64
 812 0370 BB030000 		.4byte	0x3bb
 813 0374 06       		.uleb128 0x6
 814 0375 18010000 		.4byte	.LASF49
 815 0379 07       		.byte	0x7
 816 037a 65       		.byte	0x65
 817 037b BB030000 		.4byte	0x3bb
 818 037f 02       		.byte	0x2
 819 0380 23       		.byte	0x23
 820 0381 00       		.uleb128 0x0
 821 0382 06       		.uleb128 0x6
 822 0383 F7000000 		.4byte	.LASF50
 823 0387 07       		.byte	0x7
 824 0388 67       		.byte	0x67
 825 0389 BB030000 		.4byte	0x3bb
 826 038d 02       		.byte	0x2
 827 038e 23       		.byte	0x23
 828 038f 04       		.uleb128 0x4
 829 0390 06       		.uleb128 0x6
 830 0391 81010000 		.4byte	.LASF51
 831 0395 07       		.byte	0x7
 832 0396 69       		.byte	0x69
 833 0397 EF000000 		.4byte	0xef
 834 039b 02       		.byte	0x2
 835 039c 23       		.byte	0x23
 836 039d 08       		.uleb128 0x8
 837 039e 06       		.uleb128 0x6
 838 039f 8F010000 		.4byte	.LASF52
 839 03a3 07       		.byte	0x7
 840 03a4 6A       		.byte	0x6a
 841 03a5 40030000 		.4byte	0x340
 842 03a9 02       		.byte	0x2
 843 03aa 23       		.byte	0x23
 844 03ab 0C       		.uleb128 0xc
 845 03ac 06       		.uleb128 0x6
 846 03ad BB020000 		.4byte	.LASF53
 847 03b1 07       		.byte	0x7
 848 03b2 6C       		.byte	0x6c
 849 03b3 8D020000 		.4byte	0x28d
 850 03b7 02       		.byte	0x2
ARM GAS  C:\Users\DNIEL~1\AppData\Local\Temp\cc3FOZrA.s 			page 16


 851 03b8 23       		.byte	0x23
 852 03b9 10       		.uleb128 0x10
 853 03ba 00       		.byte	0x0
 854 03bb 09       		.uleb128 0x9
 855 03bc 04       		.byte	0x4
 856 03bd 5D030000 		.4byte	0x35d
 857 03c1 0F       		.uleb128 0xf
 858 03c2 EF000000 		.4byte	0xef
 859 03c6 05       		.uleb128 0x5
 860 03c7 7B010000 		.4byte	.LASF54
 861 03cb 10       		.byte	0x10
 862 03cc 08       		.byte	0x8
 863 03cd 2C       		.byte	0x2c
 864 03ce FD030000 		.4byte	0x3fd
 865 03d2 06       		.uleb128 0x6
 866 03d3 99000000 		.4byte	.LASF55
 867 03d7 08       		.byte	0x8
 868 03d8 2D       		.byte	0x2d
 869 03d9 55020000 		.4byte	0x255
 870 03dd 02       		.byte	0x2
 871 03de 23       		.byte	0x23
 872 03df 00       		.uleb128 0x0
 873 03e0 06       		.uleb128 0x6
 874 03e1 13030000 		.4byte	.LASF56
 875 03e5 08       		.byte	0x8
 876 03e6 2F       		.byte	0x2f
 877 03e7 4F020000 		.4byte	0x24f
 878 03eb 02       		.byte	0x2
 879 03ec 23       		.byte	0x23
 880 03ed 08       		.uleb128 0x8
 881 03ee 06       		.uleb128 0x6
 882 03ef 75020000 		.4byte	.LASF57
 883 03f3 08       		.byte	0x8
 884 03f4 31       		.byte	0x31
 885 03f5 FD030000 		.4byte	0x3fd
 886 03f9 02       		.byte	0x2
 887 03fa 23       		.byte	0x23
 888 03fb 0C       		.uleb128 0xc
 889 03fc 00       		.byte	0x0
 890 03fd 09       		.uleb128 0x9
 891 03fe 04       		.byte	0x4
 892 03ff C6030000 		.4byte	0x3c6
 893 0403 04       		.uleb128 0x4
 894 0404 7B010000 		.4byte	.LASF54
 895 0408 08       		.byte	0x8
 896 0409 33       		.byte	0x33
 897 040a C6030000 		.4byte	0x3c6
 898 040e 04       		.uleb128 0x4
 899 040f DD020000 		.4byte	.LASF58
 900 0413 09       		.byte	0x9
 901 0414 2C       		.byte	0x2c
 902 0415 19040000 		.4byte	0x419
 903 0419 05       		.uleb128 0x5
 904 041a DD020000 		.4byte	.LASF58
 905 041e 10       		.byte	0x10
 906 041f 09       		.byte	0x9
 907 0420 31       		.byte	0x31
ARM GAS  C:\Users\DNIEL~1\AppData\Local\Temp\cc3FOZrA.s 			page 17


 908 0421 5E040000 		.4byte	0x45e
 909 0425 06       		.uleb128 0x6
 910 0426 53010000 		.4byte	.LASF59
 911 042a 09       		.byte	0x9
 912 042b 32       		.byte	0x32
 913 042c 5E040000 		.4byte	0x45e
 914 0430 02       		.byte	0x2
 915 0431 23       		.byte	0x23
 916 0432 00       		.uleb128 0x0
 917 0433 06       		.uleb128 0x6
 918 0434 E7010000 		.4byte	.LASF60
 919 0438 09       		.byte	0x9
 920 0439 35       		.byte	0x35
 921 043a 4F020000 		.4byte	0x24f
 922 043e 02       		.byte	0x2
 923 043f 23       		.byte	0x23
 924 0440 04       		.uleb128 0x4
 925 0441 06       		.uleb128 0x6
 926 0442 AC010000 		.4byte	.LASF61
 927 0446 09       		.byte	0x9
 928 0447 37       		.byte	0x37
 929 0448 D9000000 		.4byte	0xd9
 930 044c 02       		.byte	0x2
 931 044d 23       		.byte	0x23
 932 044e 08       		.uleb128 0x8
 933 044f 06       		.uleb128 0x6
 934 0450 F3010000 		.4byte	.LASF62
 935 0454 09       		.byte	0x9
 936 0455 3A       		.byte	0x3a
 937 0456 E4000000 		.4byte	0xe4
 938 045a 02       		.byte	0x2
 939 045b 23       		.byte	0x23
 940 045c 0C       		.uleb128 0xc
 941 045d 00       		.byte	0x0
 942 045e 09       		.uleb128 0x9
 943 045f 04       		.byte	0x4
 944 0460 0E040000 		.4byte	0x40e
 945 0464 05       		.uleb128 0x5
 946 0465 FF000000 		.4byte	.LASF63
 947 0469 04       		.byte	0x4
 948 046a 09       		.byte	0x9
 949 046b 41       		.byte	0x41
 950 046c 7F040000 		.4byte	0x47f
 951 0470 06       		.uleb128 0x6
 952 0471 05030000 		.4byte	.LASF64
 953 0475 09       		.byte	0x9
 954 0476 42       		.byte	0x42
 955 0477 5E040000 		.4byte	0x45e
 956 047b 02       		.byte	0x2
 957 047c 23       		.byte	0x23
 958 047d 00       		.uleb128 0x0
 959 047e 00       		.byte	0x0
 960 047f 04       		.uleb128 0x4
 961 0480 FF000000 		.4byte	.LASF63
 962 0484 09       		.byte	0x9
 963 0485 45       		.byte	0x45
 964 0486 64040000 		.4byte	0x464
ARM GAS  C:\Users\DNIEL~1\AppData\Local\Temp\cc3FOZrA.s 			page 18


 965 048a 10       		.uleb128 0x10
 966 048b 04       		.byte	0x4
 967 048c 05       		.byte	0x5
 968 048d 96       		.byte	0x96
 969 048e BF040000 		.4byte	0x4bf
 970 0492 11       		.uleb128 0x11
 971 0493 38000000 		.4byte	.LASF65
 972 0497 05       		.byte	0x5
 973 0498 9D       		.byte	0x9d
 974 0499 CE000000 		.4byte	0xce
 975 049d 11       		.uleb128 0x11
 976 049e 56000000 		.4byte	.LASF66
 977 04a2 05       		.byte	0x5
 978 04a3 A4       		.byte	0xa4
 979 04a4 CE000000 		.4byte	0xce
 980 04a8 11       		.uleb128 0x11
 981 04a9 EB020000 		.4byte	.LASF67
 982 04ad 05       		.byte	0x5
 983 04ae AB       		.byte	0xab
 984 04af 8D020000 		.4byte	0x28d
 985 04b3 11       		.uleb128 0x11
 986 04b4 22020000 		.4byte	.LASF68
 987 04b8 05       		.byte	0x5
 988 04b9 B2       		.byte	0xb2
 989 04ba D9000000 		.4byte	0xd9
 990 04be 00       		.byte	0x0
 991 04bf 09       		.uleb128 0x9
 992 04c0 04       		.byte	0x4
 993 04c1 C5040000 		.4byte	0x4c5
 994 04c5 12       		.uleb128 0x12
 995 04c6 CA040000 		.4byte	0x4ca
 996 04ca 03       		.uleb128 0x3
 997 04cb 01       		.byte	0x1
 998 04cc 08       		.byte	0x8
 999 04cd 6A020000 		.4byte	.LASF69
 1000 04d1 09       		.uleb128 0x9
 1001 04d2 04       		.byte	0x4
 1002 04d3 03040000 		.4byte	0x403
 1003 04d7 08       		.uleb128 0x8
 1004 04d8 1C       		.byte	0x1c
 1005 04d9 0A       		.byte	0xa
 1006 04da 27       		.byte	0x27
 1007 04db 0A050000 		.4byte	0x50a
 1008 04df 06       		.uleb128 0x6
 1009 04e0 0D030000 		.4byte	.LASF70
 1010 04e4 0A       		.byte	0xa
 1011 04e5 28       		.byte	0x28
 1012 04e6 5D030000 		.4byte	0x35d
 1013 04ea 02       		.byte	0x2
 1014 04eb 23       		.byte	0x23
 1015 04ec 00       		.uleb128 0x0
 1016 04ed 06       		.uleb128 0x6
 1017 04ee 89010000 		.4byte	.LASF71
 1018 04f2 0A       		.byte	0xa
 1019 04f3 29       		.byte	0x29
 1020 04f4 7F040000 		.4byte	0x47f
 1021 04f8 02       		.byte	0x2
ARM GAS  C:\Users\DNIEL~1\AppData\Local\Temp\cc3FOZrA.s 			page 19


 1022 04f9 23       		.byte	0x23
 1023 04fa 14       		.uleb128 0x14
 1024 04fb 06       		.uleb128 0x6
 1025 04fc 00000000 		.4byte	.LASF72
 1026 0500 0A       		.byte	0xa
 1027 0501 2A       		.byte	0x2a
 1028 0502 EF000000 		.4byte	0xef
 1029 0506 02       		.byte	0x2
 1030 0507 23       		.byte	0x23
 1031 0508 18       		.uleb128 0x18
 1032 0509 00       		.byte	0x0
 1033 050a 04       		.uleb128 0x4
 1034 050b 89000000 		.4byte	.LASF73
 1035 050f 0A       		.byte	0xa
 1036 0510 2B       		.byte	0x2b
 1037 0511 D7040000 		.4byte	0x4d7
 1038 0515 13       		.uleb128 0x13
 1039 0516 6F020000 		.4byte	.LASF77
 1040 051a 01       		.byte	0x1
 1041 051b 1C       		.byte	0x1c
 1042 051c 01       		.byte	0x1
 1043 051d 00000000 		.4byte	.LFB7
 1044 0521 2C000000 		.4byte	.LFE7
 1045 0525 00000000 		.4byte	.LLST0
 1046 0529 7C050000 		.4byte	0x57c
 1047 052d 14       		.uleb128 0x14
 1048 052e 7000     		.ascii	"p\000"
 1049 0530 01       		.byte	0x1
 1050 0531 1C       		.byte	0x1c
 1051 0532 8D020000 		.4byte	0x28d
 1052 0536 20000000 		.4byte	.LLST1
 1053 053a 15       		.uleb128 0x15
 1054 053b 65747000 		.ascii	"etp\000"
 1055 053f 01       		.byte	0x1
 1056 0540 1D       		.byte	0x1d
 1057 0541 7C050000 		.4byte	0x57c
 1058 0545 3E000000 		.4byte	.LLST2
 1059 0549 16       		.uleb128 0x16
 1060 054a 00000000 		.4byte	.Ldebug_ranges0+0x0
 1061 054e 62050000 		.4byte	0x562
 1062 0552 15       		.uleb128 0x15
 1063 0553 746D7000 		.ascii	"tmp\000"
 1064 0557 01       		.byte	0x1
 1065 0558 1F       		.byte	0x1f
 1066 0559 70000000 		.4byte	0x70
 1067 055d 5C000000 		.4byte	.LLST3
 1068 0561 00       		.byte	0x0
 1069 0562 17       		.uleb128 0x17
 1070 0563 1E000000 		.4byte	.LBB4
 1071 0567 24000000 		.4byte	.LBE4
 1072 056b 15       		.uleb128 0x15
 1073 056c 746D7000 		.ascii	"tmp\000"
 1074 0570 01       		.byte	0x1
 1075 0571 22       		.byte	0x22
 1076 0572 70000000 		.4byte	0x70
 1077 0576 6F000000 		.4byte	.LLST4
 1078 057a 00       		.byte	0x0
ARM GAS  C:\Users\DNIEL~1\AppData\Local\Temp\cc3FOZrA.s 			page 20


 1079 057b 00       		.byte	0x0
 1080 057c 09       		.uleb128 0x9
 1081 057d 04       		.byte	0x4
 1082 057e 0A050000 		.4byte	0x50a
 1083 0582 18       		.uleb128 0x18
 1084 0583 01       		.byte	0x1
 1085 0584 5F000000 		.4byte	.LASF78
 1086 0588 01       		.byte	0x1
 1087 0589 2B       		.byte	0x2b
 1088 058a 01       		.byte	0x1
 1089 058b 00000000 		.4byte	.LFB8
 1090 058f 2C000000 		.4byte	.LFE8
 1091 0593 82000000 		.4byte	.LLST5
 1092 0597 DD050000 		.4byte	0x5dd
 1093 059b 14       		.uleb128 0x14
 1094 059c 65747000 		.ascii	"etp\000"
 1095 05a0 01       		.byte	0x1
 1096 05a1 2B       		.byte	0x2b
 1097 05a2 7C050000 		.4byte	0x57c
 1098 05a6 A2000000 		.4byte	.LLST6
 1099 05aa 19       		.uleb128 0x19
 1100 05ab 02000000 		.4byte	.LBB5
 1101 05af 08000000 		.4byte	.LBE5
 1102 05b3 C7050000 		.4byte	0x5c7
 1103 05b7 15       		.uleb128 0x15
 1104 05b8 746D7000 		.ascii	"tmp\000"
 1105 05bc 01       		.byte	0x1
 1106 05bd 2D       		.byte	0x2d
 1107 05be 70000000 		.4byte	0x70
 1108 05c2 B5000000 		.4byte	.LLST7
 1109 05c6 00       		.byte	0x0
 1110 05c7 1A       		.uleb128 0x1a
 1111 05c8 18000000 		.4byte	.Ldebug_ranges0+0x18
 1112 05cc 15       		.uleb128 0x15
 1113 05cd 746D7000 		.ascii	"tmp\000"
 1114 05d1 01       		.byte	0x1
 1115 05d2 32       		.byte	0x32
 1116 05d3 70000000 		.4byte	0x70
 1117 05d7 C8000000 		.4byte	.LLST8
 1118 05db 00       		.byte	0x0
 1119 05dc 00       		.byte	0x0
 1120 05dd 1B       		.uleb128 0x1b
 1121 05de 01       		.byte	0x1
 1122 05df 9A020000 		.4byte	.LASF79
 1123 05e3 01       		.byte	0x1
 1124 05e4 3B       		.byte	0x3b
 1125 05e5 01       		.byte	0x1
 1126 05e6 00000000 		.4byte	.LFB9
 1127 05ea 18000000 		.4byte	.LFE9
 1128 05ee E6000000 		.4byte	.LLST9
 1129 05f2 14       		.uleb128 0x14
 1130 05f3 65747000 		.ascii	"etp\000"
 1131 05f7 01       		.byte	0x1
 1132 05f8 3B       		.byte	0x3b
 1133 05f9 7C050000 		.4byte	0x57c
 1134 05fd 06010000 		.4byte	.LLST10
 1135 0601 19       		.uleb128 0x19
ARM GAS  C:\Users\DNIEL~1\AppData\Local\Temp\cc3FOZrA.s 			page 21


 1136 0602 02000000 		.4byte	.LBB8
 1137 0606 08000000 		.4byte	.LBE8
 1138 060a 1E060000 		.4byte	0x61e
 1139 060e 15       		.uleb128 0x15
 1140 060f 746D7000 		.ascii	"tmp\000"
 1141 0613 01       		.byte	0x1
 1142 0614 3D       		.byte	0x3d
 1143 0615 70000000 		.4byte	0x70
 1144 0619 19010000 		.4byte	.LLST11
 1145 061d 00       		.byte	0x0
 1146 061e 17       		.uleb128 0x17
 1147 061f 10000000 		.4byte	.LBB9
 1148 0623 16000000 		.4byte	.LBE9
 1149 0627 15       		.uleb128 0x15
 1150 0628 746D7000 		.ascii	"tmp\000"
 1151 062c 01       		.byte	0x1
 1152 062d 3D       		.byte	0x3d
 1153 062e 70000000 		.4byte	0x70
 1154 0632 2C010000 		.4byte	.LLST12
 1155 0636 00       		.byte	0x0
 1156 0637 00       		.byte	0x0
 1157 0638 00       		.byte	0x0
 1158              		.section	.debug_abbrev
 1159 0000 01       		.uleb128 0x1
 1160 0001 11       		.uleb128 0x11
 1161 0002 01       		.byte	0x1
 1162 0003 25       		.uleb128 0x25
 1163 0004 0E       		.uleb128 0xe
 1164 0005 13       		.uleb128 0x13
 1165 0006 0B       		.uleb128 0xb
 1166 0007 03       		.uleb128 0x3
 1167 0008 0E       		.uleb128 0xe
 1168 0009 1B       		.uleb128 0x1b
 1169 000a 0E       		.uleb128 0xe
 1170 000b 11       		.uleb128 0x11
 1171 000c 01       		.uleb128 0x1
 1172 000d 52       		.uleb128 0x52
 1173 000e 01       		.uleb128 0x1
 1174 000f 55       		.uleb128 0x55
 1175 0010 06       		.uleb128 0x6
 1176 0011 10       		.uleb128 0x10
 1177 0012 06       		.uleb128 0x6
 1178 0013 00       		.byte	0x0
 1179 0014 00       		.byte	0x0
 1180 0015 02       		.uleb128 0x2
 1181 0016 24       		.uleb128 0x24
 1182 0017 00       		.byte	0x0
 1183 0018 0B       		.uleb128 0xb
 1184 0019 0B       		.uleb128 0xb
 1185 001a 3E       		.uleb128 0x3e
 1186 001b 0B       		.uleb128 0xb
 1187 001c 03       		.uleb128 0x3
 1188 001d 08       		.uleb128 0x8
 1189 001e 00       		.byte	0x0
 1190 001f 00       		.byte	0x0
 1191 0020 03       		.uleb128 0x3
 1192 0021 24       		.uleb128 0x24
ARM GAS  C:\Users\DNIEL~1\AppData\Local\Temp\cc3FOZrA.s 			page 22


 1193 0022 00       		.byte	0x0
 1194 0023 0B       		.uleb128 0xb
 1195 0024 0B       		.uleb128 0xb
 1196 0025 3E       		.uleb128 0x3e
 1197 0026 0B       		.uleb128 0xb
 1198 0027 03       		.uleb128 0x3
 1199 0028 0E       		.uleb128 0xe
 1200 0029 00       		.byte	0x0
 1201 002a 00       		.byte	0x0
 1202 002b 04       		.uleb128 0x4
 1203 002c 16       		.uleb128 0x16
 1204 002d 00       		.byte	0x0
 1205 002e 03       		.uleb128 0x3
 1206 002f 0E       		.uleb128 0xe
 1207 0030 3A       		.uleb128 0x3a
 1208 0031 0B       		.uleb128 0xb
 1209 0032 3B       		.uleb128 0x3b
 1210 0033 0B       		.uleb128 0xb
 1211 0034 49       		.uleb128 0x49
 1212 0035 13       		.uleb128 0x13
 1213 0036 00       		.byte	0x0
 1214 0037 00       		.byte	0x0
 1215 0038 05       		.uleb128 0x5
 1216 0039 13       		.uleb128 0x13
 1217 003a 01       		.byte	0x1
 1218 003b 03       		.uleb128 0x3
 1219 003c 0E       		.uleb128 0xe
 1220 003d 0B       		.uleb128 0xb
 1221 003e 0B       		.uleb128 0xb
 1222 003f 3A       		.uleb128 0x3a
 1223 0040 0B       		.uleb128 0xb
 1224 0041 3B       		.uleb128 0x3b
 1225 0042 0B       		.uleb128 0xb
 1226 0043 01       		.uleb128 0x1
 1227 0044 13       		.uleb128 0x13
 1228 0045 00       		.byte	0x0
 1229 0046 00       		.byte	0x0
 1230 0047 06       		.uleb128 0x6
 1231 0048 0D       		.uleb128 0xd
 1232 0049 00       		.byte	0x0
 1233 004a 03       		.uleb128 0x3
 1234 004b 0E       		.uleb128 0xe
 1235 004c 3A       		.uleb128 0x3a
 1236 004d 0B       		.uleb128 0xb
 1237 004e 3B       		.uleb128 0x3b
 1238 004f 0B       		.uleb128 0xb
 1239 0050 49       		.uleb128 0x49
 1240 0051 13       		.uleb128 0x13
 1241 0052 38       		.uleb128 0x38
 1242 0053 0A       		.uleb128 0xa
 1243 0054 00       		.byte	0x0
 1244 0055 00       		.byte	0x0
 1245 0056 07       		.uleb128 0x7
 1246 0057 0D       		.uleb128 0xd
 1247 0058 00       		.byte	0x0
 1248 0059 03       		.uleb128 0x3
 1249 005a 08       		.uleb128 0x8
ARM GAS  C:\Users\DNIEL~1\AppData\Local\Temp\cc3FOZrA.s 			page 23


 1250 005b 3A       		.uleb128 0x3a
 1251 005c 0B       		.uleb128 0xb
 1252 005d 3B       		.uleb128 0x3b
 1253 005e 0B       		.uleb128 0xb
 1254 005f 49       		.uleb128 0x49
 1255 0060 13       		.uleb128 0x13
 1256 0061 38       		.uleb128 0x38
 1257 0062 0A       		.uleb128 0xa
 1258 0063 00       		.byte	0x0
 1259 0064 00       		.byte	0x0
 1260 0065 08       		.uleb128 0x8
 1261 0066 13       		.uleb128 0x13
 1262 0067 01       		.byte	0x1
 1263 0068 0B       		.uleb128 0xb
 1264 0069 0B       		.uleb128 0xb
 1265 006a 3A       		.uleb128 0x3a
 1266 006b 0B       		.uleb128 0xb
 1267 006c 3B       		.uleb128 0x3b
 1268 006d 0B       		.uleb128 0xb
 1269 006e 01       		.uleb128 0x1
 1270 006f 13       		.uleb128 0x13
 1271 0070 00       		.byte	0x0
 1272 0071 00       		.byte	0x0
 1273 0072 09       		.uleb128 0x9
 1274 0073 0F       		.uleb128 0xf
 1275 0074 00       		.byte	0x0
 1276 0075 0B       		.uleb128 0xb
 1277 0076 0B       		.uleb128 0xb
 1278 0077 49       		.uleb128 0x49
 1279 0078 13       		.uleb128 0x13
 1280 0079 00       		.byte	0x0
 1281 007a 00       		.byte	0x0
 1282 007b 0A       		.uleb128 0xa
 1283 007c 0F       		.uleb128 0xf
 1284 007d 00       		.byte	0x0
 1285 007e 0B       		.uleb128 0xb
 1286 007f 0B       		.uleb128 0xb
 1287 0080 00       		.byte	0x0
 1288 0081 00       		.byte	0x0
 1289 0082 0B       		.uleb128 0xb
 1290 0083 13       		.uleb128 0x13
 1291 0084 01       		.byte	0x1
 1292 0085 03       		.uleb128 0x3
 1293 0086 0E       		.uleb128 0xe
 1294 0087 0B       		.uleb128 0xb
 1295 0088 0B       		.uleb128 0xb
 1296 0089 3A       		.uleb128 0x3a
 1297 008a 0B       		.uleb128 0xb
 1298 008b 3B       		.uleb128 0x3b
 1299 008c 05       		.uleb128 0x5
 1300 008d 01       		.uleb128 0x1
 1301 008e 13       		.uleb128 0x13
 1302 008f 00       		.byte	0x0
 1303 0090 00       		.byte	0x0
 1304 0091 0C       		.uleb128 0xc
 1305 0092 0D       		.uleb128 0xd
 1306 0093 00       		.byte	0x0
ARM GAS  C:\Users\DNIEL~1\AppData\Local\Temp\cc3FOZrA.s 			page 24


 1307 0094 03       		.uleb128 0x3
 1308 0095 08       		.uleb128 0x8
 1309 0096 3A       		.uleb128 0x3a
 1310 0097 0B       		.uleb128 0xb
 1311 0098 3B       		.uleb128 0x3b
 1312 0099 05       		.uleb128 0x5
 1313 009a 49       		.uleb128 0x49
 1314 009b 13       		.uleb128 0x13
 1315 009c 38       		.uleb128 0x38
 1316 009d 0A       		.uleb128 0xa
 1317 009e 00       		.byte	0x0
 1318 009f 00       		.byte	0x0
 1319 00a0 0D       		.uleb128 0xd
 1320 00a1 15       		.uleb128 0x15
 1321 00a2 01       		.byte	0x1
 1322 00a3 27       		.uleb128 0x27
 1323 00a4 0C       		.uleb128 0xc
 1324 00a5 01       		.uleb128 0x1
 1325 00a6 13       		.uleb128 0x13
 1326 00a7 00       		.byte	0x0
 1327 00a8 00       		.byte	0x0
 1328 00a9 0E       		.uleb128 0xe
 1329 00aa 05       		.uleb128 0x5
 1330 00ab 00       		.byte	0x0
 1331 00ac 49       		.uleb128 0x49
 1332 00ad 13       		.uleb128 0x13
 1333 00ae 00       		.byte	0x0
 1334 00af 00       		.byte	0x0
 1335 00b0 0F       		.uleb128 0xf
 1336 00b1 35       		.uleb128 0x35
 1337 00b2 00       		.byte	0x0
 1338 00b3 49       		.uleb128 0x49
 1339 00b4 13       		.uleb128 0x13
 1340 00b5 00       		.byte	0x0
 1341 00b6 00       		.byte	0x0
 1342 00b7 10       		.uleb128 0x10
 1343 00b8 17       		.uleb128 0x17
 1344 00b9 01       		.byte	0x1
 1345 00ba 0B       		.uleb128 0xb
 1346 00bb 0B       		.uleb128 0xb
 1347 00bc 3A       		.uleb128 0x3a
 1348 00bd 0B       		.uleb128 0xb
 1349 00be 3B       		.uleb128 0x3b
 1350 00bf 0B       		.uleb128 0xb
 1351 00c0 01       		.uleb128 0x1
 1352 00c1 13       		.uleb128 0x13
 1353 00c2 00       		.byte	0x0
 1354 00c3 00       		.byte	0x0
 1355 00c4 11       		.uleb128 0x11
 1356 00c5 0D       		.uleb128 0xd
 1357 00c6 00       		.byte	0x0
 1358 00c7 03       		.uleb128 0x3
 1359 00c8 0E       		.uleb128 0xe
 1360 00c9 3A       		.uleb128 0x3a
 1361 00ca 0B       		.uleb128 0xb
 1362 00cb 3B       		.uleb128 0x3b
 1363 00cc 0B       		.uleb128 0xb
ARM GAS  C:\Users\DNIEL~1\AppData\Local\Temp\cc3FOZrA.s 			page 25


 1364 00cd 49       		.uleb128 0x49
 1365 00ce 13       		.uleb128 0x13
 1366 00cf 00       		.byte	0x0
 1367 00d0 00       		.byte	0x0
 1368 00d1 12       		.uleb128 0x12
 1369 00d2 26       		.uleb128 0x26
 1370 00d3 00       		.byte	0x0
 1371 00d4 49       		.uleb128 0x49
 1372 00d5 13       		.uleb128 0x13
 1373 00d6 00       		.byte	0x0
 1374 00d7 00       		.byte	0x0
 1375 00d8 13       		.uleb128 0x13
 1376 00d9 2E       		.uleb128 0x2e
 1377 00da 01       		.byte	0x1
 1378 00db 03       		.uleb128 0x3
 1379 00dc 0E       		.uleb128 0xe
 1380 00dd 3A       		.uleb128 0x3a
 1381 00de 0B       		.uleb128 0xb
 1382 00df 3B       		.uleb128 0x3b
 1383 00e0 0B       		.uleb128 0xb
 1384 00e1 27       		.uleb128 0x27
 1385 00e2 0C       		.uleb128 0xc
 1386 00e3 11       		.uleb128 0x11
 1387 00e4 01       		.uleb128 0x1
 1388 00e5 12       		.uleb128 0x12
 1389 00e6 01       		.uleb128 0x1
 1390 00e7 40       		.uleb128 0x40
 1391 00e8 06       		.uleb128 0x6
 1392 00e9 01       		.uleb128 0x1
 1393 00ea 13       		.uleb128 0x13
 1394 00eb 00       		.byte	0x0
 1395 00ec 00       		.byte	0x0
 1396 00ed 14       		.uleb128 0x14
 1397 00ee 05       		.uleb128 0x5
 1398 00ef 00       		.byte	0x0
 1399 00f0 03       		.uleb128 0x3
 1400 00f1 08       		.uleb128 0x8
 1401 00f2 3A       		.uleb128 0x3a
 1402 00f3 0B       		.uleb128 0xb
 1403 00f4 3B       		.uleb128 0x3b
 1404 00f5 0B       		.uleb128 0xb
 1405 00f6 49       		.uleb128 0x49
 1406 00f7 13       		.uleb128 0x13
 1407 00f8 02       		.uleb128 0x2
 1408 00f9 06       		.uleb128 0x6
 1409 00fa 00       		.byte	0x0
 1410 00fb 00       		.byte	0x0
 1411 00fc 15       		.uleb128 0x15
 1412 00fd 34       		.uleb128 0x34
 1413 00fe 00       		.byte	0x0
 1414 00ff 03       		.uleb128 0x3
 1415 0100 08       		.uleb128 0x8
 1416 0101 3A       		.uleb128 0x3a
 1417 0102 0B       		.uleb128 0xb
 1418 0103 3B       		.uleb128 0x3b
 1419 0104 0B       		.uleb128 0xb
 1420 0105 49       		.uleb128 0x49
ARM GAS  C:\Users\DNIEL~1\AppData\Local\Temp\cc3FOZrA.s 			page 26


 1421 0106 13       		.uleb128 0x13
 1422 0107 02       		.uleb128 0x2
 1423 0108 06       		.uleb128 0x6
 1424 0109 00       		.byte	0x0
 1425 010a 00       		.byte	0x0
 1426 010b 16       		.uleb128 0x16
 1427 010c 0B       		.uleb128 0xb
 1428 010d 01       		.byte	0x1
 1429 010e 55       		.uleb128 0x55
 1430 010f 06       		.uleb128 0x6
 1431 0110 01       		.uleb128 0x1
 1432 0111 13       		.uleb128 0x13
 1433 0112 00       		.byte	0x0
 1434 0113 00       		.byte	0x0
 1435 0114 17       		.uleb128 0x17
 1436 0115 0B       		.uleb128 0xb
 1437 0116 01       		.byte	0x1
 1438 0117 11       		.uleb128 0x11
 1439 0118 01       		.uleb128 0x1
 1440 0119 12       		.uleb128 0x12
 1441 011a 01       		.uleb128 0x1
 1442 011b 00       		.byte	0x0
 1443 011c 00       		.byte	0x0
 1444 011d 18       		.uleb128 0x18
 1445 011e 2E       		.uleb128 0x2e
 1446 011f 01       		.byte	0x1
 1447 0120 3F       		.uleb128 0x3f
 1448 0121 0C       		.uleb128 0xc
 1449 0122 03       		.uleb128 0x3
 1450 0123 0E       		.uleb128 0xe
 1451 0124 3A       		.uleb128 0x3a
 1452 0125 0B       		.uleb128 0xb
 1453 0126 3B       		.uleb128 0x3b
 1454 0127 0B       		.uleb128 0xb
 1455 0128 27       		.uleb128 0x27
 1456 0129 0C       		.uleb128 0xc
 1457 012a 11       		.uleb128 0x11
 1458 012b 01       		.uleb128 0x1
 1459 012c 12       		.uleb128 0x12
 1460 012d 01       		.uleb128 0x1
 1461 012e 40       		.uleb128 0x40
 1462 012f 06       		.uleb128 0x6
 1463 0130 01       		.uleb128 0x1
 1464 0131 13       		.uleb128 0x13
 1465 0132 00       		.byte	0x0
 1466 0133 00       		.byte	0x0
 1467 0134 19       		.uleb128 0x19
 1468 0135 0B       		.uleb128 0xb
 1469 0136 01       		.byte	0x1
 1470 0137 11       		.uleb128 0x11
 1471 0138 01       		.uleb128 0x1
 1472 0139 12       		.uleb128 0x12
 1473 013a 01       		.uleb128 0x1
 1474 013b 01       		.uleb128 0x1
 1475 013c 13       		.uleb128 0x13
 1476 013d 00       		.byte	0x0
 1477 013e 00       		.byte	0x0
ARM GAS  C:\Users\DNIEL~1\AppData\Local\Temp\cc3FOZrA.s 			page 27


 1478 013f 1A       		.uleb128 0x1a
 1479 0140 0B       		.uleb128 0xb
 1480 0141 01       		.byte	0x1
 1481 0142 55       		.uleb128 0x55
 1482 0143 06       		.uleb128 0x6
 1483 0144 00       		.byte	0x0
 1484 0145 00       		.byte	0x0
 1485 0146 1B       		.uleb128 0x1b
 1486 0147 2E       		.uleb128 0x2e
 1487 0148 01       		.byte	0x1
 1488 0149 3F       		.uleb128 0x3f
 1489 014a 0C       		.uleb128 0xc
 1490 014b 03       		.uleb128 0x3
 1491 014c 0E       		.uleb128 0xe
 1492 014d 3A       		.uleb128 0x3a
 1493 014e 0B       		.uleb128 0xb
 1494 014f 3B       		.uleb128 0x3b
 1495 0150 0B       		.uleb128 0xb
 1496 0151 27       		.uleb128 0x27
 1497 0152 0C       		.uleb128 0xc
 1498 0153 11       		.uleb128 0x11
 1499 0154 01       		.uleb128 0x1
 1500 0155 12       		.uleb128 0x12
 1501 0156 01       		.uleb128 0x1
 1502 0157 40       		.uleb128 0x40
 1503 0158 06       		.uleb128 0x6
 1504 0159 00       		.byte	0x0
 1505 015a 00       		.byte	0x0
 1506 015b 00       		.byte	0x0
 1507              		.section	.debug_pubnames,"",%progbits
 1508 0000 27000000 		.4byte	0x27
 1509 0004 0200     		.2byte	0x2
 1510 0006 00000000 		.4byte	.Ldebug_info0
 1511 000a 39060000 		.4byte	0x639
 1512 000e 82050000 		.4byte	0x582
 1513 0012 65767453 		.ascii	"evtStart\000"
 1513      74617274 
 1513      00
 1514 001b DD050000 		.4byte	0x5dd
 1515 001f 65767453 		.ascii	"evtStop\000"
 1515      746F7000 
 1516 0027 00000000 		.4byte	0x0
 1517              		.section	.debug_pubtypes,"",%progbits
 1518 0000 98010000 		.4byte	0x198
 1519 0004 0200     		.2byte	0x2
 1520 0006 00000000 		.4byte	.Ldebug_info0
 1521 000a 39060000 		.4byte	0x639
 1522 000e 3E000000 		.4byte	0x3e
 1523 0012 75696E74 		.ascii	"uint8_t\000"
 1523      385F7400 
 1524 001a 5E000000 		.4byte	0x5e
 1525 001e 696E7433 		.ascii	"int32_t\000"
 1525      325F7400 
 1526 0026 70000000 		.4byte	0x70
 1527 002a 75696E74 		.ascii	"uint32_t\000"
 1527      33325F74 
 1527      00
ARM GAS  C:\Users\DNIEL~1\AppData\Local\Temp\cc3FOZrA.s 			page 28


 1528 0033 97000000 		.4byte	0x97
 1529 0037 746D6F64 		.ascii	"tmode_t\000"
 1529      655F7400 
 1530 003f A2000000 		.4byte	0xa2
 1531 0043 74737461 		.ascii	"tstate_t\000"
 1531      74655F74 
 1531      00
 1532 004c AD000000 		.4byte	0xad
 1533 0050 74726566 		.ascii	"trefs_t\000"
 1533      735F7400 
 1534 0058 B8000000 		.4byte	0xb8
 1535 005c 74736C69 		.ascii	"tslices_t\000"
 1535      6365735F 
 1535      7400
 1536 0066 C3000000 		.4byte	0xc3
 1537 006a 74707269 		.ascii	"tprio_t\000"
 1537      6F5F7400 
 1538 0072 CE000000 		.4byte	0xce
 1539 0076 6D73675F 		.ascii	"msg_t\000"
 1539      7400
 1540 007c D9000000 		.4byte	0xd9
 1541 0080 6576656E 		.ascii	"eventmask_t\000"
 1541      746D6173 
 1541      6B5F7400 
 1542 008c E4000000 		.4byte	0xe4
 1543 0090 666C6167 		.ascii	"flagsmask_t\000"
 1543      736D6173 
 1543      6B5F7400 
 1544 009c EF000000 		.4byte	0xef
 1545 00a0 73797374 		.ascii	"systime_t\000"
 1545      696D655F 
 1545      7400
 1546 00aa FA000000 		.4byte	0xfa
 1547 00ae 54687265 		.ascii	"Thread\000"
 1547      616400
 1548 00b5 55020000 		.4byte	0x255
 1549 00b9 54687265 		.ascii	"ThreadsQueue\000"
 1549      61647351 
 1549      75657565 
 1549      00
 1550 00c6 77020000 		.4byte	0x277
 1551 00ca 54687265 		.ascii	"ThreadsList\000"
 1551      6164734C 
 1551      69737400 
 1552 00d6 82020000 		.4byte	0x282
 1553 00da 72656761 		.ascii	"regarm_t\000"
 1553      726D5F74 
 1553      00
 1554 00e3 8F020000 		.4byte	0x28f
 1555 00e7 696E7463 		.ascii	"intctx\000"
 1555      747800
 1556 00ee 1D030000 		.4byte	0x31d
 1557 00f2 636F6E74 		.ascii	"context\000"
 1557      65787400 
 1558 00fa 40030000 		.4byte	0x340
 1559 00fe 76746675 		.ascii	"vtfunc_t\000"
 1559      6E635F74 
ARM GAS  C:\Users\DNIEL~1\AppData\Local\Temp\cc3FOZrA.s 			page 29


 1559      00
 1560 0107 5D030000 		.4byte	0x35d
 1561 010b 56697274 		.ascii	"VirtualTimer\000"
 1561      75616C54 
 1561      696D6572 
 1561      00
 1562 0118 68030000 		.4byte	0x368
 1563 011c 56697274 		.ascii	"VirtualTimer\000"
 1563      75616C54 
 1563      696D6572 
 1563      00
 1564 0129 C6030000 		.4byte	0x3c6
 1565 012d 4D757465 		.ascii	"Mutex\000"
 1565      7800
 1566 0133 03040000 		.4byte	0x403
 1567 0137 4D757465 		.ascii	"Mutex\000"
 1567      7800
 1568 013d 0E040000 		.4byte	0x40e
 1569 0141 4576656E 		.ascii	"EventListener\000"
 1569      744C6973 
 1569      74656E65 
 1569      7200
 1570 014f 19040000 		.4byte	0x419
 1571 0153 4576656E 		.ascii	"EventListener\000"
 1571      744C6973 
 1571      74656E65 
 1571      7200
 1572 0161 64040000 		.4byte	0x464
 1573 0165 4576656E 		.ascii	"EventSource\000"
 1573      74536F75 
 1573      72636500 
 1574 0171 7F040000 		.4byte	0x47f
 1575 0175 4576656E 		.ascii	"EventSource\000"
 1575      74536F75 
 1575      72636500 
 1576 0181 05010000 		.4byte	0x105
 1577 0185 54687265 		.ascii	"Thread\000"
 1577      616400
 1578 018c 0A050000 		.4byte	0x50a
 1579 0190 45765469 		.ascii	"EvTimer\000"
 1579      6D657200 
 1580 0198 00000000 		.4byte	0x0
 1581              		.section	.debug_aranges,"",%progbits
 1582 0000 2C000000 		.4byte	0x2c
 1583 0004 0200     		.2byte	0x2
 1584 0006 00000000 		.4byte	.Ldebug_info0
 1585 000a 04       		.byte	0x4
 1586 000b 00       		.byte	0x0
 1587 000c 0000     		.2byte	0x0
 1588 000e 0000     		.2byte	0x0
 1589 0010 00000000 		.4byte	.LFB7
 1590 0014 2C000000 		.4byte	.LFE7-.LFB7
 1591 0018 00000000 		.4byte	.LFB8
 1592 001c 2C000000 		.4byte	.LFE8-.LFB8
 1593 0020 00000000 		.4byte	.LFB9
 1594 0024 18000000 		.4byte	.LFE9-.LFB9
 1595 0028 00000000 		.4byte	0x0
ARM GAS  C:\Users\DNIEL~1\AppData\Local\Temp\cc3FOZrA.s 			page 30


 1596 002c 00000000 		.4byte	0x0
 1597              		.section	.debug_ranges,"",%progbits
 1598              	.Ldebug_ranges0:
 1599 0000 02000000 		.4byte	.LBB2
 1600 0004 04000000 		.4byte	.LBE2
 1601 0008 06000000 		.4byte	.LBB3
 1602 000c 0A000000 		.4byte	.LBE3
 1603 0010 00000000 		.4byte	0x0
 1604 0014 00000000 		.4byte	0x0
 1605 0018 0C000000 		.4byte	.LBB6
 1606 001c 12000000 		.4byte	.LBE6
 1607 0020 1E000000 		.4byte	.LBB7
 1608 0024 24000000 		.4byte	.LBE7
 1609 0028 00000000 		.4byte	0x0
 1610 002c 00000000 		.4byte	0x0
 1611 0030 00000000 		.4byte	.LFB7
 1612 0034 2C000000 		.4byte	.LFE7
 1613 0038 00000000 		.4byte	.LFB8
 1614 003c 2C000000 		.4byte	.LFE8
 1615 0040 00000000 		.4byte	.LFB9
 1616 0044 18000000 		.4byte	.LFE9
 1617 0048 00000000 		.4byte	0x0
 1618 004c 00000000 		.4byte	0x0
 1619              		.section	.debug_str,"MS",%progbits,1
 1620              	.LASF72:
 1621 0000 65745F69 		.ascii	"et_interval\000"
 1621      6E746572 
 1621      76616C00 
 1622              	.LASF37:
 1623 000c 705F6D73 		.ascii	"p_msg\000"
 1623      6700
 1624              	.LASF75:
 1625 0012 2E2E2F2E 		.ascii	"../../../ChibiOS/os/various/evtimer.c\000"
 1625      2E2F2E2E 
 1625      2F436869 
 1625      62694F53 
 1625      2F6F732F 
 1626              	.LASF65:
 1627 0038 7264796D 		.ascii	"rdymsg\000"
 1627      736700
 1628              	.LASF11:
 1629 003f 6C6F6E67 		.ascii	"long long unsigned int\000"
 1629      206C6F6E 
 1629      6720756E 
 1629      7369676E 
 1629      65642069 
 1630              	.LASF66:
 1631 0056 65786974 		.ascii	"exitcode\000"
 1631      636F6465 
 1631      00
 1632              	.LASF78:
 1633 005f 65767453 		.ascii	"evtStart\000"
 1633      74617274 
 1633      00
 1634              	.LASF25:
 1635 0068 705F7072 		.ascii	"p_prio\000"
 1635      696F00
ARM GAS  C:\Users\DNIEL~1\AppData\Local\Temp\cc3FOZrA.s 			page 31


 1636              	.LASF10:
 1637 006f 6C6F6E67 		.ascii	"long long int\000"
 1637      206C6F6E 
 1637      6720696E 
 1637      7400
 1638              	.LASF1:
 1639 007d 7369676E 		.ascii	"signed char\000"
 1639      65642063 
 1639      68617200 
 1640              	.LASF73:
 1641 0089 45765469 		.ascii	"EvTimer\000"
 1641      6D657200 
 1642              	.LASF41:
 1643 0091 705F6D70 		.ascii	"p_mpool\000"
 1643      6F6F6C00 
 1644              	.LASF55:
 1645 0099 6D5F7175 		.ascii	"m_queue\000"
 1645      65756500 
 1646              	.LASF76:
 1647 00a1 433A5C44 		.ascii	"C:\\Dani\\MegaLux\\Repo\\Smarty\\Smarty\\smarty\\fi"
 1647      616E695C 
 1647      4D656761 
 1647      4C75785C 
 1647      5265706F 
 1648 00cd 726D7761 		.ascii	"rmware\000"
 1648      726500
 1649              	.LASF7:
 1650 00d4 6C6F6E67 		.ascii	"long int\000"
 1650      20696E74 
 1650      00
 1651              	.LASF14:
 1652 00dd 74737461 		.ascii	"tstate_t\000"
 1652      74655F74 
 1652      00
 1653              	.LASF27:
 1654 00e6 705F6E65 		.ascii	"p_newer\000"
 1654      77657200 
 1655              	.LASF44:
 1656 00ee 72656761 		.ascii	"regarm_t\000"
 1656      726D5F74 
 1656      00
 1657              	.LASF50:
 1658 00f7 76745F70 		.ascii	"vt_prev\000"
 1658      72657600 
 1659              	.LASF63:
 1660 00ff 4576656E 		.ascii	"EventSource\000"
 1660      74536F75 
 1660      72636500 
 1661              	.LASF0:
 1662 010b 756E7369 		.ascii	"unsigned int\000"
 1662      676E6564 
 1662      20696E74 
 1662      00
 1663              	.LASF49:
 1664 0118 76745F6E 		.ascii	"vt_next\000"
 1664      65787400 
 1665              	.LASF9:
ARM GAS  C:\Users\DNIEL~1\AppData\Local\Temp\cc3FOZrA.s 			page 32


 1666 0120 6C6F6E67 		.ascii	"long unsigned int\000"
 1666      20756E73 
 1666      69676E65 
 1666      6420696E 
 1666      7400
 1667              	.LASF46:
 1668 0132 636F6E74 		.ascii	"context\000"
 1668      65787400 
 1669              	.LASF4:
 1670 013a 73686F72 		.ascii	"short unsigned int\000"
 1670      7420756E 
 1670      7369676E 
 1670      65642069 
 1670      6E7400
 1671              	.LASF18:
 1672 014d 6D73675F 		.ascii	"msg_t\000"
 1672      7400
 1673              	.LASF59:
 1674 0153 656C5F6E 		.ascii	"el_next\000"
 1674      65787400 
 1675              	.LASF13:
 1676 015b 746D6F64 		.ascii	"tmode_t\000"
 1676      655F7400 
 1677              	.LASF43:
 1678 0163 54687265 		.ascii	"ThreadsList\000"
 1678      6164734C 
 1678      69737400 
 1679              	.LASF19:
 1680 016f 6576656E 		.ascii	"eventmask_t\000"
 1680      746D6173 
 1680      6B5F7400 
 1681              	.LASF54:
 1682 017b 4D757465 		.ascii	"Mutex\000"
 1682      7800
 1683              	.LASF51:
 1684 0181 76745F74 		.ascii	"vt_time\000"
 1684      696D6500 
 1685              	.LASF71:
 1686 0189 65745F65 		.ascii	"et_es\000"
 1686      7300
 1687              	.LASF52:
 1688 018f 76745F66 		.ascii	"vt_func\000"
 1688      756E6300 
 1689              	.LASF28:
 1690 0197 705F6F6C 		.ascii	"p_older\000"
 1690      64657200 
 1691              	.LASF42:
 1692 019f 54687265 		.ascii	"ThreadsQueue\000"
 1692      61647351 
 1692      75657565 
 1692      00
 1693              	.LASF61:
 1694 01ac 656C5F6D 		.ascii	"el_mask\000"
 1694      61736B00 
 1695              	.LASF15:
 1696 01b4 74726566 		.ascii	"trefs_t\000"
 1696      735F7400 
ARM GAS  C:\Users\DNIEL~1\AppData\Local\Temp\cc3FOZrA.s 			page 33


 1697              	.LASF24:
 1698 01bc 705F7072 		.ascii	"p_prev\000"
 1698      657600
 1699              	.LASF17:
 1700 01c3 74707269 		.ascii	"tprio_t\000"
 1700      6F5F7400 
 1701              	.LASF12:
 1702 01cb 5F426F6F 		.ascii	"_Bool\000"
 1702      6C00
 1703              	.LASF6:
 1704 01d1 696E7433 		.ascii	"int32_t\000"
 1704      325F7400 
 1705              	.LASF2:
 1706 01d9 756E7369 		.ascii	"unsigned char\000"
 1706      676E6564 
 1706      20636861 
 1706      7200
 1707              	.LASF60:
 1708 01e7 656C5F6C 		.ascii	"el_listener\000"
 1708      69737465 
 1708      6E657200 
 1709              	.LASF62:
 1710 01f3 656C5F66 		.ascii	"el_flags\000"
 1710      6C616773 
 1710      00
 1711              	.LASF39:
 1712 01fc 705F6D74 		.ascii	"p_mtxlist\000"
 1712      786C6973 
 1712      7400
 1713              	.LASF3:
 1714 0206 73686F72 		.ascii	"short int\000"
 1714      7420696E 
 1714      7400
 1715              	.LASF30:
 1716 0210 705F7374 		.ascii	"p_state\000"
 1716      61746500 
 1717              	.LASF33:
 1718 0218 705F7072 		.ascii	"p_preempt\000"
 1718      65656D70 
 1718      7400
 1719              	.LASF68:
 1720 0222 65776D61 		.ascii	"ewmask\000"
 1720      736B00
 1721              	.LASF23:
 1722 0229 705F6E65 		.ascii	"p_next\000"
 1722      787400
 1723              	.LASF31:
 1724 0230 705F666C 		.ascii	"p_flags\000"
 1724      61677300 
 1725              	.LASF22:
 1726 0238 54687265 		.ascii	"Thread\000"
 1726      616400
 1727              	.LASF38:
 1728 023f 705F6570 		.ascii	"p_epending\000"
 1728      656E6469 
 1728      6E6700
 1729              	.LASF8:
ARM GAS  C:\Users\DNIEL~1\AppData\Local\Temp\cc3FOZrA.s 			page 34


 1730 024a 75696E74 		.ascii	"uint32_t\000"
 1730      33325F74 
 1730      00
 1731              	.LASF48:
 1732 0253 56697274 		.ascii	"VirtualTimer\000"
 1732      75616C54 
 1732      696D6572 
 1732      00
 1733              	.LASF16:
 1734 0260 74736C69 		.ascii	"tslices_t\000"
 1734      6365735F 
 1734      7400
 1735              	.LASF69:
 1736 026a 63686172 		.ascii	"char\000"
 1736      00
 1737              	.LASF77:
 1738 026f 746D7263 		.ascii	"tmrcb\000"
 1738      6200
 1739              	.LASF57:
 1740 0275 6D5F6E65 		.ascii	"m_next\000"
 1740      787400
 1741              	.LASF21:
 1742 027c 73797374 		.ascii	"systime_t\000"
 1742      696D655F 
 1742      7400
 1743              	.LASF40:
 1744 0286 705F7265 		.ascii	"p_realprio\000"
 1744      616C7072 
 1744      696F00
 1745              	.LASF47:
 1746 0291 76746675 		.ascii	"vtfunc_t\000"
 1746      6E635F74 
 1746      00
 1747              	.LASF79:
 1748 029a 65767453 		.ascii	"evtStop\000"
 1748      746F7000 
 1749              	.LASF34:
 1750 02a2 705F7469 		.ascii	"p_time\000"
 1750      6D6500
 1751              	.LASF45:
 1752 02a9 696E7463 		.ascii	"intctx\000"
 1752      747800
 1753              	.LASF36:
 1754 02b0 705F6D73 		.ascii	"p_msgqueue\000"
 1754      67717565 
 1754      756500
 1755              	.LASF53:
 1756 02bb 76745F70 		.ascii	"vt_par\000"
 1756      617200
 1757              	.LASF20:
 1758 02c2 666C6167 		.ascii	"flagsmask_t\000"
 1758      736D6173 
 1758      6B5F7400 
 1759              	.LASF32:
 1760 02ce 705F7265 		.ascii	"p_refs\000"
 1760      667300
 1761              	.LASF5:
ARM GAS  C:\Users\DNIEL~1\AppData\Local\Temp\cc3FOZrA.s 			page 35


 1762 02d5 75696E74 		.ascii	"uint8_t\000"
 1762      385F7400 
 1763              	.LASF58:
 1764 02dd 4576656E 		.ascii	"EventListener\000"
 1764      744C6973 
 1764      74656E65 
 1764      7200
 1765              	.LASF67:
 1766 02eb 77746F62 		.ascii	"wtobjp\000"
 1766      6A7000
 1767              	.LASF74:
 1768 02f2 474E5520 		.ascii	"GNU C 4.5.2\000"
 1768      4320342E 
 1768      352E3200 
 1769              	.LASF29:
 1770 02fe 705F6E61 		.ascii	"p_name\000"
 1770      6D6500
 1771              	.LASF64:
 1772 0305 65735F6E 		.ascii	"es_next\000"
 1772      65787400 
 1773              	.LASF70:
 1774 030d 65745F76 		.ascii	"et_vt\000"
 1774      7400
 1775              	.LASF56:
 1776 0313 6D5F6F77 		.ascii	"m_owner\000"
 1776      6E657200 
 1777              	.LASF26:
 1778 031b 705F6374 		.ascii	"p_ctx\000"
 1778      7800
 1779              	.LASF35:
 1780 0321 705F7761 		.ascii	"p_waiting\000"
 1780      6974696E 
 1780      6700
 1781              		.ident	"GCC: (Sourcery G++ Lite 2011.03-42) 4.5.2"
ARM GAS  C:\Users\DNIEL~1\AppData\Local\Temp\cc3FOZrA.s 			page 36


DEFINED SYMBOLS
                            *ABS*:00000000 evtimer.c
C:\Users\DNIEL~1\AppData\Local\Temp\cc3FOZrA.s:24     .text.tmrcb:00000000 $t
C:\Users\DNIEL~1\AppData\Local\Temp\cc3FOZrA.s:29     .text.tmrcb:00000000 tmrcb
C:\Users\DNIEL~1\AppData\Local\Temp\cc3FOZrA.s:85     .text.tmrcb:00000028 $d
C:\Users\DNIEL~1\AppData\Local\Temp\cc3FOZrA.s:90     .text.evtStart:00000000 $t
C:\Users\DNIEL~1\AppData\Local\Temp\cc3FOZrA.s:96     .text.evtStart:00000000 evtStart
C:\Users\DNIEL~1\AppData\Local\Temp\cc3FOZrA.s:156    .text.evtStart:00000028 $d
C:\Users\DNIEL~1\AppData\Local\Temp\cc3FOZrA.s:161    .text.evtStop:00000000 $t
C:\Users\DNIEL~1\AppData\Local\Temp\cc3FOZrA.s:167    .text.evtStop:00000000 evtStop
                     .debug_frame:00000010 $d
C:\Users\DNIEL~1\AppData\Local\Temp\cc3FOZrA.s:89     .text.tmrcb:0000002c $t
C:\Users\DNIEL~1\AppData\Local\Temp\cc3FOZrA.s:160    .text.evtStart:0000002c $t

UNDEFINED SYMBOLS
chEvtBroadcastFlagsI
chVTSetI
chVTResetI
