ARM GAS  C:\Users\danit\AppData\Local\Temp\cc6bi5Kf.s 			page 1


   1              		.syntax unified
   2              		.cpu cortex-m4
   3              		.fpu softvfp
   4              		.eabi_attribute 20, 1
   5              		.eabi_attribute 21, 1
   6              		.eabi_attribute 23, 3
   7              		.eabi_attribute 24, 1
   8              		.eabi_attribute 25, 1
   9              		.eabi_attribute 26, 1
  10              		.eabi_attribute 30, 2
  11              		.eabi_attribute 34, 1
  12              		.eabi_attribute 18, 4
  13              		.thumb
  14              		.file	"fatfs_diskio.c"
  15              		.text
  16              	.Ltext0:
  17              		.cfi_sections	.debug_frame
  18              		.section	.text.disk_initialize,"ax",%progbits
  19              		.align	2
  20              		.p2align 4,,15
  21              		.global	disk_initialize
  22              		.thumb
  23              		.thumb_func
  24              		.type	disk_initialize, %function
  25              	disk_initialize:
  26              	.LFB118:
  27              		.file 1 "../../../ChibiOS/os/various/fatfs_bindings/fatfs_diskio.c"
  28              		.loc 1 44 0
  29              		.cfi_startproc
  30              		@ args = 0, pretend = 0, frame = 0
  31              		@ frame_needed = 0, uses_anonymous_args = 0
  32              	.LVL0:
  33 0000 10B5     		push	{r4, lr}
  34              		.cfi_def_cfa_offset 8
  35              		.cfi_offset 4, -8
  36              		.cfi_offset 14, -4
  37              		.loc 1 47 0
  38 0002 10B1     		cbz	r0, .L11
  39              		.loc 1 68 0
  40 0004 0224     		movs	r4, #2
  41              	.LVL1:
  42              	.L2:
  43              		.loc 1 69 0
  44 0006 2046     		mov	r0, r4
  45 0008 10BD     		pop	{r4, pc}
  46              	.LVL2:
  47              	.L11:
  48              		.loc 1 61 0
  49 000a 0748     		ldr	r0, .L12
  50              	.LVL3:
  51 000c 0479     		ldrb	r4, [r0, #4]	@ zero_extendqisi2
  52              		.loc 1 59 0
  53 000e 053C     		subs	r4, r4, #5
  54 0010 18BF     		it	ne
  55 0012 0124     		movne	r4, #1
  56              	.LVL4:
  57              		.loc 1 63 0
ARM GAS  C:\Users\danit\AppData\Local\Temp\cc6bi5Kf.s 			page 2


  58 0014 FFF7FEFF 		bl	sdc_lld_is_write_protected
  59              	.LVL5:
  60 0018 0028     		cmp	r0, #0
  61 001a F4D0     		beq	.L2
  62              		.loc 1 64 0
  63 001c 44F00404 		orr	r4, r4, #4
  64              	.LVL6:
  65 0020 E4B2     		uxtb	r4, r4
  66              		.loc 1 69 0
  67 0022 2046     		mov	r0, r4
  68 0024 10BD     		pop	{r4, pc}
  69              	.L13:
  70 0026 00BF     		.align	2
  71              	.L12:
  72 0028 00000000 		.word	SDCD1
  73              		.cfi_endproc
  74              	.LFE118:
  75              		.size	disk_initialize, .-disk_initialize
  76              		.section	.text.disk_status,"ax",%progbits
  77              		.align	2
  78              		.p2align 4,,15
  79              		.global	disk_status
  80              		.thumb
  81              		.thumb_func
  82              		.type	disk_status, %function
  83              	disk_status:
  84              	.LFB119:
  85              		.loc 1 79 0
  86              		.cfi_startproc
  87              		@ args = 0, pretend = 0, frame = 0
  88              		@ frame_needed = 0, uses_anonymous_args = 0
  89              	.LVL7:
  90 0000 10B5     		push	{r4, lr}
  91              		.cfi_def_cfa_offset 8
  92              		.cfi_offset 4, -8
  93              		.cfi_offset 14, -4
  94              		.loc 1 82 0
  95 0002 10B1     		cbz	r0, .L23
  96              		.loc 1 103 0
  97 0004 0224     		movs	r4, #2
  98              	.LVL8:
  99              	.L15:
 100              		.loc 1 104 0
 101 0006 2046     		mov	r0, r4
 102 0008 10BD     		pop	{r4, pc}
 103              	.LVL9:
 104              	.L23:
 105              		.loc 1 96 0
 106 000a 0748     		ldr	r0, .L24
 107              	.LVL10:
 108 000c 0479     		ldrb	r4, [r0, #4]	@ zero_extendqisi2
 109              		.loc 1 94 0
 110 000e 053C     		subs	r4, r4, #5
 111 0010 18BF     		it	ne
 112 0012 0124     		movne	r4, #1
 113              	.LVL11:
 114              		.loc 1 98 0
ARM GAS  C:\Users\danit\AppData\Local\Temp\cc6bi5Kf.s 			page 3


 115 0014 FFF7FEFF 		bl	sdc_lld_is_write_protected
 116              	.LVL12:
 117 0018 0028     		cmp	r0, #0
 118 001a F4D0     		beq	.L15
 119              		.loc 1 99 0
 120 001c 44F00404 		orr	r4, r4, #4
 121              	.LVL13:
 122 0020 E4B2     		uxtb	r4, r4
 123              		.loc 1 104 0
 124 0022 2046     		mov	r0, r4
 125 0024 10BD     		pop	{r4, pc}
 126              	.L25:
 127 0026 00BF     		.align	2
 128              	.L24:
 129 0028 00000000 		.word	SDCD1
 130              		.cfi_endproc
 131              	.LFE119:
 132              		.size	disk_status, .-disk_status
 133              		.section	.text.disk_read,"ax",%progbits
 134              		.align	2
 135              		.p2align 4,,15
 136              		.global	disk_read
 137              		.thumb
 138              		.thumb_func
 139              		.type	disk_read, %function
 140              	disk_read:
 141              	.LFB120:
 142              		.loc 1 117 0
 143              		.cfi_startproc
 144              		@ args = 0, pretend = 0, frame = 0
 145              		@ frame_needed = 0, uses_anonymous_args = 0
 146              		@ link register save eliminated.
 147              	.LVL14:
 148              		.loc 1 118 0
 149 0000 08B1     		cbz	r0, .L33
 150              		.loc 1 143 0
 151 0002 0420     		movs	r0, #4
 152              	.LVL15:
 153              		.loc 1 144 0
 154 0004 7047     		bx	lr
 155              	.LVL16:
 156              	.L33:
 157              		.loc 1 136 0
 158 0006 0848     		ldr	r0, .L35
 159              	.LVL17:
 160              		.loc 1 117 0
 161 0008 10B4     		push	{r4}
 162              		.cfi_def_cfa_offset 4
 163              		.cfi_offset 4, -4
 164 000a 0C46     		mov	r4, r1
 165              		.loc 1 136 0
 166 000c 0179     		ldrb	r1, [r0, #4]	@ zero_extendqisi2
 167              	.LVL18:
 168 000e 0529     		cmp	r1, #5
 169 0010 03D0     		beq	.L34
 170              		.loc 1 137 0
 171 0012 0320     		movs	r0, #3
ARM GAS  C:\Users\danit\AppData\Local\Temp\cc6bi5Kf.s 			page 4


 172              		.loc 1 144 0
 173 0014 5DF8044B 		ldr	r4, [sp], #4
 174              		.cfi_remember_state
 175              		.cfi_restore 4
 176              		.cfi_def_cfa_offset 0
 177              	.LVL19:
 178 0018 7047     		bx	lr
 179              	.LVL20:
 180              	.L34:
 181              		.cfi_restore_state
 182              		.loc 1 138 0
 183 001a 1146     		mov	r1, r2
 184 001c 2246     		mov	r2, r4
 185              	.LVL21:
 186              		.loc 1 144 0
 187 001e 5DF8044B 		ldr	r4, [sp], #4
 188              		.cfi_restore 4
 189              		.cfi_def_cfa_offset 0
 190              	.LVL22:
 191              		.loc 1 138 0
 192 0022 FFF7FEBF 		b	sdcRead
 193              	.LVL23:
 194              	.L36:
 195 0026 00BF     		.align	2
 196              	.L35:
 197 0028 00000000 		.word	SDCD1
 198              		.cfi_endproc
 199              	.LFE120:
 200              		.size	disk_read, .-disk_read
 201              		.section	.text.disk_write,"ax",%progbits
 202              		.align	2
 203              		.p2align 4,,15
 204              		.global	disk_write
 205              		.thumb
 206              		.thumb_func
 207              		.type	disk_write, %function
 208              	disk_write:
 209              	.LFB121:
 210              		.loc 1 158 0
 211              		.cfi_startproc
 212              		@ args = 0, pretend = 0, frame = 0
 213              		@ frame_needed = 0, uses_anonymous_args = 0
 214              		@ link register save eliminated.
 215              	.LVL24:
 216              		.loc 1 159 0
 217 0000 08B1     		cbz	r0, .L44
 218              		.loc 1 186 0
 219 0002 0420     		movs	r0, #4
 220              	.LVL25:
 221              		.loc 1 187 0
 222 0004 7047     		bx	lr
 223              	.LVL26:
 224              	.L44:
 225              		.loc 1 179 0
 226 0006 0848     		ldr	r0, .L46
 227              	.LVL27:
 228              		.loc 1 158 0
ARM GAS  C:\Users\danit\AppData\Local\Temp\cc6bi5Kf.s 			page 5


 229 0008 10B4     		push	{r4}
 230              		.cfi_def_cfa_offset 4
 231              		.cfi_offset 4, -4
 232 000a 0C46     		mov	r4, r1
 233              		.loc 1 179 0
 234 000c 0179     		ldrb	r1, [r0, #4]	@ zero_extendqisi2
 235              	.LVL28:
 236 000e 0529     		cmp	r1, #5
 237 0010 03D0     		beq	.L45
 238              		.loc 1 180 0
 239 0012 0320     		movs	r0, #3
 240              		.loc 1 187 0
 241 0014 5DF8044B 		ldr	r4, [sp], #4
 242              		.cfi_remember_state
 243              		.cfi_restore 4
 244              		.cfi_def_cfa_offset 0
 245              	.LVL29:
 246 0018 7047     		bx	lr
 247              	.LVL30:
 248              	.L45:
 249              		.cfi_restore_state
 250              		.loc 1 181 0
 251 001a 1146     		mov	r1, r2
 252 001c 2246     		mov	r2, r4
 253              	.LVL31:
 254              		.loc 1 187 0
 255 001e 5DF8044B 		ldr	r4, [sp], #4
 256              		.cfi_restore 4
 257              		.cfi_def_cfa_offset 0
 258              	.LVL32:
 259              		.loc 1 181 0
 260 0022 FFF7FEBF 		b	sdcWrite
 261              	.LVL33:
 262              	.L47:
 263 0026 00BF     		.align	2
 264              	.L46:
 265 0028 00000000 		.word	SDCD1
 266              		.cfi_endproc
 267              	.LFE121:
 268              		.size	disk_write, .-disk_write
 269              		.section	.text.disk_ioctl,"ax",%progbits
 270              		.align	2
 271              		.p2align 4,,15
 272              		.global	disk_ioctl
 273              		.thumb
 274              		.thumb_func
 275              		.type	disk_ioctl, %function
 276              	disk_ioctl:
 277              	.LFB122:
 278              		.loc 1 200 0
 279              		.cfi_startproc
 280              		@ args = 0, pretend = 0, frame = 0
 281              		@ frame_needed = 0, uses_anonymous_args = 0
 282              	.LVL34:
 283              		.loc 1 201 0
 284 0000 08B1     		cbz	r0, .L61
 285              		.loc 1 242 0
ARM GAS  C:\Users\danit\AppData\Local\Temp\cc6bi5Kf.s 			page 6


 286 0002 0420     		movs	r0, #4
 287              	.LVL35:
 288              		.loc 1 243 0
 289 0004 7047     		bx	lr
 290              	.LVL36:
 291              	.L61:
 292              		.loc 1 200 0
 293 0006 08B5     		push	{r3, lr}
 294              		.cfi_def_cfa_offset 8
 295              		.cfi_offset 3, -8
 296              		.cfi_offset 14, -4
 297              		.loc 1 220 0
 298 0008 0429     		cmp	r1, #4
 299 000a 1BD8     		bhi	.L51
 300 000c DFE801F0 		tbb	[pc, r1]
 301              	.L52:
 302 0010 03       		.byte	(.L58-.L52)/2
 303 0011 15       		.byte	(.L53-.L52)/2
 304 0012 10       		.byte	(.L54-.L52)/2
 305 0013 0B       		.byte	(.L55-.L52)/2
 306 0014 05       		.byte	(.L56-.L52)/2
 307 0015 00       		.p2align 1
 308              	.L58:
 309              		.loc 1 222 0
 310 0016 0020     		movs	r0, #0
 311              	.LVL37:
 312              		.loc 1 243 0
 313 0018 08BD     		pop	{r3, pc}
 314              	.LVL38:
 315              	.L56:
 316              		.loc 1 234 0
 317 001a 06CA     		ldmia	r2, {r1, r2}
 318              	.LVL39:
 319 001c 0A48     		ldr	r0, .L62
 320              	.LVL40:
 321 001e FFF7FEFF 		bl	sdcErase
 322              	.LVL41:
 323              		.loc 1 235 0
 324 0022 0020     		movs	r0, #0
 325 0024 08BD     		pop	{r3, pc}
 326              	.LVL42:
 327              	.L55:
 328              		.loc 1 230 0
 329 0026 4FF48073 		mov	r3, #256
 330 002a 1360     		str	r3, [r2]
 331              		.loc 1 231 0
 332 002c 0020     		movs	r0, #0
 333              	.LVL43:
 334 002e 08BD     		pop	{r3, pc}
 335              	.LVL44:
 336              	.L54:
 337              		.loc 1 227 0
 338 0030 4FF40073 		mov	r3, #512
 339 0034 1380     		strh	r3, [r2]	@ movhi
 340              		.loc 1 228 0
 341 0036 0020     		movs	r0, #0
 342              	.LVL45:
ARM GAS  C:\Users\danit\AppData\Local\Temp\cc6bi5Kf.s 			page 7


 343 0038 08BD     		pop	{r3, pc}
 344              	.LVL46:
 345              	.L53:
 346              		.loc 1 224 0
 347 003a 034B     		ldr	r3, .L62
 348 003c 9B6A     		ldr	r3, [r3, #40]
 349 003e 1360     		str	r3, [r2]
 350              		.loc 1 225 0
 351 0040 0020     		movs	r0, #0
 352              	.LVL47:
 353 0042 08BD     		pop	{r3, pc}
 354              	.LVL48:
 355              	.L51:
 356              		.loc 1 238 0
 357 0044 0420     		movs	r0, #4
 358              	.LVL49:
 359 0046 08BD     		pop	{r3, pc}
 360              	.L63:
 361              		.align	2
 362              	.L62:
 363 0048 00000000 		.word	SDCD1
 364              		.cfi_endproc
 365              	.LFE122:
 366              		.size	disk_ioctl, .-disk_ioctl
 367              		.section	.text.get_fattime,"ax",%progbits
 368              		.align	2
 369              		.p2align 4,,15
 370              		.global	get_fattime
 371              		.thumb
 372              		.thumb_func
 373              		.type	get_fattime, %function
 374              	get_fattime:
 375              	.LFB123:
 376              		.loc 1 245 0
 377              		.cfi_startproc
 378              		@ args = 0, pretend = 0, frame = 0
 379              		@ frame_needed = 0, uses_anonymous_args = 0
 380              		@ link register save eliminated.
 381              		.loc 1 247 0
 382 0000 0148     		ldr	r0, .L65
 383 0002 FFF7FEBF 		b	rtcGetTimeFat
 384              	.LVL50:
 385              	.L66:
 386 0006 00BF     		.align	2
 387              	.L65:
 388 0008 00000000 		.word	RTCD1
 389              		.cfi_endproc
 390              	.LFE123:
 391              		.size	get_fattime, .-get_fattime
 392              		.text
 393              	.Letext0:
 394              		.file 2 "c:\\program files (x86)\\gnu tools arm embedded\\4.9 2015q2\\arm-none-eabi\\include\\mach
 395              		.file 3 "c:\\program files (x86)\\gnu tools arm embedded\\4.9 2015q2\\arm-none-eabi\\include\\sys\
 396              		.file 4 "../../../ChibiOS/os/ports/GCC/ARMCMx/chtypes.h"
 397              		.file 5 "../../../ChibiOS/os/kernel/include/chlists.h"
 398              		.file 6 "../../../ChibiOS/os/kernel/include/chthreads.h"
 399              		.file 7 "../../../ChibiOS/os/ports/GCC/ARMCMx/chcore_v7m.h"
ARM GAS  C:\Users\danit\AppData\Local\Temp\cc6bi5Kf.s 			page 8


 400              		.file 8 "../../../ChibiOS/os/kernel/include/chmtx.h"
 401              		.file 9 "../../../ChibiOS/os/hal/platforms/STM32F4xx/stm32f4xx.h"
 402              		.file 10 "../../../ChibiOS/os/hal/platforms/STM32F4xx/stm32_dma.h"
 403              		.file 11 "../../../ChibiOS/os/hal/include/io_block.h"
 404              		.file 12 "../../../ChibiOS/os/hal/include/rtc.h"
 405              		.file 13 "../../../ChibiOS/os/hal/platforms/STM32/RTCv2/rtc_lld.h"
 406              		.file 14 "../../../ChibiOS/os/hal/platforms/STM32/sdc_lld.h"
 407              		.file 15 "../../../ChibiOS/ext/fatfs/src/integer.h"
 408              		.file 16 "../../../ChibiOS/ext/fatfs/src/diskio.h"
 409              		.file 17 "../../../ChibiOS/os/ports/common/ARMCMx/CMSIS/include/core_cm4.h"
 410              		.file 18 "../../../ChibiOS/os/hal/include/sdc.h"
 411              		.section	.debug_info,"",%progbits
 412              	.Ldebug_info0:
 413 0000 430C0000 		.4byte	0xc43
 414 0004 0400     		.2byte	0x4
 415 0006 00000000 		.4byte	.Ldebug_abbrev0
 416 000a 04       		.byte	0x4
 417 000b 01       		.uleb128 0x1
 418 000c A5050000 		.4byte	.LASF170
 419 0010 01       		.byte	0x1
 420 0011 A8030000 		.4byte	.LASF171
 421 0015 CC060000 		.4byte	.LASF172
 422 0019 00000000 		.4byte	.Ldebug_ranges0+0
 423 001d 00000000 		.4byte	0
 424 0021 00000000 		.4byte	.Ldebug_line0
 425 0025 02       		.uleb128 0x2
 426 0026 04       		.byte	0x4
 427 0027 05       		.byte	0x5
 428 0028 696E7400 		.ascii	"int\000"
 429 002c 03       		.uleb128 0x3
 430 002d 04       		.byte	0x4
 431 002e 07       		.byte	0x7
 432 002f 80010000 		.4byte	.LASF0
 433 0033 03       		.uleb128 0x3
 434 0034 01       		.byte	0x1
 435 0035 06       		.byte	0x6
 436 0036 F2000000 		.4byte	.LASF1
 437 003a 04       		.uleb128 0x4
 438 003b 47000000 		.4byte	.LASF5
 439 003f 02       		.byte	0x2
 440 0040 1D       		.byte	0x1d
 441 0041 45000000 		.4byte	0x45
 442 0045 03       		.uleb128 0x3
 443 0046 01       		.byte	0x1
 444 0047 08       		.byte	0x8
 445 0048 12040000 		.4byte	.LASF2
 446 004c 03       		.uleb128 0x3
 447 004d 02       		.byte	0x2
 448 004e 05       		.byte	0x5
 449 004f 30040000 		.4byte	.LASF3
 450 0053 03       		.uleb128 0x3
 451 0054 02       		.byte	0x2
 452 0055 07       		.byte	0x7
 453 0056 78020000 		.4byte	.LASF4
 454 005a 04       		.uleb128 0x4
 455 005b F4020000 		.4byte	.LASF6
 456 005f 02       		.byte	0x2
ARM GAS  C:\Users\danit\AppData\Local\Temp\cc6bi5Kf.s 			page 9


 457 0060 3F       		.byte	0x3f
 458 0061 65000000 		.4byte	0x65
 459 0065 03       		.uleb128 0x3
 460 0066 04       		.byte	0x4
 461 0067 05       		.byte	0x5
 462 0068 5D010000 		.4byte	.LASF7
 463 006c 04       		.uleb128 0x4
 464 006d DD010000 		.4byte	.LASF8
 465 0071 02       		.byte	0x2
 466 0072 41       		.byte	0x41
 467 0073 77000000 		.4byte	0x77
 468 0077 03       		.uleb128 0x3
 469 0078 04       		.byte	0x4
 470 0079 07       		.byte	0x7
 471 007a CE040000 		.4byte	.LASF9
 472 007e 03       		.uleb128 0x3
 473 007f 08       		.byte	0x8
 474 0080 05       		.byte	0x5
 475 0081 E4000000 		.4byte	.LASF10
 476 0085 03       		.uleb128 0x3
 477 0086 08       		.byte	0x8
 478 0087 07       		.byte	0x7
 479 0088 94010000 		.4byte	.LASF11
 480 008c 04       		.uleb128 0x4
 481 008d 9B060000 		.4byte	.LASF12
 482 0091 03       		.byte	0x3
 483 0092 14       		.byte	0x14
 484 0093 3A000000 		.4byte	0x3a
 485 0097 04       		.uleb128 0x4
 486 0098 0A040000 		.4byte	.LASF13
 487 009c 03       		.byte	0x3
 488 009d 1F       		.byte	0x1f
 489 009e 5A000000 		.4byte	0x5a
 490 00a2 04       		.uleb128 0x4
 491 00a3 88050000 		.4byte	.LASF14
 492 00a7 03       		.byte	0x3
 493 00a8 20       		.byte	0x20
 494 00a9 6C000000 		.4byte	0x6c
 495 00ad 04       		.uleb128 0x4
 496 00ae 17010000 		.4byte	.LASF15
 497 00b2 04       		.byte	0x4
 498 00b3 2B       		.byte	0x2b
 499 00b4 B8000000 		.4byte	0xb8
 500 00b8 03       		.uleb128 0x3
 501 00b9 01       		.byte	0x1
 502 00ba 02       		.byte	0x2
 503 00bb 04040000 		.4byte	.LASF16
 504 00bf 04       		.uleb128 0x4
 505 00c0 B8020000 		.4byte	.LASF17
 506 00c4 04       		.byte	0x4
 507 00c5 2C       		.byte	0x2c
 508 00c6 8C000000 		.4byte	0x8c
 509 00ca 04       		.uleb128 0x4
 510 00cb E8010000 		.4byte	.LASF18
 511 00cf 04       		.byte	0x4
 512 00d0 2D       		.byte	0x2d
 513 00d1 8C000000 		.4byte	0x8c
ARM GAS  C:\Users\danit\AppData\Local\Temp\cc6bi5Kf.s 			page 10


 514 00d5 04       		.uleb128 0x4
 515 00d6 93030000 		.4byte	.LASF19
 516 00da 04       		.byte	0x4
 517 00db 2E       		.byte	0x2e
 518 00dc 8C000000 		.4byte	0x8c
 519 00e0 04       		.uleb128 0x4
 520 00e1 C4040000 		.4byte	.LASF20
 521 00e5 04       		.byte	0x4
 522 00e6 2F       		.byte	0x2f
 523 00e7 8C000000 		.4byte	0x8c
 524 00eb 04       		.uleb128 0x4
 525 00ec F5030000 		.4byte	.LASF21
 526 00f0 04       		.byte	0x4
 527 00f1 30       		.byte	0x30
 528 00f2 A2000000 		.4byte	0xa2
 529 00f6 04       		.uleb128 0x4
 530 00f7 9C020000 		.4byte	.LASF22
 531 00fb 04       		.byte	0x4
 532 00fc 31       		.byte	0x31
 533 00fd 97000000 		.4byte	0x97
 534 0101 04       		.uleb128 0x4
 535 0102 E2020000 		.4byte	.LASF23
 536 0106 04       		.byte	0x4
 537 0107 33       		.byte	0x33
 538 0108 A2000000 		.4byte	0xa2
 539 010c 04       		.uleb128 0x4
 540 010d 05050000 		.4byte	.LASF24
 541 0111 04       		.byte	0x4
 542 0112 35       		.byte	0x35
 543 0113 A2000000 		.4byte	0xa2
 544 0117 04       		.uleb128 0x4
 545 0118 82040000 		.4byte	.LASF25
 546 011c 05       		.byte	0x5
 547 011d 2A       		.byte	0x2a
 548 011e 22010000 		.4byte	0x122
 549 0122 05       		.uleb128 0x5
 550 0123 82040000 		.4byte	.LASF25
 551 0127 48       		.byte	0x48
 552 0128 06       		.byte	0x6
 553 0129 5E       		.byte	0x5e
 554 012a 1F020000 		.4byte	0x21f
 555 012e 06       		.uleb128 0x6
 556 012f 74040000 		.4byte	.LASF26
 557 0133 06       		.byte	0x6
 558 0134 5F       		.byte	0x5f
 559 0135 40020000 		.4byte	0x240
 560 0139 00       		.byte	0
 561 013a 06       		.uleb128 0x6
 562 013b 28030000 		.4byte	.LASF27
 563 013f 06       		.byte	0x6
 564 0140 61       		.byte	0x61
 565 0141 40020000 		.4byte	0x240
 566 0145 04       		.byte	0x4
 567 0146 06       		.uleb128 0x6
 568 0147 D8000000 		.4byte	.LASF28
 569 014b 06       		.byte	0x6
 570 014c 63       		.byte	0x63
ARM GAS  C:\Users\danit\AppData\Local\Temp\cc6bi5Kf.s 			page 11


 571 014d EB000000 		.4byte	0xeb
 572 0151 08       		.byte	0x8
 573 0152 06       		.uleb128 0x6
 574 0153 1B070000 		.4byte	.LASF29
 575 0157 06       		.byte	0x6
 576 0158 64       		.byte	0x64
 577 0159 FA020000 		.4byte	0x2fa
 578 015d 0C       		.byte	0xc
 579 015e 06       		.uleb128 0x6
 580 015f B1010000 		.4byte	.LASF30
 581 0163 06       		.byte	0x6
 582 0164 66       		.byte	0x66
 583 0165 40020000 		.4byte	0x240
 584 0169 10       		.byte	0x10
 585 016a 06       		.uleb128 0x6
 586 016b 58040000 		.4byte	.LASF31
 587 016f 06       		.byte	0x6
 588 0170 67       		.byte	0x67
 589 0171 40020000 		.4byte	0x240
 590 0175 14       		.byte	0x14
 591 0176 06       		.uleb128 0x6
 592 0177 97050000 		.4byte	.LASF32
 593 017b 06       		.byte	0x6
 594 017c 6E       		.byte	0x6e
 595 017d A3030000 		.4byte	0x3a3
 596 0181 18       		.byte	0x18
 597 0182 06       		.uleb128 0x6
 598 0183 3A040000 		.4byte	.LASF33
 599 0187 06       		.byte	0x6
 600 0188 79       		.byte	0x79
 601 0189 CA000000 		.4byte	0xca
 602 018d 1C       		.byte	0x1c
 603 018e 06       		.uleb128 0x6
 604 018f 28020000 		.4byte	.LASF34
 605 0193 06       		.byte	0x6
 606 0194 7D       		.byte	0x7d
 607 0195 BF000000 		.4byte	0xbf
 608 0199 1D       		.byte	0x1d
 609 019a 06       		.uleb128 0x6
 610 019b 9E050000 		.4byte	.LASF35
 611 019f 06       		.byte	0x6
 612 01a0 82       		.byte	0x82
 613 01a1 D5000000 		.4byte	0xd5
 614 01a5 1E       		.byte	0x1e
 615 01a6 06       		.uleb128 0x6
 616 01a7 4E040000 		.4byte	.LASF36
 617 01ab 06       		.byte	0x6
 618 01ac 88       		.byte	0x88
 619 01ad E0000000 		.4byte	0xe0
 620 01b1 1F       		.byte	0x1f
 621 01b2 06       		.uleb128 0x6
 622 01b3 4C050000 		.4byte	.LASF37
 623 01b7 06       		.byte	0x6
 624 01b8 8F       		.byte	0x8f
 625 01b9 27030000 		.4byte	0x327
 626 01bd 20       		.byte	0x20
 627 01be 07       		.uleb128 0x7
ARM GAS  C:\Users\danit\AppData\Local\Temp\cc6bi5Kf.s 			page 12


 628 01bf 705F7500 		.ascii	"p_u\000"
 629 01c3 06       		.byte	0x6
 630 01c4 B4       		.byte	0xb4
 631 01c5 6E030000 		.4byte	0x36e
 632 01c9 24       		.byte	0x24
 633 01ca 06       		.uleb128 0x6
 634 01cb 21070000 		.4byte	.LASF38
 635 01cf 06       		.byte	0x6
 636 01d0 B9       		.byte	0xb9
 637 01d1 66020000 		.4byte	0x266
 638 01d5 28       		.byte	0x28
 639 01d6 06       		.uleb128 0x6
 640 01d7 52020000 		.4byte	.LASF39
 641 01db 06       		.byte	0x6
 642 01dc BF       		.byte	0xbf
 643 01dd 46020000 		.4byte	0x246
 644 01e1 2C       		.byte	0x2c
 645 01e2 06       		.uleb128 0x6
 646 01e3 95060000 		.4byte	.LASF40
 647 01e7 06       		.byte	0x6
 648 01e8 C3       		.byte	0xc3
 649 01e9 F6000000 		.4byte	0xf6
 650 01ed 34       		.byte	0x34
 651 01ee 06       		.uleb128 0x6
 652 01ef 91040000 		.4byte	.LASF41
 653 01f3 06       		.byte	0x6
 654 01f4 C9       		.byte	0xc9
 655 01f5 01010000 		.4byte	0x101
 656 01f9 38       		.byte	0x38
 657 01fa 06       		.uleb128 0x6
 658 01fb D8020000 		.4byte	.LASF42
 659 01ff 06       		.byte	0x6
 660 0200 D0       		.byte	0xd0
 661 0201 B5030000 		.4byte	0x3b5
 662 0205 3C       		.byte	0x3c
 663 0206 06       		.uleb128 0x6
 664 0207 0F050000 		.4byte	.LASF43
 665 020b 06       		.byte	0x6
 666 020c D4       		.byte	0xd4
 667 020d EB000000 		.4byte	0xeb
 668 0211 40       		.byte	0x40
 669 0212 06       		.uleb128 0x6
 670 0213 0F010000 		.4byte	.LASF44
 671 0217 06       		.byte	0x6
 672 0218 DA       		.byte	0xda
 673 0219 7C020000 		.4byte	0x27c
 674 021d 44       		.byte	0x44
 675 021e 00       		.byte	0
 676 021f 08       		.uleb128 0x8
 677 0220 08       		.byte	0x8
 678 0221 05       		.byte	0x5
 679 0222 61       		.byte	0x61
 680 0223 40020000 		.4byte	0x240
 681 0227 06       		.uleb128 0x6
 682 0228 74040000 		.4byte	.LASF26
 683 022c 05       		.byte	0x5
 684 022d 62       		.byte	0x62
ARM GAS  C:\Users\danit\AppData\Local\Temp\cc6bi5Kf.s 			page 13


 685 022e 40020000 		.4byte	0x240
 686 0232 00       		.byte	0
 687 0233 06       		.uleb128 0x6
 688 0234 28030000 		.4byte	.LASF27
 689 0238 05       		.byte	0x5
 690 0239 64       		.byte	0x64
 691 023a 40020000 		.4byte	0x240
 692 023e 04       		.byte	0x4
 693 023f 00       		.byte	0
 694 0240 09       		.uleb128 0x9
 695 0241 04       		.byte	0x4
 696 0242 17010000 		.4byte	0x117
 697 0246 04       		.uleb128 0x4
 698 0247 75000000 		.4byte	.LASF45
 699 024b 05       		.byte	0x5
 700 024c 66       		.byte	0x66
 701 024d 1F020000 		.4byte	0x21f
 702 0251 08       		.uleb128 0x8
 703 0252 04       		.byte	0x4
 704 0253 05       		.byte	0x5
 705 0254 6B       		.byte	0x6b
 706 0255 66020000 		.4byte	0x266
 707 0259 06       		.uleb128 0x6
 708 025a 74040000 		.4byte	.LASF26
 709 025e 05       		.byte	0x5
 710 025f 6D       		.byte	0x6d
 711 0260 40020000 		.4byte	0x240
 712 0264 00       		.byte	0
 713 0265 00       		.byte	0
 714 0266 04       		.uleb128 0x4
 715 0267 CC020000 		.4byte	.LASF46
 716 026b 05       		.byte	0x5
 717 026c 70       		.byte	0x70
 718 026d 51020000 		.4byte	0x251
 719 0271 04       		.uleb128 0x4
 720 0272 AE040000 		.4byte	.LASF47
 721 0276 07       		.byte	0x7
 722 0277 E5       		.byte	0xe5
 723 0278 7C020000 		.4byte	0x27c
 724 027c 0A       		.uleb128 0xa
 725 027d 04       		.byte	0x4
 726 027e 0B       		.uleb128 0xb
 727 027f 65050000 		.4byte	.LASF48
 728 0283 24       		.byte	0x24
 729 0284 07       		.byte	0x7
 730 0285 0C01     		.2byte	0x10c
 731 0287 FA020000 		.4byte	0x2fa
 732 028b 0C       		.uleb128 0xc
 733 028c 723400   		.ascii	"r4\000"
 734 028f 07       		.byte	0x7
 735 0290 1F01     		.2byte	0x11f
 736 0292 71020000 		.4byte	0x271
 737 0296 00       		.byte	0
 738 0297 0C       		.uleb128 0xc
 739 0298 723500   		.ascii	"r5\000"
 740 029b 07       		.byte	0x7
 741 029c 2001     		.2byte	0x120
ARM GAS  C:\Users\danit\AppData\Local\Temp\cc6bi5Kf.s 			page 14


 742 029e 71020000 		.4byte	0x271
 743 02a2 04       		.byte	0x4
 744 02a3 0C       		.uleb128 0xc
 745 02a4 723600   		.ascii	"r6\000"
 746 02a7 07       		.byte	0x7
 747 02a8 2101     		.2byte	0x121
 748 02aa 71020000 		.4byte	0x271
 749 02ae 08       		.byte	0x8
 750 02af 0C       		.uleb128 0xc
 751 02b0 723700   		.ascii	"r7\000"
 752 02b3 07       		.byte	0x7
 753 02b4 2201     		.2byte	0x122
 754 02b6 71020000 		.4byte	0x271
 755 02ba 0C       		.byte	0xc
 756 02bb 0C       		.uleb128 0xc
 757 02bc 723800   		.ascii	"r8\000"
 758 02bf 07       		.byte	0x7
 759 02c0 2301     		.2byte	0x123
 760 02c2 71020000 		.4byte	0x271
 761 02c6 10       		.byte	0x10
 762 02c7 0C       		.uleb128 0xc
 763 02c8 723900   		.ascii	"r9\000"
 764 02cb 07       		.byte	0x7
 765 02cc 2401     		.2byte	0x124
 766 02ce 71020000 		.4byte	0x271
 767 02d2 14       		.byte	0x14
 768 02d3 0C       		.uleb128 0xc
 769 02d4 72313000 		.ascii	"r10\000"
 770 02d8 07       		.byte	0x7
 771 02d9 2501     		.2byte	0x125
 772 02db 71020000 		.4byte	0x271
 773 02df 18       		.byte	0x18
 774 02e0 0C       		.uleb128 0xc
 775 02e1 72313100 		.ascii	"r11\000"
 776 02e5 07       		.byte	0x7
 777 02e6 2601     		.2byte	0x126
 778 02e8 71020000 		.4byte	0x271
 779 02ec 1C       		.byte	0x1c
 780 02ed 0C       		.uleb128 0xc
 781 02ee 6C7200   		.ascii	"lr\000"
 782 02f1 07       		.byte	0x7
 783 02f2 2701     		.2byte	0x127
 784 02f4 71020000 		.4byte	0x271
 785 02f8 20       		.byte	0x20
 786 02f9 00       		.byte	0
 787 02fa 0B       		.uleb128 0xb
 788 02fb 70020000 		.4byte	.LASF49
 789 02ff 04       		.byte	0x4
 790 0300 07       		.byte	0x7
 791 0301 3101     		.2byte	0x131
 792 0303 15030000 		.4byte	0x315
 793 0307 0C       		.uleb128 0xc
 794 0308 72313300 		.ascii	"r13\000"
 795 030c 07       		.byte	0x7
 796 030d 3201     		.2byte	0x132
 797 030f 15030000 		.4byte	0x315
 798 0313 00       		.byte	0
ARM GAS  C:\Users\danit\AppData\Local\Temp\cc6bi5Kf.s 			page 15


 799 0314 00       		.byte	0
 800 0315 09       		.uleb128 0x9
 801 0316 04       		.byte	0x4
 802 0317 7E020000 		.4byte	0x27e
 803 031b 0D       		.uleb128 0xd
 804 031c A2000000 		.4byte	0xa2
 805 0320 03       		.uleb128 0x3
 806 0321 04       		.byte	0x4
 807 0322 07       		.byte	0x7
 808 0323 35020000 		.4byte	.LASF50
 809 0327 0D       		.uleb128 0xd
 810 0328 0C010000 		.4byte	0x10c
 811 032c 05       		.uleb128 0x5
 812 032d EE020000 		.4byte	.LASF51
 813 0331 10       		.byte	0x10
 814 0332 08       		.byte	0x8
 815 0333 2C       		.byte	0x2c
 816 0334 5D030000 		.4byte	0x35d
 817 0338 06       		.uleb128 0x6
 818 0339 1E010000 		.4byte	.LASF52
 819 033d 08       		.byte	0x8
 820 033e 2D       		.byte	0x2d
 821 033f 46020000 		.4byte	0x246
 822 0343 00       		.byte	0
 823 0344 06       		.uleb128 0x6
 824 0345 13070000 		.4byte	.LASF53
 825 0349 08       		.byte	0x8
 826 034a 2F       		.byte	0x2f
 827 034b 40020000 		.4byte	0x240
 828 034f 08       		.byte	0x8
 829 0350 06       		.uleb128 0x6
 830 0351 FE040000 		.4byte	.LASF54
 831 0355 08       		.byte	0x8
 832 0356 31       		.byte	0x31
 833 0357 5D030000 		.4byte	0x35d
 834 035b 0C       		.byte	0xc
 835 035c 00       		.byte	0
 836 035d 09       		.uleb128 0x9
 837 035e 04       		.byte	0x4
 838 035f 2C030000 		.4byte	0x32c
 839 0363 04       		.uleb128 0x4
 840 0364 EE020000 		.4byte	.LASF51
 841 0368 08       		.byte	0x8
 842 0369 33       		.byte	0x33
 843 036a 2C030000 		.4byte	0x32c
 844 036e 0E       		.uleb128 0xe
 845 036f 04       		.byte	0x4
 846 0370 06       		.byte	0x6
 847 0371 96       		.byte	0x96
 848 0372 A3030000 		.4byte	0x3a3
 849 0376 0F       		.uleb128 0xf
 850 0377 36000000 		.4byte	.LASF55
 851 037b 06       		.byte	0x6
 852 037c 9D       		.byte	0x9d
 853 037d F6000000 		.4byte	0xf6
 854 0381 0F       		.uleb128 0xf
 855 0382 82000000 		.4byte	.LASF56
ARM GAS  C:\Users\danit\AppData\Local\Temp\cc6bi5Kf.s 			page 16


 856 0386 06       		.byte	0x6
 857 0387 A4       		.byte	0xa4
 858 0388 F6000000 		.4byte	0xf6
 859 038c 0F       		.uleb128 0xf
 860 038d 66040000 		.4byte	.LASF57
 861 0391 06       		.byte	0x6
 862 0392 AB       		.byte	0xab
 863 0393 7C020000 		.4byte	0x27c
 864 0397 0F       		.uleb128 0xf
 865 0398 6D040000 		.4byte	.LASF58
 866 039c 06       		.byte	0x6
 867 039d B2       		.byte	0xb2
 868 039e 01010000 		.4byte	0x101
 869 03a2 00       		.byte	0
 870 03a3 09       		.uleb128 0x9
 871 03a4 04       		.byte	0x4
 872 03a5 A9030000 		.4byte	0x3a9
 873 03a9 10       		.uleb128 0x10
 874 03aa AE030000 		.4byte	0x3ae
 875 03ae 03       		.uleb128 0x3
 876 03af 01       		.byte	0x1
 877 03b0 08       		.byte	0x8
 878 03b1 E0040000 		.4byte	.LASF59
 879 03b5 09       		.uleb128 0x9
 880 03b6 04       		.byte	0x4
 881 03b7 63030000 		.4byte	0x363
 882 03bb 09       		.uleb128 0x9
 883 03bc 04       		.byte	0x4
 884 03bd 8C000000 		.4byte	0x8c
 885 03c1 09       		.uleb128 0x9
 886 03c2 04       		.byte	0x4
 887 03c3 C7030000 		.4byte	0x3c7
 888 03c7 10       		.uleb128 0x10
 889 03c8 8C000000 		.4byte	0x8c
 890 03cc 11       		.uleb128 0x11
 891 03cd A2000000 		.4byte	0xa2
 892 03d1 DC030000 		.4byte	0x3dc
 893 03d5 12       		.uleb128 0x12
 894 03d6 20030000 		.4byte	0x320
 895 03da 03       		.byte	0x3
 896 03db 00       		.byte	0
 897 03dc 0D       		.uleb128 0xd
 898 03dd 97000000 		.4byte	0x97
 899 03e1 13       		.uleb128 0x13
 900 03e2 18       		.byte	0x18
 901 03e3 09       		.byte	0x9
 902 03e4 B102     		.2byte	0x2b1
 903 03e6 38040000 		.4byte	0x438
 904 03ea 0C       		.uleb128 0xc
 905 03eb 435200   		.ascii	"CR\000"
 906 03ee 09       		.byte	0x9
 907 03ef B302     		.2byte	0x2b3
 908 03f1 1B030000 		.4byte	0x31b
 909 03f5 00       		.byte	0
 910 03f6 14       		.uleb128 0x14
 911 03f7 22050000 		.4byte	.LASF60
 912 03fb 09       		.byte	0x9
ARM GAS  C:\Users\danit\AppData\Local\Temp\cc6bi5Kf.s 			page 17


 913 03fc B402     		.2byte	0x2b4
 914 03fe 1B030000 		.4byte	0x31b
 915 0402 04       		.byte	0x4
 916 0403 0C       		.uleb128 0xc
 917 0404 50415200 		.ascii	"PAR\000"
 918 0408 09       		.byte	0x9
 919 0409 B502     		.2byte	0x2b5
 920 040b 1B030000 		.4byte	0x31b
 921 040f 08       		.byte	0x8
 922 0410 14       		.uleb128 0x14
 923 0411 29000000 		.4byte	.LASF61
 924 0415 09       		.byte	0x9
 925 0416 B602     		.2byte	0x2b6
 926 0418 1B030000 		.4byte	0x31b
 927 041c 0C       		.byte	0xc
 928 041d 14       		.uleb128 0x14
 929 041e 79050000 		.4byte	.LASF62
 930 0422 09       		.byte	0x9
 931 0423 B702     		.2byte	0x2b7
 932 0425 1B030000 		.4byte	0x31b
 933 0429 10       		.byte	0x10
 934 042a 0C       		.uleb128 0xc
 935 042b 46435200 		.ascii	"FCR\000"
 936 042f 09       		.byte	0x9
 937 0430 B802     		.2byte	0x2b8
 938 0432 1B030000 		.4byte	0x31b
 939 0436 14       		.byte	0x14
 940 0437 00       		.byte	0
 941 0438 15       		.uleb128 0x15
 942 0439 2D050000 		.4byte	.LASF63
 943 043d 09       		.byte	0x9
 944 043e B902     		.2byte	0x2b9
 945 0440 E1030000 		.4byte	0x3e1
 946 0444 13       		.uleb128 0x13
 947 0445 A0       		.byte	0xa0
 948 0446 09       		.byte	0x9
 949 0447 8104     		.2byte	0x481
 950 0449 53060000 		.4byte	0x653
 951 044d 0C       		.uleb128 0xc
 952 044e 545200   		.ascii	"TR\000"
 953 0451 09       		.byte	0x9
 954 0452 8304     		.2byte	0x483
 955 0454 1B030000 		.4byte	0x31b
 956 0458 00       		.byte	0
 957 0459 0C       		.uleb128 0xc
 958 045a 445200   		.ascii	"DR\000"
 959 045d 09       		.byte	0x9
 960 045e 8404     		.2byte	0x484
 961 0460 1B030000 		.4byte	0x31b
 962 0464 04       		.byte	0x4
 963 0465 0C       		.uleb128 0xc
 964 0466 435200   		.ascii	"CR\000"
 965 0469 09       		.byte	0x9
 966 046a 8504     		.2byte	0x485
 967 046c 1B030000 		.4byte	0x31b
 968 0470 08       		.byte	0x8
 969 0471 0C       		.uleb128 0xc
ARM GAS  C:\Users\danit\AppData\Local\Temp\cc6bi5Kf.s 			page 18


 970 0472 49535200 		.ascii	"ISR\000"
 971 0476 09       		.byte	0x9
 972 0477 8604     		.2byte	0x486
 973 0479 1B030000 		.4byte	0x31b
 974 047d 0C       		.byte	0xc
 975 047e 14       		.uleb128 0x14
 976 047f 69000000 		.4byte	.LASF64
 977 0483 09       		.byte	0x9
 978 0484 8704     		.2byte	0x487
 979 0486 1B030000 		.4byte	0x31b
 980 048a 10       		.byte	0x10
 981 048b 14       		.uleb128 0x14
 982 048c B7040000 		.4byte	.LASF65
 983 0490 09       		.byte	0x9
 984 0491 8804     		.2byte	0x488
 985 0493 1B030000 		.4byte	0x31b
 986 0497 14       		.byte	0x14
 987 0498 14       		.uleb128 0x14
 988 0499 A7040000 		.4byte	.LASF66
 989 049d 09       		.byte	0x9
 990 049e 8904     		.2byte	0x489
 991 04a0 1B030000 		.4byte	0x31b
 992 04a4 18       		.byte	0x18
 993 04a5 14       		.uleb128 0x14
 994 04a6 86030000 		.4byte	.LASF67
 995 04aa 09       		.byte	0x9
 996 04ab 8A04     		.2byte	0x48a
 997 04ad 1B030000 		.4byte	0x31b
 998 04b1 1C       		.byte	0x1c
 999 04b2 14       		.uleb128 0x14
 1000 04b3 AF000000 		.4byte	.LASF68
 1001 04b7 09       		.byte	0x9
 1002 04b8 8B04     		.2byte	0x48b
 1003 04ba 1B030000 		.4byte	0x31b
 1004 04be 20       		.byte	0x20
 1005 04bf 0C       		.uleb128 0xc
 1006 04c0 57505200 		.ascii	"WPR\000"
 1007 04c4 09       		.byte	0x9
 1008 04c5 8C04     		.2byte	0x48c
 1009 04c7 1B030000 		.4byte	0x31b
 1010 04cb 24       		.byte	0x24
 1011 04cc 0C       		.uleb128 0xc
 1012 04cd 53535200 		.ascii	"SSR\000"
 1013 04d1 09       		.byte	0x9
 1014 04d2 8D04     		.2byte	0x48d
 1015 04d4 1B030000 		.4byte	0x31b
 1016 04d8 28       		.byte	0x28
 1017 04d9 14       		.uleb128 0x14
 1018 04da 5E050000 		.4byte	.LASF69
 1019 04de 09       		.byte	0x9
 1020 04df 8E04     		.2byte	0x48e
 1021 04e1 1B030000 		.4byte	0x31b
 1022 04e5 2C       		.byte	0x2c
 1023 04e6 14       		.uleb128 0x14
 1024 04e7 C0020000 		.4byte	.LASF70
 1025 04eb 09       		.byte	0x9
 1026 04ec 8F04     		.2byte	0x48f
ARM GAS  C:\Users\danit\AppData\Local\Temp\cc6bi5Kf.s 			page 19


 1027 04ee 1B030000 		.4byte	0x31b
 1028 04f2 30       		.byte	0x30
 1029 04f3 14       		.uleb128 0x14
 1030 04f4 30020000 		.4byte	.LASF71
 1031 04f8 09       		.byte	0x9
 1032 04f9 9004     		.2byte	0x490
 1033 04fb 1B030000 		.4byte	0x31b
 1034 04ff 34       		.byte	0x34
 1035 0500 14       		.uleb128 0x14
 1036 0501 31010000 		.4byte	.LASF72
 1037 0505 09       		.byte	0x9
 1038 0506 9104     		.2byte	0x491
 1039 0508 1B030000 		.4byte	0x31b
 1040 050c 38       		.byte	0x38
 1041 050d 14       		.uleb128 0x14
 1042 050e 2F030000 		.4byte	.LASF73
 1043 0512 09       		.byte	0x9
 1044 0513 9204     		.2byte	0x492
 1045 0515 1B030000 		.4byte	0x31b
 1046 0519 3C       		.byte	0x3c
 1047 051a 14       		.uleb128 0x14
 1048 051b 96020000 		.4byte	.LASF74
 1049 051f 09       		.byte	0x9
 1050 0520 9304     		.2byte	0x493
 1051 0522 1B030000 		.4byte	0x31b
 1052 0526 40       		.byte	0x40
 1053 0527 14       		.uleb128 0x14
 1054 0528 1F020000 		.4byte	.LASF75
 1055 052c 09       		.byte	0x9
 1056 052d 9404     		.2byte	0x494
 1057 052f 1B030000 		.4byte	0x31b
 1058 0533 44       		.byte	0x44
 1059 0534 14       		.uleb128 0x14
 1060 0535 6C010000 		.4byte	.LASF76
 1061 0539 09       		.byte	0x9
 1062 053a 9504     		.2byte	0x495
 1063 053c 1B030000 		.4byte	0x31b
 1064 0540 48       		.byte	0x48
 1065 0541 14       		.uleb128 0x14
 1066 0542 FF060000 		.4byte	.LASF77
 1067 0546 09       		.byte	0x9
 1068 0547 9604     		.2byte	0x496
 1069 0549 A2000000 		.4byte	0xa2
 1070 054d 4C       		.byte	0x4c
 1071 054e 14       		.uleb128 0x14
 1072 054f 60040000 		.4byte	.LASF78
 1073 0553 09       		.byte	0x9
 1074 0554 9704     		.2byte	0x497
 1075 0556 1B030000 		.4byte	0x31b
 1076 055a 50       		.byte	0x50
 1077 055b 14       		.uleb128 0x14
 1078 055c 27050000 		.4byte	.LASF79
 1079 0560 09       		.byte	0x9
 1080 0561 9804     		.2byte	0x498
 1081 0563 1B030000 		.4byte	0x31b
 1082 0567 54       		.byte	0x54
 1083 0568 14       		.uleb128 0x14
ARM GAS  C:\Users\danit\AppData\Local\Temp\cc6bi5Kf.s 			page 20


 1084 0569 BF060000 		.4byte	.LASF80
 1085 056d 09       		.byte	0x9
 1086 056e 9904     		.2byte	0x499
 1087 0570 1B030000 		.4byte	0x31b
 1088 0574 58       		.byte	0x58
 1089 0575 14       		.uleb128 0x14
 1090 0576 5C000000 		.4byte	.LASF81
 1091 057a 09       		.byte	0x9
 1092 057b 9A04     		.2byte	0x49a
 1093 057d 1B030000 		.4byte	0x31b
 1094 0581 5C       		.byte	0x5c
 1095 0582 14       		.uleb128 0x14
 1096 0583 66010000 		.4byte	.LASF82
 1097 0587 09       		.byte	0x9
 1098 0588 9B04     		.2byte	0x49b
 1099 058a 1B030000 		.4byte	0x31b
 1100 058e 60       		.byte	0x60
 1101 058f 14       		.uleb128 0x14
 1102 0590 3E020000 		.4byte	.LASF83
 1103 0594 09       		.byte	0x9
 1104 0595 9C04     		.2byte	0x49c
 1105 0597 1B030000 		.4byte	0x31b
 1106 059b 64       		.byte	0x64
 1107 059c 14       		.uleb128 0x14
 1108 059d 09030000 		.4byte	.LASF84
 1109 05a1 09       		.byte	0x9
 1110 05a2 9D04     		.2byte	0x49d
 1111 05a4 1B030000 		.4byte	0x31b
 1112 05a8 68       		.byte	0x68
 1113 05a9 14       		.uleb128 0x14
 1114 05aa 8D030000 		.4byte	.LASF85
 1115 05ae 09       		.byte	0x9
 1116 05af 9E04     		.2byte	0x49e
 1117 05b1 1B030000 		.4byte	0x31b
 1118 05b5 6C       		.byte	0x6c
 1119 05b6 14       		.uleb128 0x14
 1120 05b7 A1040000 		.4byte	.LASF86
 1121 05bb 09       		.byte	0x9
 1122 05bc 9F04     		.2byte	0x49f
 1123 05be 1B030000 		.4byte	0x31b
 1124 05c2 70       		.byte	0x70
 1125 05c3 14       		.uleb128 0x14
 1126 05c4 91050000 		.4byte	.LASF87
 1127 05c8 09       		.byte	0x9
 1128 05c9 A004     		.2byte	0x4a0
 1129 05cb 1B030000 		.4byte	0x31b
 1130 05cf 74       		.byte	0x74
 1131 05d0 14       		.uleb128 0x14
 1132 05d1 B1020000 		.4byte	.LASF88
 1133 05d5 09       		.byte	0x9
 1134 05d6 A104     		.2byte	0x4a1
 1135 05d8 1B030000 		.4byte	0x31b
 1136 05dc 78       		.byte	0x78
 1137 05dd 14       		.uleb128 0x14
 1138 05de 77030000 		.4byte	.LASF89
 1139 05e2 09       		.byte	0x9
 1140 05e3 A204     		.2byte	0x4a2
ARM GAS  C:\Users\danit\AppData\Local\Temp\cc6bi5Kf.s 			page 21


 1141 05e5 1B030000 		.4byte	0x31b
 1142 05e9 7C       		.byte	0x7c
 1143 05ea 14       		.uleb128 0x14
 1144 05eb 7B040000 		.4byte	.LASF90
 1145 05ef 09       		.byte	0x9
 1146 05f0 A304     		.2byte	0x4a3
 1147 05f2 1B030000 		.4byte	0x31b
 1148 05f6 80       		.byte	0x80
 1149 05f7 14       		.uleb128 0x14
 1150 05f8 45050000 		.4byte	.LASF91
 1151 05fc 09       		.byte	0x9
 1152 05fd A404     		.2byte	0x4a4
 1153 05ff 1B030000 		.4byte	0x31b
 1154 0603 84       		.byte	0x84
 1155 0604 14       		.uleb128 0x14
 1156 0605 C5060000 		.4byte	.LASF92
 1157 0609 09       		.byte	0x9
 1158 060a A504     		.2byte	0x4a5
 1159 060c 1B030000 		.4byte	0x31b
 1160 0610 88       		.byte	0x88
 1161 0611 14       		.uleb128 0x14
 1162 0612 6E000000 		.4byte	.LASF93
 1163 0616 09       		.byte	0x9
 1164 0617 A604     		.2byte	0x4a6
 1165 0619 1B030000 		.4byte	0x31b
 1166 061d 8C       		.byte	0x8c
 1167 061e 14       		.uleb128 0x14
 1168 061f 8D010000 		.4byte	.LASF94
 1169 0623 09       		.byte	0x9
 1170 0624 A704     		.2byte	0x4a7
 1171 0626 1B030000 		.4byte	0x31b
 1172 062a 90       		.byte	0x90
 1173 062b 14       		.uleb128 0x14
 1174 062c 4B020000 		.4byte	.LASF95
 1175 0630 09       		.byte	0x9
 1176 0631 A804     		.2byte	0x4a8
 1177 0633 1B030000 		.4byte	0x31b
 1178 0637 94       		.byte	0x94
 1179 0638 14       		.uleb128 0x14
 1180 0639 15030000 		.4byte	.LASF96
 1181 063d 09       		.byte	0x9
 1182 063e A904     		.2byte	0x4a9
 1183 0640 1B030000 		.4byte	0x31b
 1184 0644 98       		.byte	0x98
 1185 0645 14       		.uleb128 0x14
 1186 0646 9B030000 		.4byte	.LASF97
 1187 064a 09       		.byte	0x9
 1188 064b AA04     		.2byte	0x4aa
 1189 064d 1B030000 		.4byte	0x31b
 1190 0651 9C       		.byte	0x9c
 1191 0652 00       		.byte	0
 1192 0653 15       		.uleb128 0x15
 1193 0654 C1000000 		.4byte	.LASF98
 1194 0658 09       		.byte	0x9
 1195 0659 AB04     		.2byte	0x4ab
 1196 065b 44040000 		.4byte	0x444
 1197 065f 08       		.uleb128 0x8
ARM GAS  C:\Users\danit\AppData\Local\Temp\cc6bi5Kf.s 			page 22


 1198 0660 0C       		.byte	0xc
 1199 0661 0A       		.byte	0xa
 1200 0662 DA       		.byte	0xda
 1201 0663 A4060000 		.4byte	0x6a4
 1202 0667 06       		.uleb128 0x6
 1203 0668 62000000 		.4byte	.LASF99
 1204 066c 0A       		.byte	0xa
 1205 066d DB       		.byte	0xdb
 1206 066e A4060000 		.4byte	0x6a4
 1207 0672 00       		.byte	0
 1208 0673 06       		.uleb128 0x6
 1209 0674 9C040000 		.4byte	.LASF100
 1210 0678 0A       		.byte	0xa
 1211 0679 DC       		.byte	0xdc
 1212 067a AA060000 		.4byte	0x6aa
 1213 067e 04       		.byte	0x4
 1214 067f 06       		.uleb128 0x6
 1215 0680 69020000 		.4byte	.LASF101
 1216 0684 0A       		.byte	0xa
 1217 0685 DD       		.byte	0xdd
 1218 0686 8C000000 		.4byte	0x8c
 1219 068a 08       		.byte	0x8
 1220 068b 06       		.uleb128 0x6
 1221 068c 7E050000 		.4byte	.LASF102
 1222 0690 0A       		.byte	0xa
 1223 0691 DF       		.byte	0xdf
 1224 0692 8C000000 		.4byte	0x8c
 1225 0696 09       		.byte	0x9
 1226 0697 06       		.uleb128 0x6
 1227 0698 8B000000 		.4byte	.LASF103
 1228 069c 0A       		.byte	0xa
 1229 069d E0       		.byte	0xe0
 1230 069e 8C000000 		.4byte	0x8c
 1231 06a2 0A       		.byte	0xa
 1232 06a3 00       		.byte	0
 1233 06a4 09       		.uleb128 0x9
 1234 06a5 04       		.byte	0x4
 1235 06a6 38040000 		.4byte	0x438
 1236 06aa 09       		.uleb128 0x9
 1237 06ab 04       		.byte	0x4
 1238 06ac 1B030000 		.4byte	0x31b
 1239 06b0 04       		.uleb128 0x4
 1240 06b1 E2030000 		.4byte	.LASF104
 1241 06b5 0A       		.byte	0xa
 1242 06b6 E1       		.byte	0xe1
 1243 06b7 5F060000 		.4byte	0x65f
 1244 06bb 16       		.uleb128 0x16
 1245 06bc 01       		.byte	0x1
 1246 06bd 0B       		.byte	0xb
 1247 06be 33       		.byte	0x33
 1248 06bf FA060000 		.4byte	0x6fa
 1249 06c3 17       		.uleb128 0x17
 1250 06c4 4C010000 		.4byte	.LASF105
 1251 06c8 00       		.sleb128 0
 1252 06c9 17       		.uleb128 0x17
 1253 06ca 37010000 		.4byte	.LASF106
 1254 06ce 01       		.sleb128 1
ARM GAS  C:\Users\danit\AppData\Local\Temp\cc6bi5Kf.s 			page 23


 1255 06cf 17       		.uleb128 0x17
 1256 06d0 8B020000 		.4byte	.LASF107
 1257 06d4 02       		.sleb128 2
 1258 06d5 17       		.uleb128 0x17
 1259 06d6 A2020000 		.4byte	.LASF108
 1260 06da 03       		.sleb128 3
 1261 06db 17       		.uleb128 0x17
 1262 06dc E5040000 		.4byte	.LASF109
 1263 06e0 04       		.sleb128 4
 1264 06e1 17       		.uleb128 0x17
 1265 06e2 6D030000 		.4byte	.LASF110
 1266 06e6 05       		.sleb128 5
 1267 06e7 17       		.uleb128 0x17
 1268 06e8 1C030000 		.4byte	.LASF111
 1269 06ec 06       		.sleb128 6
 1270 06ed 17       		.uleb128 0x17
 1271 06ee 42040000 		.4byte	.LASF112
 1272 06f2 07       		.sleb128 7
 1273 06f3 17       		.uleb128 0x17
 1274 06f4 7F060000 		.4byte	.LASF113
 1275 06f8 08       		.sleb128 8
 1276 06f9 00       		.byte	0
 1277 06fa 04       		.uleb128 0x4
 1278 06fb B6000000 		.4byte	.LASF114
 1279 06ff 0B       		.byte	0xb
 1280 0700 3D       		.byte	0x3d
 1281 0701 BB060000 		.4byte	0x6bb
 1282 0705 08       		.uleb128 0x8
 1283 0706 08       		.byte	0x8
 1284 0707 0B       		.byte	0xb
 1285 0708 42       		.byte	0x42
 1286 0709 26070000 		.4byte	0x726
 1287 070d 06       		.uleb128 0x6
 1288 070e 07020000 		.4byte	.LASF115
 1289 0712 0B       		.byte	0xb
 1290 0713 43       		.byte	0x43
 1291 0714 A2000000 		.4byte	0xa2
 1292 0718 00       		.byte	0
 1293 0719 06       		.uleb128 0x6
 1294 071a 2E000000 		.4byte	.LASF116
 1295 071e 0B       		.byte	0xb
 1296 071f 44       		.byte	0x44
 1297 0720 A2000000 		.4byte	0xa2
 1298 0724 04       		.byte	0x4
 1299 0725 00       		.byte	0
 1300 0726 04       		.uleb128 0x4
 1301 0727 00000000 		.4byte	.LASF117
 1302 072b 0B       		.byte	0xb
 1303 072c 45       		.byte	0x45
 1304 072d 05070000 		.4byte	0x705
 1305 0731 18       		.uleb128 0x18
 1306 0732 AD000000 		.4byte	0xad
 1307 0736 40070000 		.4byte	0x740
 1308 073a 19       		.uleb128 0x19
 1309 073b 7C020000 		.4byte	0x27c
 1310 073f 00       		.byte	0
 1311 0740 09       		.uleb128 0x9
ARM GAS  C:\Users\danit\AppData\Local\Temp\cc6bi5Kf.s 			page 24


 1312 0741 04       		.byte	0x4
 1313 0742 31070000 		.4byte	0x731
 1314 0746 18       		.uleb128 0x18
 1315 0747 AD000000 		.4byte	0xad
 1316 074b 64070000 		.4byte	0x764
 1317 074f 19       		.uleb128 0x19
 1318 0750 7C020000 		.4byte	0x27c
 1319 0754 19       		.uleb128 0x19
 1320 0755 A2000000 		.4byte	0xa2
 1321 0759 19       		.uleb128 0x19
 1322 075a BB030000 		.4byte	0x3bb
 1323 075e 19       		.uleb128 0x19
 1324 075f A2000000 		.4byte	0xa2
 1325 0763 00       		.byte	0
 1326 0764 09       		.uleb128 0x9
 1327 0765 04       		.byte	0x4
 1328 0766 46070000 		.4byte	0x746
 1329 076a 18       		.uleb128 0x18
 1330 076b AD000000 		.4byte	0xad
 1331 076f 88070000 		.4byte	0x788
 1332 0773 19       		.uleb128 0x19
 1333 0774 7C020000 		.4byte	0x27c
 1334 0778 19       		.uleb128 0x19
 1335 0779 A2000000 		.4byte	0xa2
 1336 077d 19       		.uleb128 0x19
 1337 077e C1030000 		.4byte	0x3c1
 1338 0782 19       		.uleb128 0x19
 1339 0783 A2000000 		.4byte	0xa2
 1340 0787 00       		.byte	0
 1341 0788 09       		.uleb128 0x9
 1342 0789 04       		.byte	0x4
 1343 078a 6A070000 		.4byte	0x76a
 1344 078e 18       		.uleb128 0x18
 1345 078f AD000000 		.4byte	0xad
 1346 0793 A2070000 		.4byte	0x7a2
 1347 0797 19       		.uleb128 0x19
 1348 0798 7C020000 		.4byte	0x27c
 1349 079c 19       		.uleb128 0x19
 1350 079d A2070000 		.4byte	0x7a2
 1351 07a1 00       		.byte	0
 1352 07a2 09       		.uleb128 0x9
 1353 07a3 04       		.byte	0x4
 1354 07a4 26070000 		.4byte	0x726
 1355 07a8 09       		.uleb128 0x9
 1356 07a9 04       		.byte	0x4
 1357 07aa 8E070000 		.4byte	0x78e
 1358 07ae 09       		.uleb128 0x9
 1359 07af 04       		.byte	0x4
 1360 07b0 B4070000 		.4byte	0x7b4
 1361 07b4 10       		.uleb128 0x10
 1362 07b5 B0060000 		.4byte	0x6b0
 1363 07b9 04       		.uleb128 0x4
 1364 07ba 20040000 		.4byte	.LASF118
 1365 07be 0C       		.byte	0xc
 1366 07bf 4C       		.byte	0x4c
 1367 07c0 C4070000 		.4byte	0x7c4
 1368 07c4 05       		.uleb128 0x5
ARM GAS  C:\Users\danit\AppData\Local\Temp\cc6bi5Kf.s 			page 25


 1369 07c5 20040000 		.4byte	.LASF118
 1370 07c9 04       		.byte	0x4
 1371 07ca 0D       		.byte	0xd
 1372 07cb B5       		.byte	0xb5
 1373 07cc DD070000 		.4byte	0x7dd
 1374 07d0 06       		.uleb128 0x6
 1375 07d1 9B000000 		.4byte	.LASF119
 1376 07d5 0D       		.byte	0xd
 1377 07d6 B9       		.byte	0xb9
 1378 07d7 DD070000 		.4byte	0x7dd
 1379 07db 00       		.byte	0
 1380 07dc 00       		.byte	0
 1381 07dd 09       		.uleb128 0x9
 1382 07de 04       		.byte	0x4
 1383 07df 53060000 		.4byte	0x653
 1384 07e3 04       		.uleb128 0x4
 1385 07e4 15020000 		.4byte	.LASF120
 1386 07e8 0E       		.byte	0xe
 1387 07e9 BF       		.byte	0xbf
 1388 07ea A2000000 		.4byte	0xa2
 1389 07ee 04       		.uleb128 0x4
 1390 07ef 53050000 		.4byte	.LASF121
 1391 07f3 0E       		.byte	0xe
 1392 07f4 C4       		.byte	0xc4
 1393 07f5 A2000000 		.4byte	0xa2
 1394 07f9 04       		.uleb128 0x4
 1395 07fa 3D000000 		.4byte	.LASF122
 1396 07fe 0E       		.byte	0xe
 1397 07ff C9       		.byte	0xc9
 1398 0800 04080000 		.4byte	0x804
 1399 0804 05       		.uleb128 0x5
 1400 0805 3D000000 		.4byte	.LASF122
 1401 0809 48       		.byte	0x48
 1402 080a 0E       		.byte	0xe
 1403 080b E5       		.byte	0xe5
 1404 080c A3080000 		.4byte	0x8a3
 1405 0810 07       		.uleb128 0x7
 1406 0811 766D7400 		.ascii	"vmt\000"
 1407 0815 0E       		.byte	0xe
 1408 0816 E9       		.byte	0xe9
 1409 0817 30090000 		.4byte	0x930
 1410 081b 00       		.byte	0
 1411 081c 06       		.uleb128 0x6
 1412 081d 57010000 		.4byte	.LASF123
 1413 0821 0E       		.byte	0xe
 1414 0822 EA       		.byte	0xea
 1415 0823 FA060000 		.4byte	0x6fa
 1416 0827 04       		.byte	0x4
 1417 0828 07       		.uleb128 0x7
 1418 0829 63696400 		.ascii	"cid\000"
 1419 082d 0E       		.byte	0xe
 1420 082e EA       		.byte	0xea
 1421 082f CC030000 		.4byte	0x3cc
 1422 0833 08       		.byte	0x8
 1423 0834 07       		.uleb128 0x7
 1424 0835 63736400 		.ascii	"csd\000"
 1425 0839 0E       		.byte	0xe
ARM GAS  C:\Users\danit\AppData\Local\Temp\cc6bi5Kf.s 			page 26


 1426 083a EA       		.byte	0xea
 1427 083b CC030000 		.4byte	0x3cc
 1428 083f 18       		.byte	0x18
 1429 0840 06       		.uleb128 0x6
 1430 0841 16000000 		.4byte	.LASF124
 1431 0845 0E       		.byte	0xe
 1432 0846 EA       		.byte	0xea
 1433 0847 A2000000 		.4byte	0xa2
 1434 084b 28       		.byte	0x28
 1435 084c 06       		.uleb128 0x6
 1436 084d F7040000 		.4byte	.LASF125
 1437 0851 0E       		.byte	0xe
 1438 0852 EE       		.byte	0xee
 1439 0853 3B090000 		.4byte	0x93b
 1440 0857 2C       		.byte	0x2c
 1441 0858 06       		.uleb128 0x6
 1442 0859 92000000 		.4byte	.LASF126
 1443 085d 0E       		.byte	0xe
 1444 085e F2       		.byte	0xf2
 1445 085f E3070000 		.4byte	0x7e3
 1446 0863 30       		.byte	0x30
 1447 0864 06       		.uleb128 0x6
 1448 0865 44020000 		.4byte	.LASF127
 1449 0869 0E       		.byte	0xe
 1450 086a F6       		.byte	0xf6
 1451 086b EE070000 		.4byte	0x7ee
 1452 086f 34       		.byte	0x34
 1453 0870 07       		.uleb128 0x7
 1454 0871 72636100 		.ascii	"rca\000"
 1455 0875 0E       		.byte	0xe
 1456 0876 FA       		.byte	0xfa
 1457 0877 A2000000 		.4byte	0xa2
 1458 087b 38       		.byte	0x38
 1459 087c 06       		.uleb128 0x6
 1460 087d FD030000 		.4byte	.LASF128
 1461 0881 0E       		.byte	0xe
 1462 0882 FF       		.byte	0xff
 1463 0883 40020000 		.4byte	0x240
 1464 0887 3C       		.byte	0x3c
 1465 0888 14       		.uleb128 0x14
 1466 0889 A8060000 		.4byte	.LASF129
 1467 088d 0E       		.byte	0xe
 1468 088e 0301     		.2byte	0x103
 1469 0890 A2000000 		.4byte	0xa2
 1470 0894 40       		.byte	0x40
 1471 0895 0C       		.uleb128 0xc
 1472 0896 646D6100 		.ascii	"dma\000"
 1473 089a 0E       		.byte	0xe
 1474 089b 0701     		.2byte	0x107
 1475 089d AE070000 		.4byte	0x7ae
 1476 08a1 44       		.byte	0x44
 1477 08a2 00       		.byte	0
 1478 08a3 08       		.uleb128 0x8
 1479 08a4 04       		.byte	0x4
 1480 08a5 0E       		.byte	0xe
 1481 08a6 CF       		.byte	0xcf
 1482 08a7 B8080000 		.4byte	0x8b8
ARM GAS  C:\Users\danit\AppData\Local\Temp\cc6bi5Kf.s 			page 27


 1483 08ab 06       		.uleb128 0x6
 1484 08ac 01020000 		.4byte	.LASF130
 1485 08b0 0E       		.byte	0xe
 1486 08b1 D0       		.byte	0xd0
 1487 08b2 A2000000 		.4byte	0xa2
 1488 08b6 00       		.byte	0
 1489 08b7 00       		.byte	0
 1490 08b8 04       		.uleb128 0x4
 1491 08b9 8B060000 		.4byte	.LASF131
 1492 08bd 0E       		.byte	0xe
 1493 08be D1       		.byte	0xd1
 1494 08bf A3080000 		.4byte	0x8a3
 1495 08c3 05       		.uleb128 0x5
 1496 08c4 B9010000 		.4byte	.LASF132
 1497 08c8 20       		.byte	0x20
 1498 08c9 0E       		.byte	0xe
 1499 08ca DE       		.byte	0xde
 1500 08cb 30090000 		.4byte	0x930
 1501 08cf 06       		.uleb128 0x6
 1502 08d0 FE000000 		.4byte	.LASF133
 1503 08d4 0E       		.byte	0xe
 1504 08d5 DF       		.byte	0xdf
 1505 08d6 40070000 		.4byte	0x740
 1506 08da 00       		.byte	0
 1507 08db 06       		.uleb128 0x6
 1508 08dc 6C050000 		.4byte	.LASF134
 1509 08e0 0E       		.byte	0xe
 1510 08e1 DF       		.byte	0xdf
 1511 08e2 40070000 		.4byte	0x740
 1512 08e6 04       		.byte	0x4
 1513 08e7 06       		.uleb128 0x6
 1514 08e8 89040000 		.4byte	.LASF135
 1515 08ec 0E       		.byte	0xe
 1516 08ed DF       		.byte	0xdf
 1517 08ee 40070000 		.4byte	0x740
 1518 08f2 08       		.byte	0x8
 1519 08f3 06       		.uleb128 0x6
 1520 08f4 26010000 		.4byte	.LASF136
 1521 08f8 0E       		.byte	0xe
 1522 08f9 DF       		.byte	0xdf
 1523 08fa 40070000 		.4byte	0x740
 1524 08fe 0C       		.byte	0xc
 1525 08ff 06       		.uleb128 0x6
 1526 0900 B0060000 		.4byte	.LASF137
 1527 0904 0E       		.byte	0xe
 1528 0905 DF       		.byte	0xdf
 1529 0906 64070000 		.4byte	0x764
 1530 090a 10       		.byte	0x10
 1531 090b 06       		.uleb128 0x6
 1532 090c 0F030000 		.4byte	.LASF138
 1533 0910 0E       		.byte	0xe
 1534 0911 DF       		.byte	0xdf
 1535 0912 88070000 		.4byte	0x788
 1536 0916 14       		.byte	0x14
 1537 0917 06       		.uleb128 0x6
 1538 0918 A3060000 		.4byte	.LASF139
 1539 091c 0E       		.byte	0xe
ARM GAS  C:\Users\danit\AppData\Local\Temp\cc6bi5Kf.s 			page 28


 1540 091d DF       		.byte	0xdf
 1541 091e 40070000 		.4byte	0x740
 1542 0922 18       		.byte	0x18
 1543 0923 06       		.uleb128 0x6
 1544 0924 C6010000 		.4byte	.LASF140
 1545 0928 0E       		.byte	0xe
 1546 0929 DF       		.byte	0xdf
 1547 092a A8070000 		.4byte	0x7a8
 1548 092e 1C       		.byte	0x1c
 1549 092f 00       		.byte	0
 1550 0930 09       		.uleb128 0x9
 1551 0931 04       		.byte	0x4
 1552 0932 36090000 		.4byte	0x936
 1553 0936 10       		.uleb128 0x10
 1554 0937 C3080000 		.4byte	0x8c3
 1555 093b 09       		.uleb128 0x9
 1556 093c 04       		.byte	0x4
 1557 093d 41090000 		.4byte	0x941
 1558 0941 10       		.uleb128 0x10
 1559 0942 B8080000 		.4byte	0x8b8
 1560 0946 04       		.uleb128 0x4
 1561 0947 10020000 		.4byte	.LASF141
 1562 094b 0F       		.byte	0xf
 1563 094c 16       		.byte	0x16
 1564 094d 45000000 		.4byte	0x45
 1565 0951 04       		.uleb128 0x4
 1566 0952 4F030000 		.4byte	.LASF142
 1567 0956 0F       		.byte	0xf
 1568 0957 1B       		.byte	0x1b
 1569 0958 53000000 		.4byte	0x53
 1570 095c 04       		.uleb128 0x4
 1571 095d AB010000 		.4byte	.LASF143
 1572 0961 0F       		.byte	0xf
 1573 0962 21       		.byte	0x21
 1574 0963 77000000 		.4byte	0x77
 1575 0967 04       		.uleb128 0x4
 1576 0968 1A050000 		.4byte	.LASF144
 1577 096c 10       		.byte	0x10
 1578 096d 0E       		.byte	0xe
 1579 096e 46090000 		.4byte	0x946
 1580 0972 16       		.uleb128 0x16
 1581 0973 01       		.byte	0x1
 1582 0974 10       		.byte	0x10
 1583 0975 11       		.byte	0x11
 1584 0976 99090000 		.4byte	0x999
 1585 097a 17       		.uleb128 0x17
 1586 097b 54030000 		.4byte	.LASF145
 1587 097f 00       		.sleb128 0
 1588 0980 17       		.uleb128 0x17
 1589 0981 B5060000 		.4byte	.LASF146
 1590 0985 01       		.sleb128 1
 1591 0986 17       		.uleb128 0x17
 1592 0987 1F000000 		.4byte	.LASF147
 1593 098b 02       		.sleb128 2
 1594 098c 17       		.uleb128 0x17
 1595 098d 51000000 		.4byte	.LASF148
 1596 0991 03       		.sleb128 3
ARM GAS  C:\Users\danit\AppData\Local\Temp\cc6bi5Kf.s 			page 29


 1597 0992 17       		.uleb128 0x17
 1598 0993 75010000 		.4byte	.LASF149
 1599 0997 04       		.sleb128 4
 1600 0998 00       		.byte	0
 1601 0999 04       		.uleb128 0x4
 1602 099a BC040000 		.4byte	.LASF150
 1603 099e 10       		.byte	0x10
 1604 099f 17       		.byte	0x17
 1605 09a0 72090000 		.4byte	0x972
 1606 09a4 1A       		.uleb128 0x1a
 1607 09a5 F1010000 		.4byte	.LASF151
 1608 09a9 01       		.byte	0x1
 1609 09aa 29       		.byte	0x29
 1610 09ab 67090000 		.4byte	0x967
 1611 09af 00000000 		.4byte	.LFB118
 1612 09b3 2C000000 		.4byte	.LFE118-.LFB118
 1613 09b7 01       		.uleb128 0x1
 1614 09b8 9C       		.byte	0x9c
 1615 09b9 E5090000 		.4byte	0x9e5
 1616 09bd 1B       		.uleb128 0x1b
 1617 09be 64727600 		.ascii	"drv\000"
 1618 09c2 01       		.byte	0x1
 1619 09c3 2A       		.byte	0x2a
 1620 09c4 46090000 		.4byte	0x946
 1621 09c8 00000000 		.4byte	.LLST0
 1622 09cc 1C       		.uleb128 0x1c
 1623 09cd DF000000 		.4byte	.LASF153
 1624 09d1 01       		.byte	0x1
 1625 09d2 2D       		.byte	0x2d
 1626 09d3 67090000 		.4byte	0x967
 1627 09d7 3A000000 		.4byte	.LLST1
 1628 09db 1D       		.uleb128 0x1d
 1629 09dc 18000000 		.4byte	.LVL5
 1630 09e0 A80B0000 		.4byte	0xba8
 1631 09e4 00       		.byte	0
 1632 09e5 1A       		.uleb128 0x1a
 1633 09e6 5D020000 		.4byte	.LASF152
 1634 09ea 01       		.byte	0x1
 1635 09eb 4C       		.byte	0x4c
 1636 09ec 67090000 		.4byte	0x967
 1637 09f0 00000000 		.4byte	.LFB119
 1638 09f4 2C000000 		.4byte	.LFE119-.LFB119
 1639 09f8 01       		.uleb128 0x1
 1640 09f9 9C       		.byte	0x9c
 1641 09fa 260A0000 		.4byte	0xa26
 1642 09fe 1B       		.uleb128 0x1b
 1643 09ff 64727600 		.ascii	"drv\000"
 1644 0a03 01       		.byte	0x1
 1645 0a04 4D       		.byte	0x4d
 1646 0a05 46090000 		.4byte	0x946
 1647 0a09 59000000 		.4byte	.LLST2
 1648 0a0d 1C       		.uleb128 0x1c
 1649 0a0e DF000000 		.4byte	.LASF153
 1650 0a12 01       		.byte	0x1
 1651 0a13 50       		.byte	0x50
 1652 0a14 67090000 		.4byte	0x967
 1653 0a18 93000000 		.4byte	.LLST3
ARM GAS  C:\Users\danit\AppData\Local\Temp\cc6bi5Kf.s 			page 30


 1654 0a1c 1D       		.uleb128 0x1d
 1655 0a1d 18000000 		.4byte	.LVL12
 1656 0a21 A80B0000 		.4byte	0xba8
 1657 0a25 00       		.byte	0
 1658 0a26 1A       		.uleb128 0x1a
 1659 0a27 09070000 		.4byte	.LASF154
 1660 0a2b 01       		.byte	0x1
 1661 0a2c 6F       		.byte	0x6f
 1662 0a2d 99090000 		.4byte	0x999
 1663 0a31 00000000 		.4byte	.LFB120
 1664 0a35 2C000000 		.4byte	.LFE120-.LFB120
 1665 0a39 01       		.uleb128 0x1
 1666 0a3a 9C       		.byte	0x9c
 1667 0a3b 940A0000 		.4byte	0xa94
 1668 0a3f 1B       		.uleb128 0x1b
 1669 0a40 64727600 		.ascii	"drv\000"
 1670 0a44 01       		.byte	0x1
 1671 0a45 70       		.byte	0x70
 1672 0a46 46090000 		.4byte	0x946
 1673 0a4a B2000000 		.4byte	.LLST4
 1674 0a4e 1E       		.uleb128 0x1e
 1675 0a4f 0A010000 		.4byte	.LASF155
 1676 0a53 01       		.byte	0x1
 1677 0a54 71       		.byte	0x71
 1678 0a55 940A0000 		.4byte	0xa94
 1679 0a59 EC000000 		.4byte	.LLST5
 1680 0a5d 1E       		.uleb128 0x1e
 1681 0a5e C5020000 		.4byte	.LASF156
 1682 0a62 01       		.byte	0x1
 1683 0a63 72       		.byte	0x72
 1684 0a64 5C090000 		.4byte	0x95c
 1685 0a68 3C010000 		.4byte	.LLST6
 1686 0a6c 1E       		.uleb128 0x1e
 1687 0a6d 10000000 		.4byte	.LASF157
 1688 0a71 01       		.byte	0x1
 1689 0a72 73       		.byte	0x73
 1690 0a73 46090000 		.4byte	0x946
 1691 0a77 68010000 		.4byte	.LLST7
 1692 0a7b 1F       		.uleb128 0x1f
 1693 0a7c 26000000 		.4byte	.LVL23
 1694 0a80 C40B0000 		.4byte	0xbc4
 1695 0a84 20       		.uleb128 0x20
 1696 0a85 01       		.uleb128 0x1
 1697 0a86 52       		.byte	0x52
 1698 0a87 03       		.uleb128 0x3
 1699 0a88 F3       		.byte	0xf3
 1700 0a89 01       		.uleb128 0x1
 1701 0a8a 51       		.byte	0x51
 1702 0a8b 20       		.uleb128 0x20
 1703 0a8c 01       		.uleb128 0x1
 1704 0a8d 51       		.byte	0x51
 1705 0a8e 03       		.uleb128 0x3
 1706 0a8f F3       		.byte	0xf3
 1707 0a90 01       		.uleb128 0x1
 1708 0a91 52       		.byte	0x52
 1709 0a92 00       		.byte	0
 1710 0a93 00       		.byte	0
ARM GAS  C:\Users\danit\AppData\Local\Temp\cc6bi5Kf.s 			page 31


 1711 0a94 09       		.uleb128 0x9
 1712 0a95 04       		.byte	0x4
 1713 0a96 46090000 		.4byte	0x946
 1714 0a9a 1A       		.uleb128 0x1a
 1715 0a9b CD000000 		.4byte	.LASF158
 1716 0a9f 01       		.byte	0x1
 1717 0aa0 98       		.byte	0x98
 1718 0aa1 99090000 		.4byte	0x999
 1719 0aa5 00000000 		.4byte	.LFB121
 1720 0aa9 2C000000 		.4byte	.LFE121-.LFB121
 1721 0aad 01       		.uleb128 0x1
 1722 0aae 9C       		.byte	0x9c
 1723 0aaf 080B0000 		.4byte	0xb08
 1724 0ab3 1B       		.uleb128 0x1b
 1725 0ab4 64727600 		.ascii	"drv\000"
 1726 0ab8 01       		.byte	0x1
 1727 0ab9 99       		.byte	0x99
 1728 0aba 46090000 		.4byte	0x946
 1729 0abe 89010000 		.4byte	.LLST8
 1730 0ac2 1E       		.uleb128 0x1e
 1731 0ac3 0A010000 		.4byte	.LASF155
 1732 0ac7 01       		.byte	0x1
 1733 0ac8 9A       		.byte	0x9a
 1734 0ac9 080B0000 		.4byte	0xb08
 1735 0acd C3010000 		.4byte	.LLST9
 1736 0ad1 1E       		.uleb128 0x1e
 1737 0ad2 C5020000 		.4byte	.LASF156
 1738 0ad6 01       		.byte	0x1
 1739 0ad7 9B       		.byte	0x9b
 1740 0ad8 5C090000 		.4byte	0x95c
 1741 0adc 13020000 		.4byte	.LLST10
 1742 0ae0 1E       		.uleb128 0x1e
 1743 0ae1 10000000 		.4byte	.LASF157
 1744 0ae5 01       		.byte	0x1
 1745 0ae6 9C       		.byte	0x9c
 1746 0ae7 46090000 		.4byte	0x946
 1747 0aeb 3F020000 		.4byte	.LLST11
 1748 0aef 1F       		.uleb128 0x1f
 1749 0af0 26000000 		.4byte	.LVL33
 1750 0af4 E80B0000 		.4byte	0xbe8
 1751 0af8 20       		.uleb128 0x20
 1752 0af9 01       		.uleb128 0x1
 1753 0afa 52       		.byte	0x52
 1754 0afb 03       		.uleb128 0x3
 1755 0afc F3       		.byte	0xf3
 1756 0afd 01       		.uleb128 0x1
 1757 0afe 51       		.byte	0x51
 1758 0aff 20       		.uleb128 0x20
 1759 0b00 01       		.uleb128 0x1
 1760 0b01 51       		.byte	0x51
 1761 0b02 03       		.uleb128 0x3
 1762 0b03 F3       		.byte	0xf3
 1763 0b04 01       		.uleb128 0x1
 1764 0b05 52       		.byte	0x52
 1765 0b06 00       		.byte	0
 1766 0b07 00       		.byte	0
 1767 0b08 09       		.uleb128 0x9
ARM GAS  C:\Users\danit\AppData\Local\Temp\cc6bi5Kf.s 			page 32


 1768 0b09 04       		.byte	0x4
 1769 0b0a 0E0B0000 		.4byte	0xb0e
 1770 0b0e 10       		.uleb128 0x10
 1771 0b0f 46090000 		.4byte	0x946
 1772 0b13 1A       		.uleb128 0x1a
 1773 0b14 FE020000 		.4byte	.LASF159
 1774 0b18 01       		.byte	0x1
 1775 0b19 C3       		.byte	0xc3
 1776 0b1a 99090000 		.4byte	0x999
 1777 0b1e 00000000 		.4byte	.LFB122
 1778 0b22 4C000000 		.4byte	.LFE122-.LFB122
 1779 0b26 01       		.uleb128 0x1
 1780 0b27 9C       		.byte	0x9c
 1781 0b28 630B0000 		.4byte	0xb63
 1782 0b2c 1B       		.uleb128 0x1b
 1783 0b2d 64727600 		.ascii	"drv\000"
 1784 0b31 01       		.byte	0x1
 1785 0b32 C4       		.byte	0xc4
 1786 0b33 46090000 		.4byte	0x946
 1787 0b37 60020000 		.4byte	.LLST12
 1788 0b3b 1E       		.uleb128 0x1e
 1789 0b3c 40050000 		.4byte	.LASF160
 1790 0b40 01       		.byte	0x1
 1791 0b41 C5       		.byte	0xc5
 1792 0b42 46090000 		.4byte	0x946
 1793 0b46 17030000 		.4byte	.LLST13
 1794 0b4a 1E       		.uleb128 0x1e
 1795 0b4b 0A010000 		.4byte	.LASF155
 1796 0b4f 01       		.byte	0x1
 1797 0b50 C6       		.byte	0xc6
 1798 0b51 7C020000 		.4byte	0x27c
 1799 0b55 43030000 		.4byte	.LLST14
 1800 0b59 1D       		.uleb128 0x1d
 1801 0b5a 22000000 		.4byte	.LVL41
 1802 0b5e 0C0C0000 		.4byte	0xc0c
 1803 0b62 00       		.byte	0
 1804 0b63 1A       		.uleb128 0x1a
 1805 0b64 40010000 		.4byte	.LASF161
 1806 0b68 01       		.byte	0x1
 1807 0b69 F5       		.byte	0xf5
 1808 0b6a 5C090000 		.4byte	0x95c
 1809 0b6e 00000000 		.4byte	.LFB123
 1810 0b72 0C000000 		.4byte	.LFE123-.LFB123
 1811 0b76 01       		.uleb128 0x1
 1812 0b77 9C       		.byte	0x9c
 1813 0b78 860B0000 		.4byte	0xb86
 1814 0b7c 21       		.uleb128 0x21
 1815 0b7d 06000000 		.4byte	.LVL50
 1816 0b81 2B0C0000 		.4byte	0xc2b
 1817 0b85 00       		.byte	0
 1818 0b86 22       		.uleb128 0x22
 1819 0b87 A2000000 		.4byte	.LASF162
 1820 0b8b 11       		.byte	0x11
 1821 0b8c 9806     		.2byte	0x698
 1822 0b8e DC030000 		.4byte	0x3dc
 1823 0b92 23       		.uleb128 0x23
 1824 0b93 2A040000 		.4byte	.LASF163
ARM GAS  C:\Users\danit\AppData\Local\Temp\cc6bi5Kf.s 			page 33


 1825 0b97 01       		.byte	0x1
 1826 0b98 1B       		.byte	0x1b
 1827 0b99 B9070000 		.4byte	0x7b9
 1828 0b9d 23       		.uleb128 0x23
 1829 0b9e A2030000 		.4byte	.LASF164
 1830 0ba2 01       		.byte	0x1
 1831 0ba3 14       		.byte	0x14
 1832 0ba4 F9070000 		.4byte	0x7f9
 1833 0ba8 24       		.uleb128 0x24
 1834 0ba9 34030000 		.4byte	.LASF165
 1835 0bad 0E       		.byte	0xe
 1836 0bae 3401     		.2byte	0x134
 1837 0bb0 AD000000 		.4byte	0xad
 1838 0bb4 BE0B0000 		.4byte	0xbbe
 1839 0bb8 19       		.uleb128 0x19
 1840 0bb9 BE0B0000 		.4byte	0xbbe
 1841 0bbd 00       		.byte	0
 1842 0bbe 09       		.uleb128 0x9
 1843 0bbf 04       		.byte	0x4
 1844 0bc0 F9070000 		.4byte	0x7f9
 1845 0bc4 25       		.uleb128 0x25
 1846 0bc5 7E030000 		.4byte	.LASF166
 1847 0bc9 12       		.byte	0x12
 1848 0bca AC       		.byte	0xac
 1849 0bcb AD000000 		.4byte	0xad
 1850 0bcf E80B0000 		.4byte	0xbe8
 1851 0bd3 19       		.uleb128 0x19
 1852 0bd4 BE0B0000 		.4byte	0xbbe
 1853 0bd8 19       		.uleb128 0x19
 1854 0bd9 A2000000 		.4byte	0xa2
 1855 0bdd 19       		.uleb128 0x19
 1856 0bde BB030000 		.4byte	0x3bb
 1857 0be2 19       		.uleb128 0x19
 1858 0be3 A2000000 		.4byte	0xa2
 1859 0be7 00       		.byte	0
 1860 0be8 25       		.uleb128 0x25
 1861 0be9 64030000 		.4byte	.LASF167
 1862 0bed 12       		.byte	0x12
 1863 0bee AE       		.byte	0xae
 1864 0bef AD000000 		.4byte	0xad
 1865 0bf3 0C0C0000 		.4byte	0xc0c
 1866 0bf7 19       		.uleb128 0x19
 1867 0bf8 BE0B0000 		.4byte	0xbbe
 1868 0bfc 19       		.uleb128 0x19
 1869 0bfd A2000000 		.4byte	0xa2
 1870 0c01 19       		.uleb128 0x19
 1871 0c02 C1030000 		.4byte	0x3c1
 1872 0c06 19       		.uleb128 0x19
 1873 0c07 A2000000 		.4byte	0xa2
 1874 0c0b 00       		.byte	0
 1875 0c0c 25       		.uleb128 0x25
 1876 0c0d 5B030000 		.4byte	.LASF168
 1877 0c11 12       		.byte	0x12
 1878 0c12 B3       		.byte	0xb3
 1879 0c13 AD000000 		.4byte	0xad
 1880 0c17 2B0C0000 		.4byte	0xc2b
 1881 0c1b 19       		.uleb128 0x19
ARM GAS  C:\Users\danit\AppData\Local\Temp\cc6bi5Kf.s 			page 34


 1882 0c1c BE0B0000 		.4byte	0xbbe
 1883 0c20 19       		.uleb128 0x19
 1884 0c21 A2000000 		.4byte	0xa2
 1885 0c25 19       		.uleb128 0x19
 1886 0c26 A2000000 		.4byte	0xa2
 1887 0c2a 00       		.byte	0
 1888 0c2b 25       		.uleb128 0x25
 1889 0c2c CF010000 		.4byte	.LASF169
 1890 0c30 0C       		.byte	0xc
 1891 0c31 A7       		.byte	0xa7
 1892 0c32 A2000000 		.4byte	0xa2
 1893 0c36 400C0000 		.4byte	0xc40
 1894 0c3a 19       		.uleb128 0x19
 1895 0c3b 400C0000 		.4byte	0xc40
 1896 0c3f 00       		.byte	0
 1897 0c40 09       		.uleb128 0x9
 1898 0c41 04       		.byte	0x4
 1899 0c42 B9070000 		.4byte	0x7b9
 1900 0c46 00       		.byte	0
 1901              		.section	.debug_abbrev,"",%progbits
 1902              	.Ldebug_abbrev0:
 1903 0000 01       		.uleb128 0x1
 1904 0001 11       		.uleb128 0x11
 1905 0002 01       		.byte	0x1
 1906 0003 25       		.uleb128 0x25
 1907 0004 0E       		.uleb128 0xe
 1908 0005 13       		.uleb128 0x13
 1909 0006 0B       		.uleb128 0xb
 1910 0007 03       		.uleb128 0x3
 1911 0008 0E       		.uleb128 0xe
 1912 0009 1B       		.uleb128 0x1b
 1913 000a 0E       		.uleb128 0xe
 1914 000b 55       		.uleb128 0x55
 1915 000c 17       		.uleb128 0x17
 1916 000d 11       		.uleb128 0x11
 1917 000e 01       		.uleb128 0x1
 1918 000f 10       		.uleb128 0x10
 1919 0010 17       		.uleb128 0x17
 1920 0011 00       		.byte	0
 1921 0012 00       		.byte	0
 1922 0013 02       		.uleb128 0x2
 1923 0014 24       		.uleb128 0x24
 1924 0015 00       		.byte	0
 1925 0016 0B       		.uleb128 0xb
 1926 0017 0B       		.uleb128 0xb
 1927 0018 3E       		.uleb128 0x3e
 1928 0019 0B       		.uleb128 0xb
 1929 001a 03       		.uleb128 0x3
 1930 001b 08       		.uleb128 0x8
 1931 001c 00       		.byte	0
 1932 001d 00       		.byte	0
 1933 001e 03       		.uleb128 0x3
 1934 001f 24       		.uleb128 0x24
 1935 0020 00       		.byte	0
 1936 0021 0B       		.uleb128 0xb
 1937 0022 0B       		.uleb128 0xb
 1938 0023 3E       		.uleb128 0x3e
ARM GAS  C:\Users\danit\AppData\Local\Temp\cc6bi5Kf.s 			page 35


 1939 0024 0B       		.uleb128 0xb
 1940 0025 03       		.uleb128 0x3
 1941 0026 0E       		.uleb128 0xe
 1942 0027 00       		.byte	0
 1943 0028 00       		.byte	0
 1944 0029 04       		.uleb128 0x4
 1945 002a 16       		.uleb128 0x16
 1946 002b 00       		.byte	0
 1947 002c 03       		.uleb128 0x3
 1948 002d 0E       		.uleb128 0xe
 1949 002e 3A       		.uleb128 0x3a
 1950 002f 0B       		.uleb128 0xb
 1951 0030 3B       		.uleb128 0x3b
 1952 0031 0B       		.uleb128 0xb
 1953 0032 49       		.uleb128 0x49
 1954 0033 13       		.uleb128 0x13
 1955 0034 00       		.byte	0
 1956 0035 00       		.byte	0
 1957 0036 05       		.uleb128 0x5
 1958 0037 13       		.uleb128 0x13
 1959 0038 01       		.byte	0x1
 1960 0039 03       		.uleb128 0x3
 1961 003a 0E       		.uleb128 0xe
 1962 003b 0B       		.uleb128 0xb
 1963 003c 0B       		.uleb128 0xb
 1964 003d 3A       		.uleb128 0x3a
 1965 003e 0B       		.uleb128 0xb
 1966 003f 3B       		.uleb128 0x3b
 1967 0040 0B       		.uleb128 0xb
 1968 0041 01       		.uleb128 0x1
 1969 0042 13       		.uleb128 0x13
 1970 0043 00       		.byte	0
 1971 0044 00       		.byte	0
 1972 0045 06       		.uleb128 0x6
 1973 0046 0D       		.uleb128 0xd
 1974 0047 00       		.byte	0
 1975 0048 03       		.uleb128 0x3
 1976 0049 0E       		.uleb128 0xe
 1977 004a 3A       		.uleb128 0x3a
 1978 004b 0B       		.uleb128 0xb
 1979 004c 3B       		.uleb128 0x3b
 1980 004d 0B       		.uleb128 0xb
 1981 004e 49       		.uleb128 0x49
 1982 004f 13       		.uleb128 0x13
 1983 0050 38       		.uleb128 0x38
 1984 0051 0B       		.uleb128 0xb
 1985 0052 00       		.byte	0
 1986 0053 00       		.byte	0
 1987 0054 07       		.uleb128 0x7
 1988 0055 0D       		.uleb128 0xd
 1989 0056 00       		.byte	0
 1990 0057 03       		.uleb128 0x3
 1991 0058 08       		.uleb128 0x8
 1992 0059 3A       		.uleb128 0x3a
 1993 005a 0B       		.uleb128 0xb
 1994 005b 3B       		.uleb128 0x3b
 1995 005c 0B       		.uleb128 0xb
ARM GAS  C:\Users\danit\AppData\Local\Temp\cc6bi5Kf.s 			page 36


 1996 005d 49       		.uleb128 0x49
 1997 005e 13       		.uleb128 0x13
 1998 005f 38       		.uleb128 0x38
 1999 0060 0B       		.uleb128 0xb
 2000 0061 00       		.byte	0
 2001 0062 00       		.byte	0
 2002 0063 08       		.uleb128 0x8
 2003 0064 13       		.uleb128 0x13
 2004 0065 01       		.byte	0x1
 2005 0066 0B       		.uleb128 0xb
 2006 0067 0B       		.uleb128 0xb
 2007 0068 3A       		.uleb128 0x3a
 2008 0069 0B       		.uleb128 0xb
 2009 006a 3B       		.uleb128 0x3b
 2010 006b 0B       		.uleb128 0xb
 2011 006c 01       		.uleb128 0x1
 2012 006d 13       		.uleb128 0x13
 2013 006e 00       		.byte	0
 2014 006f 00       		.byte	0
 2015 0070 09       		.uleb128 0x9
 2016 0071 0F       		.uleb128 0xf
 2017 0072 00       		.byte	0
 2018 0073 0B       		.uleb128 0xb
 2019 0074 0B       		.uleb128 0xb
 2020 0075 49       		.uleb128 0x49
 2021 0076 13       		.uleb128 0x13
 2022 0077 00       		.byte	0
 2023 0078 00       		.byte	0
 2024 0079 0A       		.uleb128 0xa
 2025 007a 0F       		.uleb128 0xf
 2026 007b 00       		.byte	0
 2027 007c 0B       		.uleb128 0xb
 2028 007d 0B       		.uleb128 0xb
 2029 007e 00       		.byte	0
 2030 007f 00       		.byte	0
 2031 0080 0B       		.uleb128 0xb
 2032 0081 13       		.uleb128 0x13
 2033 0082 01       		.byte	0x1
 2034 0083 03       		.uleb128 0x3
 2035 0084 0E       		.uleb128 0xe
 2036 0085 0B       		.uleb128 0xb
 2037 0086 0B       		.uleb128 0xb
 2038 0087 3A       		.uleb128 0x3a
 2039 0088 0B       		.uleb128 0xb
 2040 0089 3B       		.uleb128 0x3b
 2041 008a 05       		.uleb128 0x5
 2042 008b 01       		.uleb128 0x1
 2043 008c 13       		.uleb128 0x13
 2044 008d 00       		.byte	0
 2045 008e 00       		.byte	0
 2046 008f 0C       		.uleb128 0xc
 2047 0090 0D       		.uleb128 0xd
 2048 0091 00       		.byte	0
 2049 0092 03       		.uleb128 0x3
 2050 0093 08       		.uleb128 0x8
 2051 0094 3A       		.uleb128 0x3a
 2052 0095 0B       		.uleb128 0xb
ARM GAS  C:\Users\danit\AppData\Local\Temp\cc6bi5Kf.s 			page 37


 2053 0096 3B       		.uleb128 0x3b
 2054 0097 05       		.uleb128 0x5
 2055 0098 49       		.uleb128 0x49
 2056 0099 13       		.uleb128 0x13
 2057 009a 38       		.uleb128 0x38
 2058 009b 0B       		.uleb128 0xb
 2059 009c 00       		.byte	0
 2060 009d 00       		.byte	0
 2061 009e 0D       		.uleb128 0xd
 2062 009f 35       		.uleb128 0x35
 2063 00a0 00       		.byte	0
 2064 00a1 49       		.uleb128 0x49
 2065 00a2 13       		.uleb128 0x13
 2066 00a3 00       		.byte	0
 2067 00a4 00       		.byte	0
 2068 00a5 0E       		.uleb128 0xe
 2069 00a6 17       		.uleb128 0x17
 2070 00a7 01       		.byte	0x1
 2071 00a8 0B       		.uleb128 0xb
 2072 00a9 0B       		.uleb128 0xb
 2073 00aa 3A       		.uleb128 0x3a
 2074 00ab 0B       		.uleb128 0xb
 2075 00ac 3B       		.uleb128 0x3b
 2076 00ad 0B       		.uleb128 0xb
 2077 00ae 01       		.uleb128 0x1
 2078 00af 13       		.uleb128 0x13
 2079 00b0 00       		.byte	0
 2080 00b1 00       		.byte	0
 2081 00b2 0F       		.uleb128 0xf
 2082 00b3 0D       		.uleb128 0xd
 2083 00b4 00       		.byte	0
 2084 00b5 03       		.uleb128 0x3
 2085 00b6 0E       		.uleb128 0xe
 2086 00b7 3A       		.uleb128 0x3a
 2087 00b8 0B       		.uleb128 0xb
 2088 00b9 3B       		.uleb128 0x3b
 2089 00ba 0B       		.uleb128 0xb
 2090 00bb 49       		.uleb128 0x49
 2091 00bc 13       		.uleb128 0x13
 2092 00bd 00       		.byte	0
 2093 00be 00       		.byte	0
 2094 00bf 10       		.uleb128 0x10
 2095 00c0 26       		.uleb128 0x26
 2096 00c1 00       		.byte	0
 2097 00c2 49       		.uleb128 0x49
 2098 00c3 13       		.uleb128 0x13
 2099 00c4 00       		.byte	0
 2100 00c5 00       		.byte	0
 2101 00c6 11       		.uleb128 0x11
 2102 00c7 01       		.uleb128 0x1
 2103 00c8 01       		.byte	0x1
 2104 00c9 49       		.uleb128 0x49
 2105 00ca 13       		.uleb128 0x13
 2106 00cb 01       		.uleb128 0x1
 2107 00cc 13       		.uleb128 0x13
 2108 00cd 00       		.byte	0
 2109 00ce 00       		.byte	0
ARM GAS  C:\Users\danit\AppData\Local\Temp\cc6bi5Kf.s 			page 38


 2110 00cf 12       		.uleb128 0x12
 2111 00d0 21       		.uleb128 0x21
 2112 00d1 00       		.byte	0
 2113 00d2 49       		.uleb128 0x49
 2114 00d3 13       		.uleb128 0x13
 2115 00d4 2F       		.uleb128 0x2f
 2116 00d5 0B       		.uleb128 0xb
 2117 00d6 00       		.byte	0
 2118 00d7 00       		.byte	0
 2119 00d8 13       		.uleb128 0x13
 2120 00d9 13       		.uleb128 0x13
 2121 00da 01       		.byte	0x1
 2122 00db 0B       		.uleb128 0xb
 2123 00dc 0B       		.uleb128 0xb
 2124 00dd 3A       		.uleb128 0x3a
 2125 00de 0B       		.uleb128 0xb
 2126 00df 3B       		.uleb128 0x3b
 2127 00e0 05       		.uleb128 0x5
 2128 00e1 01       		.uleb128 0x1
 2129 00e2 13       		.uleb128 0x13
 2130 00e3 00       		.byte	0
 2131 00e4 00       		.byte	0
 2132 00e5 14       		.uleb128 0x14
 2133 00e6 0D       		.uleb128 0xd
 2134 00e7 00       		.byte	0
 2135 00e8 03       		.uleb128 0x3
 2136 00e9 0E       		.uleb128 0xe
 2137 00ea 3A       		.uleb128 0x3a
 2138 00eb 0B       		.uleb128 0xb
 2139 00ec 3B       		.uleb128 0x3b
 2140 00ed 05       		.uleb128 0x5
 2141 00ee 49       		.uleb128 0x49
 2142 00ef 13       		.uleb128 0x13
 2143 00f0 38       		.uleb128 0x38
 2144 00f1 0B       		.uleb128 0xb
 2145 00f2 00       		.byte	0
 2146 00f3 00       		.byte	0
 2147 00f4 15       		.uleb128 0x15
 2148 00f5 16       		.uleb128 0x16
 2149 00f6 00       		.byte	0
 2150 00f7 03       		.uleb128 0x3
 2151 00f8 0E       		.uleb128 0xe
 2152 00f9 3A       		.uleb128 0x3a
 2153 00fa 0B       		.uleb128 0xb
 2154 00fb 3B       		.uleb128 0x3b
 2155 00fc 05       		.uleb128 0x5
 2156 00fd 49       		.uleb128 0x49
 2157 00fe 13       		.uleb128 0x13
 2158 00ff 00       		.byte	0
 2159 0100 00       		.byte	0
 2160 0101 16       		.uleb128 0x16
 2161 0102 04       		.uleb128 0x4
 2162 0103 01       		.byte	0x1
 2163 0104 0B       		.uleb128 0xb
 2164 0105 0B       		.uleb128 0xb
 2165 0106 3A       		.uleb128 0x3a
 2166 0107 0B       		.uleb128 0xb
ARM GAS  C:\Users\danit\AppData\Local\Temp\cc6bi5Kf.s 			page 39


 2167 0108 3B       		.uleb128 0x3b
 2168 0109 0B       		.uleb128 0xb
 2169 010a 01       		.uleb128 0x1
 2170 010b 13       		.uleb128 0x13
 2171 010c 00       		.byte	0
 2172 010d 00       		.byte	0
 2173 010e 17       		.uleb128 0x17
 2174 010f 28       		.uleb128 0x28
 2175 0110 00       		.byte	0
 2176 0111 03       		.uleb128 0x3
 2177 0112 0E       		.uleb128 0xe
 2178 0113 1C       		.uleb128 0x1c
 2179 0114 0D       		.uleb128 0xd
 2180 0115 00       		.byte	0
 2181 0116 00       		.byte	0
 2182 0117 18       		.uleb128 0x18
 2183 0118 15       		.uleb128 0x15
 2184 0119 01       		.byte	0x1
 2185 011a 27       		.uleb128 0x27
 2186 011b 19       		.uleb128 0x19
 2187 011c 49       		.uleb128 0x49
 2188 011d 13       		.uleb128 0x13
 2189 011e 01       		.uleb128 0x1
 2190 011f 13       		.uleb128 0x13
 2191 0120 00       		.byte	0
 2192 0121 00       		.byte	0
 2193 0122 19       		.uleb128 0x19
 2194 0123 05       		.uleb128 0x5
 2195 0124 00       		.byte	0
 2196 0125 49       		.uleb128 0x49
 2197 0126 13       		.uleb128 0x13
 2198 0127 00       		.byte	0
 2199 0128 00       		.byte	0
 2200 0129 1A       		.uleb128 0x1a
 2201 012a 2E       		.uleb128 0x2e
 2202 012b 01       		.byte	0x1
 2203 012c 3F       		.uleb128 0x3f
 2204 012d 19       		.uleb128 0x19
 2205 012e 03       		.uleb128 0x3
 2206 012f 0E       		.uleb128 0xe
 2207 0130 3A       		.uleb128 0x3a
 2208 0131 0B       		.uleb128 0xb
 2209 0132 3B       		.uleb128 0x3b
 2210 0133 0B       		.uleb128 0xb
 2211 0134 27       		.uleb128 0x27
 2212 0135 19       		.uleb128 0x19
 2213 0136 49       		.uleb128 0x49
 2214 0137 13       		.uleb128 0x13
 2215 0138 11       		.uleb128 0x11
 2216 0139 01       		.uleb128 0x1
 2217 013a 12       		.uleb128 0x12
 2218 013b 06       		.uleb128 0x6
 2219 013c 40       		.uleb128 0x40
 2220 013d 18       		.uleb128 0x18
 2221 013e 9742     		.uleb128 0x2117
 2222 0140 19       		.uleb128 0x19
 2223 0141 01       		.uleb128 0x1
ARM GAS  C:\Users\danit\AppData\Local\Temp\cc6bi5Kf.s 			page 40


 2224 0142 13       		.uleb128 0x13
 2225 0143 00       		.byte	0
 2226 0144 00       		.byte	0
 2227 0145 1B       		.uleb128 0x1b
 2228 0146 05       		.uleb128 0x5
 2229 0147 00       		.byte	0
 2230 0148 03       		.uleb128 0x3
 2231 0149 08       		.uleb128 0x8
 2232 014a 3A       		.uleb128 0x3a
 2233 014b 0B       		.uleb128 0xb
 2234 014c 3B       		.uleb128 0x3b
 2235 014d 0B       		.uleb128 0xb
 2236 014e 49       		.uleb128 0x49
 2237 014f 13       		.uleb128 0x13
 2238 0150 02       		.uleb128 0x2
 2239 0151 17       		.uleb128 0x17
 2240 0152 00       		.byte	0
 2241 0153 00       		.byte	0
 2242 0154 1C       		.uleb128 0x1c
 2243 0155 34       		.uleb128 0x34
 2244 0156 00       		.byte	0
 2245 0157 03       		.uleb128 0x3
 2246 0158 0E       		.uleb128 0xe
 2247 0159 3A       		.uleb128 0x3a
 2248 015a 0B       		.uleb128 0xb
 2249 015b 3B       		.uleb128 0x3b
 2250 015c 0B       		.uleb128 0xb
 2251 015d 49       		.uleb128 0x49
 2252 015e 13       		.uleb128 0x13
 2253 015f 02       		.uleb128 0x2
 2254 0160 17       		.uleb128 0x17
 2255 0161 00       		.byte	0
 2256 0162 00       		.byte	0
 2257 0163 1D       		.uleb128 0x1d
 2258 0164 898201   		.uleb128 0x4109
 2259 0167 00       		.byte	0
 2260 0168 11       		.uleb128 0x11
 2261 0169 01       		.uleb128 0x1
 2262 016a 31       		.uleb128 0x31
 2263 016b 13       		.uleb128 0x13
 2264 016c 00       		.byte	0
 2265 016d 00       		.byte	0
 2266 016e 1E       		.uleb128 0x1e
 2267 016f 05       		.uleb128 0x5
 2268 0170 00       		.byte	0
 2269 0171 03       		.uleb128 0x3
 2270 0172 0E       		.uleb128 0xe
 2271 0173 3A       		.uleb128 0x3a
 2272 0174 0B       		.uleb128 0xb
 2273 0175 3B       		.uleb128 0x3b
 2274 0176 0B       		.uleb128 0xb
 2275 0177 49       		.uleb128 0x49
 2276 0178 13       		.uleb128 0x13
 2277 0179 02       		.uleb128 0x2
 2278 017a 17       		.uleb128 0x17
 2279 017b 00       		.byte	0
 2280 017c 00       		.byte	0
ARM GAS  C:\Users\danit\AppData\Local\Temp\cc6bi5Kf.s 			page 41


 2281 017d 1F       		.uleb128 0x1f
 2282 017e 898201   		.uleb128 0x4109
 2283 0181 01       		.byte	0x1
 2284 0182 11       		.uleb128 0x11
 2285 0183 01       		.uleb128 0x1
 2286 0184 9542     		.uleb128 0x2115
 2287 0186 19       		.uleb128 0x19
 2288 0187 31       		.uleb128 0x31
 2289 0188 13       		.uleb128 0x13
 2290 0189 00       		.byte	0
 2291 018a 00       		.byte	0
 2292 018b 20       		.uleb128 0x20
 2293 018c 8A8201   		.uleb128 0x410a
 2294 018f 00       		.byte	0
 2295 0190 02       		.uleb128 0x2
 2296 0191 18       		.uleb128 0x18
 2297 0192 9142     		.uleb128 0x2111
 2298 0194 18       		.uleb128 0x18
 2299 0195 00       		.byte	0
 2300 0196 00       		.byte	0
 2301 0197 21       		.uleb128 0x21
 2302 0198 898201   		.uleb128 0x4109
 2303 019b 00       		.byte	0
 2304 019c 11       		.uleb128 0x11
 2305 019d 01       		.uleb128 0x1
 2306 019e 9542     		.uleb128 0x2115
 2307 01a0 19       		.uleb128 0x19
 2308 01a1 31       		.uleb128 0x31
 2309 01a2 13       		.uleb128 0x13
 2310 01a3 00       		.byte	0
 2311 01a4 00       		.byte	0
 2312 01a5 22       		.uleb128 0x22
 2313 01a6 34       		.uleb128 0x34
 2314 01a7 00       		.byte	0
 2315 01a8 03       		.uleb128 0x3
 2316 01a9 0E       		.uleb128 0xe
 2317 01aa 3A       		.uleb128 0x3a
 2318 01ab 0B       		.uleb128 0xb
 2319 01ac 3B       		.uleb128 0x3b
 2320 01ad 05       		.uleb128 0x5
 2321 01ae 49       		.uleb128 0x49
 2322 01af 13       		.uleb128 0x13
 2323 01b0 3F       		.uleb128 0x3f
 2324 01b1 19       		.uleb128 0x19
 2325 01b2 3C       		.uleb128 0x3c
 2326 01b3 19       		.uleb128 0x19
 2327 01b4 00       		.byte	0
 2328 01b5 00       		.byte	0
 2329 01b6 23       		.uleb128 0x23
 2330 01b7 34       		.uleb128 0x34
 2331 01b8 00       		.byte	0
 2332 01b9 03       		.uleb128 0x3
 2333 01ba 0E       		.uleb128 0xe
 2334 01bb 3A       		.uleb128 0x3a
 2335 01bc 0B       		.uleb128 0xb
 2336 01bd 3B       		.uleb128 0x3b
 2337 01be 0B       		.uleb128 0xb
ARM GAS  C:\Users\danit\AppData\Local\Temp\cc6bi5Kf.s 			page 42


 2338 01bf 49       		.uleb128 0x49
 2339 01c0 13       		.uleb128 0x13
 2340 01c1 3F       		.uleb128 0x3f
 2341 01c2 19       		.uleb128 0x19
 2342 01c3 3C       		.uleb128 0x3c
 2343 01c4 19       		.uleb128 0x19
 2344 01c5 00       		.byte	0
 2345 01c6 00       		.byte	0
 2346 01c7 24       		.uleb128 0x24
 2347 01c8 2E       		.uleb128 0x2e
 2348 01c9 01       		.byte	0x1
 2349 01ca 3F       		.uleb128 0x3f
 2350 01cb 19       		.uleb128 0x19
 2351 01cc 03       		.uleb128 0x3
 2352 01cd 0E       		.uleb128 0xe
 2353 01ce 3A       		.uleb128 0x3a
 2354 01cf 0B       		.uleb128 0xb
 2355 01d0 3B       		.uleb128 0x3b
 2356 01d1 05       		.uleb128 0x5
 2357 01d2 27       		.uleb128 0x27
 2358 01d3 19       		.uleb128 0x19
 2359 01d4 49       		.uleb128 0x49
 2360 01d5 13       		.uleb128 0x13
 2361 01d6 3C       		.uleb128 0x3c
 2362 01d7 19       		.uleb128 0x19
 2363 01d8 01       		.uleb128 0x1
 2364 01d9 13       		.uleb128 0x13
 2365 01da 00       		.byte	0
 2366 01db 00       		.byte	0
 2367 01dc 25       		.uleb128 0x25
 2368 01dd 2E       		.uleb128 0x2e
 2369 01de 01       		.byte	0x1
 2370 01df 3F       		.uleb128 0x3f
 2371 01e0 19       		.uleb128 0x19
 2372 01e1 03       		.uleb128 0x3
 2373 01e2 0E       		.uleb128 0xe
 2374 01e3 3A       		.uleb128 0x3a
 2375 01e4 0B       		.uleb128 0xb
 2376 01e5 3B       		.uleb128 0x3b
 2377 01e6 0B       		.uleb128 0xb
 2378 01e7 27       		.uleb128 0x27
 2379 01e8 19       		.uleb128 0x19
 2380 01e9 49       		.uleb128 0x49
 2381 01ea 13       		.uleb128 0x13
 2382 01eb 3C       		.uleb128 0x3c
 2383 01ec 19       		.uleb128 0x19
 2384 01ed 01       		.uleb128 0x1
 2385 01ee 13       		.uleb128 0x13
 2386 01ef 00       		.byte	0
 2387 01f0 00       		.byte	0
 2388 01f1 00       		.byte	0
 2389              		.section	.debug_loc,"",%progbits
 2390              	.Ldebug_loc0:
 2391              	.LLST0:
 2392 0000 00000000 		.4byte	.LVL0
 2393 0004 06000000 		.4byte	.LVL1
 2394 0008 0100     		.2byte	0x1
ARM GAS  C:\Users\danit\AppData\Local\Temp\cc6bi5Kf.s 			page 43


 2395 000a 50       		.byte	0x50
 2396 000b 06000000 		.4byte	.LVL1
 2397 000f 0A000000 		.4byte	.LVL2
 2398 0013 0400     		.2byte	0x4
 2399 0015 F3       		.byte	0xf3
 2400 0016 01       		.uleb128 0x1
 2401 0017 50       		.byte	0x50
 2402 0018 9F       		.byte	0x9f
 2403 0019 0A000000 		.4byte	.LVL2
 2404 001d 0C000000 		.4byte	.LVL3
 2405 0021 0100     		.2byte	0x1
 2406 0023 50       		.byte	0x50
 2407 0024 0C000000 		.4byte	.LVL3
 2408 0028 2C000000 		.4byte	.LFE118
 2409 002c 0400     		.2byte	0x4
 2410 002e F3       		.byte	0xf3
 2411 002f 01       		.uleb128 0x1
 2412 0030 50       		.byte	0x50
 2413 0031 9F       		.byte	0x9f
 2414 0032 00000000 		.4byte	0
 2415 0036 00000000 		.4byte	0
 2416              	.LLST1:
 2417 003a 0A000000 		.4byte	.LVL2
 2418 003e 14000000 		.4byte	.LVL4
 2419 0042 0200     		.2byte	0x2
 2420 0044 30       		.byte	0x30
 2421 0045 9F       		.byte	0x9f
 2422 0046 14000000 		.4byte	.LVL4
 2423 004a 20000000 		.4byte	.LVL6
 2424 004e 0100     		.2byte	0x1
 2425 0050 54       		.byte	0x54
 2426 0051 00000000 		.4byte	0
 2427 0055 00000000 		.4byte	0
 2428              	.LLST2:
 2429 0059 00000000 		.4byte	.LVL7
 2430 005d 06000000 		.4byte	.LVL8
 2431 0061 0100     		.2byte	0x1
 2432 0063 50       		.byte	0x50
 2433 0064 06000000 		.4byte	.LVL8
 2434 0068 0A000000 		.4byte	.LVL9
 2435 006c 0400     		.2byte	0x4
 2436 006e F3       		.byte	0xf3
 2437 006f 01       		.uleb128 0x1
 2438 0070 50       		.byte	0x50
 2439 0071 9F       		.byte	0x9f
 2440 0072 0A000000 		.4byte	.LVL9
 2441 0076 0C000000 		.4byte	.LVL10
 2442 007a 0100     		.2byte	0x1
 2443 007c 50       		.byte	0x50
 2444 007d 0C000000 		.4byte	.LVL10
 2445 0081 2C000000 		.4byte	.LFE119
 2446 0085 0400     		.2byte	0x4
 2447 0087 F3       		.byte	0xf3
 2448 0088 01       		.uleb128 0x1
 2449 0089 50       		.byte	0x50
 2450 008a 9F       		.byte	0x9f
 2451 008b 00000000 		.4byte	0
ARM GAS  C:\Users\danit\AppData\Local\Temp\cc6bi5Kf.s 			page 44


 2452 008f 00000000 		.4byte	0
 2453              	.LLST3:
 2454 0093 0A000000 		.4byte	.LVL9
 2455 0097 14000000 		.4byte	.LVL11
 2456 009b 0200     		.2byte	0x2
 2457 009d 30       		.byte	0x30
 2458 009e 9F       		.byte	0x9f
 2459 009f 14000000 		.4byte	.LVL11
 2460 00a3 20000000 		.4byte	.LVL13
 2461 00a7 0100     		.2byte	0x1
 2462 00a9 54       		.byte	0x54
 2463 00aa 00000000 		.4byte	0
 2464 00ae 00000000 		.4byte	0
 2465              	.LLST4:
 2466 00b2 00000000 		.4byte	.LVL14
 2467 00b6 04000000 		.4byte	.LVL15
 2468 00ba 0100     		.2byte	0x1
 2469 00bc 50       		.byte	0x50
 2470 00bd 04000000 		.4byte	.LVL15
 2471 00c1 06000000 		.4byte	.LVL16
 2472 00c5 0400     		.2byte	0x4
 2473 00c7 F3       		.byte	0xf3
 2474 00c8 01       		.uleb128 0x1
 2475 00c9 50       		.byte	0x50
 2476 00ca 9F       		.byte	0x9f
 2477 00cb 06000000 		.4byte	.LVL16
 2478 00cf 08000000 		.4byte	.LVL17
 2479 00d3 0100     		.2byte	0x1
 2480 00d5 50       		.byte	0x50
 2481 00d6 08000000 		.4byte	.LVL17
 2482 00da 2C000000 		.4byte	.LFE120
 2483 00de 0400     		.2byte	0x4
 2484 00e0 F3       		.byte	0xf3
 2485 00e1 01       		.uleb128 0x1
 2486 00e2 50       		.byte	0x50
 2487 00e3 9F       		.byte	0x9f
 2488 00e4 00000000 		.4byte	0
 2489 00e8 00000000 		.4byte	0
 2490              	.LLST5:
 2491 00ec 00000000 		.4byte	.LVL14
 2492 00f0 0E000000 		.4byte	.LVL18
 2493 00f4 0100     		.2byte	0x1
 2494 00f6 51       		.byte	0x51
 2495 00f7 0E000000 		.4byte	.LVL18
 2496 00fb 18000000 		.4byte	.LVL19
 2497 00ff 0100     		.2byte	0x1
 2498 0101 54       		.byte	0x54
 2499 0102 18000000 		.4byte	.LVL19
 2500 0106 1A000000 		.4byte	.LVL20
 2501 010a 0400     		.2byte	0x4
 2502 010c F3       		.byte	0xf3
 2503 010d 01       		.uleb128 0x1
 2504 010e 51       		.byte	0x51
 2505 010f 9F       		.byte	0x9f
 2506 0110 1A000000 		.4byte	.LVL20
 2507 0114 22000000 		.4byte	.LVL22
 2508 0118 0100     		.2byte	0x1
ARM GAS  C:\Users\danit\AppData\Local\Temp\cc6bi5Kf.s 			page 45


 2509 011a 54       		.byte	0x54
 2510 011b 22000000 		.4byte	.LVL22
 2511 011f 25000000 		.4byte	.LVL23-1
 2512 0123 0100     		.2byte	0x1
 2513 0125 52       		.byte	0x52
 2514 0126 25000000 		.4byte	.LVL23-1
 2515 012a 2C000000 		.4byte	.LFE120
 2516 012e 0400     		.2byte	0x4
 2517 0130 F3       		.byte	0xf3
 2518 0131 01       		.uleb128 0x1
 2519 0132 51       		.byte	0x51
 2520 0133 9F       		.byte	0x9f
 2521 0134 00000000 		.4byte	0
 2522 0138 00000000 		.4byte	0
 2523              	.LLST6:
 2524 013c 00000000 		.4byte	.LVL14
 2525 0140 1E000000 		.4byte	.LVL21
 2526 0144 0100     		.2byte	0x1
 2527 0146 52       		.byte	0x52
 2528 0147 1E000000 		.4byte	.LVL21
 2529 014b 25000000 		.4byte	.LVL23-1
 2530 014f 0100     		.2byte	0x1
 2531 0151 51       		.byte	0x51
 2532 0152 25000000 		.4byte	.LVL23-1
 2533 0156 2C000000 		.4byte	.LFE120
 2534 015a 0400     		.2byte	0x4
 2535 015c F3       		.byte	0xf3
 2536 015d 01       		.uleb128 0x1
 2537 015e 52       		.byte	0x52
 2538 015f 9F       		.byte	0x9f
 2539 0160 00000000 		.4byte	0
 2540 0164 00000000 		.4byte	0
 2541              	.LLST7:
 2542 0168 00000000 		.4byte	.LVL14
 2543 016c 25000000 		.4byte	.LVL23-1
 2544 0170 0100     		.2byte	0x1
 2545 0172 53       		.byte	0x53
 2546 0173 25000000 		.4byte	.LVL23-1
 2547 0177 2C000000 		.4byte	.LFE120
 2548 017b 0400     		.2byte	0x4
 2549 017d F3       		.byte	0xf3
 2550 017e 01       		.uleb128 0x1
 2551 017f 53       		.byte	0x53
 2552 0180 9F       		.byte	0x9f
 2553 0181 00000000 		.4byte	0
 2554 0185 00000000 		.4byte	0
 2555              	.LLST8:
 2556 0189 00000000 		.4byte	.LVL24
 2557 018d 04000000 		.4byte	.LVL25
 2558 0191 0100     		.2byte	0x1
 2559 0193 50       		.byte	0x50
 2560 0194 04000000 		.4byte	.LVL25
 2561 0198 06000000 		.4byte	.LVL26
 2562 019c 0400     		.2byte	0x4
 2563 019e F3       		.byte	0xf3
 2564 019f 01       		.uleb128 0x1
 2565 01a0 50       		.byte	0x50
ARM GAS  C:\Users\danit\AppData\Local\Temp\cc6bi5Kf.s 			page 46


 2566 01a1 9F       		.byte	0x9f
 2567 01a2 06000000 		.4byte	.LVL26
 2568 01a6 08000000 		.4byte	.LVL27
 2569 01aa 0100     		.2byte	0x1
 2570 01ac 50       		.byte	0x50
 2571 01ad 08000000 		.4byte	.LVL27
 2572 01b1 2C000000 		.4byte	.LFE121
 2573 01b5 0400     		.2byte	0x4
 2574 01b7 F3       		.byte	0xf3
 2575 01b8 01       		.uleb128 0x1
 2576 01b9 50       		.byte	0x50
 2577 01ba 9F       		.byte	0x9f
 2578 01bb 00000000 		.4byte	0
 2579 01bf 00000000 		.4byte	0
 2580              	.LLST9:
 2581 01c3 00000000 		.4byte	.LVL24
 2582 01c7 0E000000 		.4byte	.LVL28
 2583 01cb 0100     		.2byte	0x1
 2584 01cd 51       		.byte	0x51
 2585 01ce 0E000000 		.4byte	.LVL28
 2586 01d2 18000000 		.4byte	.LVL29
 2587 01d6 0100     		.2byte	0x1
 2588 01d8 54       		.byte	0x54
 2589 01d9 18000000 		.4byte	.LVL29
 2590 01dd 1A000000 		.4byte	.LVL30
 2591 01e1 0400     		.2byte	0x4
 2592 01e3 F3       		.byte	0xf3
 2593 01e4 01       		.uleb128 0x1
 2594 01e5 51       		.byte	0x51
 2595 01e6 9F       		.byte	0x9f
 2596 01e7 1A000000 		.4byte	.LVL30
 2597 01eb 22000000 		.4byte	.LVL32
 2598 01ef 0100     		.2byte	0x1
 2599 01f1 54       		.byte	0x54
 2600 01f2 22000000 		.4byte	.LVL32
 2601 01f6 25000000 		.4byte	.LVL33-1
 2602 01fa 0100     		.2byte	0x1
 2603 01fc 52       		.byte	0x52
 2604 01fd 25000000 		.4byte	.LVL33-1
 2605 0201 2C000000 		.4byte	.LFE121
 2606 0205 0400     		.2byte	0x4
 2607 0207 F3       		.byte	0xf3
 2608 0208 01       		.uleb128 0x1
 2609 0209 51       		.byte	0x51
 2610 020a 9F       		.byte	0x9f
 2611 020b 00000000 		.4byte	0
 2612 020f 00000000 		.4byte	0
 2613              	.LLST10:
 2614 0213 00000000 		.4byte	.LVL24
 2615 0217 1E000000 		.4byte	.LVL31
 2616 021b 0100     		.2byte	0x1
 2617 021d 52       		.byte	0x52
 2618 021e 1E000000 		.4byte	.LVL31
 2619 0222 25000000 		.4byte	.LVL33-1
 2620 0226 0100     		.2byte	0x1
 2621 0228 51       		.byte	0x51
 2622 0229 25000000 		.4byte	.LVL33-1
ARM GAS  C:\Users\danit\AppData\Local\Temp\cc6bi5Kf.s 			page 47


 2623 022d 2C000000 		.4byte	.LFE121
 2624 0231 0400     		.2byte	0x4
 2625 0233 F3       		.byte	0xf3
 2626 0234 01       		.uleb128 0x1
 2627 0235 52       		.byte	0x52
 2628 0236 9F       		.byte	0x9f
 2629 0237 00000000 		.4byte	0
 2630 023b 00000000 		.4byte	0
 2631              	.LLST11:
 2632 023f 00000000 		.4byte	.LVL24
 2633 0243 25000000 		.4byte	.LVL33-1
 2634 0247 0100     		.2byte	0x1
 2635 0249 53       		.byte	0x53
 2636 024a 25000000 		.4byte	.LVL33-1
 2637 024e 2C000000 		.4byte	.LFE121
 2638 0252 0400     		.2byte	0x4
 2639 0254 F3       		.byte	0xf3
 2640 0255 01       		.uleb128 0x1
 2641 0256 53       		.byte	0x53
 2642 0257 9F       		.byte	0x9f
 2643 0258 00000000 		.4byte	0
 2644 025c 00000000 		.4byte	0
 2645              	.LLST12:
 2646 0260 00000000 		.4byte	.LVL34
 2647 0264 04000000 		.4byte	.LVL35
 2648 0268 0100     		.2byte	0x1
 2649 026a 50       		.byte	0x50
 2650 026b 04000000 		.4byte	.LVL35
 2651 026f 06000000 		.4byte	.LVL36
 2652 0273 0400     		.2byte	0x4
 2653 0275 F3       		.byte	0xf3
 2654 0276 01       		.uleb128 0x1
 2655 0277 50       		.byte	0x50
 2656 0278 9F       		.byte	0x9f
 2657 0279 06000000 		.4byte	.LVL36
 2658 027d 18000000 		.4byte	.LVL37
 2659 0281 0100     		.2byte	0x1
 2660 0283 50       		.byte	0x50
 2661 0284 18000000 		.4byte	.LVL37
 2662 0288 1A000000 		.4byte	.LVL38
 2663 028c 0400     		.2byte	0x4
 2664 028e F3       		.byte	0xf3
 2665 028f 01       		.uleb128 0x1
 2666 0290 50       		.byte	0x50
 2667 0291 9F       		.byte	0x9f
 2668 0292 1A000000 		.4byte	.LVL38
 2669 0296 1E000000 		.4byte	.LVL40
 2670 029a 0100     		.2byte	0x1
 2671 029c 50       		.byte	0x50
 2672 029d 1E000000 		.4byte	.LVL40
 2673 02a1 26000000 		.4byte	.LVL42
 2674 02a5 0400     		.2byte	0x4
 2675 02a7 F3       		.byte	0xf3
 2676 02a8 01       		.uleb128 0x1
 2677 02a9 50       		.byte	0x50
 2678 02aa 9F       		.byte	0x9f
 2679 02ab 26000000 		.4byte	.LVL42
ARM GAS  C:\Users\danit\AppData\Local\Temp\cc6bi5Kf.s 			page 48


 2680 02af 2E000000 		.4byte	.LVL43
 2681 02b3 0100     		.2byte	0x1
 2682 02b5 50       		.byte	0x50
 2683 02b6 2E000000 		.4byte	.LVL43
 2684 02ba 30000000 		.4byte	.LVL44
 2685 02be 0400     		.2byte	0x4
 2686 02c0 F3       		.byte	0xf3
 2687 02c1 01       		.uleb128 0x1
 2688 02c2 50       		.byte	0x50
 2689 02c3 9F       		.byte	0x9f
 2690 02c4 30000000 		.4byte	.LVL44
 2691 02c8 38000000 		.4byte	.LVL45
 2692 02cc 0100     		.2byte	0x1
 2693 02ce 50       		.byte	0x50
 2694 02cf 38000000 		.4byte	.LVL45
 2695 02d3 3A000000 		.4byte	.LVL46
 2696 02d7 0400     		.2byte	0x4
 2697 02d9 F3       		.byte	0xf3
 2698 02da 01       		.uleb128 0x1
 2699 02db 50       		.byte	0x50
 2700 02dc 9F       		.byte	0x9f
 2701 02dd 3A000000 		.4byte	.LVL46
 2702 02e1 42000000 		.4byte	.LVL47
 2703 02e5 0100     		.2byte	0x1
 2704 02e7 50       		.byte	0x50
 2705 02e8 42000000 		.4byte	.LVL47
 2706 02ec 44000000 		.4byte	.LVL48
 2707 02f0 0400     		.2byte	0x4
 2708 02f2 F3       		.byte	0xf3
 2709 02f3 01       		.uleb128 0x1
 2710 02f4 50       		.byte	0x50
 2711 02f5 9F       		.byte	0x9f
 2712 02f6 44000000 		.4byte	.LVL48
 2713 02fa 46000000 		.4byte	.LVL49
 2714 02fe 0100     		.2byte	0x1
 2715 0300 50       		.byte	0x50
 2716 0301 46000000 		.4byte	.LVL49
 2717 0305 4C000000 		.4byte	.LFE122
 2718 0309 0400     		.2byte	0x4
 2719 030b F3       		.byte	0xf3
 2720 030c 01       		.uleb128 0x1
 2721 030d 50       		.byte	0x50
 2722 030e 9F       		.byte	0x9f
 2723 030f 00000000 		.4byte	0
 2724 0313 00000000 		.4byte	0
 2725              	.LLST13:
 2726 0317 00000000 		.4byte	.LVL34
 2727 031b 1C000000 		.4byte	.LVL39
 2728 031f 0100     		.2byte	0x1
 2729 0321 51       		.byte	0x51
 2730 0322 1C000000 		.4byte	.LVL39
 2731 0326 26000000 		.4byte	.LVL42
 2732 032a 0400     		.2byte	0x4
 2733 032c F3       		.byte	0xf3
 2734 032d 01       		.uleb128 0x1
 2735 032e 51       		.byte	0x51
 2736 032f 9F       		.byte	0x9f
ARM GAS  C:\Users\danit\AppData\Local\Temp\cc6bi5Kf.s 			page 49


 2737 0330 26000000 		.4byte	.LVL42
 2738 0334 4C000000 		.4byte	.LFE122
 2739 0338 0100     		.2byte	0x1
 2740 033a 51       		.byte	0x51
 2741 033b 00000000 		.4byte	0
 2742 033f 00000000 		.4byte	0
 2743              	.LLST14:
 2744 0343 00000000 		.4byte	.LVL34
 2745 0347 1C000000 		.4byte	.LVL39
 2746 034b 0100     		.2byte	0x1
 2747 034d 52       		.byte	0x52
 2748 034e 1C000000 		.4byte	.LVL39
 2749 0352 26000000 		.4byte	.LVL42
 2750 0356 0400     		.2byte	0x4
 2751 0358 F3       		.byte	0xf3
 2752 0359 01       		.uleb128 0x1
 2753 035a 52       		.byte	0x52
 2754 035b 9F       		.byte	0x9f
 2755 035c 26000000 		.4byte	.LVL42
 2756 0360 4C000000 		.4byte	.LFE122
 2757 0364 0100     		.2byte	0x1
 2758 0366 52       		.byte	0x52
 2759 0367 00000000 		.4byte	0
 2760 036b 00000000 		.4byte	0
 2761              		.section	.debug_aranges,"",%progbits
 2762 0000 44000000 		.4byte	0x44
 2763 0004 0200     		.2byte	0x2
 2764 0006 00000000 		.4byte	.Ldebug_info0
 2765 000a 04       		.byte	0x4
 2766 000b 00       		.byte	0
 2767 000c 0000     		.2byte	0
 2768 000e 0000     		.2byte	0
 2769 0010 00000000 		.4byte	.LFB118
 2770 0014 2C000000 		.4byte	.LFE118-.LFB118
 2771 0018 00000000 		.4byte	.LFB119
 2772 001c 2C000000 		.4byte	.LFE119-.LFB119
 2773 0020 00000000 		.4byte	.LFB120
 2774 0024 2C000000 		.4byte	.LFE120-.LFB120
 2775 0028 00000000 		.4byte	.LFB121
 2776 002c 2C000000 		.4byte	.LFE121-.LFB121
 2777 0030 00000000 		.4byte	.LFB122
 2778 0034 4C000000 		.4byte	.LFE122-.LFB122
 2779 0038 00000000 		.4byte	.LFB123
 2780 003c 0C000000 		.4byte	.LFE123-.LFB123
 2781 0040 00000000 		.4byte	0
 2782 0044 00000000 		.4byte	0
 2783              		.section	.debug_ranges,"",%progbits
 2784              	.Ldebug_ranges0:
 2785 0000 00000000 		.4byte	.LFB118
 2786 0004 2C000000 		.4byte	.LFE118
 2787 0008 00000000 		.4byte	.LFB119
 2788 000c 2C000000 		.4byte	.LFE119
 2789 0010 00000000 		.4byte	.LFB120
 2790 0014 2C000000 		.4byte	.LFE120
 2791 0018 00000000 		.4byte	.LFB121
 2792 001c 2C000000 		.4byte	.LFE121
 2793 0020 00000000 		.4byte	.LFB122
ARM GAS  C:\Users\danit\AppData\Local\Temp\cc6bi5Kf.s 			page 50


 2794 0024 4C000000 		.4byte	.LFE122
 2795 0028 00000000 		.4byte	.LFB123
 2796 002c 0C000000 		.4byte	.LFE123
 2797 0030 00000000 		.4byte	0
 2798 0034 00000000 		.4byte	0
 2799              		.section	.debug_line,"",%progbits
 2800              	.Ldebug_line0:
 2801 0000 E5030000 		.section	.debug_str,"MS",%progbits,1
 2801      02001D03 
 2801      00000201 
 2801      FB0E0D00 
 2801      01010101 
 2802              	.LASF117:
 2803 0000 426C6F63 		.ascii	"BlockDeviceInfo\000"
 2803      6B446576 
 2803      69636549 
 2803      6E666F00 
 2804              	.LASF157:
 2805 0010 636F756E 		.ascii	"count\000"
 2805      7400
 2806              	.LASF124:
 2807 0016 63617061 		.ascii	"capacity\000"
 2807      63697479 
 2807      00
 2808              	.LASF147:
 2809 001f 5245535F 		.ascii	"RES_WRPRT\000"
 2809      57525052 
 2809      5400
 2810              	.LASF61:
 2811 0029 4D304152 		.ascii	"M0AR\000"
 2811      00
 2812              	.LASF116:
 2813 002e 626C6B5F 		.ascii	"blk_num\000"
 2813      6E756D00 
 2814              	.LASF55:
 2815 0036 7264796D 		.ascii	"rdymsg\000"
 2815      736700
 2816              	.LASF122:
 2817 003d 53444344 		.ascii	"SDCDriver\000"
 2817      72697665 
 2817      7200
 2818              	.LASF5:
 2819 0047 5F5F7569 		.ascii	"__uint8_t\000"
 2819      6E74385F 
 2819      7400
 2820              	.LASF148:
 2821 0051 5245535F 		.ascii	"RES_NOTRDY\000"
 2821      4E4F5452 
 2821      445900
 2822              	.LASF81:
 2823 005c 424B5033 		.ascii	"BKP3R\000"
 2823      5200
 2824              	.LASF99:
 2825 0062 73747265 		.ascii	"stream\000"
 2825      616D00
 2826              	.LASF64:
 2827 0069 50524552 		.ascii	"PRER\000"
ARM GAS  C:\Users\danit\AppData\Local\Temp\cc6bi5Kf.s 			page 51


 2827      00
 2828              	.LASF93:
 2829 006e 424B5031 		.ascii	"BKP15R\000"
 2829      355200
 2830              	.LASF45:
 2831 0075 54687265 		.ascii	"ThreadsQueue\000"
 2831      61647351 
 2831      75657565 
 2831      00
 2832              	.LASF56:
 2833 0082 65786974 		.ascii	"exitcode\000"
 2833      636F6465 
 2833      00
 2834              	.LASF103:
 2835 008b 76656374 		.ascii	"vector\000"
 2835      6F7200
 2836              	.LASF126:
 2837 0092 63617264 		.ascii	"cardmode\000"
 2837      6D6F6465 
 2837      00
 2838              	.LASF119:
 2839 009b 69645F72 		.ascii	"id_rtc\000"
 2839      746300
 2840              	.LASF162:
 2841 00a2 49544D5F 		.ascii	"ITM_RxBuffer\000"
 2841      52784275 
 2841      66666572 
 2841      00
 2842              	.LASF68:
 2843 00af 414C524D 		.ascii	"ALRMBR\000"
 2843      425200
 2844              	.LASF114:
 2845 00b6 626C6B73 		.ascii	"blkstate_t\000"
 2845      74617465 
 2845      5F7400
 2846              	.LASF98:
 2847 00c1 5254435F 		.ascii	"RTC_TypeDef\000"
 2847      54797065 
 2847      44656600 
 2848              	.LASF158:
 2849 00cd 6469736B 		.ascii	"disk_write\000"
 2849      5F777269 
 2849      746500
 2850              	.LASF28:
 2851 00d8 705F7072 		.ascii	"p_prio\000"
 2851      696F00
 2852              	.LASF153:
 2853 00df 73746174 		.ascii	"stat\000"
 2853      00
 2854              	.LASF10:
 2855 00e4 6C6F6E67 		.ascii	"long long int\000"
 2855      206C6F6E 
 2855      6720696E 
 2855      7400
 2856              	.LASF1:
 2857 00f2 7369676E 		.ascii	"signed char\000"
 2857      65642063 
ARM GAS  C:\Users\danit\AppData\Local\Temp\cc6bi5Kf.s 			page 52


 2857      68617200 
 2858              	.LASF133:
 2859 00fe 69735F69 		.ascii	"is_inserted\000"
 2859      6E736572 
 2859      74656400 
 2860              	.LASF155:
 2861 010a 62756666 		.ascii	"buff\000"
 2861      00
 2862              	.LASF44:
 2863 010f 705F6D70 		.ascii	"p_mpool\000"
 2863      6F6F6C00 
 2864              	.LASF15:
 2865 0117 626F6F6C 		.ascii	"bool_t\000"
 2865      5F7400
 2866              	.LASF52:
 2867 011e 6D5F7175 		.ascii	"m_queue\000"
 2867      65756500 
 2868              	.LASF136:
 2869 0126 64697363 		.ascii	"disconnect\000"
 2869      6F6E6E65 
 2869      637400
 2870              	.LASF72:
 2871 0131 54535353 		.ascii	"TSSSR\000"
 2871      5200
 2872              	.LASF106:
 2873 0137 424C4B5F 		.ascii	"BLK_STOP\000"
 2873      53544F50 
 2873      00
 2874              	.LASF161:
 2875 0140 6765745F 		.ascii	"get_fattime\000"
 2875      66617474 
 2875      696D6500 
 2876              	.LASF105:
 2877 014c 424C4B5F 		.ascii	"BLK_UNINIT\000"
 2877      554E494E 
 2877      495400
 2878              	.LASF123:
 2879 0157 73746174 		.ascii	"state\000"
 2879      6500
 2880              	.LASF7:
 2881 015d 6C6F6E67 		.ascii	"long int\000"
 2881      20696E74 
 2881      00
 2882              	.LASF82:
 2883 0166 424B5034 		.ascii	"BKP4R\000"
 2883      5200
 2884              	.LASF76:
 2885 016c 414C524D 		.ascii	"ALRMBSSR\000"
 2885      42535352 
 2885      00
 2886              	.LASF149:
 2887 0175 5245535F 		.ascii	"RES_PARERR\000"
 2887      50415245 
 2887      525200
 2888              	.LASF0:
 2889 0180 756E7369 		.ascii	"unsigned int\000"
 2889      676E6564 
ARM GAS  C:\Users\danit\AppData\Local\Temp\cc6bi5Kf.s 			page 53


 2889      20696E74 
 2889      00
 2890              	.LASF94:
 2891 018d 424B5031 		.ascii	"BKP16R\000"
 2891      365200
 2892              	.LASF11:
 2893 0194 6C6F6E67 		.ascii	"long long unsigned int\000"
 2893      206C6F6E 
 2893      6720756E 
 2893      7369676E 
 2893      65642069 
 2894              	.LASF143:
 2895 01ab 44574F52 		.ascii	"DWORD\000"
 2895      4400
 2896              	.LASF30:
 2897 01b1 705F6E65 		.ascii	"p_newer\000"
 2897      77657200 
 2898              	.LASF132:
 2899 01b9 53444344 		.ascii	"SDCDriverVMT\000"
 2899      72697665 
 2899      72564D54 
 2899      00
 2900              	.LASF140:
 2901 01c6 6765745F 		.ascii	"get_info\000"
 2901      696E666F 
 2901      00
 2902              	.LASF169:
 2903 01cf 72746347 		.ascii	"rtcGetTimeFat\000"
 2903      65745469 
 2903      6D654661 
 2903      7400
 2904              	.LASF8:
 2905 01dd 5F5F7569 		.ascii	"__uint32_t\000"
 2905      6E743332 
 2905      5F7400
 2906              	.LASF18:
 2907 01e8 74737461 		.ascii	"tstate_t\000"
 2907      74655F74 
 2907      00
 2908              	.LASF151:
 2909 01f1 6469736B 		.ascii	"disk_initialize\000"
 2909      5F696E69 
 2909      7469616C 
 2909      697A6500 
 2910              	.LASF130:
 2911 0201 64756D6D 		.ascii	"dummy\000"
 2911      7900
 2912              	.LASF115:
 2913 0207 626C6B5F 		.ascii	"blk_size\000"
 2913      73697A65 
 2913      00
 2914              	.LASF141:
 2915 0210 42595445 		.ascii	"BYTE\000"
 2915      00
 2916              	.LASF120:
 2917 0215 7364636D 		.ascii	"sdcmode_t\000"
 2917      6F64655F 
ARM GAS  C:\Users\danit\AppData\Local\Temp\cc6bi5Kf.s 			page 54


 2917      7400
 2918              	.LASF75:
 2919 021f 414C524D 		.ascii	"ALRMASSR\000"
 2919      41535352 
 2919      00
 2920              	.LASF34:
 2921 0228 705F666C 		.ascii	"p_flags\000"
 2921      61677300 
 2922              	.LASF71:
 2923 0230 54534452 		.ascii	"TSDR\000"
 2923      00
 2924              	.LASF50:
 2925 0235 73697A65 		.ascii	"sizetype\000"
 2925      74797065 
 2925      00
 2926              	.LASF83:
 2927 023e 424B5035 		.ascii	"BKP5R\000"
 2927      5200
 2928              	.LASF127:
 2929 0244 6572726F 		.ascii	"errors\000"
 2929      727300
 2930              	.LASF95:
 2931 024b 424B5031 		.ascii	"BKP17R\000"
 2931      375200
 2932              	.LASF39:
 2933 0252 705F6D73 		.ascii	"p_msgqueue\000"
 2933      67717565 
 2933      756500
 2934              	.LASF152:
 2935 025d 6469736B 		.ascii	"disk_status\000"
 2935      5F737461 
 2935      74757300 
 2936              	.LASF101:
 2937 0269 69736869 		.ascii	"ishift\000"
 2937      667400
 2938              	.LASF49:
 2939 0270 636F6E74 		.ascii	"context\000"
 2939      65787400 
 2940              	.LASF4:
 2941 0278 73686F72 		.ascii	"short unsigned int\000"
 2941      7420756E 
 2941      7369676E 
 2941      65642069 
 2941      6E7400
 2942              	.LASF107:
 2943 028b 424C4B5F 		.ascii	"BLK_ACTIVE\000"
 2943      41435449 
 2943      564500
 2944              	.LASF74:
 2945 0296 54414643 		.ascii	"TAFCR\000"
 2945      5200
 2946              	.LASF22:
 2947 029c 6D73675F 		.ascii	"msg_t\000"
 2947      7400
 2948              	.LASF108:
 2949 02a2 424C4B5F 		.ascii	"BLK_CONNECTING\000"
 2949      434F4E4E 
ARM GAS  C:\Users\danit\AppData\Local\Temp\cc6bi5Kf.s 			page 55


 2949      45435449 
 2949      4E4700
 2950              	.LASF88:
 2951 02b1 424B5031 		.ascii	"BKP10R\000"
 2951      305200
 2952              	.LASF17:
 2953 02b8 746D6F64 		.ascii	"tmode_t\000"
 2953      655F7400 
 2954              	.LASF70:
 2955 02c0 54535452 		.ascii	"TSTR\000"
 2955      00
 2956              	.LASF156:
 2957 02c5 73656374 		.ascii	"sector\000"
 2957      6F7200
 2958              	.LASF46:
 2959 02cc 54687265 		.ascii	"ThreadsList\000"
 2959      6164734C 
 2959      69737400 
 2960              	.LASF42:
 2961 02d8 705F6D74 		.ascii	"p_mtxlist\000"
 2961      786C6973 
 2961      7400
 2962              	.LASF23:
 2963 02e2 6576656E 		.ascii	"eventmask_t\000"
 2963      746D6173 
 2963      6B5F7400 
 2964              	.LASF51:
 2965 02ee 4D757465 		.ascii	"Mutex\000"
 2965      7800
 2966              	.LASF6:
 2967 02f4 5F5F696E 		.ascii	"__int32_t\000"
 2967      7433325F 
 2967      7400
 2968              	.LASF159:
 2969 02fe 6469736B 		.ascii	"disk_ioctl\000"
 2969      5F696F63 
 2969      746C00
 2970              	.LASF84:
 2971 0309 424B5036 		.ascii	"BKP6R\000"
 2971      5200
 2972              	.LASF138:
 2973 030f 77726974 		.ascii	"write\000"
 2973      6500
 2974              	.LASF96:
 2975 0315 424B5031 		.ascii	"BKP18R\000"
 2975      385200
 2976              	.LASF111:
 2977 031c 424C4B5F 		.ascii	"BLK_READING\000"
 2977      52454144 
 2977      494E4700 
 2978              	.LASF27:
 2979 0328 705F7072 		.ascii	"p_prev\000"
 2979      657600
 2980              	.LASF73:
 2981 032f 43414C52 		.ascii	"CALR\000"
 2981      00
 2982              	.LASF165:
ARM GAS  C:\Users\danit\AppData\Local\Temp\cc6bi5Kf.s 			page 56


 2983 0334 7364635F 		.ascii	"sdc_lld_is_write_protected\000"
 2983      6C6C645F 
 2983      69735F77 
 2983      72697465 
 2983      5F70726F 
 2984              	.LASF142:
 2985 034f 574F5244 		.ascii	"WORD\000"
 2985      00
 2986              	.LASF145:
 2987 0354 5245535F 		.ascii	"RES_OK\000"
 2987      4F4B00
 2988              	.LASF168:
 2989 035b 73646345 		.ascii	"sdcErase\000"
 2989      72617365 
 2989      00
 2990              	.LASF167:
 2991 0364 73646357 		.ascii	"sdcWrite\000"
 2991      72697465 
 2991      00
 2992              	.LASF110:
 2993 036d 424C4B5F 		.ascii	"BLK_READY\000"
 2993      52454144 
 2993      5900
 2994              	.LASF89:
 2995 0377 424B5031 		.ascii	"BKP11R\000"
 2995      315200
 2996              	.LASF166:
 2997 037e 73646352 		.ascii	"sdcRead\000"
 2997      65616400 
 2998              	.LASF67:
 2999 0386 414C524D 		.ascii	"ALRMAR\000"
 2999      415200
 3000              	.LASF85:
 3001 038d 424B5037 		.ascii	"BKP7R\000"
 3001      5200
 3002              	.LASF19:
 3003 0393 74726566 		.ascii	"trefs_t\000"
 3003      735F7400 
 3004              	.LASF97:
 3005 039b 424B5031 		.ascii	"BKP19R\000"
 3005      395200
 3006              	.LASF164:
 3007 03a2 53444344 		.ascii	"SDCD1\000"
 3007      3100
 3008              	.LASF171:
 3009 03a8 2E2E2F2E 		.ascii	"../../../ChibiOS/os/various/fatfs_bindings/fatfs_di"
 3009      2E2F2E2E 
 3009      2F436869 
 3009      62694F53 
 3009      2F6F732F 
 3010 03db 736B696F 		.ascii	"skio.c\000"
 3010      2E6300
 3011              	.LASF104:
 3012 03e2 73746D33 		.ascii	"stm32_dma_stream_t\000"
 3012      325F646D 
 3012      615F7374 
 3012      7265616D 
ARM GAS  C:\Users\danit\AppData\Local\Temp\cc6bi5Kf.s 			page 57


 3012      5F7400
 3013              	.LASF21:
 3014 03f5 74707269 		.ascii	"tprio_t\000"
 3014      6F5F7400 
 3015              	.LASF128:
 3016 03fd 74687265 		.ascii	"thread\000"
 3016      616400
 3017              	.LASF16:
 3018 0404 5F426F6F 		.ascii	"_Bool\000"
 3018      6C00
 3019              	.LASF13:
 3020 040a 696E7433 		.ascii	"int32_t\000"
 3020      325F7400 
 3021              	.LASF2:
 3022 0412 756E7369 		.ascii	"unsigned char\000"
 3022      676E6564 
 3022      20636861 
 3022      7200
 3023              	.LASF118:
 3024 0420 52544344 		.ascii	"RTCDriver\000"
 3024      72697665 
 3024      7200
 3025              	.LASF163:
 3026 042a 52544344 		.ascii	"RTCD1\000"
 3026      3100
 3027              	.LASF3:
 3028 0430 73686F72 		.ascii	"short int\000"
 3028      7420696E 
 3028      7400
 3029              	.LASF33:
 3030 043a 705F7374 		.ascii	"p_state\000"
 3030      61746500 
 3031              	.LASF112:
 3032 0442 424C4B5F 		.ascii	"BLK_WRITING\000"
 3032      57524954 
 3032      494E4700 
 3033              	.LASF36:
 3034 044e 705F7072 		.ascii	"p_preempt\000"
 3034      65656D70 
 3034      7400
 3035              	.LASF31:
 3036 0458 705F6F6C 		.ascii	"p_older\000"
 3036      64657200 
 3037              	.LASF78:
 3038 0460 424B5030 		.ascii	"BKP0R\000"
 3038      5200
 3039              	.LASF57:
 3040 0466 77746F62 		.ascii	"wtobjp\000"
 3040      6A7000
 3041              	.LASF58:
 3042 046d 65776D61 		.ascii	"ewmask\000"
 3042      736B00
 3043              	.LASF26:
 3044 0474 705F6E65 		.ascii	"p_next\000"
 3044      787400
 3045              	.LASF90:
 3046 047b 424B5031 		.ascii	"BKP12R\000"
ARM GAS  C:\Users\danit\AppData\Local\Temp\cc6bi5Kf.s 			page 58


 3046      325200
 3047              	.LASF25:
 3048 0482 54687265 		.ascii	"Thread\000"
 3048      616400
 3049              	.LASF135:
 3050 0489 636F6E6E 		.ascii	"connect\000"
 3050      65637400 
 3051              	.LASF41:
 3052 0491 705F6570 		.ascii	"p_epending\000"
 3052      656E6469 
 3052      6E6700
 3053              	.LASF100:
 3054 049c 69666372 		.ascii	"ifcr\000"
 3054      00
 3055              	.LASF86:
 3056 04a1 424B5038 		.ascii	"BKP8R\000"
 3056      5200
 3057              	.LASF66:
 3058 04a7 43414C49 		.ascii	"CALIBR\000"
 3058      425200
 3059              	.LASF47:
 3060 04ae 72656761 		.ascii	"regarm_t\000"
 3060      726D5F74 
 3060      00
 3061              	.LASF65:
 3062 04b7 57555452 		.ascii	"WUTR\000"
 3062      00
 3063              	.LASF150:
 3064 04bc 44524553 		.ascii	"DRESULT\000"
 3064      554C5400 
 3065              	.LASF20:
 3066 04c4 74736C69 		.ascii	"tslices_t\000"
 3066      6365735F 
 3066      7400
 3067              	.LASF9:
 3068 04ce 6C6F6E67 		.ascii	"long unsigned int\000"
 3068      20756E73 
 3068      69676E65 
 3068      6420696E 
 3068      7400
 3069              	.LASF59:
 3070 04e0 63686172 		.ascii	"char\000"
 3070      00
 3071              	.LASF109:
 3072 04e5 424C4B5F 		.ascii	"BLK_DISCONNECTING\000"
 3072      44495343 
 3072      4F4E4E45 
 3072      4354494E 
 3072      4700
 3073              	.LASF125:
 3074 04f7 636F6E66 		.ascii	"config\000"
 3074      696700
 3075              	.LASF54:
 3076 04fe 6D5F6E65 		.ascii	"m_next\000"
 3076      787400
 3077              	.LASF24:
 3078 0505 73797374 		.ascii	"systime_t\000"
ARM GAS  C:\Users\danit\AppData\Local\Temp\cc6bi5Kf.s 			page 59


 3078      696D655F 
 3078      7400
 3079              	.LASF43:
 3080 050f 705F7265 		.ascii	"p_realprio\000"
 3080      616C7072 
 3080      696F00
 3081              	.LASF144:
 3082 051a 44535441 		.ascii	"DSTATUS\000"
 3082      54555300 
 3083              	.LASF60:
 3084 0522 4E445452 		.ascii	"NDTR\000"
 3084      00
 3085              	.LASF79:
 3086 0527 424B5031 		.ascii	"BKP1R\000"
 3086      5200
 3087              	.LASF63:
 3088 052d 444D415F 		.ascii	"DMA_Stream_TypeDef\000"
 3088      53747265 
 3088      616D5F54 
 3088      79706544 
 3088      656600
 3089              	.LASF160:
 3090 0540 6374726C 		.ascii	"ctrl\000"
 3090      00
 3091              	.LASF91:
 3092 0545 424B5031 		.ascii	"BKP13R\000"
 3092      335200
 3093              	.LASF37:
 3094 054c 705F7469 		.ascii	"p_time\000"
 3094      6D6500
 3095              	.LASF121:
 3096 0553 73646366 		.ascii	"sdcflags_t\000"
 3096      6C616773 
 3096      5F7400
 3097              	.LASF69:
 3098 055e 53484946 		.ascii	"SHIFTR\000"
 3098      545200
 3099              	.LASF48:
 3100 0565 696E7463 		.ascii	"intctx\000"
 3100      747800
 3101              	.LASF134:
 3102 056c 69735F70 		.ascii	"is_protected\000"
 3102      726F7465 
 3102      63746564 
 3102      00
 3103              	.LASF62:
 3104 0579 4D314152 		.ascii	"M1AR\000"
 3104      00
 3105              	.LASF102:
 3106 057e 73656C66 		.ascii	"selfindex\000"
 3106      696E6465 
 3106      7800
 3107              	.LASF14:
 3108 0588 75696E74 		.ascii	"uint32_t\000"
 3108      33325F74 
 3108      00
 3109              	.LASF87:
ARM GAS  C:\Users\danit\AppData\Local\Temp\cc6bi5Kf.s 			page 60


 3110 0591 424B5039 		.ascii	"BKP9R\000"
 3110      5200
 3111              	.LASF32:
 3112 0597 705F6E61 		.ascii	"p_name\000"
 3112      6D6500
 3113              	.LASF35:
 3114 059e 705F7265 		.ascii	"p_refs\000"
 3114      667300
 3115              	.LASF170:
 3116 05a5 474E5520 		.ascii	"GNU C 4.9.3 20150529 (release) [ARM/embedded-4_9-br"
 3116      4320342E 
 3116      392E3320 
 3116      32303135 
 3116      30353239 
 3117 05d8 616E6368 		.ascii	"anch revision 224288] -mcpu=cortex-m4 -mno-thumb-in"
 3117      20726576 
 3117      6973696F 
 3117      6E203232 
 3117      34323838 
 3118 060b 74657277 		.ascii	"terwork -mthumb -ggdb -O2 -fomit-frame-pointer -fal"
 3118      6F726B20 
 3118      2D6D7468 
 3118      756D6220 
 3118      2D676764 
 3119 063e 69676E2D 		.ascii	"ign-functions=16 -ffunction-sections -fdata-section"
 3119      66756E63 
 3119      74696F6E 
 3119      733D3136 
 3119      202D6666 
 3120 0671 73202D66 		.ascii	"s -fno-common\000"
 3120      6E6F2D63 
 3120      6F6D6D6F 
 3120      6E00
 3121              	.LASF113:
 3122 067f 424C4B5F 		.ascii	"BLK_SYNCING\000"
 3122      53594E43 
 3122      494E4700 
 3123              	.LASF131:
 3124 068b 53444343 		.ascii	"SDCConfig\000"
 3124      6F6E6669 
 3124      6700
 3125              	.LASF40:
 3126 0695 705F6D73 		.ascii	"p_msg\000"
 3126      6700
 3127              	.LASF12:
 3128 069b 75696E74 		.ascii	"uint8_t\000"
 3128      385F7400 
 3129              	.LASF139:
 3130 06a3 73796E63 		.ascii	"sync\000"
 3130      00
 3131              	.LASF129:
 3132 06a8 646D616D 		.ascii	"dmamode\000"
 3132      6F646500 
 3133              	.LASF137:
 3134 06b0 72656164 		.ascii	"read\000"
 3134      00
 3135              	.LASF146:
ARM GAS  C:\Users\danit\AppData\Local\Temp\cc6bi5Kf.s 			page 61


 3136 06b5 5245535F 		.ascii	"RES_ERROR\000"
 3136      4552524F 
 3136      5200
 3137              	.LASF80:
 3138 06bf 424B5032 		.ascii	"BKP2R\000"
 3138      5200
 3139              	.LASF92:
 3140 06c5 424B5031 		.ascii	"BKP14R\000"
 3140      345200
 3141              	.LASF172:
 3142 06cc 443A5C44 		.ascii	"D:\\Dani\\MegaLux\\Repo\\Smarty\\Smarty\\smarty\\fi"
 3142      616E695C 
 3142      4D656761 
 3142      4C75785C 
 3142      5265706F 
 3143 06f8 726D7761 		.ascii	"rmware\000"
 3143      726500
 3144              	.LASF77:
 3145 06ff 52455345 		.ascii	"RESERVED7\000"
 3145      52564544 
 3145      3700
 3146              	.LASF154:
 3147 0709 6469736B 		.ascii	"disk_read\000"
 3147      5F726561 
 3147      6400
 3148              	.LASF53:
 3149 0713 6D5F6F77 		.ascii	"m_owner\000"
 3149      6E657200 
 3150              	.LASF29:
 3151 071b 705F6374 		.ascii	"p_ctx\000"
 3151      7800
 3152              	.LASF38:
 3153 0721 705F7761 		.ascii	"p_waiting\000"
 3153      6974696E 
 3153      6700
 3154              		.ident	"GCC: (GNU Tools for ARM Embedded Processors) 4.9.3 20150529 (release) [ARM/embedded-4_9-br
ARM GAS  C:\Users\danit\AppData\Local\Temp\cc6bi5Kf.s 			page 62


DEFINED SYMBOLS
                            *ABS*:00000000 fatfs_diskio.c
C:\Users\danit\AppData\Local\Temp\cc6bi5Kf.s:19     .text.disk_initialize:00000000 $t
C:\Users\danit\AppData\Local\Temp\cc6bi5Kf.s:25     .text.disk_initialize:00000000 disk_initialize
C:\Users\danit\AppData\Local\Temp\cc6bi5Kf.s:72     .text.disk_initialize:00000028 $d
C:\Users\danit\AppData\Local\Temp\cc6bi5Kf.s:77     .text.disk_status:00000000 $t
C:\Users\danit\AppData\Local\Temp\cc6bi5Kf.s:83     .text.disk_status:00000000 disk_status
C:\Users\danit\AppData\Local\Temp\cc6bi5Kf.s:129    .text.disk_status:00000028 $d
C:\Users\danit\AppData\Local\Temp\cc6bi5Kf.s:134    .text.disk_read:00000000 $t
C:\Users\danit\AppData\Local\Temp\cc6bi5Kf.s:140    .text.disk_read:00000000 disk_read
C:\Users\danit\AppData\Local\Temp\cc6bi5Kf.s:197    .text.disk_read:00000028 $d
C:\Users\danit\AppData\Local\Temp\cc6bi5Kf.s:202    .text.disk_write:00000000 $t
C:\Users\danit\AppData\Local\Temp\cc6bi5Kf.s:208    .text.disk_write:00000000 disk_write
C:\Users\danit\AppData\Local\Temp\cc6bi5Kf.s:265    .text.disk_write:00000028 $d
C:\Users\danit\AppData\Local\Temp\cc6bi5Kf.s:270    .text.disk_ioctl:00000000 $t
C:\Users\danit\AppData\Local\Temp\cc6bi5Kf.s:276    .text.disk_ioctl:00000000 disk_ioctl
C:\Users\danit\AppData\Local\Temp\cc6bi5Kf.s:302    .text.disk_ioctl:00000010 $d
C:\Users\danit\AppData\Local\Temp\cc6bi5Kf.s:363    .text.disk_ioctl:00000048 $d
C:\Users\danit\AppData\Local\Temp\cc6bi5Kf.s:368    .text.get_fattime:00000000 $t
C:\Users\danit\AppData\Local\Temp\cc6bi5Kf.s:374    .text.get_fattime:00000000 get_fattime
C:\Users\danit\AppData\Local\Temp\cc6bi5Kf.s:388    .text.get_fattime:00000008 $d
                     .debug_frame:00000010 $d
C:\Users\danit\AppData\Local\Temp\cc6bi5Kf.s:307    .text.disk_ioctl:00000015 $d
C:\Users\danit\AppData\Local\Temp\cc6bi5Kf.s:307    .text.disk_ioctl:00000016 $t

UNDEFINED SYMBOLS
sdc_lld_is_write_protected
SDCD1
sdcRead
sdcWrite
sdcErase
rtcGetTimeFat
RTCD1
