ARM GAS  C:\Users\DNIEL~1\AppData\Local\Temp\ccEZVAp7.s 			page 1


   1              		.syntax unified
   2              		.cpu cortex-m4
   3              		.fpu softvfp
   4              		.eabi_attribute 20, 1
   5              		.eabi_attribute 21, 1
   6              		.eabi_attribute 23, 3
   7              		.eabi_attribute 24, 1
   8              		.eabi_attribute 25, 1
   9              		.eabi_attribute 26, 1
  10              		.eabi_attribute 30, 2
  11              		.eabi_attribute 18, 4
  12              		.thumb
  13              		.file	"gfx.c"
  20 0000 67040000 		.text
  20      0200A702 
  20      00000201 
  20      FB0E0D00 
  20      01010101 
  21              	.Ltext0:
  22              		.cfi_sections	.debug_frame
  23              		.section	.text.gfx_Cls,"ax",%progbits
  24              		.align	2
  25              		.p2align 4,,15
  26              		.global	gfx_Cls
  27              		.thumb
  28              		.thumb_func
  29              		.type	gfx_Cls, %function
  30              	gfx_Cls:
  31              	.LFB119:
  32              		.file 1 "src/gfx.c"
  33              		.loc 1 36 0
  34              		.cfi_startproc
  35              		@ args = 0, pretend = 0, frame = 0
  36              		@ frame_needed = 0, uses_anonymous_args = 0
  37 0000 10B5     		push	{r4, lr}
  38              	.LCFI0:
  39              		.cfi_def_cfa_offset 8
  40              		.loc 1 37 0
  41 0002 074C     		ldr	r4, .L2
  42              		.cfi_offset 14, -4
  43              		.cfi_offset 4, -8
  44 0004 FF21     		movs	r1, #255
  45 0006 4FF0FF32 		mov	r2, #-1
  46 000a 2046     		mov	r0, r4
  47 000c FFF7FEFF 		bl	chOQPutTimeout
  48              		.loc 1 38 0
  49 0010 2046     		mov	r0, r4
  50 0012 CD21     		movs	r1, #205
  51 0014 4FF0FF32 		mov	r2, #-1
  52              		.loc 1 39 0
  53 0018 BDE81040 		pop	{r4, lr}
ARM GAS  C:\Users\DNIEL~1\AppData\Local\Temp\ccEZVAp7.s 			page 2


  54              		.loc 1 38 0
  55 001c FFF7FEBF 		b	chOQPutTimeout
  56              	.L3:
  57              		.align	2
  58              	.L2:
  59 0020 30000000 		.word	SD2+48
  60              		.cfi_endproc
  61              	.LFE119:
  62              		.size	gfx_Cls, .-gfx_Cls
  63 0024 AFF30080 		.section	.text.file_Mount,"ax",%progbits
  63      AFF30080 
  63      AFF30080 
  64              		.align	2
  65              		.p2align 4,,15
  66              		.global	file_Mount
  67              		.thumb
  68              		.thumb_func
  69              		.type	file_Mount, %function
  70              	file_Mount:
  71              	.LFB120:
  72              		.loc 1 42 0
  73              		.cfi_startproc
  74              		@ args = 0, pretend = 0, frame = 0
  75              		@ frame_needed = 0, uses_anonymous_args = 0
  76 0000 10B5     		push	{r4, lr}
  77              	.LCFI1:
  78              		.cfi_def_cfa_offset 8
  79              		.loc 1 43 0
  80 0002 074C     		ldr	r4, .L5
  81              		.cfi_offset 14, -4
  82              		.cfi_offset 4, -8
  83 0004 FF21     		movs	r1, #255
  84 0006 4FF0FF32 		mov	r2, #-1
  85 000a 2046     		mov	r0, r4
  86 000c FFF7FEFF 		bl	chOQPutTimeout
  87              		.loc 1 44 0
  88 0010 2046     		mov	r0, r4
  89 0012 0321     		movs	r1, #3
  90 0014 4FF0FF32 		mov	r2, #-1
  91              		.loc 1 45 0
  92 0018 BDE81040 		pop	{r4, lr}
  93              		.loc 1 44 0
  94 001c FFF7FEBF 		b	chOQPutTimeout
  95              	.L6:
  96              		.align	2
  97              	.L5:
  98 0020 30000000 		.word	SD2+48
  99              		.cfi_endproc
 100              	.LFE120:
 101              		.size	file_Mount, .-file_Mount
 102 0024 AFF30080 		.section	.text.media_Image,"ax",%progbits
 102      AFF30080 
 102      AFF30080 
 103              		.align	2
 104              		.p2align 4,,15
 105              		.global	media_Image
 106              		.thumb
ARM GAS  C:\Users\DNIEL~1\AppData\Local\Temp\ccEZVAp7.s 			page 3


 107              		.thumb_func
 108              		.type	media_Image, %function
 109              	media_Image:
 110              	.LFB121:
 111              		.loc 1 48 0
 112              		.cfi_startproc
 113              		@ args = 0, pretend = 0, frame = 0
 114              		@ frame_needed = 0, uses_anonymous_args = 0
 115              	.LVL0:
 116 0000 70B5     		push	{r4, r5, r6, lr}
 117              	.LCFI2:
 118              		.cfi_def_cfa_offset 16
 119              		.loc 1 49 0
 120 0002 154C     		ldr	r4, .L8
 121              		.cfi_offset 14, -4
 122              		.cfi_offset 6, -8
 123              		.cfi_offset 5, -12
 124              		.cfi_offset 4, -16
 125              		.loc 1 48 0
 126 0004 0646     		mov	r6, r0
 127 0006 0D46     		mov	r5, r1
 128              		.loc 1 49 0
 129 0008 4FF0FF32 		mov	r2, #-1
 130 000c FF21     		movs	r1, #255
 131              	.LVL1:
 132 000e 2046     		mov	r0, r4
 133              	.LVL2:
 134 0010 FFF7FEFF 		bl	chOQPutTimeout
 135              		.loc 1 50 0
 136 0014 8B21     		movs	r1, #139
 137 0016 2046     		mov	r0, r4
 138 0018 4FF0FF32 		mov	r2, #-1
 139 001c FFF7FEFF 		bl	chOQPutTimeout
 140              		.loc 1 51 0
 141 0020 C6F30721 		ubfx	r1, r6, #8, #8
 142 0024 2046     		mov	r0, r4
 143 0026 4FF0FF32 		mov	r2, #-1
 144 002a FFF7FEFF 		bl	chOQPutTimeout
 145              		.loc 1 52 0
 146 002e F1B2     		uxtb	r1, r6
 147 0030 2046     		mov	r0, r4
 148 0032 4FF0FF32 		mov	r2, #-1
 149 0036 FFF7FEFF 		bl	chOQPutTimeout
 150              		.loc 1 53 0
 151 003a C5F30721 		ubfx	r1, r5, #8, #8
 152 003e 2046     		mov	r0, r4
 153 0040 4FF0FF32 		mov	r2, #-1
 154 0044 FFF7FEFF 		bl	chOQPutTimeout
 155              		.loc 1 54 0
 156 0048 2046     		mov	r0, r4
 157 004a E9B2     		uxtb	r1, r5
 158 004c 4FF0FF32 		mov	r2, #-1
 159              		.loc 1 55 0
 160 0050 BDE87040 		pop	{r4, r5, r6, lr}
 161              		.loc 1 54 0
 162 0054 FFF7FEBF 		b	chOQPutTimeout
 163              	.L9:
ARM GAS  C:\Users\DNIEL~1\AppData\Local\Temp\ccEZVAp7.s 			page 4


 164              		.align	2
 165              	.L8:
 166 0058 30000000 		.word	SD2+48
 167              		.cfi_endproc
 168              	.LFE121:
 169              		.size	media_Image, .-media_Image
 170 005c AFF30080 		.section	.text.media_SetSector,"ax",%progbits
 171              		.align	2
 172              		.p2align 4,,15
 173              		.global	media_SetSector
 174              		.thumb
 175              		.thumb_func
 176              		.type	media_SetSector, %function
 177              	media_SetSector:
 178              	.LFB122:
 179              		.loc 1 58 0
 180              		.cfi_startproc
 181              		@ args = 0, pretend = 0, frame = 0
 182              		@ frame_needed = 0, uses_anonymous_args = 0
 183              	.LVL3:
 184 0000 70B5     		push	{r4, r5, r6, lr}
 185              	.LCFI3:
 186              		.cfi_def_cfa_offset 16
 187              		.loc 1 59 0
 188 0002 154C     		ldr	r4, .L11
 189              		.cfi_offset 14, -4
 190              		.cfi_offset 6, -8
 191              		.cfi_offset 5, -12
 192              		.cfi_offset 4, -16
 193              		.loc 1 58 0
 194 0004 0646     		mov	r6, r0
 195 0006 0D46     		mov	r5, r1
 196              		.loc 1 59 0
 197 0008 4FF0FF32 		mov	r2, #-1
 198 000c FF21     		movs	r1, #255
 199              	.LVL4:
 200 000e 2046     		mov	r0, r4
 201              	.LVL5:
 202 0010 FFF7FEFF 		bl	chOQPutTimeout
 203              		.loc 1 60 0
 204 0014 9221     		movs	r1, #146
 205 0016 2046     		mov	r0, r4
 206 0018 4FF0FF32 		mov	r2, #-1
 207 001c FFF7FEFF 		bl	chOQPutTimeout
 208              		.loc 1 61 0
 209 0020 C6F30721 		ubfx	r1, r6, #8, #8
 210 0024 2046     		mov	r0, r4
 211 0026 4FF0FF32 		mov	r2, #-1
 212 002a FFF7FEFF 		bl	chOQPutTimeout
 213              		.loc 1 62 0
 214 002e F1B2     		uxtb	r1, r6
 215 0030 2046     		mov	r0, r4
 216 0032 4FF0FF32 		mov	r2, #-1
 217 0036 FFF7FEFF 		bl	chOQPutTimeout
 218              		.loc 1 63 0
 219 003a C5F30721 		ubfx	r1, r5, #8, #8
 220 003e 2046     		mov	r0, r4
ARM GAS  C:\Users\DNIEL~1\AppData\Local\Temp\ccEZVAp7.s 			page 5


 221 0040 4FF0FF32 		mov	r2, #-1
 222 0044 FFF7FEFF 		bl	chOQPutTimeout
 223              		.loc 1 64 0
 224 0048 2046     		mov	r0, r4
 225 004a E9B2     		uxtb	r1, r5
 226 004c 4FF0FF32 		mov	r2, #-1
 227              		.loc 1 65 0
 228 0050 BDE87040 		pop	{r4, r5, r6, lr}
 229              		.loc 1 64 0
 230 0054 FFF7FEBF 		b	chOQPutTimeout
 231              	.L12:
 232              		.align	2
 233              	.L11:
 234 0058 30000000 		.word	SD2+48
 235              		.cfi_endproc
 236              	.LFE122:
 237              		.size	media_SetSector, .-media_SetSector
 238 005c AFF30080 		.section	.text.media_Video,"ax",%progbits
 239              		.align	2
 240              		.p2align 4,,15
 241              		.global	media_Video
 242              		.thumb
 243              		.thumb_func
 244              		.type	media_Video, %function
 245              	media_Video:
 246              	.LFB123:
 247              		.loc 1 68 0
 248              		.cfi_startproc
 249              		@ args = 0, pretend = 0, frame = 0
 250              		@ frame_needed = 0, uses_anonymous_args = 0
 251              	.LVL6:
 252 0000 70B5     		push	{r4, r5, r6, lr}
 253              	.LCFI4:
 254              		.cfi_def_cfa_offset 16
 255              		.loc 1 69 0
 256 0002 154C     		ldr	r4, .L14
 257              		.cfi_offset 14, -4
 258              		.cfi_offset 6, -8
 259              		.cfi_offset 5, -12
 260              		.cfi_offset 4, -16
 261              		.loc 1 68 0
 262 0004 0646     		mov	r6, r0
 263 0006 0D46     		mov	r5, r1
 264              		.loc 1 69 0
 265 0008 4FF0FF32 		mov	r2, #-1
 266 000c FF21     		movs	r1, #255
 267              	.LVL7:
 268 000e 2046     		mov	r0, r4
 269              	.LVL8:
 270 0010 FFF7FEFF 		bl	chOQPutTimeout
 271              		.loc 1 70 0
 272 0014 9521     		movs	r1, #149
 273 0016 2046     		mov	r0, r4
 274 0018 4FF0FF32 		mov	r2, #-1
 275 001c FFF7FEFF 		bl	chOQPutTimeout
 276              		.loc 1 71 0
 277 0020 C6F30721 		ubfx	r1, r6, #8, #8
ARM GAS  C:\Users\DNIEL~1\AppData\Local\Temp\ccEZVAp7.s 			page 6


 278 0024 2046     		mov	r0, r4
 279 0026 4FF0FF32 		mov	r2, #-1
 280 002a FFF7FEFF 		bl	chOQPutTimeout
 281              		.loc 1 72 0
 282 002e F1B2     		uxtb	r1, r6
 283 0030 2046     		mov	r0, r4
 284 0032 4FF0FF32 		mov	r2, #-1
 285 0036 FFF7FEFF 		bl	chOQPutTimeout
 286              		.loc 1 73 0
 287 003a C5F30721 		ubfx	r1, r5, #8, #8
 288 003e 2046     		mov	r0, r4
 289 0040 4FF0FF32 		mov	r2, #-1
 290 0044 FFF7FEFF 		bl	chOQPutTimeout
 291              		.loc 1 74 0
 292 0048 2046     		mov	r0, r4
 293 004a E9B2     		uxtb	r1, r5
 294 004c 4FF0FF32 		mov	r2, #-1
 295              		.loc 1 75 0
 296 0050 BDE87040 		pop	{r4, r5, r6, lr}
 297              		.loc 1 74 0
 298 0054 FFF7FEBF 		b	chOQPutTimeout
 299              	.L15:
 300              		.align	2
 301              	.L14:
 302 0058 30000000 		.word	SD2+48
 303              		.cfi_endproc
 304              	.LFE123:
 305              		.size	media_Video, .-media_Video
 306 005c AFF30080 		.section	.text.media_VideoFrame,"ax",%progbits
 307              		.align	2
 308              		.p2align 4,,15
 309              		.global	media_VideoFrame
 310              		.thumb
 311              		.thumb_func
 312              		.type	media_VideoFrame, %function
 313              	media_VideoFrame:
 314              	.LFB124:
 315              		.loc 1 78 0
 316              		.cfi_startproc
 317              		@ args = 0, pretend = 0, frame = 0
 318              		@ frame_needed = 0, uses_anonymous_args = 0
 319              	.LVL9:
 320 0000 2DE9F041 		push	{r4, r5, r6, r7, r8, lr}
 321              	.LCFI5:
 322              		.cfi_def_cfa_offset 24
 323              		.loc 1 79 0
 324 0004 1C4C     		ldr	r4, .L17
 325              		.cfi_offset 14, -4
 326              		.cfi_offset 8, -8
 327              		.cfi_offset 7, -12
 328              		.cfi_offset 6, -16
 329              		.cfi_offset 5, -20
 330              		.cfi_offset 4, -24
 331              		.loc 1 78 0
 332 0006 0746     		mov	r7, r0
 333 0008 0E46     		mov	r6, r1
 334 000a 1546     		mov	r5, r2
ARM GAS  C:\Users\DNIEL~1\AppData\Local\Temp\ccEZVAp7.s 			page 7


 335              		.loc 1 79 0
 336 000c FF21     		movs	r1, #255
 337              	.LVL10:
 338 000e 4FF0FF32 		mov	r2, #-1
 339              	.LVL11:
 340 0012 2046     		mov	r0, r4
 341              	.LVL12:
 342 0014 FFF7FEFF 		bl	chOQPutTimeout
 343              		.loc 1 80 0
 344 0018 9421     		movs	r1, #148
 345 001a 2046     		mov	r0, r4
 346 001c 4FF0FF32 		mov	r2, #-1
 347 0020 FFF7FEFF 		bl	chOQPutTimeout
 348              		.loc 1 81 0
 349 0024 C7F30721 		ubfx	r1, r7, #8, #8
 350 0028 2046     		mov	r0, r4
 351 002a 4FF0FF32 		mov	r2, #-1
 352 002e FFF7FEFF 		bl	chOQPutTimeout
 353              		.loc 1 82 0
 354 0032 F9B2     		uxtb	r1, r7
 355 0034 2046     		mov	r0, r4
 356 0036 4FF0FF32 		mov	r2, #-1
 357 003a FFF7FEFF 		bl	chOQPutTimeout
 358              		.loc 1 83 0
 359 003e C6F30721 		ubfx	r1, r6, #8, #8
 360 0042 2046     		mov	r0, r4
 361 0044 4FF0FF32 		mov	r2, #-1
 362 0048 FFF7FEFF 		bl	chOQPutTimeout
 363              		.loc 1 84 0
 364 004c F1B2     		uxtb	r1, r6
 365 004e 2046     		mov	r0, r4
 366 0050 4FF0FF32 		mov	r2, #-1
 367 0054 FFF7FEFF 		bl	chOQPutTimeout
 368              		.loc 1 85 0
 369 0058 C5F30721 		ubfx	r1, r5, #8, #8
 370 005c 2046     		mov	r0, r4
 371 005e 4FF0FF32 		mov	r2, #-1
 372 0062 FFF7FEFF 		bl	chOQPutTimeout
 373              		.loc 1 86 0
 374 0066 2046     		mov	r0, r4
 375 0068 E9B2     		uxtb	r1, r5
 376 006a 4FF0FF32 		mov	r2, #-1
 377              		.loc 1 87 0
 378 006e BDE8F041 		pop	{r4, r5, r6, r7, r8, lr}
 379              		.loc 1 86 0
 380 0072 FFF7FEBF 		b	chOQPutTimeout
 381              	.L18:
 382 0076 00BF     		.align	2
 383              	.L17:
 384 0078 30000000 		.word	SD2+48
 385              		.cfi_endproc
 386              	.LFE124:
 387              		.size	media_VideoFrame, .-media_VideoFrame
 388 007c AFF30080 		.section	.text.draw_line,"ax",%progbits
 389              		.align	2
 390              		.p2align 4,,15
 391              		.global	draw_line
ARM GAS  C:\Users\DNIEL~1\AppData\Local\Temp\ccEZVAp7.s 			page 8


 392              		.thumb
 393              		.thumb_func
 394              		.type	draw_line, %function
 395              	draw_line:
 396              	.LFB125:
 397              		.loc 1 89 0
 398              		.cfi_startproc
 399              		@ args = 4, pretend = 0, frame = 0
 400              		@ frame_needed = 0, uses_anonymous_args = 0
 401              	.LVL13:
 402 0000 2DE9F047 		push	{r4, r5, r6, r7, r8, r9, sl, lr}
 403              	.LCFI6:
 404              		.cfi_def_cfa_offset 32
 405              		.loc 1 90 0
 406 0004 2B4C     		ldr	r4, .L20
 407              		.cfi_offset 14, -4
 408              		.cfi_offset 10, -8
 409              		.cfi_offset 9, -12
 410              		.cfi_offset 8, -16
 411              		.cfi_offset 7, -20
 412              		.cfi_offset 6, -24
 413              		.cfi_offset 5, -28
 414              		.cfi_offset 4, -32
 415              		.loc 1 89 0
 416 0006 DDF82080 		ldr	r8, [sp, #32]
 417 000a 0746     		mov	r7, r0
 418 000c 0E46     		mov	r6, r1
 419 000e 1546     		mov	r5, r2
 420              		.loc 1 90 0
 421 0010 FF21     		movs	r1, #255
 422              	.LVL14:
 423 0012 4FF0FF32 		mov	r2, #-1
 424              	.LVL15:
 425 0016 2046     		mov	r0, r4
 426              	.LVL16:
 427              		.loc 1 89 0
 428 0018 9946     		mov	r9, r3
 429              		.loc 1 90 0
 430 001a FFF7FEFF 		bl	chOQPutTimeout
 431              	.LVL17:
 432              		.loc 1 91 0
 433 001e C821     		movs	r1, #200
 434 0020 2046     		mov	r0, r4
 435 0022 4FF0FF32 		mov	r2, #-1
 436 0026 FFF7FEFF 		bl	chOQPutTimeout
 437              		.loc 1 92 0
 438 002a C7F30721 		ubfx	r1, r7, #8, #8
 439 002e 2046     		mov	r0, r4
 440 0030 4FF0FF32 		mov	r2, #-1
 441 0034 FFF7FEFF 		bl	chOQPutTimeout
 442              		.loc 1 93 0
 443 0038 F9B2     		uxtb	r1, r7
 444 003a 2046     		mov	r0, r4
 445 003c 4FF0FF32 		mov	r2, #-1
 446 0040 FFF7FEFF 		bl	chOQPutTimeout
 447              		.loc 1 94 0
 448 0044 C6F30721 		ubfx	r1, r6, #8, #8
ARM GAS  C:\Users\DNIEL~1\AppData\Local\Temp\ccEZVAp7.s 			page 9


 449 0048 2046     		mov	r0, r4
 450 004a 4FF0FF32 		mov	r2, #-1
 451 004e FFF7FEFF 		bl	chOQPutTimeout
 452              		.loc 1 95 0
 453 0052 F1B2     		uxtb	r1, r6
 454 0054 2046     		mov	r0, r4
 455 0056 4FF0FF32 		mov	r2, #-1
 456 005a FFF7FEFF 		bl	chOQPutTimeout
 457              		.loc 1 96 0
 458 005e C5F30721 		ubfx	r1, r5, #8, #8
 459 0062 2046     		mov	r0, r4
 460 0064 4FF0FF32 		mov	r2, #-1
 461 0068 FFF7FEFF 		bl	chOQPutTimeout
 462              		.loc 1 97 0
 463 006c E9B2     		uxtb	r1, r5
 464 006e 2046     		mov	r0, r4
 465 0070 4FF0FF32 		mov	r2, #-1
 466 0074 FFF7FEFF 		bl	chOQPutTimeout
 467              		.loc 1 98 0
 468 0078 C9F30721 		ubfx	r1, r9, #8, #8
 469 007c 2046     		mov	r0, r4
 470 007e 4FF0FF32 		mov	r2, #-1
 471 0082 FFF7FEFF 		bl	chOQPutTimeout
 472              		.loc 1 99 0
 473 0086 5FFA89F1 		uxtb	r1, r9
 474 008a 2046     		mov	r0, r4
 475 008c 4FF0FF32 		mov	r2, #-1
 476 0090 FFF7FEFF 		bl	chOQPutTimeout
 477              		.loc 1 100 0
 478 0094 C8F30721 		ubfx	r1, r8, #8, #8
 479 0098 2046     		mov	r0, r4
 480 009a 4FF0FF32 		mov	r2, #-1
 481 009e FFF7FEFF 		bl	chOQPutTimeout
 482              		.loc 1 101 0
 483 00a2 2046     		mov	r0, r4
 484 00a4 5FFA88F1 		uxtb	r1, r8
 485 00a8 4FF0FF32 		mov	r2, #-1
 486              		.loc 1 102 0
 487 00ac BDE8F047 		pop	{r4, r5, r6, r7, r8, r9, sl, lr}
 488              		.loc 1 101 0
 489 00b0 FFF7FEBF 		b	chOQPutTimeout
 490              	.L21:
 491              		.align	2
 492              	.L20:
 493 00b4 30000000 		.word	SD2+48
 494              		.cfi_endproc
 495              	.LFE125:
 496              		.size	draw_line, .-draw_line
 497 00b8 AFF30080 		.section	.text.gfx_BGcolour,"ax",%progbits
 497      AFF30080 
 498              		.align	2
 499              		.p2align 4,,15
 500              		.global	gfx_BGcolour
 501              		.thumb
 502              		.thumb_func
 503              		.type	gfx_BGcolour, %function
 504              	gfx_BGcolour:
ARM GAS  C:\Users\DNIEL~1\AppData\Local\Temp\ccEZVAp7.s 			page 10


 505              	.LFB126:
 506              		.loc 1 105 0
 507              		.cfi_startproc
 508              		@ args = 0, pretend = 0, frame = 0
 509              		@ frame_needed = 0, uses_anonymous_args = 0
 510              	.LVL18:
 511 0000 70B5     		push	{r4, r5, r6, lr}
 512              	.LCFI7:
 513              		.cfi_def_cfa_offset 16
 514              		.loc 1 106 0
 515 0002 0E4C     		ldr	r4, .L23
 516              		.cfi_offset 14, -4
 517              		.cfi_offset 6, -8
 518              		.cfi_offset 5, -12
 519              		.cfi_offset 4, -16
 520              		.loc 1 105 0
 521 0004 0546     		mov	r5, r0
 522              		.loc 1 106 0
 523 0006 FF21     		movs	r1, #255
 524 0008 4FF0FF32 		mov	r2, #-1
 525 000c 2046     		mov	r0, r4
 526              	.LVL19:
 527 000e FFF7FEFF 		bl	chOQPutTimeout
 528              		.loc 1 107 0
 529 0012 A421     		movs	r1, #164
 530 0014 2046     		mov	r0, r4
 531 0016 4FF0FF32 		mov	r2, #-1
 532 001a FFF7FEFF 		bl	chOQPutTimeout
 533              		.loc 1 108 0
 534 001e C5F30721 		ubfx	r1, r5, #8, #8
 535 0022 2046     		mov	r0, r4
 536 0024 4FF0FF32 		mov	r2, #-1
 537 0028 FFF7FEFF 		bl	chOQPutTimeout
 538              		.loc 1 109 0
 539 002c 2046     		mov	r0, r4
 540 002e E9B2     		uxtb	r1, r5
 541 0030 4FF0FF32 		mov	r2, #-1
 542              		.loc 1 110 0
 543 0034 BDE87040 		pop	{r4, r5, r6, lr}
 544              		.loc 1 109 0
 545 0038 FFF7FEBF 		b	chOQPutTimeout
 546              	.L24:
 547              		.align	2
 548              	.L23:
 549 003c 30000000 		.word	SD2+48
 550              		.cfi_endproc
 551              	.LFE126:
 552              		.size	gfx_BGcolour, .-gfx_BGcolour
 553              		.section	.text.gfx_Contrast,"ax",%progbits
 554              		.align	2
 555              		.p2align 4,,15
 556              		.global	gfx_Contrast
 557              		.thumb
 558              		.thumb_func
 559              		.type	gfx_Contrast, %function
 560              	gfx_Contrast:
 561              	.LFB127:
ARM GAS  C:\Users\DNIEL~1\AppData\Local\Temp\ccEZVAp7.s 			page 11


 562              		.loc 1 113 0
 563              		.cfi_startproc
 564              		@ args = 0, pretend = 0, frame = 0
 565              		@ frame_needed = 0, uses_anonymous_args = 0
 566              	.LVL20:
 567 0000 70B5     		push	{r4, r5, r6, lr}
 568              	.LCFI8:
 569              		.cfi_def_cfa_offset 16
 570              		.loc 1 114 0
 571 0002 0E4C     		ldr	r4, .L26
 572              		.cfi_offset 14, -4
 573              		.cfi_offset 6, -8
 574              		.cfi_offset 5, -12
 575              		.cfi_offset 4, -16
 576              		.loc 1 113 0
 577 0004 0546     		mov	r5, r0
 578              		.loc 1 114 0
 579 0006 FF21     		movs	r1, #255
 580 0008 4FF0FF32 		mov	r2, #-1
 581 000c 2046     		mov	r0, r4
 582              	.LVL21:
 583 000e FFF7FEFF 		bl	chOQPutTimeout
 584              		.loc 1 115 0
 585 0012 9C21     		movs	r1, #156
 586 0014 2046     		mov	r0, r4
 587 0016 4FF0FF32 		mov	r2, #-1
 588 001a FFF7FEFF 		bl	chOQPutTimeout
 589              		.loc 1 116 0
 590 001e C5F30721 		ubfx	r1, r5, #8, #8
 591 0022 2046     		mov	r0, r4
 592 0024 4FF0FF32 		mov	r2, #-1
 593 0028 FFF7FEFF 		bl	chOQPutTimeout
 594              		.loc 1 117 0
 595 002c 2046     		mov	r0, r4
 596 002e E9B2     		uxtb	r1, r5
 597 0030 4FF0FF32 		mov	r2, #-1
 598              		.loc 1 118 0
 599 0034 BDE87040 		pop	{r4, r5, r6, lr}
 600              		.loc 1 117 0
 601 0038 FFF7FEBF 		b	chOQPutTimeout
 602              	.L27:
 603              		.align	2
 604              	.L26:
 605 003c 30000000 		.word	SD2+48
 606              		.cfi_endproc
 607              	.LFE127:
 608              		.size	gfx_Contrast, .-gfx_Contrast
 609              		.section	.text.gfx_Transparency,"ax",%progbits
 610              		.align	2
 611              		.p2align 4,,15
 612              		.global	gfx_Transparency
 613              		.thumb
 614              		.thumb_func
 615              		.type	gfx_Transparency, %function
 616              	gfx_Transparency:
 617              	.LFB128:
 618              		.loc 1 121 0
ARM GAS  C:\Users\DNIEL~1\AppData\Local\Temp\ccEZVAp7.s 			page 12


 619              		.cfi_startproc
 620              		@ args = 0, pretend = 0, frame = 0
 621              		@ frame_needed = 0, uses_anonymous_args = 0
 622              	.LVL22:
 623 0000 70B5     		push	{r4, r5, r6, lr}
 624              	.LCFI9:
 625              		.cfi_def_cfa_offset 16
 626              		.loc 1 122 0
 627 0002 0E4C     		ldr	r4, .L29
 628              		.cfi_offset 14, -4
 629              		.cfi_offset 6, -8
 630              		.cfi_offset 5, -12
 631              		.cfi_offset 4, -16
 632              		.loc 1 121 0
 633 0004 0546     		mov	r5, r0
 634              		.loc 1 122 0
 635 0006 FF21     		movs	r1, #255
 636 0008 4FF0FF32 		mov	r2, #-1
 637 000c 2046     		mov	r0, r4
 638              	.LVL23:
 639 000e FFF7FEFF 		bl	chOQPutTimeout
 640              		.loc 1 123 0
 641 0012 A021     		movs	r1, #160
 642 0014 2046     		mov	r0, r4
 643 0016 4FF0FF32 		mov	r2, #-1
 644 001a FFF7FEFF 		bl	chOQPutTimeout
 645              		.loc 1 124 0
 646 001e C5F30721 		ubfx	r1, r5, #8, #8
 647 0022 2046     		mov	r0, r4
 648 0024 4FF0FF32 		mov	r2, #-1
 649 0028 FFF7FEFF 		bl	chOQPutTimeout
 650              		.loc 1 125 0
 651 002c 2046     		mov	r0, r4
 652 002e E9B2     		uxtb	r1, r5
 653 0030 4FF0FF32 		mov	r2, #-1
 654              		.loc 1 126 0
 655 0034 BDE87040 		pop	{r4, r5, r6, lr}
 656              		.loc 1 125 0
 657 0038 FFF7FEBF 		b	chOQPutTimeout
 658              	.L30:
 659              		.align	2
 660              	.L29:
 661 003c 30000000 		.word	SD2+48
 662              		.cfi_endproc
 663              	.LFE128:
 664              		.size	gfx_Transparency, .-gfx_Transparency
 665              		.section	.text.gfx_TransparentColour,"ax",%progbits
 666              		.align	2
 667              		.p2align 4,,15
 668              		.global	gfx_TransparentColour
 669              		.thumb
 670              		.thumb_func
 671              		.type	gfx_TransparentColour, %function
 672              	gfx_TransparentColour:
 673              	.LFB129:
 674              		.loc 1 129 0
 675              		.cfi_startproc
ARM GAS  C:\Users\DNIEL~1\AppData\Local\Temp\ccEZVAp7.s 			page 13


 676              		@ args = 0, pretend = 0, frame = 0
 677              		@ frame_needed = 0, uses_anonymous_args = 0
 678              	.LVL24:
 679 0000 70B5     		push	{r4, r5, r6, lr}
 680              	.LCFI10:
 681              		.cfi_def_cfa_offset 16
 682              		.loc 1 130 0
 683 0002 0E4C     		ldr	r4, .L32
 684              		.cfi_offset 14, -4
 685              		.cfi_offset 6, -8
 686              		.cfi_offset 5, -12
 687              		.cfi_offset 4, -16
 688              		.loc 1 129 0
 689 0004 0546     		mov	r5, r0
 690              		.loc 1 130 0
 691 0006 FF21     		movs	r1, #255
 692 0008 4FF0FF32 		mov	r2, #-1
 693 000c 2046     		mov	r0, r4
 694              	.LVL25:
 695 000e FFF7FEFF 		bl	chOQPutTimeout
 696              		.loc 1 131 0
 697 0012 A121     		movs	r1, #161
 698 0014 2046     		mov	r0, r4
 699 0016 4FF0FF32 		mov	r2, #-1
 700 001a FFF7FEFF 		bl	chOQPutTimeout
 701              		.loc 1 132 0
 702 001e C5F30721 		ubfx	r1, r5, #8, #8
 703 0022 2046     		mov	r0, r4
 704 0024 4FF0FF32 		mov	r2, #-1
 705 0028 FFF7FEFF 		bl	chOQPutTimeout
 706              		.loc 1 133 0
 707 002c 2046     		mov	r0, r4
 708 002e E9B2     		uxtb	r1, r5
 709 0030 4FF0FF32 		mov	r2, #-1
 710              		.loc 1 134 0
 711 0034 BDE87040 		pop	{r4, r5, r6, lr}
 712              		.loc 1 133 0
 713 0038 FFF7FEBF 		b	chOQPutTimeout
 714              	.L33:
 715              		.align	2
 716              	.L32:
 717 003c 30000000 		.word	SD2+48
 718              		.cfi_endproc
 719              	.LFE129:
 720              		.size	gfx_TransparentColour, .-gfx_TransparentColour
 721              		.section	.text.file_LoadImageControl,"ax",%progbits
 722              		.align	2
 723              		.p2align 4,,15
 724              		.global	file_LoadImageControl
 725              		.thumb
 726              		.thumb_func
 727              		.type	file_LoadImageControl, %function
 728              	file_LoadImageControl:
 729              	.LFB130:
 730              		.loc 1 137 0
 731              		.cfi_startproc
 732              		@ args = 0, pretend = 0, frame = 0
ARM GAS  C:\Users\DNIEL~1\AppData\Local\Temp\ccEZVAp7.s 			page 14


 733              		@ frame_needed = 0, uses_anonymous_args = 0
 734              	.LVL26:
 735 0000 2DE9F041 		push	{r4, r5, r6, r7, r8, lr}
 736              	.LCFI11:
 737              		.cfi_def_cfa_offset 24
 738              		.loc 1 138 0
 739 0004 154C     		ldr	r4, .L35
 740              		.cfi_offset 14, -4
 741              		.cfi_offset 8, -8
 742              		.cfi_offset 7, -12
 743              		.cfi_offset 6, -16
 744              		.cfi_offset 5, -20
 745              		.cfi_offset 4, -24
 746              		.loc 1 137 0
 747 0006 1546     		mov	r5, r2
 748 0008 0746     		mov	r7, r0
 749 000a 0E46     		mov	r6, r1
 750              		.loc 1 138 0
 751 000c 4FF0FF32 		mov	r2, #-1
 752              	.LVL27:
 753 0010 0021     		movs	r1, #0
 754              	.LVL28:
 755 0012 2046     		mov	r0, r4
 756              	.LVL29:
 757 0014 FFF7FEFF 		bl	chOQPutTimeout
 758              		.loc 1 139 0
 759 0018 0921     		movs	r1, #9
 760 001a 2046     		mov	r0, r4
 761 001c 4FF0FF32 		mov	r2, #-1
 762 0020 FFF7FEFF 		bl	chOQPutTimeout
 763              		.loc 1 140 0
 764 0024 F9B2     		uxtb	r1, r7
 765 0026 2046     		mov	r0, r4
 766 0028 4FF0FF32 		mov	r2, #-1
 767 002c FFF7FEFF 		bl	chOQPutTimeout
 768              		.loc 1 141 0
 769 0030 F1B2     		uxtb	r1, r6
 770 0032 2046     		mov	r0, r4
 771 0034 4FF0FF32 		mov	r2, #-1
 772 0038 FFF7FEFF 		bl	chOQPutTimeout
 773              		.loc 1 142 0
 774 003c C5F30721 		ubfx	r1, r5, #8, #8
 775 0040 2046     		mov	r0, r4
 776 0042 4FF0FF32 		mov	r2, #-1
 777 0046 FFF7FEFF 		bl	chOQPutTimeout
 778              		.loc 1 143 0
 779 004a 2046     		mov	r0, r4
 780 004c E9B2     		uxtb	r1, r5
 781 004e 4FF0FF32 		mov	r2, #-1
 782              		.loc 1 144 0
 783 0052 BDE8F041 		pop	{r4, r5, r6, r7, r8, lr}
 784              		.loc 1 143 0
 785 0056 FFF7FEBF 		b	chOQPutTimeout
 786              	.L36:
 787 005a 00BF     		.align	2
 788              	.L35:
 789 005c 30000000 		.word	SD2+48
ARM GAS  C:\Users\DNIEL~1\AppData\Local\Temp\ccEZVAp7.s 			page 15


 790              		.cfi_endproc
 791              	.LFE130:
 792              		.size	file_LoadImageControl, .-file_LoadImageControl
 793              		.section	.text.putstr,"ax",%progbits
 794              		.align	2
 795              		.p2align 4,,15
 796              		.global	putstr
 797              		.thumb
 798              		.thumb_func
 799              		.type	putstr, %function
 800              	putstr:
 801              	.LFB131:
 802              		.loc 1 147 0
 803              		.cfi_startproc
 804              		@ args = 0, pretend = 0, frame = 0
 805              		@ frame_needed = 0, uses_anonymous_args = 0
 806              	.LVL30:
 807 0000 70B5     		push	{r4, r5, r6, lr}
 808              	.LCFI12:
 809              		.cfi_def_cfa_offset 16
 810              		.loc 1 148 0
 811 0002 0B4C     		ldr	r4, .L38
 812              		.cfi_offset 14, -4
 813              		.cfi_offset 6, -8
 814              		.cfi_offset 5, -12
 815              		.cfi_offset 4, -16
 816              		.loc 1 147 0
 817 0004 0546     		mov	r5, r0
 818              		.loc 1 148 0
 819 0006 0021     		movs	r1, #0
 820 0008 4FF0FF32 		mov	r2, #-1
 821 000c 2046     		mov	r0, r4
 822              	.LVL31:
 823 000e FFF7FEFF 		bl	chOQPutTimeout
 824              		.loc 1 149 0
 825 0012 1821     		movs	r1, #24
 826 0014 2046     		mov	r0, r4
 827 0016 4FF0FF32 		mov	r2, #-1
 828 001a FFF7FEFF 		bl	chOQPutTimeout
 829              		.loc 1 150 0
 830 001e 2046     		mov	r0, r4
 831 0020 E9B2     		uxtb	r1, r5
 832 0022 4FF0FF32 		mov	r2, #-1
 833              		.loc 1 151 0
 834 0026 BDE87040 		pop	{r4, r5, r6, lr}
 835              		.loc 1 150 0
 836 002a FFF7FEBF 		b	chOQPutTimeout
 837              	.L39:
 838 002e 00BF     		.align	2
 839              	.L38:
 840 0030 30000000 		.word	SD2+48
 841              		.cfi_endproc
 842              	.LFE131:
 843              		.size	putstr, .-putstr
 844 0034 AFF30080 		.section	.text.WriteChars,"ax",%progbits
 844      AFF30080 
 844      AFF30080 
ARM GAS  C:\Users\DNIEL~1\AppData\Local\Temp\ccEZVAp7.s 			page 16


 845              		.align	2
 846              		.p2align 4,,15
 847              		.global	WriteChars
 848              		.thumb
 849              		.thumb_func
 850              		.type	WriteChars, %function
 851              	WriteChars:
 852              	.LFB132:
 853              		.loc 1 154 0
 854              		.cfi_startproc
 855              		@ args = 0, pretend = 0, frame = 0
 856              		@ frame_needed = 0, uses_anonymous_args = 0
 857              	.LVL32:
 858 0000 38B5     		push	{r3, r4, r5, lr}
 859              	.LCFI13:
 860              		.cfi_def_cfa_offset 16
 861 0002 0546     		mov	r5, r0
 862              		.cfi_offset 14, -4
 863              		.cfi_offset 5, -8
 864              		.cfi_offset 4, -12
 865              		.cfi_offset 3, -16
 866              	.LVL33:
 867              	.L41:
 868              		.loc 1 158 0 discriminator 1
 869 0004 15F8014B 		ldrb	r4, [r5], #1	@ zero_extendqisi2
 870              	.LVL34:
 871              		.loc 1 159 0 discriminator 1
 872 0008 0448     		ldr	r0, .L44
 873 000a 2146     		mov	r1, r4
 874 000c 4FF0FF32 		mov	r2, #-1
 875 0010 FFF7FEFF 		bl	chOQPutTimeout
 876              		.loc 1 160 0 discriminator 1
 877 0014 002C     		cmp	r4, #0
 878 0016 F5D1     		bne	.L41
 879              		.loc 1 161 0
 880 0018 38BD     		pop	{r3, r4, r5, pc}
 881              	.L45:
 882 001a 00BF     		.align	2
 883              	.L44:
 884 001c 30000000 		.word	SD2+48
 885              		.cfi_endproc
 886              	.LFE132:
 887              		.size	WriteChars, .-WriteChars
 888              		.section	.text.bus_In,"ax",%progbits
 889              		.align	2
 890              		.p2align 4,,15
 891              		.global	bus_In
 892              		.thumb
 893              		.thumb_func
 894              		.type	bus_In, %function
 895              	bus_In:
 896              	.LFB134:
 897              		.loc 1 181 0
 898              		.cfi_startproc
 899              		@ args = 0, pretend = 0, frame = 0
 900              		@ frame_needed = 0, uses_anonymous_args = 0
 901 0000 10B5     		push	{r4, lr}
ARM GAS  C:\Users\DNIEL~1\AppData\Local\Temp\ccEZVAp7.s 			page 17


 902              	.LCFI14:
 903              		.cfi_def_cfa_offset 8
 904              		.loc 1 182 0
 905 0002 074C     		ldr	r4, .L47
 906              		.cfi_offset 14, -4
 907              		.cfi_offset 4, -8
 908 0004 FF21     		movs	r1, #255
 909 0006 4FF0FF32 		mov	r2, #-1
 910 000a 2046     		mov	r0, r4
 911 000c FFF7FEFF 		bl	chOQPutTimeout
 912              		.loc 1 183 0
 913 0010 2046     		mov	r0, r4
 914 0012 D321     		movs	r1, #211
 915 0014 4FF0FF32 		mov	r2, #-1
 916              		.loc 1 184 0
 917 0018 BDE81040 		pop	{r4, lr}
 918              		.loc 1 183 0
 919 001c FFF7FEBF 		b	chOQPutTimeout
 920              	.L48:
 921              		.align	2
 922              	.L47:
 923 0020 30000000 		.word	SD2+48
 924              		.cfi_endproc
 925              	.LFE134:
 926              		.size	bus_In, .-bus_In
 927 0024 AFF30080 		.section	.text.gfxGetDspAns,"ax",%progbits
 927      AFF30080 
 927      AFF30080 
 928              		.align	2
 929              		.p2align 4,,15
 930              		.global	gfxGetDspAns
 931              		.thumb
 932              		.thumb_func
 933              		.type	gfxGetDspAns, %function
 934              	gfxGetDspAns:
 935              	.LFB135:
 936              		.loc 1 187 0
 937              		.cfi_startproc
 938              		@ args = 0, pretend = 0, frame = 8
 939              		@ frame_needed = 0, uses_anonymous_args = 0
 940 0000 00B5     		push	{lr}
 941              	.LCFI15:
 942              		.cfi_def_cfa_offset 4
 943 0002 83B0     		sub	sp, sp, #12
 944              	.LCFI16:
 945              		.cfi_def_cfa_offset 16
 946              		.loc 1 190 0
 947 0004 0A23     		movs	r3, #10
 948 0006 0222     		movs	r2, #2
 949 0008 0848     		ldr	r0, .L53
 950 000a 0DF10601 		add	r1, sp, #6
 951              		.cfi_offset 14, -4
 952 000e FFF7FEFF 		bl	chIQReadTimeout
 953              	.LVL35:
 954              		.loc 1 192 0
 955 0012 BDF80630 		ldrh	r3, [sp, #6]
 956 0016 062B     		cmp	r3, #6
ARM GAS  C:\Users\DNIEL~1\AppData\Local\Temp\ccEZVAp7.s 			page 18


 957 0018 04D0     		beq	.L52
 958              		.loc 1 197 0
 959 001a D8B2     		uxtb	r0, r3
 960 001c 044B     		ldr	r3, .L53+4
 961 001e 1870     		strb	r0, [r3, #0]
 962              	.L51:
 963              		.loc 1 200 0
 964 0020 03B0     		add	sp, sp, #12
 965 0022 00BD     		pop	{pc}
 966              	.L52:
 967              		.loc 1 194 0
 968 0024 024A     		ldr	r2, .L53+4
 969 0026 1846     		mov	r0, r3
 970 0028 1370     		strb	r3, [r2, #0]
 971 002a F9E7     		b	.L51
 972              	.L54:
 973              		.align	2
 974              	.L53:
 975 002c 0C000000 		.word	SD2+12
 976 0030 00000000 		.word	.LANCHOR0
 977              		.cfi_endproc
 978              	.LFE135:
 979              		.size	gfxGetDspAns, .-gfxGetDspAns
 980 0034 AFF30080 		.section	.text.bus_Read,"ax",%progbits
 980      AFF30080 
 980      AFF30080 
 981              		.align	2
 982              		.p2align 4,,15
 983              		.global	bus_Read
 984              		.thumb
 985              		.thumb_func
 986              		.type	bus_Read, %function
 987              	bus_Read:
 988              	.LFB133:
 989              		.loc 1 164 0
 990              		.cfi_startproc
 991              		@ args = 0, pretend = 0, frame = 8
 992              		@ frame_needed = 0, uses_anonymous_args = 0
 993 0000 00B5     		push	{lr}
 994              	.LCFI17:
 995              		.cfi_def_cfa_offset 4
 996              		.loc 1 167 0
 997 0002 FF21     		movs	r1, #255
 998              		.loc 1 164 0
 999 0004 83B0     		sub	sp, sp, #12
 1000              	.LCFI18:
 1001              		.cfi_def_cfa_offset 16
 1002              		.loc 1 167 0
 1003 0006 4FF0FF32 		mov	r2, #-1
 1004 000a 0D48     		ldr	r0, .L58
 1005              		.cfi_offset 14, -4
 1006 000c FFF7FEFF 		bl	chOQPutTimeout
 1007              		.loc 1 168 0
 1008 0010 CF21     		movs	r1, #207
 1009 0012 4FF0FF32 		mov	r2, #-1
 1010 0016 0A48     		ldr	r0, .L58
 1011 0018 FFF7FEFF 		bl	chOQPutTimeout
ARM GAS  C:\Users\DNIEL~1\AppData\Local\Temp\ccEZVAp7.s 			page 19


 1012              		.loc 1 169 0
 1013 001c FFF7FEFF 		bl	gfxGetDspAns
 1014              		.loc 1 170 0
 1015 0020 0628     		cmp	r0, #6
 1016              		.loc 1 169 0
 1017 0022 ADF80600 		strh	r0, [sp, #6]	@ movhi
 1018              	.LVL36:
 1019              		.loc 1 170 0
 1020 0026 01D0     		beq	.L57
 1021              	.L56:
 1022              		.loc 1 178 0
 1023 0028 03B0     		add	sp, sp, #12
 1024 002a 00BD     		pop	{pc}
 1025              	.L57:
 1026              		.loc 1 172 0
 1027 002c 0548     		ldr	r0, .L58+4
 1028 002e 0DF10601 		add	r1, sp, #6
 1029 0032 0222     		movs	r2, #2
 1030 0034 0A23     		movs	r3, #10
 1031 0036 FFF7FEFF 		bl	chIQReadTimeout
 1032 003a BDF80600 		ldrh	r0, [sp, #6]
 1033 003e F3E7     		b	.L56
 1034              	.L59:
 1035              		.align	2
 1036              	.L58:
 1037 0040 30000000 		.word	SD2+48
 1038 0044 0C000000 		.word	SD2+12
 1039              		.cfi_endproc
 1040              	.LFE133:
 1041              		.size	bus_Read, .-bus_Read
 1042 0048 AFF30080 		.section	.text.gfxGetDspAnsZero,"ax",%progbits
 1042      AFF30080 
 1043              		.align	2
 1044              		.p2align 4,,15
 1045              		.global	gfxGetDspAnsZero
 1046              		.thumb
 1047              		.thumb_func
 1048              		.type	gfxGetDspAnsZero, %function
 1049              	gfxGetDspAnsZero:
 1050              	.LFB136:
 1051              		.loc 1 202 0
 1052              		.cfi_startproc
 1053              		@ args = 0, pretend = 0, frame = 0
 1054              		@ frame_needed = 0, uses_anonymous_args = 0
 1055              		@ link register save eliminated.
 1056              		.loc 1 203 0
 1057 0000 014B     		ldr	r3, .L61
 1058 0002 0022     		movs	r2, #0
 1059 0004 1A70     		strb	r2, [r3, #0]
 1060              		.loc 1 204 0
 1061 0006 7047     		bx	lr
 1062              	.L62:
 1063              		.align	2
 1064              	.L61:
 1065 0008 00000000 		.word	.LANCHOR0
 1066              		.cfi_endproc
 1067              	.LFE136:
ARM GAS  C:\Users\DNIEL~1\AppData\Local\Temp\ccEZVAp7.s 			page 20


 1068              		.size	gfxGetDspAnsZero, .-gfxGetDspAnsZero
 1069 000c AFF30080 		.section	.bss.dspAns,"aw",%nobits
 1070              		.set	.LANCHOR0,. + 0
 1071              		.type	dspAns, %object
 1072              		.size	dspAns, 1
 1073              	dspAns:
 1074 0000 00       		.space	1
 1075              		.text
 1076              	.Letext0: