ARM GAS  C:\Users\DNIEL~1\AppData\Local\Temp\cc8OU5M1.s 			page 1


   1              		.syntax unified
   2              		.cpu cortex-m4
   3              		.fpu softvfp
   4              		.eabi_attribute 20, 1
   5              		.eabi_attribute 21, 1
   6              		.eabi_attribute 23, 3
   7              		.eabi_attribute 24, 1
   8              		.eabi_attribute 25, 1
   9              		.eabi_attribute 26, 1
  10              		.eabi_attribute 30, 2
  11              		.eabi_attribute 18, 4
  12              		.thumb
  13              		.file	"gpt.c"
  14              		.section	.debug_abbrev,"",%progbits
  15              	.Ldebug_abbrev0:
  16              		.section	.debug_info,"",%progbits
  17              	.Ldebug_info0:
  18              		.section	.debug_line,"",%progbits
  19              	.Ldebug_line0:
  20 0000 81020000 		.text
  20      02007601 
  20      00000201 
  20      FB0E0D00 
  20      01010101 
  21              	.Ltext0:
  22              		.cfi_sections	.debug_frame
  23              		.section	.text.gptInit,"ax",%progbits
  24              		.align	2
  25              		.p2align 4,,15
  26              		.global	gptInit
  27              		.thumb
  28              		.thumb_func
  29              		.type	gptInit, %function
  30              	gptInit:
  31              	.LFB118:
  32              		.file 1 "../../../ChibiOS/os/hal/src/gpt.c"
  33              		.loc 1 68 0
  34              		.cfi_startproc
  35              		@ args = 0, pretend = 0, frame = 0
  36              		@ frame_needed = 0, uses_anonymous_args = 0
  37              		@ link register save eliminated.
  38              		.loc 1 71 0
  39              		.loc 1 70 0
  40 0000 FFF7FEBF 		b	gpt_lld_init
  41              		.cfi_endproc
  42              	.LFE118:
  43              		.size	gptInit, .-gptInit
  44 0004 AFF30080 		.section	.text.gptObjectInit,"ax",%progbits
  44      AFF30080 
  44      AFF30080 
  45              		.align	2
  46              		.p2align 4,,15
  47              		.global	gptObjectInit
  48              		.thumb
  49              		.thumb_func
  50              		.type	gptObjectInit, %function
  51              	gptObjectInit:
ARM GAS  C:\Users\DNIEL~1\AppData\Local\Temp\cc8OU5M1.s 			page 2


  52              	.LFB119:
  53              		.loc 1 80 0
  54              		.cfi_startproc
  55              		@ args = 0, pretend = 0, frame = 0
  56              		@ frame_needed = 0, uses_anonymous_args = 0
  57              		@ link register save eliminated.
  58              	.LVL0:
  59              		.loc 1 82 0
  60 0000 0121     		movs	r1, #1
  61              		.loc 1 83 0
  62 0002 0023     		movs	r3, #0
  63              		.loc 1 82 0
  64 0004 0170     		strb	r1, [r0, #0]
  65              		.loc 1 83 0
  66 0006 4360     		str	r3, [r0, #4]
  67              		.loc 1 84 0
  68 0008 7047     		bx	lr
  69              		.cfi_endproc
  70              	.LFE119:
  71              		.size	gptObjectInit, .-gptObjectInit
  72 000a 00BFAFF3 		.section	.text.gptStart,"ax",%progbits
  72      0080
  73              		.align	2
  74              		.p2align 4,,15
  75              		.global	gptStart
  76              		.thumb
  77              		.thumb_func
  78              		.type	gptStart, %function
  79              	gptStart:
  80              	.LFB120:
  81              		.loc 1 94 0
  82              		.cfi_startproc
  83              		@ args = 0, pretend = 0, frame = 0
  84              		@ frame_needed = 0, uses_anonymous_args = 0
  85              	.LVL1:
  86 0000 10B5     		push	{r4, lr}
  87              	.LCFI0:
  88              		.cfi_def_cfa_offset 8
  89              	.LBB14:
  90              		.loc 1 98 0
  91 0002 2023     		movs	r3, #32
  92              	.LVL2:
  93              	.LBE14:
  94              		.loc 1 94 0
  95 0004 0446     		mov	r4, r0
  96              		.cfi_offset 14, -4
  97              		.cfi_offset 4, -8
  98              	.LBB15:
  99              		.loc 1 98 0
 100              	@ 98 "../../../ChibiOS/os/hal/src/gpt.c" 1
 101 0006 83F31188 		msr     BASEPRI, r3
 102              	@ 0 "" 2
 103              	.LVL3:
 104              		.thumb
 105              	.LBE15:
 106              		.loc 1 101 0
 107 000a 4160     		str	r1, [r0, #4]
ARM GAS  C:\Users\DNIEL~1\AppData\Local\Temp\cc8OU5M1.s 			page 3


 108              		.loc 1 102 0
 109 000c FFF7FEFF 		bl	gpt_lld_start
 110              	.LVL4:
 111              		.loc 1 103 0
 112 0010 0223     		movs	r3, #2
 113 0012 2370     		strb	r3, [r4, #0]
 114              	.LBB16:
 115              		.loc 1 104 0
 116 0014 0023     		movs	r3, #0
 117              	.LVL5:
 118              	@ 104 "../../../ChibiOS/os/hal/src/gpt.c" 1
 119 0016 83F31188 		msr     BASEPRI, r3
 120              	@ 0 "" 2
 121              	.LVL6:
 122              		.thumb
 123              	.LBE16:
 124              		.loc 1 105 0
 125 001a 10BD     		pop	{r4, pc}
 126              		.cfi_endproc
 127              	.LFE120:
 128              		.size	gptStart, .-gptStart
 129 001c AFF30080 		.section	.text.gptStop,"ax",%progbits
 130              		.align	2
 131              		.p2align 4,,15
 132              		.global	gptStop
 133              		.thumb
 134              		.thumb_func
 135              		.type	gptStop, %function
 136              	gptStop:
 137              	.LFB121:
 138              		.loc 1 114 0
 139              		.cfi_startproc
 140              		@ args = 0, pretend = 0, frame = 0
 141              		@ frame_needed = 0, uses_anonymous_args = 0
 142              	.LVL7:
 143 0000 10B5     		push	{r4, lr}
 144              	.LCFI1:
 145              		.cfi_def_cfa_offset 8
 146              	.LBB17:
 147              		.loc 1 118 0
 148 0002 2023     		movs	r3, #32
 149              	.LVL8:
 150              	.LBE17:
 151              		.loc 1 114 0
 152 0004 0446     		mov	r4, r0
 153              		.cfi_offset 14, -4
 154              		.cfi_offset 4, -8
 155              	.LBB18:
 156              		.loc 1 118 0
 157              	@ 118 "../../../ChibiOS/os/hal/src/gpt.c" 1
 158 0006 83F31188 		msr     BASEPRI, r3
 159              	@ 0 "" 2
 160              	.LVL9:
 161              		.thumb
 162              	.LBE18:
 163              		.loc 1 121 0
 164 000a FFF7FEFF 		bl	gpt_lld_stop
ARM GAS  C:\Users\DNIEL~1\AppData\Local\Temp\cc8OU5M1.s 			page 4


 165              	.LVL10:
 166              		.loc 1 122 0
 167 000e 0123     		movs	r3, #1
 168 0010 2370     		strb	r3, [r4, #0]
 169              	.LBB19:
 170              		.loc 1 123 0
 171 0012 0023     		movs	r3, #0
 172              	.LVL11:
 173              	@ 123 "../../../ChibiOS/os/hal/src/gpt.c" 1
 174 0014 83F31188 		msr     BASEPRI, r3
 175              	@ 0 "" 2
 176              	.LVL12:
 177              		.thumb
 178              	.LBE19:
 179              		.loc 1 124 0
 180 0018 10BD     		pop	{r4, pc}
 181              		.cfi_endproc
 182              	.LFE121:
 183              		.size	gptStop, .-gptStop
 184 001a 00BFAFF3 		.section	.text.gptChangeInterval,"ax",%progbits
 184      0080
 185              		.align	2
 186              		.p2align 4,,15
 187              		.global	gptChangeInterval
 188              		.thumb
 189              		.thumb_func
 190              		.type	gptChangeInterval, %function
 191              	gptChangeInterval:
 192              	.LFB122:
 193              		.loc 1 139 0
 194              		.cfi_startproc
 195              		@ args = 0, pretend = 0, frame = 0
 196              		@ frame_needed = 0, uses_anonymous_args = 0
 197              		@ link register save eliminated.
 198              	.LVL13:
 199              	.LBB20:
 200              		.loc 1 143 0
 201 0000 2023     		movs	r3, #32
 202              	.LVL14:
 203              	@ 143 "../../../ChibiOS/os/hal/src/gpt.c" 1
 204 0002 83F31188 		msr     BASEPRI, r3
 205              	@ 0 "" 2
 206              	.LVL15:
 207              		.thumb
 208              	.LBE20:
 209              		.loc 1 146 0
 210 0006 C368     		ldr	r3, [r0, #12]
 211              	.LVL16:
 212 0008 0139     		subs	r1, r1, #1
 213              	.LVL17:
 214 000a D962     		str	r1, [r3, #44]
 215              	.LBB21:
 216              		.loc 1 147 0
 217 000c 0023     		movs	r3, #0
 218              	.LVL18:
 219              	@ 147 "../../../ChibiOS/os/hal/src/gpt.c" 1
 220 000e 83F31188 		msr     BASEPRI, r3
ARM GAS  C:\Users\DNIEL~1\AppData\Local\Temp\cc8OU5M1.s 			page 5


 221              	@ 0 "" 2
 222              	.LVL19:
 223              		.thumb
 224              	.LBE21:
 225              		.loc 1 148 0
 226 0012 7047     		bx	lr
 227              		.cfi_endproc
 228              	.LFE122:
 229              		.size	gptChangeInterval, .-gptChangeInterval
 230 0014 AFF30080 		.section	.text.gptStartContinuous,"ax",%progbits
 230      AFF30080 
 230      AFF30080 
 231              		.align	2
 232              		.p2align 4,,15
 233              		.global	gptStartContinuous
 234              		.thumb
 235              		.thumb_func
 236              		.type	gptStartContinuous, %function
 237              	gptStartContinuous:
 238              	.LFB123:
 239              		.loc 1 158 0
 240              		.cfi_startproc
 241              		@ args = 0, pretend = 0, frame = 0
 242              		@ frame_needed = 0, uses_anonymous_args = 0
 243              	.LVL20:
 244 0000 08B5     		push	{r3, lr}
 245              	.LCFI2:
 246              		.cfi_def_cfa_offset 8
 247              	.LBB22:
 248              		.loc 1 160 0
 249 0002 2023     		movs	r3, #32
 250              		.cfi_offset 14, -4
 251              		.cfi_offset 3, -8
 252              	.LVL21:
 253              	@ 160 "../../../ChibiOS/os/hal/src/gpt.c" 1
 254 0004 83F31188 		msr     BASEPRI, r3
 255              	@ 0 "" 2
 256              	.LVL22:
 257              		.thumb
 258              	.LBE22:
 259              	.LBB23:
 260              	.LBB24:
 261              		.loc 1 180 0
 262 0008 0323     		movs	r3, #3
 263              	.LVL23:
 264 000a 0370     		strb	r3, [r0, #0]
 265              		.loc 1 181 0
 266 000c FFF7FEFF 		bl	gpt_lld_start_timer
 267              	.LVL24:
 268              	.LBE24:
 269              	.LBE23:
 270              	.LBB25:
 271              		.loc 1 162 0
 272 0010 0023     		movs	r3, #0
 273              	.LVL25:
 274              	@ 162 "../../../ChibiOS/os/hal/src/gpt.c" 1
 275 0012 83F31188 		msr     BASEPRI, r3
ARM GAS  C:\Users\DNIEL~1\AppData\Local\Temp\cc8OU5M1.s 			page 6


 276              	@ 0 "" 2
 277              	.LVL26:
 278              		.thumb
 279              	.LBE25:
 280              		.loc 1 163 0
 281 0016 08BD     		pop	{r3, pc}
 282              		.cfi_endproc
 283              	.LFE123:
 284              		.size	gptStartContinuous, .-gptStartContinuous
 285 0018 AFF30080 		.section	.text.gptStartContinuousI,"ax",%progbits
 285      AFF30080 
 286              		.align	2
 287              		.p2align 4,,15
 288              		.global	gptStartContinuousI
 289              		.thumb
 290              		.thumb_func
 291              		.type	gptStartContinuousI, %function
 292              	gptStartContinuousI:
 293              	.LFB124:
 294              		.loc 1 173 0
 295              		.cfi_startproc
 296              		@ args = 0, pretend = 0, frame = 0
 297              		@ frame_needed = 0, uses_anonymous_args = 0
 298              		@ link register save eliminated.
 299              	.LVL27:
 300              		.loc 1 180 0
 301 0000 0323     		movs	r3, #3
 302 0002 0370     		strb	r3, [r0, #0]
 303              		.loc 1 182 0
 304              		.loc 1 181 0
 305 0004 FFF7FEBF 		b	gpt_lld_start_timer
 306              		.cfi_endproc
 307              	.LFE124:
 308              		.size	gptStartContinuousI, .-gptStartContinuousI
 309 0008 AFF30080 		.section	.text.gptStartOneShot,"ax",%progbits
 309      AFF30080 
 310              		.align	2
 311              		.p2align 4,,15
 312              		.global	gptStartOneShot
 313              		.thumb
 314              		.thumb_func
 315              		.type	gptStartOneShot, %function
 316              	gptStartOneShot:
 317              	.LFB125:
 318              		.loc 1 192 0
 319              		.cfi_startproc
 320              		@ args = 0, pretend = 0, frame = 0
 321              		@ frame_needed = 0, uses_anonymous_args = 0
 322              	.LVL28:
 323 0000 08B5     		push	{r3, lr}
 324              	.LCFI3:
 325              		.cfi_def_cfa_offset 8
 326              	.LBB26:
 327              		.loc 1 194 0
 328 0002 2023     		movs	r3, #32
 329              		.cfi_offset 14, -4
 330              		.cfi_offset 3, -8
ARM GAS  C:\Users\DNIEL~1\AppData\Local\Temp\cc8OU5M1.s 			page 7


 331              	.LVL29:
 332              	@ 194 "../../../ChibiOS/os/hal/src/gpt.c" 1
 333 0004 83F31188 		msr     BASEPRI, r3
 334              	@ 0 "" 2
 335              	.LVL30:
 336              		.thumb
 337              	.LBE26:
 338              	.LBB27:
 339              	.LBB28:
 340              		.loc 1 214 0
 341 0008 0423     		movs	r3, #4
 342              	.LVL31:
 343 000a 0370     		strb	r3, [r0, #0]
 344              		.loc 1 215 0
 345 000c FFF7FEFF 		bl	gpt_lld_start_timer
 346              	.LVL32:
 347              	.LBE28:
 348              	.LBE27:
 349              	.LBB29:
 350              		.loc 1 196 0
 351 0010 0023     		movs	r3, #0
 352              	.LVL33:
 353              	@ 196 "../../../ChibiOS/os/hal/src/gpt.c" 1
 354 0012 83F31188 		msr     BASEPRI, r3
 355              	@ 0 "" 2
 356              	.LVL34:
 357              		.thumb
 358              	.LBE29:
 359              		.loc 1 197 0
 360 0016 08BD     		pop	{r3, pc}
 361              		.cfi_endproc
 362              	.LFE125:
 363              		.size	gptStartOneShot, .-gptStartOneShot
 364 0018 AFF30080 		.section	.text.gptStartOneShotI,"ax",%progbits
 364      AFF30080 
 365              		.align	2
 366              		.p2align 4,,15
 367              		.global	gptStartOneShotI
 368              		.thumb
 369              		.thumb_func
 370              		.type	gptStartOneShotI, %function
 371              	gptStartOneShotI:
 372              	.LFB126:
 373              		.loc 1 207 0
 374              		.cfi_startproc
 375              		@ args = 0, pretend = 0, frame = 0
 376              		@ frame_needed = 0, uses_anonymous_args = 0
 377              		@ link register save eliminated.
 378              	.LVL35:
 379              		.loc 1 214 0
 380 0000 0423     		movs	r3, #4
 381 0002 0370     		strb	r3, [r0, #0]
 382              		.loc 1 216 0
 383              		.loc 1 215 0
 384 0004 FFF7FEBF 		b	gpt_lld_start_timer
 385              		.cfi_endproc
 386              	.LFE126:
ARM GAS  C:\Users\DNIEL~1\AppData\Local\Temp\cc8OU5M1.s 			page 8


 387              		.size	gptStartOneShotI, .-gptStartOneShotI
 388 0008 AFF30080 		.section	.text.gptStopTimer,"ax",%progbits
 388      AFF30080 
 389              		.align	2
 390              		.p2align 4,,15
 391              		.global	gptStopTimer
 392              		.thumb
 393              		.thumb_func
 394              		.type	gptStopTimer, %function
 395              	gptStopTimer:
 396              	.LFB127:
 397              		.loc 1 225 0
 398              		.cfi_startproc
 399              		@ args = 0, pretend = 0, frame = 0
 400              		@ frame_needed = 0, uses_anonymous_args = 0
 401              	.LVL36:
 402 0000 08B5     		push	{r3, lr}
 403              	.LCFI4:
 404              		.cfi_def_cfa_offset 8
 405              	.LBB30:
 406              		.loc 1 227 0
 407 0002 2023     		movs	r3, #32
 408              		.cfi_offset 14, -4
 409              		.cfi_offset 3, -8
 410              	.LVL37:
 411              	@ 227 "../../../ChibiOS/os/hal/src/gpt.c" 1
 412 0004 83F31188 		msr     BASEPRI, r3
 413              	@ 0 "" 2
 414              	.LVL38:
 415              		.thumb
 416              	.LBE30:
 417              	.LBB31:
 418              	.LBB32:
 419              		.loc 1 247 0
 420 0008 0223     		movs	r3, #2
 421              	.LVL39:
 422 000a 0370     		strb	r3, [r0, #0]
 423              		.loc 1 248 0
 424 000c FFF7FEFF 		bl	gpt_lld_stop_timer
 425              	.LVL40:
 426              	.LBE32:
 427              	.LBE31:
 428              	.LBB33:
 429              		.loc 1 229 0
 430 0010 0023     		movs	r3, #0
 431              	.LVL41:
 432              	@ 229 "../../../ChibiOS/os/hal/src/gpt.c" 1
 433 0012 83F31188 		msr     BASEPRI, r3
 434              	@ 0 "" 2
 435              	.LVL42:
 436              		.thumb
 437              	.LBE33:
 438              		.loc 1 230 0
 439 0016 08BD     		pop	{r3, pc}
 440              		.cfi_endproc
 441              	.LFE127:
 442              		.size	gptStopTimer, .-gptStopTimer
ARM GAS  C:\Users\DNIEL~1\AppData\Local\Temp\cc8OU5M1.s 			page 9


 443 0018 AFF30080 		.section	.text.gptStopTimerI,"ax",%progbits
 443      AFF30080 
 444              		.align	2
 445              		.p2align 4,,15
 446              		.global	gptStopTimerI
 447              		.thumb
 448              		.thumb_func
 449              		.type	gptStopTimerI, %function
 450              	gptStopTimerI:
 451              	.LFB128:
 452              		.loc 1 239 0
 453              		.cfi_startproc
 454              		@ args = 0, pretend = 0, frame = 0
 455              		@ frame_needed = 0, uses_anonymous_args = 0
 456              		@ link register save eliminated.
 457              	.LVL43:
 458              		.loc 1 247 0
 459 0000 0223     		movs	r3, #2
 460 0002 0370     		strb	r3, [r0, #0]
 461              		.loc 1 249 0
 462              		.loc 1 248 0
 463 0004 FFF7FEBF 		b	gpt_lld_stop_timer
 464              		.cfi_endproc
 465              	.LFE128:
 466              		.size	gptStopTimerI, .-gptStopTimerI
 467 0008 AFF30080 		.section	.text.gptPolledDelay,"ax",%progbits
 467      AFF30080 
 468              		.align	2
 469              		.p2align 4,,15
 470              		.global	gptPolledDelay
 471              		.thumb
 472              		.thumb_func
 473              		.type	gptPolledDelay, %function
 474              	gptPolledDelay:
 475              	.LFB129:
 476              		.loc 1 263 0
 477              		.cfi_startproc
 478              		@ args = 0, pretend = 0, frame = 0
 479              		@ frame_needed = 0, uses_anonymous_args = 0
 480              	.LVL44:
 481              		.loc 1 268 0
 482 0000 0422     		movs	r2, #4
 483              		.loc 1 263 0
 484 0002 10B5     		push	{r4, lr}
 485              	.LCFI5:
 486              		.cfi_def_cfa_offset 8
 487              		.loc 1 268 0
 488 0004 0270     		strb	r2, [r0, #0]
 489              		.loc 1 263 0
 490 0006 0446     		mov	r4, r0
 491              		.cfi_offset 14, -4
 492              		.cfi_offset 4, -8
 493              		.loc 1 269 0
 494 0008 FFF7FEFF 		bl	gpt_lld_polled_delay
 495              	.LVL45:
 496              		.loc 1 270 0
 497 000c 0223     		movs	r3, #2
ARM GAS  C:\Users\DNIEL~1\AppData\Local\Temp\cc8OU5M1.s 			page 10


 498 000e 2370     		strb	r3, [r4, #0]
 499              		.loc 1 271 0
 500 0010 10BD     		pop	{r4, pc}
 501              		.cfi_endproc
 502              	.LFE129:
 503              		.size	gptPolledDelay, .-gptPolledDelay
 504 0012 00BFAFF3 		.text
 504      0080AFF3 
 504      0080AFF3 
 504      0080
 505              	.Letext0:
 506              		.section	.debug_loc,"",%progbits
 507              	.Ldebug_loc0:
 508              	.LLST0:
 509 0000 00000000 		.4byte	.LFB120
 510 0004 02000000 		.4byte	.LCFI0
 511 0008 0200     		.2byte	0x2
 512 000a 7D       		.byte	0x7d
 513 000b 00       		.sleb128 0
 514 000c 02000000 		.4byte	.LCFI0
 515 0010 1C000000 		.4byte	.LFE120
 516 0014 0200     		.2byte	0x2
 517 0016 7D       		.byte	0x7d
 518 0017 08       		.sleb128 8
 519 0018 00000000 		.4byte	0x0
 520 001c 00000000 		.4byte	0x0
 521              	.LLST1:
 522 0020 00000000 		.4byte	.LVL1
 523 0024 0F000000 		.4byte	.LVL4-1
 524 0028 0100     		.2byte	0x1
 525 002a 50       		.byte	0x50
 526 002b 0F000000 		.4byte	.LVL4-1
 527 002f 1C000000 		.4byte	.LFE120
 528 0033 0100     		.2byte	0x1
 529 0035 54       		.byte	0x54
 530 0036 00000000 		.4byte	0x0
 531 003a 00000000 		.4byte	0x0
 532              	.LLST2:
 533 003e 00000000 		.4byte	.LVL1
 534 0042 0F000000 		.4byte	.LVL4-1
 535 0046 0100     		.2byte	0x1
 536 0048 51       		.byte	0x51
 537 0049 00000000 		.4byte	0x0
 538 004d 00000000 		.4byte	0x0
 539              	.LLST3:
 540 0051 0A000000 		.4byte	.LVL3
 541 0055 0F000000 		.4byte	.LVL4-1
 542 0059 0100     		.2byte	0x1
 543 005b 53       		.byte	0x53
 544 005c 00000000 		.4byte	0x0
 545 0060 00000000 		.4byte	0x0
 546              	.LLST4:
 547 0064 1A000000 		.4byte	.LVL6
 548 0068 1C000000 		.4byte	.LFE120
 549 006c 0100     		.2byte	0x1
 550 006e 53       		.byte	0x53
 551 006f 00000000 		.4byte	0x0
ARM GAS  C:\Users\DNIEL~1\AppData\Local\Temp\cc8OU5M1.s 			page 11


 552 0073 00000000 		.4byte	0x0
 553              	.LLST5:
 554 0077 00000000 		.4byte	.LFB121
 555 007b 02000000 		.4byte	.LCFI1
 556 007f 0200     		.2byte	0x2
 557 0081 7D       		.byte	0x7d
 558 0082 00       		.sleb128 0
 559 0083 02000000 		.4byte	.LCFI1
 560 0087 1A000000 		.4byte	.LFE121
 561 008b 0200     		.2byte	0x2
 562 008d 7D       		.byte	0x7d
 563 008e 08       		.sleb128 8
 564 008f 00000000 		.4byte	0x0
 565 0093 00000000 		.4byte	0x0
 566              	.LLST6:
 567 0097 00000000 		.4byte	.LVL7
 568 009b 0D000000 		.4byte	.LVL10-1
 569 009f 0100     		.2byte	0x1
 570 00a1 50       		.byte	0x50
 571 00a2 0D000000 		.4byte	.LVL10-1
 572 00a6 1A000000 		.4byte	.LFE121
 573 00aa 0100     		.2byte	0x1
 574 00ac 54       		.byte	0x54
 575 00ad 00000000 		.4byte	0x0
 576 00b1 00000000 		.4byte	0x0
 577              	.LLST7:
 578 00b5 0A000000 		.4byte	.LVL9
 579 00b9 0D000000 		.4byte	.LVL10-1
 580 00bd 0100     		.2byte	0x1
 581 00bf 53       		.byte	0x53
 582 00c0 00000000 		.4byte	0x0
 583 00c4 00000000 		.4byte	0x0
 584              	.LLST8:
 585 00c8 18000000 		.4byte	.LVL12
 586 00cc 1A000000 		.4byte	.LFE121
 587 00d0 0100     		.2byte	0x1
 588 00d2 53       		.byte	0x53
 589 00d3 00000000 		.4byte	0x0
 590 00d7 00000000 		.4byte	0x0
 591              	.LLST9:
 592 00db 00000000 		.4byte	.LVL13
 593 00df 0A000000 		.4byte	.LVL17
 594 00e3 0100     		.2byte	0x1
 595 00e5 51       		.byte	0x51
 596 00e6 0A000000 		.4byte	.LVL17
 597 00ea 14000000 		.4byte	.LFE122
 598 00ee 0300     		.2byte	0x3
 599 00f0 71       		.byte	0x71
 600 00f1 01       		.sleb128 1
 601 00f2 9F       		.byte	0x9f
 602 00f3 00000000 		.4byte	0x0
 603 00f7 00000000 		.4byte	0x0
 604              	.LLST10:
 605 00fb 06000000 		.4byte	.LVL15
 606 00ff 08000000 		.4byte	.LVL16
 607 0103 0100     		.2byte	0x1
 608 0105 53       		.byte	0x53
ARM GAS  C:\Users\DNIEL~1\AppData\Local\Temp\cc8OU5M1.s 			page 12


 609 0106 00000000 		.4byte	0x0
 610 010a 00000000 		.4byte	0x0
 611              	.LLST11:
 612 010e 12000000 		.4byte	.LVL19
 613 0112 14000000 		.4byte	.LFE122
 614 0116 0100     		.2byte	0x1
 615 0118 53       		.byte	0x53
 616 0119 00000000 		.4byte	0x0
 617 011d 00000000 		.4byte	0x0
 618              	.LLST12:
 619 0121 00000000 		.4byte	.LFB123
 620 0125 02000000 		.4byte	.LCFI2
 621 0129 0200     		.2byte	0x2
 622 012b 7D       		.byte	0x7d
 623 012c 00       		.sleb128 0
 624 012d 02000000 		.4byte	.LCFI2
 625 0131 18000000 		.4byte	.LFE123
 626 0135 0200     		.2byte	0x2
 627 0137 7D       		.byte	0x7d
 628 0138 08       		.sleb128 8
 629 0139 00000000 		.4byte	0x0
 630 013d 00000000 		.4byte	0x0
 631              	.LLST13:
 632 0141 00000000 		.4byte	.LVL20
 633 0145 0F000000 		.4byte	.LVL24-1
 634 0149 0100     		.2byte	0x1
 635 014b 50       		.byte	0x50
 636 014c 00000000 		.4byte	0x0
 637 0150 00000000 		.4byte	0x0
 638              	.LLST14:
 639 0154 00000000 		.4byte	.LVL20
 640 0158 0F000000 		.4byte	.LVL24-1
 641 015c 0100     		.2byte	0x1
 642 015e 51       		.byte	0x51
 643 015f 00000000 		.4byte	0x0
 644 0163 00000000 		.4byte	0x0
 645              	.LLST15:
 646 0167 08000000 		.4byte	.LVL22
 647 016b 0A000000 		.4byte	.LVL23
 648 016f 0100     		.2byte	0x1
 649 0171 53       		.byte	0x53
 650 0172 00000000 		.4byte	0x0
 651 0176 00000000 		.4byte	0x0
 652              	.LLST16:
 653 017a 16000000 		.4byte	.LVL26
 654 017e 18000000 		.4byte	.LFE123
 655 0182 0100     		.2byte	0x1
 656 0184 53       		.byte	0x53
 657 0185 00000000 		.4byte	0x0
 658 0189 00000000 		.4byte	0x0
 659              	.LLST17:
 660 018d 00000000 		.4byte	.LFB125
 661 0191 02000000 		.4byte	.LCFI3
 662 0195 0200     		.2byte	0x2
 663 0197 7D       		.byte	0x7d
 664 0198 00       		.sleb128 0
 665 0199 02000000 		.4byte	.LCFI3
ARM GAS  C:\Users\DNIEL~1\AppData\Local\Temp\cc8OU5M1.s 			page 13


 666 019d 18000000 		.4byte	.LFE125
 667 01a1 0200     		.2byte	0x2
 668 01a3 7D       		.byte	0x7d
 669 01a4 08       		.sleb128 8
 670 01a5 00000000 		.4byte	0x0
 671 01a9 00000000 		.4byte	0x0
 672              	.LLST18:
 673 01ad 00000000 		.4byte	.LVL28
 674 01b1 0F000000 		.4byte	.LVL32-1
 675 01b5 0100     		.2byte	0x1
 676 01b7 50       		.byte	0x50
 677 01b8 00000000 		.4byte	0x0
 678 01bc 00000000 		.4byte	0x0
 679              	.LLST19:
 680 01c0 00000000 		.4byte	.LVL28
 681 01c4 0F000000 		.4byte	.LVL32-1
 682 01c8 0100     		.2byte	0x1
 683 01ca 51       		.byte	0x51
 684 01cb 00000000 		.4byte	0x0
 685 01cf 00000000 		.4byte	0x0
 686              	.LLST20:
 687 01d3 08000000 		.4byte	.LVL30
 688 01d7 0A000000 		.4byte	.LVL31
 689 01db 0100     		.2byte	0x1
 690 01dd 53       		.byte	0x53
 691 01de 00000000 		.4byte	0x0
 692 01e2 00000000 		.4byte	0x0
 693              	.LLST21:
 694 01e6 16000000 		.4byte	.LVL34
 695 01ea 18000000 		.4byte	.LFE125
 696 01ee 0100     		.2byte	0x1
 697 01f0 53       		.byte	0x53
 698 01f1 00000000 		.4byte	0x0
 699 01f5 00000000 		.4byte	0x0
 700              	.LLST22:
 701 01f9 00000000 		.4byte	.LFB127
 702 01fd 02000000 		.4byte	.LCFI4
 703 0201 0200     		.2byte	0x2
 704 0203 7D       		.byte	0x7d
 705 0204 00       		.sleb128 0
 706 0205 02000000 		.4byte	.LCFI4
 707 0209 18000000 		.4byte	.LFE127
 708 020d 0200     		.2byte	0x2
 709 020f 7D       		.byte	0x7d
 710 0210 08       		.sleb128 8
 711 0211 00000000 		.4byte	0x0
 712 0215 00000000 		.4byte	0x0
 713              	.LLST23:
 714 0219 00000000 		.4byte	.LVL36
 715 021d 0F000000 		.4byte	.LVL40-1
 716 0221 0100     		.2byte	0x1
 717 0223 50       		.byte	0x50
 718 0224 00000000 		.4byte	0x0
 719 0228 00000000 		.4byte	0x0
 720              	.LLST24:
 721 022c 08000000 		.4byte	.LVL38
 722 0230 0A000000 		.4byte	.LVL39
ARM GAS  C:\Users\DNIEL~1\AppData\Local\Temp\cc8OU5M1.s 			page 14


 723 0234 0100     		.2byte	0x1
 724 0236 53       		.byte	0x53
 725 0237 00000000 		.4byte	0x0
 726 023b 00000000 		.4byte	0x0
 727              	.LLST25:
 728 023f 16000000 		.4byte	.LVL42
 729 0243 18000000 		.4byte	.LFE127
 730 0247 0100     		.2byte	0x1
 731 0249 53       		.byte	0x53
 732 024a 00000000 		.4byte	0x0
 733 024e 00000000 		.4byte	0x0
 734              	.LLST26:
 735 0252 00000000 		.4byte	.LFB129
 736 0256 04000000 		.4byte	.LCFI5
 737 025a 0200     		.2byte	0x2
 738 025c 7D       		.byte	0x7d
 739 025d 00       		.sleb128 0
 740 025e 04000000 		.4byte	.LCFI5
 741 0262 12000000 		.4byte	.LFE129
 742 0266 0200     		.2byte	0x2
 743 0268 7D       		.byte	0x7d
 744 0269 08       		.sleb128 8
 745 026a 00000000 		.4byte	0x0
 746 026e 00000000 		.4byte	0x0
 747              	.LLST27:
 748 0272 00000000 		.4byte	.LVL44
 749 0276 0B000000 		.4byte	.LVL45-1
 750 027a 0100     		.2byte	0x1
 751 027c 50       		.byte	0x50
 752 027d 0B000000 		.4byte	.LVL45-1
 753 0281 12000000 		.4byte	.LFE129
 754 0285 0100     		.2byte	0x1
 755 0287 54       		.byte	0x54
 756 0288 00000000 		.4byte	0x0
 757 028c 00000000 		.4byte	0x0
 758              	.LLST28:
 759 0290 00000000 		.4byte	.LVL44
 760 0294 0B000000 		.4byte	.LVL45-1
 761 0298 0100     		.2byte	0x1
 762 029a 51       		.byte	0x51
 763 029b 00000000 		.4byte	0x0
 764 029f 00000000 		.4byte	0x0
 765              		.file 2 "c:\\program files (x86)\\codesourcery\\sourcery g++ lite\\bin\\../lib/gcc/arm-none-eabi/4
 766              		.file 3 "../../../ChibiOS/os/hal/include/gpt.h"
 767              		.file 4 "../../../ChibiOS/os/hal/platforms/STM32/TIMv1/gpt_lld.h"
 768              		.file 5 "../../../ChibiOS/os/hal/platforms/STM32/TIMv1/stm32_tim.h"
 769              		.file 6 "../../../ChibiOS/os/ports/common/ARMCMx/CMSIS/include/core_cm4.h"
 770              		.section	.debug_info
 771 0000 2B070000 		.4byte	0x72b
 772 0004 0200     		.2byte	0x2
 773 0006 00000000 		.4byte	.Ldebug_abbrev0
 774 000a 04       		.byte	0x4
 775 000b 01       		.uleb128 0x1
 776 000c F4010000 		.4byte	.LASF55
 777 0010 01       		.byte	0x1
 778 0011 4A020000 		.4byte	.LASF56
 779 0015 5A000000 		.4byte	.LASF57
ARM GAS  C:\Users\DNIEL~1\AppData\Local\Temp\cc8OU5M1.s 			page 15


 780 0019 00000000 		.4byte	0x0
 781 001d 00000000 		.4byte	0x0
 782 0021 30000000 		.4byte	.Ldebug_ranges0+0x30
 783 0025 00000000 		.4byte	.Ldebug_line0
 784 0029 02       		.uleb128 0x2
 785 002a 04       		.byte	0x4
 786 002b 05       		.byte	0x5
 787 002c 696E7400 		.ascii	"int\000"
 788 0030 03       		.uleb128 0x3
 789 0031 04       		.byte	0x4
 790 0032 07       		.byte	0x7
 791 0033 67010000 		.4byte	.LASF0
 792 0037 03       		.uleb128 0x3
 793 0038 01       		.byte	0x1
 794 0039 06       		.byte	0x6
 795 003a 3B010000 		.4byte	.LASF1
 796 003e 03       		.uleb128 0x3
 797 003f 01       		.byte	0x1
 798 0040 08       		.byte	0x8
 799 0041 0D010000 		.4byte	.LASF2
 800 0045 03       		.uleb128 0x3
 801 0046 02       		.byte	0x2
 802 0047 05       		.byte	0x5
 803 0048 27000000 		.4byte	.LASF3
 804 004c 03       		.uleb128 0x3
 805 004d 02       		.byte	0x2
 806 004e 07       		.byte	0x7
 807 004f 79010000 		.4byte	.LASF4
 808 0053 04       		.uleb128 0x4
 809 0054 A2010000 		.4byte	.LASF6
 810 0058 02       		.byte	0x2
 811 0059 4F       		.byte	0x4f
 812 005a 5E000000 		.4byte	0x5e
 813 005e 03       		.uleb128 0x3
 814 005f 04       		.byte	0x4
 815 0060 05       		.byte	0x5
 816 0061 EB000000 		.4byte	.LASF5
 817 0065 04       		.uleb128 0x4
 818 0066 5E010000 		.4byte	.LASF7
 819 006a 02       		.byte	0x2
 820 006b 50       		.byte	0x50
 821 006c 70000000 		.4byte	0x70
 822 0070 03       		.uleb128 0x3
 823 0071 04       		.byte	0x4
 824 0072 07       		.byte	0x7
 825 0073 D3010000 		.4byte	.LASF8
 826 0077 03       		.uleb128 0x3
 827 0078 08       		.byte	0x8
 828 0079 05       		.byte	0x5
 829 007a B9000000 		.4byte	.LASF9
 830 007e 03       		.uleb128 0x3
 831 007f 08       		.byte	0x8
 832 0080 07       		.byte	0x7
 833 0081 47010000 		.4byte	.LASF10
 834 0085 03       		.uleb128 0x3
 835 0086 01       		.byte	0x1
 836 0087 02       		.byte	0x2
ARM GAS  C:\Users\DNIEL~1\AppData\Local\Temp\cc8OU5M1.s 			page 16


 837 0088 AA010000 		.4byte	.LASF11
 838 008c 05       		.uleb128 0x5
 839 008d 65000000 		.4byte	0x65
 840 0091 03       		.uleb128 0x3
 841 0092 01       		.byte	0x1
 842 0093 08       		.byte	0x8
 843 0094 8C010000 		.4byte	.LASF12
 844 0098 06       		.uleb128 0x6
 845 0099 65000000 		.4byte	0x65
 846 009d A8000000 		.4byte	0xa8
 847 00a1 07       		.uleb128 0x7
 848 00a2 30000000 		.4byte	0x30
 849 00a6 03       		.byte	0x3
 850 00a7 00       		.byte	0x0
 851 00a8 05       		.uleb128 0x5
 852 00a9 53000000 		.4byte	0x53
 853 00ad 08       		.uleb128 0x8
 854 00ae 01       		.byte	0x1
 855 00af 03       		.byte	0x3
 856 00b0 3C       		.byte	0x3c
 857 00b1 D4000000 		.4byte	0xd4
 858 00b5 09       		.uleb128 0x9
 859 00b6 05000000 		.4byte	.LASF13
 860 00ba 00       		.sleb128 0
 861 00bb 09       		.uleb128 0x9
 862 00bc 0F020000 		.4byte	.LASF14
 863 00c0 01       		.sleb128 1
 864 00c1 09       		.uleb128 0x9
 865 00c2 BF010000 		.4byte	.LASF15
 866 00c6 02       		.sleb128 2
 867 00c7 09       		.uleb128 0x9
 868 00c8 B0010000 		.4byte	.LASF16
 869 00cc 03       		.sleb128 3
 870 00cd 09       		.uleb128 0x9
 871 00ce A2000000 		.4byte	.LASF17
 872 00d2 04       		.sleb128 4
 873 00d3 00       		.byte	0x0
 874 00d4 04       		.uleb128 0x4
 875 00d5 AE000000 		.4byte	.LASF18
 876 00d9 03       		.byte	0x3
 877 00da 42       		.byte	0x42
 878 00db AD000000 		.4byte	0xad
 879 00df 04       		.uleb128 0x4
 880 00e0 C9010000 		.4byte	.LASF19
 881 00e4 03       		.byte	0x3
 882 00e5 47       		.byte	0x47
 883 00e6 EA000000 		.4byte	0xea
 884 00ea 0A       		.uleb128 0xa
 885 00eb C9010000 		.4byte	.LASF19
 886 00ef 10       		.byte	0x10
 887 00f0 04       		.byte	0x4
 888 00f1 9001     		.2byte	0x190
 889 00f3 34010000 		.4byte	0x134
 890 00f7 0B       		.uleb128 0xb
 891 00f8 15000000 		.4byte	.LASF20
 892 00fc 04       		.byte	0x4
 893 00fd 9401     		.2byte	0x194
ARM GAS  C:\Users\DNIEL~1\AppData\Local\Temp\cc8OU5M1.s 			page 17


 894 00ff D4000000 		.4byte	0xd4
 895 0103 02       		.byte	0x2
 896 0104 23       		.byte	0x23
 897 0105 00       		.uleb128 0x0
 898 0106 0B       		.uleb128 0xb
 899 0107 9B000000 		.4byte	.LASF21
 900 010b 04       		.byte	0x4
 901 010c 9801     		.2byte	0x198
 902 010e 06030000 		.4byte	0x306
 903 0112 02       		.byte	0x2
 904 0113 23       		.byte	0x23
 905 0114 04       		.uleb128 0x4
 906 0115 0B       		.uleb128 0xb
 907 0116 E5010000 		.4byte	.LASF22
 908 011a 04       		.byte	0x4
 909 011b A001     		.2byte	0x1a0
 910 011d 65000000 		.4byte	0x65
 911 0121 02       		.byte	0x2
 912 0122 23       		.byte	0x23
 913 0123 08       		.uleb128 0x8
 914 0124 0C       		.uleb128 0xc
 915 0125 74696D00 		.ascii	"tim\000"
 916 0129 04       		.byte	0x4
 917 012a A401     		.2byte	0x1a4
 918 012c 11030000 		.4byte	0x311
 919 0130 02       		.byte	0x2
 920 0131 23       		.byte	0x23
 921 0132 0C       		.uleb128 0xc
 922 0133 00       		.byte	0x0
 923 0134 04       		.uleb128 0x4
 924 0135 43000000 		.4byte	.LASF23
 925 0139 03       		.byte	0x3
 926 013a 4E       		.byte	0x4e
 927 013b 3F010000 		.4byte	0x13f
 928 013f 0D       		.uleb128 0xd
 929 0140 04       		.byte	0x4
 930 0141 45010000 		.4byte	0x145
 931 0145 0E       		.uleb128 0xe
 932 0146 01       		.byte	0x1
 933 0147 51010000 		.4byte	0x151
 934 014b 0F       		.uleb128 0xf
 935 014c 51010000 		.4byte	0x151
 936 0150 00       		.byte	0x0
 937 0151 0D       		.uleb128 0xd
 938 0152 04       		.byte	0x4
 939 0153 DF000000 		.4byte	0xdf
 940 0157 10       		.uleb128 0x10
 941 0158 60       		.byte	0x60
 942 0159 05       		.byte	0x5
 943 015a 9E01     		.2byte	0x19e
 944 015c 9A020000 		.4byte	0x29a
 945 0160 0C       		.uleb128 0xc
 946 0161 43523100 		.ascii	"CR1\000"
 947 0165 05       		.byte	0x5
 948 0166 9F01     		.2byte	0x19f
 949 0168 8C000000 		.4byte	0x8c
 950 016c 02       		.byte	0x2
ARM GAS  C:\Users\DNIEL~1\AppData\Local\Temp\cc8OU5M1.s 			page 18


 951 016d 23       		.byte	0x23
 952 016e 00       		.uleb128 0x0
 953 016f 0C       		.uleb128 0xc
 954 0170 43523200 		.ascii	"CR2\000"
 955 0174 05       		.byte	0x5
 956 0175 A001     		.2byte	0x1a0
 957 0177 8C000000 		.4byte	0x8c
 958 017b 02       		.byte	0x2
 959 017c 23       		.byte	0x23
 960 017d 04       		.uleb128 0x4
 961 017e 0B       		.uleb128 0xb
 962 017f 08010000 		.4byte	.LASF24
 963 0183 05       		.byte	0x5
 964 0184 A101     		.2byte	0x1a1
 965 0186 8C000000 		.4byte	0x8c
 966 018a 02       		.byte	0x2
 967 018b 23       		.byte	0x23
 968 018c 08       		.uleb128 0x8
 969 018d 0B       		.uleb128 0xb
 970 018e 74010000 		.4byte	.LASF25
 971 0192 05       		.byte	0x5
 972 0193 A201     		.2byte	0x1a2
 973 0195 8C000000 		.4byte	0x8c
 974 0199 02       		.byte	0x2
 975 019a 23       		.byte	0x23
 976 019b 0C       		.uleb128 0xc
 977 019c 0C       		.uleb128 0xc
 978 019d 535200   		.ascii	"SR\000"
 979 01a0 05       		.byte	0x5
 980 01a1 A301     		.2byte	0x1a3
 981 01a3 8C000000 		.4byte	0x8c
 982 01a7 02       		.byte	0x2
 983 01a8 23       		.byte	0x23
 984 01a9 10       		.uleb128 0x10
 985 01aa 0C       		.uleb128 0xc
 986 01ab 45475200 		.ascii	"EGR\000"
 987 01af 05       		.byte	0x5
 988 01b0 A401     		.2byte	0x1a4
 989 01b2 8C000000 		.4byte	0x8c
 990 01b6 02       		.byte	0x2
 991 01b7 23       		.byte	0x23
 992 01b8 14       		.uleb128 0x14
 993 01b9 0B       		.uleb128 0xb
 994 01ba 02010000 		.4byte	.LASF26
 995 01be 05       		.byte	0x5
 996 01bf A501     		.2byte	0x1a5
 997 01c1 8C000000 		.4byte	0x8c
 998 01c5 02       		.byte	0x2
 999 01c6 23       		.byte	0x23
 1000 01c7 18       		.uleb128 0x18
 1001 01c8 0B       		.uleb128 0xb
 1002 01c9 1B000000 		.4byte	.LASF27
 1003 01cd 05       		.byte	0x5
 1004 01ce A601     		.2byte	0x1a6
 1005 01d0 8C000000 		.4byte	0x8c
 1006 01d4 02       		.byte	0x2
 1007 01d5 23       		.byte	0x23
ARM GAS  C:\Users\DNIEL~1\AppData\Local\Temp\cc8OU5M1.s 			page 19


 1008 01d6 1C       		.uleb128 0x1c
 1009 01d7 0B       		.uleb128 0xb
 1010 01d8 00000000 		.4byte	.LASF28
 1011 01dc 05       		.byte	0x5
 1012 01dd A701     		.2byte	0x1a7
 1013 01df 8C000000 		.4byte	0x8c
 1014 01e3 02       		.byte	0x2
 1015 01e4 23       		.byte	0x23
 1016 01e5 20       		.uleb128 0x20
 1017 01e6 0C       		.uleb128 0xc
 1018 01e7 434E5400 		.ascii	"CNT\000"
 1019 01eb 05       		.byte	0x5
 1020 01ec A801     		.2byte	0x1a8
 1021 01ee 8C000000 		.4byte	0x8c
 1022 01f2 02       		.byte	0x2
 1023 01f3 23       		.byte	0x23
 1024 01f4 24       		.uleb128 0x24
 1025 01f5 0C       		.uleb128 0xc
 1026 01f6 50534300 		.ascii	"PSC\000"
 1027 01fa 05       		.byte	0x5
 1028 01fb A901     		.2byte	0x1a9
 1029 01fd 8C000000 		.4byte	0x8c
 1030 0201 02       		.byte	0x2
 1031 0202 23       		.byte	0x23
 1032 0203 28       		.uleb128 0x28
 1033 0204 0C       		.uleb128 0xc
 1034 0205 41525200 		.ascii	"ARR\000"
 1035 0209 05       		.byte	0x5
 1036 020a AA01     		.2byte	0x1aa
 1037 020c 8C000000 		.4byte	0x8c
 1038 0210 02       		.byte	0x2
 1039 0211 23       		.byte	0x23
 1040 0212 2C       		.uleb128 0x2c
 1041 0213 0C       		.uleb128 0xc
 1042 0214 52435200 		.ascii	"RCR\000"
 1043 0218 05       		.byte	0x5
 1044 0219 AB01     		.2byte	0x1ab
 1045 021b 8C000000 		.4byte	0x8c
 1046 021f 02       		.byte	0x2
 1047 0220 23       		.byte	0x23
 1048 0221 30       		.uleb128 0x30
 1049 0222 0C       		.uleb128 0xc
 1050 0223 43435200 		.ascii	"CCR\000"
 1051 0227 05       		.byte	0x5
 1052 0228 AC01     		.2byte	0x1ac
 1053 022a 9A020000 		.4byte	0x29a
 1054 022e 02       		.byte	0x2
 1055 022f 23       		.byte	0x23
 1056 0230 34       		.uleb128 0x34
 1057 0231 0B       		.uleb128 0xb
 1058 0232 9D010000 		.4byte	.LASF29
 1059 0236 05       		.byte	0x5
 1060 0237 AD01     		.2byte	0x1ad
 1061 0239 8C000000 		.4byte	0x8c
 1062 023d 02       		.byte	0x2
 1063 023e 23       		.byte	0x23
 1064 023f 44       		.uleb128 0x44
ARM GAS  C:\Users\DNIEL~1\AppData\Local\Temp\cc8OU5M1.s 			page 20


 1065 0240 0C       		.uleb128 0xc
 1066 0241 44435200 		.ascii	"DCR\000"
 1067 0245 05       		.byte	0x5
 1068 0246 AE01     		.2byte	0x1ae
 1069 0248 8C000000 		.4byte	0x8c
 1070 024c 02       		.byte	0x2
 1071 024d 23       		.byte	0x23
 1072 024e 48       		.uleb128 0x48
 1073 024f 0B       		.uleb128 0xb
 1074 0250 10000000 		.4byte	.LASF30
 1075 0254 05       		.byte	0x5
 1076 0255 AF01     		.2byte	0x1af
 1077 0257 8C000000 		.4byte	0x8c
 1078 025b 02       		.byte	0x2
 1079 025c 23       		.byte	0x23
 1080 025d 4C       		.uleb128 0x4c
 1081 025e 0C       		.uleb128 0xc
 1082 025f 4F5200   		.ascii	"OR\000"
 1083 0262 05       		.byte	0x5
 1084 0263 B001     		.2byte	0x1b0
 1085 0265 8C000000 		.4byte	0x8c
 1086 0269 02       		.byte	0x2
 1087 026a 23       		.byte	0x23
 1088 026b 50       		.uleb128 0x50
 1089 026c 0B       		.uleb128 0xb
 1090 026d 21000000 		.4byte	.LASF31
 1091 0271 05       		.byte	0x5
 1092 0272 B101     		.2byte	0x1b1
 1093 0274 8C000000 		.4byte	0x8c
 1094 0278 02       		.byte	0x2
 1095 0279 23       		.byte	0x23
 1096 027a 54       		.uleb128 0x54
 1097 027b 0B       		.uleb128 0xb
 1098 027c 23010000 		.4byte	.LASF32
 1099 0280 05       		.byte	0x5
 1100 0281 B201     		.2byte	0x1b2
 1101 0283 8C000000 		.4byte	0x8c
 1102 0287 02       		.byte	0x2
 1103 0288 23       		.byte	0x23
 1104 0289 58       		.uleb128 0x58
 1105 028a 0B       		.uleb128 0xb
 1106 028b FD000000 		.4byte	.LASF33
 1107 028f 05       		.byte	0x5
 1108 0290 B301     		.2byte	0x1b3
 1109 0292 8C000000 		.4byte	0x8c
 1110 0296 02       		.byte	0x2
 1111 0297 23       		.byte	0x23
 1112 0298 5C       		.uleb128 0x5c
 1113 0299 00       		.byte	0x0
 1114 029a 05       		.uleb128 0x5
 1115 029b 98000000 		.4byte	0x98
 1116 029f 11       		.uleb128 0x11
 1117 02a0 91010000 		.4byte	.LASF34
 1118 02a4 05       		.byte	0x5
 1119 02a5 B401     		.2byte	0x1b4
 1120 02a7 57010000 		.4byte	0x157
 1121 02ab 11       		.uleb128 0x11
ARM GAS  C:\Users\DNIEL~1\AppData\Local\Temp\cc8OU5M1.s 			page 21


 1122 02ac 91020000 		.4byte	.LASF35
 1123 02b0 04       		.byte	0x4
 1124 02b1 6D01     		.2byte	0x16d
 1125 02b3 65000000 		.4byte	0x65
 1126 02b7 11       		.uleb128 0x11
 1127 02b8 51000000 		.4byte	.LASF36
 1128 02bc 04       		.byte	0x4
 1129 02bd 7201     		.2byte	0x172
 1130 02bf 65000000 		.4byte	0x65
 1131 02c3 10       		.uleb128 0x10
 1132 02c4 0C       		.byte	0xc
 1133 02c5 04       		.byte	0x4
 1134 02c6 7801     		.2byte	0x178
 1135 02c8 FA020000 		.4byte	0x2fa
 1136 02cc 0B       		.uleb128 0xb
 1137 02cd 6C020000 		.4byte	.LASF37
 1138 02d1 04       		.byte	0x4
 1139 02d2 7E01     		.2byte	0x17e
 1140 02d4 AB020000 		.4byte	0x2ab
 1141 02d8 02       		.byte	0x2
 1142 02d9 23       		.byte	0x23
 1143 02da 00       		.uleb128 0x0
 1144 02db 0B       		.uleb128 0xb
 1145 02dc A3020000 		.4byte	.LASF38
 1146 02e0 04       		.byte	0x4
 1147 02e1 8301     		.2byte	0x183
 1148 02e3 34010000 		.4byte	0x134
 1149 02e7 02       		.byte	0x2
 1150 02e8 23       		.byte	0x23
 1151 02e9 04       		.uleb128 0x4
 1152 02ea 0B       		.uleb128 0xb
 1153 02eb 38020000 		.4byte	.LASF39
 1154 02ef 04       		.byte	0x4
 1155 02f0 8A01     		.2byte	0x18a
 1156 02f2 65000000 		.4byte	0x65
 1157 02f6 02       		.byte	0x2
 1158 02f7 23       		.byte	0x23
 1159 02f8 08       		.uleb128 0x8
 1160 02f9 00       		.byte	0x0
 1161 02fa 11       		.uleb128 0x11
 1162 02fb 1D020000 		.4byte	.LASF40
 1163 02ff 04       		.byte	0x4
 1164 0300 8B01     		.2byte	0x18b
 1165 0302 C3020000 		.4byte	0x2c3
 1166 0306 0D       		.uleb128 0xd
 1167 0307 04       		.byte	0x4
 1168 0308 0C030000 		.4byte	0x30c
 1169 030c 12       		.uleb128 0x12
 1170 030d FA020000 		.4byte	0x2fa
 1171 0311 0D       		.uleb128 0xd
 1172 0312 04       		.byte	0x4
 1173 0313 9F020000 		.4byte	0x29f
 1174 0317 13       		.uleb128 0x13
 1175 0318 01       		.byte	0x1
 1176 0319 D7000000 		.4byte	.LASF43
 1177 031d 01       		.byte	0x1
 1178 031e AD       		.byte	0xad
ARM GAS  C:\Users\DNIEL~1\AppData\Local\Temp\cc8OU5M1.s 			page 22


 1179 031f 01       		.byte	0x1
 1180 0320 01       		.byte	0x1
 1181 0321 3C030000 		.4byte	0x33c
 1182 0325 14       		.uleb128 0x14
 1183 0326 18020000 		.4byte	.LASF41
 1184 032a 01       		.byte	0x1
 1185 032b AD       		.byte	0xad
 1186 032c 51010000 		.4byte	0x151
 1187 0330 14       		.uleb128 0x14
 1188 0331 EB010000 		.4byte	.LASF42
 1189 0335 01       		.byte	0x1
 1190 0336 AD       		.byte	0xad
 1191 0337 B7020000 		.4byte	0x2b7
 1192 033b 00       		.byte	0x0
 1193 033c 13       		.uleb128 0x13
 1194 033d 01       		.byte	0x1
 1195 033e 27020000 		.4byte	.LASF44
 1196 0342 01       		.byte	0x1
 1197 0343 CF       		.byte	0xcf
 1198 0344 01       		.byte	0x1
 1199 0345 01       		.byte	0x1
 1200 0346 61030000 		.4byte	0x361
 1201 034a 14       		.uleb128 0x14
 1202 034b 18020000 		.4byte	.LASF41
 1203 034f 01       		.byte	0x1
 1204 0350 CF       		.byte	0xcf
 1205 0351 51010000 		.4byte	0x151
 1206 0355 14       		.uleb128 0x14
 1207 0356 EB010000 		.4byte	.LASF42
 1208 035a 01       		.byte	0x1
 1209 035b CF       		.byte	0xcf
 1210 035c B7020000 		.4byte	0x2b7
 1211 0360 00       		.byte	0x0
 1212 0361 13       		.uleb128 0x13
 1213 0362 01       		.byte	0x1
 1214 0363 8D000000 		.4byte	.LASF45
 1215 0367 01       		.byte	0x1
 1216 0368 EF       		.byte	0xef
 1217 0369 01       		.byte	0x1
 1218 036a 01       		.byte	0x1
 1219 036b 7B030000 		.4byte	0x37b
 1220 036f 14       		.uleb128 0x14
 1221 0370 18020000 		.4byte	.LASF41
 1222 0374 01       		.byte	0x1
 1223 0375 EF       		.byte	0xef
 1224 0376 51010000 		.4byte	0x151
 1225 037a 00       		.byte	0x0
 1226 037b 15       		.uleb128 0x15
 1227 037c 01       		.byte	0x1
 1228 037d 1B010000 		.4byte	.LASF58
 1229 0381 01       		.byte	0x1
 1230 0382 44       		.byte	0x44
 1231 0383 01       		.byte	0x1
 1232 0384 00000000 		.4byte	.LFB118
 1233 0388 04000000 		.4byte	.LFE118
 1234 038c 02       		.byte	0x2
 1235 038d 7D       		.byte	0x7d
ARM GAS  C:\Users\DNIEL~1\AppData\Local\Temp\cc8OU5M1.s 			page 23


 1236 038e 00       		.sleb128 0
 1237 038f 16       		.uleb128 0x16
 1238 0390 01       		.byte	0x1
 1239 0391 76020000 		.4byte	.LASF46
 1240 0395 01       		.byte	0x1
 1241 0396 50       		.byte	0x50
 1242 0397 01       		.byte	0x1
 1243 0398 00000000 		.4byte	.LFB119
 1244 039c 0A000000 		.4byte	.LFE119
 1245 03a0 02       		.byte	0x2
 1246 03a1 7D       		.byte	0x7d
 1247 03a2 00       		.sleb128 0
 1248 03a3 B5030000 		.4byte	0x3b5
 1249 03a7 17       		.uleb128 0x17
 1250 03a8 18020000 		.4byte	.LASF41
 1251 03ac 01       		.byte	0x1
 1252 03ad 50       		.byte	0x50
 1253 03ae 51010000 		.4byte	0x151
 1254 03b2 01       		.byte	0x1
 1255 03b3 50       		.byte	0x50
 1256 03b4 00       		.byte	0x0
 1257 03b5 18       		.uleb128 0x18
 1258 03b6 01       		.byte	0x1
 1259 03b7 F4000000 		.4byte	.LASF47
 1260 03bb 01       		.byte	0x1
 1261 03bc 5E       		.byte	0x5e
 1262 03bd 01       		.byte	0x1
 1263 03be 00000000 		.4byte	.LFB120
 1264 03c2 1C000000 		.4byte	.LFE120
 1265 03c6 00000000 		.4byte	.LLST0
 1266 03ca 1F040000 		.4byte	0x41f
 1267 03ce 19       		.uleb128 0x19
 1268 03cf 18020000 		.4byte	.LASF41
 1269 03d3 01       		.byte	0x1
 1270 03d4 5E       		.byte	0x5e
 1271 03d5 51010000 		.4byte	0x151
 1272 03d9 20000000 		.4byte	.LLST1
 1273 03dd 19       		.uleb128 0x19
 1274 03de 9B000000 		.4byte	.LASF21
 1275 03e2 01       		.byte	0x1
 1276 03e3 5E       		.byte	0x5e
 1277 03e4 06030000 		.4byte	0x306
 1278 03e8 3E000000 		.4byte	.LLST2
 1279 03ec 1A       		.uleb128 0x1a
 1280 03ed 00000000 		.4byte	.Ldebug_ranges0+0x0
 1281 03f1 05040000 		.4byte	0x405
 1282 03f5 1B       		.uleb128 0x1b
 1283 03f6 746D7000 		.ascii	"tmp\000"
 1284 03fa 01       		.byte	0x1
 1285 03fb 62       		.byte	0x62
 1286 03fc 65000000 		.4byte	0x65
 1287 0400 51000000 		.4byte	.LLST3
 1288 0404 00       		.byte	0x0
 1289 0405 1C       		.uleb128 0x1c
 1290 0406 14000000 		.4byte	.LBB16
 1291 040a 1A000000 		.4byte	.LBE16
 1292 040e 1B       		.uleb128 0x1b
ARM GAS  C:\Users\DNIEL~1\AppData\Local\Temp\cc8OU5M1.s 			page 24


 1293 040f 746D7000 		.ascii	"tmp\000"
 1294 0413 01       		.byte	0x1
 1295 0414 68       		.byte	0x68
 1296 0415 65000000 		.4byte	0x65
 1297 0419 64000000 		.4byte	.LLST4
 1298 041d 00       		.byte	0x0
 1299 041e 00       		.byte	0x0
 1300 041f 18       		.uleb128 0x18
 1301 0420 01       		.byte	0x1
 1302 0421 9B020000 		.4byte	.LASF48
 1303 0425 01       		.byte	0x1
 1304 0426 72       		.byte	0x72
 1305 0427 01       		.byte	0x1
 1306 0428 00000000 		.4byte	.LFB121
 1307 042c 1A000000 		.4byte	.LFE121
 1308 0430 77000000 		.4byte	.LLST5
 1309 0434 7A040000 		.4byte	0x47a
 1310 0438 19       		.uleb128 0x19
 1311 0439 18020000 		.4byte	.LASF41
 1312 043d 01       		.byte	0x1
 1313 043e 72       		.byte	0x72
 1314 043f 51010000 		.4byte	0x151
 1315 0443 97000000 		.4byte	.LLST6
 1316 0447 1A       		.uleb128 0x1a
 1317 0448 18000000 		.4byte	.Ldebug_ranges0+0x18
 1318 044c 60040000 		.4byte	0x460
 1319 0450 1B       		.uleb128 0x1b
 1320 0451 746D7000 		.ascii	"tmp\000"
 1321 0455 01       		.byte	0x1
 1322 0456 76       		.byte	0x76
 1323 0457 65000000 		.4byte	0x65
 1324 045b B5000000 		.4byte	.LLST7
 1325 045f 00       		.byte	0x0
 1326 0460 1C       		.uleb128 0x1c
 1327 0461 12000000 		.4byte	.LBB19
 1328 0465 18000000 		.4byte	.LBE19
 1329 0469 1B       		.uleb128 0x1b
 1330 046a 746D7000 		.ascii	"tmp\000"
 1331 046e 01       		.byte	0x1
 1332 046f 7B       		.byte	0x7b
 1333 0470 65000000 		.4byte	0x65
 1334 0474 C8000000 		.4byte	.LLST8
 1335 0478 00       		.byte	0x0
 1336 0479 00       		.byte	0x0
 1337 047a 16       		.uleb128 0x16
 1338 047b 01       		.byte	0x1
 1339 047c 31000000 		.4byte	.LASF49
 1340 0480 01       		.byte	0x1
 1341 0481 8B       		.byte	0x8b
 1342 0482 01       		.byte	0x1
 1343 0483 00000000 		.4byte	.LFB122
 1344 0487 14000000 		.4byte	.LFE122
 1345 048b 02       		.byte	0x2
 1346 048c 7D       		.byte	0x7d
 1347 048d 00       		.sleb128 0
 1348 048e E5040000 		.4byte	0x4e5
 1349 0492 17       		.uleb128 0x17
ARM GAS  C:\Users\DNIEL~1\AppData\Local\Temp\cc8OU5M1.s 			page 25


 1350 0493 18020000 		.4byte	.LASF41
 1351 0497 01       		.byte	0x1
 1352 0498 8B       		.byte	0x8b
 1353 0499 51010000 		.4byte	0x151
 1354 049d 01       		.byte	0x1
 1355 049e 50       		.byte	0x50
 1356 049f 19       		.uleb128 0x19
 1357 04a0 EB010000 		.4byte	.LASF42
 1358 04a4 01       		.byte	0x1
 1359 04a5 8B       		.byte	0x8b
 1360 04a6 B7020000 		.4byte	0x2b7
 1361 04aa DB000000 		.4byte	.LLST9
 1362 04ae 1D       		.uleb128 0x1d
 1363 04af 00000000 		.4byte	.LBB20
 1364 04b3 06000000 		.4byte	.LBE20
 1365 04b7 CB040000 		.4byte	0x4cb
 1366 04bb 1B       		.uleb128 0x1b
 1367 04bc 746D7000 		.ascii	"tmp\000"
 1368 04c0 01       		.byte	0x1
 1369 04c1 8F       		.byte	0x8f
 1370 04c2 65000000 		.4byte	0x65
 1371 04c6 FB000000 		.4byte	.LLST10
 1372 04ca 00       		.byte	0x0
 1373 04cb 1C       		.uleb128 0x1c
 1374 04cc 0C000000 		.4byte	.LBB21
 1375 04d0 12000000 		.4byte	.LBE21
 1376 04d4 1B       		.uleb128 0x1b
 1377 04d5 746D7000 		.ascii	"tmp\000"
 1378 04d9 01       		.byte	0x1
 1379 04da 93       		.byte	0x93
 1380 04db 65000000 		.4byte	0x65
 1381 04df 0E010000 		.4byte	.LLST11
 1382 04e3 00       		.byte	0x0
 1383 04e4 00       		.byte	0x0
 1384 04e5 18       		.uleb128 0x18
 1385 04e6 01       		.byte	0x1
 1386 04e7 28010000 		.4byte	.LASF50
 1387 04eb 01       		.byte	0x1
 1388 04ec 9E       		.byte	0x9e
 1389 04ed 01       		.byte	0x1
 1390 04ee 00000000 		.4byte	.LFB123
 1391 04f2 18000000 		.4byte	.LFE123
 1392 04f6 21010000 		.4byte	.LLST12
 1393 04fa 71050000 		.4byte	0x571
 1394 04fe 19       		.uleb128 0x19
 1395 04ff 18020000 		.4byte	.LASF41
 1396 0503 01       		.byte	0x1
 1397 0504 9E       		.byte	0x9e
 1398 0505 51010000 		.4byte	0x151
 1399 0509 41010000 		.4byte	.LLST13
 1400 050d 19       		.uleb128 0x19
 1401 050e EB010000 		.4byte	.LASF42
 1402 0512 01       		.byte	0x1
 1403 0513 9E       		.byte	0x9e
 1404 0514 B7020000 		.4byte	0x2b7
 1405 0518 54010000 		.4byte	.LLST14
 1406 051c 1D       		.uleb128 0x1d
ARM GAS  C:\Users\DNIEL~1\AppData\Local\Temp\cc8OU5M1.s 			page 26


 1407 051d 02000000 		.4byte	.LBB22
 1408 0521 08000000 		.4byte	.LBE22
 1409 0525 39050000 		.4byte	0x539
 1410 0529 1B       		.uleb128 0x1b
 1411 052a 746D7000 		.ascii	"tmp\000"
 1412 052e 01       		.byte	0x1
 1413 052f A0       		.byte	0xa0
 1414 0530 65000000 		.4byte	0x65
 1415 0534 67010000 		.4byte	.LLST15
 1416 0538 00       		.byte	0x0
 1417 0539 1E       		.uleb128 0x1e
 1418 053a 17030000 		.4byte	0x317
 1419 053e 08000000 		.4byte	.LBB23
 1420 0542 10000000 		.4byte	.LBE23
 1421 0546 01       		.byte	0x1
 1422 0547 A1       		.byte	0xa1
 1423 0548 57050000 		.4byte	0x557
 1424 054c 1F       		.uleb128 0x1f
 1425 054d 30030000 		.4byte	0x330
 1426 0551 1F       		.uleb128 0x1f
 1427 0552 25030000 		.4byte	0x325
 1428 0556 00       		.byte	0x0
 1429 0557 1C       		.uleb128 0x1c
 1430 0558 10000000 		.4byte	.LBB25
 1431 055c 16000000 		.4byte	.LBE25
 1432 0560 1B       		.uleb128 0x1b
 1433 0561 746D7000 		.ascii	"tmp\000"
 1434 0565 01       		.byte	0x1
 1435 0566 A2       		.byte	0xa2
 1436 0567 65000000 		.4byte	0x65
 1437 056b 7A010000 		.4byte	.LLST16
 1438 056f 00       		.byte	0x0
 1439 0570 00       		.byte	0x0
 1440 0571 20       		.uleb128 0x20
 1441 0572 17030000 		.4byte	0x317
 1442 0576 00000000 		.4byte	.LFB124
 1443 057a 08000000 		.4byte	.LFE124
 1444 057e 02       		.byte	0x2
 1445 057f 7D       		.byte	0x7d
 1446 0580 00       		.sleb128 0
 1447 0581 94050000 		.4byte	0x594
 1448 0585 21       		.uleb128 0x21
 1449 0586 25030000 		.4byte	0x325
 1450 058a 01       		.byte	0x1
 1451 058b 50       		.byte	0x50
 1452 058c 21       		.uleb128 0x21
 1453 058d 30030000 		.4byte	0x330
 1454 0591 01       		.byte	0x1
 1455 0592 51       		.byte	0x51
 1456 0593 00       		.byte	0x0
 1457 0594 18       		.uleb128 0x18
 1458 0595 01       		.byte	0x1
 1459 0596 C7000000 		.4byte	.LASF51
 1460 059a 01       		.byte	0x1
 1461 059b C0       		.byte	0xc0
 1462 059c 01       		.byte	0x1
 1463 059d 00000000 		.4byte	.LFB125
ARM GAS  C:\Users\DNIEL~1\AppData\Local\Temp\cc8OU5M1.s 			page 27


 1464 05a1 18000000 		.4byte	.LFE125
 1465 05a5 8D010000 		.4byte	.LLST17
 1466 05a9 20060000 		.4byte	0x620
 1467 05ad 19       		.uleb128 0x19
 1468 05ae 18020000 		.4byte	.LASF41
 1469 05b2 01       		.byte	0x1
 1470 05b3 C0       		.byte	0xc0
 1471 05b4 51010000 		.4byte	0x151
 1472 05b8 AD010000 		.4byte	.LLST18
 1473 05bc 19       		.uleb128 0x19
 1474 05bd EB010000 		.4byte	.LASF42
 1475 05c1 01       		.byte	0x1
 1476 05c2 C0       		.byte	0xc0
 1477 05c3 B7020000 		.4byte	0x2b7
 1478 05c7 C0010000 		.4byte	.LLST19
 1479 05cb 1D       		.uleb128 0x1d
 1480 05cc 02000000 		.4byte	.LBB26
 1481 05d0 08000000 		.4byte	.LBE26
 1482 05d4 E8050000 		.4byte	0x5e8
 1483 05d8 1B       		.uleb128 0x1b
 1484 05d9 746D7000 		.ascii	"tmp\000"
 1485 05dd 01       		.byte	0x1
 1486 05de C2       		.byte	0xc2
 1487 05df 65000000 		.4byte	0x65
 1488 05e3 D3010000 		.4byte	.LLST20
 1489 05e7 00       		.byte	0x0
 1490 05e8 1E       		.uleb128 0x1e
 1491 05e9 3C030000 		.4byte	0x33c
 1492 05ed 08000000 		.4byte	.LBB27
 1493 05f1 10000000 		.4byte	.LBE27
 1494 05f5 01       		.byte	0x1
 1495 05f6 C3       		.byte	0xc3
 1496 05f7 06060000 		.4byte	0x606
 1497 05fb 1F       		.uleb128 0x1f
 1498 05fc 55030000 		.4byte	0x355
 1499 0600 1F       		.uleb128 0x1f
 1500 0601 4A030000 		.4byte	0x34a
 1501 0605 00       		.byte	0x0
 1502 0606 1C       		.uleb128 0x1c
 1503 0607 10000000 		.4byte	.LBB29
 1504 060b 16000000 		.4byte	.LBE29
 1505 060f 1B       		.uleb128 0x1b
 1506 0610 746D7000 		.ascii	"tmp\000"
 1507 0614 01       		.byte	0x1
 1508 0615 C4       		.byte	0xc4
 1509 0616 65000000 		.4byte	0x65
 1510 061a E6010000 		.4byte	.LLST21
 1511 061e 00       		.byte	0x0
 1512 061f 00       		.byte	0x0
 1513 0620 20       		.uleb128 0x20
 1514 0621 3C030000 		.4byte	0x33c
 1515 0625 00000000 		.4byte	.LFB126
 1516 0629 08000000 		.4byte	.LFE126
 1517 062d 02       		.byte	0x2
 1518 062e 7D       		.byte	0x7d
 1519 062f 00       		.sleb128 0
 1520 0630 43060000 		.4byte	0x643
ARM GAS  C:\Users\DNIEL~1\AppData\Local\Temp\cc8OU5M1.s 			page 28


 1521 0634 21       		.uleb128 0x21
 1522 0635 4A030000 		.4byte	0x34a
 1523 0639 01       		.byte	0x1
 1524 063a 50       		.byte	0x50
 1525 063b 21       		.uleb128 0x21
 1526 063c 55030000 		.4byte	0x355
 1527 0640 01       		.byte	0x1
 1528 0641 51       		.byte	0x51
 1529 0642 00       		.byte	0x0
 1530 0643 18       		.uleb128 0x18
 1531 0644 01       		.byte	0x1
 1532 0645 3D020000 		.4byte	.LASF52
 1533 0649 01       		.byte	0x1
 1534 064a E1       		.byte	0xe1
 1535 064b 01       		.byte	0x1
 1536 064c 00000000 		.4byte	.LFB127
 1537 0650 18000000 		.4byte	.LFE127
 1538 0654 F9010000 		.4byte	.LLST22
 1539 0658 BB060000 		.4byte	0x6bb
 1540 065c 19       		.uleb128 0x19
 1541 065d 18020000 		.4byte	.LASF41
 1542 0661 01       		.byte	0x1
 1543 0662 E1       		.byte	0xe1
 1544 0663 51010000 		.4byte	0x151
 1545 0667 19020000 		.4byte	.LLST23
 1546 066b 1D       		.uleb128 0x1d
 1547 066c 02000000 		.4byte	.LBB30
 1548 0670 08000000 		.4byte	.LBE30
 1549 0674 88060000 		.4byte	0x688
 1550 0678 1B       		.uleb128 0x1b
 1551 0679 746D7000 		.ascii	"tmp\000"
 1552 067d 01       		.byte	0x1
 1553 067e E3       		.byte	0xe3
 1554 067f 65000000 		.4byte	0x65
 1555 0683 2C020000 		.4byte	.LLST24
 1556 0687 00       		.byte	0x0
 1557 0688 1E       		.uleb128 0x1e
 1558 0689 61030000 		.4byte	0x361
 1559 068d 08000000 		.4byte	.LBB31
 1560 0691 10000000 		.4byte	.LBE31
 1561 0695 01       		.byte	0x1
 1562 0696 E4       		.byte	0xe4
 1563 0697 A1060000 		.4byte	0x6a1
 1564 069b 1F       		.uleb128 0x1f
 1565 069c 6F030000 		.4byte	0x36f
 1566 06a0 00       		.byte	0x0
 1567 06a1 1C       		.uleb128 0x1c
 1568 06a2 10000000 		.4byte	.LBB33
 1569 06a6 16000000 		.4byte	.LBE33
 1570 06aa 1B       		.uleb128 0x1b
 1571 06ab 746D7000 		.ascii	"tmp\000"
 1572 06af 01       		.byte	0x1
 1573 06b0 E5       		.byte	0xe5
 1574 06b1 65000000 		.4byte	0x65
 1575 06b5 3F020000 		.4byte	.LLST25
 1576 06b9 00       		.byte	0x0
 1577 06ba 00       		.byte	0x0
ARM GAS  C:\Users\DNIEL~1\AppData\Local\Temp\cc8OU5M1.s 			page 29


 1578 06bb 20       		.uleb128 0x20
 1579 06bc 61030000 		.4byte	0x361
 1580 06c0 00000000 		.4byte	.LFB128
 1581 06c4 08000000 		.4byte	.LFE128
 1582 06c8 02       		.byte	0x2
 1583 06c9 7D       		.byte	0x7d
 1584 06ca 00       		.sleb128 0
 1585 06cb D7060000 		.4byte	0x6d7
 1586 06cf 21       		.uleb128 0x21
 1587 06d0 6F030000 		.4byte	0x36f
 1588 06d4 01       		.byte	0x1
 1589 06d5 50       		.byte	0x50
 1590 06d6 00       		.byte	0x0
 1591 06d7 22       		.uleb128 0x22
 1592 06d8 01       		.byte	0x1
 1593 06d9 00020000 		.4byte	.LASF53
 1594 06dd 01       		.byte	0x1
 1595 06de 0701     		.2byte	0x107
 1596 06e0 01       		.byte	0x1
 1597 06e1 00000000 		.4byte	.LFB129
 1598 06e5 12000000 		.4byte	.LFE129
 1599 06e9 52020000 		.4byte	.LLST26
 1600 06ed 12070000 		.4byte	0x712
 1601 06f1 23       		.uleb128 0x23
 1602 06f2 18020000 		.4byte	.LASF41
 1603 06f6 01       		.byte	0x1
 1604 06f7 0701     		.2byte	0x107
 1605 06f9 51010000 		.4byte	0x151
 1606 06fd 72020000 		.4byte	.LLST27
 1607 0701 23       		.uleb128 0x23
 1608 0702 EB010000 		.4byte	.LASF42
 1609 0706 01       		.byte	0x1
 1610 0707 0701     		.2byte	0x107
 1611 0709 B7020000 		.4byte	0x2b7
 1612 070d 90020000 		.4byte	.LLST28
 1613 0711 00       		.byte	0x0
 1614 0712 24       		.uleb128 0x24
 1615 0713 84020000 		.4byte	.LASF54
 1616 0717 06       		.byte	0x6
 1617 0718 9806     		.2byte	0x698
 1618 071a A8000000 		.4byte	0xa8
 1619 071e 01       		.byte	0x1
 1620 071f 01       		.byte	0x1
 1621 0720 24       		.uleb128 0x24
 1622 0721 84020000 		.4byte	.LASF54
 1623 0725 06       		.byte	0x6
 1624 0726 9806     		.2byte	0x698
 1625 0728 A8000000 		.4byte	0xa8
 1626 072c 01       		.byte	0x1
 1627 072d 01       		.byte	0x1
 1628 072e 00       		.byte	0x0
 1629              		.section	.debug_abbrev
 1630 0000 01       		.uleb128 0x1
 1631 0001 11       		.uleb128 0x11
 1632 0002 01       		.byte	0x1
 1633 0003 25       		.uleb128 0x25
 1634 0004 0E       		.uleb128 0xe
ARM GAS  C:\Users\DNIEL~1\AppData\Local\Temp\cc8OU5M1.s 			page 30


 1635 0005 13       		.uleb128 0x13
 1636 0006 0B       		.uleb128 0xb
 1637 0007 03       		.uleb128 0x3
 1638 0008 0E       		.uleb128 0xe
 1639 0009 1B       		.uleb128 0x1b
 1640 000a 0E       		.uleb128 0xe
 1641 000b 11       		.uleb128 0x11
 1642 000c 01       		.uleb128 0x1
 1643 000d 52       		.uleb128 0x52
 1644 000e 01       		.uleb128 0x1
 1645 000f 55       		.uleb128 0x55
 1646 0010 06       		.uleb128 0x6
 1647 0011 10       		.uleb128 0x10
 1648 0012 06       		.uleb128 0x6
 1649 0013 00       		.byte	0x0
 1650 0014 00       		.byte	0x0
 1651 0015 02       		.uleb128 0x2
 1652 0016 24       		.uleb128 0x24
 1653 0017 00       		.byte	0x0
 1654 0018 0B       		.uleb128 0xb
 1655 0019 0B       		.uleb128 0xb
 1656 001a 3E       		.uleb128 0x3e
 1657 001b 0B       		.uleb128 0xb
 1658 001c 03       		.uleb128 0x3
 1659 001d 08       		.uleb128 0x8
 1660 001e 00       		.byte	0x0
 1661 001f 00       		.byte	0x0
 1662 0020 03       		.uleb128 0x3
 1663 0021 24       		.uleb128 0x24
 1664 0022 00       		.byte	0x0
 1665 0023 0B       		.uleb128 0xb
 1666 0024 0B       		.uleb128 0xb
 1667 0025 3E       		.uleb128 0x3e
 1668 0026 0B       		.uleb128 0xb
 1669 0027 03       		.uleb128 0x3
 1670 0028 0E       		.uleb128 0xe
 1671 0029 00       		.byte	0x0
 1672 002a 00       		.byte	0x0
 1673 002b 04       		.uleb128 0x4
 1674 002c 16       		.uleb128 0x16
 1675 002d 00       		.byte	0x0
 1676 002e 03       		.uleb128 0x3
 1677 002f 0E       		.uleb128 0xe
 1678 0030 3A       		.uleb128 0x3a
 1679 0031 0B       		.uleb128 0xb
 1680 0032 3B       		.uleb128 0x3b
 1681 0033 0B       		.uleb128 0xb
 1682 0034 49       		.uleb128 0x49
 1683 0035 13       		.uleb128 0x13
 1684 0036 00       		.byte	0x0
 1685 0037 00       		.byte	0x0
 1686 0038 05       		.uleb128 0x5
 1687 0039 35       		.uleb128 0x35
 1688 003a 00       		.byte	0x0
 1689 003b 49       		.uleb128 0x49
 1690 003c 13       		.uleb128 0x13
 1691 003d 00       		.byte	0x0
ARM GAS  C:\Users\DNIEL~1\AppData\Local\Temp\cc8OU5M1.s 			page 31


 1692 003e 00       		.byte	0x0
 1693 003f 06       		.uleb128 0x6
 1694 0040 01       		.uleb128 0x1
 1695 0041 01       		.byte	0x1
 1696 0042 49       		.uleb128 0x49
 1697 0043 13       		.uleb128 0x13
 1698 0044 01       		.uleb128 0x1
 1699 0045 13       		.uleb128 0x13
 1700 0046 00       		.byte	0x0
 1701 0047 00       		.byte	0x0
 1702 0048 07       		.uleb128 0x7
 1703 0049 21       		.uleb128 0x21
 1704 004a 00       		.byte	0x0
 1705 004b 49       		.uleb128 0x49
 1706 004c 13       		.uleb128 0x13
 1707 004d 2F       		.uleb128 0x2f
 1708 004e 0B       		.uleb128 0xb
 1709 004f 00       		.byte	0x0
 1710 0050 00       		.byte	0x0
 1711 0051 08       		.uleb128 0x8
 1712 0052 04       		.uleb128 0x4
 1713 0053 01       		.byte	0x1
 1714 0054 0B       		.uleb128 0xb
 1715 0055 0B       		.uleb128 0xb
 1716 0056 3A       		.uleb128 0x3a
 1717 0057 0B       		.uleb128 0xb
 1718 0058 3B       		.uleb128 0x3b
 1719 0059 0B       		.uleb128 0xb
 1720 005a 01       		.uleb128 0x1
 1721 005b 13       		.uleb128 0x13
 1722 005c 00       		.byte	0x0
 1723 005d 00       		.byte	0x0
 1724 005e 09       		.uleb128 0x9
 1725 005f 28       		.uleb128 0x28
 1726 0060 00       		.byte	0x0
 1727 0061 03       		.uleb128 0x3
 1728 0062 0E       		.uleb128 0xe
 1729 0063 1C       		.uleb128 0x1c
 1730 0064 0D       		.uleb128 0xd
 1731 0065 00       		.byte	0x0
 1732 0066 00       		.byte	0x0
 1733 0067 0A       		.uleb128 0xa
 1734 0068 13       		.uleb128 0x13
 1735 0069 01       		.byte	0x1
 1736 006a 03       		.uleb128 0x3
 1737 006b 0E       		.uleb128 0xe
 1738 006c 0B       		.uleb128 0xb
 1739 006d 0B       		.uleb128 0xb
 1740 006e 3A       		.uleb128 0x3a
 1741 006f 0B       		.uleb128 0xb
 1742 0070 3B       		.uleb128 0x3b
 1743 0071 05       		.uleb128 0x5
 1744 0072 01       		.uleb128 0x1
 1745 0073 13       		.uleb128 0x13
 1746 0074 00       		.byte	0x0
 1747 0075 00       		.byte	0x0
 1748 0076 0B       		.uleb128 0xb
ARM GAS  C:\Users\DNIEL~1\AppData\Local\Temp\cc8OU5M1.s 			page 32


 1749 0077 0D       		.uleb128 0xd
 1750 0078 00       		.byte	0x0
 1751 0079 03       		.uleb128 0x3
 1752 007a 0E       		.uleb128 0xe
 1753 007b 3A       		.uleb128 0x3a
 1754 007c 0B       		.uleb128 0xb
 1755 007d 3B       		.uleb128 0x3b
 1756 007e 05       		.uleb128 0x5
 1757 007f 49       		.uleb128 0x49
 1758 0080 13       		.uleb128 0x13
 1759 0081 38       		.uleb128 0x38
 1760 0082 0A       		.uleb128 0xa
 1761 0083 00       		.byte	0x0
 1762 0084 00       		.byte	0x0
 1763 0085 0C       		.uleb128 0xc
 1764 0086 0D       		.uleb128 0xd
 1765 0087 00       		.byte	0x0
 1766 0088 03       		.uleb128 0x3
 1767 0089 08       		.uleb128 0x8
 1768 008a 3A       		.uleb128 0x3a
 1769 008b 0B       		.uleb128 0xb
 1770 008c 3B       		.uleb128 0x3b
 1771 008d 05       		.uleb128 0x5
 1772 008e 49       		.uleb128 0x49
 1773 008f 13       		.uleb128 0x13
 1774 0090 38       		.uleb128 0x38
 1775 0091 0A       		.uleb128 0xa
 1776 0092 00       		.byte	0x0
 1777 0093 00       		.byte	0x0
 1778 0094 0D       		.uleb128 0xd
 1779 0095 0F       		.uleb128 0xf
 1780 0096 00       		.byte	0x0
 1781 0097 0B       		.uleb128 0xb
 1782 0098 0B       		.uleb128 0xb
 1783 0099 49       		.uleb128 0x49
 1784 009a 13       		.uleb128 0x13
 1785 009b 00       		.byte	0x0
 1786 009c 00       		.byte	0x0
 1787 009d 0E       		.uleb128 0xe
 1788 009e 15       		.uleb128 0x15
 1789 009f 01       		.byte	0x1
 1790 00a0 27       		.uleb128 0x27
 1791 00a1 0C       		.uleb128 0xc
 1792 00a2 01       		.uleb128 0x1
 1793 00a3 13       		.uleb128 0x13
 1794 00a4 00       		.byte	0x0
 1795 00a5 00       		.byte	0x0
 1796 00a6 0F       		.uleb128 0xf
 1797 00a7 05       		.uleb128 0x5
 1798 00a8 00       		.byte	0x0
 1799 00a9 49       		.uleb128 0x49
 1800 00aa 13       		.uleb128 0x13
 1801 00ab 00       		.byte	0x0
 1802 00ac 00       		.byte	0x0
 1803 00ad 10       		.uleb128 0x10
 1804 00ae 13       		.uleb128 0x13
 1805 00af 01       		.byte	0x1
ARM GAS  C:\Users\DNIEL~1\AppData\Local\Temp\cc8OU5M1.s 			page 33


 1806 00b0 0B       		.uleb128 0xb
 1807 00b1 0B       		.uleb128 0xb
 1808 00b2 3A       		.uleb128 0x3a
 1809 00b3 0B       		.uleb128 0xb
 1810 00b4 3B       		.uleb128 0x3b
 1811 00b5 05       		.uleb128 0x5
 1812 00b6 01       		.uleb128 0x1
 1813 00b7 13       		.uleb128 0x13
 1814 00b8 00       		.byte	0x0
 1815 00b9 00       		.byte	0x0
 1816 00ba 11       		.uleb128 0x11
 1817 00bb 16       		.uleb128 0x16
 1818 00bc 00       		.byte	0x0
 1819 00bd 03       		.uleb128 0x3
 1820 00be 0E       		.uleb128 0xe
 1821 00bf 3A       		.uleb128 0x3a
 1822 00c0 0B       		.uleb128 0xb
 1823 00c1 3B       		.uleb128 0x3b
 1824 00c2 05       		.uleb128 0x5
 1825 00c3 49       		.uleb128 0x49
 1826 00c4 13       		.uleb128 0x13
 1827 00c5 00       		.byte	0x0
 1828 00c6 00       		.byte	0x0
 1829 00c7 12       		.uleb128 0x12
 1830 00c8 26       		.uleb128 0x26
 1831 00c9 00       		.byte	0x0
 1832 00ca 49       		.uleb128 0x49
 1833 00cb 13       		.uleb128 0x13
 1834 00cc 00       		.byte	0x0
 1835 00cd 00       		.byte	0x0
 1836 00ce 13       		.uleb128 0x13
 1837 00cf 2E       		.uleb128 0x2e
 1838 00d0 01       		.byte	0x1
 1839 00d1 3F       		.uleb128 0x3f
 1840 00d2 0C       		.uleb128 0xc
 1841 00d3 03       		.uleb128 0x3
 1842 00d4 0E       		.uleb128 0xe
 1843 00d5 3A       		.uleb128 0x3a
 1844 00d6 0B       		.uleb128 0xb
 1845 00d7 3B       		.uleb128 0x3b
 1846 00d8 0B       		.uleb128 0xb
 1847 00d9 27       		.uleb128 0x27
 1848 00da 0C       		.uleb128 0xc
 1849 00db 20       		.uleb128 0x20
 1850 00dc 0B       		.uleb128 0xb
 1851 00dd 01       		.uleb128 0x1
 1852 00de 13       		.uleb128 0x13
 1853 00df 00       		.byte	0x0
 1854 00e0 00       		.byte	0x0
 1855 00e1 14       		.uleb128 0x14
 1856 00e2 05       		.uleb128 0x5
 1857 00e3 00       		.byte	0x0
 1858 00e4 03       		.uleb128 0x3
 1859 00e5 0E       		.uleb128 0xe
 1860 00e6 3A       		.uleb128 0x3a
 1861 00e7 0B       		.uleb128 0xb
 1862 00e8 3B       		.uleb128 0x3b
ARM GAS  C:\Users\DNIEL~1\AppData\Local\Temp\cc8OU5M1.s 			page 34


 1863 00e9 0B       		.uleb128 0xb
 1864 00ea 49       		.uleb128 0x49
 1865 00eb 13       		.uleb128 0x13
 1866 00ec 00       		.byte	0x0
 1867 00ed 00       		.byte	0x0
 1868 00ee 15       		.uleb128 0x15
 1869 00ef 2E       		.uleb128 0x2e
 1870 00f0 00       		.byte	0x0
 1871 00f1 3F       		.uleb128 0x3f
 1872 00f2 0C       		.uleb128 0xc
 1873 00f3 03       		.uleb128 0x3
 1874 00f4 0E       		.uleb128 0xe
 1875 00f5 3A       		.uleb128 0x3a
 1876 00f6 0B       		.uleb128 0xb
 1877 00f7 3B       		.uleb128 0x3b
 1878 00f8 0B       		.uleb128 0xb
 1879 00f9 27       		.uleb128 0x27
 1880 00fa 0C       		.uleb128 0xc
 1881 00fb 11       		.uleb128 0x11
 1882 00fc 01       		.uleb128 0x1
 1883 00fd 12       		.uleb128 0x12
 1884 00fe 01       		.uleb128 0x1
 1885 00ff 40       		.uleb128 0x40
 1886 0100 0A       		.uleb128 0xa
 1887 0101 00       		.byte	0x0
 1888 0102 00       		.byte	0x0
 1889 0103 16       		.uleb128 0x16
 1890 0104 2E       		.uleb128 0x2e
 1891 0105 01       		.byte	0x1
 1892 0106 3F       		.uleb128 0x3f
 1893 0107 0C       		.uleb128 0xc
 1894 0108 03       		.uleb128 0x3
 1895 0109 0E       		.uleb128 0xe
 1896 010a 3A       		.uleb128 0x3a
 1897 010b 0B       		.uleb128 0xb
 1898 010c 3B       		.uleb128 0x3b
 1899 010d 0B       		.uleb128 0xb
 1900 010e 27       		.uleb128 0x27
 1901 010f 0C       		.uleb128 0xc
 1902 0110 11       		.uleb128 0x11
 1903 0111 01       		.uleb128 0x1
 1904 0112 12       		.uleb128 0x12
 1905 0113 01       		.uleb128 0x1
 1906 0114 40       		.uleb128 0x40
 1907 0115 0A       		.uleb128 0xa
 1908 0116 01       		.uleb128 0x1
 1909 0117 13       		.uleb128 0x13
 1910 0118 00       		.byte	0x0
 1911 0119 00       		.byte	0x0
 1912 011a 17       		.uleb128 0x17
 1913 011b 05       		.uleb128 0x5
 1914 011c 00       		.byte	0x0
 1915 011d 03       		.uleb128 0x3
 1916 011e 0E       		.uleb128 0xe
 1917 011f 3A       		.uleb128 0x3a
 1918 0120 0B       		.uleb128 0xb
 1919 0121 3B       		.uleb128 0x3b
ARM GAS  C:\Users\DNIEL~1\AppData\Local\Temp\cc8OU5M1.s 			page 35


 1920 0122 0B       		.uleb128 0xb
 1921 0123 49       		.uleb128 0x49
 1922 0124 13       		.uleb128 0x13
 1923 0125 02       		.uleb128 0x2
 1924 0126 0A       		.uleb128 0xa
 1925 0127 00       		.byte	0x0
 1926 0128 00       		.byte	0x0
 1927 0129 18       		.uleb128 0x18
 1928 012a 2E       		.uleb128 0x2e
 1929 012b 01       		.byte	0x1
 1930 012c 3F       		.uleb128 0x3f
 1931 012d 0C       		.uleb128 0xc
 1932 012e 03       		.uleb128 0x3
 1933 012f 0E       		.uleb128 0xe
 1934 0130 3A       		.uleb128 0x3a
 1935 0131 0B       		.uleb128 0xb
 1936 0132 3B       		.uleb128 0x3b
 1937 0133 0B       		.uleb128 0xb
 1938 0134 27       		.uleb128 0x27
 1939 0135 0C       		.uleb128 0xc
 1940 0136 11       		.uleb128 0x11
 1941 0137 01       		.uleb128 0x1
 1942 0138 12       		.uleb128 0x12
 1943 0139 01       		.uleb128 0x1
 1944 013a 40       		.uleb128 0x40
 1945 013b 06       		.uleb128 0x6
 1946 013c 01       		.uleb128 0x1
 1947 013d 13       		.uleb128 0x13
 1948 013e 00       		.byte	0x0
 1949 013f 00       		.byte	0x0
 1950 0140 19       		.uleb128 0x19
 1951 0141 05       		.uleb128 0x5
 1952 0142 00       		.byte	0x0
 1953 0143 03       		.uleb128 0x3
 1954 0144 0E       		.uleb128 0xe
 1955 0145 3A       		.uleb128 0x3a
 1956 0146 0B       		.uleb128 0xb
 1957 0147 3B       		.uleb128 0x3b
 1958 0148 0B       		.uleb128 0xb
 1959 0149 49       		.uleb128 0x49
 1960 014a 13       		.uleb128 0x13
 1961 014b 02       		.uleb128 0x2
 1962 014c 06       		.uleb128 0x6
 1963 014d 00       		.byte	0x0
 1964 014e 00       		.byte	0x0
 1965 014f 1A       		.uleb128 0x1a
 1966 0150 0B       		.uleb128 0xb
 1967 0151 01       		.byte	0x1
 1968 0152 55       		.uleb128 0x55
 1969 0153 06       		.uleb128 0x6
 1970 0154 01       		.uleb128 0x1
 1971 0155 13       		.uleb128 0x13
 1972 0156 00       		.byte	0x0
 1973 0157 00       		.byte	0x0
 1974 0158 1B       		.uleb128 0x1b
 1975 0159 34       		.uleb128 0x34
 1976 015a 00       		.byte	0x0
ARM GAS  C:\Users\DNIEL~1\AppData\Local\Temp\cc8OU5M1.s 			page 36


 1977 015b 03       		.uleb128 0x3
 1978 015c 08       		.uleb128 0x8
 1979 015d 3A       		.uleb128 0x3a
 1980 015e 0B       		.uleb128 0xb
 1981 015f 3B       		.uleb128 0x3b
 1982 0160 0B       		.uleb128 0xb
 1983 0161 49       		.uleb128 0x49
 1984 0162 13       		.uleb128 0x13
 1985 0163 02       		.uleb128 0x2
 1986 0164 06       		.uleb128 0x6
 1987 0165 00       		.byte	0x0
 1988 0166 00       		.byte	0x0
 1989 0167 1C       		.uleb128 0x1c
 1990 0168 0B       		.uleb128 0xb
 1991 0169 01       		.byte	0x1
 1992 016a 11       		.uleb128 0x11
 1993 016b 01       		.uleb128 0x1
 1994 016c 12       		.uleb128 0x12
 1995 016d 01       		.uleb128 0x1
 1996 016e 00       		.byte	0x0
 1997 016f 00       		.byte	0x0
 1998 0170 1D       		.uleb128 0x1d
 1999 0171 0B       		.uleb128 0xb
 2000 0172 01       		.byte	0x1
 2001 0173 11       		.uleb128 0x11
 2002 0174 01       		.uleb128 0x1
 2003 0175 12       		.uleb128 0x12
 2004 0176 01       		.uleb128 0x1
 2005 0177 01       		.uleb128 0x1
 2006 0178 13       		.uleb128 0x13
 2007 0179 00       		.byte	0x0
 2008 017a 00       		.byte	0x0
 2009 017b 1E       		.uleb128 0x1e
 2010 017c 1D       		.uleb128 0x1d
 2011 017d 01       		.byte	0x1
 2012 017e 31       		.uleb128 0x31
 2013 017f 13       		.uleb128 0x13
 2014 0180 11       		.uleb128 0x11
 2015 0181 01       		.uleb128 0x1
 2016 0182 12       		.uleb128 0x12
 2017 0183 01       		.uleb128 0x1
 2018 0184 58       		.uleb128 0x58
 2019 0185 0B       		.uleb128 0xb
 2020 0186 59       		.uleb128 0x59
 2021 0187 0B       		.uleb128 0xb
 2022 0188 01       		.uleb128 0x1
 2023 0189 13       		.uleb128 0x13
 2024 018a 00       		.byte	0x0
 2025 018b 00       		.byte	0x0
 2026 018c 1F       		.uleb128 0x1f
 2027 018d 05       		.uleb128 0x5
 2028 018e 00       		.byte	0x0
 2029 018f 31       		.uleb128 0x31
 2030 0190 13       		.uleb128 0x13
 2031 0191 00       		.byte	0x0
 2032 0192 00       		.byte	0x0
 2033 0193 20       		.uleb128 0x20
ARM GAS  C:\Users\DNIEL~1\AppData\Local\Temp\cc8OU5M1.s 			page 37


 2034 0194 2E       		.uleb128 0x2e
 2035 0195 01       		.byte	0x1
 2036 0196 31       		.uleb128 0x31
 2037 0197 13       		.uleb128 0x13
 2038 0198 11       		.uleb128 0x11
 2039 0199 01       		.uleb128 0x1
 2040 019a 12       		.uleb128 0x12
 2041 019b 01       		.uleb128 0x1
 2042 019c 40       		.uleb128 0x40
 2043 019d 0A       		.uleb128 0xa
 2044 019e 01       		.uleb128 0x1
 2045 019f 13       		.uleb128 0x13
 2046 01a0 00       		.byte	0x0
 2047 01a1 00       		.byte	0x0
 2048 01a2 21       		.uleb128 0x21
 2049 01a3 05       		.uleb128 0x5
 2050 01a4 00       		.byte	0x0
 2051 01a5 31       		.uleb128 0x31
 2052 01a6 13       		.uleb128 0x13
 2053 01a7 02       		.uleb128 0x2
 2054 01a8 0A       		.uleb128 0xa
 2055 01a9 00       		.byte	0x0
 2056 01aa 00       		.byte	0x0
 2057 01ab 22       		.uleb128 0x22
 2058 01ac 2E       		.uleb128 0x2e
 2059 01ad 01       		.byte	0x1
 2060 01ae 3F       		.uleb128 0x3f
 2061 01af 0C       		.uleb128 0xc
 2062 01b0 03       		.uleb128 0x3
 2063 01b1 0E       		.uleb128 0xe
 2064 01b2 3A       		.uleb128 0x3a
 2065 01b3 0B       		.uleb128 0xb
 2066 01b4 3B       		.uleb128 0x3b
 2067 01b5 05       		.uleb128 0x5
 2068 01b6 27       		.uleb128 0x27
 2069 01b7 0C       		.uleb128 0xc
 2070 01b8 11       		.uleb128 0x11
 2071 01b9 01       		.uleb128 0x1
 2072 01ba 12       		.uleb128 0x12
 2073 01bb 01       		.uleb128 0x1
 2074 01bc 40       		.uleb128 0x40
 2075 01bd 06       		.uleb128 0x6
 2076 01be 01       		.uleb128 0x1
 2077 01bf 13       		.uleb128 0x13
 2078 01c0 00       		.byte	0x0
 2079 01c1 00       		.byte	0x0
 2080 01c2 23       		.uleb128 0x23
 2081 01c3 05       		.uleb128 0x5
 2082 01c4 00       		.byte	0x0
 2083 01c5 03       		.uleb128 0x3
 2084 01c6 0E       		.uleb128 0xe
 2085 01c7 3A       		.uleb128 0x3a
 2086 01c8 0B       		.uleb128 0xb
 2087 01c9 3B       		.uleb128 0x3b
 2088 01ca 05       		.uleb128 0x5
 2089 01cb 49       		.uleb128 0x49
 2090 01cc 13       		.uleb128 0x13
ARM GAS  C:\Users\DNIEL~1\AppData\Local\Temp\cc8OU5M1.s 			page 38


 2091 01cd 02       		.uleb128 0x2
 2092 01ce 06       		.uleb128 0x6
 2093 01cf 00       		.byte	0x0
 2094 01d0 00       		.byte	0x0
 2095 01d1 24       		.uleb128 0x24
 2096 01d2 34       		.uleb128 0x34
 2097 01d3 00       		.byte	0x0
 2098 01d4 03       		.uleb128 0x3
 2099 01d5 0E       		.uleb128 0xe
 2100 01d6 3A       		.uleb128 0x3a
 2101 01d7 0B       		.uleb128 0xb
 2102 01d8 3B       		.uleb128 0x3b
 2103 01d9 05       		.uleb128 0x5
 2104 01da 49       		.uleb128 0x49
 2105 01db 13       		.uleb128 0x13
 2106 01dc 3F       		.uleb128 0x3f
 2107 01dd 0C       		.uleb128 0xc
 2108 01de 3C       		.uleb128 0x3c
 2109 01df 0C       		.uleb128 0xc
 2110 01e0 00       		.byte	0x0
 2111 01e1 00       		.byte	0x0
 2112 01e2 00       		.byte	0x0
 2113              		.section	.debug_pubnames,"",%progbits
 2114 0000 E9000000 		.4byte	0xe9
 2115 0004 0200     		.2byte	0x2
 2116 0006 00000000 		.4byte	.Ldebug_info0
 2117 000a 2F070000 		.4byte	0x72f
 2118 000e 7B030000 		.4byte	0x37b
 2119 0012 67707449 		.ascii	"gptInit\000"
 2119      6E697400 
 2120 001a 8F030000 		.4byte	0x38f
 2121 001e 6770744F 		.ascii	"gptObjectInit\000"
 2121      626A6563 
 2121      74496E69 
 2121      7400
 2122 002c B5030000 		.4byte	0x3b5
 2123 0030 67707453 		.ascii	"gptStart\000"
 2123      74617274 
 2123      00
 2124 0039 1F040000 		.4byte	0x41f
 2125 003d 67707453 		.ascii	"gptStop\000"
 2125      746F7000 
 2126 0045 7A040000 		.4byte	0x47a
 2127 0049 67707443 		.ascii	"gptChangeInterval\000"
 2127      68616E67 
 2127      65496E74 
 2127      65727661 
 2127      6C00
 2128 005b E5040000 		.4byte	0x4e5
 2129 005f 67707453 		.ascii	"gptStartContinuous\000"
 2129      74617274 
 2129      436F6E74 
 2129      696E756F 
 2129      757300
 2130 0072 71050000 		.4byte	0x571
 2131 0076 67707453 		.ascii	"gptStartContinuousI\000"
 2131      74617274 
ARM GAS  C:\Users\DNIEL~1\AppData\Local\Temp\cc8OU5M1.s 			page 39


 2131      436F6E74 
 2131      696E756F 
 2131      75734900 
 2132 008a 94050000 		.4byte	0x594
 2133 008e 67707453 		.ascii	"gptStartOneShot\000"
 2133      74617274 
 2133      4F6E6553 
 2133      686F7400 
 2134 009e 20060000 		.4byte	0x620
 2135 00a2 67707453 		.ascii	"gptStartOneShotI\000"
 2135      74617274 
 2135      4F6E6553 
 2135      686F7449 
 2135      00
 2136 00b3 43060000 		.4byte	0x643
 2137 00b7 67707453 		.ascii	"gptStopTimer\000"
 2137      746F7054 
 2137      696D6572 
 2137      00
 2138 00c4 BB060000 		.4byte	0x6bb
 2139 00c8 67707453 		.ascii	"gptStopTimerI\000"
 2139      746F7054 
 2139      696D6572 
 2139      4900
 2140 00d6 D7060000 		.4byte	0x6d7
 2141 00da 67707450 		.ascii	"gptPolledDelay\000"
 2141      6F6C6C65 
 2141      6444656C 
 2141      617900
 2142 00e9 00000000 		.4byte	0x0
 2143              		.section	.debug_pubtypes,"",%progbits
 2144 0000 9D000000 		.4byte	0x9d
 2145 0004 0200     		.2byte	0x2
 2146 0006 00000000 		.4byte	.Ldebug_info0
 2147 000a 2F070000 		.4byte	0x72f
 2148 000e 53000000 		.4byte	0x53
 2149 0012 696E7433 		.ascii	"int32_t\000"
 2149      325F7400 
 2150 001a 65000000 		.4byte	0x65
 2151 001e 75696E74 		.ascii	"uint32_t\000"
 2151      33325F74 
 2151      00
 2152 0027 D4000000 		.4byte	0xd4
 2153 002b 67707473 		.ascii	"gptstate_t\000"
 2153      74617465 
 2153      5F7400
 2154 0036 DF000000 		.4byte	0xdf
 2155 003a 47505444 		.ascii	"GPTDriver\000"
 2155      72697665 
 2155      7200
 2156 0044 34010000 		.4byte	0x134
 2157 0048 67707463 		.ascii	"gptcallback_t\000"
 2157      616C6C62 
 2157      61636B5F 
 2157      7400
 2158 0056 9F020000 		.4byte	0x29f
 2159 005a 73746D33 		.ascii	"stm32_tim_t\000"
ARM GAS  C:\Users\DNIEL~1\AppData\Local\Temp\cc8OU5M1.s 			page 40


 2159      325F7469 
 2159      6D5F7400 
 2160 0066 AB020000 		.4byte	0x2ab
 2161 006a 67707466 		.ascii	"gptfreq_t\000"
 2161      7265715F 
 2161      7400
 2162 0074 B7020000 		.4byte	0x2b7
 2163 0078 67707463 		.ascii	"gptcnt_t\000"
 2163      6E745F74 
 2163      00
 2164 0081 FA020000 		.4byte	0x2fa
 2165 0085 47505443 		.ascii	"GPTConfig\000"
 2165      6F6E6669 
 2165      6700
 2166 008f EA000000 		.4byte	0xea
 2167 0093 47505444 		.ascii	"GPTDriver\000"
 2167      72697665 
 2167      7200
 2168 009d 00000000 		.4byte	0x0
 2169              		.section	.debug_aranges,"",%progbits
 2170 0000 74000000 		.4byte	0x74
 2171 0004 0200     		.2byte	0x2
 2172 0006 00000000 		.4byte	.Ldebug_info0
 2173 000a 04       		.byte	0x4
 2174 000b 00       		.byte	0x0
 2175 000c 0000     		.2byte	0x0
 2176 000e 0000     		.2byte	0x0
 2177 0010 00000000 		.4byte	.LFB118
 2178 0014 04000000 		.4byte	.LFE118-.LFB118
 2179 0018 00000000 		.4byte	.LFB119
 2180 001c 0A000000 		.4byte	.LFE119-.LFB119
 2181 0020 00000000 		.4byte	.LFB120
 2182 0024 1C000000 		.4byte	.LFE120-.LFB120
 2183 0028 00000000 		.4byte	.LFB121
 2184 002c 1A000000 		.4byte	.LFE121-.LFB121
 2185 0030 00000000 		.4byte	.LFB122
 2186 0034 14000000 		.4byte	.LFE122-.LFB122
 2187 0038 00000000 		.4byte	.LFB123
 2188 003c 18000000 		.4byte	.LFE123-.LFB123
 2189 0040 00000000 		.4byte	.LFB124
 2190 0044 08000000 		.4byte	.LFE124-.LFB124
 2191 0048 00000000 		.4byte	.LFB125
 2192 004c 18000000 		.4byte	.LFE125-.LFB125
 2193 0050 00000000 		.4byte	.LFB126
 2194 0054 08000000 		.4byte	.LFE126-.LFB126
 2195 0058 00000000 		.4byte	.LFB127
 2196 005c 18000000 		.4byte	.LFE127-.LFB127
 2197 0060 00000000 		.4byte	.LFB128
 2198 0064 08000000 		.4byte	.LFE128-.LFB128
 2199 0068 00000000 		.4byte	.LFB129
 2200 006c 12000000 		.4byte	.LFE129-.LFB129
 2201 0070 00000000 		.4byte	0x0
 2202 0074 00000000 		.4byte	0x0
 2203              		.section	.debug_ranges,"",%progbits
 2204              	.Ldebug_ranges0:
 2205 0000 02000000 		.4byte	.LBB14
 2206 0004 04000000 		.4byte	.LBE14
ARM GAS  C:\Users\DNIEL~1\AppData\Local\Temp\cc8OU5M1.s 			page 41


 2207 0008 06000000 		.4byte	.LBB15
 2208 000c 0A000000 		.4byte	.LBE15
 2209 0010 00000000 		.4byte	0x0
 2210 0014 00000000 		.4byte	0x0
 2211 0018 02000000 		.4byte	.LBB17
 2212 001c 04000000 		.4byte	.LBE17
 2213 0020 06000000 		.4byte	.LBB18
 2214 0024 0A000000 		.4byte	.LBE18
 2215 0028 00000000 		.4byte	0x0
 2216 002c 00000000 		.4byte	0x0
 2217 0030 00000000 		.4byte	.LFB118
 2218 0034 04000000 		.4byte	.LFE118
 2219 0038 00000000 		.4byte	.LFB119
 2220 003c 0A000000 		.4byte	.LFE119
 2221 0040 00000000 		.4byte	.LFB120
 2222 0044 1C000000 		.4byte	.LFE120
 2223 0048 00000000 		.4byte	.LFB121
 2224 004c 1A000000 		.4byte	.LFE121
 2225 0050 00000000 		.4byte	.LFB122
 2226 0054 14000000 		.4byte	.LFE122
 2227 0058 00000000 		.4byte	.LFB123
 2228 005c 18000000 		.4byte	.LFE123
 2229 0060 00000000 		.4byte	.LFB124
 2230 0064 08000000 		.4byte	.LFE124
 2231 0068 00000000 		.4byte	.LFB125
 2232 006c 18000000 		.4byte	.LFE125
 2233 0070 00000000 		.4byte	.LFB126
 2234 0074 08000000 		.4byte	.LFE126
 2235 0078 00000000 		.4byte	.LFB127
 2236 007c 18000000 		.4byte	.LFE127
 2237 0080 00000000 		.4byte	.LFB128
 2238 0084 08000000 		.4byte	.LFE128
 2239 0088 00000000 		.4byte	.LFB129
 2240 008c 12000000 		.4byte	.LFE129
 2241 0090 00000000 		.4byte	0x0
 2242 0094 00000000 		.4byte	0x0
 2243              		.section	.debug_str,"MS",%progbits,1
 2244              	.LASF28:
 2245 0000 43434552 		.ascii	"CCER\000"
 2245      00
 2246              	.LASF13:
 2247 0005 4750545F 		.ascii	"GPT_UNINIT\000"
 2247      554E494E 
 2247      495400
 2248              	.LASF30:
 2249 0010 444D4152 		.ascii	"DMAR\000"
 2249      00
 2250              	.LASF20:
 2251 0015 73746174 		.ascii	"state\000"
 2251      6500
 2252              	.LASF27:
 2253 001b 43434D52 		.ascii	"CCMR2\000"
 2253      3200
 2254              	.LASF31:
 2255 0021 43434D52 		.ascii	"CCMR3\000"
 2255      3300
 2256              	.LASF3:
ARM GAS  C:\Users\DNIEL~1\AppData\Local\Temp\cc8OU5M1.s 			page 42


 2257 0027 73686F72 		.ascii	"short int\000"
 2257      7420696E 
 2257      7400
 2258              	.LASF49:
 2259 0031 67707443 		.ascii	"gptChangeInterval\000"
 2259      68616E67 
 2259      65496E74 
 2259      65727661 
 2259      6C00
 2260              	.LASF23:
 2261 0043 67707463 		.ascii	"gptcallback_t\000"
 2261      616C6C62 
 2261      61636B5F 
 2261      7400
 2262              	.LASF36:
 2263 0051 67707463 		.ascii	"gptcnt_t\000"
 2263      6E745F74 
 2263      00
 2264              	.LASF57:
 2265 005a 433A5C44 		.ascii	"C:\\Dani\\MegaLux\\Repo\\Smarty\\Smarty\\smarty\\fi"
 2265      616E695C 
 2265      4D656761 
 2265      4C75785C 
 2265      5265706F 
 2266 0086 726D7761 		.ascii	"rmware\000"
 2266      726500
 2267              	.LASF45:
 2268 008d 67707453 		.ascii	"gptStopTimerI\000"
 2268      746F7054 
 2268      696D6572 
 2268      4900
 2269              	.LASF21:
 2270 009b 636F6E66 		.ascii	"config\000"
 2270      696700
 2271              	.LASF17:
 2272 00a2 4750545F 		.ascii	"GPT_ONESHOT\000"
 2272      4F4E4553 
 2272      484F5400 
 2273              	.LASF18:
 2274 00ae 67707473 		.ascii	"gptstate_t\000"
 2274      74617465 
 2274      5F7400
 2275              	.LASF9:
 2276 00b9 6C6F6E67 		.ascii	"long long int\000"
 2276      206C6F6E 
 2276      6720696E 
 2276      7400
 2277              	.LASF51:
 2278 00c7 67707453 		.ascii	"gptStartOneShot\000"
 2278      74617274 
 2278      4F6E6553 
 2278      686F7400 
 2279              	.LASF43:
 2280 00d7 67707453 		.ascii	"gptStartContinuousI\000"
 2280      74617274 
 2280      436F6E74 
 2280      696E756F 
ARM GAS  C:\Users\DNIEL~1\AppData\Local\Temp\cc8OU5M1.s 			page 43


 2280      75734900 
 2281              	.LASF5:
 2282 00eb 6C6F6E67 		.ascii	"long int\000"
 2282      20696E74 
 2282      00
 2283              	.LASF47:
 2284 00f4 67707453 		.ascii	"gptStart\000"
 2284      74617274 
 2284      00
 2285              	.LASF33:
 2286 00fd 43435236 		.ascii	"CCR6\000"
 2286      00
 2287              	.LASF26:
 2288 0102 43434D52 		.ascii	"CCMR1\000"
 2288      3100
 2289              	.LASF24:
 2290 0108 534D4352 		.ascii	"SMCR\000"
 2290      00
 2291              	.LASF2:
 2292 010d 756E7369 		.ascii	"unsigned char\000"
 2292      676E6564 
 2292      20636861 
 2292      7200
 2293              	.LASF58:
 2294 011b 67707449 		.ascii	"gptInit\000"
 2294      6E697400 
 2295              	.LASF32:
 2296 0123 43435235 		.ascii	"CCR5\000"
 2296      00
 2297              	.LASF50:
 2298 0128 67707453 		.ascii	"gptStartContinuous\000"
 2298      74617274 
 2298      436F6E74 
 2298      696E756F 
 2298      757300
 2299              	.LASF1:
 2300 013b 7369676E 		.ascii	"signed char\000"
 2300      65642063 
 2300      68617200 
 2301              	.LASF10:
 2302 0147 6C6F6E67 		.ascii	"long long unsigned int\000"
 2302      206C6F6E 
 2302      6720756E 
 2302      7369676E 
 2302      65642069 
 2303              	.LASF7:
 2304 015e 75696E74 		.ascii	"uint32_t\000"
 2304      33325F74 
 2304      00
 2305              	.LASF0:
 2306 0167 756E7369 		.ascii	"unsigned int\000"
 2306      676E6564 
 2306      20696E74 
 2306      00
 2307              	.LASF25:
 2308 0174 44494552 		.ascii	"DIER\000"
 2308      00
ARM GAS  C:\Users\DNIEL~1\AppData\Local\Temp\cc8OU5M1.s 			page 44


 2309              	.LASF4:
 2310 0179 73686F72 		.ascii	"short unsigned int\000"
 2310      7420756E 
 2310      7369676E 
 2310      65642069 
 2310      6E7400
 2311              	.LASF12:
 2312 018c 63686172 		.ascii	"char\000"
 2312      00
 2313              	.LASF34:
 2314 0191 73746D33 		.ascii	"stm32_tim_t\000"
 2314      325F7469 
 2314      6D5F7400 
 2315              	.LASF29:
 2316 019d 42445452 		.ascii	"BDTR\000"
 2316      00
 2317              	.LASF6:
 2318 01a2 696E7433 		.ascii	"int32_t\000"
 2318      325F7400 
 2319              	.LASF11:
 2320 01aa 5F426F6F 		.ascii	"_Bool\000"
 2320      6C00
 2321              	.LASF16:
 2322 01b0 4750545F 		.ascii	"GPT_CONTINUOUS\000"
 2322      434F4E54 
 2322      494E554F 
 2322      555300
 2323              	.LASF15:
 2324 01bf 4750545F 		.ascii	"GPT_READY\000"
 2324      52454144 
 2324      5900
 2325              	.LASF19:
 2326 01c9 47505444 		.ascii	"GPTDriver\000"
 2326      72697665 
 2326      7200
 2327              	.LASF8:
 2328 01d3 6C6F6E67 		.ascii	"long unsigned int\000"
 2328      20756E73 
 2328      69676E65 
 2328      6420696E 
 2328      7400
 2329              	.LASF22:
 2330 01e5 636C6F63 		.ascii	"clock\000"
 2330      6B00
 2331              	.LASF42:
 2332 01eb 696E7465 		.ascii	"interval\000"
 2332      7276616C 
 2332      00
 2333              	.LASF55:
 2334 01f4 474E5520 		.ascii	"GNU C 4.5.2\000"
 2334      4320342E 
 2334      352E3200 
 2335              	.LASF53:
 2336 0200 67707450 		.ascii	"gptPolledDelay\000"
 2336      6F6C6C65 
 2336      6444656C 
 2336      617900
ARM GAS  C:\Users\DNIEL~1\AppData\Local\Temp\cc8OU5M1.s 			page 45


 2337              	.LASF14:
 2338 020f 4750545F 		.ascii	"GPT_STOP\000"
 2338      53544F50 
 2338      00
 2339              	.LASF41:
 2340 0218 67707470 		.ascii	"gptp\000"
 2340      00
 2341              	.LASF40:
 2342 021d 47505443 		.ascii	"GPTConfig\000"
 2342      6F6E6669 
 2342      6700
 2343              	.LASF44:
 2344 0227 67707453 		.ascii	"gptStartOneShotI\000"
 2344      74617274 
 2344      4F6E6553 
 2344      686F7449 
 2344      00
 2345              	.LASF39:
 2346 0238 64696572 		.ascii	"dier\000"
 2346      00
 2347              	.LASF52:
 2348 023d 67707453 		.ascii	"gptStopTimer\000"
 2348      746F7054 
 2348      696D6572 
 2348      00
 2349              	.LASF56:
 2350 024a 2E2E2F2E 		.ascii	"../../../ChibiOS/os/hal/src/gpt.c\000"
 2350      2E2F2E2E 
 2350      2F436869 
 2350      62694F53 
 2350      2F6F732F 
 2351              	.LASF37:
 2352 026c 66726571 		.ascii	"frequency\000"
 2352      75656E63 
 2352      7900
 2353              	.LASF46:
 2354 0276 6770744F 		.ascii	"gptObjectInit\000"
 2354      626A6563 
 2354      74496E69 
 2354      7400
 2355              	.LASF54:
 2356 0284 49544D5F 		.ascii	"ITM_RxBuffer\000"
 2356      52784275 
 2356      66666572 
 2356      00
 2357              	.LASF35:
 2358 0291 67707466 		.ascii	"gptfreq_t\000"
 2358      7265715F 
 2358      7400
 2359              	.LASF48:
 2360 029b 67707453 		.ascii	"gptStop\000"
 2360      746F7000 
 2361              	.LASF38:
 2362 02a3 63616C6C 		.ascii	"callback\000"
 2362      6261636B 
 2362      00
 2363              		.ident	"GCC: (Sourcery G++ Lite 2011.03-42) 4.5.2"
ARM GAS  C:\Users\DNIEL~1\AppData\Local\Temp\cc8OU5M1.s 			page 46


ARM GAS  C:\Users\DNIEL~1\AppData\Local\Temp\cc8OU5M1.s 			page 47


DEFINED SYMBOLS
                            *ABS*:00000000 gpt.c
C:\Users\DNIEL~1\AppData\Local\Temp\cc8OU5M1.s:24     .text.gptInit:00000000 $t
C:\Users\DNIEL~1\AppData\Local\Temp\cc8OU5M1.s:30     .text.gptInit:00000000 gptInit
C:\Users\DNIEL~1\AppData\Local\Temp\cc8OU5M1.s:45     .text.gptObjectInit:00000000 $t
C:\Users\DNIEL~1\AppData\Local\Temp\cc8OU5M1.s:51     .text.gptObjectInit:00000000 gptObjectInit
C:\Users\DNIEL~1\AppData\Local\Temp\cc8OU5M1.s:73     .text.gptStart:00000000 $t
C:\Users\DNIEL~1\AppData\Local\Temp\cc8OU5M1.s:79     .text.gptStart:00000000 gptStart
C:\Users\DNIEL~1\AppData\Local\Temp\cc8OU5M1.s:130    .text.gptStop:00000000 $t
C:\Users\DNIEL~1\AppData\Local\Temp\cc8OU5M1.s:136    .text.gptStop:00000000 gptStop
C:\Users\DNIEL~1\AppData\Local\Temp\cc8OU5M1.s:185    .text.gptChangeInterval:00000000 $t
C:\Users\DNIEL~1\AppData\Local\Temp\cc8OU5M1.s:191    .text.gptChangeInterval:00000000 gptChangeInterval
C:\Users\DNIEL~1\AppData\Local\Temp\cc8OU5M1.s:231    .text.gptStartContinuous:00000000 $t
C:\Users\DNIEL~1\AppData\Local\Temp\cc8OU5M1.s:237    .text.gptStartContinuous:00000000 gptStartContinuous
C:\Users\DNIEL~1\AppData\Local\Temp\cc8OU5M1.s:286    .text.gptStartContinuousI:00000000 $t
C:\Users\DNIEL~1\AppData\Local\Temp\cc8OU5M1.s:292    .text.gptStartContinuousI:00000000 gptStartContinuousI
C:\Users\DNIEL~1\AppData\Local\Temp\cc8OU5M1.s:310    .text.gptStartOneShot:00000000 $t
C:\Users\DNIEL~1\AppData\Local\Temp\cc8OU5M1.s:316    .text.gptStartOneShot:00000000 gptStartOneShot
C:\Users\DNIEL~1\AppData\Local\Temp\cc8OU5M1.s:365    .text.gptStartOneShotI:00000000 $t
C:\Users\DNIEL~1\AppData\Local\Temp\cc8OU5M1.s:371    .text.gptStartOneShotI:00000000 gptStartOneShotI
C:\Users\DNIEL~1\AppData\Local\Temp\cc8OU5M1.s:389    .text.gptStopTimer:00000000 $t
C:\Users\DNIEL~1\AppData\Local\Temp\cc8OU5M1.s:395    .text.gptStopTimer:00000000 gptStopTimer
C:\Users\DNIEL~1\AppData\Local\Temp\cc8OU5M1.s:444    .text.gptStopTimerI:00000000 $t
C:\Users\DNIEL~1\AppData\Local\Temp\cc8OU5M1.s:450    .text.gptStopTimerI:00000000 gptStopTimerI
C:\Users\DNIEL~1\AppData\Local\Temp\cc8OU5M1.s:468    .text.gptPolledDelay:00000000 $t
C:\Users\DNIEL~1\AppData\Local\Temp\cc8OU5M1.s:474    .text.gptPolledDelay:00000000 gptPolledDelay
                     .debug_frame:00000010 $d

UNDEFINED SYMBOLS
gpt_lld_init
gpt_lld_start
gpt_lld_stop
gpt_lld_start_timer
gpt_lld_stop_timer
gpt_lld_polled_delay
