ARM GAS  C:\Users\danit\AppData\Local\Temp\ccVlje1w.s 			page 1


   1              		.syntax unified
   2              		.cpu cortex-m4
   3              		.fpu softvfp
   4              		.eabi_attribute 20, 1
   5              		.eabi_attribute 21, 1
   6              		.eabi_attribute 23, 3
   7              		.eabi_attribute 24, 1
   8              		.eabi_attribute 25, 1
   9              		.eabi_attribute 26, 1
  10              		.eabi_attribute 30, 2
  11              		.eabi_attribute 34, 1
  12              		.eabi_attribute 18, 4
  13              		.thumb
  14              		.file	"gpt.c"
  15              		.text
  16              	.Ltext0:
  17              		.cfi_sections	.debug_frame
  18              		.section	.text.gptInit,"ax",%progbits
  19              		.align	2
  20              		.p2align 4,,15
  21              		.global	gptInit
  22              		.thumb
  23              		.thumb_func
  24              		.type	gptInit, %function
  25              	gptInit:
  26              	.LFB118:
  27              		.file 1 "../../../ChibiOS/os/hal/src/gpt.c"
  28              		.loc 1 68 0
  29              		.cfi_startproc
  30              		@ args = 0, pretend = 0, frame = 0
  31              		@ frame_needed = 0, uses_anonymous_args = 0
  32              		@ link register save eliminated.
  33              		.loc 1 70 0
  34 0000 FFF7FEBF 		b	gpt_lld_init
  35              	.LVL0:
  36              		.cfi_endproc
  37              	.LFE118:
  38              		.size	gptInit, .-gptInit
  39              		.section	.text.gptObjectInit,"ax",%progbits
  40              		.align	2
  41              		.p2align 4,,15
  42              		.global	gptObjectInit
  43              		.thumb
  44              		.thumb_func
  45              		.type	gptObjectInit, %function
  46              	gptObjectInit:
  47              	.LFB119:
  48              		.loc 1 80 0
  49              		.cfi_startproc
  50              		@ args = 0, pretend = 0, frame = 0
  51              		@ frame_needed = 0, uses_anonymous_args = 0
  52              		@ link register save eliminated.
  53              	.LVL1:
  54              		.loc 1 82 0
  55 0000 0122     		movs	r2, #1
  56              		.loc 1 83 0
  57 0002 0023     		movs	r3, #0
ARM GAS  C:\Users\danit\AppData\Local\Temp\ccVlje1w.s 			page 2


  58              		.loc 1 82 0
  59 0004 0270     		strb	r2, [r0]
  60              		.loc 1 83 0
  61 0006 4360     		str	r3, [r0, #4]
  62 0008 7047     		bx	lr
  63              		.cfi_endproc
  64              	.LFE119:
  65              		.size	gptObjectInit, .-gptObjectInit
  66 000a 00BF     		.section	.text.gptStart,"ax",%progbits
  67              		.align	2
  68              		.p2align 4,,15
  69              		.global	gptStart
  70              		.thumb
  71              		.thumb_func
  72              		.type	gptStart, %function
  73              	gptStart:
  74              	.LFB120:
  75              		.loc 1 94 0
  76              		.cfi_startproc
  77              		@ args = 0, pretend = 0, frame = 0
  78              		@ frame_needed = 0, uses_anonymous_args = 0
  79              	.LVL2:
  80 0000 10B5     		push	{r4, lr}
  81              		.cfi_def_cfa_offset 8
  82              		.cfi_offset 4, -8
  83              		.cfi_offset 14, -4
  84              	.LBB14:
  85              		.loc 1 98 0
  86 0002 2023     		movs	r3, #32
  87              	.LBE14:
  88              		.loc 1 94 0
  89 0004 0446     		mov	r4, r0
  90              	.LBB15:
  91              		.loc 1 98 0
  92              	@ 98 "../../../ChibiOS/os/hal/src/gpt.c" 1
  93 0006 83F31188 		msr     BASEPRI, r3
  94              	@ 0 "" 2
  95              		.thumb
  96              	.LBE15:
  97              		.loc 1 101 0
  98 000a 4160     		str	r1, [r0, #4]
  99              		.loc 1 102 0
 100 000c FFF7FEFF 		bl	gpt_lld_start
 101              	.LVL3:
 102              		.loc 1 103 0
 103 0010 0223     		movs	r3, #2
 104 0012 2370     		strb	r3, [r4]
 105              	.LBB16:
 106              		.loc 1 104 0
 107 0014 0023     		movs	r3, #0
 108              	@ 104 "../../../ChibiOS/os/hal/src/gpt.c" 1
 109 0016 83F31188 		msr     BASEPRI, r3
 110              	@ 0 "" 2
 111              		.thumb
 112 001a 10BD     		pop	{r4, pc}
 113              	.LBE16:
 114              		.cfi_endproc
ARM GAS  C:\Users\danit\AppData\Local\Temp\ccVlje1w.s 			page 3


 115              	.LFE120:
 116              		.size	gptStart, .-gptStart
 117              		.section	.text.gptStop,"ax",%progbits
 118              		.align	2
 119              		.p2align 4,,15
 120              		.global	gptStop
 121              		.thumb
 122              		.thumb_func
 123              		.type	gptStop, %function
 124              	gptStop:
 125              	.LFB121:
 126              		.loc 1 114 0
 127              		.cfi_startproc
 128              		@ args = 0, pretend = 0, frame = 0
 129              		@ frame_needed = 0, uses_anonymous_args = 0
 130              	.LVL4:
 131 0000 10B5     		push	{r4, lr}
 132              		.cfi_def_cfa_offset 8
 133              		.cfi_offset 4, -8
 134              		.cfi_offset 14, -4
 135              	.LBB17:
 136              		.loc 1 118 0
 137 0002 2023     		movs	r3, #32
 138              	.LBE17:
 139              		.loc 1 114 0
 140 0004 0446     		mov	r4, r0
 141              	.LBB18:
 142              		.loc 1 118 0
 143              	@ 118 "../../../ChibiOS/os/hal/src/gpt.c" 1
 144 0006 83F31188 		msr     BASEPRI, r3
 145              	@ 0 "" 2
 146              		.thumb
 147              	.LBE18:
 148              		.loc 1 121 0
 149 000a FFF7FEFF 		bl	gpt_lld_stop
 150              	.LVL5:
 151              		.loc 1 122 0
 152 000e 0123     		movs	r3, #1
 153 0010 2370     		strb	r3, [r4]
 154              	.LBB19:
 155              		.loc 1 123 0
 156 0012 0023     		movs	r3, #0
 157              	@ 123 "../../../ChibiOS/os/hal/src/gpt.c" 1
 158 0014 83F31188 		msr     BASEPRI, r3
 159              	@ 0 "" 2
 160              		.thumb
 161 0018 10BD     		pop	{r4, pc}
 162              	.LBE19:
 163              		.cfi_endproc
 164              	.LFE121:
 165              		.size	gptStop, .-gptStop
 166 001a 00BF     		.section	.text.gptChangeInterval,"ax",%progbits
 167              		.align	2
 168              		.p2align 4,,15
 169              		.global	gptChangeInterval
 170              		.thumb
 171              		.thumb_func
ARM GAS  C:\Users\danit\AppData\Local\Temp\ccVlje1w.s 			page 4


 172              		.type	gptChangeInterval, %function
 173              	gptChangeInterval:
 174              	.LFB122:
 175              		.loc 1 139 0
 176              		.cfi_startproc
 177              		@ args = 0, pretend = 0, frame = 0
 178              		@ frame_needed = 0, uses_anonymous_args = 0
 179              		@ link register save eliminated.
 180              	.LVL6:
 181              	.LBB20:
 182              		.loc 1 143 0
 183 0000 2023     		movs	r3, #32
 184              	@ 143 "../../../ChibiOS/os/hal/src/gpt.c" 1
 185 0002 83F31188 		msr     BASEPRI, r3
 186              	@ 0 "" 2
 187              		.thumb
 188              	.LBE20:
 189              		.loc 1 146 0
 190 0006 C368     		ldr	r3, [r0, #12]
 191 0008 0139     		subs	r1, r1, #1
 192              	.LVL7:
 193 000a D962     		str	r1, [r3, #44]
 194              	.LBB21:
 195              		.loc 1 147 0
 196 000c 0023     		movs	r3, #0
 197              	@ 147 "../../../ChibiOS/os/hal/src/gpt.c" 1
 198 000e 83F31188 		msr     BASEPRI, r3
 199              	@ 0 "" 2
 200              		.thumb
 201 0012 7047     		bx	lr
 202              	.LBE21:
 203              		.cfi_endproc
 204              	.LFE122:
 205              		.size	gptChangeInterval, .-gptChangeInterval
 206              		.section	.text.gptStartContinuous,"ax",%progbits
 207              		.align	2
 208              		.p2align 4,,15
 209              		.global	gptStartContinuous
 210              		.thumb
 211              		.thumb_func
 212              		.type	gptStartContinuous, %function
 213              	gptStartContinuous:
 214              	.LFB123:
 215              		.loc 1 158 0
 216              		.cfi_startproc
 217              		@ args = 0, pretend = 0, frame = 0
 218              		@ frame_needed = 0, uses_anonymous_args = 0
 219              	.LVL8:
 220 0000 08B5     		push	{r3, lr}
 221              		.cfi_def_cfa_offset 8
 222              		.cfi_offset 3, -8
 223              		.cfi_offset 14, -4
 224              	.LBB22:
 225              		.loc 1 160 0
 226 0002 2023     		movs	r3, #32
 227              	@ 160 "../../../ChibiOS/os/hal/src/gpt.c" 1
 228 0004 83F31188 		msr     BASEPRI, r3
ARM GAS  C:\Users\danit\AppData\Local\Temp\ccVlje1w.s 			page 5


 229              	@ 0 "" 2
 230              	.LVL9:
 231              		.thumb
 232              	.LBE22:
 233              	.LBB23:
 234              	.LBB24:
 235              		.loc 1 180 0
 236 0008 0323     		movs	r3, #3
 237 000a 0370     		strb	r3, [r0]
 238              		.loc 1 181 0
 239 000c FFF7FEFF 		bl	gpt_lld_start_timer
 240              	.LVL10:
 241              	.LBE24:
 242              	.LBE23:
 243              	.LBB25:
 244              		.loc 1 162 0
 245 0010 0023     		movs	r3, #0
 246              	@ 162 "../../../ChibiOS/os/hal/src/gpt.c" 1
 247 0012 83F31188 		msr     BASEPRI, r3
 248              	@ 0 "" 2
 249              		.thumb
 250 0016 08BD     		pop	{r3, pc}
 251              	.LBE25:
 252              		.cfi_endproc
 253              	.LFE123:
 254              		.size	gptStartContinuous, .-gptStartContinuous
 255              		.section	.text.gptStartContinuousI,"ax",%progbits
 256              		.align	2
 257              		.p2align 4,,15
 258              		.global	gptStartContinuousI
 259              		.thumb
 260              		.thumb_func
 261              		.type	gptStartContinuousI, %function
 262              	gptStartContinuousI:
 263              	.LFB124:
 264              		.loc 1 173 0
 265              		.cfi_startproc
 266              		@ args = 0, pretend = 0, frame = 0
 267              		@ frame_needed = 0, uses_anonymous_args = 0
 268              		@ link register save eliminated.
 269              	.LVL11:
 270              		.loc 1 180 0
 271 0000 0323     		movs	r3, #3
 272 0002 0370     		strb	r3, [r0]
 273              		.loc 1 181 0
 274 0004 FFF7FEBF 		b	gpt_lld_start_timer
 275              	.LVL12:
 276              		.cfi_endproc
 277              	.LFE124:
 278              		.size	gptStartContinuousI, .-gptStartContinuousI
 279              		.section	.text.gptStartOneShot,"ax",%progbits
 280              		.align	2
 281              		.p2align 4,,15
 282              		.global	gptStartOneShot
 283              		.thumb
 284              		.thumb_func
 285              		.type	gptStartOneShot, %function
ARM GAS  C:\Users\danit\AppData\Local\Temp\ccVlje1w.s 			page 6


 286              	gptStartOneShot:
 287              	.LFB125:
 288              		.loc 1 192 0
 289              		.cfi_startproc
 290              		@ args = 0, pretend = 0, frame = 0
 291              		@ frame_needed = 0, uses_anonymous_args = 0
 292              	.LVL13:
 293 0000 08B5     		push	{r3, lr}
 294              		.cfi_def_cfa_offset 8
 295              		.cfi_offset 3, -8
 296              		.cfi_offset 14, -4
 297              	.LBB26:
 298              		.loc 1 194 0
 299 0002 2023     		movs	r3, #32
 300              	@ 194 "../../../ChibiOS/os/hal/src/gpt.c" 1
 301 0004 83F31188 		msr     BASEPRI, r3
 302              	@ 0 "" 2
 303              	.LVL14:
 304              		.thumb
 305              	.LBE26:
 306              	.LBB27:
 307              	.LBB28:
 308              		.loc 1 214 0
 309 0008 0423     		movs	r3, #4
 310 000a 0370     		strb	r3, [r0]
 311              		.loc 1 215 0
 312 000c FFF7FEFF 		bl	gpt_lld_start_timer
 313              	.LVL15:
 314              	.LBE28:
 315              	.LBE27:
 316              	.LBB29:
 317              		.loc 1 196 0
 318 0010 0023     		movs	r3, #0
 319              	@ 196 "../../../ChibiOS/os/hal/src/gpt.c" 1
 320 0012 83F31188 		msr     BASEPRI, r3
 321              	@ 0 "" 2
 322              		.thumb
 323 0016 08BD     		pop	{r3, pc}
 324              	.LBE29:
 325              		.cfi_endproc
 326              	.LFE125:
 327              		.size	gptStartOneShot, .-gptStartOneShot
 328              		.section	.text.gptStartOneShotI,"ax",%progbits
 329              		.align	2
 330              		.p2align 4,,15
 331              		.global	gptStartOneShotI
 332              		.thumb
 333              		.thumb_func
 334              		.type	gptStartOneShotI, %function
 335              	gptStartOneShotI:
 336              	.LFB126:
 337              		.loc 1 207 0
 338              		.cfi_startproc
 339              		@ args = 0, pretend = 0, frame = 0
 340              		@ frame_needed = 0, uses_anonymous_args = 0
 341              		@ link register save eliminated.
 342              	.LVL16:
ARM GAS  C:\Users\danit\AppData\Local\Temp\ccVlje1w.s 			page 7


 343              		.loc 1 214 0
 344 0000 0423     		movs	r3, #4
 345 0002 0370     		strb	r3, [r0]
 346              		.loc 1 215 0
 347 0004 FFF7FEBF 		b	gpt_lld_start_timer
 348              	.LVL17:
 349              		.cfi_endproc
 350              	.LFE126:
 351              		.size	gptStartOneShotI, .-gptStartOneShotI
 352              		.section	.text.gptStopTimer,"ax",%progbits
 353              		.align	2
 354              		.p2align 4,,15
 355              		.global	gptStopTimer
 356              		.thumb
 357              		.thumb_func
 358              		.type	gptStopTimer, %function
 359              	gptStopTimer:
 360              	.LFB127:
 361              		.loc 1 225 0
 362              		.cfi_startproc
 363              		@ args = 0, pretend = 0, frame = 0
 364              		@ frame_needed = 0, uses_anonymous_args = 0
 365              	.LVL18:
 366 0000 08B5     		push	{r3, lr}
 367              		.cfi_def_cfa_offset 8
 368              		.cfi_offset 3, -8
 369              		.cfi_offset 14, -4
 370              	.LBB30:
 371              		.loc 1 227 0
 372 0002 2023     		movs	r3, #32
 373              	@ 227 "../../../ChibiOS/os/hal/src/gpt.c" 1
 374 0004 83F31188 		msr     BASEPRI, r3
 375              	@ 0 "" 2
 376              	.LVL19:
 377              		.thumb
 378              	.LBE30:
 379              	.LBB31:
 380              	.LBB32:
 381              		.loc 1 247 0
 382 0008 0223     		movs	r3, #2
 383 000a 0370     		strb	r3, [r0]
 384              		.loc 1 248 0
 385 000c FFF7FEFF 		bl	gpt_lld_stop_timer
 386              	.LVL20:
 387              	.LBE32:
 388              	.LBE31:
 389              	.LBB33:
 390              		.loc 1 229 0
 391 0010 0023     		movs	r3, #0
 392              	@ 229 "../../../ChibiOS/os/hal/src/gpt.c" 1
 393 0012 83F31188 		msr     BASEPRI, r3
 394              	@ 0 "" 2
 395              		.thumb
 396 0016 08BD     		pop	{r3, pc}
 397              	.LBE33:
 398              		.cfi_endproc
 399              	.LFE127:
ARM GAS  C:\Users\danit\AppData\Local\Temp\ccVlje1w.s 			page 8


 400              		.size	gptStopTimer, .-gptStopTimer
 401              		.section	.text.gptStopTimerI,"ax",%progbits
 402              		.align	2
 403              		.p2align 4,,15
 404              		.global	gptStopTimerI
 405              		.thumb
 406              		.thumb_func
 407              		.type	gptStopTimerI, %function
 408              	gptStopTimerI:
 409              	.LFB128:
 410              		.loc 1 239 0
 411              		.cfi_startproc
 412              		@ args = 0, pretend = 0, frame = 0
 413              		@ frame_needed = 0, uses_anonymous_args = 0
 414              		@ link register save eliminated.
 415              	.LVL21:
 416              		.loc 1 247 0
 417 0000 0223     		movs	r3, #2
 418 0002 0370     		strb	r3, [r0]
 419              		.loc 1 248 0
 420 0004 FFF7FEBF 		b	gpt_lld_stop_timer
 421              	.LVL22:
 422              		.cfi_endproc
 423              	.LFE128:
 424              		.size	gptStopTimerI, .-gptStopTimerI
 425              		.section	.text.gptPolledDelay,"ax",%progbits
 426              		.align	2
 427              		.p2align 4,,15
 428              		.global	gptPolledDelay
 429              		.thumb
 430              		.thumb_func
 431              		.type	gptPolledDelay, %function
 432              	gptPolledDelay:
 433              	.LFB129:
 434              		.loc 1 263 0
 435              		.cfi_startproc
 436              		@ args = 0, pretend = 0, frame = 0
 437              		@ frame_needed = 0, uses_anonymous_args = 0
 438              	.LVL23:
 439 0000 10B5     		push	{r4, lr}
 440              		.cfi_def_cfa_offset 8
 441              		.cfi_offset 4, -8
 442              		.cfi_offset 14, -4
 443              		.loc 1 268 0
 444 0002 0423     		movs	r3, #4
 445              		.loc 1 263 0
 446 0004 0446     		mov	r4, r0
 447              		.loc 1 268 0
 448 0006 0370     		strb	r3, [r0]
 449              		.loc 1 269 0
 450 0008 FFF7FEFF 		bl	gpt_lld_polled_delay
 451              	.LVL24:
 452              		.loc 1 270 0
 453 000c 0223     		movs	r3, #2
 454 000e 2370     		strb	r3, [r4]
 455 0010 10BD     		pop	{r4, pc}
 456              		.cfi_endproc
ARM GAS  C:\Users\danit\AppData\Local\Temp\ccVlje1w.s 			page 9


 457              	.LFE129:
 458              		.size	gptPolledDelay, .-gptPolledDelay
 459 0012 00BF     		.text
 460              	.Letext0:
 461              		.file 2 "c:\\program files (x86)\\gnu tools arm embedded\\4.9 2015q2\\arm-none-eabi\\include\\mach
 462              		.file 3 "c:\\program files (x86)\\gnu tools arm embedded\\4.9 2015q2\\arm-none-eabi\\include\\sys\
 463              		.file 4 "../../../ChibiOS/os/hal/include/gpt.h"
 464              		.file 5 "../../../ChibiOS/os/hal/platforms/STM32/TIMv1/gpt_lld.h"
 465              		.file 6 "../../../ChibiOS/os/hal/platforms/STM32/TIMv1/stm32_tim.h"
 466              		.file 7 "../../../ChibiOS/os/ports/common/ARMCMx/CMSIS/include/core_cm4.h"