ARM GAS  C:\Users\danit\AppData\Local\Temp\ccVlje1w.s 			page 1


   1              		.syntax unified
   2              		.cpu cortex-m4
   3              		.fpu softvfp
   4              		.eabi_attribute 20, 1
   5              		.eabi_attribute 21, 1
   6              		.eabi_attribute 23, 3
   7              		.eabi_attribute 24, 1
   8              		.eabi_attribute 25, 1
   9              		.eabi_attribute 26, 1
  10              		.eabi_attribute 30, 2
  11              		.eabi_attribute 34, 1
  12              		.eabi_attribute 18, 4
  13              		.thumb
  14              		.file	"gpt.c"
  15              		.text
  16              	.Ltext0:
  17              		.cfi_sections	.debug_frame
  18              		.section	.text.gptInit,"ax",%progbits
  19              		.align	2
  20              		.p2align 4,,15
  21              		.global	gptInit
  22              		.thumb
  23              		.thumb_func
  24              		.type	gptInit, %function
  25              	gptInit:
  26              	.LFB118:
  27              		.file 1 "../../../ChibiOS/os/hal/src/gpt.c"
  28              		.loc 1 68 0
  29              		.cfi_startproc
  30              		@ args = 0, pretend = 0, frame = 0
  31              		@ frame_needed = 0, uses_anonymous_args = 0
  32              		@ link register save eliminated.
  33              		.loc 1 70 0
  34 0000 FFF7FEBF 		b	gpt_lld_init
  35              	.LVL0:
  36              		.cfi_endproc
  37              	.LFE118:
  38              		.size	gptInit, .-gptInit
  39              		.section	.text.gptObjectInit,"ax",%progbits
  40              		.align	2
  41              		.p2align 4,,15
  42              		.global	gptObjectInit
  43              		.thumb
  44              		.thumb_func
  45              		.type	gptObjectInit, %function
  46              	gptObjectInit:
  47              	.LFB119:
  48              		.loc 1 80 0
  49              		.cfi_startproc
  50              		@ args = 0, pretend = 0, frame = 0
  51              		@ frame_needed = 0, uses_anonymous_args = 0
  52              		@ link register save eliminated.
  53              	.LVL1:
  54              		.loc 1 82 0
  55 0000 0122     		movs	r2, #1
  56              		.loc 1 83 0
  57 0002 0023     		movs	r3, #0
ARM GAS  C:\Users\danit\AppData\Local\Temp\ccVlje1w.s 			page 2


  58              		.loc 1 82 0
  59 0004 0270     		strb	r2, [r0]
  60              		.loc 1 83 0
  61 0006 4360     		str	r3, [r0, #4]
  62 0008 7047     		bx	lr
  63              		.cfi_endproc
  64              	.LFE119:
  65              		.size	gptObjectInit, .-gptObjectInit
  66 000a 00BF     		.section	.text.gptStart,"ax",%progbits
  67              		.align	2
  68              		.p2align 4,,15
  69              		.global	gptStart
  70              		.thumb
  71              		.thumb_func
  72              		.type	gptStart, %function
  73              	gptStart:
  74              	.LFB120:
  75              		.loc 1 94 0
  76              		.cfi_startproc
  77              		@ args = 0, pretend = 0, frame = 0
  78              		@ frame_needed = 0, uses_anonymous_args = 0
  79              	.LVL2:
  80 0000 10B5     		push	{r4, lr}
  81              		.cfi_def_cfa_offset 8
  82              		.cfi_offset 4, -8
  83              		.cfi_offset 14, -4
  84              	.LBB14:
  85              		.loc 1 98 0
  86 0002 2023     		movs	r3, #32
  87              	.LBE14:
  88              		.loc 1 94 0
  89 0004 0446     		mov	r4, r0
  90              	.LBB15:
  91              		.loc 1 98 0
  92              	@ 98 "../../../ChibiOS/os/hal/src/gpt.c" 1
  93 0006 83F31188 		msr     BASEPRI, r3
  94              	@ 0 "" 2
  95              		.thumb
  96              	.LBE15:
  97              		.loc 1 101 0
  98 000a 4160     		str	r1, [r0, #4]
  99              		.loc 1 102 0
 100 000c FFF7FEFF 		bl	gpt_lld_start
 101              	.LVL3:
 102              		.loc 1 103 0
 103 0010 0223     		movs	r3, #2
 104 0012 2370     		strb	r3, [r4]
 105              	.LBB16:
 106              		.loc 1 104 0
 107 0014 0023     		movs	r3, #0
 108              	@ 104 "../../../ChibiOS/os/hal/src/gpt.c" 1
 109 0016 83F31188 		msr     BASEPRI, r3
 110              	@ 0 "" 2
 111              		.thumb
 112 001a 10BD     		pop	{r4, pc}
 113              	.LBE16:
 114              		.cfi_endproc
ARM GAS  C:\Users\danit\AppData\Local\Temp\ccVlje1w.s 			page 3


 115              	.LFE120:
 116              		.size	gptStart, .-gptStart
 117              		.section	.text.gptStop,"ax",%progbits
 118              		.align	2
 119              		.p2align 4,,15
 120              		.global	gptStop
 121              		.thumb
 122              		.thumb_func
 123              		.type	gptStop, %function
 124              	gptStop:
 125              	.LFB121:
 126              		.loc 1 114 0
 127              		.cfi_startproc
 128              		@ args = 0, pretend = 0, frame = 0
 129              		@ frame_needed = 0, uses_anonymous_args = 0
 130              	.LVL4:
 131 0000 10B5     		push	{r4, lr}
 132              		.cfi_def_cfa_offset 8
 133              		.cfi_offset 4, -8
 134              		.cfi_offset 14, -4
 135              	.LBB17:
 136              		.loc 1 118 0
 137 0002 2023     		movs	r3, #32
 138              	.LBE17:
 139              		.loc 1 114 0
 140 0004 0446     		mov	r4, r0
 141              	.LBB18:
 142              		.loc 1 118 0
 143              	@ 118 "../../../ChibiOS/os/hal/src/gpt.c" 1
 144 0006 83F31188 		msr     BASEPRI, r3
 145              	@ 0 "" 2
 146              		.thumb
 147              	.LBE18:
 148              		.loc 1 121 0
 149 000a FFF7FEFF 		bl	gpt_lld_stop
 150              	.LVL5:
 151              		.loc 1 122 0
 152 000e 0123     		movs	r3, #1
 153 0010 2370     		strb	r3, [r4]
 154              	.LBB19:
 155              		.loc 1 123 0
 156 0012 0023     		movs	r3, #0
 157              	@ 123 "../../../ChibiOS/os/hal/src/gpt.c" 1
 158 0014 83F31188 		msr     BASEPRI, r3
 159              	@ 0 "" 2
 160              		.thumb
 161 0018 10BD     		pop	{r4, pc}
 162              	.LBE19:
 163              		.cfi_endproc
 164              	.LFE121:
 165              		.size	gptStop, .-gptStop
 166 001a 00BF     		.section	.text.gptChangeInterval,"ax",%progbits
 167              		.align	2
 168              		.p2align 4,,15
 169              		.global	gptChangeInterval
 170              		.thumb
 171              		.thumb_func
ARM GAS  C:\Users\danit\AppData\Local\Temp\ccVlje1w.s 			page 4


 172              		.type	gptChangeInterval, %function
 173              	gptChangeInterval:
 174              	.LFB122:
 175              		.loc 1 139 0
 176              		.cfi_startproc
 177              		@ args = 0, pretend = 0, frame = 0
 178              		@ frame_needed = 0, uses_anonymous_args = 0
 179              		@ link register save eliminated.
 180              	.LVL6:
 181              	.LBB20:
 182              		.loc 1 143 0
 183 0000 2023     		movs	r3, #32
 184              	@ 143 "../../../ChibiOS/os/hal/src/gpt.c" 1
 185 0002 83F31188 		msr     BASEPRI, r3
 186              	@ 0 "" 2
 187              		.thumb
 188              	.LBE20:
 189              		.loc 1 146 0
 190 0006 C368     		ldr	r3, [r0, #12]
 191 0008 0139     		subs	r1, r1, #1
 192              	.LVL7:
 193 000a D962     		str	r1, [r3, #44]
 194              	.LBB21:
 195              		.loc 1 147 0
 196 000c 0023     		movs	r3, #0
 197              	@ 147 "../../../ChibiOS/os/hal/src/gpt.c" 1
 198 000e 83F31188 		msr     BASEPRI, r3
 199              	@ 0 "" 2
 200              		.thumb
 201 0012 7047     		bx	lr
 202              	.LBE21:
 203              		.cfi_endproc
 204              	.LFE122:
 205              		.size	gptChangeInterval, .-gptChangeInterval
 206              		.section	.text.gptStartContinuous,"ax",%progbits
 207              		.align	2
 208              		.p2align 4,,15
 209              		.global	gptStartContinuous
 210              		.thumb
 211              		.thumb_func
 212              		.type	gptStartContinuous, %function
 213              	gptStartContinuous:
 214              	.LFB123:
 215              		.loc 1 158 0
 216              		.cfi_startproc
 217              		@ args = 0, pretend = 0, frame = 0
 218              		@ frame_needed = 0, uses_anonymous_args = 0
 219              	.LVL8:
 220 0000 08B5     		push	{r3, lr}
 221              		.cfi_def_cfa_offset 8
 222              		.cfi_offset 3, -8
 223              		.cfi_offset 14, -4
 224              	.LBB22:
 225              		.loc 1 160 0
 226 0002 2023     		movs	r3, #32
 227              	@ 160 "../../../ChibiOS/os/hal/src/gpt.c" 1
 228 0004 83F31188 		msr     BASEPRI, r3
ARM GAS  C:\Users\danit\AppData\Local\Temp\ccVlje1w.s 			page 5


 229              	@ 0 "" 2
 230              	.LVL9:
 231              		.thumb
 232              	.LBE22:
 233              	.LBB23:
 234              	.LBB24:
 235              		.loc 1 180 0
 236 0008 0323     		movs	r3, #3
 237 000a 0370     		strb	r3, [r0]
 238              		.loc 1 181 0
 239 000c FFF7FEFF 		bl	gpt_lld_start_timer
 240              	.LVL10:
 241              	.LBE24:
 242              	.LBE23:
 243              	.LBB25:
 244              		.loc 1 162 0
 245 0010 0023     		movs	r3, #0
 246              	@ 162 "../../../ChibiOS/os/hal/src/gpt.c" 1
 247 0012 83F31188 		msr     BASEPRI, r3
 248              	@ 0 "" 2
 249              		.thumb
 250 0016 08BD     		pop	{r3, pc}
 251              	.LBE25:
 252              		.cfi_endproc
 253              	.LFE123:
 254              		.size	gptStartContinuous, .-gptStartContinuous
 255              		.section	.text.gptStartContinuousI,"ax",%progbits
 256              		.align	2
 257              		.p2align 4,,15
 258              		.global	gptStartContinuousI
 259              		.thumb
 260              		.thumb_func
 261              		.type	gptStartContinuousI, %function
 262              	gptStartContinuousI:
 263              	.LFB124:
 264              		.loc 1 173 0
 265              		.cfi_startproc
 266              		@ args = 0, pretend = 0, frame = 0
 267              		@ frame_needed = 0, uses_anonymous_args = 0
 268              		@ link register save eliminated.
 269              	.LVL11:
 270              		.loc 1 180 0
 271 0000 0323     		movs	r3, #3
 272 0002 0370     		strb	r3, [r0]
 273              		.loc 1 181 0
 274 0004 FFF7FEBF 		b	gpt_lld_start_timer
 275              	.LVL12:
 276              		.cfi_endproc
 277              	.LFE124:
 278              		.size	gptStartContinuousI, .-gptStartContinuousI
 279              		.section	.text.gptStartOneShot,"ax",%progbits
 280              		.align	2
 281              		.p2align 4,,15
 282              		.global	gptStartOneShot
 283              		.thumb
 284              		.thumb_func
 285              		.type	gptStartOneShot, %function
ARM GAS  C:\Users\danit\AppData\Local\Temp\ccVlje1w.s 			page 6


 286              	gptStartOneShot:
 287              	.LFB125:
 288              		.loc 1 192 0
 289              		.cfi_startproc
 290              		@ args = 0, pretend = 0, frame = 0
 291              		@ frame_needed = 0, uses_anonymous_args = 0
 292              	.LVL13:
 293 0000 08B5     		push	{r3, lr}
 294              		.cfi_def_cfa_offset 8
 295              		.cfi_offset 3, -8
 296              		.cfi_offset 14, -4
 297              	.LBB26:
 298              		.loc 1 194 0
 299 0002 2023     		movs	r3, #32
 300              	@ 194 "../../../ChibiOS/os/hal/src/gpt.c" 1
 301 0004 83F31188 		msr     BASEPRI, r3
 302              	@ 0 "" 2
 303              	.LVL14:
 304              		.thumb
 305              	.LBE26:
 306              	.LBB27:
 307              	.LBB28:
 308              		.loc 1 214 0
 309 0008 0423     		movs	r3, #4
 310 000a 0370     		strb	r3, [r0]
 311              		.loc 1 215 0
 312 000c FFF7FEFF 		bl	gpt_lld_start_timer
 313              	.LVL15:
 314              	.LBE28:
 315              	.LBE27:
 316              	.LBB29:
 317              		.loc 1 196 0
 318 0010 0023     		movs	r3, #0
 319              	@ 196 "../../../ChibiOS/os/hal/src/gpt.c" 1
 320 0012 83F31188 		msr     BASEPRI, r3
 321              	@ 0 "" 2
 322              		.thumb
 323 0016 08BD     		pop	{r3, pc}
 324              	.LBE29:
 325              		.cfi_endproc
 326              	.LFE125:
 327              		.size	gptStartOneShot, .-gptStartOneShot
 328              		.section	.text.gptStartOneShotI,"ax",%progbits
 329              		.align	2
 330              		.p2align 4,,15
 331              		.global	gptStartOneShotI
 332              		.thumb
 333              		.thumb_func
 334              		.type	gptStartOneShotI, %function
 335              	gptStartOneShotI:
 336              	.LFB126:
 337              		.loc 1 207 0
 338              		.cfi_startproc
 339              		@ args = 0, pretend = 0, frame = 0
 340              		@ frame_needed = 0, uses_anonymous_args = 0
 341              		@ link register save eliminated.
 342              	.LVL16:
ARM GAS  C:\Users\danit\AppData\Local\Temp\ccVlje1w.s 			page 7


 343              		.loc 1 214 0
 344 0000 0423     		movs	r3, #4
 345 0002 0370     		strb	r3, [r0]
 346              		.loc 1 215 0
 347 0004 FFF7FEBF 		b	gpt_lld_start_timer
 348              	.LVL17:
 349              		.cfi_endproc
 350              	.LFE126:
 351              		.size	gptStartOneShotI, .-gptStartOneShotI
 352              		.section	.text.gptStopTimer,"ax",%progbits
 353              		.align	2
 354              		.p2align 4,,15
 355              		.global	gptStopTimer
 356              		.thumb
 357              		.thumb_func
 358              		.type	gptStopTimer, %function
 359              	gptStopTimer:
 360              	.LFB127:
 361              		.loc 1 225 0
 362              		.cfi_startproc
 363              		@ args = 0, pretend = 0, frame = 0
 364              		@ frame_needed = 0, uses_anonymous_args = 0
 365              	.LVL18:
 366 0000 08B5     		push	{r3, lr}
 367              		.cfi_def_cfa_offset 8
 368              		.cfi_offset 3, -8
 369              		.cfi_offset 14, -4
 370              	.LBB30:
 371              		.loc 1 227 0
 372 0002 2023     		movs	r3, #32
 373              	@ 227 "../../../ChibiOS/os/hal/src/gpt.c" 1
 374 0004 83F31188 		msr     BASEPRI, r3
 375              	@ 0 "" 2
 376              	.LVL19:
 377              		.thumb
 378              	.LBE30:
 379              	.LBB31:
 380              	.LBB32:
 381              		.loc 1 247 0
 382 0008 0223     		movs	r3, #2
 383 000a 0370     		strb	r3, [r0]
 384              		.loc 1 248 0
 385 000c FFF7FEFF 		bl	gpt_lld_stop_timer
 386              	.LVL20:
 387              	.LBE32:
 388              	.LBE31:
 389              	.LBB33:
 390              		.loc 1 229 0
 391 0010 0023     		movs	r3, #0
 392              	@ 229 "../../../ChibiOS/os/hal/src/gpt.c" 1
 393 0012 83F31188 		msr     BASEPRI, r3
 394              	@ 0 "" 2
 395              		.thumb
 396 0016 08BD     		pop	{r3, pc}
 397              	.LBE33:
 398              		.cfi_endproc
 399              	.LFE127:
ARM GAS  C:\Users\danit\AppData\Local\Temp\ccVlje1w.s 			page 8


 400              		.size	gptStopTimer, .-gptStopTimer
 401              		.section	.text.gptStopTimerI,"ax",%progbits
 402              		.align	2
 403              		.p2align 4,,15
 404              		.global	gptStopTimerI
 405              		.thumb
 406              		.thumb_func
 407              		.type	gptStopTimerI, %function
 408              	gptStopTimerI:
 409              	.LFB128:
 410              		.loc 1 239 0
 411              		.cfi_startproc
 412              		@ args = 0, pretend = 0, frame = 0
 413              		@ frame_needed = 0, uses_anonymous_args = 0
 414              		@ link register save eliminated.
 415              	.LVL21:
 416              		.loc 1 247 0
 417 0000 0223     		movs	r3, #2
 418 0002 0370     		strb	r3, [r0]
 419              		.loc 1 248 0
 420 0004 FFF7FEBF 		b	gpt_lld_stop_timer
 421              	.LVL22:
 422              		.cfi_endproc
 423              	.LFE128:
 424              		.size	gptStopTimerI, .-gptStopTimerI
 425              		.section	.text.gptPolledDelay,"ax",%progbits
 426              		.align	2
 427              		.p2align 4,,15
 428              		.global	gptPolledDelay
 429              		.thumb
 430              		.thumb_func
 431              		.type	gptPolledDelay, %function
 432              	gptPolledDelay:
 433              	.LFB129:
 434              		.loc 1 263 0
 435              		.cfi_startproc
 436              		@ args = 0, pretend = 0, frame = 0
 437              		@ frame_needed = 0, uses_anonymous_args = 0
 438              	.LVL23:
 439 0000 10B5     		push	{r4, lr}
 440              		.cfi_def_cfa_offset 8
 441              		.cfi_offset 4, -8
 442              		.cfi_offset 14, -4
 443              		.loc 1 268 0
 444 0002 0423     		movs	r3, #4
 445              		.loc 1 263 0
 446 0004 0446     		mov	r4, r0
 447              		.loc 1 268 0
 448 0006 0370     		strb	r3, [r0]
 449              		.loc 1 269 0
 450 0008 FFF7FEFF 		bl	gpt_lld_polled_delay
 451              	.LVL24:
 452              		.loc 1 270 0
 453 000c 0223     		movs	r3, #2
 454 000e 2370     		strb	r3, [r4]
 455 0010 10BD     		pop	{r4, pc}
 456              		.cfi_endproc
ARM GAS  C:\Users\danit\AppData\Local\Temp\ccVlje1w.s 			page 9


 457              	.LFE129:
 458              		.size	gptPolledDelay, .-gptPolledDelay
 459 0012 00BF     		.text
 460              	.Letext0:
 461              		.file 2 "c:\\program files (x86)\\gnu tools arm embedded\\4.9 2015q2\\arm-none-eabi\\include\\mach
 462              		.file 3 "c:\\program files (x86)\\gnu tools arm embedded\\4.9 2015q2\\arm-none-eabi\\include\\sys\
 463              		.file 4 "../../../ChibiOS/os/hal/include/gpt.h"
 464              		.file 5 "../../../ChibiOS/os/hal/platforms/STM32/TIMv1/gpt_lld.h"
 465              		.file 6 "../../../ChibiOS/os/hal/platforms/STM32/TIMv1/stm32_tim.h"
 466              		.file 7 "../../../ChibiOS/os/ports/common/ARMCMx/CMSIS/include/core_cm4.h"
 467              		.section	.debug_info,"",%progbits
 468              	.Ldebug_info0:
 469 0000 0E080000 		.4byte	0x80e
 470 0004 0400     		.2byte	0x4
 471 0006 00000000 		.4byte	.Ldebug_abbrev0
 472 000a 04       		.byte	0x4
 473 000b 01       		.uleb128 0x1
 474 000c 75010000 		.4byte	.LASF62
 475 0010 01       		.byte	0x1
 476 0011 33030000 		.4byte	.LASF63
 477 0015 78020000 		.4byte	.LASF64
 478 0019 30000000 		.4byte	.Ldebug_ranges0+0x30
 479 001d 00000000 		.4byte	0
 480 0021 00000000 		.4byte	.Ldebug_line0
 481 0025 02       		.uleb128 0x2
 482 0026 04       		.byte	0x4
 483 0027 05       		.byte	0x5
 484 0028 696E7400 		.ascii	"int\000"
 485 002c 03       		.uleb128 0x3
 486 002d 04       		.byte	0x4
 487 002e 07       		.byte	0x7
 488 002f 58020000 		.4byte	.LASF0
 489 0033 03       		.uleb128 0x3
 490 0034 01       		.byte	0x1
 491 0035 06       		.byte	0x6
 492 0036 52010000 		.4byte	.LASF1
 493 003a 03       		.uleb128 0x3
 494 003b 01       		.byte	0x1
 495 003c 08       		.byte	0x8
 496 003d 24010000 		.4byte	.LASF2
 497 0041 03       		.uleb128 0x3
 498 0042 02       		.byte	0x2
 499 0043 05       		.byte	0x5
 500 0044 9B000000 		.4byte	.LASF3
 501 0048 03       		.uleb128 0x3
 502 0049 02       		.byte	0x2
 503 004a 07       		.byte	0x7
 504 004b AB020000 		.4byte	.LASF4
 505 004f 04       		.uleb128 0x4
 506 0050 72030000 		.4byte	.LASF6
 507 0054 02       		.byte	0x2
 508 0055 3F       		.byte	0x3f
 509 0056 5A000000 		.4byte	0x5a
 510 005a 03       		.uleb128 0x3
 511 005b 04       		.byte	0x4
 512 005c 05       		.byte	0x5
 513 005d 02010000 		.4byte	.LASF5
ARM GAS  C:\Users\danit\AppData\Local\Temp\ccVlje1w.s 			page 10


 514 0061 04       		.uleb128 0x4
 515 0062 79000000 		.4byte	.LASF7
 516 0066 02       		.byte	0x2
 517 0067 41       		.byte	0x41
 518 0068 6C000000 		.4byte	0x6c
 519 006c 03       		.uleb128 0x3
 520 006d 04       		.byte	0x4
 521 006e 07       		.byte	0x7
 522 006f 05030000 		.4byte	.LASF8
 523 0073 03       		.uleb128 0x3
 524 0074 08       		.byte	0x8
 525 0075 05       		.byte	0x5
 526 0076 D0000000 		.4byte	.LASF9
 527 007a 03       		.uleb128 0x3
 528 007b 08       		.byte	0x8
 529 007c 07       		.byte	0x7
 530 007d 5E010000 		.4byte	.LASF10
 531 0081 04       		.uleb128 0x4
 532 0082 D4020000 		.4byte	.LASF11
 533 0086 03       		.byte	0x3
 534 0087 1F       		.byte	0x1f
 535 0088 4F000000 		.4byte	0x4f
 536 008c 04       		.uleb128 0x4
 537 008d 4F020000 		.4byte	.LASF12
 538 0091 03       		.byte	0x3
 539 0092 20       		.byte	0x20
 540 0093 61000000 		.4byte	0x61
 541 0097 03       		.uleb128 0x3
 542 0098 01       		.byte	0x1
 543 0099 02       		.byte	0x2
 544 009a DC020000 		.4byte	.LASF13
 545 009e 05       		.uleb128 0x5
 546 009f 8C000000 		.4byte	0x8c
 547 00a3 03       		.uleb128 0x3
 548 00a4 04       		.byte	0x4
 549 00a5 07       		.byte	0x7
 550 00a6 4D000000 		.4byte	.LASF14
 551 00aa 03       		.uleb128 0x3
 552 00ab 01       		.byte	0x1
 553 00ac 08       		.byte	0x8
 554 00ad BE020000 		.4byte	.LASF15
 555 00b1 06       		.uleb128 0x6
 556 00b2 8C000000 		.4byte	0x8c
 557 00b6 C1000000 		.4byte	0xc1
 558 00ba 07       		.uleb128 0x7
 559 00bb A3000000 		.4byte	0xa3
 560 00bf 03       		.byte	0x3
 561 00c0 00       		.byte	0
 562 00c1 05       		.uleb128 0x5
 563 00c2 81000000 		.4byte	0x81
 564 00c6 08       		.uleb128 0x8
 565 00c7 01       		.byte	0x1
 566 00c8 04       		.byte	0x4
 567 00c9 3C       		.byte	0x3c
 568 00ca ED000000 		.4byte	0xed
 569 00ce 09       		.uleb128 0x9
 570 00cf 05000000 		.4byte	.LASF16
ARM GAS  C:\Users\danit\AppData\Local\Temp\ccVlje1w.s 			page 11


 571 00d3 00       		.sleb128 0
 572 00d4 09       		.uleb128 0x9
 573 00d5 64030000 		.4byte	.LASF17
 574 00d9 01       		.sleb128 1
 575 00da 09       		.uleb128 0x9
 576 00db F1020000 		.4byte	.LASF18
 577 00df 02       		.sleb128 2
 578 00e0 09       		.uleb128 0x9
 579 00e1 E2020000 		.4byte	.LASF19
 580 00e5 03       		.sleb128 3
 581 00e6 09       		.uleb128 0x9
 582 00e7 AC000000 		.4byte	.LASF20
 583 00eb 04       		.sleb128 4
 584 00ec 00       		.byte	0
 585 00ed 04       		.uleb128 0x4
 586 00ee B8000000 		.4byte	.LASF21
 587 00f2 04       		.byte	0x4
 588 00f3 42       		.byte	0x42
 589 00f4 C6000000 		.4byte	0xc6
 590 00f8 04       		.uleb128 0x4
 591 00f9 FB020000 		.4byte	.LASF22
 592 00fd 04       		.byte	0x4
 593 00fe 47       		.byte	0x47
 594 00ff 03010000 		.4byte	0x103
 595 0103 0A       		.uleb128 0xa
 596 0104 FB020000 		.4byte	.LASF22
 597 0108 10       		.byte	0x10
 598 0109 05       		.byte	0x5
 599 010a 9001     		.2byte	0x190
 600 010c 45010000 		.4byte	0x145
 601 0110 0B       		.uleb128 0xb
 602 0111 15000000 		.4byte	.LASF23
 603 0115 05       		.byte	0x5
 604 0116 9401     		.2byte	0x194
 605 0118 ED000000 		.4byte	0xed
 606 011c 00       		.byte	0
 607 011d 0B       		.uleb128 0xb
 608 011e A5000000 		.4byte	.LASF24
 609 0122 05       		.byte	0x5
 610 0123 9801     		.2byte	0x198
 611 0125 E6020000 		.4byte	0x2e6
 612 0129 04       		.byte	0x4
 613 012a 0B       		.uleb128 0xb
 614 012b 17030000 		.4byte	.LASF25
 615 012f 05       		.byte	0x5
 616 0130 A001     		.2byte	0x1a0
 617 0132 8C000000 		.4byte	0x8c
 618 0136 08       		.byte	0x8
 619 0137 0C       		.uleb128 0xc
 620 0138 74696D00 		.ascii	"tim\000"
 621 013c 05       		.byte	0x5
 622 013d A401     		.2byte	0x1a4
 623 013f F1020000 		.4byte	0x2f1
 624 0143 0C       		.byte	0xc
 625 0144 00       		.byte	0
 626 0145 04       		.uleb128 0x4
 627 0146 56000000 		.4byte	.LASF26
ARM GAS  C:\Users\danit\AppData\Local\Temp\ccVlje1w.s 			page 12


 628 014a 04       		.byte	0x4
 629 014b 4E       		.byte	0x4e
 630 014c 50010000 		.4byte	0x150
 631 0150 0D       		.uleb128 0xd
 632 0151 04       		.byte	0x4
 633 0152 56010000 		.4byte	0x156
 634 0156 0E       		.uleb128 0xe
 635 0157 61010000 		.4byte	0x161
 636 015b 0F       		.uleb128 0xf
 637 015c 61010000 		.4byte	0x161
 638 0160 00       		.byte	0
 639 0161 0D       		.uleb128 0xd
 640 0162 04       		.byte	0x4
 641 0163 F8000000 		.4byte	0xf8
 642 0167 10       		.uleb128 0x10
 643 0168 60       		.byte	0x60
 644 0169 06       		.byte	0x6
 645 016a 9E01     		.2byte	0x19e
 646 016c 80020000 		.4byte	0x280
 647 0170 0C       		.uleb128 0xc
 648 0171 43523100 		.ascii	"CR1\000"
 649 0175 06       		.byte	0x6
 650 0176 9F01     		.2byte	0x19f
 651 0178 9E000000 		.4byte	0x9e
 652 017c 00       		.byte	0
 653 017d 0C       		.uleb128 0xc
 654 017e 43523200 		.ascii	"CR2\000"
 655 0182 06       		.byte	0x6
 656 0183 A001     		.2byte	0x1a0
 657 0185 9E000000 		.4byte	0x9e
 658 0189 04       		.byte	0x4
 659 018a 0B       		.uleb128 0xb
 660 018b 1F010000 		.4byte	.LASF27
 661 018f 06       		.byte	0x6
 662 0190 A101     		.2byte	0x1a1
 663 0192 9E000000 		.4byte	0x9e
 664 0196 08       		.byte	0x8
 665 0197 0B       		.uleb128 0xb
 666 0198 73020000 		.4byte	.LASF28
 667 019c 06       		.byte	0x6
 668 019d A201     		.2byte	0x1a2
 669 019f 9E000000 		.4byte	0x9e
 670 01a3 0C       		.byte	0xc
 671 01a4 0C       		.uleb128 0xc
 672 01a5 535200   		.ascii	"SR\000"
 673 01a8 06       		.byte	0x6
 674 01a9 A301     		.2byte	0x1a3
 675 01ab 9E000000 		.4byte	0x9e
 676 01af 10       		.byte	0x10
 677 01b0 0C       		.uleb128 0xc
 678 01b1 45475200 		.ascii	"EGR\000"
 679 01b5 06       		.byte	0x6
 680 01b6 A401     		.2byte	0x1a4
 681 01b8 9E000000 		.4byte	0x9e
 682 01bc 14       		.byte	0x14
 683 01bd 0B       		.uleb128 0xb
 684 01be 19010000 		.4byte	.LASF29
ARM GAS  C:\Users\danit\AppData\Local\Temp\ccVlje1w.s 			page 13


 685 01c2 06       		.byte	0x6
 686 01c3 A501     		.2byte	0x1a5
 687 01c5 9E000000 		.4byte	0x9e
 688 01c9 18       		.byte	0x18
 689 01ca 0B       		.uleb128 0xb
 690 01cb 1B000000 		.4byte	.LASF30
 691 01cf 06       		.byte	0x6
 692 01d0 A601     		.2byte	0x1a6
 693 01d2 9E000000 		.4byte	0x9e
 694 01d6 1C       		.byte	0x1c
 695 01d7 0B       		.uleb128 0xb
 696 01d8 00000000 		.4byte	.LASF31
 697 01dc 06       		.byte	0x6
 698 01dd A701     		.2byte	0x1a7
 699 01df 9E000000 		.4byte	0x9e
 700 01e3 20       		.byte	0x20
 701 01e4 0C       		.uleb128 0xc
 702 01e5 434E5400 		.ascii	"CNT\000"
 703 01e9 06       		.byte	0x6
 704 01ea A801     		.2byte	0x1a8
 705 01ec 9E000000 		.4byte	0x9e
 706 01f0 24       		.byte	0x24
 707 01f1 0C       		.uleb128 0xc
 708 01f2 50534300 		.ascii	"PSC\000"
 709 01f6 06       		.byte	0x6
 710 01f7 A901     		.2byte	0x1a9
 711 01f9 9E000000 		.4byte	0x9e
 712 01fd 28       		.byte	0x28
 713 01fe 0C       		.uleb128 0xc
 714 01ff 41525200 		.ascii	"ARR\000"
 715 0203 06       		.byte	0x6
 716 0204 AA01     		.2byte	0x1aa
 717 0206 9E000000 		.4byte	0x9e
 718 020a 2C       		.byte	0x2c
 719 020b 0C       		.uleb128 0xc
 720 020c 52435200 		.ascii	"RCR\000"
 721 0210 06       		.byte	0x6
 722 0211 AB01     		.2byte	0x1ab
 723 0213 9E000000 		.4byte	0x9e
 724 0217 30       		.byte	0x30
 725 0218 0C       		.uleb128 0xc
 726 0219 43435200 		.ascii	"CCR\000"
 727 021d 06       		.byte	0x6
 728 021e AC01     		.2byte	0x1ac
 729 0220 80020000 		.4byte	0x280
 730 0224 34       		.byte	0x34
 731 0225 0B       		.uleb128 0xb
 732 0226 CF020000 		.4byte	.LASF32
 733 022a 06       		.byte	0x6
 734 022b AD01     		.2byte	0x1ad
 735 022d 9E000000 		.4byte	0x9e
 736 0231 44       		.byte	0x44
 737 0232 0C       		.uleb128 0xc
 738 0233 44435200 		.ascii	"DCR\000"
 739 0237 06       		.byte	0x6
 740 0238 AE01     		.2byte	0x1ae
 741 023a 9E000000 		.4byte	0x9e
ARM GAS  C:\Users\danit\AppData\Local\Temp\ccVlje1w.s 			page 14


 742 023e 48       		.byte	0x48
 743 023f 0B       		.uleb128 0xb
 744 0240 10000000 		.4byte	.LASF33
 745 0244 06       		.byte	0x6
 746 0245 AF01     		.2byte	0x1af
 747 0247 9E000000 		.4byte	0x9e
 748 024b 4C       		.byte	0x4c
 749 024c 0C       		.uleb128 0xc
 750 024d 4F5200   		.ascii	"OR\000"
 751 0250 06       		.byte	0x6
 752 0251 B001     		.2byte	0x1b0
 753 0253 9E000000 		.4byte	0x9e
 754 0257 50       		.byte	0x50
 755 0258 0B       		.uleb128 0xb
 756 0259 21000000 		.4byte	.LASF34
 757 025d 06       		.byte	0x6
 758 025e B101     		.2byte	0x1b1
 759 0260 9E000000 		.4byte	0x9e
 760 0264 54       		.byte	0x54
 761 0265 0B       		.uleb128 0xb
 762 0266 3A010000 		.4byte	.LASF35
 763 026a 06       		.byte	0x6
 764 026b B201     		.2byte	0x1b2
 765 026d 9E000000 		.4byte	0x9e
 766 0271 58       		.byte	0x58
 767 0272 0B       		.uleb128 0xb
 768 0273 14010000 		.4byte	.LASF36
 769 0277 06       		.byte	0x6
 770 0278 B301     		.2byte	0x1b3
 771 027a 9E000000 		.4byte	0x9e
 772 027e 5C       		.byte	0x5c
 773 027f 00       		.byte	0
 774 0280 05       		.uleb128 0x5
 775 0281 B1000000 		.4byte	0xb1
 776 0285 11       		.uleb128 0x11
 777 0286 C3020000 		.4byte	.LASF37
 778 028a 06       		.byte	0x6
 779 028b B401     		.2byte	0x1b4
 780 028d 67010000 		.4byte	0x167
 781 0291 11       		.uleb128 0x11
 782 0292 E1030000 		.4byte	.LASF38
 783 0296 05       		.byte	0x5
 784 0297 6D01     		.2byte	0x16d
 785 0299 8C000000 		.4byte	0x8c
 786 029d 11       		.uleb128 0x11
 787 029e 84000000 		.4byte	.LASF39
 788 02a2 05       		.byte	0x5
 789 02a3 7201     		.2byte	0x172
 790 02a5 8C000000 		.4byte	0x8c
 791 02a9 10       		.uleb128 0x10
 792 02aa 0C       		.byte	0xc
 793 02ab 05       		.byte	0x5
 794 02ac 7801     		.2byte	0x178
 795 02ae DA020000 		.4byte	0x2da
 796 02b2 0B       		.uleb128 0xb
 797 02b3 A9030000 		.4byte	.LASF40
 798 02b7 05       		.byte	0x5
ARM GAS  C:\Users\danit\AppData\Local\Temp\ccVlje1w.s 			page 15


 799 02b8 7E01     		.2byte	0x17e
 800 02ba 91020000 		.4byte	0x291
 801 02be 00       		.byte	0
 802 02bf 0B       		.uleb128 0xb
 803 02c0 F3030000 		.4byte	.LASF41
 804 02c4 05       		.byte	0x5
 805 02c5 8301     		.2byte	0x183
 806 02c7 45010000 		.4byte	0x145
 807 02cb 04       		.byte	0x4
 808 02cc 0B       		.uleb128 0xb
 809 02cd 97030000 		.4byte	.LASF42
 810 02d1 05       		.byte	0x5
 811 02d2 8A01     		.2byte	0x18a
 812 02d4 8C000000 		.4byte	0x8c
 813 02d8 08       		.byte	0x8
 814 02d9 00       		.byte	0
 815 02da 11       		.uleb128 0x11
 816 02db 7C030000 		.4byte	.LASF43
 817 02df 05       		.byte	0x5
 818 02e0 8B01     		.2byte	0x18b
 819 02e2 A9020000 		.4byte	0x2a9
 820 02e6 0D       		.uleb128 0xd
 821 02e7 04       		.byte	0x4
 822 02e8 EC020000 		.4byte	0x2ec
 823 02ec 12       		.uleb128 0x12
 824 02ed DA020000 		.4byte	0x2da
 825 02f1 0D       		.uleb128 0xd
 826 02f2 04       		.byte	0x4
 827 02f3 85020000 		.4byte	0x285
 828 02f7 13       		.uleb128 0x13
 829 02f8 EE000000 		.4byte	.LASF46
 830 02fc 01       		.byte	0x1
 831 02fd AD       		.byte	0xad
 832 02fe 01       		.byte	0x1
 833 02ff 1A030000 		.4byte	0x31a
 834 0303 14       		.uleb128 0x14
 835 0304 6D030000 		.4byte	.LASF44
 836 0308 01       		.byte	0x1
 837 0309 AD       		.byte	0xad
 838 030a 61010000 		.4byte	0x161
 839 030e 14       		.uleb128 0x14
 840 030f 1D030000 		.4byte	.LASF45
 841 0313 01       		.byte	0x1
 842 0314 AD       		.byte	0xad
 843 0315 9D020000 		.4byte	0x29d
 844 0319 00       		.byte	0
 845 031a 13       		.uleb128 0x13
 846 031b 86030000 		.4byte	.LASF47
 847 031f 01       		.byte	0x1
 848 0320 CF       		.byte	0xcf
 849 0321 01       		.byte	0x1
 850 0322 3D030000 		.4byte	0x33d
 851 0326 14       		.uleb128 0x14
 852 0327 6D030000 		.4byte	.LASF44
 853 032b 01       		.byte	0x1
 854 032c CF       		.byte	0xcf
 855 032d 61010000 		.4byte	0x161
ARM GAS  C:\Users\danit\AppData\Local\Temp\ccVlje1w.s 			page 16


 856 0331 14       		.uleb128 0x14
 857 0332 1D030000 		.4byte	.LASF45
 858 0336 01       		.byte	0x1
 859 0337 CF       		.byte	0xcf
 860 0338 9D020000 		.4byte	0x29d
 861 033c 00       		.byte	0
 862 033d 13       		.uleb128 0x13
 863 033e 8D000000 		.4byte	.LASF48
 864 0342 01       		.byte	0x1
 865 0343 EF       		.byte	0xef
 866 0344 01       		.byte	0x1
 867 0345 55030000 		.4byte	0x355
 868 0349 14       		.uleb128 0x14
 869 034a 6D030000 		.4byte	.LASF44
 870 034e 01       		.byte	0x1
 871 034f EF       		.byte	0xef
 872 0350 61010000 		.4byte	0x161
 873 0354 00       		.byte	0
 874 0355 15       		.uleb128 0x15
 875 0356 32010000 		.4byte	.LASF49
 876 035a 01       		.byte	0x1
 877 035b 44       		.byte	0x44
 878 035c 00000000 		.4byte	.LFB118
 879 0360 04000000 		.4byte	.LFE118-.LFB118
 880 0364 01       		.uleb128 0x1
 881 0365 9C       		.byte	0x9c
 882 0366 74030000 		.4byte	0x374
 883 036a 16       		.uleb128 0x16
 884 036b 04000000 		.4byte	.LVL0
 885 036f A9070000 		.4byte	0x7a9
 886 0373 00       		.byte	0
 887 0374 15       		.uleb128 0x15
 888 0375 C6030000 		.4byte	.LASF50
 889 0379 01       		.byte	0x1
 890 037a 50       		.byte	0x50
 891 037b 00000000 		.4byte	.LFB119
 892 037f 0A000000 		.4byte	.LFE119-.LFB119
 893 0383 01       		.uleb128 0x1
 894 0384 9C       		.byte	0x9c
 895 0385 97030000 		.4byte	0x397
 896 0389 17       		.uleb128 0x17
 897 038a 6D030000 		.4byte	.LASF44
 898 038e 01       		.byte	0x1
 899 038f 50       		.byte	0x50
 900 0390 61010000 		.4byte	0x161
 901 0394 01       		.uleb128 0x1
 902 0395 50       		.byte	0x50
 903 0396 00       		.byte	0
 904 0397 15       		.uleb128 0x15
 905 0398 0B010000 		.4byte	.LASF51
 906 039c 01       		.byte	0x1
 907 039d 5E       		.byte	0x5e
 908 039e 00000000 		.4byte	.LFB120
 909 03a2 1C000000 		.4byte	.LFE120-.LFB120
 910 03a6 01       		.uleb128 0x1
 911 03a7 9C       		.byte	0x9c
 912 03a8 0D040000 		.4byte	0x40d
ARM GAS  C:\Users\danit\AppData\Local\Temp\ccVlje1w.s 			page 17


 913 03ac 18       		.uleb128 0x18
 914 03ad 6D030000 		.4byte	.LASF44
 915 03b1 01       		.byte	0x1
 916 03b2 5E       		.byte	0x5e
 917 03b3 61010000 		.4byte	0x161
 918 03b7 00000000 		.4byte	.LLST0
 919 03bb 18       		.uleb128 0x18
 920 03bc A5000000 		.4byte	.LASF24
 921 03c0 01       		.byte	0x1
 922 03c1 5E       		.byte	0x5e
 923 03c2 E6020000 		.4byte	0x2e6
 924 03c6 1E000000 		.4byte	.LLST1
 925 03ca 19       		.uleb128 0x19
 926 03cb 00000000 		.4byte	.Ldebug_ranges0+0
 927 03cf E1030000 		.4byte	0x3e1
 928 03d3 1A       		.uleb128 0x1a
 929 03d4 746D7000 		.ascii	"tmp\000"
 930 03d8 01       		.byte	0x1
 931 03d9 62       		.byte	0x62
 932 03da 8C000000 		.4byte	0x8c
 933 03de 01       		.uleb128 0x1
 934 03df 53       		.byte	0x53
 935 03e0 00       		.byte	0
 936 03e1 1B       		.uleb128 0x1b
 937 03e2 14000000 		.4byte	.LBB16
 938 03e6 08000000 		.4byte	.LBE16-.LBB16
 939 03ea FC030000 		.4byte	0x3fc
 940 03ee 1A       		.uleb128 0x1a
 941 03ef 746D7000 		.ascii	"tmp\000"
 942 03f3 01       		.byte	0x1
 943 03f4 68       		.byte	0x68
 944 03f5 8C000000 		.4byte	0x8c
 945 03f9 01       		.uleb128 0x1
 946 03fa 53       		.byte	0x53
 947 03fb 00       		.byte	0
 948 03fc 1C       		.uleb128 0x1c
 949 03fd 10000000 		.4byte	.LVL3
 950 0401 B1070000 		.4byte	0x7b1
 951 0405 1D       		.uleb128 0x1d
 952 0406 01       		.uleb128 0x1
 953 0407 50       		.byte	0x50
 954 0408 02       		.uleb128 0x2
 955 0409 74       		.byte	0x74
 956 040a 00       		.sleb128 0
 957 040b 00       		.byte	0
 958 040c 00       		.byte	0
 959 040d 15       		.uleb128 0x15
 960 040e EB030000 		.4byte	.LASF52
 961 0412 01       		.byte	0x1
 962 0413 72       		.byte	0x72
 963 0414 00000000 		.4byte	.LFB121
 964 0418 1A000000 		.4byte	.LFE121-.LFB121
 965 041c 01       		.uleb128 0x1
 966 041d 9C       		.byte	0x9c
 967 041e 74040000 		.4byte	0x474
 968 0422 18       		.uleb128 0x18
 969 0423 6D030000 		.4byte	.LASF44
ARM GAS  C:\Users\danit\AppData\Local\Temp\ccVlje1w.s 			page 18


 970 0427 01       		.byte	0x1
 971 0428 72       		.byte	0x72
 972 0429 61010000 		.4byte	0x161
 973 042d 3F000000 		.4byte	.LLST2
 974 0431 19       		.uleb128 0x19
 975 0432 18000000 		.4byte	.Ldebug_ranges0+0x18
 976 0436 48040000 		.4byte	0x448
 977 043a 1A       		.uleb128 0x1a
 978 043b 746D7000 		.ascii	"tmp\000"
 979 043f 01       		.byte	0x1
 980 0440 76       		.byte	0x76
 981 0441 8C000000 		.4byte	0x8c
 982 0445 01       		.uleb128 0x1
 983 0446 53       		.byte	0x53
 984 0447 00       		.byte	0
 985 0448 1B       		.uleb128 0x1b
 986 0449 12000000 		.4byte	.LBB19
 987 044d 08000000 		.4byte	.LBE19-.LBB19
 988 0451 63040000 		.4byte	0x463
 989 0455 1A       		.uleb128 0x1a
 990 0456 746D7000 		.ascii	"tmp\000"
 991 045a 01       		.byte	0x1
 992 045b 7B       		.byte	0x7b
 993 045c 8C000000 		.4byte	0x8c
 994 0460 01       		.uleb128 0x1
 995 0461 53       		.byte	0x53
 996 0462 00       		.byte	0
 997 0463 1C       		.uleb128 0x1c
 998 0464 0E000000 		.4byte	.LVL5
 999 0468 C3070000 		.4byte	0x7c3
 1000 046c 1D       		.uleb128 0x1d
 1001 046d 01       		.uleb128 0x1
 1002 046e 50       		.byte	0x50
 1003 046f 02       		.uleb128 0x2
 1004 0470 74       		.byte	0x74
 1005 0471 00       		.sleb128 0
 1006 0472 00       		.byte	0
 1007 0473 00       		.byte	0
 1008 0474 15       		.uleb128 0x15
 1009 0475 3B000000 		.4byte	.LASF53
 1010 0479 01       		.byte	0x1
 1011 047a 8B       		.byte	0x8b
 1012 047b 00000000 		.4byte	.LFB122
 1013 047f 14000000 		.4byte	.LFE122-.LFB122
 1014 0483 01       		.uleb128 0x1
 1015 0484 9C       		.byte	0x9c
 1016 0485 D8040000 		.4byte	0x4d8
 1017 0489 17       		.uleb128 0x17
 1018 048a 6D030000 		.4byte	.LASF44
 1019 048e 01       		.byte	0x1
 1020 048f 8B       		.byte	0x8b
 1021 0490 61010000 		.4byte	0x161
 1022 0494 01       		.uleb128 0x1
 1023 0495 50       		.byte	0x50
 1024 0496 18       		.uleb128 0x18
 1025 0497 1D030000 		.4byte	.LASF45
 1026 049b 01       		.byte	0x1
ARM GAS  C:\Users\danit\AppData\Local\Temp\ccVlje1w.s 			page 19


 1027 049c 8B       		.byte	0x8b
 1028 049d 9D020000 		.4byte	0x29d
 1029 04a1 5D000000 		.4byte	.LLST3
 1030 04a5 1B       		.uleb128 0x1b
 1031 04a6 00000000 		.4byte	.LBB20
 1032 04aa 06000000 		.4byte	.LBE20-.LBB20
 1033 04ae C0040000 		.4byte	0x4c0
 1034 04b2 1A       		.uleb128 0x1a
 1035 04b3 746D7000 		.ascii	"tmp\000"
 1036 04b7 01       		.byte	0x1
 1037 04b8 8F       		.byte	0x8f
 1038 04b9 8C000000 		.4byte	0x8c
 1039 04bd 01       		.uleb128 0x1
 1040 04be 53       		.byte	0x53
 1041 04bf 00       		.byte	0
 1042 04c0 1E       		.uleb128 0x1e
 1043 04c1 0C000000 		.4byte	.LBB21
 1044 04c5 08000000 		.4byte	.LBE21-.LBB21
 1045 04c9 1A       		.uleb128 0x1a
 1046 04ca 746D7000 		.ascii	"tmp\000"
 1047 04ce 01       		.byte	0x1
 1048 04cf 93       		.byte	0x93
 1049 04d0 8C000000 		.4byte	0x8c
 1050 04d4 01       		.uleb128 0x1
 1051 04d5 53       		.byte	0x53
 1052 04d6 00       		.byte	0
 1053 04d7 00       		.byte	0
 1054 04d8 15       		.uleb128 0x15
 1055 04d9 3F010000 		.4byte	.LASF54
 1056 04dd 01       		.byte	0x1
 1057 04de 9E       		.byte	0x9e
 1058 04df 00000000 		.4byte	.LFB123
 1059 04e3 18000000 		.4byte	.LFE123-.LFB123
 1060 04e7 01       		.uleb128 0x1
 1061 04e8 9C       		.byte	0x9c
 1062 04e9 7C050000 		.4byte	0x57c
 1063 04ed 18       		.uleb128 0x18
 1064 04ee 6D030000 		.4byte	.LASF44
 1065 04f2 01       		.byte	0x1
 1066 04f3 9E       		.byte	0x9e
 1067 04f4 61010000 		.4byte	0x161
 1068 04f8 7D000000 		.4byte	.LLST4
 1069 04fc 18       		.uleb128 0x18
 1070 04fd 1D030000 		.4byte	.LASF45
 1071 0501 01       		.byte	0x1
 1072 0502 9E       		.byte	0x9e
 1073 0503 9D020000 		.4byte	0x29d
 1074 0507 9E000000 		.4byte	.LLST5
 1075 050b 1B       		.uleb128 0x1b
 1076 050c 02000000 		.4byte	.LBB22
 1077 0510 06000000 		.4byte	.LBE22-.LBB22
 1078 0514 26050000 		.4byte	0x526
 1079 0518 1A       		.uleb128 0x1a
 1080 0519 746D7000 		.ascii	"tmp\000"
 1081 051d 01       		.byte	0x1
 1082 051e A0       		.byte	0xa0
 1083 051f 8C000000 		.4byte	0x8c
ARM GAS  C:\Users\danit\AppData\Local\Temp\ccVlje1w.s 			page 20


 1084 0523 01       		.uleb128 0x1
 1085 0524 53       		.byte	0x53
 1086 0525 00       		.byte	0
 1087 0526 1F       		.uleb128 0x1f
 1088 0527 F7020000 		.4byte	0x2f7
 1089 052b 08000000 		.4byte	.LBB23
 1090 052f 08000000 		.4byte	.LBE23-.LBB23
 1091 0533 01       		.byte	0x1
 1092 0534 A1       		.byte	0xa1
 1093 0535 64050000 		.4byte	0x564
 1094 0539 20       		.uleb128 0x20
 1095 053a 0E030000 		.4byte	0x30e
 1096 053e BF000000 		.4byte	.LLST6
 1097 0542 20       		.uleb128 0x20
 1098 0543 03030000 		.4byte	0x303
 1099 0547 E0000000 		.4byte	.LLST7
 1100 054b 1C       		.uleb128 0x1c
 1101 054c 10000000 		.4byte	.LVL10
 1102 0550 D5070000 		.4byte	0x7d5
 1103 0554 1D       		.uleb128 0x1d
 1104 0555 01       		.uleb128 0x1
 1105 0556 51       		.byte	0x51
 1106 0557 03       		.uleb128 0x3
 1107 0558 F3       		.byte	0xf3
 1108 0559 01       		.uleb128 0x1
 1109 055a 51       		.byte	0x51
 1110 055b 1D       		.uleb128 0x1d
 1111 055c 01       		.uleb128 0x1
 1112 055d 50       		.byte	0x50
 1113 055e 03       		.uleb128 0x3
 1114 055f F3       		.byte	0xf3
 1115 0560 01       		.uleb128 0x1
 1116 0561 50       		.byte	0x50
 1117 0562 00       		.byte	0
 1118 0563 00       		.byte	0
 1119 0564 1E       		.uleb128 0x1e
 1120 0565 10000000 		.4byte	.LBB25
 1121 0569 08000000 		.4byte	.LBE25-.LBB25
 1122 056d 1A       		.uleb128 0x1a
 1123 056e 746D7000 		.ascii	"tmp\000"
 1124 0572 01       		.byte	0x1
 1125 0573 A2       		.byte	0xa2
 1126 0574 8C000000 		.4byte	0x8c
 1127 0578 01       		.uleb128 0x1
 1128 0579 53       		.byte	0x53
 1129 057a 00       		.byte	0
 1130 057b 00       		.byte	0
 1131 057c 21       		.uleb128 0x21
 1132 057d F7020000 		.4byte	0x2f7
 1133 0581 00000000 		.4byte	.LFB124
 1134 0585 08000000 		.4byte	.LFE124-.LFB124
 1135 0589 01       		.uleb128 0x1
 1136 058a 9C       		.byte	0x9c
 1137 058b BA050000 		.4byte	0x5ba
 1138 058f 20       		.uleb128 0x20
 1139 0590 03030000 		.4byte	0x303
 1140 0594 01010000 		.4byte	.LLST8
ARM GAS  C:\Users\danit\AppData\Local\Temp\ccVlje1w.s 			page 21


 1141 0598 20       		.uleb128 0x20
 1142 0599 0E030000 		.4byte	0x30e
 1143 059d 22010000 		.4byte	.LLST9
 1144 05a1 22       		.uleb128 0x22
 1145 05a2 08000000 		.4byte	.LVL12
 1146 05a6 D5070000 		.4byte	0x7d5
 1147 05aa 1D       		.uleb128 0x1d
 1148 05ab 01       		.uleb128 0x1
 1149 05ac 51       		.byte	0x51
 1150 05ad 03       		.uleb128 0x3
 1151 05ae F3       		.byte	0xf3
 1152 05af 01       		.uleb128 0x1
 1153 05b0 51       		.byte	0x51
 1154 05b1 1D       		.uleb128 0x1d
 1155 05b2 01       		.uleb128 0x1
 1156 05b3 50       		.byte	0x50
 1157 05b4 03       		.uleb128 0x3
 1158 05b5 F3       		.byte	0xf3
 1159 05b6 01       		.uleb128 0x1
 1160 05b7 50       		.byte	0x50
 1161 05b8 00       		.byte	0
 1162 05b9 00       		.byte	0
 1163 05ba 15       		.uleb128 0x15
 1164 05bb DE000000 		.4byte	.LASF55
 1165 05bf 01       		.byte	0x1
 1166 05c0 C0       		.byte	0xc0
 1167 05c1 00000000 		.4byte	.LFB125
 1168 05c5 18000000 		.4byte	.LFE125-.LFB125
 1169 05c9 01       		.uleb128 0x1
 1170 05ca 9C       		.byte	0x9c
 1171 05cb 5E060000 		.4byte	0x65e
 1172 05cf 18       		.uleb128 0x18
 1173 05d0 6D030000 		.4byte	.LASF44
 1174 05d4 01       		.byte	0x1
 1175 05d5 C0       		.byte	0xc0
 1176 05d6 61010000 		.4byte	0x161
 1177 05da 43010000 		.4byte	.LLST10
 1178 05de 18       		.uleb128 0x18
 1179 05df 1D030000 		.4byte	.LASF45
 1180 05e3 01       		.byte	0x1
 1181 05e4 C0       		.byte	0xc0
 1182 05e5 9D020000 		.4byte	0x29d
 1183 05e9 64010000 		.4byte	.LLST11
 1184 05ed 1B       		.uleb128 0x1b
 1185 05ee 02000000 		.4byte	.LBB26
 1186 05f2 06000000 		.4byte	.LBE26-.LBB26
 1187 05f6 08060000 		.4byte	0x608
 1188 05fa 1A       		.uleb128 0x1a
 1189 05fb 746D7000 		.ascii	"tmp\000"
 1190 05ff 01       		.byte	0x1
 1191 0600 C2       		.byte	0xc2
 1192 0601 8C000000 		.4byte	0x8c
 1193 0605 01       		.uleb128 0x1
 1194 0606 53       		.byte	0x53
 1195 0607 00       		.byte	0
 1196 0608 1F       		.uleb128 0x1f
 1197 0609 1A030000 		.4byte	0x31a
ARM GAS  C:\Users\danit\AppData\Local\Temp\ccVlje1w.s 			page 22


 1198 060d 08000000 		.4byte	.LBB27
 1199 0611 08000000 		.4byte	.LBE27-.LBB27
 1200 0615 01       		.byte	0x1
 1201 0616 C3       		.byte	0xc3
 1202 0617 46060000 		.4byte	0x646
 1203 061b 20       		.uleb128 0x20
 1204 061c 31030000 		.4byte	0x331
 1205 0620 85010000 		.4byte	.LLST12
 1206 0624 20       		.uleb128 0x20
 1207 0625 26030000 		.4byte	0x326
 1208 0629 A6010000 		.4byte	.LLST13
 1209 062d 1C       		.uleb128 0x1c
 1210 062e 10000000 		.4byte	.LVL15
 1211 0632 D5070000 		.4byte	0x7d5
 1212 0636 1D       		.uleb128 0x1d
 1213 0637 01       		.uleb128 0x1
 1214 0638 51       		.byte	0x51
 1215 0639 03       		.uleb128 0x3
 1216 063a F3       		.byte	0xf3
 1217 063b 01       		.uleb128 0x1
 1218 063c 51       		.byte	0x51
 1219 063d 1D       		.uleb128 0x1d
 1220 063e 01       		.uleb128 0x1
 1221 063f 50       		.byte	0x50
 1222 0640 03       		.uleb128 0x3
 1223 0641 F3       		.byte	0xf3
 1224 0642 01       		.uleb128 0x1
 1225 0643 50       		.byte	0x50
 1226 0644 00       		.byte	0
 1227 0645 00       		.byte	0
 1228 0646 1E       		.uleb128 0x1e
 1229 0647 10000000 		.4byte	.LBB29
 1230 064b 08000000 		.4byte	.LBE29-.LBB29
 1231 064f 1A       		.uleb128 0x1a
 1232 0650 746D7000 		.ascii	"tmp\000"
 1233 0654 01       		.byte	0x1
 1234 0655 C4       		.byte	0xc4
 1235 0656 8C000000 		.4byte	0x8c
 1236 065a 01       		.uleb128 0x1
 1237 065b 53       		.byte	0x53
 1238 065c 00       		.byte	0
 1239 065d 00       		.byte	0
 1240 065e 21       		.uleb128 0x21
 1241 065f 1A030000 		.4byte	0x31a
 1242 0663 00000000 		.4byte	.LFB126
 1243 0667 08000000 		.4byte	.LFE126-.LFB126
 1244 066b 01       		.uleb128 0x1
 1245 066c 9C       		.byte	0x9c
 1246 066d 9C060000 		.4byte	0x69c
 1247 0671 20       		.uleb128 0x20
 1248 0672 26030000 		.4byte	0x326
 1249 0676 C7010000 		.4byte	.LLST14
 1250 067a 20       		.uleb128 0x20
 1251 067b 31030000 		.4byte	0x331
 1252 067f E8010000 		.4byte	.LLST15
 1253 0683 22       		.uleb128 0x22
 1254 0684 08000000 		.4byte	.LVL17
ARM GAS  C:\Users\danit\AppData\Local\Temp\ccVlje1w.s 			page 23


 1255 0688 D5070000 		.4byte	0x7d5
 1256 068c 1D       		.uleb128 0x1d
 1257 068d 01       		.uleb128 0x1
 1258 068e 51       		.byte	0x51
 1259 068f 03       		.uleb128 0x3
 1260 0690 F3       		.byte	0xf3
 1261 0691 01       		.uleb128 0x1
 1262 0692 51       		.byte	0x51
 1263 0693 1D       		.uleb128 0x1d
 1264 0694 01       		.uleb128 0x1
 1265 0695 50       		.byte	0x50
 1266 0696 03       		.uleb128 0x3
 1267 0697 F3       		.byte	0xf3
 1268 0698 01       		.uleb128 0x1
 1269 0699 50       		.byte	0x50
 1270 069a 00       		.byte	0
 1271 069b 00       		.byte	0
 1272 069c 15       		.uleb128 0x15
 1273 069d 9C030000 		.4byte	.LASF56
 1274 06a1 01       		.byte	0x1
 1275 06a2 E1       		.byte	0xe1
 1276 06a3 00000000 		.4byte	.LFB127
 1277 06a7 18000000 		.4byte	.LFE127-.LFB127
 1278 06ab 01       		.uleb128 0x1
 1279 06ac 9C       		.byte	0x9c
 1280 06ad 21070000 		.4byte	0x721
 1281 06b1 18       		.uleb128 0x18
 1282 06b2 6D030000 		.4byte	.LASF44
 1283 06b6 01       		.byte	0x1
 1284 06b7 E1       		.byte	0xe1
 1285 06b8 61010000 		.4byte	0x161
 1286 06bc 09020000 		.4byte	.LLST16
 1287 06c0 1B       		.uleb128 0x1b
 1288 06c1 02000000 		.4byte	.LBB30
 1289 06c5 06000000 		.4byte	.LBE30-.LBB30
 1290 06c9 DB060000 		.4byte	0x6db
 1291 06cd 1A       		.uleb128 0x1a
 1292 06ce 746D7000 		.ascii	"tmp\000"
 1293 06d2 01       		.byte	0x1
 1294 06d3 E3       		.byte	0xe3
 1295 06d4 8C000000 		.4byte	0x8c
 1296 06d8 01       		.uleb128 0x1
 1297 06d9 53       		.byte	0x53
 1298 06da 00       		.byte	0
 1299 06db 1F       		.uleb128 0x1f
 1300 06dc 3D030000 		.4byte	0x33d
 1301 06e0 08000000 		.4byte	.LBB31
 1302 06e4 08000000 		.4byte	.LBE31-.LBB31
 1303 06e8 01       		.byte	0x1
 1304 06e9 E4       		.byte	0xe4
 1305 06ea 09070000 		.4byte	0x709
 1306 06ee 20       		.uleb128 0x20
 1307 06ef 49030000 		.4byte	0x349
 1308 06f3 2A020000 		.4byte	.LLST17
 1309 06f7 1C       		.uleb128 0x1c
 1310 06f8 10000000 		.4byte	.LVL20
 1311 06fc EC070000 		.4byte	0x7ec
ARM GAS  C:\Users\danit\AppData\Local\Temp\ccVlje1w.s 			page 24


 1312 0700 1D       		.uleb128 0x1d
 1313 0701 01       		.uleb128 0x1
 1314 0702 50       		.byte	0x50
 1315 0703 03       		.uleb128 0x3
 1316 0704 F3       		.byte	0xf3
 1317 0705 01       		.uleb128 0x1
 1318 0706 50       		.byte	0x50
 1319 0707 00       		.byte	0
 1320 0708 00       		.byte	0
 1321 0709 1E       		.uleb128 0x1e
 1322 070a 10000000 		.4byte	.LBB33
 1323 070e 08000000 		.4byte	.LBE33-.LBB33
 1324 0712 1A       		.uleb128 0x1a
 1325 0713 746D7000 		.ascii	"tmp\000"
 1326 0717 01       		.byte	0x1
 1327 0718 E5       		.byte	0xe5
 1328 0719 8C000000 		.4byte	0x8c
 1329 071d 01       		.uleb128 0x1
 1330 071e 53       		.byte	0x53
 1331 071f 00       		.byte	0
 1332 0720 00       		.byte	0
 1333 0721 21       		.uleb128 0x21
 1334 0722 3D030000 		.4byte	0x33d
 1335 0726 00000000 		.4byte	.LFB128
 1336 072a 08000000 		.4byte	.LFE128-.LFB128
 1337 072e 01       		.uleb128 0x1
 1338 072f 9C       		.byte	0x9c
 1339 0730 4F070000 		.4byte	0x74f
 1340 0734 20       		.uleb128 0x20
 1341 0735 49030000 		.4byte	0x349
 1342 0739 4B020000 		.4byte	.LLST18
 1343 073d 22       		.uleb128 0x22
 1344 073e 08000000 		.4byte	.LVL22
 1345 0742 EC070000 		.4byte	0x7ec
 1346 0746 1D       		.uleb128 0x1d
 1347 0747 01       		.uleb128 0x1
 1348 0748 50       		.byte	0x50
 1349 0749 03       		.uleb128 0x3
 1350 074a F3       		.byte	0xf3
 1351 074b 01       		.uleb128 0x1
 1352 074c 50       		.byte	0x50
 1353 074d 00       		.byte	0
 1354 074e 00       		.byte	0
 1355 074f 23       		.uleb128 0x23
 1356 0750 55030000 		.4byte	.LASF57
 1357 0754 01       		.byte	0x1
 1358 0755 0701     		.2byte	0x107
 1359 0757 00000000 		.4byte	.LFB129
 1360 075b 12000000 		.4byte	.LFE129-.LFB129
 1361 075f 01       		.uleb128 0x1
 1362 0760 9C       		.byte	0x9c
 1363 0761 9D070000 		.4byte	0x79d
 1364 0765 24       		.uleb128 0x24
 1365 0766 6D030000 		.4byte	.LASF44
 1366 076a 01       		.byte	0x1
 1367 076b 0701     		.2byte	0x107
 1368 076d 61010000 		.4byte	0x161
ARM GAS  C:\Users\danit\AppData\Local\Temp\ccVlje1w.s 			page 25


 1369 0771 6C020000 		.4byte	.LLST19
 1370 0775 24       		.uleb128 0x24
 1371 0776 1D030000 		.4byte	.LASF45
 1372 077a 01       		.byte	0x1
 1373 077b 0701     		.2byte	0x107
 1374 077d 9D020000 		.4byte	0x29d
 1375 0781 8A020000 		.4byte	.LLST20
 1376 0785 1C       		.uleb128 0x1c
 1377 0786 0C000000 		.4byte	.LVL24
 1378 078a FE070000 		.4byte	0x7fe
 1379 078e 1D       		.uleb128 0x1d
 1380 078f 01       		.uleb128 0x1
 1381 0790 51       		.byte	0x51
 1382 0791 03       		.uleb128 0x3
 1383 0792 F3       		.byte	0xf3
 1384 0793 01       		.uleb128 0x1
 1385 0794 51       		.byte	0x51
 1386 0795 1D       		.uleb128 0x1d
 1387 0796 01       		.uleb128 0x1
 1388 0797 50       		.byte	0x50
 1389 0798 02       		.uleb128 0x2
 1390 0799 74       		.byte	0x74
 1391 079a 00       		.sleb128 0
 1392 079b 00       		.byte	0
 1393 079c 00       		.byte	0
 1394 079d 25       		.uleb128 0x25
 1395 079e D4030000 		.4byte	.LASF65
 1396 07a2 07       		.byte	0x7
 1397 07a3 9806     		.2byte	0x698
 1398 07a5 C1000000 		.4byte	0xc1
 1399 07a9 26       		.uleb128 0x26
 1400 07aa C3000000 		.4byte	.LASF66
 1401 07ae 05       		.byte	0x5
 1402 07af F201     		.2byte	0x1f2
 1403 07b1 27       		.uleb128 0x27
 1404 07b2 65020000 		.4byte	.LASF58
 1405 07b6 05       		.byte	0x5
 1406 07b7 F301     		.2byte	0x1f3
 1407 07b9 C3070000 		.4byte	0x7c3
 1408 07bd 0F       		.uleb128 0xf
 1409 07be 61010000 		.4byte	0x161
 1410 07c2 00       		.byte	0
 1411 07c3 27       		.uleb128 0x27
 1412 07c4 26030000 		.4byte	.LASF59
 1413 07c8 05       		.byte	0x5
 1414 07c9 F401     		.2byte	0x1f4
 1415 07cb D5070000 		.4byte	0x7d5
 1416 07cf 0F       		.uleb128 0xf
 1417 07d0 61010000 		.4byte	0x161
 1418 07d4 00       		.byte	0
 1419 07d5 27       		.uleb128 0x27
 1420 07d6 27000000 		.4byte	.LASF60
 1421 07da 05       		.byte	0x5
 1422 07db F501     		.2byte	0x1f5
 1423 07dd EC070000 		.4byte	0x7ec
 1424 07e1 0F       		.uleb128 0xf
 1425 07e2 61010000 		.4byte	0x161
ARM GAS  C:\Users\danit\AppData\Local\Temp\ccVlje1w.s 			page 26


 1426 07e6 0F       		.uleb128 0xf
 1427 07e7 9D020000 		.4byte	0x29d
 1428 07eb 00       		.byte	0
 1429 07ec 27       		.uleb128 0x27
 1430 07ed B3030000 		.4byte	.LASF61
 1431 07f1 05       		.byte	0x5
 1432 07f2 F601     		.2byte	0x1f6
 1433 07f4 FE070000 		.4byte	0x7fe
 1434 07f8 0F       		.uleb128 0xf
 1435 07f9 61010000 		.4byte	0x161
 1436 07fd 00       		.byte	0
 1437 07fe 28       		.uleb128 0x28
 1438 07ff 64000000 		.4byte	.LASF67
 1439 0803 05       		.byte	0x5
 1440 0804 F701     		.2byte	0x1f7
 1441 0806 0F       		.uleb128 0xf
 1442 0807 61010000 		.4byte	0x161
 1443 080b 0F       		.uleb128 0xf
 1444 080c 9D020000 		.4byte	0x29d
 1445 0810 00       		.byte	0
 1446 0811 00       		.byte	0
 1447              		.section	.debug_abbrev,"",%progbits
 1448              	.Ldebug_abbrev0:
 1449 0000 01       		.uleb128 0x1
 1450 0001 11       		.uleb128 0x11
 1451 0002 01       		.byte	0x1
 1452 0003 25       		.uleb128 0x25
 1453 0004 0E       		.uleb128 0xe
 1454 0005 13       		.uleb128 0x13
 1455 0006 0B       		.uleb128 0xb
 1456 0007 03       		.uleb128 0x3
 1457 0008 0E       		.uleb128 0xe
 1458 0009 1B       		.uleb128 0x1b
 1459 000a 0E       		.uleb128 0xe
 1460 000b 55       		.uleb128 0x55
 1461 000c 17       		.uleb128 0x17
 1462 000d 11       		.uleb128 0x11
 1463 000e 01       		.uleb128 0x1
 1464 000f 10       		.uleb128 0x10
 1465 0010 17       		.uleb128 0x17
 1466 0011 00       		.byte	0
 1467 0012 00       		.byte	0
 1468 0013 02       		.uleb128 0x2
 1469 0014 24       		.uleb128 0x24
 1470 0015 00       		.byte	0
 1471 0016 0B       		.uleb128 0xb
 1472 0017 0B       		.uleb128 0xb
 1473 0018 3E       		.uleb128 0x3e
 1474 0019 0B       		.uleb128 0xb
 1475 001a 03       		.uleb128 0x3
 1476 001b 08       		.uleb128 0x8
 1477 001c 00       		.byte	0
 1478 001d 00       		.byte	0
 1479 001e 03       		.uleb128 0x3
 1480 001f 24       		.uleb128 0x24
 1481 0020 00       		.byte	0
 1482 0021 0B       		.uleb128 0xb
ARM GAS  C:\Users\danit\AppData\Local\Temp\ccVlje1w.s 			page 27


 1483 0022 0B       		.uleb128 0xb
 1484 0023 3E       		.uleb128 0x3e
 1485 0024 0B       		.uleb128 0xb
 1486 0025 03       		.uleb128 0x3
 1487 0026 0E       		.uleb128 0xe
 1488 0027 00       		.byte	0
 1489 0028 00       		.byte	0
 1490 0029 04       		.uleb128 0x4
 1491 002a 16       		.uleb128 0x16
 1492 002b 00       		.byte	0
 1493 002c 03       		.uleb128 0x3
 1494 002d 0E       		.uleb128 0xe
 1495 002e 3A       		.uleb128 0x3a
 1496 002f 0B       		.uleb128 0xb
 1497 0030 3B       		.uleb128 0x3b
 1498 0031 0B       		.uleb128 0xb
 1499 0032 49       		.uleb128 0x49
 1500 0033 13       		.uleb128 0x13
 1501 0034 00       		.byte	0
 1502 0035 00       		.byte	0
 1503 0036 05       		.uleb128 0x5
 1504 0037 35       		.uleb128 0x35
 1505 0038 00       		.byte	0
 1506 0039 49       		.uleb128 0x49
 1507 003a 13       		.uleb128 0x13
 1508 003b 00       		.byte	0
 1509 003c 00       		.byte	0
 1510 003d 06       		.uleb128 0x6
 1511 003e 01       		.uleb128 0x1
 1512 003f 01       		.byte	0x1
 1513 0040 49       		.uleb128 0x49
 1514 0041 13       		.uleb128 0x13
 1515 0042 01       		.uleb128 0x1
 1516 0043 13       		.uleb128 0x13
 1517 0044 00       		.byte	0
 1518 0045 00       		.byte	0
 1519 0046 07       		.uleb128 0x7
 1520 0047 21       		.uleb128 0x21
 1521 0048 00       		.byte	0
 1522 0049 49       		.uleb128 0x49
 1523 004a 13       		.uleb128 0x13
 1524 004b 2F       		.uleb128 0x2f
 1525 004c 0B       		.uleb128 0xb
 1526 004d 00       		.byte	0
 1527 004e 00       		.byte	0
 1528 004f 08       		.uleb128 0x8
 1529 0050 04       		.uleb128 0x4
 1530 0051 01       		.byte	0x1
 1531 0052 0B       		.uleb128 0xb
 1532 0053 0B       		.uleb128 0xb
 1533 0054 3A       		.uleb128 0x3a
 1534 0055 0B       		.uleb128 0xb
 1535 0056 3B       		.uleb128 0x3b
 1536 0057 0B       		.uleb128 0xb
 1537 0058 01       		.uleb128 0x1
 1538 0059 13       		.uleb128 0x13
 1539 005a 00       		.byte	0
ARM GAS  C:\Users\danit\AppData\Local\Temp\ccVlje1w.s 			page 28


 1540 005b 00       		.byte	0
 1541 005c 09       		.uleb128 0x9
 1542 005d 28       		.uleb128 0x28
 1543 005e 00       		.byte	0
 1544 005f 03       		.uleb128 0x3
 1545 0060 0E       		.uleb128 0xe
 1546 0061 1C       		.uleb128 0x1c
 1547 0062 0D       		.uleb128 0xd
 1548 0063 00       		.byte	0
 1549 0064 00       		.byte	0
 1550 0065 0A       		.uleb128 0xa
 1551 0066 13       		.uleb128 0x13
 1552 0067 01       		.byte	0x1
 1553 0068 03       		.uleb128 0x3
 1554 0069 0E       		.uleb128 0xe
 1555 006a 0B       		.uleb128 0xb
 1556 006b 0B       		.uleb128 0xb
 1557 006c 3A       		.uleb128 0x3a
 1558 006d 0B       		.uleb128 0xb
 1559 006e 3B       		.uleb128 0x3b
 1560 006f 05       		.uleb128 0x5
 1561 0070 01       		.uleb128 0x1
 1562 0071 13       		.uleb128 0x13
 1563 0072 00       		.byte	0
 1564 0073 00       		.byte	0
 1565 0074 0B       		.uleb128 0xb
 1566 0075 0D       		.uleb128 0xd
 1567 0076 00       		.byte	0
 1568 0077 03       		.uleb128 0x3
 1569 0078 0E       		.uleb128 0xe
 1570 0079 3A       		.uleb128 0x3a
 1571 007a 0B       		.uleb128 0xb
 1572 007b 3B       		.uleb128 0x3b
 1573 007c 05       		.uleb128 0x5
 1574 007d 49       		.uleb128 0x49
 1575 007e 13       		.uleb128 0x13
 1576 007f 38       		.uleb128 0x38
 1577 0080 0B       		.uleb128 0xb
 1578 0081 00       		.byte	0
 1579 0082 00       		.byte	0
 1580 0083 0C       		.uleb128 0xc
 1581 0084 0D       		.uleb128 0xd
 1582 0085 00       		.byte	0
 1583 0086 03       		.uleb128 0x3
 1584 0087 08       		.uleb128 0x8
 1585 0088 3A       		.uleb128 0x3a
 1586 0089 0B       		.uleb128 0xb
 1587 008a 3B       		.uleb128 0x3b
 1588 008b 05       		.uleb128 0x5
 1589 008c 49       		.uleb128 0x49
 1590 008d 13       		.uleb128 0x13
 1591 008e 38       		.uleb128 0x38
 1592 008f 0B       		.uleb128 0xb
 1593 0090 00       		.byte	0
 1594 0091 00       		.byte	0
 1595 0092 0D       		.uleb128 0xd
 1596 0093 0F       		.uleb128 0xf
ARM GAS  C:\Users\danit\AppData\Local\Temp\ccVlje1w.s 			page 29


 1597 0094 00       		.byte	0
 1598 0095 0B       		.uleb128 0xb
 1599 0096 0B       		.uleb128 0xb
 1600 0097 49       		.uleb128 0x49
 1601 0098 13       		.uleb128 0x13
 1602 0099 00       		.byte	0
 1603 009a 00       		.byte	0
 1604 009b 0E       		.uleb128 0xe
 1605 009c 15       		.uleb128 0x15
 1606 009d 01       		.byte	0x1
 1607 009e 27       		.uleb128 0x27
 1608 009f 19       		.uleb128 0x19
 1609 00a0 01       		.uleb128 0x1
 1610 00a1 13       		.uleb128 0x13
 1611 00a2 00       		.byte	0
 1612 00a3 00       		.byte	0
 1613 00a4 0F       		.uleb128 0xf
 1614 00a5 05       		.uleb128 0x5
 1615 00a6 00       		.byte	0
 1616 00a7 49       		.uleb128 0x49
 1617 00a8 13       		.uleb128 0x13
 1618 00a9 00       		.byte	0
 1619 00aa 00       		.byte	0
 1620 00ab 10       		.uleb128 0x10
 1621 00ac 13       		.uleb128 0x13
 1622 00ad 01       		.byte	0x1
 1623 00ae 0B       		.uleb128 0xb
 1624 00af 0B       		.uleb128 0xb
 1625 00b0 3A       		.uleb128 0x3a
 1626 00b1 0B       		.uleb128 0xb
 1627 00b2 3B       		.uleb128 0x3b
 1628 00b3 05       		.uleb128 0x5
 1629 00b4 01       		.uleb128 0x1
 1630 00b5 13       		.uleb128 0x13
 1631 00b6 00       		.byte	0
 1632 00b7 00       		.byte	0
 1633 00b8 11       		.uleb128 0x11
 1634 00b9 16       		.uleb128 0x16
 1635 00ba 00       		.byte	0
 1636 00bb 03       		.uleb128 0x3
 1637 00bc 0E       		.uleb128 0xe
 1638 00bd 3A       		.uleb128 0x3a
 1639 00be 0B       		.uleb128 0xb
 1640 00bf 3B       		.uleb128 0x3b
 1641 00c0 05       		.uleb128 0x5
 1642 00c1 49       		.uleb128 0x49
 1643 00c2 13       		.uleb128 0x13
 1644 00c3 00       		.byte	0
 1645 00c4 00       		.byte	0
 1646 00c5 12       		.uleb128 0x12
 1647 00c6 26       		.uleb128 0x26
 1648 00c7 00       		.byte	0
 1649 00c8 49       		.uleb128 0x49
 1650 00c9 13       		.uleb128 0x13
 1651 00ca 00       		.byte	0
 1652 00cb 00       		.byte	0
 1653 00cc 13       		.uleb128 0x13
ARM GAS  C:\Users\danit\AppData\Local\Temp\ccVlje1w.s 			page 30


 1654 00cd 2E       		.uleb128 0x2e
 1655 00ce 01       		.byte	0x1
 1656 00cf 3F       		.uleb128 0x3f
 1657 00d0 19       		.uleb128 0x19
 1658 00d1 03       		.uleb128 0x3
 1659 00d2 0E       		.uleb128 0xe
 1660 00d3 3A       		.uleb128 0x3a
 1661 00d4 0B       		.uleb128 0xb
 1662 00d5 3B       		.uleb128 0x3b
 1663 00d6 0B       		.uleb128 0xb
 1664 00d7 27       		.uleb128 0x27
 1665 00d8 19       		.uleb128 0x19
 1666 00d9 20       		.uleb128 0x20
 1667 00da 0B       		.uleb128 0xb
 1668 00db 01       		.uleb128 0x1
 1669 00dc 13       		.uleb128 0x13
 1670 00dd 00       		.byte	0
 1671 00de 00       		.byte	0
 1672 00df 14       		.uleb128 0x14
 1673 00e0 05       		.uleb128 0x5
 1674 00e1 00       		.byte	0
 1675 00e2 03       		.uleb128 0x3
 1676 00e3 0E       		.uleb128 0xe
 1677 00e4 3A       		.uleb128 0x3a
 1678 00e5 0B       		.uleb128 0xb
 1679 00e6 3B       		.uleb128 0x3b
 1680 00e7 0B       		.uleb128 0xb
 1681 00e8 49       		.uleb128 0x49
 1682 00e9 13       		.uleb128 0x13
 1683 00ea 00       		.byte	0
 1684 00eb 00       		.byte	0
 1685 00ec 15       		.uleb128 0x15
 1686 00ed 2E       		.uleb128 0x2e
 1687 00ee 01       		.byte	0x1
 1688 00ef 3F       		.uleb128 0x3f
 1689 00f0 19       		.uleb128 0x19
 1690 00f1 03       		.uleb128 0x3
 1691 00f2 0E       		.uleb128 0xe
 1692 00f3 3A       		.uleb128 0x3a
 1693 00f4 0B       		.uleb128 0xb
 1694 00f5 3B       		.uleb128 0x3b
 1695 00f6 0B       		.uleb128 0xb
 1696 00f7 27       		.uleb128 0x27
 1697 00f8 19       		.uleb128 0x19
 1698 00f9 11       		.uleb128 0x11
 1699 00fa 01       		.uleb128 0x1
 1700 00fb 12       		.uleb128 0x12
 1701 00fc 06       		.uleb128 0x6
 1702 00fd 40       		.uleb128 0x40
 1703 00fe 18       		.uleb128 0x18
 1704 00ff 9742     		.uleb128 0x2117
 1705 0101 19       		.uleb128 0x19
 1706 0102 01       		.uleb128 0x1
 1707 0103 13       		.uleb128 0x13
 1708 0104 00       		.byte	0
 1709 0105 00       		.byte	0
 1710 0106 16       		.uleb128 0x16
ARM GAS  C:\Users\danit\AppData\Local\Temp\ccVlje1w.s 			page 31


 1711 0107 898201   		.uleb128 0x4109
 1712 010a 00       		.byte	0
 1713 010b 11       		.uleb128 0x11
 1714 010c 01       		.uleb128 0x1
 1715 010d 9542     		.uleb128 0x2115
 1716 010f 19       		.uleb128 0x19
 1717 0110 31       		.uleb128 0x31
 1718 0111 13       		.uleb128 0x13
 1719 0112 00       		.byte	0
 1720 0113 00       		.byte	0
 1721 0114 17       		.uleb128 0x17
 1722 0115 05       		.uleb128 0x5
 1723 0116 00       		.byte	0
 1724 0117 03       		.uleb128 0x3
 1725 0118 0E       		.uleb128 0xe
 1726 0119 3A       		.uleb128 0x3a
 1727 011a 0B       		.uleb128 0xb
 1728 011b 3B       		.uleb128 0x3b
 1729 011c 0B       		.uleb128 0xb
 1730 011d 49       		.uleb128 0x49
 1731 011e 13       		.uleb128 0x13
 1732 011f 02       		.uleb128 0x2
 1733 0120 18       		.uleb128 0x18
 1734 0121 00       		.byte	0
 1735 0122 00       		.byte	0
 1736 0123 18       		.uleb128 0x18
 1737 0124 05       		.uleb128 0x5
 1738 0125 00       		.byte	0
 1739 0126 03       		.uleb128 0x3
 1740 0127 0E       		.uleb128 0xe
 1741 0128 3A       		.uleb128 0x3a
 1742 0129 0B       		.uleb128 0xb
 1743 012a 3B       		.uleb128 0x3b
 1744 012b 0B       		.uleb128 0xb
 1745 012c 49       		.uleb128 0x49
 1746 012d 13       		.uleb128 0x13
 1747 012e 02       		.uleb128 0x2
 1748 012f 17       		.uleb128 0x17
 1749 0130 00       		.byte	0
 1750 0131 00       		.byte	0
 1751 0132 19       		.uleb128 0x19
 1752 0133 0B       		.uleb128 0xb
 1753 0134 01       		.byte	0x1
 1754 0135 55       		.uleb128 0x55
 1755 0136 17       		.uleb128 0x17
 1756 0137 01       		.uleb128 0x1
 1757 0138 13       		.uleb128 0x13
 1758 0139 00       		.byte	0
 1759 013a 00       		.byte	0
 1760 013b 1A       		.uleb128 0x1a
 1761 013c 34       		.uleb128 0x34
 1762 013d 00       		.byte	0
 1763 013e 03       		.uleb128 0x3
 1764 013f 08       		.uleb128 0x8
 1765 0140 3A       		.uleb128 0x3a
 1766 0141 0B       		.uleb128 0xb
 1767 0142 3B       		.uleb128 0x3b
ARM GAS  C:\Users\danit\AppData\Local\Temp\ccVlje1w.s 			page 32


 1768 0143 0B       		.uleb128 0xb
 1769 0144 49       		.uleb128 0x49
 1770 0145 13       		.uleb128 0x13
 1771 0146 02       		.uleb128 0x2
 1772 0147 18       		.uleb128 0x18
 1773 0148 00       		.byte	0
 1774 0149 00       		.byte	0
 1775 014a 1B       		.uleb128 0x1b
 1776 014b 0B       		.uleb128 0xb
 1777 014c 01       		.byte	0x1
 1778 014d 11       		.uleb128 0x11
 1779 014e 01       		.uleb128 0x1
 1780 014f 12       		.uleb128 0x12
 1781 0150 06       		.uleb128 0x6
 1782 0151 01       		.uleb128 0x1
 1783 0152 13       		.uleb128 0x13
 1784 0153 00       		.byte	0
 1785 0154 00       		.byte	0
 1786 0155 1C       		.uleb128 0x1c
 1787 0156 898201   		.uleb128 0x4109
 1788 0159 01       		.byte	0x1
 1789 015a 11       		.uleb128 0x11
 1790 015b 01       		.uleb128 0x1
 1791 015c 31       		.uleb128 0x31
 1792 015d 13       		.uleb128 0x13
 1793 015e 00       		.byte	0
 1794 015f 00       		.byte	0
 1795 0160 1D       		.uleb128 0x1d
 1796 0161 8A8201   		.uleb128 0x410a
 1797 0164 00       		.byte	0
 1798 0165 02       		.uleb128 0x2
 1799 0166 18       		.uleb128 0x18
 1800 0167 9142     		.uleb128 0x2111
 1801 0169 18       		.uleb128 0x18
 1802 016a 00       		.byte	0
 1803 016b 00       		.byte	0
 1804 016c 1E       		.uleb128 0x1e
 1805 016d 0B       		.uleb128 0xb
 1806 016e 01       		.byte	0x1
 1807 016f 11       		.uleb128 0x11
 1808 0170 01       		.uleb128 0x1
 1809 0171 12       		.uleb128 0x12
 1810 0172 06       		.uleb128 0x6
 1811 0173 00       		.byte	0
 1812 0174 00       		.byte	0
 1813 0175 1F       		.uleb128 0x1f
 1814 0176 1D       		.uleb128 0x1d
 1815 0177 01       		.byte	0x1
 1816 0178 31       		.uleb128 0x31
 1817 0179 13       		.uleb128 0x13
 1818 017a 11       		.uleb128 0x11
 1819 017b 01       		.uleb128 0x1
 1820 017c 12       		.uleb128 0x12
 1821 017d 06       		.uleb128 0x6
 1822 017e 58       		.uleb128 0x58
 1823 017f 0B       		.uleb128 0xb
 1824 0180 59       		.uleb128 0x59
ARM GAS  C:\Users\danit\AppData\Local\Temp\ccVlje1w.s 			page 33


 1825 0181 0B       		.uleb128 0xb
 1826 0182 01       		.uleb128 0x1
 1827 0183 13       		.uleb128 0x13
 1828 0184 00       		.byte	0
 1829 0185 00       		.byte	0
 1830 0186 20       		.uleb128 0x20
 1831 0187 05       		.uleb128 0x5
 1832 0188 00       		.byte	0
 1833 0189 31       		.uleb128 0x31
 1834 018a 13       		.uleb128 0x13
 1835 018b 02       		.uleb128 0x2
 1836 018c 17       		.uleb128 0x17
 1837 018d 00       		.byte	0
 1838 018e 00       		.byte	0
 1839 018f 21       		.uleb128 0x21
 1840 0190 2E       		.uleb128 0x2e
 1841 0191 01       		.byte	0x1
 1842 0192 31       		.uleb128 0x31
 1843 0193 13       		.uleb128 0x13
 1844 0194 11       		.uleb128 0x11
 1845 0195 01       		.uleb128 0x1
 1846 0196 12       		.uleb128 0x12
 1847 0197 06       		.uleb128 0x6
 1848 0198 40       		.uleb128 0x40
 1849 0199 18       		.uleb128 0x18
 1850 019a 9742     		.uleb128 0x2117
 1851 019c 19       		.uleb128 0x19
 1852 019d 01       		.uleb128 0x1
 1853 019e 13       		.uleb128 0x13
 1854 019f 00       		.byte	0
 1855 01a0 00       		.byte	0
 1856 01a1 22       		.uleb128 0x22
 1857 01a2 898201   		.uleb128 0x4109
 1858 01a5 01       		.byte	0x1
 1859 01a6 11       		.uleb128 0x11
 1860 01a7 01       		.uleb128 0x1
 1861 01a8 9542     		.uleb128 0x2115
 1862 01aa 19       		.uleb128 0x19
 1863 01ab 31       		.uleb128 0x31
 1864 01ac 13       		.uleb128 0x13
 1865 01ad 00       		.byte	0
 1866 01ae 00       		.byte	0
 1867 01af 23       		.uleb128 0x23
 1868 01b0 2E       		.uleb128 0x2e
 1869 01b1 01       		.byte	0x1
 1870 01b2 3F       		.uleb128 0x3f
 1871 01b3 19       		.uleb128 0x19
 1872 01b4 03       		.uleb128 0x3
 1873 01b5 0E       		.uleb128 0xe
 1874 01b6 3A       		.uleb128 0x3a
 1875 01b7 0B       		.uleb128 0xb
 1876 01b8 3B       		.uleb128 0x3b
 1877 01b9 05       		.uleb128 0x5
 1878 01ba 27       		.uleb128 0x27
 1879 01bb 19       		.uleb128 0x19
 1880 01bc 11       		.uleb128 0x11
 1881 01bd 01       		.uleb128 0x1
ARM GAS  C:\Users\danit\AppData\Local\Temp\ccVlje1w.s 			page 34


 1882 01be 12       		.uleb128 0x12
 1883 01bf 06       		.uleb128 0x6
 1884 01c0 40       		.uleb128 0x40
 1885 01c1 18       		.uleb128 0x18
 1886 01c2 9742     		.uleb128 0x2117
 1887 01c4 19       		.uleb128 0x19
 1888 01c5 01       		.uleb128 0x1
 1889 01c6 13       		.uleb128 0x13
 1890 01c7 00       		.byte	0
 1891 01c8 00       		.byte	0
 1892 01c9 24       		.uleb128 0x24
 1893 01ca 05       		.uleb128 0x5
 1894 01cb 00       		.byte	0
 1895 01cc 03       		.uleb128 0x3
 1896 01cd 0E       		.uleb128 0xe
 1897 01ce 3A       		.uleb128 0x3a
 1898 01cf 0B       		.uleb128 0xb
 1899 01d0 3B       		.uleb128 0x3b
 1900 01d1 05       		.uleb128 0x5
 1901 01d2 49       		.uleb128 0x49
 1902 01d3 13       		.uleb128 0x13
 1903 01d4 02       		.uleb128 0x2
 1904 01d5 17       		.uleb128 0x17
 1905 01d6 00       		.byte	0
 1906 01d7 00       		.byte	0
 1907 01d8 25       		.uleb128 0x25
 1908 01d9 34       		.uleb128 0x34
 1909 01da 00       		.byte	0
 1910 01db 03       		.uleb128 0x3
 1911 01dc 0E       		.uleb128 0xe
 1912 01dd 3A       		.uleb128 0x3a
 1913 01de 0B       		.uleb128 0xb
 1914 01df 3B       		.uleb128 0x3b
 1915 01e0 05       		.uleb128 0x5
 1916 01e1 49       		.uleb128 0x49
 1917 01e2 13       		.uleb128 0x13
 1918 01e3 3F       		.uleb128 0x3f
 1919 01e4 19       		.uleb128 0x19
 1920 01e5 3C       		.uleb128 0x3c
 1921 01e6 19       		.uleb128 0x19
 1922 01e7 00       		.byte	0
 1923 01e8 00       		.byte	0
 1924 01e9 26       		.uleb128 0x26
 1925 01ea 2E       		.uleb128 0x2e
 1926 01eb 00       		.byte	0
 1927 01ec 3F       		.uleb128 0x3f
 1928 01ed 19       		.uleb128 0x19
 1929 01ee 03       		.uleb128 0x3
 1930 01ef 0E       		.uleb128 0xe
 1931 01f0 3A       		.uleb128 0x3a
 1932 01f1 0B       		.uleb128 0xb
 1933 01f2 3B       		.uleb128 0x3b
 1934 01f3 05       		.uleb128 0x5
 1935 01f4 27       		.uleb128 0x27
 1936 01f5 19       		.uleb128 0x19
 1937 01f6 3C       		.uleb128 0x3c
 1938 01f7 19       		.uleb128 0x19
ARM GAS  C:\Users\danit\AppData\Local\Temp\ccVlje1w.s 			page 35


 1939 01f8 00       		.byte	0
 1940 01f9 00       		.byte	0
 1941 01fa 27       		.uleb128 0x27
 1942 01fb 2E       		.uleb128 0x2e
 1943 01fc 01       		.byte	0x1
 1944 01fd 3F       		.uleb128 0x3f
 1945 01fe 19       		.uleb128 0x19
 1946 01ff 03       		.uleb128 0x3
 1947 0200 0E       		.uleb128 0xe
 1948 0201 3A       		.uleb128 0x3a
 1949 0202 0B       		.uleb128 0xb
 1950 0203 3B       		.uleb128 0x3b
 1951 0204 05       		.uleb128 0x5
 1952 0205 27       		.uleb128 0x27
 1953 0206 19       		.uleb128 0x19
 1954 0207 3C       		.uleb128 0x3c
 1955 0208 19       		.uleb128 0x19
 1956 0209 01       		.uleb128 0x1
 1957 020a 13       		.uleb128 0x13
 1958 020b 00       		.byte	0
 1959 020c 00       		.byte	0
 1960 020d 28       		.uleb128 0x28
 1961 020e 2E       		.uleb128 0x2e
 1962 020f 01       		.byte	0x1
 1963 0210 3F       		.uleb128 0x3f
 1964 0211 19       		.uleb128 0x19
 1965 0212 03       		.uleb128 0x3
 1966 0213 0E       		.uleb128 0xe
 1967 0214 3A       		.uleb128 0x3a
 1968 0215 0B       		.uleb128 0xb
 1969 0216 3B       		.uleb128 0x3b
 1970 0217 05       		.uleb128 0x5
 1971 0218 27       		.uleb128 0x27
 1972 0219 19       		.uleb128 0x19
 1973 021a 3C       		.uleb128 0x3c
 1974 021b 19       		.uleb128 0x19
 1975 021c 00       		.byte	0
 1976 021d 00       		.byte	0
 1977 021e 00       		.byte	0
 1978              		.section	.debug_loc,"",%progbits
 1979              	.Ldebug_loc0:
 1980              	.LLST0:
 1981 0000 00000000 		.4byte	.LVL2
 1982 0004 0F000000 		.4byte	.LVL3-1
 1983 0008 0100     		.2byte	0x1
 1984 000a 50       		.byte	0x50
 1985 000b 0F000000 		.4byte	.LVL3-1
 1986 000f 1C000000 		.4byte	.LFE120
 1987 0013 0100     		.2byte	0x1
 1988 0015 54       		.byte	0x54
 1989 0016 00000000 		.4byte	0
 1990 001a 00000000 		.4byte	0
 1991              	.LLST1:
 1992 001e 00000000 		.4byte	.LVL2
 1993 0022 0F000000 		.4byte	.LVL3-1
 1994 0026 0100     		.2byte	0x1
 1995 0028 51       		.byte	0x51
ARM GAS  C:\Users\danit\AppData\Local\Temp\ccVlje1w.s 			page 36


 1996 0029 0F000000 		.4byte	.LVL3-1
 1997 002d 1C000000 		.4byte	.LFE120
 1998 0031 0400     		.2byte	0x4
 1999 0033 F3       		.byte	0xf3
 2000 0034 01       		.uleb128 0x1
 2001 0035 51       		.byte	0x51
 2002 0036 9F       		.byte	0x9f
 2003 0037 00000000 		.4byte	0
 2004 003b 00000000 		.4byte	0
 2005              	.LLST2:
 2006 003f 00000000 		.4byte	.LVL4
 2007 0043 0D000000 		.4byte	.LVL5-1
 2008 0047 0100     		.2byte	0x1
 2009 0049 50       		.byte	0x50
 2010 004a 0D000000 		.4byte	.LVL5-1
 2011 004e 1A000000 		.4byte	.LFE121
 2012 0052 0100     		.2byte	0x1
 2013 0054 54       		.byte	0x54
 2014 0055 00000000 		.4byte	0
 2015 0059 00000000 		.4byte	0
 2016              	.LLST3:
 2017 005d 00000000 		.4byte	.LVL6
 2018 0061 0A000000 		.4byte	.LVL7
 2019 0065 0100     		.2byte	0x1
 2020 0067 51       		.byte	0x51
 2021 0068 0A000000 		.4byte	.LVL7
 2022 006c 14000000 		.4byte	.LFE122
 2023 0070 0300     		.2byte	0x3
 2024 0072 71       		.byte	0x71
 2025 0073 01       		.sleb128 1
 2026 0074 9F       		.byte	0x9f
 2027 0075 00000000 		.4byte	0
 2028 0079 00000000 		.4byte	0
 2029              	.LLST4:
 2030 007d 00000000 		.4byte	.LVL8
 2031 0081 0F000000 		.4byte	.LVL10-1
 2032 0085 0100     		.2byte	0x1
 2033 0087 50       		.byte	0x50
 2034 0088 0F000000 		.4byte	.LVL10-1
 2035 008c 18000000 		.4byte	.LFE123
 2036 0090 0400     		.2byte	0x4
 2037 0092 F3       		.byte	0xf3
 2038 0093 01       		.uleb128 0x1
 2039 0094 50       		.byte	0x50
 2040 0095 9F       		.byte	0x9f
 2041 0096 00000000 		.4byte	0
 2042 009a 00000000 		.4byte	0
 2043              	.LLST5:
 2044 009e 00000000 		.4byte	.LVL8
 2045 00a2 0F000000 		.4byte	.LVL10-1
 2046 00a6 0100     		.2byte	0x1
 2047 00a8 51       		.byte	0x51
 2048 00a9 0F000000 		.4byte	.LVL10-1
 2049 00ad 18000000 		.4byte	.LFE123
 2050 00b1 0400     		.2byte	0x4
 2051 00b3 F3       		.byte	0xf3
 2052 00b4 01       		.uleb128 0x1
ARM GAS  C:\Users\danit\AppData\Local\Temp\ccVlje1w.s 			page 37


 2053 00b5 51       		.byte	0x51
 2054 00b6 9F       		.byte	0x9f
 2055 00b7 00000000 		.4byte	0
 2056 00bb 00000000 		.4byte	0
 2057              	.LLST6:
 2058 00bf 08000000 		.4byte	.LVL9
 2059 00c3 0F000000 		.4byte	.LVL10-1
 2060 00c7 0100     		.2byte	0x1
 2061 00c9 51       		.byte	0x51
 2062 00ca 0F000000 		.4byte	.LVL10-1
 2063 00ce 18000000 		.4byte	.LFE123
 2064 00d2 0400     		.2byte	0x4
 2065 00d4 F3       		.byte	0xf3
 2066 00d5 01       		.uleb128 0x1
 2067 00d6 51       		.byte	0x51
 2068 00d7 9F       		.byte	0x9f
 2069 00d8 00000000 		.4byte	0
 2070 00dc 00000000 		.4byte	0
 2071              	.LLST7:
 2072 00e0 08000000 		.4byte	.LVL9
 2073 00e4 0F000000 		.4byte	.LVL10-1
 2074 00e8 0100     		.2byte	0x1
 2075 00ea 50       		.byte	0x50
 2076 00eb 0F000000 		.4byte	.LVL10-1
 2077 00ef 18000000 		.4byte	.LFE123
 2078 00f3 0400     		.2byte	0x4
 2079 00f5 F3       		.byte	0xf3
 2080 00f6 01       		.uleb128 0x1
 2081 00f7 50       		.byte	0x50
 2082 00f8 9F       		.byte	0x9f
 2083 00f9 00000000 		.4byte	0
 2084 00fd 00000000 		.4byte	0
 2085              	.LLST8:
 2086 0101 00000000 		.4byte	.LVL11
 2087 0105 07000000 		.4byte	.LVL12-1
 2088 0109 0100     		.2byte	0x1
 2089 010b 50       		.byte	0x50
 2090 010c 07000000 		.4byte	.LVL12-1
 2091 0110 08000000 		.4byte	.LFE124
 2092 0114 0400     		.2byte	0x4
 2093 0116 F3       		.byte	0xf3
 2094 0117 01       		.uleb128 0x1
 2095 0118 50       		.byte	0x50
 2096 0119 9F       		.byte	0x9f
 2097 011a 00000000 		.4byte	0
 2098 011e 00000000 		.4byte	0
 2099              	.LLST9:
 2100 0122 00000000 		.4byte	.LVL11
 2101 0126 07000000 		.4byte	.LVL12-1
 2102 012a 0100     		.2byte	0x1
 2103 012c 51       		.byte	0x51
 2104 012d 07000000 		.4byte	.LVL12-1
 2105 0131 08000000 		.4byte	.LFE124
 2106 0135 0400     		.2byte	0x4
 2107 0137 F3       		.byte	0xf3
 2108 0138 01       		.uleb128 0x1
 2109 0139 51       		.byte	0x51
ARM GAS  C:\Users\danit\AppData\Local\Temp\ccVlje1w.s 			page 38


 2110 013a 9F       		.byte	0x9f
 2111 013b 00000000 		.4byte	0
 2112 013f 00000000 		.4byte	0
 2113              	.LLST10:
 2114 0143 00000000 		.4byte	.LVL13
 2115 0147 0F000000 		.4byte	.LVL15-1
 2116 014b 0100     		.2byte	0x1
 2117 014d 50       		.byte	0x50
 2118 014e 0F000000 		.4byte	.LVL15-1
 2119 0152 18000000 		.4byte	.LFE125
 2120 0156 0400     		.2byte	0x4
 2121 0158 F3       		.byte	0xf3
 2122 0159 01       		.uleb128 0x1
 2123 015a 50       		.byte	0x50
 2124 015b 9F       		.byte	0x9f
 2125 015c 00000000 		.4byte	0
 2126 0160 00000000 		.4byte	0
 2127              	.LLST11:
 2128 0164 00000000 		.4byte	.LVL13
 2129 0168 0F000000 		.4byte	.LVL15-1
 2130 016c 0100     		.2byte	0x1
 2131 016e 51       		.byte	0x51
 2132 016f 0F000000 		.4byte	.LVL15-1
 2133 0173 18000000 		.4byte	.LFE125
 2134 0177 0400     		.2byte	0x4
 2135 0179 F3       		.byte	0xf3
 2136 017a 01       		.uleb128 0x1
 2137 017b 51       		.byte	0x51
 2138 017c 9F       		.byte	0x9f
 2139 017d 00000000 		.4byte	0
 2140 0181 00000000 		.4byte	0
 2141              	.LLST12:
 2142 0185 08000000 		.4byte	.LVL14
 2143 0189 0F000000 		.4byte	.LVL15-1
 2144 018d 0100     		.2byte	0x1
 2145 018f 51       		.byte	0x51
 2146 0190 0F000000 		.4byte	.LVL15-1
 2147 0194 18000000 		.4byte	.LFE125
 2148 0198 0400     		.2byte	0x4
 2149 019a F3       		.byte	0xf3
 2150 019b 01       		.uleb128 0x1
 2151 019c 51       		.byte	0x51
 2152 019d 9F       		.byte	0x9f
 2153 019e 00000000 		.4byte	0
 2154 01a2 00000000 		.4byte	0
 2155              	.LLST13:
 2156 01a6 08000000 		.4byte	.LVL14
 2157 01aa 0F000000 		.4byte	.LVL15-1
 2158 01ae 0100     		.2byte	0x1
 2159 01b0 50       		.byte	0x50
 2160 01b1 0F000000 		.4byte	.LVL15-1
 2161 01b5 18000000 		.4byte	.LFE125
 2162 01b9 0400     		.2byte	0x4
 2163 01bb F3       		.byte	0xf3
 2164 01bc 01       		.uleb128 0x1
 2165 01bd 50       		.byte	0x50
 2166 01be 9F       		.byte	0x9f
ARM GAS  C:\Users\danit\AppData\Local\Temp\ccVlje1w.s 			page 39


 2167 01bf 00000000 		.4byte	0
 2168 01c3 00000000 		.4byte	0
 2169              	.LLST14:
 2170 01c7 00000000 		.4byte	.LVL16
 2171 01cb 07000000 		.4byte	.LVL17-1
 2172 01cf 0100     		.2byte	0x1
 2173 01d1 50       		.byte	0x50
 2174 01d2 07000000 		.4byte	.LVL17-1
 2175 01d6 08000000 		.4byte	.LFE126
 2176 01da 0400     		.2byte	0x4
 2177 01dc F3       		.byte	0xf3
 2178 01dd 01       		.uleb128 0x1
 2179 01de 50       		.byte	0x50
 2180 01df 9F       		.byte	0x9f
 2181 01e0 00000000 		.4byte	0
 2182 01e4 00000000 		.4byte	0
 2183              	.LLST15:
 2184 01e8 00000000 		.4byte	.LVL16
 2185 01ec 07000000 		.4byte	.LVL17-1
 2186 01f0 0100     		.2byte	0x1
 2187 01f2 51       		.byte	0x51
 2188 01f3 07000000 		.4byte	.LVL17-1
 2189 01f7 08000000 		.4byte	.LFE126
 2190 01fb 0400     		.2byte	0x4
 2191 01fd F3       		.byte	0xf3
 2192 01fe 01       		.uleb128 0x1
 2193 01ff 51       		.byte	0x51
 2194 0200 9F       		.byte	0x9f
 2195 0201 00000000 		.4byte	0
 2196 0205 00000000 		.4byte	0
 2197              	.LLST16:
 2198 0209 00000000 		.4byte	.LVL18
 2199 020d 0F000000 		.4byte	.LVL20-1
 2200 0211 0100     		.2byte	0x1
 2201 0213 50       		.byte	0x50
 2202 0214 0F000000 		.4byte	.LVL20-1
 2203 0218 18000000 		.4byte	.LFE127
 2204 021c 0400     		.2byte	0x4
 2205 021e F3       		.byte	0xf3
 2206 021f 01       		.uleb128 0x1
 2207 0220 50       		.byte	0x50
 2208 0221 9F       		.byte	0x9f
 2209 0222 00000000 		.4byte	0
 2210 0226 00000000 		.4byte	0
 2211              	.LLST17:
 2212 022a 08000000 		.4byte	.LVL19
 2213 022e 0F000000 		.4byte	.LVL20-1
 2214 0232 0100     		.2byte	0x1
 2215 0234 50       		.byte	0x50
 2216 0235 0F000000 		.4byte	.LVL20-1
 2217 0239 18000000 		.4byte	.LFE127
 2218 023d 0400     		.2byte	0x4
 2219 023f F3       		.byte	0xf3
 2220 0240 01       		.uleb128 0x1
 2221 0241 50       		.byte	0x50
 2222 0242 9F       		.byte	0x9f
 2223 0243 00000000 		.4byte	0
ARM GAS  C:\Users\danit\AppData\Local\Temp\ccVlje1w.s 			page 40


 2224 0247 00000000 		.4byte	0
 2225              	.LLST18:
 2226 024b 00000000 		.4byte	.LVL21
 2227 024f 07000000 		.4byte	.LVL22-1
 2228 0253 0100     		.2byte	0x1
 2229 0255 50       		.byte	0x50
 2230 0256 07000000 		.4byte	.LVL22-1
 2231 025a 08000000 		.4byte	.LFE128
 2232 025e 0400     		.2byte	0x4
 2233 0260 F3       		.byte	0xf3
 2234 0261 01       		.uleb128 0x1
 2235 0262 50       		.byte	0x50
 2236 0263 9F       		.byte	0x9f
 2237 0264 00000000 		.4byte	0
 2238 0268 00000000 		.4byte	0
 2239              	.LLST19:
 2240 026c 00000000 		.4byte	.LVL23
 2241 0270 0B000000 		.4byte	.LVL24-1
 2242 0274 0100     		.2byte	0x1
 2243 0276 50       		.byte	0x50
 2244 0277 0B000000 		.4byte	.LVL24-1
 2245 027b 12000000 		.4byte	.LFE129
 2246 027f 0100     		.2byte	0x1
 2247 0281 54       		.byte	0x54
 2248 0282 00000000 		.4byte	0
 2249 0286 00000000 		.4byte	0
 2250              	.LLST20:
 2251 028a 00000000 		.4byte	.LVL23
 2252 028e 0B000000 		.4byte	.LVL24-1
 2253 0292 0100     		.2byte	0x1
 2254 0294 51       		.byte	0x51
 2255 0295 0B000000 		.4byte	.LVL24-1
 2256 0299 12000000 		.4byte	.LFE129
 2257 029d 0400     		.2byte	0x4
 2258 029f F3       		.byte	0xf3
 2259 02a0 01       		.uleb128 0x1
 2260 02a1 51       		.byte	0x51
 2261 02a2 9F       		.byte	0x9f
 2262 02a3 00000000 		.4byte	0
 2263 02a7 00000000 		.4byte	0
 2264              		.section	.debug_aranges,"",%progbits
 2265 0000 74000000 		.4byte	0x74
 2266 0004 0200     		.2byte	0x2
 2267 0006 00000000 		.4byte	.Ldebug_info0
 2268 000a 04       		.byte	0x4
 2269 000b 00       		.byte	0
 2270 000c 0000     		.2byte	0
 2271 000e 0000     		.2byte	0
 2272 0010 00000000 		.4byte	.LFB118
 2273 0014 04000000 		.4byte	.LFE118-.LFB118
 2274 0018 00000000 		.4byte	.LFB119
 2275 001c 0A000000 		.4byte	.LFE119-.LFB119
 2276 0020 00000000 		.4byte	.LFB120
 2277 0024 1C000000 		.4byte	.LFE120-.LFB120
 2278 0028 00000000 		.4byte	.LFB121
 2279 002c 1A000000 		.4byte	.LFE121-.LFB121
 2280 0030 00000000 		.4byte	.LFB122
ARM GAS  C:\Users\danit\AppData\Local\Temp\ccVlje1w.s 			page 41


 2281 0034 14000000 		.4byte	.LFE122-.LFB122
 2282 0038 00000000 		.4byte	.LFB123
 2283 003c 18000000 		.4byte	.LFE123-.LFB123
 2284 0040 00000000 		.4byte	.LFB124
 2285 0044 08000000 		.4byte	.LFE124-.LFB124
 2286 0048 00000000 		.4byte	.LFB125
 2287 004c 18000000 		.4byte	.LFE125-.LFB125
 2288 0050 00000000 		.4byte	.LFB126
 2289 0054 08000000 		.4byte	.LFE126-.LFB126
 2290 0058 00000000 		.4byte	.LFB127
 2291 005c 18000000 		.4byte	.LFE127-.LFB127
 2292 0060 00000000 		.4byte	.LFB128
 2293 0064 08000000 		.4byte	.LFE128-.LFB128
 2294 0068 00000000 		.4byte	.LFB129
 2295 006c 12000000 		.4byte	.LFE129-.LFB129
 2296 0070 00000000 		.4byte	0
 2297 0074 00000000 		.4byte	0
 2298              		.section	.debug_ranges,"",%progbits
 2299              	.Ldebug_ranges0:
 2300 0000 02000000 		.4byte	.LBB14
 2301 0004 04000000 		.4byte	.LBE14
 2302 0008 06000000 		.4byte	.LBB15
 2303 000c 0A000000 		.4byte	.LBE15
 2304 0010 00000000 		.4byte	0
 2305 0014 00000000 		.4byte	0
 2306 0018 02000000 		.4byte	.LBB17
 2307 001c 04000000 		.4byte	.LBE17
 2308 0020 06000000 		.4byte	.LBB18
 2309 0024 0A000000 		.4byte	.LBE18
 2310 0028 00000000 		.4byte	0
 2311 002c 00000000 		.4byte	0
 2312 0030 00000000 		.4byte	.LFB118
 2313 0034 04000000 		.4byte	.LFE118
 2314 0038 00000000 		.4byte	.LFB119
 2315 003c 0A000000 		.4byte	.LFE119
 2316 0040 00000000 		.4byte	.LFB120
 2317 0044 1C000000 		.4byte	.LFE120
 2318 0048 00000000 		.4byte	.LFB121
 2319 004c 1A000000 		.4byte	.LFE121
 2320 0050 00000000 		.4byte	.LFB122
 2321 0054 14000000 		.4byte	.LFE122
 2322 0058 00000000 		.4byte	.LFB123
 2323 005c 18000000 		.4byte	.LFE123
 2324 0060 00000000 		.4byte	.LFB124
 2325 0064 08000000 		.4byte	.LFE124
 2326 0068 00000000 		.4byte	.LFB125
 2327 006c 18000000 		.4byte	.LFE125
 2328 0070 00000000 		.4byte	.LFB126
 2329 0074 08000000 		.4byte	.LFE126
 2330 0078 00000000 		.4byte	.LFB127
 2331 007c 18000000 		.4byte	.LFE127
 2332 0080 00000000 		.4byte	.LFB128
 2333 0084 08000000 		.4byte	.LFE128
 2334 0088 00000000 		.4byte	.LFB129
 2335 008c 12000000 		.4byte	.LFE129
 2336 0090 00000000 		.4byte	0
 2337 0094 00000000 		.4byte	0
ARM GAS  C:\Users\danit\AppData\Local\Temp\ccVlje1w.s 			page 42


 2338              		.section	.debug_line,"",%progbits
 2339              	.Ldebug_line0:
 2340 0000 B8020000 		.section	.debug_str,"MS",%progbits,1
 2340      0200BA01 
 2340      00000201 
 2340      FB0E0D00 
 2340      01010101 
 2341              	.LASF31:
 2342 0000 43434552 		.ascii	"CCER\000"
 2342      00
 2343              	.LASF16:
 2344 0005 4750545F 		.ascii	"GPT_UNINIT\000"
 2344      554E494E 
 2344      495400
 2345              	.LASF33:
 2346 0010 444D4152 		.ascii	"DMAR\000"
 2346      00
 2347              	.LASF23:
 2348 0015 73746174 		.ascii	"state\000"
 2348      6500
 2349              	.LASF30:
 2350 001b 43434D52 		.ascii	"CCMR2\000"
 2350      3200
 2351              	.LASF34:
 2352 0021 43434D52 		.ascii	"CCMR3\000"
 2352      3300
 2353              	.LASF60:
 2354 0027 6770745F 		.ascii	"gpt_lld_start_timer\000"
 2354      6C6C645F 
 2354      73746172 
 2354      745F7469 
 2354      6D657200 
 2355              	.LASF53:
 2356 003b 67707443 		.ascii	"gptChangeInterval\000"
 2356      68616E67 
 2356      65496E74 
 2356      65727661 
 2356      6C00
 2357              	.LASF14:
 2358 004d 73697A65 		.ascii	"sizetype\000"
 2358      74797065 
 2358      00
 2359              	.LASF26:
 2360 0056 67707463 		.ascii	"gptcallback_t\000"
 2360      616C6C62 
 2360      61636B5F 
 2360      7400
 2361              	.LASF67:
 2362 0064 6770745F 		.ascii	"gpt_lld_polled_delay\000"
 2362      6C6C645F 
 2362      706F6C6C 
 2362      65645F64 
 2362      656C6179 
 2363              	.LASF7:
 2364 0079 5F5F7569 		.ascii	"__uint32_t\000"
 2364      6E743332 
 2364      5F7400
ARM GAS  C:\Users\danit\AppData\Local\Temp\ccVlje1w.s 			page 43


 2365              	.LASF39:
 2366 0084 67707463 		.ascii	"gptcnt_t\000"
 2366      6E745F74 
 2366      00
 2367              	.LASF48:
 2368 008d 67707453 		.ascii	"gptStopTimerI\000"
 2368      746F7054 
 2368      696D6572 
 2368      4900
 2369              	.LASF3:
 2370 009b 73686F72 		.ascii	"short int\000"
 2370      7420696E 
 2370      7400
 2371              	.LASF24:
 2372 00a5 636F6E66 		.ascii	"config\000"
 2372      696700
 2373              	.LASF20:
 2374 00ac 4750545F 		.ascii	"GPT_ONESHOT\000"
 2374      4F4E4553 
 2374      484F5400 
 2375              	.LASF21:
 2376 00b8 67707473 		.ascii	"gptstate_t\000"
 2376      74617465 
 2376      5F7400
 2377              	.LASF66:
 2378 00c3 6770745F 		.ascii	"gpt_lld_init\000"
 2378      6C6C645F 
 2378      696E6974 
 2378      00
 2379              	.LASF9:
 2380 00d0 6C6F6E67 		.ascii	"long long int\000"
 2380      206C6F6E 
 2380      6720696E 
 2380      7400
 2381              	.LASF55:
 2382 00de 67707453 		.ascii	"gptStartOneShot\000"
 2382      74617274 
 2382      4F6E6553 
 2382      686F7400 
 2383              	.LASF46:
 2384 00ee 67707453 		.ascii	"gptStartContinuousI\000"
 2384      74617274 
 2384      436F6E74 
 2384      696E756F 
 2384      75734900 
 2385              	.LASF5:
 2386 0102 6C6F6E67 		.ascii	"long int\000"
 2386      20696E74 
 2386      00
 2387              	.LASF51:
 2388 010b 67707453 		.ascii	"gptStart\000"
 2388      74617274 
 2388      00
 2389              	.LASF36:
 2390 0114 43435236 		.ascii	"CCR6\000"
 2390      00
 2391              	.LASF29:
ARM GAS  C:\Users\danit\AppData\Local\Temp\ccVlje1w.s 			page 44


 2392 0119 43434D52 		.ascii	"CCMR1\000"
 2392      3100
 2393              	.LASF27:
 2394 011f 534D4352 		.ascii	"SMCR\000"
 2394      00
 2395              	.LASF2:
 2396 0124 756E7369 		.ascii	"unsigned char\000"
 2396      676E6564 
 2396      20636861 
 2396      7200
 2397              	.LASF49:
 2398 0132 67707449 		.ascii	"gptInit\000"
 2398      6E697400 
 2399              	.LASF35:
 2400 013a 43435235 		.ascii	"CCR5\000"
 2400      00
 2401              	.LASF54:
 2402 013f 67707453 		.ascii	"gptStartContinuous\000"
 2402      74617274 
 2402      436F6E74 
 2402      696E756F 
 2402      757300
 2403              	.LASF1:
 2404 0152 7369676E 		.ascii	"signed char\000"
 2404      65642063 
 2404      68617200 
 2405              	.LASF10:
 2406 015e 6C6F6E67 		.ascii	"long long unsigned int\000"
 2406      206C6F6E 
 2406      6720756E 
 2406      7369676E 
 2406      65642069 
 2407              	.LASF62:
 2408 0175 474E5520 		.ascii	"GNU C 4.9.3 20150529 (release) [ARM/embedded-4_9-br"
 2408      4320342E 
 2408      392E3320 
 2408      32303135 
 2408      30353239 
 2409 01a8 616E6368 		.ascii	"anch revision 224288] -mcpu=cortex-m4 -mno-thumb-in"
 2409      20726576 
 2409      6973696F 
 2409      6E203232 
 2409      34323838 
 2410 01db 74657277 		.ascii	"terwork -mthumb -ggdb -O2 -fomit-frame-pointer -fal"
 2410      6F726B20 
 2410      2D6D7468 
 2410      756D6220 
 2410      2D676764 
 2411 020e 69676E2D 		.ascii	"ign-functions=16 -ffunction-sections -fdata-section"
 2411      66756E63 
 2411      74696F6E 
 2411      733D3136 
 2411      202D6666 
 2412 0241 73202D66 		.ascii	"s -fno-common\000"
 2412      6E6F2D63 
 2412      6F6D6D6F 
 2412      6E00
ARM GAS  C:\Users\danit\AppData\Local\Temp\ccVlje1w.s 			page 45


 2413              	.LASF12:
 2414 024f 75696E74 		.ascii	"uint32_t\000"
 2414      33325F74 
 2414      00
 2415              	.LASF0:
 2416 0258 756E7369 		.ascii	"unsigned int\000"
 2416      676E6564 
 2416      20696E74 
 2416      00
 2417              	.LASF58:
 2418 0265 6770745F 		.ascii	"gpt_lld_start\000"
 2418      6C6C645F 
 2418      73746172 
 2418      7400
 2419              	.LASF28:
 2420 0273 44494552 		.ascii	"DIER\000"
 2420      00
 2421              	.LASF64:
 2422 0278 443A5C44 		.ascii	"D:\\Dani\\MegaLux\\Repo\\Smarty\\Smarty\\smarty\\fi"
 2422      616E695C 
 2422      4D656761 
 2422      4C75785C 
 2422      5265706F 
 2423 02a4 726D7761 		.ascii	"rmware\000"
 2423      726500
 2424              	.LASF4:
 2425 02ab 73686F72 		.ascii	"short unsigned int\000"
 2425      7420756E 
 2425      7369676E 
 2425      65642069 
 2425      6E7400
 2426              	.LASF15:
 2427 02be 63686172 		.ascii	"char\000"
 2427      00
 2428              	.LASF37:
 2429 02c3 73746D33 		.ascii	"stm32_tim_t\000"
 2429      325F7469 
 2429      6D5F7400 
 2430              	.LASF32:
 2431 02cf 42445452 		.ascii	"BDTR\000"
 2431      00
 2432              	.LASF11:
 2433 02d4 696E7433 		.ascii	"int32_t\000"
 2433      325F7400 
 2434              	.LASF13:
 2435 02dc 5F426F6F 		.ascii	"_Bool\000"
 2435      6C00
 2436              	.LASF19:
 2437 02e2 4750545F 		.ascii	"GPT_CONTINUOUS\000"
 2437      434F4E54 
 2437      494E554F 
 2437      555300
 2438              	.LASF18:
 2439 02f1 4750545F 		.ascii	"GPT_READY\000"
 2439      52454144 
 2439      5900
 2440              	.LASF22:
ARM GAS  C:\Users\danit\AppData\Local\Temp\ccVlje1w.s 			page 46


 2441 02fb 47505444 		.ascii	"GPTDriver\000"
 2441      72697665 
 2441      7200
 2442              	.LASF8:
 2443 0305 6C6F6E67 		.ascii	"long unsigned int\000"
 2443      20756E73 
 2443      69676E65 
 2443      6420696E 
 2443      7400
 2444              	.LASF25:
 2445 0317 636C6F63 		.ascii	"clock\000"
 2445      6B00
 2446              	.LASF45:
 2447 031d 696E7465 		.ascii	"interval\000"
 2447      7276616C 
 2447      00
 2448              	.LASF59:
 2449 0326 6770745F 		.ascii	"gpt_lld_stop\000"
 2449      6C6C645F 
 2449      73746F70 
 2449      00
 2450              	.LASF63:
 2451 0333 2E2E2F2E 		.ascii	"../../../ChibiOS/os/hal/src/gpt.c\000"
 2451      2E2F2E2E 
 2451      2F436869 
 2451      62694F53 
 2451      2F6F732F 
 2452              	.LASF57:
 2453 0355 67707450 		.ascii	"gptPolledDelay\000"
 2453      6F6C6C65 
 2453      6444656C 
 2453      617900
 2454              	.LASF17:
 2455 0364 4750545F 		.ascii	"GPT_STOP\000"
 2455      53544F50 
 2455      00
 2456              	.LASF44:
 2457 036d 67707470 		.ascii	"gptp\000"
 2457      00
 2458              	.LASF6:
 2459 0372 5F5F696E 		.ascii	"__int32_t\000"
 2459      7433325F 
 2459      7400
 2460              	.LASF43:
 2461 037c 47505443 		.ascii	"GPTConfig\000"
 2461      6F6E6669 
 2461      6700
 2462              	.LASF47:
 2463 0386 67707453 		.ascii	"gptStartOneShotI\000"
 2463      74617274 
 2463      4F6E6553 
 2463      686F7449 
 2463      00
 2464              	.LASF42:
 2465 0397 64696572 		.ascii	"dier\000"
 2465      00
 2466              	.LASF56:
ARM GAS  C:\Users\danit\AppData\Local\Temp\ccVlje1w.s 			page 47


 2467 039c 67707453 		.ascii	"gptStopTimer\000"
 2467      746F7054 
 2467      696D6572 
 2467      00
 2468              	.LASF40:
 2469 03a9 66726571 		.ascii	"frequency\000"
 2469      75656E63 
 2469      7900
 2470              	.LASF61:
 2471 03b3 6770745F 		.ascii	"gpt_lld_stop_timer\000"
 2471      6C6C645F 
 2471      73746F70 
 2471      5F74696D 
 2471      657200
 2472              	.LASF50:
 2473 03c6 6770744F 		.ascii	"gptObjectInit\000"
 2473      626A6563 
 2473      74496E69 
 2473      7400
 2474              	.LASF65:
 2475 03d4 49544D5F 		.ascii	"ITM_RxBuffer\000"
 2475      52784275 
 2475      66666572 
 2475      00
 2476              	.LASF38:
 2477 03e1 67707466 		.ascii	"gptfreq_t\000"
 2477      7265715F 
 2477      7400
 2478              	.LASF52:
 2479 03eb 67707453 		.ascii	"gptStop\000"
 2479      746F7000 
 2480              	.LASF41:
 2481 03f3 63616C6C 		.ascii	"callback\000"
 2481      6261636B 
 2481      00
 2482              		.ident	"GCC: (GNU Tools for ARM Embedded Processors) 4.9.3 20150529 (release) [ARM/embedded-4_9-br
ARM GAS  C:\Users\danit\AppData\Local\Temp\ccVlje1w.s 			page 48


DEFINED SYMBOLS
                            *ABS*:00000000 gpt.c
C:\Users\danit\AppData\Local\Temp\ccVlje1w.s:19     .text.gptInit:00000000 $t
C:\Users\danit\AppData\Local\Temp\ccVlje1w.s:25     .text.gptInit:00000000 gptInit
C:\Users\danit\AppData\Local\Temp\ccVlje1w.s:40     .text.gptObjectInit:00000000 $t
C:\Users\danit\AppData\Local\Temp\ccVlje1w.s:46     .text.gptObjectInit:00000000 gptObjectInit
C:\Users\danit\AppData\Local\Temp\ccVlje1w.s:67     .text.gptStart:00000000 $t
C:\Users\danit\AppData\Local\Temp\ccVlje1w.s:73     .text.gptStart:00000000 gptStart
C:\Users\danit\AppData\Local\Temp\ccVlje1w.s:118    .text.gptStop:00000000 $t
C:\Users\danit\AppData\Local\Temp\ccVlje1w.s:124    .text.gptStop:00000000 gptStop
C:\Users\danit\AppData\Local\Temp\ccVlje1w.s:167    .text.gptChangeInterval:00000000 $t
C:\Users\danit\AppData\Local\Temp\ccVlje1w.s:173    .text.gptChangeInterval:00000000 gptChangeInterval
C:\Users\danit\AppData\Local\Temp\ccVlje1w.s:207    .text.gptStartContinuous:00000000 $t
C:\Users\danit\AppData\Local\Temp\ccVlje1w.s:213    .text.gptStartContinuous:00000000 gptStartContinuous
C:\Users\danit\AppData\Local\Temp\ccVlje1w.s:256    .text.gptStartContinuousI:00000000 $t
C:\Users\danit\AppData\Local\Temp\ccVlje1w.s:262    .text.gptStartContinuousI:00000000 gptStartContinuousI
C:\Users\danit\AppData\Local\Temp\ccVlje1w.s:280    .text.gptStartOneShot:00000000 $t
C:\Users\danit\AppData\Local\Temp\ccVlje1w.s:286    .text.gptStartOneShot:00000000 gptStartOneShot
C:\Users\danit\AppData\Local\Temp\ccVlje1w.s:329    .text.gptStartOneShotI:00000000 $t
C:\Users\danit\AppData\Local\Temp\ccVlje1w.s:335    .text.gptStartOneShotI:00000000 gptStartOneShotI
C:\Users\danit\AppData\Local\Temp\ccVlje1w.s:353    .text.gptStopTimer:00000000 $t
C:\Users\danit\AppData\Local\Temp\ccVlje1w.s:359    .text.gptStopTimer:00000000 gptStopTimer
C:\Users\danit\AppData\Local\Temp\ccVlje1w.s:402    .text.gptStopTimerI:00000000 $t
C:\Users\danit\AppData\Local\Temp\ccVlje1w.s:408    .text.gptStopTimerI:00000000 gptStopTimerI
C:\Users\danit\AppData\Local\Temp\ccVlje1w.s:426    .text.gptPolledDelay:00000000 $t
C:\Users\danit\AppData\Local\Temp\ccVlje1w.s:432    .text.gptPolledDelay:00000000 gptPolledDelay
                     .debug_frame:00000010 $d

UNDEFINED SYMBOLS
gpt_lld_init
gpt_lld_start
gpt_lld_stop
gpt_lld_start_timer
gpt_lld_stop_timer
gpt_lld_polled_delay
