ARM GAS  C:\Users\DNIEL~1\AppData\Local\Temp\cc27jBRK.s 			page 1


   1              		.syntax unified
   2              		.cpu cortex-m4
   3              		.fpu softvfp
   4              		.eabi_attribute 20, 1
   5              		.eabi_attribute 21, 1
   6              		.eabi_attribute 23, 3
   7              		.eabi_attribute 24, 1
   8              		.eabi_attribute 25, 1
   9              		.eabi_attribute 26, 1
  10              		.eabi_attribute 30, 2
  11              		.eabi_attribute 18, 4
  12              		.thumb
  13              		.file	"hal.c"
  20 0000 50020000 		.text
  20      0200DC01 
  20      00000201 
  20      FB0E0D00 
  20      01010101 
  21              	.Ltext0:
  22              		.cfi_sections	.debug_frame
  23              		.section	.text.halInit,"ax",%progbits
  24              		.align	2
  25              		.p2align 4,,15
  26              		.global	halInit
  27              		.thumb
  28              		.thumb_func
  29              		.type	halInit, %function
  30              	halInit:
  31              	.LFB118:
  32              		.file 1 "../../../ChibiOS/os/hal/src/hal.c"
  33              		.loc 1 68 0
  34              		.cfi_startproc
  35              		@ args = 0, pretend = 0, frame = 0
  36              		@ frame_needed = 0, uses_anonymous_args = 0
  37 0000 10B5     		push	{r4, lr}
  38              	.LCFI0:
  39              		.cfi_def_cfa_offset 8
  40              		.loc 1 70 0
  41              		.cfi_offset 14, -4
  42              		.cfi_offset 4, -8
  43 0002 FFF7FEFF 		bl	hal_lld_init
  44              		.loc 1 73 0
  45 0006 FFF7FEFF 		bl	tmInit
  46              		.loc 1 76 0
  47 000a 0F48     		ldr	r0, .L2
  48 000c FFF7FEFF 		bl	_pal_lld_init
  49              		.loc 1 79 0
  50 0010 FFF7FEFF 		bl	adcInit
  51              		.loc 1 82 0
  52 0014 FFF7FEFF 		bl	canInit
  53              		.loc 1 88 0
ARM GAS  C:\Users\DNIEL~1\AppData\Local\Temp\cc27jBRK.s 			page 2


  54 0018 FFF7FEFF 		bl	gptInit
  55              		.loc 1 91 0
  56 001c FFF7FEFF 		bl	i2cInit
  57              		.loc 1 94 0
  58 0020 FFF7FEFF 		bl	icuInit
  59              		.loc 1 100 0
  60 0024 FFF7FEFF 		bl	pwmInit
  61              		.loc 1 103 0
  62 0028 FFF7FEFF 		bl	sdInit
  63              		.loc 1 106 0
  64 002c FFF7FEFF 		bl	sdcInit
  65              		.loc 1 109 0
  66 0030 FFF7FEFF 		bl	spiInit
  67              		.loc 1 115 0
  68 0034 FFF7FEFF 		bl	usbInit
  69              		.loc 1 121 0
  70 0038 FFF7FEFF 		bl	sduInit
  71              		.loc 1 124 0
  72 003c FFF7FEFF 		bl	rtcInit
  73              		.loc 1 128 0
  74 0040 BDE81040 		pop	{r4, lr}
  75              		.loc 1 127 0
  76 0044 FFF7FEBF 		b	boardInit
  77              	.L3:
  78              		.align	2
  79              	.L2:
  80 0048 00000000 		.word	pal_default_config
  81              		.cfi_endproc
  82              	.LFE118:
  83              		.size	halInit, .-halInit
  84 004c AFF30080 		.section	.text.halIsCounterWithin,"ax",%progbits
  85              		.align	2
  86              		.p2align 4,,15
  87              		.global	halIsCounterWithin
  88              		.thumb
  89              		.thumb_func
  90              		.type	halIsCounterWithin, %function
  91              	halIsCounterWithin:
  92              	.LFB119:
  93              		.loc 1 174 0
  94              		.cfi_startproc
  95              		@ args = 0, pretend = 0, frame = 0
  96              		@ frame_needed = 0, uses_anonymous_args = 0
  97              		@ link register save eliminated.
  98              	.LVL0:
  99              		.loc 1 175 0
 100 0000 084B     		ldr	r3, .L13
 101              		.loc 1 177 0
 102 0002 8142     		cmp	r1, r0
 103              		.loc 1 175 0
 104 0004 5B68     		ldr	r3, [r3, #4]
 105              	.LVL1:
 106              		.loc 1 177 0
 107 0006 06D9     		bls	.L5
 108              		.loc 1 177 0 is_stmt 0 discriminator 1
 109 0008 8342     		cmp	r3, r0
 110 000a 08D3     		bcc	.L9
ARM GAS  C:\Users\DNIEL~1\AppData\Local\Temp\cc27jBRK.s 			page 3


 111              	.L11:
 112              		.loc 1 177 0
 113 000c 8B42     		cmp	r3, r1
 114 000e 2CBF     		ite	cs
 115 0010 0020     		movcs	r0, #0
 116              	.LVL2:
 117 0012 0120     		movcc	r0, #1
 118 0014 7047     		bx	lr
 119              	.LVL3:
 120              	.L5:
 121              		.loc 1 177 0 discriminator 2
 122 0016 8342     		cmp	r3, r0
 123 0018 F8D3     		bcc	.L11
 124              		.loc 1 177 0
 125 001a 0120     		movs	r0, #1
 126              	.LVL4:
 127              		.loc 1 179 0 is_stmt 1
 128 001c 7047     		bx	lr
 129              	.LVL5:
 130              	.L9:
 131              		.loc 1 177 0
 132 001e 0020     		movs	r0, #0
 133              	.LVL6:
 134 0020 7047     		bx	lr
 135              	.L14:
 136 0022 00BF     		.align	2
 137              	.L13:
 138 0024 001000E0 		.word	-536866816
 139              		.cfi_endproc
 140              	.LFE119:
 141              		.size	halIsCounterWithin, .-halIsCounterWithin
 142 0028 AFF30080 		.section	.text.halPolledDelay,"ax",%progbits
 142      AFF30080 
 143              		.align	2
 144              		.p2align 4,,15
 145              		.global	halPolledDelay
 146              		.thumb
 147              		.thumb_func
 148              		.type	halPolledDelay, %function
 149              	halPolledDelay:
 150              	.LFB120:
 151              		.loc 1 193 0
 152              		.cfi_startproc
 153              		@ args = 0, pretend = 0, frame = 0
 154              		@ frame_needed = 0, uses_anonymous_args = 0
 155              		@ link register save eliminated.
 156              	.LVL7:
 157              		.loc 1 194 0
 158 0000 084A     		ldr	r2, .L27
 159 0002 5368     		ldr	r3, [r2, #4]
 160              	.LVL8:
 161              		.loc 1 195 0
 162 0004 C018     		adds	r0, r0, r3
 163              	.LVL9:
 164              	.L25:
 165              	.LBB4:
 166              	.LBB5:
ARM GAS  C:\Users\DNIEL~1\AppData\Local\Temp\cc27jBRK.s 			page 4


 167              		.loc 1 177 0 discriminator 1
 168 0006 8342     		cmp	r3, r0
 169              		.loc 1 175 0 discriminator 1
 170 0008 5168     		ldr	r1, [r2, #4]
 171              	.LVL10:
 172              		.loc 1 177 0 discriminator 1
 173 000a 02D2     		bcs	.L16
 174              		.loc 1 177 0 is_stmt 0
 175 000c 8B42     		cmp	r3, r1
 176 000e 02D9     		bls	.L26
 177 0010 7047     		bx	lr
 178              	.L16:
 179 0012 8B42     		cmp	r3, r1
 180 0014 F7D9     		bls	.L25
 181              	.L26:
 182 0016 8842     		cmp	r0, r1
 183 0018 94BF     		ite	ls
 184 001a 0021     		movls	r1, #0
 185              	.LVL11:
 186 001c 0121     		movhi	r1, #1
 187              	.LBE5:
 188              	.LBE4:
 189              		.loc 1 196 0 is_stmt 1
 190 001e 0029     		cmp	r1, #0
 191 0020 F1D1     		bne	.L25
 192 0022 7047     		bx	lr
 193              	.L28:
 194              		.align	2
 195              	.L27:
 196 0024 001000E0 		.word	-536866816
 197              		.cfi_endproc
 198              	.LFE120:
 199              		.size	halPolledDelay, .-halPolledDelay
 200 0028 AFF30080 		.text
 200      AFF30080 
 201              	.Letext0: