ARM GAS  C:\Users\srich\AppData\Local\Temp\ccnsdigV.s 			page 1


   1              		.syntax unified
   2              		.cpu cortex-m4
   3              		.fpu softvfp
   4              		.eabi_attribute 20, 1
   5              		.eabi_attribute 21, 1
   6              		.eabi_attribute 23, 3
   7              		.eabi_attribute 24, 1
   8              		.eabi_attribute 25, 1
   9              		.eabi_attribute 26, 1
  10              		.eabi_attribute 30, 2
  11              		.eabi_attribute 34, 1
  12              		.eabi_attribute 18, 4
  13              		.thumb
  14              		.file	"hal_lld.c"
  15              		.text
  16              	.Ltext0:
  17              		.cfi_sections	.debug_frame
  18              		.section	.text.hal_lld_init,"ax",%progbits
  19              		.align	2
  20              		.p2align 4,,15
  21              		.global	hal_lld_init
  22              		.thumb
  23              		.thumb_func
  24              		.type	hal_lld_init, %function
  25              	hal_lld_init:
  26              	.LFB119:
  27              		.file 1 "../../../ChibiOS/os/hal/platforms/STM32F4xx/hal_lld.c"
  28              		.loc 1 111 0
  29              		.cfi_startproc
  30              		@ args = 0, pretend = 0, frame = 0
  31              		@ frame_needed = 0, uses_anonymous_args = 0
  32              		.loc 1 115 0
  33 0000 2A4B     		ldr	r3, .L12
  34              		.loc 1 121 0
  35 0002 2B49     		ldr	r1, .L12+4
  36              		.loc 1 115 0
  37 0004 1A69     		ldr	r2, [r3, #16]
  38 0006 4FF0FF30 		mov	r0, #-1
  39 000a 0022     		movs	r2, #0
  40              		.loc 1 111 0
  41 000c F0B5     		push	{r4, r5, r6, r7, lr}
  42              		.cfi_def_cfa_offset 20
  43              		.cfi_offset 4, -20
  44              		.cfi_offset 5, -16
  45              		.cfi_offset 6, -12
  46              		.cfi_offset 7, -8
  47              		.cfi_offset 14, -4
  48              		.loc 1 115 0
  49 000e 1861     		str	r0, [r3, #16]
  50 0010 1A61     		str	r2, [r3, #16]
  51              		.loc 1 116 0
  52 0012 5C69     		ldr	r4, [r3, #20]
  53 0014 5861     		str	r0, [r3, #20]
  54 0016 5A61     		str	r2, [r3, #20]
  55              		.loc 1 117 0
  56 0018 1C6A     		ldr	r4, [r3, #32]
  57              		.loc 1 128 0
ARM GAS  C:\Users\srich\AppData\Local\Temp\ccnsdigV.s 			page 2


  58 001a 264F     		ldr	r7, .L12+8
  59              		.loc 1 121 0
  60 001c DFF8A0E0 		ldr	lr, .L12+20
  61              		.loc 1 129 0
  62 0020 254E     		ldr	r6, .L12+12
  63              	.LBB4:
  64              	.LBB5:
  65              		.loc 1 54 0
  66 0022 264D     		ldr	r5, .L12+16
  67              	.LBE5:
  68              	.LBE4:
  69              		.loc 1 117 0
  70 0024 64F08054 		orn	r4, r4, #268435456
  71 0028 1C62     		str	r4, [r3, #32]
  72 002a 1A62     		str	r2, [r3, #32]
  73              		.loc 1 123 0
  74 002c 0724     		movs	r4, #7
  75              		.loc 1 118 0
  76 002e D3F824C0 		ldr	ip, [r3, #36]
  77 0032 5862     		str	r0, [r3, #36]
  78 0034 5A62     		str	r2, [r3, #36]
  79              		.loc 1 121 0
  80 0036 C1F804E0 		str	lr, [r1, #4]
  81              		.loc 1 122 0
  82 003a 8A60     		str	r2, [r1, #8]
  83              		.loc 1 123 0
  84 003c 0C60     		str	r4, [r1]
  85              		.loc 1 128 0
  86 003e F968     		ldr	r1, [r7, #12]
  87 0040 41F08071 		orr	r1, r1, #16777216
  88 0044 F960     		str	r1, [r7, #12]
  89              		.loc 1 129 0
  90 0046 3168     		ldr	r1, [r6]
  91 0048 41F00101 		orr	r1, r1, #1
  92 004c 3160     		str	r1, [r6]
  93              		.loc 1 132 0
  94 004e 196C     		ldr	r1, [r3, #64]
  95 0050 41F08051 		orr	r1, r1, #268435456
  96 0054 1964     		str	r1, [r3, #64]
  97              	.LBB7:
  98              	.LBB6:
  99              		.loc 1 54 0
 100 0056 2968     		ldr	r1, [r5]
 101 0058 41F48071 		orr	r1, r1, #256
 102 005c 2960     		str	r1, [r5]
 103              		.loc 1 57 0
 104 005e 196F     		ldr	r1, [r3, #112]
 105 0060 01F44071 		and	r1, r1, #768
 106 0064 B1F5807F 		cmp	r1, #256
 107 0068 03D0     		beq	.L2
 108              		.loc 1 59 0
 109 006a 4FF48031 		mov	r1, #65536
 110 006e 1967     		str	r1, [r3, #112]
 111              		.loc 1 60 0
 112 0070 1A67     		str	r2, [r3, #112]
 113              	.L2:
 114              		.loc 1 69 0
ARM GAS  C:\Users\srich\AppData\Local\Temp\ccnsdigV.s 			page 3


 115 0072 0E4A     		ldr	r2, .L12
 116 0074 136F     		ldr	r3, [r2, #112]
 117 0076 43F00103 		orr	r3, r3, #1
 118 007a 1367     		str	r3, [r2, #112]
 119              	.L3:
 120              		.loc 1 71 0
 121 007c 136F     		ldr	r3, [r2, #112]
 122 007e 0B49     		ldr	r1, .L12
 123 0080 9807     		lsls	r0, r3, #30
 124 0082 FBD5     		bpl	.L3
 125              		.loc 1 78 0
 126 0084 0B6F     		ldr	r3, [r1, #112]
 127 0086 1B04     		lsls	r3, r3, #16
 128 0088 07D4     		bmi	.L4
 129              		.loc 1 80 0
 130 008a 0B6F     		ldr	r3, [r1, #112]
 131 008c 43F48073 		orr	r3, r3, #256
 132 0090 0B67     		str	r3, [r1, #112]
 133              		.loc 1 83 0
 134 0092 0B6F     		ldr	r3, [r1, #112]
 135 0094 43F40043 		orr	r3, r3, #32768
 136 0098 0B67     		str	r3, [r1, #112]
 137              	.L4:
 138              		.loc 1 94 0
 139 009a 084A     		ldr	r2, .L12+16
 140 009c 5368     		ldr	r3, [r2, #4]
 141 009e 23F40073 		bic	r3, r3, #512
 142 00a2 5360     		str	r3, [r2, #4]
 143              	.LBE6:
 144              	.LBE7:
 145              		.loc 1 145 0
 146 00a4 BDE8F040 		pop	{r4, r5, r6, r7, lr}
 147              		.cfi_restore 14
 148              		.cfi_restore 7
 149              		.cfi_restore 6
 150              		.cfi_restore 5
 151              		.cfi_restore 4
 152              		.cfi_def_cfa_offset 0
 153              		.loc 1 138 0
 154 00a8 FFF7FEBF 		b	dmaInit
 155              	.LVL0:
 156              	.L13:
 157              		.align	2
 158              	.L12:
 159 00ac 00380240 		.word	1073887232
 160 00b0 10E000E0 		.word	-536813552
 161 00b4 F0ED00E0 		.word	-536810000
 162 00b8 001000E0 		.word	-536866816
 163 00bc 00700040 		.word	1073770496
 164 00c0 3F900200 		.word	167999
 165              		.cfi_endproc
 166              	.LFE119:
 167              		.size	hal_lld_init, .-hal_lld_init
 168              		.section	.text.stm32_clock_init,"ax",%progbits
 169              		.align	2
 170              		.p2align 4,,15
 171              		.global	stm32_clock_init
ARM GAS  C:\Users\srich\AppData\Local\Temp\ccnsdigV.s 			page 4


 172              		.thumb
 173              		.thumb_func
 174              		.type	stm32_clock_init, %function
 175              	stm32_clock_init:
 176              	.LFB120:
 177              		.loc 1 154 0
 178              		.cfi_startproc
 179              		@ args = 0, pretend = 0, frame = 0
 180              		@ frame_needed = 0, uses_anonymous_args = 0
 181              		@ link register save eliminated.
 182              		.loc 1 158 0
 183 0000 2C49     		ldr	r1, .L35
 184              		.loc 1 162 0
 185 0002 2D4B     		ldr	r3, .L35+4
 186              		.loc 1 158 0
 187 0004 4FF08050 		mov	r0, #268435456
 188              		.loc 1 162 0
 189 0008 4FF44042 		mov	r2, #49152
 190              		.loc 1 158 0
 191 000c 0864     		str	r0, [r1, #64]
 192              		.loc 1 162 0
 193 000e 1A60     		str	r2, [r3]
 194              		.loc 1 169 0
 195 0010 0B68     		ldr	r3, [r1]
 196 0012 43F00103 		orr	r3, r3, #1
 197 0016 0B60     		str	r3, [r1]
 198              	.L15:
 199              		.loc 1 170 0 discriminator 1
 200 0018 0A68     		ldr	r2, [r1]
 201 001a 264B     		ldr	r3, .L35
 202 001c 9007     		lsls	r0, r2, #30
 203 001e FBD5     		bpl	.L15
 204              		.loc 1 176 0
 205 0020 9A68     		ldr	r2, [r3, #8]
 206 0022 22F00302 		bic	r2, r2, #3
 207 0026 9A60     		str	r2, [r3, #8]
 208              		.loc 1 177 0
 209 0028 9A68     		ldr	r2, [r3, #8]
 210 002a 9A60     		str	r2, [r3, #8]
 211              		.loc 1 178 0
 212 002c 1946     		mov	r1, r3
 213              	.L16:
 214              		.loc 1 178 0 is_stmt 0 discriminator 1
 215 002e 8B68     		ldr	r3, [r1, #8]
 216 0030 204A     		ldr	r2, .L35
 217 0032 13F00C03 		ands	r3, r3, #12
 218 0036 FAD1     		bne	.L16
 219              		.loc 1 182 0 is_stmt 1
 220 0038 1168     		ldr	r1, [r2]
 221 003a 01F0F901 		and	r1, r1, #249
 222 003e 1160     		str	r1, [r2]
 223              		.loc 1 183 0
 224 0040 9360     		str	r3, [r2, #8]
 225              		.loc 1 192 0
 226 0042 1368     		ldr	r3, [r2]
 227 0044 43F48033 		orr	r3, r3, #65536
 228 0048 1360     		str	r3, [r2]
ARM GAS  C:\Users\srich\AppData\Local\Temp\ccnsdigV.s 			page 5


 229              	.L17:
 230              		.loc 1 194 0 discriminator 1
 231 004a 1168     		ldr	r1, [r2]
 232 004c 194B     		ldr	r3, .L35
 233 004e 8903     		lsls	r1, r1, #14
 234 0050 FBD5     		bpl	.L17
 235              		.loc 1 200 0
 236 0052 5A6F     		ldr	r2, [r3, #116]
 237 0054 42F00102 		orr	r2, r2, #1
 238 0058 5A67     		str	r2, [r3, #116]
 239              	.L18:
 240              		.loc 1 201 0 discriminator 1
 241 005a 5A6F     		ldr	r2, [r3, #116]
 242 005c 1549     		ldr	r1, .L35
 243 005e 9007     		lsls	r0, r2, #30
 244 0060 FBD5     		bpl	.L18
 245              		.loc 1 207 0
 246 0062 164B     		ldr	r3, .L35+8
 247 0064 4B60     		str	r3, [r1, #4]
 248              		.loc 1 209 0
 249 0066 0B68     		ldr	r3, [r1]
 250              		.loc 1 213 0
 251 0068 134A     		ldr	r2, .L35+4
 252              		.loc 1 209 0
 253 006a 43F08073 		orr	r3, r3, #16777216
 254 006e 0B60     		str	r3, [r1]
 255              	.L19:
 256              		.loc 1 213 0 discriminator 1
 257 0070 5368     		ldr	r3, [r2, #4]
 258 0072 5904     		lsls	r1, r3, #17
 259 0074 FCD5     		bpl	.L19
 260              		.loc 1 229 0 discriminator 1
 261 0076 0F49     		ldr	r1, .L35
 262              	.L29:
 263 0078 0A68     		ldr	r2, [r1]
 264 007a 0E4B     		ldr	r3, .L35
 265 007c 9201     		lsls	r2, r2, #6
 266 007e FBD5     		bpl	.L29
 267              		.loc 1 257 0
 268 0080 0F4A     		ldr	r2, .L35+12
 269              		.loc 1 244 0
 270 0082 1049     		ldr	r1, .L35+16
 271 0084 9960     		str	r1, [r3, #8]
 272              		.loc 1 257 0
 273 0086 40F20571 		movw	r1, #1797
 274 008a 1160     		str	r1, [r2]
 275              		.loc 1 263 0
 276 008c 9A68     		ldr	r2, [r3, #8]
 277 008e 42F00202 		orr	r2, r2, #2
 278 0092 9A60     		str	r2, [r3, #8]
 279              		.loc 1 264 0
 280 0094 1A46     		mov	r2, r3
 281              	.L21:
 282              		.loc 1 264 0 is_stmt 0 discriminator 1
 283 0096 9368     		ldr	r3, [r2, #8]
 284 0098 0649     		ldr	r1, .L35
 285 009a 03F00C03 		and	r3, r3, #12
ARM GAS  C:\Users\srich\AppData\Local\Temp\ccnsdigV.s 			page 6


 286 009e 082B     		cmp	r3, #8
 287 00a0 F9D1     		bne	.L21
 288              		.loc 1 271 0 is_stmt 1
 289 00a2 4B6C     		ldr	r3, [r1, #68]
 290 00a4 43F48043 		orr	r3, r3, #16384
 291 00a8 4B64     		str	r3, [r1, #68]
 292 00aa 4B6E     		ldr	r3, [r1, #100]
 293 00ac 43F48043 		orr	r3, r3, #16384
 294 00b0 4B66     		str	r3, [r1, #100]
 295 00b2 7047     		bx	lr
 296              	.L36:
 297              		.align	2
 298              	.L35:
 299 00b4 00380240 		.word	1073887232
 300 00b8 00700040 		.word	1073770496
 301 00bc 19544007 		.word	121656345
 302 00c0 003C0240 		.word	1073888256
 303 00c4 00940838 		.word	940086272
 304              		.cfi_endproc
 305              	.LFE120:
 306              		.size	stm32_clock_init, .-stm32_clock_init
 307              		.text
 308              	.Letext0:
 309              		.file 2 "c:\\chibistudio\\tools\\gnu tools arm embedded\\4.9 2015q3\\arm-none-eabi\\include\\machi
 310              		.file 3 "c:\\chibistudio\\tools\\gnu tools arm embedded\\4.9 2015q3\\arm-none-eabi\\include\\sys\\
 311              		.file 4 "../../../ChibiOS/os/ports/common/ARMCMx/nvic.h"
 312              		.file 5 "../../../ChibiOS/os/ports/common/ARMCMx/CMSIS/include/core_cm4.h"
 313              		.file 6 "../../../ChibiOS/os/hal/platforms/STM32F4xx/stm32f4xx.h"
 314              		.file 7 "../../../ChibiOS/os/hal/platforms/STM32F4xx/stm32_dma.h"