ARM GAS  C:\Users\danit\AppData\Local\Temp\ccm1H1BI.s 			page 1


   1              		.syntax unified
   2              		.cpu cortex-m4
   3              		.fpu softvfp
   4              		.eabi_attribute 20, 1
   5              		.eabi_attribute 21, 1
   6              		.eabi_attribute 23, 3
   7              		.eabi_attribute 24, 1
   8              		.eabi_attribute 25, 1
   9              		.eabi_attribute 26, 1
  10              		.eabi_attribute 30, 2
  11              		.eabi_attribute 34, 1
  12              		.eabi_attribute 18, 4
  13              		.thumb
  14              		.file	"i2c.c"
  15              		.text
  16              	.Ltext0:
  17              		.cfi_sections	.debug_frame
  18              		.section	.text.i2cInit,"ax",%progbits
  19              		.align	2
  20              		.p2align 4,,15
  21              		.global	i2cInit
  22              		.thumb
  23              		.thumb_func
  24              		.type	i2cInit, %function
  25              	i2cInit:
  26              	.LFB118:
  27              		.file 1 "../../../ChibiOS/os/hal/src/i2c.c"
  28              		.loc 1 71 0
  29              		.cfi_startproc
  30              		@ args = 0, pretend = 0, frame = 0
  31              		@ frame_needed = 0, uses_anonymous_args = 0
  32              		@ link register save eliminated.
  33              		.loc 1 72 0
  34 0000 FFF7FEBF 		b	i2c_lld_init
  35              	.LVL0:
  36              		.cfi_endproc
  37              	.LFE118:
  38              		.size	i2cInit, .-i2cInit
  39              		.section	.text.i2cObjectInit,"ax",%progbits
  40              		.align	2
  41              		.p2align 4,,15
  42              		.global	i2cObjectInit
  43              		.thumb
  44              		.thumb_func
  45              		.type	i2cObjectInit, %function
  46              	i2cObjectInit:
  47              	.LFB119:
  48              		.loc 1 82 0
  49              		.cfi_startproc
  50              		@ args = 0, pretend = 0, frame = 0
  51              		@ frame_needed = 0, uses_anonymous_args = 0
  52              		@ link register save eliminated.
  53              	.LVL1:
  54              		.loc 1 84 0
  55 0000 0122     		movs	r2, #1
  56              		.loc 1 85 0
  57 0002 0023     		movs	r3, #0
ARM GAS  C:\Users\danit\AppData\Local\Temp\ccm1H1BI.s 			page 2


  58              		.loc 1 84 0
  59 0004 0270     		strb	r2, [r0]
  60              		.loc 1 85 0
  61 0006 4360     		str	r3, [r0, #4]
  62              		.loc 1 89 0
  63 0008 0C30     		adds	r0, r0, #12
  64              	.LVL2:
  65 000a FFF7FEBF 		b	chMtxInit
  66              	.LVL3:
  67              		.cfi_endproc
  68              	.LFE119:
  69              		.size	i2cObjectInit, .-i2cObjectInit
  70 000e 00BF     		.section	.text.i2cStart,"ax",%progbits
  71              		.align	2
  72              		.p2align 4,,15
  73              		.global	i2cStart
  74              		.thumb
  75              		.thumb_func
  76              		.type	i2cStart, %function
  77              	i2cStart:
  78              	.LFB120:
  79              		.loc 1 108 0
  80              		.cfi_startproc
  81              		@ args = 0, pretend = 0, frame = 0
  82              		@ frame_needed = 0, uses_anonymous_args = 0
  83              	.LVL4:
  84 0000 10B5     		push	{r4, lr}
  85              		.cfi_def_cfa_offset 8
  86              		.cfi_offset 4, -8
  87              		.cfi_offset 14, -4
  88              	.LBB2:
  89              		.loc 1 116 0
  90 0002 2023     		movs	r3, #32
  91              	.LBE2:
  92              		.loc 1 108 0
  93 0004 0446     		mov	r4, r0
  94              	.LBB3:
  95              		.loc 1 116 0
  96              	@ 116 "../../../ChibiOS/os/hal/src/i2c.c" 1
  97 0006 83F31188 		msr     BASEPRI, r3
  98              	@ 0 "" 2
  99              		.thumb
 100              	.LBE3:
 101              		.loc 1 117 0
 102 000a 4160     		str	r1, [r0, #4]
 103              		.loc 1 118 0
 104 000c FFF7FEFF 		bl	i2c_lld_start
 105              	.LVL5:
 106              		.loc 1 119 0
 107 0010 0223     		movs	r3, #2
 108 0012 2370     		strb	r3, [r4]
 109              	.LBB4:
 110              		.loc 1 120 0
 111 0014 0023     		movs	r3, #0
 112              	@ 120 "../../../ChibiOS/os/hal/src/i2c.c" 1
 113 0016 83F31188 		msr     BASEPRI, r3
 114              	@ 0 "" 2
ARM GAS  C:\Users\danit\AppData\Local\Temp\ccm1H1BI.s 			page 3


 115              		.thumb
 116 001a 10BD     		pop	{r4, pc}
 117              	.LBE4:
 118              		.cfi_endproc
 119              	.LFE120:
 120              		.size	i2cStart, .-i2cStart
 121              		.section	.text.i2cStop,"ax",%progbits
 122              		.align	2
 123              		.p2align 4,,15
 124              		.global	i2cStop
 125              		.thumb
 126              		.thumb_func
 127              		.type	i2cStop, %function
 128              	i2cStop:
 129              	.LFB121:
 130              		.loc 1 130 0
 131              		.cfi_startproc
 132              		@ args = 0, pretend = 0, frame = 0
 133              		@ frame_needed = 0, uses_anonymous_args = 0
 134              	.LVL6:
 135 0000 10B5     		push	{r4, lr}
 136              		.cfi_def_cfa_offset 8
 137              		.cfi_offset 4, -8
 138              		.cfi_offset 14, -4
 139              	.LBB5:
 140              		.loc 1 138 0
 141 0002 2023     		movs	r3, #32
 142              	.LBE5:
 143              		.loc 1 130 0
 144 0004 0446     		mov	r4, r0
 145              	.LBB6:
 146              		.loc 1 138 0
 147              	@ 138 "../../../ChibiOS/os/hal/src/i2c.c" 1
 148 0006 83F31188 		msr     BASEPRI, r3
 149              	@ 0 "" 2
 150              		.thumb
 151              	.LBE6:
 152              		.loc 1 139 0
 153 000a FFF7FEFF 		bl	i2c_lld_stop
 154              	.LVL7:
 155              		.loc 1 140 0
 156 000e 0123     		movs	r3, #1
 157 0010 2370     		strb	r3, [r4]
 158              	.LBB7:
 159              		.loc 1 141 0
 160 0012 0023     		movs	r3, #0
 161              	@ 141 "../../../ChibiOS/os/hal/src/i2c.c" 1
 162 0014 83F31188 		msr     BASEPRI, r3
 163              	@ 0 "" 2
 164              		.thumb
 165 0018 10BD     		pop	{r4, pc}
 166              	.LBE7:
 167              		.cfi_endproc
 168              	.LFE121:
 169              		.size	i2cStop, .-i2cStop
 170 001a 00BF     		.section	.text.i2cGetErrors,"ax",%progbits
 171              		.align	2
ARM GAS  C:\Users\danit\AppData\Local\Temp\ccm1H1BI.s 			page 4


 172              		.p2align 4,,15
 173              		.global	i2cGetErrors
 174              		.thumb
 175              		.thumb_func
 176              		.type	i2cGetErrors, %function
 177              	i2cGetErrors:
 178              	.LFB122:
 179              		.loc 1 152 0
 180              		.cfi_startproc
 181              		@ args = 0, pretend = 0, frame = 0
 182              		@ frame_needed = 0, uses_anonymous_args = 0
 183              		@ link register save eliminated.
 184              	.LVL8:
 185              		.loc 1 157 0
 186 0000 8068     		ldr	r0, [r0, #8]
 187              	.LVL9:
 188 0002 7047     		bx	lr
 189              		.cfi_endproc
 190              	.LFE122:
 191              		.size	i2cGetErrors, .-i2cGetErrors
 192              		.section	.text.i2cMasterTransmitTimeout,"ax",%progbits
 193              		.align	2
 194              		.p2align 4,,15
 195              		.global	i2cMasterTransmitTimeout
 196              		.thumb
 197              		.thumb_func
 198              		.type	i2cMasterTransmitTimeout, %function
 199              	i2cMasterTransmitTimeout:
 200              	.LFB123:
 201              		.loc 1 191 0
 202              		.cfi_startproc
 203              		@ args = 12, pretend = 0, frame = 0
 204              		@ frame_needed = 0, uses_anonymous_args = 0
 205              	.LVL10:
 206 0000 2DE9F041 		push	{r4, r5, r6, r7, r8, lr}
 207              		.cfi_def_cfa_offset 24
 208              		.cfi_offset 4, -24
 209              		.cfi_offset 5, -20
 210              		.cfi_offset 6, -16
 211              		.cfi_offset 7, -12
 212              		.cfi_offset 8, -8
 213              		.cfi_offset 14, -4
 214 0004 84B0     		sub	sp, sp, #16
 215              		.cfi_def_cfa_offset 40
 216              		.loc 1 191 0
 217 0006 9846     		mov	r8, r3
 218 0008 0446     		mov	r4, r0
 219 000a 0A9F     		ldr	r7, [sp, #40]
 220 000c 0B9E     		ldr	r6, [sp, #44]
 221              	.LBB8:
 222              		.loc 1 203 0
 223 000e 2023     		movs	r3, #32
 224              	.LVL11:
 225              	@ 203 "../../../ChibiOS/os/hal/src/i2c.c" 1
 226 0010 83F31188 		msr     BASEPRI, r3
 227              	@ 0 "" 2
 228              		.thumb
ARM GAS  C:\Users\danit\AppData\Local\Temp\ccm1H1BI.s 			page 5


 229              	.LBE8:
 230              		.loc 1 205 0
 231 0014 4FF0030E 		mov	lr, #3
 232              		.loc 1 206 0
 233 0018 0C9B     		ldr	r3, [sp, #48]
 234 001a 0293     		str	r3, [sp, #8]
 235              		.loc 1 204 0
 236 001c 0025     		movs	r5, #0
 237              		.loc 1 206 0
 238 001e 0097     		str	r7, [sp]
 239 0020 0196     		str	r6, [sp, #4]
 240 0022 4346     		mov	r3, r8
 241              		.loc 1 204 0
 242 0024 8560     		str	r5, [r0, #8]
 243              		.loc 1 205 0
 244 0026 80F800E0 		strb	lr, [r0]
 245              		.loc 1 206 0
 246 002a FFF7FEFF 		bl	i2c_lld_master_transmit_timeout
 247              	.LVL12:
 248              		.loc 1 208 0
 249 002e 431C     		adds	r3, r0, #1
 250              		.loc 1 209 0
 251 0030 0CBF     		ite	eq
 252 0032 0523     		moveq	r3, #5
 253              		.loc 1 211 0
 254 0034 0223     		movne	r3, #2
 255 0036 2370     		strb	r3, [r4]
 256              	.LBB9:
 257              		.loc 1 212 0
 258 0038 0023     		movs	r3, #0
 259              	@ 212 "../../../ChibiOS/os/hal/src/i2c.c" 1
 260 003a 83F31188 		msr     BASEPRI, r3
 261              	@ 0 "" 2
 262              		.thumb
 263              	.LBE9:
 264              		.loc 1 214 0
 265 003e 04B0     		add	sp, sp, #16
 266              		.cfi_def_cfa_offset 24
 267              		@ sp needed
 268 0040 BDE8F081 		pop	{r4, r5, r6, r7, r8, pc}
 269              		.cfi_endproc
 270              	.LFE123:
 271              		.size	i2cMasterTransmitTimeout, .-i2cMasterTransmitTimeout
 272              		.section	.text.i2cMasterReceiveTimeout,"ax",%progbits
 273              		.align	2
 274              		.p2align 4,,15
 275              		.global	i2cMasterReceiveTimeout
 276              		.thumb
 277              		.thumb_func
 278              		.type	i2cMasterReceiveTimeout, %function
 279              	i2cMasterReceiveTimeout:
 280              	.LFB124:
 281              		.loc 1 240 0
 282              		.cfi_startproc
 283              		@ args = 4, pretend = 0, frame = 0
 284              		@ frame_needed = 0, uses_anonymous_args = 0
 285              	.LVL13:
ARM GAS  C:\Users\danit\AppData\Local\Temp\ccm1H1BI.s 			page 6


 286 0000 F0B5     		push	{r4, r5, r6, r7, lr}
 287              		.cfi_def_cfa_offset 20
 288              		.cfi_offset 4, -20
 289              		.cfi_offset 5, -16
 290              		.cfi_offset 6, -12
 291              		.cfi_offset 7, -8
 292              		.cfi_offset 14, -4
 293 0002 83B0     		sub	sp, sp, #12
 294              		.cfi_def_cfa_offset 32
 295              		.loc 1 240 0
 296 0004 9E46     		mov	lr, r3
 297 0006 0446     		mov	r4, r0
 298 0008 089F     		ldr	r7, [sp, #32]
 299              	.LBB10:
 300              		.loc 1 252 0
 301 000a 2023     		movs	r3, #32
 302              	.LVL14:
 303              	@ 252 "../../../ChibiOS/os/hal/src/i2c.c" 1
 304 000c 83F31188 		msr     BASEPRI, r3
 305              	@ 0 "" 2
 306              		.thumb
 307              	.LBE10:
 308              		.loc 1 253 0
 309 0010 0026     		movs	r6, #0
 310              		.loc 1 254 0
 311 0012 0425     		movs	r5, #4
 312              		.loc 1 255 0
 313 0014 0097     		str	r7, [sp]
 314 0016 7346     		mov	r3, lr
 315              		.loc 1 253 0
 316 0018 8660     		str	r6, [r0, #8]
 317              		.loc 1 254 0
 318 001a 0570     		strb	r5, [r0]
 319              		.loc 1 255 0
 320 001c FFF7FEFF 		bl	i2c_lld_master_receive_timeout
 321              	.LVL15:
 322              		.loc 1 256 0
 323 0020 431C     		adds	r3, r0, #1
 324              		.loc 1 257 0
 325 0022 0CBF     		ite	eq
 326 0024 0523     		moveq	r3, #5
 327              		.loc 1 259 0
 328 0026 0223     		movne	r3, #2
 329 0028 2370     		strb	r3, [r4]
 330              	.LBB11:
 331              		.loc 1 260 0
 332 002a 0023     		movs	r3, #0
 333              	@ 260 "../../../ChibiOS/os/hal/src/i2c.c" 1
 334 002c 83F31188 		msr     BASEPRI, r3
 335              	@ 0 "" 2
 336              		.thumb
 337              	.LBE11:
 338              		.loc 1 262 0
 339 0030 03B0     		add	sp, sp, #12
 340              		.cfi_def_cfa_offset 20
 341              		@ sp needed
 342 0032 F0BD     		pop	{r4, r5, r6, r7, pc}
ARM GAS  C:\Users\danit\AppData\Local\Temp\ccm1H1BI.s 			page 7


 343              		.cfi_endproc
 344              	.LFE124:
 345              		.size	i2cMasterReceiveTimeout, .-i2cMasterReceiveTimeout
 346              		.section	.text.i2cAcquireBus,"ax",%progbits
 347              		.align	2
 348              		.p2align 4,,15
 349              		.global	i2cAcquireBus
 350              		.thumb
 351              		.thumb_func
 352              		.type	i2cAcquireBus, %function
 353              	i2cAcquireBus:
 354              	.LFB125:
 355              		.loc 1 276 0
 356              		.cfi_startproc
 357              		@ args = 0, pretend = 0, frame = 0
 358              		@ frame_needed = 0, uses_anonymous_args = 0
 359              		@ link register save eliminated.
 360              	.LVL16:
 361              		.loc 1 281 0
 362 0000 0C30     		adds	r0, r0, #12
 363              	.LVL17:
 364 0002 FFF7FEBF 		b	chMtxLock
 365              	.LVL18:
 366              		.cfi_endproc
 367              	.LFE125:
 368              		.size	i2cAcquireBus, .-i2cAcquireBus
 369 0006 00BF     		.section	.text.i2cReleaseBus,"ax",%progbits
 370              		.align	2
 371              		.p2align 4,,15
 372              		.global	i2cReleaseBus
 373              		.thumb
 374              		.thumb_func
 375              		.type	i2cReleaseBus, %function
 376              	i2cReleaseBus:
 377              	.LFB126:
 378              		.loc 1 296 0
 379              		.cfi_startproc
 380              		@ args = 0, pretend = 0, frame = 0
 381              		@ frame_needed = 0, uses_anonymous_args = 0
 382              		@ link register save eliminated.
 383              	.LVL19:
 384              		.loc 1 301 0
 385 0000 FFF7FEBF 		b	chMtxUnlock
 386              	.LVL20:
 387              		.cfi_endproc
 388              	.LFE126:
 389              		.size	i2cReleaseBus, .-i2cReleaseBus
 390              		.text
 391              	.Letext0:
 392              		.file 2 "c:\\program files (x86)\\gnu tools arm embedded\\4.9 2015q2\\lib\\gcc\\arm-none-eabi\\4.9
 393              		.file 3 "c:\\program files (x86)\\gnu tools arm embedded\\4.9 2015q2\\arm-none-eabi\\include\\mach
 394              		.file 4 "c:\\program files (x86)\\gnu tools arm embedded\\4.9 2015q2\\arm-none-eabi\\include\\sys\
 395              		.file 5 "../../../ChibiOS/os/ports/GCC/ARMCMx/chtypes.h"
 396              		.file 6 "../../../ChibiOS/os/kernel/include/chlists.h"
 397              		.file 7 "../../../ChibiOS/os/kernel/include/chthreads.h"
 398              		.file 8 "../../../ChibiOS/os/ports/GCC/ARMCMx/chcore_v7m.h"
 399              		.file 9 "../../../ChibiOS/os/kernel/include/chmtx.h"
ARM GAS  C:\Users\danit\AppData\Local\Temp\ccm1H1BI.s 			page 8


 400              		.file 10 "../../../ChibiOS/os/hal/platforms/STM32F4xx/stm32f4xx.h"
 401              		.file 11 "../../../ChibiOS/os/hal/platforms/STM32F4xx/stm32_dma.h"
 402              		.file 12 "../../../ChibiOS/os/hal/include/i2c.h"
 403              		.file 13 "../../../ChibiOS/os/hal/platforms/STM32/I2Cv1/i2c_lld.h"
 404              		.file 14 "../../../ChibiOS/os/ports/common/ARMCMx/CMSIS/include/core_cm4.h"