ARM GAS  C:\Users\DNIEL~1\AppData\Local\Temp\cc3u0bjF.s 			page 1


   1              		.syntax unified
   2              		.cpu cortex-m4
   3              		.fpu softvfp
   4              		.eabi_attribute 20, 1
   5              		.eabi_attribute 21, 1
   6              		.eabi_attribute 23, 3
   7              		.eabi_attribute 24, 1
   8              		.eabi_attribute 25, 1
   9              		.eabi_attribute 26, 1
  10              		.eabi_attribute 30, 2
  11              		.eabi_attribute 18, 4
  12              		.thumb
  13              		.file	"i2c.c"
  14              		.section	.debug_abbrev,"",%progbits
  15              	.Ldebug_abbrev0:
  16              		.section	.debug_info,"",%progbits
  17              	.Ldebug_info0:
  18              		.section	.debug_line,"",%progbits
  19              	.Ldebug_line0:
  20 0000 81030000 		.text
  20      0200AA02 
  20      00000201 
  20      FB0E0D00 
  20      01010101 
  21              	.Ltext0:
  22              		.cfi_sections	.debug_frame
  23              		.section	.text.i2cInit,"ax",%progbits
  24              		.align	2
  25              		.p2align 4,,15
  26              		.global	i2cInit
  27              		.thumb
  28              		.thumb_func
  29              		.type	i2cInit, %function
  30              	i2cInit:
  31              	.LFB118:
  32              		.file 1 "../../../ChibiOS/os/hal/src/i2c.c"
  33              		.loc 1 71 0
  34              		.cfi_startproc
  35              		@ args = 0, pretend = 0, frame = 0
  36              		@ frame_needed = 0, uses_anonymous_args = 0
  37              		@ link register save eliminated.
  38              		.loc 1 73 0
  39              		.loc 1 72 0
  40 0000 FFF7FEBF 		b	i2c_lld_init
  41              		.cfi_endproc
  42              	.LFE118:
  43              		.size	i2cInit, .-i2cInit
  44 0004 AFF30080 		.section	.text.i2cObjectInit,"ax",%progbits
  44      AFF30080 
  44      AFF30080 
  45              		.align	2
  46              		.p2align 4,,15
  47              		.global	i2cObjectInit
  48              		.thumb
  49              		.thumb_func
  50              		.type	i2cObjectInit, %function
  51              	i2cObjectInit:
ARM GAS  C:\Users\DNIEL~1\AppData\Local\Temp\cc3u0bjF.s 			page 2


  52              	.LFB119:
  53              		.loc 1 82 0
  54              		.cfi_startproc
  55              		@ args = 0, pretend = 0, frame = 0
  56              		@ frame_needed = 0, uses_anonymous_args = 0
  57              		@ link register save eliminated.
  58              	.LVL0:
  59              		.loc 1 84 0
  60 0000 0121     		movs	r1, #1
  61              		.loc 1 85 0
  62 0002 0023     		movs	r3, #0
  63              		.loc 1 84 0
  64 0004 0170     		strb	r1, [r0, #0]
  65              		.loc 1 85 0
  66 0006 4360     		str	r3, [r0, #4]
  67              		.loc 1 89 0
  68 0008 0C30     		adds	r0, r0, #12
  69              	.LVL1:
  70              		.loc 1 98 0
  71              		.loc 1 89 0
  72 000a FFF7FEBF 		b	chMtxInit
  73              		.cfi_endproc
  74              	.LFE119:
  75              		.size	i2cObjectInit, .-i2cObjectInit
  76 000e 00BF     		.section	.text.i2cStart,"ax",%progbits
  77              		.align	2
  78              		.p2align 4,,15
  79              		.global	i2cStart
  80              		.thumb
  81              		.thumb_func
  82              		.type	i2cStart, %function
  83              	i2cStart:
  84              	.LFB120:
  85              		.loc 1 108 0
  86              		.cfi_startproc
  87              		@ args = 0, pretend = 0, frame = 0
  88              		@ frame_needed = 0, uses_anonymous_args = 0
  89              	.LVL2:
  90 0000 10B5     		push	{r4, lr}
  91              	.LCFI0:
  92              		.cfi_def_cfa_offset 8
  93              	.LBB2:
  94              		.loc 1 116 0
  95 0002 2023     		movs	r3, #32
  96              	.LVL3:
  97              	.LBE2:
  98              		.loc 1 108 0
  99 0004 0446     		mov	r4, r0
 100              		.cfi_offset 14, -4
 101              		.cfi_offset 4, -8
 102              	.LBB3:
 103              		.loc 1 116 0
 104              	@ 116 "../../../ChibiOS/os/hal/src/i2c.c" 1
 105 0006 83F31188 		msr     BASEPRI, r3
 106              	@ 0 "" 2
 107              	.LVL4:
 108              		.thumb
ARM GAS  C:\Users\DNIEL~1\AppData\Local\Temp\cc3u0bjF.s 			page 3


 109              	.LBE3:
 110              		.loc 1 117 0
 111 000a 4160     		str	r1, [r0, #4]
 112              		.loc 1 118 0
 113 000c FFF7FEFF 		bl	i2c_lld_start
 114              	.LVL5:
 115              		.loc 1 119 0
 116 0010 0223     		movs	r3, #2
 117 0012 2370     		strb	r3, [r4, #0]
 118              	.LBB4:
 119              		.loc 1 120 0
 120 0014 0023     		movs	r3, #0
 121              	.LVL6:
 122              	@ 120 "../../../ChibiOS/os/hal/src/i2c.c" 1
 123 0016 83F31188 		msr     BASEPRI, r3
 124              	@ 0 "" 2
 125              	.LVL7:
 126              		.thumb
 127              	.LBE4:
 128              		.loc 1 121 0
 129 001a 10BD     		pop	{r4, pc}
 130              		.cfi_endproc
 131              	.LFE120:
 132              		.size	i2cStart, .-i2cStart
 133 001c AFF30080 		.section	.text.i2cStop,"ax",%progbits
 134              		.align	2
 135              		.p2align 4,,15
 136              		.global	i2cStop
 137              		.thumb
 138              		.thumb_func
 139              		.type	i2cStop, %function
 140              	i2cStop:
 141              	.LFB121:
 142              		.loc 1 130 0
 143              		.cfi_startproc
 144              		@ args = 0, pretend = 0, frame = 0
 145              		@ frame_needed = 0, uses_anonymous_args = 0
 146              	.LVL8:
 147 0000 10B5     		push	{r4, lr}
 148              	.LCFI1:
 149              		.cfi_def_cfa_offset 8
 150              	.LBB5:
 151              		.loc 1 138 0
 152 0002 2023     		movs	r3, #32
 153              	.LVL9:
 154              	.LBE5:
 155              		.loc 1 130 0
 156 0004 0446     		mov	r4, r0
 157              		.cfi_offset 14, -4
 158              		.cfi_offset 4, -8
 159              	.LBB6:
 160              		.loc 1 138 0
 161              	@ 138 "../../../ChibiOS/os/hal/src/i2c.c" 1
 162 0006 83F31188 		msr     BASEPRI, r3
 163              	@ 0 "" 2
 164              	.LVL10:
 165              		.thumb
ARM GAS  C:\Users\DNIEL~1\AppData\Local\Temp\cc3u0bjF.s 			page 4


 166              	.LBE6:
 167              		.loc 1 139 0
 168 000a FFF7FEFF 		bl	i2c_lld_stop
 169              	.LVL11:
 170              		.loc 1 140 0
 171 000e 0123     		movs	r3, #1
 172 0010 2370     		strb	r3, [r4, #0]
 173              	.LBB7:
 174              		.loc 1 141 0
 175 0012 0023     		movs	r3, #0
 176              	.LVL12:
 177              	@ 141 "../../../ChibiOS/os/hal/src/i2c.c" 1
 178 0014 83F31188 		msr     BASEPRI, r3
 179              	@ 0 "" 2
 180              	.LVL13:
 181              		.thumb
 182              	.LBE7:
 183              		.loc 1 142 0
 184 0018 10BD     		pop	{r4, pc}
 185              		.cfi_endproc
 186              	.LFE121:
 187              		.size	i2cStop, .-i2cStop
 188 001a 00BFAFF3 		.section	.text.i2cGetErrors,"ax",%progbits
 188      0080
 189              		.align	2
 190              		.p2align 4,,15
 191              		.global	i2cGetErrors
 192              		.thumb
 193              		.thumb_func
 194              		.type	i2cGetErrors, %function
 195              	i2cGetErrors:
 196              	.LFB122:
 197              		.loc 1 152 0
 198              		.cfi_startproc
 199              		@ args = 0, pretend = 0, frame = 0
 200              		@ frame_needed = 0, uses_anonymous_args = 0
 201              		@ link register save eliminated.
 202              	.LVL14:
 203              		.loc 1 157 0
 204 0000 8068     		ldr	r0, [r0, #8]
 205              	.LVL15:
 206 0002 7047     		bx	lr
 207              		.cfi_endproc
 208              	.LFE122:
 209              		.size	i2cGetErrors, .-i2cGetErrors
 210 0004 AFF30080 		.section	.text.i2cMasterTransmitTimeout,"ax",%progbits
 210      AFF30080 
 210      AFF30080 
 211              		.align	2
 212              		.p2align 4,,15
 213              		.global	i2cMasterTransmitTimeout
 214              		.thumb
 215              		.thumb_func
 216              		.type	i2cMasterTransmitTimeout, %function
 217              	i2cMasterTransmitTimeout:
 218              	.LFB123:
 219              		.loc 1 191 0
ARM GAS  C:\Users\DNIEL~1\AppData\Local\Temp\cc3u0bjF.s 			page 5


 220              		.cfi_startproc
 221              		@ args = 12, pretend = 0, frame = 0
 222              		@ frame_needed = 0, uses_anonymous_args = 0
 223              	.LVL16:
 224 0000 30B5     		push	{r4, r5, lr}
 225              	.LCFI2:
 226              		.cfi_def_cfa_offset 12
 227 0002 9C46     		mov	ip, r3
 228 0004 85B0     		sub	sp, sp, #20
 229              	.LCFI3:
 230              		.cfi_def_cfa_offset 32
 231              		.loc 1 191 0
 232 0006 0446     		mov	r4, r0
 233              		.cfi_offset 14, -4
 234              		.cfi_offset 5, -8
 235              		.cfi_offset 4, -12
 236              	.LBB8:
 237              		.loc 1 203 0
 238 0008 2023     		movs	r3, #32
 239              	.LVL17:
 240              	@ 203 "../../../ChibiOS/os/hal/src/i2c.c" 1
 241 000a 83F31188 		msr     BASEPRI, r3
 242              	@ 0 "" 2
 243              	.LVL18:
 244              		.thumb
 245              	.LBE8:
 246              		.loc 1 204 0
 247 000e 0025     		movs	r5, #0
 248 0010 8560     		str	r5, [r0, #8]
 249              		.loc 1 206 0
 250 0012 089D     		ldr	r5, [sp, #32]
 251              		.loc 1 205 0
 252 0014 0323     		movs	r3, #3
 253              	.LVL19:
 254 0016 0370     		strb	r3, [r0, #0]
 255              		.loc 1 206 0
 256 0018 0095     		str	r5, [sp, #0]
 257 001a 099D     		ldr	r5, [sp, #36]
 258 001c 0195     		str	r5, [sp, #4]
 259 001e 0A9D     		ldr	r5, [sp, #40]
 260 0020 6346     		mov	r3, ip
 261 0022 0295     		str	r5, [sp, #8]
 262 0024 FFF7FEFF 		bl	i2c_lld_master_transmit_timeout
 263              	.LVL20:
 264              		.loc 1 208 0
 265 0028 B0F1FF3F 		cmp	r0, #-1
 266 002c 06D0     		beq	.L10
 267              		.loc 1 211 0
 268 002e 0222     		movs	r2, #2
 269 0030 2270     		strb	r2, [r4, #0]
 270              	.L8:
 271              	.LBB9:
 272              		.loc 1 212 0
 273 0032 0023     		movs	r3, #0
 274              	.LVL21:
 275              	@ 212 "../../../ChibiOS/os/hal/src/i2c.c" 1
 276 0034 83F31188 		msr     BASEPRI, r3
ARM GAS  C:\Users\DNIEL~1\AppData\Local\Temp\cc3u0bjF.s 			page 6


 277              	@ 0 "" 2
 278              	.LVL22:
 279              		.thumb
 280              	.LBE9:
 281              		.loc 1 214 0
 282 0038 05B0     		add	sp, sp, #20
 283 003a 30BD     		pop	{r4, r5, pc}
 284              	.LVL23:
 285              	.L10:
 286              		.loc 1 209 0
 287 003c 0521     		movs	r1, #5
 288 003e 2170     		strb	r1, [r4, #0]
 289 0040 F7E7     		b	.L8
 290              		.cfi_endproc
 291              	.LFE123:
 292              		.size	i2cMasterTransmitTimeout, .-i2cMasterTransmitTimeout
 293 0042 00BFAFF3 		.section	.text.i2cMasterReceiveTimeout,"ax",%progbits
 293      0080AFF3 
 293      0080AFF3 
 293      0080
 294              		.align	2
 295              		.p2align 4,,15
 296              		.global	i2cMasterReceiveTimeout
 297              		.thumb
 298              		.thumb_func
 299              		.type	i2cMasterReceiveTimeout, %function
 300              	i2cMasterReceiveTimeout:
 301              	.LFB124:
 302              		.loc 1 240 0
 303              		.cfi_startproc
 304              		@ args = 4, pretend = 0, frame = 0
 305              		@ frame_needed = 0, uses_anonymous_args = 0
 306              	.LVL24:
 307 0000 30B5     		push	{r4, r5, lr}
 308              	.LCFI4:
 309              		.cfi_def_cfa_offset 12
 310 0002 1D46     		mov	r5, r3
 311              		.cfi_offset 14, -4
 312              		.cfi_offset 5, -8
 313              		.cfi_offset 4, -12
 314 0004 83B0     		sub	sp, sp, #12
 315              	.LCFI5:
 316              		.cfi_def_cfa_offset 24
 317              		.loc 1 240 0
 318 0006 0446     		mov	r4, r0
 319              	.LBB10:
 320              		.loc 1 252 0
 321 0008 2023     		movs	r3, #32
 322              	.LVL25:
 323              	@ 252 "../../../ChibiOS/os/hal/src/i2c.c" 1
 324 000a 83F31188 		msr     BASEPRI, r3
 325              	@ 0 "" 2
 326              	.LVL26:
 327              		.thumb
 328              	.LBE10:
 329              		.loc 1 253 0
 330 000e 0023     		movs	r3, #0
ARM GAS  C:\Users\DNIEL~1\AppData\Local\Temp\cc3u0bjF.s 			page 7


 331              	.LVL27:
 332 0010 8360     		str	r3, [r0, #8]
 333              		.loc 1 254 0
 334 0012 0423     		movs	r3, #4
 335 0014 0370     		strb	r3, [r0, #0]
 336              		.loc 1 255 0
 337 0016 2B46     		mov	r3, r5
 338 0018 069D     		ldr	r5, [sp, #24]
 339              	.LVL28:
 340 001a 0095     		str	r5, [sp, #0]
 341 001c FFF7FEFF 		bl	i2c_lld_master_receive_timeout
 342              	.LVL29:
 343              		.loc 1 256 0
 344 0020 B0F1FF3F 		cmp	r0, #-1
 345 0024 06D0     		beq	.L14
 346              		.loc 1 259 0
 347 0026 0222     		movs	r2, #2
 348 0028 2270     		strb	r2, [r4, #0]
 349              	.L13:
 350              	.LBB11:
 351              		.loc 1 260 0
 352 002a 0023     		movs	r3, #0
 353              	.LVL30:
 354              	@ 260 "../../../ChibiOS/os/hal/src/i2c.c" 1
 355 002c 83F31188 		msr     BASEPRI, r3
 356              	@ 0 "" 2
 357              	.LVL31:
 358              		.thumb
 359              	.LBE11:
 360              		.loc 1 262 0
 361 0030 03B0     		add	sp, sp, #12
 362 0032 30BD     		pop	{r4, r5, pc}
 363              	.LVL32:
 364              	.L14:
 365              		.loc 1 257 0
 366 0034 0521     		movs	r1, #5
 367 0036 2170     		strb	r1, [r4, #0]
 368 0038 F7E7     		b	.L13
 369              		.cfi_endproc
 370              	.LFE124:
 371              		.size	i2cMasterReceiveTimeout, .-i2cMasterReceiveTimeout
 372 003a 00BFAFF3 		.section	.text.i2cAcquireBus,"ax",%progbits
 372      0080
 373              		.align	2
 374              		.p2align 4,,15
 375              		.global	i2cAcquireBus
 376              		.thumb
 377              		.thumb_func
 378              		.type	i2cAcquireBus, %function
 379              	i2cAcquireBus:
 380              	.LFB125:
 381              		.loc 1 276 0
 382              		.cfi_startproc
 383              		@ args = 0, pretend = 0, frame = 0
 384              		@ frame_needed = 0, uses_anonymous_args = 0
 385              		@ link register save eliminated.
 386              	.LVL33:
ARM GAS  C:\Users\DNIEL~1\AppData\Local\Temp\cc3u0bjF.s 			page 8


 387              		.loc 1 281 0
 388 0000 0C30     		adds	r0, r0, #12
 389              	.LVL34:
 390              		.loc 1 285 0
 391              		.loc 1 281 0
 392 0002 FFF7FEBF 		b	chMtxLock
 393              		.cfi_endproc
 394              	.LFE125:
 395              		.size	i2cAcquireBus, .-i2cAcquireBus
 396 0006 00BFAFF3 		.section	.text.i2cReleaseBus,"ax",%progbits
 396      0080AFF3 
 396      0080
 397              		.align	2
 398              		.p2align 4,,15
 399              		.global	i2cReleaseBus
 400              		.thumb
 401              		.thumb_func
 402              		.type	i2cReleaseBus, %function
 403              	i2cReleaseBus:
 404              	.LFB126:
 405              		.loc 1 296 0
 406              		.cfi_startproc
 407              		@ args = 0, pretend = 0, frame = 0
 408              		@ frame_needed = 0, uses_anonymous_args = 0
 409              		@ link register save eliminated.
 410              	.LVL35:
 411              		.loc 1 305 0
 412              		.loc 1 301 0
 413 0000 FFF7FEBF 		b	chMtxUnlock
 414              		.cfi_endproc
 415              	.LFE126:
 416              		.size	i2cReleaseBus, .-i2cReleaseBus
 417 0004 AFF30080 		.text
 417      AFF30080 
 417      AFF30080 
 418              	.Letext0:
 419              		.section	.debug_loc,"",%progbits
 420              	.Ldebug_loc0:
 421              	.LLST0:
 422 0000 00000000 		.4byte	.LVL0
 423 0004 0A000000 		.4byte	.LVL1
 424 0008 0100     		.2byte	0x1
 425 000a 50       		.byte	0x50
 426 000b 0A000000 		.4byte	.LVL1
 427 000f 0E000000 		.4byte	.LFE119
 428 0013 0300     		.2byte	0x3
 429 0015 70       		.byte	0x70
 430 0016 74       		.sleb128 -12
 431 0017 9F       		.byte	0x9f
 432 0018 00000000 		.4byte	0x0
 433 001c 00000000 		.4byte	0x0
 434              	.LLST1:
 435 0020 00000000 		.4byte	.LFB120
 436 0024 02000000 		.4byte	.LCFI0
 437 0028 0200     		.2byte	0x2
 438 002a 7D       		.byte	0x7d
 439 002b 00       		.sleb128 0
ARM GAS  C:\Users\DNIEL~1\AppData\Local\Temp\cc3u0bjF.s 			page 9


 440 002c 02000000 		.4byte	.LCFI0
 441 0030 1C000000 		.4byte	.LFE120
 442 0034 0200     		.2byte	0x2
 443 0036 7D       		.byte	0x7d
 444 0037 08       		.sleb128 8
 445 0038 00000000 		.4byte	0x0
 446 003c 00000000 		.4byte	0x0
 447              	.LLST2:
 448 0040 00000000 		.4byte	.LVL2
 449 0044 0F000000 		.4byte	.LVL5-1
 450 0048 0100     		.2byte	0x1
 451 004a 50       		.byte	0x50
 452 004b 0F000000 		.4byte	.LVL5-1
 453 004f 1C000000 		.4byte	.LFE120
 454 0053 0100     		.2byte	0x1
 455 0055 54       		.byte	0x54
 456 0056 00000000 		.4byte	0x0
 457 005a 00000000 		.4byte	0x0
 458              	.LLST3:
 459 005e 00000000 		.4byte	.LVL2
 460 0062 0F000000 		.4byte	.LVL5-1
 461 0066 0100     		.2byte	0x1
 462 0068 51       		.byte	0x51
 463 0069 00000000 		.4byte	0x0
 464 006d 00000000 		.4byte	0x0
 465              	.LLST4:
 466 0071 0A000000 		.4byte	.LVL4
 467 0075 0F000000 		.4byte	.LVL5-1
 468 0079 0100     		.2byte	0x1
 469 007b 53       		.byte	0x53
 470 007c 00000000 		.4byte	0x0
 471 0080 00000000 		.4byte	0x0
 472              	.LLST5:
 473 0084 1A000000 		.4byte	.LVL7
 474 0088 1C000000 		.4byte	.LFE120
 475 008c 0100     		.2byte	0x1
 476 008e 53       		.byte	0x53
 477 008f 00000000 		.4byte	0x0
 478 0093 00000000 		.4byte	0x0
 479              	.LLST6:
 480 0097 00000000 		.4byte	.LFB121
 481 009b 02000000 		.4byte	.LCFI1
 482 009f 0200     		.2byte	0x2
 483 00a1 7D       		.byte	0x7d
 484 00a2 00       		.sleb128 0
 485 00a3 02000000 		.4byte	.LCFI1
 486 00a7 1A000000 		.4byte	.LFE121
 487 00ab 0200     		.2byte	0x2
 488 00ad 7D       		.byte	0x7d
 489 00ae 08       		.sleb128 8
 490 00af 00000000 		.4byte	0x0
 491 00b3 00000000 		.4byte	0x0
 492              	.LLST7:
 493 00b7 00000000 		.4byte	.LVL8
 494 00bb 0D000000 		.4byte	.LVL11-1
 495 00bf 0100     		.2byte	0x1
 496 00c1 50       		.byte	0x50
ARM GAS  C:\Users\DNIEL~1\AppData\Local\Temp\cc3u0bjF.s 			page 10


 497 00c2 0D000000 		.4byte	.LVL11-1
 498 00c6 1A000000 		.4byte	.LFE121
 499 00ca 0100     		.2byte	0x1
 500 00cc 54       		.byte	0x54
 501 00cd 00000000 		.4byte	0x0
 502 00d1 00000000 		.4byte	0x0
 503              	.LLST8:
 504 00d5 0A000000 		.4byte	.LVL10
 505 00d9 0D000000 		.4byte	.LVL11-1
 506 00dd 0100     		.2byte	0x1
 507 00df 53       		.byte	0x53
 508 00e0 00000000 		.4byte	0x0
 509 00e4 00000000 		.4byte	0x0
 510              	.LLST9:
 511 00e8 18000000 		.4byte	.LVL13
 512 00ec 1A000000 		.4byte	.LFE121
 513 00f0 0100     		.2byte	0x1
 514 00f2 53       		.byte	0x53
 515 00f3 00000000 		.4byte	0x0
 516 00f7 00000000 		.4byte	0x0
 517              	.LLST10:
 518 00fb 00000000 		.4byte	.LVL14
 519 00ff 02000000 		.4byte	.LVL15
 520 0103 0100     		.2byte	0x1
 521 0105 50       		.byte	0x50
 522 0106 00000000 		.4byte	0x0
 523 010a 00000000 		.4byte	0x0
 524              	.LLST11:
 525 010e 00000000 		.4byte	.LFB123
 526 0112 02000000 		.4byte	.LCFI2
 527 0116 0200     		.2byte	0x2
 528 0118 7D       		.byte	0x7d
 529 0119 00       		.sleb128 0
 530 011a 02000000 		.4byte	.LCFI2
 531 011e 06000000 		.4byte	.LCFI3
 532 0122 0200     		.2byte	0x2
 533 0124 7D       		.byte	0x7d
 534 0125 0C       		.sleb128 12
 535 0126 06000000 		.4byte	.LCFI3
 536 012a 42000000 		.4byte	.LFE123
 537 012e 0200     		.2byte	0x2
 538 0130 7D       		.byte	0x7d
 539 0131 20       		.sleb128 32
 540 0132 00000000 		.4byte	0x0
 541 0136 00000000 		.4byte	0x0
 542              	.LLST12:
 543 013a 00000000 		.4byte	.LVL16
 544 013e 27000000 		.4byte	.LVL20-1
 545 0142 0100     		.2byte	0x1
 546 0144 50       		.byte	0x50
 547 0145 27000000 		.4byte	.LVL20-1
 548 0149 42000000 		.4byte	.LFE123
 549 014d 0100     		.2byte	0x1
 550 014f 54       		.byte	0x54
 551 0150 00000000 		.4byte	0x0
 552 0154 00000000 		.4byte	0x0
 553              	.LLST13:
ARM GAS  C:\Users\DNIEL~1\AppData\Local\Temp\cc3u0bjF.s 			page 11


 554 0158 00000000 		.4byte	.LVL16
 555 015c 27000000 		.4byte	.LVL20-1
 556 0160 0100     		.2byte	0x1
 557 0162 51       		.byte	0x51
 558 0163 00000000 		.4byte	0x0
 559 0167 00000000 		.4byte	0x0
 560              	.LLST14:
 561 016b 00000000 		.4byte	.LVL16
 562 016f 27000000 		.4byte	.LVL20-1
 563 0173 0100     		.2byte	0x1
 564 0175 52       		.byte	0x52
 565 0176 00000000 		.4byte	0x0
 566 017a 00000000 		.4byte	0x0
 567              	.LLST15:
 568 017e 00000000 		.4byte	.LVL16
 569 0182 0A000000 		.4byte	.LVL17
 570 0186 0100     		.2byte	0x1
 571 0188 53       		.byte	0x53
 572 0189 0A000000 		.4byte	.LVL17
 573 018d 27000000 		.4byte	.LVL20-1
 574 0191 0100     		.2byte	0x1
 575 0193 5C       		.byte	0x5c
 576 0194 00000000 		.4byte	0x0
 577 0198 00000000 		.4byte	0x0
 578              	.LLST16:
 579 019c 0E000000 		.4byte	.LVL18
 580 01a0 16000000 		.4byte	.LVL19
 581 01a4 0100     		.2byte	0x1
 582 01a6 53       		.byte	0x53
 583 01a7 00000000 		.4byte	0x0
 584 01ab 00000000 		.4byte	0x0
 585              	.LLST17:
 586 01af 38000000 		.4byte	.LVL22
 587 01b3 3C000000 		.4byte	.LVL23
 588 01b7 0100     		.2byte	0x1
 589 01b9 53       		.byte	0x53
 590 01ba 00000000 		.4byte	0x0
 591 01be 00000000 		.4byte	0x0
 592              	.LLST18:
 593 01c2 00000000 		.4byte	.LFB124
 594 01c6 02000000 		.4byte	.LCFI4
 595 01ca 0200     		.2byte	0x2
 596 01cc 7D       		.byte	0x7d
 597 01cd 00       		.sleb128 0
 598 01ce 02000000 		.4byte	.LCFI4
 599 01d2 06000000 		.4byte	.LCFI5
 600 01d6 0200     		.2byte	0x2
 601 01d8 7D       		.byte	0x7d
 602 01d9 0C       		.sleb128 12
 603 01da 06000000 		.4byte	.LCFI5
 604 01de 3A000000 		.4byte	.LFE124
 605 01e2 0200     		.2byte	0x2
 606 01e4 7D       		.byte	0x7d
 607 01e5 18       		.sleb128 24
 608 01e6 00000000 		.4byte	0x0
 609 01ea 00000000 		.4byte	0x0
 610              	.LLST19:
ARM GAS  C:\Users\DNIEL~1\AppData\Local\Temp\cc3u0bjF.s 			page 12


 611 01ee 00000000 		.4byte	.LVL24
 612 01f2 1F000000 		.4byte	.LVL29-1
 613 01f6 0100     		.2byte	0x1
 614 01f8 50       		.byte	0x50
 615 01f9 1F000000 		.4byte	.LVL29-1
 616 01fd 3A000000 		.4byte	.LFE124
 617 0201 0100     		.2byte	0x1
 618 0203 54       		.byte	0x54
 619 0204 00000000 		.4byte	0x0
 620 0208 00000000 		.4byte	0x0
 621              	.LLST20:
 622 020c 00000000 		.4byte	.LVL24
 623 0210 1F000000 		.4byte	.LVL29-1
 624 0214 0100     		.2byte	0x1
 625 0216 51       		.byte	0x51
 626 0217 00000000 		.4byte	0x0
 627 021b 00000000 		.4byte	0x0
 628              	.LLST21:
 629 021f 00000000 		.4byte	.LVL24
 630 0223 1F000000 		.4byte	.LVL29-1
 631 0227 0100     		.2byte	0x1
 632 0229 52       		.byte	0x52
 633 022a 00000000 		.4byte	0x0
 634 022e 00000000 		.4byte	0x0
 635              	.LLST22:
 636 0232 00000000 		.4byte	.LVL24
 637 0236 0A000000 		.4byte	.LVL25
 638 023a 0100     		.2byte	0x1
 639 023c 53       		.byte	0x53
 640 023d 0A000000 		.4byte	.LVL25
 641 0241 1A000000 		.4byte	.LVL28
 642 0245 0100     		.2byte	0x1
 643 0247 55       		.byte	0x55
 644 0248 1A000000 		.4byte	.LVL28
 645 024c 1F000000 		.4byte	.LVL29-1
 646 0250 0100     		.2byte	0x1
 647 0252 53       		.byte	0x53
 648 0253 00000000 		.4byte	0x0
 649 0257 00000000 		.4byte	0x0
 650              	.LLST23:
 651 025b 0E000000 		.4byte	.LVL26
 652 025f 10000000 		.4byte	.LVL27
 653 0263 0100     		.2byte	0x1
 654 0265 53       		.byte	0x53
 655 0266 00000000 		.4byte	0x0
 656 026a 00000000 		.4byte	0x0
 657              	.LLST24:
 658 026e 30000000 		.4byte	.LVL31
 659 0272 34000000 		.4byte	.LVL32
 660 0276 0100     		.2byte	0x1
 661 0278 53       		.byte	0x53
 662 0279 00000000 		.4byte	0x0
 663 027d 00000000 		.4byte	0x0
 664              	.LLST25:
 665 0281 00000000 		.4byte	.LVL33
 666 0285 02000000 		.4byte	.LVL34
 667 0289 0100     		.2byte	0x1
ARM GAS  C:\Users\DNIEL~1\AppData\Local\Temp\cc3u0bjF.s 			page 13


 668 028b 50       		.byte	0x50
 669 028c 02000000 		.4byte	.LVL34
 670 0290 06000000 		.4byte	.LFE125
 671 0294 0300     		.2byte	0x3
 672 0296 70       		.byte	0x70
 673 0297 74       		.sleb128 -12
 674 0298 9F       		.byte	0x9f
 675 0299 00000000 		.4byte	0x0
 676 029d 00000000 		.4byte	0x0
 677              		.file 2 "c:\\program files (x86)\\codesourcery\\sourcery g++ lite\\bin\\../lib/gcc/arm-none-eabi/4
 678              		.file 3 "c:\\program files (x86)\\codesourcery\\sourcery g++ lite\\bin\\../lib/gcc/arm-none-eabi/4
 679              		.file 4 "../../../ChibiOS/os/ports/GCC/ARMCMx/chtypes.h"
 680              		.file 5 "../../../ChibiOS/os/kernel/include/chlists.h"
 681              		.file 6 "../../../ChibiOS/os/kernel/include/chthreads.h"
 682              		.file 7 "../../../ChibiOS/os/ports/GCC/ARMCMx/chcore_v7m.h"
 683              		.file 8 "../../../ChibiOS/os/kernel/include/chmtx.h"
 684              		.file 9 "../../../ChibiOS/os/hal/platforms/STM32F4xx/stm32f4xx.h"
 685              		.file 10 "../../../ChibiOS/os/hal/platforms/STM32F4xx/stm32_dma.h"
 686              		.file 11 "../../../ChibiOS/os/hal/include/i2c.h"
 687              		.file 12 "../../../ChibiOS/os/hal/platforms/STM32/I2Cv1/i2c_lld.h"
 688              		.file 13 "../../../ChibiOS/os/ports/common/ARMCMx/CMSIS/include/core_cm4.h"
 689              		.section	.debug_info
 690 0000 EA0A0000 		.4byte	0xaea
 691 0004 0200     		.2byte	0x2
 692 0006 00000000 		.4byte	.Ldebug_abbrev0
 693 000a 04       		.byte	0x4
 694 000b 01       		.uleb128 0x1
 695 000c 00010000 		.4byte	.LASF129
 696 0010 01       		.byte	0x1
 697 0011 DA030000 		.4byte	.LASF130
 698 0015 5D030000 		.4byte	.LASF131
 699 0019 00000000 		.4byte	0x0
 700 001d 00000000 		.4byte	0x0
 701 0021 30000000 		.4byte	.Ldebug_ranges0+0x30
 702 0025 00000000 		.4byte	.Ldebug_line0
 703 0029 02       		.uleb128 0x2
 704 002a 04       		.byte	0x4
 705 002b 05       		.byte	0x5
 706 002c 696E7400 		.ascii	"int\000"
 707 0030 03       		.uleb128 0x3
 708 0031 34000000 		.4byte	.LASF2
 709 0035 02       		.byte	0x2
 710 0036 D3       		.byte	0xd3
 711 0037 3B000000 		.4byte	0x3b
 712 003b 04       		.uleb128 0x4
 713 003c 04       		.byte	0x4
 714 003d 07       		.byte	0x7
 715 003e A1010000 		.4byte	.LASF0
 716 0042 04       		.uleb128 0x4
 717 0043 01       		.byte	0x1
 718 0044 06       		.byte	0x6
 719 0045 DA000000 		.4byte	.LASF1
 720 0049 03       		.uleb128 0x3
 721 004a D9040000 		.4byte	.LASF3
 722 004e 03       		.byte	0x3
 723 004f 2A       		.byte	0x2a
 724 0050 54000000 		.4byte	0x54
ARM GAS  C:\Users\DNIEL~1\AppData\Local\Temp\cc3u0bjF.s 			page 14


 725 0054 04       		.uleb128 0x4
 726 0055 01       		.byte	0x1
 727 0056 08       		.byte	0x8
 728 0057 3C030000 		.4byte	.LASF4
 729 005b 04       		.uleb128 0x4
 730 005c 02       		.byte	0x2
 731 005d 05       		.byte	0x5
 732 005e 35020000 		.4byte	.LASF5
 733 0062 03       		.uleb128 0x3
 734 0063 14020000 		.4byte	.LASF6
 735 0067 03       		.byte	0x3
 736 0068 36       		.byte	0x36
 737 0069 6D000000 		.4byte	0x6d
 738 006d 04       		.uleb128 0x4
 739 006e 02       		.byte	0x2
 740 006f 07       		.byte	0x7
 741 0070 E9010000 		.4byte	.LASF7
 742 0074 03       		.uleb128 0x3
 743 0075 34030000 		.4byte	.LASF8
 744 0079 03       		.byte	0x3
 745 007a 4F       		.byte	0x4f
 746 007b 7F000000 		.4byte	0x7f
 747 007f 04       		.uleb128 0x4
 748 0080 04       		.byte	0x4
 749 0081 05       		.byte	0x5
 750 0082 26010000 		.4byte	.LASF9
 751 0086 03       		.uleb128 0x3
 752 0087 3A040000 		.4byte	.LASF10
 753 008b 03       		.byte	0x3
 754 008c 50       		.byte	0x50
 755 008d 91000000 		.4byte	0x91
 756 0091 04       		.uleb128 0x4
 757 0092 04       		.byte	0x4
 758 0093 07       		.byte	0x7
 759 0094 5B040000 		.4byte	.LASF11
 760 0098 04       		.uleb128 0x4
 761 0099 08       		.byte	0x8
 762 009a 05       		.byte	0x5
 763 009b CC000000 		.4byte	.LASF12
 764 009f 04       		.uleb128 0x4
 765 00a0 08       		.byte	0x8
 766 00a1 07       		.byte	0x7
 767 00a2 4F000000 		.4byte	.LASF13
 768 00a6 04       		.uleb128 0x4
 769 00a7 01       		.byte	0x1
 770 00a8 02       		.byte	0x2
 771 00a9 2E030000 		.4byte	.LASF14
 772 00ad 03       		.uleb128 0x3
 773 00ae 0C020000 		.4byte	.LASF15
 774 00b2 04       		.byte	0x4
 775 00b3 2C       		.byte	0x2c
 776 00b4 49000000 		.4byte	0x49
 777 00b8 03       		.uleb128 0x3
 778 00b9 2F010000 		.4byte	.LASF16
 779 00bd 04       		.byte	0x4
 780 00be 2D       		.byte	0x2d
 781 00bf 49000000 		.4byte	0x49
ARM GAS  C:\Users\DNIEL~1\AppData\Local\Temp\cc3u0bjF.s 			page 15


 782 00c3 03       		.uleb128 0x3
 783 00c4 A8020000 		.4byte	.LASF17
 784 00c8 04       		.byte	0x4
 785 00c9 2E       		.byte	0x2e
 786 00ca 49000000 		.4byte	0x49
 787 00ce 03       		.uleb128 0x3
 788 00cf 0C010000 		.4byte	.LASF18
 789 00d3 04       		.byte	0x4
 790 00d4 2F       		.byte	0x2f
 791 00d5 49000000 		.4byte	0x49
 792 00d9 03       		.uleb128 0x3
 793 00da 07030000 		.4byte	.LASF19
 794 00de 04       		.byte	0x4
 795 00df 30       		.byte	0x30
 796 00e0 86000000 		.4byte	0x86
 797 00e4 03       		.uleb128 0x3
 798 00e5 06020000 		.4byte	.LASF20
 799 00e9 04       		.byte	0x4
 800 00ea 31       		.byte	0x31
 801 00eb 74000000 		.4byte	0x74
 802 00ef 03       		.uleb128 0x3
 803 00f0 29020000 		.4byte	.LASF21
 804 00f4 04       		.byte	0x4
 805 00f5 33       		.byte	0x33
 806 00f6 86000000 		.4byte	0x86
 807 00fa 03       		.uleb128 0x3
 808 00fb 80040000 		.4byte	.LASF22
 809 00ff 04       		.byte	0x4
 810 0100 35       		.byte	0x35
 811 0101 86000000 		.4byte	0x86
 812 0105 03       		.uleb128 0x3
 813 0106 0E040000 		.4byte	.LASF23
 814 010a 05       		.byte	0x5
 815 010b 2A       		.byte	0x2a
 816 010c 10010000 		.4byte	0x110
 817 0110 05       		.uleb128 0x5
 818 0111 0E040000 		.4byte	.LASF23
 819 0115 48       		.byte	0x48
 820 0116 06       		.byte	0x6
 821 0117 5E       		.byte	0x5e
 822 0118 35020000 		.4byte	0x235
 823 011c 06       		.uleb128 0x6
 824 011d CB030000 		.4byte	.LASF24
 825 0121 06       		.byte	0x6
 826 0122 5F       		.byte	0x5f
 827 0123 5A020000 		.4byte	0x25a
 828 0127 02       		.byte	0x2
 829 0128 23       		.byte	0x23
 830 0129 00       		.uleb128 0x0
 831 012a 06       		.uleb128 0x6
 832 012b E2020000 		.4byte	.LASF25
 833 012f 06       		.byte	0x6
 834 0130 61       		.byte	0x61
 835 0131 5A020000 		.4byte	0x25a
 836 0135 02       		.byte	0x2
 837 0136 23       		.byte	0x23
 838 0137 04       		.uleb128 0x4
ARM GAS  C:\Users\DNIEL~1\AppData\Local\Temp\cc3u0bjF.s 			page 16


 839 0138 06       		.uleb128 0x6
 840 0139 AC000000 		.4byte	.LASF26
 841 013d 06       		.byte	0x6
 842 013e 63       		.byte	0x63
 843 013f D9000000 		.4byte	0xd9
 844 0143 02       		.byte	0x2
 845 0144 23       		.byte	0x23
 846 0145 08       		.uleb128 0x8
 847 0146 06       		.uleb128 0x6
 848 0147 4D050000 		.4byte	.LASF27
 849 014b 06       		.byte	0x6
 850 014c 64       		.byte	0x64
 851 014d 28030000 		.4byte	0x328
 852 0151 02       		.byte	0x2
 853 0152 23       		.byte	0x23
 854 0153 0C       		.uleb128 0xc
 855 0154 06       		.uleb128 0x6
 856 0155 5C010000 		.4byte	.LASF28
 857 0159 06       		.byte	0x6
 858 015a 66       		.byte	0x66
 859 015b 5A020000 		.4byte	0x25a
 860 015f 02       		.byte	0x2
 861 0160 23       		.byte	0x23
 862 0161 10       		.uleb128 0x10
 863 0162 06       		.uleb128 0x6
 864 0163 59020000 		.4byte	.LASF29
 865 0167 06       		.byte	0x6
 866 0168 67       		.byte	0x67
 867 0169 5A020000 		.4byte	0x25a
 868 016d 02       		.byte	0x2
 869 016e 23       		.byte	0x23
 870 016f 14       		.uleb128 0x14
 871 0170 06       		.uleb128 0x6
 872 0171 0A050000 		.4byte	.LASF30
 873 0175 06       		.byte	0x6
 874 0176 6E       		.byte	0x6e
 875 0177 D2030000 		.4byte	0x3d2
 876 017b 02       		.byte	0x2
 877 017c 23       		.byte	0x23
 878 017d 18       		.uleb128 0x18
 879 017e 06       		.uleb128 0x6
 880 017f A5030000 		.4byte	.LASF31
 881 0183 06       		.byte	0x6
 882 0184 79       		.byte	0x79
 883 0185 B8000000 		.4byte	0xb8
 884 0189 02       		.byte	0x2
 885 018a 23       		.byte	0x23
 886 018b 1C       		.uleb128 0x1c
 887 018c 06       		.uleb128 0x6
 888 018d D2030000 		.4byte	.LASF32
 889 0191 06       		.byte	0x6
 890 0192 7D       		.byte	0x7d
 891 0193 AD000000 		.4byte	0xad
 892 0197 02       		.byte	0x2
 893 0198 23       		.byte	0x23
 894 0199 1D       		.uleb128 0x1d
 895 019a 06       		.uleb128 0x6
ARM GAS  C:\Users\DNIEL~1\AppData\Local\Temp\cc3u0bjF.s 			page 17


 896 019b 3F010000 		.4byte	.LASF33
 897 019f 06       		.byte	0x6
 898 01a0 82       		.byte	0x82
 899 01a1 C3000000 		.4byte	0xc3
 900 01a5 02       		.byte	0x2
 901 01a6 23       		.byte	0x23
 902 01a7 1E       		.uleb128 0x1e
 903 01a8 06       		.uleb128 0x6
 904 01a9 AD030000 		.4byte	.LASF34
 905 01ad 06       		.byte	0x6
 906 01ae 88       		.byte	0x88
 907 01af CE000000 		.4byte	0xce
 908 01b3 02       		.byte	0x2
 909 01b4 23       		.byte	0x23
 910 01b5 1F       		.uleb128 0x1f
 911 01b6 06       		.uleb128 0x6
 912 01b7 50010000 		.4byte	.LASF35
 913 01bb 06       		.byte	0x6
 914 01bc 8F       		.byte	0x8f
 915 01bd 50030000 		.4byte	0x350
 916 01c1 02       		.byte	0x2
 917 01c2 23       		.byte	0x23
 918 01c3 20       		.uleb128 0x20
 919 01c4 07       		.uleb128 0x7
 920 01c5 705F7500 		.ascii	"p_u\000"
 921 01c9 06       		.byte	0x6
 922 01ca B4       		.byte	0xb4
 923 01cb 9D030000 		.4byte	0x39d
 924 01cf 02       		.byte	0x2
 925 01d0 23       		.byte	0x23
 926 01d1 24       		.uleb128 0x24
 927 01d2 06       		.uleb128 0x6
 928 01d3 53050000 		.4byte	.LASF36
 929 01d7 06       		.byte	0x6
 930 01d8 B9       		.byte	0xb9
 931 01d9 82020000 		.4byte	0x282
 932 01dd 02       		.byte	0x2
 933 01de 23       		.byte	0x23
 934 01df 28       		.uleb128 0x28
 935 01e0 06       		.uleb128 0x6
 936 01e1 BB010000 		.4byte	.LASF37
 937 01e5 06       		.byte	0x6
 938 01e6 BF       		.byte	0xbf
 939 01e7 60020000 		.4byte	0x260
 940 01eb 02       		.byte	0x2
 941 01ec 23       		.byte	0x23
 942 01ed 2C       		.uleb128 0x2c
 943 01ee 06       		.uleb128 0x6
 944 01ef 19050000 		.4byte	.LASF38
 945 01f3 06       		.byte	0x6
 946 01f4 C3       		.byte	0xc3
 947 01f5 E4000000 		.4byte	0xe4
 948 01f9 02       		.byte	0x2
 949 01fa 23       		.byte	0x23
 950 01fb 34       		.uleb128 0x34
 951 01fc 06       		.uleb128 0x6
 952 01fd 20040000 		.4byte	.LASF39
ARM GAS  C:\Users\DNIEL~1\AppData\Local\Temp\cc3u0bjF.s 			page 18


 953 0201 06       		.byte	0x6
 954 0202 C9       		.byte	0xc9
 955 0203 EF000000 		.4byte	0xef
 956 0207 02       		.byte	0x2
 957 0208 23       		.byte	0x23
 958 0209 38       		.uleb128 0x38
 959 020a 06       		.uleb128 0x6
 960 020b 90030000 		.4byte	.LASF40
 961 020f 06       		.byte	0x6
 962 0210 D0       		.byte	0xd0
 963 0211 E4030000 		.4byte	0x3e4
 964 0215 02       		.byte	0x2
 965 0216 23       		.byte	0x23
 966 0217 3C       		.uleb128 0x3c
 967 0218 06       		.uleb128 0x6
 968 0219 8A040000 		.4byte	.LASF41
 969 021d 06       		.byte	0x6
 970 021e D4       		.byte	0xd4
 971 021f D9000000 		.4byte	0xd9
 972 0223 02       		.byte	0x2
 973 0224 23       		.byte	0x23
 974 0225 40       		.uleb128 0x40
 975 0226 06       		.uleb128 0x6
 976 0227 F2000000 		.4byte	.LASF42
 977 022b 06       		.byte	0x6
 978 022c DA       		.byte	0xda
 979 022d 98020000 		.4byte	0x298
 980 0231 02       		.byte	0x2
 981 0232 23       		.byte	0x23
 982 0233 44       		.uleb128 0x44
 983 0234 00       		.byte	0x0
 984 0235 08       		.uleb128 0x8
 985 0236 08       		.byte	0x8
 986 0237 05       		.byte	0x5
 987 0238 61       		.byte	0x61
 988 0239 5A020000 		.4byte	0x25a
 989 023d 06       		.uleb128 0x6
 990 023e CB030000 		.4byte	.LASF24
 991 0242 05       		.byte	0x5
 992 0243 62       		.byte	0x62
 993 0244 5A020000 		.4byte	0x25a
 994 0248 02       		.byte	0x2
 995 0249 23       		.byte	0x23
 996 024a 00       		.uleb128 0x0
 997 024b 06       		.uleb128 0x6
 998 024c E2020000 		.4byte	.LASF25
 999 0250 05       		.byte	0x5
 1000 0251 64       		.byte	0x64
 1001 0252 5A020000 		.4byte	0x25a
 1002 0256 02       		.byte	0x2
 1003 0257 23       		.byte	0x23
 1004 0258 04       		.uleb128 0x4
 1005 0259 00       		.byte	0x0
 1006 025a 09       		.uleb128 0x9
 1007 025b 04       		.byte	0x4
 1008 025c 05010000 		.4byte	0x105
 1009 0260 03       		.uleb128 0x3
ARM GAS  C:\Users\DNIEL~1\AppData\Local\Temp\cc3u0bjF.s 			page 19


 1010 0261 71020000 		.4byte	.LASF43
 1011 0265 05       		.byte	0x5
 1012 0266 66       		.byte	0x66
 1013 0267 35020000 		.4byte	0x235
 1014 026b 08       		.uleb128 0x8
 1015 026c 04       		.byte	0x4
 1016 026d 05       		.byte	0x5
 1017 026e 6B       		.byte	0x6b
 1018 026f 82020000 		.4byte	0x282
 1019 0273 06       		.uleb128 0x6
 1020 0274 CB030000 		.4byte	.LASF24
 1021 0278 05       		.byte	0x5
 1022 0279 6D       		.byte	0x6d
 1023 027a 5A020000 		.4byte	0x25a
 1024 027e 02       		.byte	0x2
 1025 027f 23       		.byte	0x23
 1026 0280 00       		.uleb128 0x0
 1027 0281 00       		.byte	0x0
 1028 0282 03       		.uleb128 0x3
 1029 0283 1D020000 		.4byte	.LASF44
 1030 0287 05       		.byte	0x5
 1031 0288 70       		.byte	0x70
 1032 0289 6B020000 		.4byte	0x26b
 1033 028d 03       		.uleb128 0x3
 1034 028e 86010000 		.4byte	.LASF45
 1035 0292 07       		.byte	0x7
 1036 0293 E5       		.byte	0xe5
 1037 0294 98020000 		.4byte	0x298
 1038 0298 0A       		.uleb128 0xa
 1039 0299 04       		.byte	0x4
 1040 029a 0B       		.uleb128 0xb
 1041 029b BF040000 		.4byte	.LASF46
 1042 029f 24       		.byte	0x24
 1043 02a0 07       		.byte	0x7
 1044 02a1 0C01     		.2byte	0x10c
 1045 02a3 28030000 		.4byte	0x328
 1046 02a7 0C       		.uleb128 0xc
 1047 02a8 723400   		.ascii	"r4\000"
 1048 02ab 07       		.byte	0x7
 1049 02ac 1F01     		.2byte	0x11f
 1050 02ae 8D020000 		.4byte	0x28d
 1051 02b2 02       		.byte	0x2
 1052 02b3 23       		.byte	0x23
 1053 02b4 00       		.uleb128 0x0
 1054 02b5 0C       		.uleb128 0xc
 1055 02b6 723500   		.ascii	"r5\000"
 1056 02b9 07       		.byte	0x7
 1057 02ba 2001     		.2byte	0x120
 1058 02bc 8D020000 		.4byte	0x28d
 1059 02c0 02       		.byte	0x2
 1060 02c1 23       		.byte	0x23
 1061 02c2 04       		.uleb128 0x4
 1062 02c3 0C       		.uleb128 0xc
 1063 02c4 723600   		.ascii	"r6\000"
 1064 02c7 07       		.byte	0x7
 1065 02c8 2101     		.2byte	0x121
 1066 02ca 8D020000 		.4byte	0x28d
ARM GAS  C:\Users\DNIEL~1\AppData\Local\Temp\cc3u0bjF.s 			page 20


 1067 02ce 02       		.byte	0x2
 1068 02cf 23       		.byte	0x23
 1069 02d0 08       		.uleb128 0x8
 1070 02d1 0C       		.uleb128 0xc
 1071 02d2 723700   		.ascii	"r7\000"
 1072 02d5 07       		.byte	0x7
 1073 02d6 2201     		.2byte	0x122
 1074 02d8 8D020000 		.4byte	0x28d
 1075 02dc 02       		.byte	0x2
 1076 02dd 23       		.byte	0x23
 1077 02de 0C       		.uleb128 0xc
 1078 02df 0C       		.uleb128 0xc
 1079 02e0 723800   		.ascii	"r8\000"
 1080 02e3 07       		.byte	0x7
 1081 02e4 2301     		.2byte	0x123
 1082 02e6 8D020000 		.4byte	0x28d
 1083 02ea 02       		.byte	0x2
 1084 02eb 23       		.byte	0x23
 1085 02ec 10       		.uleb128 0x10
 1086 02ed 0C       		.uleb128 0xc
 1087 02ee 723900   		.ascii	"r9\000"
 1088 02f1 07       		.byte	0x7
 1089 02f2 2401     		.2byte	0x124
 1090 02f4 8D020000 		.4byte	0x28d
 1091 02f8 02       		.byte	0x2
 1092 02f9 23       		.byte	0x23
 1093 02fa 14       		.uleb128 0x14
 1094 02fb 0C       		.uleb128 0xc
 1095 02fc 72313000 		.ascii	"r10\000"
 1096 0300 07       		.byte	0x7
 1097 0301 2501     		.2byte	0x125
 1098 0303 8D020000 		.4byte	0x28d
 1099 0307 02       		.byte	0x2
 1100 0308 23       		.byte	0x23
 1101 0309 18       		.uleb128 0x18
 1102 030a 0C       		.uleb128 0xc
 1103 030b 72313100 		.ascii	"r11\000"
 1104 030f 07       		.byte	0x7
 1105 0310 2601     		.2byte	0x126
 1106 0312 8D020000 		.4byte	0x28d
 1107 0316 02       		.byte	0x2
 1108 0317 23       		.byte	0x23
 1109 0318 1C       		.uleb128 0x1c
 1110 0319 0C       		.uleb128 0xc
 1111 031a 6C7200   		.ascii	"lr\000"
 1112 031d 07       		.byte	0x7
 1113 031e 2701     		.2byte	0x127
 1114 0320 8D020000 		.4byte	0x28d
 1115 0324 02       		.byte	0x2
 1116 0325 23       		.byte	0x23
 1117 0326 20       		.uleb128 0x20
 1118 0327 00       		.byte	0x0
 1119 0328 0B       		.uleb128 0xb
 1120 0329 B7040000 		.4byte	.LASF47
 1121 032d 04       		.byte	0x4
 1122 032e 07       		.byte	0x7
 1123 032f 3101     		.2byte	0x131
ARM GAS  C:\Users\DNIEL~1\AppData\Local\Temp\cc3u0bjF.s 			page 21


 1124 0331 45030000 		.4byte	0x345
 1125 0335 0C       		.uleb128 0xc
 1126 0336 72313300 		.ascii	"r13\000"
 1127 033a 07       		.byte	0x7
 1128 033b 3201     		.2byte	0x132
 1129 033d 45030000 		.4byte	0x345
 1130 0341 02       		.byte	0x2
 1131 0342 23       		.byte	0x23
 1132 0343 00       		.uleb128 0x0
 1133 0344 00       		.byte	0x0
 1134 0345 09       		.uleb128 0x9
 1135 0346 04       		.byte	0x4
 1136 0347 9A020000 		.4byte	0x29a
 1137 034b 0D       		.uleb128 0xd
 1138 034c 86000000 		.4byte	0x86
 1139 0350 0D       		.uleb128 0xd
 1140 0351 FA000000 		.4byte	0xfa
 1141 0355 05       		.uleb128 0x5
 1142 0356 48020000 		.4byte	.LASF48
 1143 035a 10       		.byte	0x10
 1144 035b 08       		.byte	0x8
 1145 035c 2C       		.byte	0x2c
 1146 035d 8C030000 		.4byte	0x38c
 1147 0361 06       		.uleb128 0x6
 1148 0362 A4000000 		.4byte	.LASF49
 1149 0366 08       		.byte	0x8
 1150 0367 2D       		.byte	0x2d
 1151 0368 60020000 		.4byte	0x260
 1152 036c 02       		.byte	0x2
 1153 036d 23       		.byte	0x23
 1154 036e 00       		.uleb128 0x0
 1155 036f 06       		.uleb128 0x6
 1156 0370 45050000 		.4byte	.LASF50
 1157 0374 08       		.byte	0x8
 1158 0375 2F       		.byte	0x2f
 1159 0376 5A020000 		.4byte	0x25a
 1160 037a 02       		.byte	0x2
 1161 037b 23       		.byte	0x23
 1162 037c 08       		.uleb128 0x8
 1163 037d 06       		.uleb128 0x6
 1164 037e 79040000 		.4byte	.LASF51
 1165 0382 08       		.byte	0x8
 1166 0383 31       		.byte	0x31
 1167 0384 8C030000 		.4byte	0x38c
 1168 0388 02       		.byte	0x2
 1169 0389 23       		.byte	0x23
 1170 038a 0C       		.uleb128 0xc
 1171 038b 00       		.byte	0x0
 1172 038c 09       		.uleb128 0x9
 1173 038d 04       		.byte	0x4
 1174 038e 55030000 		.4byte	0x355
 1175 0392 03       		.uleb128 0x3
 1176 0393 48020000 		.4byte	.LASF48
 1177 0397 08       		.byte	0x8
 1178 0398 33       		.byte	0x33
 1179 0399 55030000 		.4byte	0x355
 1180 039d 0E       		.uleb128 0xe
ARM GAS  C:\Users\DNIEL~1\AppData\Local\Temp\cc3u0bjF.s 			page 22


 1181 039e 04       		.byte	0x4
 1182 039f 06       		.byte	0x6
 1183 03a0 96       		.byte	0x96
 1184 03a1 D2030000 		.4byte	0x3d2
 1185 03a5 0F       		.uleb128 0xf
 1186 03a6 3B000000 		.4byte	.LASF52
 1187 03aa 06       		.byte	0x6
 1188 03ab 9D       		.byte	0x9d
 1189 03ac E4000000 		.4byte	0xe4
 1190 03b0 0F       		.uleb128 0xf
 1191 03b1 74000000 		.4byte	.LASF53
 1192 03b5 06       		.byte	0x6
 1193 03b6 A4       		.byte	0xa4
 1194 03b7 E4000000 		.4byte	0xe4
 1195 03bb 0F       		.uleb128 0xf
 1196 03bc 03050000 		.4byte	.LASF54
 1197 03c0 06       		.byte	0x6
 1198 03c1 AB       		.byte	0xab
 1199 03c2 98020000 		.4byte	0x298
 1200 03c6 0F       		.uleb128 0xf
 1201 03c7 C4030000 		.4byte	.LASF55
 1202 03cb 06       		.byte	0x6
 1203 03cc B2       		.byte	0xb2
 1204 03cd EF000000 		.4byte	0xef
 1205 03d1 00       		.byte	0x0
 1206 03d2 09       		.uleb128 0x9
 1207 03d3 04       		.byte	0x4
 1208 03d4 D8030000 		.4byte	0x3d8
 1209 03d8 10       		.uleb128 0x10
 1210 03d9 DD030000 		.4byte	0x3dd
 1211 03dd 04       		.uleb128 0x4
 1212 03de 01       		.byte	0x1
 1213 03df 08       		.byte	0x8
 1214 03e0 6D040000 		.4byte	.LASF56
 1215 03e4 09       		.uleb128 0x9
 1216 03e5 04       		.byte	0x4
 1217 03e6 92030000 		.4byte	0x392
 1218 03ea 09       		.uleb128 0x9
 1219 03eb 04       		.byte	0x4
 1220 03ec 49000000 		.4byte	0x49
 1221 03f0 09       		.uleb128 0x9
 1222 03f1 04       		.byte	0x4
 1223 03f2 F6030000 		.4byte	0x3f6
 1224 03f6 10       		.uleb128 0x10
 1225 03f7 49000000 		.4byte	0x49
 1226 03fb 0D       		.uleb128 0xd
 1227 03fc 62000000 		.4byte	0x62
 1228 0400 0D       		.uleb128 0xd
 1229 0401 74000000 		.4byte	0x74
 1230 0405 11       		.uleb128 0x11
 1231 0406 18       		.byte	0x18
 1232 0407 09       		.byte	0x9
 1233 0408 B102     		.2byte	0x2b1
 1234 040a 68040000 		.4byte	0x468
 1235 040e 0C       		.uleb128 0xc
 1236 040f 435200   		.ascii	"CR\000"
 1237 0412 09       		.byte	0x9
ARM GAS  C:\Users\DNIEL~1\AppData\Local\Temp\cc3u0bjF.s 			page 23


 1238 0413 B302     		.2byte	0x2b3
 1239 0415 4B030000 		.4byte	0x34b
 1240 0419 02       		.byte	0x2
 1241 041a 23       		.byte	0x23
 1242 041b 00       		.uleb128 0x0
 1243 041c 12       		.uleb128 0x12
 1244 041d 95040000 		.4byte	.LASF57
 1245 0421 09       		.byte	0x9
 1246 0422 B402     		.2byte	0x2b4
 1247 0424 4B030000 		.4byte	0x34b
 1248 0428 02       		.byte	0x2
 1249 0429 23       		.byte	0x23
 1250 042a 04       		.uleb128 0x4
 1251 042b 0C       		.uleb128 0xc
 1252 042c 50415200 		.ascii	"PAR\000"
 1253 0430 09       		.byte	0x9
 1254 0431 B502     		.2byte	0x2b5
 1255 0433 4B030000 		.4byte	0x34b
 1256 0437 02       		.byte	0x2
 1257 0438 23       		.byte	0x23
 1258 0439 08       		.uleb128 0x8
 1259 043a 12       		.uleb128 0x12
 1260 043b 2F000000 		.4byte	.LASF58
 1261 043f 09       		.byte	0x9
 1262 0440 B602     		.2byte	0x2b6
 1263 0442 4B030000 		.4byte	0x34b
 1264 0446 02       		.byte	0x2
 1265 0447 23       		.byte	0x23
 1266 0448 0C       		.uleb128 0xc
 1267 0449 12       		.uleb128 0x12
 1268 044a C6040000 		.4byte	.LASF59
 1269 044e 09       		.byte	0x9
 1270 044f B702     		.2byte	0x2b7
 1271 0451 4B030000 		.4byte	0x34b
 1272 0455 02       		.byte	0x2
 1273 0456 23       		.byte	0x23
 1274 0457 10       		.uleb128 0x10
 1275 0458 0C       		.uleb128 0xc
 1276 0459 46435200 		.ascii	"FCR\000"
 1277 045d 09       		.byte	0x9
 1278 045e B802     		.2byte	0x2b8
 1279 0460 4B030000 		.4byte	0x34b
 1280 0464 02       		.byte	0x2
 1281 0465 23       		.byte	0x23
 1282 0466 14       		.uleb128 0x14
 1283 0467 00       		.byte	0x0
 1284 0468 13       		.uleb128 0x13
 1285 0469 A4040000 		.4byte	.LASF60
 1286 046d 09       		.byte	0x9
 1287 046e B902     		.2byte	0x2b9
 1288 0470 05040000 		.4byte	0x405
 1289 0474 11       		.uleb128 0x11
 1290 0475 28       		.byte	0x28
 1291 0476 09       		.byte	0x9
 1292 0477 F603     		.2byte	0x3f6
 1293 0479 A9050000 		.4byte	0x5a9
 1294 047d 0C       		.uleb128 0xc
ARM GAS  C:\Users\DNIEL~1\AppData\Local\Temp\cc3u0bjF.s 			page 24


 1295 047e 43523100 		.ascii	"CR1\000"
 1296 0482 09       		.byte	0x9
 1297 0483 F803     		.2byte	0x3f8
 1298 0485 FB030000 		.4byte	0x3fb
 1299 0489 02       		.byte	0x2
 1300 048a 23       		.byte	0x23
 1301 048b 00       		.uleb128 0x0
 1302 048c 12       		.uleb128 0x12
 1303 048d B0020000 		.4byte	.LASF61
 1304 0491 09       		.byte	0x9
 1305 0492 F903     		.2byte	0x3f9
 1306 0494 62000000 		.4byte	0x62
 1307 0498 02       		.byte	0x2
 1308 0499 23       		.byte	0x23
 1309 049a 02       		.uleb128 0x2
 1310 049b 0C       		.uleb128 0xc
 1311 049c 43523200 		.ascii	"CR2\000"
 1312 04a0 09       		.byte	0x9
 1313 04a1 FA03     		.2byte	0x3fa
 1314 04a3 FB030000 		.4byte	0x3fb
 1315 04a7 02       		.byte	0x2
 1316 04a8 23       		.byte	0x23
 1317 04a9 04       		.uleb128 0x4
 1318 04aa 12       		.uleb128 0x12
 1319 04ab BA020000 		.4byte	.LASF62
 1320 04af 09       		.byte	0x9
 1321 04b0 FB03     		.2byte	0x3fb
 1322 04b2 62000000 		.4byte	0x62
 1323 04b6 02       		.byte	0x2
 1324 04b7 23       		.byte	0x23
 1325 04b8 06       		.uleb128 0x6
 1326 04b9 12       		.uleb128 0x12
 1327 04ba E1040000 		.4byte	.LASF63
 1328 04be 09       		.byte	0x9
 1329 04bf FC03     		.2byte	0x3fc
 1330 04c1 FB030000 		.4byte	0x3fb
 1331 04c5 02       		.byte	0x2
 1332 04c6 23       		.byte	0x23
 1333 04c7 08       		.uleb128 0x8
 1334 04c8 12       		.uleb128 0x12
 1335 04c9 C4020000 		.4byte	.LASF64
 1336 04cd 09       		.byte	0x9
 1337 04ce FD03     		.2byte	0x3fd
 1338 04d0 62000000 		.4byte	0x62
 1339 04d4 02       		.byte	0x2
 1340 04d5 23       		.byte	0x23
 1341 04d6 0A       		.uleb128 0xa
 1342 04d7 12       		.uleb128 0x12
 1343 04d8 E6040000 		.4byte	.LASF65
 1344 04dc 09       		.byte	0x9
 1345 04dd FE03     		.2byte	0x3fe
 1346 04df FB030000 		.4byte	0x3fb
 1347 04e3 02       		.byte	0x2
 1348 04e4 23       		.byte	0x23
 1349 04e5 0C       		.uleb128 0xc
 1350 04e6 12       		.uleb128 0x12
 1351 04e7 CE020000 		.4byte	.LASF66
ARM GAS  C:\Users\DNIEL~1\AppData\Local\Temp\cc3u0bjF.s 			page 25


 1352 04eb 09       		.byte	0x9
 1353 04ec FF03     		.2byte	0x3ff
 1354 04ee 62000000 		.4byte	0x62
 1355 04f2 02       		.byte	0x2
 1356 04f3 23       		.byte	0x23
 1357 04f4 0E       		.uleb128 0xe
 1358 04f5 0C       		.uleb128 0xc
 1359 04f6 445200   		.ascii	"DR\000"
 1360 04f9 09       		.byte	0x9
 1361 04fa 0004     		.2byte	0x400
 1362 04fc FB030000 		.4byte	0x3fb
 1363 0500 02       		.byte	0x2
 1364 0501 23       		.byte	0x23
 1365 0502 10       		.uleb128 0x10
 1366 0503 12       		.uleb128 0x12
 1367 0504 D8020000 		.4byte	.LASF67
 1368 0508 09       		.byte	0x9
 1369 0509 0104     		.2byte	0x401
 1370 050b 62000000 		.4byte	0x62
 1371 050f 02       		.byte	0x2
 1372 0510 23       		.byte	0x23
 1373 0511 12       		.uleb128 0x12
 1374 0512 0C       		.uleb128 0xc
 1375 0513 53523100 		.ascii	"SR1\000"
 1376 0517 09       		.byte	0x9
 1377 0518 0204     		.2byte	0x402
 1378 051a FB030000 		.4byte	0x3fb
 1379 051e 02       		.byte	0x2
 1380 051f 23       		.byte	0x23
 1381 0520 14       		.uleb128 0x14
 1382 0521 12       		.uleb128 0x12
 1383 0522 30040000 		.4byte	.LASF68
 1384 0526 09       		.byte	0x9
 1385 0527 0304     		.2byte	0x403
 1386 0529 62000000 		.4byte	0x62
 1387 052d 02       		.byte	0x2
 1388 052e 23       		.byte	0x23
 1389 052f 16       		.uleb128 0x16
 1390 0530 0C       		.uleb128 0xc
 1391 0531 53523200 		.ascii	"SR2\000"
 1392 0535 09       		.byte	0x9
 1393 0536 0404     		.2byte	0x404
 1394 0538 FB030000 		.4byte	0x3fb
 1395 053c 02       		.byte	0x2
 1396 053d 23       		.byte	0x23
 1397 053e 18       		.uleb128 0x18
 1398 053f 12       		.uleb128 0x12
 1399 0540 E9020000 		.4byte	.LASF69
 1400 0544 09       		.byte	0x9
 1401 0545 0504     		.2byte	0x405
 1402 0547 62000000 		.4byte	0x62
 1403 054b 02       		.byte	0x2
 1404 054c 23       		.byte	0x23
 1405 054d 1A       		.uleb128 0x1a
 1406 054e 0C       		.uleb128 0xc
 1407 054f 43435200 		.ascii	"CCR\000"
 1408 0553 09       		.byte	0x9
ARM GAS  C:\Users\DNIEL~1\AppData\Local\Temp\cc3u0bjF.s 			page 26


 1409 0554 0604     		.2byte	0x406
 1410 0556 FB030000 		.4byte	0x3fb
 1411 055a 02       		.byte	0x2
 1412 055b 23       		.byte	0x23
 1413 055c 1C       		.uleb128 0x1c
 1414 055d 12       		.uleb128 0x12
 1415 055e F3020000 		.4byte	.LASF70
 1416 0562 09       		.byte	0x9
 1417 0563 0704     		.2byte	0x407
 1418 0565 62000000 		.4byte	0x62
 1419 0569 02       		.byte	0x2
 1420 056a 23       		.byte	0x23
 1421 056b 1E       		.uleb128 0x1e
 1422 056c 12       		.uleb128 0x12
 1423 056d 42000000 		.4byte	.LASF71
 1424 0571 09       		.byte	0x9
 1425 0572 0804     		.2byte	0x408
 1426 0574 FB030000 		.4byte	0x3fb
 1427 0578 02       		.byte	0x2
 1428 0579 23       		.byte	0x23
 1429 057a 20       		.uleb128 0x20
 1430 057b 12       		.uleb128 0x12
 1431 057c FD020000 		.4byte	.LASF72
 1432 0580 09       		.byte	0x9
 1433 0581 0904     		.2byte	0x409
 1434 0583 62000000 		.4byte	0x62
 1435 0587 02       		.byte	0x2
 1436 0588 23       		.byte	0x23
 1437 0589 22       		.uleb128 0x22
 1438 058a 12       		.uleb128 0x12
 1439 058b 57010000 		.4byte	.LASF73
 1440 058f 09       		.byte	0x9
 1441 0590 0A04     		.2byte	0x40a
 1442 0592 FB030000 		.4byte	0x3fb
 1443 0596 02       		.byte	0x2
 1444 0597 23       		.byte	0x23
 1445 0598 24       		.uleb128 0x24
 1446 0599 12       		.uleb128 0x12
 1447 059a 43040000 		.4byte	.LASF74
 1448 059e 09       		.byte	0x9
 1449 059f 0B04     		.2byte	0x40b
 1450 05a1 62000000 		.4byte	0x62
 1451 05a5 02       		.byte	0x2
 1452 05a6 23       		.byte	0x23
 1453 05a7 26       		.uleb128 0x26
 1454 05a8 00       		.byte	0x0
 1455 05a9 13       		.uleb128 0x13
 1456 05aa 1F050000 		.4byte	.LASF75
 1457 05ae 09       		.byte	0x9
 1458 05af 0C04     		.2byte	0x40c
 1459 05b1 74040000 		.4byte	0x474
 1460 05b5 08       		.uleb128 0x8
 1461 05b6 0C       		.byte	0xc
 1462 05b7 0A       		.byte	0xa
 1463 05b8 DA       		.byte	0xda
 1464 05b9 04060000 		.4byte	0x604
 1465 05bd 06       		.uleb128 0x6
ARM GAS  C:\Users\DNIEL~1\AppData\Local\Temp\cc3u0bjF.s 			page 27


 1466 05be 48000000 		.4byte	.LASF76
 1467 05c2 0A       		.byte	0xa
 1468 05c3 DB       		.byte	0xdb
 1469 05c4 04060000 		.4byte	0x604
 1470 05c8 02       		.byte	0x2
 1471 05c9 23       		.byte	0x23
 1472 05ca 00       		.uleb128 0x0
 1473 05cb 06       		.uleb128 0x6
 1474 05cc 2B040000 		.4byte	.LASF77
 1475 05d0 0A       		.byte	0xa
 1476 05d1 DC       		.byte	0xdc
 1477 05d2 0A060000 		.4byte	0x60a
 1478 05d6 02       		.byte	0x2
 1479 05d7 23       		.byte	0x23
 1480 05d8 04       		.uleb128 0x4
 1481 05d9 06       		.uleb128 0x6
 1482 05da CE010000 		.4byte	.LASF78
 1483 05de 0A       		.byte	0xa
 1484 05df DD       		.byte	0xdd
 1485 05e0 49000000 		.4byte	0x49
 1486 05e4 02       		.byte	0x2
 1487 05e5 23       		.byte	0x23
 1488 05e6 08       		.uleb128 0x8
 1489 05e7 06       		.uleb128 0x6
 1490 05e8 8F010000 		.4byte	.LASF79
 1491 05ec 0A       		.byte	0xa
 1492 05ed DF       		.byte	0xdf
 1493 05ee 49000000 		.4byte	0x49
 1494 05f2 02       		.byte	0x2
 1495 05f3 23       		.byte	0x23
 1496 05f4 09       		.uleb128 0x9
 1497 05f5 06       		.uleb128 0x6
 1498 05f6 7D000000 		.4byte	.LASF80
 1499 05fa 0A       		.byte	0xa
 1500 05fb E0       		.byte	0xe0
 1501 05fc 49000000 		.4byte	0x49
 1502 0600 02       		.byte	0x2
 1503 0601 23       		.byte	0x23
 1504 0602 0A       		.uleb128 0xa
 1505 0603 00       		.byte	0x0
 1506 0604 09       		.uleb128 0x9
 1507 0605 04       		.byte	0x4
 1508 0606 68040000 		.4byte	0x468
 1509 060a 09       		.uleb128 0x9
 1510 060b 04       		.byte	0x4
 1511 060c 4B030000 		.4byte	0x34b
 1512 0610 03       		.uleb128 0x3
 1513 0611 4A030000 		.4byte	.LASF81
 1514 0615 0A       		.byte	0xa
 1515 0616 E1       		.byte	0xe1
 1516 0617 B5050000 		.4byte	0x5b5
 1517 061b 09       		.uleb128 0x9
 1518 061c 04       		.byte	0x4
 1519 061d 21060000 		.4byte	0x621
 1520 0621 10       		.uleb128 0x10
 1521 0622 10060000 		.4byte	0x610
 1522 0626 14       		.uleb128 0x14
ARM GAS  C:\Users\DNIEL~1\AppData\Local\Temp\cc3u0bjF.s 			page 28


 1523 0627 01       		.byte	0x1
 1524 0628 0B       		.byte	0xb
 1525 0629 5A       		.byte	0x5a
 1526 062a 53060000 		.4byte	0x653
 1527 062e 15       		.uleb128 0x15
 1528 062f 9A030000 		.4byte	.LASF82
 1529 0633 00       		.sleb128 0
 1530 0634 15       		.uleb128 0x15
 1531 0635 3F020000 		.4byte	.LASF83
 1532 0639 01       		.sleb128 1
 1533 063a 15       		.uleb128 0x15
 1534 063b 9A040000 		.4byte	.LASF84
 1535 063f 02       		.sleb128 2
 1536 0640 15       		.uleb128 0x15
 1537 0641 0F030000 		.4byte	.LASF85
 1538 0645 03       		.sleb128 3
 1539 0646 15       		.uleb128 0x15
 1540 0647 4D040000 		.4byte	.LASF86
 1541 064b 04       		.sleb128 4
 1542 064c 15       		.uleb128 0x15
 1543 064d 15040000 		.4byte	.LASF87
 1544 0651 05       		.sleb128 5
 1545 0652 00       		.byte	0x0
 1546 0653 03       		.uleb128 0x3
 1547 0654 24000000 		.4byte	.LASF88
 1548 0658 0B       		.byte	0xb
 1549 0659 61       		.byte	0x61
 1550 065a 26060000 		.4byte	0x626
 1551 065e 13       		.uleb128 0x13
 1552 065f 16010000 		.4byte	.LASF89
 1553 0663 0C       		.byte	0xc
 1554 0664 3501     		.2byte	0x135
 1555 0666 62000000 		.4byte	0x62
 1556 066a 13       		.uleb128 0x13
 1557 066b 1D030000 		.4byte	.LASF90
 1558 066f 0C       		.byte	0xc
 1559 0670 3A01     		.2byte	0x13a
 1560 0672 86000000 		.4byte	0x86
 1561 0676 16       		.uleb128 0x16
 1562 0677 01       		.byte	0x1
 1563 0678 0C       		.byte	0xc
 1564 0679 3F01     		.2byte	0x13f
 1565 067b 92060000 		.4byte	0x692
 1566 067f 15       		.uleb128 0x15
 1567 0680 88020000 		.4byte	.LASF91
 1568 0684 01       		.sleb128 1
 1569 0685 15       		.uleb128 0x15
 1570 0686 D5010000 		.4byte	.LASF92
 1571 068a 02       		.sleb128 2
 1572 068b 15       		.uleb128 0x15
 1573 068c 74010000 		.4byte	.LASF93
 1574 0690 03       		.sleb128 3
 1575 0691 00       		.byte	0x0
 1576 0692 13       		.uleb128 0x13
 1577 0693 2B050000 		.4byte	.LASF94
 1578 0697 0C       		.byte	0xc
 1579 0698 4301     		.2byte	0x143
ARM GAS  C:\Users\DNIEL~1\AppData\Local\Temp\cc3u0bjF.s 			page 29


 1580 069a 76060000 		.4byte	0x676
 1581 069e 16       		.uleb128 0x16
 1582 069f 01       		.byte	0x1
 1583 06a0 0C       		.byte	0xc
 1584 06a1 4801     		.2byte	0x148
 1585 06a3 BA060000 		.4byte	0x6ba
 1586 06a7 15       		.uleb128 0x15
 1587 06a8 00000000 		.4byte	.LASF95
 1588 06ac 01       		.sleb128 1
 1589 06ad 15       		.uleb128 0x15
 1590 06ae FC030000 		.4byte	.LASF96
 1591 06b2 02       		.sleb128 2
 1592 06b3 15       		.uleb128 0x15
 1593 06b4 93020000 		.4byte	.LASF97
 1594 06b8 03       		.sleb128 3
 1595 06b9 00       		.byte	0x0
 1596 06ba 13       		.uleb128 0x13
 1597 06bb 15000000 		.4byte	.LASF98
 1598 06bf 0C       		.byte	0xc
 1599 06c0 4C01     		.2byte	0x14c
 1600 06c2 9E060000 		.4byte	0x69e
 1601 06c6 11       		.uleb128 0x11
 1602 06c7 0C       		.byte	0xc
 1603 06c8 0C       		.byte	0xc
 1604 06c9 5101     		.2byte	0x151
 1605 06cb FD060000 		.4byte	0x6fd
 1606 06cf 12       		.uleb128 0x12
 1607 06d0 99010000 		.4byte	.LASF99
 1608 06d4 0C       		.byte	0xc
 1609 06d5 5201     		.2byte	0x152
 1610 06d7 92060000 		.4byte	0x692
 1611 06db 02       		.byte	0x2
 1612 06dc 23       		.byte	0x23
 1613 06dd 00       		.uleb128 0x0
 1614 06de 12       		.uleb128 0x12
 1615 06df E6000000 		.4byte	.LASF100
 1616 06e3 0C       		.byte	0xc
 1617 06e4 5301     		.2byte	0x153
 1618 06e6 86000000 		.4byte	0x86
 1619 06ea 02       		.byte	0x2
 1620 06eb 23       		.byte	0x23
 1621 06ec 04       		.uleb128 0x4
 1622 06ed 12       		.uleb128 0x12
 1623 06ee 4E020000 		.4byte	.LASF101
 1624 06f2 0C       		.byte	0xc
 1625 06f3 5601     		.2byte	0x156
 1626 06f5 BA060000 		.4byte	0x6ba
 1627 06f9 02       		.byte	0x2
 1628 06fa 23       		.byte	0x23
 1629 06fb 08       		.uleb128 0x8
 1630 06fc 00       		.byte	0x0
 1631 06fd 13       		.uleb128 0x13
 1632 06fe 46010000 		.4byte	.LASF102
 1633 0702 0C       		.byte	0xc
 1634 0703 5801     		.2byte	0x158
 1635 0705 C6060000 		.4byte	0x6c6
 1636 0709 13       		.uleb128 0x13
ARM GAS  C:\Users\DNIEL~1\AppData\Local\Temp\cc3u0bjF.s 			page 30


 1637 070a FC010000 		.4byte	.LASF103
 1638 070e 0C       		.byte	0xc
 1639 070f 5D01     		.2byte	0x15d
 1640 0711 15070000 		.4byte	0x715
 1641 0715 0B       		.uleb128 0xb
 1642 0716 FC010000 		.4byte	.LASF103
 1643 071a 38       		.byte	0x38
 1644 071b 0C       		.byte	0xc
 1645 071c 6201     		.2byte	0x162
 1646 071e C8070000 		.4byte	0x7c8
 1647 0722 12       		.uleb128 0x12
 1648 0723 20010000 		.4byte	.LASF104
 1649 0727 0C       		.byte	0xc
 1650 0728 6601     		.2byte	0x166
 1651 072a 53060000 		.4byte	0x653
 1652 072e 02       		.byte	0x2
 1653 072f 23       		.byte	0x23
 1654 0730 00       		.uleb128 0x0
 1655 0731 12       		.uleb128 0x12
 1656 0732 72040000 		.4byte	.LASF105
 1657 0736 0C       		.byte	0xc
 1658 0737 6A01     		.2byte	0x16a
 1659 0739 C8070000 		.4byte	0x7c8
 1660 073d 02       		.byte	0x2
 1661 073e 23       		.byte	0x23
 1662 073f 04       		.uleb128 0x4
 1663 0740 12       		.uleb128 0x12
 1664 0741 B4010000 		.4byte	.LASF106
 1665 0745 0C       		.byte	0xc
 1666 0746 6E01     		.2byte	0x16e
 1667 0748 6A060000 		.4byte	0x66a
 1668 074c 02       		.byte	0x2
 1669 074d 23       		.byte	0x23
 1670 074e 08       		.uleb128 0x8
 1671 074f 12       		.uleb128 0x12
 1672 0750 28030000 		.4byte	.LASF107
 1673 0754 0C       		.byte	0xc
 1674 0755 7401     		.2byte	0x174
 1675 0757 92030000 		.4byte	0x392
 1676 075b 02       		.byte	0x2
 1677 075c 23       		.byte	0x23
 1678 075d 0C       		.uleb128 0xc
 1679 075e 12       		.uleb128 0x12
 1680 075f 38010000 		.4byte	.LASF108
 1681 0763 0C       		.byte	0xc
 1682 0764 8001     		.2byte	0x180
 1683 0766 5A020000 		.4byte	0x25a
 1684 076a 02       		.byte	0x2
 1685 076b 23       		.byte	0x23
 1686 076c 1C       		.uleb128 0x1c
 1687 076d 12       		.uleb128 0x12
 1688 076e 66000000 		.4byte	.LASF109
 1689 0772 0C       		.byte	0xc
 1690 0773 8401     		.2byte	0x184
 1691 0775 5E060000 		.4byte	0x65e
 1692 0779 02       		.byte	0x2
 1693 077a 23       		.byte	0x23
ARM GAS  C:\Users\DNIEL~1\AppData\Local\Temp\cc3u0bjF.s 			page 31


 1694 077b 20       		.uleb128 0x20
 1695 077c 12       		.uleb128 0x12
 1696 077d 64010000 		.4byte	.LASF110
 1697 0781 0C       		.byte	0xc
 1698 0782 8801     		.2byte	0x188
 1699 0784 86000000 		.4byte	0x86
 1700 0788 02       		.byte	0x2
 1701 0789 23       		.byte	0x23
 1702 078a 24       		.uleb128 0x24
 1703 078b 12       		.uleb128 0x12
 1704 078c 7E020000 		.4byte	.LASF111
 1705 0790 0C       		.byte	0xc
 1706 0791 8C01     		.2byte	0x18c
 1707 0793 86000000 		.4byte	0x86
 1708 0797 02       		.byte	0x2
 1709 0798 23       		.byte	0x23
 1710 0799 28       		.uleb128 0x28
 1711 079a 12       		.uleb128 0x12
 1712 079b 0F000000 		.4byte	.LASF112
 1713 079f 0C       		.byte	0xc
 1714 07a0 9001     		.2byte	0x190
 1715 07a2 1B060000 		.4byte	0x61b
 1716 07a6 02       		.byte	0x2
 1717 07a7 23       		.byte	0x23
 1718 07a8 2C       		.uleb128 0x2c
 1719 07a9 12       		.uleb128 0x12
 1720 07aa 6E010000 		.4byte	.LASF113
 1721 07ae 0C       		.byte	0xc
 1722 07af 9401     		.2byte	0x194
 1723 07b1 1B060000 		.4byte	0x61b
 1724 07b5 02       		.byte	0x2
 1725 07b6 23       		.byte	0x23
 1726 07b7 30       		.uleb128 0x30
 1727 07b8 0C       		.uleb128 0xc
 1728 07b9 69326300 		.ascii	"i2c\000"
 1729 07bd 0C       		.byte	0xc
 1730 07be 9801     		.2byte	0x198
 1731 07c0 D3070000 		.4byte	0x7d3
 1732 07c4 02       		.byte	0x2
 1733 07c5 23       		.byte	0x23
 1734 07c6 34       		.uleb128 0x34
 1735 07c7 00       		.byte	0x0
 1736 07c8 09       		.uleb128 0x9
 1737 07c9 04       		.byte	0x4
 1738 07ca CE070000 		.4byte	0x7ce
 1739 07ce 10       		.uleb128 0x10
 1740 07cf FD060000 		.4byte	0x6fd
 1741 07d3 09       		.uleb128 0x9
 1742 07d4 04       		.byte	0x4
 1743 07d5 A9050000 		.4byte	0x5a9
 1744 07d9 17       		.uleb128 0x17
 1745 07da 01       		.byte	0x1
 1746 07db 11050000 		.4byte	.LASF132
 1747 07df 01       		.byte	0x1
 1748 07e0 47       		.byte	0x47
 1749 07e1 01       		.byte	0x1
 1750 07e2 00000000 		.4byte	.LFB118
ARM GAS  C:\Users\DNIEL~1\AppData\Local\Temp\cc3u0bjF.s 			page 32


 1751 07e6 04000000 		.4byte	.LFE118
 1752 07ea 02       		.byte	0x2
 1753 07eb 7D       		.byte	0x7d
 1754 07ec 00       		.sleb128 0
 1755 07ed 18       		.uleb128 0x18
 1756 07ee 01       		.byte	0x1
 1757 07ef 37050000 		.4byte	.LASF114
 1758 07f3 01       		.byte	0x1
 1759 07f4 52       		.byte	0x52
 1760 07f5 01       		.byte	0x1
 1761 07f6 00000000 		.4byte	.LFB119
 1762 07fa 0E000000 		.4byte	.LFE119
 1763 07fe 02       		.byte	0x2
 1764 07ff 7D       		.byte	0x7d
 1765 0800 00       		.sleb128 0
 1766 0801 15080000 		.4byte	0x815
 1767 0805 19       		.uleb128 0x19
 1768 0806 9F000000 		.4byte	.LASF116
 1769 080a 01       		.byte	0x1
 1770 080b 52       		.byte	0x52
 1771 080c 15080000 		.4byte	0x815
 1772 0810 00000000 		.4byte	.LLST0
 1773 0814 00       		.byte	0x0
 1774 0815 09       		.uleb128 0x9
 1775 0816 04       		.byte	0x4
 1776 0817 09070000 		.4byte	0x709
 1777 081b 1A       		.uleb128 0x1a
 1778 081c 01       		.byte	0x1
 1779 081d 6B000000 		.4byte	.LASF115
 1780 0821 01       		.byte	0x1
 1781 0822 6C       		.byte	0x6c
 1782 0823 01       		.byte	0x1
 1783 0824 00000000 		.4byte	.LFB120
 1784 0828 1C000000 		.4byte	.LFE120
 1785 082c 20000000 		.4byte	.LLST1
 1786 0830 85080000 		.4byte	0x885
 1787 0834 19       		.uleb128 0x19
 1788 0835 9F000000 		.4byte	.LASF116
 1789 0839 01       		.byte	0x1
 1790 083a 6C       		.byte	0x6c
 1791 083b 15080000 		.4byte	0x815
 1792 083f 40000000 		.4byte	.LLST2
 1793 0843 19       		.uleb128 0x19
 1794 0844 72040000 		.4byte	.LASF105
 1795 0848 01       		.byte	0x1
 1796 0849 6C       		.byte	0x6c
 1797 084a C8070000 		.4byte	0x7c8
 1798 084e 5E000000 		.4byte	.LLST3
 1799 0852 1B       		.uleb128 0x1b
 1800 0853 00000000 		.4byte	.Ldebug_ranges0+0x0
 1801 0857 6B080000 		.4byte	0x86b
 1802 085b 1C       		.uleb128 0x1c
 1803 085c 746D7000 		.ascii	"tmp\000"
 1804 0860 01       		.byte	0x1
 1805 0861 74       		.byte	0x74
 1806 0862 86000000 		.4byte	0x86
 1807 0866 71000000 		.4byte	.LLST4
ARM GAS  C:\Users\DNIEL~1\AppData\Local\Temp\cc3u0bjF.s 			page 33


 1808 086a 00       		.byte	0x0
 1809 086b 1D       		.uleb128 0x1d
 1810 086c 14000000 		.4byte	.LBB4
 1811 0870 1A000000 		.4byte	.LBE4
 1812 0874 1C       		.uleb128 0x1c
 1813 0875 746D7000 		.ascii	"tmp\000"
 1814 0879 01       		.byte	0x1
 1815 087a 78       		.byte	0x78
 1816 087b 86000000 		.4byte	0x86
 1817 087f 84000000 		.4byte	.LLST5
 1818 0883 00       		.byte	0x0
 1819 0884 00       		.byte	0x0
 1820 0885 1A       		.uleb128 0x1a
 1821 0886 01       		.byte	0x1
 1822 0887 69020000 		.4byte	.LASF117
 1823 088b 01       		.byte	0x1
 1824 088c 82       		.byte	0x82
 1825 088d 01       		.byte	0x1
 1826 088e 00000000 		.4byte	.LFB121
 1827 0892 1A000000 		.4byte	.LFE121
 1828 0896 97000000 		.4byte	.LLST6
 1829 089a E0080000 		.4byte	0x8e0
 1830 089e 19       		.uleb128 0x19
 1831 089f 9F000000 		.4byte	.LASF116
 1832 08a3 01       		.byte	0x1
 1833 08a4 82       		.byte	0x82
 1834 08a5 15080000 		.4byte	0x815
 1835 08a9 B7000000 		.4byte	.LLST7
 1836 08ad 1B       		.uleb128 0x1b
 1837 08ae 18000000 		.4byte	.Ldebug_ranges0+0x18
 1838 08b2 C6080000 		.4byte	0x8c6
 1839 08b6 1C       		.uleb128 0x1c
 1840 08b7 746D7000 		.ascii	"tmp\000"
 1841 08bb 01       		.byte	0x1
 1842 08bc 8A       		.byte	0x8a
 1843 08bd 86000000 		.4byte	0x86
 1844 08c1 D5000000 		.4byte	.LLST8
 1845 08c5 00       		.byte	0x0
 1846 08c6 1D       		.uleb128 0x1d
 1847 08c7 12000000 		.4byte	.LBB7
 1848 08cb 18000000 		.4byte	.LBE7
 1849 08cf 1C       		.uleb128 0x1c
 1850 08d0 746D7000 		.ascii	"tmp\000"
 1851 08d4 01       		.byte	0x1
 1852 08d5 8D       		.byte	0x8d
 1853 08d6 86000000 		.4byte	0x86
 1854 08da E8000000 		.4byte	.LLST9
 1855 08de 00       		.byte	0x0
 1856 08df 00       		.byte	0x0
 1857 08e0 1E       		.uleb128 0x1e
 1858 08e1 01       		.byte	0x1
 1859 08e2 B7030000 		.4byte	.LASF118
 1860 08e6 01       		.byte	0x1
 1861 08e7 98       		.byte	0x98
 1862 08e8 01       		.byte	0x1
 1863 08e9 6A060000 		.4byte	0x66a
 1864 08ed 00000000 		.4byte	.LFB122
ARM GAS  C:\Users\DNIEL~1\AppData\Local\Temp\cc3u0bjF.s 			page 34


 1865 08f1 04000000 		.4byte	.LFE122
 1866 08f5 02       		.byte	0x2
 1867 08f6 7D       		.byte	0x7d
 1868 08f7 00       		.sleb128 0
 1869 08f8 0C090000 		.4byte	0x90c
 1870 08fc 19       		.uleb128 0x19
 1871 08fd 9F000000 		.4byte	.LASF116
 1872 0901 01       		.byte	0x1
 1873 0902 98       		.byte	0x98
 1874 0903 15080000 		.4byte	0x815
 1875 0907 FB000000 		.4byte	.LLST10
 1876 090b 00       		.byte	0x0
 1877 090c 1F       		.uleb128 0x1f
 1878 090d 01       		.byte	0x1
 1879 090e B3000000 		.4byte	.LASF119
 1880 0912 01       		.byte	0x1
 1881 0913 B9       		.byte	0xb9
 1882 0914 01       		.byte	0x1
 1883 0915 E4000000 		.4byte	0xe4
 1884 0919 00000000 		.4byte	.LFB123
 1885 091d 42000000 		.4byte	.LFE123
 1886 0921 0E010000 		.4byte	.LLST11
 1887 0925 D3090000 		.4byte	0x9d3
 1888 0929 19       		.uleb128 0x19
 1889 092a 9F000000 		.4byte	.LASF116
 1890 092e 01       		.byte	0x1
 1891 092f B9       		.byte	0xb9
 1892 0930 15080000 		.4byte	0x815
 1893 0934 3A010000 		.4byte	.LLST12
 1894 0938 19       		.uleb128 0x19
 1895 0939 66000000 		.4byte	.LASF109
 1896 093d 01       		.byte	0x1
 1897 093e BA       		.byte	0xba
 1898 093f 5E060000 		.4byte	0x65e
 1899 0943 58010000 		.4byte	.LLST13
 1900 0947 19       		.uleb128 0x19
 1901 0948 AE010000 		.4byte	.LASF120
 1902 094c 01       		.byte	0x1
 1903 094d BB       		.byte	0xbb
 1904 094e F0030000 		.4byte	0x3f0
 1905 0952 6B010000 		.4byte	.LLST14
 1906 0956 19       		.uleb128 0x19
 1907 0957 5D050000 		.4byte	.LASF121
 1908 095b 01       		.byte	0x1
 1909 095c BC       		.byte	0xbc
 1910 095d 30000000 		.4byte	0x30
 1911 0961 7E010000 		.4byte	.LLST15
 1912 0965 20       		.uleb128 0x20
 1913 0966 FA000000 		.4byte	.LASF122
 1914 096a 01       		.byte	0x1
 1915 096b BD       		.byte	0xbd
 1916 096c EA030000 		.4byte	0x3ea
 1917 0970 02       		.byte	0x2
 1918 0971 91       		.byte	0x91
 1919 0972 00       		.sleb128 0
 1920 0973 20       		.uleb128 0x20
 1921 0974 61020000 		.4byte	.LASF123
ARM GAS  C:\Users\DNIEL~1\AppData\Local\Temp\cc3u0bjF.s 			page 35


 1922 0978 01       		.byte	0x1
 1923 0979 BE       		.byte	0xbe
 1924 097a 30000000 		.4byte	0x30
 1925 097e 02       		.byte	0x2
 1926 097f 91       		.byte	0x91
 1927 0980 04       		.sleb128 4
 1928 0981 20       		.uleb128 0x20
 1929 0982 C6010000 		.4byte	.LASF124
 1930 0986 01       		.byte	0x1
 1931 0987 BF       		.byte	0xbf
 1932 0988 FA000000 		.4byte	0xfa
 1933 098c 02       		.byte	0x2
 1934 098d 91       		.byte	0x91
 1935 098e 08       		.sleb128 8
 1936 098f 21       		.uleb128 0x21
 1937 0990 3B000000 		.4byte	.LASF52
 1938 0994 01       		.byte	0x1
 1939 0995 C0       		.byte	0xc0
 1940 0996 E4000000 		.4byte	0xe4
 1941 099a 01       		.byte	0x1
 1942 099b 50       		.byte	0x50
 1943 099c 22       		.uleb128 0x22
 1944 099d 08000000 		.4byte	.LBB8
 1945 09a1 0E000000 		.4byte	.LBE8
 1946 09a5 B9090000 		.4byte	0x9b9
 1947 09a9 1C       		.uleb128 0x1c
 1948 09aa 746D7000 		.ascii	"tmp\000"
 1949 09ae 01       		.byte	0x1
 1950 09af CB       		.byte	0xcb
 1951 09b0 86000000 		.4byte	0x86
 1952 09b4 9C010000 		.4byte	.LLST16
 1953 09b8 00       		.byte	0x0
 1954 09b9 1D       		.uleb128 0x1d
 1955 09ba 32000000 		.4byte	.LBB9
 1956 09be 38000000 		.4byte	.LBE9
 1957 09c2 1C       		.uleb128 0x1c
 1958 09c3 746D7000 		.ascii	"tmp\000"
 1959 09c7 01       		.byte	0x1
 1960 09c8 D4       		.byte	0xd4
 1961 09c9 86000000 		.4byte	0x86
 1962 09cd AF010000 		.4byte	.LLST17
 1963 09d1 00       		.byte	0x0
 1964 09d2 00       		.byte	0x0
 1965 09d3 1F       		.uleb128 0x1f
 1966 09d4 01       		.byte	0x1
 1967 09d5 EB040000 		.4byte	.LASF125
 1968 09d9 01       		.byte	0x1
 1969 09da EC       		.byte	0xec
 1970 09db 01       		.byte	0x1
 1971 09dc E4000000 		.4byte	0xe4
 1972 09e0 00000000 		.4byte	.LFB124
 1973 09e4 3A000000 		.4byte	.LFE124
 1974 09e8 C2010000 		.4byte	.LLST18
 1975 09ec 7F0A0000 		.4byte	0xa7f
 1976 09f0 19       		.uleb128 0x19
 1977 09f1 9F000000 		.4byte	.LASF116
 1978 09f5 01       		.byte	0x1
ARM GAS  C:\Users\DNIEL~1\AppData\Local\Temp\cc3u0bjF.s 			page 36


 1979 09f6 EC       		.byte	0xec
 1980 09f7 15080000 		.4byte	0x815
 1981 09fb EE010000 		.4byte	.LLST19
 1982 09ff 19       		.uleb128 0x19
 1983 0a00 66000000 		.4byte	.LASF109
 1984 0a04 01       		.byte	0x1
 1985 0a05 ED       		.byte	0xed
 1986 0a06 5E060000 		.4byte	0x65e
 1987 0a0a 0C020000 		.4byte	.LLST20
 1988 0a0e 19       		.uleb128 0x19
 1989 0a0f FA000000 		.4byte	.LASF122
 1990 0a13 01       		.byte	0x1
 1991 0a14 EE       		.byte	0xee
 1992 0a15 EA030000 		.4byte	0x3ea
 1993 0a19 1F020000 		.4byte	.LLST21
 1994 0a1d 19       		.uleb128 0x19
 1995 0a1e 61020000 		.4byte	.LASF123
 1996 0a22 01       		.byte	0x1
 1997 0a23 EF       		.byte	0xef
 1998 0a24 30000000 		.4byte	0x30
 1999 0a28 32020000 		.4byte	.LLST22
 2000 0a2c 20       		.uleb128 0x20
 2001 0a2d C6010000 		.4byte	.LASF124
 2002 0a31 01       		.byte	0x1
 2003 0a32 F0       		.byte	0xf0
 2004 0a33 FA000000 		.4byte	0xfa
 2005 0a37 02       		.byte	0x2
 2006 0a38 91       		.byte	0x91
 2007 0a39 00       		.sleb128 0
 2008 0a3a 21       		.uleb128 0x21
 2009 0a3b 3B000000 		.4byte	.LASF52
 2010 0a3f 01       		.byte	0x1
 2011 0a40 F2       		.byte	0xf2
 2012 0a41 E4000000 		.4byte	0xe4
 2013 0a45 01       		.byte	0x1
 2014 0a46 50       		.byte	0x50
 2015 0a47 22       		.uleb128 0x22
 2016 0a48 08000000 		.4byte	.LBB10
 2017 0a4c 0E000000 		.4byte	.LBE10
 2018 0a50 640A0000 		.4byte	0xa64
 2019 0a54 1C       		.uleb128 0x1c
 2020 0a55 746D7000 		.ascii	"tmp\000"
 2021 0a59 01       		.byte	0x1
 2022 0a5a FC       		.byte	0xfc
 2023 0a5b 86000000 		.4byte	0x86
 2024 0a5f 5B020000 		.4byte	.LLST23
 2025 0a63 00       		.byte	0x0
 2026 0a64 1D       		.uleb128 0x1d
 2027 0a65 2A000000 		.4byte	.LBB11
 2028 0a69 30000000 		.4byte	.LBE11
 2029 0a6d 23       		.uleb128 0x23
 2030 0a6e 746D7000 		.ascii	"tmp\000"
 2031 0a72 01       		.byte	0x1
 2032 0a73 0401     		.2byte	0x104
 2033 0a75 86000000 		.4byte	0x86
 2034 0a79 6E020000 		.4byte	.LLST24
 2035 0a7d 00       		.byte	0x0
ARM GAS  C:\Users\DNIEL~1\AppData\Local\Temp\cc3u0bjF.s 			page 37


 2036 0a7e 00       		.byte	0x0
 2037 0a7f 24       		.uleb128 0x24
 2038 0a80 01       		.byte	0x1
 2039 0a81 CB040000 		.4byte	.LASF126
 2040 0a85 01       		.byte	0x1
 2041 0a86 1401     		.2byte	0x114
 2042 0a88 01       		.byte	0x1
 2043 0a89 00000000 		.4byte	.LFB125
 2044 0a8d 06000000 		.4byte	.LFE125
 2045 0a91 02       		.byte	0x2
 2046 0a92 7D       		.byte	0x7d
 2047 0a93 00       		.sleb128 0
 2048 0a94 A90A0000 		.4byte	0xaa9
 2049 0a98 25       		.uleb128 0x25
 2050 0a99 9F000000 		.4byte	.LASF116
 2051 0a9d 01       		.byte	0x1
 2052 0a9e 1401     		.2byte	0x114
 2053 0aa0 15080000 		.4byte	0x815
 2054 0aa4 81020000 		.4byte	.LLST25
 2055 0aa8 00       		.byte	0x0
 2056 0aa9 24       		.uleb128 0x24
 2057 0aaa 01       		.byte	0x1
 2058 0aab 84000000 		.4byte	.LASF127
 2059 0aaf 01       		.byte	0x1
 2060 0ab0 2801     		.2byte	0x128
 2061 0ab2 01       		.byte	0x1
 2062 0ab3 00000000 		.4byte	.LFB126
 2063 0ab7 04000000 		.4byte	.LFE126
 2064 0abb 02       		.byte	0x2
 2065 0abc 7D       		.byte	0x7d
 2066 0abd 00       		.sleb128 0
 2067 0abe D10A0000 		.4byte	0xad1
 2068 0ac2 26       		.uleb128 0x26
 2069 0ac3 9F000000 		.4byte	.LASF116
 2070 0ac7 01       		.byte	0x1
 2071 0ac8 2801     		.2byte	0x128
 2072 0aca 15080000 		.4byte	0x815
 2073 0ace 01       		.byte	0x1
 2074 0acf 50       		.byte	0x50
 2075 0ad0 00       		.byte	0x0
 2076 0ad1 27       		.uleb128 0x27
 2077 0ad2 92000000 		.4byte	.LASF128
 2078 0ad6 0D       		.byte	0xd
 2079 0ad7 9806     		.2byte	0x698
 2080 0ad9 00040000 		.4byte	0x400
 2081 0add 01       		.byte	0x1
 2082 0ade 01       		.byte	0x1
 2083 0adf 27       		.uleb128 0x27
 2084 0ae0 92000000 		.4byte	.LASF128
 2085 0ae4 0D       		.byte	0xd
 2086 0ae5 9806     		.2byte	0x698
 2087 0ae7 00040000 		.4byte	0x400
 2088 0aeb 01       		.byte	0x1
 2089 0aec 01       		.byte	0x1
 2090 0aed 00       		.byte	0x0
 2091              		.section	.debug_abbrev
 2092 0000 01       		.uleb128 0x1
ARM GAS  C:\Users\DNIEL~1\AppData\Local\Temp\cc3u0bjF.s 			page 38


 2093 0001 11       		.uleb128 0x11
 2094 0002 01       		.byte	0x1
 2095 0003 25       		.uleb128 0x25
 2096 0004 0E       		.uleb128 0xe
 2097 0005 13       		.uleb128 0x13
 2098 0006 0B       		.uleb128 0xb
 2099 0007 03       		.uleb128 0x3
 2100 0008 0E       		.uleb128 0xe
 2101 0009 1B       		.uleb128 0x1b
 2102 000a 0E       		.uleb128 0xe
 2103 000b 11       		.uleb128 0x11
 2104 000c 01       		.uleb128 0x1
 2105 000d 52       		.uleb128 0x52
 2106 000e 01       		.uleb128 0x1
 2107 000f 55       		.uleb128 0x55
 2108 0010 06       		.uleb128 0x6
 2109 0011 10       		.uleb128 0x10
 2110 0012 06       		.uleb128 0x6
 2111 0013 00       		.byte	0x0
 2112 0014 00       		.byte	0x0
 2113 0015 02       		.uleb128 0x2
 2114 0016 24       		.uleb128 0x24
 2115 0017 00       		.byte	0x0
 2116 0018 0B       		.uleb128 0xb
 2117 0019 0B       		.uleb128 0xb
 2118 001a 3E       		.uleb128 0x3e
 2119 001b 0B       		.uleb128 0xb
 2120 001c 03       		.uleb128 0x3
 2121 001d 08       		.uleb128 0x8
 2122 001e 00       		.byte	0x0
 2123 001f 00       		.byte	0x0
 2124 0020 03       		.uleb128 0x3
 2125 0021 16       		.uleb128 0x16
 2126 0022 00       		.byte	0x0
 2127 0023 03       		.uleb128 0x3
 2128 0024 0E       		.uleb128 0xe
 2129 0025 3A       		.uleb128 0x3a
 2130 0026 0B       		.uleb128 0xb
 2131 0027 3B       		.uleb128 0x3b
 2132 0028 0B       		.uleb128 0xb
 2133 0029 49       		.uleb128 0x49
 2134 002a 13       		.uleb128 0x13
 2135 002b 00       		.byte	0x0
 2136 002c 00       		.byte	0x0
 2137 002d 04       		.uleb128 0x4
 2138 002e 24       		.uleb128 0x24
 2139 002f 00       		.byte	0x0
 2140 0030 0B       		.uleb128 0xb
 2141 0031 0B       		.uleb128 0xb
 2142 0032 3E       		.uleb128 0x3e
 2143 0033 0B       		.uleb128 0xb
 2144 0034 03       		.uleb128 0x3
 2145 0035 0E       		.uleb128 0xe
 2146 0036 00       		.byte	0x0
 2147 0037 00       		.byte	0x0
 2148 0038 05       		.uleb128 0x5
 2149 0039 13       		.uleb128 0x13
ARM GAS  C:\Users\DNIEL~1\AppData\Local\Temp\cc3u0bjF.s 			page 39


 2150 003a 01       		.byte	0x1
 2151 003b 03       		.uleb128 0x3
 2152 003c 0E       		.uleb128 0xe
 2153 003d 0B       		.uleb128 0xb
 2154 003e 0B       		.uleb128 0xb
 2155 003f 3A       		.uleb128 0x3a
 2156 0040 0B       		.uleb128 0xb
 2157 0041 3B       		.uleb128 0x3b
 2158 0042 0B       		.uleb128 0xb
 2159 0043 01       		.uleb128 0x1
 2160 0044 13       		.uleb128 0x13
 2161 0045 00       		.byte	0x0
 2162 0046 00       		.byte	0x0
 2163 0047 06       		.uleb128 0x6
 2164 0048 0D       		.uleb128 0xd
 2165 0049 00       		.byte	0x0
 2166 004a 03       		.uleb128 0x3
 2167 004b 0E       		.uleb128 0xe
 2168 004c 3A       		.uleb128 0x3a
 2169 004d 0B       		.uleb128 0xb
 2170 004e 3B       		.uleb128 0x3b
 2171 004f 0B       		.uleb128 0xb
 2172 0050 49       		.uleb128 0x49
 2173 0051 13       		.uleb128 0x13
 2174 0052 38       		.uleb128 0x38
 2175 0053 0A       		.uleb128 0xa
 2176 0054 00       		.byte	0x0
 2177 0055 00       		.byte	0x0
 2178 0056 07       		.uleb128 0x7
 2179 0057 0D       		.uleb128 0xd
 2180 0058 00       		.byte	0x0
 2181 0059 03       		.uleb128 0x3
 2182 005a 08       		.uleb128 0x8
 2183 005b 3A       		.uleb128 0x3a
 2184 005c 0B       		.uleb128 0xb
 2185 005d 3B       		.uleb128 0x3b
 2186 005e 0B       		.uleb128 0xb
 2187 005f 49       		.uleb128 0x49
 2188 0060 13       		.uleb128 0x13
 2189 0061 38       		.uleb128 0x38
 2190 0062 0A       		.uleb128 0xa
 2191 0063 00       		.byte	0x0
 2192 0064 00       		.byte	0x0
 2193 0065 08       		.uleb128 0x8
 2194 0066 13       		.uleb128 0x13
 2195 0067 01       		.byte	0x1
 2196 0068 0B       		.uleb128 0xb
 2197 0069 0B       		.uleb128 0xb
 2198 006a 3A       		.uleb128 0x3a
 2199 006b 0B       		.uleb128 0xb
 2200 006c 3B       		.uleb128 0x3b
 2201 006d 0B       		.uleb128 0xb
 2202 006e 01       		.uleb128 0x1
 2203 006f 13       		.uleb128 0x13
 2204 0070 00       		.byte	0x0
 2205 0071 00       		.byte	0x0
 2206 0072 09       		.uleb128 0x9
ARM GAS  C:\Users\DNIEL~1\AppData\Local\Temp\cc3u0bjF.s 			page 40


 2207 0073 0F       		.uleb128 0xf
 2208 0074 00       		.byte	0x0
 2209 0075 0B       		.uleb128 0xb
 2210 0076 0B       		.uleb128 0xb
 2211 0077 49       		.uleb128 0x49
 2212 0078 13       		.uleb128 0x13
 2213 0079 00       		.byte	0x0
 2214 007a 00       		.byte	0x0
 2215 007b 0A       		.uleb128 0xa
 2216 007c 0F       		.uleb128 0xf
 2217 007d 00       		.byte	0x0
 2218 007e 0B       		.uleb128 0xb
 2219 007f 0B       		.uleb128 0xb
 2220 0080 00       		.byte	0x0
 2221 0081 00       		.byte	0x0
 2222 0082 0B       		.uleb128 0xb
 2223 0083 13       		.uleb128 0x13
 2224 0084 01       		.byte	0x1
 2225 0085 03       		.uleb128 0x3
 2226 0086 0E       		.uleb128 0xe
 2227 0087 0B       		.uleb128 0xb
 2228 0088 0B       		.uleb128 0xb
 2229 0089 3A       		.uleb128 0x3a
 2230 008a 0B       		.uleb128 0xb
 2231 008b 3B       		.uleb128 0x3b
 2232 008c 05       		.uleb128 0x5
 2233 008d 01       		.uleb128 0x1
 2234 008e 13       		.uleb128 0x13
 2235 008f 00       		.byte	0x0
 2236 0090 00       		.byte	0x0
 2237 0091 0C       		.uleb128 0xc
 2238 0092 0D       		.uleb128 0xd
 2239 0093 00       		.byte	0x0
 2240 0094 03       		.uleb128 0x3
 2241 0095 08       		.uleb128 0x8
 2242 0096 3A       		.uleb128 0x3a
 2243 0097 0B       		.uleb128 0xb
 2244 0098 3B       		.uleb128 0x3b
 2245 0099 05       		.uleb128 0x5
 2246 009a 49       		.uleb128 0x49
 2247 009b 13       		.uleb128 0x13
 2248 009c 38       		.uleb128 0x38
 2249 009d 0A       		.uleb128 0xa
 2250 009e 00       		.byte	0x0
 2251 009f 00       		.byte	0x0
 2252 00a0 0D       		.uleb128 0xd
 2253 00a1 35       		.uleb128 0x35
 2254 00a2 00       		.byte	0x0
 2255 00a3 49       		.uleb128 0x49
 2256 00a4 13       		.uleb128 0x13
 2257 00a5 00       		.byte	0x0
 2258 00a6 00       		.byte	0x0
 2259 00a7 0E       		.uleb128 0xe
 2260 00a8 17       		.uleb128 0x17
 2261 00a9 01       		.byte	0x1
 2262 00aa 0B       		.uleb128 0xb
 2263 00ab 0B       		.uleb128 0xb
ARM GAS  C:\Users\DNIEL~1\AppData\Local\Temp\cc3u0bjF.s 			page 41


 2264 00ac 3A       		.uleb128 0x3a
 2265 00ad 0B       		.uleb128 0xb
 2266 00ae 3B       		.uleb128 0x3b
 2267 00af 0B       		.uleb128 0xb
 2268 00b0 01       		.uleb128 0x1
 2269 00b1 13       		.uleb128 0x13
 2270 00b2 00       		.byte	0x0
 2271 00b3 00       		.byte	0x0
 2272 00b4 0F       		.uleb128 0xf
 2273 00b5 0D       		.uleb128 0xd
 2274 00b6 00       		.byte	0x0
 2275 00b7 03       		.uleb128 0x3
 2276 00b8 0E       		.uleb128 0xe
 2277 00b9 3A       		.uleb128 0x3a
 2278 00ba 0B       		.uleb128 0xb
 2279 00bb 3B       		.uleb128 0x3b
 2280 00bc 0B       		.uleb128 0xb
 2281 00bd 49       		.uleb128 0x49
 2282 00be 13       		.uleb128 0x13
 2283 00bf 00       		.byte	0x0
 2284 00c0 00       		.byte	0x0
 2285 00c1 10       		.uleb128 0x10
 2286 00c2 26       		.uleb128 0x26
 2287 00c3 00       		.byte	0x0
 2288 00c4 49       		.uleb128 0x49
 2289 00c5 13       		.uleb128 0x13
 2290 00c6 00       		.byte	0x0
 2291 00c7 00       		.byte	0x0
 2292 00c8 11       		.uleb128 0x11
 2293 00c9 13       		.uleb128 0x13
 2294 00ca 01       		.byte	0x1
 2295 00cb 0B       		.uleb128 0xb
 2296 00cc 0B       		.uleb128 0xb
 2297 00cd 3A       		.uleb128 0x3a
 2298 00ce 0B       		.uleb128 0xb
 2299 00cf 3B       		.uleb128 0x3b
 2300 00d0 05       		.uleb128 0x5
 2301 00d1 01       		.uleb128 0x1
 2302 00d2 13       		.uleb128 0x13
 2303 00d3 00       		.byte	0x0
 2304 00d4 00       		.byte	0x0
 2305 00d5 12       		.uleb128 0x12
 2306 00d6 0D       		.uleb128 0xd
 2307 00d7 00       		.byte	0x0
 2308 00d8 03       		.uleb128 0x3
 2309 00d9 0E       		.uleb128 0xe
 2310 00da 3A       		.uleb128 0x3a
 2311 00db 0B       		.uleb128 0xb
 2312 00dc 3B       		.uleb128 0x3b
 2313 00dd 05       		.uleb128 0x5
 2314 00de 49       		.uleb128 0x49
 2315 00df 13       		.uleb128 0x13
 2316 00e0 38       		.uleb128 0x38
 2317 00e1 0A       		.uleb128 0xa
 2318 00e2 00       		.byte	0x0
 2319 00e3 00       		.byte	0x0
 2320 00e4 13       		.uleb128 0x13
ARM GAS  C:\Users\DNIEL~1\AppData\Local\Temp\cc3u0bjF.s 			page 42


 2321 00e5 16       		.uleb128 0x16
 2322 00e6 00       		.byte	0x0
 2323 00e7 03       		.uleb128 0x3
 2324 00e8 0E       		.uleb128 0xe
 2325 00e9 3A       		.uleb128 0x3a
 2326 00ea 0B       		.uleb128 0xb
 2327 00eb 3B       		.uleb128 0x3b
 2328 00ec 05       		.uleb128 0x5
 2329 00ed 49       		.uleb128 0x49
 2330 00ee 13       		.uleb128 0x13
 2331 00ef 00       		.byte	0x0
 2332 00f0 00       		.byte	0x0
 2333 00f1 14       		.uleb128 0x14
 2334 00f2 04       		.uleb128 0x4
 2335 00f3 01       		.byte	0x1
 2336 00f4 0B       		.uleb128 0xb
 2337 00f5 0B       		.uleb128 0xb
 2338 00f6 3A       		.uleb128 0x3a
 2339 00f7 0B       		.uleb128 0xb
 2340 00f8 3B       		.uleb128 0x3b
 2341 00f9 0B       		.uleb128 0xb
 2342 00fa 01       		.uleb128 0x1
 2343 00fb 13       		.uleb128 0x13
 2344 00fc 00       		.byte	0x0
 2345 00fd 00       		.byte	0x0
 2346 00fe 15       		.uleb128 0x15
 2347 00ff 28       		.uleb128 0x28
 2348 0100 00       		.byte	0x0
 2349 0101 03       		.uleb128 0x3
 2350 0102 0E       		.uleb128 0xe
 2351 0103 1C       		.uleb128 0x1c
 2352 0104 0D       		.uleb128 0xd
 2353 0105 00       		.byte	0x0
 2354 0106 00       		.byte	0x0
 2355 0107 16       		.uleb128 0x16
 2356 0108 04       		.uleb128 0x4
 2357 0109 01       		.byte	0x1
 2358 010a 0B       		.uleb128 0xb
 2359 010b 0B       		.uleb128 0xb
 2360 010c 3A       		.uleb128 0x3a
 2361 010d 0B       		.uleb128 0xb
 2362 010e 3B       		.uleb128 0x3b
 2363 010f 05       		.uleb128 0x5
 2364 0110 01       		.uleb128 0x1
 2365 0111 13       		.uleb128 0x13
 2366 0112 00       		.byte	0x0
 2367 0113 00       		.byte	0x0
 2368 0114 17       		.uleb128 0x17
 2369 0115 2E       		.uleb128 0x2e
 2370 0116 00       		.byte	0x0
 2371 0117 3F       		.uleb128 0x3f
 2372 0118 0C       		.uleb128 0xc
 2373 0119 03       		.uleb128 0x3
 2374 011a 0E       		.uleb128 0xe
 2375 011b 3A       		.uleb128 0x3a
 2376 011c 0B       		.uleb128 0xb
 2377 011d 3B       		.uleb128 0x3b
ARM GAS  C:\Users\DNIEL~1\AppData\Local\Temp\cc3u0bjF.s 			page 43


 2378 011e 0B       		.uleb128 0xb
 2379 011f 27       		.uleb128 0x27
 2380 0120 0C       		.uleb128 0xc
 2381 0121 11       		.uleb128 0x11
 2382 0122 01       		.uleb128 0x1
 2383 0123 12       		.uleb128 0x12
 2384 0124 01       		.uleb128 0x1
 2385 0125 40       		.uleb128 0x40
 2386 0126 0A       		.uleb128 0xa
 2387 0127 00       		.byte	0x0
 2388 0128 00       		.byte	0x0
 2389 0129 18       		.uleb128 0x18
 2390 012a 2E       		.uleb128 0x2e
 2391 012b 01       		.byte	0x1
 2392 012c 3F       		.uleb128 0x3f
 2393 012d 0C       		.uleb128 0xc
 2394 012e 03       		.uleb128 0x3
 2395 012f 0E       		.uleb128 0xe
 2396 0130 3A       		.uleb128 0x3a
 2397 0131 0B       		.uleb128 0xb
 2398 0132 3B       		.uleb128 0x3b
 2399 0133 0B       		.uleb128 0xb
 2400 0134 27       		.uleb128 0x27
 2401 0135 0C       		.uleb128 0xc
 2402 0136 11       		.uleb128 0x11
 2403 0137 01       		.uleb128 0x1
 2404 0138 12       		.uleb128 0x12
 2405 0139 01       		.uleb128 0x1
 2406 013a 40       		.uleb128 0x40
 2407 013b 0A       		.uleb128 0xa
 2408 013c 01       		.uleb128 0x1
 2409 013d 13       		.uleb128 0x13
 2410 013e 00       		.byte	0x0
 2411 013f 00       		.byte	0x0
 2412 0140 19       		.uleb128 0x19
 2413 0141 05       		.uleb128 0x5
 2414 0142 00       		.byte	0x0
 2415 0143 03       		.uleb128 0x3
 2416 0144 0E       		.uleb128 0xe
 2417 0145 3A       		.uleb128 0x3a
 2418 0146 0B       		.uleb128 0xb
 2419 0147 3B       		.uleb128 0x3b
 2420 0148 0B       		.uleb128 0xb
 2421 0149 49       		.uleb128 0x49
 2422 014a 13       		.uleb128 0x13
 2423 014b 02       		.uleb128 0x2
 2424 014c 06       		.uleb128 0x6
 2425 014d 00       		.byte	0x0
 2426 014e 00       		.byte	0x0
 2427 014f 1A       		.uleb128 0x1a
 2428 0150 2E       		.uleb128 0x2e
 2429 0151 01       		.byte	0x1
 2430 0152 3F       		.uleb128 0x3f
 2431 0153 0C       		.uleb128 0xc
 2432 0154 03       		.uleb128 0x3
 2433 0155 0E       		.uleb128 0xe
 2434 0156 3A       		.uleb128 0x3a
ARM GAS  C:\Users\DNIEL~1\AppData\Local\Temp\cc3u0bjF.s 			page 44


 2435 0157 0B       		.uleb128 0xb
 2436 0158 3B       		.uleb128 0x3b
 2437 0159 0B       		.uleb128 0xb
 2438 015a 27       		.uleb128 0x27
 2439 015b 0C       		.uleb128 0xc
 2440 015c 11       		.uleb128 0x11
 2441 015d 01       		.uleb128 0x1
 2442 015e 12       		.uleb128 0x12
 2443 015f 01       		.uleb128 0x1
 2444 0160 40       		.uleb128 0x40
 2445 0161 06       		.uleb128 0x6
 2446 0162 01       		.uleb128 0x1
 2447 0163 13       		.uleb128 0x13
 2448 0164 00       		.byte	0x0
 2449 0165 00       		.byte	0x0
 2450 0166 1B       		.uleb128 0x1b
 2451 0167 0B       		.uleb128 0xb
 2452 0168 01       		.byte	0x1
 2453 0169 55       		.uleb128 0x55
 2454 016a 06       		.uleb128 0x6
 2455 016b 01       		.uleb128 0x1
 2456 016c 13       		.uleb128 0x13
 2457 016d 00       		.byte	0x0
 2458 016e 00       		.byte	0x0
 2459 016f 1C       		.uleb128 0x1c
 2460 0170 34       		.uleb128 0x34
 2461 0171 00       		.byte	0x0
 2462 0172 03       		.uleb128 0x3
 2463 0173 08       		.uleb128 0x8
 2464 0174 3A       		.uleb128 0x3a
 2465 0175 0B       		.uleb128 0xb
 2466 0176 3B       		.uleb128 0x3b
 2467 0177 0B       		.uleb128 0xb
 2468 0178 49       		.uleb128 0x49
 2469 0179 13       		.uleb128 0x13
 2470 017a 02       		.uleb128 0x2
 2471 017b 06       		.uleb128 0x6
 2472 017c 00       		.byte	0x0
 2473 017d 00       		.byte	0x0
 2474 017e 1D       		.uleb128 0x1d
 2475 017f 0B       		.uleb128 0xb
 2476 0180 01       		.byte	0x1
 2477 0181 11       		.uleb128 0x11
 2478 0182 01       		.uleb128 0x1
 2479 0183 12       		.uleb128 0x12
 2480 0184 01       		.uleb128 0x1
 2481 0185 00       		.byte	0x0
 2482 0186 00       		.byte	0x0
 2483 0187 1E       		.uleb128 0x1e
 2484 0188 2E       		.uleb128 0x2e
 2485 0189 01       		.byte	0x1
 2486 018a 3F       		.uleb128 0x3f
 2487 018b 0C       		.uleb128 0xc
 2488 018c 03       		.uleb128 0x3
 2489 018d 0E       		.uleb128 0xe
 2490 018e 3A       		.uleb128 0x3a
 2491 018f 0B       		.uleb128 0xb
ARM GAS  C:\Users\DNIEL~1\AppData\Local\Temp\cc3u0bjF.s 			page 45


 2492 0190 3B       		.uleb128 0x3b
 2493 0191 0B       		.uleb128 0xb
 2494 0192 27       		.uleb128 0x27
 2495 0193 0C       		.uleb128 0xc
 2496 0194 49       		.uleb128 0x49
 2497 0195 13       		.uleb128 0x13
 2498 0196 11       		.uleb128 0x11
 2499 0197 01       		.uleb128 0x1
 2500 0198 12       		.uleb128 0x12
 2501 0199 01       		.uleb128 0x1
 2502 019a 40       		.uleb128 0x40
 2503 019b 0A       		.uleb128 0xa
 2504 019c 01       		.uleb128 0x1
 2505 019d 13       		.uleb128 0x13
 2506 019e 00       		.byte	0x0
 2507 019f 00       		.byte	0x0
 2508 01a0 1F       		.uleb128 0x1f
 2509 01a1 2E       		.uleb128 0x2e
 2510 01a2 01       		.byte	0x1
 2511 01a3 3F       		.uleb128 0x3f
 2512 01a4 0C       		.uleb128 0xc
 2513 01a5 03       		.uleb128 0x3
 2514 01a6 0E       		.uleb128 0xe
 2515 01a7 3A       		.uleb128 0x3a
 2516 01a8 0B       		.uleb128 0xb
 2517 01a9 3B       		.uleb128 0x3b
 2518 01aa 0B       		.uleb128 0xb
 2519 01ab 27       		.uleb128 0x27
 2520 01ac 0C       		.uleb128 0xc
 2521 01ad 49       		.uleb128 0x49
 2522 01ae 13       		.uleb128 0x13
 2523 01af 11       		.uleb128 0x11
 2524 01b0 01       		.uleb128 0x1
 2525 01b1 12       		.uleb128 0x12
 2526 01b2 01       		.uleb128 0x1
 2527 01b3 40       		.uleb128 0x40
 2528 01b4 06       		.uleb128 0x6
 2529 01b5 01       		.uleb128 0x1
 2530 01b6 13       		.uleb128 0x13
 2531 01b7 00       		.byte	0x0
 2532 01b8 00       		.byte	0x0
 2533 01b9 20       		.uleb128 0x20
 2534 01ba 05       		.uleb128 0x5
 2535 01bb 00       		.byte	0x0
 2536 01bc 03       		.uleb128 0x3
 2537 01bd 0E       		.uleb128 0xe
 2538 01be 3A       		.uleb128 0x3a
 2539 01bf 0B       		.uleb128 0xb
 2540 01c0 3B       		.uleb128 0x3b
 2541 01c1 0B       		.uleb128 0xb
 2542 01c2 49       		.uleb128 0x49
 2543 01c3 13       		.uleb128 0x13
 2544 01c4 02       		.uleb128 0x2
 2545 01c5 0A       		.uleb128 0xa
 2546 01c6 00       		.byte	0x0
 2547 01c7 00       		.byte	0x0
 2548 01c8 21       		.uleb128 0x21
ARM GAS  C:\Users\DNIEL~1\AppData\Local\Temp\cc3u0bjF.s 			page 46


 2549 01c9 34       		.uleb128 0x34
 2550 01ca 00       		.byte	0x0
 2551 01cb 03       		.uleb128 0x3
 2552 01cc 0E       		.uleb128 0xe
 2553 01cd 3A       		.uleb128 0x3a
 2554 01ce 0B       		.uleb128 0xb
 2555 01cf 3B       		.uleb128 0x3b
 2556 01d0 0B       		.uleb128 0xb
 2557 01d1 49       		.uleb128 0x49
 2558 01d2 13       		.uleb128 0x13
 2559 01d3 02       		.uleb128 0x2
 2560 01d4 0A       		.uleb128 0xa
 2561 01d5 00       		.byte	0x0
 2562 01d6 00       		.byte	0x0
 2563 01d7 22       		.uleb128 0x22
 2564 01d8 0B       		.uleb128 0xb
 2565 01d9 01       		.byte	0x1
 2566 01da 11       		.uleb128 0x11
 2567 01db 01       		.uleb128 0x1
 2568 01dc 12       		.uleb128 0x12
 2569 01dd 01       		.uleb128 0x1
 2570 01de 01       		.uleb128 0x1
 2571 01df 13       		.uleb128 0x13
 2572 01e0 00       		.byte	0x0
 2573 01e1 00       		.byte	0x0
 2574 01e2 23       		.uleb128 0x23
 2575 01e3 34       		.uleb128 0x34
 2576 01e4 00       		.byte	0x0
 2577 01e5 03       		.uleb128 0x3
 2578 01e6 08       		.uleb128 0x8
 2579 01e7 3A       		.uleb128 0x3a
 2580 01e8 0B       		.uleb128 0xb
 2581 01e9 3B       		.uleb128 0x3b
 2582 01ea 05       		.uleb128 0x5
 2583 01eb 49       		.uleb128 0x49
 2584 01ec 13       		.uleb128 0x13
 2585 01ed 02       		.uleb128 0x2
 2586 01ee 06       		.uleb128 0x6
 2587 01ef 00       		.byte	0x0
 2588 01f0 00       		.byte	0x0
 2589 01f1 24       		.uleb128 0x24
 2590 01f2 2E       		.uleb128 0x2e
 2591 01f3 01       		.byte	0x1
 2592 01f4 3F       		.uleb128 0x3f
 2593 01f5 0C       		.uleb128 0xc
 2594 01f6 03       		.uleb128 0x3
 2595 01f7 0E       		.uleb128 0xe
 2596 01f8 3A       		.uleb128 0x3a
 2597 01f9 0B       		.uleb128 0xb
 2598 01fa 3B       		.uleb128 0x3b
 2599 01fb 05       		.uleb128 0x5
 2600 01fc 27       		.uleb128 0x27
 2601 01fd 0C       		.uleb128 0xc
 2602 01fe 11       		.uleb128 0x11
 2603 01ff 01       		.uleb128 0x1
 2604 0200 12       		.uleb128 0x12
 2605 0201 01       		.uleb128 0x1
ARM GAS  C:\Users\DNIEL~1\AppData\Local\Temp\cc3u0bjF.s 			page 47


 2606 0202 40       		.uleb128 0x40
 2607 0203 0A       		.uleb128 0xa
 2608 0204 01       		.uleb128 0x1
 2609 0205 13       		.uleb128 0x13
 2610 0206 00       		.byte	0x0
 2611 0207 00       		.byte	0x0
 2612 0208 25       		.uleb128 0x25
 2613 0209 05       		.uleb128 0x5
 2614 020a 00       		.byte	0x0
 2615 020b 03       		.uleb128 0x3
 2616 020c 0E       		.uleb128 0xe
 2617 020d 3A       		.uleb128 0x3a
 2618 020e 0B       		.uleb128 0xb
 2619 020f 3B       		.uleb128 0x3b
 2620 0210 05       		.uleb128 0x5
 2621 0211 49       		.uleb128 0x49
 2622 0212 13       		.uleb128 0x13
 2623 0213 02       		.uleb128 0x2
 2624 0214 06       		.uleb128 0x6
 2625 0215 00       		.byte	0x0
 2626 0216 00       		.byte	0x0
 2627 0217 26       		.uleb128 0x26
 2628 0218 05       		.uleb128 0x5
 2629 0219 00       		.byte	0x0
 2630 021a 03       		.uleb128 0x3
 2631 021b 0E       		.uleb128 0xe
 2632 021c 3A       		.uleb128 0x3a
 2633 021d 0B       		.uleb128 0xb
 2634 021e 3B       		.uleb128 0x3b
 2635 021f 05       		.uleb128 0x5
 2636 0220 49       		.uleb128 0x49
 2637 0221 13       		.uleb128 0x13
 2638 0222 02       		.uleb128 0x2
 2639 0223 0A       		.uleb128 0xa
 2640 0224 00       		.byte	0x0
 2641 0225 00       		.byte	0x0
 2642 0226 27       		.uleb128 0x27
 2643 0227 34       		.uleb128 0x34
 2644 0228 00       		.byte	0x0
 2645 0229 03       		.uleb128 0x3
 2646 022a 0E       		.uleb128 0xe
 2647 022b 3A       		.uleb128 0x3a
 2648 022c 0B       		.uleb128 0xb
 2649 022d 3B       		.uleb128 0x3b
 2650 022e 05       		.uleb128 0x5
 2651 022f 49       		.uleb128 0x49
 2652 0230 13       		.uleb128 0x13
 2653 0231 3F       		.uleb128 0x3f
 2654 0232 0C       		.uleb128 0xc
 2655 0233 3C       		.uleb128 0x3c
 2656 0234 0C       		.uleb128 0xc
 2657 0235 00       		.byte	0x0
 2658 0236 00       		.byte	0x0
 2659 0237 00       		.byte	0x0
 2660              		.section	.debug_pubnames,"",%progbits
 2661 0000 B3000000 		.4byte	0xb3
 2662 0004 0200     		.2byte	0x2
ARM GAS  C:\Users\DNIEL~1\AppData\Local\Temp\cc3u0bjF.s 			page 48


 2663 0006 00000000 		.4byte	.Ldebug_info0
 2664 000a EE0A0000 		.4byte	0xaee
 2665 000e D9070000 		.4byte	0x7d9
 2666 0012 69326349 		.ascii	"i2cInit\000"
 2666      6E697400 
 2667 001a ED070000 		.4byte	0x7ed
 2668 001e 6932634F 		.ascii	"i2cObjectInit\000"
 2668      626A6563 
 2668      74496E69 
 2668      7400
 2669 002c 1B080000 		.4byte	0x81b
 2670 0030 69326353 		.ascii	"i2cStart\000"
 2670      74617274 
 2670      00
 2671 0039 85080000 		.4byte	0x885
 2672 003d 69326353 		.ascii	"i2cStop\000"
 2672      746F7000 
 2673 0045 E0080000 		.4byte	0x8e0
 2674 0049 69326347 		.ascii	"i2cGetErrors\000"
 2674      65744572 
 2674      726F7273 
 2674      00
 2675 0056 0C090000 		.4byte	0x90c
 2676 005a 6932634D 		.ascii	"i2cMasterTransmitTimeout\000"
 2676      61737465 
 2676      72547261 
 2676      6E736D69 
 2676      7454696D 
 2677 0073 D3090000 		.4byte	0x9d3
 2678 0077 6932634D 		.ascii	"i2cMasterReceiveTimeout\000"
 2678      61737465 
 2678      72526563 
 2678      65697665 
 2678      54696D65 
 2679 008f 7F0A0000 		.4byte	0xa7f
 2680 0093 69326341 		.ascii	"i2cAcquireBus\000"
 2680      63717569 
 2680      72654275 
 2680      7300
 2681 00a1 A90A0000 		.4byte	0xaa9
 2682 00a5 69326352 		.ascii	"i2cReleaseBus\000"
 2682      656C6561 
 2682      73654275 
 2682      7300
 2683 00b3 00000000 		.4byte	0x0
 2684              		.section	.debug_pubtypes,"",%progbits
 2685 0000 D8010000 		.4byte	0x1d8
 2686 0004 0200     		.2byte	0x2
 2687 0006 00000000 		.4byte	.Ldebug_info0
 2688 000a EE0A0000 		.4byte	0xaee
 2689 000e 30000000 		.4byte	0x30
 2690 0012 73697A65 		.ascii	"size_t\000"
 2690      5F7400
 2691 0019 49000000 		.4byte	0x49
 2692 001d 75696E74 		.ascii	"uint8_t\000"
 2692      385F7400 
 2693 0025 62000000 		.4byte	0x62
ARM GAS  C:\Users\DNIEL~1\AppData\Local\Temp\cc3u0bjF.s 			page 49


 2694 0029 75696E74 		.ascii	"uint16_t\000"
 2694      31365F74 
 2694      00
 2695 0032 74000000 		.4byte	0x74
 2696 0036 696E7433 		.ascii	"int32_t\000"
 2696      325F7400 
 2697 003e 86000000 		.4byte	0x86
 2698 0042 75696E74 		.ascii	"uint32_t\000"
 2698      33325F74 
 2698      00
 2699 004b AD000000 		.4byte	0xad
 2700 004f 746D6F64 		.ascii	"tmode_t\000"
 2700      655F7400 
 2701 0057 B8000000 		.4byte	0xb8
 2702 005b 74737461 		.ascii	"tstate_t\000"
 2702      74655F74 
 2702      00
 2703 0064 C3000000 		.4byte	0xc3
 2704 0068 74726566 		.ascii	"trefs_t\000"
 2704      735F7400 
 2705 0070 CE000000 		.4byte	0xce
 2706 0074 74736C69 		.ascii	"tslices_t\000"
 2706      6365735F 
 2706      7400
 2707 007e D9000000 		.4byte	0xd9
 2708 0082 74707269 		.ascii	"tprio_t\000"
 2708      6F5F7400 
 2709 008a E4000000 		.4byte	0xe4
 2710 008e 6D73675F 		.ascii	"msg_t\000"
 2710      7400
 2711 0094 EF000000 		.4byte	0xef
 2712 0098 6576656E 		.ascii	"eventmask_t\000"
 2712      746D6173 
 2712      6B5F7400 
 2713 00a4 FA000000 		.4byte	0xfa
 2714 00a8 73797374 		.ascii	"systime_t\000"
 2714      696D655F 
 2714      7400
 2715 00b2 05010000 		.4byte	0x105
 2716 00b6 54687265 		.ascii	"Thread\000"
 2716      616400
 2717 00bd 60020000 		.4byte	0x260
 2718 00c1 54687265 		.ascii	"ThreadsQueue\000"
 2718      61647351 
 2718      75657565 
 2718      00
 2719 00ce 82020000 		.4byte	0x282
 2720 00d2 54687265 		.ascii	"ThreadsList\000"
 2720      6164734C 
 2720      69737400 
 2721 00de 8D020000 		.4byte	0x28d
 2722 00e2 72656761 		.ascii	"regarm_t\000"
 2722      726D5F74 
 2722      00
 2723 00eb 9A020000 		.4byte	0x29a
 2724 00ef 696E7463 		.ascii	"intctx\000"
 2724      747800
ARM GAS  C:\Users\DNIEL~1\AppData\Local\Temp\cc3u0bjF.s 			page 50


 2725 00f6 28030000 		.4byte	0x328
 2726 00fa 636F6E74 		.ascii	"context\000"
 2726      65787400 
 2727 0102 55030000 		.4byte	0x355
 2728 0106 4D757465 		.ascii	"Mutex\000"
 2728      7800
 2729 010c 92030000 		.4byte	0x392
 2730 0110 4D757465 		.ascii	"Mutex\000"
 2730      7800
 2731 0116 10010000 		.4byte	0x110
 2732 011a 54687265 		.ascii	"Thread\000"
 2732      616400
 2733 0121 68040000 		.4byte	0x468
 2734 0125 444D415F 		.ascii	"DMA_Stream_TypeDef\000"
 2734      53747265 
 2734      616D5F54 
 2734      79706544 
 2734      656600
 2735 0138 A9050000 		.4byte	0x5a9
 2736 013c 4932435F 		.ascii	"I2C_TypeDef\000"
 2736      54797065 
 2736      44656600 
 2737 0148 10060000 		.4byte	0x610
 2738 014c 73746D33 		.ascii	"stm32_dma_stream_t\000"
 2738      325F646D 
 2738      615F7374 
 2738      7265616D 
 2738      5F7400
 2739 015f 53060000 		.4byte	0x653
 2740 0163 69326373 		.ascii	"i2cstate_t\000"
 2740      74617465 
 2740      5F7400
 2741 016e 5E060000 		.4byte	0x65e
 2742 0172 69326361 		.ascii	"i2caddr_t\000"
 2742      6464725F 
 2742      7400
 2743 017c 6A060000 		.4byte	0x66a
 2744 0180 69326366 		.ascii	"i2cflags_t\000"
 2744      6C616773 
 2744      5F7400
 2745 018b 92060000 		.4byte	0x692
 2746 018f 6932636F 		.ascii	"i2copmode_t\000"
 2746      706D6F64 
 2746      655F7400 
 2747 019b BA060000 		.4byte	0x6ba
 2748 019f 69326364 		.ascii	"i2cdutycycle_t\000"
 2748      75747963 
 2748      79636C65 
 2748      5F7400
 2749 01ae FD060000 		.4byte	0x6fd
 2750 01b2 49324343 		.ascii	"I2CConfig\000"
 2750      6F6E6669 
 2750      6700
 2751 01bc 09070000 		.4byte	0x709
 2752 01c0 49324344 		.ascii	"I2CDriver\000"
 2752      72697665 
 2752      7200
ARM GAS  C:\Users\DNIEL~1\AppData\Local\Temp\cc3u0bjF.s 			page 51


 2753 01ca 15070000 		.4byte	0x715
 2754 01ce 49324344 		.ascii	"I2CDriver\000"
 2754      72697665 
 2754      7200
 2755 01d8 00000000 		.4byte	0x0
 2756              		.section	.debug_aranges,"",%progbits
 2757 0000 5C000000 		.4byte	0x5c
 2758 0004 0200     		.2byte	0x2
 2759 0006 00000000 		.4byte	.Ldebug_info0
 2760 000a 04       		.byte	0x4
 2761 000b 00       		.byte	0x0
 2762 000c 0000     		.2byte	0x0
 2763 000e 0000     		.2byte	0x0
 2764 0010 00000000 		.4byte	.LFB118
 2765 0014 04000000 		.4byte	.LFE118-.LFB118
 2766 0018 00000000 		.4byte	.LFB119
 2767 001c 0E000000 		.4byte	.LFE119-.LFB119
 2768 0020 00000000 		.4byte	.LFB120
 2769 0024 1C000000 		.4byte	.LFE120-.LFB120
 2770 0028 00000000 		.4byte	.LFB121
 2771 002c 1A000000 		.4byte	.LFE121-.LFB121
 2772 0030 00000000 		.4byte	.LFB122
 2773 0034 04000000 		.4byte	.LFE122-.LFB122
 2774 0038 00000000 		.4byte	.LFB123
 2775 003c 42000000 		.4byte	.LFE123-.LFB123
 2776 0040 00000000 		.4byte	.LFB124
 2777 0044 3A000000 		.4byte	.LFE124-.LFB124
 2778 0048 00000000 		.4byte	.LFB125
 2779 004c 06000000 		.4byte	.LFE125-.LFB125
 2780 0050 00000000 		.4byte	.LFB126
 2781 0054 04000000 		.4byte	.LFE126-.LFB126
 2782 0058 00000000 		.4byte	0x0
 2783 005c 00000000 		.4byte	0x0
 2784              		.section	.debug_ranges,"",%progbits
 2785              	.Ldebug_ranges0:
 2786 0000 02000000 		.4byte	.LBB2
 2787 0004 04000000 		.4byte	.LBE2
 2788 0008 06000000 		.4byte	.LBB3
 2789 000c 0A000000 		.4byte	.LBE3
 2790 0010 00000000 		.4byte	0x0
 2791 0014 00000000 		.4byte	0x0
 2792 0018 02000000 		.4byte	.LBB5
 2793 001c 04000000 		.4byte	.LBE5
 2794 0020 06000000 		.4byte	.LBB6
 2795 0024 0A000000 		.4byte	.LBE6
 2796 0028 00000000 		.4byte	0x0
 2797 002c 00000000 		.4byte	0x0
 2798 0030 00000000 		.4byte	.LFB118
 2799 0034 04000000 		.4byte	.LFE118
 2800 0038 00000000 		.4byte	.LFB119
 2801 003c 0E000000 		.4byte	.LFE119
 2802 0040 00000000 		.4byte	.LFB120
 2803 0044 1C000000 		.4byte	.LFE120
 2804 0048 00000000 		.4byte	.LFB121
 2805 004c 1A000000 		.4byte	.LFE121
 2806 0050 00000000 		.4byte	.LFB122
 2807 0054 04000000 		.4byte	.LFE122
ARM GAS  C:\Users\DNIEL~1\AppData\Local\Temp\cc3u0bjF.s 			page 52


 2808 0058 00000000 		.4byte	.LFB123
 2809 005c 42000000 		.4byte	.LFE123
 2810 0060 00000000 		.4byte	.LFB124
 2811 0064 3A000000 		.4byte	.LFE124
 2812 0068 00000000 		.4byte	.LFB125
 2813 006c 06000000 		.4byte	.LFE125
 2814 0070 00000000 		.4byte	.LFB126
 2815 0074 04000000 		.4byte	.LFE126
 2816 0078 00000000 		.4byte	0x0
 2817 007c 00000000 		.4byte	0x0
 2818              		.section	.debug_str,"MS",%progbits,1
 2819              	.LASF95:
 2820 0000 5354445F 		.ascii	"STD_DUTY_CYCLE\000"
 2820      44555459 
 2820      5F435943 
 2820      4C4500
 2821              	.LASF112:
 2822 000f 646D6172 		.ascii	"dmarx\000"
 2822      7800
 2823              	.LASF98:
 2824 0015 69326364 		.ascii	"i2cdutycycle_t\000"
 2824      75747963 
 2824      79636C65 
 2824      5F7400
 2825              	.LASF88:
 2826 0024 69326373 		.ascii	"i2cstate_t\000"
 2826      74617465 
 2826      5F7400
 2827              	.LASF58:
 2828 002f 4D304152 		.ascii	"M0AR\000"
 2828      00
 2829              	.LASF2:
 2830 0034 73697A65 		.ascii	"size_t\000"
 2830      5F7400
 2831              	.LASF52:
 2832 003b 7264796D 		.ascii	"rdymsg\000"
 2832      736700
 2833              	.LASF71:
 2834 0042 54524953 		.ascii	"TRISE\000"
 2834      4500
 2835              	.LASF76:
 2836 0048 73747265 		.ascii	"stream\000"
 2836      616D00
 2837              	.LASF13:
 2838 004f 6C6F6E67 		.ascii	"long long unsigned int\000"
 2838      206C6F6E 
 2838      6720756E 
 2838      7369676E 
 2838      65642069 
 2839              	.LASF109:
 2840 0066 61646472 		.ascii	"addr\000"
 2840      00
 2841              	.LASF115:
 2842 006b 69326353 		.ascii	"i2cStart\000"
 2842      74617274 
 2842      00
 2843              	.LASF53:
ARM GAS  C:\Users\DNIEL~1\AppData\Local\Temp\cc3u0bjF.s 			page 53


 2844 0074 65786974 		.ascii	"exitcode\000"
 2844      636F6465 
 2844      00
 2845              	.LASF80:
 2846 007d 76656374 		.ascii	"vector\000"
 2846      6F7200
 2847              	.LASF127:
 2848 0084 69326352 		.ascii	"i2cReleaseBus\000"
 2848      656C6561 
 2848      73654275 
 2848      7300
 2849              	.LASF128:
 2850 0092 49544D5F 		.ascii	"ITM_RxBuffer\000"
 2850      52784275 
 2850      66666572 
 2850      00
 2851              	.LASF116:
 2852 009f 69326370 		.ascii	"i2cp\000"
 2852      00
 2853              	.LASF49:
 2854 00a4 6D5F7175 		.ascii	"m_queue\000"
 2854      65756500 
 2855              	.LASF26:
 2856 00ac 705F7072 		.ascii	"p_prio\000"
 2856      696F00
 2857              	.LASF119:
 2858 00b3 6932634D 		.ascii	"i2cMasterTransmitTimeout\000"
 2858      61737465 
 2858      72547261 
 2858      6E736D69 
 2858      7454696D 
 2859              	.LASF12:
 2860 00cc 6C6F6E67 		.ascii	"long long int\000"
 2860      206C6F6E 
 2860      6720696E 
 2860      7400
 2861              	.LASF1:
 2862 00da 7369676E 		.ascii	"signed char\000"
 2862      65642063 
 2862      68617200 
 2863              	.LASF100:
 2864 00e6 636C6F63 		.ascii	"clock_speed\000"
 2864      6B5F7370 
 2864      65656400 
 2865              	.LASF42:
 2866 00f2 705F6D70 		.ascii	"p_mpool\000"
 2866      6F6F6C00 
 2867              	.LASF122:
 2868 00fa 72786275 		.ascii	"rxbuf\000"
 2868      6600
 2869              	.LASF129:
 2870 0100 474E5520 		.ascii	"GNU C 4.5.2\000"
 2870      4320342E 
 2870      352E3200 
 2871              	.LASF18:
 2872 010c 74736C69 		.ascii	"tslices_t\000"
 2872      6365735F 
ARM GAS  C:\Users\DNIEL~1\AppData\Local\Temp\cc3u0bjF.s 			page 54


 2872      7400
 2873              	.LASF89:
 2874 0116 69326361 		.ascii	"i2caddr_t\000"
 2874      6464725F 
 2874      7400
 2875              	.LASF104:
 2876 0120 73746174 		.ascii	"state\000"
 2876      6500
 2877              	.LASF9:
 2878 0126 6C6F6E67 		.ascii	"long int\000"
 2878      20696E74 
 2878      00
 2879              	.LASF16:
 2880 012f 74737461 		.ascii	"tstate_t\000"
 2880      74655F74 
 2880      00
 2881              	.LASF108:
 2882 0138 74687265 		.ascii	"thread\000"
 2882      616400
 2883              	.LASF33:
 2884 013f 705F7265 		.ascii	"p_refs\000"
 2884      667300
 2885              	.LASF102:
 2886 0146 49324343 		.ascii	"I2CConfig\000"
 2886      6F6E6669 
 2886      6700
 2887              	.LASF35:
 2888 0150 705F7469 		.ascii	"p_time\000"
 2888      6D6500
 2889              	.LASF73:
 2890 0157 464C5452 		.ascii	"FLTR\000"
 2890      00
 2891              	.LASF28:
 2892 015c 705F6E65 		.ascii	"p_newer\000"
 2892      77657200 
 2893              	.LASF110:
 2894 0164 7278646D 		.ascii	"rxdmamode\000"
 2894      616D6F64 
 2894      6500
 2895              	.LASF113:
 2896 016e 646D6174 		.ascii	"dmatx\000"
 2896      7800
 2897              	.LASF93:
 2898 0174 4F504D4F 		.ascii	"OPMODE_SMBUS_HOST\000"
 2898      44455F53 
 2898      4D425553 
 2898      5F484F53 
 2898      5400
 2899              	.LASF45:
 2900 0186 72656761 		.ascii	"regarm_t\000"
 2900      726D5F74 
 2900      00
 2901              	.LASF79:
 2902 018f 73656C66 		.ascii	"selfindex\000"
 2902      696E6465 
 2902      7800
 2903              	.LASF99:
ARM GAS  C:\Users\DNIEL~1\AppData\Local\Temp\cc3u0bjF.s 			page 55


 2904 0199 6F705F6D 		.ascii	"op_mode\000"
 2904      6F646500 
 2905              	.LASF0:
 2906 01a1 756E7369 		.ascii	"unsigned int\000"
 2906      676E6564 
 2906      20696E74 
 2906      00
 2907              	.LASF120:
 2908 01ae 74786275 		.ascii	"txbuf\000"
 2908      6600
 2909              	.LASF106:
 2910 01b4 6572726F 		.ascii	"errors\000"
 2910      727300
 2911              	.LASF37:
 2912 01bb 705F6D73 		.ascii	"p_msgqueue\000"
 2912      67717565 
 2912      756500
 2913              	.LASF124:
 2914 01c6 74696D65 		.ascii	"timeout\000"
 2914      6F757400 
 2915              	.LASF78:
 2916 01ce 69736869 		.ascii	"ishift\000"
 2916      667400
 2917              	.LASF92:
 2918 01d5 4F504D4F 		.ascii	"OPMODE_SMBUS_DEVICE\000"
 2918      44455F53 
 2918      4D425553 
 2918      5F444556 
 2918      49434500 
 2919              	.LASF7:
 2920 01e9 73686F72 		.ascii	"short unsigned int\000"
 2920      7420756E 
 2920      7369676E 
 2920      65642069 
 2920      6E7400
 2921              	.LASF103:
 2922 01fc 49324344 		.ascii	"I2CDriver\000"
 2922      72697665 
 2922      7200
 2923              	.LASF20:
 2924 0206 6D73675F 		.ascii	"msg_t\000"
 2924      7400
 2925              	.LASF15:
 2926 020c 746D6F64 		.ascii	"tmode_t\000"
 2926      655F7400 
 2927              	.LASF6:
 2928 0214 75696E74 		.ascii	"uint16_t\000"
 2928      31365F74 
 2928      00
 2929              	.LASF44:
 2930 021d 54687265 		.ascii	"ThreadsList\000"
 2930      6164734C 
 2930      69737400 
 2931              	.LASF21:
 2932 0229 6576656E 		.ascii	"eventmask_t\000"
 2932      746D6173 
 2932      6B5F7400 
ARM GAS  C:\Users\DNIEL~1\AppData\Local\Temp\cc3u0bjF.s 			page 56


 2933              	.LASF5:
 2934 0235 73686F72 		.ascii	"short int\000"
 2934      7420696E 
 2934      7400
 2935              	.LASF83:
 2936 023f 4932435F 		.ascii	"I2C_STOP\000"
 2936      53544F50 
 2936      00
 2937              	.LASF48:
 2938 0248 4D757465 		.ascii	"Mutex\000"
 2938      7800
 2939              	.LASF101:
 2940 024e 64757479 		.ascii	"duty_cycle\000"
 2940      5F637963 
 2940      6C6500
 2941              	.LASF29:
 2942 0259 705F6F6C 		.ascii	"p_older\000"
 2942      64657200 
 2943              	.LASF123:
 2944 0261 72786279 		.ascii	"rxbytes\000"
 2944      74657300 
 2945              	.LASF117:
 2946 0269 69326353 		.ascii	"i2cStop\000"
 2946      746F7000 
 2947              	.LASF43:
 2948 0271 54687265 		.ascii	"ThreadsQueue\000"
 2948      61647351 
 2948      75657565 
 2948      00
 2949              	.LASF111:
 2950 027e 7478646D 		.ascii	"txdmamode\000"
 2950      616D6F64 
 2950      6500
 2951              	.LASF91:
 2952 0288 4F504D4F 		.ascii	"OPMODE_I2C\000"
 2952      44455F49 
 2952      324300
 2953              	.LASF97:
 2954 0293 46415354 		.ascii	"FAST_DUTY_CYCLE_16_9\000"
 2954      5F445554 
 2954      595F4359 
 2954      434C455F 
 2954      31365F39 
 2955              	.LASF17:
 2956 02a8 74726566 		.ascii	"trefs_t\000"
 2956      735F7400 
 2957              	.LASF61:
 2958 02b0 52455345 		.ascii	"RESERVED0\000"
 2958      52564544 
 2958      3000
 2959              	.LASF62:
 2960 02ba 52455345 		.ascii	"RESERVED1\000"
 2960      52564544 
 2960      3100
 2961              	.LASF64:
 2962 02c4 52455345 		.ascii	"RESERVED2\000"
 2962      52564544 
ARM GAS  C:\Users\DNIEL~1\AppData\Local\Temp\cc3u0bjF.s 			page 57


 2962      3200
 2963              	.LASF66:
 2964 02ce 52455345 		.ascii	"RESERVED3\000"
 2964      52564544 
 2964      3300
 2965              	.LASF67:
 2966 02d8 52455345 		.ascii	"RESERVED4\000"
 2966      52564544 
 2966      3400
 2967              	.LASF25:
 2968 02e2 705F7072 		.ascii	"p_prev\000"
 2968      657600
 2969              	.LASF69:
 2970 02e9 52455345 		.ascii	"RESERVED6\000"
 2970      52564544 
 2970      3600
 2971              	.LASF70:
 2972 02f3 52455345 		.ascii	"RESERVED7\000"
 2972      52564544 
 2972      3700
 2973              	.LASF72:
 2974 02fd 52455345 		.ascii	"RESERVED8\000"
 2974      52564544 
 2974      3800
 2975              	.LASF19:
 2976 0307 74707269 		.ascii	"tprio_t\000"
 2976      6F5F7400 
 2977              	.LASF85:
 2978 030f 4932435F 		.ascii	"I2C_ACTIVE_TX\000"
 2978      41435449 
 2978      56455F54 
 2978      5800
 2979              	.LASF90:
 2980 031d 69326366 		.ascii	"i2cflags_t\000"
 2980      6C616773 
 2980      5F7400
 2981              	.LASF107:
 2982 0328 6D757465 		.ascii	"mutex\000"
 2982      7800
 2983              	.LASF14:
 2984 032e 5F426F6F 		.ascii	"_Bool\000"
 2984      6C00
 2985              	.LASF8:
 2986 0334 696E7433 		.ascii	"int32_t\000"
 2986      325F7400 
 2987              	.LASF4:
 2988 033c 756E7369 		.ascii	"unsigned char\000"
 2988      676E6564 
 2988      20636861 
 2988      7200
 2989              	.LASF81:
 2990 034a 73746D33 		.ascii	"stm32_dma_stream_t\000"
 2990      325F646D 
 2990      615F7374 
 2990      7265616D 
 2990      5F7400
 2991              	.LASF131:
ARM GAS  C:\Users\DNIEL~1\AppData\Local\Temp\cc3u0bjF.s 			page 58


 2992 035d 433A5C44 		.ascii	"C:\\Dani\\MegaLux\\Repo\\Smarty\\Smarty\\smarty\\fi"
 2992      616E695C 
 2992      4D656761 
 2992      4C75785C 
 2992      5265706F 
 2993 0389 726D7761 		.ascii	"rmware\000"
 2993      726500
 2994              	.LASF40:
 2995 0390 705F6D74 		.ascii	"p_mtxlist\000"
 2995      786C6973 
 2995      7400
 2996              	.LASF82:
 2997 039a 4932435F 		.ascii	"I2C_UNINIT\000"
 2997      554E494E 
 2997      495400
 2998              	.LASF31:
 2999 03a5 705F7374 		.ascii	"p_state\000"
 2999      61746500 
 3000              	.LASF34:
 3001 03ad 705F7072 		.ascii	"p_preempt\000"
 3001      65656D70 
 3001      7400
 3002              	.LASF118:
 3003 03b7 69326347 		.ascii	"i2cGetErrors\000"
 3003      65744572 
 3003      726F7273 
 3003      00
 3004              	.LASF55:
 3005 03c4 65776D61 		.ascii	"ewmask\000"
 3005      736B00
 3006              	.LASF24:
 3007 03cb 705F6E65 		.ascii	"p_next\000"
 3007      787400
 3008              	.LASF32:
 3009 03d2 705F666C 		.ascii	"p_flags\000"
 3009      61677300 
 3010              	.LASF130:
 3011 03da 2E2E2F2E 		.ascii	"../../../ChibiOS/os/hal/src/i2c.c\000"
 3011      2E2F2E2E 
 3011      2F436869 
 3011      62694F53 
 3011      2F6F732F 
 3012              	.LASF96:
 3013 03fc 46415354 		.ascii	"FAST_DUTY_CYCLE_2\000"
 3013      5F445554 
 3013      595F4359 
 3013      434C455F 
 3013      3200
 3014              	.LASF23:
 3015 040e 54687265 		.ascii	"Thread\000"
 3015      616400
 3016              	.LASF87:
 3017 0415 4932435F 		.ascii	"I2C_LOCKED\000"
 3017      4C4F434B 
 3017      454400
 3018              	.LASF39:
 3019 0420 705F6570 		.ascii	"p_epending\000"
ARM GAS  C:\Users\DNIEL~1\AppData\Local\Temp\cc3u0bjF.s 			page 59


 3019      656E6469 
 3019      6E6700
 3020              	.LASF77:
 3021 042b 69666372 		.ascii	"ifcr\000"
 3021      00
 3022              	.LASF68:
 3023 0430 52455345 		.ascii	"RESERVED5\000"
 3023      52564544 
 3023      3500
 3024              	.LASF10:
 3025 043a 75696E74 		.ascii	"uint32_t\000"
 3025      33325F74 
 3025      00
 3026              	.LASF74:
 3027 0443 52455345 		.ascii	"RESERVED9\000"
 3027      52564544 
 3027      3900
 3028              	.LASF86:
 3029 044d 4932435F 		.ascii	"I2C_ACTIVE_RX\000"
 3029      41435449 
 3029      56455F52 
 3029      5800
 3030              	.LASF11:
 3031 045b 6C6F6E67 		.ascii	"long unsigned int\000"
 3031      20756E73 
 3031      69676E65 
 3031      6420696E 
 3031      7400
 3032              	.LASF56:
 3033 046d 63686172 		.ascii	"char\000"
 3033      00
 3034              	.LASF105:
 3035 0472 636F6E66 		.ascii	"config\000"
 3035      696700
 3036              	.LASF51:
 3037 0479 6D5F6E65 		.ascii	"m_next\000"
 3037      787400
 3038              	.LASF22:
 3039 0480 73797374 		.ascii	"systime_t\000"
 3039      696D655F 
 3039      7400
 3040              	.LASF41:
 3041 048a 705F7265 		.ascii	"p_realprio\000"
 3041      616C7072 
 3041      696F00
 3042              	.LASF57:
 3043 0495 4E445452 		.ascii	"NDTR\000"
 3043      00
 3044              	.LASF84:
 3045 049a 4932435F 		.ascii	"I2C_READY\000"
 3045      52454144 
 3045      5900
 3046              	.LASF60:
 3047 04a4 444D415F 		.ascii	"DMA_Stream_TypeDef\000"
 3047      53747265 
 3047      616D5F54 
 3047      79706544 
ARM GAS  C:\Users\DNIEL~1\AppData\Local\Temp\cc3u0bjF.s 			page 60


 3047      656600
 3048              	.LASF47:
 3049 04b7 636F6E74 		.ascii	"context\000"
 3049      65787400 
 3050              	.LASF46:
 3051 04bf 696E7463 		.ascii	"intctx\000"
 3051      747800
 3052              	.LASF59:
 3053 04c6 4D314152 		.ascii	"M1AR\000"
 3053      00
 3054              	.LASF126:
 3055 04cb 69326341 		.ascii	"i2cAcquireBus\000"
 3055      63717569 
 3055      72654275 
 3055      7300
 3056              	.LASF3:
 3057 04d9 75696E74 		.ascii	"uint8_t\000"
 3057      385F7400 
 3058              	.LASF63:
 3059 04e1 4F415231 		.ascii	"OAR1\000"
 3059      00
 3060              	.LASF65:
 3061 04e6 4F415232 		.ascii	"OAR2\000"
 3061      00
 3062              	.LASF125:
 3063 04eb 6932634D 		.ascii	"i2cMasterReceiveTimeout\000"
 3063      61737465 
 3063      72526563 
 3063      65697665 
 3063      54696D65 
 3064              	.LASF54:
 3065 0503 77746F62 		.ascii	"wtobjp\000"
 3065      6A7000
 3066              	.LASF30:
 3067 050a 705F6E61 		.ascii	"p_name\000"
 3067      6D6500
 3068              	.LASF132:
 3069 0511 69326349 		.ascii	"i2cInit\000"
 3069      6E697400 
 3070              	.LASF38:
 3071 0519 705F6D73 		.ascii	"p_msg\000"
 3071      6700
 3072              	.LASF75:
 3073 051f 4932435F 		.ascii	"I2C_TypeDef\000"
 3073      54797065 
 3073      44656600 
 3074              	.LASF94:
 3075 052b 6932636F 		.ascii	"i2copmode_t\000"
 3075      706D6F64 
 3075      655F7400 
 3076              	.LASF114:
 3077 0537 6932634F 		.ascii	"i2cObjectInit\000"
 3077      626A6563 
 3077      74496E69 
 3077      7400
 3078              	.LASF50:
 3079 0545 6D5F6F77 		.ascii	"m_owner\000"
ARM GAS  C:\Users\DNIEL~1\AppData\Local\Temp\cc3u0bjF.s 			page 61


 3079      6E657200 
 3080              	.LASF27:
 3081 054d 705F6374 		.ascii	"p_ctx\000"
 3081      7800
 3082              	.LASF36:
 3083 0553 705F7761 		.ascii	"p_waiting\000"
 3083      6974696E 
 3083      6700
 3084              	.LASF121:
 3085 055d 74786279 		.ascii	"txbytes\000"
 3085      74657300 
 3086              		.ident	"GCC: (Sourcery G++ Lite 2011.03-42) 4.5.2"
ARM GAS  C:\Users\DNIEL~1\AppData\Local\Temp\cc3u0bjF.s 			page 62


DEFINED SYMBOLS
                            *ABS*:00000000 i2c.c
C:\Users\DNIEL~1\AppData\Local\Temp\cc3u0bjF.s:24     .text.i2cInit:00000000 $t
C:\Users\DNIEL~1\AppData\Local\Temp\cc3u0bjF.s:30     .text.i2cInit:00000000 i2cInit
C:\Users\DNIEL~1\AppData\Local\Temp\cc3u0bjF.s:45     .text.i2cObjectInit:00000000 $t
C:\Users\DNIEL~1\AppData\Local\Temp\cc3u0bjF.s:51     .text.i2cObjectInit:00000000 i2cObjectInit
C:\Users\DNIEL~1\AppData\Local\Temp\cc3u0bjF.s:77     .text.i2cStart:00000000 $t
C:\Users\DNIEL~1\AppData\Local\Temp\cc3u0bjF.s:83     .text.i2cStart:00000000 i2cStart
C:\Users\DNIEL~1\AppData\Local\Temp\cc3u0bjF.s:134    .text.i2cStop:00000000 $t
C:\Users\DNIEL~1\AppData\Local\Temp\cc3u0bjF.s:140    .text.i2cStop:00000000 i2cStop
C:\Users\DNIEL~1\AppData\Local\Temp\cc3u0bjF.s:189    .text.i2cGetErrors:00000000 $t
C:\Users\DNIEL~1\AppData\Local\Temp\cc3u0bjF.s:195    .text.i2cGetErrors:00000000 i2cGetErrors
C:\Users\DNIEL~1\AppData\Local\Temp\cc3u0bjF.s:211    .text.i2cMasterTransmitTimeout:00000000 $t
C:\Users\DNIEL~1\AppData\Local\Temp\cc3u0bjF.s:217    .text.i2cMasterTransmitTimeout:00000000 i2cMasterTransmitTimeout
C:\Users\DNIEL~1\AppData\Local\Temp\cc3u0bjF.s:294    .text.i2cMasterReceiveTimeout:00000000 $t
C:\Users\DNIEL~1\AppData\Local\Temp\cc3u0bjF.s:300    .text.i2cMasterReceiveTimeout:00000000 i2cMasterReceiveTimeout
C:\Users\DNIEL~1\AppData\Local\Temp\cc3u0bjF.s:373    .text.i2cAcquireBus:00000000 $t
C:\Users\DNIEL~1\AppData\Local\Temp\cc3u0bjF.s:379    .text.i2cAcquireBus:00000000 i2cAcquireBus
C:\Users\DNIEL~1\AppData\Local\Temp\cc3u0bjF.s:397    .text.i2cReleaseBus:00000000 $t
C:\Users\DNIEL~1\AppData\Local\Temp\cc3u0bjF.s:403    .text.i2cReleaseBus:00000000 i2cReleaseBus
                     .debug_frame:00000010 $d

UNDEFINED SYMBOLS
i2c_lld_init
chMtxInit
i2c_lld_start
i2c_lld_stop
i2c_lld_master_transmit_timeout
i2c_lld_master_receive_timeout
chMtxLock
chMtxUnlock
