ARM GAS  C:\Users\danit\AppData\Local\Temp\ccuPYNwZ.s 			page 1


   1              		.syntax unified
   2              		.cpu cortex-m4
   3              		.fpu softvfp
   4              		.eabi_attribute 20, 1
   5              		.eabi_attribute 21, 1
   6              		.eabi_attribute 23, 3
   7              		.eabi_attribute 24, 1
   8              		.eabi_attribute 25, 1
   9              		.eabi_attribute 26, 1
  10              		.eabi_attribute 30, 2
  11              		.eabi_attribute 34, 1
  12              		.eabi_attribute 18, 4
  13              		.thumb
  14              		.file	"icu.c"
  15              		.text
  16              	.Ltext0:
  17              		.cfi_sections	.debug_frame
  18              		.section	.text.icuInit,"ax",%progbits
  19              		.align	2
  20              		.p2align 4,,15
  21              		.global	icuInit
  22              		.thumb
  23              		.thumb_func
  24              		.type	icuInit, %function
  25              	icuInit:
  26              	.LFB118:
  27              		.file 1 "../../../ChibiOS/os/hal/src/icu.c"
  28              		.loc 1 68 0
  29              		.cfi_startproc
  30              		@ args = 0, pretend = 0, frame = 0
  31              		@ frame_needed = 0, uses_anonymous_args = 0
  32              		@ link register save eliminated.
  33              		.loc 1 70 0
  34 0000 FFF7FEBF 		b	icu_lld_init
  35              	.LVL0:
  36              		.cfi_endproc
  37              	.LFE118:
  38              		.size	icuInit, .-icuInit
  39              		.section	.text.icuObjectInit,"ax",%progbits
  40              		.align	2
  41              		.p2align 4,,15
  42              		.global	icuObjectInit
  43              		.thumb
  44              		.thumb_func
  45              		.type	icuObjectInit, %function
  46              	icuObjectInit:
  47              	.LFB119:
  48              		.loc 1 80 0
  49              		.cfi_startproc
  50              		@ args = 0, pretend = 0, frame = 0
  51              		@ frame_needed = 0, uses_anonymous_args = 0
  52              		@ link register save eliminated.
  53              	.LVL1:
  54              		.loc 1 82 0
  55 0000 0122     		movs	r2, #1
  56              		.loc 1 83 0
  57 0002 0023     		movs	r3, #0
ARM GAS  C:\Users\danit\AppData\Local\Temp\ccuPYNwZ.s 			page 2


  58              		.loc 1 82 0
  59 0004 0270     		strb	r2, [r0]
  60              		.loc 1 83 0
  61 0006 4360     		str	r3, [r0, #4]
  62 0008 7047     		bx	lr
  63              		.cfi_endproc
  64              	.LFE119:
  65              		.size	icuObjectInit, .-icuObjectInit
  66 000a 00BF     		.section	.text.icuStart,"ax",%progbits
  67              		.align	2
  68              		.p2align 4,,15
  69              		.global	icuStart
  70              		.thumb
  71              		.thumb_func
  72              		.type	icuStart, %function
  73              	icuStart:
  74              	.LFB120:
  75              		.loc 1 94 0
  76              		.cfi_startproc
  77              		@ args = 0, pretend = 0, frame = 0
  78              		@ frame_needed = 0, uses_anonymous_args = 0
  79              	.LVL2:
  80 0000 10B5     		push	{r4, lr}
  81              		.cfi_def_cfa_offset 8
  82              		.cfi_offset 4, -8
  83              		.cfi_offset 14, -4
  84              	.LBB2:
  85              		.loc 1 98 0
  86 0002 2023     		movs	r3, #32
  87              	.LBE2:
  88              		.loc 1 94 0
  89 0004 0446     		mov	r4, r0
  90              	.LBB3:
  91              		.loc 1 98 0
  92              	@ 98 "../../../ChibiOS/os/hal/src/icu.c" 1
  93 0006 83F31188 		msr     BASEPRI, r3
  94              	@ 0 "" 2
  95              		.thumb
  96              	.LBE3:
  97              		.loc 1 101 0
  98 000a 4160     		str	r1, [r0, #4]
  99              		.loc 1 102 0
 100 000c FFF7FEFF 		bl	icu_lld_start
 101              	.LVL3:
 102              		.loc 1 103 0
 103 0010 0223     		movs	r3, #2
 104 0012 2370     		strb	r3, [r4]
 105              	.LBB4:
 106              		.loc 1 104 0
 107 0014 0023     		movs	r3, #0
 108              	@ 104 "../../../ChibiOS/os/hal/src/icu.c" 1
 109 0016 83F31188 		msr     BASEPRI, r3
 110              	@ 0 "" 2
 111              		.thumb
 112 001a 10BD     		pop	{r4, pc}
 113              	.LBE4:
 114              		.cfi_endproc
ARM GAS  C:\Users\danit\AppData\Local\Temp\ccuPYNwZ.s 			page 3


 115              	.LFE120:
 116              		.size	icuStart, .-icuStart
 117              		.section	.text.icuStop,"ax",%progbits
 118              		.align	2
 119              		.p2align 4,,15
 120              		.global	icuStop
 121              		.thumb
 122              		.thumb_func
 123              		.type	icuStop, %function
 124              	icuStop:
 125              	.LFB121:
 126              		.loc 1 114 0
 127              		.cfi_startproc
 128              		@ args = 0, pretend = 0, frame = 0
 129              		@ frame_needed = 0, uses_anonymous_args = 0
 130              	.LVL4:
 131 0000 10B5     		push	{r4, lr}
 132              		.cfi_def_cfa_offset 8
 133              		.cfi_offset 4, -8
 134              		.cfi_offset 14, -4
 135              	.LBB5:
 136              		.loc 1 118 0
 137 0002 2023     		movs	r3, #32
 138              	.LBE5:
 139              		.loc 1 114 0
 140 0004 0446     		mov	r4, r0
 141              	.LBB6:
 142              		.loc 1 118 0
 143              	@ 118 "../../../ChibiOS/os/hal/src/icu.c" 1
 144 0006 83F31188 		msr     BASEPRI, r3
 145              	@ 0 "" 2
 146              		.thumb
 147              	.LBE6:
 148              		.loc 1 121 0
 149 000a FFF7FEFF 		bl	icu_lld_stop
 150              	.LVL5:
 151              		.loc 1 122 0
 152 000e 0123     		movs	r3, #1
 153 0010 2370     		strb	r3, [r4]
 154              	.LBB7:
 155              		.loc 1 123 0
 156 0012 0023     		movs	r3, #0
 157              	@ 123 "../../../ChibiOS/os/hal/src/icu.c" 1
 158 0014 83F31188 		msr     BASEPRI, r3
 159              	@ 0 "" 2
 160              		.thumb
 161 0018 10BD     		pop	{r4, pc}
 162              	.LBE7:
 163              		.cfi_endproc
 164              	.LFE121:
 165              		.size	icuStop, .-icuStop
 166 001a 00BF     		.section	.text.icuEnable,"ax",%progbits
 167              		.align	2
 168              		.p2align 4,,15
 169              		.global	icuEnable
 170              		.thumb
 171              		.thumb_func
ARM GAS  C:\Users\danit\AppData\Local\Temp\ccuPYNwZ.s 			page 4


 172              		.type	icuEnable, %function
 173              	icuEnable:
 174              	.LFB122:
 175              		.loc 1 133 0
 176              		.cfi_startproc
 177              		@ args = 0, pretend = 0, frame = 0
 178              		@ frame_needed = 0, uses_anonymous_args = 0
 179              	.LVL6:
 180 0000 10B5     		push	{r4, lr}
 181              		.cfi_def_cfa_offset 8
 182              		.cfi_offset 4, -8
 183              		.cfi_offset 14, -4
 184              	.LBB8:
 185              		.loc 1 137 0
 186 0002 2023     		movs	r3, #32
 187              	.LBE8:
 188              		.loc 1 133 0
 189 0004 0446     		mov	r4, r0
 190              	.LBB9:
 191              		.loc 1 137 0
 192              	@ 137 "../../../ChibiOS/os/hal/src/icu.c" 1
 193 0006 83F31188 		msr     BASEPRI, r3
 194              	@ 0 "" 2
 195              		.thumb
 196              	.LBE9:
 197              		.loc 1 139 0
 198 000a FFF7FEFF 		bl	icu_lld_enable
 199              	.LVL7:
 200              		.loc 1 140 0
 201 000e 0323     		movs	r3, #3
 202 0010 2370     		strb	r3, [r4]
 203              	.LBB10:
 204              		.loc 1 141 0
 205 0012 0023     		movs	r3, #0
 206              	@ 141 "../../../ChibiOS/os/hal/src/icu.c" 1
 207 0014 83F31188 		msr     BASEPRI, r3
 208              	@ 0 "" 2
 209              		.thumb
 210 0018 10BD     		pop	{r4, pc}
 211              	.LBE10:
 212              		.cfi_endproc
 213              	.LFE122:
 214              		.size	icuEnable, .-icuEnable
 215 001a 00BF     		.section	.text.icuDisable,"ax",%progbits
 216              		.align	2
 217              		.p2align 4,,15
 218              		.global	icuDisable
 219              		.thumb
 220              		.thumb_func
 221              		.type	icuDisable, %function
 222              	icuDisable:
 223              	.LFB123:
 224              		.loc 1 151 0
 225              		.cfi_startproc
 226              		@ args = 0, pretend = 0, frame = 0
 227              		@ frame_needed = 0, uses_anonymous_args = 0
 228              	.LVL8:
ARM GAS  C:\Users\danit\AppData\Local\Temp\ccuPYNwZ.s 			page 5


 229 0000 10B5     		push	{r4, lr}
 230              		.cfi_def_cfa_offset 8
 231              		.cfi_offset 4, -8
 232              		.cfi_offset 14, -4
 233              	.LBB11:
 234              		.loc 1 155 0
 235 0002 2023     		movs	r3, #32
 236              	.LBE11:
 237              		.loc 1 151 0
 238 0004 0446     		mov	r4, r0
 239              	.LBB12:
 240              		.loc 1 155 0
 241              	@ 155 "../../../ChibiOS/os/hal/src/icu.c" 1
 242 0006 83F31188 		msr     BASEPRI, r3
 243              	@ 0 "" 2
 244              		.thumb
 245              	.LBE12:
 246              		.loc 1 159 0
 247 000a FFF7FEFF 		bl	icu_lld_disable
 248              	.LVL9:
 249              		.loc 1 160 0
 250 000e 0223     		movs	r3, #2
 251 0010 2370     		strb	r3, [r4]
 252              	.LBB13:
 253              		.loc 1 161 0
 254 0012 0023     		movs	r3, #0
 255              	@ 161 "../../../ChibiOS/os/hal/src/icu.c" 1
 256 0014 83F31188 		msr     BASEPRI, r3
 257              	@ 0 "" 2
 258              		.thumb
 259 0018 10BD     		pop	{r4, pc}
 260              	.LBE13:
 261              		.cfi_endproc
 262              	.LFE123:
 263              		.size	icuDisable, .-icuDisable
 264 001a 00BF     		.text
 265              	.Letext0:
 266              		.file 2 "c:\\program files (x86)\\gnu tools arm embedded\\4.9 2015q2\\arm-none-eabi\\include\\mach
 267              		.file 3 "c:\\program files (x86)\\gnu tools arm embedded\\4.9 2015q2\\arm-none-eabi\\include\\sys\
 268              		.file 4 "../../../ChibiOS/os/hal/platforms/STM32/TIMv1/stm32_tim.h"
 269              		.file 5 "../../../ChibiOS/os/hal/include/icu.h"
 270              		.file 6 "../../../ChibiOS/os/hal/platforms/STM32/TIMv1/icu_lld.h"
 271              		.file 7 "../../../ChibiOS/os/ports/common/ARMCMx/CMSIS/include/core_cm4.h"