ARM GAS  C:\Users\danit\AppData\Local\Temp\ccj3s8Ie.s 			page 1


   1              		.syntax unified
   2              		.cpu cortex-m4
   3              		.fpu softvfp
   4              		.eabi_attribute 20, 1
   5              		.eabi_attribute 21, 1
   6              		.eabi_attribute 23, 3
   7              		.eabi_attribute 24, 1
   8              		.eabi_attribute 25, 1
   9              		.eabi_attribute 26, 1
  10              		.eabi_attribute 30, 2
  11              		.eabi_attribute 34, 1
  12              		.eabi_attribute 18, 4
  13              		.thumb
  14              		.file	"icu_lld.c"
  15              		.text
  16              	.Ltext0:
  17              		.cfi_sections	.debug_frame
  18              		.section	.text.icu_lld_serve_interrupt.constprop.0,"ax",%progbits
  19              		.align	2
  20              		.p2align 4,,15
  21              		.thumb
  22              		.thumb_func
  23              		.type	icu_lld_serve_interrupt.constprop.0, %function
  24              	icu_lld_serve_interrupt.constprop.0:
  25              	.LFB126:
  26              		.file 1 "../../../ChibiOS/os/hal/platforms/STM32/TIMv1/icu_lld.c"
  27              		.loc 1 111 0
  28              		.cfi_startproc
  29              		@ args = 0, pretend = 0, frame = 0
  30              		@ frame_needed = 0, uses_anonymous_args = 0
  31              	.LVL0:
  32 0000 70B5     		push	{r4, r5, r6, lr}
  33              		.cfi_def_cfa_offset 16
  34              		.cfi_offset 4, -16
  35              		.cfi_offset 5, -12
  36              		.cfi_offset 6, -8
  37              		.cfi_offset 14, -4
  38              		.loc 1 114 0
  39 0002 224D     		ldr	r5, .L33
  40 0004 EB68     		ldr	r3, [r5, #12]
  41              		.loc 1 117 0
  42 0006 6968     		ldr	r1, [r5, #4]
  43              		.loc 1 114 0
  44 0008 1C69     		ldr	r4, [r3, #16]
  45              	.LVL1:
  46              		.loc 1 115 0
  47 000a DA68     		ldr	r2, [r3, #12]
  48              		.loc 1 117 0
  49 000c 087D     		ldrb	r0, [r1, #20]	@ zero_extendqisi2
  50              		.loc 1 115 0
  51 000e D2B2     		uxtb	r2, r2
  52 0010 1440     		ands	r4, r4, r2
  53              	.LVL2:
  54              		.loc 1 116 0
  55 0012 E243     		mvns	r2, r4
  56 0014 1A61     		str	r2, [r3, #16]
  57              		.loc 1 117 0
ARM GAS  C:\Users\danit\AppData\Local\Temp\ccj3s8Ie.s 			page 2


  58 0016 70B9     		cbnz	r0, .L2
  59              		.loc 1 118 0
  60 0018 A307     		lsls	r3, r4, #30
  61 001a 07D5     		bpl	.L3
  62              	.LBB4:
  63              		.loc 1 119 0
  64 001c 2B78     		ldrb	r3, [r5]	@ zero_extendqisi2
  65              	.LVL3:
  66 001e 0422     		movs	r2, #4
  67 0020 032B     		cmp	r3, #3
  68 0022 2A70     		strb	r2, [r5]
  69 0024 2FD0     		beq	.L4
  70 0026 CB68     		ldr	r3, [r1, #12]
  71              	.LVL4:
  72 0028 2846     		mov	r0, r5
  73 002a 9847     		blx	r3
  74              	.LVL5:
  75              	.L3:
  76              	.LBE4:
  77              		.loc 1 120 0
  78 002c 6607     		lsls	r6, r4, #29
  79 002e 1FD4     		bmi	.L31
  80              	.L6:
  81              		.loc 1 128 0
  82 0030 E207     		lsls	r2, r4, #31
  83 0032 17D4     		bmi	.L32
  84              	.L1:
  85 0034 70BD     		pop	{r4, r5, r6, pc}
  86              	.LVL6:
  87              	.L2:
  88              		.loc 1 123 0
  89 0036 A007     		lsls	r0, r4, #30
  90 0038 07D5     		bpl	.L8
  91              		.loc 1 124 0
  92 003a 2B78     		ldrb	r3, [r5]	@ zero_extendqisi2
  93 003c 032B     		cmp	r3, #3
  94 003e 04D0     		beq	.L8
  95 0040 0522     		movs	r2, #5
  96 0042 8B68     		ldr	r3, [r1, #8]
  97 0044 2A70     		strb	r2, [r5]
  98 0046 2846     		mov	r0, r5
  99 0048 9847     		blx	r3
 100              	.LVL7:
 101              	.L8:
 102              		.loc 1 125 0
 103 004a 6107     		lsls	r1, r4, #29
 104 004c F0D5     		bpl	.L6
 105              	.LBB5:
 106              		.loc 1 126 0
 107 004e 2B78     		ldrb	r3, [r5]	@ zero_extendqisi2
 108              	.LVL8:
 109 0050 0E48     		ldr	r0, .L33
 110 0052 0422     		movs	r2, #4
 111 0054 032B     		cmp	r3, #3
 112 0056 2A70     		strb	r2, [r5]
 113 0058 EAD0     		beq	.L6
 114 005a 4368     		ldr	r3, [r0, #4]
ARM GAS  C:\Users\danit\AppData\Local\Temp\ccj3s8Ie.s 			page 3


 115              	.LVL9:
 116 005c DB68     		ldr	r3, [r3, #12]
 117 005e 9847     		blx	r3
 118              	.LVL10:
 119              	.LBE5:
 120              		.loc 1 128 0
 121 0060 E207     		lsls	r2, r4, #31
 122 0062 E7D5     		bpl	.L1
 123              	.L32:
 124              		.loc 1 129 0
 125 0064 6B68     		ldr	r3, [r5, #4]
 126 0066 0948     		ldr	r0, .L33
 127 0068 1B69     		ldr	r3, [r3, #16]
 128              		.loc 1 130 0
 129 006a BDE87040 		pop	{r4, r5, r6, lr}
 130              		.cfi_remember_state
 131              		.cfi_restore 14
 132              		.cfi_restore 6
 133              		.cfi_restore 5
 134              		.cfi_restore 4
 135              		.cfi_def_cfa_offset 0
 136              	.LVL11:
 137              		.loc 1 129 0
 138 006e 1847     		bx	r3	@ indirect register sibling call
 139              	.LVL12:
 140              	.L31:
 141              		.cfi_restore_state
 142              		.loc 1 121 0
 143 0070 2B78     		ldrb	r3, [r5]	@ zero_extendqisi2
 144 0072 064A     		ldr	r2, .L33
 145 0074 032B     		cmp	r3, #3
 146 0076 DBD0     		beq	.L6
 147 0078 5168     		ldr	r1, [r2, #4]
 148              	.L10:
 149 007a 8B68     		ldr	r3, [r1, #8]
 150 007c 0348     		ldr	r0, .L33
 151 007e 0522     		movs	r2, #5
 152 0080 2A70     		strb	r2, [r5]
 153 0082 9847     		blx	r3
 154              	.LVL13:
 155 0084 D4E7     		b	.L6
 156              	.LVL14:
 157              	.L4:
 158              		.loc 1 120 0
 159 0086 6307     		lsls	r3, r4, #29
 160              	.LVL15:
 161 0088 F7D4     		bmi	.L10
 162 008a D1E7     		b	.L6
 163              	.L34:
 164              		.align	2
 165              	.L33:
 166 008c 00000000 		.word	.LANCHOR0
 167              		.cfi_endproc
 168              	.LFE126:
 169              		.size	icu_lld_serve_interrupt.constprop.0, .-icu_lld_serve_interrupt.constprop.0
 170              		.section	.text.VectorA4,"ax",%progbits
 171              		.align	2
ARM GAS  C:\Users\danit\AppData\Local\Temp\ccj3s8Ie.s 			page 4


 172              		.p2align 4,,15
 173              		.global	VectorA4
 174              		.thumb
 175              		.thumb_func
 176              		.type	VectorA4, %function
 177              	VectorA4:
 178              	.LFB119:
 179              		.loc 1 148 0
 180              		.cfi_startproc
 181              		@ args = 0, pretend = 0, frame = 0
 182              		@ frame_needed = 0, uses_anonymous_args = 0
 183 0000 08B5     		push	{r3, lr}
 184              		.cfi_def_cfa_offset 8
 185              		.cfi_offset 3, -8
 186              		.cfi_offset 14, -4
 187              		.loc 1 152 0
 188 0002 FFF7FEFF 		bl	icu_lld_serve_interrupt.constprop.0
 189              	.LVL16:
 190              		.loc 1 155 0
 191 0006 BDE80840 		pop	{r3, lr}
 192              		.cfi_restore 14
 193              		.cfi_restore 3
 194              		.cfi_def_cfa_offset 0
 195              		.loc 1 154 0
 196 000a FFF7FEBF 		b	_port_irq_epilogue
 197              	.LVL17:
 198              		.cfi_endproc
 199              	.LFE119:
 200              		.size	VectorA4, .-VectorA4
 201 000e 00BF     		.section	.text.VectorAC,"ax",%progbits
 202              		.align	2
 203              		.p2align 4,,15
 204              		.global	VectorAC
 205              		.thumb
 206              		.thumb_func
 207              		.type	VectorAC, %function
 208              	VectorAC:
 209              	.LFB120:
 210              		.loc 1 168 0
 211              		.cfi_startproc
 212              		@ args = 0, pretend = 0, frame = 0
 213              		@ frame_needed = 0, uses_anonymous_args = 0
 214 0000 08B5     		push	{r3, lr}
 215              		.cfi_def_cfa_offset 8
 216              		.cfi_offset 3, -8
 217              		.cfi_offset 14, -4
 218              		.loc 1 172 0
 219 0002 FFF7FEFF 		bl	icu_lld_serve_interrupt.constprop.0
 220              	.LVL18:
 221              		.loc 1 175 0
 222 0006 BDE80840 		pop	{r3, lr}
 223              		.cfi_restore 14
 224              		.cfi_restore 3
 225              		.cfi_def_cfa_offset 0
 226              		.loc 1 174 0
 227 000a FFF7FEBF 		b	_port_irq_epilogue
 228              	.LVL19:
ARM GAS  C:\Users\danit\AppData\Local\Temp\ccj3s8Ie.s 			page 5


 229              		.cfi_endproc
 230              	.LFE120:
 231              		.size	VectorAC, .-VectorAC
 232 000e 00BF     		.section	.text.icu_lld_init,"ax",%progbits
 233              		.align	2
 234              		.p2align 4,,15
 235              		.global	icu_lld_init
 236              		.thumb
 237              		.thumb_func
 238              		.type	icu_lld_init, %function
 239              	icu_lld_init:
 240              	.LFB121:
 241              		.loc 1 339 0
 242              		.cfi_startproc
 243              		@ args = 0, pretend = 0, frame = 0
 244              		@ frame_needed = 0, uses_anonymous_args = 0
 245 0000 10B5     		push	{r4, lr}
 246              		.cfi_def_cfa_offset 8
 247              		.cfi_offset 4, -8
 248              		.cfi_offset 14, -4
 249              		.loc 1 343 0
 250 0002 034C     		ldr	r4, .L41
 251 0004 2046     		mov	r0, r4
 252 0006 FFF7FEFF 		bl	icuObjectInit
 253              	.LVL20:
 254              		.loc 1 344 0
 255 000a 024B     		ldr	r3, .L41+4
 256 000c E360     		str	r3, [r4, #12]
 257 000e 10BD     		pop	{r4, pc}
 258              	.L42:
 259              		.align	2
 260              	.L41:
 261 0010 00000000 		.word	.LANCHOR0
 262 0014 00000140 		.word	1073807360
 263              		.cfi_endproc
 264              	.LFE121:
 265              		.size	icu_lld_init, .-icu_lld_init
 266              		.section	.text.icu_lld_start,"ax",%progbits
 267              		.align	2
 268              		.p2align 4,,15
 269              		.global	icu_lld_start
 270              		.thumb
 271              		.thumb_func
 272              		.type	icu_lld_start, %function
 273              	icu_lld_start:
 274              	.LFB122:
 275              		.loc 1 391 0
 276              		.cfi_startproc
 277              		@ args = 0, pretend = 0, frame = 0
 278              		@ frame_needed = 0, uses_anonymous_args = 0
 279              	.LVL21:
 280 0000 F8B5     		push	{r3, r4, r5, r6, r7, lr}
 281              		.cfi_def_cfa_offset 24
 282              		.cfi_offset 3, -24
 283              		.cfi_offset 4, -20
 284              		.cfi_offset 5, -16
 285              		.cfi_offset 6, -12
ARM GAS  C:\Users\danit\AppData\Local\Temp\ccj3s8Ie.s 			page 6


 286              		.cfi_offset 7, -8
 287              		.cfi_offset 14, -4
 288              		.loc 1 398 0
 289 0002 0378     		ldrb	r3, [r0]	@ zero_extendqisi2
 290 0004 012B     		cmp	r3, #1
 291              		.loc 1 391 0
 292 0006 0446     		mov	r4, r0
 293              		.loc 1 398 0
 294 0008 3BD0     		beq	.L55
 295              		.loc 1 478 0
 296 000a C368     		ldr	r3, [r0, #12]
 297 000c 0022     		movs	r2, #0
 298 000e 1A60     		str	r2, [r3]
 299              		.loc 1 479 0
 300 0010 5A63     		str	r2, [r3, #52]
 301              		.loc 1 480 0
 302 0012 9A63     		str	r2, [r3, #56]
 303              		.loc 1 481 0
 304 0014 5A62     		str	r2, [r3, #36]
 305              	.LVL22:
 306              	.L46:
 307              		.loc 1 486 0
 308 0016 6168     		ldr	r1, [r4, #4]
 309              		.loc 1 488 0
 310 0018 A268     		ldr	r2, [r4, #8]
 311              		.loc 1 486 0
 312 001a 8869     		ldr	r0, [r1, #24]
 313              		.loc 1 488 0
 314 001c 4E68     		ldr	r6, [r1, #4]
 315              		.loc 1 495 0
 316 001e 0D7D     		ldrb	r5, [r1, #20]	@ zero_extendqisi2
 317              		.loc 1 488 0
 318 0020 B2FBF6F2 		udiv	r2, r2, r6
 319 0024 013A     		subs	r2, r2, #1
 320              		.loc 1 492 0
 321 0026 92B2     		uxth	r2, r2
 322              		.loc 1 486 0
 323 0028 20F0FF00 		bic	r0, r0, #255
 324              		.loc 1 485 0
 325 002c 0027     		movs	r7, #0
 326              		.loc 1 493 0
 327 002e 4FF6FF76 		movw	r6, #65535
 328              		.loc 1 485 0
 329 0032 1F61     		str	r7, [r3, #16]
 330              		.loc 1 486 0
 331 0034 D860     		str	r0, [r3, #12]
 332              	.LVL23:
 333              		.loc 1 492 0
 334 0036 9A62     		str	r2, [r3, #40]
 335              	.LVL24:
 336              		.loc 1 493 0
 337 0038 DE62     		str	r6, [r3, #44]
 338              		.loc 1 508 0
 339 003a 0A78     		ldrb	r2, [r1]	@ zero_extendqisi2
 340              		.loc 1 495 0
 341 003c 6DB9     		cbnz	r5, .L47
 342              		.loc 1 499 0
ARM GAS  C:\Users\danit\AppData\Local\Temp\ccj3s8Ie.s 			page 7


 343 003e 40F20120 		movw	r0, #513
 344              		.loc 1 503 0
 345 0042 5421     		movs	r1, #84
 346              		.loc 1 499 0
 347 0044 9861     		str	r0, [r3, #24]
 348              		.loc 1 503 0
 349 0046 9960     		str	r1, [r3, #8]
 350              		.loc 1 508 0
 351 0048 C2B1     		cbz	r2, .L56
 352              		.loc 1 512 0
 353 004a 1322     		movs	r2, #19
 354 004c 1A62     		str	r2, [r3, #32]
 355              	.L49:
 356              		.loc 1 517 0
 357 004e 03F13802 		add	r2, r3, #56
 358              		.loc 1 518 0
 359 0052 3433     		adds	r3, r3, #52
 360              		.loc 1 517 0
 361 0054 2261     		str	r2, [r4, #16]
 362              		.loc 1 518 0
 363 0056 6361     		str	r3, [r4, #20]
 364 0058 F8BD     		pop	{r3, r4, r5, r6, r7, pc}
 365              	.LVL25:
 366              	.L47:
 367              		.loc 1 523 0
 368 005a 4FF48170 		mov	r0, #258
 369              		.loc 1 527 0
 370 005e 6421     		movs	r1, #100
 371              		.loc 1 523 0
 372 0060 9861     		str	r0, [r3, #24]
 373              		.loc 1 527 0
 374 0062 9960     		str	r1, [r3, #8]
 375              		.loc 1 532 0
 376 0064 3AB1     		cbz	r2, .L57
 377              		.loc 1 536 0
 378 0066 3122     		movs	r2, #49
 379 0068 1A62     		str	r2, [r3, #32]
 380              	.L52:
 381              		.loc 1 541 0
 382 006a 03F13402 		add	r2, r3, #52
 383              		.loc 1 542 0
 384 006e 3833     		adds	r3, r3, #56
 385              		.loc 1 541 0
 386 0070 2261     		str	r2, [r4, #16]
 387              		.loc 1 542 0
 388 0072 6361     		str	r3, [r4, #20]
 389 0074 F8BD     		pop	{r3, r4, r5, r6, r7, pc}
 390              	.LVL26:
 391              	.L57:
 392              		.loc 1 533 0
 393 0076 1322     		movs	r2, #19
 394 0078 1A62     		str	r2, [r3, #32]
 395 007a F6E7     		b	.L52
 396              	.L56:
 397              		.loc 1 509 0
 398 007c 3122     		movs	r2, #49
 399 007e 1A62     		str	r2, [r3, #32]
ARM GAS  C:\Users\danit\AppData\Local\Temp\ccj3s8Ie.s 			page 8


 400 0080 E5E7     		b	.L49
 401              	.LVL27:
 402              	.L55:
 403              		.loc 1 401 0
 404 0082 0D4B     		ldr	r3, .L59
 405 0084 9842     		cmp	r0, r3
 406 0086 01D0     		beq	.L58
 407              	.LVL28:
 408              	.L54:
 409 0088 E368     		ldr	r3, [r4, #12]
 410 008a C4E7     		b	.L46
 411              	.LVL29:
 412              	.L58:
 413              		.loc 1 402 0
 414 008c 0B4B     		ldr	r3, .L59+4
 415 008e 5A6C     		ldr	r2, [r3, #68]
 416 0090 42F00102 		orr	r2, r2, #1
 417 0094 5A64     		str	r2, [r3, #68]
 418              		.loc 1 403 0
 419 0096 5A6A     		ldr	r2, [r3, #36]
 420 0098 0021     		movs	r1, #0
 421 009a 42F00102 		orr	r2, r2, #1
 422 009e 5A62     		str	r2, [r3, #36]
 423              		.loc 1 404 0
 424 00a0 1920     		movs	r0, #25
 425              	.LVL30:
 426              		.loc 1 403 0
 427 00a2 5962     		str	r1, [r3, #36]
 428              		.loc 1 404 0
 429 00a4 7021     		movs	r1, #112
 430 00a6 FFF7FEFF 		bl	nvicEnableVector
 431              	.LVL31:
 432              		.loc 1 406 0
 433 00aa 1B20     		movs	r0, #27
 434 00ac 7021     		movs	r1, #112
 435 00ae FFF7FEFF 		bl	nvicEnableVector
 436              	.LVL32:
 437              		.loc 1 411 0
 438 00b2 034B     		ldr	r3, .L59+8
 439 00b4 A360     		str	r3, [r4, #8]
 440 00b6 E7E7     		b	.L54
 441              	.L60:
 442              		.align	2
 443              	.L59:
 444 00b8 00000000 		.word	.LANCHOR0
 445 00bc 00380240 		.word	1073887232
 446 00c0 007A030A 		.word	168000000
 447              		.cfi_endproc
 448              	.LFE122:
 449              		.size	icu_lld_start, .-icu_lld_start
 450              		.section	.text.icu_lld_stop,"ax",%progbits
 451              		.align	2
 452              		.p2align 4,,15
 453              		.global	icu_lld_stop
 454              		.thumb
 455              		.thumb_func
 456              		.type	icu_lld_stop, %function
ARM GAS  C:\Users\danit\AppData\Local\Temp\ccj3s8Ie.s 			page 9


 457              	icu_lld_stop:
 458              	.LFB123:
 459              		.loc 1 553 0
 460              		.cfi_startproc
 461              		@ args = 0, pretend = 0, frame = 0
 462              		@ frame_needed = 0, uses_anonymous_args = 0
 463              	.LVL33:
 464 0000 08B5     		push	{r3, lr}
 465              		.cfi_def_cfa_offset 8
 466              		.cfi_offset 3, -8
 467              		.cfi_offset 14, -4
 468              		.loc 1 555 0
 469 0002 0378     		ldrb	r3, [r0]	@ zero_extendqisi2
 470 0004 022B     		cmp	r3, #2
 471 0006 00D0     		beq	.L66
 472              	.LVL34:
 473              	.L61:
 474 0008 08BD     		pop	{r3, pc}
 475              	.LVL35:
 476              	.L66:
 477              		.loc 1 562 0
 478 000a 0A49     		ldr	r1, .L67
 479              		.loc 1 557 0
 480 000c C368     		ldr	r3, [r0, #12]
 481 000e 0022     		movs	r2, #0
 482              		.loc 1 562 0
 483 0010 8842     		cmp	r0, r1
 484              		.loc 1 557 0
 485 0012 1A60     		str	r2, [r3]
 486              		.loc 1 558 0
 487 0014 DA60     		str	r2, [r3, #12]
 488              		.loc 1 559 0
 489 0016 1A61     		str	r2, [r3, #16]
 490              		.loc 1 562 0
 491 0018 F6D1     		bne	.L61
 492              		.loc 1 563 0
 493 001a 1920     		movs	r0, #25
 494              	.LVL36:
 495 001c FFF7FEFF 		bl	nvicDisableVector
 496              	.LVL37:
 497              		.loc 1 564 0
 498 0020 1B20     		movs	r0, #27
 499 0022 FFF7FEFF 		bl	nvicDisableVector
 500              	.LVL38:
 501              		.loc 1 565 0
 502 0026 044A     		ldr	r2, .L67+4
 503 0028 536C     		ldr	r3, [r2, #68]
 504 002a 23F00103 		bic	r3, r3, #1
 505 002e 5364     		str	r3, [r2, #68]
 506 0030 EAE7     		b	.L61
 507              	.L68:
 508 0032 00BF     		.align	2
 509              	.L67:
 510 0034 00000000 		.word	.LANCHOR0
 511 0038 00380240 		.word	1073887232
 512              		.cfi_endproc
 513              	.LFE123:
ARM GAS  C:\Users\danit\AppData\Local\Temp\ccj3s8Ie.s 			page 10


 514              		.size	icu_lld_stop, .-icu_lld_stop
 515              		.section	.text.icu_lld_enable,"ax",%progbits
 516              		.align	2
 517              		.p2align 4,,15
 518              		.global	icu_lld_enable
 519              		.thumb
 520              		.thumb_func
 521              		.type	icu_lld_enable, %function
 522              	icu_lld_enable:
 523              	.LFB124:
 524              		.loc 1 615 0
 525              		.cfi_startproc
 526              		@ args = 0, pretend = 0, frame = 0
 527              		@ frame_needed = 0, uses_anonymous_args = 0
 528              		@ link register save eliminated.
 529              	.LVL39:
 530              		.loc 1 617 0
 531 0000 C368     		ldr	r3, [r0, #12]
 532              		.loc 1 619 0
 533 0002 4268     		ldr	r2, [r0, #4]
 534              		.loc 1 617 0
 535 0004 5969     		ldr	r1, [r3, #20]
 536              		.loc 1 619 0
 537 0006 107D     		ldrb	r0, [r2, #20]	@ zero_extendqisi2
 538              	.LVL40:
 539              		.loc 1 615 0
 540 0008 10B4     		push	{r4}
 541              		.cfi_def_cfa_offset 4
 542              		.cfi_offset 4, -4
 543              		.loc 1 617 0
 544 000a 41F00101 		orr	r1, r1, #1
 545              		.loc 1 618 0
 546 000e 0024     		movs	r4, #0
 547              		.loc 1 617 0
 548 0010 5961     		str	r1, [r3, #20]
 549              		.loc 1 618 0
 550 0012 1C61     		str	r4, [r3, #16]
 551              		.loc 1 619 0
 552 0014 B0B9     		cbnz	r0, .L70
 553              		.loc 1 620 0
 554 0016 D168     		ldr	r1, [r2, #12]
 555 0018 19B1     		cbz	r1, .L71
 556              		.loc 1 621 0
 557 001a D968     		ldr	r1, [r3, #12]
 558 001c 41F00201 		orr	r1, r1, #2
 559 0020 D960     		str	r1, [r3, #12]
 560              	.L71:
 561              		.loc 1 622 0
 562 0022 9168     		ldr	r1, [r2, #8]
 563 0024 19B1     		cbz	r1, .L73
 564              	.L90:
 565              		.loc 1 628 0
 566 0026 D968     		ldr	r1, [r3, #12]
 567 0028 41F00401 		orr	r1, r1, #4
 568 002c D960     		str	r1, [r3, #12]
 569              	.L73:
 570              		.loc 1 630 0
ARM GAS  C:\Users\danit\AppData\Local\Temp\ccj3s8Ie.s 			page 11


 571 002e 1269     		ldr	r2, [r2, #16]
 572 0030 1AB1     		cbz	r2, .L76
 573              		.loc 1 631 0
 574 0032 DA68     		ldr	r2, [r3, #12]
 575 0034 42F00102 		orr	r2, r2, #1
 576 0038 DA60     		str	r2, [r3, #12]
 577              	.L76:
 578              		.loc 1 632 0
 579 003a 0522     		movs	r2, #5
 580 003c 1A60     		str	r2, [r3]
 581              		.loc 1 633 0
 582 003e 5DF8044B 		ldr	r4, [sp], #4
 583              		.cfi_remember_state
 584              		.cfi_restore 4
 585              		.cfi_def_cfa_offset 0
 586 0042 7047     		bx	lr
 587              	.L70:
 588              		.cfi_restore_state
 589              		.loc 1 625 0
 590 0044 9168     		ldr	r1, [r2, #8]
 591 0046 19B1     		cbz	r1, .L74
 592              		.loc 1 626 0
 593 0048 D968     		ldr	r1, [r3, #12]
 594 004a 41F00201 		orr	r1, r1, #2
 595 004e D960     		str	r1, [r3, #12]
 596              	.L74:
 597              		.loc 1 627 0
 598 0050 D168     		ldr	r1, [r2, #12]
 599 0052 0029     		cmp	r1, #0
 600 0054 E7D1     		bne	.L90
 601 0056 EAE7     		b	.L73
 602              		.cfi_endproc
 603              	.LFE124:
 604              		.size	icu_lld_enable, .-icu_lld_enable
 605              		.section	.text.icu_lld_disable,"ax",%progbits
 606              		.align	2
 607              		.p2align 4,,15
 608              		.global	icu_lld_disable
 609              		.thumb
 610              		.thumb_func
 611              		.type	icu_lld_disable, %function
 612              	icu_lld_disable:
 613              	.LFB125:
 614              		.loc 1 642 0
 615              		.cfi_startproc
 616              		@ args = 0, pretend = 0, frame = 0
 617              		@ frame_needed = 0, uses_anonymous_args = 0
 618              		@ link register save eliminated.
 619              	.LVL41:
 620              		.loc 1 644 0
 621 0000 C368     		ldr	r3, [r0, #12]
 622 0002 0022     		movs	r2, #0
 623 0004 1A60     		str	r2, [r3]
 624              		.loc 1 645 0
 625 0006 1A61     		str	r2, [r3, #16]
 626              		.loc 1 648 0
 627 0008 DA68     		ldr	r2, [r3, #12]
ARM GAS  C:\Users\danit\AppData\Local\Temp\ccj3s8Ie.s 			page 12


 628 000a 22F0FF02 		bic	r2, r2, #255
 629 000e DA60     		str	r2, [r3, #12]
 630 0010 7047     		bx	lr
 631              		.cfi_endproc
 632              	.LFE125:
 633              		.size	icu_lld_disable, .-icu_lld_disable
 634              		.global	ICUD1
 635 0012 00BF     		.section	.bss.ICUD1,"aw",%nobits
 636              		.align	2
 637              		.set	.LANCHOR0,. + 0
 638              		.type	ICUD1, %object
 639              		.size	ICUD1, 24
 640              	ICUD1:
 641 0000 00000000 		.space	24
 641      00000000 
 641      00000000 
 641      00000000 
 641      00000000 
 642              		.text
 643              	.Letext0:
 644              		.file 2 "c:\\program files (x86)\\gnu tools arm embedded\\4.9 2015q2\\arm-none-eabi\\include\\mach
 645              		.file 3 "c:\\program files (x86)\\gnu tools arm embedded\\4.9 2015q2\\arm-none-eabi\\include\\sys\
 646              		.file 4 "../../../ChibiOS/os/hal/platforms/STM32F4xx/stm32f4xx.h"
 647              		.file 5 "../../../ChibiOS/os/hal/platforms/STM32/TIMv1/stm32_tim.h"
 648              		.file 6 "../../../ChibiOS/os/hal/include/icu.h"
 649              		.file 7 "../../../ChibiOS/os/hal/platforms/STM32/TIMv1/icu_lld.h"
 650              		.file 8 "../../../ChibiOS/os/ports/common/ARMCMx/CMSIS/include/core_cm4.h"
 651              		.file 9 "../../../ChibiOS/os/ports/common/ARMCMx/nvic.h"
 652              		.file 10 "../../../ChibiOS/os/ports/GCC/ARMCMx/chcore_v7m.h"
 653              		.section	.debug_info,"",%progbits
 654              	.Ldebug_info0:
 655 0000 06080000 		.4byte	0x806
 656 0004 0400     		.2byte	0x4
 657 0006 00000000 		.4byte	.Ldebug_abbrev0
 658 000a 04       		.byte	0x4
 659 000b 01       		.uleb128 0x1
 660 000c CE020000 		.4byte	.LASF101
 661 0010 01       		.byte	0x1
 662 0011 71010000 		.4byte	.LASF102
 663 0015 51020000 		.4byte	.LASF103
 664 0019 00000000 		.4byte	.Ldebug_ranges0+0
 665 001d 00000000 		.4byte	0
 666 0021 00000000 		.4byte	.Ldebug_line0
 667 0025 02       		.uleb128 0x2
 668 0026 04       		.byte	0x4
 669 0027 07       		.byte	0x7
 670 0028 A8030000 		.4byte	.LASF0
 671 002c 03       		.uleb128 0x3
 672 002d 04       		.byte	0x4
 673 002e 05       		.byte	0x5
 674 002f 696E7400 		.ascii	"int\000"
 675 0033 02       		.uleb128 0x2
 676 0034 01       		.byte	0x1
 677 0035 06       		.byte	0x6
 678 0036 B5020000 		.4byte	.LASF1
 679 003a 02       		.uleb128 0x2
 680 003b 01       		.byte	0x1
ARM GAS  C:\Users\danit\AppData\Local\Temp\ccj3s8Ie.s 			page 13


 681 003c 08       		.byte	0x8
 682 003d 33020000 		.4byte	.LASF2
 683 0041 02       		.uleb128 0x2
 684 0042 02       		.byte	0x2
 685 0043 05       		.byte	0x5
 686 0044 65000000 		.4byte	.LASF3
 687 0048 04       		.uleb128 0x4
 688 0049 B5000000 		.4byte	.LASF5
 689 004d 02       		.byte	0x2
 690 004e 2B       		.byte	0x2b
 691 004f 53000000 		.4byte	0x53
 692 0053 02       		.uleb128 0x2
 693 0054 02       		.byte	0x2
 694 0055 07       		.byte	0x7
 695 0056 DC030000 		.4byte	.LASF4
 696 005a 04       		.uleb128 0x4
 697 005b D3040000 		.4byte	.LASF6
 698 005f 02       		.byte	0x2
 699 0060 3F       		.byte	0x3f
 700 0061 65000000 		.4byte	0x65
 701 0065 02       		.uleb128 0x2
 702 0066 04       		.byte	0x4
 703 0067 05       		.byte	0x5
 704 0068 AF010000 		.4byte	.LASF7
 705 006c 04       		.uleb128 0x4
 706 006d 9C000000 		.4byte	.LASF8
 707 0071 02       		.byte	0x2
 708 0072 41       		.byte	0x41
 709 0073 77000000 		.4byte	0x77
 710 0077 02       		.uleb128 0x2
 711 0078 04       		.byte	0x4
 712 0079 07       		.byte	0x7
 713 007a D4010000 		.4byte	.LASF9
 714 007e 02       		.uleb128 0x2
 715 007f 08       		.byte	0x8
 716 0080 05       		.byte	0x5
 717 0081 42010000 		.4byte	.LASF10
 718 0085 02       		.uleb128 0x2
 719 0086 08       		.byte	0x8
 720 0087 07       		.byte	0x7
 721 0088 50010000 		.4byte	.LASF11
 722 008c 04       		.uleb128 0x4
 723 008d BE030000 		.4byte	.LASF12
 724 0091 03       		.byte	0x3
 725 0092 1A       		.byte	0x1a
 726 0093 48000000 		.4byte	0x48
 727 0097 04       		.uleb128 0x4
 728 0098 27040000 		.4byte	.LASF13
 729 009c 03       		.byte	0x3
 730 009d 1F       		.byte	0x1f
 731 009e 5A000000 		.4byte	0x5a
 732 00a2 04       		.uleb128 0x4
 733 00a3 12020000 		.4byte	.LASF14
 734 00a7 03       		.byte	0x3
 735 00a8 20       		.byte	0x20
 736 00a9 6C000000 		.4byte	0x6c
 737 00ad 02       		.uleb128 0x2
ARM GAS  C:\Users\danit\AppData\Local\Temp\ccj3s8Ie.s 			page 14


 738 00ae 01       		.byte	0x1
 739 00af 02       		.byte	0x2
 740 00b0 D6030000 		.4byte	.LASF15
 741 00b4 05       		.uleb128 0x5
 742 00b5 A2000000 		.4byte	0xa2
 743 00b9 02       		.uleb128 0x2
 744 00ba 04       		.byte	0x4
 745 00bb 07       		.byte	0x7
 746 00bc 74000000 		.4byte	.LASF16
 747 00c0 02       		.uleb128 0x2
 748 00c1 01       		.byte	0x1
 749 00c2 08       		.byte	0x8
 750 00c3 F9030000 		.4byte	.LASF17
 751 00c7 06       		.uleb128 0x6
 752 00c8 A2000000 		.4byte	0xa2
 753 00cc D7000000 		.4byte	0xd7
 754 00d0 07       		.uleb128 0x7
 755 00d1 B9000000 		.4byte	0xb9
 756 00d5 01       		.byte	0x1
 757 00d6 00       		.byte	0
 758 00d7 06       		.uleb128 0x6
 759 00d8 A2000000 		.4byte	0xa2
 760 00dc E7000000 		.4byte	0xe7
 761 00e0 07       		.uleb128 0x7
 762 00e1 B9000000 		.4byte	0xb9
 763 00e5 03       		.byte	0x3
 764 00e6 00       		.byte	0
 765 00e7 05       		.uleb128 0x5
 766 00e8 97000000 		.4byte	0x97
 767 00ec 08       		.uleb128 0x8
 768 00ed 90       		.byte	0x90
 769 00ee 04       		.byte	0x4
 770 00ef 5804     		.2byte	0x458
 771 00f1 95020000 		.4byte	0x295
 772 00f5 09       		.uleb128 0x9
 773 00f6 435200   		.ascii	"CR\000"
 774 00f9 04       		.byte	0x4
 775 00fa 5A04     		.2byte	0x45a
 776 00fc B4000000 		.4byte	0xb4
 777 0100 00       		.byte	0
 778 0101 0A       		.uleb128 0xa
 779 0102 3C050000 		.4byte	.LASF18
 780 0106 04       		.byte	0x4
 781 0107 5B04     		.2byte	0x45b
 782 0109 B4000000 		.4byte	0xb4
 783 010d 04       		.byte	0x4
 784 010e 0A       		.uleb128 0xa
 785 010f E0000000 		.4byte	.LASF19
 786 0113 04       		.byte	0x4
 787 0114 5C04     		.2byte	0x45c
 788 0116 B4000000 		.4byte	0xb4
 789 011a 08       		.byte	0x8
 790 011b 09       		.uleb128 0x9
 791 011c 43495200 		.ascii	"CIR\000"
 792 0120 04       		.byte	0x4
 793 0121 5D04     		.2byte	0x45d
 794 0123 B4000000 		.4byte	0xb4
ARM GAS  C:\Users\danit\AppData\Local\Temp\ccj3s8Ie.s 			page 15


 795 0127 0C       		.byte	0xc
 796 0128 0A       		.uleb128 0xa
 797 0129 D0000000 		.4byte	.LASF20
 798 012d 04       		.byte	0x4
 799 012e 5E04     		.2byte	0x45e
 800 0130 B4000000 		.4byte	0xb4
 801 0134 10       		.byte	0x10
 802 0135 0A       		.uleb128 0xa
 803 0136 B5030000 		.4byte	.LASF21
 804 013a 04       		.byte	0x4
 805 013b 5F04     		.2byte	0x45f
 806 013d B4000000 		.4byte	0xb4
 807 0141 14       		.byte	0x14
 808 0142 0A       		.uleb128 0xa
 809 0143 18050000 		.4byte	.LASF22
 810 0147 04       		.byte	0x4
 811 0148 6004     		.2byte	0x460
 812 014a B4000000 		.4byte	0xb4
 813 014e 18       		.byte	0x18
 814 014f 0A       		.uleb128 0xa
 815 0150 67040000 		.4byte	.LASF23
 816 0154 04       		.byte	0x4
 817 0155 6104     		.2byte	0x461
 818 0157 A2000000 		.4byte	0xa2
 819 015b 1C       		.byte	0x1c
 820 015c 0A       		.uleb128 0xa
 821 015d A7000000 		.4byte	.LASF24
 822 0161 04       		.byte	0x4
 823 0162 6204     		.2byte	0x462
 824 0164 B4000000 		.4byte	0xb4
 825 0168 20       		.byte	0x20
 826 0169 0A       		.uleb128 0xa
 827 016a EC010000 		.4byte	.LASF25
 828 016e 04       		.byte	0x4
 829 016f 6304     		.2byte	0x463
 830 0171 B4000000 		.4byte	0xb4
 831 0175 24       		.byte	0x24
 832 0176 0A       		.uleb128 0xa
 833 0177 E5000000 		.4byte	.LASF26
 834 017b 04       		.byte	0x4
 835 017c 6404     		.2byte	0x464
 836 017e C7000000 		.4byte	0xc7
 837 0182 28       		.byte	0x28
 838 0183 0A       		.uleb128 0xa
 839 0184 BF040000 		.4byte	.LASF27
 840 0188 04       		.byte	0x4
 841 0189 6504     		.2byte	0x465
 842 018b B4000000 		.4byte	0xb4
 843 018f 30       		.byte	0x30
 844 0190 0A       		.uleb128 0xa
 845 0191 4C000000 		.4byte	.LASF28
 846 0195 04       		.byte	0x4
 847 0196 6604     		.2byte	0x466
 848 0198 B4000000 		.4byte	0xb4
 849 019c 34       		.byte	0x34
 850 019d 0A       		.uleb128 0xa
 851 019e 01020000 		.4byte	.LASF29
ARM GAS  C:\Users\danit\AppData\Local\Temp\ccj3s8Ie.s 			page 16


 852 01a2 04       		.byte	0x4
 853 01a3 6704     		.2byte	0x467
 854 01a5 B4000000 		.4byte	0xb4
 855 01a9 38       		.byte	0x38
 856 01aa 0A       		.uleb128 0xa
 857 01ab 87040000 		.4byte	.LASF30
 858 01af 04       		.byte	0x4
 859 01b0 6804     		.2byte	0x468
 860 01b2 A2000000 		.4byte	0xa2
 861 01b6 3C       		.byte	0x3c
 862 01b7 0A       		.uleb128 0xa
 863 01b8 F9000000 		.4byte	.LASF31
 864 01bc 04       		.byte	0x4
 865 01bd 6904     		.2byte	0x469
 866 01bf B4000000 		.4byte	0xb4
 867 01c3 40       		.byte	0x40
 868 01c4 0A       		.uleb128 0xa
 869 01c5 84020000 		.4byte	.LASF32
 870 01c9 04       		.byte	0x4
 871 01ca 6A04     		.2byte	0x46a
 872 01cc B4000000 		.4byte	0xb4
 873 01d0 44       		.byte	0x44
 874 01d1 0A       		.uleb128 0xa
 875 01d2 91040000 		.4byte	.LASF33
 876 01d6 04       		.byte	0x4
 877 01d7 6B04     		.2byte	0x46b
 878 01d9 C7000000 		.4byte	0xc7
 879 01dd 48       		.byte	0x48
 880 01de 0A       		.uleb128 0xa
 881 01df 00000000 		.4byte	.LASF34
 882 01e3 04       		.byte	0x4
 883 01e4 6C04     		.2byte	0x46c
 884 01e6 B4000000 		.4byte	0xb4
 885 01ea 50       		.byte	0x50
 886 01eb 0A       		.uleb128 0xa
 887 01ec 5D040000 		.4byte	.LASF35
 888 01f0 04       		.byte	0x4
 889 01f1 6D04     		.2byte	0x46d
 890 01f3 B4000000 		.4byte	0xb4
 891 01f7 54       		.byte	0x54
 892 01f8 0A       		.uleb128 0xa
 893 01f9 EF000000 		.4byte	.LASF36
 894 01fd 04       		.byte	0x4
 895 01fe 6E04     		.2byte	0x46e
 896 0200 B4000000 		.4byte	0xb4
 897 0204 58       		.byte	0x58
 898 0205 0A       		.uleb128 0xa
 899 0206 9B040000 		.4byte	.LASF37
 900 020a 04       		.byte	0x4
 901 020b 6F04     		.2byte	0x46f
 902 020d A2000000 		.4byte	0xa2
 903 0211 5C       		.byte	0x5c
 904 0212 0A       		.uleb128 0xa
 905 0213 EF030000 		.4byte	.LASF38
 906 0217 04       		.byte	0x4
 907 0218 7004     		.2byte	0x470
 908 021a B4000000 		.4byte	0xb4
ARM GAS  C:\Users\danit\AppData\Local\Temp\ccj3s8Ie.s 			page 17


 909 021e 60       		.byte	0x60
 910 021f 0A       		.uleb128 0xa
 911 0220 4F050000 		.4byte	.LASF39
 912 0224 04       		.byte	0x4
 913 0225 7104     		.2byte	0x471
 914 0227 B4000000 		.4byte	0xb4
 915 022b 64       		.byte	0x64
 916 022c 0A       		.uleb128 0xa
 917 022d A5040000 		.4byte	.LASF40
 918 0231 04       		.byte	0x4
 919 0232 7204     		.2byte	0x472
 920 0234 C7000000 		.4byte	0xc7
 921 0238 68       		.byte	0x68
 922 0239 0A       		.uleb128 0xa
 923 023a 7D000000 		.4byte	.LASF41
 924 023e 04       		.byte	0x4
 925 023f 7304     		.2byte	0x473
 926 0241 B4000000 		.4byte	0xb4
 927 0245 70       		.byte	0x70
 928 0246 09       		.uleb128 0x9
 929 0247 43535200 		.ascii	"CSR\000"
 930 024b 04       		.byte	0x4
 931 024c 7404     		.2byte	0x474
 932 024e B4000000 		.4byte	0xb4
 933 0252 74       		.byte	0x74
 934 0253 0A       		.uleb128 0xa
 935 0254 AF040000 		.4byte	.LASF42
 936 0258 04       		.byte	0x4
 937 0259 7504     		.2byte	0x475
 938 025b C7000000 		.4byte	0xc7
 939 025f 78       		.byte	0x78
 940 0260 0A       		.uleb128 0xa
 941 0261 44040000 		.4byte	.LASF43
 942 0265 04       		.byte	0x4
 943 0266 7604     		.2byte	0x476
 944 0268 B4000000 		.4byte	0xb4
 945 026c 80       		.byte	0x80
 946 026d 0A       		.uleb128 0xa
 947 026e 91000000 		.4byte	.LASF44
 948 0272 04       		.byte	0x4
 949 0273 7704     		.2byte	0x477
 950 0275 B4000000 		.4byte	0xb4
 951 0279 84       		.byte	0x84
 952 027a 0A       		.uleb128 0xa
 953 027b 44050000 		.4byte	.LASF45
 954 027f 04       		.byte	0x4
 955 0280 7804     		.2byte	0x478
 956 0282 B4000000 		.4byte	0xb4
 957 0286 88       		.byte	0x88
 958 0287 0A       		.uleb128 0xa
 959 0288 26010000 		.4byte	.LASF46
 960 028c 04       		.byte	0x4
 961 028d 7904     		.2byte	0x479
 962 028f B4000000 		.4byte	0xb4
 963 0293 8C       		.byte	0x8c
 964 0294 00       		.byte	0
 965 0295 0B       		.uleb128 0xb
ARM GAS  C:\Users\danit\AppData\Local\Temp\ccj3s8Ie.s 			page 18


 966 0296 1C000000 		.4byte	.LASF47
 967 029a 04       		.byte	0x4
 968 029b 7B04     		.2byte	0x47b
 969 029d EC000000 		.4byte	0xec
 970 02a1 0C       		.uleb128 0xc
 971 02a2 04       		.byte	0x4
 972 02a3 B4000000 		.4byte	0xb4
 973 02a7 08       		.uleb128 0x8
 974 02a8 60       		.byte	0x60
 975 02a9 05       		.byte	0x5
 976 02aa 9E01     		.2byte	0x19e
 977 02ac C0030000 		.4byte	0x3c0
 978 02b0 09       		.uleb128 0x9
 979 02b1 43523100 		.ascii	"CR1\000"
 980 02b5 05       		.byte	0x5
 981 02b6 9F01     		.2byte	0x19f
 982 02b8 B4000000 		.4byte	0xb4
 983 02bc 00       		.byte	0
 984 02bd 09       		.uleb128 0x9
 985 02be 43523200 		.ascii	"CR2\000"
 986 02c2 05       		.byte	0x5
 987 02c3 A001     		.2byte	0x1a0
 988 02c5 B4000000 		.4byte	0xb4
 989 02c9 04       		.byte	0x4
 990 02ca 0A       		.uleb128 0xa
 991 02cb 1B020000 		.4byte	.LASF48
 992 02cf 05       		.byte	0x5
 993 02d0 A101     		.2byte	0x1a1
 994 02d2 B4000000 		.4byte	0xb4
 995 02d6 08       		.byte	0x8
 996 02d7 0A       		.uleb128 0xa
 997 02d8 C7030000 		.4byte	.LASF49
 998 02dc 05       		.byte	0x5
 999 02dd A201     		.2byte	0x1a2
 1000 02df B4000000 		.4byte	0xb4
 1001 02e3 0C       		.byte	0xc
 1002 02e4 09       		.uleb128 0x9
 1003 02e5 535200   		.ascii	"SR\000"
 1004 02e8 05       		.byte	0x5
 1005 02e9 A301     		.2byte	0x1a3
 1006 02eb B4000000 		.4byte	0xb4
 1007 02ef 10       		.byte	0x10
 1008 02f0 09       		.uleb128 0x9
 1009 02f1 45475200 		.ascii	"EGR\000"
 1010 02f5 05       		.byte	0x5
 1011 02f6 A401     		.2byte	0x1a4
 1012 02f8 B4000000 		.4byte	0xb4
 1013 02fc 14       		.byte	0x14
 1014 02fd 0A       		.uleb128 0xa
 1015 02fe F5010000 		.4byte	.LASF50
 1016 0302 05       		.byte	0x5
 1017 0303 A501     		.2byte	0x1a5
 1018 0305 B4000000 		.4byte	0xb4
 1019 0309 18       		.byte	0x18
 1020 030a 0A       		.uleb128 0xa
 1021 030b 5F000000 		.4byte	.LASF51
 1022 030f 05       		.byte	0x5
ARM GAS  C:\Users\danit\AppData\Local\Temp\ccj3s8Ie.s 			page 19


 1023 0310 A601     		.2byte	0x1a6
 1024 0312 B4000000 		.4byte	0xb4
 1025 0316 1C       		.byte	0x1c
 1026 0317 0A       		.uleb128 0xa
 1027 0318 17000000 		.4byte	.LASF52
 1028 031c 05       		.byte	0x5
 1029 031d A701     		.2byte	0x1a7
 1030 031f B4000000 		.4byte	0xb4
 1031 0323 20       		.byte	0x20
 1032 0324 09       		.uleb128 0x9
 1033 0325 434E5400 		.ascii	"CNT\000"
 1034 0329 05       		.byte	0x5
 1035 032a A801     		.2byte	0x1a8
 1036 032c B4000000 		.4byte	0xb4
 1037 0330 24       		.byte	0x24
 1038 0331 09       		.uleb128 0x9
 1039 0332 50534300 		.ascii	"PSC\000"
 1040 0336 05       		.byte	0x5
 1041 0337 A901     		.2byte	0x1a9
 1042 0339 B4000000 		.4byte	0xb4
 1043 033d 28       		.byte	0x28
 1044 033e 09       		.uleb128 0x9
 1045 033f 41525200 		.ascii	"ARR\000"
 1046 0343 05       		.byte	0x5
 1047 0344 AA01     		.2byte	0x1aa
 1048 0346 B4000000 		.4byte	0xb4
 1049 034a 2C       		.byte	0x2c
 1050 034b 09       		.uleb128 0x9
 1051 034c 52435200 		.ascii	"RCR\000"
 1052 0350 05       		.byte	0x5
 1053 0351 AB01     		.2byte	0x1ab
 1054 0353 B4000000 		.4byte	0xb4
 1055 0357 30       		.byte	0x30
 1056 0358 09       		.uleb128 0x9
 1057 0359 43435200 		.ascii	"CCR\000"
 1058 035d 05       		.byte	0x5
 1059 035e AC01     		.2byte	0x1ac
 1060 0360 C0030000 		.4byte	0x3c0
 1061 0364 34       		.byte	0x34
 1062 0365 0A       		.uleb128 0xa
 1063 0366 22040000 		.4byte	.LASF53
 1064 036a 05       		.byte	0x5
 1065 036b AD01     		.2byte	0x1ad
 1066 036d B4000000 		.4byte	0xb4
 1067 0371 44       		.byte	0x44
 1068 0372 09       		.uleb128 0x9
 1069 0373 44435200 		.ascii	"DCR\000"
 1070 0377 05       		.byte	0x5
 1071 0378 AE01     		.2byte	0x1ae
 1072 037a B4000000 		.4byte	0xb4
 1073 037e 48       		.byte	0x48
 1074 037f 0A       		.uleb128 0xa
 1075 0380 54000000 		.4byte	.LASF54
 1076 0384 05       		.byte	0x5
 1077 0385 AF01     		.2byte	0x1af
 1078 0387 B4000000 		.4byte	0xb4
 1079 038b 4C       		.byte	0x4c
ARM GAS  C:\Users\danit\AppData\Local\Temp\ccj3s8Ie.s 			page 20


 1080 038c 09       		.uleb128 0x9
 1081 038d 4F5200   		.ascii	"OR\000"
 1082 0390 05       		.byte	0x5
 1083 0391 B001     		.2byte	0x1b0
 1084 0393 B4000000 		.4byte	0xb4
 1085 0397 50       		.byte	0x50
 1086 0398 0A       		.uleb128 0xa
 1087 0399 FB010000 		.4byte	.LASF55
 1088 039d 05       		.byte	0x5
 1089 039e B101     		.2byte	0x1b1
 1090 03a0 B4000000 		.4byte	0xb4
 1091 03a4 54       		.byte	0x54
 1092 03a5 0A       		.uleb128 0xa
 1093 03a6 CA010000 		.4byte	.LASF56
 1094 03aa 05       		.byte	0x5
 1095 03ab B201     		.2byte	0x1b2
 1096 03ad B4000000 		.4byte	0xb4
 1097 03b1 58       		.byte	0x58
 1098 03b2 0A       		.uleb128 0xa
 1099 03b3 CF010000 		.4byte	.LASF57
 1100 03b7 05       		.byte	0x5
 1101 03b8 B301     		.2byte	0x1b3
 1102 03ba B4000000 		.4byte	0xb4
 1103 03be 5C       		.byte	0x5c
 1104 03bf 00       		.byte	0
 1105 03c0 05       		.uleb128 0x5
 1106 03c1 D7000000 		.4byte	0xd7
 1107 03c5 0B       		.uleb128 0xb
 1108 03c6 0C040000 		.4byte	.LASF58
 1109 03ca 05       		.byte	0x5
 1110 03cb B401     		.2byte	0x1b4
 1111 03cd A7020000 		.4byte	0x2a7
 1112 03d1 0C       		.uleb128 0xc
 1113 03d2 04       		.byte	0x4
 1114 03d3 C5030000 		.4byte	0x3c5
 1115 03d7 0D       		.uleb128 0xd
 1116 03d8 01       		.byte	0x1
 1117 03d9 06       		.byte	0x6
 1118 03da 3C       		.byte	0x3c
 1119 03db 04040000 		.4byte	0x404
 1120 03df 0E       		.uleb128 0xe
 1121 03e0 52040000 		.4byte	.LASF59
 1122 03e4 00       		.sleb128 0
 1123 03e5 0E       		.uleb128 0xe
 1124 03e6 28000000 		.4byte	.LASF60
 1125 03ea 01       		.sleb128 1
 1126 03eb 0E       		.uleb128 0xe
 1127 03ec F6040000 		.4byte	.LASF61
 1128 03f0 02       		.sleb128 2
 1129 03f1 0E       		.uleb128 0xe
 1130 03f2 64050000 		.4byte	.LASF62
 1131 03f6 03       		.sleb128 3
 1132 03f7 0E       		.uleb128 0xe
 1133 03f8 37010000 		.4byte	.LASF63
 1134 03fc 04       		.sleb128 4
 1135 03fd 0E       		.uleb128 0xe
 1136 03fe 09020000 		.4byte	.LASF64
ARM GAS  C:\Users\danit\AppData\Local\Temp\ccj3s8Ie.s 			page 21


 1137 0402 05       		.sleb128 5
 1138 0403 00       		.byte	0
 1139 0404 04       		.uleb128 0x4
 1140 0405 59050000 		.4byte	.LASF65
 1141 0409 06       		.byte	0x6
 1142 040a 43       		.byte	0x43
 1143 040b D7030000 		.4byte	0x3d7
 1144 040f 04       		.uleb128 0x4
 1145 0410 E2040000 		.4byte	.LASF66
 1146 0414 06       		.byte	0x6
 1147 0415 48       		.byte	0x48
 1148 0416 1A040000 		.4byte	0x41a
 1149 041a 0F       		.uleb128 0xf
 1150 041b E2040000 		.4byte	.LASF66
 1151 041f 18       		.byte	0x18
 1152 0420 07       		.byte	0x7
 1153 0421 3101     		.2byte	0x131
 1154 0423 76040000 		.4byte	0x476
 1155 0427 0A       		.uleb128 0xa
 1156 0428 59000000 		.4byte	.LASF67
 1157 042c 07       		.byte	0x7
 1158 042d 3501     		.2byte	0x135
 1159 042f 04040000 		.4byte	0x404
 1160 0433 00       		.byte	0
 1161 0434 0A       		.uleb128 0xa
 1162 0435 D9000000 		.4byte	.LASF68
 1163 0439 07       		.byte	0x7
 1164 043a 3901     		.2byte	0x139
 1165 043c 54050000 		.4byte	0x554
 1166 0440 04       		.byte	0x4
 1167 0441 0A       		.uleb128 0xa
 1168 0442 B9040000 		.4byte	.LASF69
 1169 0446 07       		.byte	0x7
 1170 0447 4101     		.2byte	0x141
 1171 0449 A2000000 		.4byte	0xa2
 1172 044d 08       		.byte	0x8
 1173 044e 09       		.uleb128 0x9
 1174 044f 74696D00 		.ascii	"tim\000"
 1175 0453 07       		.byte	0x7
 1176 0454 4501     		.2byte	0x145
 1177 0456 D1030000 		.4byte	0x3d1
 1178 045a 0C       		.byte	0xc
 1179 045b 0A       		.uleb128 0xa
 1180 045c A9010000 		.4byte	.LASF70
 1181 0460 07       		.byte	0x7
 1182 0461 4901     		.2byte	0x149
 1183 0463 A1020000 		.4byte	0x2a1
 1184 0467 10       		.byte	0x10
 1185 0468 0A       		.uleb128 0xa
 1186 0469 E6010000 		.4byte	.LASF71
 1187 046d 07       		.byte	0x7
 1188 046e 4D01     		.2byte	0x14d
 1189 0470 A1020000 		.4byte	0x2a1
 1190 0474 14       		.byte	0x14
 1191 0475 00       		.byte	0
 1192 0476 04       		.uleb128 0x4
 1193 0477 FE030000 		.4byte	.LASF72
ARM GAS  C:\Users\danit\AppData\Local\Temp\ccj3s8Ie.s 			page 22


 1194 047b 06       		.byte	0x6
 1195 047c 4F       		.byte	0x4f
 1196 047d 81040000 		.4byte	0x481
 1197 0481 0C       		.uleb128 0xc
 1198 0482 04       		.byte	0x4
 1199 0483 87040000 		.4byte	0x487
 1200 0487 10       		.uleb128 0x10
 1201 0488 92040000 		.4byte	0x492
 1202 048c 11       		.uleb128 0x11
 1203 048d 92040000 		.4byte	0x492
 1204 0491 00       		.byte	0
 1205 0492 0C       		.uleb128 0xc
 1206 0493 04       		.byte	0x4
 1207 0494 0F040000 		.4byte	0x40f
 1208 0498 0D       		.uleb128 0xd
 1209 0499 01       		.byte	0x1
 1210 049a 07       		.byte	0x7
 1211 049b EE       		.byte	0xee
 1212 049c AD040000 		.4byte	0x4ad
 1213 04a0 0E       		.uleb128 0xe
 1214 04a1 71040000 		.4byte	.LASF73
 1215 04a5 00       		.sleb128 0
 1216 04a6 0E       		.uleb128 0xe
 1217 04a7 2F040000 		.4byte	.LASF74
 1218 04ab 01       		.sleb128 1
 1219 04ac 00       		.byte	0
 1220 04ad 04       		.uleb128 0x4
 1221 04ae 67010000 		.4byte	.LASF75
 1222 04b2 07       		.byte	0x7
 1223 04b3 F1       		.byte	0xf1
 1224 04b4 98040000 		.4byte	0x498
 1225 04b8 04       		.uleb128 0x4
 1226 04b9 CC030000 		.4byte	.LASF76
 1227 04bd 07       		.byte	0x7
 1228 04be F6       		.byte	0xf6
 1229 04bf A2000000 		.4byte	0xa2
 1230 04c3 0D       		.uleb128 0xd
 1231 04c4 01       		.byte	0x1
 1232 04c5 07       		.byte	0x7
 1233 04c6 FB       		.byte	0xfb
 1234 04c7 D8040000 		.4byte	0x4d8
 1235 04cb 0E       		.uleb128 0xe
 1236 04cc 01010000 		.4byte	.LASF77
 1237 04d0 00       		.sleb128 0
 1238 04d1 0E       		.uleb128 0xe
 1239 04d2 0F010000 		.4byte	.LASF78
 1240 04d6 01       		.sleb128 1
 1241 04d7 00       		.byte	0
 1242 04d8 04       		.uleb128 0x4
 1243 04d9 31000000 		.4byte	.LASF79
 1244 04dd 07       		.byte	0x7
 1245 04de FE       		.byte	0xfe
 1246 04df C3040000 		.4byte	0x4c3
 1247 04e3 08       		.uleb128 0x8
 1248 04e4 1C       		.byte	0x1c
 1249 04e5 07       		.byte	0x7
 1250 04e6 0901     		.2byte	0x109
ARM GAS  C:\Users\danit\AppData\Local\Temp\ccj3s8Ie.s 			page 23


 1251 04e8 48050000 		.4byte	0x548
 1252 04ec 0A       		.uleb128 0xa
 1253 04ed B0000000 		.4byte	.LASF80
 1254 04f1 07       		.byte	0x7
 1255 04f2 0D01     		.2byte	0x10d
 1256 04f4 AD040000 		.4byte	0x4ad
 1257 04f8 00       		.byte	0
 1258 04f9 0A       		.uleb128 0xa
 1259 04fa EC040000 		.4byte	.LASF81
 1260 04fe 07       		.byte	0x7
 1261 04ff 1301     		.2byte	0x113
 1262 0501 B8040000 		.4byte	0x4b8
 1263 0505 04       		.byte	0x4
 1264 0506 0A       		.uleb128 0xa
 1265 0507 2E010000 		.4byte	.LASF82
 1266 050b 07       		.byte	0x7
 1267 050c 1701     		.2byte	0x117
 1268 050e 76040000 		.4byte	0x476
 1269 0512 08       		.byte	0x8
 1270 0513 0A       		.uleb128 0xa
 1271 0514 18040000 		.4byte	.LASF83
 1272 0518 07       		.byte	0x7
 1273 0519 1B01     		.2byte	0x11b
 1274 051b 76040000 		.4byte	0x476
 1275 051f 0C       		.byte	0xc
 1276 0520 0A       		.uleb128 0xa
 1277 0521 C7040000 		.4byte	.LASF84
 1278 0525 07       		.byte	0x7
 1279 0526 1F01     		.2byte	0x11f
 1280 0528 76040000 		.4byte	0x476
 1281 052c 10       		.byte	0x10
 1282 052d 0A       		.uleb128 0xa
 1283 052e 4A040000 		.4byte	.LASF85
 1284 0532 07       		.byte	0x7
 1285 0533 2501     		.2byte	0x125
 1286 0535 D8040000 		.4byte	0x4d8
 1287 0539 14       		.byte	0x14
 1288 053a 0A       		.uleb128 0xa
 1289 053b DD040000 		.4byte	.LASF86
 1290 053f 07       		.byte	0x7
 1291 0540 2B01     		.2byte	0x12b
 1292 0542 A2000000 		.4byte	0xa2
 1293 0546 18       		.byte	0x18
 1294 0547 00       		.byte	0
 1295 0548 0B       		.uleb128 0xb
 1296 0549 41020000 		.4byte	.LASF87
 1297 054d 07       		.byte	0x7
 1298 054e 2C01     		.2byte	0x12c
 1299 0550 E3040000 		.4byte	0x4e3
 1300 0554 0C       		.uleb128 0xc
 1301 0555 04       		.byte	0x4
 1302 0556 5A050000 		.4byte	0x55a
 1303 055a 12       		.uleb128 0x12
 1304 055b 48050000 		.4byte	0x548
 1305 055f 13       		.uleb128 0x13
 1306 0560 00050000 		.4byte	.LASF104
 1307 0564 01       		.byte	0x1
ARM GAS  C:\Users\danit\AppData\Local\Temp\ccj3s8Ie.s 			page 24


 1308 0565 6F       		.byte	0x6f
 1309 0566 01       		.byte	0x1
 1310 0567 9F050000 		.4byte	0x59f
 1311 056b 14       		.uleb128 0x14
 1312 056c 6F000000 		.4byte	.LASF94
 1313 0570 01       		.byte	0x1
 1314 0571 6F       		.byte	0x6f
 1315 0572 92040000 		.4byte	0x492
 1316 0576 15       		.uleb128 0x15
 1317 0577 737200   		.ascii	"sr\000"
 1318 057a 01       		.byte	0x1
 1319 057b 70       		.byte	0x70
 1320 057c 8C000000 		.4byte	0x8c
 1321 0580 16       		.uleb128 0x16
 1322 0581 91050000 		.4byte	0x591
 1323 0585 17       		.uleb128 0x17
 1324 0586 A6020000 		.4byte	.LASF88
 1325 058a 01       		.byte	0x1
 1326 058b 77       		.byte	0x77
 1327 058c 04040000 		.4byte	0x404
 1328 0590 00       		.byte	0
 1329 0591 18       		.uleb128 0x18
 1330 0592 17       		.uleb128 0x17
 1331 0593 A6020000 		.4byte	.LASF88
 1332 0597 01       		.byte	0x1
 1333 0598 7E       		.byte	0x7e
 1334 0599 04040000 		.4byte	0x404
 1335 059d 00       		.byte	0
 1336 059e 00       		.byte	0
 1337 059f 19       		.uleb128 0x19
 1338 05a0 5F050000 		.4byte	0x55f
 1339 05a4 00000000 		.4byte	.LFB126
 1340 05a8 90000000 		.4byte	.LFE126-.LFB126
 1341 05ac 01       		.uleb128 0x1
 1342 05ad 9C       		.byte	0x9c
 1343 05ae 3D060000 		.4byte	0x63d
 1344 05b2 1A       		.uleb128 0x1a
 1345 05b3 76050000 		.4byte	0x576
 1346 05b7 00000000 		.4byte	.LLST0
 1347 05bb 1B       		.uleb128 0x1b
 1348 05bc 6B050000 		.4byte	0x56b
 1349 05c0 06       		.uleb128 0x6
 1350 05c1 03       		.byte	0x3
 1351 05c2 00000000 		.4byte	ICUD1
 1352 05c6 9F       		.byte	0x9f
 1353 05c7 1C       		.uleb128 0x1c
 1354 05c8 1C000000 		.4byte	.LBB4
 1355 05cc 10000000 		.4byte	.LBE4-.LBB4
 1356 05d0 EA050000 		.4byte	0x5ea
 1357 05d4 1A       		.uleb128 0x1a
 1358 05d5 85050000 		.4byte	0x585
 1359 05d9 1E000000 		.4byte	.LLST1
 1360 05dd 1D       		.uleb128 0x1d
 1361 05de 2C000000 		.4byte	.LVL5
 1362 05e2 1E       		.uleb128 0x1e
 1363 05e3 01       		.uleb128 0x1
 1364 05e4 50       		.byte	0x50
ARM GAS  C:\Users\danit\AppData\Local\Temp\ccj3s8Ie.s 			page 25


 1365 05e5 02       		.uleb128 0x2
 1366 05e6 75       		.byte	0x75
 1367 05e7 00       		.sleb128 0
 1368 05e8 00       		.byte	0
 1369 05e9 00       		.byte	0
 1370 05ea 1C       		.uleb128 0x1c
 1371 05eb 4E000000 		.4byte	.LBB5
 1372 05ef 12000000 		.4byte	.LBE5-.LBB5
 1373 05f3 0D060000 		.4byte	0x60d
 1374 05f7 1A       		.uleb128 0x1a
 1375 05f8 92050000 		.4byte	0x592
 1376 05fc 5A000000 		.4byte	.LLST2
 1377 0600 1D       		.uleb128 0x1d
 1378 0601 60000000 		.4byte	.LVL10
 1379 0605 1E       		.uleb128 0x1e
 1380 0606 01       		.uleb128 0x1
 1381 0607 50       		.byte	0x50
 1382 0608 02       		.uleb128 0x2
 1383 0609 75       		.byte	0x75
 1384 060a 00       		.sleb128 0
 1385 060b 00       		.byte	0
 1386 060c 00       		.byte	0
 1387 060d 1F       		.uleb128 0x1f
 1388 060e 4A000000 		.4byte	.LVL7
 1389 0612 1D060000 		.4byte	0x61d
 1390 0616 1E       		.uleb128 0x1e
 1391 0617 01       		.uleb128 0x1
 1392 0618 50       		.byte	0x50
 1393 0619 02       		.uleb128 0x2
 1394 061a 75       		.byte	0x75
 1395 061b 00       		.sleb128 0
 1396 061c 00       		.byte	0
 1397 061d 20       		.uleb128 0x20
 1398 061e 70000000 		.4byte	.LVL12
 1399 0622 30060000 		.4byte	0x630
 1400 0626 1E       		.uleb128 0x1e
 1401 0627 01       		.uleb128 0x1
 1402 0628 50       		.byte	0x50
 1403 0629 05       		.uleb128 0x5
 1404 062a 03       		.byte	0x3
 1405 062b 00000000 		.4byte	.LANCHOR0
 1406 062f 00       		.byte	0
 1407 0630 1D       		.uleb128 0x1d
 1408 0631 84000000 		.4byte	.LVL13
 1409 0635 1E       		.uleb128 0x1e
 1410 0636 01       		.uleb128 0x1
 1411 0637 50       		.byte	0x50
 1412 0638 02       		.uleb128 0x2
 1413 0639 75       		.byte	0x75
 1414 063a 00       		.sleb128 0
 1415 063b 00       		.byte	0
 1416 063c 00       		.byte	0
 1417 063d 21       		.uleb128 0x21
 1418 063e 1D010000 		.4byte	.LASF89
 1419 0642 01       		.byte	0x1
 1420 0643 94       		.byte	0x94
 1421 0644 00000000 		.4byte	.LFB119
ARM GAS  C:\Users\danit\AppData\Local\Temp\ccj3s8Ie.s 			page 26


 1422 0648 0E000000 		.4byte	.LFE119-.LFB119
 1423 064c 01       		.uleb128 0x1
 1424 064d 9C       		.byte	0x9c
 1425 064e 65060000 		.4byte	0x665
 1426 0652 22       		.uleb128 0x22
 1427 0653 06000000 		.4byte	.LVL16
 1428 0657 9F050000 		.4byte	0x59f
 1429 065b 23       		.uleb128 0x23
 1430 065c 0E000000 		.4byte	.LVL17
 1431 0660 CB070000 		.4byte	0x7cb
 1432 0664 00       		.byte	0
 1433 0665 21       		.uleb128 0x21
 1434 0666 8C020000 		.4byte	.LASF90
 1435 066a 01       		.byte	0x1
 1436 066b A8       		.byte	0xa8
 1437 066c 00000000 		.4byte	.LFB120
 1438 0670 0E000000 		.4byte	.LFE120-.LFB120
 1439 0674 01       		.uleb128 0x1
 1440 0675 9C       		.byte	0x9c
 1441 0676 8D060000 		.4byte	0x68d
 1442 067a 22       		.uleb128 0x22
 1443 067b 06000000 		.4byte	.LVL18
 1444 067f 9F050000 		.4byte	0x59f
 1445 0683 23       		.uleb128 0x23
 1446 0684 0E000000 		.4byte	.LVL19
 1447 0688 CB070000 		.4byte	0x7cb
 1448 068c 00       		.byte	0
 1449 068d 24       		.uleb128 0x24
 1450 068e C1020000 		.4byte	.LASF91
 1451 0692 01       		.byte	0x1
 1452 0693 5301     		.2byte	0x153
 1453 0695 00000000 		.4byte	.LFB121
 1454 0699 18000000 		.4byte	.LFE121-.LFB121
 1455 069d 01       		.uleb128 0x1
 1456 069e 9C       		.byte	0x9c
 1457 069f B4060000 		.4byte	0x6b4
 1458 06a3 25       		.uleb128 0x25
 1459 06a4 0A000000 		.4byte	.LVL20
 1460 06a8 D3070000 		.4byte	0x7d3
 1461 06ac 1E       		.uleb128 0x1e
 1462 06ad 01       		.uleb128 0x1
 1463 06ae 50       		.byte	0x50
 1464 06af 02       		.uleb128 0x2
 1465 06b0 74       		.byte	0x74
 1466 06b1 00       		.sleb128 0
 1467 06b2 00       		.byte	0
 1468 06b3 00       		.byte	0
 1469 06b4 24       		.uleb128 0x24
 1470 06b5 3E000000 		.4byte	.LASF92
 1471 06b9 01       		.byte	0x1
 1472 06ba 8701     		.2byte	0x187
 1473 06bc 00000000 		.4byte	.LFB122
 1474 06c0 C4000000 		.4byte	.LFE122-.LFB122
 1475 06c4 01       		.uleb128 0x1
 1476 06c5 9C       		.byte	0x9c
 1477 06c6 19070000 		.4byte	0x719
 1478 06ca 26       		.uleb128 0x26
ARM GAS  C:\Users\danit\AppData\Local\Temp\ccj3s8Ie.s 			page 27


 1479 06cb 6F000000 		.4byte	.LASF94
 1480 06cf 01       		.byte	0x1
 1481 06d0 8701     		.2byte	0x187
 1482 06d2 92040000 		.4byte	0x492
 1483 06d6 7C000000 		.4byte	.LLST3
 1484 06da 27       		.uleb128 0x27
 1485 06db 70736300 		.ascii	"psc\000"
 1486 06df 01       		.byte	0x1
 1487 06e0 8801     		.2byte	0x188
 1488 06e2 A2000000 		.4byte	0xa2
 1489 06e6 C6000000 		.4byte	.LLST4
 1490 06ea 28       		.uleb128 0x28
 1491 06eb AA000000 		.4byte	.LVL31
 1492 06ef E4070000 		.4byte	0x7e4
 1493 06f3 03070000 		.4byte	0x703
 1494 06f7 1E       		.uleb128 0x1e
 1495 06f8 01       		.uleb128 0x1
 1496 06f9 51       		.byte	0x51
 1497 06fa 02       		.uleb128 0x2
 1498 06fb 08       		.byte	0x8
 1499 06fc 70       		.byte	0x70
 1500 06fd 1E       		.uleb128 0x1e
 1501 06fe 01       		.uleb128 0x1
 1502 06ff 50       		.byte	0x50
 1503 0700 01       		.uleb128 0x1
 1504 0701 49       		.byte	0x49
 1505 0702 00       		.byte	0
 1506 0703 25       		.uleb128 0x25
 1507 0704 B2000000 		.4byte	.LVL32
 1508 0708 E4070000 		.4byte	0x7e4
 1509 070c 1E       		.uleb128 0x1e
 1510 070d 01       		.uleb128 0x1
 1511 070e 51       		.byte	0x51
 1512 070f 02       		.uleb128 0x2
 1513 0710 08       		.byte	0x8
 1514 0711 70       		.byte	0x70
 1515 0712 1E       		.uleb128 0x1e
 1516 0713 01       		.uleb128 0x1
 1517 0714 50       		.byte	0x50
 1518 0715 01       		.uleb128 0x1
 1519 0716 4B       		.byte	0x4b
 1520 0717 00       		.byte	0
 1521 0718 00       		.byte	0
 1522 0719 24       		.uleb128 0x24
 1523 071a 0A000000 		.4byte	.LASF93
 1524 071e 01       		.byte	0x1
 1525 071f 2902     		.2byte	0x229
 1526 0721 00000000 		.4byte	.LFB123
 1527 0725 3C000000 		.4byte	.LFE123-.LFB123
 1528 0729 01       		.uleb128 0x1
 1529 072a 9C       		.byte	0x9c
 1530 072b 62070000 		.4byte	0x762
 1531 072f 26       		.uleb128 0x26
 1532 0730 6F000000 		.4byte	.LASF94
 1533 0734 01       		.byte	0x1
 1534 0735 2902     		.2byte	0x229
 1535 0737 92040000 		.4byte	0x492
ARM GAS  C:\Users\danit\AppData\Local\Temp\ccj3s8Ie.s 			page 28


 1536 073b E8000000 		.4byte	.LLST5
 1537 073f 28       		.uleb128 0x28
 1538 0740 20000000 		.4byte	.LVL37
 1539 0744 FB070000 		.4byte	0x7fb
 1540 0748 52070000 		.4byte	0x752
 1541 074c 1E       		.uleb128 0x1e
 1542 074d 01       		.uleb128 0x1
 1543 074e 50       		.byte	0x50
 1544 074f 01       		.uleb128 0x1
 1545 0750 49       		.byte	0x49
 1546 0751 00       		.byte	0
 1547 0752 25       		.uleb128 0x25
 1548 0753 26000000 		.4byte	.LVL38
 1549 0757 FB070000 		.4byte	0x7fb
 1550 075b 1E       		.uleb128 0x1e
 1551 075c 01       		.uleb128 0x1
 1552 075d 50       		.byte	0x50
 1553 075e 01       		.uleb128 0x1
 1554 075f 4B       		.byte	0x4b
 1555 0760 00       		.byte	0
 1556 0761 00       		.byte	0
 1557 0762 24       		.uleb128 0x24
 1558 0763 82000000 		.4byte	.LASF95
 1559 0767 01       		.byte	0x1
 1560 0768 6702     		.2byte	0x267
 1561 076a 00000000 		.4byte	.LFB124
 1562 076e 58000000 		.4byte	.LFE124-.LFB124
 1563 0772 01       		.uleb128 0x1
 1564 0773 9C       		.byte	0x9c
 1565 0774 89070000 		.4byte	0x789
 1566 0778 26       		.uleb128 0x26
 1567 0779 6F000000 		.4byte	.LASF94
 1568 077d 01       		.byte	0x1
 1569 077e 6702     		.2byte	0x267
 1570 0780 92040000 		.4byte	0x492
 1571 0784 22010000 		.4byte	.LLST6
 1572 0788 00       		.byte	0
 1573 0789 24       		.uleb128 0x24
 1574 078a C0000000 		.4byte	.LASF96
 1575 078e 01       		.byte	0x1
 1576 078f 8202     		.2byte	0x282
 1577 0791 00000000 		.4byte	.LFB125
 1578 0795 12000000 		.4byte	.LFE125-.LFB125
 1579 0799 01       		.uleb128 0x1
 1580 079a 9C       		.byte	0x9c
 1581 079b AE070000 		.4byte	0x7ae
 1582 079f 29       		.uleb128 0x29
 1583 07a0 6F000000 		.4byte	.LASF94
 1584 07a4 01       		.byte	0x1
 1585 07a5 8202     		.2byte	0x282
 1586 07a7 92040000 		.4byte	0x492
 1587 07ab 01       		.uleb128 0x1
 1588 07ac 50       		.byte	0x50
 1589 07ad 00       		.byte	0
 1590 07ae 2A       		.uleb128 0x2a
 1591 07af 2F050000 		.4byte	.LASF97
 1592 07b3 08       		.byte	0x8
ARM GAS  C:\Users\danit\AppData\Local\Temp\ccj3s8Ie.s 			page 29


 1593 07b4 9806     		.2byte	0x698
 1594 07b6 E7000000 		.4byte	0xe7
 1595 07ba 2B       		.uleb128 0x2b
 1596 07bb 4B020000 		.4byte	.LASF98
 1597 07bf 01       		.byte	0x1
 1598 07c0 2F       		.byte	0x2f
 1599 07c1 0F040000 		.4byte	0x40f
 1600 07c5 05       		.uleb128 0x5
 1601 07c6 03       		.byte	0x3
 1602 07c7 00000000 		.4byte	ICUD1
 1603 07cb 2C       		.uleb128 0x2c
 1604 07cc 20020000 		.4byte	.LASF105
 1605 07d0 0A       		.byte	0xa
 1606 07d1 0302     		.2byte	0x203
 1607 07d3 2D       		.uleb128 0x2d
 1608 07d4 21050000 		.4byte	.LASF99
 1609 07d8 06       		.byte	0x6
 1610 07d9 BE       		.byte	0xbe
 1611 07da E4070000 		.4byte	0x7e4
 1612 07de 11       		.uleb128 0x11
 1613 07df 92040000 		.4byte	0x492
 1614 07e3 00       		.byte	0
 1615 07e4 2E       		.uleb128 0x2e
 1616 07e5 95020000 		.4byte	.LASF100
 1617 07e9 09       		.byte	0x9
 1618 07ea 2301     		.2byte	0x123
 1619 07ec FB070000 		.4byte	0x7fb
 1620 07f0 11       		.uleb128 0x11
 1621 07f1 A2000000 		.4byte	0xa2
 1622 07f5 11       		.uleb128 0x11
 1623 07f6 A2000000 		.4byte	0xa2
 1624 07fa 00       		.byte	0
 1625 07fb 2F       		.uleb128 0x2f
 1626 07fc B8010000 		.4byte	.LASF106
 1627 0800 09       		.byte	0x9
 1628 0801 2401     		.2byte	0x124
 1629 0803 11       		.uleb128 0x11
 1630 0804 A2000000 		.4byte	0xa2
 1631 0808 00       		.byte	0
 1632 0809 00       		.byte	0
 1633              		.section	.debug_abbrev,"",%progbits
 1634              	.Ldebug_abbrev0:
 1635 0000 01       		.uleb128 0x1
 1636 0001 11       		.uleb128 0x11
 1637 0002 01       		.byte	0x1
 1638 0003 25       		.uleb128 0x25
 1639 0004 0E       		.uleb128 0xe
 1640 0005 13       		.uleb128 0x13
 1641 0006 0B       		.uleb128 0xb
 1642 0007 03       		.uleb128 0x3
 1643 0008 0E       		.uleb128 0xe
 1644 0009 1B       		.uleb128 0x1b
 1645 000a 0E       		.uleb128 0xe
 1646 000b 55       		.uleb128 0x55
 1647 000c 17       		.uleb128 0x17
 1648 000d 11       		.uleb128 0x11
 1649 000e 01       		.uleb128 0x1
ARM GAS  C:\Users\danit\AppData\Local\Temp\ccj3s8Ie.s 			page 30


 1650 000f 10       		.uleb128 0x10
 1651 0010 17       		.uleb128 0x17
 1652 0011 00       		.byte	0
 1653 0012 00       		.byte	0
 1654 0013 02       		.uleb128 0x2
 1655 0014 24       		.uleb128 0x24
 1656 0015 00       		.byte	0
 1657 0016 0B       		.uleb128 0xb
 1658 0017 0B       		.uleb128 0xb
 1659 0018 3E       		.uleb128 0x3e
 1660 0019 0B       		.uleb128 0xb
 1661 001a 03       		.uleb128 0x3
 1662 001b 0E       		.uleb128 0xe
 1663 001c 00       		.byte	0
 1664 001d 00       		.byte	0
 1665 001e 03       		.uleb128 0x3
 1666 001f 24       		.uleb128 0x24
 1667 0020 00       		.byte	0
 1668 0021 0B       		.uleb128 0xb
 1669 0022 0B       		.uleb128 0xb
 1670 0023 3E       		.uleb128 0x3e
 1671 0024 0B       		.uleb128 0xb
 1672 0025 03       		.uleb128 0x3
 1673 0026 08       		.uleb128 0x8
 1674 0027 00       		.byte	0
 1675 0028 00       		.byte	0
 1676 0029 04       		.uleb128 0x4
 1677 002a 16       		.uleb128 0x16
 1678 002b 00       		.byte	0
 1679 002c 03       		.uleb128 0x3
 1680 002d 0E       		.uleb128 0xe
 1681 002e 3A       		.uleb128 0x3a
 1682 002f 0B       		.uleb128 0xb
 1683 0030 3B       		.uleb128 0x3b
 1684 0031 0B       		.uleb128 0xb
 1685 0032 49       		.uleb128 0x49
 1686 0033 13       		.uleb128 0x13
 1687 0034 00       		.byte	0
 1688 0035 00       		.byte	0
 1689 0036 05       		.uleb128 0x5
 1690 0037 35       		.uleb128 0x35
 1691 0038 00       		.byte	0
 1692 0039 49       		.uleb128 0x49
 1693 003a 13       		.uleb128 0x13
 1694 003b 00       		.byte	0
 1695 003c 00       		.byte	0
 1696 003d 06       		.uleb128 0x6
 1697 003e 01       		.uleb128 0x1
 1698 003f 01       		.byte	0x1
 1699 0040 49       		.uleb128 0x49
 1700 0041 13       		.uleb128 0x13
 1701 0042 01       		.uleb128 0x1
 1702 0043 13       		.uleb128 0x13
 1703 0044 00       		.byte	0
 1704 0045 00       		.byte	0
 1705 0046 07       		.uleb128 0x7
 1706 0047 21       		.uleb128 0x21
ARM GAS  C:\Users\danit\AppData\Local\Temp\ccj3s8Ie.s 			page 31


 1707 0048 00       		.byte	0
 1708 0049 49       		.uleb128 0x49
 1709 004a 13       		.uleb128 0x13
 1710 004b 2F       		.uleb128 0x2f
 1711 004c 0B       		.uleb128 0xb
 1712 004d 00       		.byte	0
 1713 004e 00       		.byte	0
 1714 004f 08       		.uleb128 0x8
 1715 0050 13       		.uleb128 0x13
 1716 0051 01       		.byte	0x1
 1717 0052 0B       		.uleb128 0xb
 1718 0053 0B       		.uleb128 0xb
 1719 0054 3A       		.uleb128 0x3a
 1720 0055 0B       		.uleb128 0xb
 1721 0056 3B       		.uleb128 0x3b
 1722 0057 05       		.uleb128 0x5
 1723 0058 01       		.uleb128 0x1
 1724 0059 13       		.uleb128 0x13
 1725 005a 00       		.byte	0
 1726 005b 00       		.byte	0
 1727 005c 09       		.uleb128 0x9
 1728 005d 0D       		.uleb128 0xd
 1729 005e 00       		.byte	0
 1730 005f 03       		.uleb128 0x3
 1731 0060 08       		.uleb128 0x8
 1732 0061 3A       		.uleb128 0x3a
 1733 0062 0B       		.uleb128 0xb
 1734 0063 3B       		.uleb128 0x3b
 1735 0064 05       		.uleb128 0x5
 1736 0065 49       		.uleb128 0x49
 1737 0066 13       		.uleb128 0x13
 1738 0067 38       		.uleb128 0x38
 1739 0068 0B       		.uleb128 0xb
 1740 0069 00       		.byte	0
 1741 006a 00       		.byte	0
 1742 006b 0A       		.uleb128 0xa
 1743 006c 0D       		.uleb128 0xd
 1744 006d 00       		.byte	0
 1745 006e 03       		.uleb128 0x3
 1746 006f 0E       		.uleb128 0xe
 1747 0070 3A       		.uleb128 0x3a
 1748 0071 0B       		.uleb128 0xb
 1749 0072 3B       		.uleb128 0x3b
 1750 0073 05       		.uleb128 0x5
 1751 0074 49       		.uleb128 0x49
 1752 0075 13       		.uleb128 0x13
 1753 0076 38       		.uleb128 0x38
 1754 0077 0B       		.uleb128 0xb
 1755 0078 00       		.byte	0
 1756 0079 00       		.byte	0
 1757 007a 0B       		.uleb128 0xb
 1758 007b 16       		.uleb128 0x16
 1759 007c 00       		.byte	0
 1760 007d 03       		.uleb128 0x3
 1761 007e 0E       		.uleb128 0xe
 1762 007f 3A       		.uleb128 0x3a
 1763 0080 0B       		.uleb128 0xb
ARM GAS  C:\Users\danit\AppData\Local\Temp\ccj3s8Ie.s 			page 32


 1764 0081 3B       		.uleb128 0x3b
 1765 0082 05       		.uleb128 0x5
 1766 0083 49       		.uleb128 0x49
 1767 0084 13       		.uleb128 0x13
 1768 0085 00       		.byte	0
 1769 0086 00       		.byte	0
 1770 0087 0C       		.uleb128 0xc
 1771 0088 0F       		.uleb128 0xf
 1772 0089 00       		.byte	0
 1773 008a 0B       		.uleb128 0xb
 1774 008b 0B       		.uleb128 0xb
 1775 008c 49       		.uleb128 0x49
 1776 008d 13       		.uleb128 0x13
 1777 008e 00       		.byte	0
 1778 008f 00       		.byte	0
 1779 0090 0D       		.uleb128 0xd
 1780 0091 04       		.uleb128 0x4
 1781 0092 01       		.byte	0x1
 1782 0093 0B       		.uleb128 0xb
 1783 0094 0B       		.uleb128 0xb
 1784 0095 3A       		.uleb128 0x3a
 1785 0096 0B       		.uleb128 0xb
 1786 0097 3B       		.uleb128 0x3b
 1787 0098 0B       		.uleb128 0xb
 1788 0099 01       		.uleb128 0x1
 1789 009a 13       		.uleb128 0x13
 1790 009b 00       		.byte	0
 1791 009c 00       		.byte	0
 1792 009d 0E       		.uleb128 0xe
 1793 009e 28       		.uleb128 0x28
 1794 009f 00       		.byte	0
 1795 00a0 03       		.uleb128 0x3
 1796 00a1 0E       		.uleb128 0xe
 1797 00a2 1C       		.uleb128 0x1c
 1798 00a3 0D       		.uleb128 0xd
 1799 00a4 00       		.byte	0
 1800 00a5 00       		.byte	0
 1801 00a6 0F       		.uleb128 0xf
 1802 00a7 13       		.uleb128 0x13
 1803 00a8 01       		.byte	0x1
 1804 00a9 03       		.uleb128 0x3
 1805 00aa 0E       		.uleb128 0xe
 1806 00ab 0B       		.uleb128 0xb
 1807 00ac 0B       		.uleb128 0xb
 1808 00ad 3A       		.uleb128 0x3a
 1809 00ae 0B       		.uleb128 0xb
 1810 00af 3B       		.uleb128 0x3b
 1811 00b0 05       		.uleb128 0x5
 1812 00b1 01       		.uleb128 0x1
 1813 00b2 13       		.uleb128 0x13
 1814 00b3 00       		.byte	0
 1815 00b4 00       		.byte	0
 1816 00b5 10       		.uleb128 0x10
 1817 00b6 15       		.uleb128 0x15
 1818 00b7 01       		.byte	0x1
 1819 00b8 27       		.uleb128 0x27
 1820 00b9 19       		.uleb128 0x19
ARM GAS  C:\Users\danit\AppData\Local\Temp\ccj3s8Ie.s 			page 33


 1821 00ba 01       		.uleb128 0x1
 1822 00bb 13       		.uleb128 0x13
 1823 00bc 00       		.byte	0
 1824 00bd 00       		.byte	0
 1825 00be 11       		.uleb128 0x11
 1826 00bf 05       		.uleb128 0x5
 1827 00c0 00       		.byte	0
 1828 00c1 49       		.uleb128 0x49
 1829 00c2 13       		.uleb128 0x13
 1830 00c3 00       		.byte	0
 1831 00c4 00       		.byte	0
 1832 00c5 12       		.uleb128 0x12
 1833 00c6 26       		.uleb128 0x26
 1834 00c7 00       		.byte	0
 1835 00c8 49       		.uleb128 0x49
 1836 00c9 13       		.uleb128 0x13
 1837 00ca 00       		.byte	0
 1838 00cb 00       		.byte	0
 1839 00cc 13       		.uleb128 0x13
 1840 00cd 2E       		.uleb128 0x2e
 1841 00ce 01       		.byte	0x1
 1842 00cf 03       		.uleb128 0x3
 1843 00d0 0E       		.uleb128 0xe
 1844 00d1 3A       		.uleb128 0x3a
 1845 00d2 0B       		.uleb128 0xb
 1846 00d3 3B       		.uleb128 0x3b
 1847 00d4 0B       		.uleb128 0xb
 1848 00d5 27       		.uleb128 0x27
 1849 00d6 19       		.uleb128 0x19
 1850 00d7 20       		.uleb128 0x20
 1851 00d8 0B       		.uleb128 0xb
 1852 00d9 01       		.uleb128 0x1
 1853 00da 13       		.uleb128 0x13
 1854 00db 00       		.byte	0
 1855 00dc 00       		.byte	0
 1856 00dd 14       		.uleb128 0x14
 1857 00de 05       		.uleb128 0x5
 1858 00df 00       		.byte	0
 1859 00e0 03       		.uleb128 0x3
 1860 00e1 0E       		.uleb128 0xe
 1861 00e2 3A       		.uleb128 0x3a
 1862 00e3 0B       		.uleb128 0xb
 1863 00e4 3B       		.uleb128 0x3b
 1864 00e5 0B       		.uleb128 0xb
 1865 00e6 49       		.uleb128 0x49
 1866 00e7 13       		.uleb128 0x13
 1867 00e8 00       		.byte	0
 1868 00e9 00       		.byte	0
 1869 00ea 15       		.uleb128 0x15
 1870 00eb 34       		.uleb128 0x34
 1871 00ec 00       		.byte	0
 1872 00ed 03       		.uleb128 0x3
 1873 00ee 08       		.uleb128 0x8
 1874 00ef 3A       		.uleb128 0x3a
 1875 00f0 0B       		.uleb128 0xb
 1876 00f1 3B       		.uleb128 0x3b
 1877 00f2 0B       		.uleb128 0xb
ARM GAS  C:\Users\danit\AppData\Local\Temp\ccj3s8Ie.s 			page 34


 1878 00f3 49       		.uleb128 0x49
 1879 00f4 13       		.uleb128 0x13
 1880 00f5 00       		.byte	0
 1881 00f6 00       		.byte	0
 1882 00f7 16       		.uleb128 0x16
 1883 00f8 0B       		.uleb128 0xb
 1884 00f9 01       		.byte	0x1
 1885 00fa 01       		.uleb128 0x1
 1886 00fb 13       		.uleb128 0x13
 1887 00fc 00       		.byte	0
 1888 00fd 00       		.byte	0
 1889 00fe 17       		.uleb128 0x17
 1890 00ff 34       		.uleb128 0x34
 1891 0100 00       		.byte	0
 1892 0101 03       		.uleb128 0x3
 1893 0102 0E       		.uleb128 0xe
 1894 0103 3A       		.uleb128 0x3a
 1895 0104 0B       		.uleb128 0xb
 1896 0105 3B       		.uleb128 0x3b
 1897 0106 0B       		.uleb128 0xb
 1898 0107 49       		.uleb128 0x49
 1899 0108 13       		.uleb128 0x13
 1900 0109 00       		.byte	0
 1901 010a 00       		.byte	0
 1902 010b 18       		.uleb128 0x18
 1903 010c 0B       		.uleb128 0xb
 1904 010d 01       		.byte	0x1
 1905 010e 00       		.byte	0
 1906 010f 00       		.byte	0
 1907 0110 19       		.uleb128 0x19
 1908 0111 2E       		.uleb128 0x2e
 1909 0112 01       		.byte	0x1
 1910 0113 31       		.uleb128 0x31
 1911 0114 13       		.uleb128 0x13
 1912 0115 11       		.uleb128 0x11
 1913 0116 01       		.uleb128 0x1
 1914 0117 12       		.uleb128 0x12
 1915 0118 06       		.uleb128 0x6
 1916 0119 40       		.uleb128 0x40
 1917 011a 18       		.uleb128 0x18
 1918 011b 9742     		.uleb128 0x2117
 1919 011d 19       		.uleb128 0x19
 1920 011e 01       		.uleb128 0x1
 1921 011f 13       		.uleb128 0x13
 1922 0120 00       		.byte	0
 1923 0121 00       		.byte	0
 1924 0122 1A       		.uleb128 0x1a
 1925 0123 34       		.uleb128 0x34
 1926 0124 00       		.byte	0
 1927 0125 31       		.uleb128 0x31
 1928 0126 13       		.uleb128 0x13
 1929 0127 02       		.uleb128 0x2
 1930 0128 17       		.uleb128 0x17
 1931 0129 00       		.byte	0
 1932 012a 00       		.byte	0
 1933 012b 1B       		.uleb128 0x1b
 1934 012c 05       		.uleb128 0x5
ARM GAS  C:\Users\danit\AppData\Local\Temp\ccj3s8Ie.s 			page 35


 1935 012d 00       		.byte	0
 1936 012e 31       		.uleb128 0x31
 1937 012f 13       		.uleb128 0x13
 1938 0130 02       		.uleb128 0x2
 1939 0131 18       		.uleb128 0x18
 1940 0132 00       		.byte	0
 1941 0133 00       		.byte	0
 1942 0134 1C       		.uleb128 0x1c
 1943 0135 0B       		.uleb128 0xb
 1944 0136 01       		.byte	0x1
 1945 0137 11       		.uleb128 0x11
 1946 0138 01       		.uleb128 0x1
 1947 0139 12       		.uleb128 0x12
 1948 013a 06       		.uleb128 0x6
 1949 013b 01       		.uleb128 0x1
 1950 013c 13       		.uleb128 0x13
 1951 013d 00       		.byte	0
 1952 013e 00       		.byte	0
 1953 013f 1D       		.uleb128 0x1d
 1954 0140 898201   		.uleb128 0x4109
 1955 0143 01       		.byte	0x1
 1956 0144 11       		.uleb128 0x11
 1957 0145 01       		.uleb128 0x1
 1958 0146 00       		.byte	0
 1959 0147 00       		.byte	0
 1960 0148 1E       		.uleb128 0x1e
 1961 0149 8A8201   		.uleb128 0x410a
 1962 014c 00       		.byte	0
 1963 014d 02       		.uleb128 0x2
 1964 014e 18       		.uleb128 0x18
 1965 014f 9142     		.uleb128 0x2111
 1966 0151 18       		.uleb128 0x18
 1967 0152 00       		.byte	0
 1968 0153 00       		.byte	0
 1969 0154 1F       		.uleb128 0x1f
 1970 0155 898201   		.uleb128 0x4109
 1971 0158 01       		.byte	0x1
 1972 0159 11       		.uleb128 0x11
 1973 015a 01       		.uleb128 0x1
 1974 015b 01       		.uleb128 0x1
 1975 015c 13       		.uleb128 0x13
 1976 015d 00       		.byte	0
 1977 015e 00       		.byte	0
 1978 015f 20       		.uleb128 0x20
 1979 0160 898201   		.uleb128 0x4109
 1980 0163 01       		.byte	0x1
 1981 0164 11       		.uleb128 0x11
 1982 0165 01       		.uleb128 0x1
 1983 0166 9542     		.uleb128 0x2115
 1984 0168 19       		.uleb128 0x19
 1985 0169 01       		.uleb128 0x1
 1986 016a 13       		.uleb128 0x13
 1987 016b 00       		.byte	0
 1988 016c 00       		.byte	0
 1989 016d 21       		.uleb128 0x21
 1990 016e 2E       		.uleb128 0x2e
 1991 016f 01       		.byte	0x1
ARM GAS  C:\Users\danit\AppData\Local\Temp\ccj3s8Ie.s 			page 36


 1992 0170 3F       		.uleb128 0x3f
 1993 0171 19       		.uleb128 0x19
 1994 0172 03       		.uleb128 0x3
 1995 0173 0E       		.uleb128 0xe
 1996 0174 3A       		.uleb128 0x3a
 1997 0175 0B       		.uleb128 0xb
 1998 0176 3B       		.uleb128 0x3b
 1999 0177 0B       		.uleb128 0xb
 2000 0178 27       		.uleb128 0x27
 2001 0179 19       		.uleb128 0x19
 2002 017a 11       		.uleb128 0x11
 2003 017b 01       		.uleb128 0x1
 2004 017c 12       		.uleb128 0x12
 2005 017d 06       		.uleb128 0x6
 2006 017e 40       		.uleb128 0x40
 2007 017f 18       		.uleb128 0x18
 2008 0180 9742     		.uleb128 0x2117
 2009 0182 19       		.uleb128 0x19
 2010 0183 01       		.uleb128 0x1
 2011 0184 13       		.uleb128 0x13
 2012 0185 00       		.byte	0
 2013 0186 00       		.byte	0
 2014 0187 22       		.uleb128 0x22
 2015 0188 898201   		.uleb128 0x4109
 2016 018b 00       		.byte	0
 2017 018c 11       		.uleb128 0x11
 2018 018d 01       		.uleb128 0x1
 2019 018e 31       		.uleb128 0x31
 2020 018f 13       		.uleb128 0x13
 2021 0190 00       		.byte	0
 2022 0191 00       		.byte	0
 2023 0192 23       		.uleb128 0x23
 2024 0193 898201   		.uleb128 0x4109
 2025 0196 00       		.byte	0
 2026 0197 11       		.uleb128 0x11
 2027 0198 01       		.uleb128 0x1
 2028 0199 9542     		.uleb128 0x2115
 2029 019b 19       		.uleb128 0x19
 2030 019c 31       		.uleb128 0x31
 2031 019d 13       		.uleb128 0x13
 2032 019e 00       		.byte	0
 2033 019f 00       		.byte	0
 2034 01a0 24       		.uleb128 0x24
 2035 01a1 2E       		.uleb128 0x2e
 2036 01a2 01       		.byte	0x1
 2037 01a3 3F       		.uleb128 0x3f
 2038 01a4 19       		.uleb128 0x19
 2039 01a5 03       		.uleb128 0x3
 2040 01a6 0E       		.uleb128 0xe
 2041 01a7 3A       		.uleb128 0x3a
 2042 01a8 0B       		.uleb128 0xb
 2043 01a9 3B       		.uleb128 0x3b
 2044 01aa 05       		.uleb128 0x5
 2045 01ab 27       		.uleb128 0x27
 2046 01ac 19       		.uleb128 0x19
 2047 01ad 11       		.uleb128 0x11
 2048 01ae 01       		.uleb128 0x1
ARM GAS  C:\Users\danit\AppData\Local\Temp\ccj3s8Ie.s 			page 37


 2049 01af 12       		.uleb128 0x12
 2050 01b0 06       		.uleb128 0x6
 2051 01b1 40       		.uleb128 0x40
 2052 01b2 18       		.uleb128 0x18
 2053 01b3 9742     		.uleb128 0x2117
 2054 01b5 19       		.uleb128 0x19
 2055 01b6 01       		.uleb128 0x1
 2056 01b7 13       		.uleb128 0x13
 2057 01b8 00       		.byte	0
 2058 01b9 00       		.byte	0
 2059 01ba 25       		.uleb128 0x25
 2060 01bb 898201   		.uleb128 0x4109
 2061 01be 01       		.byte	0x1
 2062 01bf 11       		.uleb128 0x11
 2063 01c0 01       		.uleb128 0x1
 2064 01c1 31       		.uleb128 0x31
 2065 01c2 13       		.uleb128 0x13
 2066 01c3 00       		.byte	0
 2067 01c4 00       		.byte	0
 2068 01c5 26       		.uleb128 0x26
 2069 01c6 05       		.uleb128 0x5
 2070 01c7 00       		.byte	0
 2071 01c8 03       		.uleb128 0x3
 2072 01c9 0E       		.uleb128 0xe
 2073 01ca 3A       		.uleb128 0x3a
 2074 01cb 0B       		.uleb128 0xb
 2075 01cc 3B       		.uleb128 0x3b
 2076 01cd 05       		.uleb128 0x5
 2077 01ce 49       		.uleb128 0x49
 2078 01cf 13       		.uleb128 0x13
 2079 01d0 02       		.uleb128 0x2
 2080 01d1 17       		.uleb128 0x17
 2081 01d2 00       		.byte	0
 2082 01d3 00       		.byte	0
 2083 01d4 27       		.uleb128 0x27
 2084 01d5 34       		.uleb128 0x34
 2085 01d6 00       		.byte	0
 2086 01d7 03       		.uleb128 0x3
 2087 01d8 08       		.uleb128 0x8
 2088 01d9 3A       		.uleb128 0x3a
 2089 01da 0B       		.uleb128 0xb
 2090 01db 3B       		.uleb128 0x3b
 2091 01dc 05       		.uleb128 0x5
 2092 01dd 49       		.uleb128 0x49
 2093 01de 13       		.uleb128 0x13
 2094 01df 02       		.uleb128 0x2
 2095 01e0 17       		.uleb128 0x17
 2096 01e1 00       		.byte	0
 2097 01e2 00       		.byte	0
 2098 01e3 28       		.uleb128 0x28
 2099 01e4 898201   		.uleb128 0x4109
 2100 01e7 01       		.byte	0x1
 2101 01e8 11       		.uleb128 0x11
 2102 01e9 01       		.uleb128 0x1
 2103 01ea 31       		.uleb128 0x31
 2104 01eb 13       		.uleb128 0x13
 2105 01ec 01       		.uleb128 0x1
ARM GAS  C:\Users\danit\AppData\Local\Temp\ccj3s8Ie.s 			page 38


 2106 01ed 13       		.uleb128 0x13
 2107 01ee 00       		.byte	0
 2108 01ef 00       		.byte	0
 2109 01f0 29       		.uleb128 0x29
 2110 01f1 05       		.uleb128 0x5
 2111 01f2 00       		.byte	0
 2112 01f3 03       		.uleb128 0x3
 2113 01f4 0E       		.uleb128 0xe
 2114 01f5 3A       		.uleb128 0x3a
 2115 01f6 0B       		.uleb128 0xb
 2116 01f7 3B       		.uleb128 0x3b
 2117 01f8 05       		.uleb128 0x5
 2118 01f9 49       		.uleb128 0x49
 2119 01fa 13       		.uleb128 0x13
 2120 01fb 02       		.uleb128 0x2
 2121 01fc 18       		.uleb128 0x18
 2122 01fd 00       		.byte	0
 2123 01fe 00       		.byte	0
 2124 01ff 2A       		.uleb128 0x2a
 2125 0200 34       		.uleb128 0x34
 2126 0201 00       		.byte	0
 2127 0202 03       		.uleb128 0x3
 2128 0203 0E       		.uleb128 0xe
 2129 0204 3A       		.uleb128 0x3a
 2130 0205 0B       		.uleb128 0xb
 2131 0206 3B       		.uleb128 0x3b
 2132 0207 05       		.uleb128 0x5
 2133 0208 49       		.uleb128 0x49
 2134 0209 13       		.uleb128 0x13
 2135 020a 3F       		.uleb128 0x3f
 2136 020b 19       		.uleb128 0x19
 2137 020c 3C       		.uleb128 0x3c
 2138 020d 19       		.uleb128 0x19
 2139 020e 00       		.byte	0
 2140 020f 00       		.byte	0
 2141 0210 2B       		.uleb128 0x2b
 2142 0211 34       		.uleb128 0x34
 2143 0212 00       		.byte	0
 2144 0213 03       		.uleb128 0x3
 2145 0214 0E       		.uleb128 0xe
 2146 0215 3A       		.uleb128 0x3a
 2147 0216 0B       		.uleb128 0xb
 2148 0217 3B       		.uleb128 0x3b
 2149 0218 0B       		.uleb128 0xb
 2150 0219 49       		.uleb128 0x49
 2151 021a 13       		.uleb128 0x13
 2152 021b 3F       		.uleb128 0x3f
 2153 021c 19       		.uleb128 0x19
 2154 021d 02       		.uleb128 0x2
 2155 021e 18       		.uleb128 0x18
 2156 021f 00       		.byte	0
 2157 0220 00       		.byte	0
 2158 0221 2C       		.uleb128 0x2c
 2159 0222 2E       		.uleb128 0x2e
 2160 0223 00       		.byte	0
 2161 0224 3F       		.uleb128 0x3f
 2162 0225 19       		.uleb128 0x19
ARM GAS  C:\Users\danit\AppData\Local\Temp\ccj3s8Ie.s 			page 39


 2163 0226 03       		.uleb128 0x3
 2164 0227 0E       		.uleb128 0xe
 2165 0228 3A       		.uleb128 0x3a
 2166 0229 0B       		.uleb128 0xb
 2167 022a 3B       		.uleb128 0x3b
 2168 022b 05       		.uleb128 0x5
 2169 022c 27       		.uleb128 0x27
 2170 022d 19       		.uleb128 0x19
 2171 022e 3C       		.uleb128 0x3c
 2172 022f 19       		.uleb128 0x19
 2173 0230 00       		.byte	0
 2174 0231 00       		.byte	0
 2175 0232 2D       		.uleb128 0x2d
 2176 0233 2E       		.uleb128 0x2e
 2177 0234 01       		.byte	0x1
 2178 0235 3F       		.uleb128 0x3f
 2179 0236 19       		.uleb128 0x19
 2180 0237 03       		.uleb128 0x3
 2181 0238 0E       		.uleb128 0xe
 2182 0239 3A       		.uleb128 0x3a
 2183 023a 0B       		.uleb128 0xb
 2184 023b 3B       		.uleb128 0x3b
 2185 023c 0B       		.uleb128 0xb
 2186 023d 27       		.uleb128 0x27
 2187 023e 19       		.uleb128 0x19
 2188 023f 3C       		.uleb128 0x3c
 2189 0240 19       		.uleb128 0x19
 2190 0241 01       		.uleb128 0x1
 2191 0242 13       		.uleb128 0x13
 2192 0243 00       		.byte	0
 2193 0244 00       		.byte	0
 2194 0245 2E       		.uleb128 0x2e
 2195 0246 2E       		.uleb128 0x2e
 2196 0247 01       		.byte	0x1
 2197 0248 3F       		.uleb128 0x3f
 2198 0249 19       		.uleb128 0x19
 2199 024a 03       		.uleb128 0x3
 2200 024b 0E       		.uleb128 0xe
 2201 024c 3A       		.uleb128 0x3a
 2202 024d 0B       		.uleb128 0xb
 2203 024e 3B       		.uleb128 0x3b
 2204 024f 05       		.uleb128 0x5
 2205 0250 27       		.uleb128 0x27
 2206 0251 19       		.uleb128 0x19
 2207 0252 3C       		.uleb128 0x3c
 2208 0253 19       		.uleb128 0x19
 2209 0254 01       		.uleb128 0x1
 2210 0255 13       		.uleb128 0x13
 2211 0256 00       		.byte	0
 2212 0257 00       		.byte	0
 2213 0258 2F       		.uleb128 0x2f
 2214 0259 2E       		.uleb128 0x2e
 2215 025a 01       		.byte	0x1
 2216 025b 3F       		.uleb128 0x3f
 2217 025c 19       		.uleb128 0x19
 2218 025d 03       		.uleb128 0x3
 2219 025e 0E       		.uleb128 0xe
ARM GAS  C:\Users\danit\AppData\Local\Temp\ccj3s8Ie.s 			page 40


 2220 025f 3A       		.uleb128 0x3a
 2221 0260 0B       		.uleb128 0xb
 2222 0261 3B       		.uleb128 0x3b
 2223 0262 05       		.uleb128 0x5
 2224 0263 27       		.uleb128 0x27
 2225 0264 19       		.uleb128 0x19
 2226 0265 3C       		.uleb128 0x3c
 2227 0266 19       		.uleb128 0x19
 2228 0267 00       		.byte	0
 2229 0268 00       		.byte	0
 2230 0269 00       		.byte	0
 2231              		.section	.debug_loc,"",%progbits
 2232              	.Ldebug_loc0:
 2233              	.LLST0:
 2234 0000 0A000000 		.4byte	.LVL1
 2235 0004 6E000000 		.4byte	.LVL11
 2236 0008 0100     		.2byte	0x1
 2237 000a 54       		.byte	0x54
 2238 000b 70000000 		.4byte	.LVL12
 2239 000f 90000000 		.4byte	.LFE126
 2240 0013 0100     		.2byte	0x1
 2241 0015 54       		.byte	0x54
 2242 0016 00000000 		.4byte	0
 2243 001a 00000000 		.4byte	0
 2244              	.LLST1:
 2245 001e 1E000000 		.4byte	.LVL3
 2246 0022 28000000 		.4byte	.LVL4
 2247 0026 0100     		.2byte	0x1
 2248 0028 53       		.byte	0x53
 2249 0029 28000000 		.4byte	.LVL4
 2250 002d 2B000000 		.4byte	.LVL5-1
 2251 0031 0500     		.2byte	0x5
 2252 0033 03       		.byte	0x3
 2253 0034 00000000 		.4byte	ICUD1
 2254 0038 86000000 		.4byte	.LVL14
 2255 003c 88000000 		.4byte	.LVL15
 2256 0040 0100     		.2byte	0x1
 2257 0042 53       		.byte	0x53
 2258 0043 88000000 		.4byte	.LVL15
 2259 0047 90000000 		.4byte	.LFE126
 2260 004b 0500     		.2byte	0x5
 2261 004d 03       		.byte	0x3
 2262 004e 00000000 		.4byte	ICUD1
 2263 0052 00000000 		.4byte	0
 2264 0056 00000000 		.4byte	0
 2265              	.LLST2:
 2266 005a 50000000 		.4byte	.LVL8
 2267 005e 5C000000 		.4byte	.LVL9
 2268 0062 0100     		.2byte	0x1
 2269 0064 53       		.byte	0x53
 2270 0065 5C000000 		.4byte	.LVL9
 2271 0069 5F000000 		.4byte	.LVL10-1
 2272 006d 0500     		.2byte	0x5
 2273 006f 03       		.byte	0x3
 2274 0070 00000000 		.4byte	ICUD1
 2275 0074 00000000 		.4byte	0
 2276 0078 00000000 		.4byte	0
ARM GAS  C:\Users\danit\AppData\Local\Temp\ccj3s8Ie.s 			page 41


 2277              	.LLST3:
 2278 007c 00000000 		.4byte	.LVL21
 2279 0080 16000000 		.4byte	.LVL22
 2280 0084 0100     		.2byte	0x1
 2281 0086 50       		.byte	0x50
 2282 0087 16000000 		.4byte	.LVL22
 2283 008b 82000000 		.4byte	.LVL27
 2284 008f 0100     		.2byte	0x1
 2285 0091 54       		.byte	0x54
 2286 0092 82000000 		.4byte	.LVL27
 2287 0096 88000000 		.4byte	.LVL28
 2288 009a 0100     		.2byte	0x1
 2289 009c 50       		.byte	0x50
 2290 009d 88000000 		.4byte	.LVL28
 2291 00a1 8C000000 		.4byte	.LVL29
 2292 00a5 0100     		.2byte	0x1
 2293 00a7 54       		.byte	0x54
 2294 00a8 8C000000 		.4byte	.LVL29
 2295 00ac A2000000 		.4byte	.LVL30
 2296 00b0 0100     		.2byte	0x1
 2297 00b2 50       		.byte	0x50
 2298 00b3 A2000000 		.4byte	.LVL30
 2299 00b7 C4000000 		.4byte	.LFE122
 2300 00bb 0100     		.2byte	0x1
 2301 00bd 54       		.byte	0x54
 2302 00be 00000000 		.4byte	0
 2303 00c2 00000000 		.4byte	0
 2304              	.LLST4:
 2305 00c6 36000000 		.4byte	.LVL23
 2306 00ca 38000000 		.4byte	.LVL24
 2307 00ce 1000     		.2byte	0x10
 2308 00d0 74       		.byte	0x74
 2309 00d1 08       		.sleb128 8
 2310 00d2 06       		.byte	0x6
 2311 00d3 F7       		.byte	0xf7
 2312 00d4 25       		.uleb128 0x25
 2313 00d5 71       		.byte	0x71
 2314 00d6 04       		.sleb128 4
 2315 00d7 06       		.byte	0x6
 2316 00d8 F7       		.byte	0xf7
 2317 00d9 25       		.uleb128 0x25
 2318 00da 1B       		.byte	0x1b
 2319 00db F7       		.byte	0xf7
 2320 00dc 00       		.uleb128 0
 2321 00dd 31       		.byte	0x31
 2322 00de 1C       		.byte	0x1c
 2323 00df 9F       		.byte	0x9f
 2324 00e0 00000000 		.4byte	0
 2325 00e4 00000000 		.4byte	0
 2326              	.LLST5:
 2327 00e8 00000000 		.4byte	.LVL33
 2328 00ec 08000000 		.4byte	.LVL34
 2329 00f0 0100     		.2byte	0x1
 2330 00f2 50       		.byte	0x50
 2331 00f3 08000000 		.4byte	.LVL34
 2332 00f7 0A000000 		.4byte	.LVL35
 2333 00fb 0400     		.2byte	0x4
ARM GAS  C:\Users\danit\AppData\Local\Temp\ccj3s8Ie.s 			page 42


 2334 00fd F3       		.byte	0xf3
 2335 00fe 01       		.uleb128 0x1
 2336 00ff 50       		.byte	0x50
 2337 0100 9F       		.byte	0x9f
 2338 0101 0A000000 		.4byte	.LVL35
 2339 0105 1C000000 		.4byte	.LVL36
 2340 0109 0100     		.2byte	0x1
 2341 010b 50       		.byte	0x50
 2342 010c 1C000000 		.4byte	.LVL36
 2343 0110 3C000000 		.4byte	.LFE123
 2344 0114 0400     		.2byte	0x4
 2345 0116 F3       		.byte	0xf3
 2346 0117 01       		.uleb128 0x1
 2347 0118 50       		.byte	0x50
 2348 0119 9F       		.byte	0x9f
 2349 011a 00000000 		.4byte	0
 2350 011e 00000000 		.4byte	0
 2351              	.LLST6:
 2352 0122 00000000 		.4byte	.LVL39
 2353 0126 08000000 		.4byte	.LVL40
 2354 012a 0100     		.2byte	0x1
 2355 012c 50       		.byte	0x50
 2356 012d 08000000 		.4byte	.LVL40
 2357 0131 58000000 		.4byte	.LFE124
 2358 0135 0400     		.2byte	0x4
 2359 0137 F3       		.byte	0xf3
 2360 0138 01       		.uleb128 0x1
 2361 0139 50       		.byte	0x50
 2362 013a 9F       		.byte	0x9f
 2363 013b 00000000 		.4byte	0
 2364 013f 00000000 		.4byte	0
 2365              		.section	.debug_aranges,"",%progbits
 2366 0000 54000000 		.4byte	0x54
 2367 0004 0200     		.2byte	0x2
 2368 0006 00000000 		.4byte	.Ldebug_info0
 2369 000a 04       		.byte	0x4
 2370 000b 00       		.byte	0
 2371 000c 0000     		.2byte	0
 2372 000e 0000     		.2byte	0
 2373 0010 00000000 		.4byte	.LFB126
 2374 0014 90000000 		.4byte	.LFE126-.LFB126
 2375 0018 00000000 		.4byte	.LFB119
 2376 001c 0E000000 		.4byte	.LFE119-.LFB119
 2377 0020 00000000 		.4byte	.LFB120
 2378 0024 0E000000 		.4byte	.LFE120-.LFB120
 2379 0028 00000000 		.4byte	.LFB121
 2380 002c 18000000 		.4byte	.LFE121-.LFB121
 2381 0030 00000000 		.4byte	.LFB122
 2382 0034 C4000000 		.4byte	.LFE122-.LFB122
 2383 0038 00000000 		.4byte	.LFB123
 2384 003c 3C000000 		.4byte	.LFE123-.LFB123
 2385 0040 00000000 		.4byte	.LFB124
 2386 0044 58000000 		.4byte	.LFE124-.LFB124
 2387 0048 00000000 		.4byte	.LFB125
 2388 004c 12000000 		.4byte	.LFE125-.LFB125
 2389 0050 00000000 		.4byte	0
 2390 0054 00000000 		.4byte	0
ARM GAS  C:\Users\danit\AppData\Local\Temp\ccj3s8Ie.s 			page 43


 2391              		.section	.debug_ranges,"",%progbits
 2392              	.Ldebug_ranges0:
 2393 0000 00000000 		.4byte	.LFB126
 2394 0004 90000000 		.4byte	.LFE126
 2395 0008 00000000 		.4byte	.LFB119
 2396 000c 0E000000 		.4byte	.LFE119
 2397 0010 00000000 		.4byte	.LFB120
 2398 0014 0E000000 		.4byte	.LFE120
 2399 0018 00000000 		.4byte	.LFB121
 2400 001c 18000000 		.4byte	.LFE121
 2401 0020 00000000 		.4byte	.LFB122
 2402 0024 C4000000 		.4byte	.LFE122
 2403 0028 00000000 		.4byte	.LFB123
 2404 002c 3C000000 		.4byte	.LFE123
 2405 0030 00000000 		.4byte	.LFB124
 2406 0034 58000000 		.4byte	.LFE124
 2407 0038 00000000 		.4byte	.LFB125
 2408 003c 12000000 		.4byte	.LFE125
 2409 0040 00000000 		.4byte	0
 2410 0044 00000000 		.4byte	0
 2411              		.section	.debug_line,"",%progbits
 2412              	.Ldebug_line0:
 2413 0000 5A030000 		.section	.debug_str,"MS",%progbits,1
 2413      02004402 
 2413      00000201 
 2413      FB0E0D00 
 2413      01010101 
 2414              	.LASF34:
 2415 0000 41484231 		.ascii	"AHB1LPENR\000"
 2415      4C50454E 
 2415      5200
 2416              	.LASF93:
 2417 000a 6963755F 		.ascii	"icu_lld_stop\000"
 2417      6C6C645F 
 2417      73746F70 
 2417      00
 2418              	.LASF52:
 2419 0017 43434552 		.ascii	"CCER\000"
 2419      00
 2420              	.LASF47:
 2421 001c 5243435F 		.ascii	"RCC_TypeDef\000"
 2421      54797065 
 2421      44656600 
 2422              	.LASF60:
 2423 0028 4943555F 		.ascii	"ICU_STOP\000"
 2423      53544F50 
 2423      00
 2424              	.LASF79:
 2425 0031 69637563 		.ascii	"icuchannel_t\000"
 2425      68616E6E 
 2425      656C5F74 
 2425      00
 2426              	.LASF92:
 2427 003e 6963755F 		.ascii	"icu_lld_start\000"
 2427      6C6C645F 
 2427      73746172 
 2427      7400
ARM GAS  C:\Users\danit\AppData\Local\Temp\ccj3s8Ie.s 			page 44


 2428              	.LASF28:
 2429 004c 41484232 		.ascii	"AHB2ENR\000"
 2429      454E5200 
 2430              	.LASF54:
 2431 0054 444D4152 		.ascii	"DMAR\000"
 2431      00
 2432              	.LASF67:
 2433 0059 73746174 		.ascii	"state\000"
 2433      6500
 2434              	.LASF51:
 2435 005f 43434D52 		.ascii	"CCMR2\000"
 2435      3200
 2436              	.LASF3:
 2437 0065 73686F72 		.ascii	"short int\000"
 2437      7420696E 
 2437      7400
 2438              	.LASF94:
 2439 006f 69637570 		.ascii	"icup\000"
 2439      00
 2440              	.LASF16:
 2441 0074 73697A65 		.ascii	"sizetype\000"
 2441      74797065 
 2441      00
 2442              	.LASF41:
 2443 007d 42444352 		.ascii	"BDCR\000"
 2443      00
 2444              	.LASF95:
 2445 0082 6963755F 		.ascii	"icu_lld_enable\000"
 2445      6C6C645F 
 2445      656E6162 
 2445      6C6500
 2446              	.LASF44:
 2447 0091 504C4C49 		.ascii	"PLLI2SCFGR\000"
 2447      32534346 
 2447      475200
 2448              	.LASF8:
 2449 009c 5F5F7569 		.ascii	"__uint32_t\000"
 2449      6E743332 
 2449      5F7400
 2450              	.LASF24:
 2451 00a7 41504231 		.ascii	"APB1RSTR\000"
 2451      52535452 
 2451      00
 2452              	.LASF80:
 2453 00b0 6D6F6465 		.ascii	"mode\000"
 2453      00
 2454              	.LASF5:
 2455 00b5 5F5F7569 		.ascii	"__uint16_t\000"
 2455      6E743136 
 2455      5F7400
 2456              	.LASF96:
 2457 00c0 6963755F 		.ascii	"icu_lld_disable\000"
 2457      6C6C645F 
 2457      64697361 
 2457      626C6500 
 2458              	.LASF20:
 2459 00d0 41484231 		.ascii	"AHB1RSTR\000"
ARM GAS  C:\Users\danit\AppData\Local\Temp\ccj3s8Ie.s 			page 45


 2459      52535452 
 2459      00
 2460              	.LASF68:
 2461 00d9 636F6E66 		.ascii	"config\000"
 2461      696700
 2462              	.LASF19:
 2463 00e0 43464752 		.ascii	"CFGR\000"
 2463      00
 2464              	.LASF26:
 2465 00e5 52455345 		.ascii	"RESERVED1\000"
 2465      52564544 
 2465      3100
 2466              	.LASF36:
 2467 00ef 41484233 		.ascii	"AHB3LPENR\000"
 2467      4C50454E 
 2467      5200
 2468              	.LASF31:
 2469 00f9 41504231 		.ascii	"APB1ENR\000"
 2469      454E5200 
 2470              	.LASF77:
 2471 0101 4943555F 		.ascii	"ICU_CHANNEL_1\000"
 2471      4348414E 
 2471      4E454C5F 
 2471      3100
 2472              	.LASF78:
 2473 010f 4943555F 		.ascii	"ICU_CHANNEL_2\000"
 2473      4348414E 
 2473      4E454C5F 
 2473      3200
 2474              	.LASF89:
 2475 011d 56656374 		.ascii	"VectorA4\000"
 2475      6F724134 
 2475      00
 2476              	.LASF46:
 2477 0126 44434B43 		.ascii	"DCKCFGR\000"
 2477      46475200 
 2478              	.LASF82:
 2479 012e 77696474 		.ascii	"width_cb\000"
 2479      685F6362 
 2479      00
 2480              	.LASF63:
 2481 0137 4943555F 		.ascii	"ICU_ACTIVE\000"
 2481      41435449 
 2481      564500
 2482              	.LASF10:
 2483 0142 6C6F6E67 		.ascii	"long long int\000"
 2483      206C6F6E 
 2483      6720696E 
 2483      7400
 2484              	.LASF11:
 2485 0150 6C6F6E67 		.ascii	"long long unsigned int\000"
 2485      206C6F6E 
 2485      6720756E 
 2485      7369676E 
 2485      65642069 
 2486              	.LASF75:
 2487 0167 6963756D 		.ascii	"icumode_t\000"
ARM GAS  C:\Users\danit\AppData\Local\Temp\ccj3s8Ie.s 			page 46


 2487      6F64655F 
 2487      7400
 2488              	.LASF102:
 2489 0171 2E2E2F2E 		.ascii	"../../../ChibiOS/os/hal/platforms/STM32/TIMv1/icu_l"
 2489      2E2F2E2E 
 2489      2F436869 
 2489      62694F53 
 2489      2F6F732F 
 2490 01a4 6C642E63 		.ascii	"ld.c\000"
 2490      00
 2491              	.LASF70:
 2492 01a9 77636372 		.ascii	"wccrp\000"
 2492      7000
 2493              	.LASF7:
 2494 01af 6C6F6E67 		.ascii	"long int\000"
 2494      20696E74 
 2494      00
 2495              	.LASF106:
 2496 01b8 6E766963 		.ascii	"nvicDisableVector\000"
 2496      44697361 
 2496      626C6556 
 2496      6563746F 
 2496      7200
 2497              	.LASF56:
 2498 01ca 43435235 		.ascii	"CCR5\000"
 2498      00
 2499              	.LASF57:
 2500 01cf 43435236 		.ascii	"CCR6\000"
 2500      00
 2501              	.LASF9:
 2502 01d4 6C6F6E67 		.ascii	"long unsigned int\000"
 2502      20756E73 
 2502      69676E65 
 2502      6420696E 
 2502      7400
 2503              	.LASF71:
 2504 01e6 70636372 		.ascii	"pccrp\000"
 2504      7000
 2505              	.LASF25:
 2506 01ec 41504232 		.ascii	"APB2RSTR\000"
 2506      52535452 
 2506      00
 2507              	.LASF50:
 2508 01f5 43434D52 		.ascii	"CCMR1\000"
 2508      3100
 2509              	.LASF55:
 2510 01fb 43434D52 		.ascii	"CCMR3\000"
 2510      3300
 2511              	.LASF29:
 2512 0201 41484233 		.ascii	"AHB3ENR\000"
 2512      454E5200 
 2513              	.LASF64:
 2514 0209 4943555F 		.ascii	"ICU_IDLE\000"
 2514      49444C45 
 2514      00
 2515              	.LASF14:
 2516 0212 75696E74 		.ascii	"uint32_t\000"
ARM GAS  C:\Users\danit\AppData\Local\Temp\ccj3s8Ie.s 			page 47


 2516      33325F74 
 2516      00
 2517              	.LASF48:
 2518 021b 534D4352 		.ascii	"SMCR\000"
 2518      00
 2519              	.LASF105:
 2520 0220 5F706F72 		.ascii	"_port_irq_epilogue\000"
 2520      745F6972 
 2520      715F6570 
 2520      696C6F67 
 2520      756500
 2521              	.LASF2:
 2522 0233 756E7369 		.ascii	"unsigned char\000"
 2522      676E6564 
 2522      20636861 
 2522      7200
 2523              	.LASF87:
 2524 0241 49435543 		.ascii	"ICUConfig\000"
 2524      6F6E6669 
 2524      6700
 2525              	.LASF98:
 2526 024b 49435544 		.ascii	"ICUD1\000"
 2526      3100
 2527              	.LASF103:
 2528 0251 443A5C44 		.ascii	"D:\\Dani\\MegaLux\\Repo\\Smarty\\Smarty\\smarty\\fi"
 2528      616E695C 
 2528      4D656761 
 2528      4C75785C 
 2528      5265706F 
 2529 027d 726D7761 		.ascii	"rmware\000"
 2529      726500
 2530              	.LASF32:
 2531 0284 41504232 		.ascii	"APB2ENR\000"
 2531      454E5200 
 2532              	.LASF90:
 2533 028c 56656374 		.ascii	"VectorAC\000"
 2533      6F724143 
 2533      00
 2534              	.LASF100:
 2535 0295 6E766963 		.ascii	"nvicEnableVector\000"
 2535      456E6162 
 2535      6C655665 
 2535      63746F72 
 2535      00
 2536              	.LASF88:
 2537 02a6 70726576 		.ascii	"previous_state\000"
 2537      696F7573 
 2537      5F737461 
 2537      746500
 2538              	.LASF1:
 2539 02b5 7369676E 		.ascii	"signed char\000"
 2539      65642063 
 2539      68617200 
 2540              	.LASF91:
 2541 02c1 6963755F 		.ascii	"icu_lld_init\000"
 2541      6C6C645F 
 2541      696E6974 
ARM GAS  C:\Users\danit\AppData\Local\Temp\ccj3s8Ie.s 			page 48


 2541      00
 2542              	.LASF101:
 2543 02ce 474E5520 		.ascii	"GNU C 4.9.3 20150529 (release) [ARM/embedded-4_9-br"
 2543      4320342E 
 2543      392E3320 
 2543      32303135 
 2543      30353239 
 2544 0301 616E6368 		.ascii	"anch revision 224288] -mcpu=cortex-m4 -mno-thumb-in"
 2544      20726576 
 2544      6973696F 
 2544      6E203232 
 2544      34323838 
 2545 0334 74657277 		.ascii	"terwork -mthumb -ggdb -O2 -fomit-frame-pointer -fal"
 2545      6F726B20 
 2545      2D6D7468 
 2545      756D6220 
 2545      2D676764 
 2546 0367 69676E2D 		.ascii	"ign-functions=16 -ffunction-sections -fdata-section"
 2546      66756E63 
 2546      74696F6E 
 2546      733D3136 
 2546      202D6666 
 2547 039a 73202D66 		.ascii	"s -fno-common\000"
 2547      6E6F2D63 
 2547      6F6D6D6F 
 2547      6E00
 2548              	.LASF0:
 2549 03a8 756E7369 		.ascii	"unsigned int\000"
 2549      676E6564 
 2549      20696E74 
 2549      00
 2550              	.LASF21:
 2551 03b5 41484232 		.ascii	"AHB2RSTR\000"
 2551      52535452 
 2551      00
 2552              	.LASF12:
 2553 03be 75696E74 		.ascii	"uint16_t\000"
 2553      31365F74 
 2553      00
 2554              	.LASF49:
 2555 03c7 44494552 		.ascii	"DIER\000"
 2555      00
 2556              	.LASF76:
 2557 03cc 69637566 		.ascii	"icufreq_t\000"
 2557      7265715F 
 2557      7400
 2558              	.LASF15:
 2559 03d6 5F426F6F 		.ascii	"_Bool\000"
 2559      6C00
 2560              	.LASF4:
 2561 03dc 73686F72 		.ascii	"short unsigned int\000"
 2561      7420756E 
 2561      7369676E 
 2561      65642069 
 2561      6E7400
 2562              	.LASF38:
 2563 03ef 41504231 		.ascii	"APB1LPENR\000"
ARM GAS  C:\Users\danit\AppData\Local\Temp\ccj3s8Ie.s 			page 49


 2563      4C50454E 
 2563      5200
 2564              	.LASF17:
 2565 03f9 63686172 		.ascii	"char\000"
 2565      00
 2566              	.LASF72:
 2567 03fe 69637563 		.ascii	"icucallback_t\000"
 2567      616C6C62 
 2567      61636B5F 
 2567      7400
 2568              	.LASF58:
 2569 040c 73746D33 		.ascii	"stm32_tim_t\000"
 2569      325F7469 
 2569      6D5F7400 
 2570              	.LASF83:
 2571 0418 70657269 		.ascii	"period_cb\000"
 2571      6F645F63 
 2571      6200
 2572              	.LASF53:
 2573 0422 42445452 		.ascii	"BDTR\000"
 2573      00
 2574              	.LASF13:
 2575 0427 696E7433 		.ascii	"int32_t\000"
 2575      325F7400 
 2576              	.LASF74:
 2577 042f 4943555F 		.ascii	"ICU_INPUT_ACTIVE_LOW\000"
 2577      494E5055 
 2577      545F4143 
 2577      54495645 
 2577      5F4C4F57 
 2578              	.LASF43:
 2579 0444 53534347 		.ascii	"SSCGR\000"
 2579      5200
 2580              	.LASF85:
 2581 044a 6368616E 		.ascii	"channel\000"
 2581      6E656C00 
 2582              	.LASF59:
 2583 0452 4943555F 		.ascii	"ICU_UNINIT\000"
 2583      554E494E 
 2583      495400
 2584              	.LASF35:
 2585 045d 41484232 		.ascii	"AHB2LPENR\000"
 2585      4C50454E 
 2585      5200
 2586              	.LASF23:
 2587 0467 52455345 		.ascii	"RESERVED0\000"
 2587      52564544 
 2587      3000
 2588              	.LASF73:
 2589 0471 4943555F 		.ascii	"ICU_INPUT_ACTIVE_HIGH\000"
 2589      494E5055 
 2589      545F4143 
 2589      54495645 
 2589      5F484947 
 2590              	.LASF30:
 2591 0487 52455345 		.ascii	"RESERVED2\000"
 2591      52564544 
ARM GAS  C:\Users\danit\AppData\Local\Temp\ccj3s8Ie.s 			page 50


 2591      3200
 2592              	.LASF33:
 2593 0491 52455345 		.ascii	"RESERVED3\000"
 2593      52564544 
 2593      3300
 2594              	.LASF37:
 2595 049b 52455345 		.ascii	"RESERVED4\000"
 2595      52564544 
 2595      3400
 2596              	.LASF40:
 2597 04a5 52455345 		.ascii	"RESERVED5\000"
 2597      52564544 
 2597      3500
 2598              	.LASF42:
 2599 04af 52455345 		.ascii	"RESERVED6\000"
 2599      52564544 
 2599      3600
 2600              	.LASF69:
 2601 04b9 636C6F63 		.ascii	"clock\000"
 2601      6B00
 2602              	.LASF27:
 2603 04bf 41484231 		.ascii	"AHB1ENR\000"
 2603      454E5200 
 2604              	.LASF84:
 2605 04c7 6F766572 		.ascii	"overflow_cb\000"
 2605      666C6F77 
 2605      5F636200 
 2606              	.LASF6:
 2607 04d3 5F5F696E 		.ascii	"__int32_t\000"
 2607      7433325F 
 2607      7400
 2608              	.LASF86:
 2609 04dd 64696572 		.ascii	"dier\000"
 2609      00
 2610              	.LASF66:
 2611 04e2 49435544 		.ascii	"ICUDriver\000"
 2611      72697665 
 2611      7200
 2612              	.LASF81:
 2613 04ec 66726571 		.ascii	"frequency\000"
 2613      75656E63 
 2613      7900
 2614              	.LASF61:
 2615 04f6 4943555F 		.ascii	"ICU_READY\000"
 2615      52454144 
 2615      5900
 2616              	.LASF104:
 2617 0500 6963755F 		.ascii	"icu_lld_serve_interrupt\000"
 2617      6C6C645F 
 2617      73657276 
 2617      655F696E 
 2617      74657272 
 2618              	.LASF22:
 2619 0518 41484233 		.ascii	"AHB3RSTR\000"
 2619      52535452 
 2619      00
 2620              	.LASF99:
ARM GAS  C:\Users\danit\AppData\Local\Temp\ccj3s8Ie.s 			page 51


 2621 0521 6963754F 		.ascii	"icuObjectInit\000"
 2621      626A6563 
 2621      74496E69 
 2621      7400
 2622              	.LASF97:
 2623 052f 49544D5F 		.ascii	"ITM_RxBuffer\000"
 2623      52784275 
 2623      66666572 
 2623      00
 2624              	.LASF18:
 2625 053c 504C4C43 		.ascii	"PLLCFGR\000"
 2625      46475200 
 2626              	.LASF45:
 2627 0544 504C4C53 		.ascii	"PLLSAICFGR\000"
 2627      41494346 
 2627      475200
 2628              	.LASF39:
 2629 054f 41504232 		.ascii	"APB2LPENR\000"
 2629      4C50454E 
 2629      5200
 2630              	.LASF65:
 2631 0559 69637573 		.ascii	"icustate_t\000"
 2631      74617465 
 2631      5F7400
 2632              	.LASF62:
 2633 0564 4943555F 		.ascii	"ICU_WAITING\000"
 2633      57414954 
 2633      494E4700 
 2634              		.ident	"GCC: (GNU Tools for ARM Embedded Processors) 4.9.3 20150529 (release) [ARM/embedded-4_9-br
ARM GAS  C:\Users\danit\AppData\Local\Temp\ccj3s8Ie.s 			page 52


DEFINED SYMBOLS
                            *ABS*:00000000 icu_lld.c
C:\Users\danit\AppData\Local\Temp\ccj3s8Ie.s:19     .text.icu_lld_serve_interrupt.constprop.0:00000000 $t
C:\Users\danit\AppData\Local\Temp\ccj3s8Ie.s:24     .text.icu_lld_serve_interrupt.constprop.0:00000000 icu_lld_serve_interrupt.constprop.0
C:\Users\danit\AppData\Local\Temp\ccj3s8Ie.s:166    .text.icu_lld_serve_interrupt.constprop.0:0000008c $d
C:\Users\danit\AppData\Local\Temp\ccj3s8Ie.s:171    .text.VectorA4:00000000 $t
C:\Users\danit\AppData\Local\Temp\ccj3s8Ie.s:177    .text.VectorA4:00000000 VectorA4
C:\Users\danit\AppData\Local\Temp\ccj3s8Ie.s:202    .text.VectorAC:00000000 $t
C:\Users\danit\AppData\Local\Temp\ccj3s8Ie.s:208    .text.VectorAC:00000000 VectorAC
C:\Users\danit\AppData\Local\Temp\ccj3s8Ie.s:233    .text.icu_lld_init:00000000 $t
C:\Users\danit\AppData\Local\Temp\ccj3s8Ie.s:239    .text.icu_lld_init:00000000 icu_lld_init
C:\Users\danit\AppData\Local\Temp\ccj3s8Ie.s:261    .text.icu_lld_init:00000010 $d
C:\Users\danit\AppData\Local\Temp\ccj3s8Ie.s:267    .text.icu_lld_start:00000000 $t
C:\Users\danit\AppData\Local\Temp\ccj3s8Ie.s:273    .text.icu_lld_start:00000000 icu_lld_start
C:\Users\danit\AppData\Local\Temp\ccj3s8Ie.s:444    .text.icu_lld_start:000000b8 $d
C:\Users\danit\AppData\Local\Temp\ccj3s8Ie.s:451    .text.icu_lld_stop:00000000 $t
C:\Users\danit\AppData\Local\Temp\ccj3s8Ie.s:457    .text.icu_lld_stop:00000000 icu_lld_stop
C:\Users\danit\AppData\Local\Temp\ccj3s8Ie.s:510    .text.icu_lld_stop:00000034 $d
C:\Users\danit\AppData\Local\Temp\ccj3s8Ie.s:516    .text.icu_lld_enable:00000000 $t
C:\Users\danit\AppData\Local\Temp\ccj3s8Ie.s:522    .text.icu_lld_enable:00000000 icu_lld_enable
C:\Users\danit\AppData\Local\Temp\ccj3s8Ie.s:606    .text.icu_lld_disable:00000000 $t
C:\Users\danit\AppData\Local\Temp\ccj3s8Ie.s:612    .text.icu_lld_disable:00000000 icu_lld_disable
C:\Users\danit\AppData\Local\Temp\ccj3s8Ie.s:640    .bss.ICUD1:00000000 ICUD1
C:\Users\danit\AppData\Local\Temp\ccj3s8Ie.s:636    .bss.ICUD1:00000000 $d
                     .debug_frame:00000010 $d

UNDEFINED SYMBOLS
_port_irq_epilogue
icuObjectInit
nvicEnableVector
nvicDisableVector
