ARM GAS  C:\Users\danit\AppData\Local\Temp\ccj3s8Ie.s 			page 1


   1              		.syntax unified
   2              		.cpu cortex-m4
   3              		.fpu softvfp
   4              		.eabi_attribute 20, 1
   5              		.eabi_attribute 21, 1
   6              		.eabi_attribute 23, 3
   7              		.eabi_attribute 24, 1
   8              		.eabi_attribute 25, 1
   9              		.eabi_attribute 26, 1
  10              		.eabi_attribute 30, 2
  11              		.eabi_attribute 34, 1
  12              		.eabi_attribute 18, 4
  13              		.thumb
  14              		.file	"icu_lld.c"
  15              		.text
  16              	.Ltext0:
  17              		.cfi_sections	.debug_frame
  18              		.section	.text.icu_lld_serve_interrupt.constprop.0,"ax",%progbits
  19              		.align	2
  20              		.p2align 4,,15
  21              		.thumb
  22              		.thumb_func
  23              		.type	icu_lld_serve_interrupt.constprop.0, %function
  24              	icu_lld_serve_interrupt.constprop.0:
  25              	.LFB126:
  26              		.file 1 "../../../ChibiOS/os/hal/platforms/STM32/TIMv1/icu_lld.c"
  27              		.loc 1 111 0
  28              		.cfi_startproc
  29              		@ args = 0, pretend = 0, frame = 0
  30              		@ frame_needed = 0, uses_anonymous_args = 0
  31              	.LVL0:
  32 0000 70B5     		push	{r4, r5, r6, lr}
  33              		.cfi_def_cfa_offset 16
  34              		.cfi_offset 4, -16
  35              		.cfi_offset 5, -12
  36              		.cfi_offset 6, -8
  37              		.cfi_offset 14, -4
  38              		.loc 1 114 0
  39 0002 224D     		ldr	r5, .L33
  40 0004 EB68     		ldr	r3, [r5, #12]
  41              		.loc 1 117 0
  42 0006 6968     		ldr	r1, [r5, #4]
  43              		.loc 1 114 0
  44 0008 1C69     		ldr	r4, [r3, #16]
  45              	.LVL1:
  46              		.loc 1 115 0
  47 000a DA68     		ldr	r2, [r3, #12]
  48              		.loc 1 117 0
  49 000c 087D     		ldrb	r0, [r1, #20]	@ zero_extendqisi2
  50              		.loc 1 115 0
  51 000e D2B2     		uxtb	r2, r2
  52 0010 1440     		ands	r4, r4, r2
  53              	.LVL2:
  54              		.loc 1 116 0
  55 0012 E243     		mvns	r2, r4
  56 0014 1A61     		str	r2, [r3, #16]
  57              		.loc 1 117 0
ARM GAS  C:\Users\danit\AppData\Local\Temp\ccj3s8Ie.s 			page 2


  58 0016 70B9     		cbnz	r0, .L2
  59              		.loc 1 118 0
  60 0018 A307     		lsls	r3, r4, #30
  61 001a 07D5     		bpl	.L3
  62              	.LBB4:
  63              		.loc 1 119 0
  64 001c 2B78     		ldrb	r3, [r5]	@ zero_extendqisi2
  65              	.LVL3:
  66 001e 0422     		movs	r2, #4
  67 0020 032B     		cmp	r3, #3
  68 0022 2A70     		strb	r2, [r5]
  69 0024 2FD0     		beq	.L4
  70 0026 CB68     		ldr	r3, [r1, #12]
  71              	.LVL4:
  72 0028 2846     		mov	r0, r5
  73 002a 9847     		blx	r3
  74              	.LVL5:
  75              	.L3:
  76              	.LBE4:
  77              		.loc 1 120 0
  78 002c 6607     		lsls	r6, r4, #29
  79 002e 1FD4     		bmi	.L31
  80              	.L6:
  81              		.loc 1 128 0
  82 0030 E207     		lsls	r2, r4, #31
  83 0032 17D4     		bmi	.L32
  84              	.L1:
  85 0034 70BD     		pop	{r4, r5, r6, pc}
  86              	.LVL6:
  87              	.L2:
  88              		.loc 1 123 0
  89 0036 A007     		lsls	r0, r4, #30
  90 0038 07D5     		bpl	.L8
  91              		.loc 1 124 0
  92 003a 2B78     		ldrb	r3, [r5]	@ zero_extendqisi2
  93 003c 032B     		cmp	r3, #3
  94 003e 04D0     		beq	.L8
  95 0040 0522     		movs	r2, #5
  96 0042 8B68     		ldr	r3, [r1, #8]
  97 0044 2A70     		strb	r2, [r5]
  98 0046 2846     		mov	r0, r5
  99 0048 9847     		blx	r3
 100              	.LVL7:
 101              	.L8:
 102              		.loc 1 125 0
 103 004a 6107     		lsls	r1, r4, #29
 104 004c F0D5     		bpl	.L6
 105              	.LBB5:
 106              		.loc 1 126 0
 107 004e 2B78     		ldrb	r3, [r5]	@ zero_extendqisi2
 108              	.LVL8:
 109 0050 0E48     		ldr	r0, .L33
 110 0052 0422     		movs	r2, #4
 111 0054 032B     		cmp	r3, #3
 112 0056 2A70     		strb	r2, [r5]
 113 0058 EAD0     		beq	.L6
 114 005a 4368     		ldr	r3, [r0, #4]
ARM GAS  C:\Users\danit\AppData\Local\Temp\ccj3s8Ie.s 			page 3


 115              	.LVL9:
 116 005c DB68     		ldr	r3, [r3, #12]
 117 005e 9847     		blx	r3
 118              	.LVL10:
 119              	.LBE5:
 120              		.loc 1 128 0
 121 0060 E207     		lsls	r2, r4, #31
 122 0062 E7D5     		bpl	.L1
 123              	.L32:
 124              		.loc 1 129 0
 125 0064 6B68     		ldr	r3, [r5, #4]
 126 0066 0948     		ldr	r0, .L33
 127 0068 1B69     		ldr	r3, [r3, #16]
 128              		.loc 1 130 0
 129 006a BDE87040 		pop	{r4, r5, r6, lr}
 130              		.cfi_remember_state
 131              		.cfi_restore 14
 132              		.cfi_restore 6
 133              		.cfi_restore 5
 134              		.cfi_restore 4
 135              		.cfi_def_cfa_offset 0
 136              	.LVL11:
 137              		.loc 1 129 0
 138 006e 1847     		bx	r3	@ indirect register sibling call
 139              	.LVL12:
 140              	.L31:
 141              		.cfi_restore_state
 142              		.loc 1 121 0
 143 0070 2B78     		ldrb	r3, [r5]	@ zero_extendqisi2
 144 0072 064A     		ldr	r2, .L33
 145 0074 032B     		cmp	r3, #3
 146 0076 DBD0     		beq	.L6
 147 0078 5168     		ldr	r1, [r2, #4]
 148              	.L10:
 149 007a 8B68     		ldr	r3, [r1, #8]
 150 007c 0348     		ldr	r0, .L33
 151 007e 0522     		movs	r2, #5
 152 0080 2A70     		strb	r2, [r5]
 153 0082 9847     		blx	r3
 154              	.LVL13:
 155 0084 D4E7     		b	.L6
 156              	.LVL14:
 157              	.L4:
 158              		.loc 1 120 0
 159 0086 6307     		lsls	r3, r4, #29
 160              	.LVL15:
 161 0088 F7D4     		bmi	.L10
 162 008a D1E7     		b	.L6
 163              	.L34:
 164              		.align	2
 165              	.L33:
 166 008c 00000000 		.word	.LANCHOR0
 167              		.cfi_endproc
 168              	.LFE126:
 169              		.size	icu_lld_serve_interrupt.constprop.0, .-icu_lld_serve_interrupt.constprop.0
 170              		.section	.text.VectorA4,"ax",%progbits
 171              		.align	2
ARM GAS  C:\Users\danit\AppData\Local\Temp\ccj3s8Ie.s 			page 4


 172              		.p2align 4,,15
 173              		.global	VectorA4
 174              		.thumb
 175              		.thumb_func
 176              		.type	VectorA4, %function
 177              	VectorA4:
 178              	.LFB119:
 179              		.loc 1 148 0
 180              		.cfi_startproc
 181              		@ args = 0, pretend = 0, frame = 0
 182              		@ frame_needed = 0, uses_anonymous_args = 0
 183 0000 08B5     		push	{r3, lr}
 184              		.cfi_def_cfa_offset 8
 185              		.cfi_offset 3, -8
 186              		.cfi_offset 14, -4
 187              		.loc 1 152 0
 188 0002 FFF7FEFF 		bl	icu_lld_serve_interrupt.constprop.0
 189              	.LVL16:
 190              		.loc 1 155 0
 191 0006 BDE80840 		pop	{r3, lr}
 192              		.cfi_restore 14
 193              		.cfi_restore 3
 194              		.cfi_def_cfa_offset 0
 195              		.loc 1 154 0
 196 000a FFF7FEBF 		b	_port_irq_epilogue
 197              	.LVL17:
 198              		.cfi_endproc
 199              	.LFE119:
 200              		.size	VectorA4, .-VectorA4
 201 000e 00BF     		.section	.text.VectorAC,"ax",%progbits
 202              		.align	2
 203              		.p2align 4,,15
 204              		.global	VectorAC
 205              		.thumb
 206              		.thumb_func
 207              		.type	VectorAC, %function
 208              	VectorAC:
 209              	.LFB120:
 210              		.loc 1 168 0
 211              		.cfi_startproc
 212              		@ args = 0, pretend = 0, frame = 0
 213              		@ frame_needed = 0, uses_anonymous_args = 0
 214 0000 08B5     		push	{r3, lr}
 215              		.cfi_def_cfa_offset 8
 216              		.cfi_offset 3, -8
 217              		.cfi_offset 14, -4
 218              		.loc 1 172 0
 219 0002 FFF7FEFF 		bl	icu_lld_serve_interrupt.constprop.0
 220              	.LVL18:
 221              		.loc 1 175 0
 222 0006 BDE80840 		pop	{r3, lr}
 223              		.cfi_restore 14
 224              		.cfi_restore 3
 225              		.cfi_def_cfa_offset 0
 226              		.loc 1 174 0
 227 000a FFF7FEBF 		b	_port_irq_epilogue
 228              	.LVL19:
ARM GAS  C:\Users\danit\AppData\Local\Temp\ccj3s8Ie.s 			page 5


 229              		.cfi_endproc
 230              	.LFE120:
 231              		.size	VectorAC, .-VectorAC
 232 000e 00BF     		.section	.text.icu_lld_init,"ax",%progbits
 233              		.align	2
 234              		.p2align 4,,15
 235              		.global	icu_lld_init
 236              		.thumb
 237              		.thumb_func
 238              		.type	icu_lld_init, %function
 239              	icu_lld_init:
 240              	.LFB121:
 241              		.loc 1 339 0
 242              		.cfi_startproc
 243              		@ args = 0, pretend = 0, frame = 0
 244              		@ frame_needed = 0, uses_anonymous_args = 0
 245 0000 10B5     		push	{r4, lr}
 246              		.cfi_def_cfa_offset 8
 247              		.cfi_offset 4, -8
 248              		.cfi_offset 14, -4
 249              		.loc 1 343 0
 250 0002 034C     		ldr	r4, .L41
 251 0004 2046     		mov	r0, r4
 252 0006 FFF7FEFF 		bl	icuObjectInit
 253              	.LVL20:
 254              		.loc 1 344 0
 255 000a 024B     		ldr	r3, .L41+4
 256 000c E360     		str	r3, [r4, #12]
 257 000e 10BD     		pop	{r4, pc}
 258              	.L42:
 259              		.align	2
 260              	.L41:
 261 0010 00000000 		.word	.LANCHOR0
 262 0014 00000140 		.word	1073807360
 263              		.cfi_endproc
 264              	.LFE121:
 265              		.size	icu_lld_init, .-icu_lld_init
 266              		.section	.text.icu_lld_start,"ax",%progbits
 267              		.align	2
 268              		.p2align 4,,15
 269              		.global	icu_lld_start
 270              		.thumb
 271              		.thumb_func
 272              		.type	icu_lld_start, %function
 273              	icu_lld_start:
 274              	.LFB122:
 275              		.loc 1 391 0
 276              		.cfi_startproc
 277              		@ args = 0, pretend = 0, frame = 0
 278              		@ frame_needed = 0, uses_anonymous_args = 0
 279              	.LVL21:
 280 0000 F8B5     		push	{r3, r4, r5, r6, r7, lr}
 281              		.cfi_def_cfa_offset 24
 282              		.cfi_offset 3, -24
 283              		.cfi_offset 4, -20
 284              		.cfi_offset 5, -16
 285              		.cfi_offset 6, -12
ARM GAS  C:\Users\danit\AppData\Local\Temp\ccj3s8Ie.s 			page 6


 286              		.cfi_offset 7, -8
 287              		.cfi_offset 14, -4
 288              		.loc 1 398 0
 289 0002 0378     		ldrb	r3, [r0]	@ zero_extendqisi2
 290 0004 012B     		cmp	r3, #1
 291              		.loc 1 391 0
 292 0006 0446     		mov	r4, r0
 293              		.loc 1 398 0
 294 0008 3BD0     		beq	.L55
 295              		.loc 1 478 0
 296 000a C368     		ldr	r3, [r0, #12]
 297 000c 0022     		movs	r2, #0
 298 000e 1A60     		str	r2, [r3]
 299              		.loc 1 479 0
 300 0010 5A63     		str	r2, [r3, #52]
 301              		.loc 1 480 0
 302 0012 9A63     		str	r2, [r3, #56]
 303              		.loc 1 481 0
 304 0014 5A62     		str	r2, [r3, #36]
 305              	.LVL22:
 306              	.L46:
 307              		.loc 1 486 0
 308 0016 6168     		ldr	r1, [r4, #4]
 309              		.loc 1 488 0
 310 0018 A268     		ldr	r2, [r4, #8]
 311              		.loc 1 486 0
 312 001a 8869     		ldr	r0, [r1, #24]
 313              		.loc 1 488 0
 314 001c 4E68     		ldr	r6, [r1, #4]
 315              		.loc 1 495 0
 316 001e 0D7D     		ldrb	r5, [r1, #20]	@ zero_extendqisi2
 317              		.loc 1 488 0
 318 0020 B2FBF6F2 		udiv	r2, r2, r6
 319 0024 013A     		subs	r2, r2, #1
 320              		.loc 1 492 0
 321 0026 92B2     		uxth	r2, r2
 322              		.loc 1 486 0
 323 0028 20F0FF00 		bic	r0, r0, #255
 324              		.loc 1 485 0
 325 002c 0027     		movs	r7, #0
 326              		.loc 1 493 0
 327 002e 4FF6FF76 		movw	r6, #65535
 328              		.loc 1 485 0
 329 0032 1F61     		str	r7, [r3, #16]
 330              		.loc 1 486 0
 331 0034 D860     		str	r0, [r3, #12]
 332              	.LVL23:
 333              		.loc 1 492 0
 334 0036 9A62     		str	r2, [r3, #40]
 335              	.LVL24:
 336              		.loc 1 493 0
 337 0038 DE62     		str	r6, [r3, #44]
 338              		.loc 1 508 0
 339 003a 0A78     		ldrb	r2, [r1]	@ zero_extendqisi2
 340              		.loc 1 495 0
 341 003c 6DB9     		cbnz	r5, .L47
 342              		.loc 1 499 0
ARM GAS  C:\Users\danit\AppData\Local\Temp\ccj3s8Ie.s 			page 7


 343 003e 40F20120 		movw	r0, #513
 344              		.loc 1 503 0
 345 0042 5421     		movs	r1, #84
 346              		.loc 1 499 0
 347 0044 9861     		str	r0, [r3, #24]
 348              		.loc 1 503 0
 349 0046 9960     		str	r1, [r3, #8]
 350              		.loc 1 508 0
 351 0048 C2B1     		cbz	r2, .L56
 352              		.loc 1 512 0
 353 004a 1322     		movs	r2, #19
 354 004c 1A62     		str	r2, [r3, #32]
 355              	.L49:
 356              		.loc 1 517 0
 357 004e 03F13802 		add	r2, r3, #56
 358              		.loc 1 518 0
 359 0052 3433     		adds	r3, r3, #52
 360              		.loc 1 517 0
 361 0054 2261     		str	r2, [r4, #16]
 362              		.loc 1 518 0
 363 0056 6361     		str	r3, [r4, #20]
 364 0058 F8BD     		pop	{r3, r4, r5, r6, r7, pc}
 365              	.LVL25:
 366              	.L47:
 367              		.loc 1 523 0
 368 005a 4FF48170 		mov	r0, #258
 369              		.loc 1 527 0
 370 005e 6421     		movs	r1, #100
 371              		.loc 1 523 0
 372 0060 9861     		str	r0, [r3, #24]
 373              		.loc 1 527 0
 374 0062 9960     		str	r1, [r3, #8]
 375              		.loc 1 532 0
 376 0064 3AB1     		cbz	r2, .L57
 377              		.loc 1 536 0
 378 0066 3122     		movs	r2, #49
 379 0068 1A62     		str	r2, [r3, #32]
 380              	.L52:
 381              		.loc 1 541 0
 382 006a 03F13402 		add	r2, r3, #52
 383              		.loc 1 542 0
 384 006e 3833     		adds	r3, r3, #56
 385              		.loc 1 541 0
 386 0070 2261     		str	r2, [r4, #16]
 387              		.loc 1 542 0
 388 0072 6361     		str	r3, [r4, #20]
 389 0074 F8BD     		pop	{r3, r4, r5, r6, r7, pc}
 390              	.LVL26:
 391              	.L57:
 392              		.loc 1 533 0
 393 0076 1322     		movs	r2, #19
 394 0078 1A62     		str	r2, [r3, #32]
 395 007a F6E7     		b	.L52
 396              	.L56:
 397              		.loc 1 509 0
 398 007c 3122     		movs	r2, #49
 399 007e 1A62     		str	r2, [r3, #32]
ARM GAS  C:\Users\danit\AppData\Local\Temp\ccj3s8Ie.s 			page 8


 400 0080 E5E7     		b	.L49
 401              	.LVL27:
 402              	.L55:
 403              		.loc 1 401 0
 404 0082 0D4B     		ldr	r3, .L59
 405 0084 9842     		cmp	r0, r3
 406 0086 01D0     		beq	.L58
 407              	.LVL28:
 408              	.L54:
 409 0088 E368     		ldr	r3, [r4, #12]
 410 008a C4E7     		b	.L46
 411              	.LVL29:
 412              	.L58:
 413              		.loc 1 402 0
 414 008c 0B4B     		ldr	r3, .L59+4
 415 008e 5A6C     		ldr	r2, [r3, #68]
 416 0090 42F00102 		orr	r2, r2, #1
 417 0094 5A64     		str	r2, [r3, #68]
 418              		.loc 1 403 0
 419 0096 5A6A     		ldr	r2, [r3, #36]
 420 0098 0021     		movs	r1, #0
 421 009a 42F00102 		orr	r2, r2, #1
 422 009e 5A62     		str	r2, [r3, #36]
 423              		.loc 1 404 0
 424 00a0 1920     		movs	r0, #25
 425              	.LVL30:
 426              		.loc 1 403 0
 427 00a2 5962     		str	r1, [r3, #36]
 428              		.loc 1 404 0
 429 00a4 7021     		movs	r1, #112
 430 00a6 FFF7FEFF 		bl	nvicEnableVector
 431              	.LVL31:
 432              		.loc 1 406 0
 433 00aa 1B20     		movs	r0, #27
 434 00ac 7021     		movs	r1, #112
 435 00ae FFF7FEFF 		bl	nvicEnableVector
 436              	.LVL32:
 437              		.loc 1 411 0
 438 00b2 034B     		ldr	r3, .L59+8
 439 00b4 A360     		str	r3, [r4, #8]
 440 00b6 E7E7     		b	.L54
 441              	.L60:
 442              		.align	2
 443              	.L59:
 444 00b8 00000000 		.word	.LANCHOR0
 445 00bc 00380240 		.word	1073887232
 446 00c0 007A030A 		.word	168000000
 447              		.cfi_endproc
 448              	.LFE122:
 449              		.size	icu_lld_start, .-icu_lld_start
 450              		.section	.text.icu_lld_stop,"ax",%progbits
 451              		.align	2
 452              		.p2align 4,,15
 453              		.global	icu_lld_stop
 454              		.thumb
 455              		.thumb_func
 456              		.type	icu_lld_stop, %function
ARM GAS  C:\Users\danit\AppData\Local\Temp\ccj3s8Ie.s 			page 9


 457              	icu_lld_stop:
 458              	.LFB123:
 459              		.loc 1 553 0
 460              		.cfi_startproc
 461              		@ args = 0, pretend = 0, frame = 0
 462              		@ frame_needed = 0, uses_anonymous_args = 0
 463              	.LVL33:
 464 0000 08B5     		push	{r3, lr}
 465              		.cfi_def_cfa_offset 8
 466              		.cfi_offset 3, -8
 467              		.cfi_offset 14, -4
 468              		.loc 1 555 0
 469 0002 0378     		ldrb	r3, [r0]	@ zero_extendqisi2
 470 0004 022B     		cmp	r3, #2
 471 0006 00D0     		beq	.L66
 472              	.LVL34:
 473              	.L61:
 474 0008 08BD     		pop	{r3, pc}
 475              	.LVL35:
 476              	.L66:
 477              		.loc 1 562 0
 478 000a 0A49     		ldr	r1, .L67
 479              		.loc 1 557 0
 480 000c C368     		ldr	r3, [r0, #12]
 481 000e 0022     		movs	r2, #0
 482              		.loc 1 562 0
 483 0010 8842     		cmp	r0, r1
 484              		.loc 1 557 0
 485 0012 1A60     		str	r2, [r3]
 486              		.loc 1 558 0
 487 0014 DA60     		str	r2, [r3, #12]
 488              		.loc 1 559 0
 489 0016 1A61     		str	r2, [r3, #16]
 490              		.loc 1 562 0
 491 0018 F6D1     		bne	.L61
 492              		.loc 1 563 0
 493 001a 1920     		movs	r0, #25
 494              	.LVL36:
 495 001c FFF7FEFF 		bl	nvicDisableVector
 496              	.LVL37:
 497              		.loc 1 564 0
 498 0020 1B20     		movs	r0, #27
 499 0022 FFF7FEFF 		bl	nvicDisableVector
 500              	.LVL38:
 501              		.loc 1 565 0
 502 0026 044A     		ldr	r2, .L67+4
 503 0028 536C     		ldr	r3, [r2, #68]
 504 002a 23F00103 		bic	r3, r3, #1
 505 002e 5364     		str	r3, [r2, #68]
 506 0030 EAE7     		b	.L61
 507              	.L68:
 508 0032 00BF     		.align	2
 509              	.L67:
 510 0034 00000000 		.word	.LANCHOR0
 511 0038 00380240 		.word	1073887232
 512              		.cfi_endproc
 513              	.LFE123:
ARM GAS  C:\Users\danit\AppData\Local\Temp\ccj3s8Ie.s 			page 10


 514              		.size	icu_lld_stop, .-icu_lld_stop
 515              		.section	.text.icu_lld_enable,"ax",%progbits
 516              		.align	2
 517              		.p2align 4,,15
 518              		.global	icu_lld_enable
 519              		.thumb
 520              		.thumb_func
 521              		.type	icu_lld_enable, %function
 522              	icu_lld_enable:
 523              	.LFB124:
 524              		.loc 1 615 0
 525              		.cfi_startproc
 526              		@ args = 0, pretend = 0, frame = 0
 527              		@ frame_needed = 0, uses_anonymous_args = 0
 528              		@ link register save eliminated.
 529              	.LVL39:
 530              		.loc 1 617 0
 531 0000 C368     		ldr	r3, [r0, #12]
 532              		.loc 1 619 0
 533 0002 4268     		ldr	r2, [r0, #4]
 534              		.loc 1 617 0
 535 0004 5969     		ldr	r1, [r3, #20]
 536              		.loc 1 619 0
 537 0006 107D     		ldrb	r0, [r2, #20]	@ zero_extendqisi2
 538              	.LVL40:
 539              		.loc 1 615 0
 540 0008 10B4     		push	{r4}
 541              		.cfi_def_cfa_offset 4
 542              		.cfi_offset 4, -4
 543              		.loc 1 617 0
 544 000a 41F00101 		orr	r1, r1, #1
 545              		.loc 1 618 0
 546 000e 0024     		movs	r4, #0
 547              		.loc 1 617 0
 548 0010 5961     		str	r1, [r3, #20]
 549              		.loc 1 618 0
 550 0012 1C61     		str	r4, [r3, #16]
 551              		.loc 1 619 0
 552 0014 B0B9     		cbnz	r0, .L70
 553              		.loc 1 620 0
 554 0016 D168     		ldr	r1, [r2, #12]
 555 0018 19B1     		cbz	r1, .L71
 556              		.loc 1 621 0
 557 001a D968     		ldr	r1, [r3, #12]
 558 001c 41F00201 		orr	r1, r1, #2
 559 0020 D960     		str	r1, [r3, #12]
 560              	.L71:
 561              		.loc 1 622 0
 562 0022 9168     		ldr	r1, [r2, #8]
 563 0024 19B1     		cbz	r1, .L73
 564              	.L90:
 565              		.loc 1 628 0
 566 0026 D968     		ldr	r1, [r3, #12]
 567 0028 41F00401 		orr	r1, r1, #4
 568 002c D960     		str	r1, [r3, #12]
 569              	.L73:
 570              		.loc 1 630 0
ARM GAS  C:\Users\danit\AppData\Local\Temp\ccj3s8Ie.s 			page 11


 571 002e 1269     		ldr	r2, [r2, #16]
 572 0030 1AB1     		cbz	r2, .L76
 573              		.loc 1 631 0
 574 0032 DA68     		ldr	r2, [r3, #12]
 575 0034 42F00102 		orr	r2, r2, #1
 576 0038 DA60     		str	r2, [r3, #12]
 577              	.L76:
 578              		.loc 1 632 0
 579 003a 0522     		movs	r2, #5
 580 003c 1A60     		str	r2, [r3]
 581              		.loc 1 633 0
 582 003e 5DF8044B 		ldr	r4, [sp], #4
 583              		.cfi_remember_state
 584              		.cfi_restore 4
 585              		.cfi_def_cfa_offset 0
 586 0042 7047     		bx	lr
 587              	.L70:
 588              		.cfi_restore_state
 589              		.loc 1 625 0
 590 0044 9168     		ldr	r1, [r2, #8]
 591 0046 19B1     		cbz	r1, .L74
 592              		.loc 1 626 0
 593 0048 D968     		ldr	r1, [r3, #12]
 594 004a 41F00201 		orr	r1, r1, #2
 595 004e D960     		str	r1, [r3, #12]
 596              	.L74:
 597              		.loc 1 627 0
 598 0050 D168     		ldr	r1, [r2, #12]
 599 0052 0029     		cmp	r1, #0
 600 0054 E7D1     		bne	.L90
 601 0056 EAE7     		b	.L73
 602              		.cfi_endproc
 603              	.LFE124:
 604              		.size	icu_lld_enable, .-icu_lld_enable
 605              		.section	.text.icu_lld_disable,"ax",%progbits
 606              		.align	2
 607              		.p2align 4,,15
 608              		.global	icu_lld_disable
 609              		.thumb
 610              		.thumb_func
 611              		.type	icu_lld_disable, %function
 612              	icu_lld_disable:
 613              	.LFB125:
 614              		.loc 1 642 0
 615              		.cfi_startproc
 616              		@ args = 0, pretend = 0, frame = 0
 617              		@ frame_needed = 0, uses_anonymous_args = 0
 618              		@ link register save eliminated.
 619              	.LVL41:
 620              		.loc 1 644 0
 621 0000 C368     		ldr	r3, [r0, #12]
 622 0002 0022     		movs	r2, #0
 623 0004 1A60     		str	r2, [r3]
 624              		.loc 1 645 0
 625 0006 1A61     		str	r2, [r3, #16]
 626              		.loc 1 648 0
 627 0008 DA68     		ldr	r2, [r3, #12]
ARM GAS  C:\Users\danit\AppData\Local\Temp\ccj3s8Ie.s 			page 12


 628 000a 22F0FF02 		bic	r2, r2, #255
 629 000e DA60     		str	r2, [r3, #12]
 630 0010 7047     		bx	lr
 631              		.cfi_endproc
 632              	.LFE125:
 633              		.size	icu_lld_disable, .-icu_lld_disable
 634              		.global	ICUD1
 635 0012 00BF     		.section	.bss.ICUD1,"aw",%nobits
 636              		.align	2
 637              		.set	.LANCHOR0,. + 0
 638              		.type	ICUD1, %object
 639              		.size	ICUD1, 24
 640              	ICUD1:
 641 0000 00000000 		.space	24
 641      00000000 
 641      00000000 
 641      00000000 
 641      00000000 
 642              		.text
 643              	.Letext0:
 644              		.file 2 "c:\\program files (x86)\\gnu tools arm embedded\\4.9 2015q2\\arm-none-eabi\\include\\mach
 645              		.file 3 "c:\\program files (x86)\\gnu tools arm embedded\\4.9 2015q2\\arm-none-eabi\\include\\sys\
 646              		.file 4 "../../../ChibiOS/os/hal/platforms/STM32F4xx/stm32f4xx.h"
 647              		.file 5 "../../../ChibiOS/os/hal/platforms/STM32/TIMv1/stm32_tim.h"
 648              		.file 6 "../../../ChibiOS/os/hal/include/icu.h"
 649              		.file 7 "../../../ChibiOS/os/hal/platforms/STM32/TIMv1/icu_lld.h"
 650              		.file 8 "../../../ChibiOS/os/ports/common/ARMCMx/CMSIS/include/core_cm4.h"
 651              		.file 9 "../../../ChibiOS/os/ports/common/ARMCMx/nvic.h"
 652              		.file 10 "../../../ChibiOS/os/ports/GCC/ARMCMx/chcore_v7m.h"