ARM GAS  C:\Users\DNIEL~1\AppData\Local\Temp\ccq8ljmg.s 			page 1


   1              		.syntax unified
   2              		.cpu cortex-m4
   3              		.fpu softvfp
   4              		.eabi_attribute 20, 1
   5              		.eabi_attribute 21, 1
   6              		.eabi_attribute 23, 3
   7              		.eabi_attribute 24, 1
   8              		.eabi_attribute 25, 1
   9              		.eabi_attribute 26, 1
  10              		.eabi_attribute 30, 2
  11              		.eabi_attribute 18, 4
  12              		.thumb
  13              		.file	"light.c"
  14              		.section	.debug_abbrev,"",%progbits
  15              	.Ldebug_abbrev0:
  16              		.section	.debug_info,"",%progbits
  17              	.Ldebug_info0:
  18              		.section	.debug_line,"",%progbits
  19              	.Ldebug_line0:
  20 0000 EA040000 		.text
  20      02008502 
  20      00000201 
  20      FB0E0D00 
  20      01010101 
  21              	.Ltext0:
  22              		.cfi_sections	.debug_frame
  23              		.section	.text.chprintf,"ax",%progbits
  24              		.align	2
  25              		.p2align 4,,15
  26              		.thumb
  27              		.thumb_func
  28              		.type	chprintf, %function
  29              	chprintf:
  30              	.LFB118:
  31              		.file 1 "../../../ChibiOS/os/various/chprintf.h"
  32              		.loc 1 69 0
  33              		.cfi_startproc
  34              		@ args = 4, pretend = 12, frame = 8
  35              		@ frame_needed = 0, uses_anonymous_args = 1
  36              	.LVL0:
  37 0000 0EB4     		push	{r1, r2, r3}
  38              	.LCFI0:
  39              		.cfi_def_cfa_offset 12
  40 0002 00B5     		push	{lr}
  41              	.LCFI1:
  42              		.cfi_def_cfa_offset 16
  43 0004 82B0     		sub	sp, sp, #8
  44              	.LCFI2:
  45              		.cfi_def_cfa_offset 24
  46              		.loc 1 69 0
  47 0006 03AB     		add	r3, sp, #12
  48              		.cfi_offset 14, -16
  49              		.cfi_offset 3, -4
  50              		.cfi_offset 2, -8
  51              		.cfi_offset 1, -12
  52 0008 53F8041B 		ldr	r1, [r3], #4
  53              		.loc 1 73 0
ARM GAS  C:\Users\DNIEL~1\AppData\Local\Temp\ccq8ljmg.s 			page 2


  54 000c 1A46     		mov	r2, r3
  55              		.loc 1 72 0
  56 000e 0193     		str	r3, [sp, #4]
  57              		.loc 1 73 0
  58 0010 FFF7FEFF 		bl	chvprintf
  59              	.LVL1:
  60              		.loc 1 75 0
  61 0014 02B0     		add	sp, sp, #8
  62 0016 5DF804EB 		pop	{lr}
  63 001a 03B0     		add	sp, sp, #12
  64 001c 7047     		bx	lr
  65              		.cfi_endproc
  66              	.LFE118:
  67              		.size	chprintf, .-chprintf
  68 001e 00BF     		.section	.text.lightInit,"ax",%progbits
  69              		.align	2
  70              		.p2align 4,,15
  71              		.global	lightInit
  72              		.thumb
  73              		.thumb_func
  74              		.type	lightInit, %function
  75              	lightInit:
  76              	.LFB119:
  77              		.file 2 "src/light.c"
  78              		.loc 2 45 0
  79              		.cfi_startproc
  80              		@ args = 0, pretend = 0, frame = 0
  81              		@ frame_needed = 0, uses_anonymous_args = 0
  82              		@ link register save eliminated.
  83              		.loc 2 46 0
  84 0000 064A     		ldr	r2, .L3
  85              		.loc 2 50 0
  86 0002 0748     		ldr	r0, .L3+4
  87 0004 0749     		ldr	r1, .L3+8
  88              		.loc 2 46 0
  89 0006 0023     		movs	r3, #0
  90 0008 1360     		str	r3, [r2, #0]
  91              		.loc 2 47 0
  92 000a 074A     		ldr	r2, .L3+12
  93 000c 1370     		strb	r3, [r2, #0]
  94              		.loc 2 48 0
  95 000e 074A     		ldr	r2, .L3+16
  96 0010 1370     		strb	r3, [r2, #0]
  97              		.loc 2 49 0
  98 0012 074A     		ldr	r2, .L3+20
  99 0014 1370     		strb	r3, [r2, #0]
 100              		.loc 2 51 0
 101              		.loc 2 50 0
 102 0016 FFF7FEBF 		b	pwmStart
 103              	.L4:
 104 001a 00BF     		.align	2
 105              	.L3:
 106 001c 00000000 		.word	.LANCHOR0
 107 0020 00000000 		.word	PWMD4
 108 0024 00000000 		.word	.LANCHOR4
 109 0028 00000000 		.word	.LANCHOR1
 110 002c 00000000 		.word	.LANCHOR2
ARM GAS  C:\Users\DNIEL~1\AppData\Local\Temp\ccq8ljmg.s 			page 3


 111 0030 00000000 		.word	.LANCHOR3
 112              		.cfi_endproc
 113              	.LFE119:
 114              		.size	lightInit, .-lightInit
 115 0034 AFF30080 		.section	.text.lightCalc,"ax",%progbits
 115      AFF30080 
 115      AFF30080 
 116              		.align	2
 117              		.p2align 4,,15
 118              		.global	lightCalc
 119              		.thumb
 120              		.thumb_func
 121              		.type	lightCalc, %function
 122              	lightCalc:
 123              	.LFB120:
 124              		.loc 2 53 0
 125              		.cfi_startproc
 126              		@ args = 0, pretend = 0, frame = 0
 127              		@ frame_needed = 0, uses_anonymous_args = 0
 128              		.loc 2 55 0
 129 0000 324A     		ldr	r2, .L15
 130 0002 1368     		ldr	r3, [r2, #0]
 131 0004 0133     		adds	r3, r3, #1
 132              		.loc 2 57 0
 133 0006 3C2B     		cmp	r3, #60
 134              		.loc 2 53 0
 135 0008 70B5     		push	{r4, r5, r6, lr}
 136              	.LCFI3:
 137              		.cfi_def_cfa_offset 16
 138              		.loc 2 55 0
 139 000a 1360     		str	r3, [r2, #0]
 140              		.loc 2 57 0
 141 000c 09DD     		ble	.L6
 142              		.cfi_offset 14, -4
 143              		.cfi_offset 6, -8
 144              		.cfi_offset 5, -12
 145              		.cfi_offset 4, -16
 146              		.loc 2 58 0
 147 000e 0021     		movs	r1, #0
 148              		.loc 2 59 0
 149 0010 2F48     		ldr	r0, .L15+4
 150              		.loc 2 58 0
 151 0012 1160     		str	r1, [r2, #0]
 152 0014 2F4C     		ldr	r4, .L15+8
 153              		.loc 2 59 0
 154 0016 0122     		movs	r2, #1
 155 0018 0270     		strb	r2, [r0, #0]
 156              	.L7:
 157              		.loc 2 96 0
 158 001a 2278     		ldrb	r2, [r4, #0]	@ zero_extendqisi2
 159 001c 002A     		cmp	r2, #0
 160 001e 3BD1     		bne	.L13
 161 0020 70BD     		pop	{r4, r5, r6, pc}
 162              	.L6:
 163              		.loc 2 62 0
 164 0022 1E2B     		cmp	r3, #30
 165 0024 42DC     		bgt	.L14
ARM GAS  C:\Users\DNIEL~1\AppData\Local\Temp\ccq8ljmg.s 			page 4


 166              		.loc 2 72 0
 167 0026 2B4C     		ldr	r4, .L15+8
 168 0028 6178     		ldrb	r1, [r4, #1]	@ zero_extendqisi2
 169 002a 61B1     		cbz	r1, .L9
 170              		.loc 2 72 0 is_stmt 0 discriminator 1
 171 002c 284D     		ldr	r5, .L15+4
 172 002e 2A78     		ldrb	r2, [r5, #0]	@ zero_extendqisi2
 173 0030 4AB1     		cbz	r2, .L9
 174              		.loc 2 74 0 is_stmt 1
 175 0032 2948     		ldr	r0, .L15+12
 176 0034 0121     		movs	r1, #1
 177 0036 0289     		ldrh	r2, [r0, #8]
 178 0038 FFF7FEFF 		bl	pwmEnableChannel
 179              		.loc 2 76 0
 180 003c 274B     		ldr	r3, .L15+16
 181              		.loc 2 75 0
 182 003e 0021     		movs	r1, #0
 183              		.loc 2 76 0
 184 0040 0120     		movs	r0, #1
 185              		.loc 2 75 0
 186 0042 2970     		strb	r1, [r5, #0]
 187              		.loc 2 76 0
 188 0044 1870     		strb	r0, [r3, #0]
 189              	.L9:
 190              		.loc 2 79 0
 191 0046 A278     		ldrb	r2, [r4, #2]	@ zero_extendqisi2
 192 0048 62B1     		cbz	r2, .L10
 193              		.loc 2 79 0 is_stmt 0 discriminator 1
 194 004a 214D     		ldr	r5, .L15+4
 195 004c 2878     		ldrb	r0, [r5, #0]	@ zero_extendqisi2
 196 004e 48B1     		cbz	r0, .L10
 197              		.loc 2 81 0 is_stmt 1
 198 0050 2148     		ldr	r0, .L15+12
 199 0052 0221     		movs	r1, #2
 200 0054 0289     		ldrh	r2, [r0, #8]
 201 0056 FFF7FEFF 		bl	pwmEnableChannel
 202              		.loc 2 83 0
 203 005a 214B     		ldr	r3, .L15+20
 204              		.loc 2 82 0
 205 005c 0022     		movs	r2, #0
 206              		.loc 2 83 0
 207 005e 0121     		movs	r1, #1
 208              		.loc 2 82 0
 209 0060 2A70     		strb	r2, [r5, #0]
 210              		.loc 2 83 0
 211 0062 1970     		strb	r1, [r3, #0]
 212              	.L10:
 213              		.loc 2 86 0
 214 0064 E078     		ldrb	r0, [r4, #3]	@ zero_extendqisi2
 215 0066 0028     		cmp	r0, #0
 216 0068 D7D0     		beq	.L7
 217              		.loc 2 86 0 is_stmt 0 discriminator 1
 218 006a 194D     		ldr	r5, .L15+4
 219 006c 2978     		ldrb	r1, [r5, #0]	@ zero_extendqisi2
 220 006e 0029     		cmp	r1, #0
 221 0070 D3D0     		beq	.L7
 222              		.loc 2 88 0 is_stmt 1
ARM GAS  C:\Users\DNIEL~1\AppData\Local\Temp\ccq8ljmg.s 			page 5


 223 0072 194E     		ldr	r6, .L15+12
 224 0074 0121     		movs	r1, #1
 225 0076 3289     		ldrh	r2, [r6, #8]
 226 0078 3046     		mov	r0, r6
 227 007a FFF7FEFF 		bl	pwmEnableChannel
 228              		.loc 2 89 0
 229 007e 3046     		mov	r0, r6
 230 0080 0221     		movs	r1, #2
 231 0082 3289     		ldrh	r2, [r6, #8]
 232 0084 FFF7FEFF 		bl	pwmEnableChannel
 233              		.loc 2 91 0
 234 0088 1448     		ldr	r0, .L15+16
 235              		.loc 2 92 0
 236 008a 154A     		ldr	r2, .L15+20
 237              		.loc 2 91 0
 238 008c 0123     		movs	r3, #1
 239              		.loc 2 90 0
 240 008e 0021     		movs	r1, #0
 241 0090 2970     		strb	r1, [r5, #0]
 242              		.loc 2 91 0
 243 0092 0370     		strb	r3, [r0, #0]
 244              		.loc 2 92 0
 245 0094 1370     		strb	r3, [r2, #0]
 246 0096 C0E7     		b	.L7
 247              	.L13:
 248              		.loc 2 98 0
 249 0098 0121     		movs	r1, #1
 250 009a 0F48     		ldr	r0, .L15+12
 251 009c FFF7FEFF 		bl	pwmDisableChannel
 252              		.loc 2 99 0
 253 00a0 0D48     		ldr	r0, .L15+12
 254 00a2 0221     		movs	r1, #2
 255              		.loc 2 101 0
 256 00a4 BDE87040 		pop	{r4, r5, r6, lr}
 257              		.loc 2 99 0
 258 00a8 FFF7FEBF 		b	pwmDisableChannel
 259              	.L14:
 260              		.loc 2 64 0
 261 00ac 0A48     		ldr	r0, .L15+12
 262 00ae 094C     		ldr	r4, .L15+8
 263 00b0 0121     		movs	r1, #1
 264 00b2 FFF7FEFF 		bl	pwmDisableChannel
 265              		.loc 2 65 0
 266 00b6 0848     		ldr	r0, .L15+12
 267 00b8 0221     		movs	r1, #2
 268 00ba FFF7FEFF 		bl	pwmDisableChannel
 269              		.loc 2 67 0
 270 00be 0748     		ldr	r0, .L15+16
 271              		.loc 2 68 0
 272 00c0 074A     		ldr	r2, .L15+20
 273              		.loc 2 67 0
 274 00c2 0023     		movs	r3, #0
 275 00c4 0370     		strb	r3, [r0, #0]
 276              		.loc 2 68 0
 277 00c6 1370     		strb	r3, [r2, #0]
 278 00c8 A7E7     		b	.L7
 279              	.L16:
ARM GAS  C:\Users\DNIEL~1\AppData\Local\Temp\ccq8ljmg.s 			page 6


 280 00ca 00BF     		.align	2
 281              	.L15:
 282 00cc 00000000 		.word	.LANCHOR0
 283 00d0 00000000 		.word	.LANCHOR1
 284 00d4 00000000 		.word	.LANCHOR5
 285 00d8 00000000 		.word	PWMD4
 286 00dc 00000000 		.word	.LANCHOR2
 287 00e0 00000000 		.word	.LANCHOR3
 288              		.cfi_endproc
 289              	.LFE120:
 290              		.size	lightCalc, .-lightCalc
 291 00e4 AFF30080 		.section	.text.lightFlashing,"ax",%progbits
 291      AFF30080 
 291      AFF30080 
 292              		.align	2
 293              		.p2align 4,,15
 294              		.global	lightFlashing
 295              		.thumb
 296              		.thumb_func
 297              		.type	lightFlashing, %function
 298              	lightFlashing:
 299              	.LFB121:
 300              		.loc 2 103 0
 301              		.cfi_startproc
 302              		@ args = 0, pretend = 0, frame = 0
 303              		@ frame_needed = 0, uses_anonymous_args = 0
 304              		@ link register save eliminated.
 305              	.LVL2:
 306 0000 10B4     		push	{r4}
 307              	.LCFI4:
 308              		.cfi_def_cfa_offset 4
 309              		.loc 2 105 0
 310 0002 A0F10102 		sub	r2, r0, #1
 311              		.loc 2 104 0
 312 0006 D0F10104 		rsbs	r4, r0, #1
 313              		.cfi_offset 4, -4
 314              		.loc 2 106 0
 315 000a A0F1020C 		sub	ip, r0, #2
 316              		.loc 2 104 0
 317 000e 38BF     		it	cc
 318 0010 0024     		movcc	r4, #0
 319              		.loc 2 105 0
 320 0012 5142     		rsbs	r1, r2, #0
 321 0014 41EB0201 		adc	r1, r1, r2
 322              		.loc 2 106 0
 323 0018 DCF10002 		rsbs	r2, ip, #0
 324 001c 42EB0C02 		adc	r2, r2, ip
 325              		.loc 2 107 0
 326 0020 A0F1030C 		sub	ip, r0, #3
 327              		.loc 2 104 0
 328 0024 084B     		ldr	r3, .L18
 329              		.loc 2 107 0
 330 0026 DCF10000 		rsbs	r0, ip, #0
 331              	.LVL3:
 332 002a 40EB0C0C 		adc	ip, r0, ip
 333              	.LVL4:
 334              		.loc 2 104 0
ARM GAS  C:\Users\DNIEL~1\AppData\Local\Temp\ccq8ljmg.s 			page 7


 335 002e 1C70     		strb	r4, [r3, #0]
 336              		.loc 2 105 0
 337 0030 5970     		strb	r1, [r3, #1]
 338              		.loc 2 106 0
 339 0032 9A70     		strb	r2, [r3, #2]
 340              		.loc 2 107 0
 341 0034 83F803C0 		strb	ip, [r3, #3]
 342              		.loc 2 109 0
 343 0038 0449     		ldr	r1, .L18+4
 344              		.loc 2 110 0
 345 003a 054B     		ldr	r3, .L18+8
 346              		.loc 2 109 0
 347 003c 0020     		movs	r0, #0
 348              		.loc 2 110 0
 349 003e 0122     		movs	r2, #1
 350              		.loc 2 109 0
 351 0040 0860     		str	r0, [r1, #0]
 352              		.loc 2 110 0
 353 0042 1A70     		strb	r2, [r3, #0]
 354              		.loc 2 111 0
 355 0044 10BC     		pop	{r4}
 356 0046 7047     		bx	lr
 357              	.L19:
 358              		.align	2
 359              	.L18:
 360 0048 00000000 		.word	.LANCHOR5
 361 004c 00000000 		.word	.LANCHOR0
 362 0050 00000000 		.word	.LANCHOR1
 363              		.cfi_endproc
 364              	.LFE121:
 365              		.size	lightFlashing, .-lightFlashing
 366 0054 AFF30080 		.section	.text.lightBrakeOn,"ax",%progbits
 366      AFF30080 
 366      AFF30080 
 367              		.align	2
 368              		.p2align 4,,15
 369              		.global	lightBrakeOn
 370              		.thumb
 371              		.thumb_func
 372              		.type	lightBrakeOn, %function
 373              	lightBrakeOn:
 374              	.LFB122:
 375              		.loc 2 113 0
 376              		.cfi_startproc
 377              		@ args = 0, pretend = 0, frame = 0
 378              		@ frame_needed = 0, uses_anonymous_args = 0
 379              		@ link register save eliminated.
 380 0000 10B4     		push	{r4}
 381              	.LCFI5:
 382              		.cfi_def_cfa_offset 4
 383              		.loc 2 115 0
 384 0002 0448     		ldr	r0, .L21
 385              		.loc 2 114 0
 386 0004 044B     		ldr	r3, .L21+4
 387              		.loc 2 115 0
 388 0006 0289     		ldrh	r2, [r0, #8]
 389              		.loc 2 114 0
ARM GAS  C:\Users\DNIEL~1\AppData\Local\Temp\ccq8ljmg.s 			page 8


 390 0008 0124     		movs	r4, #1
 391              		.cfi_offset 4, -4
 392              		.loc 2 115 0
 393 000a 0021     		movs	r1, #0
 394              		.loc 2 114 0
 395 000c 1C71     		strb	r4, [r3, #4]
 396              		.loc 2 116 0
 397 000e 10BC     		pop	{r4}
 398              		.loc 2 115 0
 399 0010 FFF7FEBF 		b	pwmEnableChannel
 400              	.L22:
 401              		.align	2
 402              	.L21:
 403 0014 00000000 		.word	PWMD4
 404 0018 00000000 		.word	.LANCHOR5
 405              		.cfi_endproc
 406              	.LFE122:
 407              		.size	lightBrakeOn, .-lightBrakeOn
 408 001c AFF30080 		.section	.text.lightBrakeOff,"ax",%progbits
 409              		.align	2
 410              		.p2align 4,,15
 411              		.global	lightBrakeOff
 412              		.thumb
 413              		.thumb_func
 414              		.type	lightBrakeOff, %function
 415              	lightBrakeOff:
 416              	.LFB123:
 417              		.loc 2 117 0
 418              		.cfi_startproc
 419              		@ args = 0, pretend = 0, frame = 0
 420              		@ frame_needed = 0, uses_anonymous_args = 0
 421              		@ link register save eliminated.
 422              		.loc 2 118 0
 423 0000 064A     		ldr	r2, .L26
 424              		.loc 2 119 0
 425 0002 9179     		ldrb	r1, [r2, #6]	@ zero_extendqisi2
 426              		.loc 2 118 0
 427 0004 0023     		movs	r3, #0
 428 0006 1371     		strb	r3, [r2, #4]
 429              		.loc 2 119 0
 430 0008 11B9     		cbnz	r1, .L25
 431              		.loc 2 124 0
 432 000a 0548     		ldr	r0, .L26+4
 433              		.loc 2 125 0
 434              		.loc 2 124 0
 435 000c FFF7FEBF 		b	pwmDisableChannel
 436              	.L25:
 437              		.loc 2 121 0
 438 0010 0348     		ldr	r0, .L26+4
 439 0012 0289     		ldrh	r2, [r0, #8]
 440 0014 1946     		mov	r1, r3
 441 0016 5208     		lsrs	r2, r2, #1
 442              		.loc 2 125 0
 443              		.loc 2 121 0
 444 0018 FFF7FEBF 		b	pwmEnableChannel
 445              	.L27:
 446              		.align	2
ARM GAS  C:\Users\DNIEL~1\AppData\Local\Temp\ccq8ljmg.s 			page 9


 447              	.L26:
 448 001c 00000000 		.word	.LANCHOR5
 449 0020 00000000 		.word	PWMD4
 450              		.cfi_endproc
 451              	.LFE123:
 452              		.size	lightBrakeOff, .-lightBrakeOff
 453 0024 AFF30080 		.section	.text.lightPosLampOn,"ax",%progbits
 453      AFF30080 
 453      AFF30080 
 454              		.align	2
 455              		.p2align 4,,15
 456              		.global	lightPosLampOn
 457              		.thumb
 458              		.thumb_func
 459              		.type	lightPosLampOn, %function
 460              	lightPosLampOn:
 461              	.LFB124:
 462              		.loc 2 127 0
 463              		.cfi_startproc
 464              		@ args = 0, pretend = 0, frame = 0
 465              		@ frame_needed = 0, uses_anonymous_args = 0
 466 0000 70B5     		push	{r4, r5, r6, lr}
 467              	.LCFI6:
 468              		.cfi_def_cfa_offset 16
 469              		.loc 2 128 0
 470 0002 094B     		ldr	r3, .L29
 471              		.loc 2 130 0
 472 0004 094C     		ldr	r4, .L29+4
 473              		.cfi_offset 14, -4
 474              		.cfi_offset 6, -8
 475              		.cfi_offset 5, -12
 476              		.cfi_offset 4, -16
 477              		.loc 2 128 0
 478 0006 0125     		movs	r5, #1
 479              		.loc 2 130 0
 480 0008 2289     		ldrh	r2, [r4, #8]
 481              		.loc 2 128 0
 482 000a 5D71     		strb	r5, [r3, #5]
 483              		.loc 2 130 0
 484 000c 2046     		mov	r0, r4
 485 000e 0321     		movs	r1, #3
 486              		.loc 2 129 0
 487 0010 9D71     		strb	r5, [r3, #6]
 488              		.loc 2 130 0
 489 0012 FFF7FEFF 		bl	pwmEnableChannel
 490              		.loc 2 131 0
 491 0016 2289     		ldrh	r2, [r4, #8]
 492 0018 2046     		mov	r0, r4
 493 001a 0021     		movs	r1, #0
 494 001c EA40     		lsrs	r2, r2, r5
 495              		.loc 2 132 0
 496 001e BDE87040 		pop	{r4, r5, r6, lr}
 497              		.loc 2 131 0
 498 0022 FFF7FEBF 		b	pwmEnableChannel
 499              	.L30:
 500 0026 00BF     		.align	2
 501              	.L29:
ARM GAS  C:\Users\DNIEL~1\AppData\Local\Temp\ccq8ljmg.s 			page 10


 502 0028 00000000 		.word	.LANCHOR5
 503 002c 00000000 		.word	PWMD4
 504              		.cfi_endproc
 505              	.LFE124:
 506              		.size	lightPosLampOn, .-lightPosLampOn
 507              		.section	.text.lightPosLampOff,"ax",%progbits
 508              		.align	2
 509              		.p2align 4,,15
 510              		.global	lightPosLampOff
 511              		.thumb
 512              		.thumb_func
 513              		.type	lightPosLampOff, %function
 514              	lightPosLampOff:
 515              	.LFB125:
 516              		.loc 2 133 0
 517              		.cfi_startproc
 518              		@ args = 0, pretend = 0, frame = 0
 519              		@ frame_needed = 0, uses_anonymous_args = 0
 520 0000 70B5     		push	{r4, r5, r6, lr}
 521              	.LCFI7:
 522              		.cfi_def_cfa_offset 16
 523              		.loc 2 135 0
 524 0002 074B     		ldr	r3, .L32
 525              		.loc 2 137 0
 526 0004 074D     		ldr	r5, .L32+4
 527              		.cfi_offset 14, -4
 528              		.cfi_offset 6, -8
 529              		.cfi_offset 5, -12
 530              		.cfi_offset 4, -16
 531              		.loc 2 135 0
 532 0006 0024     		movs	r4, #0
 533              		.loc 2 137 0
 534 0008 2846     		mov	r0, r5
 535 000a 0321     		movs	r1, #3
 536              		.loc 2 135 0
 537 000c 5C71     		strb	r4, [r3, #5]
 538              		.loc 2 136 0
 539 000e 9C71     		strb	r4, [r3, #6]
 540              		.loc 2 137 0
 541 0010 FFF7FEFF 		bl	pwmDisableChannel
 542              		.loc 2 138 0
 543 0014 2846     		mov	r0, r5
 544 0016 2146     		mov	r1, r4
 545              		.loc 2 139 0
 546 0018 BDE87040 		pop	{r4, r5, r6, lr}
 547              		.loc 2 138 0
 548 001c FFF7FEBF 		b	pwmDisableChannel
 549              	.L33:
 550              		.align	2
 551              	.L32:
 552 0020 00000000 		.word	.LANCHOR5
 553 0024 00000000 		.word	PWMD4
 554              		.cfi_endproc
 555              	.LFE125:
 556              		.size	lightPosLampOff, .-lightPosLampOff
 557 0028 AFF30080 		.section	.text.getLightFlashing,"ax",%progbits
 557      AFF30080 
ARM GAS  C:\Users\DNIEL~1\AppData\Local\Temp\ccq8ljmg.s 			page 11


 558              		.align	2
 559              		.p2align 4,,15
 560              		.global	getLightFlashing
 561              		.thumb
 562              		.thumb_func
 563              		.type	getLightFlashing, %function
 564              	getLightFlashing:
 565              	.LFB126:
 566              		.loc 2 141 0
 567              		.cfi_startproc
 568              		@ args = 0, pretend = 0, frame = 0
 569              		@ frame_needed = 0, uses_anonymous_args = 0
 570              		@ link register save eliminated.
 571              	.LVL5:
 572              		.loc 2 142 0
 573 0000 0128     		cmp	r0, #1
 574 0002 23D0     		beq	.L46
 575              		.loc 2 143 0
 576 0004 0228     		cmp	r0, #2
 577 0006 08D0     		beq	.L47
 578              		.loc 2 144 0
 579 0008 0328     		cmp	r0, #3
 580 000a 0AD0     		beq	.L48
 581              		.loc 2 145 0
 582 000c 0428     		cmp	r0, #4
 583 000e 0FD0     		beq	.L49
 584              		.loc 2 146 0
 585 0010 0528     		cmp	r0, #5
 586 0012 1ED1     		bne	.L40
 587              		.loc 2 146 0 is_stmt 0 discriminator 1
 588 0014 124B     		ldr	r3, .L51
 589 0016 5879     		ldrb	r0, [r3, #5]	@ zero_extendqisi2
 590              	.LVL6:
 591 0018 7047     		bx	lr
 592              	.LVL7:
 593              	.L47:
 594              		.loc 2 143 0 is_stmt 1 discriminator 1
 595 001a 1248     		ldr	r0, .L51+4
 596              	.LVL8:
 597 001c 0078     		ldrb	r0, [r0, #0]	@ zero_extendqisi2
 598 001e 90B9     		cbnz	r0, .L50
 599              	.L36:
 600              		.loc 2 150 0
 601 0020 7047     		bx	lr
 602              	.LVL9:
 603              	.L48:
 604              		.loc 2 144 0 discriminator 1
 605 0022 114A     		ldr	r2, .L51+8
 606 0024 1078     		ldrb	r0, [r2, #0]	@ zero_extendqisi2
 607              	.LVL10:
 608 0026 0028     		cmp	r0, #0
 609 0028 FAD0     		beq	.L36
 610 002a 0D4B     		ldr	r3, .L51
 611 002c 9878     		ldrb	r0, [r3, #2]	@ zero_extendqisi2
 612 002e 7047     		bx	lr
 613              	.LVL11:
 614              	.L49:
ARM GAS  C:\Users\DNIEL~1\AppData\Local\Temp\ccq8ljmg.s 			page 12


 615              		.loc 2 145 0 discriminator 1
 616 0030 0C48     		ldr	r0, .L51+4
 617              	.LVL12:
 618 0032 0078     		ldrb	r0, [r0, #0]	@ zero_extendqisi2
 619 0034 0028     		cmp	r0, #0
 620 0036 F3D0     		beq	.L36
 621 0038 0B49     		ldr	r1, .L51+8
 622 003a 0878     		ldrb	r0, [r1, #0]	@ zero_extendqisi2
 623 003c 0028     		cmp	r0, #0
 624 003e EFD0     		beq	.L36
 625 0040 074A     		ldr	r2, .L51
 626 0042 D078     		ldrb	r0, [r2, #3]	@ zero_extendqisi2
 627 0044 7047     		bx	lr
 628              	.L50:
 629              		.loc 2 143 0 discriminator 1
 630 0046 0649     		ldr	r1, .L51
 631 0048 4878     		ldrb	r0, [r1, #1]	@ zero_extendqisi2
 632 004a 7047     		bx	lr
 633              	.LVL13:
 634              	.L46:
 635              		.loc 2 142 0 discriminator 1
 636 004c 044B     		ldr	r3, .L51
 637 004e 1878     		ldrb	r0, [r3, #0]	@ zero_extendqisi2
 638              	.LVL14:
 639 0050 7047     		bx	lr
 640              	.LVL15:
 641              	.L40:
 642              		.loc 2 147 0
 643 0052 0628     		cmp	r0, #6
 644 0054 02D1     		bne	.L45
 645              		.loc 2 147 0 is_stmt 0 discriminator 1
 646 0056 0248     		ldr	r0, .L51
 647              	.LVL16:
 648 0058 0079     		ldrb	r0, [r0, #4]	@ zero_extendqisi2
 649 005a 7047     		bx	lr
 650              	.LVL17:
 651              	.L45:
 652              		.loc 2 149 0 is_stmt 1
 653 005c 0020     		movs	r0, #0
 654              	.LVL18:
 655 005e DFE7     		b	.L36
 656              	.L52:
 657              		.align	2
 658              	.L51:
 659 0060 00000000 		.word	.LANCHOR5
 660 0064 00000000 		.word	.LANCHOR2
 661 0068 00000000 		.word	.LANCHOR3
 662              		.cfi_endproc
 663              	.LFE126:
 664              		.size	getLightFlashing, .-getLightFlashing
 665              		.section	.text.cmd_lightvalues,"ax",%progbits
 666              		.align	2
 667              		.p2align 4,,15
 668              		.global	cmd_lightvalues
 669              		.thumb
 670              		.thumb_func
 671              		.type	cmd_lightvalues, %function
ARM GAS  C:\Users\DNIEL~1\AppData\Local\Temp\ccq8ljmg.s 			page 13


 672              	cmd_lightvalues:
 673              	.LFB127:
 674              		.loc 2 152 0
 675              		.cfi_startproc
 676              		@ args = 0, pretend = 0, frame = 0
 677              		@ frame_needed = 0, uses_anonymous_args = 0
 678              	.LVL19:
 679 0000 38B5     		push	{r3, r4, r5, lr}
 680              	.LCFI8:
 681              		.cfi_def_cfa_offset 16
 682              		.loc 2 156 0
 683 0002 1B49     		ldr	r1, .L56
 684              	.LVL20:
 685              		.loc 2 161 0
 686 0004 1B4D     		ldr	r5, .L56+4
 687              		.cfi_offset 14, -4
 688              		.cfi_offset 5, -8
 689              		.cfi_offset 4, -12
 690              		.cfi_offset 3, -16
 691              		.loc 2 152 0
 692 0006 0446     		mov	r4, r0
 693              		.loc 2 156 0
 694 0008 FFF7FEFF 		bl	chprintf
 695              	.LVL21:
 696              		.loc 2 157 0
 697 000c 2046     		mov	r0, r4
 698 000e 1A49     		ldr	r1, .L56+8
 699 0010 FFF7FEFF 		bl	chprintf
 700              		.loc 2 158 0
 701 0014 22E0     		b	.L54
 702              	.L55:
 703              		.loc 2 159 0
 704 0016 0022     		movs	r2, #0
 705 0018 1346     		mov	r3, r2
 706 001a 1849     		ldr	r1, .L56+12
 707 001c 2046     		mov	r0, r4
 708 001e FFF7FEFF 		bl	chprintf
 709              		.loc 2 161 0
 710 0022 2046     		mov	r0, r4
 711 0024 1649     		ldr	r1, .L56+16
 712 0026 6A78     		ldrb	r2, [r5, #1]	@ zero_extendqisi2
 713 0028 FFF7FEFF 		bl	chprintf
 714              		.loc 2 162 0
 715 002c 2046     		mov	r0, r4
 716 002e 1549     		ldr	r1, .L56+20
 717 0030 AA78     		ldrb	r2, [r5, #2]	@ zero_extendqisi2
 718 0032 FFF7FEFF 		bl	chprintf
 719              		.loc 2 163 0
 720 0036 2046     		mov	r0, r4
 721 0038 1349     		ldr	r1, .L56+24
 722 003a EA78     		ldrb	r2, [r5, #3]	@ zero_extendqisi2
 723 003c FFF7FEFF 		bl	chprintf
 724              		.loc 2 164 0
 725 0040 2046     		mov	r0, r4
 726 0042 1249     		ldr	r1, .L56+28
 727 0044 2A79     		ldrb	r2, [r5, #4]	@ zero_extendqisi2
 728 0046 FFF7FEFF 		bl	chprintf
ARM GAS  C:\Users\DNIEL~1\AppData\Local\Temp\ccq8ljmg.s 			page 14


 729              		.loc 2 165 0
 730 004a 2046     		mov	r0, r4
 731 004c 1049     		ldr	r1, .L56+32
 732 004e 6A79     		ldrb	r2, [r5, #5]	@ zero_extendqisi2
 733 0050 FFF7FEFF 		bl	chprintf
 734              		.loc 2 166 0
 735 0054 4FF47A70 		mov	r0, #1000
 736 0058 FFF7FEFF 		bl	chThdSleep
 737              	.L54:
 738              		.loc 2 158 0 discriminator 1
 739 005c 2168     		ldr	r1, [r4, #0]
 740 005e 2046     		mov	r0, r4
 741 0060 4B69     		ldr	r3, [r1, #20]
 742 0062 0021     		movs	r1, #0
 743 0064 9847     		blx	r3
 744 0066 B0F1FF3F 		cmp	r0, #-1
 745 006a D4D0     		beq	.L55
 746              		.loc 2 168 0
 747 006c 38BD     		pop	{r3, r4, r5, pc}
 748              	.L57:
 749 006e 00BF     		.align	2
 750              	.L56:
 751 0070 00000000 		.word	.LC0
 752 0074 00000000 		.word	.LANCHOR5
 753 0078 04000000 		.word	.LC1
 754 007c 0C000000 		.word	.LC2
 755 0080 18000000 		.word	.LC3
 756 0084 2C000000 		.word	.LC4
 757 0088 40000000 		.word	.LC5
 758 008c 58000000 		.word	.LC6
 759 0090 6C000000 		.word	.LC7
 760              		.cfi_endproc
 761              	.LFE127:
 762              		.size	cmd_lightvalues, .-cmd_lightvalues
 763 0094 AFF30080 		.section	.text.cmd_lightblink,"ax",%progbits
 763      AFF30080 
 763      AFF30080 
 764              		.align	2
 765              		.p2align 4,,15
 766              		.global	cmd_lightblink
 767              		.thumb
 768              		.thumb_func
 769              		.type	cmd_lightblink, %function
 770              	cmd_lightblink:
 771              	.LFB128:
 772              		.loc 2 170 0
 773              		.cfi_startproc
 774              		@ args = 0, pretend = 0, frame = 0
 775              		@ frame_needed = 0, uses_anonymous_args = 0
 776              	.LVL22:
 777 0000 2DE9F041 		push	{r4, r5, r6, r7, r8, lr}
 778              	.LCFI9:
 779              		.cfi_def_cfa_offset 24
 780              		.loc 2 170 0
 781 0004 0446     		mov	r4, r0
 782              		.cfi_offset 14, -4
 783              		.cfi_offset 8, -8
ARM GAS  C:\Users\DNIEL~1\AppData\Local\Temp\ccq8ljmg.s 			page 15


 784              		.cfi_offset 7, -12
 785              		.cfi_offset 6, -16
 786              		.cfi_offset 5, -20
 787              		.cfi_offset 4, -24
 788 0006 0D46     		mov	r5, r1
 789              		.loc 2 174 0
 790 0008 6249     		ldr	r1, .L77
 791              	.LVL23:
 792              		.loc 2 170 0
 793 000a 1646     		mov	r6, r2
 794              		.loc 2 174 0
 795 000c FFF7FEFF 		bl	chprintf
 796              	.LVL24:
 797              		.loc 2 175 0
 798 0010 2046     		mov	r0, r4
 799 0012 6149     		ldr	r1, .L77+4
 800 0014 FFF7FEFF 		bl	chprintf
 801              		.loc 2 176 0
 802 0018 2168     		ldr	r1, [r4, #0]
 803 001a 2046     		mov	r0, r4
 804 001c 4B69     		ldr	r3, [r1, #20]
 805 001e 0021     		movs	r1, #0
 806 0020 9847     		blx	r3
 807 0022 B0F1FF3F 		cmp	r0, #-1
 808 0026 21D0     		beq	.L69
 809              	.LVL25:
 810              	.L59:
 811              		.loc 2 239 0
 812 0028 2046     		mov	r0, r4
 813 002a 5C49     		ldr	r1, .L77+8
 814 002c FFF7FEFF 		bl	chprintf
 815              		.loc 2 240 0
 816 0030 2046     		mov	r0, r4
 817 0032 5B49     		ldr	r1, .L77+12
 818 0034 FFF7FEFF 		bl	chprintf
 819              		.loc 2 241 0
 820 0038 2046     		mov	r0, r4
 821 003a 5A49     		ldr	r1, .L77+16
 822 003c FFF7FEFF 		bl	chprintf
 823              		.loc 2 242 0
 824 0040 2046     		mov	r0, r4
 825 0042 5949     		ldr	r1, .L77+20
 826 0044 FFF7FEFF 		bl	chprintf
 827              		.loc 2 243 0
 828 0048 2046     		mov	r0, r4
 829 004a 5849     		ldr	r1, .L77+24
 830 004c FFF7FEFF 		bl	chprintf
 831              		.loc 2 244 0
 832 0050 2046     		mov	r0, r4
 833 0052 5749     		ldr	r1, .L77+28
 834 0054 FFF7FEFF 		bl	chprintf
 835              		.loc 2 245 0
 836 0058 2046     		mov	r0, r4
 837 005a 5649     		ldr	r1, .L77+32
 838 005c FFF7FEFF 		bl	chprintf
 839              		.loc 2 246 0
 840 0060 5549     		ldr	r1, .L77+36
ARM GAS  C:\Users\DNIEL~1\AppData\Local\Temp\ccq8ljmg.s 			page 16


 841 0062 2046     		mov	r0, r4
 842              		.loc 2 248 0
 843 0064 BDE8F041 		pop	{r4, r5, r6, r7, r8, lr}
 844              		.loc 2 246 0
 845 0068 FFF7FEBF 		b	chprintf
 846              	.LVL26:
 847              	.L69:
 848              	.LBB11:
 849              		.loc 2 177 0
 850 006c 0022     		movs	r2, #0
 851 006e 2046     		mov	r0, r4
 852 0070 5249     		ldr	r1, .L77+40
 853 0072 1346     		mov	r3, r2
 854 0074 FFF7FEFF 		bl	chprintf
 855              		.loc 2 178 0
 856 0078 012D     		cmp	r5, #1
 857 007a D5D1     		bne	.L59
 858              		.loc 2 178 0 is_stmt 0 discriminator 1
 859 007c 3668     		ldr	r6, [r6, #0]
 860              	.LVL27:
 861 007e 5049     		ldr	r1, .L77+44
 862 0080 3046     		mov	r0, r6
 863 0082 FFF7FEFF 		bl	strcmp
 864 0086 0746     		mov	r7, r0
 865 0088 0028     		cmp	r0, #0
 866 008a 53D0     		beq	.L70
 867              		.loc 2 185 0 is_stmt 1 discriminator 1
 868 008c 3046     		mov	r0, r6
 869 008e 4D49     		ldr	r1, .L77+48
 870 0090 FFF7FEFF 		bl	strcmp
 871 0094 0746     		mov	r7, r0
 872 0096 0028     		cmp	r0, #0
 873 0098 5BD0     		beq	.L71
 874              		.loc 2 192 0 discriminator 1
 875 009a 3046     		mov	r0, r6
 876 009c 4A49     		ldr	r1, .L77+52
 877 009e FFF7FEFF 		bl	strcmp
 878 00a2 0746     		mov	r7, r0
 879 00a4 0028     		cmp	r0, #0
 880 00a6 5DD0     		beq	.L72
 881              		.loc 2 199 0 discriminator 1
 882 00a8 3046     		mov	r0, r6
 883 00aa 4849     		ldr	r1, .L77+56
 884 00ac FFF7FEFF 		bl	strcmp
 885 00b0 0028     		cmp	r0, #0
 886 00b2 66D0     		beq	.L73
 887              		.loc 2 206 0 discriminator 1
 888 00b4 3046     		mov	r0, r6
 889 00b6 4649     		ldr	r1, .L77+60
 890 00b8 FFF7FEFF 		bl	strcmp
 891 00bc 10B3     		cbz	r0, .L74
 892              		.loc 2 213 0 discriminator 1
 893 00be 3046     		mov	r0, r6
 894 00c0 4449     		ldr	r1, .L77+64
 895 00c2 FFF7FEFF 		bl	strcmp
 896 00c6 0028     		cmp	r0, #0
 897 00c8 24D0     		beq	.L75
ARM GAS  C:\Users\DNIEL~1\AppData\Local\Temp\ccq8ljmg.s 			page 17


 898              		.loc 2 220 0 discriminator 1
 899 00ca 3046     		mov	r0, r6
 900 00cc 4249     		ldr	r1, .L77+68
 901 00ce FFF7FEFF 		bl	strcmp
 902 00d2 0028     		cmp	r0, #0
 903 00d4 26D0     		beq	.L76
 904              		.loc 2 227 0 discriminator 1
 905 00d6 3046     		mov	r0, r6
 906 00d8 4049     		ldr	r1, .L77+72
 907 00da FFF7FEFF 		bl	strcmp
 908 00de 0028     		cmp	r0, #0
 909 00e0 A2D1     		bne	.L59
 910              		.loc 2 228 0
 911 00e2 2046     		mov	r0, r4
 912 00e4 3E49     		ldr	r1, .L77+76
 913 00e6 FFF7FEFF 		bl	chprintf
 914              	.LVL28:
 915              	.LBB20:
 916              	.LBB21:
 917              		.loc 2 104 0
 918 00ea 3E4A     		ldr	r2, .L77+80
 919              		.loc 2 109 0
 920 00ec 3E48     		ldr	r0, .L77+84
 921              		.loc 2 105 0
 922 00ee 0023     		movs	r3, #0
 923              		.loc 2 104 0
 924 00f0 0121     		movs	r1, #1
 925 00f2 1170     		strb	r1, [r2, #0]
 926              		.loc 2 105 0
 927 00f4 5370     		strb	r3, [r2, #1]
 928              		.loc 2 106 0
 929 00f6 9370     		strb	r3, [r2, #2]
 930              		.loc 2 107 0
 931 00f8 D370     		strb	r3, [r2, #3]
 932              		.loc 2 110 0
 933 00fa 3C4A     		ldr	r2, .L77+88
 934              		.loc 2 109 0
 935 00fc 0360     		str	r3, [r0, #0]
 936              		.loc 2 110 0
 937 00fe 1170     		strb	r1, [r2, #0]
 938 0100 BDE8F081 		pop	{r4, r5, r6, r7, r8, pc}
 939              	.LVL29:
 940              	.L74:
 941              	.LBE21:
 942              	.LBE20:
 943              		.loc 2 208 0
 944 0104 2046     		mov	r0, r4
 945 0106 3A49     		ldr	r1, .L77+92
 946 0108 FFF7FEFF 		bl	chprintf
 947              	.LBE11:
 948              		.loc 2 248 0
 949 010c BDE8F041 		pop	{r4, r5, r6, r7, r8, lr}
 950              	.LBB22:
 951              		.loc 2 209 0
 952 0110 FFF7FEBF 		b	lightBrakeOff
 953              	.L75:
 954              		.loc 2 215 0
ARM GAS  C:\Users\DNIEL~1\AppData\Local\Temp\ccq8ljmg.s 			page 18


 955 0114 2046     		mov	r0, r4
 956 0116 3749     		ldr	r1, .L77+96
 957 0118 FFF7FEFF 		bl	chprintf
 958              	.LBE22:
 959              		.loc 2 248 0
 960 011c BDE8F041 		pop	{r4, r5, r6, r7, r8, lr}
 961              	.LBB23:
 962              		.loc 2 216 0
 963 0120 FFF7FEBF 		b	lightPosLampOn
 964              	.L76:
 965              		.loc 2 222 0
 966 0124 2046     		mov	r0, r4
 967 0126 3449     		ldr	r1, .L77+100
 968 0128 FFF7FEFF 		bl	chprintf
 969              	.LBE23:
 970              		.loc 2 248 0
 971 012c BDE8F041 		pop	{r4, r5, r6, r7, r8, lr}
 972              	.LBB24:
 973              		.loc 2 223 0
 974 0130 FFF7FEBF 		b	lightPosLampOff
 975              	.L70:
 976              		.loc 2 180 0
 977 0134 2046     		mov	r0, r4
 978 0136 3149     		ldr	r1, .L77+104
 979 0138 FFF7FEFF 		bl	chprintf
 980              	.LVL30:
 981              	.LBB18:
 982              	.LBB19:
 983              		.loc 2 104 0
 984 013c 294B     		ldr	r3, .L77+80
 985 013e 1F70     		strb	r7, [r3, #0]
 986              		.loc 2 105 0
 987 0140 5D70     		strb	r5, [r3, #1]
 988              		.loc 2 106 0
 989 0142 9F70     		strb	r7, [r3, #2]
 990              	.LVL31:
 991              	.L68:
 992              	.LBE19:
 993              	.LBE18:
 994              	.LBB15:
 995              	.LBB16:
 996              		.loc 2 109 0
 997 0144 284A     		ldr	r2, .L77+84
 998              		.loc 2 110 0
 999 0146 2948     		ldr	r0, .L77+88
 1000              		.loc 2 107 0
 1001 0148 DF70     		strb	r7, [r3, #3]
 1002              		.loc 2 109 0
 1003 014a 1760     		str	r7, [r2, #0]
 1004              		.loc 2 110 0
 1005 014c 0570     		strb	r5, [r0, #0]
 1006 014e BDE8F081 		pop	{r4, r5, r6, r7, r8, pc}
 1007              	.L71:
 1008              	.LBE16:
 1009              	.LBE15:
 1010              		.loc 2 187 0
 1011 0152 2046     		mov	r0, r4
ARM GAS  C:\Users\DNIEL~1\AppData\Local\Temp\ccq8ljmg.s 			page 19


 1012 0154 2A49     		ldr	r1, .L77+108
 1013 0156 FFF7FEFF 		bl	chprintf
 1014              	.LVL32:
 1015              	.LBB14:
 1016              	.LBB17:
 1017              		.loc 2 104 0
 1018 015a 224B     		ldr	r3, .L77+80
 1019 015c 1F70     		strb	r7, [r3, #0]
 1020              		.loc 2 105 0
 1021 015e 5F70     		strb	r7, [r3, #1]
 1022              		.loc 2 106 0
 1023 0160 9D70     		strb	r5, [r3, #2]
 1024 0162 EFE7     		b	.L68
 1025              	.LVL33:
 1026              	.L72:
 1027              	.LBE17:
 1028              	.LBE14:
 1029              		.loc 2 194 0
 1030 0164 2046     		mov	r0, r4
 1031 0166 2749     		ldr	r1, .L77+112
 1032 0168 FFF7FEFF 		bl	chprintf
 1033              	.LVL34:
 1034              	.LBB12:
 1035              	.LBB13:
 1036              		.loc 2 104 0
 1037 016c 1D48     		ldr	r0, .L77+80
 1038              		.loc 2 109 0
 1039 016e 1E49     		ldr	r1, .L77+84
 1040              		.loc 2 110 0
 1041 0170 1E4B     		ldr	r3, .L77+88
 1042              		.loc 2 104 0
 1043 0172 0770     		strb	r7, [r0, #0]
 1044              		.loc 2 105 0
 1045 0174 4770     		strb	r7, [r0, #1]
 1046              		.loc 2 106 0
 1047 0176 8770     		strb	r7, [r0, #2]
 1048              		.loc 2 107 0
 1049 0178 C570     		strb	r5, [r0, #3]
 1050              		.loc 2 109 0
 1051 017a 0F60     		str	r7, [r1, #0]
 1052              		.loc 2 110 0
 1053 017c 1D70     		strb	r5, [r3, #0]
 1054 017e BDE8F081 		pop	{r4, r5, r6, r7, r8, pc}
 1055              	.LVL35:
 1056              	.L73:
 1057              	.LBE13:
 1058              	.LBE12:
 1059              		.loc 2 201 0
 1060 0182 2046     		mov	r0, r4
 1061 0184 2049     		ldr	r1, .L77+116
 1062 0186 FFF7FEFF 		bl	chprintf
 1063              	.LBE24:
 1064              		.loc 2 248 0
 1065 018a BDE8F041 		pop	{r4, r5, r6, r7, r8, lr}
 1066              	.LBB25:
 1067              		.loc 2 202 0
 1068 018e FFF7FEBF 		b	lightBrakeOn
ARM GAS  C:\Users\DNIEL~1\AppData\Local\Temp\ccq8ljmg.s 			page 20


 1069              	.L78:
 1070 0192 00BF     		.align	2
 1071              	.L77:
 1072 0194 00000000 		.word	.LC0
 1073 0198 04000000 		.word	.LC1
 1074 019c 88020000 		.word	.LC24
 1075 01a0 A0020000 		.word	.LC25
 1076 01a4 B4020000 		.word	.LC26
 1077 01a8 CC020000 		.word	.LC27
 1078 01ac E4020000 		.word	.LC28
 1079 01b0 FC020000 		.word	.LC29
 1080 01b4 14030000 		.word	.LC30
 1081 01b8 2C030000 		.word	.LC31
 1082 01bc 0C000000 		.word	.LC2
 1083 01c0 84000000 		.word	.LC8
 1084 01c4 C4000000 		.word	.LC10
 1085 01c8 04010000 		.word	.LC12
 1086 01cc 48010000 		.word	.LC14
 1087 01d0 84010000 		.word	.LC16
 1088 01d4 C8010000 		.word	.LC18
 1089 01d8 08020000 		.word	.LC20
 1090 01dc 48020000 		.word	.LC22
 1091 01e0 50020000 		.word	.LC23
 1092 01e4 00000000 		.word	.LANCHOR5
 1093 01e8 00000000 		.word	.LANCHOR0
 1094 01ec 00000000 		.word	.LANCHOR1
 1095 01f0 90010000 		.word	.LC17
 1096 01f4 D0010000 		.word	.LC19
 1097 01f8 10020000 		.word	.LC21
 1098 01fc 8C000000 		.word	.LC9
 1099 0200 CC000000 		.word	.LC11
 1100 0204 0C010000 		.word	.LC13
 1101 0208 50010000 		.word	.LC15
 1102              	.LBE25:
 1103              		.cfi_endproc
 1104              	.LFE128:
 1105              		.size	cmd_lightblink, .-cmd_lightblink
 1106 020c AFF30080 		.section	.text.cmd_getLight,"ax",%progbits
 1107              		.align	2
 1108              		.p2align 4,,15
 1109              		.global	cmd_getLight
 1110              		.thumb
 1111              		.thumb_func
 1112              		.type	cmd_getLight, %function
 1113              	cmd_getLight:
 1114              	.LFB129:
 1115              		.loc 2 250 0
 1116              		.cfi_startproc
 1117              		@ args = 0, pretend = 0, frame = 0
 1118              		@ frame_needed = 0, uses_anonymous_args = 0
 1119              	.LVL36:
 1120 0000 10B5     		push	{r4, lr}
 1121              	.LCFI10:
 1122              		.cfi_def_cfa_offset 8
 1123              		.loc 2 254 0
 1124 0002 2149     		ldr	r1, .L82
 1125              	.LVL37:
ARM GAS  C:\Users\DNIEL~1\AppData\Local\Temp\ccq8ljmg.s 			page 21


 1126              		.loc 2 250 0
 1127 0004 0446     		mov	r4, r0
 1128              		.cfi_offset 14, -4
 1129              		.cfi_offset 4, -8
 1130              		.loc 2 254 0
 1131 0006 FFF7FEFF 		bl	chprintf
 1132              	.LVL38:
 1133              		.loc 2 255 0
 1134 000a 2046     		mov	r0, r4
 1135 000c 1F49     		ldr	r1, .L82+4
 1136 000e FFF7FEFF 		bl	chprintf
 1137              		.loc 2 256 0
 1138 0012 30E0     		b	.L80
 1139              	.L81:
 1140              		.loc 2 257 0
 1141 0014 0022     		movs	r2, #0
 1142 0016 1346     		mov	r3, r2
 1143 0018 1D49     		ldr	r1, .L82+8
 1144 001a 2046     		mov	r0, r4
 1145 001c FFF7FEFF 		bl	chprintf
 1146              		.loc 2 259 0
 1147 0020 0220     		movs	r0, #2
 1148 0022 FFF7FEFF 		bl	getLightFlashing
 1149 0026 1B49     		ldr	r1, .L82+12
 1150 0028 0246     		mov	r2, r0
 1151 002a 2046     		mov	r0, r4
 1152 002c FFF7FEFF 		bl	chprintf
 1153              		.loc 2 260 0
 1154 0030 0320     		movs	r0, #3
 1155 0032 FFF7FEFF 		bl	getLightFlashing
 1156 0036 1849     		ldr	r1, .L82+16
 1157 0038 0246     		mov	r2, r0
 1158 003a 2046     		mov	r0, r4
 1159 003c FFF7FEFF 		bl	chprintf
 1160              		.loc 2 261 0
 1161 0040 0420     		movs	r0, #4
 1162 0042 FFF7FEFF 		bl	getLightFlashing
 1163 0046 1549     		ldr	r1, .L82+20
 1164 0048 0246     		mov	r2, r0
 1165 004a 2046     		mov	r0, r4
 1166 004c FFF7FEFF 		bl	chprintf
 1167              		.loc 2 262 0
 1168 0050 0520     		movs	r0, #5
 1169 0052 FFF7FEFF 		bl	getLightFlashing
 1170 0056 1249     		ldr	r1, .L82+24
 1171 0058 0246     		mov	r2, r0
 1172 005a 2046     		mov	r0, r4
 1173 005c FFF7FEFF 		bl	chprintf
 1174              		.loc 2 263 0
 1175 0060 0620     		movs	r0, #6
 1176 0062 FFF7FEFF 		bl	getLightFlashing
 1177 0066 0F49     		ldr	r1, .L82+28
 1178 0068 0246     		mov	r2, r0
 1179 006a 2046     		mov	r0, r4
 1180 006c FFF7FEFF 		bl	chprintf
 1181              		.loc 2 264 0
 1182 0070 6420     		movs	r0, #100
ARM GAS  C:\Users\DNIEL~1\AppData\Local\Temp\ccq8ljmg.s 			page 22


 1183 0072 FFF7FEFF 		bl	chThdSleep
 1184              	.L80:
 1185              		.loc 2 256 0 discriminator 1
 1186 0076 2168     		ldr	r1, [r4, #0]
 1187 0078 2046     		mov	r0, r4
 1188 007a 4B69     		ldr	r3, [r1, #20]
 1189 007c 0021     		movs	r1, #0
 1190 007e 9847     		blx	r3
 1191 0080 B0F1FF3F 		cmp	r0, #-1
 1192 0084 C6D0     		beq	.L81
 1193              		.loc 2 266 0
 1194 0086 10BD     		pop	{r4, pc}
 1195              	.L83:
 1196              		.align	2
 1197              	.L82:
 1198 0088 00000000 		.word	.LC0
 1199 008c 04000000 		.word	.LC1
 1200 0090 0C000000 		.word	.LC2
 1201 0094 18000000 		.word	.LC3
 1202 0098 2C000000 		.word	.LC4
 1203 009c 40000000 		.word	.LC5
 1204 00a0 58000000 		.word	.LC6
 1205 00a4 6C000000 		.word	.LC7
 1206              		.cfi_endproc
 1207              	.LFE129:
 1208              		.size	cmd_getLight, .-cmd_getLight
 1209 00a8 AFF30080 		.section	.data.pwmcfg,"aw",%progbits
 1209      AFF30080 
 1210              		.align	2
 1211              		.set	.LANCHOR4,. + 0
 1212              		.type	pwmcfg, %object
 1213              		.size	pwmcfg, 52
 1214              	pwmcfg:
 1215 0000 40420F00 		.word	1000000
 1216 0004 E803     		.short	1000
 1217 0006 0000     		.space	2
 1218 0008 00000000 		.word	0
 1219 000c 01000000 		.word	1
 1220 0010 00000000 		.word	0
 1221 0014 01000000 		.word	1
 1222 0018 00000000 		.word	0
 1223 001c 01000000 		.word	1
 1224 0020 00000000 		.word	0
 1225 0024 01000000 		.word	1
 1226 0028 00000000 		.word	0
 1227 002c 00000000 		.word	0
 1228 0030 00000000 		.word	0
 1229              		.section	.bss.period,"aw",%nobits
 1230              		.align	2
 1231              		.set	.LANCHOR0,. + 0
 1232              		.type	period, %object
 1233              		.size	period, 4
 1234              	period:
 1235 0000 00000000 		.space	4
 1236              		.section	.bss.flashing,"aw",%nobits
 1237              		.set	.LANCHOR1,. + 0
 1238              		.type	flashing, %object
ARM GAS  C:\Users\DNIEL~1\AppData\Local\Temp\ccq8ljmg.s 			page 23


 1239              		.size	flashing, 1
 1240              	flashing:
 1241 0000 00       		.space	1
 1242              		.section	.rodata.str1.4,"aMS",%progbits,1
 1243              		.align	2
 1244              	.LC0:
 1245 0000 1B6300   		.ascii	"\033c\000"
 1246 0003 00       		.space	1
 1247              	.LC1:
 1248 0004 1B5B324A 		.ascii	"\033[2J\000"
 1248      00
 1249 0009 000000   		.space	3
 1250              	.LC2:
 1251 000c 1B5B2564 		.ascii	"\033[%d;%dH\000"
 1251      3B256448 
 1251      00
 1252 0015 000000   		.space	3
 1253              	.LC3:
 1254 0018 52696768 		.ascii	"Right light: %15d\015\012\000"
 1254      74206C69 
 1254      6768743A 
 1254      20253135 
 1254      640D0A00 
 1255              	.LC4:
 1256 002c 4C656674 		.ascii	"Left light: %15d\015\012\000"
 1256      206C6967 
 1256      68743A20 
 1256      25313564 
 1256      0D0A00
 1257 003f 00       		.space	1
 1258              	.LC5:
 1259 0040 5761726E 		.ascii	"Warning light: %15d\015\012\000"
 1259      696E6720 
 1259      6C696768 
 1259      743A2025 
 1259      3135640D 
 1260 0056 0000     		.space	2
 1261              	.LC6:
 1262 0058 4272616B 		.ascii	"Brake light: %15d\015\012\000"
 1262      65206C69 
 1262      6768743A 
 1262      20253135 
 1262      640D0A00 
 1263              	.LC7:
 1264 006c 506F7369 		.ascii	"Position light: %15d\015\012\000"
 1264      74696F6E 
 1264      206C6967 
 1264      68743A20 
 1264      25313564 
 1265 0083 00       		.space	1
 1266              	.LC8:
 1267 0084 72696768 		.ascii	"right\000"
 1267      7400
 1268 008a 0000     		.space	2
 1269              	.LC9:
 1270 008c 2D2D2D2D 		.ascii	"-------------- Blinking right enabled -------------"
 1270      2D2D2D2D 
ARM GAS  C:\Users\DNIEL~1\AppData\Local\Temp\ccq8ljmg.s 			page 24


 1270      2D2D2D2D 
 1270      2D2D2042 
 1270      6C696E6B 
 1271 00bf 2D0D0A00 		.ascii	"-\015\012\000"
 1272 00c3 00       		.space	1
 1273              	.LC10:
 1274 00c4 6C656674 		.ascii	"left\000"
 1274      00
 1275 00c9 000000   		.space	3
 1276              	.LC11:
 1277 00cc 2D2D2D2D 		.ascii	"-------------- Blinking left enabled --------------"
 1277      2D2D2D2D 
 1277      2D2D2D2D 
 1277      2D2D2042 
 1277      6C696E6B 
 1278 00ff 0D0A00   		.ascii	"\015\012\000"
 1279 0102 0000     		.space	2
 1280              	.LC12:
 1281 0104 7761726E 		.ascii	"warning\000"
 1281      696E6700 
 1282              	.LC13:
 1283 010c 2D2D2D2D 		.ascii	"-------------- Blinking warning enabled -----------"
 1283      2D2D2D2D 
 1283      2D2D2D2D 
 1283      2D2D2042 
 1283      6C696E6B 
 1284 013f 2D2D2D0D 		.ascii	"---\015\012\000"
 1284      0A00
 1285 0145 000000   		.space	3
 1286              	.LC14:
 1287 0148 6272616B 		.ascii	"brakeon\000"
 1287      656F6E00 
 1288              	.LC15:
 1289 0150 2D2D2D2D 		.ascii	"-------------- Brake light enabled --------------\015"
 1289      2D2D2D2D 
 1289      2D2D2D2D 
 1289      2D2D2042 
 1289      72616B65 
 1290 0182 0A00     		.ascii	"\012\000"
 1291              	.LC16:
 1292 0184 6272616B 		.ascii	"brakeoff\000"
 1292      656F6666 
 1292      00
 1293 018d 000000   		.space	3
 1294              	.LC17:
 1295 0190 2D2D2D2D 		.ascii	"-------------- Brake light disabled --------------\015"
 1295      2D2D2D2D 
 1295      2D2D2D2D 
 1295      2D2D2042 
 1295      72616B65 
 1296 01c3 0A00     		.ascii	"\012\000"
 1297 01c5 000000   		.space	3
 1298              	.LC18:
 1299 01c8 6C616D70 		.ascii	"lampon\000"
 1299      6F6E00
 1300 01cf 00       		.space	1
 1301              	.LC19:
ARM GAS  C:\Users\DNIEL~1\AppData\Local\Temp\ccq8ljmg.s 			page 25


 1302 01d0 2D2D2D2D 		.ascii	"-------------- Position lamp enabled --------------"
 1302      2D2D2D2D 
 1302      2D2D2D2D 
 1302      2D2D2050 
 1302      6F736974 
 1303 0203 0D0A00   		.ascii	"\015\012\000"
 1304 0206 0000     		.space	2
 1305              	.LC20:
 1306 0208 6C616D70 		.ascii	"lampoff\000"
 1306      6F666600 
 1307              	.LC21:
 1308 0210 2D2D2D2D 		.ascii	"-------------- Position lamp disabled -------------"
 1308      2D2D2D2D 
 1308      2D2D2D2D 
 1308      2D2D2050 
 1308      6F736974 
 1309 0243 2D0D0A00 		.ascii	"-\015\012\000"
 1310 0247 00       		.space	1
 1311              	.LC22:
 1312 0248 73746F70 		.ascii	"stop\000"
 1312      00
 1313 024d 000000   		.space	3
 1314              	.LC23:
 1315 0250 2D2D2D2D 		.ascii	"-------------- All blinking disabled --------------"
 1315      2D2D2D2D 
 1315      2D2D2D2D 
 1315      2D2D2041 
 1315      6C6C2062 
 1316 0283 0D0A00   		.ascii	"\015\012\000"
 1317 0286 0000     		.space	2
 1318              	.LC24:
 1319 0288 55736167 		.ascii	"Usage: light right\015\012\000"
 1319      653A206C 
 1319      69676874 
 1319      20726967 
 1319      68740D0A 
 1320 029d 000000   		.space	3
 1321              	.LC25:
 1322 02a0 20202020 		.ascii	"       light left\015\012\000"
 1322      2020206C 
 1322      69676874 
 1322      206C6566 
 1322      740D0A00 
 1323              	.LC26:
 1324 02b4 20202020 		.ascii	"       light warning\015\012\000"
 1324      2020206C 
 1324      69676874 
 1324      20776172 
 1324      6E696E67 
 1325 02cb 00       		.space	1
 1326              	.LC27:
 1327 02cc 20202020 		.ascii	"       light brakeon\015\012\000"
 1327      2020206C 
 1327      69676874 
 1327      20627261 
 1327      6B656F6E 
 1328 02e3 00       		.space	1
ARM GAS  C:\Users\DNIEL~1\AppData\Local\Temp\ccq8ljmg.s 			page 26


 1329              	.LC28:
 1330 02e4 20202020 		.ascii	"       light brakeoff\015\012\000"
 1330      2020206C 
 1330      69676874 
 1330      20627261 
 1330      6B656F66 
 1331              	.LC29:
 1332 02fc 20202020 		.ascii	"       light lampon\015\012\000"
 1332      2020206C 
 1332      69676874 
 1332      206C616D 
 1332      706F6E0D 
 1333 0312 0000     		.space	2
 1334              	.LC30:
 1335 0314 20202020 		.ascii	"       light lampoff\015\012\000"
 1335      2020206C 
 1335      69676874 
 1335      206C616D 
 1335      706F6666 
 1336 032b 00       		.space	1
 1337              	.LC31:
 1338 032c 20202020 		.ascii	"       light stop\015\012\000"
 1338      2020206C 
 1338      69676874 
 1338      2073746F 
 1338      700D0A00 
 1339              		.section	.bss.left_active,"aw",%nobits
 1340              		.set	.LANCHOR3,. + 0
 1341              		.type	left_active, %object
 1342              		.size	left_active, 1
 1343              	left_active:
 1344 0000 00       		.space	1
 1345              		.section	.bss.lightchanels,"aw",%nobits
 1346              		.align	2
 1347              		.set	.LANCHOR5,. + 0
 1348              		.type	lightchanels, %object
 1349              		.size	lightchanels, 7
 1350              	lightchanels:
 1351 0000 00000000 		.space	7
 1351      000000
 1352 0007 00       		.section	.bss.right_active,"aw",%nobits
 1353              		.set	.LANCHOR2,. + 0
 1354              		.type	right_active, %object
 1355              		.size	right_active, 1
 1356              	right_active:
 1357 0000 00       		.space	1
 1358              		.text
 1359              	.Letext0:
 1360              		.section	.debug_loc,"",%progbits
 1361              	.Ldebug_loc0:
 1362              	.LLST0:
 1363 0000 00000000 		.4byte	.LFB118
 1364 0004 02000000 		.4byte	.LCFI0
 1365 0008 0200     		.2byte	0x2
 1366 000a 7D       		.byte	0x7d
 1367 000b 00       		.sleb128 0
 1368 000c 02000000 		.4byte	.LCFI0
ARM GAS  C:\Users\DNIEL~1\AppData\Local\Temp\ccq8ljmg.s 			page 27


 1369 0010 04000000 		.4byte	.LCFI1
 1370 0014 0200     		.2byte	0x2
 1371 0016 7D       		.byte	0x7d
 1372 0017 0C       		.sleb128 12
 1373 0018 04000000 		.4byte	.LCFI1
 1374 001c 06000000 		.4byte	.LCFI2
 1375 0020 0200     		.2byte	0x2
 1376 0022 7D       		.byte	0x7d
 1377 0023 10       		.sleb128 16
 1378 0024 06000000 		.4byte	.LCFI2
 1379 0028 1E000000 		.4byte	.LFE118
 1380 002c 0200     		.2byte	0x2
 1381 002e 7D       		.byte	0x7d
 1382 002f 18       		.sleb128 24
 1383 0030 00000000 		.4byte	0x0
 1384 0034 00000000 		.4byte	0x0
 1385              	.LLST1:
 1386 0038 00000000 		.4byte	.LVL0
 1387 003c 13000000 		.4byte	.LVL1-1
 1388 0040 0100     		.2byte	0x1
 1389 0042 50       		.byte	0x50
 1390 0043 00000000 		.4byte	0x0
 1391 0047 00000000 		.4byte	0x0
 1392              	.LLST2:
 1393 004b 00000000 		.4byte	.LFB120
 1394 004f 0A000000 		.4byte	.LCFI3
 1395 0053 0200     		.2byte	0x2
 1396 0055 7D       		.byte	0x7d
 1397 0056 00       		.sleb128 0
 1398 0057 0A000000 		.4byte	.LCFI3
 1399 005b E4000000 		.4byte	.LFE120
 1400 005f 0200     		.2byte	0x2
 1401 0061 7D       		.byte	0x7d
 1402 0062 10       		.sleb128 16
 1403 0063 00000000 		.4byte	0x0
 1404 0067 00000000 		.4byte	0x0
 1405              	.LLST3:
 1406 006b 00000000 		.4byte	.LFB121
 1407 006f 02000000 		.4byte	.LCFI4
 1408 0073 0200     		.2byte	0x2
 1409 0075 7D       		.byte	0x7d
 1410 0076 00       		.sleb128 0
 1411 0077 02000000 		.4byte	.LCFI4
 1412 007b 54000000 		.4byte	.LFE121
 1413 007f 0200     		.2byte	0x2
 1414 0081 7D       		.byte	0x7d
 1415 0082 04       		.sleb128 4
 1416 0083 00000000 		.4byte	0x0
 1417 0087 00000000 		.4byte	0x0
 1418              	.LLST4:
 1419 008b 00000000 		.4byte	.LVL2
 1420 008f 2A000000 		.4byte	.LVL3
 1421 0093 0100     		.2byte	0x1
 1422 0095 50       		.byte	0x50
 1423 0096 2A000000 		.4byte	.LVL3
 1424 009a 2E000000 		.4byte	.LVL4
 1425 009e 0300     		.2byte	0x3
ARM GAS  C:\Users\DNIEL~1\AppData\Local\Temp\ccq8ljmg.s 			page 28


 1426 00a0 7C       		.byte	0x7c
 1427 00a1 03       		.sleb128 3
 1428 00a2 9F       		.byte	0x9f
 1429 00a3 00000000 		.4byte	0x0
 1430 00a7 00000000 		.4byte	0x0
 1431              	.LLST5:
 1432 00ab 00000000 		.4byte	.LFB122
 1433 00af 02000000 		.4byte	.LCFI5
 1434 00b3 0200     		.2byte	0x2
 1435 00b5 7D       		.byte	0x7d
 1436 00b6 00       		.sleb128 0
 1437 00b7 02000000 		.4byte	.LCFI5
 1438 00bb 1C000000 		.4byte	.LFE122
 1439 00bf 0200     		.2byte	0x2
 1440 00c1 7D       		.byte	0x7d
 1441 00c2 04       		.sleb128 4
 1442 00c3 00000000 		.4byte	0x0
 1443 00c7 00000000 		.4byte	0x0
 1444              	.LLST6:
 1445 00cb 00000000 		.4byte	.LFB124
 1446 00cf 02000000 		.4byte	.LCFI6
 1447 00d3 0200     		.2byte	0x2
 1448 00d5 7D       		.byte	0x7d
 1449 00d6 00       		.sleb128 0
 1450 00d7 02000000 		.4byte	.LCFI6
 1451 00db 30000000 		.4byte	.LFE124
 1452 00df 0200     		.2byte	0x2
 1453 00e1 7D       		.byte	0x7d
 1454 00e2 10       		.sleb128 16
 1455 00e3 00000000 		.4byte	0x0
 1456 00e7 00000000 		.4byte	0x0
 1457              	.LLST7:
 1458 00eb 00000000 		.4byte	.LFB125
 1459 00ef 02000000 		.4byte	.LCFI7
 1460 00f3 0200     		.2byte	0x2
 1461 00f5 7D       		.byte	0x7d
 1462 00f6 00       		.sleb128 0
 1463 00f7 02000000 		.4byte	.LCFI7
 1464 00fb 28000000 		.4byte	.LFE125
 1465 00ff 0200     		.2byte	0x2
 1466 0101 7D       		.byte	0x7d
 1467 0102 10       		.sleb128 16
 1468 0103 00000000 		.4byte	0x0
 1469 0107 00000000 		.4byte	0x0
 1470              	.LLST8:
 1471 010b 00000000 		.4byte	.LVL5
 1472 010f 18000000 		.4byte	.LVL6
 1473 0113 0100     		.2byte	0x1
 1474 0115 50       		.byte	0x50
 1475 0116 1A000000 		.4byte	.LVL7
 1476 011a 1C000000 		.4byte	.LVL8
 1477 011e 0100     		.2byte	0x1
 1478 0120 50       		.byte	0x50
 1479 0121 22000000 		.4byte	.LVL9
 1480 0125 26000000 		.4byte	.LVL10
 1481 0129 0100     		.2byte	0x1
 1482 012b 50       		.byte	0x50
ARM GAS  C:\Users\DNIEL~1\AppData\Local\Temp\ccq8ljmg.s 			page 29


 1483 012c 30000000 		.4byte	.LVL11
 1484 0130 32000000 		.4byte	.LVL12
 1485 0134 0100     		.2byte	0x1
 1486 0136 50       		.byte	0x50
 1487 0137 4C000000 		.4byte	.LVL13
 1488 013b 50000000 		.4byte	.LVL14
 1489 013f 0100     		.2byte	0x1
 1490 0141 50       		.byte	0x50
 1491 0142 52000000 		.4byte	.LVL15
 1492 0146 58000000 		.4byte	.LVL16
 1493 014a 0100     		.2byte	0x1
 1494 014c 50       		.byte	0x50
 1495 014d 5C000000 		.4byte	.LVL17
 1496 0151 5E000000 		.4byte	.LVL18
 1497 0155 0100     		.2byte	0x1
 1498 0157 50       		.byte	0x50
 1499 0158 00000000 		.4byte	0x0
 1500 015c 00000000 		.4byte	0x0
 1501              	.LLST9:
 1502 0160 00000000 		.4byte	.LFB127
 1503 0164 02000000 		.4byte	.LCFI8
 1504 0168 0200     		.2byte	0x2
 1505 016a 7D       		.byte	0x7d
 1506 016b 00       		.sleb128 0
 1507 016c 02000000 		.4byte	.LCFI8
 1508 0170 94000000 		.4byte	.LFE127
 1509 0174 0200     		.2byte	0x2
 1510 0176 7D       		.byte	0x7d
 1511 0177 10       		.sleb128 16
 1512 0178 00000000 		.4byte	0x0
 1513 017c 00000000 		.4byte	0x0
 1514              	.LLST10:
 1515 0180 00000000 		.4byte	.LVL19
 1516 0184 0B000000 		.4byte	.LVL21-1
 1517 0188 0100     		.2byte	0x1
 1518 018a 50       		.byte	0x50
 1519 018b 0B000000 		.4byte	.LVL21-1
 1520 018f 94000000 		.4byte	.LFE127
 1521 0193 0100     		.2byte	0x1
 1522 0195 54       		.byte	0x54
 1523 0196 00000000 		.4byte	0x0
 1524 019a 00000000 		.4byte	0x0
 1525              	.LLST11:
 1526 019e 00000000 		.4byte	.LVL19
 1527 01a2 04000000 		.4byte	.LVL20
 1528 01a6 0100     		.2byte	0x1
 1529 01a8 51       		.byte	0x51
 1530 01a9 00000000 		.4byte	0x0
 1531 01ad 00000000 		.4byte	0x0
 1532              	.LLST12:
 1533 01b1 00000000 		.4byte	.LVL19
 1534 01b5 0B000000 		.4byte	.LVL21-1
 1535 01b9 0100     		.2byte	0x1
 1536 01bb 52       		.byte	0x52
 1537 01bc 00000000 		.4byte	0x0
 1538 01c0 00000000 		.4byte	0x0
 1539              	.LLST13:
ARM GAS  C:\Users\DNIEL~1\AppData\Local\Temp\ccq8ljmg.s 			page 30


 1540 01c4 00000000 		.4byte	.LFB128
 1541 01c8 04000000 		.4byte	.LCFI9
 1542 01cc 0200     		.2byte	0x2
 1543 01ce 7D       		.byte	0x7d
 1544 01cf 00       		.sleb128 0
 1545 01d0 04000000 		.4byte	.LCFI9
 1546 01d4 0C020000 		.4byte	.LFE128
 1547 01d8 0200     		.2byte	0x2
 1548 01da 7D       		.byte	0x7d
 1549 01db 18       		.sleb128 24
 1550 01dc 00000000 		.4byte	0x0
 1551 01e0 00000000 		.4byte	0x0
 1552              	.LLST14:
 1553 01e4 00000000 		.4byte	.LVL22
 1554 01e8 0F000000 		.4byte	.LVL24-1
 1555 01ec 0100     		.2byte	0x1
 1556 01ee 50       		.byte	0x50
 1557 01ef 0F000000 		.4byte	.LVL24-1
 1558 01f3 0C020000 		.4byte	.LFE128
 1559 01f7 0100     		.2byte	0x1
 1560 01f9 54       		.byte	0x54
 1561 01fa 00000000 		.4byte	0x0
 1562 01fe 00000000 		.4byte	0x0
 1563              	.LLST15:
 1564 0202 00000000 		.4byte	.LVL22
 1565 0206 0A000000 		.4byte	.LVL23
 1566 020a 0100     		.2byte	0x1
 1567 020c 51       		.byte	0x51
 1568 020d 0A000000 		.4byte	.LVL23
 1569 0211 0C020000 		.4byte	.LFE128
 1570 0215 0100     		.2byte	0x1
 1571 0217 55       		.byte	0x55
 1572 0218 00000000 		.4byte	0x0
 1573 021c 00000000 		.4byte	0x0
 1574              	.LLST16:
 1575 0220 00000000 		.4byte	.LVL22
 1576 0224 0F000000 		.4byte	.LVL24-1
 1577 0228 0100     		.2byte	0x1
 1578 022a 52       		.byte	0x52
 1579 022b 0F000000 		.4byte	.LVL24-1
 1580 022f 28000000 		.4byte	.LVL25
 1581 0233 0100     		.2byte	0x1
 1582 0235 56       		.byte	0x56
 1583 0236 6C000000 		.4byte	.LVL26
 1584 023a 7E000000 		.4byte	.LVL27
 1585 023e 0100     		.2byte	0x1
 1586 0240 56       		.byte	0x56
 1587 0241 00000000 		.4byte	0x0
 1588 0245 00000000 		.4byte	0x0
 1589              	.LLST17:
 1590 0249 6C010000 		.4byte	.LVL34
 1591 024d 82010000 		.4byte	.LVL35
 1592 0251 0200     		.2byte	0x2
 1593 0253 33       		.byte	0x33
 1594 0254 9F       		.byte	0x9f
 1595 0255 00000000 		.4byte	0x0
 1596 0259 00000000 		.4byte	0x0
ARM GAS  C:\Users\DNIEL~1\AppData\Local\Temp\ccq8ljmg.s 			page 31


 1597              	.LLST18:
 1598 025d 5A010000 		.4byte	.LVL32
 1599 0261 64010000 		.4byte	.LVL33
 1600 0265 0200     		.2byte	0x2
 1601 0267 32       		.byte	0x32
 1602 0268 9F       		.byte	0x9f
 1603 0269 00000000 		.4byte	0x0
 1604 026d 00000000 		.4byte	0x0
 1605              	.LLST19:
 1606 0271 3C010000 		.4byte	.LVL30
 1607 0275 44010000 		.4byte	.LVL31
 1608 0279 0200     		.2byte	0x2
 1609 027b 31       		.byte	0x31
 1610 027c 9F       		.byte	0x9f
 1611 027d 00000000 		.4byte	0x0
 1612 0281 00000000 		.4byte	0x0
 1613              	.LLST20:
 1614 0285 EA000000 		.4byte	.LVL28
 1615 0289 04010000 		.4byte	.LVL29
 1616 028d 0200     		.2byte	0x2
 1617 028f 30       		.byte	0x30
 1618 0290 9F       		.byte	0x9f
 1619 0291 00000000 		.4byte	0x0
 1620 0295 00000000 		.4byte	0x0
 1621              	.LLST21:
 1622 0299 00000000 		.4byte	.LFB129
 1623 029d 02000000 		.4byte	.LCFI10
 1624 02a1 0200     		.2byte	0x2
 1625 02a3 7D       		.byte	0x7d
 1626 02a4 00       		.sleb128 0
 1627 02a5 02000000 		.4byte	.LCFI10
 1628 02a9 A8000000 		.4byte	.LFE129
 1629 02ad 0200     		.2byte	0x2
 1630 02af 7D       		.byte	0x7d
 1631 02b0 08       		.sleb128 8
 1632 02b1 00000000 		.4byte	0x0
 1633 02b5 00000000 		.4byte	0x0
 1634              	.LLST22:
 1635 02b9 00000000 		.4byte	.LVL36
 1636 02bd 09000000 		.4byte	.LVL38-1
 1637 02c1 0100     		.2byte	0x1
 1638 02c3 50       		.byte	0x50
 1639 02c4 09000000 		.4byte	.LVL38-1
 1640 02c8 A8000000 		.4byte	.LFE129
 1641 02cc 0100     		.2byte	0x1
 1642 02ce 54       		.byte	0x54
 1643 02cf 00000000 		.4byte	0x0
 1644 02d3 00000000 		.4byte	0x0
 1645              	.LLST23:
 1646 02d7 00000000 		.4byte	.LVL36
 1647 02db 04000000 		.4byte	.LVL37
 1648 02df 0100     		.2byte	0x1
 1649 02e1 51       		.byte	0x51
 1650 02e2 00000000 		.4byte	0x0
 1651 02e6 00000000 		.4byte	0x0
 1652              	.LLST24:
 1653 02ea 00000000 		.4byte	.LVL36
ARM GAS  C:\Users\DNIEL~1\AppData\Local\Temp\ccq8ljmg.s 			page 32


 1654 02ee 09000000 		.4byte	.LVL38-1
 1655 02f2 0100     		.2byte	0x1
 1656 02f4 52       		.byte	0x52
 1657 02f5 00000000 		.4byte	0x0
 1658 02f9 00000000 		.4byte	0x0
 1659              		.file 3 "c:\\program files (x86)\\codesourcery\\sourcery g++ lite\\bin\\../lib/gcc/arm-none-eabi/4
 1660              		.file 4 "c:\\program files (x86)\\codesourcery\\sourcery g++ lite\\bin\\../lib/gcc/arm-none-eabi/4
 1661              		.file 5 "../../../ChibiOS/os/ports/GCC/ARMCMx/chtypes.h"
 1662              		.file 6 "../../../ChibiOS/os/kernel/include/chstreams.h"
 1663              		.file 7 "../../../ChibiOS/os/hal/include/io_channel.h"
 1664              		.file 8 "../../../ChibiOS/os/hal/platforms/STM32/TIMv1/stm32_tim.h"
 1665              		.file 9 "../../../ChibiOS/os/hal/include/pwm.h"
 1666              		.file 10 "../../../ChibiOS/os/hal/platforms/STM32/TIMv1/pwm_lld.h"
 1667              		.file 11 "c:\\program files (x86)\\codesourcery\\sourcery g++ lite\\bin\\../lib/gcc/arm-none-eabi/
 1668              		.file 12 "<built-in>"
 1669              		.file 13 "../../../ChibiOS/os/ports/common/ARMCMx/CMSIS/include/core_cm4.h"
 1670              		.section	.debug_info
 1671 0000 E8090000 		.4byte	0x9e8
 1672 0004 0200     		.2byte	0x2
 1673 0006 00000000 		.4byte	.Ldebug_abbrev0
 1674 000a 04       		.byte	0x4
 1675 000b 01       		.uleb128 0x1
 1676 000c 44030000 		.4byte	.LASF94
 1677 0010 01       		.byte	0x1
 1678 0011 E6020000 		.4byte	.LASF95
 1679 0015 7A000000 		.4byte	.LASF96
 1680 0019 00000000 		.4byte	0x0
 1681 001d 00000000 		.4byte	0x0
 1682 0021 48000000 		.4byte	.Ldebug_ranges0+0x48
 1683 0025 00000000 		.4byte	.Ldebug_line0
 1684 0029 02       		.uleb128 0x2
 1685 002a 04       		.byte	0x4
 1686 002b 05       		.byte	0x5
 1687 002c 696E7400 		.ascii	"int\000"
 1688 0030 03       		.uleb128 0x3
 1689 0031 50000000 		.4byte	.LASF2
 1690 0035 03       		.byte	0x3
 1691 0036 D3       		.byte	0xd3
 1692 0037 3B000000 		.4byte	0x3b
 1693 003b 04       		.uleb128 0x4
 1694 003c 04       		.byte	0x4
 1695 003d 07       		.byte	0x7
 1696 003e 1E020000 		.4byte	.LASF0
 1697 0042 04       		.uleb128 0x4
 1698 0043 01       		.byte	0x1
 1699 0044 06       		.byte	0x6
 1700 0045 F2010000 		.4byte	.LASF1
 1701 0049 03       		.uleb128 0x3
 1702 004a F7000000 		.4byte	.LASF3
 1703 004e 04       		.byte	0x4
 1704 004f 2A       		.byte	0x2a
 1705 0050 54000000 		.4byte	0x54
 1706 0054 04       		.uleb128 0x4
 1707 0055 01       		.byte	0x1
 1708 0056 08       		.byte	0x8
 1709 0057 C6010000 		.4byte	.LASF4
 1710 005b 04       		.uleb128 0x4
ARM GAS  C:\Users\DNIEL~1\AppData\Local\Temp\ccq8ljmg.s 			page 33


 1711 005c 02       		.byte	0x2
 1712 005d 05       		.byte	0x5
 1713 005e CB000000 		.4byte	.LASF5
 1714 0062 03       		.uleb128 0x3
 1715 0063 30020000 		.4byte	.LASF6
 1716 0067 04       		.byte	0x4
 1717 0068 36       		.byte	0x36
 1718 0069 6D000000 		.4byte	0x6d
 1719 006d 04       		.uleb128 0x4
 1720 006e 02       		.byte	0x2
 1721 006f 07       		.byte	0x7
 1722 0070 68020000 		.4byte	.LASF7
 1723 0074 03       		.uleb128 0x3
 1724 0075 A3020000 		.4byte	.LASF8
 1725 0079 04       		.byte	0x4
 1726 007a 4F       		.byte	0x4f
 1727 007b 7F000000 		.4byte	0x7f
 1728 007f 04       		.uleb128 0x4
 1729 0080 04       		.byte	0x4
 1730 0081 05       		.byte	0x5
 1731 0082 95020000 		.4byte	.LASF9
 1732 0086 03       		.uleb128 0x3
 1733 0087 15020000 		.4byte	.LASF10
 1734 008b 04       		.byte	0x4
 1735 008c 50       		.byte	0x50
 1736 008d 91000000 		.4byte	0x91
 1737 0091 04       		.uleb128 0x4
 1738 0092 04       		.byte	0x4
 1739 0093 07       		.byte	0x7
 1740 0094 FB020000 		.4byte	.LASF11
 1741 0098 04       		.uleb128 0x4
 1742 0099 08       		.byte	0x8
 1743 009a 05       		.byte	0x5
 1744 009b 3F010000 		.4byte	.LASF12
 1745 009f 04       		.uleb128 0x4
 1746 00a0 08       		.byte	0x8
 1747 00a1 07       		.byte	0x7
 1748 00a2 FE010000 		.4byte	.LASF13
 1749 00a6 03       		.uleb128 0x3
 1750 00a7 AB020000 		.4byte	.LASF14
 1751 00ab 05       		.byte	0x5
 1752 00ac 2B       		.byte	0x2b
 1753 00ad B1000000 		.4byte	0xb1
 1754 00b1 04       		.uleb128 0x4
 1755 00b2 01       		.byte	0x1
 1756 00b3 02       		.byte	0x2
 1757 00b4 C6020000 		.4byte	.LASF15
 1758 00b8 03       		.uleb128 0x3
 1759 00b9 EA030000 		.4byte	.LASF16
 1760 00bd 05       		.byte	0x5
 1761 00be 31       		.byte	0x31
 1762 00bf 74000000 		.4byte	0x74
 1763 00c3 03       		.uleb128 0x3
 1764 00c4 85020000 		.4byte	.LASF17
 1765 00c8 05       		.byte	0x5
 1766 00c9 35       		.byte	0x35
 1767 00ca 86000000 		.4byte	0x86
ARM GAS  C:\Users\DNIEL~1\AppData\Local\Temp\ccq8ljmg.s 			page 34


 1768 00ce 05       		.uleb128 0x5
 1769 00cf 04       		.byte	0x4
 1770 00d0 06       		.uleb128 0x6
 1771 00d1 86000000 		.4byte	0x86
 1772 00d5 07       		.uleb128 0x7
 1773 00d6 04       		.byte	0x4
 1774 00d7 DB000000 		.4byte	0xdb
 1775 00db 08       		.uleb128 0x8
 1776 00dc E0000000 		.4byte	0xe0
 1777 00e0 04       		.uleb128 0x4
 1778 00e1 01       		.byte	0x1
 1779 00e2 08       		.byte	0x8
 1780 00e3 57010000 		.4byte	.LASF18
 1781 00e7 07       		.uleb128 0x7
 1782 00e8 04       		.byte	0x4
 1783 00e9 ED000000 		.4byte	0xed
 1784 00ed 09       		.uleb128 0x9
 1785 00ee 01       		.byte	0x1
 1786 00ef B8000000 		.4byte	0xb8
 1787 00f3 FD000000 		.4byte	0xfd
 1788 00f7 0A       		.uleb128 0xa
 1789 00f8 CE000000 		.4byte	0xce
 1790 00fc 00       		.byte	0x0
 1791 00fd 07       		.uleb128 0x7
 1792 00fe 04       		.byte	0x4
 1793 00ff 49000000 		.4byte	0x49
 1794 0103 0B       		.uleb128 0xb
 1795 0104 F9030000 		.4byte	.LASF22
 1796 0108 10       		.byte	0x10
 1797 0109 06       		.byte	0x6
 1798 010a 48       		.byte	0x48
 1799 010b 48010000 		.4byte	0x148
 1800 010f 0C       		.uleb128 0xc
 1801 0110 13000000 		.4byte	.LASF19
 1802 0114 06       		.byte	0x6
 1803 0115 49       		.byte	0x49
 1804 0116 6D010000 		.4byte	0x16d
 1805 011a 02       		.byte	0x2
 1806 011b 23       		.byte	0x23
 1807 011c 00       		.uleb128 0x0
 1808 011d 0C       		.uleb128 0xc
 1809 011e 3A010000 		.4byte	.LASF20
 1810 0122 06       		.byte	0x6
 1811 0123 49       		.byte	0x49
 1812 0124 8D010000 		.4byte	0x18d
 1813 0128 02       		.byte	0x2
 1814 0129 23       		.byte	0x23
 1815 012a 04       		.uleb128 0x4
 1816 012b 0D       		.uleb128 0xd
 1817 012c 70757400 		.ascii	"put\000"
 1818 0130 06       		.byte	0x6
 1819 0131 49       		.byte	0x49
 1820 0132 A8010000 		.4byte	0x1a8
 1821 0136 02       		.byte	0x2
 1822 0137 23       		.byte	0x23
 1823 0138 08       		.uleb128 0x8
 1824 0139 0D       		.uleb128 0xd
ARM GAS  C:\Users\DNIEL~1\AppData\Local\Temp\ccq8ljmg.s 			page 35


 1825 013a 67657400 		.ascii	"get\000"
 1826 013e 06       		.byte	0x6
 1827 013f 49       		.byte	0x49
 1828 0140 E7000000 		.4byte	0xe7
 1829 0144 02       		.byte	0x2
 1830 0145 23       		.byte	0x23
 1831 0146 0C       		.uleb128 0xc
 1832 0147 00       		.byte	0x0
 1833 0148 09       		.uleb128 0x9
 1834 0149 01       		.byte	0x1
 1835 014a 30000000 		.4byte	0x30
 1836 014e 62010000 		.4byte	0x162
 1837 0152 0A       		.uleb128 0xa
 1838 0153 CE000000 		.4byte	0xce
 1839 0157 0A       		.uleb128 0xa
 1840 0158 62010000 		.4byte	0x162
 1841 015c 0A       		.uleb128 0xa
 1842 015d 30000000 		.4byte	0x30
 1843 0161 00       		.byte	0x0
 1844 0162 07       		.uleb128 0x7
 1845 0163 04       		.byte	0x4
 1846 0164 68010000 		.4byte	0x168
 1847 0168 08       		.uleb128 0x8
 1848 0169 49000000 		.4byte	0x49
 1849 016d 07       		.uleb128 0x7
 1850 016e 04       		.byte	0x4
 1851 016f 48010000 		.4byte	0x148
 1852 0173 09       		.uleb128 0x9
 1853 0174 01       		.byte	0x1
 1854 0175 30000000 		.4byte	0x30
 1855 0179 8D010000 		.4byte	0x18d
 1856 017d 0A       		.uleb128 0xa
 1857 017e CE000000 		.4byte	0xce
 1858 0182 0A       		.uleb128 0xa
 1859 0183 FD000000 		.4byte	0xfd
 1860 0187 0A       		.uleb128 0xa
 1861 0188 30000000 		.4byte	0x30
 1862 018c 00       		.byte	0x0
 1863 018d 07       		.uleb128 0x7
 1864 018e 04       		.byte	0x4
 1865 018f 73010000 		.4byte	0x173
 1866 0193 09       		.uleb128 0x9
 1867 0194 01       		.byte	0x1
 1868 0195 B8000000 		.4byte	0xb8
 1869 0199 A8010000 		.4byte	0x1a8
 1870 019d 0A       		.uleb128 0xa
 1871 019e CE000000 		.4byte	0xce
 1872 01a2 0A       		.uleb128 0xa
 1873 01a3 49000000 		.4byte	0x49
 1874 01a7 00       		.byte	0x0
 1875 01a8 07       		.uleb128 0x7
 1876 01a9 04       		.byte	0x4
 1877 01aa 93010000 		.4byte	0x193
 1878 01ae 0E       		.uleb128 0xe
 1879 01af 04       		.byte	0x4
 1880 01b0 06       		.byte	0x6
 1881 01b1 51       		.byte	0x51
ARM GAS  C:\Users\DNIEL~1\AppData\Local\Temp\ccq8ljmg.s 			page 36


 1882 01b2 C5010000 		.4byte	0x1c5
 1883 01b6 0D       		.uleb128 0xd
 1884 01b7 766D7400 		.ascii	"vmt\000"
 1885 01bb 06       		.byte	0x6
 1886 01bc 53       		.byte	0x53
 1887 01bd C5010000 		.4byte	0x1c5
 1888 01c1 02       		.byte	0x2
 1889 01c2 23       		.byte	0x23
 1890 01c3 00       		.uleb128 0x0
 1891 01c4 00       		.byte	0x0
 1892 01c5 07       		.uleb128 0x7
 1893 01c6 04       		.byte	0x4
 1894 01c7 CB010000 		.4byte	0x1cb
 1895 01cb 08       		.uleb128 0x8
 1896 01cc 03010000 		.4byte	0x103
 1897 01d0 03       		.uleb128 0x3
 1898 01d1 60000000 		.4byte	.LASF21
 1899 01d5 06       		.byte	0x6
 1900 01d6 55       		.byte	0x55
 1901 01d7 AE010000 		.4byte	0x1ae
 1902 01db 0F       		.uleb128 0xf
 1903 01dc 86000000 		.4byte	0x86
 1904 01e0 EB010000 		.4byte	0x1eb
 1905 01e4 10       		.uleb128 0x10
 1906 01e5 3B000000 		.4byte	0x3b
 1907 01e9 03       		.byte	0x3
 1908 01ea 00       		.byte	0x0
 1909 01eb 06       		.uleb128 0x6
 1910 01ec 74000000 		.4byte	0x74
 1911 01f0 0B       		.uleb128 0xb
 1912 01f1 E8000000 		.4byte	.LASF23
 1913 01f5 20       		.byte	0x20
 1914 01f6 07       		.byte	0x7
 1915 01f7 4E       		.byte	0x4e
 1916 01f8 6D020000 		.4byte	0x26d
 1917 01fc 0C       		.uleb128 0xc
 1918 01fd 13000000 		.4byte	.LASF19
 1919 0201 07       		.byte	0x7
 1920 0202 4F       		.byte	0x4f
 1921 0203 6D010000 		.4byte	0x16d
 1922 0207 02       		.byte	0x2
 1923 0208 23       		.byte	0x23
 1924 0209 00       		.uleb128 0x0
 1925 020a 0C       		.uleb128 0xc
 1926 020b 3A010000 		.4byte	.LASF20
 1927 020f 07       		.byte	0x7
 1928 0210 4F       		.byte	0x4f
 1929 0211 8D010000 		.4byte	0x18d
 1930 0215 02       		.byte	0x2
 1931 0216 23       		.byte	0x23
 1932 0217 04       		.uleb128 0x4
 1933 0218 0D       		.uleb128 0xd
 1934 0219 70757400 		.ascii	"put\000"
 1935 021d 07       		.byte	0x7
 1936 021e 4F       		.byte	0x4f
 1937 021f A8010000 		.4byte	0x1a8
 1938 0223 02       		.byte	0x2
ARM GAS  C:\Users\DNIEL~1\AppData\Local\Temp\ccq8ljmg.s 			page 37


 1939 0224 23       		.byte	0x23
 1940 0225 08       		.uleb128 0x8
 1941 0226 0D       		.uleb128 0xd
 1942 0227 67657400 		.ascii	"get\000"
 1943 022b 07       		.byte	0x7
 1944 022c 4F       		.byte	0x4f
 1945 022d E7000000 		.4byte	0xe7
 1946 0231 02       		.byte	0x2
 1947 0232 23       		.byte	0x23
 1948 0233 0C       		.uleb128 0xc
 1949 0234 0C       		.uleb128 0xc
 1950 0235 59020000 		.4byte	.LASF24
 1951 0239 07       		.byte	0x7
 1952 023a 4F       		.byte	0x4f
 1953 023b 87020000 		.4byte	0x287
 1954 023f 02       		.byte	0x2
 1955 0240 23       		.byte	0x23
 1956 0241 10       		.uleb128 0x10
 1957 0242 0C       		.uleb128 0xc
 1958 0243 C1020000 		.4byte	.LASF25
 1959 0247 07       		.byte	0x7
 1960 0248 4F       		.byte	0x4f
 1961 0249 A2020000 		.4byte	0x2a2
 1962 024d 02       		.byte	0x2
 1963 024e 23       		.byte	0x23
 1964 024f 14       		.uleb128 0x14
 1965 0250 0C       		.uleb128 0xc
 1966 0251 C4000000 		.4byte	.LASF26
 1967 0255 07       		.byte	0x7
 1968 0256 4F       		.byte	0x4f
 1969 0257 C7020000 		.4byte	0x2c7
 1970 025b 02       		.byte	0x2
 1971 025c 23       		.byte	0x23
 1972 025d 18       		.uleb128 0x18
 1973 025e 0C       		.uleb128 0xc
 1974 025f 8F020000 		.4byte	.LASF27
 1975 0263 07       		.byte	0x7
 1976 0264 4F       		.byte	0x4f
 1977 0265 EC020000 		.4byte	0x2ec
 1978 0269 02       		.byte	0x2
 1979 026a 23       		.byte	0x23
 1980 026b 1C       		.uleb128 0x1c
 1981 026c 00       		.byte	0x0
 1982 026d 09       		.uleb128 0x9
 1983 026e 01       		.byte	0x1
 1984 026f B8000000 		.4byte	0xb8
 1985 0273 87020000 		.4byte	0x287
 1986 0277 0A       		.uleb128 0xa
 1987 0278 CE000000 		.4byte	0xce
 1988 027c 0A       		.uleb128 0xa
 1989 027d 49000000 		.4byte	0x49
 1990 0281 0A       		.uleb128 0xa
 1991 0282 C3000000 		.4byte	0xc3
 1992 0286 00       		.byte	0x0
 1993 0287 07       		.uleb128 0x7
 1994 0288 04       		.byte	0x4
 1995 0289 6D020000 		.4byte	0x26d
ARM GAS  C:\Users\DNIEL~1\AppData\Local\Temp\ccq8ljmg.s 			page 38


 1996 028d 09       		.uleb128 0x9
 1997 028e 01       		.byte	0x1
 1998 028f B8000000 		.4byte	0xb8
 1999 0293 A2020000 		.4byte	0x2a2
 2000 0297 0A       		.uleb128 0xa
 2001 0298 CE000000 		.4byte	0xce
 2002 029c 0A       		.uleb128 0xa
 2003 029d C3000000 		.4byte	0xc3
 2004 02a1 00       		.byte	0x0
 2005 02a2 07       		.uleb128 0x7
 2006 02a3 04       		.byte	0x4
 2007 02a4 8D020000 		.4byte	0x28d
 2008 02a8 09       		.uleb128 0x9
 2009 02a9 01       		.byte	0x1
 2010 02aa 30000000 		.4byte	0x30
 2011 02ae C7020000 		.4byte	0x2c7
 2012 02b2 0A       		.uleb128 0xa
 2013 02b3 CE000000 		.4byte	0xce
 2014 02b7 0A       		.uleb128 0xa
 2015 02b8 62010000 		.4byte	0x162
 2016 02bc 0A       		.uleb128 0xa
 2017 02bd 30000000 		.4byte	0x30
 2018 02c1 0A       		.uleb128 0xa
 2019 02c2 C3000000 		.4byte	0xc3
 2020 02c6 00       		.byte	0x0
 2021 02c7 07       		.uleb128 0x7
 2022 02c8 04       		.byte	0x4
 2023 02c9 A8020000 		.4byte	0x2a8
 2024 02cd 09       		.uleb128 0x9
 2025 02ce 01       		.byte	0x1
 2026 02cf 30000000 		.4byte	0x30
 2027 02d3 EC020000 		.4byte	0x2ec
 2028 02d7 0A       		.uleb128 0xa
 2029 02d8 CE000000 		.4byte	0xce
 2030 02dc 0A       		.uleb128 0xa
 2031 02dd FD000000 		.4byte	0xfd
 2032 02e1 0A       		.uleb128 0xa
 2033 02e2 30000000 		.4byte	0x30
 2034 02e6 0A       		.uleb128 0xa
 2035 02e7 C3000000 		.4byte	0xc3
 2036 02eb 00       		.byte	0x0
 2037 02ec 07       		.uleb128 0x7
 2038 02ed 04       		.byte	0x4
 2039 02ee CD020000 		.4byte	0x2cd
 2040 02f2 0E       		.uleb128 0xe
 2041 02f3 04       		.byte	0x4
 2042 02f4 07       		.byte	0x7
 2043 02f5 59       		.byte	0x59
 2044 02f6 09030000 		.4byte	0x309
 2045 02fa 0D       		.uleb128 0xd
 2046 02fb 766D7400 		.ascii	"vmt\000"
 2047 02ff 07       		.byte	0x7
 2048 0300 5B       		.byte	0x5b
 2049 0301 09030000 		.4byte	0x309
 2050 0305 02       		.byte	0x2
 2051 0306 23       		.byte	0x23
 2052 0307 00       		.uleb128 0x0
ARM GAS  C:\Users\DNIEL~1\AppData\Local\Temp\ccq8ljmg.s 			page 39


 2053 0308 00       		.byte	0x0
 2054 0309 07       		.uleb128 0x7
 2055 030a 04       		.byte	0x4
 2056 030b 0F030000 		.4byte	0x30f
 2057 030f 08       		.uleb128 0x8
 2058 0310 F0010000 		.4byte	0x1f0
 2059 0314 03       		.uleb128 0x3
 2060 0315 AC030000 		.4byte	.LASF28
 2061 0319 07       		.byte	0x7
 2062 031a 5D       		.byte	0x5d
 2063 031b F2020000 		.4byte	0x2f2
 2064 031f 11       		.uleb128 0x11
 2065 0320 60       		.byte	0x60
 2066 0321 08       		.byte	0x8
 2067 0322 9E01     		.2byte	0x19e
 2068 0324 62040000 		.4byte	0x462
 2069 0328 12       		.uleb128 0x12
 2070 0329 43523100 		.ascii	"CR1\000"
 2071 032d 08       		.byte	0x8
 2072 032e 9F01     		.2byte	0x19f
 2073 0330 D0000000 		.4byte	0xd0
 2074 0334 02       		.byte	0x2
 2075 0335 23       		.byte	0x23
 2076 0336 00       		.uleb128 0x0
 2077 0337 12       		.uleb128 0x12
 2078 0338 43523200 		.ascii	"CR2\000"
 2079 033c 08       		.byte	0x8
 2080 033d A001     		.2byte	0x1a0
 2081 033f D0000000 		.4byte	0xd0
 2082 0343 02       		.byte	0x2
 2083 0344 23       		.byte	0x23
 2084 0345 04       		.uleb128 0x4
 2085 0346 13       		.uleb128 0x13
 2086 0347 B6010000 		.4byte	.LASF29
 2087 034b 08       		.byte	0x8
 2088 034c A101     		.2byte	0x1a1
 2089 034e D0000000 		.4byte	0xd0
 2090 0352 02       		.byte	0x2
 2091 0353 23       		.byte	0x23
 2092 0354 08       		.uleb128 0x8
 2093 0355 13       		.uleb128 0x13
 2094 0356 5E020000 		.4byte	.LASF30
 2095 035a 08       		.byte	0x8
 2096 035b A201     		.2byte	0x1a2
 2097 035d D0000000 		.4byte	0xd0
 2098 0361 02       		.byte	0x2
 2099 0362 23       		.byte	0x23
 2100 0363 0C       		.uleb128 0xc
 2101 0364 12       		.uleb128 0x12
 2102 0365 535200   		.ascii	"SR\000"
 2103 0368 08       		.byte	0x8
 2104 0369 A301     		.2byte	0x1a3
 2105 036b D0000000 		.4byte	0xd0
 2106 036f 02       		.byte	0x2
 2107 0370 23       		.byte	0x23
 2108 0371 10       		.uleb128 0x10
 2109 0372 12       		.uleb128 0x12
ARM GAS  C:\Users\DNIEL~1\AppData\Local\Temp\ccq8ljmg.s 			page 40


 2110 0373 45475200 		.ascii	"EGR\000"
 2111 0377 08       		.byte	0x8
 2112 0378 A401     		.2byte	0x1a4
 2113 037a D0000000 		.4byte	0xd0
 2114 037e 02       		.byte	0x2
 2115 037f 23       		.byte	0x23
 2116 0380 14       		.uleb128 0x14
 2117 0381 13       		.uleb128 0x13
 2118 0382 4A000000 		.4byte	.LASF31
 2119 0386 08       		.byte	0x8
 2120 0387 A501     		.2byte	0x1a5
 2121 0389 D0000000 		.4byte	0xd0
 2122 038d 02       		.byte	0x2
 2123 038e 23       		.byte	0x23
 2124 038f 18       		.uleb128 0x18
 2125 0390 13       		.uleb128 0x13
 2126 0391 38000000 		.4byte	.LASF32
 2127 0395 08       		.byte	0x8
 2128 0396 A601     		.2byte	0x1a6
 2129 0398 D0000000 		.4byte	0xd0
 2130 039c 02       		.byte	0x2
 2131 039d 23       		.byte	0x23
 2132 039e 1C       		.uleb128 0x1c
 2133 039f 13       		.uleb128 0x13
 2134 03a0 00000000 		.4byte	.LASF33
 2135 03a4 08       		.byte	0x8
 2136 03a5 A701     		.2byte	0x1a7
 2137 03a7 D0000000 		.4byte	0xd0
 2138 03ab 02       		.byte	0x2
 2139 03ac 23       		.byte	0x23
 2140 03ad 20       		.uleb128 0x20
 2141 03ae 12       		.uleb128 0x12
 2142 03af 434E5400 		.ascii	"CNT\000"
 2143 03b3 08       		.byte	0x8
 2144 03b4 A801     		.2byte	0x1a8
 2145 03b6 D0000000 		.4byte	0xd0
 2146 03ba 02       		.byte	0x2
 2147 03bb 23       		.byte	0x23
 2148 03bc 24       		.uleb128 0x24
 2149 03bd 12       		.uleb128 0x12
 2150 03be 50534300 		.ascii	"PSC\000"
 2151 03c2 08       		.byte	0x8
 2152 03c3 A901     		.2byte	0x1a9
 2153 03c5 D0000000 		.4byte	0xd0
 2154 03c9 02       		.byte	0x2
 2155 03ca 23       		.byte	0x23
 2156 03cb 28       		.uleb128 0x28
 2157 03cc 12       		.uleb128 0x12
 2158 03cd 41525200 		.ascii	"ARR\000"
 2159 03d1 08       		.byte	0x8
 2160 03d2 AA01     		.2byte	0x1aa
 2161 03d4 D0000000 		.4byte	0xd0
 2162 03d8 02       		.byte	0x2
 2163 03d9 23       		.byte	0x23
 2164 03da 2C       		.uleb128 0x2c
 2165 03db 12       		.uleb128 0x12
 2166 03dc 52435200 		.ascii	"RCR\000"
ARM GAS  C:\Users\DNIEL~1\AppData\Local\Temp\ccq8ljmg.s 			page 41


 2167 03e0 08       		.byte	0x8
 2168 03e1 AB01     		.2byte	0x1ab
 2169 03e3 D0000000 		.4byte	0xd0
 2170 03e7 02       		.byte	0x2
 2171 03e8 23       		.byte	0x23
 2172 03e9 30       		.uleb128 0x30
 2173 03ea 12       		.uleb128 0x12
 2174 03eb 43435200 		.ascii	"CCR\000"
 2175 03ef 08       		.byte	0x8
 2176 03f0 AC01     		.2byte	0x1ac
 2177 03f2 62040000 		.4byte	0x462
 2178 03f6 02       		.byte	0x2
 2179 03f7 23       		.byte	0x23
 2180 03f8 34       		.uleb128 0x34
 2181 03f9 13       		.uleb128 0x13
 2182 03fa 9E020000 		.4byte	.LASF34
 2183 03fe 08       		.byte	0x8
 2184 03ff AD01     		.2byte	0x1ad
 2185 0401 D0000000 		.4byte	0xd0
 2186 0405 02       		.byte	0x2
 2187 0406 23       		.byte	0x23
 2188 0407 44       		.uleb128 0x44
 2189 0408 12       		.uleb128 0x12
 2190 0409 44435200 		.ascii	"DCR\000"
 2191 040d 08       		.byte	0x8
 2192 040e AE01     		.2byte	0x1ae
 2193 0410 D0000000 		.4byte	0xd0
 2194 0414 02       		.byte	0x2
 2195 0415 23       		.byte	0x23
 2196 0416 48       		.uleb128 0x48
 2197 0417 13       		.uleb128 0x13
 2198 0418 1F000000 		.4byte	.LASF35
 2199 041c 08       		.byte	0x8
 2200 041d AF01     		.2byte	0x1af
 2201 041f D0000000 		.4byte	0xd0
 2202 0423 02       		.byte	0x2
 2203 0424 23       		.byte	0x23
 2204 0425 4C       		.uleb128 0x4c
 2205 0426 12       		.uleb128 0x12
 2206 0427 4F5200   		.ascii	"OR\000"
 2207 042a 08       		.byte	0x8
 2208 042b B001     		.2byte	0x1b0
 2209 042d D0000000 		.4byte	0xd0
 2210 0431 02       		.byte	0x2
 2211 0432 23       		.byte	0x23
 2212 0433 50       		.uleb128 0x50
 2213 0434 13       		.uleb128 0x13
 2214 0435 3E000000 		.4byte	.LASF36
 2215 0439 08       		.byte	0x8
 2216 043a B101     		.2byte	0x1b1
 2217 043c D0000000 		.4byte	0xd0
 2218 0440 02       		.byte	0x2
 2219 0441 23       		.byte	0x23
 2220 0442 54       		.uleb128 0x54
 2221 0443 13       		.uleb128 0x13
 2222 0444 E5010000 		.4byte	.LASF37
 2223 0448 08       		.byte	0x8
ARM GAS  C:\Users\DNIEL~1\AppData\Local\Temp\ccq8ljmg.s 			page 42


 2224 0449 B201     		.2byte	0x1b2
 2225 044b D0000000 		.4byte	0xd0
 2226 044f 02       		.byte	0x2
 2227 0450 23       		.byte	0x23
 2228 0451 58       		.uleb128 0x58
 2229 0452 13       		.uleb128 0x13
 2230 0453 71010000 		.4byte	.LASF38
 2231 0457 08       		.byte	0x8
 2232 0458 B301     		.2byte	0x1b3
 2233 045a D0000000 		.4byte	0xd0
 2234 045e 02       		.byte	0x2
 2235 045f 23       		.byte	0x23
 2236 0460 5C       		.uleb128 0x5c
 2237 0461 00       		.byte	0x0
 2238 0462 06       		.uleb128 0x6
 2239 0463 DB010000 		.4byte	0x1db
 2240 0467 14       		.uleb128 0x14
 2241 0468 09010000 		.4byte	.LASF39
 2242 046c 08       		.byte	0x8
 2243 046d B401     		.2byte	0x1b4
 2244 046f 1F030000 		.4byte	0x31f
 2245 0473 07       		.uleb128 0x7
 2246 0474 04       		.byte	0x4
 2247 0475 67040000 		.4byte	0x467
 2248 0479 15       		.uleb128 0x15
 2249 047a 01       		.byte	0x1
 2250 047b 09       		.byte	0x9
 2251 047c 55       		.byte	0x55
 2252 047d 94040000 		.4byte	0x494
 2253 0481 16       		.uleb128 0x16
 2254 0482 BB010000 		.4byte	.LASF40
 2255 0486 00       		.sleb128 0
 2256 0487 16       		.uleb128 0x16
 2257 0488 6E030000 		.4byte	.LASF41
 2258 048c 01       		.sleb128 1
 2259 048d 16       		.uleb128 0x16
 2260 048e 5D030000 		.4byte	.LASF42
 2261 0492 02       		.sleb128 2
 2262 0493 00       		.byte	0x0
 2263 0494 03       		.uleb128 0x3
 2264 0495 0D030000 		.4byte	.LASF43
 2265 0499 09       		.byte	0x9
 2266 049a 59       		.byte	0x59
 2267 049b 79040000 		.4byte	0x479
 2268 049f 03       		.uleb128 0x3
 2269 04a0 42020000 		.4byte	.LASF44
 2270 04a4 09       		.byte	0x9
 2271 04a5 5E       		.byte	0x5e
 2272 04a6 AA040000 		.4byte	0x4aa
 2273 04aa 17       		.uleb128 0x17
 2274 04ab 42020000 		.4byte	.LASF44
 2275 04af 14       		.byte	0x14
 2276 04b0 0A       		.byte	0xa
 2277 04b1 6F01     		.2byte	0x16f
 2278 04b3 03050000 		.4byte	0x503
 2279 04b7 13       		.uleb128 0x13
 2280 04b8 32000000 		.4byte	.LASF45
ARM GAS  C:\Users\DNIEL~1\AppData\Local\Temp\ccq8ljmg.s 			page 43


 2281 04bc 0A       		.byte	0xa
 2282 04bd 7301     		.2byte	0x173
 2283 04bf 94040000 		.4byte	0x494
 2284 04c3 02       		.byte	0x2
 2285 04c4 23       		.byte	0x23
 2286 04c5 00       		.uleb128 0x0
 2287 04c6 13       		.uleb128 0x13
 2288 04c7 D5000000 		.4byte	.LASF46
 2289 04cb 0A       		.byte	0xa
 2290 04cc 7701     		.2byte	0x177
 2291 04ce F2050000 		.4byte	0x5f2
 2292 04d2 02       		.byte	0x2
 2293 04d3 23       		.byte	0x23
 2294 04d4 04       		.uleb128 0x4
 2295 04d5 13       		.uleb128 0x13
 2296 04d6 76010000 		.4byte	.LASF47
 2297 04da 0A       		.byte	0xa
 2298 04db 7B01     		.2byte	0x17b
 2299 04dd 32050000 		.4byte	0x532
 2300 04e1 02       		.byte	0x2
 2301 04e2 23       		.byte	0x23
 2302 04e3 08       		.uleb128 0x8
 2303 04e4 13       		.uleb128 0x13
 2304 04e5 6B010000 		.4byte	.LASF48
 2305 04e9 0A       		.byte	0xa
 2306 04ea 8301     		.2byte	0x183
 2307 04ec 86000000 		.4byte	0x86
 2308 04f0 02       		.byte	0x2
 2309 04f1 23       		.byte	0x23
 2310 04f2 0C       		.uleb128 0xc
 2311 04f3 12       		.uleb128 0x12
 2312 04f4 74696D00 		.ascii	"tim\000"
 2313 04f8 0A       		.byte	0xa
 2314 04f9 8701     		.2byte	0x187
 2315 04fb 73040000 		.4byte	0x473
 2316 04ff 02       		.byte	0x2
 2317 0500 23       		.byte	0x23
 2318 0501 10       		.uleb128 0x10
 2319 0502 00       		.byte	0x0
 2320 0503 03       		.uleb128 0x3
 2321 0504 DC030000 		.4byte	.LASF49
 2322 0508 09       		.byte	0x9
 2323 0509 65       		.byte	0x65
 2324 050a 0E050000 		.4byte	0x50e
 2325 050e 07       		.uleb128 0x7
 2326 050f 04       		.byte	0x4
 2327 0510 14050000 		.4byte	0x514
 2328 0514 18       		.uleb128 0x18
 2329 0515 01       		.byte	0x1
 2330 0516 20050000 		.4byte	0x520
 2331 051a 0A       		.uleb128 0xa
 2332 051b 20050000 		.4byte	0x520
 2333 051f 00       		.byte	0x0
 2334 0520 07       		.uleb128 0x7
 2335 0521 04       		.byte	0x4
 2336 0522 9F040000 		.4byte	0x49f
 2337 0526 14       		.uleb128 0x14
ARM GAS  C:\Users\DNIEL~1\AppData\Local\Temp\ccq8ljmg.s 			page 44


 2338 0527 B8030000 		.4byte	.LASF50
 2339 052b 0A       		.byte	0xa
 2340 052c 2001     		.2byte	0x120
 2341 052e 86000000 		.4byte	0x86
 2342 0532 14       		.uleb128 0x14
 2343 0533 57000000 		.4byte	.LASF51
 2344 0537 0A       		.byte	0xa
 2345 0538 2A01     		.2byte	0x12a
 2346 053a 62000000 		.4byte	0x62
 2347 053e 11       		.uleb128 0x11
 2348 053f 08       		.byte	0x8
 2349 0540 0A       		.byte	0xa
 2350 0541 2F01     		.2byte	0x12f
 2351 0543 66050000 		.4byte	0x566
 2352 0547 13       		.uleb128 0x13
 2353 0548 75000000 		.4byte	.LASF52
 2354 054c 0A       		.byte	0xa
 2355 054d 3301     		.2byte	0x133
 2356 054f 26050000 		.4byte	0x526
 2357 0553 02       		.byte	0x2
 2358 0554 23       		.byte	0x23
 2359 0555 00       		.uleb128 0x0
 2360 0556 13       		.uleb128 0x13
 2361 0557 F0030000 		.4byte	.LASF53
 2362 055b 0A       		.byte	0xa
 2363 055c 3901     		.2byte	0x139
 2364 055e 03050000 		.4byte	0x503
 2365 0562 02       		.byte	0x2
 2366 0563 23       		.byte	0x23
 2367 0564 04       		.uleb128 0x4
 2368 0565 00       		.byte	0x0
 2369 0566 14       		.uleb128 0x14
 2370 0567 9B030000 		.4byte	.LASF54
 2371 056b 0A       		.byte	0xa
 2372 056c 3B01     		.2byte	0x13b
 2373 056e 3E050000 		.4byte	0x53e
 2374 0572 11       		.uleb128 0x11
 2375 0573 34       		.byte	0x34
 2376 0574 0A       		.byte	0xa
 2377 0575 4001     		.2byte	0x140
 2378 0577 D6050000 		.4byte	0x5d6
 2379 057b 13       		.uleb128 0x13
 2380 057c DC020000 		.4byte	.LASF55
 2381 0580 0A       		.byte	0xa
 2382 0581 4601     		.2byte	0x146
 2383 0583 86000000 		.4byte	0x86
 2384 0587 02       		.byte	0x2
 2385 0588 23       		.byte	0x23
 2386 0589 00       		.uleb128 0x0
 2387 058a 13       		.uleb128 0x13
 2388 058b 76010000 		.4byte	.LASF47
 2389 058f 0A       		.byte	0xa
 2390 0590 4C01     		.2byte	0x14c
 2391 0592 32050000 		.4byte	0x532
 2392 0596 02       		.byte	0x2
 2393 0597 23       		.byte	0x23
 2394 0598 04       		.uleb128 0x4
ARM GAS  C:\Users\DNIEL~1\AppData\Local\Temp\ccq8ljmg.s 			page 45


 2395 0599 13       		.uleb128 0x13
 2396 059a F0030000 		.4byte	.LASF53
 2397 059e 0A       		.byte	0xa
 2398 059f 5201     		.2byte	0x152
 2399 05a1 03050000 		.4byte	0x503
 2400 05a5 02       		.byte	0x2
 2401 05a6 23       		.byte	0x23
 2402 05a7 08       		.uleb128 0x8
 2403 05a8 13       		.uleb128 0x13
 2404 05a9 F2020000 		.4byte	.LASF56
 2405 05ad 0A       		.byte	0xa
 2406 05ae 5601     		.2byte	0x156
 2407 05b0 D6050000 		.4byte	0x5d6
 2408 05b4 02       		.byte	0x2
 2409 05b5 23       		.byte	0x23
 2410 05b6 0C       		.uleb128 0xc
 2411 05b7 12       		.uleb128 0x12
 2412 05b8 63723200 		.ascii	"cr2\000"
 2413 05bc 0A       		.byte	0xa
 2414 05bd 5C01     		.2byte	0x15c
 2415 05bf 86000000 		.4byte	0x86
 2416 05c3 02       		.byte	0x2
 2417 05c4 23       		.byte	0x23
 2418 05c5 2C       		.uleb128 0x2c
 2419 05c6 13       		.uleb128 0x13
 2420 05c7 77030000 		.4byte	.LASF57
 2421 05cb 0A       		.byte	0xa
 2422 05cc 6901     		.2byte	0x169
 2423 05ce 86000000 		.4byte	0x86
 2424 05d2 02       		.byte	0x2
 2425 05d3 23       		.byte	0x23
 2426 05d4 30       		.uleb128 0x30
 2427 05d5 00       		.byte	0x0
 2428 05d6 0F       		.uleb128 0xf
 2429 05d7 66050000 		.4byte	0x566
 2430 05db E6050000 		.4byte	0x5e6
 2431 05df 10       		.uleb128 0x10
 2432 05e0 3B000000 		.4byte	0x3b
 2433 05e4 03       		.byte	0x3
 2434 05e5 00       		.byte	0x0
 2435 05e6 14       		.uleb128 0x14
 2436 05e7 FF000000 		.4byte	.LASF58
 2437 05eb 0A       		.byte	0xa
 2438 05ec 6A01     		.2byte	0x16a
 2439 05ee 72050000 		.4byte	0x572
 2440 05f2 07       		.uleb128 0x7
 2441 05f3 04       		.byte	0x4
 2442 05f4 F8050000 		.4byte	0x5f8
 2443 05f8 08       		.uleb128 0x8
 2444 05f9 E6050000 		.4byte	0x5e6
 2445 05fd 07       		.uleb128 0x7
 2446 05fe 04       		.byte	0x4
 2447 05ff E0000000 		.4byte	0xe0
 2448 0603 04       		.uleb128 0x4
 2449 0604 08       		.byte	0x8
 2450 0605 04       		.byte	0x4
 2451 0606 18030000 		.4byte	.LASF59
ARM GAS  C:\Users\DNIEL~1\AppData\Local\Temp\ccq8ljmg.s 			page 46


 2452 060a 04       		.uleb128 0x4
 2453 060b 04       		.byte	0x4
 2454 060c 04       		.byte	0x4
 2455 060d 24010000 		.4byte	.LASF60
 2456 0611 04       		.uleb128 0x4
 2457 0612 08       		.byte	0x8
 2458 0613 04       		.byte	0x4
 2459 0614 AA010000 		.4byte	.LASF61
 2460 0618 03       		.uleb128 0x3
 2461 0619 8C030000 		.4byte	.LASF62
 2462 061d 0B       		.byte	0xb
 2463 061e 28       		.byte	0x28
 2464 061f 23060000 		.4byte	0x623
 2465 0623 0B       		.uleb128 0xb
 2466 0624 4D010000 		.4byte	.LASF63
 2467 0628 04       		.byte	0x4
 2468 0629 0C       		.byte	0xc
 2469 062a 00       		.byte	0x0
 2470 062b 3D060000 		.4byte	0x63d
 2471 062f 19       		.uleb128 0x19
 2472 0630 2B020000 		.4byte	.LASF97
 2473 0634 CE000000 		.4byte	0xce
 2474 0638 02       		.byte	0x2
 2475 0639 23       		.byte	0x23
 2476 063a 00       		.uleb128 0x0
 2477 063b 01       		.byte	0x1
 2478 063c 00       		.byte	0x0
 2479 063d 03       		.uleb128 0x3
 2480 063e BC000000 		.4byte	.LASF64
 2481 0642 0B       		.byte	0xb
 2482 0643 66       		.byte	0x66
 2483 0644 18060000 		.4byte	0x618
 2484 0648 0B       		.uleb128 0xb
 2485 0649 4C020000 		.4byte	.LASF65
 2486 064d 07       		.byte	0x7
 2487 064e 02       		.byte	0x2
 2488 064f 0F       		.byte	0xf
 2489 0650 B7060000 		.4byte	0x6b7
 2490 0654 0C       		.uleb128 0xc
 2491 0655 7C030000 		.4byte	.LASF66
 2492 0659 02       		.byte	0x2
 2493 065a 11       		.byte	0x11
 2494 065b A6000000 		.4byte	0xa6
 2495 065f 02       		.byte	0x2
 2496 0660 23       		.byte	0x23
 2497 0661 00       		.uleb128 0x0
 2498 0662 0C       		.uleb128 0xc
 2499 0663 19000000 		.4byte	.LASF67
 2500 0667 02       		.byte	0x2
 2501 0668 12       		.byte	0x12
 2502 0669 A6000000 		.4byte	0xa6
 2503 066d 02       		.byte	0x2
 2504 066e 23       		.byte	0x23
 2505 066f 01       		.uleb128 0x1
 2506 0670 0C       		.uleb128 0xc
 2507 0671 63020000 		.4byte	.LASF68
 2508 0675 02       		.byte	0x2
ARM GAS  C:\Users\DNIEL~1\AppData\Local\Temp\ccq8ljmg.s 			page 47


 2509 0676 13       		.byte	0x13
 2510 0677 A6000000 		.4byte	0xa6
 2511 067b 02       		.byte	0x2
 2512 067c 23       		.byte	0x23
 2513 067d 02       		.uleb128 0x2
 2514 067e 0C       		.uleb128 0xc
 2515 067f EA010000 		.4byte	.LASF69
 2516 0683 02       		.byte	0x2
 2517 0684 14       		.byte	0x14
 2518 0685 A6000000 		.4byte	0xa6
 2519 0689 02       		.byte	0x2
 2520 068a 23       		.byte	0x23
 2521 068b 03       		.uleb128 0x3
 2522 068c 0C       		.uleb128 0xc
 2523 068d 1F030000 		.4byte	.LASF70
 2524 0691 02       		.byte	0x2
 2525 0692 15       		.byte	0x15
 2526 0693 A6000000 		.4byte	0xa6
 2527 0697 02       		.byte	0x2
 2528 0698 23       		.byte	0x23
 2529 0699 04       		.uleb128 0x4
 2530 069a 0C       		.uleb128 0xc
 2531 069b 5C010000 		.4byte	.LASF71
 2532 069f 02       		.byte	0x2
 2533 06a0 16       		.byte	0x16
 2534 06a1 A6000000 		.4byte	0xa6
 2535 06a5 02       		.byte	0x2
 2536 06a6 23       		.byte	0x23
 2537 06a7 05       		.uleb128 0x5
 2538 06a8 0C       		.uleb128 0xc
 2539 06a9 05000000 		.4byte	.LASF72
 2540 06ad 02       		.byte	0x2
 2541 06ae 17       		.byte	0x17
 2542 06af A6000000 		.4byte	0xa6
 2543 06b3 02       		.byte	0x2
 2544 06b4 23       		.byte	0x23
 2545 06b5 06       		.uleb128 0x6
 2546 06b6 00       		.byte	0x0
 2547 06b7 1A       		.uleb128 0x1a
 2548 06b8 01       		.byte	0x1
 2549 06b9 8A010000 		.4byte	.LASF84
 2550 06bd 02       		.byte	0x2
 2551 06be 67       		.byte	0x67
 2552 06bf 01       		.byte	0x1
 2553 06c0 01       		.byte	0x1
 2554 06c1 D1060000 		.4byte	0x6d1
 2555 06c5 1B       		.uleb128 0x1b
 2556 06c6 7D010000 		.4byte	.LASF79
 2557 06ca 02       		.byte	0x2
 2558 06cb 67       		.byte	0x67
 2559 06cc 29000000 		.4byte	0x29
 2560 06d0 00       		.byte	0x0
 2561 06d1 1C       		.uleb128 0x1c
 2562 06d2 CC020000 		.4byte	.LASF98
 2563 06d6 01       		.byte	0x1
 2564 06d7 45       		.byte	0x45
 2565 06d8 01       		.byte	0x1
ARM GAS  C:\Users\DNIEL~1\AppData\Local\Temp\ccq8ljmg.s 			page 48


 2566 06d9 00000000 		.4byte	.LFB118
 2567 06dd 1E000000 		.4byte	.LFE118
 2568 06e1 00000000 		.4byte	.LLST0
 2569 06e5 15070000 		.4byte	0x715
 2570 06e9 1D       		.uleb128 0x1d
 2571 06ea 63687000 		.ascii	"chp\000"
 2572 06ee 01       		.byte	0x1
 2573 06ef 45       		.byte	0x45
 2574 06f0 15070000 		.4byte	0x715
 2575 06f4 38000000 		.4byte	.LLST1
 2576 06f8 1E       		.uleb128 0x1e
 2577 06f9 666D7400 		.ascii	"fmt\000"
 2578 06fd 01       		.byte	0x1
 2579 06fe 45       		.byte	0x45
 2580 06ff D5000000 		.4byte	0xd5
 2581 0703 02       		.byte	0x2
 2582 0704 91       		.byte	0x91
 2583 0705 74       		.sleb128 -12
 2584 0706 1F       		.uleb128 0x1f
 2585 0707 20       		.uleb128 0x20
 2586 0708 617000   		.ascii	"ap\000"
 2587 070b 01       		.byte	0x1
 2588 070c 46       		.byte	0x46
 2589 070d 3D060000 		.4byte	0x63d
 2590 0711 02       		.byte	0x2
 2591 0712 91       		.byte	0x91
 2592 0713 6C       		.sleb128 -20
 2593 0714 00       		.byte	0x0
 2594 0715 07       		.uleb128 0x7
 2595 0716 04       		.byte	0x4
 2596 0717 D0010000 		.4byte	0x1d0
 2597 071b 21       		.uleb128 0x21
 2598 071c 01       		.byte	0x1
 2599 071d 7B020000 		.4byte	.LASF73
 2600 0721 02       		.byte	0x2
 2601 0722 2D       		.byte	0x2d
 2602 0723 01       		.byte	0x1
 2603 0724 00000000 		.4byte	.LFB119
 2604 0728 34000000 		.4byte	.LFE119
 2605 072c 02       		.byte	0x2
 2606 072d 7D       		.byte	0x7d
 2607 072e 00       		.sleb128 0
 2608 072f 22       		.uleb128 0x22
 2609 0730 01       		.byte	0x1
 2610 0731 1A010000 		.4byte	.LASF74
 2611 0735 02       		.byte	0x2
 2612 0736 35       		.byte	0x35
 2613 0737 01       		.byte	0x1
 2614 0738 00000000 		.4byte	.LFB120
 2615 073c E4000000 		.4byte	.LFE120
 2616 0740 4B000000 		.4byte	.LLST2
 2617 0744 23       		.uleb128 0x23
 2618 0745 B7060000 		.4byte	0x6b7
 2619 0749 00000000 		.4byte	.LFB121
 2620 074d 54000000 		.4byte	.LFE121
 2621 0751 6B000000 		.4byte	.LLST3
 2622 0755 63070000 		.4byte	0x763
ARM GAS  C:\Users\DNIEL~1\AppData\Local\Temp\ccq8ljmg.s 			page 49


 2623 0759 24       		.uleb128 0x24
 2624 075a C5060000 		.4byte	0x6c5
 2625 075e 8B000000 		.4byte	.LLST4
 2626 0762 00       		.byte	0x0
 2627 0763 25       		.uleb128 0x25
 2628 0764 01       		.byte	0x1
 2629 0765 50030000 		.4byte	.LASF75
 2630 0769 02       		.byte	0x2
 2631 076a 71       		.byte	0x71
 2632 076b 00000000 		.4byte	.LFB122
 2633 076f 1C000000 		.4byte	.LFE122
 2634 0773 AB000000 		.4byte	.LLST5
 2635 0777 26       		.uleb128 0x26
 2636 0778 01       		.byte	0x1
 2637 0779 24000000 		.4byte	.LASF76
 2638 077d 02       		.byte	0x2
 2639 077e 75       		.byte	0x75
 2640 077f 00000000 		.4byte	.LFB123
 2641 0783 24000000 		.4byte	.LFE123
 2642 0787 02       		.byte	0x2
 2643 0788 7D       		.byte	0x7d
 2644 0789 00       		.sleb128 0
 2645 078a 25       		.uleb128 0x25
 2646 078b 01       		.byte	0x1
 2647 078c AD000000 		.4byte	.LASF77
 2648 0790 02       		.byte	0x2
 2649 0791 7F       		.byte	0x7f
 2650 0792 00000000 		.4byte	.LFB124
 2651 0796 30000000 		.4byte	.LFE124
 2652 079a CB000000 		.4byte	.LLST6
 2653 079e 25       		.uleb128 0x25
 2654 079f 01       		.byte	0x1
 2655 07a0 2A010000 		.4byte	.LASF78
 2656 07a4 02       		.byte	0x2
 2657 07a5 85       		.byte	0x85
 2658 07a6 00000000 		.4byte	.LFB125
 2659 07aa 28000000 		.4byte	.LFE125
 2660 07ae EB000000 		.4byte	.LLST7
 2661 07b2 27       		.uleb128 0x27
 2662 07b3 01       		.byte	0x1
 2663 07b4 D4010000 		.4byte	.LASF99
 2664 07b8 02       		.byte	0x2
 2665 07b9 8D       		.byte	0x8d
 2666 07ba 01       		.byte	0x1
 2667 07bb A6000000 		.4byte	0xa6
 2668 07bf 00000000 		.4byte	.LFB126
 2669 07c3 6C000000 		.4byte	.LFE126
 2670 07c7 02       		.byte	0x2
 2671 07c8 7D       		.byte	0x7d
 2672 07c9 00       		.sleb128 0
 2673 07ca DE070000 		.4byte	0x7de
 2674 07ce 28       		.uleb128 0x28
 2675 07cf 7D010000 		.4byte	.LASF79
 2676 07d3 02       		.byte	0x2
 2677 07d4 8D       		.byte	0x8d
 2678 07d5 49000000 		.4byte	0x49
 2679 07d9 0B010000 		.4byte	.LLST8
ARM GAS  C:\Users\DNIEL~1\AppData\Local\Temp\ccq8ljmg.s 			page 50


 2680 07dd 00       		.byte	0x0
 2681 07de 29       		.uleb128 0x29
 2682 07df 01       		.byte	0x1
 2683 07e0 27030000 		.4byte	.LASF82
 2684 07e4 02       		.byte	0x2
 2685 07e5 98       		.byte	0x98
 2686 07e6 01       		.byte	0x1
 2687 07e7 00000000 		.4byte	.LFB127
 2688 07eb 94000000 		.4byte	.LFE127
 2689 07ef 60010000 		.4byte	.LLST9
 2690 07f3 25080000 		.4byte	0x825
 2691 07f7 1D       		.uleb128 0x1d
 2692 07f8 63687000 		.ascii	"chp\000"
 2693 07fc 02       		.byte	0x2
 2694 07fd 98       		.byte	0x98
 2695 07fe 15070000 		.4byte	0x715
 2696 0802 80010000 		.4byte	.LLST10
 2697 0806 28       		.uleb128 0x28
 2698 0807 15010000 		.4byte	.LASF80
 2699 080b 02       		.byte	0x2
 2700 080c 98       		.byte	0x98
 2701 080d 29000000 		.4byte	0x29
 2702 0811 9E010000 		.4byte	.LLST11
 2703 0815 28       		.uleb128 0x28
 2704 0816 A5010000 		.4byte	.LASF81
 2705 081a 02       		.byte	0x2
 2706 081b 98       		.byte	0x98
 2707 081c 25080000 		.4byte	0x825
 2708 0820 B1010000 		.4byte	.LLST12
 2709 0824 00       		.byte	0x0
 2710 0825 07       		.uleb128 0x7
 2711 0826 04       		.byte	0x4
 2712 0827 FD050000 		.4byte	0x5fd
 2713 082b 29       		.uleb128 0x29
 2714 082c 01       		.byte	0x1
 2715 082d B2020000 		.4byte	.LASF83
 2716 0831 02       		.byte	0x2
 2717 0832 AA       		.byte	0xaa
 2718 0833 01       		.byte	0x1
 2719 0834 00000000 		.4byte	.LFB128
 2720 0838 0C020000 		.4byte	.LFE128
 2721 083c C4010000 		.4byte	.LLST13
 2722 0840 06090000 		.4byte	0x906
 2723 0844 1D       		.uleb128 0x1d
 2724 0845 63687000 		.ascii	"chp\000"
 2725 0849 02       		.byte	0x2
 2726 084a AA       		.byte	0xaa
 2727 084b 15070000 		.4byte	0x715
 2728 084f E4010000 		.4byte	.LLST14
 2729 0853 28       		.uleb128 0x28
 2730 0854 15010000 		.4byte	.LASF80
 2731 0858 02       		.byte	0x2
 2732 0859 AA       		.byte	0xaa
 2733 085a 29000000 		.4byte	0x29
 2734 085e 02020000 		.4byte	.LLST15
 2735 0862 28       		.uleb128 0x28
 2736 0863 A5010000 		.4byte	.LASF81
ARM GAS  C:\Users\DNIEL~1\AppData\Local\Temp\ccq8ljmg.s 			page 51


 2737 0867 02       		.byte	0x2
 2738 0868 AA       		.byte	0xaa
 2739 0869 25080000 		.4byte	0x825
 2740 086d 20020000 		.4byte	.LLST16
 2741 0871 2A       		.uleb128 0x2a
 2742 0872 84010000 		.4byte	.LASF100
 2743 0876 02       		.byte	0x2
 2744 0877 EE       		.byte	0xee
 2745 0878 28000000 		.4byte	.L59
 2746 087c 2B       		.uleb128 0x2b
 2747 087d 00000000 		.4byte	.Ldebug_ranges0+0x0
 2748 0881 2C       		.uleb128 0x2c
 2749 0882 01       		.byte	0x1
 2750 0883 67030000 		.4byte	.LASF85
 2751 0887 0C       		.byte	0xc
 2752 0888 00       		.byte	0x0
 2753 0889 29000000 		.4byte	0x29
 2754 088d 01       		.byte	0x1
 2755 088e 94080000 		.4byte	0x894
 2756 0892 1F       		.uleb128 0x1f
 2757 0893 00       		.byte	0x0
 2758 0894 2D       		.uleb128 0x2d
 2759 0895 B7060000 		.4byte	0x6b7
 2760 0899 6C010000 		.4byte	.LBB12
 2761 089d 82010000 		.4byte	.LBE12
 2762 08a1 02       		.byte	0x2
 2763 08a2 C3       		.byte	0xc3
 2764 08a3 B1080000 		.4byte	0x8b1
 2765 08a7 24       		.uleb128 0x24
 2766 08a8 C5060000 		.4byte	0x6c5
 2767 08ac 49020000 		.4byte	.LLST17
 2768 08b0 00       		.byte	0x0
 2769 08b1 2E       		.uleb128 0x2e
 2770 08b2 B7060000 		.4byte	0x6b7
 2771 08b6 44010000 		.4byte	.LBB15
 2772 08ba 30000000 		.4byte	.Ldebug_ranges0+0x30
 2773 08be 02       		.byte	0x2
 2774 08bf BC       		.byte	0xbc
 2775 08c0 CE080000 		.4byte	0x8ce
 2776 08c4 24       		.uleb128 0x24
 2777 08c5 C5060000 		.4byte	0x6c5
 2778 08c9 5D020000 		.4byte	.LLST18
 2779 08cd 00       		.byte	0x0
 2780 08ce 2D       		.uleb128 0x2d
 2781 08cf B7060000 		.4byte	0x6b7
 2782 08d3 3C010000 		.4byte	.LBB18
 2783 08d7 44010000 		.4byte	.LBE18
 2784 08db 02       		.byte	0x2
 2785 08dc B5       		.byte	0xb5
 2786 08dd EB080000 		.4byte	0x8eb
 2787 08e1 24       		.uleb128 0x24
 2788 08e2 C5060000 		.4byte	0x6c5
 2789 08e6 71020000 		.4byte	.LLST19
 2790 08ea 00       		.byte	0x0
 2791 08eb 2F       		.uleb128 0x2f
 2792 08ec B7060000 		.4byte	0x6b7
 2793 08f0 EA000000 		.4byte	.LBB20
ARM GAS  C:\Users\DNIEL~1\AppData\Local\Temp\ccq8ljmg.s 			page 52


 2794 08f4 04010000 		.4byte	.LBE20
 2795 08f8 02       		.byte	0x2
 2796 08f9 E5       		.byte	0xe5
 2797 08fa 24       		.uleb128 0x24
 2798 08fb C5060000 		.4byte	0x6c5
 2799 08ff 85020000 		.4byte	.LLST20
 2800 0903 00       		.byte	0x0
 2801 0904 00       		.byte	0x0
 2802 0905 00       		.byte	0x0
 2803 0906 29       		.uleb128 0x29
 2804 0907 01       		.byte	0x1
 2805 0908 37030000 		.4byte	.LASF86
 2806 090c 02       		.byte	0x2
 2807 090d FA       		.byte	0xfa
 2808 090e 01       		.byte	0x1
 2809 090f 00000000 		.4byte	.LFB129
 2810 0913 A8000000 		.4byte	.LFE129
 2811 0917 99020000 		.4byte	.LLST21
 2812 091b 4D090000 		.4byte	0x94d
 2813 091f 1D       		.uleb128 0x1d
 2814 0920 63687000 		.ascii	"chp\000"
 2815 0924 02       		.byte	0x2
 2816 0925 FA       		.byte	0xfa
 2817 0926 15070000 		.4byte	0x715
 2818 092a B9020000 		.4byte	.LLST22
 2819 092e 28       		.uleb128 0x28
 2820 092f 15010000 		.4byte	.LASF80
 2821 0933 02       		.byte	0x2
 2822 0934 FA       		.byte	0xfa
 2823 0935 29000000 		.4byte	0x29
 2824 0939 D7020000 		.4byte	.LLST23
 2825 093d 28       		.uleb128 0x28
 2826 093e A5010000 		.4byte	.LASF81
 2827 0942 02       		.byte	0x2
 2828 0943 FA       		.byte	0xfa
 2829 0944 25080000 		.4byte	0x825
 2830 0948 EA020000 		.4byte	.LLST24
 2831 094c 00       		.byte	0x0
 2832 094d 30       		.uleb128 0x30
 2833 094e CF030000 		.4byte	.LASF87
 2834 0952 0D       		.byte	0xd
 2835 0953 9806     		.2byte	0x698
 2836 0955 EB010000 		.4byte	0x1eb
 2837 0959 01       		.byte	0x1
 2838 095a 01       		.byte	0x1
 2839 095b 30       		.uleb128 0x30
 2840 095c 44000000 		.4byte	.LASF88
 2841 0960 0A       		.byte	0xa
 2842 0961 BF01     		.2byte	0x1bf
 2843 0963 9F040000 		.4byte	0x49f
 2844 0967 01       		.byte	0x1
 2845 0968 01       		.byte	0x1
 2846 0969 31       		.uleb128 0x31
 2847 096a 98010000 		.4byte	.LASF89
 2848 096e 02       		.byte	0x2
 2849 096f 18       		.byte	0x18
 2850 0970 48060000 		.4byte	0x648
ARM GAS  C:\Users\DNIEL~1\AppData\Local\Temp\ccq8ljmg.s 			page 53


 2851 0974 05       		.byte	0x5
 2852 0975 03       		.byte	0x3
 2853 0976 00000000 		.4byte	lightchanels
 2854 097a 31       		.uleb128 0x31
 2855 097b D5020000 		.4byte	.LASF90
 2856 097f 02       		.byte	0x2
 2857 0980 1A       		.byte	0x1a
 2858 0981 E6050000 		.4byte	0x5e6
 2859 0985 05       		.byte	0x5
 2860 0986 03       		.byte	0x3
 2861 0987 00000000 		.4byte	pwmcfg
 2862 098b 31       		.uleb128 0x31
 2863 098c 76010000 		.4byte	.LASF47
 2864 0990 02       		.byte	0x2
 2865 0991 28       		.byte	0x28
 2866 0992 29000000 		.4byte	0x29
 2867 0996 05       		.byte	0x5
 2868 0997 03       		.byte	0x3
 2869 0998 00000000 		.4byte	period
 2870 099c 31       		.uleb128 0x31
 2871 099d 39020000 		.4byte	.LASF91
 2872 09a1 02       		.byte	0x2
 2873 09a2 29       		.byte	0x29
 2874 09a3 B1000000 		.4byte	0xb1
 2875 09a7 05       		.byte	0x5
 2876 09a8 03       		.byte	0x3
 2877 09a9 00000000 		.4byte	flashing
 2878 09ad 31       		.uleb128 0x31
 2879 09ae C2030000 		.4byte	.LASF92
 2880 09b2 02       		.byte	0x2
 2881 09b3 2A       		.byte	0x2a
 2882 09b4 A6000000 		.4byte	0xa6
 2883 09b8 05       		.byte	0x5
 2884 09b9 03       		.byte	0x3
 2885 09ba 00000000 		.4byte	right_active
 2886 09be 31       		.uleb128 0x31
 2887 09bf DC000000 		.4byte	.LASF93
 2888 09c3 02       		.byte	0x2
 2889 09c4 2B       		.byte	0x2b
 2890 09c5 A6000000 		.4byte	0xa6
 2891 09c9 05       		.byte	0x5
 2892 09ca 03       		.byte	0x3
 2893 09cb 00000000 		.4byte	left_active
 2894 09cf 30       		.uleb128 0x30
 2895 09d0 CF030000 		.4byte	.LASF87
 2896 09d4 0D       		.byte	0xd
 2897 09d5 9806     		.2byte	0x698
 2898 09d7 EB010000 		.4byte	0x1eb
 2899 09db 01       		.byte	0x1
 2900 09dc 01       		.byte	0x1
 2901 09dd 30       		.uleb128 0x30
 2902 09de 44000000 		.4byte	.LASF88
 2903 09e2 0A       		.byte	0xa
 2904 09e3 BF01     		.2byte	0x1bf
 2905 09e5 9F040000 		.4byte	0x49f
 2906 09e9 01       		.byte	0x1
 2907 09ea 01       		.byte	0x1
ARM GAS  C:\Users\DNIEL~1\AppData\Local\Temp\ccq8ljmg.s 			page 54


 2908 09eb 00       		.byte	0x0
 2909              		.section	.debug_abbrev
 2910 0000 01       		.uleb128 0x1
 2911 0001 11       		.uleb128 0x11
 2912 0002 01       		.byte	0x1
 2913 0003 25       		.uleb128 0x25
 2914 0004 0E       		.uleb128 0xe
 2915 0005 13       		.uleb128 0x13
 2916 0006 0B       		.uleb128 0xb
 2917 0007 03       		.uleb128 0x3
 2918 0008 0E       		.uleb128 0xe
 2919 0009 1B       		.uleb128 0x1b
 2920 000a 0E       		.uleb128 0xe
 2921 000b 11       		.uleb128 0x11
 2922 000c 01       		.uleb128 0x1
 2923 000d 52       		.uleb128 0x52
 2924 000e 01       		.uleb128 0x1
 2925 000f 55       		.uleb128 0x55
 2926 0010 06       		.uleb128 0x6
 2927 0011 10       		.uleb128 0x10
 2928 0012 06       		.uleb128 0x6
 2929 0013 00       		.byte	0x0
 2930 0014 00       		.byte	0x0
 2931 0015 02       		.uleb128 0x2
 2932 0016 24       		.uleb128 0x24
 2933 0017 00       		.byte	0x0
 2934 0018 0B       		.uleb128 0xb
 2935 0019 0B       		.uleb128 0xb
 2936 001a 3E       		.uleb128 0x3e
 2937 001b 0B       		.uleb128 0xb
 2938 001c 03       		.uleb128 0x3
 2939 001d 08       		.uleb128 0x8
 2940 001e 00       		.byte	0x0
 2941 001f 00       		.byte	0x0
 2942 0020 03       		.uleb128 0x3
 2943 0021 16       		.uleb128 0x16
 2944 0022 00       		.byte	0x0
 2945 0023 03       		.uleb128 0x3
 2946 0024 0E       		.uleb128 0xe
 2947 0025 3A       		.uleb128 0x3a
 2948 0026 0B       		.uleb128 0xb
 2949 0027 3B       		.uleb128 0x3b
 2950 0028 0B       		.uleb128 0xb
 2951 0029 49       		.uleb128 0x49
 2952 002a 13       		.uleb128 0x13
 2953 002b 00       		.byte	0x0
 2954 002c 00       		.byte	0x0
 2955 002d 04       		.uleb128 0x4
 2956 002e 24       		.uleb128 0x24
 2957 002f 00       		.byte	0x0
 2958 0030 0B       		.uleb128 0xb
 2959 0031 0B       		.uleb128 0xb
 2960 0032 3E       		.uleb128 0x3e
 2961 0033 0B       		.uleb128 0xb
 2962 0034 03       		.uleb128 0x3
 2963 0035 0E       		.uleb128 0xe
 2964 0036 00       		.byte	0x0
ARM GAS  C:\Users\DNIEL~1\AppData\Local\Temp\ccq8ljmg.s 			page 55


 2965 0037 00       		.byte	0x0
 2966 0038 05       		.uleb128 0x5
 2967 0039 0F       		.uleb128 0xf
 2968 003a 00       		.byte	0x0
 2969 003b 0B       		.uleb128 0xb
 2970 003c 0B       		.uleb128 0xb
 2971 003d 00       		.byte	0x0
 2972 003e 00       		.byte	0x0
 2973 003f 06       		.uleb128 0x6
 2974 0040 35       		.uleb128 0x35
 2975 0041 00       		.byte	0x0
 2976 0042 49       		.uleb128 0x49
 2977 0043 13       		.uleb128 0x13
 2978 0044 00       		.byte	0x0
 2979 0045 00       		.byte	0x0
 2980 0046 07       		.uleb128 0x7
 2981 0047 0F       		.uleb128 0xf
 2982 0048 00       		.byte	0x0
 2983 0049 0B       		.uleb128 0xb
 2984 004a 0B       		.uleb128 0xb
 2985 004b 49       		.uleb128 0x49
 2986 004c 13       		.uleb128 0x13
 2987 004d 00       		.byte	0x0
 2988 004e 00       		.byte	0x0
 2989 004f 08       		.uleb128 0x8
 2990 0050 26       		.uleb128 0x26
 2991 0051 00       		.byte	0x0
 2992 0052 49       		.uleb128 0x49
 2993 0053 13       		.uleb128 0x13
 2994 0054 00       		.byte	0x0
 2995 0055 00       		.byte	0x0
 2996 0056 09       		.uleb128 0x9
 2997 0057 15       		.uleb128 0x15
 2998 0058 01       		.byte	0x1
 2999 0059 27       		.uleb128 0x27
 3000 005a 0C       		.uleb128 0xc
 3001 005b 49       		.uleb128 0x49
 3002 005c 13       		.uleb128 0x13
 3003 005d 01       		.uleb128 0x1
 3004 005e 13       		.uleb128 0x13
 3005 005f 00       		.byte	0x0
 3006 0060 00       		.byte	0x0
 3007 0061 0A       		.uleb128 0xa
 3008 0062 05       		.uleb128 0x5
 3009 0063 00       		.byte	0x0
 3010 0064 49       		.uleb128 0x49
 3011 0065 13       		.uleb128 0x13
 3012 0066 00       		.byte	0x0
 3013 0067 00       		.byte	0x0
 3014 0068 0B       		.uleb128 0xb
 3015 0069 13       		.uleb128 0x13
 3016 006a 01       		.byte	0x1
 3017 006b 03       		.uleb128 0x3
 3018 006c 0E       		.uleb128 0xe
 3019 006d 0B       		.uleb128 0xb
 3020 006e 0B       		.uleb128 0xb
 3021 006f 3A       		.uleb128 0x3a
ARM GAS  C:\Users\DNIEL~1\AppData\Local\Temp\ccq8ljmg.s 			page 56


 3022 0070 0B       		.uleb128 0xb
 3023 0071 3B       		.uleb128 0x3b
 3024 0072 0B       		.uleb128 0xb
 3025 0073 01       		.uleb128 0x1
 3026 0074 13       		.uleb128 0x13
 3027 0075 00       		.byte	0x0
 3028 0076 00       		.byte	0x0
 3029 0077 0C       		.uleb128 0xc
 3030 0078 0D       		.uleb128 0xd
 3031 0079 00       		.byte	0x0
 3032 007a 03       		.uleb128 0x3
 3033 007b 0E       		.uleb128 0xe
 3034 007c 3A       		.uleb128 0x3a
 3035 007d 0B       		.uleb128 0xb
 3036 007e 3B       		.uleb128 0x3b
 3037 007f 0B       		.uleb128 0xb
 3038 0080 49       		.uleb128 0x49
 3039 0081 13       		.uleb128 0x13
 3040 0082 38       		.uleb128 0x38
 3041 0083 0A       		.uleb128 0xa
 3042 0084 00       		.byte	0x0
 3043 0085 00       		.byte	0x0
 3044 0086 0D       		.uleb128 0xd
 3045 0087 0D       		.uleb128 0xd
 3046 0088 00       		.byte	0x0
 3047 0089 03       		.uleb128 0x3
 3048 008a 08       		.uleb128 0x8
 3049 008b 3A       		.uleb128 0x3a
 3050 008c 0B       		.uleb128 0xb
 3051 008d 3B       		.uleb128 0x3b
 3052 008e 0B       		.uleb128 0xb
 3053 008f 49       		.uleb128 0x49
 3054 0090 13       		.uleb128 0x13
 3055 0091 38       		.uleb128 0x38
 3056 0092 0A       		.uleb128 0xa
 3057 0093 00       		.byte	0x0
 3058 0094 00       		.byte	0x0
 3059 0095 0E       		.uleb128 0xe
 3060 0096 13       		.uleb128 0x13
 3061 0097 01       		.byte	0x1
 3062 0098 0B       		.uleb128 0xb
 3063 0099 0B       		.uleb128 0xb
 3064 009a 3A       		.uleb128 0x3a
 3065 009b 0B       		.uleb128 0xb
 3066 009c 3B       		.uleb128 0x3b
 3067 009d 0B       		.uleb128 0xb
 3068 009e 01       		.uleb128 0x1
 3069 009f 13       		.uleb128 0x13
 3070 00a0 00       		.byte	0x0
 3071 00a1 00       		.byte	0x0
 3072 00a2 0F       		.uleb128 0xf
 3073 00a3 01       		.uleb128 0x1
 3074 00a4 01       		.byte	0x1
 3075 00a5 49       		.uleb128 0x49
 3076 00a6 13       		.uleb128 0x13
 3077 00a7 01       		.uleb128 0x1
 3078 00a8 13       		.uleb128 0x13
ARM GAS  C:\Users\DNIEL~1\AppData\Local\Temp\ccq8ljmg.s 			page 57


 3079 00a9 00       		.byte	0x0
 3080 00aa 00       		.byte	0x0
 3081 00ab 10       		.uleb128 0x10
 3082 00ac 21       		.uleb128 0x21
 3083 00ad 00       		.byte	0x0
 3084 00ae 49       		.uleb128 0x49
 3085 00af 13       		.uleb128 0x13
 3086 00b0 2F       		.uleb128 0x2f
 3087 00b1 0B       		.uleb128 0xb
 3088 00b2 00       		.byte	0x0
 3089 00b3 00       		.byte	0x0
 3090 00b4 11       		.uleb128 0x11
 3091 00b5 13       		.uleb128 0x13
 3092 00b6 01       		.byte	0x1
 3093 00b7 0B       		.uleb128 0xb
 3094 00b8 0B       		.uleb128 0xb
 3095 00b9 3A       		.uleb128 0x3a
 3096 00ba 0B       		.uleb128 0xb
 3097 00bb 3B       		.uleb128 0x3b
 3098 00bc 05       		.uleb128 0x5
 3099 00bd 01       		.uleb128 0x1
 3100 00be 13       		.uleb128 0x13
 3101 00bf 00       		.byte	0x0
 3102 00c0 00       		.byte	0x0
 3103 00c1 12       		.uleb128 0x12
 3104 00c2 0D       		.uleb128 0xd
 3105 00c3 00       		.byte	0x0
 3106 00c4 03       		.uleb128 0x3
 3107 00c5 08       		.uleb128 0x8
 3108 00c6 3A       		.uleb128 0x3a
 3109 00c7 0B       		.uleb128 0xb
 3110 00c8 3B       		.uleb128 0x3b
 3111 00c9 05       		.uleb128 0x5
 3112 00ca 49       		.uleb128 0x49
 3113 00cb 13       		.uleb128 0x13
 3114 00cc 38       		.uleb128 0x38
 3115 00cd 0A       		.uleb128 0xa
 3116 00ce 00       		.byte	0x0
 3117 00cf 00       		.byte	0x0
 3118 00d0 13       		.uleb128 0x13
 3119 00d1 0D       		.uleb128 0xd
 3120 00d2 00       		.byte	0x0
 3121 00d3 03       		.uleb128 0x3
 3122 00d4 0E       		.uleb128 0xe
 3123 00d5 3A       		.uleb128 0x3a
 3124 00d6 0B       		.uleb128 0xb
 3125 00d7 3B       		.uleb128 0x3b
 3126 00d8 05       		.uleb128 0x5
 3127 00d9 49       		.uleb128 0x49
 3128 00da 13       		.uleb128 0x13
 3129 00db 38       		.uleb128 0x38
 3130 00dc 0A       		.uleb128 0xa
 3131 00dd 00       		.byte	0x0
 3132 00de 00       		.byte	0x0
 3133 00df 14       		.uleb128 0x14
 3134 00e0 16       		.uleb128 0x16
 3135 00e1 00       		.byte	0x0
ARM GAS  C:\Users\DNIEL~1\AppData\Local\Temp\ccq8ljmg.s 			page 58


 3136 00e2 03       		.uleb128 0x3
 3137 00e3 0E       		.uleb128 0xe
 3138 00e4 3A       		.uleb128 0x3a
 3139 00e5 0B       		.uleb128 0xb
 3140 00e6 3B       		.uleb128 0x3b
 3141 00e7 05       		.uleb128 0x5
 3142 00e8 49       		.uleb128 0x49
 3143 00e9 13       		.uleb128 0x13
 3144 00ea 00       		.byte	0x0
 3145 00eb 00       		.byte	0x0
 3146 00ec 15       		.uleb128 0x15
 3147 00ed 04       		.uleb128 0x4
 3148 00ee 01       		.byte	0x1
 3149 00ef 0B       		.uleb128 0xb
 3150 00f0 0B       		.uleb128 0xb
 3151 00f1 3A       		.uleb128 0x3a
 3152 00f2 0B       		.uleb128 0xb
 3153 00f3 3B       		.uleb128 0x3b
 3154 00f4 0B       		.uleb128 0xb
 3155 00f5 01       		.uleb128 0x1
 3156 00f6 13       		.uleb128 0x13
 3157 00f7 00       		.byte	0x0
 3158 00f8 00       		.byte	0x0
 3159 00f9 16       		.uleb128 0x16
 3160 00fa 28       		.uleb128 0x28
 3161 00fb 00       		.byte	0x0
 3162 00fc 03       		.uleb128 0x3
 3163 00fd 0E       		.uleb128 0xe
 3164 00fe 1C       		.uleb128 0x1c
 3165 00ff 0D       		.uleb128 0xd
 3166 0100 00       		.byte	0x0
 3167 0101 00       		.byte	0x0
 3168 0102 17       		.uleb128 0x17
 3169 0103 13       		.uleb128 0x13
 3170 0104 01       		.byte	0x1
 3171 0105 03       		.uleb128 0x3
 3172 0106 0E       		.uleb128 0xe
 3173 0107 0B       		.uleb128 0xb
 3174 0108 0B       		.uleb128 0xb
 3175 0109 3A       		.uleb128 0x3a
 3176 010a 0B       		.uleb128 0xb
 3177 010b 3B       		.uleb128 0x3b
 3178 010c 05       		.uleb128 0x5
 3179 010d 01       		.uleb128 0x1
 3180 010e 13       		.uleb128 0x13
 3181 010f 00       		.byte	0x0
 3182 0110 00       		.byte	0x0
 3183 0111 18       		.uleb128 0x18
 3184 0112 15       		.uleb128 0x15
 3185 0113 01       		.byte	0x1
 3186 0114 27       		.uleb128 0x27
 3187 0115 0C       		.uleb128 0xc
 3188 0116 01       		.uleb128 0x1
 3189 0117 13       		.uleb128 0x13
 3190 0118 00       		.byte	0x0
 3191 0119 00       		.byte	0x0
 3192 011a 19       		.uleb128 0x19
ARM GAS  C:\Users\DNIEL~1\AppData\Local\Temp\ccq8ljmg.s 			page 59


 3193 011b 0D       		.uleb128 0xd
 3194 011c 00       		.byte	0x0
 3195 011d 03       		.uleb128 0x3
 3196 011e 0E       		.uleb128 0xe
 3197 011f 49       		.uleb128 0x49
 3198 0120 13       		.uleb128 0x13
 3199 0121 38       		.uleb128 0x38
 3200 0122 0A       		.uleb128 0xa
 3201 0123 34       		.uleb128 0x34
 3202 0124 0C       		.uleb128 0xc
 3203 0125 00       		.byte	0x0
 3204 0126 00       		.byte	0x0
 3205 0127 1A       		.uleb128 0x1a
 3206 0128 2E       		.uleb128 0x2e
 3207 0129 01       		.byte	0x1
 3208 012a 3F       		.uleb128 0x3f
 3209 012b 0C       		.uleb128 0xc
 3210 012c 03       		.uleb128 0x3
 3211 012d 0E       		.uleb128 0xe
 3212 012e 3A       		.uleb128 0x3a
 3213 012f 0B       		.uleb128 0xb
 3214 0130 3B       		.uleb128 0x3b
 3215 0131 0B       		.uleb128 0xb
 3216 0132 27       		.uleb128 0x27
 3217 0133 0C       		.uleb128 0xc
 3218 0134 20       		.uleb128 0x20
 3219 0135 0B       		.uleb128 0xb
 3220 0136 01       		.uleb128 0x1
 3221 0137 13       		.uleb128 0x13
 3222 0138 00       		.byte	0x0
 3223 0139 00       		.byte	0x0
 3224 013a 1B       		.uleb128 0x1b
 3225 013b 05       		.uleb128 0x5
 3226 013c 00       		.byte	0x0
 3227 013d 03       		.uleb128 0x3
 3228 013e 0E       		.uleb128 0xe
 3229 013f 3A       		.uleb128 0x3a
 3230 0140 0B       		.uleb128 0xb
 3231 0141 3B       		.uleb128 0x3b
 3232 0142 0B       		.uleb128 0xb
 3233 0143 49       		.uleb128 0x49
 3234 0144 13       		.uleb128 0x13
 3235 0145 00       		.byte	0x0
 3236 0146 00       		.byte	0x0
 3237 0147 1C       		.uleb128 0x1c
 3238 0148 2E       		.uleb128 0x2e
 3239 0149 01       		.byte	0x1
 3240 014a 03       		.uleb128 0x3
 3241 014b 0E       		.uleb128 0xe
 3242 014c 3A       		.uleb128 0x3a
 3243 014d 0B       		.uleb128 0xb
 3244 014e 3B       		.uleb128 0x3b
 3245 014f 0B       		.uleb128 0xb
 3246 0150 27       		.uleb128 0x27
 3247 0151 0C       		.uleb128 0xc
 3248 0152 11       		.uleb128 0x11
 3249 0153 01       		.uleb128 0x1
ARM GAS  C:\Users\DNIEL~1\AppData\Local\Temp\ccq8ljmg.s 			page 60


 3250 0154 12       		.uleb128 0x12
 3251 0155 01       		.uleb128 0x1
 3252 0156 40       		.uleb128 0x40
 3253 0157 06       		.uleb128 0x6
 3254 0158 01       		.uleb128 0x1
 3255 0159 13       		.uleb128 0x13
 3256 015a 00       		.byte	0x0
 3257 015b 00       		.byte	0x0
 3258 015c 1D       		.uleb128 0x1d
 3259 015d 05       		.uleb128 0x5
 3260 015e 00       		.byte	0x0
 3261 015f 03       		.uleb128 0x3
 3262 0160 08       		.uleb128 0x8
 3263 0161 3A       		.uleb128 0x3a
 3264 0162 0B       		.uleb128 0xb
 3265 0163 3B       		.uleb128 0x3b
 3266 0164 0B       		.uleb128 0xb
 3267 0165 49       		.uleb128 0x49
 3268 0166 13       		.uleb128 0x13
 3269 0167 02       		.uleb128 0x2
 3270 0168 06       		.uleb128 0x6
 3271 0169 00       		.byte	0x0
 3272 016a 00       		.byte	0x0
 3273 016b 1E       		.uleb128 0x1e
 3274 016c 05       		.uleb128 0x5
 3275 016d 00       		.byte	0x0
 3276 016e 03       		.uleb128 0x3
 3277 016f 08       		.uleb128 0x8
 3278 0170 3A       		.uleb128 0x3a
 3279 0171 0B       		.uleb128 0xb
 3280 0172 3B       		.uleb128 0x3b
 3281 0173 0B       		.uleb128 0xb
 3282 0174 49       		.uleb128 0x49
 3283 0175 13       		.uleb128 0x13
 3284 0176 02       		.uleb128 0x2
 3285 0177 0A       		.uleb128 0xa
 3286 0178 00       		.byte	0x0
 3287 0179 00       		.byte	0x0
 3288 017a 1F       		.uleb128 0x1f
 3289 017b 18       		.uleb128 0x18
 3290 017c 00       		.byte	0x0
 3291 017d 00       		.byte	0x0
 3292 017e 00       		.byte	0x0
 3293 017f 20       		.uleb128 0x20
 3294 0180 34       		.uleb128 0x34
 3295 0181 00       		.byte	0x0
 3296 0182 03       		.uleb128 0x3
 3297 0183 08       		.uleb128 0x8
 3298 0184 3A       		.uleb128 0x3a
 3299 0185 0B       		.uleb128 0xb
 3300 0186 3B       		.uleb128 0x3b
 3301 0187 0B       		.uleb128 0xb
 3302 0188 49       		.uleb128 0x49
 3303 0189 13       		.uleb128 0x13
 3304 018a 02       		.uleb128 0x2
 3305 018b 0A       		.uleb128 0xa
 3306 018c 00       		.byte	0x0
ARM GAS  C:\Users\DNIEL~1\AppData\Local\Temp\ccq8ljmg.s 			page 61


 3307 018d 00       		.byte	0x0
 3308 018e 21       		.uleb128 0x21
 3309 018f 2E       		.uleb128 0x2e
 3310 0190 00       		.byte	0x0
 3311 0191 3F       		.uleb128 0x3f
 3312 0192 0C       		.uleb128 0xc
 3313 0193 03       		.uleb128 0x3
 3314 0194 0E       		.uleb128 0xe
 3315 0195 3A       		.uleb128 0x3a
 3316 0196 0B       		.uleb128 0xb
 3317 0197 3B       		.uleb128 0x3b
 3318 0198 0B       		.uleb128 0xb
 3319 0199 27       		.uleb128 0x27
 3320 019a 0C       		.uleb128 0xc
 3321 019b 11       		.uleb128 0x11
 3322 019c 01       		.uleb128 0x1
 3323 019d 12       		.uleb128 0x12
 3324 019e 01       		.uleb128 0x1
 3325 019f 40       		.uleb128 0x40
 3326 01a0 0A       		.uleb128 0xa
 3327 01a1 00       		.byte	0x0
 3328 01a2 00       		.byte	0x0
 3329 01a3 22       		.uleb128 0x22
 3330 01a4 2E       		.uleb128 0x2e
 3331 01a5 00       		.byte	0x0
 3332 01a6 3F       		.uleb128 0x3f
 3333 01a7 0C       		.uleb128 0xc
 3334 01a8 03       		.uleb128 0x3
 3335 01a9 0E       		.uleb128 0xe
 3336 01aa 3A       		.uleb128 0x3a
 3337 01ab 0B       		.uleb128 0xb
 3338 01ac 3B       		.uleb128 0x3b
 3339 01ad 0B       		.uleb128 0xb
 3340 01ae 27       		.uleb128 0x27
 3341 01af 0C       		.uleb128 0xc
 3342 01b0 11       		.uleb128 0x11
 3343 01b1 01       		.uleb128 0x1
 3344 01b2 12       		.uleb128 0x12
 3345 01b3 01       		.uleb128 0x1
 3346 01b4 40       		.uleb128 0x40
 3347 01b5 06       		.uleb128 0x6
 3348 01b6 00       		.byte	0x0
 3349 01b7 00       		.byte	0x0
 3350 01b8 23       		.uleb128 0x23
 3351 01b9 2E       		.uleb128 0x2e
 3352 01ba 01       		.byte	0x1
 3353 01bb 31       		.uleb128 0x31
 3354 01bc 13       		.uleb128 0x13
 3355 01bd 11       		.uleb128 0x11
 3356 01be 01       		.uleb128 0x1
 3357 01bf 12       		.uleb128 0x12
 3358 01c0 01       		.uleb128 0x1
 3359 01c1 40       		.uleb128 0x40
 3360 01c2 06       		.uleb128 0x6
 3361 01c3 01       		.uleb128 0x1
 3362 01c4 13       		.uleb128 0x13
 3363 01c5 00       		.byte	0x0
ARM GAS  C:\Users\DNIEL~1\AppData\Local\Temp\ccq8ljmg.s 			page 62


 3364 01c6 00       		.byte	0x0
 3365 01c7 24       		.uleb128 0x24
 3366 01c8 05       		.uleb128 0x5
 3367 01c9 00       		.byte	0x0
 3368 01ca 31       		.uleb128 0x31
 3369 01cb 13       		.uleb128 0x13
 3370 01cc 02       		.uleb128 0x2
 3371 01cd 06       		.uleb128 0x6
 3372 01ce 00       		.byte	0x0
 3373 01cf 00       		.byte	0x0
 3374 01d0 25       		.uleb128 0x25
 3375 01d1 2E       		.uleb128 0x2e
 3376 01d2 00       		.byte	0x0
 3377 01d3 3F       		.uleb128 0x3f
 3378 01d4 0C       		.uleb128 0xc
 3379 01d5 03       		.uleb128 0x3
 3380 01d6 0E       		.uleb128 0xe
 3381 01d7 3A       		.uleb128 0x3a
 3382 01d8 0B       		.uleb128 0xb
 3383 01d9 3B       		.uleb128 0x3b
 3384 01da 0B       		.uleb128 0xb
 3385 01db 11       		.uleb128 0x11
 3386 01dc 01       		.uleb128 0x1
 3387 01dd 12       		.uleb128 0x12
 3388 01de 01       		.uleb128 0x1
 3389 01df 40       		.uleb128 0x40
 3390 01e0 06       		.uleb128 0x6
 3391 01e1 00       		.byte	0x0
 3392 01e2 00       		.byte	0x0
 3393 01e3 26       		.uleb128 0x26
 3394 01e4 2E       		.uleb128 0x2e
 3395 01e5 00       		.byte	0x0
 3396 01e6 3F       		.uleb128 0x3f
 3397 01e7 0C       		.uleb128 0xc
 3398 01e8 03       		.uleb128 0x3
 3399 01e9 0E       		.uleb128 0xe
 3400 01ea 3A       		.uleb128 0x3a
 3401 01eb 0B       		.uleb128 0xb
 3402 01ec 3B       		.uleb128 0x3b
 3403 01ed 0B       		.uleb128 0xb
 3404 01ee 11       		.uleb128 0x11
 3405 01ef 01       		.uleb128 0x1
 3406 01f0 12       		.uleb128 0x12
 3407 01f1 01       		.uleb128 0x1
 3408 01f2 40       		.uleb128 0x40
 3409 01f3 0A       		.uleb128 0xa
 3410 01f4 00       		.byte	0x0
 3411 01f5 00       		.byte	0x0
 3412 01f6 27       		.uleb128 0x27
 3413 01f7 2E       		.uleb128 0x2e
 3414 01f8 01       		.byte	0x1
 3415 01f9 3F       		.uleb128 0x3f
 3416 01fa 0C       		.uleb128 0xc
 3417 01fb 03       		.uleb128 0x3
 3418 01fc 0E       		.uleb128 0xe
 3419 01fd 3A       		.uleb128 0x3a
 3420 01fe 0B       		.uleb128 0xb
ARM GAS  C:\Users\DNIEL~1\AppData\Local\Temp\ccq8ljmg.s 			page 63


 3421 01ff 3B       		.uleb128 0x3b
 3422 0200 0B       		.uleb128 0xb
 3423 0201 27       		.uleb128 0x27
 3424 0202 0C       		.uleb128 0xc
 3425 0203 49       		.uleb128 0x49
 3426 0204 13       		.uleb128 0x13
 3427 0205 11       		.uleb128 0x11
 3428 0206 01       		.uleb128 0x1
 3429 0207 12       		.uleb128 0x12
 3430 0208 01       		.uleb128 0x1
 3431 0209 40       		.uleb128 0x40
 3432 020a 0A       		.uleb128 0xa
 3433 020b 01       		.uleb128 0x1
 3434 020c 13       		.uleb128 0x13
 3435 020d 00       		.byte	0x0
 3436 020e 00       		.byte	0x0
 3437 020f 28       		.uleb128 0x28
 3438 0210 05       		.uleb128 0x5
 3439 0211 00       		.byte	0x0
 3440 0212 03       		.uleb128 0x3
 3441 0213 0E       		.uleb128 0xe
 3442 0214 3A       		.uleb128 0x3a
 3443 0215 0B       		.uleb128 0xb
 3444 0216 3B       		.uleb128 0x3b
 3445 0217 0B       		.uleb128 0xb
 3446 0218 49       		.uleb128 0x49
 3447 0219 13       		.uleb128 0x13
 3448 021a 02       		.uleb128 0x2
 3449 021b 06       		.uleb128 0x6
 3450 021c 00       		.byte	0x0
 3451 021d 00       		.byte	0x0
 3452 021e 29       		.uleb128 0x29
 3453 021f 2E       		.uleb128 0x2e
 3454 0220 01       		.byte	0x1
 3455 0221 3F       		.uleb128 0x3f
 3456 0222 0C       		.uleb128 0xc
 3457 0223 03       		.uleb128 0x3
 3458 0224 0E       		.uleb128 0xe
 3459 0225 3A       		.uleb128 0x3a
 3460 0226 0B       		.uleb128 0xb
 3461 0227 3B       		.uleb128 0x3b
 3462 0228 0B       		.uleb128 0xb
 3463 0229 27       		.uleb128 0x27
 3464 022a 0C       		.uleb128 0xc
 3465 022b 11       		.uleb128 0x11
 3466 022c 01       		.uleb128 0x1
 3467 022d 12       		.uleb128 0x12
 3468 022e 01       		.uleb128 0x1
 3469 022f 40       		.uleb128 0x40
 3470 0230 06       		.uleb128 0x6
 3471 0231 01       		.uleb128 0x1
 3472 0232 13       		.uleb128 0x13
 3473 0233 00       		.byte	0x0
 3474 0234 00       		.byte	0x0
 3475 0235 2A       		.uleb128 0x2a
 3476 0236 0A       		.uleb128 0xa
 3477 0237 00       		.byte	0x0
ARM GAS  C:\Users\DNIEL~1\AppData\Local\Temp\ccq8ljmg.s 			page 64


 3478 0238 03       		.uleb128 0x3
 3479 0239 0E       		.uleb128 0xe
 3480 023a 3A       		.uleb128 0x3a
 3481 023b 0B       		.uleb128 0xb
 3482 023c 3B       		.uleb128 0x3b
 3483 023d 0B       		.uleb128 0xb
 3484 023e 11       		.uleb128 0x11
 3485 023f 01       		.uleb128 0x1
 3486 0240 00       		.byte	0x0
 3487 0241 00       		.byte	0x0
 3488 0242 2B       		.uleb128 0x2b
 3489 0243 0B       		.uleb128 0xb
 3490 0244 01       		.byte	0x1
 3491 0245 55       		.uleb128 0x55
 3492 0246 06       		.uleb128 0x6
 3493 0247 00       		.byte	0x0
 3494 0248 00       		.byte	0x0
 3495 0249 2C       		.uleb128 0x2c
 3496 024a 2E       		.uleb128 0x2e
 3497 024b 01       		.byte	0x1
 3498 024c 3F       		.uleb128 0x3f
 3499 024d 0C       		.uleb128 0xc
 3500 024e 03       		.uleb128 0x3
 3501 024f 0E       		.uleb128 0xe
 3502 0250 3A       		.uleb128 0x3a
 3503 0251 0B       		.uleb128 0xb
 3504 0252 3B       		.uleb128 0x3b
 3505 0253 0B       		.uleb128 0xb
 3506 0254 49       		.uleb128 0x49
 3507 0255 13       		.uleb128 0x13
 3508 0256 3C       		.uleb128 0x3c
 3509 0257 0C       		.uleb128 0xc
 3510 0258 01       		.uleb128 0x1
 3511 0259 13       		.uleb128 0x13
 3512 025a 00       		.byte	0x0
 3513 025b 00       		.byte	0x0
 3514 025c 2D       		.uleb128 0x2d
 3515 025d 1D       		.uleb128 0x1d
 3516 025e 01       		.byte	0x1
 3517 025f 31       		.uleb128 0x31
 3518 0260 13       		.uleb128 0x13
 3519 0261 11       		.uleb128 0x11
 3520 0262 01       		.uleb128 0x1
 3521 0263 12       		.uleb128 0x12
 3522 0264 01       		.uleb128 0x1
 3523 0265 58       		.uleb128 0x58
 3524 0266 0B       		.uleb128 0xb
 3525 0267 59       		.uleb128 0x59
 3526 0268 0B       		.uleb128 0xb
 3527 0269 01       		.uleb128 0x1
 3528 026a 13       		.uleb128 0x13
 3529 026b 00       		.byte	0x0
 3530 026c 00       		.byte	0x0
 3531 026d 2E       		.uleb128 0x2e
 3532 026e 1D       		.uleb128 0x1d
 3533 026f 01       		.byte	0x1
 3534 0270 31       		.uleb128 0x31
ARM GAS  C:\Users\DNIEL~1\AppData\Local\Temp\ccq8ljmg.s 			page 65


 3535 0271 13       		.uleb128 0x13
 3536 0272 52       		.uleb128 0x52
 3537 0273 01       		.uleb128 0x1
 3538 0274 55       		.uleb128 0x55
 3539 0275 06       		.uleb128 0x6
 3540 0276 58       		.uleb128 0x58
 3541 0277 0B       		.uleb128 0xb
 3542 0278 59       		.uleb128 0x59
 3543 0279 0B       		.uleb128 0xb
 3544 027a 01       		.uleb128 0x1
 3545 027b 13       		.uleb128 0x13
 3546 027c 00       		.byte	0x0
 3547 027d 00       		.byte	0x0
 3548 027e 2F       		.uleb128 0x2f
 3549 027f 1D       		.uleb128 0x1d
 3550 0280 01       		.byte	0x1
 3551 0281 31       		.uleb128 0x31
 3552 0282 13       		.uleb128 0x13
 3553 0283 11       		.uleb128 0x11
 3554 0284 01       		.uleb128 0x1
 3555 0285 12       		.uleb128 0x12
 3556 0286 01       		.uleb128 0x1
 3557 0287 58       		.uleb128 0x58
 3558 0288 0B       		.uleb128 0xb
 3559 0289 59       		.uleb128 0x59
 3560 028a 0B       		.uleb128 0xb
 3561 028b 00       		.byte	0x0
 3562 028c 00       		.byte	0x0
 3563 028d 30       		.uleb128 0x30
 3564 028e 34       		.uleb128 0x34
 3565 028f 00       		.byte	0x0
 3566 0290 03       		.uleb128 0x3
 3567 0291 0E       		.uleb128 0xe
 3568 0292 3A       		.uleb128 0x3a
 3569 0293 0B       		.uleb128 0xb
 3570 0294 3B       		.uleb128 0x3b
 3571 0295 05       		.uleb128 0x5
 3572 0296 49       		.uleb128 0x49
 3573 0297 13       		.uleb128 0x13
 3574 0298 3F       		.uleb128 0x3f
 3575 0299 0C       		.uleb128 0xc
 3576 029a 3C       		.uleb128 0x3c
 3577 029b 0C       		.uleb128 0xc
 3578 029c 00       		.byte	0x0
 3579 029d 00       		.byte	0x0
 3580 029e 31       		.uleb128 0x31
 3581 029f 34       		.uleb128 0x34
 3582 02a0 00       		.byte	0x0
 3583 02a1 03       		.uleb128 0x3
 3584 02a2 0E       		.uleb128 0xe
 3585 02a3 3A       		.uleb128 0x3a
 3586 02a4 0B       		.uleb128 0xb
 3587 02a5 3B       		.uleb128 0x3b
 3588 02a6 0B       		.uleb128 0xb
 3589 02a7 49       		.uleb128 0x49
 3590 02a8 13       		.uleb128 0x13
 3591 02a9 02       		.uleb128 0x2
ARM GAS  C:\Users\DNIEL~1\AppData\Local\Temp\ccq8ljmg.s 			page 66


 3592 02aa 0A       		.uleb128 0xa
 3593 02ab 00       		.byte	0x0
 3594 02ac 00       		.byte	0x0
 3595 02ad 00       		.byte	0x0
 3596              		.section	.debug_pubnames,"",%progbits
 3597 0000 D3000000 		.4byte	0xd3
 3598 0004 0200     		.2byte	0x2
 3599 0006 00000000 		.4byte	.Ldebug_info0
 3600 000a EC090000 		.4byte	0x9ec
 3601 000e 1B070000 		.4byte	0x71b
 3602 0012 6C696768 		.ascii	"lightInit\000"
 3602      74496E69 
 3602      7400
 3603 001c 2F070000 		.4byte	0x72f
 3604 0020 6C696768 		.ascii	"lightCalc\000"
 3604      7443616C 
 3604      6300
 3605 002a 44070000 		.4byte	0x744
 3606 002e 6C696768 		.ascii	"lightFlashing\000"
 3606      74466C61 
 3606      7368696E 
 3606      6700
 3607 003c 63070000 		.4byte	0x763
 3608 0040 6C696768 		.ascii	"lightBrakeOn\000"
 3608      74427261 
 3608      6B654F6E 
 3608      00
 3609 004d 77070000 		.4byte	0x777
 3610 0051 6C696768 		.ascii	"lightBrakeOff\000"
 3610      74427261 
 3610      6B654F66 
 3610      6600
 3611 005f 8A070000 		.4byte	0x78a
 3612 0063 6C696768 		.ascii	"lightPosLampOn\000"
 3612      74506F73 
 3612      4C616D70 
 3612      4F6E00
 3613 0072 9E070000 		.4byte	0x79e
 3614 0076 6C696768 		.ascii	"lightPosLampOff\000"
 3614      74506F73 
 3614      4C616D70 
 3614      4F666600 
 3615 0086 B2070000 		.4byte	0x7b2
 3616 008a 6765744C 		.ascii	"getLightFlashing\000"
 3616      69676874 
 3616      466C6173 
 3616      68696E67 
 3616      00
 3617 009b DE070000 		.4byte	0x7de
 3618 009f 636D645F 		.ascii	"cmd_lightvalues\000"
 3618      6C696768 
 3618      7476616C 
 3618      75657300 
 3619 00af 2B080000 		.4byte	0x82b
 3620 00b3 636D645F 		.ascii	"cmd_lightblink\000"
 3620      6C696768 
 3620      74626C69 
ARM GAS  C:\Users\DNIEL~1\AppData\Local\Temp\ccq8ljmg.s 			page 67


 3620      6E6B00
 3621 00c2 06090000 		.4byte	0x906
 3622 00c6 636D645F 		.ascii	"cmd_getLight\000"
 3622      6765744C 
 3622      69676874 
 3622      00
 3623 00d3 00000000 		.4byte	0x0
 3624              		.section	.debug_pubtypes,"",%progbits
 3625 0000 8F010000 		.4byte	0x18f
 3626 0004 0200     		.2byte	0x2
 3627 0006 00000000 		.4byte	.Ldebug_info0
 3628 000a EC090000 		.4byte	0x9ec
 3629 000e 30000000 		.4byte	0x30
 3630 0012 73697A65 		.ascii	"size_t\000"
 3630      5F7400
 3631 0019 49000000 		.4byte	0x49
 3632 001d 75696E74 		.ascii	"uint8_t\000"
 3632      385F7400 
 3633 0025 62000000 		.4byte	0x62
 3634 0029 75696E74 		.ascii	"uint16_t\000"
 3634      31365F74 
 3634      00
 3635 0032 74000000 		.4byte	0x74
 3636 0036 696E7433 		.ascii	"int32_t\000"
 3636      325F7400 
 3637 003e 86000000 		.4byte	0x86
 3638 0042 75696E74 		.ascii	"uint32_t\000"
 3638      33325F74 
 3638      00
 3639 004b A6000000 		.4byte	0xa6
 3640 004f 626F6F6C 		.ascii	"bool_t\000"
 3640      5F7400
 3641 0056 B8000000 		.4byte	0xb8
 3642 005a 6D73675F 		.ascii	"msg_t\000"
 3642      7400
 3643 0060 C3000000 		.4byte	0xc3
 3644 0064 73797374 		.ascii	"systime_t\000"
 3644      696D655F 
 3644      7400
 3645 006e 03010000 		.4byte	0x103
 3646 0072 42617365 		.ascii	"BaseSequentialStreamVMT\000"
 3646      53657175 
 3646      656E7469 
 3646      616C5374 
 3646      7265616D 
 3647 008a D0010000 		.4byte	0x1d0
 3648 008e 42617365 		.ascii	"BaseSequentialStream\000"
 3648      53657175 
 3648      656E7469 
 3648      616C5374 
 3648      7265616D 
 3649 00a3 F0010000 		.4byte	0x1f0
 3650 00a7 42617365 		.ascii	"BaseChannelVMT\000"
 3650      4368616E 
 3650      6E656C56 
 3650      4D5400
 3651 00b6 14030000 		.4byte	0x314
ARM GAS  C:\Users\DNIEL~1\AppData\Local\Temp\ccq8ljmg.s 			page 68


 3652 00ba 42617365 		.ascii	"BaseChannel\000"
 3652      4368616E 
 3652      6E656C00 
 3653 00c6 67040000 		.4byte	0x467
 3654 00ca 73746D33 		.ascii	"stm32_tim_t\000"
 3654      325F7469 
 3654      6D5F7400 
 3655 00d6 94040000 		.4byte	0x494
 3656 00da 70776D73 		.ascii	"pwmstate_t\000"
 3656      74617465 
 3656      5F7400
 3657 00e5 9F040000 		.4byte	0x49f
 3658 00e9 50574D44 		.ascii	"PWMDriver\000"
 3658      72697665 
 3658      7200
 3659 00f3 03050000 		.4byte	0x503
 3660 00f7 70776D63 		.ascii	"pwmcallback_t\000"
 3660      616C6C62 
 3660      61636B5F 
 3660      7400
 3661 0105 26050000 		.4byte	0x526
 3662 0109 70776D6D 		.ascii	"pwmmode_t\000"
 3662      6F64655F 
 3662      7400
 3663 0113 32050000 		.4byte	0x532
 3664 0117 70776D63 		.ascii	"pwmcnt_t\000"
 3664      6E745F74 
 3664      00
 3665 0120 66050000 		.4byte	0x566
 3666 0124 50574D43 		.ascii	"PWMChannelConfig\000"
 3666      68616E6E 
 3666      656C436F 
 3666      6E666967 
 3666      00
 3667 0135 E6050000 		.4byte	0x5e6
 3668 0139 50574D43 		.ascii	"PWMConfig\000"
 3668      6F6E6669 
 3668      6700
 3669 0143 AA040000 		.4byte	0x4aa
 3670 0147 50574D44 		.ascii	"PWMDriver\000"
 3670      72697665 
 3670      7200
 3671 0151 23060000 		.4byte	0x623
 3672 0155 5F5F7661 		.ascii	"__va_list\000"
 3672      5F6C6973 
 3672      7400
 3673 015f 18060000 		.4byte	0x618
 3674 0163 5F5F676E 		.ascii	"__gnuc_va_list\000"
 3674      75635F76 
 3674      615F6C69 
 3674      737400
 3675 0172 3D060000 		.4byte	0x63d
 3676 0176 76615F6C 		.ascii	"va_list\000"
 3676      69737400 
 3677 017e 48060000 		.4byte	0x648
 3678 0182 6C696768 		.ascii	"lightChanels\000"
 3678      74436861 
ARM GAS  C:\Users\DNIEL~1\AppData\Local\Temp\ccq8ljmg.s 			page 69


 3678      6E656C73 
 3678      00
 3679 018f 00000000 		.4byte	0x0
 3680              		.section	.debug_aranges,"",%progbits
 3681 0000 74000000 		.4byte	0x74
 3682 0004 0200     		.2byte	0x2
 3683 0006 00000000 		.4byte	.Ldebug_info0
 3684 000a 04       		.byte	0x4
 3685 000b 00       		.byte	0x0
 3686 000c 0000     		.2byte	0x0
 3687 000e 0000     		.2byte	0x0
 3688 0010 00000000 		.4byte	.LFB118
 3689 0014 1E000000 		.4byte	.LFE118-.LFB118
 3690 0018 00000000 		.4byte	.LFB119
 3691 001c 34000000 		.4byte	.LFE119-.LFB119
 3692 0020 00000000 		.4byte	.LFB120
 3693 0024 E4000000 		.4byte	.LFE120-.LFB120
 3694 0028 00000000 		.4byte	.LFB121
 3695 002c 54000000 		.4byte	.LFE121-.LFB121
 3696 0030 00000000 		.4byte	.LFB122
 3697 0034 1C000000 		.4byte	.LFE122-.LFB122
 3698 0038 00000000 		.4byte	.LFB123
 3699 003c 24000000 		.4byte	.LFE123-.LFB123
 3700 0040 00000000 		.4byte	.LFB124
 3701 0044 30000000 		.4byte	.LFE124-.LFB124
 3702 0048 00000000 		.4byte	.LFB125
 3703 004c 28000000 		.4byte	.LFE125-.LFB125
 3704 0050 00000000 		.4byte	.LFB126
 3705 0054 6C000000 		.4byte	.LFE126-.LFB126
 3706 0058 00000000 		.4byte	.LFB127
 3707 005c 94000000 		.4byte	.LFE127-.LFB127
 3708 0060 00000000 		.4byte	.LFB128
 3709 0064 0C020000 		.4byte	.LFE128-.LFB128
 3710 0068 00000000 		.4byte	.LFB129
 3711 006c A8000000 		.4byte	.LFE129-.LFB129
 3712 0070 00000000 		.4byte	0x0
 3713 0074 00000000 		.4byte	0x0
 3714              		.section	.debug_ranges,"",%progbits
 3715              	.Ldebug_ranges0:
 3716 0000 6C000000 		.4byte	.LBB11
 3717 0004 0C010000 		.4byte	.LBE11
 3718 0008 8E010000 		.4byte	.LBB25
 3719 000c 0C020000 		.4byte	.LBE25
 3720 0010 30010000 		.4byte	.LBB24
 3721 0014 8A010000 		.4byte	.LBE24
 3722 0018 20010000 		.4byte	.LBB23
 3723 001c 2C010000 		.4byte	.LBE23
 3724 0020 10010000 		.4byte	.LBB22
 3725 0024 1C010000 		.4byte	.LBE22
 3726 0028 00000000 		.4byte	0x0
 3727 002c 00000000 		.4byte	0x0
 3728 0030 44010000 		.4byte	.LBB15
 3729 0034 52010000 		.4byte	.LBE15
 3730 0038 5A010000 		.4byte	.LBB14
 3731 003c 64010000 		.4byte	.LBE14
 3732 0040 00000000 		.4byte	0x0
 3733 0044 00000000 		.4byte	0x0
ARM GAS  C:\Users\DNIEL~1\AppData\Local\Temp\ccq8ljmg.s 			page 70


 3734 0048 00000000 		.4byte	.LFB118
 3735 004c 1E000000 		.4byte	.LFE118
 3736 0050 00000000 		.4byte	.LFB119
 3737 0054 34000000 		.4byte	.LFE119
 3738 0058 00000000 		.4byte	.LFB120
 3739 005c E4000000 		.4byte	.LFE120
 3740 0060 00000000 		.4byte	.LFB121
 3741 0064 54000000 		.4byte	.LFE121
 3742 0068 00000000 		.4byte	.LFB122
 3743 006c 1C000000 		.4byte	.LFE122
 3744 0070 00000000 		.4byte	.LFB123
 3745 0074 24000000 		.4byte	.LFE123
 3746 0078 00000000 		.4byte	.LFB124
 3747 007c 30000000 		.4byte	.LFE124
 3748 0080 00000000 		.4byte	.LFB125
 3749 0084 28000000 		.4byte	.LFE125
 3750 0088 00000000 		.4byte	.LFB126
 3751 008c 6C000000 		.4byte	.LFE126
 3752 0090 00000000 		.4byte	.LFB127
 3753 0094 94000000 		.4byte	.LFE127
 3754 0098 00000000 		.4byte	.LFB128
 3755 009c 0C020000 		.4byte	.LFE128
 3756 00a0 00000000 		.4byte	.LFB129
 3757 00a4 A8000000 		.4byte	.LFE129
 3758 00a8 00000000 		.4byte	0x0
 3759 00ac 00000000 		.4byte	0x0
 3760              		.section	.debug_str,"MS",%progbits,1
 3761              	.LASF33:
 3762 0000 43434552 		.ascii	"CCER\000"
 3762      00
 3763              	.LASF72:
 3764 0005 72656172 		.ascii	"rear_pos_lamp\000"
 3764      5F706F73 
 3764      5F6C616D 
 3764      7000
 3765              	.LASF19:
 3766 0013 77726974 		.ascii	"write\000"
 3766      6500
 3767              	.LASF67:
 3768 0019 72696768 		.ascii	"right\000"
 3768      7400
 3769              	.LASF35:
 3770 001f 444D4152 		.ascii	"DMAR\000"
 3770      00
 3771              	.LASF76:
 3772 0024 6C696768 		.ascii	"lightBrakeOff\000"
 3772      74427261 
 3772      6B654F66 
 3772      6600
 3773              	.LASF45:
 3774 0032 73746174 		.ascii	"state\000"
 3774      6500
 3775              	.LASF32:
 3776 0038 43434D52 		.ascii	"CCMR2\000"
 3776      3200
 3777              	.LASF36:
 3778 003e 43434D52 		.ascii	"CCMR3\000"
ARM GAS  C:\Users\DNIEL~1\AppData\Local\Temp\ccq8ljmg.s 			page 71


 3778      3300
 3779              	.LASF88:
 3780 0044 50574D44 		.ascii	"PWMD4\000"
 3780      3400
 3781              	.LASF31:
 3782 004a 43434D52 		.ascii	"CCMR1\000"
 3782      3100
 3783              	.LASF2:
 3784 0050 73697A65 		.ascii	"size_t\000"
 3784      5F7400
 3785              	.LASF51:
 3786 0057 70776D63 		.ascii	"pwmcnt_t\000"
 3786      6E745F74 
 3786      00
 3787              	.LASF21:
 3788 0060 42617365 		.ascii	"BaseSequentialStream\000"
 3788      53657175 
 3788      656E7469 
 3788      616C5374 
 3788      7265616D 
 3789              	.LASF52:
 3790 0075 6D6F6465 		.ascii	"mode\000"
 3790      00
 3791              	.LASF96:
 3792 007a 433A5C44 		.ascii	"C:\\Dani\\MegaLux\\Repo\\Smarty\\Smarty\\smarty\\fi"
 3792      616E695C 
 3792      4D656761 
 3792      4C75785C 
 3792      5265706F 
 3793 00a6 726D7761 		.ascii	"rmware\000"
 3793      726500
 3794              	.LASF77:
 3795 00ad 6C696768 		.ascii	"lightPosLampOn\000"
 3795      74506F73 
 3795      4C616D70 
 3795      4F6E00
 3796              	.LASF64:
 3797 00bc 76615F6C 		.ascii	"va_list\000"
 3797      69737400 
 3798              	.LASF26:
 3799 00c4 77726974 		.ascii	"writet\000"
 3799      657400
 3800              	.LASF5:
 3801 00cb 73686F72 		.ascii	"short int\000"
 3801      7420696E 
 3801      7400
 3802              	.LASF46:
 3803 00d5 636F6E66 		.ascii	"config\000"
 3803      696700
 3804              	.LASF93:
 3805 00dc 6C656674 		.ascii	"left_active\000"
 3805      5F616374 
 3805      69766500 
 3806              	.LASF23:
 3807 00e8 42617365 		.ascii	"BaseChannelVMT\000"
 3807      4368616E 
 3807      6E656C56 
ARM GAS  C:\Users\DNIEL~1\AppData\Local\Temp\ccq8ljmg.s 			page 72


 3807      4D5400
 3808              	.LASF3:
 3809 00f7 75696E74 		.ascii	"uint8_t\000"
 3809      385F7400 
 3810              	.LASF58:
 3811 00ff 50574D43 		.ascii	"PWMConfig\000"
 3811      6F6E6669 
 3811      6700
 3812              	.LASF39:
 3813 0109 73746D33 		.ascii	"stm32_tim_t\000"
 3813      325F7469 
 3813      6D5F7400 
 3814              	.LASF80:
 3815 0115 61726763 		.ascii	"argc\000"
 3815      00
 3816              	.LASF74:
 3817 011a 6C696768 		.ascii	"lightCalc\000"
 3817      7443616C 
 3817      6300
 3818              	.LASF60:
 3819 0124 666C6F61 		.ascii	"float\000"
 3819      7400
 3820              	.LASF78:
 3821 012a 6C696768 		.ascii	"lightPosLampOff\000"
 3821      74506F73 
 3821      4C616D70 
 3821      4F666600 
 3822              	.LASF20:
 3823 013a 72656164 		.ascii	"read\000"
 3823      00
 3824              	.LASF12:
 3825 013f 6C6F6E67 		.ascii	"long long int\000"
 3825      206C6F6E 
 3825      6720696E 
 3825      7400
 3826              	.LASF63:
 3827 014d 5F5F7661 		.ascii	"__va_list\000"
 3827      5F6C6973 
 3827      7400
 3828              	.LASF18:
 3829 0157 63686172 		.ascii	"char\000"
 3829      00
 3830              	.LASF71:
 3831 015c 66726F6E 		.ascii	"front_pos_lamp\000"
 3831      745F706F 
 3831      735F6C61 
 3831      6D7000
 3832              	.LASF48:
 3833 016b 636C6F63 		.ascii	"clock\000"
 3833      6B00
 3834              	.LASF38:
 3835 0171 43435236 		.ascii	"CCR6\000"
 3835      00
 3836              	.LASF47:
 3837 0176 70657269 		.ascii	"period\000"
 3837      6F6400
 3838              	.LASF79:
ARM GAS  C:\Users\DNIEL~1\AppData\Local\Temp\ccq8ljmg.s 			page 73


 3839 017d 6368616E 		.ascii	"chanel\000"
 3839      656C00
 3840              	.LASF100:
 3841 0184 4552524F 		.ascii	"ERROR\000"
 3841      5200
 3842              	.LASF84:
 3843 018a 6C696768 		.ascii	"lightFlashing\000"
 3843      74466C61 
 3843      7368696E 
 3843      6700
 3844              	.LASF89:
 3845 0198 6C696768 		.ascii	"lightchanels\000"
 3845      74636861 
 3845      6E656C73 
 3845      00
 3846              	.LASF81:
 3847 01a5 61726776 		.ascii	"argv\000"
 3847      00
 3848              	.LASF61:
 3849 01aa 6C6F6E67 		.ascii	"long double\000"
 3849      20646F75 
 3849      626C6500 
 3850              	.LASF29:
 3851 01b6 534D4352 		.ascii	"SMCR\000"
 3851      00
 3852              	.LASF40:
 3853 01bb 50574D5F 		.ascii	"PWM_UNINIT\000"
 3853      554E494E 
 3853      495400
 3854              	.LASF4:
 3855 01c6 756E7369 		.ascii	"unsigned char\000"
 3855      676E6564 
 3855      20636861 
 3855      7200
 3856              	.LASF99:
 3857 01d4 6765744C 		.ascii	"getLightFlashing\000"
 3857      69676874 
 3857      466C6173 
 3857      68696E67 
 3857      00
 3858              	.LASF37:
 3859 01e5 43435235 		.ascii	"CCR5\000"
 3859      00
 3860              	.LASF69:
 3861 01ea 7761726E 		.ascii	"warning\000"
 3861      696E6700 
 3862              	.LASF1:
 3863 01f2 7369676E 		.ascii	"signed char\000"
 3863      65642063 
 3863      68617200 
 3864              	.LASF13:
 3865 01fe 6C6F6E67 		.ascii	"long long unsigned int\000"
 3865      206C6F6E 
 3865      6720756E 
 3865      7369676E 
 3865      65642069 
 3866              	.LASF10:
ARM GAS  C:\Users\DNIEL~1\AppData\Local\Temp\ccq8ljmg.s 			page 74


 3867 0215 75696E74 		.ascii	"uint32_t\000"
 3867      33325F74 
 3867      00
 3868              	.LASF0:
 3869 021e 756E7369 		.ascii	"unsigned int\000"
 3869      676E6564 
 3869      20696E74 
 3869      00
 3870              	.LASF97:
 3871 022b 5F5F6170 		.ascii	"__ap\000"
 3871      00
 3872              	.LASF6:
 3873 0230 75696E74 		.ascii	"uint16_t\000"
 3873      31365F74 
 3873      00
 3874              	.LASF91:
 3875 0239 666C6173 		.ascii	"flashing\000"
 3875      68696E67 
 3875      00
 3876              	.LASF44:
 3877 0242 50574D44 		.ascii	"PWMDriver\000"
 3877      72697665 
 3877      7200
 3878              	.LASF65:
 3879 024c 6C696768 		.ascii	"lightChanels\000"
 3879      74436861 
 3879      6E656C73 
 3879      00
 3880              	.LASF24:
 3881 0259 70757474 		.ascii	"putt\000"
 3881      00
 3882              	.LASF30:
 3883 025e 44494552 		.ascii	"DIER\000"
 3883      00
 3884              	.LASF68:
 3885 0263 6C656674 		.ascii	"left\000"
 3885      00
 3886              	.LASF7:
 3887 0268 73686F72 		.ascii	"short unsigned int\000"
 3887      7420756E 
 3887      7369676E 
 3887      65642069 
 3887      6E7400
 3888              	.LASF73:
 3889 027b 6C696768 		.ascii	"lightInit\000"
 3889      74496E69 
 3889      7400
 3890              	.LASF17:
 3891 0285 73797374 		.ascii	"systime_t\000"
 3891      696D655F 
 3891      7400
 3892              	.LASF27:
 3893 028f 72656164 		.ascii	"readt\000"
 3893      7400
 3894              	.LASF9:
 3895 0295 6C6F6E67 		.ascii	"long int\000"
 3895      20696E74 
ARM GAS  C:\Users\DNIEL~1\AppData\Local\Temp\ccq8ljmg.s 			page 75


 3895      00
 3896              	.LASF34:
 3897 029e 42445452 		.ascii	"BDTR\000"
 3897      00
 3898              	.LASF8:
 3899 02a3 696E7433 		.ascii	"int32_t\000"
 3899      325F7400 
 3900              	.LASF14:
 3901 02ab 626F6F6C 		.ascii	"bool_t\000"
 3901      5F7400
 3902              	.LASF83:
 3903 02b2 636D645F 		.ascii	"cmd_lightblink\000"
 3903      6C696768 
 3903      74626C69 
 3903      6E6B00
 3904              	.LASF25:
 3905 02c1 67657474 		.ascii	"gett\000"
 3905      00
 3906              	.LASF15:
 3907 02c6 5F426F6F 		.ascii	"_Bool\000"
 3907      6C00
 3908              	.LASF98:
 3909 02cc 63687072 		.ascii	"chprintf\000"
 3909      696E7466 
 3909      00
 3910              	.LASF90:
 3911 02d5 70776D63 		.ascii	"pwmcfg\000"
 3911      666700
 3912              	.LASF55:
 3913 02dc 66726571 		.ascii	"frequency\000"
 3913      75656E63 
 3913      7900
 3914              	.LASF95:
 3915 02e6 7372632F 		.ascii	"src/light.c\000"
 3915      6C696768 
 3915      742E6300 
 3916              	.LASF56:
 3917 02f2 6368616E 		.ascii	"channels\000"
 3917      6E656C73 
 3917      00
 3918              	.LASF11:
 3919 02fb 6C6F6E67 		.ascii	"long unsigned int\000"
 3919      20756E73 
 3919      69676E65 
 3919      6420696E 
 3919      7400
 3920              	.LASF43:
 3921 030d 70776D73 		.ascii	"pwmstate_t\000"
 3921      74617465 
 3921      5F7400
 3922              	.LASF59:
 3923 0318 646F7562 		.ascii	"double\000"
 3923      6C6500
 3924              	.LASF70:
 3925 031f 6272616B 		.ascii	"braking\000"
 3925      696E6700 
 3926              	.LASF82:
ARM GAS  C:\Users\DNIEL~1\AppData\Local\Temp\ccq8ljmg.s 			page 76


 3927 0327 636D645F 		.ascii	"cmd_lightvalues\000"
 3927      6C696768 
 3927      7476616C 
 3927      75657300 
 3928              	.LASF86:
 3929 0337 636D645F 		.ascii	"cmd_getLight\000"
 3929      6765744C 
 3929      69676874 
 3929      00
 3930              	.LASF94:
 3931 0344 474E5520 		.ascii	"GNU C 4.5.2\000"
 3931      4320342E 
 3931      352E3200 
 3932              	.LASF75:
 3933 0350 6C696768 		.ascii	"lightBrakeOn\000"
 3933      74427261 
 3933      6B654F6E 
 3933      00
 3934              	.LASF42:
 3935 035d 50574D5F 		.ascii	"PWM_READY\000"
 3935      52454144 
 3935      5900
 3936              	.LASF85:
 3937 0367 73747263 		.ascii	"strcmp\000"
 3937      6D7000
 3938              	.LASF41:
 3939 036e 50574D5F 		.ascii	"PWM_STOP\000"
 3939      53544F50 
 3939      00
 3940              	.LASF57:
 3941 0377 64696572 		.ascii	"dier\000"
 3941      00
 3942              	.LASF66:
 3943 037c 6C696768 		.ascii	"lights_disabled\000"
 3943      74735F64 
 3943      69736162 
 3943      6C656400 
 3944              	.LASF62:
 3945 038c 5F5F676E 		.ascii	"__gnuc_va_list\000"
 3945      75635F76 
 3945      615F6C69 
 3945      737400
 3946              	.LASF54:
 3947 039b 50574D43 		.ascii	"PWMChannelConfig\000"
 3947      68616E6E 
 3947      656C436F 
 3947      6E666967 
 3947      00
 3948              	.LASF28:
 3949 03ac 42617365 		.ascii	"BaseChannel\000"
 3949      4368616E 
 3949      6E656C00 
 3950              	.LASF50:
 3951 03b8 70776D6D 		.ascii	"pwmmode_t\000"
 3951      6F64655F 
 3951      7400
 3952              	.LASF92:
ARM GAS  C:\Users\DNIEL~1\AppData\Local\Temp\ccq8ljmg.s 			page 77


 3953 03c2 72696768 		.ascii	"right_active\000"
 3953      745F6163 
 3953      74697665 
 3953      00
 3954              	.LASF87:
 3955 03cf 49544D5F 		.ascii	"ITM_RxBuffer\000"
 3955      52784275 
 3955      66666572 
 3955      00
 3956              	.LASF49:
 3957 03dc 70776D63 		.ascii	"pwmcallback_t\000"
 3957      616C6C62 
 3957      61636B5F 
 3957      7400
 3958              	.LASF16:
 3959 03ea 6D73675F 		.ascii	"msg_t\000"
 3959      7400
 3960              	.LASF53:
 3961 03f0 63616C6C 		.ascii	"callback\000"
 3961      6261636B 
 3961      00
 3962              	.LASF22:
 3963 03f9 42617365 		.ascii	"BaseSequentialStreamVMT\000"
 3963      53657175 
 3963      656E7469 
 3963      616C5374 
 3963      7265616D 
 3964              		.ident	"GCC: (Sourcery G++ Lite 2011.03-42) 4.5.2"
ARM GAS  C:\Users\DNIEL~1\AppData\Local\Temp\ccq8ljmg.s 			page 78


DEFINED SYMBOLS
                            *ABS*:00000000 light.c
C:\Users\DNIEL~1\AppData\Local\Temp\ccq8ljmg.s:24     .text.chprintf:00000000 $t
C:\Users\DNIEL~1\AppData\Local\Temp\ccq8ljmg.s:29     .text.chprintf:00000000 chprintf
C:\Users\DNIEL~1\AppData\Local\Temp\ccq8ljmg.s:69     .text.lightInit:00000000 $t
C:\Users\DNIEL~1\AppData\Local\Temp\ccq8ljmg.s:75     .text.lightInit:00000000 lightInit
C:\Users\DNIEL~1\AppData\Local\Temp\ccq8ljmg.s:106    .text.lightInit:0000001c $d
C:\Users\DNIEL~1\AppData\Local\Temp\ccq8ljmg.s:116    .text.lightCalc:00000000 $t
C:\Users\DNIEL~1\AppData\Local\Temp\ccq8ljmg.s:122    .text.lightCalc:00000000 lightCalc
C:\Users\DNIEL~1\AppData\Local\Temp\ccq8ljmg.s:282    .text.lightCalc:000000cc $d
C:\Users\DNIEL~1\AppData\Local\Temp\ccq8ljmg.s:292    .text.lightFlashing:00000000 $t
C:\Users\DNIEL~1\AppData\Local\Temp\ccq8ljmg.s:298    .text.lightFlashing:00000000 lightFlashing
C:\Users\DNIEL~1\AppData\Local\Temp\ccq8ljmg.s:360    .text.lightFlashing:00000048 $d
C:\Users\DNIEL~1\AppData\Local\Temp\ccq8ljmg.s:367    .text.lightBrakeOn:00000000 $t
C:\Users\DNIEL~1\AppData\Local\Temp\ccq8ljmg.s:373    .text.lightBrakeOn:00000000 lightBrakeOn
C:\Users\DNIEL~1\AppData\Local\Temp\ccq8ljmg.s:403    .text.lightBrakeOn:00000014 $d
C:\Users\DNIEL~1\AppData\Local\Temp\ccq8ljmg.s:409    .text.lightBrakeOff:00000000 $t
C:\Users\DNIEL~1\AppData\Local\Temp\ccq8ljmg.s:415    .text.lightBrakeOff:00000000 lightBrakeOff
C:\Users\DNIEL~1\AppData\Local\Temp\ccq8ljmg.s:448    .text.lightBrakeOff:0000001c $d
C:\Users\DNIEL~1\AppData\Local\Temp\ccq8ljmg.s:454    .text.lightPosLampOn:00000000 $t
C:\Users\DNIEL~1\AppData\Local\Temp\ccq8ljmg.s:460    .text.lightPosLampOn:00000000 lightPosLampOn
C:\Users\DNIEL~1\AppData\Local\Temp\ccq8ljmg.s:502    .text.lightPosLampOn:00000028 $d
C:\Users\DNIEL~1\AppData\Local\Temp\ccq8ljmg.s:508    .text.lightPosLampOff:00000000 $t
C:\Users\DNIEL~1\AppData\Local\Temp\ccq8ljmg.s:514    .text.lightPosLampOff:00000000 lightPosLampOff
C:\Users\DNIEL~1\AppData\Local\Temp\ccq8ljmg.s:552    .text.lightPosLampOff:00000020 $d
C:\Users\DNIEL~1\AppData\Local\Temp\ccq8ljmg.s:558    .text.getLightFlashing:00000000 $t
C:\Users\DNIEL~1\AppData\Local\Temp\ccq8ljmg.s:564    .text.getLightFlashing:00000000 getLightFlashing
C:\Users\DNIEL~1\AppData\Local\Temp\ccq8ljmg.s:659    .text.getLightFlashing:00000060 $d
C:\Users\DNIEL~1\AppData\Local\Temp\ccq8ljmg.s:666    .text.cmd_lightvalues:00000000 $t
C:\Users\DNIEL~1\AppData\Local\Temp\ccq8ljmg.s:672    .text.cmd_lightvalues:00000000 cmd_lightvalues
C:\Users\DNIEL~1\AppData\Local\Temp\ccq8ljmg.s:751    .text.cmd_lightvalues:00000070 $d
C:\Users\DNIEL~1\AppData\Local\Temp\ccq8ljmg.s:764    .text.cmd_lightblink:00000000 $t
C:\Users\DNIEL~1\AppData\Local\Temp\ccq8ljmg.s:770    .text.cmd_lightblink:00000000 cmd_lightblink
C:\Users\DNIEL~1\AppData\Local\Temp\ccq8ljmg.s:1072   .text.cmd_lightblink:00000194 $d
C:\Users\DNIEL~1\AppData\Local\Temp\ccq8ljmg.s:1107   .text.cmd_getLight:00000000 $t
C:\Users\DNIEL~1\AppData\Local\Temp\ccq8ljmg.s:1113   .text.cmd_getLight:00000000 cmd_getLight
C:\Users\DNIEL~1\AppData\Local\Temp\ccq8ljmg.s:1198   .text.cmd_getLight:00000088 $d
C:\Users\DNIEL~1\AppData\Local\Temp\ccq8ljmg.s:1210   .data.pwmcfg:00000000 $d
C:\Users\DNIEL~1\AppData\Local\Temp\ccq8ljmg.s:1214   .data.pwmcfg:00000000 pwmcfg
C:\Users\DNIEL~1\AppData\Local\Temp\ccq8ljmg.s:1230   .bss.period:00000000 $d
C:\Users\DNIEL~1\AppData\Local\Temp\ccq8ljmg.s:1234   .bss.period:00000000 period
C:\Users\DNIEL~1\AppData\Local\Temp\ccq8ljmg.s:1240   .bss.flashing:00000000 flashing
C:\Users\DNIEL~1\AppData\Local\Temp\ccq8ljmg.s:1241   .bss.flashing:00000000 $d
C:\Users\DNIEL~1\AppData\Local\Temp\ccq8ljmg.s:1243   .rodata.str1.4:00000000 $d
C:\Users\DNIEL~1\AppData\Local\Temp\ccq8ljmg.s:1343   .bss.left_active:00000000 left_active
C:\Users\DNIEL~1\AppData\Local\Temp\ccq8ljmg.s:1344   .bss.left_active:00000000 $d
C:\Users\DNIEL~1\AppData\Local\Temp\ccq8ljmg.s:1346   .bss.lightchanels:00000000 $d
C:\Users\DNIEL~1\AppData\Local\Temp\ccq8ljmg.s:1350   .bss.lightchanels:00000000 lightchanels
C:\Users\DNIEL~1\AppData\Local\Temp\ccq8ljmg.s:1356   .bss.right_active:00000000 right_active
C:\Users\DNIEL~1\AppData\Local\Temp\ccq8ljmg.s:1357   .bss.right_active:00000000 $d
                     .debug_frame:00000010 $d
C:\Users\DNIEL~1\AppData\Local\Temp\ccq8ljmg.s:115    .text.lightInit:00000034 $t
C:\Users\DNIEL~1\AppData\Local\Temp\ccq8ljmg.s:291    .text.lightCalc:000000e4 $t
C:\Users\DNIEL~1\AppData\Local\Temp\ccq8ljmg.s:366    .text.lightFlashing:00000054 $t
C:\Users\DNIEL~1\AppData\Local\Temp\ccq8ljmg.s:408    .text.lightBrakeOn:0000001c $t
C:\Users\DNIEL~1\AppData\Local\Temp\ccq8ljmg.s:453    .text.lightBrakeOff:00000024 $t
C:\Users\DNIEL~1\AppData\Local\Temp\ccq8ljmg.s:557    .text.lightPosLampOff:00000028 $t
ARM GAS  C:\Users\DNIEL~1\AppData\Local\Temp\ccq8ljmg.s 			page 79


C:\Users\DNIEL~1\AppData\Local\Temp\ccq8ljmg.s:3964   .text.getLightFlashing:0000006c $t
C:\Users\DNIEL~1\AppData\Local\Temp\ccq8ljmg.s:763    .text.cmd_lightvalues:00000094 $t
C:\Users\DNIEL~1\AppData\Local\Temp\ccq8ljmg.s:1106   .text.cmd_lightblink:0000020c $t
C:\Users\DNIEL~1\AppData\Local\Temp\ccq8ljmg.s:1209   .text.cmd_getLight:000000a8 $t

UNDEFINED SYMBOLS
chvprintf
pwmStart
PWMD4
pwmEnableChannel
pwmDisableChannel
chThdSleep
strcmp
