ARM GAS  C:\Users\DNIEL~1\AppData\Local\Temp\ccyAEJOe.s 			page 1


   1              		.syntax unified
   2              		.cpu cortex-m4
   3              		.fpu softvfp
   4              		.eabi_attribute 20, 1
   5              		.eabi_attribute 21, 1
   6              		.eabi_attribute 23, 3
   7              		.eabi_attribute 24, 1
   8              		.eabi_attribute 25, 1
   9              		.eabi_attribute 26, 1
  10              		.eabi_attribute 30, 2
  11              		.eabi_attribute 18, 4
  12              		.thumb
  13              		.file	"light.c"
  14              		.section	.debug_abbrev,"",%progbits
  15              	.Ldebug_abbrev0:
  16              		.section	.debug_info,"",%progbits
  17              	.Ldebug_info0:
  18              		.section	.debug_line,"",%progbits
  19              	.Ldebug_line0:
  20 0000 5C040000 		.text
  20      02008502 
  20      00000201 
  20      FB0E0D00 
  20      01010101 
  21              	.Ltext0:
  22              		.cfi_sections	.debug_frame
  23              		.section	.text.chprintf,"ax",%progbits
  24              		.align	2
  25              		.p2align 4,,15
  26              		.thumb
  27              		.thumb_func
  28              		.type	chprintf, %function
  29              	chprintf:
  30              	.LFB118:
  31              		.file 1 "../../../ChibiOS/os/various/chprintf.h"
  32              		.loc 1 69 0
  33              		.cfi_startproc
  34              		@ args = 4, pretend = 12, frame = 8
  35              		@ frame_needed = 0, uses_anonymous_args = 1
  36              	.LVL0:
  37 0000 0EB4     		push	{r1, r2, r3}
  38              	.LCFI0:
  39              		.cfi_def_cfa_offset 12
  40 0002 00B5     		push	{lr}
  41              	.LCFI1:
  42              		.cfi_def_cfa_offset 16
  43 0004 82B0     		sub	sp, sp, #8
  44              	.LCFI2:
  45              		.cfi_def_cfa_offset 24
  46              		.loc 1 69 0
  47 0006 03AB     		add	r3, sp, #12
  48              		.cfi_offset 14, -16
  49              		.cfi_offset 3, -4
  50              		.cfi_offset 2, -8
  51              		.cfi_offset 1, -12
  52 0008 53F8041B 		ldr	r1, [r3], #4
  53              		.loc 1 73 0
ARM GAS  C:\Users\DNIEL~1\AppData\Local\Temp\ccyAEJOe.s 			page 2


  54 000c 1A46     		mov	r2, r3
  55              		.loc 1 72 0
  56 000e 0193     		str	r3, [sp, #4]
  57              		.loc 1 73 0
  58 0010 FFF7FEFF 		bl	chvprintf
  59              	.LVL1:
  60              		.loc 1 75 0
  61 0014 02B0     		add	sp, sp, #8
  62 0016 5DF804EB 		pop	{lr}
  63 001a 03B0     		add	sp, sp, #12
  64 001c 7047     		bx	lr
  65              		.cfi_endproc
  66              	.LFE118:
  67              		.size	chprintf, .-chprintf
  68 001e 00BF     		.section	.text.lightInit,"ax",%progbits
  69              		.align	2
  70              		.p2align 4,,15
  71              		.global	lightInit
  72              		.thumb
  73              		.thumb_func
  74              		.type	lightInit, %function
  75              	lightInit:
  76              	.LFB119:
  77              		.file 2 "src/light.c"
  78              		.loc 2 42 0
  79              		.cfi_startproc
  80              		@ args = 0, pretend = 0, frame = 0
  81              		@ frame_needed = 0, uses_anonymous_args = 0
  82              		@ link register save eliminated.
  83              		.loc 2 43 0
  84 0000 044A     		ldr	r2, .L3
  85              		.loc 2 45 0
  86 0002 0548     		ldr	r0, .L3+4
  87 0004 0549     		ldr	r1, .L3+8
  88              		.loc 2 43 0
  89 0006 0023     		movs	r3, #0
  90 0008 1360     		str	r3, [r2, #0]
  91              		.loc 2 44 0
  92 000a 054A     		ldr	r2, .L3+12
  93 000c 1370     		strb	r3, [r2, #0]
  94              		.loc 2 46 0
  95              		.loc 2 45 0
  96 000e FFF7FEBF 		b	pwmStart
  97              	.L4:
  98 0012 00BF     		.align	2
  99              	.L3:
 100 0014 00000000 		.word	.LANCHOR0
 101 0018 00000000 		.word	PWMD4
 102 001c 00000000 		.word	.LANCHOR2
 103 0020 00000000 		.word	.LANCHOR1
 104              		.cfi_endproc
 105              	.LFE119:
 106              		.size	lightInit, .-lightInit
 107 0024 AFF30080 		.section	.text.lightCalc,"ax",%progbits
 107      AFF30080 
 107      AFF30080 
 108              		.align	2
ARM GAS  C:\Users\DNIEL~1\AppData\Local\Temp\ccyAEJOe.s 			page 3


 109              		.p2align 4,,15
 110              		.global	lightCalc
 111              		.thumb
 112              		.thumb_func
 113              		.type	lightCalc, %function
 114              	lightCalc:
 115              	.LFB120:
 116              		.loc 2 48 0
 117              		.cfi_startproc
 118              		@ args = 0, pretend = 0, frame = 0
 119              		@ frame_needed = 0, uses_anonymous_args = 0
 120              		.loc 2 50 0
 121 0000 274A     		ldr	r2, .L17
 122 0002 1368     		ldr	r3, [r2, #0]
 123 0004 0133     		adds	r3, r3, #1
 124              		.loc 2 52 0
 125 0006 3C2B     		cmp	r3, #60
 126              		.loc 2 48 0
 127 0008 70B5     		push	{r4, r5, r6, lr}
 128              	.LCFI3:
 129              		.cfi_def_cfa_offset 16
 130              		.loc 2 50 0
 131 000a 1360     		str	r3, [r2, #0]
 132              		.loc 2 52 0
 133 000c 14DC     		bgt	.L12
 134              		.cfi_offset 14, -4
 135              		.cfi_offset 6, -8
 136              		.cfi_offset 5, -12
 137              		.cfi_offset 4, -16
 138              		.loc 2 57 0
 139 000e 1E2B     		cmp	r3, #30
 140 0010 18DC     		bgt	.L13
 141              		.loc 2 64 0
 142 0012 244C     		ldr	r4, .L17+4
 143 0014 6378     		ldrb	r3, [r4, #1]	@ zero_extendqisi2
 144 0016 1BB1     		cbz	r3, .L9
 145              		.loc 2 64 0 is_stmt 0 discriminator 1
 146 0018 234D     		ldr	r5, .L17+8
 147 001a 2A78     		ldrb	r2, [r5, #0]	@ zero_extendqisi2
 148 001c 002A     		cmp	r2, #0
 149 001e 35D1     		bne	.L14
 150              	.L9:
 151              		.loc 2 71 0 is_stmt 1
 152 0020 A178     		ldrb	r1, [r4, #2]	@ zero_extendqisi2
 153 0022 19B1     		cbz	r1, .L10
 154              		.loc 2 71 0 is_stmt 0 discriminator 1
 155 0024 204D     		ldr	r5, .L17+8
 156 0026 2B78     		ldrb	r3, [r5, #0]	@ zero_extendqisi2
 157 0028 002B     		cmp	r3, #0
 158 002a 25D1     		bne	.L15
 159              	.L10:
 160              		.loc 2 78 0 is_stmt 1
 161 002c E078     		ldrb	r0, [r4, #3]	@ zero_extendqisi2
 162 002e 10B1     		cbz	r0, .L5
 163              		.loc 2 78 0 is_stmt 0 discriminator 1
 164 0030 1D4C     		ldr	r4, .L17+8
 165 0032 2178     		ldrb	r1, [r4, #0]	@ zero_extendqisi2
ARM GAS  C:\Users\DNIEL~1\AppData\Local\Temp\ccyAEJOe.s 			page 4


 166 0034 81B9     		cbnz	r1, .L16
 167              	.L5:
 168 0036 70BD     		pop	{r4, r5, r6, pc}
 169              	.L12:
 170              		.loc 2 53 0 is_stmt 1
 171 0038 0021     		movs	r1, #0
 172              		.loc 2 54 0
 173 003a 1B48     		ldr	r0, .L17+8
 174              		.loc 2 53 0
 175 003c 1160     		str	r1, [r2, #0]
 176              		.loc 2 54 0
 177 003e 0122     		movs	r2, #1
 178 0040 0270     		strb	r2, [r0, #0]
 179 0042 70BD     		pop	{r4, r5, r6, pc}
 180              	.L13:
 181              		.loc 2 59 0
 182 0044 0121     		movs	r1, #1
 183 0046 1948     		ldr	r0, .L17+12
 184 0048 FFF7FEFF 		bl	pwmDisableChannel
 185              		.loc 2 60 0
 186 004c 1748     		ldr	r0, .L17+12
 187 004e 0221     		movs	r1, #2
 188              		.loc 2 86 0
 189 0050 BDE87040 		pop	{r4, r5, r6, lr}
 190              		.loc 2 60 0
 191 0054 FFF7FEBF 		b	pwmDisableChannel
 192              	.L16:
 193              		.loc 2 81 0
 194 0058 144D     		ldr	r5, .L17+12
 195              		.loc 2 80 0
 196 005a FFF7FEFF 		bl	can_lightWarning
 197              		.loc 2 81 0
 198 005e 0121     		movs	r1, #1
 199 0060 2A89     		ldrh	r2, [r5, #8]
 200 0062 2846     		mov	r0, r5
 201 0064 FFF7FEFF 		bl	pwmEnableChannel
 202              		.loc 2 82 0
 203 0068 2846     		mov	r0, r5
 204 006a 0221     		movs	r1, #2
 205 006c 2A89     		ldrh	r2, [r5, #8]
 206 006e FFF7FEFF 		bl	pwmEnableChannel
 207              		.loc 2 83 0
 208 0072 0023     		movs	r3, #0
 209 0074 2370     		strb	r3, [r4, #0]
 210 0076 70BD     		pop	{r4, r5, r6, pc}
 211              	.L15:
 212              		.loc 2 73 0
 213 0078 FFF7FEFF 		bl	can_lightLeft
 214              		.loc 2 74 0
 215 007c 0B48     		ldr	r0, .L17+12
 216 007e 0221     		movs	r1, #2
 217 0080 0289     		ldrh	r2, [r0, #8]
 218 0082 FFF7FEFF 		bl	pwmEnableChannel
 219              		.loc 2 75 0
 220 0086 0022     		movs	r2, #0
 221 0088 2A70     		strb	r2, [r5, #0]
 222 008a CFE7     		b	.L10
ARM GAS  C:\Users\DNIEL~1\AppData\Local\Temp\ccyAEJOe.s 			page 5


 223              	.L14:
 224              		.loc 2 66 0
 225 008c FFF7FEFF 		bl	can_lightRight
 226              		.loc 2 67 0
 227 0090 0648     		ldr	r0, .L17+12
 228 0092 0121     		movs	r1, #1
 229 0094 0289     		ldrh	r2, [r0, #8]
 230 0096 FFF7FEFF 		bl	pwmEnableChannel
 231              		.loc 2 68 0
 232 009a 0020     		movs	r0, #0
 233 009c 2870     		strb	r0, [r5, #0]
 234 009e BFE7     		b	.L9
 235              	.L18:
 236              		.align	2
 237              	.L17:
 238 00a0 00000000 		.word	.LANCHOR0
 239 00a4 00000000 		.word	.LANCHOR3
 240 00a8 00000000 		.word	.LANCHOR1
 241 00ac 00000000 		.word	PWMD4
 242              		.cfi_endproc
 243              	.LFE120:
 244              		.size	lightCalc, .-lightCalc
 245              		.section	.text.lightFlashing,"ax",%progbits
 246              		.align	2
 247              		.p2align 4,,15
 248              		.global	lightFlashing
 249              		.thumb
 250              		.thumb_func
 251              		.type	lightFlashing, %function
 252              	lightFlashing:
 253              	.LFB121:
 254              		.loc 2 88 0
 255              		.cfi_startproc
 256              		@ args = 0, pretend = 0, frame = 0
 257              		@ frame_needed = 0, uses_anonymous_args = 0
 258              		@ link register save eliminated.
 259              	.LVL2:
 260 0000 10B4     		push	{r4}
 261              	.LCFI4:
 262              		.cfi_def_cfa_offset 4
 263              		.loc 2 90 0
 264 0002 A0F10102 		sub	r2, r0, #1
 265              		.loc 2 89 0
 266 0006 D0F10104 		rsbs	r4, r0, #1
 267              		.cfi_offset 4, -4
 268              		.loc 2 91 0
 269 000a A0F1020C 		sub	ip, r0, #2
 270              		.loc 2 89 0
 271 000e 38BF     		it	cc
 272 0010 0024     		movcc	r4, #0
 273              		.loc 2 90 0
 274 0012 5142     		rsbs	r1, r2, #0
 275 0014 41EB0201 		adc	r1, r1, r2
 276              		.loc 2 91 0
 277 0018 DCF10002 		rsbs	r2, ip, #0
 278 001c 42EB0C02 		adc	r2, r2, ip
 279              		.loc 2 92 0
ARM GAS  C:\Users\DNIEL~1\AppData\Local\Temp\ccyAEJOe.s 			page 6


 280 0020 A0F1030C 		sub	ip, r0, #3
 281              		.loc 2 89 0
 282 0024 084B     		ldr	r3, .L20
 283              		.loc 2 92 0
 284 0026 DCF10000 		rsbs	r0, ip, #0
 285              	.LVL3:
 286 002a 40EB0C0C 		adc	ip, r0, ip
 287              	.LVL4:
 288              		.loc 2 89 0
 289 002e 1C70     		strb	r4, [r3, #0]
 290              		.loc 2 90 0
 291 0030 5970     		strb	r1, [r3, #1]
 292              		.loc 2 91 0
 293 0032 9A70     		strb	r2, [r3, #2]
 294              		.loc 2 92 0
 295 0034 83F803C0 		strb	ip, [r3, #3]
 296              		.loc 2 94 0
 297 0038 0449     		ldr	r1, .L20+4
 298              		.loc 2 95 0
 299 003a 054B     		ldr	r3, .L20+8
 300              		.loc 2 94 0
 301 003c 0020     		movs	r0, #0
 302              		.loc 2 95 0
 303 003e 0122     		movs	r2, #1
 304              		.loc 2 94 0
 305 0040 0860     		str	r0, [r1, #0]
 306              		.loc 2 95 0
 307 0042 1A70     		strb	r2, [r3, #0]
 308              		.loc 2 96 0
 309 0044 10BC     		pop	{r4}
 310 0046 7047     		bx	lr
 311              	.L21:
 312              		.align	2
 313              	.L20:
 314 0048 00000000 		.word	.LANCHOR3
 315 004c 00000000 		.word	.LANCHOR0
 316 0050 00000000 		.word	.LANCHOR1
 317              		.cfi_endproc
 318              	.LFE121:
 319              		.size	lightFlashing, .-lightFlashing
 320 0054 AFF30080 		.section	.text.lightBrakeOn,"ax",%progbits
 320      AFF30080 
 320      AFF30080 
 321              		.align	2
 322              		.p2align 4,,15
 323              		.global	lightBrakeOn
 324              		.thumb
 325              		.thumb_func
 326              		.type	lightBrakeOn, %function
 327              	lightBrakeOn:
 328              	.LFB122:
 329              		.loc 2 98 0
 330              		.cfi_startproc
 331              		@ args = 0, pretend = 0, frame = 0
 332              		@ frame_needed = 0, uses_anonymous_args = 0
 333              		@ link register save eliminated.
 334              		.loc 2 99 0
ARM GAS  C:\Users\DNIEL~1\AppData\Local\Temp\ccyAEJOe.s 			page 7


 335 0000 024B     		ldr	r3, .L23
 336 0002 0122     		movs	r2, #1
 337 0004 1A71     		strb	r2, [r3, #4]
 338              		.loc 2 101 0
 339              		.loc 2 100 0
 340 0006 FFF7FEBF 		b	can_lightBreakOn
 341              	.L24:
 342 000a 00BF     		.align	2
 343              	.L23:
 344 000c 00000000 		.word	.LANCHOR3
 345              		.cfi_endproc
 346              	.LFE122:
 347              		.size	lightBrakeOn, .-lightBrakeOn
 348              		.section	.text.lightBrakeOff,"ax",%progbits
 349              		.align	2
 350              		.p2align 4,,15
 351              		.global	lightBrakeOff
 352              		.thumb
 353              		.thumb_func
 354              		.type	lightBrakeOff, %function
 355              	lightBrakeOff:
 356              	.LFB123:
 357              		.loc 2 102 0
 358              		.cfi_startproc
 359              		@ args = 0, pretend = 0, frame = 0
 360              		@ frame_needed = 0, uses_anonymous_args = 0
 361              		@ link register save eliminated.
 362              		.loc 2 103 0
 363 0000 024B     		ldr	r3, .L26
 364 0002 0022     		movs	r2, #0
 365 0004 1A71     		strb	r2, [r3, #4]
 366              		.loc 2 105 0
 367              		.loc 2 104 0
 368 0006 FFF7FEBF 		b	can_lightBreakOff
 369              	.L27:
 370 000a 00BF     		.align	2
 371              	.L26:
 372 000c 00000000 		.word	.LANCHOR3
 373              		.cfi_endproc
 374              	.LFE123:
 375              		.size	lightBrakeOff, .-lightBrakeOff
 376              		.section	.text.lightPosLampOn,"ax",%progbits
 377              		.align	2
 378              		.p2align 4,,15
 379              		.global	lightPosLampOn
 380              		.thumb
 381              		.thumb_func
 382              		.type	lightPosLampOn, %function
 383              	lightPosLampOn:
 384              	.LFB124:
 385              		.loc 2 107 0
 386              		.cfi_startproc
 387              		@ args = 0, pretend = 0, frame = 0
 388              		@ frame_needed = 0, uses_anonymous_args = 0
 389              		.loc 2 108 0
 390 0000 064B     		ldr	r3, .L29
 391 0002 0122     		movs	r2, #1
ARM GAS  C:\Users\DNIEL~1\AppData\Local\Temp\ccyAEJOe.s 			page 8


 392              		.loc 2 107 0
 393 0004 10B5     		push	{r4, lr}
 394              	.LCFI5:
 395              		.cfi_def_cfa_offset 8
 396              		.loc 2 108 0
 397 0006 5A71     		strb	r2, [r3, #5]
 398              		.loc 2 109 0
 399              		.cfi_offset 14, -4
 400              		.cfi_offset 4, -8
 401 0008 FFF7FEFF 		bl	can_lightPosLampOn
 402              		.loc 2 110 0
 403 000c 0448     		ldr	r0, .L29+4
 404 000e 0289     		ldrh	r2, [r0, #8]
 405 0010 0321     		movs	r1, #3
 406              		.loc 2 111 0
 407 0012 BDE81040 		pop	{r4, lr}
 408              		.loc 2 110 0
 409 0016 FFF7FEBF 		b	pwmEnableChannel
 410              	.L30:
 411 001a 00BF     		.align	2
 412              	.L29:
 413 001c 00000000 		.word	.LANCHOR3
 414 0020 00000000 		.word	PWMD4
 415              		.cfi_endproc
 416              	.LFE124:
 417              		.size	lightPosLampOn, .-lightPosLampOn
 418 0024 AFF30080 		.section	.text.lightPosLampOff,"ax",%progbits
 418      AFF30080 
 418      AFF30080 
 419              		.align	2
 420              		.p2align 4,,15
 421              		.global	lightPosLampOff
 422              		.thumb
 423              		.thumb_func
 424              		.type	lightPosLampOff, %function
 425              	lightPosLampOff:
 426              	.LFB125:
 427              		.loc 2 112 0
 428              		.cfi_startproc
 429              		@ args = 0, pretend = 0, frame = 0
 430              		@ frame_needed = 0, uses_anonymous_args = 0
 431              		.loc 2 113 0
 432 0000 054B     		ldr	r3, .L32
 433              		.loc 2 112 0
 434 0002 10B5     		push	{r4, lr}
 435              	.LCFI6:
 436              		.cfi_def_cfa_offset 8
 437              		.loc 2 113 0
 438 0004 0022     		movs	r2, #0
 439 0006 5A71     		strb	r2, [r3, #5]
 440              		.loc 2 114 0
 441              		.cfi_offset 14, -4
 442              		.cfi_offset 4, -8
 443 0008 FFF7FEFF 		bl	can_lightPosLampOff
 444              		.loc 2 115 0
 445 000c 0348     		ldr	r0, .L32+4
 446 000e 0321     		movs	r1, #3
ARM GAS  C:\Users\DNIEL~1\AppData\Local\Temp\ccyAEJOe.s 			page 9


 447              		.loc 2 116 0
 448 0010 BDE81040 		pop	{r4, lr}
 449              		.loc 2 115 0
 450 0014 FFF7FEBF 		b	pwmDisableChannel
 451              	.L33:
 452              		.align	2
 453              	.L32:
 454 0018 00000000 		.word	.LANCHOR3
 455 001c 00000000 		.word	PWMD4
 456              		.cfi_endproc
 457              	.LFE125:
 458              		.size	lightPosLampOff, .-lightPosLampOff
 459              		.section	.text.cmd_lightvalues,"ax",%progbits
 460              		.align	2
 461              		.p2align 4,,15
 462              		.global	cmd_lightvalues
 463              		.thumb
 464              		.thumb_func
 465              		.type	cmd_lightvalues, %function
 466              	cmd_lightvalues:
 467              	.LFB126:
 468              		.loc 2 118 0
 469              		.cfi_startproc
 470              		@ args = 0, pretend = 0, frame = 0
 471              		@ frame_needed = 0, uses_anonymous_args = 0
 472              	.LVL5:
 473 0000 38B5     		push	{r3, r4, r5, lr}
 474              	.LCFI7:
 475              		.cfi_def_cfa_offset 16
 476              		.loc 2 122 0
 477 0002 1B49     		ldr	r1, .L37
 478              	.LVL6:
 479              		.loc 2 127 0
 480 0004 1B4D     		ldr	r5, .L37+4
 481              		.cfi_offset 14, -4
 482              		.cfi_offset 5, -8
 483              		.cfi_offset 4, -12
 484              		.cfi_offset 3, -16
 485              		.loc 2 118 0
 486 0006 0446     		mov	r4, r0
 487              		.loc 2 122 0
 488 0008 FFF7FEFF 		bl	chprintf
 489              	.LVL7:
 490              		.loc 2 123 0
 491 000c 2046     		mov	r0, r4
 492 000e 1A49     		ldr	r1, .L37+8
 493 0010 FFF7FEFF 		bl	chprintf
 494              		.loc 2 124 0
 495 0014 22E0     		b	.L35
 496              	.L36:
 497              		.loc 2 125 0
 498 0016 0022     		movs	r2, #0
 499 0018 1346     		mov	r3, r2
 500 001a 1849     		ldr	r1, .L37+12
 501 001c 2046     		mov	r0, r4
 502 001e FFF7FEFF 		bl	chprintf
 503              		.loc 2 127 0
ARM GAS  C:\Users\DNIEL~1\AppData\Local\Temp\ccyAEJOe.s 			page 10


 504 0022 2046     		mov	r0, r4
 505 0024 1649     		ldr	r1, .L37+16
 506 0026 6A78     		ldrb	r2, [r5, #1]	@ zero_extendqisi2
 507 0028 FFF7FEFF 		bl	chprintf
 508              		.loc 2 128 0
 509 002c 2046     		mov	r0, r4
 510 002e 1549     		ldr	r1, .L37+20
 511 0030 AA78     		ldrb	r2, [r5, #2]	@ zero_extendqisi2
 512 0032 FFF7FEFF 		bl	chprintf
 513              		.loc 2 129 0
 514 0036 2046     		mov	r0, r4
 515 0038 1349     		ldr	r1, .L37+24
 516 003a EA78     		ldrb	r2, [r5, #3]	@ zero_extendqisi2
 517 003c FFF7FEFF 		bl	chprintf
 518              		.loc 2 130 0
 519 0040 2046     		mov	r0, r4
 520 0042 1249     		ldr	r1, .L37+28
 521 0044 2A79     		ldrb	r2, [r5, #4]	@ zero_extendqisi2
 522 0046 FFF7FEFF 		bl	chprintf
 523              		.loc 2 131 0
 524 004a 2046     		mov	r0, r4
 525 004c 1049     		ldr	r1, .L37+32
 526 004e 6A79     		ldrb	r2, [r5, #5]	@ zero_extendqisi2
 527 0050 FFF7FEFF 		bl	chprintf
 528              		.loc 2 132 0
 529 0054 4FF47A70 		mov	r0, #1000
 530 0058 FFF7FEFF 		bl	chThdSleep
 531              	.L35:
 532              		.loc 2 124 0 discriminator 1
 533 005c 2168     		ldr	r1, [r4, #0]
 534 005e 2046     		mov	r0, r4
 535 0060 4B69     		ldr	r3, [r1, #20]
 536 0062 0021     		movs	r1, #0
 537 0064 9847     		blx	r3
 538 0066 B0F1FF3F 		cmp	r0, #-1
 539 006a D4D0     		beq	.L36
 540              		.loc 2 134 0
 541 006c 38BD     		pop	{r3, r4, r5, pc}
 542              	.L38:
 543 006e 00BF     		.align	2
 544              	.L37:
 545 0070 00000000 		.word	.LC0
 546 0074 00000000 		.word	.LANCHOR3
 547 0078 04000000 		.word	.LC1
 548 007c 0C000000 		.word	.LC2
 549 0080 18000000 		.word	.LC3
 550 0084 2C000000 		.word	.LC4
 551 0088 40000000 		.word	.LC5
 552 008c 58000000 		.word	.LC6
 553 0090 6C000000 		.word	.LC7
 554              		.cfi_endproc
 555              	.LFE126:
 556              		.size	cmd_lightvalues, .-cmd_lightvalues
 557 0094 AFF30080 		.section	.text.cmd_lightblink,"ax",%progbits
 557      AFF30080 
 557      AFF30080 
 558              		.align	2
ARM GAS  C:\Users\DNIEL~1\AppData\Local\Temp\ccyAEJOe.s 			page 11


 559              		.p2align 4,,15
 560              		.global	cmd_lightblink
 561              		.thumb
 562              		.thumb_func
 563              		.type	cmd_lightblink, %function
 564              	cmd_lightblink:
 565              	.LFB127:
 566              		.loc 2 136 0
 567              		.cfi_startproc
 568              		@ args = 0, pretend = 0, frame = 0
 569              		@ frame_needed = 0, uses_anonymous_args = 0
 570              	.LVL8:
 571 0000 2DE9F041 		push	{r4, r5, r6, r7, r8, lr}
 572              	.LCFI8:
 573              		.cfi_def_cfa_offset 24
 574              		.loc 2 136 0
 575 0004 0446     		mov	r4, r0
 576              		.cfi_offset 14, -4
 577              		.cfi_offset 8, -8
 578              		.cfi_offset 7, -12
 579              		.cfi_offset 6, -16
 580              		.cfi_offset 5, -20
 581              		.cfi_offset 4, -24
 582 0006 0D46     		mov	r5, r1
 583              		.loc 2 140 0
 584 0008 6249     		ldr	r1, .L58
 585              	.LVL9:
 586              		.loc 2 136 0
 587 000a 1646     		mov	r6, r2
 588              		.loc 2 140 0
 589 000c FFF7FEFF 		bl	chprintf
 590              	.LVL10:
 591              		.loc 2 141 0
 592 0010 2046     		mov	r0, r4
 593 0012 6149     		ldr	r1, .L58+4
 594 0014 FFF7FEFF 		bl	chprintf
 595              		.loc 2 142 0
 596 0018 2168     		ldr	r1, [r4, #0]
 597 001a 2046     		mov	r0, r4
 598 001c 4B69     		ldr	r3, [r1, #20]
 599 001e 0021     		movs	r1, #0
 600 0020 9847     		blx	r3
 601 0022 B0F1FF3F 		cmp	r0, #-1
 602 0026 21D0     		beq	.L50
 603              	.LVL11:
 604              	.L40:
 605              		.loc 2 205 0
 606 0028 2046     		mov	r0, r4
 607 002a 5C49     		ldr	r1, .L58+8
 608 002c FFF7FEFF 		bl	chprintf
 609              		.loc 2 206 0
 610 0030 2046     		mov	r0, r4
 611 0032 5B49     		ldr	r1, .L58+12
 612 0034 FFF7FEFF 		bl	chprintf
 613              		.loc 2 207 0
 614 0038 2046     		mov	r0, r4
 615 003a 5A49     		ldr	r1, .L58+16
ARM GAS  C:\Users\DNIEL~1\AppData\Local\Temp\ccyAEJOe.s 			page 12


 616 003c FFF7FEFF 		bl	chprintf
 617              		.loc 2 208 0
 618 0040 2046     		mov	r0, r4
 619 0042 5949     		ldr	r1, .L58+20
 620 0044 FFF7FEFF 		bl	chprintf
 621              		.loc 2 209 0
 622 0048 2046     		mov	r0, r4
 623 004a 5849     		ldr	r1, .L58+24
 624 004c FFF7FEFF 		bl	chprintf
 625              		.loc 2 210 0
 626 0050 2046     		mov	r0, r4
 627 0052 5749     		ldr	r1, .L58+28
 628 0054 FFF7FEFF 		bl	chprintf
 629              		.loc 2 211 0
 630 0058 2046     		mov	r0, r4
 631 005a 5649     		ldr	r1, .L58+32
 632 005c FFF7FEFF 		bl	chprintf
 633              		.loc 2 212 0
 634 0060 5549     		ldr	r1, .L58+36
 635 0062 2046     		mov	r0, r4
 636              		.loc 2 214 0
 637 0064 BDE8F041 		pop	{r4, r5, r6, r7, r8, lr}
 638              		.loc 2 212 0
 639 0068 FFF7FEBF 		b	chprintf
 640              	.LVL12:
 641              	.L50:
 642              	.LBB11:
 643              		.loc 2 143 0
 644 006c 0022     		movs	r2, #0
 645 006e 2046     		mov	r0, r4
 646 0070 5249     		ldr	r1, .L58+40
 647 0072 1346     		mov	r3, r2
 648 0074 FFF7FEFF 		bl	chprintf
 649              		.loc 2 144 0
 650 0078 012D     		cmp	r5, #1
 651 007a D5D1     		bne	.L40
 652              		.loc 2 144 0 is_stmt 0 discriminator 1
 653 007c 3668     		ldr	r6, [r6, #0]
 654              	.LVL13:
 655 007e 5049     		ldr	r1, .L58+44
 656 0080 3046     		mov	r0, r6
 657 0082 FFF7FEFF 		bl	strcmp
 658 0086 0746     		mov	r7, r0
 659 0088 0028     		cmp	r0, #0
 660 008a 53D0     		beq	.L51
 661              		.loc 2 151 0 is_stmt 1 discriminator 1
 662 008c 3046     		mov	r0, r6
 663 008e 4D49     		ldr	r1, .L58+48
 664 0090 FFF7FEFF 		bl	strcmp
 665 0094 0746     		mov	r7, r0
 666 0096 0028     		cmp	r0, #0
 667 0098 5BD0     		beq	.L52
 668              		.loc 2 158 0 discriminator 1
 669 009a 3046     		mov	r0, r6
 670 009c 4A49     		ldr	r1, .L58+52
 671 009e FFF7FEFF 		bl	strcmp
 672 00a2 0746     		mov	r7, r0
ARM GAS  C:\Users\DNIEL~1\AppData\Local\Temp\ccyAEJOe.s 			page 13


 673 00a4 0028     		cmp	r0, #0
 674 00a6 5DD0     		beq	.L53
 675              		.loc 2 165 0 discriminator 1
 676 00a8 3046     		mov	r0, r6
 677 00aa 4849     		ldr	r1, .L58+56
 678 00ac FFF7FEFF 		bl	strcmp
 679 00b0 0028     		cmp	r0, #0
 680 00b2 66D0     		beq	.L54
 681              		.loc 2 172 0 discriminator 1
 682 00b4 3046     		mov	r0, r6
 683 00b6 4649     		ldr	r1, .L58+60
 684 00b8 FFF7FEFF 		bl	strcmp
 685 00bc 10B3     		cbz	r0, .L55
 686              		.loc 2 179 0 discriminator 1
 687 00be 3046     		mov	r0, r6
 688 00c0 4449     		ldr	r1, .L58+64
 689 00c2 FFF7FEFF 		bl	strcmp
 690 00c6 0028     		cmp	r0, #0
 691 00c8 24D0     		beq	.L56
 692              		.loc 2 186 0 discriminator 1
 693 00ca 3046     		mov	r0, r6
 694 00cc 4249     		ldr	r1, .L58+68
 695 00ce FFF7FEFF 		bl	strcmp
 696 00d2 0028     		cmp	r0, #0
 697 00d4 26D0     		beq	.L57
 698              		.loc 2 193 0 discriminator 1
 699 00d6 3046     		mov	r0, r6
 700 00d8 4049     		ldr	r1, .L58+72
 701 00da FFF7FEFF 		bl	strcmp
 702 00de 0028     		cmp	r0, #0
 703 00e0 A2D1     		bne	.L40
 704              		.loc 2 194 0
 705 00e2 2046     		mov	r0, r4
 706 00e4 3E49     		ldr	r1, .L58+76
 707 00e6 FFF7FEFF 		bl	chprintf
 708              	.LVL14:
 709              	.LBB20:
 710              	.LBB21:
 711              		.loc 2 89 0
 712 00ea 3E4A     		ldr	r2, .L58+80
 713              		.loc 2 94 0
 714 00ec 3E48     		ldr	r0, .L58+84
 715              		.loc 2 90 0
 716 00ee 0023     		movs	r3, #0
 717              		.loc 2 89 0
 718 00f0 0121     		movs	r1, #1
 719 00f2 1170     		strb	r1, [r2, #0]
 720              		.loc 2 90 0
 721 00f4 5370     		strb	r3, [r2, #1]
 722              		.loc 2 91 0
 723 00f6 9370     		strb	r3, [r2, #2]
 724              		.loc 2 92 0
 725 00f8 D370     		strb	r3, [r2, #3]
 726              		.loc 2 95 0
 727 00fa 3C4A     		ldr	r2, .L58+88
 728              		.loc 2 94 0
 729 00fc 0360     		str	r3, [r0, #0]
ARM GAS  C:\Users\DNIEL~1\AppData\Local\Temp\ccyAEJOe.s 			page 14


 730              		.loc 2 95 0
 731 00fe 1170     		strb	r1, [r2, #0]
 732 0100 BDE8F081 		pop	{r4, r5, r6, r7, r8, pc}
 733              	.LVL15:
 734              	.L55:
 735              	.LBE21:
 736              	.LBE20:
 737              		.loc 2 174 0
 738 0104 2046     		mov	r0, r4
 739 0106 3A49     		ldr	r1, .L58+92
 740 0108 FFF7FEFF 		bl	chprintf
 741              	.LBE11:
 742              		.loc 2 214 0
 743 010c BDE8F041 		pop	{r4, r5, r6, r7, r8, lr}
 744              	.LBB22:
 745              		.loc 2 175 0
 746 0110 FFF7FEBF 		b	lightBrakeOff
 747              	.L56:
 748              		.loc 2 181 0
 749 0114 2046     		mov	r0, r4
 750 0116 3749     		ldr	r1, .L58+96
 751 0118 FFF7FEFF 		bl	chprintf
 752              	.LBE22:
 753              		.loc 2 214 0
 754 011c BDE8F041 		pop	{r4, r5, r6, r7, r8, lr}
 755              	.LBB23:
 756              		.loc 2 182 0
 757 0120 FFF7FEBF 		b	lightPosLampOn
 758              	.L57:
 759              		.loc 2 188 0
 760 0124 2046     		mov	r0, r4
 761 0126 3449     		ldr	r1, .L58+100
 762 0128 FFF7FEFF 		bl	chprintf
 763              	.LBE23:
 764              		.loc 2 214 0
 765 012c BDE8F041 		pop	{r4, r5, r6, r7, r8, lr}
 766              	.LBB24:
 767              		.loc 2 189 0
 768 0130 FFF7FEBF 		b	lightPosLampOff
 769              	.L51:
 770              		.loc 2 146 0
 771 0134 2046     		mov	r0, r4
 772 0136 3149     		ldr	r1, .L58+104
 773 0138 FFF7FEFF 		bl	chprintf
 774              	.LVL16:
 775              	.LBB18:
 776              	.LBB19:
 777              		.loc 2 89 0
 778 013c 294B     		ldr	r3, .L58+80
 779 013e 1F70     		strb	r7, [r3, #0]
 780              		.loc 2 90 0
 781 0140 5D70     		strb	r5, [r3, #1]
 782              		.loc 2 91 0
 783 0142 9F70     		strb	r7, [r3, #2]
 784              	.LVL17:
 785              	.L49:
 786              	.LBE19:
ARM GAS  C:\Users\DNIEL~1\AppData\Local\Temp\ccyAEJOe.s 			page 15


 787              	.LBE18:
 788              	.LBB15:
 789              	.LBB16:
 790              		.loc 2 94 0
 791 0144 284A     		ldr	r2, .L58+84
 792              		.loc 2 95 0
 793 0146 2948     		ldr	r0, .L58+88
 794              		.loc 2 92 0
 795 0148 DF70     		strb	r7, [r3, #3]
 796              		.loc 2 94 0
 797 014a 1760     		str	r7, [r2, #0]
 798              		.loc 2 95 0
 799 014c 0570     		strb	r5, [r0, #0]
 800 014e BDE8F081 		pop	{r4, r5, r6, r7, r8, pc}
 801              	.L52:
 802              	.LBE16:
 803              	.LBE15:
 804              		.loc 2 153 0
 805 0152 2046     		mov	r0, r4
 806 0154 2A49     		ldr	r1, .L58+108
 807 0156 FFF7FEFF 		bl	chprintf
 808              	.LVL18:
 809              	.LBB14:
 810              	.LBB17:
 811              		.loc 2 89 0
 812 015a 224B     		ldr	r3, .L58+80
 813 015c 1F70     		strb	r7, [r3, #0]
 814              		.loc 2 90 0
 815 015e 5F70     		strb	r7, [r3, #1]
 816              		.loc 2 91 0
 817 0160 9D70     		strb	r5, [r3, #2]
 818 0162 EFE7     		b	.L49
 819              	.LVL19:
 820              	.L53:
 821              	.LBE17:
 822              	.LBE14:
 823              		.loc 2 160 0
 824 0164 2046     		mov	r0, r4
 825 0166 2749     		ldr	r1, .L58+112
 826 0168 FFF7FEFF 		bl	chprintf
 827              	.LVL20:
 828              	.LBB12:
 829              	.LBB13:
 830              		.loc 2 89 0
 831 016c 1D48     		ldr	r0, .L58+80
 832              		.loc 2 94 0
 833 016e 1E49     		ldr	r1, .L58+84
 834              		.loc 2 95 0
 835 0170 1E4B     		ldr	r3, .L58+88
 836              		.loc 2 89 0
 837 0172 0770     		strb	r7, [r0, #0]
 838              		.loc 2 90 0
 839 0174 4770     		strb	r7, [r0, #1]
 840              		.loc 2 91 0
 841 0176 8770     		strb	r7, [r0, #2]
 842              		.loc 2 92 0
 843 0178 C570     		strb	r5, [r0, #3]
ARM GAS  C:\Users\DNIEL~1\AppData\Local\Temp\ccyAEJOe.s 			page 16


 844              		.loc 2 94 0
 845 017a 0F60     		str	r7, [r1, #0]
 846              		.loc 2 95 0
 847 017c 1D70     		strb	r5, [r3, #0]
 848 017e BDE8F081 		pop	{r4, r5, r6, r7, r8, pc}
 849              	.LVL21:
 850              	.L54:
 851              	.LBE13:
 852              	.LBE12:
 853              		.loc 2 167 0
 854 0182 2046     		mov	r0, r4
 855 0184 2049     		ldr	r1, .L58+116
 856 0186 FFF7FEFF 		bl	chprintf
 857              	.LBE24:
 858              		.loc 2 214 0
 859 018a BDE8F041 		pop	{r4, r5, r6, r7, r8, lr}
 860              	.LBB25:
 861              		.loc 2 168 0
 862 018e FFF7FEBF 		b	lightBrakeOn
 863              	.L59:
 864 0192 00BF     		.align	2
 865              	.L58:
 866 0194 00000000 		.word	.LC0
 867 0198 04000000 		.word	.LC1
 868 019c 88020000 		.word	.LC24
 869 01a0 A0020000 		.word	.LC25
 870 01a4 B4020000 		.word	.LC26
 871 01a8 CC020000 		.word	.LC27
 872 01ac E4020000 		.word	.LC28
 873 01b0 FC020000 		.word	.LC29
 874 01b4 14030000 		.word	.LC30
 875 01b8 2C030000 		.word	.LC31
 876 01bc 0C000000 		.word	.LC2
 877 01c0 84000000 		.word	.LC8
 878 01c4 C4000000 		.word	.LC10
 879 01c8 04010000 		.word	.LC12
 880 01cc 48010000 		.word	.LC14
 881 01d0 84010000 		.word	.LC16
 882 01d4 C8010000 		.word	.LC18
 883 01d8 08020000 		.word	.LC20
 884 01dc 48020000 		.word	.LC22
 885 01e0 50020000 		.word	.LC23
 886 01e4 00000000 		.word	.LANCHOR3
 887 01e8 00000000 		.word	.LANCHOR0
 888 01ec 00000000 		.word	.LANCHOR1
 889 01f0 90010000 		.word	.LC17
 890 01f4 D0010000 		.word	.LC19
 891 01f8 10020000 		.word	.LC21
 892 01fc 8C000000 		.word	.LC9
 893 0200 CC000000 		.word	.LC11
 894 0204 0C010000 		.word	.LC13
 895 0208 50010000 		.word	.LC15
 896              	.LBE25:
 897              		.cfi_endproc
 898              	.LFE127:
 899              		.size	cmd_lightblink, .-cmd_lightblink
 900 020c AFF30080 		.section	.data.pwmcfg,"aw",%progbits
ARM GAS  C:\Users\DNIEL~1\AppData\Local\Temp\ccyAEJOe.s 			page 17


 901              		.align	2
 902              		.set	.LANCHOR2,. + 0
 903              		.type	pwmcfg, %object
 904              		.size	pwmcfg, 52
 905              	pwmcfg:
 906 0000 40420F00 		.word	1000000
 907 0004 E803     		.short	1000
 908 0006 0000     		.space	2
 909 0008 00000000 		.word	0
 910 000c 01000000 		.word	1
 911 0010 00000000 		.word	0
 912 0014 01000000 		.word	1
 913 0018 00000000 		.word	0
 914 001c 01000000 		.word	1
 915 0020 00000000 		.word	0
 916 0024 01000000 		.word	1
 917 0028 00000000 		.word	0
 918 002c 00000000 		.word	0
 919 0030 00000000 		.word	0
 920              		.section	.bss.period,"aw",%nobits
 921              		.align	2
 922              		.set	.LANCHOR0,. + 0
 923              		.type	period, %object
 924              		.size	period, 4
 925              	period:
 926 0000 00000000 		.space	4
 927              		.section	.bss.flashing,"aw",%nobits
 928              		.set	.LANCHOR1,. + 0
 929              		.type	flashing, %object
 930              		.size	flashing, 1
 931              	flashing:
 932 0000 00       		.space	1
 933              		.section	.rodata.str1.4,"aMS",%progbits,1
 934              		.align	2
 935              	.LC0:
 936 0000 1B6300   		.ascii	"\033c\000"
 937 0003 00       		.space	1
 938              	.LC1:
 939 0004 1B5B324A 		.ascii	"\033[2J\000"
 939      00
 940 0009 000000   		.space	3
 941              	.LC2:
 942 000c 1B5B2564 		.ascii	"\033[%d;%dH\000"
 942      3B256448 
 942      00
 943 0015 000000   		.space	3
 944              	.LC3:
 945 0018 52696768 		.ascii	"Right light: %15d\015\012\000"
 945      74206C69 
 945      6768743A 
 945      20253135 
 945      640D0A00 
 946              	.LC4:
 947 002c 4C656674 		.ascii	"Left light: %15d\015\012\000"
 947      206C6967 
 947      68743A20 
 947      25313564 
ARM GAS  C:\Users\DNIEL~1\AppData\Local\Temp\ccyAEJOe.s 			page 18


 947      0D0A00
 948 003f 00       		.space	1
 949              	.LC5:
 950 0040 5761726E 		.ascii	"Warning light: %15d\015\012\000"
 950      696E6720 
 950      6C696768 
 950      743A2025 
 950      3135640D 
 951 0056 0000     		.space	2
 952              	.LC6:
 953 0058 4272616B 		.ascii	"Brake light: %15d\015\012\000"
 953      65206C69 
 953      6768743A 
 953      20253135 
 953      640D0A00 
 954              	.LC7:
 955 006c 506F7369 		.ascii	"Position light: %15d\015\012\000"
 955      74696F6E 
 955      206C6967 
 955      68743A20 
 955      25313564 
 956 0083 00       		.space	1
 957              	.LC8:
 958 0084 72696768 		.ascii	"right\000"
 958      7400
 959 008a 0000     		.space	2
 960              	.LC9:
 961 008c 2D2D2D2D 		.ascii	"-------------- Blinking right enabled -------------"
 961      2D2D2D2D 
 961      2D2D2D2D 
 961      2D2D2042 
 961      6C696E6B 
 962 00bf 2D0D0A00 		.ascii	"-\015\012\000"
 963 00c3 00       		.space	1
 964              	.LC10:
 965 00c4 6C656674 		.ascii	"left\000"
 965      00
 966 00c9 000000   		.space	3
 967              	.LC11:
 968 00cc 2D2D2D2D 		.ascii	"-------------- Blinking left enabled --------------"
 968      2D2D2D2D 
 968      2D2D2D2D 
 968      2D2D2042 
 968      6C696E6B 
 969 00ff 0D0A00   		.ascii	"\015\012\000"
 970 0102 0000     		.space	2
 971              	.LC12:
 972 0104 7761726E 		.ascii	"warning\000"
 972      696E6700 
 973              	.LC13:
 974 010c 2D2D2D2D 		.ascii	"-------------- Blinking warning enabled -----------"
 974      2D2D2D2D 
 974      2D2D2D2D 
 974      2D2D2042 
 974      6C696E6B 
 975 013f 2D2D2D0D 		.ascii	"---\015\012\000"
 975      0A00
ARM GAS  C:\Users\DNIEL~1\AppData\Local\Temp\ccyAEJOe.s 			page 19


 976 0145 000000   		.space	3
 977              	.LC14:
 978 0148 6272616B 		.ascii	"brakeon\000"
 978      656F6E00 
 979              	.LC15:
 980 0150 2D2D2D2D 		.ascii	"-------------- Brake light enabled --------------\015"
 980      2D2D2D2D 
 980      2D2D2D2D 
 980      2D2D2042 
 980      72616B65 
 981 0182 0A00     		.ascii	"\012\000"
 982              	.LC16:
 983 0184 6272616B 		.ascii	"brakeoff\000"
 983      656F6666 
 983      00
 984 018d 000000   		.space	3
 985              	.LC17:
 986 0190 2D2D2D2D 		.ascii	"-------------- Brake light disabled --------------\015"
 986      2D2D2D2D 
 986      2D2D2D2D 
 986      2D2D2042 
 986      72616B65 
 987 01c3 0A00     		.ascii	"\012\000"
 988 01c5 000000   		.space	3
 989              	.LC18:
 990 01c8 6C616D70 		.ascii	"lampon\000"
 990      6F6E00
 991 01cf 00       		.space	1
 992              	.LC19:
 993 01d0 2D2D2D2D 		.ascii	"-------------- Position lamp enabled --------------"
 993      2D2D2D2D 
 993      2D2D2D2D 
 993      2D2D2050 
 993      6F736974 
 994 0203 0D0A00   		.ascii	"\015\012\000"
 995 0206 0000     		.space	2
 996              	.LC20:
 997 0208 6C616D70 		.ascii	"lampoff\000"
 997      6F666600 
 998              	.LC21:
 999 0210 2D2D2D2D 		.ascii	"-------------- Position lamp disabled -------------"
 999      2D2D2D2D 
 999      2D2D2D2D 
 999      2D2D2050 
 999      6F736974 
 1000 0243 2D0D0A00 		.ascii	"-\015\012\000"
 1001 0247 00       		.space	1
 1002              	.LC22:
 1003 0248 73746F70 		.ascii	"stop\000"
 1003      00
 1004 024d 000000   		.space	3
 1005              	.LC23:
 1006 0250 2D2D2D2D 		.ascii	"-------------- All blinking disabled --------------"
 1006      2D2D2D2D 
 1006      2D2D2D2D 
 1006      2D2D2041 
 1006      6C6C2062 
ARM GAS  C:\Users\DNIEL~1\AppData\Local\Temp\ccyAEJOe.s 			page 20


 1007 0283 0D0A00   		.ascii	"\015\012\000"
 1008 0286 0000     		.space	2
 1009              	.LC24:
 1010 0288 55736167 		.ascii	"Usage: light right\015\012\000"
 1010      653A206C 
 1010      69676874 
 1010      20726967 
 1010      68740D0A 
 1011 029d 000000   		.space	3
 1012              	.LC25:
 1013 02a0 20202020 		.ascii	"       light left\015\012\000"
 1013      2020206C 
 1013      69676874 
 1013      206C6566 
 1013      740D0A00 
 1014              	.LC26:
 1015 02b4 20202020 		.ascii	"       light warning\015\012\000"
 1015      2020206C 
 1015      69676874 
 1015      20776172 
 1015      6E696E67 
 1016 02cb 00       		.space	1
 1017              	.LC27:
 1018 02cc 20202020 		.ascii	"       light brakeon\015\012\000"
 1018      2020206C 
 1018      69676874 
 1018      20627261 
 1018      6B656F6E 
 1019 02e3 00       		.space	1
 1020              	.LC28:
 1021 02e4 20202020 		.ascii	"       light brakeoff\015\012\000"
 1021      2020206C 
 1021      69676874 
 1021      20627261 
 1021      6B656F66 
 1022              	.LC29:
 1023 02fc 20202020 		.ascii	"       light lampon\015\012\000"
 1023      2020206C 
 1023      69676874 
 1023      206C616D 
 1023      706F6E0D 
 1024 0312 0000     		.space	2
 1025              	.LC30:
 1026 0314 20202020 		.ascii	"       light lampoff\015\012\000"
 1026      2020206C 
 1026      69676874 
 1026      206C616D 
 1026      706F6666 
 1027 032b 00       		.space	1
 1028              	.LC31:
 1029 032c 20202020 		.ascii	"       light stop\015\012\000"
 1029      2020206C 
 1029      69676874 
 1029      2073746F 
 1029      700D0A00 
 1030              		.section	.bss.lightchanels,"aw",%nobits
 1031              		.align	2
ARM GAS  C:\Users\DNIEL~1\AppData\Local\Temp\ccyAEJOe.s 			page 21


 1032              		.set	.LANCHOR3,. + 0
 1033              		.type	lightchanels, %object
 1034              		.size	lightchanels, 6
 1035              	lightchanels:
 1036 0000 00000000 		.space	6
 1036      0000
 1037 0006 0000     		.text
 1038              	.Letext0:
 1039              		.section	.debug_loc,"",%progbits
 1040              	.Ldebug_loc0:
 1041              	.LLST0:
 1042 0000 00000000 		.4byte	.LFB118
 1043 0004 02000000 		.4byte	.LCFI0
 1044 0008 0200     		.2byte	0x2
 1045 000a 7D       		.byte	0x7d
 1046 000b 00       		.sleb128 0
 1047 000c 02000000 		.4byte	.LCFI0
 1048 0010 04000000 		.4byte	.LCFI1
 1049 0014 0200     		.2byte	0x2
 1050 0016 7D       		.byte	0x7d
 1051 0017 0C       		.sleb128 12
 1052 0018 04000000 		.4byte	.LCFI1
 1053 001c 06000000 		.4byte	.LCFI2
 1054 0020 0200     		.2byte	0x2
 1055 0022 7D       		.byte	0x7d
 1056 0023 10       		.sleb128 16
 1057 0024 06000000 		.4byte	.LCFI2
 1058 0028 1E000000 		.4byte	.LFE118
 1059 002c 0200     		.2byte	0x2
 1060 002e 7D       		.byte	0x7d
 1061 002f 18       		.sleb128 24
 1062 0030 00000000 		.4byte	0x0
 1063 0034 00000000 		.4byte	0x0
 1064              	.LLST1:
 1065 0038 00000000 		.4byte	.LVL0
 1066 003c 13000000 		.4byte	.LVL1-1
 1067 0040 0100     		.2byte	0x1
 1068 0042 50       		.byte	0x50
 1069 0043 00000000 		.4byte	0x0
 1070 0047 00000000 		.4byte	0x0
 1071              	.LLST2:
 1072 004b 00000000 		.4byte	.LFB120
 1073 004f 0A000000 		.4byte	.LCFI3
 1074 0053 0200     		.2byte	0x2
 1075 0055 7D       		.byte	0x7d
 1076 0056 00       		.sleb128 0
 1077 0057 0A000000 		.4byte	.LCFI3
 1078 005b B0000000 		.4byte	.LFE120
 1079 005f 0200     		.2byte	0x2
 1080 0061 7D       		.byte	0x7d
 1081 0062 10       		.sleb128 16
 1082 0063 00000000 		.4byte	0x0
 1083 0067 00000000 		.4byte	0x0
 1084              	.LLST3:
 1085 006b 00000000 		.4byte	.LFB121
 1086 006f 02000000 		.4byte	.LCFI4
 1087 0073 0200     		.2byte	0x2
ARM GAS  C:\Users\DNIEL~1\AppData\Local\Temp\ccyAEJOe.s 			page 22


 1088 0075 7D       		.byte	0x7d
 1089 0076 00       		.sleb128 0
 1090 0077 02000000 		.4byte	.LCFI4
 1091 007b 54000000 		.4byte	.LFE121
 1092 007f 0200     		.2byte	0x2
 1093 0081 7D       		.byte	0x7d
 1094 0082 04       		.sleb128 4
 1095 0083 00000000 		.4byte	0x0
 1096 0087 00000000 		.4byte	0x0
 1097              	.LLST4:
 1098 008b 00000000 		.4byte	.LVL2
 1099 008f 2A000000 		.4byte	.LVL3
 1100 0093 0100     		.2byte	0x1
 1101 0095 50       		.byte	0x50
 1102 0096 2A000000 		.4byte	.LVL3
 1103 009a 2E000000 		.4byte	.LVL4
 1104 009e 0300     		.2byte	0x3
 1105 00a0 7C       		.byte	0x7c
 1106 00a1 03       		.sleb128 3
 1107 00a2 9F       		.byte	0x9f
 1108 00a3 00000000 		.4byte	0x0
 1109 00a7 00000000 		.4byte	0x0
 1110              	.LLST5:
 1111 00ab 00000000 		.4byte	.LFB124
 1112 00af 06000000 		.4byte	.LCFI5
 1113 00b3 0200     		.2byte	0x2
 1114 00b5 7D       		.byte	0x7d
 1115 00b6 00       		.sleb128 0
 1116 00b7 06000000 		.4byte	.LCFI5
 1117 00bb 24000000 		.4byte	.LFE124
 1118 00bf 0200     		.2byte	0x2
 1119 00c1 7D       		.byte	0x7d
 1120 00c2 08       		.sleb128 8
 1121 00c3 00000000 		.4byte	0x0
 1122 00c7 00000000 		.4byte	0x0
 1123              	.LLST6:
 1124 00cb 00000000 		.4byte	.LFB125
 1125 00cf 04000000 		.4byte	.LCFI6
 1126 00d3 0200     		.2byte	0x2
 1127 00d5 7D       		.byte	0x7d
 1128 00d6 00       		.sleb128 0
 1129 00d7 04000000 		.4byte	.LCFI6
 1130 00db 20000000 		.4byte	.LFE125
 1131 00df 0200     		.2byte	0x2
 1132 00e1 7D       		.byte	0x7d
 1133 00e2 08       		.sleb128 8
 1134 00e3 00000000 		.4byte	0x0
 1135 00e7 00000000 		.4byte	0x0
 1136              	.LLST7:
 1137 00eb 00000000 		.4byte	.LFB126
 1138 00ef 02000000 		.4byte	.LCFI7
 1139 00f3 0200     		.2byte	0x2
 1140 00f5 7D       		.byte	0x7d
 1141 00f6 00       		.sleb128 0
 1142 00f7 02000000 		.4byte	.LCFI7
 1143 00fb 94000000 		.4byte	.LFE126
 1144 00ff 0200     		.2byte	0x2
ARM GAS  C:\Users\DNIEL~1\AppData\Local\Temp\ccyAEJOe.s 			page 23


 1145 0101 7D       		.byte	0x7d
 1146 0102 10       		.sleb128 16
 1147 0103 00000000 		.4byte	0x0
 1148 0107 00000000 		.4byte	0x0
 1149              	.LLST8:
 1150 010b 00000000 		.4byte	.LVL5
 1151 010f 0B000000 		.4byte	.LVL7-1
 1152 0113 0100     		.2byte	0x1
 1153 0115 50       		.byte	0x50
 1154 0116 0B000000 		.4byte	.LVL7-1
 1155 011a 94000000 		.4byte	.LFE126
 1156 011e 0100     		.2byte	0x1
 1157 0120 54       		.byte	0x54
 1158 0121 00000000 		.4byte	0x0
 1159 0125 00000000 		.4byte	0x0
 1160              	.LLST9:
 1161 0129 00000000 		.4byte	.LVL5
 1162 012d 04000000 		.4byte	.LVL6
 1163 0131 0100     		.2byte	0x1
 1164 0133 51       		.byte	0x51
 1165 0134 00000000 		.4byte	0x0
 1166 0138 00000000 		.4byte	0x0
 1167              	.LLST10:
 1168 013c 00000000 		.4byte	.LVL5
 1169 0140 0B000000 		.4byte	.LVL7-1
 1170 0144 0100     		.2byte	0x1
 1171 0146 52       		.byte	0x52
 1172 0147 00000000 		.4byte	0x0
 1173 014b 00000000 		.4byte	0x0
 1174              	.LLST11:
 1175 014f 00000000 		.4byte	.LFB127
 1176 0153 04000000 		.4byte	.LCFI8
 1177 0157 0200     		.2byte	0x2
 1178 0159 7D       		.byte	0x7d
 1179 015a 00       		.sleb128 0
 1180 015b 04000000 		.4byte	.LCFI8
 1181 015f 0C020000 		.4byte	.LFE127
 1182 0163 0200     		.2byte	0x2
 1183 0165 7D       		.byte	0x7d
 1184 0166 18       		.sleb128 24
 1185 0167 00000000 		.4byte	0x0
 1186 016b 00000000 		.4byte	0x0
 1187              	.LLST12:
 1188 016f 00000000 		.4byte	.LVL8
 1189 0173 0F000000 		.4byte	.LVL10-1
 1190 0177 0100     		.2byte	0x1
 1191 0179 50       		.byte	0x50
 1192 017a 0F000000 		.4byte	.LVL10-1
 1193 017e 0C020000 		.4byte	.LFE127
 1194 0182 0100     		.2byte	0x1
 1195 0184 54       		.byte	0x54
 1196 0185 00000000 		.4byte	0x0
 1197 0189 00000000 		.4byte	0x0
 1198              	.LLST13:
 1199 018d 00000000 		.4byte	.LVL8
 1200 0191 0A000000 		.4byte	.LVL9
 1201 0195 0100     		.2byte	0x1
ARM GAS  C:\Users\DNIEL~1\AppData\Local\Temp\ccyAEJOe.s 			page 24


 1202 0197 51       		.byte	0x51
 1203 0198 0A000000 		.4byte	.LVL9
 1204 019c 0C020000 		.4byte	.LFE127
 1205 01a0 0100     		.2byte	0x1
 1206 01a2 55       		.byte	0x55
 1207 01a3 00000000 		.4byte	0x0
 1208 01a7 00000000 		.4byte	0x0
 1209              	.LLST14:
 1210 01ab 00000000 		.4byte	.LVL8
 1211 01af 0F000000 		.4byte	.LVL10-1
 1212 01b3 0100     		.2byte	0x1
 1213 01b5 52       		.byte	0x52
 1214 01b6 0F000000 		.4byte	.LVL10-1
 1215 01ba 28000000 		.4byte	.LVL11
 1216 01be 0100     		.2byte	0x1
 1217 01c0 56       		.byte	0x56
 1218 01c1 6C000000 		.4byte	.LVL12
 1219 01c5 7E000000 		.4byte	.LVL13
 1220 01c9 0100     		.2byte	0x1
 1221 01cb 56       		.byte	0x56
 1222 01cc 00000000 		.4byte	0x0
 1223 01d0 00000000 		.4byte	0x0
 1224              	.LLST15:
 1225 01d4 6C010000 		.4byte	.LVL20
 1226 01d8 82010000 		.4byte	.LVL21
 1227 01dc 0200     		.2byte	0x2
 1228 01de 33       		.byte	0x33
 1229 01df 9F       		.byte	0x9f
 1230 01e0 00000000 		.4byte	0x0
 1231 01e4 00000000 		.4byte	0x0
 1232              	.LLST16:
 1233 01e8 5A010000 		.4byte	.LVL18
 1234 01ec 64010000 		.4byte	.LVL19
 1235 01f0 0200     		.2byte	0x2
 1236 01f2 32       		.byte	0x32
 1237 01f3 9F       		.byte	0x9f
 1238 01f4 00000000 		.4byte	0x0
 1239 01f8 00000000 		.4byte	0x0
 1240              	.LLST17:
 1241 01fc 3C010000 		.4byte	.LVL16
 1242 0200 44010000 		.4byte	.LVL17
 1243 0204 0200     		.2byte	0x2
 1244 0206 31       		.byte	0x31
 1245 0207 9F       		.byte	0x9f
 1246 0208 00000000 		.4byte	0x0
 1247 020c 00000000 		.4byte	0x0
 1248              	.LLST18:
 1249 0210 EA000000 		.4byte	.LVL14
 1250 0214 04010000 		.4byte	.LVL15
 1251 0218 0200     		.2byte	0x2
 1252 021a 30       		.byte	0x30
 1253 021b 9F       		.byte	0x9f
 1254 021c 00000000 		.4byte	0x0
 1255 0220 00000000 		.4byte	0x0
 1256              		.file 3 "c:\\program files (x86)\\codesourcery\\sourcery g++ lite\\bin\\../lib/gcc/arm-none-eabi/4
 1257              		.file 4 "c:\\program files (x86)\\codesourcery\\sourcery g++ lite\\bin\\../lib/gcc/arm-none-eabi/4
 1258              		.file 5 "../../../ChibiOS/os/ports/GCC/ARMCMx/chtypes.h"
ARM GAS  C:\Users\DNIEL~1\AppData\Local\Temp\ccyAEJOe.s 			page 25


 1259              		.file 6 "../../../ChibiOS/os/kernel/include/chstreams.h"
 1260              		.file 7 "../../../ChibiOS/os/hal/include/io_channel.h"
 1261              		.file 8 "../../../ChibiOS/os/hal/platforms/STM32/TIMv1/stm32_tim.h"
 1262              		.file 9 "../../../ChibiOS/os/hal/include/pwm.h"
 1263              		.file 10 "../../../ChibiOS/os/hal/platforms/STM32/TIMv1/pwm_lld.h"
 1264              		.file 11 "c:\\program files (x86)\\codesourcery\\sourcery g++ lite\\bin\\../lib/gcc/arm-none-eabi/
 1265              		.file 12 "<built-in>"
 1266              		.file 13 "../../../ChibiOS/os/ports/common/ARMCMx/CMSIS/include/core_cm4.h"
 1267              		.section	.debug_info
 1268 0000 61090000 		.4byte	0x961
 1269 0004 0200     		.2byte	0x2
 1270 0006 00000000 		.4byte	.Ldebug_abbrev0
 1271 000a 04       		.byte	0x4
 1272 000b 01       		.uleb128 0x1
 1273 000c 10030000 		.4byte	.LASF90
 1274 0010 01       		.byte	0x1
 1275 0011 BF020000 		.4byte	.LASF91
 1276 0015 6C000000 		.4byte	.LASF92
 1277 0019 00000000 		.4byte	0x0
 1278 001d 00000000 		.4byte	0x0
 1279 0021 48000000 		.4byte	.Ldebug_ranges0+0x48
 1280 0025 00000000 		.4byte	.Ldebug_line0
 1281 0029 02       		.uleb128 0x2
 1282 002a 04       		.byte	0x4
 1283 002b 05       		.byte	0x5
 1284 002c 696E7400 		.ascii	"int\000"
 1285 0030 03       		.uleb128 0x3
 1286 0031 42000000 		.4byte	.LASF2
 1287 0035 03       		.byte	0x3
 1288 0036 D3       		.byte	0xd3
 1289 0037 3B000000 		.4byte	0x3b
 1290 003b 04       		.uleb128 0x4
 1291 003c 04       		.byte	0x4
 1292 003d 07       		.byte	0x7
 1293 003e ED010000 		.4byte	.LASF0
 1294 0042 04       		.uleb128 0x4
 1295 0043 01       		.byte	0x1
 1296 0044 06       		.byte	0x6
 1297 0045 C1010000 		.4byte	.LASF1
 1298 0049 03       		.uleb128 0x3
 1299 004a E6000000 		.4byte	.LASF3
 1300 004e 04       		.byte	0x4
 1301 004f 2A       		.byte	0x2a
 1302 0050 54000000 		.4byte	0x54
 1303 0054 04       		.uleb128 0x4
 1304 0055 01       		.byte	0x1
 1305 0056 08       		.byte	0x8
 1306 0057 A6010000 		.4byte	.LASF4
 1307 005b 04       		.uleb128 0x4
 1308 005c 02       		.byte	0x2
 1309 005d 05       		.byte	0x5
 1310 005e BD000000 		.4byte	.LASF5
 1311 0062 03       		.uleb128 0x3
 1312 0063 FF010000 		.4byte	.LASF6
 1313 0067 04       		.byte	0x4
 1314 0068 36       		.byte	0x36
 1315 0069 6D000000 		.4byte	0x6d
ARM GAS  C:\Users\DNIEL~1\AppData\Local\Temp\ccyAEJOe.s 			page 26


 1316 006d 04       		.uleb128 0x4
 1317 006e 02       		.byte	0x2
 1318 006f 07       		.byte	0x7
 1319 0070 48020000 		.4byte	.LASF7
 1320 0074 03       		.uleb128 0x3
 1321 0075 83020000 		.4byte	.LASF8
 1322 0079 04       		.byte	0x4
 1323 007a 4F       		.byte	0x4f
 1324 007b 7F000000 		.4byte	0x7f
 1325 007f 04       		.uleb128 0x4
 1326 0080 04       		.byte	0x4
 1327 0081 05       		.byte	0x5
 1328 0082 75020000 		.4byte	.LASF9
 1329 0086 03       		.uleb128 0x3
 1330 0087 E4010000 		.4byte	.LASF10
 1331 008b 04       		.byte	0x4
 1332 008c 50       		.byte	0x50
 1333 008d 91000000 		.4byte	0x91
 1334 0091 04       		.uleb128 0x4
 1335 0092 04       		.byte	0x4
 1336 0093 07       		.byte	0x7
 1337 0094 D4020000 		.4byte	.LASF11
 1338 0098 04       		.uleb128 0x4
 1339 0099 08       		.byte	0x8
 1340 009a 05       		.byte	0x5
 1341 009b 2E010000 		.4byte	.LASF12
 1342 009f 04       		.uleb128 0x4
 1343 00a0 08       		.byte	0x8
 1344 00a1 07       		.byte	0x7
 1345 00a2 CD010000 		.4byte	.LASF13
 1346 00a6 04       		.uleb128 0x4
 1347 00a7 01       		.byte	0x1
 1348 00a8 02       		.byte	0x2
 1349 00a9 9F020000 		.4byte	.LASF14
 1350 00ad 03       		.uleb128 0x3
 1351 00ae BB030000 		.4byte	.LASF15
 1352 00b2 05       		.byte	0x5
 1353 00b3 31       		.byte	0x31
 1354 00b4 74000000 		.4byte	0x74
 1355 00b8 03       		.uleb128 0x3
 1356 00b9 65020000 		.4byte	.LASF16
 1357 00bd 05       		.byte	0x5
 1358 00be 35       		.byte	0x35
 1359 00bf 86000000 		.4byte	0x86
 1360 00c3 05       		.uleb128 0x5
 1361 00c4 04       		.byte	0x4
 1362 00c5 06       		.uleb128 0x6
 1363 00c6 86000000 		.4byte	0x86
 1364 00ca 07       		.uleb128 0x7
 1365 00cb 04       		.byte	0x4
 1366 00cc D0000000 		.4byte	0xd0
 1367 00d0 08       		.uleb128 0x8
 1368 00d1 D5000000 		.4byte	0xd5
 1369 00d5 04       		.uleb128 0x4
 1370 00d6 01       		.byte	0x1
 1371 00d7 08       		.byte	0x8
 1372 00d8 46010000 		.4byte	.LASF17
ARM GAS  C:\Users\DNIEL~1\AppData\Local\Temp\ccyAEJOe.s 			page 27


 1373 00dc 07       		.uleb128 0x7
 1374 00dd 04       		.byte	0x4
 1375 00de E2000000 		.4byte	0xe2
 1376 00e2 09       		.uleb128 0x9
 1377 00e3 01       		.byte	0x1
 1378 00e4 AD000000 		.4byte	0xad
 1379 00e8 F2000000 		.4byte	0xf2
 1380 00ec 0A       		.uleb128 0xa
 1381 00ed C3000000 		.4byte	0xc3
 1382 00f1 00       		.byte	0x0
 1383 00f2 07       		.uleb128 0x7
 1384 00f3 04       		.byte	0x4
 1385 00f4 49000000 		.4byte	0x49
 1386 00f8 0B       		.uleb128 0xb
 1387 00f9 CA030000 		.4byte	.LASF21
 1388 00fd 10       		.byte	0x10
 1389 00fe 06       		.byte	0x6
 1390 00ff 48       		.byte	0x48
 1391 0100 3D010000 		.4byte	0x13d
 1392 0104 0C       		.uleb128 0xc
 1393 0105 05000000 		.4byte	.LASF18
 1394 0109 06       		.byte	0x6
 1395 010a 49       		.byte	0x49
 1396 010b 62010000 		.4byte	0x162
 1397 010f 02       		.byte	0x2
 1398 0110 23       		.byte	0x23
 1399 0111 00       		.uleb128 0x0
 1400 0112 0C       		.uleb128 0xc
 1401 0113 29010000 		.4byte	.LASF19
 1402 0117 06       		.byte	0x6
 1403 0118 49       		.byte	0x49
 1404 0119 82010000 		.4byte	0x182
 1405 011d 02       		.byte	0x2
 1406 011e 23       		.byte	0x23
 1407 011f 04       		.uleb128 0x4
 1408 0120 0D       		.uleb128 0xd
 1409 0121 70757400 		.ascii	"put\000"
 1410 0125 06       		.byte	0x6
 1411 0126 49       		.byte	0x49
 1412 0127 9D010000 		.4byte	0x19d
 1413 012b 02       		.byte	0x2
 1414 012c 23       		.byte	0x23
 1415 012d 08       		.uleb128 0x8
 1416 012e 0D       		.uleb128 0xd
 1417 012f 67657400 		.ascii	"get\000"
 1418 0133 06       		.byte	0x6
 1419 0134 49       		.byte	0x49
 1420 0135 DC000000 		.4byte	0xdc
 1421 0139 02       		.byte	0x2
 1422 013a 23       		.byte	0x23
 1423 013b 0C       		.uleb128 0xc
 1424 013c 00       		.byte	0x0
 1425 013d 09       		.uleb128 0x9
 1426 013e 01       		.byte	0x1
 1427 013f 30000000 		.4byte	0x30
 1428 0143 57010000 		.4byte	0x157
 1429 0147 0A       		.uleb128 0xa
ARM GAS  C:\Users\DNIEL~1\AppData\Local\Temp\ccyAEJOe.s 			page 28


 1430 0148 C3000000 		.4byte	0xc3
 1431 014c 0A       		.uleb128 0xa
 1432 014d 57010000 		.4byte	0x157
 1433 0151 0A       		.uleb128 0xa
 1434 0152 30000000 		.4byte	0x30
 1435 0156 00       		.byte	0x0
 1436 0157 07       		.uleb128 0x7
 1437 0158 04       		.byte	0x4
 1438 0159 5D010000 		.4byte	0x15d
 1439 015d 08       		.uleb128 0x8
 1440 015e 49000000 		.4byte	0x49
 1441 0162 07       		.uleb128 0x7
 1442 0163 04       		.byte	0x4
 1443 0164 3D010000 		.4byte	0x13d
 1444 0168 09       		.uleb128 0x9
 1445 0169 01       		.byte	0x1
 1446 016a 30000000 		.4byte	0x30
 1447 016e 82010000 		.4byte	0x182
 1448 0172 0A       		.uleb128 0xa
 1449 0173 C3000000 		.4byte	0xc3
 1450 0177 0A       		.uleb128 0xa
 1451 0178 F2000000 		.4byte	0xf2
 1452 017c 0A       		.uleb128 0xa
 1453 017d 30000000 		.4byte	0x30
 1454 0181 00       		.byte	0x0
 1455 0182 07       		.uleb128 0x7
 1456 0183 04       		.byte	0x4
 1457 0184 68010000 		.4byte	0x168
 1458 0188 09       		.uleb128 0x9
 1459 0189 01       		.byte	0x1
 1460 018a AD000000 		.4byte	0xad
 1461 018e 9D010000 		.4byte	0x19d
 1462 0192 0A       		.uleb128 0xa
 1463 0193 C3000000 		.4byte	0xc3
 1464 0197 0A       		.uleb128 0xa
 1465 0198 49000000 		.4byte	0x49
 1466 019c 00       		.byte	0x0
 1467 019d 07       		.uleb128 0x7
 1468 019e 04       		.byte	0x4
 1469 019f 88010000 		.4byte	0x188
 1470 01a3 0E       		.uleb128 0xe
 1471 01a4 04       		.byte	0x4
 1472 01a5 06       		.byte	0x6
 1473 01a6 51       		.byte	0x51
 1474 01a7 BA010000 		.4byte	0x1ba
 1475 01ab 0D       		.uleb128 0xd
 1476 01ac 766D7400 		.ascii	"vmt\000"
 1477 01b0 06       		.byte	0x6
 1478 01b1 53       		.byte	0x53
 1479 01b2 BA010000 		.4byte	0x1ba
 1480 01b6 02       		.byte	0x2
 1481 01b7 23       		.byte	0x23
 1482 01b8 00       		.uleb128 0x0
 1483 01b9 00       		.byte	0x0
 1484 01ba 07       		.uleb128 0x7
 1485 01bb 04       		.byte	0x4
 1486 01bc C0010000 		.4byte	0x1c0
ARM GAS  C:\Users\DNIEL~1\AppData\Local\Temp\ccyAEJOe.s 			page 29


 1487 01c0 08       		.uleb128 0x8
 1488 01c1 F8000000 		.4byte	0xf8
 1489 01c5 03       		.uleb128 0x3
 1490 01c6 52000000 		.4byte	.LASF20
 1491 01ca 06       		.byte	0x6
 1492 01cb 55       		.byte	0x55
 1493 01cc A3010000 		.4byte	0x1a3
 1494 01d0 0F       		.uleb128 0xf
 1495 01d1 86000000 		.4byte	0x86
 1496 01d5 E0010000 		.4byte	0x1e0
 1497 01d9 10       		.uleb128 0x10
 1498 01da 3B000000 		.4byte	0x3b
 1499 01de 03       		.byte	0x3
 1500 01df 00       		.byte	0x0
 1501 01e0 06       		.uleb128 0x6
 1502 01e1 74000000 		.4byte	0x74
 1503 01e5 0B       		.uleb128 0xb
 1504 01e6 D7000000 		.4byte	.LASF22
 1505 01ea 20       		.byte	0x20
 1506 01eb 07       		.byte	0x7
 1507 01ec 4E       		.byte	0x4e
 1508 01ed 62020000 		.4byte	0x262
 1509 01f1 0C       		.uleb128 0xc
 1510 01f2 05000000 		.4byte	.LASF18
 1511 01f6 07       		.byte	0x7
 1512 01f7 4F       		.byte	0x4f
 1513 01f8 62010000 		.4byte	0x162
 1514 01fc 02       		.byte	0x2
 1515 01fd 23       		.byte	0x23
 1516 01fe 00       		.uleb128 0x0
 1517 01ff 0C       		.uleb128 0xc
 1518 0200 29010000 		.4byte	.LASF19
 1519 0204 07       		.byte	0x7
 1520 0205 4F       		.byte	0x4f
 1521 0206 82010000 		.4byte	0x182
 1522 020a 02       		.byte	0x2
 1523 020b 23       		.byte	0x23
 1524 020c 04       		.uleb128 0x4
 1525 020d 0D       		.uleb128 0xd
 1526 020e 70757400 		.ascii	"put\000"
 1527 0212 07       		.byte	0x7
 1528 0213 4F       		.byte	0x4f
 1529 0214 9D010000 		.4byte	0x19d
 1530 0218 02       		.byte	0x2
 1531 0219 23       		.byte	0x23
 1532 021a 08       		.uleb128 0x8
 1533 021b 0D       		.uleb128 0xd
 1534 021c 67657400 		.ascii	"get\000"
 1535 0220 07       		.byte	0x7
 1536 0221 4F       		.byte	0x4f
 1537 0222 DC000000 		.4byte	0xdc
 1538 0226 02       		.byte	0x2
 1539 0227 23       		.byte	0x23
 1540 0228 0C       		.uleb128 0xc
 1541 0229 0C       		.uleb128 0xc
 1542 022a 39020000 		.4byte	.LASF23
 1543 022e 07       		.byte	0x7
ARM GAS  C:\Users\DNIEL~1\AppData\Local\Temp\ccyAEJOe.s 			page 30


 1544 022f 4F       		.byte	0x4f
 1545 0230 7C020000 		.4byte	0x27c
 1546 0234 02       		.byte	0x2
 1547 0235 23       		.byte	0x23
 1548 0236 10       		.uleb128 0x10
 1549 0237 0C       		.uleb128 0xc
 1550 0238 9A020000 		.4byte	.LASF24
 1551 023c 07       		.byte	0x7
 1552 023d 4F       		.byte	0x4f
 1553 023e 97020000 		.4byte	0x297
 1554 0242 02       		.byte	0x2
 1555 0243 23       		.byte	0x23
 1556 0244 14       		.uleb128 0x14
 1557 0245 0C       		.uleb128 0xc
 1558 0246 B6000000 		.4byte	.LASF25
 1559 024a 07       		.byte	0x7
 1560 024b 4F       		.byte	0x4f
 1561 024c BC020000 		.4byte	0x2bc
 1562 0250 02       		.byte	0x2
 1563 0251 23       		.byte	0x23
 1564 0252 18       		.uleb128 0x18
 1565 0253 0C       		.uleb128 0xc
 1566 0254 6F020000 		.4byte	.LASF26
 1567 0258 07       		.byte	0x7
 1568 0259 4F       		.byte	0x4f
 1569 025a E1020000 		.4byte	0x2e1
 1570 025e 02       		.byte	0x2
 1571 025f 23       		.byte	0x23
 1572 0260 1C       		.uleb128 0x1c
 1573 0261 00       		.byte	0x0
 1574 0262 09       		.uleb128 0x9
 1575 0263 01       		.byte	0x1
 1576 0264 AD000000 		.4byte	0xad
 1577 0268 7C020000 		.4byte	0x27c
 1578 026c 0A       		.uleb128 0xa
 1579 026d C3000000 		.4byte	0xc3
 1580 0271 0A       		.uleb128 0xa
 1581 0272 49000000 		.4byte	0x49
 1582 0276 0A       		.uleb128 0xa
 1583 0277 B8000000 		.4byte	0xb8
 1584 027b 00       		.byte	0x0
 1585 027c 07       		.uleb128 0x7
 1586 027d 04       		.byte	0x4
 1587 027e 62020000 		.4byte	0x262
 1588 0282 09       		.uleb128 0x9
 1589 0283 01       		.byte	0x1
 1590 0284 AD000000 		.4byte	0xad
 1591 0288 97020000 		.4byte	0x297
 1592 028c 0A       		.uleb128 0xa
 1593 028d C3000000 		.4byte	0xc3
 1594 0291 0A       		.uleb128 0xa
 1595 0292 B8000000 		.4byte	0xb8
 1596 0296 00       		.byte	0x0
 1597 0297 07       		.uleb128 0x7
 1598 0298 04       		.byte	0x4
 1599 0299 82020000 		.4byte	0x282
 1600 029d 09       		.uleb128 0x9
ARM GAS  C:\Users\DNIEL~1\AppData\Local\Temp\ccyAEJOe.s 			page 31


 1601 029e 01       		.byte	0x1
 1602 029f 30000000 		.4byte	0x30
 1603 02a3 BC020000 		.4byte	0x2bc
 1604 02a7 0A       		.uleb128 0xa
 1605 02a8 C3000000 		.4byte	0xc3
 1606 02ac 0A       		.uleb128 0xa
 1607 02ad 57010000 		.4byte	0x157
 1608 02b1 0A       		.uleb128 0xa
 1609 02b2 30000000 		.4byte	0x30
 1610 02b6 0A       		.uleb128 0xa
 1611 02b7 B8000000 		.4byte	0xb8
 1612 02bb 00       		.byte	0x0
 1613 02bc 07       		.uleb128 0x7
 1614 02bd 04       		.byte	0x4
 1615 02be 9D020000 		.4byte	0x29d
 1616 02c2 09       		.uleb128 0x9
 1617 02c3 01       		.byte	0x1
 1618 02c4 30000000 		.4byte	0x30
 1619 02c8 E1020000 		.4byte	0x2e1
 1620 02cc 0A       		.uleb128 0xa
 1621 02cd C3000000 		.4byte	0xc3
 1622 02d1 0A       		.uleb128 0xa
 1623 02d2 F2000000 		.4byte	0xf2
 1624 02d6 0A       		.uleb128 0xa
 1625 02d7 30000000 		.4byte	0x30
 1626 02db 0A       		.uleb128 0xa
 1627 02dc B8000000 		.4byte	0xb8
 1628 02e0 00       		.byte	0x0
 1629 02e1 07       		.uleb128 0x7
 1630 02e2 04       		.byte	0x4
 1631 02e3 C2020000 		.4byte	0x2c2
 1632 02e7 0E       		.uleb128 0xe
 1633 02e8 04       		.byte	0x4
 1634 02e9 07       		.byte	0x7
 1635 02ea 59       		.byte	0x59
 1636 02eb FE020000 		.4byte	0x2fe
 1637 02ef 0D       		.uleb128 0xd
 1638 02f0 766D7400 		.ascii	"vmt\000"
 1639 02f4 07       		.byte	0x7
 1640 02f5 5B       		.byte	0x5b
 1641 02f6 FE020000 		.4byte	0x2fe
 1642 02fa 02       		.byte	0x2
 1643 02fb 23       		.byte	0x23
 1644 02fc 00       		.uleb128 0x0
 1645 02fd 00       		.byte	0x0
 1646 02fe 07       		.uleb128 0x7
 1647 02ff 04       		.byte	0x4
 1648 0300 04030000 		.4byte	0x304
 1649 0304 08       		.uleb128 0x8
 1650 0305 E5010000 		.4byte	0x1e5
 1651 0309 03       		.uleb128 0x3
 1652 030a 8A030000 		.4byte	.LASF27
 1653 030e 07       		.byte	0x7
 1654 030f 5D       		.byte	0x5d
 1655 0310 E7020000 		.4byte	0x2e7
 1656 0314 11       		.uleb128 0x11
 1657 0315 60       		.byte	0x60
ARM GAS  C:\Users\DNIEL~1\AppData\Local\Temp\ccyAEJOe.s 			page 32


 1658 0316 08       		.byte	0x8
 1659 0317 9E01     		.2byte	0x19e
 1660 0319 57040000 		.4byte	0x457
 1661 031d 12       		.uleb128 0x12
 1662 031e 43523100 		.ascii	"CR1\000"
 1663 0322 08       		.byte	0x8
 1664 0323 9F01     		.2byte	0x19f
 1665 0325 C5000000 		.4byte	0xc5
 1666 0329 02       		.byte	0x2
 1667 032a 23       		.byte	0x23
 1668 032b 00       		.uleb128 0x0
 1669 032c 12       		.uleb128 0x12
 1670 032d 43523200 		.ascii	"CR2\000"
 1671 0331 08       		.byte	0x8
 1672 0332 A001     		.2byte	0x1a0
 1673 0334 C5000000 		.4byte	0xc5
 1674 0338 02       		.byte	0x2
 1675 0339 23       		.byte	0x23
 1676 033a 04       		.uleb128 0x4
 1677 033b 13       		.uleb128 0x13
 1678 033c 96010000 		.4byte	.LASF28
 1679 0340 08       		.byte	0x8
 1680 0341 A101     		.2byte	0x1a1
 1681 0343 C5000000 		.4byte	0xc5
 1682 0347 02       		.byte	0x2
 1683 0348 23       		.byte	0x23
 1684 0349 08       		.uleb128 0x8
 1685 034a 13       		.uleb128 0x13
 1686 034b 3E020000 		.4byte	.LASF29
 1687 034f 08       		.byte	0x8
 1688 0350 A201     		.2byte	0x1a2
 1689 0352 C5000000 		.4byte	0xc5
 1690 0356 02       		.byte	0x2
 1691 0357 23       		.byte	0x23
 1692 0358 0C       		.uleb128 0xc
 1693 0359 12       		.uleb128 0x12
 1694 035a 535200   		.ascii	"SR\000"
 1695 035d 08       		.byte	0x8
 1696 035e A301     		.2byte	0x1a3
 1697 0360 C5000000 		.4byte	0xc5
 1698 0364 02       		.byte	0x2
 1699 0365 23       		.byte	0x23
 1700 0366 10       		.uleb128 0x10
 1701 0367 12       		.uleb128 0x12
 1702 0368 45475200 		.ascii	"EGR\000"
 1703 036c 08       		.byte	0x8
 1704 036d A401     		.2byte	0x1a4
 1705 036f C5000000 		.4byte	0xc5
 1706 0373 02       		.byte	0x2
 1707 0374 23       		.byte	0x23
 1708 0375 14       		.uleb128 0x14
 1709 0376 13       		.uleb128 0x13
 1710 0377 3C000000 		.4byte	.LASF30
 1711 037b 08       		.byte	0x8
 1712 037c A501     		.2byte	0x1a5
 1713 037e C5000000 		.4byte	0xc5
 1714 0382 02       		.byte	0x2
ARM GAS  C:\Users\DNIEL~1\AppData\Local\Temp\ccyAEJOe.s 			page 33


 1715 0383 23       		.byte	0x23
 1716 0384 18       		.uleb128 0x18
 1717 0385 13       		.uleb128 0x13
 1718 0386 2A000000 		.4byte	.LASF31
 1719 038a 08       		.byte	0x8
 1720 038b A601     		.2byte	0x1a6
 1721 038d C5000000 		.4byte	0xc5
 1722 0391 02       		.byte	0x2
 1723 0392 23       		.byte	0x23
 1724 0393 1C       		.uleb128 0x1c
 1725 0394 13       		.uleb128 0x13
 1726 0395 00000000 		.4byte	.LASF32
 1727 0399 08       		.byte	0x8
 1728 039a A701     		.2byte	0x1a7
 1729 039c C5000000 		.4byte	0xc5
 1730 03a0 02       		.byte	0x2
 1731 03a1 23       		.byte	0x23
 1732 03a2 20       		.uleb128 0x20
 1733 03a3 12       		.uleb128 0x12
 1734 03a4 434E5400 		.ascii	"CNT\000"
 1735 03a8 08       		.byte	0x8
 1736 03a9 A801     		.2byte	0x1a8
 1737 03ab C5000000 		.4byte	0xc5
 1738 03af 02       		.byte	0x2
 1739 03b0 23       		.byte	0x23
 1740 03b1 24       		.uleb128 0x24
 1741 03b2 12       		.uleb128 0x12
 1742 03b3 50534300 		.ascii	"PSC\000"
 1743 03b7 08       		.byte	0x8
 1744 03b8 A901     		.2byte	0x1a9
 1745 03ba C5000000 		.4byte	0xc5
 1746 03be 02       		.byte	0x2
 1747 03bf 23       		.byte	0x23
 1748 03c0 28       		.uleb128 0x28
 1749 03c1 12       		.uleb128 0x12
 1750 03c2 41525200 		.ascii	"ARR\000"
 1751 03c6 08       		.byte	0x8
 1752 03c7 AA01     		.2byte	0x1aa
 1753 03c9 C5000000 		.4byte	0xc5
 1754 03cd 02       		.byte	0x2
 1755 03ce 23       		.byte	0x23
 1756 03cf 2C       		.uleb128 0x2c
 1757 03d0 12       		.uleb128 0x12
 1758 03d1 52435200 		.ascii	"RCR\000"
 1759 03d5 08       		.byte	0x8
 1760 03d6 AB01     		.2byte	0x1ab
 1761 03d8 C5000000 		.4byte	0xc5
 1762 03dc 02       		.byte	0x2
 1763 03dd 23       		.byte	0x23
 1764 03de 30       		.uleb128 0x30
 1765 03df 12       		.uleb128 0x12
 1766 03e0 43435200 		.ascii	"CCR\000"
 1767 03e4 08       		.byte	0x8
 1768 03e5 AC01     		.2byte	0x1ac
 1769 03e7 57040000 		.4byte	0x457
 1770 03eb 02       		.byte	0x2
 1771 03ec 23       		.byte	0x23
ARM GAS  C:\Users\DNIEL~1\AppData\Local\Temp\ccyAEJOe.s 			page 34


 1772 03ed 34       		.uleb128 0x34
 1773 03ee 13       		.uleb128 0x13
 1774 03ef 7E020000 		.4byte	.LASF33
 1775 03f3 08       		.byte	0x8
 1776 03f4 AD01     		.2byte	0x1ad
 1777 03f6 C5000000 		.4byte	0xc5
 1778 03fa 02       		.byte	0x2
 1779 03fb 23       		.byte	0x23
 1780 03fc 44       		.uleb128 0x44
 1781 03fd 12       		.uleb128 0x12
 1782 03fe 44435200 		.ascii	"DCR\000"
 1783 0402 08       		.byte	0x8
 1784 0403 AE01     		.2byte	0x1ae
 1785 0405 C5000000 		.4byte	0xc5
 1786 0409 02       		.byte	0x2
 1787 040a 23       		.byte	0x23
 1788 040b 48       		.uleb128 0x48
 1789 040c 13       		.uleb128 0x13
 1790 040d 11000000 		.4byte	.LASF34
 1791 0411 08       		.byte	0x8
 1792 0412 AF01     		.2byte	0x1af
 1793 0414 C5000000 		.4byte	0xc5
 1794 0418 02       		.byte	0x2
 1795 0419 23       		.byte	0x23
 1796 041a 4C       		.uleb128 0x4c
 1797 041b 12       		.uleb128 0x12
 1798 041c 4F5200   		.ascii	"OR\000"
 1799 041f 08       		.byte	0x8
 1800 0420 B001     		.2byte	0x1b0
 1801 0422 C5000000 		.4byte	0xc5
 1802 0426 02       		.byte	0x2
 1803 0427 23       		.byte	0x23
 1804 0428 50       		.uleb128 0x50
 1805 0429 13       		.uleb128 0x13
 1806 042a 30000000 		.4byte	.LASF35
 1807 042e 08       		.byte	0x8
 1808 042f B101     		.2byte	0x1b1
 1809 0431 C5000000 		.4byte	0xc5
 1810 0435 02       		.byte	0x2
 1811 0436 23       		.byte	0x23
 1812 0437 54       		.uleb128 0x54
 1813 0438 13       		.uleb128 0x13
 1814 0439 B4010000 		.4byte	.LASF36
 1815 043d 08       		.byte	0x8
 1816 043e B201     		.2byte	0x1b2
 1817 0440 C5000000 		.4byte	0xc5
 1818 0444 02       		.byte	0x2
 1819 0445 23       		.byte	0x23
 1820 0446 58       		.uleb128 0x58
 1821 0447 13       		.uleb128 0x13
 1822 0448 51010000 		.4byte	.LASF37
 1823 044c 08       		.byte	0x8
 1824 044d B301     		.2byte	0x1b3
 1825 044f C5000000 		.4byte	0xc5
 1826 0453 02       		.byte	0x2
 1827 0454 23       		.byte	0x23
 1828 0455 5C       		.uleb128 0x5c
ARM GAS  C:\Users\DNIEL~1\AppData\Local\Temp\ccyAEJOe.s 			page 35


 1829 0456 00       		.byte	0x0
 1830 0457 06       		.uleb128 0x6
 1831 0458 D0010000 		.4byte	0x1d0
 1832 045c 14       		.uleb128 0x14
 1833 045d F8000000 		.4byte	.LASF38
 1834 0461 08       		.byte	0x8
 1835 0462 B401     		.2byte	0x1b4
 1836 0464 14030000 		.4byte	0x314
 1837 0468 07       		.uleb128 0x7
 1838 0469 04       		.byte	0x4
 1839 046a 5C040000 		.4byte	0x45c
 1840 046e 15       		.uleb128 0x15
 1841 046f 01       		.byte	0x1
 1842 0470 09       		.byte	0x9
 1843 0471 55       		.byte	0x55
 1844 0472 89040000 		.4byte	0x489
 1845 0476 16       		.uleb128 0x16
 1846 0477 9B010000 		.4byte	.LASF39
 1847 047b 00       		.sleb128 0
 1848 047c 16       		.uleb128 0x16
 1849 047d 3A030000 		.4byte	.LASF40
 1850 0481 01       		.sleb128 1
 1851 0482 16       		.uleb128 0x16
 1852 0483 29030000 		.4byte	.LASF41
 1853 0487 02       		.sleb128 2
 1854 0488 00       		.byte	0x0
 1855 0489 03       		.uleb128 0x3
 1856 048a E6020000 		.4byte	.LASF42
 1857 048e 09       		.byte	0x9
 1858 048f 59       		.byte	0x59
 1859 0490 6E040000 		.4byte	0x46e
 1860 0494 03       		.uleb128 0x3
 1861 0495 22020000 		.4byte	.LASF43
 1862 0499 09       		.byte	0x9
 1863 049a 5E       		.byte	0x5e
 1864 049b 9F040000 		.4byte	0x49f
 1865 049f 17       		.uleb128 0x17
 1866 04a0 22020000 		.4byte	.LASF43
 1867 04a4 14       		.byte	0x14
 1868 04a5 0A       		.byte	0xa
 1869 04a6 6F01     		.2byte	0x16f
 1870 04a8 F8040000 		.4byte	0x4f8
 1871 04ac 13       		.uleb128 0x13
 1872 04ad 24000000 		.4byte	.LASF44
 1873 04b1 0A       		.byte	0xa
 1874 04b2 7301     		.2byte	0x173
 1875 04b4 89040000 		.4byte	0x489
 1876 04b8 02       		.byte	0x2
 1877 04b9 23       		.byte	0x23
 1878 04ba 00       		.uleb128 0x0
 1879 04bb 13       		.uleb128 0x13
 1880 04bc C7000000 		.4byte	.LASF45
 1881 04c0 0A       		.byte	0xa
 1882 04c1 7701     		.2byte	0x177
 1883 04c3 E7050000 		.4byte	0x5e7
 1884 04c7 02       		.byte	0x2
 1885 04c8 23       		.byte	0x23
ARM GAS  C:\Users\DNIEL~1\AppData\Local\Temp\ccyAEJOe.s 			page 36


 1886 04c9 04       		.uleb128 0x4
 1887 04ca 13       		.uleb128 0x13
 1888 04cb 56010000 		.4byte	.LASF46
 1889 04cf 0A       		.byte	0xa
 1890 04d0 7B01     		.2byte	0x17b
 1891 04d2 27050000 		.4byte	0x527
 1892 04d6 02       		.byte	0x2
 1893 04d7 23       		.byte	0x23
 1894 04d8 08       		.uleb128 0x8
 1895 04d9 13       		.uleb128 0x13
 1896 04da 4B010000 		.4byte	.LASF47
 1897 04de 0A       		.byte	0xa
 1898 04df 8301     		.2byte	0x183
 1899 04e1 86000000 		.4byte	0x86
 1900 04e5 02       		.byte	0x2
 1901 04e6 23       		.byte	0x23
 1902 04e7 0C       		.uleb128 0xc
 1903 04e8 12       		.uleb128 0x12
 1904 04e9 74696D00 		.ascii	"tim\000"
 1905 04ed 0A       		.byte	0xa
 1906 04ee 8701     		.2byte	0x187
 1907 04f0 68040000 		.4byte	0x468
 1908 04f4 02       		.byte	0x2
 1909 04f5 23       		.byte	0x23
 1910 04f6 10       		.uleb128 0x10
 1911 04f7 00       		.byte	0x0
 1912 04f8 03       		.uleb128 0x3
 1913 04f9 AD030000 		.4byte	.LASF48
 1914 04fd 09       		.byte	0x9
 1915 04fe 65       		.byte	0x65
 1916 04ff 03050000 		.4byte	0x503
 1917 0503 07       		.uleb128 0x7
 1918 0504 04       		.byte	0x4
 1919 0505 09050000 		.4byte	0x509
 1920 0509 18       		.uleb128 0x18
 1921 050a 01       		.byte	0x1
 1922 050b 15050000 		.4byte	0x515
 1923 050f 0A       		.uleb128 0xa
 1924 0510 15050000 		.4byte	0x515
 1925 0514 00       		.byte	0x0
 1926 0515 07       		.uleb128 0x7
 1927 0516 04       		.byte	0x4
 1928 0517 94040000 		.4byte	0x494
 1929 051b 14       		.uleb128 0x14
 1930 051c 96030000 		.4byte	.LASF49
 1931 0520 0A       		.byte	0xa
 1932 0521 2001     		.2byte	0x120
 1933 0523 86000000 		.4byte	0x86
 1934 0527 14       		.uleb128 0x14
 1935 0528 49000000 		.4byte	.LASF50
 1936 052c 0A       		.byte	0xa
 1937 052d 2A01     		.2byte	0x12a
 1938 052f 62000000 		.4byte	0x62
 1939 0533 11       		.uleb128 0x11
 1940 0534 08       		.byte	0x8
 1941 0535 0A       		.byte	0xa
 1942 0536 2F01     		.2byte	0x12f
ARM GAS  C:\Users\DNIEL~1\AppData\Local\Temp\ccyAEJOe.s 			page 37


 1943 0538 5B050000 		.4byte	0x55b
 1944 053c 13       		.uleb128 0x13
 1945 053d 67000000 		.4byte	.LASF51
 1946 0541 0A       		.byte	0xa
 1947 0542 3301     		.2byte	0x133
 1948 0544 1B050000 		.4byte	0x51b
 1949 0548 02       		.byte	0x2
 1950 0549 23       		.byte	0x23
 1951 054a 00       		.uleb128 0x0
 1952 054b 13       		.uleb128 0x13
 1953 054c C1030000 		.4byte	.LASF52
 1954 0550 0A       		.byte	0xa
 1955 0551 3901     		.2byte	0x139
 1956 0553 F8040000 		.4byte	0x4f8
 1957 0557 02       		.byte	0x2
 1958 0558 23       		.byte	0x23
 1959 0559 04       		.uleb128 0x4
 1960 055a 00       		.byte	0x0
 1961 055b 14       		.uleb128 0x14
 1962 055c 67030000 		.4byte	.LASF53
 1963 0560 0A       		.byte	0xa
 1964 0561 3B01     		.2byte	0x13b
 1965 0563 33050000 		.4byte	0x533
 1966 0567 11       		.uleb128 0x11
 1967 0568 34       		.byte	0x34
 1968 0569 0A       		.byte	0xa
 1969 056a 4001     		.2byte	0x140
 1970 056c CB050000 		.4byte	0x5cb
 1971 0570 13       		.uleb128 0x13
 1972 0571 B5020000 		.4byte	.LASF54
 1973 0575 0A       		.byte	0xa
 1974 0576 4601     		.2byte	0x146
 1975 0578 86000000 		.4byte	0x86
 1976 057c 02       		.byte	0x2
 1977 057d 23       		.byte	0x23
 1978 057e 00       		.uleb128 0x0
 1979 057f 13       		.uleb128 0x13
 1980 0580 56010000 		.4byte	.LASF46
 1981 0584 0A       		.byte	0xa
 1982 0585 4C01     		.2byte	0x14c
 1983 0587 27050000 		.4byte	0x527
 1984 058b 02       		.byte	0x2
 1985 058c 23       		.byte	0x23
 1986 058d 04       		.uleb128 0x4
 1987 058e 13       		.uleb128 0x13
 1988 058f C1030000 		.4byte	.LASF52
 1989 0593 0A       		.byte	0xa
 1990 0594 5201     		.2byte	0x152
 1991 0596 F8040000 		.4byte	0x4f8
 1992 059a 02       		.byte	0x2
 1993 059b 23       		.byte	0x23
 1994 059c 08       		.uleb128 0x8
 1995 059d 13       		.uleb128 0x13
 1996 059e CB020000 		.4byte	.LASF55
 1997 05a2 0A       		.byte	0xa
 1998 05a3 5601     		.2byte	0x156
 1999 05a5 CB050000 		.4byte	0x5cb
ARM GAS  C:\Users\DNIEL~1\AppData\Local\Temp\ccyAEJOe.s 			page 38


 2000 05a9 02       		.byte	0x2
 2001 05aa 23       		.byte	0x23
 2002 05ab 0C       		.uleb128 0xc
 2003 05ac 12       		.uleb128 0x12
 2004 05ad 63723200 		.ascii	"cr2\000"
 2005 05b1 0A       		.byte	0xa
 2006 05b2 5C01     		.2byte	0x15c
 2007 05b4 86000000 		.4byte	0x86
 2008 05b8 02       		.byte	0x2
 2009 05b9 23       		.byte	0x23
 2010 05ba 2C       		.uleb128 0x2c
 2011 05bb 13       		.uleb128 0x13
 2012 05bc 43030000 		.4byte	.LASF56
 2013 05c0 0A       		.byte	0xa
 2014 05c1 6901     		.2byte	0x169
 2015 05c3 86000000 		.4byte	0x86
 2016 05c7 02       		.byte	0x2
 2017 05c8 23       		.byte	0x23
 2018 05c9 30       		.uleb128 0x30
 2019 05ca 00       		.byte	0x0
 2020 05cb 0F       		.uleb128 0xf
 2021 05cc 5B050000 		.4byte	0x55b
 2022 05d0 DB050000 		.4byte	0x5db
 2023 05d4 10       		.uleb128 0x10
 2024 05d5 3B000000 		.4byte	0x3b
 2025 05d9 03       		.byte	0x3
 2026 05da 00       		.byte	0x0
 2027 05db 14       		.uleb128 0x14
 2028 05dc EE000000 		.4byte	.LASF57
 2029 05e0 0A       		.byte	0xa
 2030 05e1 6A01     		.2byte	0x16a
 2031 05e3 67050000 		.4byte	0x567
 2032 05e7 07       		.uleb128 0x7
 2033 05e8 04       		.byte	0x4
 2034 05e9 ED050000 		.4byte	0x5ed
 2035 05ed 08       		.uleb128 0x8
 2036 05ee DB050000 		.4byte	0x5db
 2037 05f2 07       		.uleb128 0x7
 2038 05f3 04       		.byte	0x4
 2039 05f4 D5000000 		.4byte	0xd5
 2040 05f8 04       		.uleb128 0x4
 2041 05f9 08       		.byte	0x8
 2042 05fa 04       		.byte	0x4
 2043 05fb F1020000 		.4byte	.LASF58
 2044 05ff 04       		.uleb128 0x4
 2045 0600 04       		.byte	0x4
 2046 0601 04       		.byte	0x4
 2047 0602 13010000 		.4byte	.LASF59
 2048 0606 04       		.uleb128 0x4
 2049 0607 08       		.byte	0x8
 2050 0608 04       		.byte	0x4
 2051 0609 8A010000 		.4byte	.LASF60
 2052 060d 03       		.uleb128 0x3
 2053 060e 58030000 		.4byte	.LASF61
 2054 0612 0B       		.byte	0xb
 2055 0613 28       		.byte	0x28
 2056 0614 18060000 		.4byte	0x618
ARM GAS  C:\Users\DNIEL~1\AppData\Local\Temp\ccyAEJOe.s 			page 39


 2057 0618 0B       		.uleb128 0xb
 2058 0619 3C010000 		.4byte	.LASF62
 2059 061d 04       		.byte	0x4
 2060 061e 0C       		.byte	0xc
 2061 061f 00       		.byte	0x0
 2062 0620 32060000 		.4byte	0x632
 2063 0624 19       		.uleb128 0x19
 2064 0625 FA010000 		.4byte	.LASF93
 2065 0629 C3000000 		.4byte	0xc3
 2066 062d 02       		.byte	0x2
 2067 062e 23       		.byte	0x23
 2068 062f 00       		.uleb128 0x0
 2069 0630 01       		.byte	0x1
 2070 0631 00       		.byte	0x0
 2071 0632 03       		.uleb128 0x3
 2072 0633 AE000000 		.4byte	.LASF63
 2073 0637 0B       		.byte	0xb
 2074 0638 66       		.byte	0x66
 2075 0639 0D060000 		.4byte	0x60d
 2076 063d 0B       		.uleb128 0xb
 2077 063e 2C020000 		.4byte	.LASF64
 2078 0642 06       		.byte	0x6
 2079 0643 02       		.byte	0x2
 2080 0644 0F       		.byte	0xf
 2081 0645 9E060000 		.4byte	0x69e
 2082 0649 0C       		.uleb128 0xc
 2083 064a 48030000 		.4byte	.LASF65
 2084 064e 02       		.byte	0x2
 2085 064f 11       		.byte	0x11
 2086 0650 A6000000 		.4byte	0xa6
 2087 0654 02       		.byte	0x2
 2088 0655 23       		.byte	0x23
 2089 0656 00       		.uleb128 0x0
 2090 0657 0C       		.uleb128 0xc
 2091 0658 0B000000 		.4byte	.LASF66
 2092 065c 02       		.byte	0x2
 2093 065d 12       		.byte	0x12
 2094 065e A6000000 		.4byte	0xa6
 2095 0662 02       		.byte	0x2
 2096 0663 23       		.byte	0x23
 2097 0664 01       		.uleb128 0x1
 2098 0665 0C       		.uleb128 0xc
 2099 0666 43020000 		.4byte	.LASF67
 2100 066a 02       		.byte	0x2
 2101 066b 13       		.byte	0x13
 2102 066c A6000000 		.4byte	0xa6
 2103 0670 02       		.byte	0x2
 2104 0671 23       		.byte	0x23
 2105 0672 02       		.uleb128 0x2
 2106 0673 0C       		.uleb128 0xc
 2107 0674 B9010000 		.4byte	.LASF68
 2108 0678 02       		.byte	0x2
 2109 0679 14       		.byte	0x14
 2110 067a A6000000 		.4byte	0xa6
 2111 067e 02       		.byte	0x2
 2112 067f 23       		.byte	0x23
 2113 0680 03       		.uleb128 0x3
ARM GAS  C:\Users\DNIEL~1\AppData\Local\Temp\ccyAEJOe.s 			page 40


 2114 0681 0C       		.uleb128 0xc
 2115 0682 F8020000 		.4byte	.LASF69
 2116 0686 02       		.byte	0x2
 2117 0687 15       		.byte	0x15
 2118 0688 A6000000 		.4byte	0xa6
 2119 068c 02       		.byte	0x2
 2120 068d 23       		.byte	0x23
 2121 068e 04       		.uleb128 0x4
 2122 068f 0C       		.uleb128 0xc
 2123 0690 CE000000 		.4byte	.LASF70
 2124 0694 02       		.byte	0x2
 2125 0695 16       		.byte	0x16
 2126 0696 A6000000 		.4byte	0xa6
 2127 069a 02       		.byte	0x2
 2128 069b 23       		.byte	0x23
 2129 069c 05       		.uleb128 0x5
 2130 069d 00       		.byte	0x0
 2131 069e 1A       		.uleb128 0x1a
 2132 069f 01       		.byte	0x1
 2133 06a0 6A010000 		.4byte	.LASF83
 2134 06a4 02       		.byte	0x2
 2135 06a5 58       		.byte	0x58
 2136 06a6 01       		.byte	0x1
 2137 06a7 01       		.byte	0x1
 2138 06a8 B8060000 		.4byte	0x6b8
 2139 06ac 1B       		.uleb128 0x1b
 2140 06ad 5D010000 		.4byte	.LASF94
 2141 06b1 02       		.byte	0x2
 2142 06b2 58       		.byte	0x58
 2143 06b3 29000000 		.4byte	0x29
 2144 06b7 00       		.byte	0x0
 2145 06b8 1C       		.uleb128 0x1c
 2146 06b9 A5020000 		.4byte	.LASF95
 2147 06bd 01       		.byte	0x1
 2148 06be 45       		.byte	0x45
 2149 06bf 01       		.byte	0x1
 2150 06c0 00000000 		.4byte	.LFB118
 2151 06c4 1E000000 		.4byte	.LFE118
 2152 06c8 00000000 		.4byte	.LLST0
 2153 06cc FC060000 		.4byte	0x6fc
 2154 06d0 1D       		.uleb128 0x1d
 2155 06d1 63687000 		.ascii	"chp\000"
 2156 06d5 01       		.byte	0x1
 2157 06d6 45       		.byte	0x45
 2158 06d7 FC060000 		.4byte	0x6fc
 2159 06db 38000000 		.4byte	.LLST1
 2160 06df 1E       		.uleb128 0x1e
 2161 06e0 666D7400 		.ascii	"fmt\000"
 2162 06e4 01       		.byte	0x1
 2163 06e5 45       		.byte	0x45
 2164 06e6 CA000000 		.4byte	0xca
 2165 06ea 02       		.byte	0x2
 2166 06eb 91       		.byte	0x91
 2167 06ec 74       		.sleb128 -12
 2168 06ed 1F       		.uleb128 0x1f
 2169 06ee 20       		.uleb128 0x20
 2170 06ef 617000   		.ascii	"ap\000"
ARM GAS  C:\Users\DNIEL~1\AppData\Local\Temp\ccyAEJOe.s 			page 41


 2171 06f2 01       		.byte	0x1
 2172 06f3 46       		.byte	0x46
 2173 06f4 32060000 		.4byte	0x632
 2174 06f8 02       		.byte	0x2
 2175 06f9 91       		.byte	0x91
 2176 06fa 6C       		.sleb128 -20
 2177 06fb 00       		.byte	0x0
 2178 06fc 07       		.uleb128 0x7
 2179 06fd 04       		.byte	0x4
 2180 06fe C5010000 		.4byte	0x1c5
 2181 0702 21       		.uleb128 0x21
 2182 0703 01       		.byte	0x1
 2183 0704 5B020000 		.4byte	.LASF71
 2184 0708 02       		.byte	0x2
 2185 0709 2A       		.byte	0x2a
 2186 070a 01       		.byte	0x1
 2187 070b 00000000 		.4byte	.LFB119
 2188 070f 24000000 		.4byte	.LFE119
 2189 0713 02       		.byte	0x2
 2190 0714 7D       		.byte	0x7d
 2191 0715 00       		.sleb128 0
 2192 0716 22       		.uleb128 0x22
 2193 0717 01       		.byte	0x1
 2194 0718 09010000 		.4byte	.LASF72
 2195 071c 02       		.byte	0x2
 2196 071d 30       		.byte	0x30
 2197 071e 01       		.byte	0x1
 2198 071f 00000000 		.4byte	.LFB120
 2199 0723 B0000000 		.4byte	.LFE120
 2200 0727 4B000000 		.4byte	.LLST2
 2201 072b 23       		.uleb128 0x23
 2202 072c 9E060000 		.4byte	0x69e
 2203 0730 00000000 		.4byte	.LFB121
 2204 0734 54000000 		.4byte	.LFE121
 2205 0738 6B000000 		.4byte	.LLST3
 2206 073c 4A070000 		.4byte	0x74a
 2207 0740 24       		.uleb128 0x24
 2208 0741 AC060000 		.4byte	0x6ac
 2209 0745 8B000000 		.4byte	.LLST4
 2210 0749 00       		.byte	0x0
 2211 074a 25       		.uleb128 0x25
 2212 074b 01       		.byte	0x1
 2213 074c 1C030000 		.4byte	.LASF73
 2214 0750 02       		.byte	0x2
 2215 0751 62       		.byte	0x62
 2216 0752 00000000 		.4byte	.LFB122
 2217 0756 10000000 		.4byte	.LFE122
 2218 075a 02       		.byte	0x2
 2219 075b 7D       		.byte	0x7d
 2220 075c 00       		.sleb128 0
 2221 075d 71070000 		.4byte	0x771
 2222 0761 26       		.uleb128 0x26
 2223 0762 01       		.byte	0x1
 2224 0763 08020000 		.4byte	.LASF75
 2225 0767 02       		.byte	0x2
 2226 0768 64       		.byte	0x64
 2227 0769 29000000 		.4byte	0x29
ARM GAS  C:\Users\DNIEL~1\AppData\Local\Temp\ccyAEJOe.s 			page 42


 2228 076d 01       		.byte	0x1
 2229 076e 1F       		.uleb128 0x1f
 2230 076f 00       		.byte	0x0
 2231 0770 00       		.byte	0x0
 2232 0771 25       		.uleb128 0x25
 2233 0772 01       		.byte	0x1
 2234 0773 16000000 		.4byte	.LASF74
 2235 0777 02       		.byte	0x2
 2236 0778 66       		.byte	0x66
 2237 0779 00000000 		.4byte	.LFB123
 2238 077d 10000000 		.4byte	.LFE123
 2239 0781 02       		.byte	0x2
 2240 0782 7D       		.byte	0x7d
 2241 0783 00       		.sleb128 0
 2242 0784 98070000 		.4byte	0x798
 2243 0788 26       		.uleb128 0x26
 2244 0789 01       		.byte	0x1
 2245 078a 78030000 		.4byte	.LASF76
 2246 078e 02       		.byte	0x2
 2247 078f 68       		.byte	0x68
 2248 0790 29000000 		.4byte	0x29
 2249 0794 01       		.byte	0x1
 2250 0795 1F       		.uleb128 0x1f
 2251 0796 00       		.byte	0x0
 2252 0797 00       		.byte	0x0
 2253 0798 27       		.uleb128 0x27
 2254 0799 01       		.byte	0x1
 2255 079a 9F000000 		.4byte	.LASF77
 2256 079e 02       		.byte	0x2
 2257 079f 6B       		.byte	0x6b
 2258 07a0 00000000 		.4byte	.LFB124
 2259 07a4 24000000 		.4byte	.LFE124
 2260 07a8 AB000000 		.4byte	.LLST5
 2261 07ac 27       		.uleb128 0x27
 2262 07ad 01       		.byte	0x1
 2263 07ae 19010000 		.4byte	.LASF78
 2264 07b2 02       		.byte	0x2
 2265 07b3 70       		.byte	0x70
 2266 07b4 00000000 		.4byte	.LFB125
 2267 07b8 20000000 		.4byte	.LFE125
 2268 07bc CB000000 		.4byte	.LLST6
 2269 07c0 28       		.uleb128 0x28
 2270 07c1 01       		.byte	0x1
 2271 07c2 00030000 		.4byte	.LASF81
 2272 07c6 02       		.byte	0x2
 2273 07c7 76       		.byte	0x76
 2274 07c8 01       		.byte	0x1
 2275 07c9 00000000 		.4byte	.LFB126
 2276 07cd 94000000 		.4byte	.LFE126
 2277 07d1 EB000000 		.4byte	.LLST7
 2278 07d5 07080000 		.4byte	0x807
 2279 07d9 1D       		.uleb128 0x1d
 2280 07da 63687000 		.ascii	"chp\000"
 2281 07de 02       		.byte	0x2
 2282 07df 76       		.byte	0x76
 2283 07e0 FC060000 		.4byte	0x6fc
 2284 07e4 0B010000 		.4byte	.LLST8
ARM GAS  C:\Users\DNIEL~1\AppData\Local\Temp\ccyAEJOe.s 			page 43


 2285 07e8 29       		.uleb128 0x29
 2286 07e9 04010000 		.4byte	.LASF79
 2287 07ed 02       		.byte	0x2
 2288 07ee 76       		.byte	0x76
 2289 07ef 29000000 		.4byte	0x29
 2290 07f3 29010000 		.4byte	.LLST9
 2291 07f7 29       		.uleb128 0x29
 2292 07f8 85010000 		.4byte	.LASF80
 2293 07fc 02       		.byte	0x2
 2294 07fd 76       		.byte	0x76
 2295 07fe 07080000 		.4byte	0x807
 2296 0802 3C010000 		.4byte	.LLST10
 2297 0806 00       		.byte	0x0
 2298 0807 07       		.uleb128 0x7
 2299 0808 04       		.byte	0x4
 2300 0809 F2050000 		.4byte	0x5f2
 2301 080d 28       		.uleb128 0x28
 2302 080e 01       		.byte	0x1
 2303 080f 8B020000 		.4byte	.LASF82
 2304 0813 02       		.byte	0x2
 2305 0814 88       		.byte	0x88
 2306 0815 01       		.byte	0x1
 2307 0816 00000000 		.4byte	.LFB127
 2308 081a 0C020000 		.4byte	.LFE127
 2309 081e 4F010000 		.4byte	.LLST11
 2310 0822 E8080000 		.4byte	0x8e8
 2311 0826 1D       		.uleb128 0x1d
 2312 0827 63687000 		.ascii	"chp\000"
 2313 082b 02       		.byte	0x2
 2314 082c 88       		.byte	0x88
 2315 082d FC060000 		.4byte	0x6fc
 2316 0831 6F010000 		.4byte	.LLST12
 2317 0835 29       		.uleb128 0x29
 2318 0836 04010000 		.4byte	.LASF79
 2319 083a 02       		.byte	0x2
 2320 083b 88       		.byte	0x88
 2321 083c 29000000 		.4byte	0x29
 2322 0840 8D010000 		.4byte	.LLST13
 2323 0844 29       		.uleb128 0x29
 2324 0845 85010000 		.4byte	.LASF80
 2325 0849 02       		.byte	0x2
 2326 084a 88       		.byte	0x88
 2327 084b 07080000 		.4byte	0x807
 2328 084f AB010000 		.4byte	.LLST14
 2329 0853 2A       		.uleb128 0x2a
 2330 0854 64010000 		.4byte	.LASF96
 2331 0858 02       		.byte	0x2
 2332 0859 CC       		.byte	0xcc
 2333 085a 28000000 		.4byte	.L40
 2334 085e 2B       		.uleb128 0x2b
 2335 085f 00000000 		.4byte	.Ldebug_ranges0+0x0
 2336 0863 2C       		.uleb128 0x2c
 2337 0864 01       		.byte	0x1
 2338 0865 33030000 		.4byte	.LASF84
 2339 0869 0C       		.byte	0xc
 2340 086a 00       		.byte	0x0
 2341 086b 29000000 		.4byte	0x29
ARM GAS  C:\Users\DNIEL~1\AppData\Local\Temp\ccyAEJOe.s 			page 44


 2342 086f 01       		.byte	0x1
 2343 0870 76080000 		.4byte	0x876
 2344 0874 1F       		.uleb128 0x1f
 2345 0875 00       		.byte	0x0
 2346 0876 2D       		.uleb128 0x2d
 2347 0877 9E060000 		.4byte	0x69e
 2348 087b 6C010000 		.4byte	.LBB12
 2349 087f 82010000 		.4byte	.LBE12
 2350 0883 02       		.byte	0x2
 2351 0884 A1       		.byte	0xa1
 2352 0885 93080000 		.4byte	0x893
 2353 0889 24       		.uleb128 0x24
 2354 088a AC060000 		.4byte	0x6ac
 2355 088e D4010000 		.4byte	.LLST15
 2356 0892 00       		.byte	0x0
 2357 0893 2E       		.uleb128 0x2e
 2358 0894 9E060000 		.4byte	0x69e
 2359 0898 44010000 		.4byte	.LBB15
 2360 089c 30000000 		.4byte	.Ldebug_ranges0+0x30
 2361 08a0 02       		.byte	0x2
 2362 08a1 9A       		.byte	0x9a
 2363 08a2 B0080000 		.4byte	0x8b0
 2364 08a6 24       		.uleb128 0x24
 2365 08a7 AC060000 		.4byte	0x6ac
 2366 08ab E8010000 		.4byte	.LLST16
 2367 08af 00       		.byte	0x0
 2368 08b0 2D       		.uleb128 0x2d
 2369 08b1 9E060000 		.4byte	0x69e
 2370 08b5 3C010000 		.4byte	.LBB18
 2371 08b9 44010000 		.4byte	.LBE18
 2372 08bd 02       		.byte	0x2
 2373 08be 93       		.byte	0x93
 2374 08bf CD080000 		.4byte	0x8cd
 2375 08c3 24       		.uleb128 0x24
 2376 08c4 AC060000 		.4byte	0x6ac
 2377 08c8 FC010000 		.4byte	.LLST17
 2378 08cc 00       		.byte	0x0
 2379 08cd 2F       		.uleb128 0x2f
 2380 08ce 9E060000 		.4byte	0x69e
 2381 08d2 EA000000 		.4byte	.LBB20
 2382 08d6 04010000 		.4byte	.LBE20
 2383 08da 02       		.byte	0x2
 2384 08db C3       		.byte	0xc3
 2385 08dc 24       		.uleb128 0x24
 2386 08dd AC060000 		.4byte	0x6ac
 2387 08e1 10020000 		.4byte	.LLST18
 2388 08e5 00       		.byte	0x0
 2389 08e6 00       		.byte	0x0
 2390 08e7 00       		.byte	0x0
 2391 08e8 30       		.uleb128 0x30
 2392 08e9 A0030000 		.4byte	.LASF85
 2393 08ed 0D       		.byte	0xd
 2394 08ee 9806     		.2byte	0x698
 2395 08f0 E0010000 		.4byte	0x1e0
 2396 08f4 01       		.byte	0x1
 2397 08f5 01       		.byte	0x1
 2398 08f6 30       		.uleb128 0x30
ARM GAS  C:\Users\DNIEL~1\AppData\Local\Temp\ccyAEJOe.s 			page 45


 2399 08f7 36000000 		.4byte	.LASF86
 2400 08fb 0A       		.byte	0xa
 2401 08fc BF01     		.2byte	0x1bf
 2402 08fe 94040000 		.4byte	0x494
 2403 0902 01       		.byte	0x1
 2404 0903 01       		.byte	0x1
 2405 0904 31       		.uleb128 0x31
 2406 0905 78010000 		.4byte	.LASF87
 2407 0909 02       		.byte	0x2
 2408 090a 17       		.byte	0x17
 2409 090b 3D060000 		.4byte	0x63d
 2410 090f 05       		.byte	0x5
 2411 0910 03       		.byte	0x3
 2412 0911 00000000 		.4byte	lightchanels
 2413 0915 31       		.uleb128 0x31
 2414 0916 AE020000 		.4byte	.LASF88
 2415 091a 02       		.byte	0x2
 2416 091b 19       		.byte	0x19
 2417 091c DB050000 		.4byte	0x5db
 2418 0920 05       		.byte	0x5
 2419 0921 03       		.byte	0x3
 2420 0922 00000000 		.4byte	pwmcfg
 2421 0926 31       		.uleb128 0x31
 2422 0927 56010000 		.4byte	.LASF46
 2423 092b 02       		.byte	0x2
 2424 092c 27       		.byte	0x27
 2425 092d 29000000 		.4byte	0x29
 2426 0931 05       		.byte	0x5
 2427 0932 03       		.byte	0x3
 2428 0933 00000000 		.4byte	period
 2429 0937 31       		.uleb128 0x31
 2430 0938 19020000 		.4byte	.LASF89
 2431 093c 02       		.byte	0x2
 2432 093d 28       		.byte	0x28
 2433 093e A6000000 		.4byte	0xa6
 2434 0942 05       		.byte	0x5
 2435 0943 03       		.byte	0x3
 2436 0944 00000000 		.4byte	flashing
 2437 0948 30       		.uleb128 0x30
 2438 0949 A0030000 		.4byte	.LASF85
 2439 094d 0D       		.byte	0xd
 2440 094e 9806     		.2byte	0x698
 2441 0950 E0010000 		.4byte	0x1e0
 2442 0954 01       		.byte	0x1
 2443 0955 01       		.byte	0x1
 2444 0956 30       		.uleb128 0x30
 2445 0957 36000000 		.4byte	.LASF86
 2446 095b 0A       		.byte	0xa
 2447 095c BF01     		.2byte	0x1bf
 2448 095e 94040000 		.4byte	0x494
 2449 0962 01       		.byte	0x1
 2450 0963 01       		.byte	0x1
 2451 0964 00       		.byte	0x0
 2452              		.section	.debug_abbrev
 2453 0000 01       		.uleb128 0x1
 2454 0001 11       		.uleb128 0x11
 2455 0002 01       		.byte	0x1
ARM GAS  C:\Users\DNIEL~1\AppData\Local\Temp\ccyAEJOe.s 			page 46


 2456 0003 25       		.uleb128 0x25
 2457 0004 0E       		.uleb128 0xe
 2458 0005 13       		.uleb128 0x13
 2459 0006 0B       		.uleb128 0xb
 2460 0007 03       		.uleb128 0x3
 2461 0008 0E       		.uleb128 0xe
 2462 0009 1B       		.uleb128 0x1b
 2463 000a 0E       		.uleb128 0xe
 2464 000b 11       		.uleb128 0x11
 2465 000c 01       		.uleb128 0x1
 2466 000d 52       		.uleb128 0x52
 2467 000e 01       		.uleb128 0x1
 2468 000f 55       		.uleb128 0x55
 2469 0010 06       		.uleb128 0x6
 2470 0011 10       		.uleb128 0x10
 2471 0012 06       		.uleb128 0x6
 2472 0013 00       		.byte	0x0
 2473 0014 00       		.byte	0x0
 2474 0015 02       		.uleb128 0x2
 2475 0016 24       		.uleb128 0x24
 2476 0017 00       		.byte	0x0
 2477 0018 0B       		.uleb128 0xb
 2478 0019 0B       		.uleb128 0xb
 2479 001a 3E       		.uleb128 0x3e
 2480 001b 0B       		.uleb128 0xb
 2481 001c 03       		.uleb128 0x3
 2482 001d 08       		.uleb128 0x8
 2483 001e 00       		.byte	0x0
 2484 001f 00       		.byte	0x0
 2485 0020 03       		.uleb128 0x3
 2486 0021 16       		.uleb128 0x16
 2487 0022 00       		.byte	0x0
 2488 0023 03       		.uleb128 0x3
 2489 0024 0E       		.uleb128 0xe
 2490 0025 3A       		.uleb128 0x3a
 2491 0026 0B       		.uleb128 0xb
 2492 0027 3B       		.uleb128 0x3b
 2493 0028 0B       		.uleb128 0xb
 2494 0029 49       		.uleb128 0x49
 2495 002a 13       		.uleb128 0x13
 2496 002b 00       		.byte	0x0
 2497 002c 00       		.byte	0x0
 2498 002d 04       		.uleb128 0x4
 2499 002e 24       		.uleb128 0x24
 2500 002f 00       		.byte	0x0
 2501 0030 0B       		.uleb128 0xb
 2502 0031 0B       		.uleb128 0xb
 2503 0032 3E       		.uleb128 0x3e
 2504 0033 0B       		.uleb128 0xb
 2505 0034 03       		.uleb128 0x3
 2506 0035 0E       		.uleb128 0xe
 2507 0036 00       		.byte	0x0
 2508 0037 00       		.byte	0x0
 2509 0038 05       		.uleb128 0x5
 2510 0039 0F       		.uleb128 0xf
 2511 003a 00       		.byte	0x0
 2512 003b 0B       		.uleb128 0xb
ARM GAS  C:\Users\DNIEL~1\AppData\Local\Temp\ccyAEJOe.s 			page 47


 2513 003c 0B       		.uleb128 0xb
 2514 003d 00       		.byte	0x0
 2515 003e 00       		.byte	0x0
 2516 003f 06       		.uleb128 0x6
 2517 0040 35       		.uleb128 0x35
 2518 0041 00       		.byte	0x0
 2519 0042 49       		.uleb128 0x49
 2520 0043 13       		.uleb128 0x13
 2521 0044 00       		.byte	0x0
 2522 0045 00       		.byte	0x0
 2523 0046 07       		.uleb128 0x7
 2524 0047 0F       		.uleb128 0xf
 2525 0048 00       		.byte	0x0
 2526 0049 0B       		.uleb128 0xb
 2527 004a 0B       		.uleb128 0xb
 2528 004b 49       		.uleb128 0x49
 2529 004c 13       		.uleb128 0x13
 2530 004d 00       		.byte	0x0
 2531 004e 00       		.byte	0x0
 2532 004f 08       		.uleb128 0x8
 2533 0050 26       		.uleb128 0x26
 2534 0051 00       		.byte	0x0
 2535 0052 49       		.uleb128 0x49
 2536 0053 13       		.uleb128 0x13
 2537 0054 00       		.byte	0x0
 2538 0055 00       		.byte	0x0
 2539 0056 09       		.uleb128 0x9
 2540 0057 15       		.uleb128 0x15
 2541 0058 01       		.byte	0x1
 2542 0059 27       		.uleb128 0x27
 2543 005a 0C       		.uleb128 0xc
 2544 005b 49       		.uleb128 0x49
 2545 005c 13       		.uleb128 0x13
 2546 005d 01       		.uleb128 0x1
 2547 005e 13       		.uleb128 0x13
 2548 005f 00       		.byte	0x0
 2549 0060 00       		.byte	0x0
 2550 0061 0A       		.uleb128 0xa
 2551 0062 05       		.uleb128 0x5
 2552 0063 00       		.byte	0x0
 2553 0064 49       		.uleb128 0x49
 2554 0065 13       		.uleb128 0x13
 2555 0066 00       		.byte	0x0
 2556 0067 00       		.byte	0x0
 2557 0068 0B       		.uleb128 0xb
 2558 0069 13       		.uleb128 0x13
 2559 006a 01       		.byte	0x1
 2560 006b 03       		.uleb128 0x3
 2561 006c 0E       		.uleb128 0xe
 2562 006d 0B       		.uleb128 0xb
 2563 006e 0B       		.uleb128 0xb
 2564 006f 3A       		.uleb128 0x3a
 2565 0070 0B       		.uleb128 0xb
 2566 0071 3B       		.uleb128 0x3b
 2567 0072 0B       		.uleb128 0xb
 2568 0073 01       		.uleb128 0x1
 2569 0074 13       		.uleb128 0x13
ARM GAS  C:\Users\DNIEL~1\AppData\Local\Temp\ccyAEJOe.s 			page 48


 2570 0075 00       		.byte	0x0
 2571 0076 00       		.byte	0x0
 2572 0077 0C       		.uleb128 0xc
 2573 0078 0D       		.uleb128 0xd
 2574 0079 00       		.byte	0x0
 2575 007a 03       		.uleb128 0x3
 2576 007b 0E       		.uleb128 0xe
 2577 007c 3A       		.uleb128 0x3a
 2578 007d 0B       		.uleb128 0xb
 2579 007e 3B       		.uleb128 0x3b
 2580 007f 0B       		.uleb128 0xb
 2581 0080 49       		.uleb128 0x49
 2582 0081 13       		.uleb128 0x13
 2583 0082 38       		.uleb128 0x38
 2584 0083 0A       		.uleb128 0xa
 2585 0084 00       		.byte	0x0
 2586 0085 00       		.byte	0x0
 2587 0086 0D       		.uleb128 0xd
 2588 0087 0D       		.uleb128 0xd
 2589 0088 00       		.byte	0x0
 2590 0089 03       		.uleb128 0x3
 2591 008a 08       		.uleb128 0x8
 2592 008b 3A       		.uleb128 0x3a
 2593 008c 0B       		.uleb128 0xb
 2594 008d 3B       		.uleb128 0x3b
 2595 008e 0B       		.uleb128 0xb
 2596 008f 49       		.uleb128 0x49
 2597 0090 13       		.uleb128 0x13
 2598 0091 38       		.uleb128 0x38
 2599 0092 0A       		.uleb128 0xa
 2600 0093 00       		.byte	0x0
 2601 0094 00       		.byte	0x0
 2602 0095 0E       		.uleb128 0xe
 2603 0096 13       		.uleb128 0x13
 2604 0097 01       		.byte	0x1
 2605 0098 0B       		.uleb128 0xb
 2606 0099 0B       		.uleb128 0xb
 2607 009a 3A       		.uleb128 0x3a
 2608 009b 0B       		.uleb128 0xb
 2609 009c 3B       		.uleb128 0x3b
 2610 009d 0B       		.uleb128 0xb
 2611 009e 01       		.uleb128 0x1
 2612 009f 13       		.uleb128 0x13
 2613 00a0 00       		.byte	0x0
 2614 00a1 00       		.byte	0x0
 2615 00a2 0F       		.uleb128 0xf
 2616 00a3 01       		.uleb128 0x1
 2617 00a4 01       		.byte	0x1
 2618 00a5 49       		.uleb128 0x49
 2619 00a6 13       		.uleb128 0x13
 2620 00a7 01       		.uleb128 0x1
 2621 00a8 13       		.uleb128 0x13
 2622 00a9 00       		.byte	0x0
 2623 00aa 00       		.byte	0x0
 2624 00ab 10       		.uleb128 0x10
 2625 00ac 21       		.uleb128 0x21
 2626 00ad 00       		.byte	0x0
ARM GAS  C:\Users\DNIEL~1\AppData\Local\Temp\ccyAEJOe.s 			page 49


 2627 00ae 49       		.uleb128 0x49
 2628 00af 13       		.uleb128 0x13
 2629 00b0 2F       		.uleb128 0x2f
 2630 00b1 0B       		.uleb128 0xb
 2631 00b2 00       		.byte	0x0
 2632 00b3 00       		.byte	0x0
 2633 00b4 11       		.uleb128 0x11
 2634 00b5 13       		.uleb128 0x13
 2635 00b6 01       		.byte	0x1
 2636 00b7 0B       		.uleb128 0xb
 2637 00b8 0B       		.uleb128 0xb
 2638 00b9 3A       		.uleb128 0x3a
 2639 00ba 0B       		.uleb128 0xb
 2640 00bb 3B       		.uleb128 0x3b
 2641 00bc 05       		.uleb128 0x5
 2642 00bd 01       		.uleb128 0x1
 2643 00be 13       		.uleb128 0x13
 2644 00bf 00       		.byte	0x0
 2645 00c0 00       		.byte	0x0
 2646 00c1 12       		.uleb128 0x12
 2647 00c2 0D       		.uleb128 0xd
 2648 00c3 00       		.byte	0x0
 2649 00c4 03       		.uleb128 0x3
 2650 00c5 08       		.uleb128 0x8
 2651 00c6 3A       		.uleb128 0x3a
 2652 00c7 0B       		.uleb128 0xb
 2653 00c8 3B       		.uleb128 0x3b
 2654 00c9 05       		.uleb128 0x5
 2655 00ca 49       		.uleb128 0x49
 2656 00cb 13       		.uleb128 0x13
 2657 00cc 38       		.uleb128 0x38
 2658 00cd 0A       		.uleb128 0xa
 2659 00ce 00       		.byte	0x0
 2660 00cf 00       		.byte	0x0
 2661 00d0 13       		.uleb128 0x13
 2662 00d1 0D       		.uleb128 0xd
 2663 00d2 00       		.byte	0x0
 2664 00d3 03       		.uleb128 0x3
 2665 00d4 0E       		.uleb128 0xe
 2666 00d5 3A       		.uleb128 0x3a
 2667 00d6 0B       		.uleb128 0xb
 2668 00d7 3B       		.uleb128 0x3b
 2669 00d8 05       		.uleb128 0x5
 2670 00d9 49       		.uleb128 0x49
 2671 00da 13       		.uleb128 0x13
 2672 00db 38       		.uleb128 0x38
 2673 00dc 0A       		.uleb128 0xa
 2674 00dd 00       		.byte	0x0
 2675 00de 00       		.byte	0x0
 2676 00df 14       		.uleb128 0x14
 2677 00e0 16       		.uleb128 0x16
 2678 00e1 00       		.byte	0x0
 2679 00e2 03       		.uleb128 0x3
 2680 00e3 0E       		.uleb128 0xe
 2681 00e4 3A       		.uleb128 0x3a
 2682 00e5 0B       		.uleb128 0xb
 2683 00e6 3B       		.uleb128 0x3b
ARM GAS  C:\Users\DNIEL~1\AppData\Local\Temp\ccyAEJOe.s 			page 50


 2684 00e7 05       		.uleb128 0x5
 2685 00e8 49       		.uleb128 0x49
 2686 00e9 13       		.uleb128 0x13
 2687 00ea 00       		.byte	0x0
 2688 00eb 00       		.byte	0x0
 2689 00ec 15       		.uleb128 0x15
 2690 00ed 04       		.uleb128 0x4
 2691 00ee 01       		.byte	0x1
 2692 00ef 0B       		.uleb128 0xb
 2693 00f0 0B       		.uleb128 0xb
 2694 00f1 3A       		.uleb128 0x3a
 2695 00f2 0B       		.uleb128 0xb
 2696 00f3 3B       		.uleb128 0x3b
 2697 00f4 0B       		.uleb128 0xb
 2698 00f5 01       		.uleb128 0x1
 2699 00f6 13       		.uleb128 0x13
 2700 00f7 00       		.byte	0x0
 2701 00f8 00       		.byte	0x0
 2702 00f9 16       		.uleb128 0x16
 2703 00fa 28       		.uleb128 0x28
 2704 00fb 00       		.byte	0x0
 2705 00fc 03       		.uleb128 0x3
 2706 00fd 0E       		.uleb128 0xe
 2707 00fe 1C       		.uleb128 0x1c
 2708 00ff 0D       		.uleb128 0xd
 2709 0100 00       		.byte	0x0
 2710 0101 00       		.byte	0x0
 2711 0102 17       		.uleb128 0x17
 2712 0103 13       		.uleb128 0x13
 2713 0104 01       		.byte	0x1
 2714 0105 03       		.uleb128 0x3
 2715 0106 0E       		.uleb128 0xe
 2716 0107 0B       		.uleb128 0xb
 2717 0108 0B       		.uleb128 0xb
 2718 0109 3A       		.uleb128 0x3a
 2719 010a 0B       		.uleb128 0xb
 2720 010b 3B       		.uleb128 0x3b
 2721 010c 05       		.uleb128 0x5
 2722 010d 01       		.uleb128 0x1
 2723 010e 13       		.uleb128 0x13
 2724 010f 00       		.byte	0x0
 2725 0110 00       		.byte	0x0
 2726 0111 18       		.uleb128 0x18
 2727 0112 15       		.uleb128 0x15
 2728 0113 01       		.byte	0x1
 2729 0114 27       		.uleb128 0x27
 2730 0115 0C       		.uleb128 0xc
 2731 0116 01       		.uleb128 0x1
 2732 0117 13       		.uleb128 0x13
 2733 0118 00       		.byte	0x0
 2734 0119 00       		.byte	0x0
 2735 011a 19       		.uleb128 0x19
 2736 011b 0D       		.uleb128 0xd
 2737 011c 00       		.byte	0x0
 2738 011d 03       		.uleb128 0x3
 2739 011e 0E       		.uleb128 0xe
 2740 011f 49       		.uleb128 0x49
ARM GAS  C:\Users\DNIEL~1\AppData\Local\Temp\ccyAEJOe.s 			page 51


 2741 0120 13       		.uleb128 0x13
 2742 0121 38       		.uleb128 0x38
 2743 0122 0A       		.uleb128 0xa
 2744 0123 34       		.uleb128 0x34
 2745 0124 0C       		.uleb128 0xc
 2746 0125 00       		.byte	0x0
 2747 0126 00       		.byte	0x0
 2748 0127 1A       		.uleb128 0x1a
 2749 0128 2E       		.uleb128 0x2e
 2750 0129 01       		.byte	0x1
 2751 012a 3F       		.uleb128 0x3f
 2752 012b 0C       		.uleb128 0xc
 2753 012c 03       		.uleb128 0x3
 2754 012d 0E       		.uleb128 0xe
 2755 012e 3A       		.uleb128 0x3a
 2756 012f 0B       		.uleb128 0xb
 2757 0130 3B       		.uleb128 0x3b
 2758 0131 0B       		.uleb128 0xb
 2759 0132 27       		.uleb128 0x27
 2760 0133 0C       		.uleb128 0xc
 2761 0134 20       		.uleb128 0x20
 2762 0135 0B       		.uleb128 0xb
 2763 0136 01       		.uleb128 0x1
 2764 0137 13       		.uleb128 0x13
 2765 0138 00       		.byte	0x0
 2766 0139 00       		.byte	0x0
 2767 013a 1B       		.uleb128 0x1b
 2768 013b 05       		.uleb128 0x5
 2769 013c 00       		.byte	0x0
 2770 013d 03       		.uleb128 0x3
 2771 013e 0E       		.uleb128 0xe
 2772 013f 3A       		.uleb128 0x3a
 2773 0140 0B       		.uleb128 0xb
 2774 0141 3B       		.uleb128 0x3b
 2775 0142 0B       		.uleb128 0xb
 2776 0143 49       		.uleb128 0x49
 2777 0144 13       		.uleb128 0x13
 2778 0145 00       		.byte	0x0
 2779 0146 00       		.byte	0x0
 2780 0147 1C       		.uleb128 0x1c
 2781 0148 2E       		.uleb128 0x2e
 2782 0149 01       		.byte	0x1
 2783 014a 03       		.uleb128 0x3
 2784 014b 0E       		.uleb128 0xe
 2785 014c 3A       		.uleb128 0x3a
 2786 014d 0B       		.uleb128 0xb
 2787 014e 3B       		.uleb128 0x3b
 2788 014f 0B       		.uleb128 0xb
 2789 0150 27       		.uleb128 0x27
 2790 0151 0C       		.uleb128 0xc
 2791 0152 11       		.uleb128 0x11
 2792 0153 01       		.uleb128 0x1
 2793 0154 12       		.uleb128 0x12
 2794 0155 01       		.uleb128 0x1
 2795 0156 40       		.uleb128 0x40
 2796 0157 06       		.uleb128 0x6
 2797 0158 01       		.uleb128 0x1
ARM GAS  C:\Users\DNIEL~1\AppData\Local\Temp\ccyAEJOe.s 			page 52


 2798 0159 13       		.uleb128 0x13
 2799 015a 00       		.byte	0x0
 2800 015b 00       		.byte	0x0
 2801 015c 1D       		.uleb128 0x1d
 2802 015d 05       		.uleb128 0x5
 2803 015e 00       		.byte	0x0
 2804 015f 03       		.uleb128 0x3
 2805 0160 08       		.uleb128 0x8
 2806 0161 3A       		.uleb128 0x3a
 2807 0162 0B       		.uleb128 0xb
 2808 0163 3B       		.uleb128 0x3b
 2809 0164 0B       		.uleb128 0xb
 2810 0165 49       		.uleb128 0x49
 2811 0166 13       		.uleb128 0x13
 2812 0167 02       		.uleb128 0x2
 2813 0168 06       		.uleb128 0x6
 2814 0169 00       		.byte	0x0
 2815 016a 00       		.byte	0x0
 2816 016b 1E       		.uleb128 0x1e
 2817 016c 05       		.uleb128 0x5
 2818 016d 00       		.byte	0x0
 2819 016e 03       		.uleb128 0x3
 2820 016f 08       		.uleb128 0x8
 2821 0170 3A       		.uleb128 0x3a
 2822 0171 0B       		.uleb128 0xb
 2823 0172 3B       		.uleb128 0x3b
 2824 0173 0B       		.uleb128 0xb
 2825 0174 49       		.uleb128 0x49
 2826 0175 13       		.uleb128 0x13
 2827 0176 02       		.uleb128 0x2
 2828 0177 0A       		.uleb128 0xa
 2829 0178 00       		.byte	0x0
 2830 0179 00       		.byte	0x0
 2831 017a 1F       		.uleb128 0x1f
 2832 017b 18       		.uleb128 0x18
 2833 017c 00       		.byte	0x0
 2834 017d 00       		.byte	0x0
 2835 017e 00       		.byte	0x0
 2836 017f 20       		.uleb128 0x20
 2837 0180 34       		.uleb128 0x34
 2838 0181 00       		.byte	0x0
 2839 0182 03       		.uleb128 0x3
 2840 0183 08       		.uleb128 0x8
 2841 0184 3A       		.uleb128 0x3a
 2842 0185 0B       		.uleb128 0xb
 2843 0186 3B       		.uleb128 0x3b
 2844 0187 0B       		.uleb128 0xb
 2845 0188 49       		.uleb128 0x49
 2846 0189 13       		.uleb128 0x13
 2847 018a 02       		.uleb128 0x2
 2848 018b 0A       		.uleb128 0xa
 2849 018c 00       		.byte	0x0
 2850 018d 00       		.byte	0x0
 2851 018e 21       		.uleb128 0x21
 2852 018f 2E       		.uleb128 0x2e
 2853 0190 00       		.byte	0x0
 2854 0191 3F       		.uleb128 0x3f
ARM GAS  C:\Users\DNIEL~1\AppData\Local\Temp\ccyAEJOe.s 			page 53


 2855 0192 0C       		.uleb128 0xc
 2856 0193 03       		.uleb128 0x3
 2857 0194 0E       		.uleb128 0xe
 2858 0195 3A       		.uleb128 0x3a
 2859 0196 0B       		.uleb128 0xb
 2860 0197 3B       		.uleb128 0x3b
 2861 0198 0B       		.uleb128 0xb
 2862 0199 27       		.uleb128 0x27
 2863 019a 0C       		.uleb128 0xc
 2864 019b 11       		.uleb128 0x11
 2865 019c 01       		.uleb128 0x1
 2866 019d 12       		.uleb128 0x12
 2867 019e 01       		.uleb128 0x1
 2868 019f 40       		.uleb128 0x40
 2869 01a0 0A       		.uleb128 0xa
 2870 01a1 00       		.byte	0x0
 2871 01a2 00       		.byte	0x0
 2872 01a3 22       		.uleb128 0x22
 2873 01a4 2E       		.uleb128 0x2e
 2874 01a5 00       		.byte	0x0
 2875 01a6 3F       		.uleb128 0x3f
 2876 01a7 0C       		.uleb128 0xc
 2877 01a8 03       		.uleb128 0x3
 2878 01a9 0E       		.uleb128 0xe
 2879 01aa 3A       		.uleb128 0x3a
 2880 01ab 0B       		.uleb128 0xb
 2881 01ac 3B       		.uleb128 0x3b
 2882 01ad 0B       		.uleb128 0xb
 2883 01ae 27       		.uleb128 0x27
 2884 01af 0C       		.uleb128 0xc
 2885 01b0 11       		.uleb128 0x11
 2886 01b1 01       		.uleb128 0x1
 2887 01b2 12       		.uleb128 0x12
 2888 01b3 01       		.uleb128 0x1
 2889 01b4 40       		.uleb128 0x40
 2890 01b5 06       		.uleb128 0x6
 2891 01b6 00       		.byte	0x0
 2892 01b7 00       		.byte	0x0
 2893 01b8 23       		.uleb128 0x23
 2894 01b9 2E       		.uleb128 0x2e
 2895 01ba 01       		.byte	0x1
 2896 01bb 31       		.uleb128 0x31
 2897 01bc 13       		.uleb128 0x13
 2898 01bd 11       		.uleb128 0x11
 2899 01be 01       		.uleb128 0x1
 2900 01bf 12       		.uleb128 0x12
 2901 01c0 01       		.uleb128 0x1
 2902 01c1 40       		.uleb128 0x40
 2903 01c2 06       		.uleb128 0x6
 2904 01c3 01       		.uleb128 0x1
 2905 01c4 13       		.uleb128 0x13
 2906 01c5 00       		.byte	0x0
 2907 01c6 00       		.byte	0x0
 2908 01c7 24       		.uleb128 0x24
 2909 01c8 05       		.uleb128 0x5
 2910 01c9 00       		.byte	0x0
 2911 01ca 31       		.uleb128 0x31
ARM GAS  C:\Users\DNIEL~1\AppData\Local\Temp\ccyAEJOe.s 			page 54


 2912 01cb 13       		.uleb128 0x13
 2913 01cc 02       		.uleb128 0x2
 2914 01cd 06       		.uleb128 0x6
 2915 01ce 00       		.byte	0x0
 2916 01cf 00       		.byte	0x0
 2917 01d0 25       		.uleb128 0x25
 2918 01d1 2E       		.uleb128 0x2e
 2919 01d2 01       		.byte	0x1
 2920 01d3 3F       		.uleb128 0x3f
 2921 01d4 0C       		.uleb128 0xc
 2922 01d5 03       		.uleb128 0x3
 2923 01d6 0E       		.uleb128 0xe
 2924 01d7 3A       		.uleb128 0x3a
 2925 01d8 0B       		.uleb128 0xb
 2926 01d9 3B       		.uleb128 0x3b
 2927 01da 0B       		.uleb128 0xb
 2928 01db 11       		.uleb128 0x11
 2929 01dc 01       		.uleb128 0x1
 2930 01dd 12       		.uleb128 0x12
 2931 01de 01       		.uleb128 0x1
 2932 01df 40       		.uleb128 0x40
 2933 01e0 0A       		.uleb128 0xa
 2934 01e1 01       		.uleb128 0x1
 2935 01e2 13       		.uleb128 0x13
 2936 01e3 00       		.byte	0x0
 2937 01e4 00       		.byte	0x0
 2938 01e5 26       		.uleb128 0x26
 2939 01e6 2E       		.uleb128 0x2e
 2940 01e7 01       		.byte	0x1
 2941 01e8 3F       		.uleb128 0x3f
 2942 01e9 0C       		.uleb128 0xc
 2943 01ea 03       		.uleb128 0x3
 2944 01eb 0E       		.uleb128 0xe
 2945 01ec 3A       		.uleb128 0x3a
 2946 01ed 0B       		.uleb128 0xb
 2947 01ee 3B       		.uleb128 0x3b
 2948 01ef 0B       		.uleb128 0xb
 2949 01f0 49       		.uleb128 0x49
 2950 01f1 13       		.uleb128 0x13
 2951 01f2 3C       		.uleb128 0x3c
 2952 01f3 0C       		.uleb128 0xc
 2953 01f4 00       		.byte	0x0
 2954 01f5 00       		.byte	0x0
 2955 01f6 27       		.uleb128 0x27
 2956 01f7 2E       		.uleb128 0x2e
 2957 01f8 00       		.byte	0x0
 2958 01f9 3F       		.uleb128 0x3f
 2959 01fa 0C       		.uleb128 0xc
 2960 01fb 03       		.uleb128 0x3
 2961 01fc 0E       		.uleb128 0xe
 2962 01fd 3A       		.uleb128 0x3a
 2963 01fe 0B       		.uleb128 0xb
 2964 01ff 3B       		.uleb128 0x3b
 2965 0200 0B       		.uleb128 0xb
 2966 0201 11       		.uleb128 0x11
 2967 0202 01       		.uleb128 0x1
 2968 0203 12       		.uleb128 0x12
ARM GAS  C:\Users\DNIEL~1\AppData\Local\Temp\ccyAEJOe.s 			page 55


 2969 0204 01       		.uleb128 0x1
 2970 0205 40       		.uleb128 0x40
 2971 0206 06       		.uleb128 0x6
 2972 0207 00       		.byte	0x0
 2973 0208 00       		.byte	0x0
 2974 0209 28       		.uleb128 0x28
 2975 020a 2E       		.uleb128 0x2e
 2976 020b 01       		.byte	0x1
 2977 020c 3F       		.uleb128 0x3f
 2978 020d 0C       		.uleb128 0xc
 2979 020e 03       		.uleb128 0x3
 2980 020f 0E       		.uleb128 0xe
 2981 0210 3A       		.uleb128 0x3a
 2982 0211 0B       		.uleb128 0xb
 2983 0212 3B       		.uleb128 0x3b
 2984 0213 0B       		.uleb128 0xb
 2985 0214 27       		.uleb128 0x27
 2986 0215 0C       		.uleb128 0xc
 2987 0216 11       		.uleb128 0x11
 2988 0217 01       		.uleb128 0x1
 2989 0218 12       		.uleb128 0x12
 2990 0219 01       		.uleb128 0x1
 2991 021a 40       		.uleb128 0x40
 2992 021b 06       		.uleb128 0x6
 2993 021c 01       		.uleb128 0x1
 2994 021d 13       		.uleb128 0x13
 2995 021e 00       		.byte	0x0
 2996 021f 00       		.byte	0x0
 2997 0220 29       		.uleb128 0x29
 2998 0221 05       		.uleb128 0x5
 2999 0222 00       		.byte	0x0
 3000 0223 03       		.uleb128 0x3
 3001 0224 0E       		.uleb128 0xe
 3002 0225 3A       		.uleb128 0x3a
 3003 0226 0B       		.uleb128 0xb
 3004 0227 3B       		.uleb128 0x3b
 3005 0228 0B       		.uleb128 0xb
 3006 0229 49       		.uleb128 0x49
 3007 022a 13       		.uleb128 0x13
 3008 022b 02       		.uleb128 0x2
 3009 022c 06       		.uleb128 0x6
 3010 022d 00       		.byte	0x0
 3011 022e 00       		.byte	0x0
 3012 022f 2A       		.uleb128 0x2a
 3013 0230 0A       		.uleb128 0xa
 3014 0231 00       		.byte	0x0
 3015 0232 03       		.uleb128 0x3
 3016 0233 0E       		.uleb128 0xe
 3017 0234 3A       		.uleb128 0x3a
 3018 0235 0B       		.uleb128 0xb
 3019 0236 3B       		.uleb128 0x3b
 3020 0237 0B       		.uleb128 0xb
 3021 0238 11       		.uleb128 0x11
 3022 0239 01       		.uleb128 0x1
 3023 023a 00       		.byte	0x0
 3024 023b 00       		.byte	0x0
 3025 023c 2B       		.uleb128 0x2b
ARM GAS  C:\Users\DNIEL~1\AppData\Local\Temp\ccyAEJOe.s 			page 56


 3026 023d 0B       		.uleb128 0xb
 3027 023e 01       		.byte	0x1
 3028 023f 55       		.uleb128 0x55
 3029 0240 06       		.uleb128 0x6
 3030 0241 00       		.byte	0x0
 3031 0242 00       		.byte	0x0
 3032 0243 2C       		.uleb128 0x2c
 3033 0244 2E       		.uleb128 0x2e
 3034 0245 01       		.byte	0x1
 3035 0246 3F       		.uleb128 0x3f
 3036 0247 0C       		.uleb128 0xc
 3037 0248 03       		.uleb128 0x3
 3038 0249 0E       		.uleb128 0xe
 3039 024a 3A       		.uleb128 0x3a
 3040 024b 0B       		.uleb128 0xb
 3041 024c 3B       		.uleb128 0x3b
 3042 024d 0B       		.uleb128 0xb
 3043 024e 49       		.uleb128 0x49
 3044 024f 13       		.uleb128 0x13
 3045 0250 3C       		.uleb128 0x3c
 3046 0251 0C       		.uleb128 0xc
 3047 0252 01       		.uleb128 0x1
 3048 0253 13       		.uleb128 0x13
 3049 0254 00       		.byte	0x0
 3050 0255 00       		.byte	0x0
 3051 0256 2D       		.uleb128 0x2d
 3052 0257 1D       		.uleb128 0x1d
 3053 0258 01       		.byte	0x1
 3054 0259 31       		.uleb128 0x31
 3055 025a 13       		.uleb128 0x13
 3056 025b 11       		.uleb128 0x11
 3057 025c 01       		.uleb128 0x1
 3058 025d 12       		.uleb128 0x12
 3059 025e 01       		.uleb128 0x1
 3060 025f 58       		.uleb128 0x58
 3061 0260 0B       		.uleb128 0xb
 3062 0261 59       		.uleb128 0x59
 3063 0262 0B       		.uleb128 0xb
 3064 0263 01       		.uleb128 0x1
 3065 0264 13       		.uleb128 0x13
 3066 0265 00       		.byte	0x0
 3067 0266 00       		.byte	0x0
 3068 0267 2E       		.uleb128 0x2e
 3069 0268 1D       		.uleb128 0x1d
 3070 0269 01       		.byte	0x1
 3071 026a 31       		.uleb128 0x31
 3072 026b 13       		.uleb128 0x13
 3073 026c 52       		.uleb128 0x52
 3074 026d 01       		.uleb128 0x1
 3075 026e 55       		.uleb128 0x55
 3076 026f 06       		.uleb128 0x6
 3077 0270 58       		.uleb128 0x58
 3078 0271 0B       		.uleb128 0xb
 3079 0272 59       		.uleb128 0x59
 3080 0273 0B       		.uleb128 0xb
 3081 0274 01       		.uleb128 0x1
 3082 0275 13       		.uleb128 0x13
ARM GAS  C:\Users\DNIEL~1\AppData\Local\Temp\ccyAEJOe.s 			page 57


 3083 0276 00       		.byte	0x0
 3084 0277 00       		.byte	0x0
 3085 0278 2F       		.uleb128 0x2f
 3086 0279 1D       		.uleb128 0x1d
 3087 027a 01       		.byte	0x1
 3088 027b 31       		.uleb128 0x31
 3089 027c 13       		.uleb128 0x13
 3090 027d 11       		.uleb128 0x11
 3091 027e 01       		.uleb128 0x1
 3092 027f 12       		.uleb128 0x12
 3093 0280 01       		.uleb128 0x1
 3094 0281 58       		.uleb128 0x58
 3095 0282 0B       		.uleb128 0xb
 3096 0283 59       		.uleb128 0x59
 3097 0284 0B       		.uleb128 0xb
 3098 0285 00       		.byte	0x0
 3099 0286 00       		.byte	0x0
 3100 0287 30       		.uleb128 0x30
 3101 0288 34       		.uleb128 0x34
 3102 0289 00       		.byte	0x0
 3103 028a 03       		.uleb128 0x3
 3104 028b 0E       		.uleb128 0xe
 3105 028c 3A       		.uleb128 0x3a
 3106 028d 0B       		.uleb128 0xb
 3107 028e 3B       		.uleb128 0x3b
 3108 028f 05       		.uleb128 0x5
 3109 0290 49       		.uleb128 0x49
 3110 0291 13       		.uleb128 0x13
 3111 0292 3F       		.uleb128 0x3f
 3112 0293 0C       		.uleb128 0xc
 3113 0294 3C       		.uleb128 0x3c
 3114 0295 0C       		.uleb128 0xc
 3115 0296 00       		.byte	0x0
 3116 0297 00       		.byte	0x0
 3117 0298 31       		.uleb128 0x31
 3118 0299 34       		.uleb128 0x34
 3119 029a 00       		.byte	0x0
 3120 029b 03       		.uleb128 0x3
 3121 029c 0E       		.uleb128 0xe
 3122 029d 3A       		.uleb128 0x3a
 3123 029e 0B       		.uleb128 0xb
 3124 029f 3B       		.uleb128 0x3b
 3125 02a0 0B       		.uleb128 0xb
 3126 02a1 49       		.uleb128 0x49
 3127 02a2 13       		.uleb128 0x13
 3128 02a3 02       		.uleb128 0x2
 3129 02a4 0A       		.uleb128 0xa
 3130 02a5 00       		.byte	0x0
 3131 02a6 00       		.byte	0x0
 3132 02a7 00       		.byte	0x0
 3133              		.section	.debug_pubnames,"",%progbits
 3134 0000 AD000000 		.4byte	0xad
 3135 0004 0200     		.2byte	0x2
 3136 0006 00000000 		.4byte	.Ldebug_info0
 3137 000a 65090000 		.4byte	0x965
 3138 000e 02070000 		.4byte	0x702
 3139 0012 6C696768 		.ascii	"lightInit\000"
ARM GAS  C:\Users\DNIEL~1\AppData\Local\Temp\ccyAEJOe.s 			page 58


 3139      74496E69 
 3139      7400
 3140 001c 16070000 		.4byte	0x716
 3141 0020 6C696768 		.ascii	"lightCalc\000"
 3141      7443616C 
 3141      6300
 3142 002a 2B070000 		.4byte	0x72b
 3143 002e 6C696768 		.ascii	"lightFlashing\000"
 3143      74466C61 
 3143      7368696E 
 3143      6700
 3144 003c 4A070000 		.4byte	0x74a
 3145 0040 6C696768 		.ascii	"lightBrakeOn\000"
 3145      74427261 
 3145      6B654F6E 
 3145      00
 3146 004d 71070000 		.4byte	0x771
 3147 0051 6C696768 		.ascii	"lightBrakeOff\000"
 3147      74427261 
 3147      6B654F66 
 3147      6600
 3148 005f 98070000 		.4byte	0x798
 3149 0063 6C696768 		.ascii	"lightPosLampOn\000"
 3149      74506F73 
 3149      4C616D70 
 3149      4F6E00
 3150 0072 AC070000 		.4byte	0x7ac
 3151 0076 6C696768 		.ascii	"lightPosLampOff\000"
 3151      74506F73 
 3151      4C616D70 
 3151      4F666600 
 3152 0086 C0070000 		.4byte	0x7c0
 3153 008a 636D645F 		.ascii	"cmd_lightvalues\000"
 3153      6C696768 
 3153      7476616C 
 3153      75657300 
 3154 009a 0D080000 		.4byte	0x80d
 3155 009e 636D645F 		.ascii	"cmd_lightblink\000"
 3155      6C696768 
 3155      74626C69 
 3155      6E6B00
 3156 00ad 00000000 		.4byte	0x0
 3157              		.section	.debug_pubtypes,"",%progbits
 3158 0000 84010000 		.4byte	0x184
 3159 0004 0200     		.2byte	0x2
 3160 0006 00000000 		.4byte	.Ldebug_info0
 3161 000a 65090000 		.4byte	0x965
 3162 000e 30000000 		.4byte	0x30
 3163 0012 73697A65 		.ascii	"size_t\000"
 3163      5F7400
 3164 0019 49000000 		.4byte	0x49
 3165 001d 75696E74 		.ascii	"uint8_t\000"
 3165      385F7400 
 3166 0025 62000000 		.4byte	0x62
 3167 0029 75696E74 		.ascii	"uint16_t\000"
 3167      31365F74 
 3167      00
ARM GAS  C:\Users\DNIEL~1\AppData\Local\Temp\ccyAEJOe.s 			page 59


 3168 0032 74000000 		.4byte	0x74
 3169 0036 696E7433 		.ascii	"int32_t\000"
 3169      325F7400 
 3170 003e 86000000 		.4byte	0x86
 3171 0042 75696E74 		.ascii	"uint32_t\000"
 3171      33325F74 
 3171      00
 3172 004b AD000000 		.4byte	0xad
 3173 004f 6D73675F 		.ascii	"msg_t\000"
 3173      7400
 3174 0055 B8000000 		.4byte	0xb8
 3175 0059 73797374 		.ascii	"systime_t\000"
 3175      696D655F 
 3175      7400
 3176 0063 F8000000 		.4byte	0xf8
 3177 0067 42617365 		.ascii	"BaseSequentialStreamVMT\000"
 3177      53657175 
 3177      656E7469 
 3177      616C5374 
 3177      7265616D 
 3178 007f C5010000 		.4byte	0x1c5
 3179 0083 42617365 		.ascii	"BaseSequentialStream\000"
 3179      53657175 
 3179      656E7469 
 3179      616C5374 
 3179      7265616D 
 3180 0098 E5010000 		.4byte	0x1e5
 3181 009c 42617365 		.ascii	"BaseChannelVMT\000"
 3181      4368616E 
 3181      6E656C56 
 3181      4D5400
 3182 00ab 09030000 		.4byte	0x309
 3183 00af 42617365 		.ascii	"BaseChannel\000"
 3183      4368616E 
 3183      6E656C00 
 3184 00bb 5C040000 		.4byte	0x45c
 3185 00bf 73746D33 		.ascii	"stm32_tim_t\000"
 3185      325F7469 
 3185      6D5F7400 
 3186 00cb 89040000 		.4byte	0x489
 3187 00cf 70776D73 		.ascii	"pwmstate_t\000"
 3187      74617465 
 3187      5F7400
 3188 00da 94040000 		.4byte	0x494
 3189 00de 50574D44 		.ascii	"PWMDriver\000"
 3189      72697665 
 3189      7200
 3190 00e8 F8040000 		.4byte	0x4f8
 3191 00ec 70776D63 		.ascii	"pwmcallback_t\000"
 3191      616C6C62 
 3191      61636B5F 
 3191      7400
 3192 00fa 1B050000 		.4byte	0x51b
 3193 00fe 70776D6D 		.ascii	"pwmmode_t\000"
 3193      6F64655F 
 3193      7400
 3194 0108 27050000 		.4byte	0x527
ARM GAS  C:\Users\DNIEL~1\AppData\Local\Temp\ccyAEJOe.s 			page 60


 3195 010c 70776D63 		.ascii	"pwmcnt_t\000"
 3195      6E745F74 
 3195      00
 3196 0115 5B050000 		.4byte	0x55b
 3197 0119 50574D43 		.ascii	"PWMChannelConfig\000"
 3197      68616E6E 
 3197      656C436F 
 3197      6E666967 
 3197      00
 3198 012a DB050000 		.4byte	0x5db
 3199 012e 50574D43 		.ascii	"PWMConfig\000"
 3199      6F6E6669 
 3199      6700
 3200 0138 9F040000 		.4byte	0x49f
 3201 013c 50574D44 		.ascii	"PWMDriver\000"
 3201      72697665 
 3201      7200
 3202 0146 18060000 		.4byte	0x618
 3203 014a 5F5F7661 		.ascii	"__va_list\000"
 3203      5F6C6973 
 3203      7400
 3204 0154 0D060000 		.4byte	0x60d
 3205 0158 5F5F676E 		.ascii	"__gnuc_va_list\000"
 3205      75635F76 
 3205      615F6C69 
 3205      737400
 3206 0167 32060000 		.4byte	0x632
 3207 016b 76615F6C 		.ascii	"va_list\000"
 3207      69737400 
 3208 0173 3D060000 		.4byte	0x63d
 3209 0177 6C696768 		.ascii	"lightChanels\000"
 3209      74436861 
 3209      6E656C73 
 3209      00
 3210 0184 00000000 		.4byte	0x0
 3211              		.section	.debug_aranges,"",%progbits
 3212 0000 64000000 		.4byte	0x64
 3213 0004 0200     		.2byte	0x2
 3214 0006 00000000 		.4byte	.Ldebug_info0
 3215 000a 04       		.byte	0x4
 3216 000b 00       		.byte	0x0
 3217 000c 0000     		.2byte	0x0
 3218 000e 0000     		.2byte	0x0
 3219 0010 00000000 		.4byte	.LFB118
 3220 0014 1E000000 		.4byte	.LFE118-.LFB118
 3221 0018 00000000 		.4byte	.LFB119
 3222 001c 24000000 		.4byte	.LFE119-.LFB119
 3223 0020 00000000 		.4byte	.LFB120
 3224 0024 B0000000 		.4byte	.LFE120-.LFB120
 3225 0028 00000000 		.4byte	.LFB121
 3226 002c 54000000 		.4byte	.LFE121-.LFB121
 3227 0030 00000000 		.4byte	.LFB122
 3228 0034 10000000 		.4byte	.LFE122-.LFB122
 3229 0038 00000000 		.4byte	.LFB123
 3230 003c 10000000 		.4byte	.LFE123-.LFB123
 3231 0040 00000000 		.4byte	.LFB124
 3232 0044 24000000 		.4byte	.LFE124-.LFB124
ARM GAS  C:\Users\DNIEL~1\AppData\Local\Temp\ccyAEJOe.s 			page 61


 3233 0048 00000000 		.4byte	.LFB125
 3234 004c 20000000 		.4byte	.LFE125-.LFB125
 3235 0050 00000000 		.4byte	.LFB126
 3236 0054 94000000 		.4byte	.LFE126-.LFB126
 3237 0058 00000000 		.4byte	.LFB127
 3238 005c 0C020000 		.4byte	.LFE127-.LFB127
 3239 0060 00000000 		.4byte	0x0
 3240 0064 00000000 		.4byte	0x0
 3241              		.section	.debug_ranges,"",%progbits
 3242              	.Ldebug_ranges0:
 3243 0000 6C000000 		.4byte	.LBB11
 3244 0004 0C010000 		.4byte	.LBE11
 3245 0008 8E010000 		.4byte	.LBB25
 3246 000c 0C020000 		.4byte	.LBE25
 3247 0010 30010000 		.4byte	.LBB24
 3248 0014 8A010000 		.4byte	.LBE24
 3249 0018 20010000 		.4byte	.LBB23
 3250 001c 2C010000 		.4byte	.LBE23
 3251 0020 10010000 		.4byte	.LBB22
 3252 0024 1C010000 		.4byte	.LBE22
 3253 0028 00000000 		.4byte	0x0
 3254 002c 00000000 		.4byte	0x0
 3255 0030 44010000 		.4byte	.LBB15
 3256 0034 52010000 		.4byte	.LBE15
 3257 0038 5A010000 		.4byte	.LBB14
 3258 003c 64010000 		.4byte	.LBE14
 3259 0040 00000000 		.4byte	0x0
 3260 0044 00000000 		.4byte	0x0
 3261 0048 00000000 		.4byte	.LFB118
 3262 004c 1E000000 		.4byte	.LFE118
 3263 0050 00000000 		.4byte	.LFB119
 3264 0054 24000000 		.4byte	.LFE119
 3265 0058 00000000 		.4byte	.LFB120
 3266 005c B0000000 		.4byte	.LFE120
 3267 0060 00000000 		.4byte	.LFB121
 3268 0064 54000000 		.4byte	.LFE121
 3269 0068 00000000 		.4byte	.LFB122
 3270 006c 10000000 		.4byte	.LFE122
 3271 0070 00000000 		.4byte	.LFB123
 3272 0074 10000000 		.4byte	.LFE123
 3273 0078 00000000 		.4byte	.LFB124
 3274 007c 24000000 		.4byte	.LFE124
 3275 0080 00000000 		.4byte	.LFB125
 3276 0084 20000000 		.4byte	.LFE125
 3277 0088 00000000 		.4byte	.LFB126
 3278 008c 94000000 		.4byte	.LFE126
 3279 0090 00000000 		.4byte	.LFB127
 3280 0094 0C020000 		.4byte	.LFE127
 3281 0098 00000000 		.4byte	0x0
 3282 009c 00000000 		.4byte	0x0
 3283              		.section	.debug_str,"MS",%progbits,1
 3284              	.LASF32:
 3285 0000 43434552 		.ascii	"CCER\000"
 3285      00
 3286              	.LASF18:
 3287 0005 77726974 		.ascii	"write\000"
 3287      6500
ARM GAS  C:\Users\DNIEL~1\AppData\Local\Temp\ccyAEJOe.s 			page 62


 3288              	.LASF66:
 3289 000b 72696768 		.ascii	"right\000"
 3289      7400
 3290              	.LASF34:
 3291 0011 444D4152 		.ascii	"DMAR\000"
 3291      00
 3292              	.LASF74:
 3293 0016 6C696768 		.ascii	"lightBrakeOff\000"
 3293      74427261 
 3293      6B654F66 
 3293      6600
 3294              	.LASF44:
 3295 0024 73746174 		.ascii	"state\000"
 3295      6500
 3296              	.LASF31:
 3297 002a 43434D52 		.ascii	"CCMR2\000"
 3297      3200
 3298              	.LASF35:
 3299 0030 43434D52 		.ascii	"CCMR3\000"
 3299      3300
 3300              	.LASF86:
 3301 0036 50574D44 		.ascii	"PWMD4\000"
 3301      3400
 3302              	.LASF30:
 3303 003c 43434D52 		.ascii	"CCMR1\000"
 3303      3100
 3304              	.LASF2:
 3305 0042 73697A65 		.ascii	"size_t\000"
 3305      5F7400
 3306              	.LASF50:
 3307 0049 70776D63 		.ascii	"pwmcnt_t\000"
 3307      6E745F74 
 3307      00
 3308              	.LASF20:
 3309 0052 42617365 		.ascii	"BaseSequentialStream\000"
 3309      53657175 
 3309      656E7469 
 3309      616C5374 
 3309      7265616D 
 3310              	.LASF51:
 3311 0067 6D6F6465 		.ascii	"mode\000"
 3311      00
 3312              	.LASF92:
 3313 006c 433A5C44 		.ascii	"C:\\Dani\\MegaLux\\Repo\\Smarty\\Smarty\\smarty\\fi"
 3313      616E695C 
 3313      4D656761 
 3313      4C75785C 
 3313      5265706F 
 3314 0098 726D7761 		.ascii	"rmware\000"
 3314      726500
 3315              	.LASF77:
 3316 009f 6C696768 		.ascii	"lightPosLampOn\000"
 3316      74506F73 
 3316      4C616D70 
 3316      4F6E00
 3317              	.LASF63:
 3318 00ae 76615F6C 		.ascii	"va_list\000"
ARM GAS  C:\Users\DNIEL~1\AppData\Local\Temp\ccyAEJOe.s 			page 63


 3318      69737400 
 3319              	.LASF25:
 3320 00b6 77726974 		.ascii	"writet\000"
 3320      657400
 3321              	.LASF5:
 3322 00bd 73686F72 		.ascii	"short int\000"
 3322      7420696E 
 3322      7400
 3323              	.LASF45:
 3324 00c7 636F6E66 		.ascii	"config\000"
 3324      696700
 3325              	.LASF70:
 3326 00ce 706F735F 		.ascii	"pos_lamp\000"
 3326      6C616D70 
 3326      00
 3327              	.LASF22:
 3328 00d7 42617365 		.ascii	"BaseChannelVMT\000"
 3328      4368616E 
 3328      6E656C56 
 3328      4D5400
 3329              	.LASF3:
 3330 00e6 75696E74 		.ascii	"uint8_t\000"
 3330      385F7400 
 3331              	.LASF57:
 3332 00ee 50574D43 		.ascii	"PWMConfig\000"
 3332      6F6E6669 
 3332      6700
 3333              	.LASF38:
 3334 00f8 73746D33 		.ascii	"stm32_tim_t\000"
 3334      325F7469 
 3334      6D5F7400 
 3335              	.LASF79:
 3336 0104 61726763 		.ascii	"argc\000"
 3336      00
 3337              	.LASF72:
 3338 0109 6C696768 		.ascii	"lightCalc\000"
 3338      7443616C 
 3338      6300
 3339              	.LASF59:
 3340 0113 666C6F61 		.ascii	"float\000"
 3340      7400
 3341              	.LASF78:
 3342 0119 6C696768 		.ascii	"lightPosLampOff\000"
 3342      74506F73 
 3342      4C616D70 
 3342      4F666600 
 3343              	.LASF19:
 3344 0129 72656164 		.ascii	"read\000"
 3344      00
 3345              	.LASF12:
 3346 012e 6C6F6E67 		.ascii	"long long int\000"
 3346      206C6F6E 
 3346      6720696E 
 3346      7400
 3347              	.LASF62:
 3348 013c 5F5F7661 		.ascii	"__va_list\000"
 3348      5F6C6973 
ARM GAS  C:\Users\DNIEL~1\AppData\Local\Temp\ccyAEJOe.s 			page 64


 3348      7400
 3349              	.LASF17:
 3350 0146 63686172 		.ascii	"char\000"
 3350      00
 3351              	.LASF47:
 3352 014b 636C6F63 		.ascii	"clock\000"
 3352      6B00
 3353              	.LASF37:
 3354 0151 43435236 		.ascii	"CCR6\000"
 3354      00
 3355              	.LASF46:
 3356 0156 70657269 		.ascii	"period\000"
 3356      6F6400
 3357              	.LASF94:
 3358 015d 6368616E 		.ascii	"chanel\000"
 3358      656C00
 3359              	.LASF96:
 3360 0164 4552524F 		.ascii	"ERROR\000"
 3360      5200
 3361              	.LASF83:
 3362 016a 6C696768 		.ascii	"lightFlashing\000"
 3362      74466C61 
 3362      7368696E 
 3362      6700
 3363              	.LASF87:
 3364 0178 6C696768 		.ascii	"lightchanels\000"
 3364      74636861 
 3364      6E656C73 
 3364      00
 3365              	.LASF80:
 3366 0185 61726776 		.ascii	"argv\000"
 3366      00
 3367              	.LASF60:
 3368 018a 6C6F6E67 		.ascii	"long double\000"
 3368      20646F75 
 3368      626C6500 
 3369              	.LASF28:
 3370 0196 534D4352 		.ascii	"SMCR\000"
 3370      00
 3371              	.LASF39:
 3372 019b 50574D5F 		.ascii	"PWM_UNINIT\000"
 3372      554E494E 
 3372      495400
 3373              	.LASF4:
 3374 01a6 756E7369 		.ascii	"unsigned char\000"
 3374      676E6564 
 3374      20636861 
 3374      7200
 3375              	.LASF36:
 3376 01b4 43435235 		.ascii	"CCR5\000"
 3376      00
 3377              	.LASF68:
 3378 01b9 7761726E 		.ascii	"warning\000"
 3378      696E6700 
 3379              	.LASF1:
 3380 01c1 7369676E 		.ascii	"signed char\000"
 3380      65642063 
ARM GAS  C:\Users\DNIEL~1\AppData\Local\Temp\ccyAEJOe.s 			page 65


 3380      68617200 
 3381              	.LASF13:
 3382 01cd 6C6F6E67 		.ascii	"long long unsigned int\000"
 3382      206C6F6E 
 3382      6720756E 
 3382      7369676E 
 3382      65642069 
 3383              	.LASF10:
 3384 01e4 75696E74 		.ascii	"uint32_t\000"
 3384      33325F74 
 3384      00
 3385              	.LASF0:
 3386 01ed 756E7369 		.ascii	"unsigned int\000"
 3386      676E6564 
 3386      20696E74 
 3386      00
 3387              	.LASF93:
 3388 01fa 5F5F6170 		.ascii	"__ap\000"
 3388      00
 3389              	.LASF6:
 3390 01ff 75696E74 		.ascii	"uint16_t\000"
 3390      31365F74 
 3390      00
 3391              	.LASF75:
 3392 0208 63616E5F 		.ascii	"can_lightBreakOn\000"
 3392      6C696768 
 3392      74427265 
 3392      616B4F6E 
 3392      00
 3393              	.LASF89:
 3394 0219 666C6173 		.ascii	"flashing\000"
 3394      68696E67 
 3394      00
 3395              	.LASF43:
 3396 0222 50574D44 		.ascii	"PWMDriver\000"
 3396      72697665 
 3396      7200
 3397              	.LASF64:
 3398 022c 6C696768 		.ascii	"lightChanels\000"
 3398      74436861 
 3398      6E656C73 
 3398      00
 3399              	.LASF23:
 3400 0239 70757474 		.ascii	"putt\000"
 3400      00
 3401              	.LASF29:
 3402 023e 44494552 		.ascii	"DIER\000"
 3402      00
 3403              	.LASF67:
 3404 0243 6C656674 		.ascii	"left\000"
 3404      00
 3405              	.LASF7:
 3406 0248 73686F72 		.ascii	"short unsigned int\000"
 3406      7420756E 
 3406      7369676E 
 3406      65642069 
 3406      6E7400
ARM GAS  C:\Users\DNIEL~1\AppData\Local\Temp\ccyAEJOe.s 			page 66


 3407              	.LASF71:
 3408 025b 6C696768 		.ascii	"lightInit\000"
 3408      74496E69 
 3408      7400
 3409              	.LASF16:
 3410 0265 73797374 		.ascii	"systime_t\000"
 3410      696D655F 
 3410      7400
 3411              	.LASF26:
 3412 026f 72656164 		.ascii	"readt\000"
 3412      7400
 3413              	.LASF9:
 3414 0275 6C6F6E67 		.ascii	"long int\000"
 3414      20696E74 
 3414      00
 3415              	.LASF33:
 3416 027e 42445452 		.ascii	"BDTR\000"
 3416      00
 3417              	.LASF8:
 3418 0283 696E7433 		.ascii	"int32_t\000"
 3418      325F7400 
 3419              	.LASF82:
 3420 028b 636D645F 		.ascii	"cmd_lightblink\000"
 3420      6C696768 
 3420      74626C69 
 3420      6E6B00
 3421              	.LASF24:
 3422 029a 67657474 		.ascii	"gett\000"
 3422      00
 3423              	.LASF14:
 3424 029f 5F426F6F 		.ascii	"_Bool\000"
 3424      6C00
 3425              	.LASF95:
 3426 02a5 63687072 		.ascii	"chprintf\000"
 3426      696E7466 
 3426      00
 3427              	.LASF88:
 3428 02ae 70776D63 		.ascii	"pwmcfg\000"
 3428      666700
 3429              	.LASF54:
 3430 02b5 66726571 		.ascii	"frequency\000"
 3430      75656E63 
 3430      7900
 3431              	.LASF91:
 3432 02bf 7372632F 		.ascii	"src/light.c\000"
 3432      6C696768 
 3432      742E6300 
 3433              	.LASF55:
 3434 02cb 6368616E 		.ascii	"channels\000"
 3434      6E656C73 
 3434      00
 3435              	.LASF11:
 3436 02d4 6C6F6E67 		.ascii	"long unsigned int\000"
 3436      20756E73 
 3436      69676E65 
 3436      6420696E 
 3436      7400
ARM GAS  C:\Users\DNIEL~1\AppData\Local\Temp\ccyAEJOe.s 			page 67


 3437              	.LASF42:
 3438 02e6 70776D73 		.ascii	"pwmstate_t\000"
 3438      74617465 
 3438      5F7400
 3439              	.LASF58:
 3440 02f1 646F7562 		.ascii	"double\000"
 3440      6C6500
 3441              	.LASF69:
 3442 02f8 6272616B 		.ascii	"braking\000"
 3442      696E6700 
 3443              	.LASF81:
 3444 0300 636D645F 		.ascii	"cmd_lightvalues\000"
 3444      6C696768 
 3444      7476616C 
 3444      75657300 
 3445              	.LASF90:
 3446 0310 474E5520 		.ascii	"GNU C 4.5.2\000"
 3446      4320342E 
 3446      352E3200 
 3447              	.LASF73:
 3448 031c 6C696768 		.ascii	"lightBrakeOn\000"
 3448      74427261 
 3448      6B654F6E 
 3448      00
 3449              	.LASF41:
 3450 0329 50574D5F 		.ascii	"PWM_READY\000"
 3450      52454144 
 3450      5900
 3451              	.LASF84:
 3452 0333 73747263 		.ascii	"strcmp\000"
 3452      6D7000
 3453              	.LASF40:
 3454 033a 50574D5F 		.ascii	"PWM_STOP\000"
 3454      53544F50 
 3454      00
 3455              	.LASF56:
 3456 0343 64696572 		.ascii	"dier\000"
 3456      00
 3457              	.LASF65:
 3458 0348 6C696768 		.ascii	"lights_disabled\000"
 3458      74735F64 
 3458      69736162 
 3458      6C656400 
 3459              	.LASF61:
 3460 0358 5F5F676E 		.ascii	"__gnuc_va_list\000"
 3460      75635F76 
 3460      615F6C69 
 3460      737400
 3461              	.LASF53:
 3462 0367 50574D43 		.ascii	"PWMChannelConfig\000"
 3462      68616E6E 
 3462      656C436F 
 3462      6E666967 
 3462      00
 3463              	.LASF76:
 3464 0378 63616E5F 		.ascii	"can_lightBreakOff\000"
 3464      6C696768 
ARM GAS  C:\Users\DNIEL~1\AppData\Local\Temp\ccyAEJOe.s 			page 68


 3464      74427265 
 3464      616B4F66 
 3464      6600
 3465              	.LASF27:
 3466 038a 42617365 		.ascii	"BaseChannel\000"
 3466      4368616E 
 3466      6E656C00 
 3467              	.LASF49:
 3468 0396 70776D6D 		.ascii	"pwmmode_t\000"
 3468      6F64655F 
 3468      7400
 3469              	.LASF85:
 3470 03a0 49544D5F 		.ascii	"ITM_RxBuffer\000"
 3470      52784275 
 3470      66666572 
 3470      00
 3471              	.LASF48:
 3472 03ad 70776D63 		.ascii	"pwmcallback_t\000"
 3472      616C6C62 
 3472      61636B5F 
 3472      7400
 3473              	.LASF15:
 3474 03bb 6D73675F 		.ascii	"msg_t\000"
 3474      7400
 3475              	.LASF52:
 3476 03c1 63616C6C 		.ascii	"callback\000"
 3476      6261636B 
 3476      00
 3477              	.LASF21:
 3478 03ca 42617365 		.ascii	"BaseSequentialStreamVMT\000"
 3478      53657175 
 3478      656E7469 
 3478      616C5374 
 3478      7265616D 
 3479              		.ident	"GCC: (Sourcery G++ Lite 2011.03-42) 4.5.2"
ARM GAS  C:\Users\DNIEL~1\AppData\Local\Temp\ccyAEJOe.s 			page 69


DEFINED SYMBOLS
                            *ABS*:00000000 light.c
C:\Users\DNIEL~1\AppData\Local\Temp\ccyAEJOe.s:24     .text.chprintf:00000000 $t
C:\Users\DNIEL~1\AppData\Local\Temp\ccyAEJOe.s:29     .text.chprintf:00000000 chprintf
C:\Users\DNIEL~1\AppData\Local\Temp\ccyAEJOe.s:69     .text.lightInit:00000000 $t
C:\Users\DNIEL~1\AppData\Local\Temp\ccyAEJOe.s:75     .text.lightInit:00000000 lightInit
C:\Users\DNIEL~1\AppData\Local\Temp\ccyAEJOe.s:100    .text.lightInit:00000014 $d
C:\Users\DNIEL~1\AppData\Local\Temp\ccyAEJOe.s:108    .text.lightCalc:00000000 $t
C:\Users\DNIEL~1\AppData\Local\Temp\ccyAEJOe.s:114    .text.lightCalc:00000000 lightCalc
C:\Users\DNIEL~1\AppData\Local\Temp\ccyAEJOe.s:238    .text.lightCalc:000000a0 $d
C:\Users\DNIEL~1\AppData\Local\Temp\ccyAEJOe.s:246    .text.lightFlashing:00000000 $t
C:\Users\DNIEL~1\AppData\Local\Temp\ccyAEJOe.s:252    .text.lightFlashing:00000000 lightFlashing
C:\Users\DNIEL~1\AppData\Local\Temp\ccyAEJOe.s:314    .text.lightFlashing:00000048 $d
C:\Users\DNIEL~1\AppData\Local\Temp\ccyAEJOe.s:321    .text.lightBrakeOn:00000000 $t
C:\Users\DNIEL~1\AppData\Local\Temp\ccyAEJOe.s:327    .text.lightBrakeOn:00000000 lightBrakeOn
C:\Users\DNIEL~1\AppData\Local\Temp\ccyAEJOe.s:344    .text.lightBrakeOn:0000000c $d
C:\Users\DNIEL~1\AppData\Local\Temp\ccyAEJOe.s:349    .text.lightBrakeOff:00000000 $t
C:\Users\DNIEL~1\AppData\Local\Temp\ccyAEJOe.s:355    .text.lightBrakeOff:00000000 lightBrakeOff
C:\Users\DNIEL~1\AppData\Local\Temp\ccyAEJOe.s:372    .text.lightBrakeOff:0000000c $d
C:\Users\DNIEL~1\AppData\Local\Temp\ccyAEJOe.s:377    .text.lightPosLampOn:00000000 $t
C:\Users\DNIEL~1\AppData\Local\Temp\ccyAEJOe.s:383    .text.lightPosLampOn:00000000 lightPosLampOn
C:\Users\DNIEL~1\AppData\Local\Temp\ccyAEJOe.s:413    .text.lightPosLampOn:0000001c $d
C:\Users\DNIEL~1\AppData\Local\Temp\ccyAEJOe.s:419    .text.lightPosLampOff:00000000 $t
C:\Users\DNIEL~1\AppData\Local\Temp\ccyAEJOe.s:425    .text.lightPosLampOff:00000000 lightPosLampOff
C:\Users\DNIEL~1\AppData\Local\Temp\ccyAEJOe.s:454    .text.lightPosLampOff:00000018 $d
C:\Users\DNIEL~1\AppData\Local\Temp\ccyAEJOe.s:460    .text.cmd_lightvalues:00000000 $t
C:\Users\DNIEL~1\AppData\Local\Temp\ccyAEJOe.s:466    .text.cmd_lightvalues:00000000 cmd_lightvalues
C:\Users\DNIEL~1\AppData\Local\Temp\ccyAEJOe.s:545    .text.cmd_lightvalues:00000070 $d
C:\Users\DNIEL~1\AppData\Local\Temp\ccyAEJOe.s:558    .text.cmd_lightblink:00000000 $t
C:\Users\DNIEL~1\AppData\Local\Temp\ccyAEJOe.s:564    .text.cmd_lightblink:00000000 cmd_lightblink
C:\Users\DNIEL~1\AppData\Local\Temp\ccyAEJOe.s:866    .text.cmd_lightblink:00000194 $d
C:\Users\DNIEL~1\AppData\Local\Temp\ccyAEJOe.s:901    .data.pwmcfg:00000000 $d
C:\Users\DNIEL~1\AppData\Local\Temp\ccyAEJOe.s:905    .data.pwmcfg:00000000 pwmcfg
C:\Users\DNIEL~1\AppData\Local\Temp\ccyAEJOe.s:921    .bss.period:00000000 $d
C:\Users\DNIEL~1\AppData\Local\Temp\ccyAEJOe.s:925    .bss.period:00000000 period
C:\Users\DNIEL~1\AppData\Local\Temp\ccyAEJOe.s:931    .bss.flashing:00000000 flashing
C:\Users\DNIEL~1\AppData\Local\Temp\ccyAEJOe.s:932    .bss.flashing:00000000 $d
C:\Users\DNIEL~1\AppData\Local\Temp\ccyAEJOe.s:934    .rodata.str1.4:00000000 $d
C:\Users\DNIEL~1\AppData\Local\Temp\ccyAEJOe.s:1031   .bss.lightchanels:00000000 $d
C:\Users\DNIEL~1\AppData\Local\Temp\ccyAEJOe.s:1035   .bss.lightchanels:00000000 lightchanels
                     .debug_frame:00000010 $d
C:\Users\DNIEL~1\AppData\Local\Temp\ccyAEJOe.s:107    .text.lightInit:00000024 $t
C:\Users\DNIEL~1\AppData\Local\Temp\ccyAEJOe.s:320    .text.lightFlashing:00000054 $t
C:\Users\DNIEL~1\AppData\Local\Temp\ccyAEJOe.s:418    .text.lightPosLampOn:00000024 $t
C:\Users\DNIEL~1\AppData\Local\Temp\ccyAEJOe.s:557    .text.cmd_lightvalues:00000094 $t
C:\Users\DNIEL~1\AppData\Local\Temp\ccyAEJOe.s:900    .text.cmd_lightblink:0000020c $t

UNDEFINED SYMBOLS
chvprintf
pwmStart
PWMD4
pwmDisableChannel
can_lightWarning
pwmEnableChannel
can_lightLeft
can_lightRight
can_lightBreakOn
ARM GAS  C:\Users\DNIEL~1\AppData\Local\Temp\ccyAEJOe.s 			page 70


can_lightBreakOff
can_lightPosLampOn
can_lightPosLampOff
chThdSleep
strcmp
