ARM GAS  C:\Users\DNIEL~1\AppData\Local\Temp\ccg8hPAc.s 			page 1


   1              		.syntax unified
   2              		.cpu cortex-m4
   3              		.fpu softvfp
   4              		.eabi_attribute 20, 1
   5              		.eabi_attribute 21, 1
   6              		.eabi_attribute 23, 3
   7              		.eabi_attribute 24, 1
   8              		.eabi_attribute 25, 1
   9              		.eabi_attribute 26, 1
  10              		.eabi_attribute 30, 2
  11              		.eabi_attribute 18, 4
  12              		.thumb
  13              		.file	"light.c"
  20 0000 E8040000 		.text
  20      02008502 
  20      00000201 
  20      FB0E0D00 
  20      01010101 
  21              	.Ltext0:
  22              		.cfi_sections	.debug_frame
  23              		.section	.text.chprintf,"ax",%progbits
  24              		.align	2
  25              		.p2align 4,,15
  26              		.thumb
  27              		.thumb_func
  28              		.type	chprintf, %function
  29              	chprintf:
  30              	.LFB118:
  31              		.file 1 "../../../ChibiOS/os/various/chprintf.h"
  32              		.loc 1 69 0
  33              		.cfi_startproc
  34              		@ args = 4, pretend = 12, frame = 8
  35              		@ frame_needed = 0, uses_anonymous_args = 1
  36              	.LVL0:
  37 0000 0EB4     		push	{r1, r2, r3}
  38              	.LCFI0:
  39              		.cfi_def_cfa_offset 12
  40 0002 00B5     		push	{lr}
  41              	.LCFI1:
  42              		.cfi_def_cfa_offset 16
  43 0004 82B0     		sub	sp, sp, #8
  44              	.LCFI2:
  45              		.cfi_def_cfa_offset 24
  46              		.loc 1 69 0
  47 0006 03AB     		add	r3, sp, #12
  48              		.cfi_offset 14, -16
  49              		.cfi_offset 3, -4
  50              		.cfi_offset 2, -8
  51              		.cfi_offset 1, -12
  52 0008 53F8041B 		ldr	r1, [r3], #4
  53              		.loc 1 73 0
ARM GAS  C:\Users\DNIEL~1\AppData\Local\Temp\ccg8hPAc.s 			page 2


  54 000c 1A46     		mov	r2, r3
  55              		.loc 1 72 0
  56 000e 0193     		str	r3, [sp, #4]
  57              		.loc 1 73 0
  58 0010 FFF7FEFF 		bl	chvprintf
  59              	.LVL1:
  60              		.loc 1 75 0
  61 0014 02B0     		add	sp, sp, #8
  62 0016 5DF804EB 		pop	{lr}
  63 001a 03B0     		add	sp, sp, #12
  64 001c 7047     		bx	lr
  65              		.cfi_endproc
  66              	.LFE118:
  67              		.size	chprintf, .-chprintf
  68 001e 00BF     		.section	.text.lightInit,"ax",%progbits
  69              		.align	2
  70              		.p2align 4,,15
  71              		.global	lightInit
  72              		.thumb
  73              		.thumb_func
  74              		.type	lightInit, %function
  75              	lightInit:
  76              	.LFB119:
  77              		.file 2 "src/light.c"
  78              		.loc 2 45 0
  79              		.cfi_startproc
  80              		@ args = 0, pretend = 0, frame = 0
  81              		@ frame_needed = 0, uses_anonymous_args = 0
  82              		@ link register save eliminated.
  83              		.loc 2 46 0
  84 0000 064A     		ldr	r2, .L3
  85              		.loc 2 50 0
  86 0002 0748     		ldr	r0, .L3+4
  87 0004 0749     		ldr	r1, .L3+8
  88              		.loc 2 46 0
  89 0006 0023     		movs	r3, #0
  90 0008 1360     		str	r3, [r2, #0]
  91              		.loc 2 47 0
  92 000a 074A     		ldr	r2, .L3+12
  93 000c 1370     		strb	r3, [r2, #0]
  94              		.loc 2 48 0
  95 000e 074A     		ldr	r2, .L3+16
  96 0010 1370     		strb	r3, [r2, #0]
  97              		.loc 2 49 0
  98 0012 074A     		ldr	r2, .L3+20
  99 0014 1370     		strb	r3, [r2, #0]
 100              		.loc 2 51 0
 101              		.loc 2 50 0
 102 0016 FFF7FEBF 		b	pwmStart
 103              	.L4:
 104 001a 00BF     		.align	2
 105              	.L3:
 106 001c 00000000 		.word	.LANCHOR0
 107 0020 00000000 		.word	PWMD4
 108 0024 00000000 		.word	.LANCHOR4
 109 0028 00000000 		.word	.LANCHOR1
 110 002c 00000000 		.word	.LANCHOR2
ARM GAS  C:\Users\DNIEL~1\AppData\Local\Temp\ccg8hPAc.s 			page 3


 111 0030 00000000 		.word	.LANCHOR3
 112              		.cfi_endproc
 113              	.LFE119:
 114              		.size	lightInit, .-lightInit
 115 0034 AFF30080 		.section	.text.lightCalc,"ax",%progbits
 115      AFF30080 
 115      AFF30080 
 116              		.align	2
 117              		.p2align 4,,15
 118              		.global	lightCalc
 119              		.thumb
 120              		.thumb_func
 121              		.type	lightCalc, %function
 122              	lightCalc:
 123              	.LFB120:
 124              		.loc 2 53 0
 125              		.cfi_startproc
 126              		@ args = 0, pretend = 0, frame = 0
 127              		@ frame_needed = 0, uses_anonymous_args = 0
 128              		.loc 2 55 0
 129 0000 2C4A     		ldr	r2, .L17
 130              		.loc 2 53 0
 131 0002 38B5     		push	{r3, r4, r5, lr}
 132              	.LCFI3:
 133              		.cfi_def_cfa_offset 16
 134              		.loc 2 55 0
 135 0004 1368     		ldr	r3, [r2, #0]
 136              		.cfi_offset 14, -4
 137              		.cfi_offset 5, -8
 138              		.cfi_offset 4, -12
 139              		.cfi_offset 3, -16
 140 0006 0133     		adds	r3, r3, #1
 141              		.loc 2 57 0
 142 0008 3C2B     		cmp	r3, #60
 143              		.loc 2 55 0
 144 000a 1360     		str	r3, [r2, #0]
 145              		.loc 2 57 0
 146 000c 14DC     		bgt	.L12
 147              		.loc 2 62 0
 148 000e 1E2B     		cmp	r3, #30
 149 0010 18DC     		bgt	.L13
 150              		.loc 2 72 0
 151 0012 294C     		ldr	r4, .L17+4
 152 0014 6178     		ldrb	r1, [r4, #1]	@ zero_extendqisi2
 153 0016 19B1     		cbz	r1, .L9
 154              		.loc 2 72 0 is_stmt 0 discriminator 1
 155 0018 284D     		ldr	r5, .L17+8
 156 001a 2A78     		ldrb	r2, [r5, #0]	@ zero_extendqisi2
 157 001c 002A     		cmp	r2, #0
 158 001e 3DD1     		bne	.L14
 159              	.L9:
 160              		.loc 2 79 0 is_stmt 1
 161 0020 A278     		ldrb	r2, [r4, #2]	@ zero_extendqisi2
 162 0022 1AB1     		cbz	r2, .L10
 163              		.loc 2 79 0 is_stmt 0 discriminator 1
 164 0024 254D     		ldr	r5, .L17+8
 165 0026 2878     		ldrb	r0, [r5, #0]	@ zero_extendqisi2
ARM GAS  C:\Users\DNIEL~1\AppData\Local\Temp\ccg8hPAc.s 			page 4


 166 0028 0028     		cmp	r0, #0
 167 002a 2CD1     		bne	.L15
 168              	.L10:
 169              		.loc 2 86 0 is_stmt 1
 170 002c E078     		ldrb	r0, [r4, #3]	@ zero_extendqisi2
 171 002e 10B1     		cbz	r0, .L5
 172              		.loc 2 86 0 is_stmt 0 discriminator 1
 173 0030 224C     		ldr	r4, .L17+8
 174 0032 2178     		ldrb	r1, [r4, #0]	@ zero_extendqisi2
 175 0034 A1B9     		cbnz	r1, .L16
 176              	.L5:
 177 0036 38BD     		pop	{r3, r4, r5, pc}
 178              	.L12:
 179              		.loc 2 58 0 is_stmt 1
 180 0038 0021     		movs	r1, #0
 181              		.loc 2 59 0
 182 003a 2048     		ldr	r0, .L17+8
 183              		.loc 2 58 0
 184 003c 1160     		str	r1, [r2, #0]
 185              		.loc 2 59 0
 186 003e 0122     		movs	r2, #1
 187 0040 0270     		strb	r2, [r0, #0]
 188 0042 38BD     		pop	{r3, r4, r5, pc}
 189              	.L13:
 190              		.loc 2 64 0
 191 0044 1E48     		ldr	r0, .L17+12
 192 0046 0121     		movs	r1, #1
 193 0048 FFF7FEFF 		bl	pwmDisableChannel
 194              		.loc 2 65 0
 195 004c 1C48     		ldr	r0, .L17+12
 196 004e 0221     		movs	r1, #2
 197 0050 FFF7FEFF 		bl	pwmDisableChannel
 198              		.loc 2 67 0
 199 0054 1B48     		ldr	r0, .L17+16
 200              		.loc 2 68 0
 201 0056 1C4A     		ldr	r2, .L17+20
 202              		.loc 2 67 0
 203 0058 0023     		movs	r3, #0
 204 005a 0370     		strb	r3, [r0, #0]
 205              		.loc 2 68 0
 206 005c 1370     		strb	r3, [r2, #0]
 207 005e 38BD     		pop	{r3, r4, r5, pc}
 208              	.L16:
 209              		.loc 2 88 0
 210 0060 174D     		ldr	r5, .L17+12
 211 0062 0121     		movs	r1, #1
 212 0064 2A89     		ldrh	r2, [r5, #8]
 213 0066 2846     		mov	r0, r5
 214 0068 FFF7FEFF 		bl	pwmEnableChannel
 215              		.loc 2 89 0
 216 006c 2846     		mov	r0, r5
 217 006e 0221     		movs	r1, #2
 218 0070 2A89     		ldrh	r2, [r5, #8]
 219 0072 FFF7FEFF 		bl	pwmEnableChannel
 220              		.loc 2 91 0
 221 0076 1348     		ldr	r0, .L17+16
 222              		.loc 2 92 0
ARM GAS  C:\Users\DNIEL~1\AppData\Local\Temp\ccg8hPAc.s 			page 5


 223 0078 134A     		ldr	r2, .L17+20
 224              		.loc 2 91 0
 225 007a 0123     		movs	r3, #1
 226              		.loc 2 90 0
 227 007c 0021     		movs	r1, #0
 228 007e 2170     		strb	r1, [r4, #0]
 229              		.loc 2 91 0
 230 0080 0370     		strb	r3, [r0, #0]
 231              		.loc 2 92 0
 232 0082 1370     		strb	r3, [r2, #0]
 233 0084 38BD     		pop	{r3, r4, r5, pc}
 234              	.L15:
 235              		.loc 2 81 0
 236 0086 0E48     		ldr	r0, .L17+12
 237 0088 0221     		movs	r1, #2
 238 008a 0289     		ldrh	r2, [r0, #8]
 239 008c FFF7FEFF 		bl	pwmEnableChannel
 240              		.loc 2 83 0
 241 0090 0D4B     		ldr	r3, .L17+20
 242              		.loc 2 82 0
 243 0092 0022     		movs	r2, #0
 244              		.loc 2 83 0
 245 0094 0121     		movs	r1, #1
 246              		.loc 2 82 0
 247 0096 2A70     		strb	r2, [r5, #0]
 248              		.loc 2 83 0
 249 0098 1970     		strb	r1, [r3, #0]
 250 009a C7E7     		b	.L10
 251              	.L14:
 252              		.loc 2 74 0
 253 009c 0848     		ldr	r0, .L17+12
 254 009e 0121     		movs	r1, #1
 255 00a0 0289     		ldrh	r2, [r0, #8]
 256 00a2 FFF7FEFF 		bl	pwmEnableChannel
 257              		.loc 2 76 0
 258 00a6 074B     		ldr	r3, .L17+16
 259              		.loc 2 75 0
 260 00a8 0021     		movs	r1, #0
 261              		.loc 2 76 0
 262 00aa 0120     		movs	r0, #1
 263              		.loc 2 75 0
 264 00ac 2970     		strb	r1, [r5, #0]
 265              		.loc 2 76 0
 266 00ae 1870     		strb	r0, [r3, #0]
 267 00b0 B6E7     		b	.L9
 268              	.L18:
 269 00b2 00BF     		.align	2
 270              	.L17:
 271 00b4 00000000 		.word	.LANCHOR0
 272 00b8 00000000 		.word	.LANCHOR5
 273 00bc 00000000 		.word	.LANCHOR1
 274 00c0 00000000 		.word	PWMD4
 275 00c4 00000000 		.word	.LANCHOR2
 276 00c8 00000000 		.word	.LANCHOR3
 277              		.cfi_endproc
 278              	.LFE120:
 279              		.size	lightCalc, .-lightCalc
ARM GAS  C:\Users\DNIEL~1\AppData\Local\Temp\ccg8hPAc.s 			page 6


 280 00cc AFF30080 		.section	.text.lightFlashing,"ax",%progbits
 281              		.align	2
 282              		.p2align 4,,15
 283              		.global	lightFlashing
 284              		.thumb
 285              		.thumb_func
 286              		.type	lightFlashing, %function
 287              	lightFlashing:
 288              	.LFB121:
 289              		.loc 2 97 0
 290              		.cfi_startproc
 291              		@ args = 0, pretend = 0, frame = 0
 292              		@ frame_needed = 0, uses_anonymous_args = 0
 293              		@ link register save eliminated.
 294              	.LVL2:
 295 0000 10B4     		push	{r4}
 296              	.LCFI4:
 297              		.cfi_def_cfa_offset 4
 298              		.loc 2 99 0
 299 0002 A0F10102 		sub	r2, r0, #1
 300              		.loc 2 98 0
 301 0006 D0F10104 		rsbs	r4, r0, #1
 302              		.cfi_offset 4, -4
 303              		.loc 2 100 0
 304 000a A0F1020C 		sub	ip, r0, #2
 305              		.loc 2 98 0
 306 000e 38BF     		it	cc
 307 0010 0024     		movcc	r4, #0
 308              		.loc 2 99 0
 309 0012 5142     		rsbs	r1, r2, #0
 310 0014 41EB0201 		adc	r1, r1, r2
 311              		.loc 2 100 0
 312 0018 DCF10002 		rsbs	r2, ip, #0
 313 001c 42EB0C02 		adc	r2, r2, ip
 314              		.loc 2 101 0
 315 0020 A0F1030C 		sub	ip, r0, #3
 316              		.loc 2 98 0
 317 0024 084B     		ldr	r3, .L20
 318              		.loc 2 101 0
 319 0026 DCF10000 		rsbs	r0, ip, #0
 320              	.LVL3:
 321 002a 40EB0C0C 		adc	ip, r0, ip
 322              	.LVL4:
 323              		.loc 2 98 0
 324 002e 1C70     		strb	r4, [r3, #0]
 325              		.loc 2 99 0
 326 0030 5970     		strb	r1, [r3, #1]
 327              		.loc 2 100 0
 328 0032 9A70     		strb	r2, [r3, #2]
 329              		.loc 2 101 0
 330 0034 83F803C0 		strb	ip, [r3, #3]
 331              		.loc 2 103 0
 332 0038 0449     		ldr	r1, .L20+4
 333              		.loc 2 104 0
 334 003a 054B     		ldr	r3, .L20+8
 335              		.loc 2 103 0
 336 003c 0020     		movs	r0, #0
ARM GAS  C:\Users\DNIEL~1\AppData\Local\Temp\ccg8hPAc.s 			page 7


 337              		.loc 2 104 0
 338 003e 0122     		movs	r2, #1
 339              		.loc 2 103 0
 340 0040 0860     		str	r0, [r1, #0]
 341              		.loc 2 104 0
 342 0042 1A70     		strb	r2, [r3, #0]
 343              		.loc 2 105 0
 344 0044 10BC     		pop	{r4}
 345 0046 7047     		bx	lr
 346              	.L21:
 347              		.align	2
 348              	.L20:
 349 0048 00000000 		.word	.LANCHOR5
 350 004c 00000000 		.word	.LANCHOR0
 351 0050 00000000 		.word	.LANCHOR1
 352              		.cfi_endproc
 353              	.LFE121:
 354              		.size	lightFlashing, .-lightFlashing
 355 0054 AFF30080 		.section	.text.lightBrakeOn,"ax",%progbits
 355      AFF30080 
 355      AFF30080 
 356              		.align	2
 357              		.p2align 4,,15
 358              		.global	lightBrakeOn
 359              		.thumb
 360              		.thumb_func
 361              		.type	lightBrakeOn, %function
 362              	lightBrakeOn:
 363              	.LFB122:
 364              		.loc 2 107 0
 365              		.cfi_startproc
 366              		@ args = 0, pretend = 0, frame = 0
 367              		@ frame_needed = 0, uses_anonymous_args = 0
 368              		@ link register save eliminated.
 369 0000 10B4     		push	{r4}
 370              	.LCFI5:
 371              		.cfi_def_cfa_offset 4
 372              		.loc 2 109 0
 373 0002 0448     		ldr	r0, .L23
 374              		.loc 2 108 0
 375 0004 044B     		ldr	r3, .L23+4
 376              		.loc 2 109 0
 377 0006 0289     		ldrh	r2, [r0, #8]
 378              		.loc 2 108 0
 379 0008 0124     		movs	r4, #1
 380              		.cfi_offset 4, -4
 381              		.loc 2 109 0
 382 000a 0021     		movs	r1, #0
 383              		.loc 2 108 0
 384 000c 1C71     		strb	r4, [r3, #4]
 385              		.loc 2 110 0
 386 000e 10BC     		pop	{r4}
 387              		.loc 2 109 0
 388 0010 FFF7FEBF 		b	pwmEnableChannel
 389              	.L24:
 390              		.align	2
 391              	.L23:
ARM GAS  C:\Users\DNIEL~1\AppData\Local\Temp\ccg8hPAc.s 			page 8


 392 0014 00000000 		.word	PWMD4
 393 0018 00000000 		.word	.LANCHOR5
 394              		.cfi_endproc
 395              	.LFE122:
 396              		.size	lightBrakeOn, .-lightBrakeOn
 397 001c AFF30080 		.section	.text.lightBrakeOff,"ax",%progbits
 398              		.align	2
 399              		.p2align 4,,15
 400              		.global	lightBrakeOff
 401              		.thumb
 402              		.thumb_func
 403              		.type	lightBrakeOff, %function
 404              	lightBrakeOff:
 405              	.LFB123:
 406              		.loc 2 111 0
 407              		.cfi_startproc
 408              		@ args = 0, pretend = 0, frame = 0
 409              		@ frame_needed = 0, uses_anonymous_args = 0
 410              		@ link register save eliminated.
 411              		.loc 2 112 0
 412 0000 064A     		ldr	r2, .L28
 413              		.loc 2 113 0
 414 0002 9179     		ldrb	r1, [r2, #6]	@ zero_extendqisi2
 415              		.loc 2 112 0
 416 0004 0023     		movs	r3, #0
 417 0006 1371     		strb	r3, [r2, #4]
 418              		.loc 2 113 0
 419 0008 11B9     		cbnz	r1, .L27
 420              		.loc 2 118 0
 421 000a 0548     		ldr	r0, .L28+4
 422              		.loc 2 119 0
 423              		.loc 2 118 0
 424 000c FFF7FEBF 		b	pwmDisableChannel
 425              	.L27:
 426              		.loc 2 115 0
 427 0010 0348     		ldr	r0, .L28+4
 428 0012 0289     		ldrh	r2, [r0, #8]
 429 0014 1946     		mov	r1, r3
 430 0016 5208     		lsrs	r2, r2, #1
 431              		.loc 2 119 0
 432              		.loc 2 115 0
 433 0018 FFF7FEBF 		b	pwmEnableChannel
 434              	.L29:
 435              		.align	2
 436              	.L28:
 437 001c 00000000 		.word	.LANCHOR5
 438 0020 00000000 		.word	PWMD4
 439              		.cfi_endproc
 440              	.LFE123:
 441              		.size	lightBrakeOff, .-lightBrakeOff
 442 0024 AFF30080 		.section	.text.lightPosLampOn,"ax",%progbits
 442      AFF30080 
 442      AFF30080 
 443              		.align	2
 444              		.p2align 4,,15
 445              		.global	lightPosLampOn
 446              		.thumb
ARM GAS  C:\Users\DNIEL~1\AppData\Local\Temp\ccg8hPAc.s 			page 9


 447              		.thumb_func
 448              		.type	lightPosLampOn, %function
 449              	lightPosLampOn:
 450              	.LFB124:
 451              		.loc 2 121 0
 452              		.cfi_startproc
 453              		@ args = 0, pretend = 0, frame = 0
 454              		@ frame_needed = 0, uses_anonymous_args = 0
 455 0000 70B5     		push	{r4, r5, r6, lr}
 456              	.LCFI6:
 457              		.cfi_def_cfa_offset 16
 458              		.loc 2 122 0
 459 0002 094B     		ldr	r3, .L31
 460              		.loc 2 124 0
 461 0004 094C     		ldr	r4, .L31+4
 462              		.cfi_offset 14, -4
 463              		.cfi_offset 6, -8
 464              		.cfi_offset 5, -12
 465              		.cfi_offset 4, -16
 466              		.loc 2 122 0
 467 0006 0125     		movs	r5, #1
 468              		.loc 2 124 0
 469 0008 2289     		ldrh	r2, [r4, #8]
 470              		.loc 2 122 0
 471 000a 5D71     		strb	r5, [r3, #5]
 472              		.loc 2 124 0
 473 000c 2046     		mov	r0, r4
 474 000e 0321     		movs	r1, #3
 475              		.loc 2 123 0
 476 0010 9D71     		strb	r5, [r3, #6]
 477              		.loc 2 124 0
 478 0012 FFF7FEFF 		bl	pwmEnableChannel
 479              		.loc 2 125 0
 480 0016 2289     		ldrh	r2, [r4, #8]
 481 0018 2046     		mov	r0, r4
 482 001a 0021     		movs	r1, #0
 483 001c EA40     		lsrs	r2, r2, r5
 484              		.loc 2 126 0
 485 001e BDE87040 		pop	{r4, r5, r6, lr}
 486              		.loc 2 125 0
 487 0022 FFF7FEBF 		b	pwmEnableChannel
 488              	.L32:
 489 0026 00BF     		.align	2
 490              	.L31:
 491 0028 00000000 		.word	.LANCHOR5
 492 002c 00000000 		.word	PWMD4
 493              		.cfi_endproc
 494              	.LFE124:
 495              		.size	lightPosLampOn, .-lightPosLampOn
 496              		.section	.text.lightPosLampOff,"ax",%progbits
 497              		.align	2
 498              		.p2align 4,,15
 499              		.global	lightPosLampOff
 500              		.thumb
 501              		.thumb_func
 502              		.type	lightPosLampOff, %function
 503              	lightPosLampOff:
ARM GAS  C:\Users\DNIEL~1\AppData\Local\Temp\ccg8hPAc.s 			page 10


 504              	.LFB125:
 505              		.loc 2 127 0
 506              		.cfi_startproc
 507              		@ args = 0, pretend = 0, frame = 0
 508              		@ frame_needed = 0, uses_anonymous_args = 0
 509 0000 70B5     		push	{r4, r5, r6, lr}
 510              	.LCFI7:
 511              		.cfi_def_cfa_offset 16
 512              		.loc 2 129 0
 513 0002 074B     		ldr	r3, .L34
 514              		.loc 2 131 0
 515 0004 074D     		ldr	r5, .L34+4
 516              		.cfi_offset 14, -4
 517              		.cfi_offset 6, -8
 518              		.cfi_offset 5, -12
 519              		.cfi_offset 4, -16
 520              		.loc 2 129 0
 521 0006 0024     		movs	r4, #0
 522              		.loc 2 131 0
 523 0008 2846     		mov	r0, r5
 524 000a 0321     		movs	r1, #3
 525              		.loc 2 129 0
 526 000c 5C71     		strb	r4, [r3, #5]
 527              		.loc 2 130 0
 528 000e 9C71     		strb	r4, [r3, #6]
 529              		.loc 2 131 0
 530 0010 FFF7FEFF 		bl	pwmDisableChannel
 531              		.loc 2 132 0
 532 0014 2846     		mov	r0, r5
 533 0016 2146     		mov	r1, r4
 534              		.loc 2 133 0
 535 0018 BDE87040 		pop	{r4, r5, r6, lr}
 536              		.loc 2 132 0
 537 001c FFF7FEBF 		b	pwmDisableChannel
 538              	.L35:
 539              		.align	2
 540              	.L34:
 541 0020 00000000 		.word	.LANCHOR5
 542 0024 00000000 		.word	PWMD4
 543              		.cfi_endproc
 544              	.LFE125:
 545              		.size	lightPosLampOff, .-lightPosLampOff
 546 0028 AFF30080 		.section	.text.getLightFlashing,"ax",%progbits
 546      AFF30080 
 547              		.align	2
 548              		.p2align 4,,15
 549              		.global	getLightFlashing
 550              		.thumb
 551              		.thumb_func
 552              		.type	getLightFlashing, %function
 553              	getLightFlashing:
 554              	.LFB126:
 555              		.loc 2 135 0
 556              		.cfi_startproc
 557              		@ args = 0, pretend = 0, frame = 0
 558              		@ frame_needed = 0, uses_anonymous_args = 0
 559              		@ link register save eliminated.
ARM GAS  C:\Users\DNIEL~1\AppData\Local\Temp\ccg8hPAc.s 			page 11


 560              	.LVL5:
 561              		.loc 2 136 0
 562 0000 0128     		cmp	r0, #1
 563 0002 23D0     		beq	.L48
 564              		.loc 2 137 0
 565 0004 0228     		cmp	r0, #2
 566 0006 08D0     		beq	.L49
 567              		.loc 2 138 0
 568 0008 0328     		cmp	r0, #3
 569 000a 0AD0     		beq	.L50
 570              		.loc 2 139 0
 571 000c 0428     		cmp	r0, #4
 572 000e 0FD0     		beq	.L51
 573              		.loc 2 140 0
 574 0010 0528     		cmp	r0, #5
 575 0012 1ED1     		bne	.L42
 576              		.loc 2 140 0 is_stmt 0 discriminator 1
 577 0014 124B     		ldr	r3, .L53
 578 0016 5879     		ldrb	r0, [r3, #5]	@ zero_extendqisi2
 579              	.LVL6:
 580 0018 7047     		bx	lr
 581              	.LVL7:
 582              	.L49:
 583              		.loc 2 137 0 is_stmt 1 discriminator 1
 584 001a 1248     		ldr	r0, .L53+4
 585              	.LVL8:
 586 001c 0078     		ldrb	r0, [r0, #0]	@ zero_extendqisi2
 587 001e 90B9     		cbnz	r0, .L52
 588              	.L38:
 589              		.loc 2 144 0
 590 0020 7047     		bx	lr
 591              	.LVL9:
 592              	.L50:
 593              		.loc 2 138 0 discriminator 1
 594 0022 114A     		ldr	r2, .L53+8
 595 0024 1078     		ldrb	r0, [r2, #0]	@ zero_extendqisi2
 596              	.LVL10:
 597 0026 0028     		cmp	r0, #0
 598 0028 FAD0     		beq	.L38
 599 002a 0D4B     		ldr	r3, .L53
 600 002c 9878     		ldrb	r0, [r3, #2]	@ zero_extendqisi2
 601 002e 7047     		bx	lr
 602              	.LVL11:
 603              	.L51:
 604              		.loc 2 139 0 discriminator 1
 605 0030 0C48     		ldr	r0, .L53+4
 606              	.LVL12:
 607 0032 0078     		ldrb	r0, [r0, #0]	@ zero_extendqisi2
 608 0034 0028     		cmp	r0, #0
 609 0036 F3D0     		beq	.L38
 610 0038 0B49     		ldr	r1, .L53+8
 611 003a 0878     		ldrb	r0, [r1, #0]	@ zero_extendqisi2
 612 003c 0028     		cmp	r0, #0
 613 003e EFD0     		beq	.L38
 614 0040 074A     		ldr	r2, .L53
 615 0042 D078     		ldrb	r0, [r2, #3]	@ zero_extendqisi2
 616 0044 7047     		bx	lr
ARM GAS  C:\Users\DNIEL~1\AppData\Local\Temp\ccg8hPAc.s 			page 12


 617              	.L52:
 618              		.loc 2 137 0 discriminator 1
 619 0046 0649     		ldr	r1, .L53
 620 0048 4878     		ldrb	r0, [r1, #1]	@ zero_extendqisi2
 621 004a 7047     		bx	lr
 622              	.LVL13:
 623              	.L48:
 624              		.loc 2 136 0 discriminator 1
 625 004c 044B     		ldr	r3, .L53
 626 004e 1878     		ldrb	r0, [r3, #0]	@ zero_extendqisi2
 627              	.LVL14:
 628 0050 7047     		bx	lr
 629              	.LVL15:
 630              	.L42:
 631              		.loc 2 141 0
 632 0052 0628     		cmp	r0, #6
 633 0054 02D1     		bne	.L47
 634              		.loc 2 141 0 is_stmt 0 discriminator 1
 635 0056 0248     		ldr	r0, .L53
 636              	.LVL16:
 637 0058 0079     		ldrb	r0, [r0, #4]	@ zero_extendqisi2
 638 005a 7047     		bx	lr
 639              	.LVL17:
 640              	.L47:
 641              		.loc 2 143 0 is_stmt 1
 642 005c 0020     		movs	r0, #0
 643              	.LVL18:
 644 005e DFE7     		b	.L38
 645              	.L54:
 646              		.align	2
 647              	.L53:
 648 0060 00000000 		.word	.LANCHOR5
 649 0064 00000000 		.word	.LANCHOR2
 650 0068 00000000 		.word	.LANCHOR3
 651              		.cfi_endproc
 652              	.LFE126:
 653              		.size	getLightFlashing, .-getLightFlashing
 654              		.section	.text.cmd_lightvalues,"ax",%progbits
 655              		.align	2
 656              		.p2align 4,,15
 657              		.global	cmd_lightvalues
 658              		.thumb
 659              		.thumb_func
 660              		.type	cmd_lightvalues, %function
 661              	cmd_lightvalues:
 662              	.LFB127:
 663              		.loc 2 146 0
 664              		.cfi_startproc
 665              		@ args = 0, pretend = 0, frame = 0
 666              		@ frame_needed = 0, uses_anonymous_args = 0
 667              	.LVL19:
 668 0000 38B5     		push	{r3, r4, r5, lr}
 669              	.LCFI8:
 670              		.cfi_def_cfa_offset 16
 671              		.loc 2 150 0
 672 0002 1B49     		ldr	r1, .L58
 673              	.LVL20:
ARM GAS  C:\Users\DNIEL~1\AppData\Local\Temp\ccg8hPAc.s 			page 13


 674              		.loc 2 155 0
 675 0004 1B4D     		ldr	r5, .L58+4
 676              		.cfi_offset 14, -4
 677              		.cfi_offset 5, -8
 678              		.cfi_offset 4, -12
 679              		.cfi_offset 3, -16
 680              		.loc 2 146 0
 681 0006 0446     		mov	r4, r0
 682              		.loc 2 150 0
 683 0008 FFF7FEFF 		bl	chprintf
 684              	.LVL21:
 685              		.loc 2 151 0
 686 000c 2046     		mov	r0, r4
 687 000e 1A49     		ldr	r1, .L58+8
 688 0010 FFF7FEFF 		bl	chprintf
 689              		.loc 2 152 0
 690 0014 22E0     		b	.L56
 691              	.L57:
 692              		.loc 2 153 0
 693 0016 0022     		movs	r2, #0
 694 0018 1346     		mov	r3, r2
 695 001a 1849     		ldr	r1, .L58+12
 696 001c 2046     		mov	r0, r4
 697 001e FFF7FEFF 		bl	chprintf
 698              		.loc 2 155 0
 699 0022 2046     		mov	r0, r4
 700 0024 1649     		ldr	r1, .L58+16
 701 0026 6A78     		ldrb	r2, [r5, #1]	@ zero_extendqisi2
 702 0028 FFF7FEFF 		bl	chprintf
 703              		.loc 2 156 0
 704 002c 2046     		mov	r0, r4
 705 002e 1549     		ldr	r1, .L58+20
 706 0030 AA78     		ldrb	r2, [r5, #2]	@ zero_extendqisi2
 707 0032 FFF7FEFF 		bl	chprintf
 708              		.loc 2 157 0
 709 0036 2046     		mov	r0, r4
 710 0038 1349     		ldr	r1, .L58+24
 711 003a EA78     		ldrb	r2, [r5, #3]	@ zero_extendqisi2
 712 003c FFF7FEFF 		bl	chprintf
 713              		.loc 2 158 0
 714 0040 2046     		mov	r0, r4
 715 0042 1249     		ldr	r1, .L58+28
 716 0044 2A79     		ldrb	r2, [r5, #4]	@ zero_extendqisi2
 717 0046 FFF7FEFF 		bl	chprintf
 718              		.loc 2 159 0
 719 004a 2046     		mov	r0, r4
 720 004c 1049     		ldr	r1, .L58+32
 721 004e 6A79     		ldrb	r2, [r5, #5]	@ zero_extendqisi2
 722 0050 FFF7FEFF 		bl	chprintf
 723              		.loc 2 160 0
 724 0054 4FF47A70 		mov	r0, #1000
 725 0058 FFF7FEFF 		bl	chThdSleep
 726              	.L56:
 727              		.loc 2 152 0 discriminator 1
 728 005c 2168     		ldr	r1, [r4, #0]
 729 005e 2046     		mov	r0, r4
 730 0060 4B69     		ldr	r3, [r1, #20]
ARM GAS  C:\Users\DNIEL~1\AppData\Local\Temp\ccg8hPAc.s 			page 14


 731 0062 0021     		movs	r1, #0
 732 0064 9847     		blx	r3
 733 0066 B0F1FF3F 		cmp	r0, #-1
 734 006a D4D0     		beq	.L57
 735              		.loc 2 162 0
 736 006c 38BD     		pop	{r3, r4, r5, pc}
 737              	.L59:
 738 006e 00BF     		.align	2
 739              	.L58:
 740 0070 00000000 		.word	.LC0
 741 0074 00000000 		.word	.LANCHOR5
 742 0078 04000000 		.word	.LC1
 743 007c 0C000000 		.word	.LC2
 744 0080 18000000 		.word	.LC3
 745 0084 2C000000 		.word	.LC4
 746 0088 40000000 		.word	.LC5
 747 008c 58000000 		.word	.LC6
 748 0090 6C000000 		.word	.LC7
 749              		.cfi_endproc
 750              	.LFE127:
 751              		.size	cmd_lightvalues, .-cmd_lightvalues
 752 0094 AFF30080 		.section	.text.cmd_lightblink,"ax",%progbits
 752      AFF30080 
 752      AFF30080 
 753              		.align	2
 754              		.p2align 4,,15
 755              		.global	cmd_lightblink
 756              		.thumb
 757              		.thumb_func
 758              		.type	cmd_lightblink, %function
 759              	cmd_lightblink:
 760              	.LFB128:
 761              		.loc 2 164 0
 762              		.cfi_startproc
 763              		@ args = 0, pretend = 0, frame = 0
 764              		@ frame_needed = 0, uses_anonymous_args = 0
 765              	.LVL22:
 766 0000 2DE9F041 		push	{r4, r5, r6, r7, r8, lr}
 767              	.LCFI9:
 768              		.cfi_def_cfa_offset 24
 769              		.loc 2 164 0
 770 0004 0446     		mov	r4, r0
 771              		.cfi_offset 14, -4
 772              		.cfi_offset 8, -8
 773              		.cfi_offset 7, -12
 774              		.cfi_offset 6, -16
 775              		.cfi_offset 5, -20
 776              		.cfi_offset 4, -24
 777 0006 0D46     		mov	r5, r1
 778              		.loc 2 168 0
 779 0008 6249     		ldr	r1, .L79
 780              	.LVL23:
 781              		.loc 2 164 0
 782 000a 1646     		mov	r6, r2
 783              		.loc 2 168 0
 784 000c FFF7FEFF 		bl	chprintf
 785              	.LVL24:
ARM GAS  C:\Users\DNIEL~1\AppData\Local\Temp\ccg8hPAc.s 			page 15


 786              		.loc 2 169 0
 787 0010 2046     		mov	r0, r4
 788 0012 6149     		ldr	r1, .L79+4
 789 0014 FFF7FEFF 		bl	chprintf
 790              		.loc 2 170 0
 791 0018 2168     		ldr	r1, [r4, #0]
 792 001a 2046     		mov	r0, r4
 793 001c 4B69     		ldr	r3, [r1, #20]
 794 001e 0021     		movs	r1, #0
 795 0020 9847     		blx	r3
 796 0022 B0F1FF3F 		cmp	r0, #-1
 797 0026 21D0     		beq	.L71
 798              	.LVL25:
 799              	.L61:
 800              		.loc 2 233 0
 801 0028 2046     		mov	r0, r4
 802 002a 5C49     		ldr	r1, .L79+8
 803 002c FFF7FEFF 		bl	chprintf
 804              		.loc 2 234 0
 805 0030 2046     		mov	r0, r4
 806 0032 5B49     		ldr	r1, .L79+12
 807 0034 FFF7FEFF 		bl	chprintf
 808              		.loc 2 235 0
 809 0038 2046     		mov	r0, r4
 810 003a 5A49     		ldr	r1, .L79+16
 811 003c FFF7FEFF 		bl	chprintf
 812              		.loc 2 236 0
 813 0040 2046     		mov	r0, r4
 814 0042 5949     		ldr	r1, .L79+20
 815 0044 FFF7FEFF 		bl	chprintf
 816              		.loc 2 237 0
 817 0048 2046     		mov	r0, r4
 818 004a 5849     		ldr	r1, .L79+24
 819 004c FFF7FEFF 		bl	chprintf
 820              		.loc 2 238 0
 821 0050 2046     		mov	r0, r4
 822 0052 5749     		ldr	r1, .L79+28
 823 0054 FFF7FEFF 		bl	chprintf
 824              		.loc 2 239 0
 825 0058 2046     		mov	r0, r4
 826 005a 5649     		ldr	r1, .L79+32
 827 005c FFF7FEFF 		bl	chprintf
 828              		.loc 2 240 0
 829 0060 5549     		ldr	r1, .L79+36
 830 0062 2046     		mov	r0, r4
 831              		.loc 2 242 0
 832 0064 BDE8F041 		pop	{r4, r5, r6, r7, r8, lr}
 833              		.loc 2 240 0
 834 0068 FFF7FEBF 		b	chprintf
 835              	.LVL26:
 836              	.L71:
 837              	.LBB11:
 838              		.loc 2 171 0
 839 006c 0022     		movs	r2, #0
 840 006e 2046     		mov	r0, r4
 841 0070 5249     		ldr	r1, .L79+40
 842 0072 1346     		mov	r3, r2
ARM GAS  C:\Users\DNIEL~1\AppData\Local\Temp\ccg8hPAc.s 			page 16


 843 0074 FFF7FEFF 		bl	chprintf
 844              		.loc 2 172 0
 845 0078 012D     		cmp	r5, #1
 846 007a D5D1     		bne	.L61
 847              		.loc 2 172 0 is_stmt 0 discriminator 1
 848 007c 3668     		ldr	r6, [r6, #0]
 849              	.LVL27:
 850 007e 5049     		ldr	r1, .L79+44
 851 0080 3046     		mov	r0, r6
 852 0082 FFF7FEFF 		bl	strcmp
 853 0086 0746     		mov	r7, r0
 854 0088 0028     		cmp	r0, #0
 855 008a 53D0     		beq	.L72
 856              		.loc 2 179 0 is_stmt 1 discriminator 1
 857 008c 3046     		mov	r0, r6
 858 008e 4D49     		ldr	r1, .L79+48
 859 0090 FFF7FEFF 		bl	strcmp
 860 0094 0746     		mov	r7, r0
 861 0096 0028     		cmp	r0, #0
 862 0098 5BD0     		beq	.L73
 863              		.loc 2 186 0 discriminator 1
 864 009a 3046     		mov	r0, r6
 865 009c 4A49     		ldr	r1, .L79+52
 866 009e FFF7FEFF 		bl	strcmp
 867 00a2 0746     		mov	r7, r0
 868 00a4 0028     		cmp	r0, #0
 869 00a6 5DD0     		beq	.L74
 870              		.loc 2 193 0 discriminator 1
 871 00a8 3046     		mov	r0, r6
 872 00aa 4849     		ldr	r1, .L79+56
 873 00ac FFF7FEFF 		bl	strcmp
 874 00b0 0028     		cmp	r0, #0
 875 00b2 66D0     		beq	.L75
 876              		.loc 2 200 0 discriminator 1
 877 00b4 3046     		mov	r0, r6
 878 00b6 4649     		ldr	r1, .L79+60
 879 00b8 FFF7FEFF 		bl	strcmp
 880 00bc 10B3     		cbz	r0, .L76
 881              		.loc 2 207 0 discriminator 1
 882 00be 3046     		mov	r0, r6
 883 00c0 4449     		ldr	r1, .L79+64
 884 00c2 FFF7FEFF 		bl	strcmp
 885 00c6 0028     		cmp	r0, #0
 886 00c8 24D0     		beq	.L77
 887              		.loc 2 214 0 discriminator 1
 888 00ca 3046     		mov	r0, r6
 889 00cc 4249     		ldr	r1, .L79+68
 890 00ce FFF7FEFF 		bl	strcmp
 891 00d2 0028     		cmp	r0, #0
 892 00d4 26D0     		beq	.L78
 893              		.loc 2 221 0 discriminator 1
 894 00d6 3046     		mov	r0, r6
 895 00d8 4049     		ldr	r1, .L79+72
 896 00da FFF7FEFF 		bl	strcmp
 897 00de 0028     		cmp	r0, #0
 898 00e0 A2D1     		bne	.L61
 899              		.loc 2 222 0
ARM GAS  C:\Users\DNIEL~1\AppData\Local\Temp\ccg8hPAc.s 			page 17


 900 00e2 2046     		mov	r0, r4
 901 00e4 3E49     		ldr	r1, .L79+76
 902 00e6 FFF7FEFF 		bl	chprintf
 903              	.LVL28:
 904              	.LBB20:
 905              	.LBB21:
 906              		.loc 2 98 0
 907 00ea 3E4A     		ldr	r2, .L79+80
 908              		.loc 2 103 0
 909 00ec 3E48     		ldr	r0, .L79+84
 910              		.loc 2 99 0
 911 00ee 0023     		movs	r3, #0
 912              		.loc 2 98 0
 913 00f0 0121     		movs	r1, #1
 914 00f2 1170     		strb	r1, [r2, #0]
 915              		.loc 2 99 0
 916 00f4 5370     		strb	r3, [r2, #1]
 917              		.loc 2 100 0
 918 00f6 9370     		strb	r3, [r2, #2]
 919              		.loc 2 101 0
 920 00f8 D370     		strb	r3, [r2, #3]
 921              		.loc 2 104 0
 922 00fa 3C4A     		ldr	r2, .L79+88
 923              		.loc 2 103 0
 924 00fc 0360     		str	r3, [r0, #0]
 925              		.loc 2 104 0
 926 00fe 1170     		strb	r1, [r2, #0]
 927 0100 BDE8F081 		pop	{r4, r5, r6, r7, r8, pc}
 928              	.LVL29:
 929              	.L76:
 930              	.LBE21:
 931              	.LBE20:
 932              		.loc 2 202 0
 933 0104 2046     		mov	r0, r4
 934 0106 3A49     		ldr	r1, .L79+92
 935 0108 FFF7FEFF 		bl	chprintf
 936              	.LBE11:
 937              		.loc 2 242 0
 938 010c BDE8F041 		pop	{r4, r5, r6, r7, r8, lr}
 939              	.LBB22:
 940              		.loc 2 203 0
 941 0110 FFF7FEBF 		b	lightBrakeOff
 942              	.L77:
 943              		.loc 2 209 0
 944 0114 2046     		mov	r0, r4
 945 0116 3749     		ldr	r1, .L79+96
 946 0118 FFF7FEFF 		bl	chprintf
 947              	.LBE22:
 948              		.loc 2 242 0
 949 011c BDE8F041 		pop	{r4, r5, r6, r7, r8, lr}
 950              	.LBB23:
 951              		.loc 2 210 0
 952 0120 FFF7FEBF 		b	lightPosLampOn
 953              	.L78:
 954              		.loc 2 216 0
 955 0124 2046     		mov	r0, r4
 956 0126 3449     		ldr	r1, .L79+100
ARM GAS  C:\Users\DNIEL~1\AppData\Local\Temp\ccg8hPAc.s 			page 18


 957 0128 FFF7FEFF 		bl	chprintf
 958              	.LBE23:
 959              		.loc 2 242 0
 960 012c BDE8F041 		pop	{r4, r5, r6, r7, r8, lr}
 961              	.LBB24:
 962              		.loc 2 217 0
 963 0130 FFF7FEBF 		b	lightPosLampOff
 964              	.L72:
 965              		.loc 2 174 0
 966 0134 2046     		mov	r0, r4
 967 0136 3149     		ldr	r1, .L79+104
 968 0138 FFF7FEFF 		bl	chprintf
 969              	.LVL30:
 970              	.LBB18:
 971              	.LBB19:
 972              		.loc 2 98 0
 973 013c 294B     		ldr	r3, .L79+80
 974 013e 1F70     		strb	r7, [r3, #0]
 975              		.loc 2 99 0
 976 0140 5D70     		strb	r5, [r3, #1]
 977              		.loc 2 100 0
 978 0142 9F70     		strb	r7, [r3, #2]
 979              	.LVL31:
 980              	.L70:
 981              	.LBE19:
 982              	.LBE18:
 983              	.LBB15:
 984              	.LBB16:
 985              		.loc 2 103 0
 986 0144 284A     		ldr	r2, .L79+84
 987              		.loc 2 104 0
 988 0146 2948     		ldr	r0, .L79+88
 989              		.loc 2 101 0
 990 0148 DF70     		strb	r7, [r3, #3]
 991              		.loc 2 103 0
 992 014a 1760     		str	r7, [r2, #0]
 993              		.loc 2 104 0
 994 014c 0570     		strb	r5, [r0, #0]
 995 014e BDE8F081 		pop	{r4, r5, r6, r7, r8, pc}
 996              	.L73:
 997              	.LBE16:
 998              	.LBE15:
 999              		.loc 2 181 0
 1000 0152 2046     		mov	r0, r4
 1001 0154 2A49     		ldr	r1, .L79+108
 1002 0156 FFF7FEFF 		bl	chprintf
 1003              	.LVL32:
 1004              	.LBB14:
 1005              	.LBB17:
 1006              		.loc 2 98 0
 1007 015a 224B     		ldr	r3, .L79+80
 1008 015c 1F70     		strb	r7, [r3, #0]
 1009              		.loc 2 99 0
 1010 015e 5F70     		strb	r7, [r3, #1]
 1011              		.loc 2 100 0
 1012 0160 9D70     		strb	r5, [r3, #2]
 1013 0162 EFE7     		b	.L70
ARM GAS  C:\Users\DNIEL~1\AppData\Local\Temp\ccg8hPAc.s 			page 19


 1014              	.LVL33:
 1015              	.L74:
 1016              	.LBE17:
 1017              	.LBE14:
 1018              		.loc 2 188 0
 1019 0164 2046     		mov	r0, r4
 1020 0166 2749     		ldr	r1, .L79+112
 1021 0168 FFF7FEFF 		bl	chprintf
 1022              	.LVL34:
 1023              	.LBB12:
 1024              	.LBB13:
 1025              		.loc 2 98 0
 1026 016c 1D48     		ldr	r0, .L79+80
 1027              		.loc 2 103 0
 1028 016e 1E49     		ldr	r1, .L79+84
 1029              		.loc 2 104 0
 1030 0170 1E4B     		ldr	r3, .L79+88
 1031              		.loc 2 98 0
 1032 0172 0770     		strb	r7, [r0, #0]
 1033              		.loc 2 99 0
 1034 0174 4770     		strb	r7, [r0, #1]
 1035              		.loc 2 100 0
 1036 0176 8770     		strb	r7, [r0, #2]
 1037              		.loc 2 101 0
 1038 0178 C570     		strb	r5, [r0, #3]
 1039              		.loc 2 103 0
 1040 017a 0F60     		str	r7, [r1, #0]
 1041              		.loc 2 104 0
 1042 017c 1D70     		strb	r5, [r3, #0]
 1043 017e BDE8F081 		pop	{r4, r5, r6, r7, r8, pc}
 1044              	.LVL35:
 1045              	.L75:
 1046              	.LBE13:
 1047              	.LBE12:
 1048              		.loc 2 195 0
 1049 0182 2046     		mov	r0, r4
 1050 0184 2049     		ldr	r1, .L79+116
 1051 0186 FFF7FEFF 		bl	chprintf
 1052              	.LBE24:
 1053              		.loc 2 242 0
 1054 018a BDE8F041 		pop	{r4, r5, r6, r7, r8, lr}
 1055              	.LBB25:
 1056              		.loc 2 196 0
 1057 018e FFF7FEBF 		b	lightBrakeOn
 1058              	.L80:
 1059 0192 00BF     		.align	2
 1060              	.L79:
 1061 0194 00000000 		.word	.LC0
 1062 0198 04000000 		.word	.LC1
 1063 019c 88020000 		.word	.LC24
 1064 01a0 A0020000 		.word	.LC25
 1065 01a4 B4020000 		.word	.LC26
 1066 01a8 CC020000 		.word	.LC27
 1067 01ac E4020000 		.word	.LC28
 1068 01b0 FC020000 		.word	.LC29
 1069 01b4 14030000 		.word	.LC30
 1070 01b8 2C030000 		.word	.LC31
ARM GAS  C:\Users\DNIEL~1\AppData\Local\Temp\ccg8hPAc.s 			page 20


 1071 01bc 0C000000 		.word	.LC2
 1072 01c0 84000000 		.word	.LC8
 1073 01c4 C4000000 		.word	.LC10
 1074 01c8 04010000 		.word	.LC12
 1075 01cc 48010000 		.word	.LC14
 1076 01d0 84010000 		.word	.LC16
 1077 01d4 C8010000 		.word	.LC18
 1078 01d8 08020000 		.word	.LC20
 1079 01dc 48020000 		.word	.LC22
 1080 01e0 50020000 		.word	.LC23
 1081 01e4 00000000 		.word	.LANCHOR5
 1082 01e8 00000000 		.word	.LANCHOR0
 1083 01ec 00000000 		.word	.LANCHOR1
 1084 01f0 90010000 		.word	.LC17
 1085 01f4 D0010000 		.word	.LC19
 1086 01f8 10020000 		.word	.LC21
 1087 01fc 8C000000 		.word	.LC9
 1088 0200 CC000000 		.word	.LC11
 1089 0204 0C010000 		.word	.LC13
 1090 0208 50010000 		.word	.LC15
 1091              	.LBE25:
 1092              		.cfi_endproc
 1093              	.LFE128:
 1094              		.size	cmd_lightblink, .-cmd_lightblink
 1095 020c AFF30080 		.section	.text.cmd_getLight,"ax",%progbits
 1096              		.align	2
 1097              		.p2align 4,,15
 1098              		.global	cmd_getLight
 1099              		.thumb
 1100              		.thumb_func
 1101              		.type	cmd_getLight, %function
 1102              	cmd_getLight:
 1103              	.LFB129:
 1104              		.loc 2 244 0
 1105              		.cfi_startproc
 1106              		@ args = 0, pretend = 0, frame = 0
 1107              		@ frame_needed = 0, uses_anonymous_args = 0
 1108              	.LVL36:
 1109 0000 10B5     		push	{r4, lr}
 1110              	.LCFI10:
 1111              		.cfi_def_cfa_offset 8
 1112              		.loc 2 248 0
 1113 0002 2149     		ldr	r1, .L84
 1114              	.LVL37:
 1115              		.loc 2 244 0
 1116 0004 0446     		mov	r4, r0
 1117              		.cfi_offset 14, -4
 1118              		.cfi_offset 4, -8
 1119              		.loc 2 248 0
 1120 0006 FFF7FEFF 		bl	chprintf
 1121              	.LVL38:
 1122              		.loc 2 249 0
 1123 000a 2046     		mov	r0, r4
 1124 000c 1F49     		ldr	r1, .L84+4
 1125 000e FFF7FEFF 		bl	chprintf
 1126              		.loc 2 250 0
 1127 0012 30E0     		b	.L82
ARM GAS  C:\Users\DNIEL~1\AppData\Local\Temp\ccg8hPAc.s 			page 21


 1128              	.L83:
 1129              		.loc 2 251 0
 1130 0014 0022     		movs	r2, #0
 1131 0016 1346     		mov	r3, r2
 1132 0018 1D49     		ldr	r1, .L84+8
 1133 001a 2046     		mov	r0, r4
 1134 001c FFF7FEFF 		bl	chprintf
 1135              		.loc 2 253 0
 1136 0020 0220     		movs	r0, #2
 1137 0022 FFF7FEFF 		bl	getLightFlashing
 1138 0026 1B49     		ldr	r1, .L84+12
 1139 0028 0246     		mov	r2, r0
 1140 002a 2046     		mov	r0, r4
 1141 002c FFF7FEFF 		bl	chprintf
 1142              		.loc 2 254 0
 1143 0030 0320     		movs	r0, #3
 1144 0032 FFF7FEFF 		bl	getLightFlashing
 1145 0036 1849     		ldr	r1, .L84+16
 1146 0038 0246     		mov	r2, r0
 1147 003a 2046     		mov	r0, r4
 1148 003c FFF7FEFF 		bl	chprintf
 1149              		.loc 2 255 0
 1150 0040 0420     		movs	r0, #4
 1151 0042 FFF7FEFF 		bl	getLightFlashing
 1152 0046 1549     		ldr	r1, .L84+20
 1153 0048 0246     		mov	r2, r0
 1154 004a 2046     		mov	r0, r4
 1155 004c FFF7FEFF 		bl	chprintf
 1156              		.loc 2 256 0
 1157 0050 0520     		movs	r0, #5
 1158 0052 FFF7FEFF 		bl	getLightFlashing
 1159 0056 1249     		ldr	r1, .L84+24
 1160 0058 0246     		mov	r2, r0
 1161 005a 2046     		mov	r0, r4
 1162 005c FFF7FEFF 		bl	chprintf
 1163              		.loc 2 257 0
 1164 0060 0620     		movs	r0, #6
 1165 0062 FFF7FEFF 		bl	getLightFlashing
 1166 0066 0F49     		ldr	r1, .L84+28
 1167 0068 0246     		mov	r2, r0
 1168 006a 2046     		mov	r0, r4
 1169 006c FFF7FEFF 		bl	chprintf
 1170              		.loc 2 258 0
 1171 0070 6420     		movs	r0, #100
 1172 0072 FFF7FEFF 		bl	chThdSleep
 1173              	.L82:
 1174              		.loc 2 250 0 discriminator 1
 1175 0076 2168     		ldr	r1, [r4, #0]
 1176 0078 2046     		mov	r0, r4
 1177 007a 4B69     		ldr	r3, [r1, #20]
 1178 007c 0021     		movs	r1, #0
 1179 007e 9847     		blx	r3
 1180 0080 B0F1FF3F 		cmp	r0, #-1
 1181 0084 C6D0     		beq	.L83
 1182              		.loc 2 260 0
 1183 0086 10BD     		pop	{r4, pc}
 1184              	.L85:
ARM GAS  C:\Users\DNIEL~1\AppData\Local\Temp\ccg8hPAc.s 			page 22


 1185              		.align	2
 1186              	.L84:
 1187 0088 00000000 		.word	.LC0
 1188 008c 04000000 		.word	.LC1
 1189 0090 0C000000 		.word	.LC2
 1190 0094 18000000 		.word	.LC3
 1191 0098 2C000000 		.word	.LC4
 1192 009c 40000000 		.word	.LC5
 1193 00a0 58000000 		.word	.LC6
 1194 00a4 6C000000 		.word	.LC7
 1195              		.cfi_endproc
 1196              	.LFE129:
 1197              		.size	cmd_getLight, .-cmd_getLight
 1198 00a8 AFF30080 		.section	.data.pwmcfg,"aw",%progbits
 1198      AFF30080 
 1199              		.align	2
 1200              		.set	.LANCHOR4,. + 0
 1201              		.type	pwmcfg, %object
 1202              		.size	pwmcfg, 52
 1203              	pwmcfg:
 1204 0000 40420F00 		.word	1000000
 1205 0004 E803     		.short	1000
 1206 0006 0000     		.space	2
 1207 0008 00000000 		.word	0
 1208 000c 01000000 		.word	1
 1209 0010 00000000 		.word	0
 1210 0014 01000000 		.word	1
 1211 0018 00000000 		.word	0
 1212 001c 01000000 		.word	1
 1213 0020 00000000 		.word	0
 1214 0024 01000000 		.word	1
 1215 0028 00000000 		.word	0
 1216 002c 00000000 		.word	0
 1217 0030 00000000 		.word	0
 1218              		.section	.bss.period,"aw",%nobits
 1219              		.align	2
 1220              		.set	.LANCHOR0,. + 0
 1221              		.type	period, %object
 1222              		.size	period, 4
 1223              	period:
 1224 0000 00000000 		.space	4
 1225              		.section	.bss.flashing,"aw",%nobits
 1226              		.set	.LANCHOR1,. + 0
 1227              		.type	flashing, %object
 1228              		.size	flashing, 1
 1229              	flashing:
 1230 0000 00       		.space	1
 1231              		.section	.rodata.str1.4,"aMS",%progbits,1
 1232              		.align	2
 1233              	.LC0:
 1234 0000 1B6300   		.ascii	"\033c\000"
 1235 0003 00       		.space	1
 1236              	.LC1:
 1237 0004 1B5B324A 		.ascii	"\033[2J\000"
 1237      00
 1238 0009 000000   		.space	3
 1239              	.LC2:
ARM GAS  C:\Users\DNIEL~1\AppData\Local\Temp\ccg8hPAc.s 			page 23


 1240 000c 1B5B2564 		.ascii	"\033[%d;%dH\000"
 1240      3B256448 
 1240      00
 1241 0015 000000   		.space	3
 1242              	.LC3:
 1243 0018 52696768 		.ascii	"Right light: %15d\015\012\000"
 1243      74206C69 
 1243      6768743A 
 1243      20253135 
 1243      640D0A00 
 1244              	.LC4:
 1245 002c 4C656674 		.ascii	"Left light: %15d\015\012\000"
 1245      206C6967 
 1245      68743A20 
 1245      25313564 
 1245      0D0A00
 1246 003f 00       		.space	1
 1247              	.LC5:
 1248 0040 5761726E 		.ascii	"Warning light: %15d\015\012\000"
 1248      696E6720 
 1248      6C696768 
 1248      743A2025 
 1248      3135640D 
 1249 0056 0000     		.space	2
 1250              	.LC6:
 1251 0058 4272616B 		.ascii	"Brake light: %15d\015\012\000"
 1251      65206C69 
 1251      6768743A 
 1251      20253135 
 1251      640D0A00 
 1252              	.LC7:
 1253 006c 506F7369 		.ascii	"Position light: %15d\015\012\000"
 1253      74696F6E 
 1253      206C6967 
 1253      68743A20 
 1253      25313564 
 1254 0083 00       		.space	1
 1255              	.LC8:
 1256 0084 72696768 		.ascii	"right\000"
 1256      7400
 1257 008a 0000     		.space	2
 1258              	.LC9:
 1259 008c 2D2D2D2D 		.ascii	"-------------- Blinking right enabled -------------"
 1259      2D2D2D2D 
 1259      2D2D2D2D 
 1259      2D2D2042 
 1259      6C696E6B 
 1260 00bf 2D0D0A00 		.ascii	"-\015\012\000"
 1261 00c3 00       		.space	1
 1262              	.LC10:
 1263 00c4 6C656674 		.ascii	"left\000"
 1263      00
 1264 00c9 000000   		.space	3
 1265              	.LC11:
 1266 00cc 2D2D2D2D 		.ascii	"-------------- Blinking left enabled --------------"
 1266      2D2D2D2D 
 1266      2D2D2D2D 
ARM GAS  C:\Users\DNIEL~1\AppData\Local\Temp\ccg8hPAc.s 			page 24


 1266      2D2D2042 
 1266      6C696E6B 
 1267 00ff 0D0A00   		.ascii	"\015\012\000"
 1268 0102 0000     		.space	2
 1269              	.LC12:
 1270 0104 7761726E 		.ascii	"warning\000"
 1270      696E6700 
 1271              	.LC13:
 1272 010c 2D2D2D2D 		.ascii	"-------------- Blinking warning enabled -----------"
 1272      2D2D2D2D 
 1272      2D2D2D2D 
 1272      2D2D2042 
 1272      6C696E6B 
 1273 013f 2D2D2D0D 		.ascii	"---\015\012\000"
 1273      0A00
 1274 0145 000000   		.space	3
 1275              	.LC14:
 1276 0148 6272616B 		.ascii	"brakeon\000"
 1276      656F6E00 
 1277              	.LC15:
 1278 0150 2D2D2D2D 		.ascii	"-------------- Brake light enabled --------------\015"
 1278      2D2D2D2D 
 1278      2D2D2D2D 
 1278      2D2D2042 
 1278      72616B65 
 1279 0182 0A00     		.ascii	"\012\000"
 1280              	.LC16:
 1281 0184 6272616B 		.ascii	"brakeoff\000"
 1281      656F6666 
 1281      00
 1282 018d 000000   		.space	3
 1283              	.LC17:
 1284 0190 2D2D2D2D 		.ascii	"-------------- Brake light disabled --------------\015"
 1284      2D2D2D2D 
 1284      2D2D2D2D 
 1284      2D2D2042 
 1284      72616B65 
 1285 01c3 0A00     		.ascii	"\012\000"
 1286 01c5 000000   		.space	3
 1287              	.LC18:
 1288 01c8 6C616D70 		.ascii	"lampon\000"
 1288      6F6E00
 1289 01cf 00       		.space	1
 1290              	.LC19:
 1291 01d0 2D2D2D2D 		.ascii	"-------------- Position lamp enabled --------------"
 1291      2D2D2D2D 
 1291      2D2D2D2D 
 1291      2D2D2050 
 1291      6F736974 
 1292 0203 0D0A00   		.ascii	"\015\012\000"
 1293 0206 0000     		.space	2
 1294              	.LC20:
 1295 0208 6C616D70 		.ascii	"lampoff\000"
 1295      6F666600 
 1296              	.LC21:
 1297 0210 2D2D2D2D 		.ascii	"-------------- Position lamp disabled -------------"
 1297      2D2D2D2D 
ARM GAS  C:\Users\DNIEL~1\AppData\Local\Temp\ccg8hPAc.s 			page 25


 1297      2D2D2D2D 
 1297      2D2D2050 
 1297      6F736974 
 1298 0243 2D0D0A00 		.ascii	"-\015\012\000"
 1299 0247 00       		.space	1
 1300              	.LC22:
 1301 0248 73746F70 		.ascii	"stop\000"
 1301      00
 1302 024d 000000   		.space	3
 1303              	.LC23:
 1304 0250 2D2D2D2D 		.ascii	"-------------- All blinking disabled --------------"
 1304      2D2D2D2D 
 1304      2D2D2D2D 
 1304      2D2D2041 
 1304      6C6C2062 
 1305 0283 0D0A00   		.ascii	"\015\012\000"
 1306 0286 0000     		.space	2
 1307              	.LC24:
 1308 0288 55736167 		.ascii	"Usage: light right\015\012\000"
 1308      653A206C 
 1308      69676874 
 1308      20726967 
 1308      68740D0A 
 1309 029d 000000   		.space	3
 1310              	.LC25:
 1311 02a0 20202020 		.ascii	"       light left\015\012\000"
 1311      2020206C 
 1311      69676874 
 1311      206C6566 
 1311      740D0A00 
 1312              	.LC26:
 1313 02b4 20202020 		.ascii	"       light warning\015\012\000"
 1313      2020206C 
 1313      69676874 
 1313      20776172 
 1313      6E696E67 
 1314 02cb 00       		.space	1
 1315              	.LC27:
 1316 02cc 20202020 		.ascii	"       light brakeon\015\012\000"
 1316      2020206C 
 1316      69676874 
 1316      20627261 
 1316      6B656F6E 
 1317 02e3 00       		.space	1
 1318              	.LC28:
 1319 02e4 20202020 		.ascii	"       light brakeoff\015\012\000"
 1319      2020206C 
 1319      69676874 
 1319      20627261 
 1319      6B656F66 
 1320              	.LC29:
 1321 02fc 20202020 		.ascii	"       light lampon\015\012\000"
 1321      2020206C 
 1321      69676874 
 1321      206C616D 
 1321      706F6E0D 
 1322 0312 0000     		.space	2
ARM GAS  C:\Users\DNIEL~1\AppData\Local\Temp\ccg8hPAc.s 			page 26


 1323              	.LC30:
 1324 0314 20202020 		.ascii	"       light lampoff\015\012\000"
 1324      2020206C 
 1324      69676874 
 1324      206C616D 
 1324      706F6666 
 1325 032b 00       		.space	1
 1326              	.LC31:
 1327 032c 20202020 		.ascii	"       light stop\015\012\000"
 1327      2020206C 
 1327      69676874 
 1327      2073746F 
 1327      700D0A00 
 1328              		.section	.bss.left_active,"aw",%nobits
 1329              		.set	.LANCHOR3,. + 0
 1330              		.type	left_active, %object
 1331              		.size	left_active, 1
 1332              	left_active:
 1333 0000 00       		.space	1
 1334              		.section	.bss.lightchanels,"aw",%nobits
 1335              		.align	2
 1336              		.set	.LANCHOR5,. + 0
 1337              		.type	lightchanels, %object
 1338              		.size	lightchanels, 7
 1339              	lightchanels:
 1340 0000 00000000 		.space	7
 1340      000000
 1341 0007 00       		.section	.bss.right_active,"aw",%nobits
 1342              		.set	.LANCHOR2,. + 0
 1343              		.type	right_active, %object
 1344              		.size	right_active, 1
 1345              	right_active:
 1346 0000 00       		.space	1
 1347              		.text
 1348              	.Letext0: