ARM GAS  C:\Users\DNIEL~1\AppData\Local\Temp\ccuPvHGk.s 			page 1


   1              		.syntax unified
   2              		.cpu cortex-m4
   3              		.fpu softvfp
   4              		.eabi_attribute 20, 1
   5              		.eabi_attribute 21, 1
   6              		.eabi_attribute 23, 3
   7              		.eabi_attribute 24, 1
   8              		.eabi_attribute 25, 1
   9              		.eabi_attribute 26, 1
  10              		.eabi_attribute 30, 2
  11              		.eabi_attribute 18, 4
  12              		.thumb
  13              		.file	"light.c"
  14              		.section	.debug_abbrev,"",%progbits
  15              	.Ldebug_abbrev0:
  16              		.section	.debug_info,"",%progbits
  17              	.Ldebug_info0:
  18              		.section	.debug_line,"",%progbits
  19              	.Ldebug_line0:
  20 0000 D9040000 		.text
  20      02008502 
  20      00000201 
  20      FB0E0D00 
  20      01010101 
  21              	.Ltext0:
  22              		.cfi_sections	.debug_frame
  23              		.section	.text.chprintf,"ax",%progbits
  24              		.align	2
  25              		.p2align 4,,15
  26              		.thumb
  27              		.thumb_func
  28              		.type	chprintf, %function
  29              	chprintf:
  30              	.LFB118:
  31              		.file 1 "../../../ChibiOS/os/various/chprintf.h"
  32              		.loc 1 69 0
  33              		.cfi_startproc
  34              		@ args = 4, pretend = 12, frame = 8
  35              		@ frame_needed = 0, uses_anonymous_args = 1
  36              	.LVL0:
  37 0000 0EB4     		push	{r1, r2, r3}
  38              	.LCFI0:
  39              		.cfi_def_cfa_offset 12
  40 0002 00B5     		push	{lr}
  41              	.LCFI1:
  42              		.cfi_def_cfa_offset 16
  43 0004 82B0     		sub	sp, sp, #8
  44              	.LCFI2:
  45              		.cfi_def_cfa_offset 24
  46              		.loc 1 69 0
  47 0006 03AB     		add	r3, sp, #12
  48              		.cfi_offset 14, -16
  49              		.cfi_offset 3, -4
  50              		.cfi_offset 2, -8
  51              		.cfi_offset 1, -12
  52 0008 53F8041B 		ldr	r1, [r3], #4
  53              		.loc 1 73 0
ARM GAS  C:\Users\DNIEL~1\AppData\Local\Temp\ccuPvHGk.s 			page 2


  54 000c 1A46     		mov	r2, r3
  55              		.loc 1 72 0
  56 000e 0193     		str	r3, [sp, #4]
  57              		.loc 1 73 0
  58 0010 FFF7FEFF 		bl	chvprintf
  59              	.LVL1:
  60              		.loc 1 75 0
  61 0014 02B0     		add	sp, sp, #8
  62 0016 5DF804EB 		pop	{lr}
  63 001a 03B0     		add	sp, sp, #12
  64 001c 7047     		bx	lr
  65              		.cfi_endproc
  66              	.LFE118:
  67              		.size	chprintf, .-chprintf
  68 001e 00BF     		.section	.text.lightInit,"ax",%progbits
  69              		.align	2
  70              		.p2align 4,,15
  71              		.global	lightInit
  72              		.thumb
  73              		.thumb_func
  74              		.type	lightInit, %function
  75              	lightInit:
  76              	.LFB119:
  77              		.file 2 "src/light.c"
  78              		.loc 2 44 0
  79              		.cfi_startproc
  80              		@ args = 0, pretend = 0, frame = 0
  81              		@ frame_needed = 0, uses_anonymous_args = 0
  82              		@ link register save eliminated.
  83              		.loc 2 45 0
  84 0000 064A     		ldr	r2, .L3
  85              		.loc 2 49 0
  86 0002 0748     		ldr	r0, .L3+4
  87 0004 0749     		ldr	r1, .L3+8
  88              		.loc 2 45 0
  89 0006 0023     		movs	r3, #0
  90 0008 1360     		str	r3, [r2, #0]
  91              		.loc 2 46 0
  92 000a 074A     		ldr	r2, .L3+12
  93 000c 1370     		strb	r3, [r2, #0]
  94              		.loc 2 47 0
  95 000e 074A     		ldr	r2, .L3+16
  96 0010 1370     		strb	r3, [r2, #0]
  97              		.loc 2 48 0
  98 0012 074A     		ldr	r2, .L3+20
  99 0014 1370     		strb	r3, [r2, #0]
 100              		.loc 2 50 0
 101              		.loc 2 49 0
 102 0016 FFF7FEBF 		b	pwmStart
 103              	.L4:
 104 001a 00BF     		.align	2
 105              	.L3:
 106 001c 00000000 		.word	.LANCHOR0
 107 0020 00000000 		.word	PWMD4
 108 0024 00000000 		.word	.LANCHOR4
 109 0028 00000000 		.word	.LANCHOR1
 110 002c 00000000 		.word	.LANCHOR2
ARM GAS  C:\Users\DNIEL~1\AppData\Local\Temp\ccuPvHGk.s 			page 3


 111 0030 00000000 		.word	.LANCHOR3
 112              		.cfi_endproc
 113              	.LFE119:
 114              		.size	lightInit, .-lightInit
 115 0034 AFF30080 		.section	.text.lightCalc,"ax",%progbits
 115      AFF30080 
 115      AFF30080 
 116              		.align	2
 117              		.p2align 4,,15
 118              		.global	lightCalc
 119              		.thumb
 120              		.thumb_func
 121              		.type	lightCalc, %function
 122              	lightCalc:
 123              	.LFB120:
 124              		.loc 2 52 0
 125              		.cfi_startproc
 126              		@ args = 0, pretend = 0, frame = 0
 127              		@ frame_needed = 0, uses_anonymous_args = 0
 128              		.loc 2 54 0
 129 0000 2F4A     		ldr	r2, .L17
 130              		.loc 2 52 0
 131 0002 38B5     		push	{r3, r4, r5, lr}
 132              	.LCFI3:
 133              		.cfi_def_cfa_offset 16
 134              		.loc 2 54 0
 135 0004 1368     		ldr	r3, [r2, #0]
 136              		.cfi_offset 14, -4
 137              		.cfi_offset 5, -8
 138              		.cfi_offset 4, -12
 139              		.cfi_offset 3, -16
 140 0006 0133     		adds	r3, r3, #1
 141              		.loc 2 56 0
 142 0008 3C2B     		cmp	r3, #60
 143              		.loc 2 54 0
 144 000a 1360     		str	r3, [r2, #0]
 145              		.loc 2 56 0
 146 000c 14DC     		bgt	.L12
 147              		.loc 2 61 0
 148 000e 1E2B     		cmp	r3, #30
 149 0010 18DC     		bgt	.L13
 150              		.loc 2 71 0
 151 0012 2C4C     		ldr	r4, .L17+4
 152 0014 6178     		ldrb	r1, [r4, #1]	@ zero_extendqisi2
 153 0016 19B1     		cbz	r1, .L9
 154              		.loc 2 71 0 is_stmt 0 discriminator 1
 155 0018 2B4D     		ldr	r5, .L17+8
 156 001a 2A78     		ldrb	r2, [r5, #0]	@ zero_extendqisi2
 157 001c 002A     		cmp	r2, #0
 158 001e 41D1     		bne	.L14
 159              	.L9:
 160              		.loc 2 79 0 is_stmt 1
 161 0020 A278     		ldrb	r2, [r4, #2]	@ zero_extendqisi2
 162 0022 1AB1     		cbz	r2, .L10
 163              		.loc 2 79 0 is_stmt 0 discriminator 1
 164 0024 284D     		ldr	r5, .L17+8
 165 0026 2878     		ldrb	r0, [r5, #0]	@ zero_extendqisi2
ARM GAS  C:\Users\DNIEL~1\AppData\Local\Temp\ccuPvHGk.s 			page 4


 166 0028 0028     		cmp	r0, #0
 167 002a 2ED1     		bne	.L15
 168              	.L10:
 169              		.loc 2 87 0 is_stmt 1
 170 002c E078     		ldrb	r0, [r4, #3]	@ zero_extendqisi2
 171 002e 10B1     		cbz	r0, .L5
 172              		.loc 2 87 0 is_stmt 0 discriminator 1
 173 0030 254C     		ldr	r4, .L17+8
 174 0032 2178     		ldrb	r1, [r4, #0]	@ zero_extendqisi2
 175 0034 A1B9     		cbnz	r1, .L16
 176              	.L5:
 177 0036 38BD     		pop	{r3, r4, r5, pc}
 178              	.L12:
 179              		.loc 2 57 0 is_stmt 1
 180 0038 0021     		movs	r1, #0
 181              		.loc 2 58 0
 182 003a 2348     		ldr	r0, .L17+8
 183              		.loc 2 57 0
 184 003c 1160     		str	r1, [r2, #0]
 185              		.loc 2 58 0
 186 003e 0122     		movs	r2, #1
 187 0040 0270     		strb	r2, [r0, #0]
 188 0042 38BD     		pop	{r3, r4, r5, pc}
 189              	.L13:
 190              		.loc 2 63 0
 191 0044 2148     		ldr	r0, .L17+12
 192 0046 0121     		movs	r1, #1
 193 0048 FFF7FEFF 		bl	pwmDisableChannel
 194              		.loc 2 64 0
 195 004c 1F48     		ldr	r0, .L17+12
 196 004e 0221     		movs	r1, #2
 197 0050 FFF7FEFF 		bl	pwmDisableChannel
 198              		.loc 2 66 0
 199 0054 1E48     		ldr	r0, .L17+16
 200              		.loc 2 67 0
 201 0056 1F4A     		ldr	r2, .L17+20
 202              		.loc 2 66 0
 203 0058 0023     		movs	r3, #0
 204 005a 0370     		strb	r3, [r0, #0]
 205              		.loc 2 67 0
 206 005c 1370     		strb	r3, [r2, #0]
 207 005e 38BD     		pop	{r3, r4, r5, pc}
 208              	.L16:
 209              		.loc 2 90 0
 210 0060 1A4D     		ldr	r5, .L17+12
 211              		.loc 2 89 0
 212 0062 FFF7FEFF 		bl	can_lightWarning
 213              		.loc 2 90 0
 214 0066 0121     		movs	r1, #1
 215 0068 2A89     		ldrh	r2, [r5, #8]
 216 006a 2846     		mov	r0, r5
 217 006c FFF7FEFF 		bl	pwmEnableChannel
 218              		.loc 2 91 0
 219 0070 2846     		mov	r0, r5
 220 0072 0221     		movs	r1, #2
 221 0074 2A89     		ldrh	r2, [r5, #8]
 222 0076 FFF7FEFF 		bl	pwmEnableChannel
ARM GAS  C:\Users\DNIEL~1\AppData\Local\Temp\ccuPvHGk.s 			page 5


 223              		.loc 2 93 0
 224 007a 1548     		ldr	r0, .L17+16
 225              		.loc 2 94 0
 226 007c 154A     		ldr	r2, .L17+20
 227              		.loc 2 93 0
 228 007e 0123     		movs	r3, #1
 229              		.loc 2 92 0
 230 0080 0021     		movs	r1, #0
 231 0082 2170     		strb	r1, [r4, #0]
 232              		.loc 2 93 0
 233 0084 0370     		strb	r3, [r0, #0]
 234              		.loc 2 94 0
 235 0086 1370     		strb	r3, [r2, #0]
 236 0088 38BD     		pop	{r3, r4, r5, pc}
 237              	.L15:
 238              		.loc 2 81 0
 239 008a FFF7FEFF 		bl	can_lightLeft
 240              		.loc 2 82 0
 241 008e 0F48     		ldr	r0, .L17+12
 242 0090 0221     		movs	r1, #2
 243 0092 0289     		ldrh	r2, [r0, #8]
 244 0094 FFF7FEFF 		bl	pwmEnableChannel
 245              		.loc 2 84 0
 246 0098 0E4B     		ldr	r3, .L17+20
 247              		.loc 2 83 0
 248 009a 0022     		movs	r2, #0
 249              		.loc 2 84 0
 250 009c 0121     		movs	r1, #1
 251              		.loc 2 83 0
 252 009e 2A70     		strb	r2, [r5, #0]
 253              		.loc 2 84 0
 254 00a0 1970     		strb	r1, [r3, #0]
 255 00a2 C3E7     		b	.L10
 256              	.L14:
 257              		.loc 2 73 0
 258 00a4 FFF7FEFF 		bl	can_lightRight
 259              		.loc 2 74 0
 260 00a8 0848     		ldr	r0, .L17+12
 261 00aa 0121     		movs	r1, #1
 262 00ac 0289     		ldrh	r2, [r0, #8]
 263 00ae FFF7FEFF 		bl	pwmEnableChannel
 264              		.loc 2 76 0
 265 00b2 074B     		ldr	r3, .L17+16
 266              		.loc 2 75 0
 267 00b4 0021     		movs	r1, #0
 268              		.loc 2 76 0
 269 00b6 0120     		movs	r0, #1
 270              		.loc 2 75 0
 271 00b8 2970     		strb	r1, [r5, #0]
 272              		.loc 2 76 0
 273 00ba 1870     		strb	r0, [r3, #0]
 274 00bc B0E7     		b	.L9
 275              	.L18:
 276 00be 00BF     		.align	2
 277              	.L17:
 278 00c0 00000000 		.word	.LANCHOR0
 279 00c4 00000000 		.word	.LANCHOR5
ARM GAS  C:\Users\DNIEL~1\AppData\Local\Temp\ccuPvHGk.s 			page 6


 280 00c8 00000000 		.word	.LANCHOR1
 281 00cc 00000000 		.word	PWMD4
 282 00d0 00000000 		.word	.LANCHOR2
 283 00d4 00000000 		.word	.LANCHOR3
 284              		.cfi_endproc
 285              	.LFE120:
 286              		.size	lightCalc, .-lightCalc
 287 00d8 AFF30080 		.section	.text.lightFlashing,"ax",%progbits
 287      AFF30080 
 288              		.align	2
 289              		.p2align 4,,15
 290              		.global	lightFlashing
 291              		.thumb
 292              		.thumb_func
 293              		.type	lightFlashing, %function
 294              	lightFlashing:
 295              	.LFB121:
 296              		.loc 2 99 0
 297              		.cfi_startproc
 298              		@ args = 0, pretend = 0, frame = 0
 299              		@ frame_needed = 0, uses_anonymous_args = 0
 300              		@ link register save eliminated.
 301              	.LVL2:
 302 0000 10B4     		push	{r4}
 303              	.LCFI4:
 304              		.cfi_def_cfa_offset 4
 305              		.loc 2 101 0
 306 0002 A0F10102 		sub	r2, r0, #1
 307              		.loc 2 100 0
 308 0006 D0F10104 		rsbs	r4, r0, #1
 309              		.cfi_offset 4, -4
 310              		.loc 2 102 0
 311 000a A0F1020C 		sub	ip, r0, #2
 312              		.loc 2 100 0
 313 000e 38BF     		it	cc
 314 0010 0024     		movcc	r4, #0
 315              		.loc 2 101 0
 316 0012 5142     		rsbs	r1, r2, #0
 317 0014 41EB0201 		adc	r1, r1, r2
 318              		.loc 2 102 0
 319 0018 DCF10002 		rsbs	r2, ip, #0
 320 001c 42EB0C02 		adc	r2, r2, ip
 321              		.loc 2 103 0
 322 0020 A0F1030C 		sub	ip, r0, #3
 323              		.loc 2 100 0
 324 0024 084B     		ldr	r3, .L20
 325              		.loc 2 103 0
 326 0026 DCF10000 		rsbs	r0, ip, #0
 327              	.LVL3:
 328 002a 40EB0C0C 		adc	ip, r0, ip
 329              	.LVL4:
 330              		.loc 2 100 0
 331 002e 1C70     		strb	r4, [r3, #0]
 332              		.loc 2 101 0
 333 0030 5970     		strb	r1, [r3, #1]
 334              		.loc 2 102 0
 335 0032 9A70     		strb	r2, [r3, #2]
ARM GAS  C:\Users\DNIEL~1\AppData\Local\Temp\ccuPvHGk.s 			page 7


 336              		.loc 2 103 0
 337 0034 83F803C0 		strb	ip, [r3, #3]
 338              		.loc 2 105 0
 339 0038 0449     		ldr	r1, .L20+4
 340              		.loc 2 106 0
 341 003a 054B     		ldr	r3, .L20+8
 342              		.loc 2 105 0
 343 003c 0020     		movs	r0, #0
 344              		.loc 2 106 0
 345 003e 0122     		movs	r2, #1
 346              		.loc 2 105 0
 347 0040 0860     		str	r0, [r1, #0]
 348              		.loc 2 106 0
 349 0042 1A70     		strb	r2, [r3, #0]
 350              		.loc 2 107 0
 351 0044 10BC     		pop	{r4}
 352 0046 7047     		bx	lr
 353              	.L21:
 354              		.align	2
 355              	.L20:
 356 0048 00000000 		.word	.LANCHOR5
 357 004c 00000000 		.word	.LANCHOR0
 358 0050 00000000 		.word	.LANCHOR1
 359              		.cfi_endproc
 360              	.LFE121:
 361              		.size	lightFlashing, .-lightFlashing
 362 0054 AFF30080 		.section	.text.lightBrakeOn,"ax",%progbits
 362      AFF30080 
 362      AFF30080 
 363              		.align	2
 364              		.p2align 4,,15
 365              		.global	lightBrakeOn
 366              		.thumb
 367              		.thumb_func
 368              		.type	lightBrakeOn, %function
 369              	lightBrakeOn:
 370              	.LFB122:
 371              		.loc 2 109 0
 372              		.cfi_startproc
 373              		@ args = 0, pretend = 0, frame = 0
 374              		@ frame_needed = 0, uses_anonymous_args = 0
 375              		@ link register save eliminated.
 376              		.loc 2 110 0
 377 0000 024B     		ldr	r3, .L23
 378 0002 0122     		movs	r2, #1
 379 0004 1A71     		strb	r2, [r3, #4]
 380              		.loc 2 112 0
 381              		.loc 2 111 0
 382 0006 FFF7FEBF 		b	can_lightBreakOn
 383              	.L24:
 384 000a 00BF     		.align	2
 385              	.L23:
 386 000c 00000000 		.word	.LANCHOR5
 387              		.cfi_endproc
 388              	.LFE122:
 389              		.size	lightBrakeOn, .-lightBrakeOn
 390              		.section	.text.lightBrakeOff,"ax",%progbits
ARM GAS  C:\Users\DNIEL~1\AppData\Local\Temp\ccuPvHGk.s 			page 8


 391              		.align	2
 392              		.p2align 4,,15
 393              		.global	lightBrakeOff
 394              		.thumb
 395              		.thumb_func
 396              		.type	lightBrakeOff, %function
 397              	lightBrakeOff:
 398              	.LFB123:
 399              		.loc 2 113 0
 400              		.cfi_startproc
 401              		@ args = 0, pretend = 0, frame = 0
 402              		@ frame_needed = 0, uses_anonymous_args = 0
 403              		@ link register save eliminated.
 404              		.loc 2 114 0
 405 0000 024B     		ldr	r3, .L26
 406 0002 0022     		movs	r2, #0
 407 0004 1A71     		strb	r2, [r3, #4]
 408              		.loc 2 116 0
 409              		.loc 2 115 0
 410 0006 FFF7FEBF 		b	can_lightBreakOff
 411              	.L27:
 412 000a 00BF     		.align	2
 413              	.L26:
 414 000c 00000000 		.word	.LANCHOR5
 415              		.cfi_endproc
 416              	.LFE123:
 417              		.size	lightBrakeOff, .-lightBrakeOff
 418              		.section	.text.lightPosLampOn,"ax",%progbits
 419              		.align	2
 420              		.p2align 4,,15
 421              		.global	lightPosLampOn
 422              		.thumb
 423              		.thumb_func
 424              		.type	lightPosLampOn, %function
 425              	lightPosLampOn:
 426              	.LFB124:
 427              		.loc 2 118 0
 428              		.cfi_startproc
 429              		@ args = 0, pretend = 0, frame = 0
 430              		@ frame_needed = 0, uses_anonymous_args = 0
 431              		.loc 2 119 0
 432 0000 064B     		ldr	r3, .L29
 433 0002 0122     		movs	r2, #1
 434              		.loc 2 118 0
 435 0004 10B5     		push	{r4, lr}
 436              	.LCFI5:
 437              		.cfi_def_cfa_offset 8
 438              		.loc 2 119 0
 439 0006 5A71     		strb	r2, [r3, #5]
 440              		.loc 2 120 0
 441              		.cfi_offset 14, -4
 442              		.cfi_offset 4, -8
 443 0008 FFF7FEFF 		bl	can_lightPosLampOn
 444              		.loc 2 121 0
 445 000c 0448     		ldr	r0, .L29+4
 446 000e 0289     		ldrh	r2, [r0, #8]
 447 0010 0321     		movs	r1, #3
ARM GAS  C:\Users\DNIEL~1\AppData\Local\Temp\ccuPvHGk.s 			page 9


 448              		.loc 2 122 0
 449 0012 BDE81040 		pop	{r4, lr}
 450              		.loc 2 121 0
 451 0016 FFF7FEBF 		b	pwmEnableChannel
 452              	.L30:
 453 001a 00BF     		.align	2
 454              	.L29:
 455 001c 00000000 		.word	.LANCHOR5
 456 0020 00000000 		.word	PWMD4
 457              		.cfi_endproc
 458              	.LFE124:
 459              		.size	lightPosLampOn, .-lightPosLampOn
 460 0024 AFF30080 		.section	.text.lightPosLampOff,"ax",%progbits
 460      AFF30080 
 460      AFF30080 
 461              		.align	2
 462              		.p2align 4,,15
 463              		.global	lightPosLampOff
 464              		.thumb
 465              		.thumb_func
 466              		.type	lightPosLampOff, %function
 467              	lightPosLampOff:
 468              	.LFB125:
 469              		.loc 2 123 0
 470              		.cfi_startproc
 471              		@ args = 0, pretend = 0, frame = 0
 472              		@ frame_needed = 0, uses_anonymous_args = 0
 473              		.loc 2 124 0
 474 0000 054B     		ldr	r3, .L32
 475              		.loc 2 123 0
 476 0002 10B5     		push	{r4, lr}
 477              	.LCFI6:
 478              		.cfi_def_cfa_offset 8
 479              		.loc 2 124 0
 480 0004 0022     		movs	r2, #0
 481 0006 5A71     		strb	r2, [r3, #5]
 482              		.loc 2 125 0
 483              		.cfi_offset 14, -4
 484              		.cfi_offset 4, -8
 485 0008 FFF7FEFF 		bl	can_lightPosLampOff
 486              		.loc 2 126 0
 487 000c 0348     		ldr	r0, .L32+4
 488 000e 0321     		movs	r1, #3
 489              		.loc 2 127 0
 490 0010 BDE81040 		pop	{r4, lr}
 491              		.loc 2 126 0
 492 0014 FFF7FEBF 		b	pwmDisableChannel
 493              	.L33:
 494              		.align	2
 495              	.L32:
 496 0018 00000000 		.word	.LANCHOR5
 497 001c 00000000 		.word	PWMD4
 498              		.cfi_endproc
 499              	.LFE125:
 500              		.size	lightPosLampOff, .-lightPosLampOff
 501              		.section	.text.getLightFlashing,"ax",%progbits
 502              		.align	2
ARM GAS  C:\Users\DNIEL~1\AppData\Local\Temp\ccuPvHGk.s 			page 10


 503              		.p2align 4,,15
 504              		.global	getLightFlashing
 505              		.thumb
 506              		.thumb_func
 507              		.type	getLightFlashing, %function
 508              	getLightFlashing:
 509              	.LFB126:
 510              		.loc 2 129 0
 511              		.cfi_startproc
 512              		@ args = 0, pretend = 0, frame = 0
 513              		@ frame_needed = 0, uses_anonymous_args = 0
 514              		@ link register save eliminated.
 515              	.LVL5:
 516              		.loc 2 130 0
 517 0000 0128     		cmp	r0, #1
 518 0002 23D0     		beq	.L46
 519              		.loc 2 131 0
 520 0004 0228     		cmp	r0, #2
 521 0006 08D0     		beq	.L47
 522              		.loc 2 132 0
 523 0008 0328     		cmp	r0, #3
 524 000a 0AD0     		beq	.L48
 525              		.loc 2 133 0
 526 000c 0428     		cmp	r0, #4
 527 000e 0FD0     		beq	.L49
 528              		.loc 2 134 0
 529 0010 0528     		cmp	r0, #5
 530 0012 1ED1     		bne	.L40
 531              		.loc 2 134 0 is_stmt 0 discriminator 1
 532 0014 124B     		ldr	r3, .L51
 533 0016 5879     		ldrb	r0, [r3, #5]	@ zero_extendqisi2
 534              	.LVL6:
 535 0018 7047     		bx	lr
 536              	.LVL7:
 537              	.L47:
 538              		.loc 2 131 0 is_stmt 1 discriminator 1
 539 001a 1248     		ldr	r0, .L51+4
 540              	.LVL8:
 541 001c 0078     		ldrb	r0, [r0, #0]	@ zero_extendqisi2
 542 001e 90B9     		cbnz	r0, .L50
 543              	.L36:
 544              		.loc 2 138 0
 545 0020 7047     		bx	lr
 546              	.LVL9:
 547              	.L48:
 548              		.loc 2 132 0 discriminator 1
 549 0022 114A     		ldr	r2, .L51+8
 550 0024 1078     		ldrb	r0, [r2, #0]	@ zero_extendqisi2
 551              	.LVL10:
 552 0026 0028     		cmp	r0, #0
 553 0028 FAD0     		beq	.L36
 554 002a 0D4B     		ldr	r3, .L51
 555 002c 9878     		ldrb	r0, [r3, #2]	@ zero_extendqisi2
 556 002e 7047     		bx	lr
 557              	.LVL11:
 558              	.L49:
 559              		.loc 2 133 0 discriminator 1
ARM GAS  C:\Users\DNIEL~1\AppData\Local\Temp\ccuPvHGk.s 			page 11


 560 0030 0C48     		ldr	r0, .L51+4
 561              	.LVL12:
 562 0032 0078     		ldrb	r0, [r0, #0]	@ zero_extendqisi2
 563 0034 0028     		cmp	r0, #0
 564 0036 F3D0     		beq	.L36
 565 0038 0B49     		ldr	r1, .L51+8
 566 003a 0878     		ldrb	r0, [r1, #0]	@ zero_extendqisi2
 567 003c 0028     		cmp	r0, #0
 568 003e EFD0     		beq	.L36
 569 0040 074A     		ldr	r2, .L51
 570 0042 D078     		ldrb	r0, [r2, #3]	@ zero_extendqisi2
 571 0044 7047     		bx	lr
 572              	.L50:
 573              		.loc 2 131 0 discriminator 1
 574 0046 0649     		ldr	r1, .L51
 575 0048 4878     		ldrb	r0, [r1, #1]	@ zero_extendqisi2
 576 004a 7047     		bx	lr
 577              	.LVL13:
 578              	.L46:
 579              		.loc 2 130 0 discriminator 1
 580 004c 044B     		ldr	r3, .L51
 581 004e 1878     		ldrb	r0, [r3, #0]	@ zero_extendqisi2
 582              	.LVL14:
 583 0050 7047     		bx	lr
 584              	.LVL15:
 585              	.L40:
 586              		.loc 2 135 0
 587 0052 0628     		cmp	r0, #6
 588 0054 02D1     		bne	.L45
 589              		.loc 2 135 0 is_stmt 0 discriminator 1
 590 0056 0248     		ldr	r0, .L51
 591              	.LVL16:
 592 0058 0079     		ldrb	r0, [r0, #4]	@ zero_extendqisi2
 593 005a 7047     		bx	lr
 594              	.LVL17:
 595              	.L45:
 596              		.loc 2 137 0 is_stmt 1
 597 005c 0020     		movs	r0, #0
 598              	.LVL18:
 599 005e DFE7     		b	.L36
 600              	.L52:
 601              		.align	2
 602              	.L51:
 603 0060 00000000 		.word	.LANCHOR5
 604 0064 00000000 		.word	.LANCHOR2
 605 0068 00000000 		.word	.LANCHOR3
 606              		.cfi_endproc
 607              	.LFE126:
 608              		.size	getLightFlashing, .-getLightFlashing
 609              		.section	.text.cmd_lightvalues,"ax",%progbits
 610              		.align	2
 611              		.p2align 4,,15
 612              		.global	cmd_lightvalues
 613              		.thumb
 614              		.thumb_func
 615              		.type	cmd_lightvalues, %function
 616              	cmd_lightvalues:
ARM GAS  C:\Users\DNIEL~1\AppData\Local\Temp\ccuPvHGk.s 			page 12


 617              	.LFB127:
 618              		.loc 2 140 0
 619              		.cfi_startproc
 620              		@ args = 0, pretend = 0, frame = 0
 621              		@ frame_needed = 0, uses_anonymous_args = 0
 622              	.LVL19:
 623 0000 38B5     		push	{r3, r4, r5, lr}
 624              	.LCFI7:
 625              		.cfi_def_cfa_offset 16
 626              		.loc 2 144 0
 627 0002 1B49     		ldr	r1, .L56
 628              	.LVL20:
 629              		.loc 2 149 0
 630 0004 1B4D     		ldr	r5, .L56+4
 631              		.cfi_offset 14, -4
 632              		.cfi_offset 5, -8
 633              		.cfi_offset 4, -12
 634              		.cfi_offset 3, -16
 635              		.loc 2 140 0
 636 0006 0446     		mov	r4, r0
 637              		.loc 2 144 0
 638 0008 FFF7FEFF 		bl	chprintf
 639              	.LVL21:
 640              		.loc 2 145 0
 641 000c 2046     		mov	r0, r4
 642 000e 1A49     		ldr	r1, .L56+8
 643 0010 FFF7FEFF 		bl	chprintf
 644              		.loc 2 146 0
 645 0014 22E0     		b	.L54
 646              	.L55:
 647              		.loc 2 147 0
 648 0016 0022     		movs	r2, #0
 649 0018 1346     		mov	r3, r2
 650 001a 1849     		ldr	r1, .L56+12
 651 001c 2046     		mov	r0, r4
 652 001e FFF7FEFF 		bl	chprintf
 653              		.loc 2 149 0
 654 0022 2046     		mov	r0, r4
 655 0024 1649     		ldr	r1, .L56+16
 656 0026 6A78     		ldrb	r2, [r5, #1]	@ zero_extendqisi2
 657 0028 FFF7FEFF 		bl	chprintf
 658              		.loc 2 150 0
 659 002c 2046     		mov	r0, r4
 660 002e 1549     		ldr	r1, .L56+20
 661 0030 AA78     		ldrb	r2, [r5, #2]	@ zero_extendqisi2
 662 0032 FFF7FEFF 		bl	chprintf
 663              		.loc 2 151 0
 664 0036 2046     		mov	r0, r4
 665 0038 1349     		ldr	r1, .L56+24
 666 003a EA78     		ldrb	r2, [r5, #3]	@ zero_extendqisi2
 667 003c FFF7FEFF 		bl	chprintf
 668              		.loc 2 152 0
 669 0040 2046     		mov	r0, r4
 670 0042 1249     		ldr	r1, .L56+28
 671 0044 2A79     		ldrb	r2, [r5, #4]	@ zero_extendqisi2
 672 0046 FFF7FEFF 		bl	chprintf
 673              		.loc 2 153 0
ARM GAS  C:\Users\DNIEL~1\AppData\Local\Temp\ccuPvHGk.s 			page 13


 674 004a 2046     		mov	r0, r4
 675 004c 1049     		ldr	r1, .L56+32
 676 004e 6A79     		ldrb	r2, [r5, #5]	@ zero_extendqisi2
 677 0050 FFF7FEFF 		bl	chprintf
 678              		.loc 2 154 0
 679 0054 4FF47A70 		mov	r0, #1000
 680 0058 FFF7FEFF 		bl	chThdSleep
 681              	.L54:
 682              		.loc 2 146 0 discriminator 1
 683 005c 2168     		ldr	r1, [r4, #0]
 684 005e 2046     		mov	r0, r4
 685 0060 4B69     		ldr	r3, [r1, #20]
 686 0062 0021     		movs	r1, #0
 687 0064 9847     		blx	r3
 688 0066 B0F1FF3F 		cmp	r0, #-1
 689 006a D4D0     		beq	.L55
 690              		.loc 2 156 0
 691 006c 38BD     		pop	{r3, r4, r5, pc}
 692              	.L57:
 693 006e 00BF     		.align	2
 694              	.L56:
 695 0070 00000000 		.word	.LC0
 696 0074 00000000 		.word	.LANCHOR5
 697 0078 04000000 		.word	.LC1
 698 007c 0C000000 		.word	.LC2
 699 0080 18000000 		.word	.LC3
 700 0084 2C000000 		.word	.LC4
 701 0088 40000000 		.word	.LC5
 702 008c 58000000 		.word	.LC6
 703 0090 6C000000 		.word	.LC7
 704              		.cfi_endproc
 705              	.LFE127:
 706              		.size	cmd_lightvalues, .-cmd_lightvalues
 707 0094 AFF30080 		.section	.text.cmd_lightblink,"ax",%progbits
 707      AFF30080 
 707      AFF30080 
 708              		.align	2
 709              		.p2align 4,,15
 710              		.global	cmd_lightblink
 711              		.thumb
 712              		.thumb_func
 713              		.type	cmd_lightblink, %function
 714              	cmd_lightblink:
 715              	.LFB128:
 716              		.loc 2 158 0
 717              		.cfi_startproc
 718              		@ args = 0, pretend = 0, frame = 0
 719              		@ frame_needed = 0, uses_anonymous_args = 0
 720              	.LVL22:
 721 0000 2DE9F041 		push	{r4, r5, r6, r7, r8, lr}
 722              	.LCFI8:
 723              		.cfi_def_cfa_offset 24
 724              		.loc 2 158 0
 725 0004 0446     		mov	r4, r0
 726              		.cfi_offset 14, -4
 727              		.cfi_offset 8, -8
 728              		.cfi_offset 7, -12
ARM GAS  C:\Users\DNIEL~1\AppData\Local\Temp\ccuPvHGk.s 			page 14


 729              		.cfi_offset 6, -16
 730              		.cfi_offset 5, -20
 731              		.cfi_offset 4, -24
 732 0006 0D46     		mov	r5, r1
 733              		.loc 2 162 0
 734 0008 6249     		ldr	r1, .L77
 735              	.LVL23:
 736              		.loc 2 158 0
 737 000a 1646     		mov	r6, r2
 738              		.loc 2 162 0
 739 000c FFF7FEFF 		bl	chprintf
 740              	.LVL24:
 741              		.loc 2 163 0
 742 0010 2046     		mov	r0, r4
 743 0012 6149     		ldr	r1, .L77+4
 744 0014 FFF7FEFF 		bl	chprintf
 745              		.loc 2 164 0
 746 0018 2168     		ldr	r1, [r4, #0]
 747 001a 2046     		mov	r0, r4
 748 001c 4B69     		ldr	r3, [r1, #20]
 749 001e 0021     		movs	r1, #0
 750 0020 9847     		blx	r3
 751 0022 B0F1FF3F 		cmp	r0, #-1
 752 0026 21D0     		beq	.L69
 753              	.LVL25:
 754              	.L59:
 755              		.loc 2 227 0
 756 0028 2046     		mov	r0, r4
 757 002a 5C49     		ldr	r1, .L77+8
 758 002c FFF7FEFF 		bl	chprintf
 759              		.loc 2 228 0
 760 0030 2046     		mov	r0, r4
 761 0032 5B49     		ldr	r1, .L77+12
 762 0034 FFF7FEFF 		bl	chprintf
 763              		.loc 2 229 0
 764 0038 2046     		mov	r0, r4
 765 003a 5A49     		ldr	r1, .L77+16
 766 003c FFF7FEFF 		bl	chprintf
 767              		.loc 2 230 0
 768 0040 2046     		mov	r0, r4
 769 0042 5949     		ldr	r1, .L77+20
 770 0044 FFF7FEFF 		bl	chprintf
 771              		.loc 2 231 0
 772 0048 2046     		mov	r0, r4
 773 004a 5849     		ldr	r1, .L77+24
 774 004c FFF7FEFF 		bl	chprintf
 775              		.loc 2 232 0
 776 0050 2046     		mov	r0, r4
 777 0052 5749     		ldr	r1, .L77+28
 778 0054 FFF7FEFF 		bl	chprintf
 779              		.loc 2 233 0
 780 0058 2046     		mov	r0, r4
 781 005a 5649     		ldr	r1, .L77+32
 782 005c FFF7FEFF 		bl	chprintf
 783              		.loc 2 234 0
 784 0060 5549     		ldr	r1, .L77+36
 785 0062 2046     		mov	r0, r4
ARM GAS  C:\Users\DNIEL~1\AppData\Local\Temp\ccuPvHGk.s 			page 15


 786              		.loc 2 236 0
 787 0064 BDE8F041 		pop	{r4, r5, r6, r7, r8, lr}
 788              		.loc 2 234 0
 789 0068 FFF7FEBF 		b	chprintf
 790              	.LVL26:
 791              	.L69:
 792              	.LBB11:
 793              		.loc 2 165 0
 794 006c 0022     		movs	r2, #0
 795 006e 2046     		mov	r0, r4
 796 0070 5249     		ldr	r1, .L77+40
 797 0072 1346     		mov	r3, r2
 798 0074 FFF7FEFF 		bl	chprintf
 799              		.loc 2 166 0
 800 0078 012D     		cmp	r5, #1
 801 007a D5D1     		bne	.L59
 802              		.loc 2 166 0 is_stmt 0 discriminator 1
 803 007c 3668     		ldr	r6, [r6, #0]
 804              	.LVL27:
 805 007e 5049     		ldr	r1, .L77+44
 806 0080 3046     		mov	r0, r6
 807 0082 FFF7FEFF 		bl	strcmp
 808 0086 0746     		mov	r7, r0
 809 0088 0028     		cmp	r0, #0
 810 008a 53D0     		beq	.L70
 811              		.loc 2 173 0 is_stmt 1 discriminator 1
 812 008c 3046     		mov	r0, r6
 813 008e 4D49     		ldr	r1, .L77+48
 814 0090 FFF7FEFF 		bl	strcmp
 815 0094 0746     		mov	r7, r0
 816 0096 0028     		cmp	r0, #0
 817 0098 5BD0     		beq	.L71
 818              		.loc 2 180 0 discriminator 1
 819 009a 3046     		mov	r0, r6
 820 009c 4A49     		ldr	r1, .L77+52
 821 009e FFF7FEFF 		bl	strcmp
 822 00a2 0746     		mov	r7, r0
 823 00a4 0028     		cmp	r0, #0
 824 00a6 5DD0     		beq	.L72
 825              		.loc 2 187 0 discriminator 1
 826 00a8 3046     		mov	r0, r6
 827 00aa 4849     		ldr	r1, .L77+56
 828 00ac FFF7FEFF 		bl	strcmp
 829 00b0 0028     		cmp	r0, #0
 830 00b2 66D0     		beq	.L73
 831              		.loc 2 194 0 discriminator 1
 832 00b4 3046     		mov	r0, r6
 833 00b6 4649     		ldr	r1, .L77+60
 834 00b8 FFF7FEFF 		bl	strcmp
 835 00bc 10B3     		cbz	r0, .L74
 836              		.loc 2 201 0 discriminator 1
 837 00be 3046     		mov	r0, r6
 838 00c0 4449     		ldr	r1, .L77+64
 839 00c2 FFF7FEFF 		bl	strcmp
 840 00c6 0028     		cmp	r0, #0
 841 00c8 24D0     		beq	.L75
 842              		.loc 2 208 0 discriminator 1
ARM GAS  C:\Users\DNIEL~1\AppData\Local\Temp\ccuPvHGk.s 			page 16


 843 00ca 3046     		mov	r0, r6
 844 00cc 4249     		ldr	r1, .L77+68
 845 00ce FFF7FEFF 		bl	strcmp
 846 00d2 0028     		cmp	r0, #0
 847 00d4 26D0     		beq	.L76
 848              		.loc 2 215 0 discriminator 1
 849 00d6 3046     		mov	r0, r6
 850 00d8 4049     		ldr	r1, .L77+72
 851 00da FFF7FEFF 		bl	strcmp
 852 00de 0028     		cmp	r0, #0
 853 00e0 A2D1     		bne	.L59
 854              		.loc 2 216 0
 855 00e2 2046     		mov	r0, r4
 856 00e4 3E49     		ldr	r1, .L77+76
 857 00e6 FFF7FEFF 		bl	chprintf
 858              	.LVL28:
 859              	.LBB20:
 860              	.LBB21:
 861              		.loc 2 100 0
 862 00ea 3E4A     		ldr	r2, .L77+80
 863              		.loc 2 105 0
 864 00ec 3E48     		ldr	r0, .L77+84
 865              		.loc 2 101 0
 866 00ee 0023     		movs	r3, #0
 867              		.loc 2 100 0
 868 00f0 0121     		movs	r1, #1
 869 00f2 1170     		strb	r1, [r2, #0]
 870              		.loc 2 101 0
 871 00f4 5370     		strb	r3, [r2, #1]
 872              		.loc 2 102 0
 873 00f6 9370     		strb	r3, [r2, #2]
 874              		.loc 2 103 0
 875 00f8 D370     		strb	r3, [r2, #3]
 876              		.loc 2 106 0
 877 00fa 3C4A     		ldr	r2, .L77+88
 878              		.loc 2 105 0
 879 00fc 0360     		str	r3, [r0, #0]
 880              		.loc 2 106 0
 881 00fe 1170     		strb	r1, [r2, #0]
 882 0100 BDE8F081 		pop	{r4, r5, r6, r7, r8, pc}
 883              	.LVL29:
 884              	.L74:
 885              	.LBE21:
 886              	.LBE20:
 887              		.loc 2 196 0
 888 0104 2046     		mov	r0, r4
 889 0106 3A49     		ldr	r1, .L77+92
 890 0108 FFF7FEFF 		bl	chprintf
 891              	.LBE11:
 892              		.loc 2 236 0
 893 010c BDE8F041 		pop	{r4, r5, r6, r7, r8, lr}
 894              	.LBB22:
 895              		.loc 2 197 0
 896 0110 FFF7FEBF 		b	lightBrakeOff
 897              	.L75:
 898              		.loc 2 203 0
 899 0114 2046     		mov	r0, r4
ARM GAS  C:\Users\DNIEL~1\AppData\Local\Temp\ccuPvHGk.s 			page 17


 900 0116 3749     		ldr	r1, .L77+96
 901 0118 FFF7FEFF 		bl	chprintf
 902              	.LBE22:
 903              		.loc 2 236 0
 904 011c BDE8F041 		pop	{r4, r5, r6, r7, r8, lr}
 905              	.LBB23:
 906              		.loc 2 204 0
 907 0120 FFF7FEBF 		b	lightPosLampOn
 908              	.L76:
 909              		.loc 2 210 0
 910 0124 2046     		mov	r0, r4
 911 0126 3449     		ldr	r1, .L77+100
 912 0128 FFF7FEFF 		bl	chprintf
 913              	.LBE23:
 914              		.loc 2 236 0
 915 012c BDE8F041 		pop	{r4, r5, r6, r7, r8, lr}
 916              	.LBB24:
 917              		.loc 2 211 0
 918 0130 FFF7FEBF 		b	lightPosLampOff
 919              	.L70:
 920              		.loc 2 168 0
 921 0134 2046     		mov	r0, r4
 922 0136 3149     		ldr	r1, .L77+104
 923 0138 FFF7FEFF 		bl	chprintf
 924              	.LVL30:
 925              	.LBB18:
 926              	.LBB19:
 927              		.loc 2 100 0
 928 013c 294B     		ldr	r3, .L77+80
 929 013e 1F70     		strb	r7, [r3, #0]
 930              		.loc 2 101 0
 931 0140 5D70     		strb	r5, [r3, #1]
 932              		.loc 2 102 0
 933 0142 9F70     		strb	r7, [r3, #2]
 934              	.LVL31:
 935              	.L68:
 936              	.LBE19:
 937              	.LBE18:
 938              	.LBB15:
 939              	.LBB16:
 940              		.loc 2 105 0
 941 0144 284A     		ldr	r2, .L77+84
 942              		.loc 2 106 0
 943 0146 2948     		ldr	r0, .L77+88
 944              		.loc 2 103 0
 945 0148 DF70     		strb	r7, [r3, #3]
 946              		.loc 2 105 0
 947 014a 1760     		str	r7, [r2, #0]
 948              		.loc 2 106 0
 949 014c 0570     		strb	r5, [r0, #0]
 950 014e BDE8F081 		pop	{r4, r5, r6, r7, r8, pc}
 951              	.L71:
 952              	.LBE16:
 953              	.LBE15:
 954              		.loc 2 175 0
 955 0152 2046     		mov	r0, r4
 956 0154 2A49     		ldr	r1, .L77+108
ARM GAS  C:\Users\DNIEL~1\AppData\Local\Temp\ccuPvHGk.s 			page 18


 957 0156 FFF7FEFF 		bl	chprintf
 958              	.LVL32:
 959              	.LBB14:
 960              	.LBB17:
 961              		.loc 2 100 0
 962 015a 224B     		ldr	r3, .L77+80
 963 015c 1F70     		strb	r7, [r3, #0]
 964              		.loc 2 101 0
 965 015e 5F70     		strb	r7, [r3, #1]
 966              		.loc 2 102 0
 967 0160 9D70     		strb	r5, [r3, #2]
 968 0162 EFE7     		b	.L68
 969              	.LVL33:
 970              	.L72:
 971              	.LBE17:
 972              	.LBE14:
 973              		.loc 2 182 0
 974 0164 2046     		mov	r0, r4
 975 0166 2749     		ldr	r1, .L77+112
 976 0168 FFF7FEFF 		bl	chprintf
 977              	.LVL34:
 978              	.LBB12:
 979              	.LBB13:
 980              		.loc 2 100 0
 981 016c 1D48     		ldr	r0, .L77+80
 982              		.loc 2 105 0
 983 016e 1E49     		ldr	r1, .L77+84
 984              		.loc 2 106 0
 985 0170 1E4B     		ldr	r3, .L77+88
 986              		.loc 2 100 0
 987 0172 0770     		strb	r7, [r0, #0]
 988              		.loc 2 101 0
 989 0174 4770     		strb	r7, [r0, #1]
 990              		.loc 2 102 0
 991 0176 8770     		strb	r7, [r0, #2]
 992              		.loc 2 103 0
 993 0178 C570     		strb	r5, [r0, #3]
 994              		.loc 2 105 0
 995 017a 0F60     		str	r7, [r1, #0]
 996              		.loc 2 106 0
 997 017c 1D70     		strb	r5, [r3, #0]
 998 017e BDE8F081 		pop	{r4, r5, r6, r7, r8, pc}
 999              	.LVL35:
 1000              	.L73:
 1001              	.LBE13:
 1002              	.LBE12:
 1003              		.loc 2 189 0
 1004 0182 2046     		mov	r0, r4
 1005 0184 2049     		ldr	r1, .L77+116
 1006 0186 FFF7FEFF 		bl	chprintf
 1007              	.LBE24:
 1008              		.loc 2 236 0
 1009 018a BDE8F041 		pop	{r4, r5, r6, r7, r8, lr}
 1010              	.LBB25:
 1011              		.loc 2 190 0
 1012 018e FFF7FEBF 		b	lightBrakeOn
 1013              	.L78:
ARM GAS  C:\Users\DNIEL~1\AppData\Local\Temp\ccuPvHGk.s 			page 19


 1014 0192 00BF     		.align	2
 1015              	.L77:
 1016 0194 00000000 		.word	.LC0
 1017 0198 04000000 		.word	.LC1
 1018 019c 88020000 		.word	.LC24
 1019 01a0 A0020000 		.word	.LC25
 1020 01a4 B4020000 		.word	.LC26
 1021 01a8 CC020000 		.word	.LC27
 1022 01ac E4020000 		.word	.LC28
 1023 01b0 FC020000 		.word	.LC29
 1024 01b4 14030000 		.word	.LC30
 1025 01b8 2C030000 		.word	.LC31
 1026 01bc 0C000000 		.word	.LC2
 1027 01c0 84000000 		.word	.LC8
 1028 01c4 C4000000 		.word	.LC10
 1029 01c8 04010000 		.word	.LC12
 1030 01cc 48010000 		.word	.LC14
 1031 01d0 84010000 		.word	.LC16
 1032 01d4 C8010000 		.word	.LC18
 1033 01d8 08020000 		.word	.LC20
 1034 01dc 48020000 		.word	.LC22
 1035 01e0 50020000 		.word	.LC23
 1036 01e4 00000000 		.word	.LANCHOR5
 1037 01e8 00000000 		.word	.LANCHOR0
 1038 01ec 00000000 		.word	.LANCHOR1
 1039 01f0 90010000 		.word	.LC17
 1040 01f4 D0010000 		.word	.LC19
 1041 01f8 10020000 		.word	.LC21
 1042 01fc 8C000000 		.word	.LC9
 1043 0200 CC000000 		.word	.LC11
 1044 0204 0C010000 		.word	.LC13
 1045 0208 50010000 		.word	.LC15
 1046              	.LBE25:
 1047              		.cfi_endproc
 1048              	.LFE128:
 1049              		.size	cmd_lightblink, .-cmd_lightblink
 1050 020c AFF30080 		.section	.text.cmd_getLight,"ax",%progbits
 1051              		.align	2
 1052              		.p2align 4,,15
 1053              		.global	cmd_getLight
 1054              		.thumb
 1055              		.thumb_func
 1056              		.type	cmd_getLight, %function
 1057              	cmd_getLight:
 1058              	.LFB129:
 1059              		.loc 2 238 0
 1060              		.cfi_startproc
 1061              		@ args = 0, pretend = 0, frame = 0
 1062              		@ frame_needed = 0, uses_anonymous_args = 0
 1063              	.LVL36:
 1064 0000 10B5     		push	{r4, lr}
 1065              	.LCFI9:
 1066              		.cfi_def_cfa_offset 8
 1067              		.loc 2 242 0
 1068 0002 2149     		ldr	r1, .L82
 1069              	.LVL37:
 1070              		.loc 2 238 0
ARM GAS  C:\Users\DNIEL~1\AppData\Local\Temp\ccuPvHGk.s 			page 20


 1071 0004 0446     		mov	r4, r0
 1072              		.cfi_offset 14, -4
 1073              		.cfi_offset 4, -8
 1074              		.loc 2 242 0
 1075 0006 FFF7FEFF 		bl	chprintf
 1076              	.LVL38:
 1077              		.loc 2 243 0
 1078 000a 2046     		mov	r0, r4
 1079 000c 1F49     		ldr	r1, .L82+4
 1080 000e FFF7FEFF 		bl	chprintf
 1081              		.loc 2 244 0
 1082 0012 30E0     		b	.L80
 1083              	.L81:
 1084              		.loc 2 245 0
 1085 0014 0022     		movs	r2, #0
 1086 0016 1346     		mov	r3, r2
 1087 0018 1D49     		ldr	r1, .L82+8
 1088 001a 2046     		mov	r0, r4
 1089 001c FFF7FEFF 		bl	chprintf
 1090              		.loc 2 247 0
 1091 0020 0220     		movs	r0, #2
 1092 0022 FFF7FEFF 		bl	getLightFlashing
 1093 0026 1B49     		ldr	r1, .L82+12
 1094 0028 0246     		mov	r2, r0
 1095 002a 2046     		mov	r0, r4
 1096 002c FFF7FEFF 		bl	chprintf
 1097              		.loc 2 248 0
 1098 0030 0320     		movs	r0, #3
 1099 0032 FFF7FEFF 		bl	getLightFlashing
 1100 0036 1849     		ldr	r1, .L82+16
 1101 0038 0246     		mov	r2, r0
 1102 003a 2046     		mov	r0, r4
 1103 003c FFF7FEFF 		bl	chprintf
 1104              		.loc 2 249 0
 1105 0040 0420     		movs	r0, #4
 1106 0042 FFF7FEFF 		bl	getLightFlashing
 1107 0046 1549     		ldr	r1, .L82+20
 1108 0048 0246     		mov	r2, r0
 1109 004a 2046     		mov	r0, r4
 1110 004c FFF7FEFF 		bl	chprintf
 1111              		.loc 2 250 0
 1112 0050 0520     		movs	r0, #5
 1113 0052 FFF7FEFF 		bl	getLightFlashing
 1114 0056 1249     		ldr	r1, .L82+24
 1115 0058 0246     		mov	r2, r0
 1116 005a 2046     		mov	r0, r4
 1117 005c FFF7FEFF 		bl	chprintf
 1118              		.loc 2 251 0
 1119 0060 0620     		movs	r0, #6
 1120 0062 FFF7FEFF 		bl	getLightFlashing
 1121 0066 0F49     		ldr	r1, .L82+28
 1122 0068 0246     		mov	r2, r0
 1123 006a 2046     		mov	r0, r4
 1124 006c FFF7FEFF 		bl	chprintf
 1125              		.loc 2 252 0
 1126 0070 6420     		movs	r0, #100
 1127 0072 FFF7FEFF 		bl	chThdSleep
ARM GAS  C:\Users\DNIEL~1\AppData\Local\Temp\ccuPvHGk.s 			page 21


 1128              	.L80:
 1129              		.loc 2 244 0 discriminator 1
 1130 0076 2168     		ldr	r1, [r4, #0]
 1131 0078 2046     		mov	r0, r4
 1132 007a 4B69     		ldr	r3, [r1, #20]
 1133 007c 0021     		movs	r1, #0
 1134 007e 9847     		blx	r3
 1135 0080 B0F1FF3F 		cmp	r0, #-1
 1136 0084 C6D0     		beq	.L81
 1137              		.loc 2 254 0
 1138 0086 10BD     		pop	{r4, pc}
 1139              	.L83:
 1140              		.align	2
 1141              	.L82:
 1142 0088 00000000 		.word	.LC0
 1143 008c 04000000 		.word	.LC1
 1144 0090 0C000000 		.word	.LC2
 1145 0094 18000000 		.word	.LC3
 1146 0098 2C000000 		.word	.LC4
 1147 009c 40000000 		.word	.LC5
 1148 00a0 58000000 		.word	.LC6
 1149 00a4 6C000000 		.word	.LC7
 1150              		.cfi_endproc
 1151              	.LFE129:
 1152              		.size	cmd_getLight, .-cmd_getLight
 1153 00a8 AFF30080 		.section	.data.pwmcfg,"aw",%progbits
 1153      AFF30080 
 1154              		.align	2
 1155              		.set	.LANCHOR4,. + 0
 1156              		.type	pwmcfg, %object
 1157              		.size	pwmcfg, 52
 1158              	pwmcfg:
 1159 0000 40420F00 		.word	1000000
 1160 0004 E803     		.short	1000
 1161 0006 0000     		.space	2
 1162 0008 00000000 		.word	0
 1163 000c 01000000 		.word	1
 1164 0010 00000000 		.word	0
 1165 0014 01000000 		.word	1
 1166 0018 00000000 		.word	0
 1167 001c 01000000 		.word	1
 1168 0020 00000000 		.word	0
 1169 0024 01000000 		.word	1
 1170 0028 00000000 		.word	0
 1171 002c 00000000 		.word	0
 1172 0030 00000000 		.word	0
 1173              		.section	.bss.period,"aw",%nobits
 1174              		.align	2
 1175              		.set	.LANCHOR0,. + 0
 1176              		.type	period, %object
 1177              		.size	period, 4
 1178              	period:
 1179 0000 00000000 		.space	4
 1180              		.section	.bss.flashing,"aw",%nobits
 1181              		.set	.LANCHOR1,. + 0
 1182              		.type	flashing, %object
 1183              		.size	flashing, 1
ARM GAS  C:\Users\DNIEL~1\AppData\Local\Temp\ccuPvHGk.s 			page 22


 1184              	flashing:
 1185 0000 00       		.space	1
 1186              		.section	.rodata.str1.4,"aMS",%progbits,1
 1187              		.align	2
 1188              	.LC0:
 1189 0000 1B6300   		.ascii	"\033c\000"
 1190 0003 00       		.space	1
 1191              	.LC1:
 1192 0004 1B5B324A 		.ascii	"\033[2J\000"
 1192      00
 1193 0009 000000   		.space	3
 1194              	.LC2:
 1195 000c 1B5B2564 		.ascii	"\033[%d;%dH\000"
 1195      3B256448 
 1195      00
 1196 0015 000000   		.space	3
 1197              	.LC3:
 1198 0018 52696768 		.ascii	"Right light: %15d\015\012\000"
 1198      74206C69 
 1198      6768743A 
 1198      20253135 
 1198      640D0A00 
 1199              	.LC4:
 1200 002c 4C656674 		.ascii	"Left light: %15d\015\012\000"
 1200      206C6967 
 1200      68743A20 
 1200      25313564 
 1200      0D0A00
 1201 003f 00       		.space	1
 1202              	.LC5:
 1203 0040 5761726E 		.ascii	"Warning light: %15d\015\012\000"
 1203      696E6720 
 1203      6C696768 
 1203      743A2025 
 1203      3135640D 
 1204 0056 0000     		.space	2
 1205              	.LC6:
 1206 0058 4272616B 		.ascii	"Brake light: %15d\015\012\000"
 1206      65206C69 
 1206      6768743A 
 1206      20253135 
 1206      640D0A00 
 1207              	.LC7:
 1208 006c 506F7369 		.ascii	"Position light: %15d\015\012\000"
 1208      74696F6E 
 1208      206C6967 
 1208      68743A20 
 1208      25313564 
 1209 0083 00       		.space	1
 1210              	.LC8:
 1211 0084 72696768 		.ascii	"right\000"
 1211      7400
 1212 008a 0000     		.space	2
 1213              	.LC9:
 1214 008c 2D2D2D2D 		.ascii	"-------------- Blinking right enabled -------------"
 1214      2D2D2D2D 
 1214      2D2D2D2D 
ARM GAS  C:\Users\DNIEL~1\AppData\Local\Temp\ccuPvHGk.s 			page 23


 1214      2D2D2042 
 1214      6C696E6B 
 1215 00bf 2D0D0A00 		.ascii	"-\015\012\000"
 1216 00c3 00       		.space	1
 1217              	.LC10:
 1218 00c4 6C656674 		.ascii	"left\000"
 1218      00
 1219 00c9 000000   		.space	3
 1220              	.LC11:
 1221 00cc 2D2D2D2D 		.ascii	"-------------- Blinking left enabled --------------"
 1221      2D2D2D2D 
 1221      2D2D2D2D 
 1221      2D2D2042 
 1221      6C696E6B 
 1222 00ff 0D0A00   		.ascii	"\015\012\000"
 1223 0102 0000     		.space	2
 1224              	.LC12:
 1225 0104 7761726E 		.ascii	"warning\000"
 1225      696E6700 
 1226              	.LC13:
 1227 010c 2D2D2D2D 		.ascii	"-------------- Blinking warning enabled -----------"
 1227      2D2D2D2D 
 1227      2D2D2D2D 
 1227      2D2D2042 
 1227      6C696E6B 
 1228 013f 2D2D2D0D 		.ascii	"---\015\012\000"
 1228      0A00
 1229 0145 000000   		.space	3
 1230              	.LC14:
 1231 0148 6272616B 		.ascii	"brakeon\000"
 1231      656F6E00 
 1232              	.LC15:
 1233 0150 2D2D2D2D 		.ascii	"-------------- Brake light enabled --------------\015"
 1233      2D2D2D2D 
 1233      2D2D2D2D 
 1233      2D2D2042 
 1233      72616B65 
 1234 0182 0A00     		.ascii	"\012\000"
 1235              	.LC16:
 1236 0184 6272616B 		.ascii	"brakeoff\000"
 1236      656F6666 
 1236      00
 1237 018d 000000   		.space	3
 1238              	.LC17:
 1239 0190 2D2D2D2D 		.ascii	"-------------- Brake light disabled --------------\015"
 1239      2D2D2D2D 
 1239      2D2D2D2D 
 1239      2D2D2042 
 1239      72616B65 
 1240 01c3 0A00     		.ascii	"\012\000"
 1241 01c5 000000   		.space	3
 1242              	.LC18:
 1243 01c8 6C616D70 		.ascii	"lampon\000"
 1243      6F6E00
 1244 01cf 00       		.space	1
 1245              	.LC19:
 1246 01d0 2D2D2D2D 		.ascii	"-------------- Position lamp enabled --------------"
ARM GAS  C:\Users\DNIEL~1\AppData\Local\Temp\ccuPvHGk.s 			page 24


 1246      2D2D2D2D 
 1246      2D2D2D2D 
 1246      2D2D2050 
 1246      6F736974 
 1247 0203 0D0A00   		.ascii	"\015\012\000"
 1248 0206 0000     		.space	2
 1249              	.LC20:
 1250 0208 6C616D70 		.ascii	"lampoff\000"
 1250      6F666600 
 1251              	.LC21:
 1252 0210 2D2D2D2D 		.ascii	"-------------- Position lamp disabled -------------"
 1252      2D2D2D2D 
 1252      2D2D2D2D 
 1252      2D2D2050 
 1252      6F736974 
 1253 0243 2D0D0A00 		.ascii	"-\015\012\000"
 1254 0247 00       		.space	1
 1255              	.LC22:
 1256 0248 73746F70 		.ascii	"stop\000"
 1256      00
 1257 024d 000000   		.space	3
 1258              	.LC23:
 1259 0250 2D2D2D2D 		.ascii	"-------------- All blinking disabled --------------"
 1259      2D2D2D2D 
 1259      2D2D2D2D 
 1259      2D2D2041 
 1259      6C6C2062 
 1260 0283 0D0A00   		.ascii	"\015\012\000"
 1261 0286 0000     		.space	2
 1262              	.LC24:
 1263 0288 55736167 		.ascii	"Usage: light right\015\012\000"
 1263      653A206C 
 1263      69676874 
 1263      20726967 
 1263      68740D0A 
 1264 029d 000000   		.space	3
 1265              	.LC25:
 1266 02a0 20202020 		.ascii	"       light left\015\012\000"
 1266      2020206C 
 1266      69676874 
 1266      206C6566 
 1266      740D0A00 
 1267              	.LC26:
 1268 02b4 20202020 		.ascii	"       light warning\015\012\000"
 1268      2020206C 
 1268      69676874 
 1268      20776172 
 1268      6E696E67 
 1269 02cb 00       		.space	1
 1270              	.LC27:
 1271 02cc 20202020 		.ascii	"       light brakeon\015\012\000"
 1271      2020206C 
 1271      69676874 
 1271      20627261 
 1271      6B656F6E 
 1272 02e3 00       		.space	1
 1273              	.LC28:
ARM GAS  C:\Users\DNIEL~1\AppData\Local\Temp\ccuPvHGk.s 			page 25


 1274 02e4 20202020 		.ascii	"       light brakeoff\015\012\000"
 1274      2020206C 
 1274      69676874 
 1274      20627261 
 1274      6B656F66 
 1275              	.LC29:
 1276 02fc 20202020 		.ascii	"       light lampon\015\012\000"
 1276      2020206C 
 1276      69676874 
 1276      206C616D 
 1276      706F6E0D 
 1277 0312 0000     		.space	2
 1278              	.LC30:
 1279 0314 20202020 		.ascii	"       light lampoff\015\012\000"
 1279      2020206C 
 1279      69676874 
 1279      206C616D 
 1279      706F6666 
 1280 032b 00       		.space	1
 1281              	.LC31:
 1282 032c 20202020 		.ascii	"       light stop\015\012\000"
 1282      2020206C 
 1282      69676874 
 1282      2073746F 
 1282      700D0A00 
 1283              		.section	.bss.left_active,"aw",%nobits
 1284              		.set	.LANCHOR3,. + 0
 1285              		.type	left_active, %object
 1286              		.size	left_active, 1
 1287              	left_active:
 1288 0000 00       		.space	1
 1289              		.section	.bss.lightchanels,"aw",%nobits
 1290              		.align	2
 1291              		.set	.LANCHOR5,. + 0
 1292              		.type	lightchanels, %object
 1293              		.size	lightchanels, 6
 1294              	lightchanels:
 1295 0000 00000000 		.space	6
 1295      0000
 1296 0006 0000     		.section	.bss.right_active,"aw",%nobits
 1297              		.set	.LANCHOR2,. + 0
 1298              		.type	right_active, %object
 1299              		.size	right_active, 1
 1300              	right_active:
 1301 0000 00       		.space	1
 1302              		.text
 1303              	.Letext0:
 1304              		.section	.debug_loc,"",%progbits
 1305              	.Ldebug_loc0:
 1306              	.LLST0:
 1307 0000 00000000 		.4byte	.LFB118
 1308 0004 02000000 		.4byte	.LCFI0
 1309 0008 0200     		.2byte	0x2
 1310 000a 7D       		.byte	0x7d
 1311 000b 00       		.sleb128 0
 1312 000c 02000000 		.4byte	.LCFI0
 1313 0010 04000000 		.4byte	.LCFI1
ARM GAS  C:\Users\DNIEL~1\AppData\Local\Temp\ccuPvHGk.s 			page 26


 1314 0014 0200     		.2byte	0x2
 1315 0016 7D       		.byte	0x7d
 1316 0017 0C       		.sleb128 12
 1317 0018 04000000 		.4byte	.LCFI1
 1318 001c 06000000 		.4byte	.LCFI2
 1319 0020 0200     		.2byte	0x2
 1320 0022 7D       		.byte	0x7d
 1321 0023 10       		.sleb128 16
 1322 0024 06000000 		.4byte	.LCFI2
 1323 0028 1E000000 		.4byte	.LFE118
 1324 002c 0200     		.2byte	0x2
 1325 002e 7D       		.byte	0x7d
 1326 002f 18       		.sleb128 24
 1327 0030 00000000 		.4byte	0x0
 1328 0034 00000000 		.4byte	0x0
 1329              	.LLST1:
 1330 0038 00000000 		.4byte	.LVL0
 1331 003c 13000000 		.4byte	.LVL1-1
 1332 0040 0100     		.2byte	0x1
 1333 0042 50       		.byte	0x50
 1334 0043 00000000 		.4byte	0x0
 1335 0047 00000000 		.4byte	0x0
 1336              	.LLST2:
 1337 004b 00000000 		.4byte	.LFB120
 1338 004f 04000000 		.4byte	.LCFI3
 1339 0053 0200     		.2byte	0x2
 1340 0055 7D       		.byte	0x7d
 1341 0056 00       		.sleb128 0
 1342 0057 04000000 		.4byte	.LCFI3
 1343 005b D8000000 		.4byte	.LFE120
 1344 005f 0200     		.2byte	0x2
 1345 0061 7D       		.byte	0x7d
 1346 0062 10       		.sleb128 16
 1347 0063 00000000 		.4byte	0x0
 1348 0067 00000000 		.4byte	0x0
 1349              	.LLST3:
 1350 006b 00000000 		.4byte	.LFB121
 1351 006f 02000000 		.4byte	.LCFI4
 1352 0073 0200     		.2byte	0x2
 1353 0075 7D       		.byte	0x7d
 1354 0076 00       		.sleb128 0
 1355 0077 02000000 		.4byte	.LCFI4
 1356 007b 54000000 		.4byte	.LFE121
 1357 007f 0200     		.2byte	0x2
 1358 0081 7D       		.byte	0x7d
 1359 0082 04       		.sleb128 4
 1360 0083 00000000 		.4byte	0x0
 1361 0087 00000000 		.4byte	0x0
 1362              	.LLST4:
 1363 008b 00000000 		.4byte	.LVL2
 1364 008f 2A000000 		.4byte	.LVL3
 1365 0093 0100     		.2byte	0x1
 1366 0095 50       		.byte	0x50
 1367 0096 2A000000 		.4byte	.LVL3
 1368 009a 2E000000 		.4byte	.LVL4
 1369 009e 0300     		.2byte	0x3
 1370 00a0 7C       		.byte	0x7c
ARM GAS  C:\Users\DNIEL~1\AppData\Local\Temp\ccuPvHGk.s 			page 27


 1371 00a1 03       		.sleb128 3
 1372 00a2 9F       		.byte	0x9f
 1373 00a3 00000000 		.4byte	0x0
 1374 00a7 00000000 		.4byte	0x0
 1375              	.LLST5:
 1376 00ab 00000000 		.4byte	.LFB124
 1377 00af 06000000 		.4byte	.LCFI5
 1378 00b3 0200     		.2byte	0x2
 1379 00b5 7D       		.byte	0x7d
 1380 00b6 00       		.sleb128 0
 1381 00b7 06000000 		.4byte	.LCFI5
 1382 00bb 24000000 		.4byte	.LFE124
 1383 00bf 0200     		.2byte	0x2
 1384 00c1 7D       		.byte	0x7d
 1385 00c2 08       		.sleb128 8
 1386 00c3 00000000 		.4byte	0x0
 1387 00c7 00000000 		.4byte	0x0
 1388              	.LLST6:
 1389 00cb 00000000 		.4byte	.LFB125
 1390 00cf 04000000 		.4byte	.LCFI6
 1391 00d3 0200     		.2byte	0x2
 1392 00d5 7D       		.byte	0x7d
 1393 00d6 00       		.sleb128 0
 1394 00d7 04000000 		.4byte	.LCFI6
 1395 00db 20000000 		.4byte	.LFE125
 1396 00df 0200     		.2byte	0x2
 1397 00e1 7D       		.byte	0x7d
 1398 00e2 08       		.sleb128 8
 1399 00e3 00000000 		.4byte	0x0
 1400 00e7 00000000 		.4byte	0x0
 1401              	.LLST7:
 1402 00eb 00000000 		.4byte	.LVL5
 1403 00ef 18000000 		.4byte	.LVL6
 1404 00f3 0100     		.2byte	0x1
 1405 00f5 50       		.byte	0x50
 1406 00f6 1A000000 		.4byte	.LVL7
 1407 00fa 1C000000 		.4byte	.LVL8
 1408 00fe 0100     		.2byte	0x1
 1409 0100 50       		.byte	0x50
 1410 0101 22000000 		.4byte	.LVL9
 1411 0105 26000000 		.4byte	.LVL10
 1412 0109 0100     		.2byte	0x1
 1413 010b 50       		.byte	0x50
 1414 010c 30000000 		.4byte	.LVL11
 1415 0110 32000000 		.4byte	.LVL12
 1416 0114 0100     		.2byte	0x1
 1417 0116 50       		.byte	0x50
 1418 0117 4C000000 		.4byte	.LVL13
 1419 011b 50000000 		.4byte	.LVL14
 1420 011f 0100     		.2byte	0x1
 1421 0121 50       		.byte	0x50
 1422 0122 52000000 		.4byte	.LVL15
 1423 0126 58000000 		.4byte	.LVL16
 1424 012a 0100     		.2byte	0x1
 1425 012c 50       		.byte	0x50
 1426 012d 5C000000 		.4byte	.LVL17
 1427 0131 5E000000 		.4byte	.LVL18
ARM GAS  C:\Users\DNIEL~1\AppData\Local\Temp\ccuPvHGk.s 			page 28


 1428 0135 0100     		.2byte	0x1
 1429 0137 50       		.byte	0x50
 1430 0138 00000000 		.4byte	0x0
 1431 013c 00000000 		.4byte	0x0
 1432              	.LLST8:
 1433 0140 00000000 		.4byte	.LFB127
 1434 0144 02000000 		.4byte	.LCFI7
 1435 0148 0200     		.2byte	0x2
 1436 014a 7D       		.byte	0x7d
 1437 014b 00       		.sleb128 0
 1438 014c 02000000 		.4byte	.LCFI7
 1439 0150 94000000 		.4byte	.LFE127
 1440 0154 0200     		.2byte	0x2
 1441 0156 7D       		.byte	0x7d
 1442 0157 10       		.sleb128 16
 1443 0158 00000000 		.4byte	0x0
 1444 015c 00000000 		.4byte	0x0
 1445              	.LLST9:
 1446 0160 00000000 		.4byte	.LVL19
 1447 0164 0B000000 		.4byte	.LVL21-1
 1448 0168 0100     		.2byte	0x1
 1449 016a 50       		.byte	0x50
 1450 016b 0B000000 		.4byte	.LVL21-1
 1451 016f 94000000 		.4byte	.LFE127
 1452 0173 0100     		.2byte	0x1
 1453 0175 54       		.byte	0x54
 1454 0176 00000000 		.4byte	0x0
 1455 017a 00000000 		.4byte	0x0
 1456              	.LLST10:
 1457 017e 00000000 		.4byte	.LVL19
 1458 0182 04000000 		.4byte	.LVL20
 1459 0186 0100     		.2byte	0x1
 1460 0188 51       		.byte	0x51
 1461 0189 00000000 		.4byte	0x0
 1462 018d 00000000 		.4byte	0x0
 1463              	.LLST11:
 1464 0191 00000000 		.4byte	.LVL19
 1465 0195 0B000000 		.4byte	.LVL21-1
 1466 0199 0100     		.2byte	0x1
 1467 019b 52       		.byte	0x52
 1468 019c 00000000 		.4byte	0x0
 1469 01a0 00000000 		.4byte	0x0
 1470              	.LLST12:
 1471 01a4 00000000 		.4byte	.LFB128
 1472 01a8 04000000 		.4byte	.LCFI8
 1473 01ac 0200     		.2byte	0x2
 1474 01ae 7D       		.byte	0x7d
 1475 01af 00       		.sleb128 0
 1476 01b0 04000000 		.4byte	.LCFI8
 1477 01b4 0C020000 		.4byte	.LFE128
 1478 01b8 0200     		.2byte	0x2
 1479 01ba 7D       		.byte	0x7d
 1480 01bb 18       		.sleb128 24
 1481 01bc 00000000 		.4byte	0x0
 1482 01c0 00000000 		.4byte	0x0
 1483              	.LLST13:
 1484 01c4 00000000 		.4byte	.LVL22
ARM GAS  C:\Users\DNIEL~1\AppData\Local\Temp\ccuPvHGk.s 			page 29


 1485 01c8 0F000000 		.4byte	.LVL24-1
 1486 01cc 0100     		.2byte	0x1
 1487 01ce 50       		.byte	0x50
 1488 01cf 0F000000 		.4byte	.LVL24-1
 1489 01d3 0C020000 		.4byte	.LFE128
 1490 01d7 0100     		.2byte	0x1
 1491 01d9 54       		.byte	0x54
 1492 01da 00000000 		.4byte	0x0
 1493 01de 00000000 		.4byte	0x0
 1494              	.LLST14:
 1495 01e2 00000000 		.4byte	.LVL22
 1496 01e6 0A000000 		.4byte	.LVL23
 1497 01ea 0100     		.2byte	0x1
 1498 01ec 51       		.byte	0x51
 1499 01ed 0A000000 		.4byte	.LVL23
 1500 01f1 0C020000 		.4byte	.LFE128
 1501 01f5 0100     		.2byte	0x1
 1502 01f7 55       		.byte	0x55
 1503 01f8 00000000 		.4byte	0x0
 1504 01fc 00000000 		.4byte	0x0
 1505              	.LLST15:
 1506 0200 00000000 		.4byte	.LVL22
 1507 0204 0F000000 		.4byte	.LVL24-1
 1508 0208 0100     		.2byte	0x1
 1509 020a 52       		.byte	0x52
 1510 020b 0F000000 		.4byte	.LVL24-1
 1511 020f 28000000 		.4byte	.LVL25
 1512 0213 0100     		.2byte	0x1
 1513 0215 56       		.byte	0x56
 1514 0216 6C000000 		.4byte	.LVL26
 1515 021a 7E000000 		.4byte	.LVL27
 1516 021e 0100     		.2byte	0x1
 1517 0220 56       		.byte	0x56
 1518 0221 00000000 		.4byte	0x0
 1519 0225 00000000 		.4byte	0x0
 1520              	.LLST16:
 1521 0229 6C010000 		.4byte	.LVL34
 1522 022d 82010000 		.4byte	.LVL35
 1523 0231 0200     		.2byte	0x2
 1524 0233 33       		.byte	0x33
 1525 0234 9F       		.byte	0x9f
 1526 0235 00000000 		.4byte	0x0
 1527 0239 00000000 		.4byte	0x0
 1528              	.LLST17:
 1529 023d 5A010000 		.4byte	.LVL32
 1530 0241 64010000 		.4byte	.LVL33
 1531 0245 0200     		.2byte	0x2
 1532 0247 32       		.byte	0x32
 1533 0248 9F       		.byte	0x9f
 1534 0249 00000000 		.4byte	0x0
 1535 024d 00000000 		.4byte	0x0
 1536              	.LLST18:
 1537 0251 3C010000 		.4byte	.LVL30
 1538 0255 44010000 		.4byte	.LVL31
 1539 0259 0200     		.2byte	0x2
 1540 025b 31       		.byte	0x31
 1541 025c 9F       		.byte	0x9f
ARM GAS  C:\Users\DNIEL~1\AppData\Local\Temp\ccuPvHGk.s 			page 30


 1542 025d 00000000 		.4byte	0x0
 1543 0261 00000000 		.4byte	0x0
 1544              	.LLST19:
 1545 0265 EA000000 		.4byte	.LVL28
 1546 0269 04010000 		.4byte	.LVL29
 1547 026d 0200     		.2byte	0x2
 1548 026f 30       		.byte	0x30
 1549 0270 9F       		.byte	0x9f
 1550 0271 00000000 		.4byte	0x0
 1551 0275 00000000 		.4byte	0x0
 1552              	.LLST20:
 1553 0279 00000000 		.4byte	.LFB129
 1554 027d 02000000 		.4byte	.LCFI9
 1555 0281 0200     		.2byte	0x2
 1556 0283 7D       		.byte	0x7d
 1557 0284 00       		.sleb128 0
 1558 0285 02000000 		.4byte	.LCFI9
 1559 0289 A8000000 		.4byte	.LFE129
 1560 028d 0200     		.2byte	0x2
 1561 028f 7D       		.byte	0x7d
 1562 0290 08       		.sleb128 8
 1563 0291 00000000 		.4byte	0x0
 1564 0295 00000000 		.4byte	0x0
 1565              	.LLST21:
 1566 0299 00000000 		.4byte	.LVL36
 1567 029d 09000000 		.4byte	.LVL38-1
 1568 02a1 0100     		.2byte	0x1
 1569 02a3 50       		.byte	0x50
 1570 02a4 09000000 		.4byte	.LVL38-1
 1571 02a8 A8000000 		.4byte	.LFE129
 1572 02ac 0100     		.2byte	0x1
 1573 02ae 54       		.byte	0x54
 1574 02af 00000000 		.4byte	0x0
 1575 02b3 00000000 		.4byte	0x0
 1576              	.LLST22:
 1577 02b7 00000000 		.4byte	.LVL36
 1578 02bb 04000000 		.4byte	.LVL37
 1579 02bf 0100     		.2byte	0x1
 1580 02c1 51       		.byte	0x51
 1581 02c2 00000000 		.4byte	0x0
 1582 02c6 00000000 		.4byte	0x0
 1583              	.LLST23:
 1584 02ca 00000000 		.4byte	.LVL36
 1585 02ce 09000000 		.4byte	.LVL38-1
 1586 02d2 0100     		.2byte	0x1
 1587 02d4 52       		.byte	0x52
 1588 02d5 00000000 		.4byte	0x0
 1589 02d9 00000000 		.4byte	0x0
 1590              		.file 3 "c:\\program files (x86)\\codesourcery\\sourcery g++ lite\\bin\\../lib/gcc/arm-none-eabi/4
 1591              		.file 4 "c:\\program files (x86)\\codesourcery\\sourcery g++ lite\\bin\\../lib/gcc/arm-none-eabi/4
 1592              		.file 5 "../../../ChibiOS/os/ports/GCC/ARMCMx/chtypes.h"
 1593              		.file 6 "../../../ChibiOS/os/kernel/include/chstreams.h"
 1594              		.file 7 "../../../ChibiOS/os/hal/include/io_channel.h"
 1595              		.file 8 "../../../ChibiOS/os/hal/platforms/STM32/TIMv1/stm32_tim.h"
 1596              		.file 9 "../../../ChibiOS/os/hal/include/pwm.h"
 1597              		.file 10 "../../../ChibiOS/os/hal/platforms/STM32/TIMv1/pwm_lld.h"
 1598              		.file 11 "c:\\program files (x86)\\codesourcery\\sourcery g++ lite\\bin\\../lib/gcc/arm-none-eabi/
ARM GAS  C:\Users\DNIEL~1\AppData\Local\Temp\ccuPvHGk.s 			page 31


 1599              		.file 12 "<built-in>"
 1600              		.file 13 "../../../ChibiOS/os/ports/common/ARMCMx/CMSIS/include/core_cm4.h"
 1601              		.section	.debug_info
 1602 0000 010A0000 		.4byte	0xa01
 1603 0004 0200     		.2byte	0x2
 1604 0006 00000000 		.4byte	.Ldebug_abbrev0
 1605 000a 04       		.byte	0x4
 1606 000b 01       		.uleb128 0x1
 1607 000c 41030000 		.4byte	.LASF95
 1608 0010 01       		.byte	0x1
 1609 0011 E3020000 		.4byte	.LASF96
 1610 0015 6C000000 		.4byte	.LASF97
 1611 0019 00000000 		.4byte	0x0
 1612 001d 00000000 		.4byte	0x0
 1613 0021 48000000 		.4byte	.Ldebug_ranges0+0x48
 1614 0025 00000000 		.4byte	.Ldebug_line0
 1615 0029 02       		.uleb128 0x2
 1616 002a 04       		.byte	0x4
 1617 002b 05       		.byte	0x5
 1618 002c 696E7400 		.ascii	"int\000"
 1619 0030 03       		.uleb128 0x3
 1620 0031 42000000 		.4byte	.LASF2
 1621 0035 03       		.byte	0x3
 1622 0036 D3       		.byte	0xd3
 1623 0037 3B000000 		.4byte	0x3b
 1624 003b 04       		.uleb128 0x4
 1625 003c 04       		.byte	0x4
 1626 003d 07       		.byte	0x7
 1627 003e 0A020000 		.4byte	.LASF0
 1628 0042 04       		.uleb128 0x4
 1629 0043 01       		.byte	0x1
 1630 0044 06       		.byte	0x6
 1631 0045 DE010000 		.4byte	.LASF1
 1632 0049 03       		.uleb128 0x3
 1633 004a F2000000 		.4byte	.LASF3
 1634 004e 04       		.byte	0x4
 1635 004f 2A       		.byte	0x2a
 1636 0050 54000000 		.4byte	0x54
 1637 0054 04       		.uleb128 0x4
 1638 0055 01       		.byte	0x1
 1639 0056 08       		.byte	0x8
 1640 0057 B2010000 		.4byte	.LASF4
 1641 005b 04       		.uleb128 0x4
 1642 005c 02       		.byte	0x2
 1643 005d 05       		.byte	0x5
 1644 005e BD000000 		.4byte	.LASF5
 1645 0062 03       		.uleb128 0x3
 1646 0063 1C020000 		.4byte	.LASF6
 1647 0067 04       		.byte	0x4
 1648 0068 36       		.byte	0x36
 1649 0069 6D000000 		.4byte	0x6d
 1650 006d 04       		.uleb128 0x4
 1651 006e 02       		.byte	0x2
 1652 006f 07       		.byte	0x7
 1653 0070 65020000 		.4byte	.LASF7
 1654 0074 03       		.uleb128 0x3
 1655 0075 A0020000 		.4byte	.LASF8
ARM GAS  C:\Users\DNIEL~1\AppData\Local\Temp\ccuPvHGk.s 			page 32


 1656 0079 04       		.byte	0x4
 1657 007a 4F       		.byte	0x4f
 1658 007b 7F000000 		.4byte	0x7f
 1659 007f 04       		.uleb128 0x4
 1660 0080 04       		.byte	0x4
 1661 0081 05       		.byte	0x5
 1662 0082 92020000 		.4byte	.LASF9
 1663 0086 03       		.uleb128 0x3
 1664 0087 01020000 		.4byte	.LASF10
 1665 008b 04       		.byte	0x4
 1666 008c 50       		.byte	0x50
 1667 008d 91000000 		.4byte	0x91
 1668 0091 04       		.uleb128 0x4
 1669 0092 04       		.byte	0x4
 1670 0093 07       		.byte	0x7
 1671 0094 F8020000 		.4byte	.LASF11
 1672 0098 04       		.uleb128 0x4
 1673 0099 08       		.byte	0x8
 1674 009a 05       		.byte	0x5
 1675 009b 3A010000 		.4byte	.LASF12
 1676 009f 04       		.uleb128 0x4
 1677 00a0 08       		.byte	0x8
 1678 00a1 07       		.byte	0x7
 1679 00a2 EA010000 		.4byte	.LASF13
 1680 00a6 03       		.uleb128 0x3
 1681 00a7 A8020000 		.4byte	.LASF14
 1682 00ab 05       		.byte	0x5
 1683 00ac 2B       		.byte	0x2b
 1684 00ad B1000000 		.4byte	0xb1
 1685 00b1 04       		.uleb128 0x4
 1686 00b2 01       		.byte	0x1
 1687 00b3 02       		.byte	0x2
 1688 00b4 C3020000 		.4byte	.LASF15
 1689 00b8 03       		.uleb128 0x3
 1690 00b9 F9030000 		.4byte	.LASF16
 1691 00bd 05       		.byte	0x5
 1692 00be 31       		.byte	0x31
 1693 00bf 74000000 		.4byte	0x74
 1694 00c3 03       		.uleb128 0x3
 1695 00c4 82020000 		.4byte	.LASF17
 1696 00c8 05       		.byte	0x5
 1697 00c9 35       		.byte	0x35
 1698 00ca 86000000 		.4byte	0x86
 1699 00ce 05       		.uleb128 0x5
 1700 00cf 04       		.byte	0x4
 1701 00d0 06       		.uleb128 0x6
 1702 00d1 86000000 		.4byte	0x86
 1703 00d5 07       		.uleb128 0x7
 1704 00d6 04       		.byte	0x4
 1705 00d7 DB000000 		.4byte	0xdb
 1706 00db 08       		.uleb128 0x8
 1707 00dc E0000000 		.4byte	0xe0
 1708 00e0 04       		.uleb128 0x4
 1709 00e1 01       		.byte	0x1
 1710 00e2 08       		.byte	0x8
 1711 00e3 52010000 		.4byte	.LASF18
 1712 00e7 07       		.uleb128 0x7
ARM GAS  C:\Users\DNIEL~1\AppData\Local\Temp\ccuPvHGk.s 			page 33


 1713 00e8 04       		.byte	0x4
 1714 00e9 ED000000 		.4byte	0xed
 1715 00ed 09       		.uleb128 0x9
 1716 00ee 01       		.byte	0x1
 1717 00ef B8000000 		.4byte	0xb8
 1718 00f3 FD000000 		.4byte	0xfd
 1719 00f7 0A       		.uleb128 0xa
 1720 00f8 CE000000 		.4byte	0xce
 1721 00fc 00       		.byte	0x0
 1722 00fd 07       		.uleb128 0x7
 1723 00fe 04       		.byte	0x4
 1724 00ff 49000000 		.4byte	0x49
 1725 0103 0B       		.uleb128 0xb
 1726 0104 08040000 		.4byte	.LASF22
 1727 0108 10       		.byte	0x10
 1728 0109 06       		.byte	0x6
 1729 010a 48       		.byte	0x48
 1730 010b 48010000 		.4byte	0x148
 1731 010f 0C       		.uleb128 0xc
 1732 0110 05000000 		.4byte	.LASF19
 1733 0114 06       		.byte	0x6
 1734 0115 49       		.byte	0x49
 1735 0116 6D010000 		.4byte	0x16d
 1736 011a 02       		.byte	0x2
 1737 011b 23       		.byte	0x23
 1738 011c 00       		.uleb128 0x0
 1739 011d 0C       		.uleb128 0xc
 1740 011e 35010000 		.4byte	.LASF20
 1741 0122 06       		.byte	0x6
 1742 0123 49       		.byte	0x49
 1743 0124 8D010000 		.4byte	0x18d
 1744 0128 02       		.byte	0x2
 1745 0129 23       		.byte	0x23
 1746 012a 04       		.uleb128 0x4
 1747 012b 0D       		.uleb128 0xd
 1748 012c 70757400 		.ascii	"put\000"
 1749 0130 06       		.byte	0x6
 1750 0131 49       		.byte	0x49
 1751 0132 A8010000 		.4byte	0x1a8
 1752 0136 02       		.byte	0x2
 1753 0137 23       		.byte	0x23
 1754 0138 08       		.uleb128 0x8
 1755 0139 0D       		.uleb128 0xd
 1756 013a 67657400 		.ascii	"get\000"
 1757 013e 06       		.byte	0x6
 1758 013f 49       		.byte	0x49
 1759 0140 E7000000 		.4byte	0xe7
 1760 0144 02       		.byte	0x2
 1761 0145 23       		.byte	0x23
 1762 0146 0C       		.uleb128 0xc
 1763 0147 00       		.byte	0x0
 1764 0148 09       		.uleb128 0x9
 1765 0149 01       		.byte	0x1
 1766 014a 30000000 		.4byte	0x30
 1767 014e 62010000 		.4byte	0x162
 1768 0152 0A       		.uleb128 0xa
 1769 0153 CE000000 		.4byte	0xce
ARM GAS  C:\Users\DNIEL~1\AppData\Local\Temp\ccuPvHGk.s 			page 34


 1770 0157 0A       		.uleb128 0xa
 1771 0158 62010000 		.4byte	0x162
 1772 015c 0A       		.uleb128 0xa
 1773 015d 30000000 		.4byte	0x30
 1774 0161 00       		.byte	0x0
 1775 0162 07       		.uleb128 0x7
 1776 0163 04       		.byte	0x4
 1777 0164 68010000 		.4byte	0x168
 1778 0168 08       		.uleb128 0x8
 1779 0169 49000000 		.4byte	0x49
 1780 016d 07       		.uleb128 0x7
 1781 016e 04       		.byte	0x4
 1782 016f 48010000 		.4byte	0x148
 1783 0173 09       		.uleb128 0x9
 1784 0174 01       		.byte	0x1
 1785 0175 30000000 		.4byte	0x30
 1786 0179 8D010000 		.4byte	0x18d
 1787 017d 0A       		.uleb128 0xa
 1788 017e CE000000 		.4byte	0xce
 1789 0182 0A       		.uleb128 0xa
 1790 0183 FD000000 		.4byte	0xfd
 1791 0187 0A       		.uleb128 0xa
 1792 0188 30000000 		.4byte	0x30
 1793 018c 00       		.byte	0x0
 1794 018d 07       		.uleb128 0x7
 1795 018e 04       		.byte	0x4
 1796 018f 73010000 		.4byte	0x173
 1797 0193 09       		.uleb128 0x9
 1798 0194 01       		.byte	0x1
 1799 0195 B8000000 		.4byte	0xb8
 1800 0199 A8010000 		.4byte	0x1a8
 1801 019d 0A       		.uleb128 0xa
 1802 019e CE000000 		.4byte	0xce
 1803 01a2 0A       		.uleb128 0xa
 1804 01a3 49000000 		.4byte	0x49
 1805 01a7 00       		.byte	0x0
 1806 01a8 07       		.uleb128 0x7
 1807 01a9 04       		.byte	0x4
 1808 01aa 93010000 		.4byte	0x193
 1809 01ae 0E       		.uleb128 0xe
 1810 01af 04       		.byte	0x4
 1811 01b0 06       		.byte	0x6
 1812 01b1 51       		.byte	0x51
 1813 01b2 C5010000 		.4byte	0x1c5
 1814 01b6 0D       		.uleb128 0xd
 1815 01b7 766D7400 		.ascii	"vmt\000"
 1816 01bb 06       		.byte	0x6
 1817 01bc 53       		.byte	0x53
 1818 01bd C5010000 		.4byte	0x1c5
 1819 01c1 02       		.byte	0x2
 1820 01c2 23       		.byte	0x23
 1821 01c3 00       		.uleb128 0x0
 1822 01c4 00       		.byte	0x0
 1823 01c5 07       		.uleb128 0x7
 1824 01c6 04       		.byte	0x4
 1825 01c7 CB010000 		.4byte	0x1cb
 1826 01cb 08       		.uleb128 0x8
ARM GAS  C:\Users\DNIEL~1\AppData\Local\Temp\ccuPvHGk.s 			page 35


 1827 01cc 03010000 		.4byte	0x103
 1828 01d0 03       		.uleb128 0x3
 1829 01d1 52000000 		.4byte	.LASF21
 1830 01d5 06       		.byte	0x6
 1831 01d6 55       		.byte	0x55
 1832 01d7 AE010000 		.4byte	0x1ae
 1833 01db 0F       		.uleb128 0xf
 1834 01dc 86000000 		.4byte	0x86
 1835 01e0 EB010000 		.4byte	0x1eb
 1836 01e4 10       		.uleb128 0x10
 1837 01e5 3B000000 		.4byte	0x3b
 1838 01e9 03       		.byte	0x3
 1839 01ea 00       		.byte	0x0
 1840 01eb 06       		.uleb128 0x6
 1841 01ec 74000000 		.4byte	0x74
 1842 01f0 0B       		.uleb128 0xb
 1843 01f1 E3000000 		.4byte	.LASF23
 1844 01f5 20       		.byte	0x20
 1845 01f6 07       		.byte	0x7
 1846 01f7 4E       		.byte	0x4e
 1847 01f8 6D020000 		.4byte	0x26d
 1848 01fc 0C       		.uleb128 0xc
 1849 01fd 05000000 		.4byte	.LASF19
 1850 0201 07       		.byte	0x7
 1851 0202 4F       		.byte	0x4f
 1852 0203 6D010000 		.4byte	0x16d
 1853 0207 02       		.byte	0x2
 1854 0208 23       		.byte	0x23
 1855 0209 00       		.uleb128 0x0
 1856 020a 0C       		.uleb128 0xc
 1857 020b 35010000 		.4byte	.LASF20
 1858 020f 07       		.byte	0x7
 1859 0210 4F       		.byte	0x4f
 1860 0211 8D010000 		.4byte	0x18d
 1861 0215 02       		.byte	0x2
 1862 0216 23       		.byte	0x23
 1863 0217 04       		.uleb128 0x4
 1864 0218 0D       		.uleb128 0xd
 1865 0219 70757400 		.ascii	"put\000"
 1866 021d 07       		.byte	0x7
 1867 021e 4F       		.byte	0x4f
 1868 021f A8010000 		.4byte	0x1a8
 1869 0223 02       		.byte	0x2
 1870 0224 23       		.byte	0x23
 1871 0225 08       		.uleb128 0x8
 1872 0226 0D       		.uleb128 0xd
 1873 0227 67657400 		.ascii	"get\000"
 1874 022b 07       		.byte	0x7
 1875 022c 4F       		.byte	0x4f
 1876 022d E7000000 		.4byte	0xe7
 1877 0231 02       		.byte	0x2
 1878 0232 23       		.byte	0x23
 1879 0233 0C       		.uleb128 0xc
 1880 0234 0C       		.uleb128 0xc
 1881 0235 56020000 		.4byte	.LASF24
 1882 0239 07       		.byte	0x7
 1883 023a 4F       		.byte	0x4f
ARM GAS  C:\Users\DNIEL~1\AppData\Local\Temp\ccuPvHGk.s 			page 36


 1884 023b 87020000 		.4byte	0x287
 1885 023f 02       		.byte	0x2
 1886 0240 23       		.byte	0x23
 1887 0241 10       		.uleb128 0x10
 1888 0242 0C       		.uleb128 0xc
 1889 0243 BE020000 		.4byte	.LASF25
 1890 0247 07       		.byte	0x7
 1891 0248 4F       		.byte	0x4f
 1892 0249 A2020000 		.4byte	0x2a2
 1893 024d 02       		.byte	0x2
 1894 024e 23       		.byte	0x23
 1895 024f 14       		.uleb128 0x14
 1896 0250 0C       		.uleb128 0xc
 1897 0251 B6000000 		.4byte	.LASF26
 1898 0255 07       		.byte	0x7
 1899 0256 4F       		.byte	0x4f
 1900 0257 C7020000 		.4byte	0x2c7
 1901 025b 02       		.byte	0x2
 1902 025c 23       		.byte	0x23
 1903 025d 18       		.uleb128 0x18
 1904 025e 0C       		.uleb128 0xc
 1905 025f 8C020000 		.4byte	.LASF27
 1906 0263 07       		.byte	0x7
 1907 0264 4F       		.byte	0x4f
 1908 0265 EC020000 		.4byte	0x2ec
 1909 0269 02       		.byte	0x2
 1910 026a 23       		.byte	0x23
 1911 026b 1C       		.uleb128 0x1c
 1912 026c 00       		.byte	0x0
 1913 026d 09       		.uleb128 0x9
 1914 026e 01       		.byte	0x1
 1915 026f B8000000 		.4byte	0xb8
 1916 0273 87020000 		.4byte	0x287
 1917 0277 0A       		.uleb128 0xa
 1918 0278 CE000000 		.4byte	0xce
 1919 027c 0A       		.uleb128 0xa
 1920 027d 49000000 		.4byte	0x49
 1921 0281 0A       		.uleb128 0xa
 1922 0282 C3000000 		.4byte	0xc3
 1923 0286 00       		.byte	0x0
 1924 0287 07       		.uleb128 0x7
 1925 0288 04       		.byte	0x4
 1926 0289 6D020000 		.4byte	0x26d
 1927 028d 09       		.uleb128 0x9
 1928 028e 01       		.byte	0x1
 1929 028f B8000000 		.4byte	0xb8
 1930 0293 A2020000 		.4byte	0x2a2
 1931 0297 0A       		.uleb128 0xa
 1932 0298 CE000000 		.4byte	0xce
 1933 029c 0A       		.uleb128 0xa
 1934 029d C3000000 		.4byte	0xc3
 1935 02a1 00       		.byte	0x0
 1936 02a2 07       		.uleb128 0x7
 1937 02a3 04       		.byte	0x4
 1938 02a4 8D020000 		.4byte	0x28d
 1939 02a8 09       		.uleb128 0x9
 1940 02a9 01       		.byte	0x1
ARM GAS  C:\Users\DNIEL~1\AppData\Local\Temp\ccuPvHGk.s 			page 37


 1941 02aa 30000000 		.4byte	0x30
 1942 02ae C7020000 		.4byte	0x2c7
 1943 02b2 0A       		.uleb128 0xa
 1944 02b3 CE000000 		.4byte	0xce
 1945 02b7 0A       		.uleb128 0xa
 1946 02b8 62010000 		.4byte	0x162
 1947 02bc 0A       		.uleb128 0xa
 1948 02bd 30000000 		.4byte	0x30
 1949 02c1 0A       		.uleb128 0xa
 1950 02c2 C3000000 		.4byte	0xc3
 1951 02c6 00       		.byte	0x0
 1952 02c7 07       		.uleb128 0x7
 1953 02c8 04       		.byte	0x4
 1954 02c9 A8020000 		.4byte	0x2a8
 1955 02cd 09       		.uleb128 0x9
 1956 02ce 01       		.byte	0x1
 1957 02cf 30000000 		.4byte	0x30
 1958 02d3 EC020000 		.4byte	0x2ec
 1959 02d7 0A       		.uleb128 0xa
 1960 02d8 CE000000 		.4byte	0xce
 1961 02dc 0A       		.uleb128 0xa
 1962 02dd FD000000 		.4byte	0xfd
 1963 02e1 0A       		.uleb128 0xa
 1964 02e2 30000000 		.4byte	0x30
 1965 02e6 0A       		.uleb128 0xa
 1966 02e7 C3000000 		.4byte	0xc3
 1967 02eb 00       		.byte	0x0
 1968 02ec 07       		.uleb128 0x7
 1969 02ed 04       		.byte	0x4
 1970 02ee CD020000 		.4byte	0x2cd
 1971 02f2 0E       		.uleb128 0xe
 1972 02f3 04       		.byte	0x4
 1973 02f4 07       		.byte	0x7
 1974 02f5 59       		.byte	0x59
 1975 02f6 09030000 		.4byte	0x309
 1976 02fa 0D       		.uleb128 0xd
 1977 02fb 766D7400 		.ascii	"vmt\000"
 1978 02ff 07       		.byte	0x7
 1979 0300 5B       		.byte	0x5b
 1980 0301 09030000 		.4byte	0x309
 1981 0305 02       		.byte	0x2
 1982 0306 23       		.byte	0x23
 1983 0307 00       		.uleb128 0x0
 1984 0308 00       		.byte	0x0
 1985 0309 07       		.uleb128 0x7
 1986 030a 04       		.byte	0x4
 1987 030b 0F030000 		.4byte	0x30f
 1988 030f 08       		.uleb128 0x8
 1989 0310 F0010000 		.4byte	0x1f0
 1990 0314 03       		.uleb128 0x3
 1991 0315 BB030000 		.4byte	.LASF28
 1992 0319 07       		.byte	0x7
 1993 031a 5D       		.byte	0x5d
 1994 031b F2020000 		.4byte	0x2f2
 1995 031f 11       		.uleb128 0x11
 1996 0320 60       		.byte	0x60
 1997 0321 08       		.byte	0x8
ARM GAS  C:\Users\DNIEL~1\AppData\Local\Temp\ccuPvHGk.s 			page 38


 1998 0322 9E01     		.2byte	0x19e
 1999 0324 62040000 		.4byte	0x462
 2000 0328 12       		.uleb128 0x12
 2001 0329 43523100 		.ascii	"CR1\000"
 2002 032d 08       		.byte	0x8
 2003 032e 9F01     		.2byte	0x19f
 2004 0330 D0000000 		.4byte	0xd0
 2005 0334 02       		.byte	0x2
 2006 0335 23       		.byte	0x23
 2007 0336 00       		.uleb128 0x0
 2008 0337 12       		.uleb128 0x12
 2009 0338 43523200 		.ascii	"CR2\000"
 2010 033c 08       		.byte	0x8
 2011 033d A001     		.2byte	0x1a0
 2012 033f D0000000 		.4byte	0xd0
 2013 0343 02       		.byte	0x2
 2014 0344 23       		.byte	0x23
 2015 0345 04       		.uleb128 0x4
 2016 0346 13       		.uleb128 0x13
 2017 0347 A2010000 		.4byte	.LASF29
 2018 034b 08       		.byte	0x8
 2019 034c A101     		.2byte	0x1a1
 2020 034e D0000000 		.4byte	0xd0
 2021 0352 02       		.byte	0x2
 2022 0353 23       		.byte	0x23
 2023 0354 08       		.uleb128 0x8
 2024 0355 13       		.uleb128 0x13
 2025 0356 5B020000 		.4byte	.LASF30
 2026 035a 08       		.byte	0x8
 2027 035b A201     		.2byte	0x1a2
 2028 035d D0000000 		.4byte	0xd0
 2029 0361 02       		.byte	0x2
 2030 0362 23       		.byte	0x23
 2031 0363 0C       		.uleb128 0xc
 2032 0364 12       		.uleb128 0x12
 2033 0365 535200   		.ascii	"SR\000"
 2034 0368 08       		.byte	0x8
 2035 0369 A301     		.2byte	0x1a3
 2036 036b D0000000 		.4byte	0xd0
 2037 036f 02       		.byte	0x2
 2038 0370 23       		.byte	0x23
 2039 0371 10       		.uleb128 0x10
 2040 0372 12       		.uleb128 0x12
 2041 0373 45475200 		.ascii	"EGR\000"
 2042 0377 08       		.byte	0x8
 2043 0378 A401     		.2byte	0x1a4
 2044 037a D0000000 		.4byte	0xd0
 2045 037e 02       		.byte	0x2
 2046 037f 23       		.byte	0x23
 2047 0380 14       		.uleb128 0x14
 2048 0381 13       		.uleb128 0x13
 2049 0382 3C000000 		.4byte	.LASF31
 2050 0386 08       		.byte	0x8
 2051 0387 A501     		.2byte	0x1a5
 2052 0389 D0000000 		.4byte	0xd0
 2053 038d 02       		.byte	0x2
 2054 038e 23       		.byte	0x23
ARM GAS  C:\Users\DNIEL~1\AppData\Local\Temp\ccuPvHGk.s 			page 39


 2055 038f 18       		.uleb128 0x18
 2056 0390 13       		.uleb128 0x13
 2057 0391 2A000000 		.4byte	.LASF32
 2058 0395 08       		.byte	0x8
 2059 0396 A601     		.2byte	0x1a6
 2060 0398 D0000000 		.4byte	0xd0
 2061 039c 02       		.byte	0x2
 2062 039d 23       		.byte	0x23
 2063 039e 1C       		.uleb128 0x1c
 2064 039f 13       		.uleb128 0x13
 2065 03a0 00000000 		.4byte	.LASF33
 2066 03a4 08       		.byte	0x8
 2067 03a5 A701     		.2byte	0x1a7
 2068 03a7 D0000000 		.4byte	0xd0
 2069 03ab 02       		.byte	0x2
 2070 03ac 23       		.byte	0x23
 2071 03ad 20       		.uleb128 0x20
 2072 03ae 12       		.uleb128 0x12
 2073 03af 434E5400 		.ascii	"CNT\000"
 2074 03b3 08       		.byte	0x8
 2075 03b4 A801     		.2byte	0x1a8
 2076 03b6 D0000000 		.4byte	0xd0
 2077 03ba 02       		.byte	0x2
 2078 03bb 23       		.byte	0x23
 2079 03bc 24       		.uleb128 0x24
 2080 03bd 12       		.uleb128 0x12
 2081 03be 50534300 		.ascii	"PSC\000"
 2082 03c2 08       		.byte	0x8
 2083 03c3 A901     		.2byte	0x1a9
 2084 03c5 D0000000 		.4byte	0xd0
 2085 03c9 02       		.byte	0x2
 2086 03ca 23       		.byte	0x23
 2087 03cb 28       		.uleb128 0x28
 2088 03cc 12       		.uleb128 0x12
 2089 03cd 41525200 		.ascii	"ARR\000"
 2090 03d1 08       		.byte	0x8
 2091 03d2 AA01     		.2byte	0x1aa
 2092 03d4 D0000000 		.4byte	0xd0
 2093 03d8 02       		.byte	0x2
 2094 03d9 23       		.byte	0x23
 2095 03da 2C       		.uleb128 0x2c
 2096 03db 12       		.uleb128 0x12
 2097 03dc 52435200 		.ascii	"RCR\000"
 2098 03e0 08       		.byte	0x8
 2099 03e1 AB01     		.2byte	0x1ab
 2100 03e3 D0000000 		.4byte	0xd0
 2101 03e7 02       		.byte	0x2
 2102 03e8 23       		.byte	0x23
 2103 03e9 30       		.uleb128 0x30
 2104 03ea 12       		.uleb128 0x12
 2105 03eb 43435200 		.ascii	"CCR\000"
 2106 03ef 08       		.byte	0x8
 2107 03f0 AC01     		.2byte	0x1ac
 2108 03f2 62040000 		.4byte	0x462
 2109 03f6 02       		.byte	0x2
 2110 03f7 23       		.byte	0x23
 2111 03f8 34       		.uleb128 0x34
ARM GAS  C:\Users\DNIEL~1\AppData\Local\Temp\ccuPvHGk.s 			page 40


 2112 03f9 13       		.uleb128 0x13
 2113 03fa 9B020000 		.4byte	.LASF34
 2114 03fe 08       		.byte	0x8
 2115 03ff AD01     		.2byte	0x1ad
 2116 0401 D0000000 		.4byte	0xd0
 2117 0405 02       		.byte	0x2
 2118 0406 23       		.byte	0x23
 2119 0407 44       		.uleb128 0x44
 2120 0408 12       		.uleb128 0x12
 2121 0409 44435200 		.ascii	"DCR\000"
 2122 040d 08       		.byte	0x8
 2123 040e AE01     		.2byte	0x1ae
 2124 0410 D0000000 		.4byte	0xd0
 2125 0414 02       		.byte	0x2
 2126 0415 23       		.byte	0x23
 2127 0416 48       		.uleb128 0x48
 2128 0417 13       		.uleb128 0x13
 2129 0418 11000000 		.4byte	.LASF35
 2130 041c 08       		.byte	0x8
 2131 041d AF01     		.2byte	0x1af
 2132 041f D0000000 		.4byte	0xd0
 2133 0423 02       		.byte	0x2
 2134 0424 23       		.byte	0x23
 2135 0425 4C       		.uleb128 0x4c
 2136 0426 12       		.uleb128 0x12
 2137 0427 4F5200   		.ascii	"OR\000"
 2138 042a 08       		.byte	0x8
 2139 042b B001     		.2byte	0x1b0
 2140 042d D0000000 		.4byte	0xd0
 2141 0431 02       		.byte	0x2
 2142 0432 23       		.byte	0x23
 2143 0433 50       		.uleb128 0x50
 2144 0434 13       		.uleb128 0x13
 2145 0435 30000000 		.4byte	.LASF36
 2146 0439 08       		.byte	0x8
 2147 043a B101     		.2byte	0x1b1
 2148 043c D0000000 		.4byte	0xd0
 2149 0440 02       		.byte	0x2
 2150 0441 23       		.byte	0x23
 2151 0442 54       		.uleb128 0x54
 2152 0443 13       		.uleb128 0x13
 2153 0444 D1010000 		.4byte	.LASF37
 2154 0448 08       		.byte	0x8
 2155 0449 B201     		.2byte	0x1b2
 2156 044b D0000000 		.4byte	0xd0
 2157 044f 02       		.byte	0x2
 2158 0450 23       		.byte	0x23
 2159 0451 58       		.uleb128 0x58
 2160 0452 13       		.uleb128 0x13
 2161 0453 5D010000 		.4byte	.LASF38
 2162 0457 08       		.byte	0x8
 2163 0458 B301     		.2byte	0x1b3
 2164 045a D0000000 		.4byte	0xd0
 2165 045e 02       		.byte	0x2
 2166 045f 23       		.byte	0x23
 2167 0460 5C       		.uleb128 0x5c
 2168 0461 00       		.byte	0x0
ARM GAS  C:\Users\DNIEL~1\AppData\Local\Temp\ccuPvHGk.s 			page 41


 2169 0462 06       		.uleb128 0x6
 2170 0463 DB010000 		.4byte	0x1db
 2171 0467 14       		.uleb128 0x14
 2172 0468 04010000 		.4byte	.LASF39
 2173 046c 08       		.byte	0x8
 2174 046d B401     		.2byte	0x1b4
 2175 046f 1F030000 		.4byte	0x31f
 2176 0473 07       		.uleb128 0x7
 2177 0474 04       		.byte	0x4
 2178 0475 67040000 		.4byte	0x467
 2179 0479 15       		.uleb128 0x15
 2180 047a 01       		.byte	0x1
 2181 047b 09       		.byte	0x9
 2182 047c 55       		.byte	0x55
 2183 047d 94040000 		.4byte	0x494
 2184 0481 16       		.uleb128 0x16
 2185 0482 A7010000 		.4byte	.LASF40
 2186 0486 00       		.sleb128 0
 2187 0487 16       		.uleb128 0x16
 2188 0488 6B030000 		.4byte	.LASF41
 2189 048c 01       		.sleb128 1
 2190 048d 16       		.uleb128 0x16
 2191 048e 5A030000 		.4byte	.LASF42
 2192 0492 02       		.sleb128 2
 2193 0493 00       		.byte	0x0
 2194 0494 03       		.uleb128 0x3
 2195 0495 0A030000 		.4byte	.LASF43
 2196 0499 09       		.byte	0x9
 2197 049a 59       		.byte	0x59
 2198 049b 79040000 		.4byte	0x479
 2199 049f 03       		.uleb128 0x3
 2200 04a0 3F020000 		.4byte	.LASF44
 2201 04a4 09       		.byte	0x9
 2202 04a5 5E       		.byte	0x5e
 2203 04a6 AA040000 		.4byte	0x4aa
 2204 04aa 17       		.uleb128 0x17
 2205 04ab 3F020000 		.4byte	.LASF44
 2206 04af 14       		.byte	0x14
 2207 04b0 0A       		.byte	0xa
 2208 04b1 6F01     		.2byte	0x16f
 2209 04b3 03050000 		.4byte	0x503
 2210 04b7 13       		.uleb128 0x13
 2211 04b8 24000000 		.4byte	.LASF45
 2212 04bc 0A       		.byte	0xa
 2213 04bd 7301     		.2byte	0x173
 2214 04bf 94040000 		.4byte	0x494
 2215 04c3 02       		.byte	0x2
 2216 04c4 23       		.byte	0x23
 2217 04c5 00       		.uleb128 0x0
 2218 04c6 13       		.uleb128 0x13
 2219 04c7 C7000000 		.4byte	.LASF46
 2220 04cb 0A       		.byte	0xa
 2221 04cc 7701     		.2byte	0x177
 2222 04ce F2050000 		.4byte	0x5f2
 2223 04d2 02       		.byte	0x2
 2224 04d3 23       		.byte	0x23
 2225 04d4 04       		.uleb128 0x4
ARM GAS  C:\Users\DNIEL~1\AppData\Local\Temp\ccuPvHGk.s 			page 42


 2226 04d5 13       		.uleb128 0x13
 2227 04d6 62010000 		.4byte	.LASF47
 2228 04da 0A       		.byte	0xa
 2229 04db 7B01     		.2byte	0x17b
 2230 04dd 32050000 		.4byte	0x532
 2231 04e1 02       		.byte	0x2
 2232 04e2 23       		.byte	0x23
 2233 04e3 08       		.uleb128 0x8
 2234 04e4 13       		.uleb128 0x13
 2235 04e5 57010000 		.4byte	.LASF48
 2236 04e9 0A       		.byte	0xa
 2237 04ea 8301     		.2byte	0x183
 2238 04ec 86000000 		.4byte	0x86
 2239 04f0 02       		.byte	0x2
 2240 04f1 23       		.byte	0x23
 2241 04f2 0C       		.uleb128 0xc
 2242 04f3 12       		.uleb128 0x12
 2243 04f4 74696D00 		.ascii	"tim\000"
 2244 04f8 0A       		.byte	0xa
 2245 04f9 8701     		.2byte	0x187
 2246 04fb 73040000 		.4byte	0x473
 2247 04ff 02       		.byte	0x2
 2248 0500 23       		.byte	0x23
 2249 0501 10       		.uleb128 0x10
 2250 0502 00       		.byte	0x0
 2251 0503 03       		.uleb128 0x3
 2252 0504 EB030000 		.4byte	.LASF49
 2253 0508 09       		.byte	0x9
 2254 0509 65       		.byte	0x65
 2255 050a 0E050000 		.4byte	0x50e
 2256 050e 07       		.uleb128 0x7
 2257 050f 04       		.byte	0x4
 2258 0510 14050000 		.4byte	0x514
 2259 0514 18       		.uleb128 0x18
 2260 0515 01       		.byte	0x1
 2261 0516 20050000 		.4byte	0x520
 2262 051a 0A       		.uleb128 0xa
 2263 051b 20050000 		.4byte	0x520
 2264 051f 00       		.byte	0x0
 2265 0520 07       		.uleb128 0x7
 2266 0521 04       		.byte	0x4
 2267 0522 9F040000 		.4byte	0x49f
 2268 0526 14       		.uleb128 0x14
 2269 0527 C7030000 		.4byte	.LASF50
 2270 052b 0A       		.byte	0xa
 2271 052c 2001     		.2byte	0x120
 2272 052e 86000000 		.4byte	0x86
 2273 0532 14       		.uleb128 0x14
 2274 0533 49000000 		.4byte	.LASF51
 2275 0537 0A       		.byte	0xa
 2276 0538 2A01     		.2byte	0x12a
 2277 053a 62000000 		.4byte	0x62
 2278 053e 11       		.uleb128 0x11
 2279 053f 08       		.byte	0x8
 2280 0540 0A       		.byte	0xa
 2281 0541 2F01     		.2byte	0x12f
 2282 0543 66050000 		.4byte	0x566
ARM GAS  C:\Users\DNIEL~1\AppData\Local\Temp\ccuPvHGk.s 			page 43


 2283 0547 13       		.uleb128 0x13
 2284 0548 67000000 		.4byte	.LASF52
 2285 054c 0A       		.byte	0xa
 2286 054d 3301     		.2byte	0x133
 2287 054f 26050000 		.4byte	0x526
 2288 0553 02       		.byte	0x2
 2289 0554 23       		.byte	0x23
 2290 0555 00       		.uleb128 0x0
 2291 0556 13       		.uleb128 0x13
 2292 0557 FF030000 		.4byte	.LASF53
 2293 055b 0A       		.byte	0xa
 2294 055c 3901     		.2byte	0x139
 2295 055e 03050000 		.4byte	0x503
 2296 0562 02       		.byte	0x2
 2297 0563 23       		.byte	0x23
 2298 0564 04       		.uleb128 0x4
 2299 0565 00       		.byte	0x0
 2300 0566 14       		.uleb128 0x14
 2301 0567 98030000 		.4byte	.LASF54
 2302 056b 0A       		.byte	0xa
 2303 056c 3B01     		.2byte	0x13b
 2304 056e 3E050000 		.4byte	0x53e
 2305 0572 11       		.uleb128 0x11
 2306 0573 34       		.byte	0x34
 2307 0574 0A       		.byte	0xa
 2308 0575 4001     		.2byte	0x140
 2309 0577 D6050000 		.4byte	0x5d6
 2310 057b 13       		.uleb128 0x13
 2311 057c D9020000 		.4byte	.LASF55
 2312 0580 0A       		.byte	0xa
 2313 0581 4601     		.2byte	0x146
 2314 0583 86000000 		.4byte	0x86
 2315 0587 02       		.byte	0x2
 2316 0588 23       		.byte	0x23
 2317 0589 00       		.uleb128 0x0
 2318 058a 13       		.uleb128 0x13
 2319 058b 62010000 		.4byte	.LASF47
 2320 058f 0A       		.byte	0xa
 2321 0590 4C01     		.2byte	0x14c
 2322 0592 32050000 		.4byte	0x532
 2323 0596 02       		.byte	0x2
 2324 0597 23       		.byte	0x23
 2325 0598 04       		.uleb128 0x4
 2326 0599 13       		.uleb128 0x13
 2327 059a FF030000 		.4byte	.LASF53
 2328 059e 0A       		.byte	0xa
 2329 059f 5201     		.2byte	0x152
 2330 05a1 03050000 		.4byte	0x503
 2331 05a5 02       		.byte	0x2
 2332 05a6 23       		.byte	0x23
 2333 05a7 08       		.uleb128 0x8
 2334 05a8 13       		.uleb128 0x13
 2335 05a9 EF020000 		.4byte	.LASF56
 2336 05ad 0A       		.byte	0xa
 2337 05ae 5601     		.2byte	0x156
 2338 05b0 D6050000 		.4byte	0x5d6
 2339 05b4 02       		.byte	0x2
ARM GAS  C:\Users\DNIEL~1\AppData\Local\Temp\ccuPvHGk.s 			page 44


 2340 05b5 23       		.byte	0x23
 2341 05b6 0C       		.uleb128 0xc
 2342 05b7 12       		.uleb128 0x12
 2343 05b8 63723200 		.ascii	"cr2\000"
 2344 05bc 0A       		.byte	0xa
 2345 05bd 5C01     		.2byte	0x15c
 2346 05bf 86000000 		.4byte	0x86
 2347 05c3 02       		.byte	0x2
 2348 05c4 23       		.byte	0x23
 2349 05c5 2C       		.uleb128 0x2c
 2350 05c6 13       		.uleb128 0x13
 2351 05c7 74030000 		.4byte	.LASF57
 2352 05cb 0A       		.byte	0xa
 2353 05cc 6901     		.2byte	0x169
 2354 05ce 86000000 		.4byte	0x86
 2355 05d2 02       		.byte	0x2
 2356 05d3 23       		.byte	0x23
 2357 05d4 30       		.uleb128 0x30
 2358 05d5 00       		.byte	0x0
 2359 05d6 0F       		.uleb128 0xf
 2360 05d7 66050000 		.4byte	0x566
 2361 05db E6050000 		.4byte	0x5e6
 2362 05df 10       		.uleb128 0x10
 2363 05e0 3B000000 		.4byte	0x3b
 2364 05e4 03       		.byte	0x3
 2365 05e5 00       		.byte	0x0
 2366 05e6 14       		.uleb128 0x14
 2367 05e7 FA000000 		.4byte	.LASF58
 2368 05eb 0A       		.byte	0xa
 2369 05ec 6A01     		.2byte	0x16a
 2370 05ee 72050000 		.4byte	0x572
 2371 05f2 07       		.uleb128 0x7
 2372 05f3 04       		.byte	0x4
 2373 05f4 F8050000 		.4byte	0x5f8
 2374 05f8 08       		.uleb128 0x8
 2375 05f9 E6050000 		.4byte	0x5e6
 2376 05fd 07       		.uleb128 0x7
 2377 05fe 04       		.byte	0x4
 2378 05ff E0000000 		.4byte	0xe0
 2379 0603 04       		.uleb128 0x4
 2380 0604 08       		.byte	0x8
 2381 0605 04       		.byte	0x4
 2382 0606 15030000 		.4byte	.LASF59
 2383 060a 04       		.uleb128 0x4
 2384 060b 04       		.byte	0x4
 2385 060c 04       		.byte	0x4
 2386 060d 1F010000 		.4byte	.LASF60
 2387 0611 04       		.uleb128 0x4
 2388 0612 08       		.byte	0x8
 2389 0613 04       		.byte	0x4
 2390 0614 96010000 		.4byte	.LASF61
 2391 0618 03       		.uleb128 0x3
 2392 0619 89030000 		.4byte	.LASF62
 2393 061d 0B       		.byte	0xb
 2394 061e 28       		.byte	0x28
 2395 061f 23060000 		.4byte	0x623
 2396 0623 0B       		.uleb128 0xb
ARM GAS  C:\Users\DNIEL~1\AppData\Local\Temp\ccuPvHGk.s 			page 45


 2397 0624 48010000 		.4byte	.LASF63
 2398 0628 04       		.byte	0x4
 2399 0629 0C       		.byte	0xc
 2400 062a 00       		.byte	0x0
 2401 062b 3D060000 		.4byte	0x63d
 2402 062f 19       		.uleb128 0x19
 2403 0630 17020000 		.4byte	.LASF98
 2404 0634 CE000000 		.4byte	0xce
 2405 0638 02       		.byte	0x2
 2406 0639 23       		.byte	0x23
 2407 063a 00       		.uleb128 0x0
 2408 063b 01       		.byte	0x1
 2409 063c 00       		.byte	0x0
 2410 063d 03       		.uleb128 0x3
 2411 063e AE000000 		.4byte	.LASF64
 2412 0642 0B       		.byte	0xb
 2413 0643 66       		.byte	0x66
 2414 0644 18060000 		.4byte	0x618
 2415 0648 0B       		.uleb128 0xb
 2416 0649 49020000 		.4byte	.LASF65
 2417 064d 06       		.byte	0x6
 2418 064e 02       		.byte	0x2
 2419 064f 0F       		.byte	0xf
 2420 0650 A9060000 		.4byte	0x6a9
 2421 0654 0C       		.uleb128 0xc
 2422 0655 79030000 		.4byte	.LASF66
 2423 0659 02       		.byte	0x2
 2424 065a 11       		.byte	0x11
 2425 065b A6000000 		.4byte	0xa6
 2426 065f 02       		.byte	0x2
 2427 0660 23       		.byte	0x23
 2428 0661 00       		.uleb128 0x0
 2429 0662 0C       		.uleb128 0xc
 2430 0663 0B000000 		.4byte	.LASF67
 2431 0667 02       		.byte	0x2
 2432 0668 12       		.byte	0x12
 2433 0669 A6000000 		.4byte	0xa6
 2434 066d 02       		.byte	0x2
 2435 066e 23       		.byte	0x23
 2436 066f 01       		.uleb128 0x1
 2437 0670 0C       		.uleb128 0xc
 2438 0671 60020000 		.4byte	.LASF68
 2439 0675 02       		.byte	0x2
 2440 0676 13       		.byte	0x13
 2441 0677 A6000000 		.4byte	0xa6
 2442 067b 02       		.byte	0x2
 2443 067c 23       		.byte	0x23
 2444 067d 02       		.uleb128 0x2
 2445 067e 0C       		.uleb128 0xc
 2446 067f D6010000 		.4byte	.LASF69
 2447 0683 02       		.byte	0x2
 2448 0684 14       		.byte	0x14
 2449 0685 A6000000 		.4byte	0xa6
 2450 0689 02       		.byte	0x2
 2451 068a 23       		.byte	0x23
 2452 068b 03       		.uleb128 0x3
 2453 068c 0C       		.uleb128 0xc
ARM GAS  C:\Users\DNIEL~1\AppData\Local\Temp\ccuPvHGk.s 			page 46


 2454 068d 1C030000 		.4byte	.LASF70
 2455 0691 02       		.byte	0x2
 2456 0692 15       		.byte	0x15
 2457 0693 A6000000 		.4byte	0xa6
 2458 0697 02       		.byte	0x2
 2459 0698 23       		.byte	0x23
 2460 0699 04       		.uleb128 0x4
 2461 069a 0C       		.uleb128 0xc
 2462 069b CE000000 		.4byte	.LASF71
 2463 069f 02       		.byte	0x2
 2464 06a0 16       		.byte	0x16
 2465 06a1 A6000000 		.4byte	0xa6
 2466 06a5 02       		.byte	0x2
 2467 06a6 23       		.byte	0x23
 2468 06a7 05       		.uleb128 0x5
 2469 06a8 00       		.byte	0x0
 2470 06a9 1A       		.uleb128 0x1a
 2471 06aa 01       		.byte	0x1
 2472 06ab 76010000 		.4byte	.LASF85
 2473 06af 02       		.byte	0x2
 2474 06b0 63       		.byte	0x63
 2475 06b1 01       		.byte	0x1
 2476 06b2 01       		.byte	0x1
 2477 06b3 C3060000 		.4byte	0x6c3
 2478 06b7 1B       		.uleb128 0x1b
 2479 06b8 69010000 		.4byte	.LASF80
 2480 06bc 02       		.byte	0x2
 2481 06bd 63       		.byte	0x63
 2482 06be 29000000 		.4byte	0x29
 2483 06c2 00       		.byte	0x0
 2484 06c3 1C       		.uleb128 0x1c
 2485 06c4 C9020000 		.4byte	.LASF99
 2486 06c8 01       		.byte	0x1
 2487 06c9 45       		.byte	0x45
 2488 06ca 01       		.byte	0x1
 2489 06cb 00000000 		.4byte	.LFB118
 2490 06cf 1E000000 		.4byte	.LFE118
 2491 06d3 00000000 		.4byte	.LLST0
 2492 06d7 07070000 		.4byte	0x707
 2493 06db 1D       		.uleb128 0x1d
 2494 06dc 63687000 		.ascii	"chp\000"
 2495 06e0 01       		.byte	0x1
 2496 06e1 45       		.byte	0x45
 2497 06e2 07070000 		.4byte	0x707
 2498 06e6 38000000 		.4byte	.LLST1
 2499 06ea 1E       		.uleb128 0x1e
 2500 06eb 666D7400 		.ascii	"fmt\000"
 2501 06ef 01       		.byte	0x1
 2502 06f0 45       		.byte	0x45
 2503 06f1 D5000000 		.4byte	0xd5
 2504 06f5 02       		.byte	0x2
 2505 06f6 91       		.byte	0x91
 2506 06f7 74       		.sleb128 -12
 2507 06f8 1F       		.uleb128 0x1f
 2508 06f9 20       		.uleb128 0x20
 2509 06fa 617000   		.ascii	"ap\000"
 2510 06fd 01       		.byte	0x1
ARM GAS  C:\Users\DNIEL~1\AppData\Local\Temp\ccuPvHGk.s 			page 47


 2511 06fe 46       		.byte	0x46
 2512 06ff 3D060000 		.4byte	0x63d
 2513 0703 02       		.byte	0x2
 2514 0704 91       		.byte	0x91
 2515 0705 6C       		.sleb128 -20
 2516 0706 00       		.byte	0x0
 2517 0707 07       		.uleb128 0x7
 2518 0708 04       		.byte	0x4
 2519 0709 D0010000 		.4byte	0x1d0
 2520 070d 21       		.uleb128 0x21
 2521 070e 01       		.byte	0x1
 2522 070f 78020000 		.4byte	.LASF72
 2523 0713 02       		.byte	0x2
 2524 0714 2C       		.byte	0x2c
 2525 0715 01       		.byte	0x1
 2526 0716 00000000 		.4byte	.LFB119
 2527 071a 34000000 		.4byte	.LFE119
 2528 071e 02       		.byte	0x2
 2529 071f 7D       		.byte	0x7d
 2530 0720 00       		.sleb128 0
 2531 0721 22       		.uleb128 0x22
 2532 0722 01       		.byte	0x1
 2533 0723 15010000 		.4byte	.LASF73
 2534 0727 02       		.byte	0x2
 2535 0728 34       		.byte	0x34
 2536 0729 01       		.byte	0x1
 2537 072a 00000000 		.4byte	.LFB120
 2538 072e D8000000 		.4byte	.LFE120
 2539 0732 4B000000 		.4byte	.LLST2
 2540 0736 23       		.uleb128 0x23
 2541 0737 A9060000 		.4byte	0x6a9
 2542 073b 00000000 		.4byte	.LFB121
 2543 073f 54000000 		.4byte	.LFE121
 2544 0743 6B000000 		.4byte	.LLST3
 2545 0747 55070000 		.4byte	0x755
 2546 074b 24       		.uleb128 0x24
 2547 074c B7060000 		.4byte	0x6b7
 2548 0750 8B000000 		.4byte	.LLST4
 2549 0754 00       		.byte	0x0
 2550 0755 25       		.uleb128 0x25
 2551 0756 01       		.byte	0x1
 2552 0757 4D030000 		.4byte	.LASF74
 2553 075b 02       		.byte	0x2
 2554 075c 6D       		.byte	0x6d
 2555 075d 00000000 		.4byte	.LFB122
 2556 0761 10000000 		.4byte	.LFE122
 2557 0765 02       		.byte	0x2
 2558 0766 7D       		.byte	0x7d
 2559 0767 00       		.sleb128 0
 2560 0768 7C070000 		.4byte	0x77c
 2561 076c 26       		.uleb128 0x26
 2562 076d 01       		.byte	0x1
 2563 076e 25020000 		.4byte	.LASF76
 2564 0772 02       		.byte	0x2
 2565 0773 6F       		.byte	0x6f
 2566 0774 29000000 		.4byte	0x29
 2567 0778 01       		.byte	0x1
ARM GAS  C:\Users\DNIEL~1\AppData\Local\Temp\ccuPvHGk.s 			page 48


 2568 0779 1F       		.uleb128 0x1f
 2569 077a 00       		.byte	0x0
 2570 077b 00       		.byte	0x0
 2571 077c 25       		.uleb128 0x25
 2572 077d 01       		.byte	0x1
 2573 077e 16000000 		.4byte	.LASF75
 2574 0782 02       		.byte	0x2
 2575 0783 71       		.byte	0x71
 2576 0784 00000000 		.4byte	.LFB123
 2577 0788 10000000 		.4byte	.LFE123
 2578 078c 02       		.byte	0x2
 2579 078d 7D       		.byte	0x7d
 2580 078e 00       		.sleb128 0
 2581 078f A3070000 		.4byte	0x7a3
 2582 0793 26       		.uleb128 0x26
 2583 0794 01       		.byte	0x1
 2584 0795 A9030000 		.4byte	.LASF77
 2585 0799 02       		.byte	0x2
 2586 079a 73       		.byte	0x73
 2587 079b 29000000 		.4byte	0x29
 2588 079f 01       		.byte	0x1
 2589 07a0 1F       		.uleb128 0x1f
 2590 07a1 00       		.byte	0x0
 2591 07a2 00       		.byte	0x0
 2592 07a3 27       		.uleb128 0x27
 2593 07a4 01       		.byte	0x1
 2594 07a5 9F000000 		.4byte	.LASF78
 2595 07a9 02       		.byte	0x2
 2596 07aa 76       		.byte	0x76
 2597 07ab 00000000 		.4byte	.LFB124
 2598 07af 24000000 		.4byte	.LFE124
 2599 07b3 AB000000 		.4byte	.LLST5
 2600 07b7 27       		.uleb128 0x27
 2601 07b8 01       		.byte	0x1
 2602 07b9 25010000 		.4byte	.LASF79
 2603 07bd 02       		.byte	0x2
 2604 07be 7B       		.byte	0x7b
 2605 07bf 00000000 		.4byte	.LFB125
 2606 07c3 20000000 		.4byte	.LFE125
 2607 07c7 CB000000 		.4byte	.LLST6
 2608 07cb 28       		.uleb128 0x28
 2609 07cc 01       		.byte	0x1
 2610 07cd C0010000 		.4byte	.LASF100
 2611 07d1 02       		.byte	0x2
 2612 07d2 81       		.byte	0x81
 2613 07d3 01       		.byte	0x1
 2614 07d4 A6000000 		.4byte	0xa6
 2615 07d8 00000000 		.4byte	.LFB126
 2616 07dc 6C000000 		.4byte	.LFE126
 2617 07e0 02       		.byte	0x2
 2618 07e1 7D       		.byte	0x7d
 2619 07e2 00       		.sleb128 0
 2620 07e3 F7070000 		.4byte	0x7f7
 2621 07e7 29       		.uleb128 0x29
 2622 07e8 69010000 		.4byte	.LASF80
 2623 07ec 02       		.byte	0x2
 2624 07ed 81       		.byte	0x81
ARM GAS  C:\Users\DNIEL~1\AppData\Local\Temp\ccuPvHGk.s 			page 49


 2625 07ee 49000000 		.4byte	0x49
 2626 07f2 EB000000 		.4byte	.LLST7
 2627 07f6 00       		.byte	0x0
 2628 07f7 2A       		.uleb128 0x2a
 2629 07f8 01       		.byte	0x1
 2630 07f9 24030000 		.4byte	.LASF83
 2631 07fd 02       		.byte	0x2
 2632 07fe 8C       		.byte	0x8c
 2633 07ff 01       		.byte	0x1
 2634 0800 00000000 		.4byte	.LFB127
 2635 0804 94000000 		.4byte	.LFE127
 2636 0808 40010000 		.4byte	.LLST8
 2637 080c 3E080000 		.4byte	0x83e
 2638 0810 1D       		.uleb128 0x1d
 2639 0811 63687000 		.ascii	"chp\000"
 2640 0815 02       		.byte	0x2
 2641 0816 8C       		.byte	0x8c
 2642 0817 07070000 		.4byte	0x707
 2643 081b 60010000 		.4byte	.LLST9
 2644 081f 29       		.uleb128 0x29
 2645 0820 10010000 		.4byte	.LASF81
 2646 0824 02       		.byte	0x2
 2647 0825 8C       		.byte	0x8c
 2648 0826 29000000 		.4byte	0x29
 2649 082a 7E010000 		.4byte	.LLST10
 2650 082e 29       		.uleb128 0x29
 2651 082f 91010000 		.4byte	.LASF82
 2652 0833 02       		.byte	0x2
 2653 0834 8C       		.byte	0x8c
 2654 0835 3E080000 		.4byte	0x83e
 2655 0839 91010000 		.4byte	.LLST11
 2656 083d 00       		.byte	0x0
 2657 083e 07       		.uleb128 0x7
 2658 083f 04       		.byte	0x4
 2659 0840 FD050000 		.4byte	0x5fd
 2660 0844 2A       		.uleb128 0x2a
 2661 0845 01       		.byte	0x1
 2662 0846 AF020000 		.4byte	.LASF84
 2663 084a 02       		.byte	0x2
 2664 084b 9E       		.byte	0x9e
 2665 084c 01       		.byte	0x1
 2666 084d 00000000 		.4byte	.LFB128
 2667 0851 0C020000 		.4byte	.LFE128
 2668 0855 A4010000 		.4byte	.LLST12
 2669 0859 1F090000 		.4byte	0x91f
 2670 085d 1D       		.uleb128 0x1d
 2671 085e 63687000 		.ascii	"chp\000"
 2672 0862 02       		.byte	0x2
 2673 0863 9E       		.byte	0x9e
 2674 0864 07070000 		.4byte	0x707
 2675 0868 C4010000 		.4byte	.LLST13
 2676 086c 29       		.uleb128 0x29
 2677 086d 10010000 		.4byte	.LASF81
 2678 0871 02       		.byte	0x2
 2679 0872 9E       		.byte	0x9e
 2680 0873 29000000 		.4byte	0x29
 2681 0877 E2010000 		.4byte	.LLST14
ARM GAS  C:\Users\DNIEL~1\AppData\Local\Temp\ccuPvHGk.s 			page 50


 2682 087b 29       		.uleb128 0x29
 2683 087c 91010000 		.4byte	.LASF82
 2684 0880 02       		.byte	0x2
 2685 0881 9E       		.byte	0x9e
 2686 0882 3E080000 		.4byte	0x83e
 2687 0886 00020000 		.4byte	.LLST15
 2688 088a 2B       		.uleb128 0x2b
 2689 088b 70010000 		.4byte	.LASF101
 2690 088f 02       		.byte	0x2
 2691 0890 E2       		.byte	0xe2
 2692 0891 28000000 		.4byte	.L59
 2693 0895 2C       		.uleb128 0x2c
 2694 0896 00000000 		.4byte	.Ldebug_ranges0+0x0
 2695 089a 2D       		.uleb128 0x2d
 2696 089b 01       		.byte	0x1
 2697 089c 64030000 		.4byte	.LASF86
 2698 08a0 0C       		.byte	0xc
 2699 08a1 00       		.byte	0x0
 2700 08a2 29000000 		.4byte	0x29
 2701 08a6 01       		.byte	0x1
 2702 08a7 AD080000 		.4byte	0x8ad
 2703 08ab 1F       		.uleb128 0x1f
 2704 08ac 00       		.byte	0x0
 2705 08ad 2E       		.uleb128 0x2e
 2706 08ae A9060000 		.4byte	0x6a9
 2707 08b2 6C010000 		.4byte	.LBB12
 2708 08b6 82010000 		.4byte	.LBE12
 2709 08ba 02       		.byte	0x2
 2710 08bb B7       		.byte	0xb7
 2711 08bc CA080000 		.4byte	0x8ca
 2712 08c0 24       		.uleb128 0x24
 2713 08c1 B7060000 		.4byte	0x6b7
 2714 08c5 29020000 		.4byte	.LLST16
 2715 08c9 00       		.byte	0x0
 2716 08ca 2F       		.uleb128 0x2f
 2717 08cb A9060000 		.4byte	0x6a9
 2718 08cf 44010000 		.4byte	.LBB15
 2719 08d3 30000000 		.4byte	.Ldebug_ranges0+0x30
 2720 08d7 02       		.byte	0x2
 2721 08d8 B0       		.byte	0xb0
 2722 08d9 E7080000 		.4byte	0x8e7
 2723 08dd 24       		.uleb128 0x24
 2724 08de B7060000 		.4byte	0x6b7
 2725 08e2 3D020000 		.4byte	.LLST17
 2726 08e6 00       		.byte	0x0
 2727 08e7 2E       		.uleb128 0x2e
 2728 08e8 A9060000 		.4byte	0x6a9
 2729 08ec 3C010000 		.4byte	.LBB18
 2730 08f0 44010000 		.4byte	.LBE18
 2731 08f4 02       		.byte	0x2
 2732 08f5 A9       		.byte	0xa9
 2733 08f6 04090000 		.4byte	0x904
 2734 08fa 24       		.uleb128 0x24
 2735 08fb B7060000 		.4byte	0x6b7
 2736 08ff 51020000 		.4byte	.LLST18
 2737 0903 00       		.byte	0x0
 2738 0904 30       		.uleb128 0x30
ARM GAS  C:\Users\DNIEL~1\AppData\Local\Temp\ccuPvHGk.s 			page 51


 2739 0905 A9060000 		.4byte	0x6a9
 2740 0909 EA000000 		.4byte	.LBB20
 2741 090d 04010000 		.4byte	.LBE20
 2742 0911 02       		.byte	0x2
 2743 0912 D9       		.byte	0xd9
 2744 0913 24       		.uleb128 0x24
 2745 0914 B7060000 		.4byte	0x6b7
 2746 0918 65020000 		.4byte	.LLST19
 2747 091c 00       		.byte	0x0
 2748 091d 00       		.byte	0x0
 2749 091e 00       		.byte	0x0
 2750 091f 2A       		.uleb128 0x2a
 2751 0920 01       		.byte	0x1
 2752 0921 34030000 		.4byte	.LASF87
 2753 0925 02       		.byte	0x2
 2754 0926 EE       		.byte	0xee
 2755 0927 01       		.byte	0x1
 2756 0928 00000000 		.4byte	.LFB129
 2757 092c A8000000 		.4byte	.LFE129
 2758 0930 79020000 		.4byte	.LLST20
 2759 0934 66090000 		.4byte	0x966
 2760 0938 1D       		.uleb128 0x1d
 2761 0939 63687000 		.ascii	"chp\000"
 2762 093d 02       		.byte	0x2
 2763 093e EE       		.byte	0xee
 2764 093f 07070000 		.4byte	0x707
 2765 0943 99020000 		.4byte	.LLST21
 2766 0947 29       		.uleb128 0x29
 2767 0948 10010000 		.4byte	.LASF81
 2768 094c 02       		.byte	0x2
 2769 094d EE       		.byte	0xee
 2770 094e 29000000 		.4byte	0x29
 2771 0952 B7020000 		.4byte	.LLST22
 2772 0956 29       		.uleb128 0x29
 2773 0957 91010000 		.4byte	.LASF82
 2774 095b 02       		.byte	0x2
 2775 095c EE       		.byte	0xee
 2776 095d 3E080000 		.4byte	0x83e
 2777 0961 CA020000 		.4byte	.LLST23
 2778 0965 00       		.byte	0x0
 2779 0966 31       		.uleb128 0x31
 2780 0967 DE030000 		.4byte	.LASF88
 2781 096b 0D       		.byte	0xd
 2782 096c 9806     		.2byte	0x698
 2783 096e EB010000 		.4byte	0x1eb
 2784 0972 01       		.byte	0x1
 2785 0973 01       		.byte	0x1
 2786 0974 31       		.uleb128 0x31
 2787 0975 36000000 		.4byte	.LASF89
 2788 0979 0A       		.byte	0xa
 2789 097a BF01     		.2byte	0x1bf
 2790 097c 9F040000 		.4byte	0x49f
 2791 0980 01       		.byte	0x1
 2792 0981 01       		.byte	0x1
 2793 0982 32       		.uleb128 0x32
 2794 0983 84010000 		.4byte	.LASF90
 2795 0987 02       		.byte	0x2
ARM GAS  C:\Users\DNIEL~1\AppData\Local\Temp\ccuPvHGk.s 			page 52


 2796 0988 17       		.byte	0x17
 2797 0989 48060000 		.4byte	0x648
 2798 098d 05       		.byte	0x5
 2799 098e 03       		.byte	0x3
 2800 098f 00000000 		.4byte	lightchanels
 2801 0993 32       		.uleb128 0x32
 2802 0994 D2020000 		.4byte	.LASF91
 2803 0998 02       		.byte	0x2
 2804 0999 19       		.byte	0x19
 2805 099a E6050000 		.4byte	0x5e6
 2806 099e 05       		.byte	0x5
 2807 099f 03       		.byte	0x3
 2808 09a0 00000000 		.4byte	pwmcfg
 2809 09a4 32       		.uleb128 0x32
 2810 09a5 62010000 		.4byte	.LASF47
 2811 09a9 02       		.byte	0x2
 2812 09aa 27       		.byte	0x27
 2813 09ab 29000000 		.4byte	0x29
 2814 09af 05       		.byte	0x5
 2815 09b0 03       		.byte	0x3
 2816 09b1 00000000 		.4byte	period
 2817 09b5 32       		.uleb128 0x32
 2818 09b6 36020000 		.4byte	.LASF92
 2819 09ba 02       		.byte	0x2
 2820 09bb 28       		.byte	0x28
 2821 09bc B1000000 		.4byte	0xb1
 2822 09c0 05       		.byte	0x5
 2823 09c1 03       		.byte	0x3
 2824 09c2 00000000 		.4byte	flashing
 2825 09c6 32       		.uleb128 0x32
 2826 09c7 D1030000 		.4byte	.LASF93
 2827 09cb 02       		.byte	0x2
 2828 09cc 29       		.byte	0x29
 2829 09cd A6000000 		.4byte	0xa6
 2830 09d1 05       		.byte	0x5
 2831 09d2 03       		.byte	0x3
 2832 09d3 00000000 		.4byte	right_active
 2833 09d7 32       		.uleb128 0x32
 2834 09d8 D7000000 		.4byte	.LASF94
 2835 09dc 02       		.byte	0x2
 2836 09dd 2A       		.byte	0x2a
 2837 09de A6000000 		.4byte	0xa6
 2838 09e2 05       		.byte	0x5
 2839 09e3 03       		.byte	0x3
 2840 09e4 00000000 		.4byte	left_active
 2841 09e8 31       		.uleb128 0x31
 2842 09e9 DE030000 		.4byte	.LASF88
 2843 09ed 0D       		.byte	0xd
 2844 09ee 9806     		.2byte	0x698
 2845 09f0 EB010000 		.4byte	0x1eb
 2846 09f4 01       		.byte	0x1
 2847 09f5 01       		.byte	0x1
 2848 09f6 31       		.uleb128 0x31
 2849 09f7 36000000 		.4byte	.LASF89
 2850 09fb 0A       		.byte	0xa
 2851 09fc BF01     		.2byte	0x1bf
 2852 09fe 9F040000 		.4byte	0x49f
ARM GAS  C:\Users\DNIEL~1\AppData\Local\Temp\ccuPvHGk.s 			page 53


 2853 0a02 01       		.byte	0x1
 2854 0a03 01       		.byte	0x1
 2855 0a04 00       		.byte	0x0
 2856              		.section	.debug_abbrev
 2857 0000 01       		.uleb128 0x1
 2858 0001 11       		.uleb128 0x11
 2859 0002 01       		.byte	0x1
 2860 0003 25       		.uleb128 0x25
 2861 0004 0E       		.uleb128 0xe
 2862 0005 13       		.uleb128 0x13
 2863 0006 0B       		.uleb128 0xb
 2864 0007 03       		.uleb128 0x3
 2865 0008 0E       		.uleb128 0xe
 2866 0009 1B       		.uleb128 0x1b
 2867 000a 0E       		.uleb128 0xe
 2868 000b 11       		.uleb128 0x11
 2869 000c 01       		.uleb128 0x1
 2870 000d 52       		.uleb128 0x52
 2871 000e 01       		.uleb128 0x1
 2872 000f 55       		.uleb128 0x55
 2873 0010 06       		.uleb128 0x6
 2874 0011 10       		.uleb128 0x10
 2875 0012 06       		.uleb128 0x6
 2876 0013 00       		.byte	0x0
 2877 0014 00       		.byte	0x0
 2878 0015 02       		.uleb128 0x2
 2879 0016 24       		.uleb128 0x24
 2880 0017 00       		.byte	0x0
 2881 0018 0B       		.uleb128 0xb
 2882 0019 0B       		.uleb128 0xb
 2883 001a 3E       		.uleb128 0x3e
 2884 001b 0B       		.uleb128 0xb
 2885 001c 03       		.uleb128 0x3
 2886 001d 08       		.uleb128 0x8
 2887 001e 00       		.byte	0x0
 2888 001f 00       		.byte	0x0
 2889 0020 03       		.uleb128 0x3
 2890 0021 16       		.uleb128 0x16
 2891 0022 00       		.byte	0x0
 2892 0023 03       		.uleb128 0x3
 2893 0024 0E       		.uleb128 0xe
 2894 0025 3A       		.uleb128 0x3a
 2895 0026 0B       		.uleb128 0xb
 2896 0027 3B       		.uleb128 0x3b
 2897 0028 0B       		.uleb128 0xb
 2898 0029 49       		.uleb128 0x49
 2899 002a 13       		.uleb128 0x13
 2900 002b 00       		.byte	0x0
 2901 002c 00       		.byte	0x0
 2902 002d 04       		.uleb128 0x4
 2903 002e 24       		.uleb128 0x24
 2904 002f 00       		.byte	0x0
 2905 0030 0B       		.uleb128 0xb
 2906 0031 0B       		.uleb128 0xb
 2907 0032 3E       		.uleb128 0x3e
 2908 0033 0B       		.uleb128 0xb
 2909 0034 03       		.uleb128 0x3
ARM GAS  C:\Users\DNIEL~1\AppData\Local\Temp\ccuPvHGk.s 			page 54


 2910 0035 0E       		.uleb128 0xe
 2911 0036 00       		.byte	0x0
 2912 0037 00       		.byte	0x0
 2913 0038 05       		.uleb128 0x5
 2914 0039 0F       		.uleb128 0xf
 2915 003a 00       		.byte	0x0
 2916 003b 0B       		.uleb128 0xb
 2917 003c 0B       		.uleb128 0xb
 2918 003d 00       		.byte	0x0
 2919 003e 00       		.byte	0x0
 2920 003f 06       		.uleb128 0x6
 2921 0040 35       		.uleb128 0x35
 2922 0041 00       		.byte	0x0
 2923 0042 49       		.uleb128 0x49
 2924 0043 13       		.uleb128 0x13
 2925 0044 00       		.byte	0x0
 2926 0045 00       		.byte	0x0
 2927 0046 07       		.uleb128 0x7
 2928 0047 0F       		.uleb128 0xf
 2929 0048 00       		.byte	0x0
 2930 0049 0B       		.uleb128 0xb
 2931 004a 0B       		.uleb128 0xb
 2932 004b 49       		.uleb128 0x49
 2933 004c 13       		.uleb128 0x13
 2934 004d 00       		.byte	0x0
 2935 004e 00       		.byte	0x0
 2936 004f 08       		.uleb128 0x8
 2937 0050 26       		.uleb128 0x26
 2938 0051 00       		.byte	0x0
 2939 0052 49       		.uleb128 0x49
 2940 0053 13       		.uleb128 0x13
 2941 0054 00       		.byte	0x0
 2942 0055 00       		.byte	0x0
 2943 0056 09       		.uleb128 0x9
 2944 0057 15       		.uleb128 0x15
 2945 0058 01       		.byte	0x1
 2946 0059 27       		.uleb128 0x27
 2947 005a 0C       		.uleb128 0xc
 2948 005b 49       		.uleb128 0x49
 2949 005c 13       		.uleb128 0x13
 2950 005d 01       		.uleb128 0x1
 2951 005e 13       		.uleb128 0x13
 2952 005f 00       		.byte	0x0
 2953 0060 00       		.byte	0x0
 2954 0061 0A       		.uleb128 0xa
 2955 0062 05       		.uleb128 0x5
 2956 0063 00       		.byte	0x0
 2957 0064 49       		.uleb128 0x49
 2958 0065 13       		.uleb128 0x13
 2959 0066 00       		.byte	0x0
 2960 0067 00       		.byte	0x0
 2961 0068 0B       		.uleb128 0xb
 2962 0069 13       		.uleb128 0x13
 2963 006a 01       		.byte	0x1
 2964 006b 03       		.uleb128 0x3
 2965 006c 0E       		.uleb128 0xe
 2966 006d 0B       		.uleb128 0xb
ARM GAS  C:\Users\DNIEL~1\AppData\Local\Temp\ccuPvHGk.s 			page 55


 2967 006e 0B       		.uleb128 0xb
 2968 006f 3A       		.uleb128 0x3a
 2969 0070 0B       		.uleb128 0xb
 2970 0071 3B       		.uleb128 0x3b
 2971 0072 0B       		.uleb128 0xb
 2972 0073 01       		.uleb128 0x1
 2973 0074 13       		.uleb128 0x13
 2974 0075 00       		.byte	0x0
 2975 0076 00       		.byte	0x0
 2976 0077 0C       		.uleb128 0xc
 2977 0078 0D       		.uleb128 0xd
 2978 0079 00       		.byte	0x0
 2979 007a 03       		.uleb128 0x3
 2980 007b 0E       		.uleb128 0xe
 2981 007c 3A       		.uleb128 0x3a
 2982 007d 0B       		.uleb128 0xb
 2983 007e 3B       		.uleb128 0x3b
 2984 007f 0B       		.uleb128 0xb
 2985 0080 49       		.uleb128 0x49
 2986 0081 13       		.uleb128 0x13
 2987 0082 38       		.uleb128 0x38
 2988 0083 0A       		.uleb128 0xa
 2989 0084 00       		.byte	0x0
 2990 0085 00       		.byte	0x0
 2991 0086 0D       		.uleb128 0xd
 2992 0087 0D       		.uleb128 0xd
 2993 0088 00       		.byte	0x0
 2994 0089 03       		.uleb128 0x3
 2995 008a 08       		.uleb128 0x8
 2996 008b 3A       		.uleb128 0x3a
 2997 008c 0B       		.uleb128 0xb
 2998 008d 3B       		.uleb128 0x3b
 2999 008e 0B       		.uleb128 0xb
 3000 008f 49       		.uleb128 0x49
 3001 0090 13       		.uleb128 0x13
 3002 0091 38       		.uleb128 0x38
 3003 0092 0A       		.uleb128 0xa
 3004 0093 00       		.byte	0x0
 3005 0094 00       		.byte	0x0
 3006 0095 0E       		.uleb128 0xe
 3007 0096 13       		.uleb128 0x13
 3008 0097 01       		.byte	0x1
 3009 0098 0B       		.uleb128 0xb
 3010 0099 0B       		.uleb128 0xb
 3011 009a 3A       		.uleb128 0x3a
 3012 009b 0B       		.uleb128 0xb
 3013 009c 3B       		.uleb128 0x3b
 3014 009d 0B       		.uleb128 0xb
 3015 009e 01       		.uleb128 0x1
 3016 009f 13       		.uleb128 0x13
 3017 00a0 00       		.byte	0x0
 3018 00a1 00       		.byte	0x0
 3019 00a2 0F       		.uleb128 0xf
 3020 00a3 01       		.uleb128 0x1
 3021 00a4 01       		.byte	0x1
 3022 00a5 49       		.uleb128 0x49
 3023 00a6 13       		.uleb128 0x13
ARM GAS  C:\Users\DNIEL~1\AppData\Local\Temp\ccuPvHGk.s 			page 56


 3024 00a7 01       		.uleb128 0x1
 3025 00a8 13       		.uleb128 0x13
 3026 00a9 00       		.byte	0x0
 3027 00aa 00       		.byte	0x0
 3028 00ab 10       		.uleb128 0x10
 3029 00ac 21       		.uleb128 0x21
 3030 00ad 00       		.byte	0x0
 3031 00ae 49       		.uleb128 0x49
 3032 00af 13       		.uleb128 0x13
 3033 00b0 2F       		.uleb128 0x2f
 3034 00b1 0B       		.uleb128 0xb
 3035 00b2 00       		.byte	0x0
 3036 00b3 00       		.byte	0x0
 3037 00b4 11       		.uleb128 0x11
 3038 00b5 13       		.uleb128 0x13
 3039 00b6 01       		.byte	0x1
 3040 00b7 0B       		.uleb128 0xb
 3041 00b8 0B       		.uleb128 0xb
 3042 00b9 3A       		.uleb128 0x3a
 3043 00ba 0B       		.uleb128 0xb
 3044 00bb 3B       		.uleb128 0x3b
 3045 00bc 05       		.uleb128 0x5
 3046 00bd 01       		.uleb128 0x1
 3047 00be 13       		.uleb128 0x13
 3048 00bf 00       		.byte	0x0
 3049 00c0 00       		.byte	0x0
 3050 00c1 12       		.uleb128 0x12
 3051 00c2 0D       		.uleb128 0xd
 3052 00c3 00       		.byte	0x0
 3053 00c4 03       		.uleb128 0x3
 3054 00c5 08       		.uleb128 0x8
 3055 00c6 3A       		.uleb128 0x3a
 3056 00c7 0B       		.uleb128 0xb
 3057 00c8 3B       		.uleb128 0x3b
 3058 00c9 05       		.uleb128 0x5
 3059 00ca 49       		.uleb128 0x49
 3060 00cb 13       		.uleb128 0x13
 3061 00cc 38       		.uleb128 0x38
 3062 00cd 0A       		.uleb128 0xa
 3063 00ce 00       		.byte	0x0
 3064 00cf 00       		.byte	0x0
 3065 00d0 13       		.uleb128 0x13
 3066 00d1 0D       		.uleb128 0xd
 3067 00d2 00       		.byte	0x0
 3068 00d3 03       		.uleb128 0x3
 3069 00d4 0E       		.uleb128 0xe
 3070 00d5 3A       		.uleb128 0x3a
 3071 00d6 0B       		.uleb128 0xb
 3072 00d7 3B       		.uleb128 0x3b
 3073 00d8 05       		.uleb128 0x5
 3074 00d9 49       		.uleb128 0x49
 3075 00da 13       		.uleb128 0x13
 3076 00db 38       		.uleb128 0x38
 3077 00dc 0A       		.uleb128 0xa
 3078 00dd 00       		.byte	0x0
 3079 00de 00       		.byte	0x0
 3080 00df 14       		.uleb128 0x14
ARM GAS  C:\Users\DNIEL~1\AppData\Local\Temp\ccuPvHGk.s 			page 57


 3081 00e0 16       		.uleb128 0x16
 3082 00e1 00       		.byte	0x0
 3083 00e2 03       		.uleb128 0x3
 3084 00e3 0E       		.uleb128 0xe
 3085 00e4 3A       		.uleb128 0x3a
 3086 00e5 0B       		.uleb128 0xb
 3087 00e6 3B       		.uleb128 0x3b
 3088 00e7 05       		.uleb128 0x5
 3089 00e8 49       		.uleb128 0x49
 3090 00e9 13       		.uleb128 0x13
 3091 00ea 00       		.byte	0x0
 3092 00eb 00       		.byte	0x0
 3093 00ec 15       		.uleb128 0x15
 3094 00ed 04       		.uleb128 0x4
 3095 00ee 01       		.byte	0x1
 3096 00ef 0B       		.uleb128 0xb
 3097 00f0 0B       		.uleb128 0xb
 3098 00f1 3A       		.uleb128 0x3a
 3099 00f2 0B       		.uleb128 0xb
 3100 00f3 3B       		.uleb128 0x3b
 3101 00f4 0B       		.uleb128 0xb
 3102 00f5 01       		.uleb128 0x1
 3103 00f6 13       		.uleb128 0x13
 3104 00f7 00       		.byte	0x0
 3105 00f8 00       		.byte	0x0
 3106 00f9 16       		.uleb128 0x16
 3107 00fa 28       		.uleb128 0x28
 3108 00fb 00       		.byte	0x0
 3109 00fc 03       		.uleb128 0x3
 3110 00fd 0E       		.uleb128 0xe
 3111 00fe 1C       		.uleb128 0x1c
 3112 00ff 0D       		.uleb128 0xd
 3113 0100 00       		.byte	0x0
 3114 0101 00       		.byte	0x0
 3115 0102 17       		.uleb128 0x17
 3116 0103 13       		.uleb128 0x13
 3117 0104 01       		.byte	0x1
 3118 0105 03       		.uleb128 0x3
 3119 0106 0E       		.uleb128 0xe
 3120 0107 0B       		.uleb128 0xb
 3121 0108 0B       		.uleb128 0xb
 3122 0109 3A       		.uleb128 0x3a
 3123 010a 0B       		.uleb128 0xb
 3124 010b 3B       		.uleb128 0x3b
 3125 010c 05       		.uleb128 0x5
 3126 010d 01       		.uleb128 0x1
 3127 010e 13       		.uleb128 0x13
 3128 010f 00       		.byte	0x0
 3129 0110 00       		.byte	0x0
 3130 0111 18       		.uleb128 0x18
 3131 0112 15       		.uleb128 0x15
 3132 0113 01       		.byte	0x1
 3133 0114 27       		.uleb128 0x27
 3134 0115 0C       		.uleb128 0xc
 3135 0116 01       		.uleb128 0x1
 3136 0117 13       		.uleb128 0x13
 3137 0118 00       		.byte	0x0
ARM GAS  C:\Users\DNIEL~1\AppData\Local\Temp\ccuPvHGk.s 			page 58


 3138 0119 00       		.byte	0x0
 3139 011a 19       		.uleb128 0x19
 3140 011b 0D       		.uleb128 0xd
 3141 011c 00       		.byte	0x0
 3142 011d 03       		.uleb128 0x3
 3143 011e 0E       		.uleb128 0xe
 3144 011f 49       		.uleb128 0x49
 3145 0120 13       		.uleb128 0x13
 3146 0121 38       		.uleb128 0x38
 3147 0122 0A       		.uleb128 0xa
 3148 0123 34       		.uleb128 0x34
 3149 0124 0C       		.uleb128 0xc
 3150 0125 00       		.byte	0x0
 3151 0126 00       		.byte	0x0
 3152 0127 1A       		.uleb128 0x1a
 3153 0128 2E       		.uleb128 0x2e
 3154 0129 01       		.byte	0x1
 3155 012a 3F       		.uleb128 0x3f
 3156 012b 0C       		.uleb128 0xc
 3157 012c 03       		.uleb128 0x3
 3158 012d 0E       		.uleb128 0xe
 3159 012e 3A       		.uleb128 0x3a
 3160 012f 0B       		.uleb128 0xb
 3161 0130 3B       		.uleb128 0x3b
 3162 0131 0B       		.uleb128 0xb
 3163 0132 27       		.uleb128 0x27
 3164 0133 0C       		.uleb128 0xc
 3165 0134 20       		.uleb128 0x20
 3166 0135 0B       		.uleb128 0xb
 3167 0136 01       		.uleb128 0x1
 3168 0137 13       		.uleb128 0x13
 3169 0138 00       		.byte	0x0
 3170 0139 00       		.byte	0x0
 3171 013a 1B       		.uleb128 0x1b
 3172 013b 05       		.uleb128 0x5
 3173 013c 00       		.byte	0x0
 3174 013d 03       		.uleb128 0x3
 3175 013e 0E       		.uleb128 0xe
 3176 013f 3A       		.uleb128 0x3a
 3177 0140 0B       		.uleb128 0xb
 3178 0141 3B       		.uleb128 0x3b
 3179 0142 0B       		.uleb128 0xb
 3180 0143 49       		.uleb128 0x49
 3181 0144 13       		.uleb128 0x13
 3182 0145 00       		.byte	0x0
 3183 0146 00       		.byte	0x0
 3184 0147 1C       		.uleb128 0x1c
 3185 0148 2E       		.uleb128 0x2e
 3186 0149 01       		.byte	0x1
 3187 014a 03       		.uleb128 0x3
 3188 014b 0E       		.uleb128 0xe
 3189 014c 3A       		.uleb128 0x3a
 3190 014d 0B       		.uleb128 0xb
 3191 014e 3B       		.uleb128 0x3b
 3192 014f 0B       		.uleb128 0xb
 3193 0150 27       		.uleb128 0x27
 3194 0151 0C       		.uleb128 0xc
ARM GAS  C:\Users\DNIEL~1\AppData\Local\Temp\ccuPvHGk.s 			page 59


 3195 0152 11       		.uleb128 0x11
 3196 0153 01       		.uleb128 0x1
 3197 0154 12       		.uleb128 0x12
 3198 0155 01       		.uleb128 0x1
 3199 0156 40       		.uleb128 0x40
 3200 0157 06       		.uleb128 0x6
 3201 0158 01       		.uleb128 0x1
 3202 0159 13       		.uleb128 0x13
 3203 015a 00       		.byte	0x0
 3204 015b 00       		.byte	0x0
 3205 015c 1D       		.uleb128 0x1d
 3206 015d 05       		.uleb128 0x5
 3207 015e 00       		.byte	0x0
 3208 015f 03       		.uleb128 0x3
 3209 0160 08       		.uleb128 0x8
 3210 0161 3A       		.uleb128 0x3a
 3211 0162 0B       		.uleb128 0xb
 3212 0163 3B       		.uleb128 0x3b
 3213 0164 0B       		.uleb128 0xb
 3214 0165 49       		.uleb128 0x49
 3215 0166 13       		.uleb128 0x13
 3216 0167 02       		.uleb128 0x2
 3217 0168 06       		.uleb128 0x6
 3218 0169 00       		.byte	0x0
 3219 016a 00       		.byte	0x0
 3220 016b 1E       		.uleb128 0x1e
 3221 016c 05       		.uleb128 0x5
 3222 016d 00       		.byte	0x0
 3223 016e 03       		.uleb128 0x3
 3224 016f 08       		.uleb128 0x8
 3225 0170 3A       		.uleb128 0x3a
 3226 0171 0B       		.uleb128 0xb
 3227 0172 3B       		.uleb128 0x3b
 3228 0173 0B       		.uleb128 0xb
 3229 0174 49       		.uleb128 0x49
 3230 0175 13       		.uleb128 0x13
 3231 0176 02       		.uleb128 0x2
 3232 0177 0A       		.uleb128 0xa
 3233 0178 00       		.byte	0x0
 3234 0179 00       		.byte	0x0
 3235 017a 1F       		.uleb128 0x1f
 3236 017b 18       		.uleb128 0x18
 3237 017c 00       		.byte	0x0
 3238 017d 00       		.byte	0x0
 3239 017e 00       		.byte	0x0
 3240 017f 20       		.uleb128 0x20
 3241 0180 34       		.uleb128 0x34
 3242 0181 00       		.byte	0x0
 3243 0182 03       		.uleb128 0x3
 3244 0183 08       		.uleb128 0x8
 3245 0184 3A       		.uleb128 0x3a
 3246 0185 0B       		.uleb128 0xb
 3247 0186 3B       		.uleb128 0x3b
 3248 0187 0B       		.uleb128 0xb
 3249 0188 49       		.uleb128 0x49
 3250 0189 13       		.uleb128 0x13
 3251 018a 02       		.uleb128 0x2
ARM GAS  C:\Users\DNIEL~1\AppData\Local\Temp\ccuPvHGk.s 			page 60


 3252 018b 0A       		.uleb128 0xa
 3253 018c 00       		.byte	0x0
 3254 018d 00       		.byte	0x0
 3255 018e 21       		.uleb128 0x21
 3256 018f 2E       		.uleb128 0x2e
 3257 0190 00       		.byte	0x0
 3258 0191 3F       		.uleb128 0x3f
 3259 0192 0C       		.uleb128 0xc
 3260 0193 03       		.uleb128 0x3
 3261 0194 0E       		.uleb128 0xe
 3262 0195 3A       		.uleb128 0x3a
 3263 0196 0B       		.uleb128 0xb
 3264 0197 3B       		.uleb128 0x3b
 3265 0198 0B       		.uleb128 0xb
 3266 0199 27       		.uleb128 0x27
 3267 019a 0C       		.uleb128 0xc
 3268 019b 11       		.uleb128 0x11
 3269 019c 01       		.uleb128 0x1
 3270 019d 12       		.uleb128 0x12
 3271 019e 01       		.uleb128 0x1
 3272 019f 40       		.uleb128 0x40
 3273 01a0 0A       		.uleb128 0xa
 3274 01a1 00       		.byte	0x0
 3275 01a2 00       		.byte	0x0
 3276 01a3 22       		.uleb128 0x22
 3277 01a4 2E       		.uleb128 0x2e
 3278 01a5 00       		.byte	0x0
 3279 01a6 3F       		.uleb128 0x3f
 3280 01a7 0C       		.uleb128 0xc
 3281 01a8 03       		.uleb128 0x3
 3282 01a9 0E       		.uleb128 0xe
 3283 01aa 3A       		.uleb128 0x3a
 3284 01ab 0B       		.uleb128 0xb
 3285 01ac 3B       		.uleb128 0x3b
 3286 01ad 0B       		.uleb128 0xb
 3287 01ae 27       		.uleb128 0x27
 3288 01af 0C       		.uleb128 0xc
 3289 01b0 11       		.uleb128 0x11
 3290 01b1 01       		.uleb128 0x1
 3291 01b2 12       		.uleb128 0x12
 3292 01b3 01       		.uleb128 0x1
 3293 01b4 40       		.uleb128 0x40
 3294 01b5 06       		.uleb128 0x6
 3295 01b6 00       		.byte	0x0
 3296 01b7 00       		.byte	0x0
 3297 01b8 23       		.uleb128 0x23
 3298 01b9 2E       		.uleb128 0x2e
 3299 01ba 01       		.byte	0x1
 3300 01bb 31       		.uleb128 0x31
 3301 01bc 13       		.uleb128 0x13
 3302 01bd 11       		.uleb128 0x11
 3303 01be 01       		.uleb128 0x1
 3304 01bf 12       		.uleb128 0x12
 3305 01c0 01       		.uleb128 0x1
 3306 01c1 40       		.uleb128 0x40
 3307 01c2 06       		.uleb128 0x6
 3308 01c3 01       		.uleb128 0x1
ARM GAS  C:\Users\DNIEL~1\AppData\Local\Temp\ccuPvHGk.s 			page 61


 3309 01c4 13       		.uleb128 0x13
 3310 01c5 00       		.byte	0x0
 3311 01c6 00       		.byte	0x0
 3312 01c7 24       		.uleb128 0x24
 3313 01c8 05       		.uleb128 0x5
 3314 01c9 00       		.byte	0x0
 3315 01ca 31       		.uleb128 0x31
 3316 01cb 13       		.uleb128 0x13
 3317 01cc 02       		.uleb128 0x2
 3318 01cd 06       		.uleb128 0x6
 3319 01ce 00       		.byte	0x0
 3320 01cf 00       		.byte	0x0
 3321 01d0 25       		.uleb128 0x25
 3322 01d1 2E       		.uleb128 0x2e
 3323 01d2 01       		.byte	0x1
 3324 01d3 3F       		.uleb128 0x3f
 3325 01d4 0C       		.uleb128 0xc
 3326 01d5 03       		.uleb128 0x3
 3327 01d6 0E       		.uleb128 0xe
 3328 01d7 3A       		.uleb128 0x3a
 3329 01d8 0B       		.uleb128 0xb
 3330 01d9 3B       		.uleb128 0x3b
 3331 01da 0B       		.uleb128 0xb
 3332 01db 11       		.uleb128 0x11
 3333 01dc 01       		.uleb128 0x1
 3334 01dd 12       		.uleb128 0x12
 3335 01de 01       		.uleb128 0x1
 3336 01df 40       		.uleb128 0x40
 3337 01e0 0A       		.uleb128 0xa
 3338 01e1 01       		.uleb128 0x1
 3339 01e2 13       		.uleb128 0x13
 3340 01e3 00       		.byte	0x0
 3341 01e4 00       		.byte	0x0
 3342 01e5 26       		.uleb128 0x26
 3343 01e6 2E       		.uleb128 0x2e
 3344 01e7 01       		.byte	0x1
 3345 01e8 3F       		.uleb128 0x3f
 3346 01e9 0C       		.uleb128 0xc
 3347 01ea 03       		.uleb128 0x3
 3348 01eb 0E       		.uleb128 0xe
 3349 01ec 3A       		.uleb128 0x3a
 3350 01ed 0B       		.uleb128 0xb
 3351 01ee 3B       		.uleb128 0x3b
 3352 01ef 0B       		.uleb128 0xb
 3353 01f0 49       		.uleb128 0x49
 3354 01f1 13       		.uleb128 0x13
 3355 01f2 3C       		.uleb128 0x3c
 3356 01f3 0C       		.uleb128 0xc
 3357 01f4 00       		.byte	0x0
 3358 01f5 00       		.byte	0x0
 3359 01f6 27       		.uleb128 0x27
 3360 01f7 2E       		.uleb128 0x2e
 3361 01f8 00       		.byte	0x0
 3362 01f9 3F       		.uleb128 0x3f
 3363 01fa 0C       		.uleb128 0xc
 3364 01fb 03       		.uleb128 0x3
 3365 01fc 0E       		.uleb128 0xe
ARM GAS  C:\Users\DNIEL~1\AppData\Local\Temp\ccuPvHGk.s 			page 62


 3366 01fd 3A       		.uleb128 0x3a
 3367 01fe 0B       		.uleb128 0xb
 3368 01ff 3B       		.uleb128 0x3b
 3369 0200 0B       		.uleb128 0xb
 3370 0201 11       		.uleb128 0x11
 3371 0202 01       		.uleb128 0x1
 3372 0203 12       		.uleb128 0x12
 3373 0204 01       		.uleb128 0x1
 3374 0205 40       		.uleb128 0x40
 3375 0206 06       		.uleb128 0x6
 3376 0207 00       		.byte	0x0
 3377 0208 00       		.byte	0x0
 3378 0209 28       		.uleb128 0x28
 3379 020a 2E       		.uleb128 0x2e
 3380 020b 01       		.byte	0x1
 3381 020c 3F       		.uleb128 0x3f
 3382 020d 0C       		.uleb128 0xc
 3383 020e 03       		.uleb128 0x3
 3384 020f 0E       		.uleb128 0xe
 3385 0210 3A       		.uleb128 0x3a
 3386 0211 0B       		.uleb128 0xb
 3387 0212 3B       		.uleb128 0x3b
 3388 0213 0B       		.uleb128 0xb
 3389 0214 27       		.uleb128 0x27
 3390 0215 0C       		.uleb128 0xc
 3391 0216 49       		.uleb128 0x49
 3392 0217 13       		.uleb128 0x13
 3393 0218 11       		.uleb128 0x11
 3394 0219 01       		.uleb128 0x1
 3395 021a 12       		.uleb128 0x12
 3396 021b 01       		.uleb128 0x1
 3397 021c 40       		.uleb128 0x40
 3398 021d 0A       		.uleb128 0xa
 3399 021e 01       		.uleb128 0x1
 3400 021f 13       		.uleb128 0x13
 3401 0220 00       		.byte	0x0
 3402 0221 00       		.byte	0x0
 3403 0222 29       		.uleb128 0x29
 3404 0223 05       		.uleb128 0x5
 3405 0224 00       		.byte	0x0
 3406 0225 03       		.uleb128 0x3
 3407 0226 0E       		.uleb128 0xe
 3408 0227 3A       		.uleb128 0x3a
 3409 0228 0B       		.uleb128 0xb
 3410 0229 3B       		.uleb128 0x3b
 3411 022a 0B       		.uleb128 0xb
 3412 022b 49       		.uleb128 0x49
 3413 022c 13       		.uleb128 0x13
 3414 022d 02       		.uleb128 0x2
 3415 022e 06       		.uleb128 0x6
 3416 022f 00       		.byte	0x0
 3417 0230 00       		.byte	0x0
 3418 0231 2A       		.uleb128 0x2a
 3419 0232 2E       		.uleb128 0x2e
 3420 0233 01       		.byte	0x1
 3421 0234 3F       		.uleb128 0x3f
 3422 0235 0C       		.uleb128 0xc
ARM GAS  C:\Users\DNIEL~1\AppData\Local\Temp\ccuPvHGk.s 			page 63


 3423 0236 03       		.uleb128 0x3
 3424 0237 0E       		.uleb128 0xe
 3425 0238 3A       		.uleb128 0x3a
 3426 0239 0B       		.uleb128 0xb
 3427 023a 3B       		.uleb128 0x3b
 3428 023b 0B       		.uleb128 0xb
 3429 023c 27       		.uleb128 0x27
 3430 023d 0C       		.uleb128 0xc
 3431 023e 11       		.uleb128 0x11
 3432 023f 01       		.uleb128 0x1
 3433 0240 12       		.uleb128 0x12
 3434 0241 01       		.uleb128 0x1
 3435 0242 40       		.uleb128 0x40
 3436 0243 06       		.uleb128 0x6
 3437 0244 01       		.uleb128 0x1
 3438 0245 13       		.uleb128 0x13
 3439 0246 00       		.byte	0x0
 3440 0247 00       		.byte	0x0
 3441 0248 2B       		.uleb128 0x2b
 3442 0249 0A       		.uleb128 0xa
 3443 024a 00       		.byte	0x0
 3444 024b 03       		.uleb128 0x3
 3445 024c 0E       		.uleb128 0xe
 3446 024d 3A       		.uleb128 0x3a
 3447 024e 0B       		.uleb128 0xb
 3448 024f 3B       		.uleb128 0x3b
 3449 0250 0B       		.uleb128 0xb
 3450 0251 11       		.uleb128 0x11
 3451 0252 01       		.uleb128 0x1
 3452 0253 00       		.byte	0x0
 3453 0254 00       		.byte	0x0
 3454 0255 2C       		.uleb128 0x2c
 3455 0256 0B       		.uleb128 0xb
 3456 0257 01       		.byte	0x1
 3457 0258 55       		.uleb128 0x55
 3458 0259 06       		.uleb128 0x6
 3459 025a 00       		.byte	0x0
 3460 025b 00       		.byte	0x0
 3461 025c 2D       		.uleb128 0x2d
 3462 025d 2E       		.uleb128 0x2e
 3463 025e 01       		.byte	0x1
 3464 025f 3F       		.uleb128 0x3f
 3465 0260 0C       		.uleb128 0xc
 3466 0261 03       		.uleb128 0x3
 3467 0262 0E       		.uleb128 0xe
 3468 0263 3A       		.uleb128 0x3a
 3469 0264 0B       		.uleb128 0xb
 3470 0265 3B       		.uleb128 0x3b
 3471 0266 0B       		.uleb128 0xb
 3472 0267 49       		.uleb128 0x49
 3473 0268 13       		.uleb128 0x13
 3474 0269 3C       		.uleb128 0x3c
 3475 026a 0C       		.uleb128 0xc
 3476 026b 01       		.uleb128 0x1
 3477 026c 13       		.uleb128 0x13
 3478 026d 00       		.byte	0x0
 3479 026e 00       		.byte	0x0
ARM GAS  C:\Users\DNIEL~1\AppData\Local\Temp\ccuPvHGk.s 			page 64


 3480 026f 2E       		.uleb128 0x2e
 3481 0270 1D       		.uleb128 0x1d
 3482 0271 01       		.byte	0x1
 3483 0272 31       		.uleb128 0x31
 3484 0273 13       		.uleb128 0x13
 3485 0274 11       		.uleb128 0x11
 3486 0275 01       		.uleb128 0x1
 3487 0276 12       		.uleb128 0x12
 3488 0277 01       		.uleb128 0x1
 3489 0278 58       		.uleb128 0x58
 3490 0279 0B       		.uleb128 0xb
 3491 027a 59       		.uleb128 0x59
 3492 027b 0B       		.uleb128 0xb
 3493 027c 01       		.uleb128 0x1
 3494 027d 13       		.uleb128 0x13
 3495 027e 00       		.byte	0x0
 3496 027f 00       		.byte	0x0
 3497 0280 2F       		.uleb128 0x2f
 3498 0281 1D       		.uleb128 0x1d
 3499 0282 01       		.byte	0x1
 3500 0283 31       		.uleb128 0x31
 3501 0284 13       		.uleb128 0x13
 3502 0285 52       		.uleb128 0x52
 3503 0286 01       		.uleb128 0x1
 3504 0287 55       		.uleb128 0x55
 3505 0288 06       		.uleb128 0x6
 3506 0289 58       		.uleb128 0x58
 3507 028a 0B       		.uleb128 0xb
 3508 028b 59       		.uleb128 0x59
 3509 028c 0B       		.uleb128 0xb
 3510 028d 01       		.uleb128 0x1
 3511 028e 13       		.uleb128 0x13
 3512 028f 00       		.byte	0x0
 3513 0290 00       		.byte	0x0
 3514 0291 30       		.uleb128 0x30
 3515 0292 1D       		.uleb128 0x1d
 3516 0293 01       		.byte	0x1
 3517 0294 31       		.uleb128 0x31
 3518 0295 13       		.uleb128 0x13
 3519 0296 11       		.uleb128 0x11
 3520 0297 01       		.uleb128 0x1
 3521 0298 12       		.uleb128 0x12
 3522 0299 01       		.uleb128 0x1
 3523 029a 58       		.uleb128 0x58
 3524 029b 0B       		.uleb128 0xb
 3525 029c 59       		.uleb128 0x59
 3526 029d 0B       		.uleb128 0xb
 3527 029e 00       		.byte	0x0
 3528 029f 00       		.byte	0x0
 3529 02a0 31       		.uleb128 0x31
 3530 02a1 34       		.uleb128 0x34
 3531 02a2 00       		.byte	0x0
 3532 02a3 03       		.uleb128 0x3
 3533 02a4 0E       		.uleb128 0xe
 3534 02a5 3A       		.uleb128 0x3a
 3535 02a6 0B       		.uleb128 0xb
 3536 02a7 3B       		.uleb128 0x3b
ARM GAS  C:\Users\DNIEL~1\AppData\Local\Temp\ccuPvHGk.s 			page 65


 3537 02a8 05       		.uleb128 0x5
 3538 02a9 49       		.uleb128 0x49
 3539 02aa 13       		.uleb128 0x13
 3540 02ab 3F       		.uleb128 0x3f
 3541 02ac 0C       		.uleb128 0xc
 3542 02ad 3C       		.uleb128 0x3c
 3543 02ae 0C       		.uleb128 0xc
 3544 02af 00       		.byte	0x0
 3545 02b0 00       		.byte	0x0
 3546 02b1 32       		.uleb128 0x32
 3547 02b2 34       		.uleb128 0x34
 3548 02b3 00       		.byte	0x0
 3549 02b4 03       		.uleb128 0x3
 3550 02b5 0E       		.uleb128 0xe
 3551 02b6 3A       		.uleb128 0x3a
 3552 02b7 0B       		.uleb128 0xb
 3553 02b8 3B       		.uleb128 0x3b
 3554 02b9 0B       		.uleb128 0xb
 3555 02ba 49       		.uleb128 0x49
 3556 02bb 13       		.uleb128 0x13
 3557 02bc 02       		.uleb128 0x2
 3558 02bd 0A       		.uleb128 0xa
 3559 02be 00       		.byte	0x0
 3560 02bf 00       		.byte	0x0
 3561 02c0 00       		.byte	0x0
 3562              		.section	.debug_pubnames,"",%progbits
 3563 0000 D3000000 		.4byte	0xd3
 3564 0004 0200     		.2byte	0x2
 3565 0006 00000000 		.4byte	.Ldebug_info0
 3566 000a 050A0000 		.4byte	0xa05
 3567 000e 0D070000 		.4byte	0x70d
 3568 0012 6C696768 		.ascii	"lightInit\000"
 3568      74496E69 
 3568      7400
 3569 001c 21070000 		.4byte	0x721
 3570 0020 6C696768 		.ascii	"lightCalc\000"
 3570      7443616C 
 3570      6300
 3571 002a 36070000 		.4byte	0x736
 3572 002e 6C696768 		.ascii	"lightFlashing\000"
 3572      74466C61 
 3572      7368696E 
 3572      6700
 3573 003c 55070000 		.4byte	0x755
 3574 0040 6C696768 		.ascii	"lightBrakeOn\000"
 3574      74427261 
 3574      6B654F6E 
 3574      00
 3575 004d 7C070000 		.4byte	0x77c
 3576 0051 6C696768 		.ascii	"lightBrakeOff\000"
 3576      74427261 
 3576      6B654F66 
 3576      6600
 3577 005f A3070000 		.4byte	0x7a3
 3578 0063 6C696768 		.ascii	"lightPosLampOn\000"
 3578      74506F73 
 3578      4C616D70 
ARM GAS  C:\Users\DNIEL~1\AppData\Local\Temp\ccuPvHGk.s 			page 66


 3578      4F6E00
 3579 0072 B7070000 		.4byte	0x7b7
 3580 0076 6C696768 		.ascii	"lightPosLampOff\000"
 3580      74506F73 
 3580      4C616D70 
 3580      4F666600 
 3581 0086 CB070000 		.4byte	0x7cb
 3582 008a 6765744C 		.ascii	"getLightFlashing\000"
 3582      69676874 
 3582      466C6173 
 3582      68696E67 
 3582      00
 3583 009b F7070000 		.4byte	0x7f7
 3584 009f 636D645F 		.ascii	"cmd_lightvalues\000"
 3584      6C696768 
 3584      7476616C 
 3584      75657300 
 3585 00af 44080000 		.4byte	0x844
 3586 00b3 636D645F 		.ascii	"cmd_lightblink\000"
 3586      6C696768 
 3586      74626C69 
 3586      6E6B00
 3587 00c2 1F090000 		.4byte	0x91f
 3588 00c6 636D645F 		.ascii	"cmd_getLight\000"
 3588      6765744C 
 3588      69676874 
 3588      00
 3589 00d3 00000000 		.4byte	0x0
 3590              		.section	.debug_pubtypes,"",%progbits
 3591 0000 8F010000 		.4byte	0x18f
 3592 0004 0200     		.2byte	0x2
 3593 0006 00000000 		.4byte	.Ldebug_info0
 3594 000a 050A0000 		.4byte	0xa05
 3595 000e 30000000 		.4byte	0x30
 3596 0012 73697A65 		.ascii	"size_t\000"
 3596      5F7400
 3597 0019 49000000 		.4byte	0x49
 3598 001d 75696E74 		.ascii	"uint8_t\000"
 3598      385F7400 
 3599 0025 62000000 		.4byte	0x62
 3600 0029 75696E74 		.ascii	"uint16_t\000"
 3600      31365F74 
 3600      00
 3601 0032 74000000 		.4byte	0x74
 3602 0036 696E7433 		.ascii	"int32_t\000"
 3602      325F7400 
 3603 003e 86000000 		.4byte	0x86
 3604 0042 75696E74 		.ascii	"uint32_t\000"
 3604      33325F74 
 3604      00
 3605 004b A6000000 		.4byte	0xa6
 3606 004f 626F6F6C 		.ascii	"bool_t\000"
 3606      5F7400
 3607 0056 B8000000 		.4byte	0xb8
 3608 005a 6D73675F 		.ascii	"msg_t\000"
 3608      7400
 3609 0060 C3000000 		.4byte	0xc3
ARM GAS  C:\Users\DNIEL~1\AppData\Local\Temp\ccuPvHGk.s 			page 67


 3610 0064 73797374 		.ascii	"systime_t\000"
 3610      696D655F 
 3610      7400
 3611 006e 03010000 		.4byte	0x103
 3612 0072 42617365 		.ascii	"BaseSequentialStreamVMT\000"
 3612      53657175 
 3612      656E7469 
 3612      616C5374 
 3612      7265616D 
 3613 008a D0010000 		.4byte	0x1d0
 3614 008e 42617365 		.ascii	"BaseSequentialStream\000"
 3614      53657175 
 3614      656E7469 
 3614      616C5374 
 3614      7265616D 
 3615 00a3 F0010000 		.4byte	0x1f0
 3616 00a7 42617365 		.ascii	"BaseChannelVMT\000"
 3616      4368616E 
 3616      6E656C56 
 3616      4D5400
 3617 00b6 14030000 		.4byte	0x314
 3618 00ba 42617365 		.ascii	"BaseChannel\000"
 3618      4368616E 
 3618      6E656C00 
 3619 00c6 67040000 		.4byte	0x467
 3620 00ca 73746D33 		.ascii	"stm32_tim_t\000"
 3620      325F7469 
 3620      6D5F7400 
 3621 00d6 94040000 		.4byte	0x494
 3622 00da 70776D73 		.ascii	"pwmstate_t\000"
 3622      74617465 
 3622      5F7400
 3623 00e5 9F040000 		.4byte	0x49f
 3624 00e9 50574D44 		.ascii	"PWMDriver\000"
 3624      72697665 
 3624      7200
 3625 00f3 03050000 		.4byte	0x503
 3626 00f7 70776D63 		.ascii	"pwmcallback_t\000"
 3626      616C6C62 
 3626      61636B5F 
 3626      7400
 3627 0105 26050000 		.4byte	0x526
 3628 0109 70776D6D 		.ascii	"pwmmode_t\000"
 3628      6F64655F 
 3628      7400
 3629 0113 32050000 		.4byte	0x532
 3630 0117 70776D63 		.ascii	"pwmcnt_t\000"
 3630      6E745F74 
 3630      00
 3631 0120 66050000 		.4byte	0x566
 3632 0124 50574D43 		.ascii	"PWMChannelConfig\000"
 3632      68616E6E 
 3632      656C436F 
 3632      6E666967 
 3632      00
 3633 0135 E6050000 		.4byte	0x5e6
 3634 0139 50574D43 		.ascii	"PWMConfig\000"
ARM GAS  C:\Users\DNIEL~1\AppData\Local\Temp\ccuPvHGk.s 			page 68


 3634      6F6E6669 
 3634      6700
 3635 0143 AA040000 		.4byte	0x4aa
 3636 0147 50574D44 		.ascii	"PWMDriver\000"
 3636      72697665 
 3636      7200
 3637 0151 23060000 		.4byte	0x623
 3638 0155 5F5F7661 		.ascii	"__va_list\000"
 3638      5F6C6973 
 3638      7400
 3639 015f 18060000 		.4byte	0x618
 3640 0163 5F5F676E 		.ascii	"__gnuc_va_list\000"
 3640      75635F76 
 3640      615F6C69 
 3640      737400
 3641 0172 3D060000 		.4byte	0x63d
 3642 0176 76615F6C 		.ascii	"va_list\000"
 3642      69737400 
 3643 017e 48060000 		.4byte	0x648
 3644 0182 6C696768 		.ascii	"lightChanels\000"
 3644      74436861 
 3644      6E656C73 
 3644      00
 3645 018f 00000000 		.4byte	0x0
 3646              		.section	.debug_aranges,"",%progbits
 3647 0000 74000000 		.4byte	0x74
 3648 0004 0200     		.2byte	0x2
 3649 0006 00000000 		.4byte	.Ldebug_info0
 3650 000a 04       		.byte	0x4
 3651 000b 00       		.byte	0x0
 3652 000c 0000     		.2byte	0x0
 3653 000e 0000     		.2byte	0x0
 3654 0010 00000000 		.4byte	.LFB118
 3655 0014 1E000000 		.4byte	.LFE118-.LFB118
 3656 0018 00000000 		.4byte	.LFB119
 3657 001c 34000000 		.4byte	.LFE119-.LFB119
 3658 0020 00000000 		.4byte	.LFB120
 3659 0024 D8000000 		.4byte	.LFE120-.LFB120
 3660 0028 00000000 		.4byte	.LFB121
 3661 002c 54000000 		.4byte	.LFE121-.LFB121
 3662 0030 00000000 		.4byte	.LFB122
 3663 0034 10000000 		.4byte	.LFE122-.LFB122
 3664 0038 00000000 		.4byte	.LFB123
 3665 003c 10000000 		.4byte	.LFE123-.LFB123
 3666 0040 00000000 		.4byte	.LFB124
 3667 0044 24000000 		.4byte	.LFE124-.LFB124
 3668 0048 00000000 		.4byte	.LFB125
 3669 004c 20000000 		.4byte	.LFE125-.LFB125
 3670 0050 00000000 		.4byte	.LFB126
 3671 0054 6C000000 		.4byte	.LFE126-.LFB126
 3672 0058 00000000 		.4byte	.LFB127
 3673 005c 94000000 		.4byte	.LFE127-.LFB127
 3674 0060 00000000 		.4byte	.LFB128
 3675 0064 0C020000 		.4byte	.LFE128-.LFB128
 3676 0068 00000000 		.4byte	.LFB129
 3677 006c A8000000 		.4byte	.LFE129-.LFB129
 3678 0070 00000000 		.4byte	0x0
ARM GAS  C:\Users\DNIEL~1\AppData\Local\Temp\ccuPvHGk.s 			page 69


 3679 0074 00000000 		.4byte	0x0
 3680              		.section	.debug_ranges,"",%progbits
 3681              	.Ldebug_ranges0:
 3682 0000 6C000000 		.4byte	.LBB11
 3683 0004 0C010000 		.4byte	.LBE11
 3684 0008 8E010000 		.4byte	.LBB25
 3685 000c 0C020000 		.4byte	.LBE25
 3686 0010 30010000 		.4byte	.LBB24
 3687 0014 8A010000 		.4byte	.LBE24
 3688 0018 20010000 		.4byte	.LBB23
 3689 001c 2C010000 		.4byte	.LBE23
 3690 0020 10010000 		.4byte	.LBB22
 3691 0024 1C010000 		.4byte	.LBE22
 3692 0028 00000000 		.4byte	0x0
 3693 002c 00000000 		.4byte	0x0
 3694 0030 44010000 		.4byte	.LBB15
 3695 0034 52010000 		.4byte	.LBE15
 3696 0038 5A010000 		.4byte	.LBB14
 3697 003c 64010000 		.4byte	.LBE14
 3698 0040 00000000 		.4byte	0x0
 3699 0044 00000000 		.4byte	0x0
 3700 0048 00000000 		.4byte	.LFB118
 3701 004c 1E000000 		.4byte	.LFE118
 3702 0050 00000000 		.4byte	.LFB119
 3703 0054 34000000 		.4byte	.LFE119
 3704 0058 00000000 		.4byte	.LFB120
 3705 005c D8000000 		.4byte	.LFE120
 3706 0060 00000000 		.4byte	.LFB121
 3707 0064 54000000 		.4byte	.LFE121
 3708 0068 00000000 		.4byte	.LFB122
 3709 006c 10000000 		.4byte	.LFE122
 3710 0070 00000000 		.4byte	.LFB123
 3711 0074 10000000 		.4byte	.LFE123
 3712 0078 00000000 		.4byte	.LFB124
 3713 007c 24000000 		.4byte	.LFE124
 3714 0080 00000000 		.4byte	.LFB125
 3715 0084 20000000 		.4byte	.LFE125
 3716 0088 00000000 		.4byte	.LFB126
 3717 008c 6C000000 		.4byte	.LFE126
 3718 0090 00000000 		.4byte	.LFB127
 3719 0094 94000000 		.4byte	.LFE127
 3720 0098 00000000 		.4byte	.LFB128
 3721 009c 0C020000 		.4byte	.LFE128
 3722 00a0 00000000 		.4byte	.LFB129
 3723 00a4 A8000000 		.4byte	.LFE129
 3724 00a8 00000000 		.4byte	0x0
 3725 00ac 00000000 		.4byte	0x0
 3726              		.section	.debug_str,"MS",%progbits,1
 3727              	.LASF33:
 3728 0000 43434552 		.ascii	"CCER\000"
 3728      00
 3729              	.LASF19:
 3730 0005 77726974 		.ascii	"write\000"
 3730      6500
 3731              	.LASF67:
 3732 000b 72696768 		.ascii	"right\000"
 3732      7400
ARM GAS  C:\Users\DNIEL~1\AppData\Local\Temp\ccuPvHGk.s 			page 70


 3733              	.LASF35:
 3734 0011 444D4152 		.ascii	"DMAR\000"
 3734      00
 3735              	.LASF75:
 3736 0016 6C696768 		.ascii	"lightBrakeOff\000"
 3736      74427261 
 3736      6B654F66 
 3736      6600
 3737              	.LASF45:
 3738 0024 73746174 		.ascii	"state\000"
 3738      6500
 3739              	.LASF32:
 3740 002a 43434D52 		.ascii	"CCMR2\000"
 3740      3200
 3741              	.LASF36:
 3742 0030 43434D52 		.ascii	"CCMR3\000"
 3742      3300
 3743              	.LASF89:
 3744 0036 50574D44 		.ascii	"PWMD4\000"
 3744      3400
 3745              	.LASF31:
 3746 003c 43434D52 		.ascii	"CCMR1\000"
 3746      3100
 3747              	.LASF2:
 3748 0042 73697A65 		.ascii	"size_t\000"
 3748      5F7400
 3749              	.LASF51:
 3750 0049 70776D63 		.ascii	"pwmcnt_t\000"
 3750      6E745F74 
 3750      00
 3751              	.LASF21:
 3752 0052 42617365 		.ascii	"BaseSequentialStream\000"
 3752      53657175 
 3752      656E7469 
 3752      616C5374 
 3752      7265616D 
 3753              	.LASF52:
 3754 0067 6D6F6465 		.ascii	"mode\000"
 3754      00
 3755              	.LASF97:
 3756 006c 433A5C44 		.ascii	"C:\\Dani\\MegaLux\\Repo\\Smarty\\Smarty\\smarty\\fi"
 3756      616E695C 
 3756      4D656761 
 3756      4C75785C 
 3756      5265706F 
 3757 0098 726D7761 		.ascii	"rmware\000"
 3757      726500
 3758              	.LASF78:
 3759 009f 6C696768 		.ascii	"lightPosLampOn\000"
 3759      74506F73 
 3759      4C616D70 
 3759      4F6E00
 3760              	.LASF64:
 3761 00ae 76615F6C 		.ascii	"va_list\000"
 3761      69737400 
 3762              	.LASF26:
 3763 00b6 77726974 		.ascii	"writet\000"
ARM GAS  C:\Users\DNIEL~1\AppData\Local\Temp\ccuPvHGk.s 			page 71


 3763      657400
 3764              	.LASF5:
 3765 00bd 73686F72 		.ascii	"short int\000"
 3765      7420696E 
 3765      7400
 3766              	.LASF46:
 3767 00c7 636F6E66 		.ascii	"config\000"
 3767      696700
 3768              	.LASF71:
 3769 00ce 706F735F 		.ascii	"pos_lamp\000"
 3769      6C616D70 
 3769      00
 3770              	.LASF94:
 3771 00d7 6C656674 		.ascii	"left_active\000"
 3771      5F616374 
 3771      69766500 
 3772              	.LASF23:
 3773 00e3 42617365 		.ascii	"BaseChannelVMT\000"
 3773      4368616E 
 3773      6E656C56 
 3773      4D5400
 3774              	.LASF3:
 3775 00f2 75696E74 		.ascii	"uint8_t\000"
 3775      385F7400 
 3776              	.LASF58:
 3777 00fa 50574D43 		.ascii	"PWMConfig\000"
 3777      6F6E6669 
 3777      6700
 3778              	.LASF39:
 3779 0104 73746D33 		.ascii	"stm32_tim_t\000"
 3779      325F7469 
 3779      6D5F7400 
 3780              	.LASF81:
 3781 0110 61726763 		.ascii	"argc\000"
 3781      00
 3782              	.LASF73:
 3783 0115 6C696768 		.ascii	"lightCalc\000"
 3783      7443616C 
 3783      6300
 3784              	.LASF60:
 3785 011f 666C6F61 		.ascii	"float\000"
 3785      7400
 3786              	.LASF79:
 3787 0125 6C696768 		.ascii	"lightPosLampOff\000"
 3787      74506F73 
 3787      4C616D70 
 3787      4F666600 
 3788              	.LASF20:
 3789 0135 72656164 		.ascii	"read\000"
 3789      00
 3790              	.LASF12:
 3791 013a 6C6F6E67 		.ascii	"long long int\000"
 3791      206C6F6E 
 3791      6720696E 
 3791      7400
 3792              	.LASF63:
 3793 0148 5F5F7661 		.ascii	"__va_list\000"
ARM GAS  C:\Users\DNIEL~1\AppData\Local\Temp\ccuPvHGk.s 			page 72


 3793      5F6C6973 
 3793      7400
 3794              	.LASF18:
 3795 0152 63686172 		.ascii	"char\000"
 3795      00
 3796              	.LASF48:
 3797 0157 636C6F63 		.ascii	"clock\000"
 3797      6B00
 3798              	.LASF38:
 3799 015d 43435236 		.ascii	"CCR6\000"
 3799      00
 3800              	.LASF47:
 3801 0162 70657269 		.ascii	"period\000"
 3801      6F6400
 3802              	.LASF80:
 3803 0169 6368616E 		.ascii	"chanel\000"
 3803      656C00
 3804              	.LASF101:
 3805 0170 4552524F 		.ascii	"ERROR\000"
 3805      5200
 3806              	.LASF85:
 3807 0176 6C696768 		.ascii	"lightFlashing\000"
 3807      74466C61 
 3807      7368696E 
 3807      6700
 3808              	.LASF90:
 3809 0184 6C696768 		.ascii	"lightchanels\000"
 3809      74636861 
 3809      6E656C73 
 3809      00
 3810              	.LASF82:
 3811 0191 61726776 		.ascii	"argv\000"
 3811      00
 3812              	.LASF61:
 3813 0196 6C6F6E67 		.ascii	"long double\000"
 3813      20646F75 
 3813      626C6500 
 3814              	.LASF29:
 3815 01a2 534D4352 		.ascii	"SMCR\000"
 3815      00
 3816              	.LASF40:
 3817 01a7 50574D5F 		.ascii	"PWM_UNINIT\000"
 3817      554E494E 
 3817      495400
 3818              	.LASF4:
 3819 01b2 756E7369 		.ascii	"unsigned char\000"
 3819      676E6564 
 3819      20636861 
 3819      7200
 3820              	.LASF100:
 3821 01c0 6765744C 		.ascii	"getLightFlashing\000"
 3821      69676874 
 3821      466C6173 
 3821      68696E67 
 3821      00
 3822              	.LASF37:
 3823 01d1 43435235 		.ascii	"CCR5\000"
ARM GAS  C:\Users\DNIEL~1\AppData\Local\Temp\ccuPvHGk.s 			page 73


 3823      00
 3824              	.LASF69:
 3825 01d6 7761726E 		.ascii	"warning\000"
 3825      696E6700 
 3826              	.LASF1:
 3827 01de 7369676E 		.ascii	"signed char\000"
 3827      65642063 
 3827      68617200 
 3828              	.LASF13:
 3829 01ea 6C6F6E67 		.ascii	"long long unsigned int\000"
 3829      206C6F6E 
 3829      6720756E 
 3829      7369676E 
 3829      65642069 
 3830              	.LASF10:
 3831 0201 75696E74 		.ascii	"uint32_t\000"
 3831      33325F74 
 3831      00
 3832              	.LASF0:
 3833 020a 756E7369 		.ascii	"unsigned int\000"
 3833      676E6564 
 3833      20696E74 
 3833      00
 3834              	.LASF98:
 3835 0217 5F5F6170 		.ascii	"__ap\000"
 3835      00
 3836              	.LASF6:
 3837 021c 75696E74 		.ascii	"uint16_t\000"
 3837      31365F74 
 3837      00
 3838              	.LASF76:
 3839 0225 63616E5F 		.ascii	"can_lightBreakOn\000"
 3839      6C696768 
 3839      74427265 
 3839      616B4F6E 
 3839      00
 3840              	.LASF92:
 3841 0236 666C6173 		.ascii	"flashing\000"
 3841      68696E67 
 3841      00
 3842              	.LASF44:
 3843 023f 50574D44 		.ascii	"PWMDriver\000"
 3843      72697665 
 3843      7200
 3844              	.LASF65:
 3845 0249 6C696768 		.ascii	"lightChanels\000"
 3845      74436861 
 3845      6E656C73 
 3845      00
 3846              	.LASF24:
 3847 0256 70757474 		.ascii	"putt\000"
 3847      00
 3848              	.LASF30:
 3849 025b 44494552 		.ascii	"DIER\000"
 3849      00
 3850              	.LASF68:
 3851 0260 6C656674 		.ascii	"left\000"
ARM GAS  C:\Users\DNIEL~1\AppData\Local\Temp\ccuPvHGk.s 			page 74


 3851      00
 3852              	.LASF7:
 3853 0265 73686F72 		.ascii	"short unsigned int\000"
 3853      7420756E 
 3853      7369676E 
 3853      65642069 
 3853      6E7400
 3854              	.LASF72:
 3855 0278 6C696768 		.ascii	"lightInit\000"
 3855      74496E69 
 3855      7400
 3856              	.LASF17:
 3857 0282 73797374 		.ascii	"systime_t\000"
 3857      696D655F 
 3857      7400
 3858              	.LASF27:
 3859 028c 72656164 		.ascii	"readt\000"
 3859      7400
 3860              	.LASF9:
 3861 0292 6C6F6E67 		.ascii	"long int\000"
 3861      20696E74 
 3861      00
 3862              	.LASF34:
 3863 029b 42445452 		.ascii	"BDTR\000"
 3863      00
 3864              	.LASF8:
 3865 02a0 696E7433 		.ascii	"int32_t\000"
 3865      325F7400 
 3866              	.LASF14:
 3867 02a8 626F6F6C 		.ascii	"bool_t\000"
 3867      5F7400
 3868              	.LASF84:
 3869 02af 636D645F 		.ascii	"cmd_lightblink\000"
 3869      6C696768 
 3869      74626C69 
 3869      6E6B00
 3870              	.LASF25:
 3871 02be 67657474 		.ascii	"gett\000"
 3871      00
 3872              	.LASF15:
 3873 02c3 5F426F6F 		.ascii	"_Bool\000"
 3873      6C00
 3874              	.LASF99:
 3875 02c9 63687072 		.ascii	"chprintf\000"
 3875      696E7466 
 3875      00
 3876              	.LASF91:
 3877 02d2 70776D63 		.ascii	"pwmcfg\000"
 3877      666700
 3878              	.LASF55:
 3879 02d9 66726571 		.ascii	"frequency\000"
 3879      75656E63 
 3879      7900
 3880              	.LASF96:
 3881 02e3 7372632F 		.ascii	"src/light.c\000"
 3881      6C696768 
 3881      742E6300 
ARM GAS  C:\Users\DNIEL~1\AppData\Local\Temp\ccuPvHGk.s 			page 75


 3882              	.LASF56:
 3883 02ef 6368616E 		.ascii	"channels\000"
 3883      6E656C73 
 3883      00
 3884              	.LASF11:
 3885 02f8 6C6F6E67 		.ascii	"long unsigned int\000"
 3885      20756E73 
 3885      69676E65 
 3885      6420696E 
 3885      7400
 3886              	.LASF43:
 3887 030a 70776D73 		.ascii	"pwmstate_t\000"
 3887      74617465 
 3887      5F7400
 3888              	.LASF59:
 3889 0315 646F7562 		.ascii	"double\000"
 3889      6C6500
 3890              	.LASF70:
 3891 031c 6272616B 		.ascii	"braking\000"
 3891      696E6700 
 3892              	.LASF83:
 3893 0324 636D645F 		.ascii	"cmd_lightvalues\000"
 3893      6C696768 
 3893      7476616C 
 3893      75657300 
 3894              	.LASF87:
 3895 0334 636D645F 		.ascii	"cmd_getLight\000"
 3895      6765744C 
 3895      69676874 
 3895      00
 3896              	.LASF95:
 3897 0341 474E5520 		.ascii	"GNU C 4.5.2\000"
 3897      4320342E 
 3897      352E3200 
 3898              	.LASF74:
 3899 034d 6C696768 		.ascii	"lightBrakeOn\000"
 3899      74427261 
 3899      6B654F6E 
 3899      00
 3900              	.LASF42:
 3901 035a 50574D5F 		.ascii	"PWM_READY\000"
 3901      52454144 
 3901      5900
 3902              	.LASF86:
 3903 0364 73747263 		.ascii	"strcmp\000"
 3903      6D7000
 3904              	.LASF41:
 3905 036b 50574D5F 		.ascii	"PWM_STOP\000"
 3905      53544F50 
 3905      00
 3906              	.LASF57:
 3907 0374 64696572 		.ascii	"dier\000"
 3907      00
 3908              	.LASF66:
 3909 0379 6C696768 		.ascii	"lights_disabled\000"
 3909      74735F64 
 3909      69736162 
ARM GAS  C:\Users\DNIEL~1\AppData\Local\Temp\ccuPvHGk.s 			page 76


 3909      6C656400 
 3910              	.LASF62:
 3911 0389 5F5F676E 		.ascii	"__gnuc_va_list\000"
 3911      75635F76 
 3911      615F6C69 
 3911      737400
 3912              	.LASF54:
 3913 0398 50574D43 		.ascii	"PWMChannelConfig\000"
 3913      68616E6E 
 3913      656C436F 
 3913      6E666967 
 3913      00
 3914              	.LASF77:
 3915 03a9 63616E5F 		.ascii	"can_lightBreakOff\000"
 3915      6C696768 
 3915      74427265 
 3915      616B4F66 
 3915      6600
 3916              	.LASF28:
 3917 03bb 42617365 		.ascii	"BaseChannel\000"
 3917      4368616E 
 3917      6E656C00 
 3918              	.LASF50:
 3919 03c7 70776D6D 		.ascii	"pwmmode_t\000"
 3919      6F64655F 
 3919      7400
 3920              	.LASF93:
 3921 03d1 72696768 		.ascii	"right_active\000"
 3921      745F6163 
 3921      74697665 
 3921      00
 3922              	.LASF88:
 3923 03de 49544D5F 		.ascii	"ITM_RxBuffer\000"
 3923      52784275 
 3923      66666572 
 3923      00
 3924              	.LASF49:
 3925 03eb 70776D63 		.ascii	"pwmcallback_t\000"
 3925      616C6C62 
 3925      61636B5F 
 3925      7400
 3926              	.LASF16:
 3927 03f9 6D73675F 		.ascii	"msg_t\000"
 3927      7400
 3928              	.LASF53:
 3929 03ff 63616C6C 		.ascii	"callback\000"
 3929      6261636B 
 3929      00
 3930              	.LASF22:
 3931 0408 42617365 		.ascii	"BaseSequentialStreamVMT\000"
 3931      53657175 
 3931      656E7469 
 3931      616C5374 
 3931      7265616D 
 3932              		.ident	"GCC: (Sourcery G++ Lite 2011.03-42) 4.5.2"
ARM GAS  C:\Users\DNIEL~1\AppData\Local\Temp\ccuPvHGk.s 			page 77


DEFINED SYMBOLS
                            *ABS*:00000000 light.c
C:\Users\DNIEL~1\AppData\Local\Temp\ccuPvHGk.s:24     .text.chprintf:00000000 $t
C:\Users\DNIEL~1\AppData\Local\Temp\ccuPvHGk.s:29     .text.chprintf:00000000 chprintf
C:\Users\DNIEL~1\AppData\Local\Temp\ccuPvHGk.s:69     .text.lightInit:00000000 $t
C:\Users\DNIEL~1\AppData\Local\Temp\ccuPvHGk.s:75     .text.lightInit:00000000 lightInit
C:\Users\DNIEL~1\AppData\Local\Temp\ccuPvHGk.s:106    .text.lightInit:0000001c $d
C:\Users\DNIEL~1\AppData\Local\Temp\ccuPvHGk.s:116    .text.lightCalc:00000000 $t
C:\Users\DNIEL~1\AppData\Local\Temp\ccuPvHGk.s:122    .text.lightCalc:00000000 lightCalc
C:\Users\DNIEL~1\AppData\Local\Temp\ccuPvHGk.s:278    .text.lightCalc:000000c0 $d
C:\Users\DNIEL~1\AppData\Local\Temp\ccuPvHGk.s:288    .text.lightFlashing:00000000 $t
C:\Users\DNIEL~1\AppData\Local\Temp\ccuPvHGk.s:294    .text.lightFlashing:00000000 lightFlashing
C:\Users\DNIEL~1\AppData\Local\Temp\ccuPvHGk.s:356    .text.lightFlashing:00000048 $d
C:\Users\DNIEL~1\AppData\Local\Temp\ccuPvHGk.s:363    .text.lightBrakeOn:00000000 $t
C:\Users\DNIEL~1\AppData\Local\Temp\ccuPvHGk.s:369    .text.lightBrakeOn:00000000 lightBrakeOn
C:\Users\DNIEL~1\AppData\Local\Temp\ccuPvHGk.s:386    .text.lightBrakeOn:0000000c $d
C:\Users\DNIEL~1\AppData\Local\Temp\ccuPvHGk.s:391    .text.lightBrakeOff:00000000 $t
C:\Users\DNIEL~1\AppData\Local\Temp\ccuPvHGk.s:397    .text.lightBrakeOff:00000000 lightBrakeOff
C:\Users\DNIEL~1\AppData\Local\Temp\ccuPvHGk.s:414    .text.lightBrakeOff:0000000c $d
C:\Users\DNIEL~1\AppData\Local\Temp\ccuPvHGk.s:419    .text.lightPosLampOn:00000000 $t
C:\Users\DNIEL~1\AppData\Local\Temp\ccuPvHGk.s:425    .text.lightPosLampOn:00000000 lightPosLampOn
C:\Users\DNIEL~1\AppData\Local\Temp\ccuPvHGk.s:455    .text.lightPosLampOn:0000001c $d
C:\Users\DNIEL~1\AppData\Local\Temp\ccuPvHGk.s:461    .text.lightPosLampOff:00000000 $t
C:\Users\DNIEL~1\AppData\Local\Temp\ccuPvHGk.s:467    .text.lightPosLampOff:00000000 lightPosLampOff
C:\Users\DNIEL~1\AppData\Local\Temp\ccuPvHGk.s:496    .text.lightPosLampOff:00000018 $d
C:\Users\DNIEL~1\AppData\Local\Temp\ccuPvHGk.s:502    .text.getLightFlashing:00000000 $t
C:\Users\DNIEL~1\AppData\Local\Temp\ccuPvHGk.s:508    .text.getLightFlashing:00000000 getLightFlashing
C:\Users\DNIEL~1\AppData\Local\Temp\ccuPvHGk.s:603    .text.getLightFlashing:00000060 $d
C:\Users\DNIEL~1\AppData\Local\Temp\ccuPvHGk.s:610    .text.cmd_lightvalues:00000000 $t
C:\Users\DNIEL~1\AppData\Local\Temp\ccuPvHGk.s:616    .text.cmd_lightvalues:00000000 cmd_lightvalues
C:\Users\DNIEL~1\AppData\Local\Temp\ccuPvHGk.s:695    .text.cmd_lightvalues:00000070 $d
C:\Users\DNIEL~1\AppData\Local\Temp\ccuPvHGk.s:708    .text.cmd_lightblink:00000000 $t
C:\Users\DNIEL~1\AppData\Local\Temp\ccuPvHGk.s:714    .text.cmd_lightblink:00000000 cmd_lightblink
C:\Users\DNIEL~1\AppData\Local\Temp\ccuPvHGk.s:1016   .text.cmd_lightblink:00000194 $d
C:\Users\DNIEL~1\AppData\Local\Temp\ccuPvHGk.s:1051   .text.cmd_getLight:00000000 $t
C:\Users\DNIEL~1\AppData\Local\Temp\ccuPvHGk.s:1057   .text.cmd_getLight:00000000 cmd_getLight
C:\Users\DNIEL~1\AppData\Local\Temp\ccuPvHGk.s:1142   .text.cmd_getLight:00000088 $d
C:\Users\DNIEL~1\AppData\Local\Temp\ccuPvHGk.s:1154   .data.pwmcfg:00000000 $d
C:\Users\DNIEL~1\AppData\Local\Temp\ccuPvHGk.s:1158   .data.pwmcfg:00000000 pwmcfg
C:\Users\DNIEL~1\AppData\Local\Temp\ccuPvHGk.s:1174   .bss.period:00000000 $d
C:\Users\DNIEL~1\AppData\Local\Temp\ccuPvHGk.s:1178   .bss.period:00000000 period
C:\Users\DNIEL~1\AppData\Local\Temp\ccuPvHGk.s:1184   .bss.flashing:00000000 flashing
C:\Users\DNIEL~1\AppData\Local\Temp\ccuPvHGk.s:1185   .bss.flashing:00000000 $d
C:\Users\DNIEL~1\AppData\Local\Temp\ccuPvHGk.s:1187   .rodata.str1.4:00000000 $d
C:\Users\DNIEL~1\AppData\Local\Temp\ccuPvHGk.s:1287   .bss.left_active:00000000 left_active
C:\Users\DNIEL~1\AppData\Local\Temp\ccuPvHGk.s:1288   .bss.left_active:00000000 $d
C:\Users\DNIEL~1\AppData\Local\Temp\ccuPvHGk.s:1290   .bss.lightchanels:00000000 $d
C:\Users\DNIEL~1\AppData\Local\Temp\ccuPvHGk.s:1294   .bss.lightchanels:00000000 lightchanels
C:\Users\DNIEL~1\AppData\Local\Temp\ccuPvHGk.s:1300   .bss.right_active:00000000 right_active
C:\Users\DNIEL~1\AppData\Local\Temp\ccuPvHGk.s:1301   .bss.right_active:00000000 $d
                     .debug_frame:00000010 $d
C:\Users\DNIEL~1\AppData\Local\Temp\ccuPvHGk.s:115    .text.lightInit:00000034 $t
C:\Users\DNIEL~1\AppData\Local\Temp\ccuPvHGk.s:287    .text.lightCalc:000000d8 $t
C:\Users\DNIEL~1\AppData\Local\Temp\ccuPvHGk.s:362    .text.lightFlashing:00000054 $t
C:\Users\DNIEL~1\AppData\Local\Temp\ccuPvHGk.s:460    .text.lightPosLampOn:00000024 $t
C:\Users\DNIEL~1\AppData\Local\Temp\ccuPvHGk.s:3932   .text.getLightFlashing:0000006c $t
C:\Users\DNIEL~1\AppData\Local\Temp\ccuPvHGk.s:707    .text.cmd_lightvalues:00000094 $t
ARM GAS  C:\Users\DNIEL~1\AppData\Local\Temp\ccuPvHGk.s 			page 78


C:\Users\DNIEL~1\AppData\Local\Temp\ccuPvHGk.s:1050   .text.cmd_lightblink:0000020c $t
C:\Users\DNIEL~1\AppData\Local\Temp\ccuPvHGk.s:1153   .text.cmd_getLight:000000a8 $t

UNDEFINED SYMBOLS
chvprintf
pwmStart
PWMD4
pwmDisableChannel
can_lightWarning
pwmEnableChannel
can_lightLeft
can_lightRight
can_lightBreakOn
can_lightBreakOff
can_lightPosLampOn
can_lightPosLampOff
chThdSleep
strcmp
