ARM GAS  C:\Users\DNIEL~1\AppData\Local\Temp\cccboLOw.s 			page 1


   1              		.syntax unified
   2              		.cpu cortex-m4
   3              		.fpu softvfp
   4              		.eabi_attribute 20, 1
   5              		.eabi_attribute 21, 1
   6              		.eabi_attribute 23, 3
   7              		.eabi_attribute 24, 1
   8              		.eabi_attribute 25, 1
   9              		.eabi_attribute 26, 1
  10              		.eabi_attribute 30, 2
  11              		.eabi_attribute 18, 4
  12              		.thumb
  13              		.file	"main.c"
  14              		.section	.debug_abbrev,"",%progbits
  15              	.Ldebug_abbrev0:
  16              		.section	.debug_info,"",%progbits
  17              	.Ldebug_info0:
  18              		.section	.debug_line,"",%progbits
  19              	.Ldebug_line0:
  20 0000 79020000 		.text
  20      0200E301 
  20      00000201 
  20      FB0E0D00 
  20      01010101 
  21              	.Ltext0:
  22              		.cfi_sections	.debug_frame
  23              		.section	.text.Thread1,"ax",%progbits
  24              		.align	2
  25              		.p2align 4,,15
  26              		.thumb
  27              		.thumb_func
  28              		.type	Thread1, %function
  29              	Thread1:
  30              	.LFB119:
  31              		.file 1 "src/main.c"
  32              		.loc 1 36 0
  33              		.cfi_startproc
  34              		@ args = 0, pretend = 0, frame = 0
  35              		@ frame_needed = 0, uses_anonymous_args = 0
  36              	.LVL0:
  37              		.loc 1 39 0
  38 0000 0C48     		ldr	r0, .L7
  39              	.LVL1:
  40 0002 0D4A     		ldr	r2, .L7+4
  41              		.loc 1 36 0
  42 0004 38B5     		push	{r3, r4, r5, lr}
  43              	.LCFI0:
  44              		.cfi_def_cfa_offset 16
  45              		.loc 1 39 0
  46 0006 8369     		ldr	r3, [r0, #24]
  47              		.cfi_offset 14, -4
  48              		.cfi_offset 5, -8
  49              		.cfi_offset 4, -12
  50              		.cfi_offset 3, -16
  51              	.LBB2:
  52              		.loc 1 43 0
  53 0008 0C4D     		ldr	r5, .L7+8
ARM GAS  C:\Users\DNIEL~1\AppData\Local\Temp\cccboLOw.s 			page 2


  54              	.LBE2:
  55              		.loc 1 39 0
  56 000a 9A61     		str	r2, [r3, #24]
  57 000c 07E0     		b	.L3
  58              	.L4:
  59              	.LBB3:
  60              		.loc 1 43 0
  61 000e 4FF47A74 		mov	r4, #1000
  62              	.L2:
  63              		.loc 1 56 0
  64 0012 2046     		mov	r0, r4
  65 0014 FFF7FEFF 		bl	chThdSleep
  66              		.loc 1 58 0
  67 0018 2046     		mov	r0, r4
  68 001a FFF7FEFF 		bl	chThdSleep
  69              	.L3:
  70              		.loc 1 43 0
  71 001e 2969     		ldr	r1, [r5, #16]
  72 0020 11F0080F 		tst	r1, #8
  73 0024 F3D1     		bne	.L4
  74              		.loc 1 44 0
  75 0026 FFF7FEFF 		bl	sdcardIsMounted
  76 002a 0028     		cmp	r0, #0
  77 002c 0CBF     		ite	eq
  78 002e 3224     		moveq	r4, #50
  79 0030 FA24     		movne	r4, #250
  80 0032 EEE7     		b	.L2
  81              	.L8:
  82              		.align	2
  83              	.L7:
  84 0034 00000000 		.word	rlist
  85 0038 00000000 		.word	.LC0
  86 003c 000C0240 		.word	1073875968
  87              	.LBE3:
  88              		.cfi_endproc
  89              	.LFE119:
  90              		.size	Thread1, .-Thread1
  91              		.section	.text.task20ms,"ax",%progbits
  92              		.align	2
  93              		.p2align 4,,15
  94              		.thumb
  95              		.thumb_func
  96              		.type	task20ms, %function
  97              	task20ms:
  98              	.LFB120:
  99              		.loc 1 67 0
 100              		.cfi_startproc
 101              		@ args = 0, pretend = 0, frame = 0
 102              		@ frame_needed = 0, uses_anonymous_args = 0
 103              	.LVL2:
 104              		.loc 1 71 0
 105 0000 0C49     		ldr	r1, .L11
 106              		.loc 1 72 0
 107 0002 0D48     		ldr	r0, .L11+4
 108              	.LVL3:
 109              		.loc 1 71 0
 110 0004 8B69     		ldr	r3, [r1, #24]
ARM GAS  C:\Users\DNIEL~1\AppData\Local\Temp\cccboLOw.s 			page 3


 111 0006 0D4A     		ldr	r2, .L11+8
 112              		.loc 1 67 0
 113 0008 10B5     		push	{r4, lr}
 114              	.LCFI1:
 115              		.cfi_def_cfa_offset 8
 116              		.loc 1 72 0
 117 000a C468     		ldr	r4, [r0, #12]
 118              		.cfi_offset 14, -4
 119              		.cfi_offset 4, -8
 120              		.loc 1 71 0
 121 000c 9A61     		str	r2, [r3, #24]
 122              	.LVL4:
 123              	.L10:
 124              		.loc 1 74 0 discriminator 1
 125 000e 1434     		adds	r4, r4, #20
 126              	.LVL5:
 127              		.loc 1 77 0 discriminator 1
 128 0010 FFF7FEFF 		bl	logCalc
 129              		.loc 1 78 0 discriminator 1
 130 0014 FFF7FEFF 		bl	lightCalc
 131              		.loc 1 80 0 discriminator 1
 132 0018 FFF7FEFF 		bl	measCalc
 133              		.loc 1 81 0 discriminator 1
 134 001c FFF7FEFF 		bl	cruiseCalc
 135              		.loc 1 82 0 discriminator 1
 136 0020 FFF7FEFF 		bl	buttonCalc
 137              		.loc 1 84 0 discriminator 1
 138 0024 2046     		mov	r0, r4
 139 0026 FFF7FEFF 		bl	mainTime
 140              		.loc 1 87 0 discriminator 1
 141 002a 2046     		mov	r0, r4
 142 002c FFF7FEFF 		bl	chThdSleepUntil
 143 0030 EDE7     		b	.L10
 144              	.L12:
 145 0032 00BF     		.align	2
 146              	.L11:
 147 0034 00000000 		.word	rlist
 148 0038 00000000 		.word	vtlist
 149 003c 08000000 		.word	.LC1
 150              		.cfi_endproc
 151              	.LFE120:
 152              		.size	task20ms, .-task20ms
 153              		.section	.text.main,"ax",%progbits
 154              		.align	2
 155              		.p2align 4,,15
 156              		.global	main
 157              		.thumb
 158              		.thumb_func
 159              		.type	main, %function
 160              	main:
 161              	.LFB121:
 162              		.loc 1 94 0
 163              		.cfi_startproc
 164              		@ args = 0, pretend = 0, frame = 0
 165              		@ frame_needed = 0, uses_anonymous_args = 0
 166 0000 10B5     		push	{r4, lr}
 167              	.LCFI2:
ARM GAS  C:\Users\DNIEL~1\AppData\Local\Temp\cccboLOw.s 			page 4


 168              		.cfi_def_cfa_offset 8
 169 0002 82B0     		sub	sp, sp, #8
 170              	.LCFI3:
 171              		.cfi_def_cfa_offset 16
 172              		.loc 1 103 0
 173              		.cfi_offset 14, -4
 174              		.cfi_offset 4, -8
 175 0004 FFF7FEFF 		bl	halInit
 176              		.loc 1 104 0
 177 0008 FFF7FEFF 		bl	chSysInit
 178              		.loc 1 109 0
 179 000c 1B4B     		ldr	r3, .L15
 180 000e 48F20002 		movw	r2, 32768	@ movhi
 181 0012 1A83     		strh	r2, [r3, #24]	@ movhi
 182              		.loc 1 114 0
 183 0014 FFF7FEFF 		bl	sdcardInit
 184              		.loc 1 119 0
 185 0018 FFF7FEFF 		bl	logInit
 186              		.loc 1 124 0
 187 001c FFF7FEFF 		bl	consoleInit
 188              		.loc 1 129 0
 189 0020 FFF7FEFF 		bl	eepromInit
 190              		.loc 1 134 0
 191 0024 FFF7FEFF 		bl	can_commInit
 192              		.loc 1 138 0
 193 0028 FFF7FEFF 		bl	uart_commInit
 194              		.loc 1 143 0
 195 002c FFF7FEFF 		bl	lightInit
 196              		.loc 1 148 0
 197 0030 FFF7FEFF 		bl	speedInit
 198              		.loc 1 153 0
 199 0034 FFF7FEFF 		bl	measInit
 200              		.loc 1 158 0
 201 0038 FFF7FEFF 		bl	cruiseInit
 202              		.loc 1 163 0
 203 003c 4FF47A70 		mov	r0, #1000
 204 0040 FFF7FEFF 		bl	chThdSleep
 205              		.loc 1 179 0
 206 0044 0024     		movs	r4, #0
 207              		.loc 1 164 0
 208 0046 FFF7FEFF 		bl	dspInit
 209              		.loc 1 169 0
 210 004a FFF7FEFF 		bl	buttonInit
 211              		.loc 1 179 0
 212 004e 4FF43471 		mov	r1, #720
 213 0052 4022     		movs	r2, #64
 214 0054 0A4B     		ldr	r3, .L15+4
 215 0056 0B48     		ldr	r0, .L15+8
 216 0058 0094     		str	r4, [sp, #0]
 217 005a FFF7FEFF 		bl	chThdCreateStatic
 218              		.loc 1 184 0
 219 005e 0A48     		ldr	r0, .L15+12
 220 0060 0A4B     		ldr	r3, .L15+16
 221 0062 0094     		str	r4, [sp, #0]
 222 0064 4FF4A871 		mov	r1, #336
 223 0068 4022     		movs	r2, #64
 224 006a FFF7FEFF 		bl	chThdCreateStatic
ARM GAS  C:\Users\DNIEL~1\AppData\Local\Temp\cccboLOw.s 			page 5


 225              	.L14:
 226              		.loc 1 191 0 discriminator 1
 227 006e FFF7FEFF 		bl	consoleStart
 228              		.loc 1 192 0 discriminator 1
 229 0072 4FF47A70 		mov	r0, #1000
 230 0076 FFF7FEFF 		bl	chThdSleep
 231 007a F8E7     		b	.L14
 232              	.L16:
 233              		.align	2
 234              	.L15:
 235 007c 00100240 		.word	1073876992
 236 0080 00000000 		.word	task20ms
 237 0084 00000000 		.word	.LANCHOR0
 238 0088 00000000 		.word	.LANCHOR1
 239 008c 00000000 		.word	Thread1
 240              		.cfi_endproc
 241              	.LFE121:
 242              		.size	main, .-main
 243              		.section	.bss.waThread1,"aw",%nobits
 244              		.align	3
 245              		.set	.LANCHOR1,. + 0
 246              		.type	waThread1, %object
 247              		.size	waThread1, 336
 248              	waThread1:
 249 0000 00000000 		.space	336
 249      00000000 
 249      00000000 
 249      00000000 
 249      00000000 
 250              		.section	.bss.watask20ms,"aw",%nobits
 251              		.align	3
 252              		.set	.LANCHOR0,. + 0
 253              		.type	watask20ms, %object
 254              		.size	watask20ms, 720
 255              	watask20ms:
 256 0000 00000000 		.space	720
 256      00000000 
 256      00000000 
 256      00000000 
 256      00000000 
 257              		.section	.rodata.str1.4,"aMS",%progbits,1
 258              		.align	2
 259              	.LC0:
 260 0000 626C696E 		.ascii	"blinker\000"
 260      6B657200 
 261              	.LC1:
 262 0008 7461736B 		.ascii	"task20ms\000"
 262      32306D73 
 262      00
 263 0011 000000   		.text
 264              	.Letext0:
 265              		.section	.debug_loc,"",%progbits
 266              	.Ldebug_loc0:
 267              	.LLST0:
 268 0000 00000000 		.4byte	.LFB119
 269 0004 06000000 		.4byte	.LCFI0
 270 0008 0200     		.2byte	0x2
ARM GAS  C:\Users\DNIEL~1\AppData\Local\Temp\cccboLOw.s 			page 6


 271 000a 7D       		.byte	0x7d
 272 000b 00       		.sleb128 0
 273 000c 06000000 		.4byte	.LCFI0
 274 0010 40000000 		.4byte	.LFE119
 275 0014 0200     		.2byte	0x2
 276 0016 7D       		.byte	0x7d
 277 0017 10       		.sleb128 16
 278 0018 00000000 		.4byte	0x0
 279 001c 00000000 		.4byte	0x0
 280              	.LLST1:
 281 0020 00000000 		.4byte	.LVL0
 282 0024 02000000 		.4byte	.LVL1
 283 0028 0100     		.2byte	0x1
 284 002a 50       		.byte	0x50
 285 002b 00000000 		.4byte	0x0
 286 002f 00000000 		.4byte	0x0
 287              	.LLST2:
 288 0033 00000000 		.4byte	.LFB120
 289 0037 0A000000 		.4byte	.LCFI1
 290 003b 0200     		.2byte	0x2
 291 003d 7D       		.byte	0x7d
 292 003e 00       		.sleb128 0
 293 003f 0A000000 		.4byte	.LCFI1
 294 0043 40000000 		.4byte	.LFE120
 295 0047 0200     		.2byte	0x2
 296 0049 7D       		.byte	0x7d
 297 004a 08       		.sleb128 8
 298 004b 00000000 		.4byte	0x0
 299 004f 00000000 		.4byte	0x0
 300              	.LLST3:
 301 0053 00000000 		.4byte	.LVL2
 302 0057 04000000 		.4byte	.LVL3
 303 005b 0100     		.2byte	0x1
 304 005d 50       		.byte	0x50
 305 005e 00000000 		.4byte	0x0
 306 0062 00000000 		.4byte	0x0
 307              	.LLST4:
 308 0066 0E000000 		.4byte	.LVL4
 309 006a 10000000 		.4byte	.LVL5
 310 006e 0100     		.2byte	0x1
 311 0070 54       		.byte	0x54
 312 0071 10000000 		.4byte	.LVL5
 313 0075 40000000 		.4byte	.LFE120
 314 0079 0100     		.2byte	0x1
 315 007b 54       		.byte	0x54
 316 007c 00000000 		.4byte	0x0
 317 0080 00000000 		.4byte	0x0
 318              	.LLST5:
 319 0084 00000000 		.4byte	.LFB121
 320 0088 02000000 		.4byte	.LCFI2
 321 008c 0200     		.2byte	0x2
 322 008e 7D       		.byte	0x7d
 323 008f 00       		.sleb128 0
 324 0090 02000000 		.4byte	.LCFI2
 325 0094 04000000 		.4byte	.LCFI3
 326 0098 0200     		.2byte	0x2
 327 009a 7D       		.byte	0x7d
ARM GAS  C:\Users\DNIEL~1\AppData\Local\Temp\cccboLOw.s 			page 7


 328 009b 08       		.sleb128 8
 329 009c 04000000 		.4byte	.LCFI3
 330 00a0 90000000 		.4byte	.LFE121
 331 00a4 0200     		.2byte	0x2
 332 00a6 7D       		.byte	0x7d
 333 00a7 10       		.sleb128 16
 334 00a8 00000000 		.4byte	0x0
 335 00ac 00000000 		.4byte	0x0
 336              		.file 2 "c:\\program files (x86)\\codesourcery\\sourcery g++ lite\\bin\\../lib/gcc/arm-none-eabi/4
 337              		.file 3 "../../../ChibiOS/os/ports/GCC/ARMCMx/chtypes.h"
 338              		.file 4 "../../../ChibiOS/os/kernel/include/chlists.h"
 339              		.file 5 "../../../ChibiOS/os/kernel/include/chthreads.h"
 340              		.file 6 "../../../ChibiOS/os/ports/GCC/ARMCMx/chcore_v7m.h"
 341              		.file 7 "../../../ChibiOS/os/kernel/include/chvt.h"
 342              		.file 8 "../../../ChibiOS/os/kernel/include/chschd.h"
 343              		.file 9 "../../../ChibiOS/os/kernel/include/chmtx.h"
 344              		.file 10 "../../../ChibiOS/os/hal/platforms/STM32/GPIOv2/pal_lld.h"
 345              		.file 11 "include/eepromItems.h"
 346              		.file 12 "../../../ChibiOS/os/ports/common/ARMCMx/CMSIS/include/core_cm4.h"
 347              		.section	.debug_info
 348 0000 EA070000 		.4byte	0x7ea
 349 0004 0200     		.2byte	0x2
 350 0006 00000000 		.4byte	.Ldebug_abbrev0
 351 000a 04       		.byte	0x4
 352 000b 01       		.uleb128 0x1
 353 000c 01040000 		.4byte	.LASF108
 354 0010 01       		.byte	0x1
 355 0011 00000000 		.4byte	.LASF109
 356 0015 94020000 		.4byte	.LASF110
 357 0019 00000000 		.4byte	0x0
 358 001d 00000000 		.4byte	0x0
 359 0021 18000000 		.4byte	.Ldebug_ranges0+0x18
 360 0025 00000000 		.4byte	.Ldebug_line0
 361 0029 02       		.uleb128 0x2
 362 002a 04       		.byte	0x4
 363 002b 07       		.byte	0x7
 364 002c 22010000 		.4byte	.LASF0
 365 0030 03       		.uleb128 0x3
 366 0031 04       		.byte	0x4
 367 0032 02       		.uleb128 0x2
 368 0033 01       		.byte	0x1
 369 0034 06       		.byte	0x6
 370 0035 7A000000 		.4byte	.LASF1
 371 0039 02       		.uleb128 0x2
 372 003a 01       		.byte	0x1
 373 003b 08       		.byte	0x8
 374 003c 86020000 		.4byte	.LASF2
 375 0040 02       		.uleb128 0x2
 376 0041 02       		.byte	0x2
 377 0042 05       		.byte	0x5
 378 0043 DE020000 		.4byte	.LASF3
 379 0047 02       		.uleb128 0x2
 380 0048 02       		.byte	0x2
 381 0049 07       		.byte	0x7
 382 004a 89010000 		.4byte	.LASF4
 383 004e 04       		.uleb128 0x4
 384 004f 04       		.byte	0x4
ARM GAS  C:\Users\DNIEL~1\AppData\Local\Temp\cccboLOw.s 			page 8


 385 0050 05       		.byte	0x5
 386 0051 696E7400 		.ascii	"int\000"
 387 0055 02       		.uleb128 0x2
 388 0056 08       		.byte	0x8
 389 0057 05       		.byte	0x5
 390 0058 6C000000 		.4byte	.LASF5
 391 005c 02       		.uleb128 0x2
 392 005d 08       		.byte	0x8
 393 005e 07       		.byte	0x7
 394 005f A5000000 		.4byte	.LASF6
 395 0063 02       		.uleb128 0x2
 396 0064 04       		.byte	0x4
 397 0065 05       		.byte	0x5
 398 0066 D7000000 		.4byte	.LASF7
 399 006a 02       		.uleb128 0x2
 400 006b 04       		.byte	0x4
 401 006c 07       		.byte	0x7
 402 006d 8B000000 		.4byte	.LASF8
 403 0071 02       		.uleb128 0x2
 404 0072 01       		.byte	0x1
 405 0073 08       		.byte	0x8
 406 0074 59030000 		.4byte	.LASF9
 407 0078 05       		.uleb128 0x5
 408 0079 04       		.byte	0x4
 409 007a 7E000000 		.4byte	0x7e
 410 007e 06       		.uleb128 0x6
 411 007f 71000000 		.4byte	0x71
 412 0083 07       		.uleb128 0x7
 413 0084 F2030000 		.4byte	.LASF10
 414 0088 02       		.byte	0x2
 415 0089 2A       		.byte	0x2a
 416 008a 39000000 		.4byte	0x39
 417 008e 07       		.uleb128 0x7
 418 008f E9000000 		.4byte	.LASF11
 419 0093 02       		.byte	0x2
 420 0094 36       		.byte	0x36
 421 0095 47000000 		.4byte	0x47
 422 0099 07       		.uleb128 0x7
 423 009a 7E020000 		.4byte	.LASF12
 424 009e 02       		.byte	0x2
 425 009f 4F       		.byte	0x4f
 426 00a0 63000000 		.4byte	0x63
 427 00a4 07       		.uleb128 0x7
 428 00a5 31030000 		.4byte	.LASF13
 429 00a9 02       		.byte	0x2
 430 00aa 50       		.byte	0x50
 431 00ab 6A000000 		.4byte	0x6a
 432 00af 07       		.uleb128 0x7
 433 00b0 12000000 		.4byte	.LASF14
 434 00b4 02       		.byte	0x2
 435 00b5 78       		.byte	0x78
 436 00b6 5C000000 		.4byte	0x5c
 437 00ba 02       		.uleb128 0x2
 438 00bb 01       		.byte	0x1
 439 00bc 02       		.byte	0x2
 440 00bd 78020000 		.4byte	.LASF15
 441 00c1 07       		.uleb128 0x7
ARM GAS  C:\Users\DNIEL~1\AppData\Local\Temp\cccboLOw.s 			page 9


 442 00c2 A2010000 		.4byte	.LASF16
 443 00c6 03       		.byte	0x3
 444 00c7 2C       		.byte	0x2c
 445 00c8 83000000 		.4byte	0x83
 446 00cc 07       		.uleb128 0x7
 447 00cd E0000000 		.4byte	.LASF17
 448 00d1 03       		.byte	0x3
 449 00d2 2D       		.byte	0x2d
 450 00d3 83000000 		.4byte	0x83
 451 00d7 07       		.uleb128 0x7
 452 00d8 41020000 		.4byte	.LASF18
 453 00dc 03       		.byte	0x3
 454 00dd 2E       		.byte	0x2e
 455 00de 83000000 		.4byte	0x83
 456 00e2 07       		.uleb128 0x7
 457 00e3 C4000000 		.4byte	.LASF19
 458 00e7 03       		.byte	0x3
 459 00e8 2F       		.byte	0x2f
 460 00e9 83000000 		.4byte	0x83
 461 00ed 07       		.uleb128 0x7
 462 00ee 60020000 		.4byte	.LASF20
 463 00f2 03       		.byte	0x3
 464 00f3 30       		.byte	0x30
 465 00f4 A4000000 		.4byte	0xa4
 466 00f8 07       		.uleb128 0x7
 467 00f9 9C010000 		.4byte	.LASF21
 468 00fd 03       		.byte	0x3
 469 00fe 31       		.byte	0x31
 470 00ff 99000000 		.4byte	0x99
 471 0103 07       		.uleb128 0x7
 472 0104 B6010000 		.4byte	.LASF22
 473 0108 03       		.byte	0x3
 474 0109 33       		.byte	0x33
 475 010a A4000000 		.4byte	0xa4
 476 010e 07       		.uleb128 0x7
 477 010f 75030000 		.4byte	.LASF23
 478 0113 03       		.byte	0x3
 479 0114 35       		.byte	0x35
 480 0115 A4000000 		.4byte	0xa4
 481 0119 07       		.uleb128 0x7
 482 011a 1F030000 		.4byte	.LASF24
 483 011e 04       		.byte	0x4
 484 011f 2A       		.byte	0x2a
 485 0120 24010000 		.4byte	0x124
 486 0124 08       		.uleb128 0x8
 487 0125 1F030000 		.4byte	.LASF24
 488 0129 48       		.byte	0x48
 489 012a 05       		.byte	0x5
 490 012b 5E       		.byte	0x5e
 491 012c 49020000 		.4byte	0x249
 492 0130 09       		.uleb128 0x9
 493 0131 10030000 		.4byte	.LASF25
 494 0135 05       		.byte	0x5
 495 0136 5F       		.byte	0x5f
 496 0137 6E020000 		.4byte	0x26e
 497 013b 02       		.byte	0x2
 498 013c 23       		.byte	0x23
ARM GAS  C:\Users\DNIEL~1\AppData\Local\Temp\cccboLOw.s 			page 10


 499 013d 00       		.uleb128 0x0
 500 013e 09       		.uleb128 0x9
 501 013f 49020000 		.4byte	.LASF26
 502 0143 05       		.byte	0x5
 503 0144 61       		.byte	0x61
 504 0145 6E020000 		.4byte	0x26e
 505 0149 02       		.byte	0x2
 506 014a 23       		.byte	0x23
 507 014b 04       		.uleb128 0x4
 508 014c 09       		.uleb128 0x9
 509 014d 65000000 		.4byte	.LASF27
 510 0151 05       		.byte	0x5
 511 0152 63       		.byte	0x63
 512 0153 ED000000 		.4byte	0xed
 513 0157 02       		.byte	0x2
 514 0158 23       		.byte	0x23
 515 0159 08       		.uleb128 0x8
 516 015a 09       		.uleb128 0x9
 517 015b 2E040000 		.4byte	.LASF28
 518 015f 05       		.byte	0x5
 519 0160 64       		.byte	0x64
 520 0161 45030000 		.4byte	0x345
 521 0165 02       		.byte	0x2
 522 0166 23       		.byte	0x23
 523 0167 0C       		.uleb128 0xc
 524 0168 09       		.uleb128 0x9
 525 0169 F9000000 		.4byte	.LASF29
 526 016d 05       		.byte	0x5
 527 016e 66       		.byte	0x66
 528 016f 6E020000 		.4byte	0x26e
 529 0173 02       		.byte	0x2
 530 0174 23       		.byte	0x23
 531 0175 10       		.uleb128 0x10
 532 0176 09       		.uleb128 0x9
 533 0177 FA020000 		.4byte	.LASF30
 534 017b 05       		.byte	0x5
 535 017c 67       		.byte	0x67
 536 017d 6E020000 		.4byte	0x26e
 537 0181 02       		.byte	0x2
 538 0182 23       		.byte	0x23
 539 0183 14       		.uleb128 0x14
 540 0184 09       		.uleb128 0x9
 541 0185 0D040000 		.4byte	.LASF31
 542 0189 05       		.byte	0x5
 543 018a 6E       		.byte	0x6e
 544 018b 78000000 		.4byte	0x78
 545 018f 02       		.byte	0x2
 546 0190 23       		.byte	0x23
 547 0191 18       		.uleb128 0x18
 548 0192 09       		.uleb128 0x9
 549 0193 E8020000 		.4byte	.LASF32
 550 0197 05       		.byte	0x5
 551 0198 79       		.byte	0x79
 552 0199 CC000000 		.4byte	0xcc
 553 019d 02       		.byte	0x2
 554 019e 23       		.byte	0x23
 555 019f 1C       		.uleb128 0x1c
ARM GAS  C:\Users\DNIEL~1\AppData\Local\Temp\cccboLOw.s 			page 11


 556 01a0 09       		.uleb128 0x9
 557 01a1 17030000 		.4byte	.LASF33
 558 01a5 05       		.byte	0x5
 559 01a6 7D       		.byte	0x7d
 560 01a7 C1000000 		.4byte	0xc1
 561 01ab 02       		.byte	0x2
 562 01ac 23       		.byte	0x23
 563 01ad 1D       		.uleb128 0x1d
 564 01ae 09       		.uleb128 0x9
 565 01af CE030000 		.4byte	.LASF34
 566 01b3 05       		.byte	0x5
 567 01b4 82       		.byte	0x82
 568 01b5 D7000000 		.4byte	0xd7
 569 01b9 02       		.byte	0x2
 570 01ba 23       		.byte	0x23
 571 01bb 1E       		.uleb128 0x1e
 572 01bc 09       		.uleb128 0x9
 573 01bd F0020000 		.4byte	.LASF35
 574 01c1 05       		.byte	0x5
 575 01c2 88       		.byte	0x88
 576 01c3 E2000000 		.4byte	0xe2
 577 01c7 02       		.byte	0x2
 578 01c8 23       		.byte	0x23
 579 01c9 1F       		.uleb128 0x1f
 580 01ca 09       		.uleb128 0x9
 581 01cb 9E030000 		.4byte	.LASF36
 582 01cf 05       		.byte	0x5
 583 01d0 8F       		.byte	0x8f
 584 01d1 2F040000 		.4byte	0x42f
 585 01d5 02       		.byte	0x2
 586 01d6 23       		.byte	0x23
 587 01d7 20       		.uleb128 0x20
 588 01d8 0A       		.uleb128 0xa
 589 01d9 705F7500 		.ascii	"p_u\000"
 590 01dd 05       		.byte	0x5
 591 01de B4       		.byte	0xb4
 592 01df EF040000 		.4byte	0x4ef
 593 01e3 02       		.byte	0x2
 594 01e4 23       		.byte	0x23
 595 01e5 24       		.uleb128 0x24
 596 01e6 09       		.uleb128 0x9
 597 01e7 34040000 		.4byte	.LASF37
 598 01eb 05       		.byte	0x5
 599 01ec B9       		.byte	0xb9
 600 01ed 96020000 		.4byte	0x296
 601 01f1 02       		.byte	0x2
 602 01f2 23       		.byte	0x23
 603 01f3 28       		.uleb128 0x28
 604 01f4 09       		.uleb128 0x9
 605 01f5 2F010000 		.4byte	.LASF38
 606 01f9 05       		.byte	0x5
 607 01fa BF       		.byte	0xbf
 608 01fb 74020000 		.4byte	0x274
 609 01ff 02       		.byte	0x2
 610 0200 23       		.byte	0x23
 611 0201 2C       		.uleb128 0x2c
 612 0202 09       		.uleb128 0x9
ARM GAS  C:\Users\DNIEL~1\AppData\Local\Temp\cccboLOw.s 			page 12


 613 0203 14040000 		.4byte	.LASF39
 614 0207 05       		.byte	0x5
 615 0208 C3       		.byte	0xc3
 616 0209 F8000000 		.4byte	0xf8
 617 020d 02       		.byte	0x2
 618 020e 23       		.byte	0x23
 619 020f 34       		.uleb128 0x34
 620 0210 09       		.uleb128 0x9
 621 0211 26030000 		.4byte	.LASF40
 622 0215 05       		.byte	0x5
 623 0216 C9       		.byte	0xc9
 624 0217 03010000 		.4byte	0x103
 625 021b 02       		.byte	0x2
 626 021c 23       		.byte	0x23
 627 021d 38       		.uleb128 0x38
 628 021e 09       		.uleb128 0x9
 629 021f D4020000 		.4byte	.LASF41
 630 0223 05       		.byte	0x5
 631 0224 D0       		.byte	0xd0
 632 0225 24050000 		.4byte	0x524
 633 0229 02       		.byte	0x2
 634 022a 23       		.byte	0x23
 635 022b 3C       		.uleb128 0x3c
 636 022c 09       		.uleb128 0x9
 637 022d 7F030000 		.4byte	.LASF42
 638 0231 05       		.byte	0x5
 639 0232 D4       		.byte	0xd4
 640 0233 ED000000 		.4byte	0xed
 641 0237 02       		.byte	0x2
 642 0238 23       		.byte	0x23
 643 0239 40       		.uleb128 0x40
 644 023a 09       		.uleb128 0x9
 645 023b 9D000000 		.4byte	.LASF43
 646 023f 05       		.byte	0x5
 647 0240 DA       		.byte	0xda
 648 0241 30000000 		.4byte	0x30
 649 0245 02       		.byte	0x2
 650 0246 23       		.byte	0x23
 651 0247 44       		.uleb128 0x44
 652 0248 00       		.byte	0x0
 653 0249 0B       		.uleb128 0xb
 654 024a 08       		.byte	0x8
 655 024b 04       		.byte	0x4
 656 024c 61       		.byte	0x61
 657 024d 6E020000 		.4byte	0x26e
 658 0251 09       		.uleb128 0x9
 659 0252 10030000 		.4byte	.LASF25
 660 0256 04       		.byte	0x4
 661 0257 62       		.byte	0x62
 662 0258 6E020000 		.4byte	0x26e
 663 025c 02       		.byte	0x2
 664 025d 23       		.byte	0x23
 665 025e 00       		.uleb128 0x0
 666 025f 09       		.uleb128 0x9
 667 0260 49020000 		.4byte	.LASF26
 668 0264 04       		.byte	0x4
 669 0265 64       		.byte	0x64
ARM GAS  C:\Users\DNIEL~1\AppData\Local\Temp\cccboLOw.s 			page 13


 670 0266 6E020000 		.4byte	0x26e
 671 026a 02       		.byte	0x2
 672 026b 23       		.byte	0x23
 673 026c 04       		.uleb128 0x4
 674 026d 00       		.byte	0x0
 675 026e 05       		.uleb128 0x5
 676 026f 04       		.byte	0x4
 677 0270 19010000 		.4byte	0x119
 678 0274 07       		.uleb128 0x7
 679 0275 3C000000 		.4byte	.LASF44
 680 0279 04       		.byte	0x4
 681 027a 66       		.byte	0x66
 682 027b 49020000 		.4byte	0x249
 683 027f 0B       		.uleb128 0xb
 684 0280 04       		.byte	0x4
 685 0281 04       		.byte	0x4
 686 0282 6B       		.byte	0x6b
 687 0283 96020000 		.4byte	0x296
 688 0287 09       		.uleb128 0x9
 689 0288 10030000 		.4byte	.LASF25
 690 028c 04       		.byte	0x4
 691 028d 6D       		.byte	0x6d
 692 028e 6E020000 		.4byte	0x26e
 693 0292 02       		.byte	0x2
 694 0293 23       		.byte	0x23
 695 0294 00       		.uleb128 0x0
 696 0295 00       		.byte	0x0
 697 0296 07       		.uleb128 0x7
 698 0297 AA010000 		.4byte	.LASF45
 699 029b 04       		.byte	0x4
 700 029c 70       		.byte	0x70
 701 029d 7F020000 		.4byte	0x27f
 702 02a1 07       		.uleb128 0x7
 703 02a2 11010000 		.4byte	.LASF46
 704 02a6 06       		.byte	0x6
 705 02a7 E5       		.byte	0xe5
 706 02a8 30000000 		.4byte	0x30
 707 02ac 07       		.uleb128 0x7
 708 02ad C8010000 		.4byte	.LASF47
 709 02b1 06       		.byte	0x6
 710 02b2 EB       		.byte	0xeb
 711 02b3 AF000000 		.4byte	0xaf
 712 02b7 0C       		.uleb128 0xc
 713 02b8 B0030000 		.4byte	.LASF48
 714 02bc 24       		.byte	0x24
 715 02bd 06       		.byte	0x6
 716 02be 0C01     		.2byte	0x10c
 717 02c0 45030000 		.4byte	0x345
 718 02c4 0D       		.uleb128 0xd
 719 02c5 723400   		.ascii	"r4\000"
 720 02c8 06       		.byte	0x6
 721 02c9 1F01     		.2byte	0x11f
 722 02cb A1020000 		.4byte	0x2a1
 723 02cf 02       		.byte	0x2
 724 02d0 23       		.byte	0x23
 725 02d1 00       		.uleb128 0x0
 726 02d2 0D       		.uleb128 0xd
ARM GAS  C:\Users\DNIEL~1\AppData\Local\Temp\cccboLOw.s 			page 14


 727 02d3 723500   		.ascii	"r5\000"
 728 02d6 06       		.byte	0x6
 729 02d7 2001     		.2byte	0x120
 730 02d9 A1020000 		.4byte	0x2a1
 731 02dd 02       		.byte	0x2
 732 02de 23       		.byte	0x23
 733 02df 04       		.uleb128 0x4
 734 02e0 0D       		.uleb128 0xd
 735 02e1 723600   		.ascii	"r6\000"
 736 02e4 06       		.byte	0x6
 737 02e5 2101     		.2byte	0x121
 738 02e7 A1020000 		.4byte	0x2a1
 739 02eb 02       		.byte	0x2
 740 02ec 23       		.byte	0x23
 741 02ed 08       		.uleb128 0x8
 742 02ee 0D       		.uleb128 0xd
 743 02ef 723700   		.ascii	"r7\000"
 744 02f2 06       		.byte	0x6
 745 02f3 2201     		.2byte	0x122
 746 02f5 A1020000 		.4byte	0x2a1
 747 02f9 02       		.byte	0x2
 748 02fa 23       		.byte	0x23
 749 02fb 0C       		.uleb128 0xc
 750 02fc 0D       		.uleb128 0xd
 751 02fd 723800   		.ascii	"r8\000"
 752 0300 06       		.byte	0x6
 753 0301 2301     		.2byte	0x123
 754 0303 A1020000 		.4byte	0x2a1
 755 0307 02       		.byte	0x2
 756 0308 23       		.byte	0x23
 757 0309 10       		.uleb128 0x10
 758 030a 0D       		.uleb128 0xd
 759 030b 723900   		.ascii	"r9\000"
 760 030e 06       		.byte	0x6
 761 030f 2401     		.2byte	0x124
 762 0311 A1020000 		.4byte	0x2a1
 763 0315 02       		.byte	0x2
 764 0316 23       		.byte	0x23
 765 0317 14       		.uleb128 0x14
 766 0318 0D       		.uleb128 0xd
 767 0319 72313000 		.ascii	"r10\000"
 768 031d 06       		.byte	0x6
 769 031e 2501     		.2byte	0x125
 770 0320 A1020000 		.4byte	0x2a1
 771 0324 02       		.byte	0x2
 772 0325 23       		.byte	0x23
 773 0326 18       		.uleb128 0x18
 774 0327 0D       		.uleb128 0xd
 775 0328 72313100 		.ascii	"r11\000"
 776 032c 06       		.byte	0x6
 777 032d 2601     		.2byte	0x126
 778 032f A1020000 		.4byte	0x2a1
 779 0333 02       		.byte	0x2
 780 0334 23       		.byte	0x23
 781 0335 1C       		.uleb128 0x1c
 782 0336 0D       		.uleb128 0xd
 783 0337 6C7200   		.ascii	"lr\000"
ARM GAS  C:\Users\DNIEL~1\AppData\Local\Temp\cccboLOw.s 			page 15


 784 033a 06       		.byte	0x6
 785 033b 2701     		.2byte	0x127
 786 033d A1020000 		.4byte	0x2a1
 787 0341 02       		.byte	0x2
 788 0342 23       		.byte	0x23
 789 0343 20       		.uleb128 0x20
 790 0344 00       		.byte	0x0
 791 0345 0C       		.uleb128 0xc
 792 0346 7C010000 		.4byte	.LASF49
 793 034a 04       		.byte	0x4
 794 034b 06       		.byte	0x6
 795 034c 3101     		.2byte	0x131
 796 034e 62030000 		.4byte	0x362
 797 0352 0D       		.uleb128 0xd
 798 0353 72313300 		.ascii	"r13\000"
 799 0357 06       		.byte	0x6
 800 0358 3201     		.2byte	0x132
 801 035a 62030000 		.4byte	0x362
 802 035e 02       		.byte	0x2
 803 035f 23       		.byte	0x23
 804 0360 00       		.uleb128 0x0
 805 0361 00       		.byte	0x0
 806 0362 05       		.uleb128 0x5
 807 0363 04       		.byte	0x4
 808 0364 B7020000 		.4byte	0x2b7
 809 0368 0E       		.uleb128 0xe
 810 0369 A4000000 		.4byte	0xa4
 811 036d 07       		.uleb128 0x7
 812 036e 8A030000 		.4byte	.LASF50
 813 0372 07       		.byte	0x7
 814 0373 58       		.byte	0x58
 815 0374 78030000 		.4byte	0x378
 816 0378 05       		.uleb128 0x5
 817 0379 04       		.byte	0x4
 818 037a 7E030000 		.4byte	0x37e
 819 037e 0F       		.uleb128 0xf
 820 037f 01       		.byte	0x1
 821 0380 8A030000 		.4byte	0x38a
 822 0384 10       		.uleb128 0x10
 823 0385 30000000 		.4byte	0x30
 824 0389 00       		.byte	0x0
 825 038a 07       		.uleb128 0x7
 826 038b 63010000 		.4byte	.LASF51
 827 038f 07       		.byte	0x7
 828 0390 5D       		.byte	0x5d
 829 0391 95030000 		.4byte	0x395
 830 0395 08       		.uleb128 0x8
 831 0396 63010000 		.4byte	.LASF51
 832 039a 14       		.byte	0x14
 833 039b 07       		.byte	0x7
 834 039c 64       		.byte	0x64
 835 039d E8030000 		.4byte	0x3e8
 836 03a1 09       		.uleb128 0x9
 837 03a2 44010000 		.4byte	.LASF52
 838 03a6 07       		.byte	0x7
 839 03a7 65       		.byte	0x65
 840 03a8 E8030000 		.4byte	0x3e8
ARM GAS  C:\Users\DNIEL~1\AppData\Local\Temp\cccboLOw.s 			page 16


 841 03ac 02       		.byte	0x2
 842 03ad 23       		.byte	0x23
 843 03ae 00       		.uleb128 0x0
 844 03af 09       		.uleb128 0x9
 845 03b0 1A010000 		.4byte	.LASF53
 846 03b4 07       		.byte	0x7
 847 03b5 67       		.byte	0x67
 848 03b6 E8030000 		.4byte	0x3e8
 849 03ba 02       		.byte	0x2
 850 03bb 23       		.byte	0x23
 851 03bc 04       		.uleb128 0x4
 852 03bd 09       		.uleb128 0x9
 853 03be DB010000 		.4byte	.LASF54
 854 03c2 07       		.byte	0x7
 855 03c3 69       		.byte	0x69
 856 03c4 0E010000 		.4byte	0x10e
 857 03c8 02       		.byte	0x2
 858 03c9 23       		.byte	0x23
 859 03ca 08       		.uleb128 0x8
 860 03cb 09       		.uleb128 0x9
 861 03cc E9010000 		.4byte	.LASF55
 862 03d0 07       		.byte	0x7
 863 03d1 6A       		.byte	0x6a
 864 03d2 6D030000 		.4byte	0x36d
 865 03d6 02       		.byte	0x2
 866 03d7 23       		.byte	0x23
 867 03d8 0C       		.uleb128 0xc
 868 03d9 09       		.uleb128 0x9
 869 03da C7030000 		.4byte	.LASF56
 870 03de 07       		.byte	0x7
 871 03df 6C       		.byte	0x6c
 872 03e0 30000000 		.4byte	0x30
 873 03e4 02       		.byte	0x2
 874 03e5 23       		.byte	0x23
 875 03e6 10       		.uleb128 0x10
 876 03e7 00       		.byte	0x0
 877 03e8 05       		.uleb128 0x5
 878 03e9 04       		.byte	0x4
 879 03ea 8A030000 		.4byte	0x38a
 880 03ee 0B       		.uleb128 0xb
 881 03ef 10       		.byte	0x10
 882 03f0 07       		.byte	0x7
 883 03f1 76       		.byte	0x76
 884 03f2 2F040000 		.4byte	0x42f
 885 03f6 09       		.uleb128 0x9
 886 03f7 44010000 		.4byte	.LASF52
 887 03fb 07       		.byte	0x7
 888 03fc 77       		.byte	0x77
 889 03fd E8030000 		.4byte	0x3e8
 890 0401 02       		.byte	0x2
 891 0402 23       		.byte	0x23
 892 0403 00       		.uleb128 0x0
 893 0404 09       		.uleb128 0x9
 894 0405 1A010000 		.4byte	.LASF53
 895 0409 07       		.byte	0x7
 896 040a 79       		.byte	0x79
 897 040b E8030000 		.4byte	0x3e8
ARM GAS  C:\Users\DNIEL~1\AppData\Local\Temp\cccboLOw.s 			page 17


 898 040f 02       		.byte	0x2
 899 0410 23       		.byte	0x23
 900 0411 04       		.uleb128 0x4
 901 0412 09       		.uleb128 0x9
 902 0413 DB010000 		.4byte	.LASF54
 903 0417 07       		.byte	0x7
 904 0418 7B       		.byte	0x7b
 905 0419 0E010000 		.4byte	0x10e
 906 041d 02       		.byte	0x2
 907 041e 23       		.byte	0x23
 908 041f 08       		.uleb128 0x8
 909 0420 09       		.uleb128 0x9
 910 0421 42030000 		.4byte	.LASF57
 911 0425 07       		.byte	0x7
 912 0426 7C       		.byte	0x7c
 913 0427 2F040000 		.4byte	0x42f
 914 042b 02       		.byte	0x2
 915 042c 23       		.byte	0x23
 916 042d 0C       		.uleb128 0xc
 917 042e 00       		.byte	0x0
 918 042f 0E       		.uleb128 0xe
 919 0430 0E010000 		.4byte	0x10e
 920 0434 07       		.uleb128 0x7
 921 0435 1A040000 		.4byte	.LASF58
 922 0439 07       		.byte	0x7
 923 043a 7D       		.byte	0x7d
 924 043b EE030000 		.4byte	0x3ee
 925 043f 0B       		.uleb128 0xb
 926 0440 1C       		.byte	0x1c
 927 0441 08       		.byte	0x8
 928 0442 5E       		.byte	0x5e
 929 0443 9C040000 		.4byte	0x49c
 930 0447 09       		.uleb128 0x9
 931 0448 3A030000 		.4byte	.LASF59
 932 044c 08       		.byte	0x8
 933 044d 5F       		.byte	0x5f
 934 044e 74020000 		.4byte	0x274
 935 0452 02       		.byte	0x2
 936 0453 23       		.byte	0x23
 937 0454 00       		.uleb128 0x0
 938 0455 09       		.uleb128 0x9
 939 0456 02030000 		.4byte	.LASF60
 940 045a 08       		.byte	0x8
 941 045b 60       		.byte	0x60
 942 045c ED000000 		.4byte	0xed
 943 0460 02       		.byte	0x2
 944 0461 23       		.byte	0x23
 945 0462 08       		.uleb128 0x8
 946 0463 09       		.uleb128 0x9
 947 0464 0A020000 		.4byte	.LASF61
 948 0468 08       		.byte	0x8
 949 0469 62       		.byte	0x62
 950 046a 45030000 		.4byte	0x345
 951 046e 02       		.byte	0x2
 952 046f 23       		.byte	0x23
 953 0470 0C       		.uleb128 0xc
 954 0471 09       		.uleb128 0x9
ARM GAS  C:\Users\DNIEL~1\AppData\Local\Temp\cccboLOw.s 			page 18


 955 0472 09010000 		.4byte	.LASF62
 956 0476 08       		.byte	0x8
 957 0477 65       		.byte	0x65
 958 0478 6E020000 		.4byte	0x26e
 959 047c 02       		.byte	0x2
 960 047d 23       		.byte	0x23
 961 047e 10       		.uleb128 0x10
 962 047f 09       		.uleb128 0x9
 963 0480 1F020000 		.4byte	.LASF63
 964 0484 08       		.byte	0x8
 965 0485 66       		.byte	0x66
 966 0486 6E020000 		.4byte	0x26e
 967 048a 02       		.byte	0x2
 968 048b 23       		.byte	0x23
 969 048c 14       		.uleb128 0x14
 970 048d 09       		.uleb128 0x9
 971 048e 15020000 		.4byte	.LASF64
 972 0492 08       		.byte	0x8
 973 0493 69       		.byte	0x69
 974 0494 6E020000 		.4byte	0x26e
 975 0498 02       		.byte	0x2
 976 0499 23       		.byte	0x23
 977 049a 18       		.uleb128 0x18
 978 049b 00       		.byte	0x0
 979 049c 07       		.uleb128 0x7
 980 049d D5030000 		.4byte	.LASF65
 981 04a1 08       		.byte	0x8
 982 04a2 6B       		.byte	0x6b
 983 04a3 3F040000 		.4byte	0x43f
 984 04a7 08       		.uleb128 0x8
 985 04a8 C2010000 		.4byte	.LASF66
 986 04ac 10       		.byte	0x10
 987 04ad 09       		.byte	0x9
 988 04ae 2C       		.byte	0x2c
 989 04af DE040000 		.4byte	0x4de
 990 04b3 09       		.uleb128 0x9
 991 04b4 BC000000 		.4byte	.LASF67
 992 04b8 09       		.byte	0x9
 993 04b9 2D       		.byte	0x2d
 994 04ba 74020000 		.4byte	0x274
 995 04be 02       		.byte	0x2
 996 04bf 23       		.byte	0x23
 997 04c0 00       		.uleb128 0x0
 998 04c1 09       		.uleb128 0x9
 999 04c2 26040000 		.4byte	.LASF68
 1000 04c6 09       		.byte	0x9
 1001 04c7 2F       		.byte	0x2f
 1002 04c8 6E020000 		.4byte	0x26e
 1003 04cc 02       		.byte	0x2
 1004 04cd 23       		.byte	0x23
 1005 04ce 08       		.uleb128 0x8
 1006 04cf 09       		.uleb128 0x9
 1007 04d0 6E030000 		.4byte	.LASF69
 1008 04d4 09       		.byte	0x9
 1009 04d5 31       		.byte	0x31
 1010 04d6 DE040000 		.4byte	0x4de
 1011 04da 02       		.byte	0x2
ARM GAS  C:\Users\DNIEL~1\AppData\Local\Temp\cccboLOw.s 			page 19


 1012 04db 23       		.byte	0x23
 1013 04dc 0C       		.uleb128 0xc
 1014 04dd 00       		.byte	0x0
 1015 04de 05       		.uleb128 0x5
 1016 04df 04       		.byte	0x4
 1017 04e0 A7040000 		.4byte	0x4a7
 1018 04e4 07       		.uleb128 0x7
 1019 04e5 C2010000 		.4byte	.LASF66
 1020 04e9 09       		.byte	0x9
 1021 04ea 33       		.byte	0x33
 1022 04eb A7040000 		.4byte	0x4a7
 1023 04ef 11       		.uleb128 0x11
 1024 04f0 04       		.byte	0x4
 1025 04f1 05       		.byte	0x5
 1026 04f2 96       		.byte	0x96
 1027 04f3 24050000 		.4byte	0x524
 1028 04f7 12       		.uleb128 0x12
 1029 04f8 0B000000 		.4byte	.LASF70
 1030 04fc 05       		.byte	0x5
 1031 04fd 9D       		.byte	0x9d
 1032 04fe F8000000 		.4byte	0xf8
 1033 0502 12       		.uleb128 0x12
 1034 0503 4F000000 		.4byte	.LASF71
 1035 0507 05       		.byte	0x5
 1036 0508 A4       		.byte	0xa4
 1037 0509 F8000000 		.4byte	0xf8
 1038 050d 12       		.uleb128 0x12
 1039 050e FA030000 		.4byte	.LASF72
 1040 0512 05       		.byte	0x5
 1041 0513 AB       		.byte	0xab
 1042 0514 30000000 		.4byte	0x30
 1043 0518 12       		.uleb128 0x12
 1044 0519 09030000 		.4byte	.LASF73
 1045 051d 05       		.byte	0x5
 1046 051e B2       		.byte	0xb2
 1047 051f 03010000 		.4byte	0x103
 1048 0523 00       		.byte	0x0
 1049 0524 05       		.uleb128 0x5
 1050 0525 04       		.byte	0x4
 1051 0526 E4040000 		.4byte	0x4e4
 1052 052a 0E       		.uleb128 0xe
 1053 052b 99000000 		.4byte	0x99
 1054 052f 0B       		.uleb128 0xb
 1055 0530 04       		.byte	0x4
 1056 0531 0A       		.byte	0xa
 1057 0532 96       		.byte	0x96
 1058 0533 54050000 		.4byte	0x554
 1059 0537 0A       		.uleb128 0xa
 1060 0538 73657400 		.ascii	"set\000"
 1061 053c 0A       		.byte	0xa
 1062 053d 97       		.byte	0x97
 1063 053e 8E000000 		.4byte	0x8e
 1064 0542 02       		.byte	0x2
 1065 0543 23       		.byte	0x23
 1066 0544 00       		.uleb128 0x0
 1067 0545 09       		.uleb128 0x9
 1068 0546 E3010000 		.4byte	.LASF74
ARM GAS  C:\Users\DNIEL~1\AppData\Local\Temp\cccboLOw.s 			page 20


 1069 054a 0A       		.byte	0xa
 1070 054b 98       		.byte	0x98
 1071 054c 8E000000 		.4byte	0x8e
 1072 0550 02       		.byte	0x2
 1073 0551 23       		.byte	0x23
 1074 0552 02       		.uleb128 0x2
 1075 0553 00       		.byte	0x0
 1076 0554 11       		.uleb128 0x11
 1077 0555 04       		.byte	0x4
 1078 0556 0A       		.byte	0xa
 1079 0557 94       		.byte	0x94
 1080 0558 6F050000 		.4byte	0x56f
 1081 055c 13       		.uleb128 0x13
 1082 055d 5700     		.ascii	"W\000"
 1083 055f 0A       		.byte	0xa
 1084 0560 95       		.byte	0x95
 1085 0561 A4000000 		.4byte	0xa4
 1086 0565 13       		.uleb128 0x13
 1087 0566 4800     		.ascii	"H\000"
 1088 0568 0A       		.byte	0xa
 1089 0569 99       		.byte	0x99
 1090 056a 2F050000 		.4byte	0x52f
 1091 056e 00       		.byte	0x0
 1092 056f 0B       		.uleb128 0xb
 1093 0570 28       		.byte	0x28
 1094 0571 0A       		.byte	0xa
 1095 0572 8C       		.byte	0x8c
 1096 0573 04060000 		.4byte	0x604
 1097 0577 09       		.uleb128 0x9
 1098 0578 36000000 		.4byte	.LASF75
 1099 057c 0A       		.byte	0xa
 1100 057d 8E       		.byte	0x8e
 1101 057e 68030000 		.4byte	0x368
 1102 0582 02       		.byte	0x2
 1103 0583 23       		.byte	0x23
 1104 0584 00       		.uleb128 0x0
 1105 0585 09       		.uleb128 0x9
 1106 0586 1B000000 		.4byte	.LASF76
 1107 058a 0A       		.byte	0xa
 1108 058b 8F       		.byte	0x8f
 1109 058c 68030000 		.4byte	0x368
 1110 0590 02       		.byte	0x2
 1111 0591 23       		.byte	0x23
 1112 0592 04       		.uleb128 0x4
 1113 0593 09       		.uleb128 0x9
 1114 0594 01010000 		.4byte	.LASF77
 1115 0598 0A       		.byte	0xa
 1116 0599 90       		.byte	0x90
 1117 059a 68030000 		.4byte	0x368
 1118 059e 02       		.byte	0x2
 1119 059f 23       		.byte	0x23
 1120 05a0 08       		.uleb128 0x8
 1121 05a1 09       		.uleb128 0x9
 1122 05a2 49000000 		.4byte	.LASF78
 1123 05a6 0A       		.byte	0xa
 1124 05a7 91       		.byte	0x91
 1125 05a8 68030000 		.4byte	0x368
ARM GAS  C:\Users\DNIEL~1\AppData\Local\Temp\cccboLOw.s 			page 21


 1126 05ac 02       		.byte	0x2
 1127 05ad 23       		.byte	0x23
 1128 05ae 0C       		.uleb128 0xc
 1129 05af 0A       		.uleb128 0xa
 1130 05b0 49445200 		.ascii	"IDR\000"
 1131 05b4 0A       		.byte	0xa
 1132 05b5 92       		.byte	0x92
 1133 05b6 68030000 		.4byte	0x368
 1134 05ba 02       		.byte	0x2
 1135 05bb 23       		.byte	0x23
 1136 05bc 10       		.uleb128 0x10
 1137 05bd 0A       		.uleb128 0xa
 1138 05be 4F445200 		.ascii	"ODR\000"
 1139 05c2 0A       		.byte	0xa
 1140 05c3 93       		.byte	0x93
 1141 05c4 68030000 		.4byte	0x368
 1142 05c8 02       		.byte	0x2
 1143 05c9 23       		.byte	0x23
 1144 05ca 14       		.uleb128 0x14
 1145 05cb 09       		.uleb128 0x9
 1146 05cc 86000000 		.4byte	.LASF79
 1147 05d0 0A       		.byte	0xa
 1148 05d1 9A       		.byte	0x9a
 1149 05d2 04060000 		.4byte	0x604
 1150 05d6 02       		.byte	0x2
 1151 05d7 23       		.byte	0x23
 1152 05d8 18       		.uleb128 0x18
 1153 05d9 09       		.uleb128 0x9
 1154 05da 59010000 		.4byte	.LASF80
 1155 05de 0A       		.byte	0xa
 1156 05df 9B       		.byte	0x9b
 1157 05e0 68030000 		.4byte	0x368
 1158 05e4 02       		.byte	0x2
 1159 05e5 23       		.byte	0x23
 1160 05e6 1C       		.uleb128 0x1c
 1161 05e7 09       		.uleb128 0x9
 1162 05e8 32020000 		.4byte	.LASF81
 1163 05ec 0A       		.byte	0xa
 1164 05ed 9C       		.byte	0x9c
 1165 05ee 68030000 		.4byte	0x368
 1166 05f2 02       		.byte	0x2
 1167 05f3 23       		.byte	0x23
 1168 05f4 20       		.uleb128 0x20
 1169 05f5 09       		.uleb128 0x9
 1170 05f6 27020000 		.4byte	.LASF82
 1171 05fa 0A       		.byte	0xa
 1172 05fb 9D       		.byte	0x9d
 1173 05fc 68030000 		.4byte	0x368
 1174 0600 02       		.byte	0x2
 1175 0601 23       		.byte	0x23
 1176 0602 24       		.uleb128 0x24
 1177 0603 00       		.byte	0x0
 1178 0604 0E       		.uleb128 0xe
 1179 0605 54050000 		.4byte	0x554
 1180 0609 07       		.uleb128 0x7
 1181 060a 4C010000 		.4byte	.LASF83
 1182 060e 0A       		.byte	0xa
ARM GAS  C:\Users\DNIEL~1\AppData\Local\Temp\cccboLOw.s 			page 22


 1183 060f 9E       		.byte	0x9e
 1184 0610 6F050000 		.4byte	0x56f
 1185 0614 07       		.uleb128 0x7
 1186 0615 29000000 		.4byte	.LASF84
 1187 0619 0A       		.byte	0xa
 1188 061a F0       		.byte	0xf0
 1189 061b A4000000 		.4byte	0xa4
 1190 061f 14       		.uleb128 0x14
 1191 0620 AC020000 		.4byte	0x2ac
 1192 0624 2F060000 		.4byte	0x62f
 1193 0628 15       		.uleb128 0x15
 1194 0629 29000000 		.4byte	0x29
 1195 062d 29       		.byte	0x29
 1196 062e 00       		.byte	0x0
 1197 062f 16       		.uleb128 0x16
 1198 0630 50020000 		.4byte	.LASF111
 1199 0634 01       		.byte	0x1
 1200 0635 0B       		.byte	0xb
 1201 0636 06       		.byte	0x6
 1202 0637 66060000 		.4byte	0x666
 1203 063b 17       		.uleb128 0x17
 1204 063c 5E030000 		.4byte	.LASF85
 1205 0640 00       		.sleb128 0
 1206 0641 17       		.uleb128 0x17
 1207 0642 C7020000 		.4byte	.LASF86
 1208 0646 01       		.sleb128 1
 1209 0647 17       		.uleb128 0x17
 1210 0648 E5030000 		.4byte	.LASF87
 1211 064c 02       		.sleb128 2
 1212 064d 17       		.uleb128 0x17
 1213 064e 68020000 		.4byte	.LASF88
 1214 0652 03       		.sleb128 3
 1215 0653 17       		.uleb128 0x17
 1216 0654 B7030000 		.4byte	.LASF89
 1217 0658 04       		.sleb128 4
 1218 0659 17       		.uleb128 0x17
 1219 065a 3A010000 		.4byte	.LASF90
 1220 065e 05       		.sleb128 5
 1221 065f 17       		.uleb128 0x17
 1222 0660 F9010000 		.4byte	.LASF91
 1223 0664 06       		.sleb128 6
 1224 0665 00       		.byte	0x0
 1225 0666 08       		.uleb128 0x8
 1226 0667 A5030000 		.4byte	.LASF92
 1227 066b 06       		.byte	0x6
 1228 066c 0B       		.byte	0xb
 1229 066d 11       		.byte	0x11
 1230 066e AA060000 		.4byte	0x6aa
 1231 0672 0A       		.uleb128 0xa
 1232 0673 696400   		.ascii	"id\000"
 1233 0676 0B       		.byte	0xb
 1234 0677 13       		.byte	0x13
 1235 0678 83000000 		.4byte	0x83
 1236 067c 02       		.byte	0x2
 1237 067d 23       		.byte	0x23
 1238 067e 00       		.uleb128 0x0
 1239 067f 09       		.uleb128 0x9
ARM GAS  C:\Users\DNIEL~1\AppData\Local\Temp\cccboLOw.s 			page 23


 1240 0680 F1010000 		.4byte	.LASF93
 1241 0684 0B       		.byte	0xb
 1242 0685 14       		.byte	0x14
 1243 0686 8E000000 		.4byte	0x8e
 1244 068a 02       		.byte	0x2
 1245 068b 23       		.byte	0x23
 1246 068c 02       		.uleb128 0x2
 1247 068d 09       		.uleb128 0x9
 1248 068e 84010000 		.4byte	.LASF94
 1249 0692 0B       		.byte	0xb
 1250 0693 15       		.byte	0x15
 1251 0694 83000000 		.4byte	0x83
 1252 0698 02       		.byte	0x2
 1253 0699 23       		.byte	0x23
 1254 069a 04       		.uleb128 0x4
 1255 069b 09       		.uleb128 0x9
 1256 069c 5E010000 		.4byte	.LASF95
 1257 06a0 0B       		.byte	0xb
 1258 06a1 16       		.byte	0x16
 1259 06a2 2F060000 		.4byte	0x62f
 1260 06a6 02       		.byte	0x2
 1261 06a7 23       		.byte	0x23
 1262 06a8 05       		.uleb128 0x5
 1263 06a9 00       		.byte	0x0
 1264 06aa 02       		.uleb128 0x2
 1265 06ab 08       		.byte	0x8
 1266 06ac 04       		.byte	0x4
 1267 06ad F2000000 		.4byte	.LASF96
 1268 06b1 02       		.uleb128 0x2
 1269 06b2 04       		.byte	0x4
 1270 06b3 04       		.byte	0x4
 1271 06b4 2C020000 		.4byte	.LASF97
 1272 06b8 02       		.uleb128 0x2
 1273 06b9 08       		.byte	0x8
 1274 06ba 04       		.byte	0x4
 1275 06bb 4D030000 		.4byte	.LASF98
 1276 06bf 18       		.uleb128 0x18
 1277 06c0 D3010000 		.4byte	.LASF99
 1278 06c4 01       		.byte	0x1
 1279 06c5 24       		.byte	0x24
 1280 06c6 01       		.byte	0x1
 1281 06c7 F8000000 		.4byte	0xf8
 1282 06cb 00000000 		.4byte	.LFB119
 1283 06cf 40000000 		.4byte	.LFE119
 1284 06d3 00000000 		.4byte	.LLST0
 1285 06d7 FC060000 		.4byte	0x6fc
 1286 06db 19       		.uleb128 0x19
 1287 06dc 61726700 		.ascii	"arg\000"
 1288 06e0 01       		.byte	0x1
 1289 06e1 24       		.byte	0x24
 1290 06e2 30000000 		.4byte	0x30
 1291 06e6 20000000 		.4byte	.LLST1
 1292 06ea 1A       		.uleb128 0x1a
 1293 06eb 00000000 		.4byte	.Ldebug_ranges0+0x0
 1294 06ef 1B       		.uleb128 0x1b
 1295 06f0 10020000 		.4byte	.LASF104
 1296 06f4 01       		.byte	0x1
ARM GAS  C:\Users\DNIEL~1\AppData\Local\Temp\cccboLOw.s 			page 24


 1297 06f5 29       		.byte	0x29
 1298 06f6 0E010000 		.4byte	0x10e
 1299 06fa 00       		.byte	0x0
 1300 06fb 00       		.byte	0x0
 1301 06fc 18       		.uleb128 0x18
 1302 06fd CE000000 		.4byte	.LASF100
 1303 0701 01       		.byte	0x1
 1304 0702 43       		.byte	0x43
 1305 0703 01       		.byte	0x1
 1306 0704 F8000000 		.4byte	0xf8
 1307 0708 00000000 		.4byte	.LFB120
 1308 070c 40000000 		.4byte	.LFE120
 1309 0710 33000000 		.4byte	.LLST2
 1310 0714 37070000 		.4byte	0x737
 1311 0718 19       		.uleb128 0x19
 1312 0719 61726700 		.ascii	"arg\000"
 1313 071d 01       		.byte	0x1
 1314 071e 43       		.byte	0x43
 1315 071f 30000000 		.4byte	0x30
 1316 0723 53000000 		.4byte	.LLST3
 1317 0727 1C       		.uleb128 0x1c
 1318 0728 10020000 		.4byte	.LASF104
 1319 072c 01       		.byte	0x1
 1320 072d 44       		.byte	0x44
 1321 072e 0E010000 		.4byte	0x10e
 1322 0732 66000000 		.4byte	.LLST4
 1323 0736 00       		.byte	0x0
 1324 0737 1D       		.uleb128 0x1d
 1325 0738 01       		.byte	0x1
 1326 0739 21040000 		.4byte	.LASF112
 1327 073d 01       		.byte	0x1
 1328 073e 5E       		.byte	0x5e
 1329 073f 01       		.byte	0x1
 1330 0740 4E000000 		.4byte	0x4e
 1331 0744 00000000 		.4byte	.LFB121
 1332 0748 90000000 		.4byte	.LFE121
 1333 074c 84000000 		.4byte	.LLST5
 1334 0750 1E       		.uleb128 0x1e
 1335 0751 22000000 		.4byte	.LASF101
 1336 0755 07       		.byte	0x7
 1337 0756 F5       		.byte	0xf5
 1338 0757 34040000 		.4byte	0x434
 1339 075b 01       		.byte	0x1
 1340 075c 01       		.byte	0x1
 1341 075d 1E       		.uleb128 0x1e
 1342 075e DF030000 		.4byte	.LASF102
 1343 0762 08       		.byte	0x8
 1344 0763 6F       		.byte	0x6f
 1345 0764 9C040000 		.4byte	0x49c
 1346 0768 01       		.byte	0x1
 1347 0769 01       		.byte	0x1
 1348 076a 1F       		.uleb128 0x1f
 1349 076b 58000000 		.4byte	.LASF103
 1350 076f 0C       		.byte	0xc
 1351 0770 9806     		.2byte	0x698
 1352 0772 2A050000 		.4byte	0x52a
 1353 0776 01       		.byte	0x1
ARM GAS  C:\Users\DNIEL~1\AppData\Local\Temp\cccboLOw.s 			page 25


 1354 0777 01       		.byte	0x1
 1355 0778 14       		.uleb128 0x14
 1356 0779 66060000 		.4byte	0x666
 1357 077d 88070000 		.4byte	0x788
 1358 0781 15       		.uleb128 0x15
 1359 0782 29000000 		.4byte	0x29
 1360 0786 05       		.byte	0x5
 1361 0787 00       		.byte	0x0
 1362 0788 1B       		.uleb128 0x1b
 1363 0789 70010000 		.4byte	.LASF105
 1364 078d 0B       		.byte	0xb
 1365 078e 1E       		.byte	0x1e
 1366 078f 78070000 		.4byte	0x778
 1367 0793 20       		.uleb128 0x20
 1368 0794 37020000 		.4byte	.LASF106
 1369 0798 01       		.byte	0x1
 1370 0799 23       		.byte	0x23
 1371 079a 1F060000 		.4byte	0x61f
 1372 079e 05       		.byte	0x5
 1373 079f 03       		.byte	0x3
 1374 07a0 00000000 		.4byte	waThread1
 1375 07a4 14       		.uleb128 0x14
 1376 07a5 AC020000 		.4byte	0x2ac
 1377 07a9 B4070000 		.4byte	0x7b4
 1378 07ad 15       		.uleb128 0x15
 1379 07ae 29000000 		.4byte	0x29
 1380 07b2 59       		.byte	0x59
 1381 07b3 00       		.byte	0x0
 1382 07b4 20       		.uleb128 0x20
 1383 07b5 93030000 		.4byte	.LASF107
 1384 07b9 01       		.byte	0x1
 1385 07ba 42       		.byte	0x42
 1386 07bb A4070000 		.4byte	0x7a4
 1387 07bf 05       		.byte	0x5
 1388 07c0 03       		.byte	0x3
 1389 07c1 00000000 		.4byte	watask20ms
 1390 07c5 1E       		.uleb128 0x1e
 1391 07c6 22000000 		.4byte	.LASF101
 1392 07ca 07       		.byte	0x7
 1393 07cb F5       		.byte	0xf5
 1394 07cc 34040000 		.4byte	0x434
 1395 07d0 01       		.byte	0x1
 1396 07d1 01       		.byte	0x1
 1397 07d2 1E       		.uleb128 0x1e
 1398 07d3 DF030000 		.4byte	.LASF102
 1399 07d7 08       		.byte	0x8
 1400 07d8 6F       		.byte	0x6f
 1401 07d9 9C040000 		.4byte	0x49c
 1402 07dd 01       		.byte	0x1
 1403 07de 01       		.byte	0x1
 1404 07df 1F       		.uleb128 0x1f
 1405 07e0 58000000 		.4byte	.LASF103
 1406 07e4 0C       		.byte	0xc
 1407 07e5 9806     		.2byte	0x698
 1408 07e7 2A050000 		.4byte	0x52a
 1409 07eb 01       		.byte	0x1
 1410 07ec 01       		.byte	0x1
ARM GAS  C:\Users\DNIEL~1\AppData\Local\Temp\cccboLOw.s 			page 26


 1411 07ed 00       		.byte	0x0
 1412              		.section	.debug_abbrev
 1413 0000 01       		.uleb128 0x1
 1414 0001 11       		.uleb128 0x11
 1415 0002 01       		.byte	0x1
 1416 0003 25       		.uleb128 0x25
 1417 0004 0E       		.uleb128 0xe
 1418 0005 13       		.uleb128 0x13
 1419 0006 0B       		.uleb128 0xb
 1420 0007 03       		.uleb128 0x3
 1421 0008 0E       		.uleb128 0xe
 1422 0009 1B       		.uleb128 0x1b
 1423 000a 0E       		.uleb128 0xe
 1424 000b 11       		.uleb128 0x11
 1425 000c 01       		.uleb128 0x1
 1426 000d 52       		.uleb128 0x52
 1427 000e 01       		.uleb128 0x1
 1428 000f 55       		.uleb128 0x55
 1429 0010 06       		.uleb128 0x6
 1430 0011 10       		.uleb128 0x10
 1431 0012 06       		.uleb128 0x6
 1432 0013 00       		.byte	0x0
 1433 0014 00       		.byte	0x0
 1434 0015 02       		.uleb128 0x2
 1435 0016 24       		.uleb128 0x24
 1436 0017 00       		.byte	0x0
 1437 0018 0B       		.uleb128 0xb
 1438 0019 0B       		.uleb128 0xb
 1439 001a 3E       		.uleb128 0x3e
 1440 001b 0B       		.uleb128 0xb
 1441 001c 03       		.uleb128 0x3
 1442 001d 0E       		.uleb128 0xe
 1443 001e 00       		.byte	0x0
 1444 001f 00       		.byte	0x0
 1445 0020 03       		.uleb128 0x3
 1446 0021 0F       		.uleb128 0xf
 1447 0022 00       		.byte	0x0
 1448 0023 0B       		.uleb128 0xb
 1449 0024 0B       		.uleb128 0xb
 1450 0025 00       		.byte	0x0
 1451 0026 00       		.byte	0x0
 1452 0027 04       		.uleb128 0x4
 1453 0028 24       		.uleb128 0x24
 1454 0029 00       		.byte	0x0
 1455 002a 0B       		.uleb128 0xb
 1456 002b 0B       		.uleb128 0xb
 1457 002c 3E       		.uleb128 0x3e
 1458 002d 0B       		.uleb128 0xb
 1459 002e 03       		.uleb128 0x3
 1460 002f 08       		.uleb128 0x8
 1461 0030 00       		.byte	0x0
 1462 0031 00       		.byte	0x0
 1463 0032 05       		.uleb128 0x5
 1464 0033 0F       		.uleb128 0xf
 1465 0034 00       		.byte	0x0
 1466 0035 0B       		.uleb128 0xb
 1467 0036 0B       		.uleb128 0xb
ARM GAS  C:\Users\DNIEL~1\AppData\Local\Temp\cccboLOw.s 			page 27


 1468 0037 49       		.uleb128 0x49
 1469 0038 13       		.uleb128 0x13
 1470 0039 00       		.byte	0x0
 1471 003a 00       		.byte	0x0
 1472 003b 06       		.uleb128 0x6
 1473 003c 26       		.uleb128 0x26
 1474 003d 00       		.byte	0x0
 1475 003e 49       		.uleb128 0x49
 1476 003f 13       		.uleb128 0x13
 1477 0040 00       		.byte	0x0
 1478 0041 00       		.byte	0x0
 1479 0042 07       		.uleb128 0x7
 1480 0043 16       		.uleb128 0x16
 1481 0044 00       		.byte	0x0
 1482 0045 03       		.uleb128 0x3
 1483 0046 0E       		.uleb128 0xe
 1484 0047 3A       		.uleb128 0x3a
 1485 0048 0B       		.uleb128 0xb
 1486 0049 3B       		.uleb128 0x3b
 1487 004a 0B       		.uleb128 0xb
 1488 004b 49       		.uleb128 0x49
 1489 004c 13       		.uleb128 0x13
 1490 004d 00       		.byte	0x0
 1491 004e 00       		.byte	0x0
 1492 004f 08       		.uleb128 0x8
 1493 0050 13       		.uleb128 0x13
 1494 0051 01       		.byte	0x1
 1495 0052 03       		.uleb128 0x3
 1496 0053 0E       		.uleb128 0xe
 1497 0054 0B       		.uleb128 0xb
 1498 0055 0B       		.uleb128 0xb
 1499 0056 3A       		.uleb128 0x3a
 1500 0057 0B       		.uleb128 0xb
 1501 0058 3B       		.uleb128 0x3b
 1502 0059 0B       		.uleb128 0xb
 1503 005a 01       		.uleb128 0x1
 1504 005b 13       		.uleb128 0x13
 1505 005c 00       		.byte	0x0
 1506 005d 00       		.byte	0x0
 1507 005e 09       		.uleb128 0x9
 1508 005f 0D       		.uleb128 0xd
 1509 0060 00       		.byte	0x0
 1510 0061 03       		.uleb128 0x3
 1511 0062 0E       		.uleb128 0xe
 1512 0063 3A       		.uleb128 0x3a
 1513 0064 0B       		.uleb128 0xb
 1514 0065 3B       		.uleb128 0x3b
 1515 0066 0B       		.uleb128 0xb
 1516 0067 49       		.uleb128 0x49
 1517 0068 13       		.uleb128 0x13
 1518 0069 38       		.uleb128 0x38
 1519 006a 0A       		.uleb128 0xa
 1520 006b 00       		.byte	0x0
 1521 006c 00       		.byte	0x0
 1522 006d 0A       		.uleb128 0xa
 1523 006e 0D       		.uleb128 0xd
 1524 006f 00       		.byte	0x0
ARM GAS  C:\Users\DNIEL~1\AppData\Local\Temp\cccboLOw.s 			page 28


 1525 0070 03       		.uleb128 0x3
 1526 0071 08       		.uleb128 0x8
 1527 0072 3A       		.uleb128 0x3a
 1528 0073 0B       		.uleb128 0xb
 1529 0074 3B       		.uleb128 0x3b
 1530 0075 0B       		.uleb128 0xb
 1531 0076 49       		.uleb128 0x49
 1532 0077 13       		.uleb128 0x13
 1533 0078 38       		.uleb128 0x38
 1534 0079 0A       		.uleb128 0xa
 1535 007a 00       		.byte	0x0
 1536 007b 00       		.byte	0x0
 1537 007c 0B       		.uleb128 0xb
 1538 007d 13       		.uleb128 0x13
 1539 007e 01       		.byte	0x1
 1540 007f 0B       		.uleb128 0xb
 1541 0080 0B       		.uleb128 0xb
 1542 0081 3A       		.uleb128 0x3a
 1543 0082 0B       		.uleb128 0xb
 1544 0083 3B       		.uleb128 0x3b
 1545 0084 0B       		.uleb128 0xb
 1546 0085 01       		.uleb128 0x1
 1547 0086 13       		.uleb128 0x13
 1548 0087 00       		.byte	0x0
 1549 0088 00       		.byte	0x0
 1550 0089 0C       		.uleb128 0xc
 1551 008a 13       		.uleb128 0x13
 1552 008b 01       		.byte	0x1
 1553 008c 03       		.uleb128 0x3
 1554 008d 0E       		.uleb128 0xe
 1555 008e 0B       		.uleb128 0xb
 1556 008f 0B       		.uleb128 0xb
 1557 0090 3A       		.uleb128 0x3a
 1558 0091 0B       		.uleb128 0xb
 1559 0092 3B       		.uleb128 0x3b
 1560 0093 05       		.uleb128 0x5
 1561 0094 01       		.uleb128 0x1
 1562 0095 13       		.uleb128 0x13
 1563 0096 00       		.byte	0x0
 1564 0097 00       		.byte	0x0
 1565 0098 0D       		.uleb128 0xd
 1566 0099 0D       		.uleb128 0xd
 1567 009a 00       		.byte	0x0
 1568 009b 03       		.uleb128 0x3
 1569 009c 08       		.uleb128 0x8
 1570 009d 3A       		.uleb128 0x3a
 1571 009e 0B       		.uleb128 0xb
 1572 009f 3B       		.uleb128 0x3b
 1573 00a0 05       		.uleb128 0x5
 1574 00a1 49       		.uleb128 0x49
 1575 00a2 13       		.uleb128 0x13
 1576 00a3 38       		.uleb128 0x38
 1577 00a4 0A       		.uleb128 0xa
 1578 00a5 00       		.byte	0x0
 1579 00a6 00       		.byte	0x0
 1580 00a7 0E       		.uleb128 0xe
 1581 00a8 35       		.uleb128 0x35
ARM GAS  C:\Users\DNIEL~1\AppData\Local\Temp\cccboLOw.s 			page 29


 1582 00a9 00       		.byte	0x0
 1583 00aa 49       		.uleb128 0x49
 1584 00ab 13       		.uleb128 0x13
 1585 00ac 00       		.byte	0x0
 1586 00ad 00       		.byte	0x0
 1587 00ae 0F       		.uleb128 0xf
 1588 00af 15       		.uleb128 0x15
 1589 00b0 01       		.byte	0x1
 1590 00b1 27       		.uleb128 0x27
 1591 00b2 0C       		.uleb128 0xc
 1592 00b3 01       		.uleb128 0x1
 1593 00b4 13       		.uleb128 0x13
 1594 00b5 00       		.byte	0x0
 1595 00b6 00       		.byte	0x0
 1596 00b7 10       		.uleb128 0x10
 1597 00b8 05       		.uleb128 0x5
 1598 00b9 00       		.byte	0x0
 1599 00ba 49       		.uleb128 0x49
 1600 00bb 13       		.uleb128 0x13
 1601 00bc 00       		.byte	0x0
 1602 00bd 00       		.byte	0x0
 1603 00be 11       		.uleb128 0x11
 1604 00bf 17       		.uleb128 0x17
 1605 00c0 01       		.byte	0x1
 1606 00c1 0B       		.uleb128 0xb
 1607 00c2 0B       		.uleb128 0xb
 1608 00c3 3A       		.uleb128 0x3a
 1609 00c4 0B       		.uleb128 0xb
 1610 00c5 3B       		.uleb128 0x3b
 1611 00c6 0B       		.uleb128 0xb
 1612 00c7 01       		.uleb128 0x1
 1613 00c8 13       		.uleb128 0x13
 1614 00c9 00       		.byte	0x0
 1615 00ca 00       		.byte	0x0
 1616 00cb 12       		.uleb128 0x12
 1617 00cc 0D       		.uleb128 0xd
 1618 00cd 00       		.byte	0x0
 1619 00ce 03       		.uleb128 0x3
 1620 00cf 0E       		.uleb128 0xe
 1621 00d0 3A       		.uleb128 0x3a
 1622 00d1 0B       		.uleb128 0xb
 1623 00d2 3B       		.uleb128 0x3b
 1624 00d3 0B       		.uleb128 0xb
 1625 00d4 49       		.uleb128 0x49
 1626 00d5 13       		.uleb128 0x13
 1627 00d6 00       		.byte	0x0
 1628 00d7 00       		.byte	0x0
 1629 00d8 13       		.uleb128 0x13
 1630 00d9 0D       		.uleb128 0xd
 1631 00da 00       		.byte	0x0
 1632 00db 03       		.uleb128 0x3
 1633 00dc 08       		.uleb128 0x8
 1634 00dd 3A       		.uleb128 0x3a
 1635 00de 0B       		.uleb128 0xb
 1636 00df 3B       		.uleb128 0x3b
 1637 00e0 0B       		.uleb128 0xb
 1638 00e1 49       		.uleb128 0x49
ARM GAS  C:\Users\DNIEL~1\AppData\Local\Temp\cccboLOw.s 			page 30


 1639 00e2 13       		.uleb128 0x13
 1640 00e3 00       		.byte	0x0
 1641 00e4 00       		.byte	0x0
 1642 00e5 14       		.uleb128 0x14
 1643 00e6 01       		.uleb128 0x1
 1644 00e7 01       		.byte	0x1
 1645 00e8 49       		.uleb128 0x49
 1646 00e9 13       		.uleb128 0x13
 1647 00ea 01       		.uleb128 0x1
 1648 00eb 13       		.uleb128 0x13
 1649 00ec 00       		.byte	0x0
 1650 00ed 00       		.byte	0x0
 1651 00ee 15       		.uleb128 0x15
 1652 00ef 21       		.uleb128 0x21
 1653 00f0 00       		.byte	0x0
 1654 00f1 49       		.uleb128 0x49
 1655 00f2 13       		.uleb128 0x13
 1656 00f3 2F       		.uleb128 0x2f
 1657 00f4 0B       		.uleb128 0xb
 1658 00f5 00       		.byte	0x0
 1659 00f6 00       		.byte	0x0
 1660 00f7 16       		.uleb128 0x16
 1661 00f8 04       		.uleb128 0x4
 1662 00f9 01       		.byte	0x1
 1663 00fa 03       		.uleb128 0x3
 1664 00fb 0E       		.uleb128 0xe
 1665 00fc 0B       		.uleb128 0xb
 1666 00fd 0B       		.uleb128 0xb
 1667 00fe 3A       		.uleb128 0x3a
 1668 00ff 0B       		.uleb128 0xb
 1669 0100 3B       		.uleb128 0x3b
 1670 0101 0B       		.uleb128 0xb
 1671 0102 01       		.uleb128 0x1
 1672 0103 13       		.uleb128 0x13
 1673 0104 00       		.byte	0x0
 1674 0105 00       		.byte	0x0
 1675 0106 17       		.uleb128 0x17
 1676 0107 28       		.uleb128 0x28
 1677 0108 00       		.byte	0x0
 1678 0109 03       		.uleb128 0x3
 1679 010a 0E       		.uleb128 0xe
 1680 010b 1C       		.uleb128 0x1c
 1681 010c 0D       		.uleb128 0xd
 1682 010d 00       		.byte	0x0
 1683 010e 00       		.byte	0x0
 1684 010f 18       		.uleb128 0x18
 1685 0110 2E       		.uleb128 0x2e
 1686 0111 01       		.byte	0x1
 1687 0112 03       		.uleb128 0x3
 1688 0113 0E       		.uleb128 0xe
 1689 0114 3A       		.uleb128 0x3a
 1690 0115 0B       		.uleb128 0xb
 1691 0116 3B       		.uleb128 0x3b
 1692 0117 0B       		.uleb128 0xb
 1693 0118 27       		.uleb128 0x27
 1694 0119 0C       		.uleb128 0xc
 1695 011a 49       		.uleb128 0x49
ARM GAS  C:\Users\DNIEL~1\AppData\Local\Temp\cccboLOw.s 			page 31


 1696 011b 13       		.uleb128 0x13
 1697 011c 11       		.uleb128 0x11
 1698 011d 01       		.uleb128 0x1
 1699 011e 12       		.uleb128 0x12
 1700 011f 01       		.uleb128 0x1
 1701 0120 40       		.uleb128 0x40
 1702 0121 06       		.uleb128 0x6
 1703 0122 01       		.uleb128 0x1
 1704 0123 13       		.uleb128 0x13
 1705 0124 00       		.byte	0x0
 1706 0125 00       		.byte	0x0
 1707 0126 19       		.uleb128 0x19
 1708 0127 05       		.uleb128 0x5
 1709 0128 00       		.byte	0x0
 1710 0129 03       		.uleb128 0x3
 1711 012a 08       		.uleb128 0x8
 1712 012b 3A       		.uleb128 0x3a
 1713 012c 0B       		.uleb128 0xb
 1714 012d 3B       		.uleb128 0x3b
 1715 012e 0B       		.uleb128 0xb
 1716 012f 49       		.uleb128 0x49
 1717 0130 13       		.uleb128 0x13
 1718 0131 02       		.uleb128 0x2
 1719 0132 06       		.uleb128 0x6
 1720 0133 00       		.byte	0x0
 1721 0134 00       		.byte	0x0
 1722 0135 1A       		.uleb128 0x1a
 1723 0136 0B       		.uleb128 0xb
 1724 0137 01       		.byte	0x1
 1725 0138 55       		.uleb128 0x55
 1726 0139 06       		.uleb128 0x6
 1727 013a 00       		.byte	0x0
 1728 013b 00       		.byte	0x0
 1729 013c 1B       		.uleb128 0x1b
 1730 013d 34       		.uleb128 0x34
 1731 013e 00       		.byte	0x0
 1732 013f 03       		.uleb128 0x3
 1733 0140 0E       		.uleb128 0xe
 1734 0141 3A       		.uleb128 0x3a
 1735 0142 0B       		.uleb128 0xb
 1736 0143 3B       		.uleb128 0x3b
 1737 0144 0B       		.uleb128 0xb
 1738 0145 49       		.uleb128 0x49
 1739 0146 13       		.uleb128 0x13
 1740 0147 00       		.byte	0x0
 1741 0148 00       		.byte	0x0
 1742 0149 1C       		.uleb128 0x1c
 1743 014a 34       		.uleb128 0x34
 1744 014b 00       		.byte	0x0
 1745 014c 03       		.uleb128 0x3
 1746 014d 0E       		.uleb128 0xe
 1747 014e 3A       		.uleb128 0x3a
 1748 014f 0B       		.uleb128 0xb
 1749 0150 3B       		.uleb128 0x3b
 1750 0151 0B       		.uleb128 0xb
 1751 0152 49       		.uleb128 0x49
 1752 0153 13       		.uleb128 0x13
ARM GAS  C:\Users\DNIEL~1\AppData\Local\Temp\cccboLOw.s 			page 32


 1753 0154 02       		.uleb128 0x2
 1754 0155 06       		.uleb128 0x6
 1755 0156 00       		.byte	0x0
 1756 0157 00       		.byte	0x0
 1757 0158 1D       		.uleb128 0x1d
 1758 0159 2E       		.uleb128 0x2e
 1759 015a 00       		.byte	0x0
 1760 015b 3F       		.uleb128 0x3f
 1761 015c 0C       		.uleb128 0xc
 1762 015d 03       		.uleb128 0x3
 1763 015e 0E       		.uleb128 0xe
 1764 015f 3A       		.uleb128 0x3a
 1765 0160 0B       		.uleb128 0xb
 1766 0161 3B       		.uleb128 0x3b
 1767 0162 0B       		.uleb128 0xb
 1768 0163 27       		.uleb128 0x27
 1769 0164 0C       		.uleb128 0xc
 1770 0165 49       		.uleb128 0x49
 1771 0166 13       		.uleb128 0x13
 1772 0167 11       		.uleb128 0x11
 1773 0168 01       		.uleb128 0x1
 1774 0169 12       		.uleb128 0x12
 1775 016a 01       		.uleb128 0x1
 1776 016b 40       		.uleb128 0x40
 1777 016c 06       		.uleb128 0x6
 1778 016d 00       		.byte	0x0
 1779 016e 00       		.byte	0x0
 1780 016f 1E       		.uleb128 0x1e
 1781 0170 34       		.uleb128 0x34
 1782 0171 00       		.byte	0x0
 1783 0172 03       		.uleb128 0x3
 1784 0173 0E       		.uleb128 0xe
 1785 0174 3A       		.uleb128 0x3a
 1786 0175 0B       		.uleb128 0xb
 1787 0176 3B       		.uleb128 0x3b
 1788 0177 0B       		.uleb128 0xb
 1789 0178 49       		.uleb128 0x49
 1790 0179 13       		.uleb128 0x13
 1791 017a 3F       		.uleb128 0x3f
 1792 017b 0C       		.uleb128 0xc
 1793 017c 3C       		.uleb128 0x3c
 1794 017d 0C       		.uleb128 0xc
 1795 017e 00       		.byte	0x0
 1796 017f 00       		.byte	0x0
 1797 0180 1F       		.uleb128 0x1f
 1798 0181 34       		.uleb128 0x34
 1799 0182 00       		.byte	0x0
 1800 0183 03       		.uleb128 0x3
 1801 0184 0E       		.uleb128 0xe
 1802 0185 3A       		.uleb128 0x3a
 1803 0186 0B       		.uleb128 0xb
 1804 0187 3B       		.uleb128 0x3b
 1805 0188 05       		.uleb128 0x5
 1806 0189 49       		.uleb128 0x49
 1807 018a 13       		.uleb128 0x13
 1808 018b 3F       		.uleb128 0x3f
 1809 018c 0C       		.uleb128 0xc
ARM GAS  C:\Users\DNIEL~1\AppData\Local\Temp\cccboLOw.s 			page 33


 1810 018d 3C       		.uleb128 0x3c
 1811 018e 0C       		.uleb128 0xc
 1812 018f 00       		.byte	0x0
 1813 0190 00       		.byte	0x0
 1814 0191 20       		.uleb128 0x20
 1815 0192 34       		.uleb128 0x34
 1816 0193 00       		.byte	0x0
 1817 0194 03       		.uleb128 0x3
 1818 0195 0E       		.uleb128 0xe
 1819 0196 3A       		.uleb128 0x3a
 1820 0197 0B       		.uleb128 0xb
 1821 0198 3B       		.uleb128 0x3b
 1822 0199 0B       		.uleb128 0xb
 1823 019a 49       		.uleb128 0x49
 1824 019b 13       		.uleb128 0x13
 1825 019c 02       		.uleb128 0x2
 1826 019d 0A       		.uleb128 0xa
 1827 019e 00       		.byte	0x0
 1828 019f 00       		.byte	0x0
 1829 01a0 00       		.byte	0x0
 1830              		.section	.debug_pubnames,"",%progbits
 1831 0000 17000000 		.4byte	0x17
 1832 0004 0200     		.2byte	0x2
 1833 0006 00000000 		.4byte	.Ldebug_info0
 1834 000a EE070000 		.4byte	0x7ee
 1835 000e 37070000 		.4byte	0x737
 1836 0012 6D61696E 		.ascii	"main\000"
 1836      00
 1837 0017 00000000 		.4byte	0x0
 1838              		.section	.debug_pubtypes,"",%progbits
 1839 0000 BF010000 		.4byte	0x1bf
 1840 0004 0200     		.2byte	0x2
 1841 0006 00000000 		.4byte	.Ldebug_info0
 1842 000a EE070000 		.4byte	0x7ee
 1843 000e 83000000 		.4byte	0x83
 1844 0012 75696E74 		.ascii	"uint8_t\000"
 1844      385F7400 
 1845 001a 8E000000 		.4byte	0x8e
 1846 001e 75696E74 		.ascii	"uint16_t\000"
 1846      31365F74 
 1846      00
 1847 0027 99000000 		.4byte	0x99
 1848 002b 696E7433 		.ascii	"int32_t\000"
 1848      325F7400 
 1849 0033 A4000000 		.4byte	0xa4
 1850 0037 75696E74 		.ascii	"uint32_t\000"
 1850      33325F74 
 1850      00
 1851 0040 AF000000 		.4byte	0xaf
 1852 0044 75696E74 		.ascii	"uint64_t\000"
 1852      36345F74 
 1852      00
 1853 004d C1000000 		.4byte	0xc1
 1854 0051 746D6F64 		.ascii	"tmode_t\000"
 1854      655F7400 
 1855 0059 CC000000 		.4byte	0xcc
 1856 005d 74737461 		.ascii	"tstate_t\000"
ARM GAS  C:\Users\DNIEL~1\AppData\Local\Temp\cccboLOw.s 			page 34


 1856      74655F74 
 1856      00
 1857 0066 D7000000 		.4byte	0xd7
 1858 006a 74726566 		.ascii	"trefs_t\000"
 1858      735F7400 
 1859 0072 E2000000 		.4byte	0xe2
 1860 0076 74736C69 		.ascii	"tslices_t\000"
 1860      6365735F 
 1860      7400
 1861 0080 ED000000 		.4byte	0xed
 1862 0084 74707269 		.ascii	"tprio_t\000"
 1862      6F5F7400 
 1863 008c F8000000 		.4byte	0xf8
 1864 0090 6D73675F 		.ascii	"msg_t\000"
 1864      7400
 1865 0096 03010000 		.4byte	0x103
 1866 009a 6576656E 		.ascii	"eventmask_t\000"
 1866      746D6173 
 1866      6B5F7400 
 1867 00a6 0E010000 		.4byte	0x10e
 1868 00aa 73797374 		.ascii	"systime_t\000"
 1868      696D655F 
 1868      7400
 1869 00b4 19010000 		.4byte	0x119
 1870 00b8 54687265 		.ascii	"Thread\000"
 1870      616400
 1871 00bf 74020000 		.4byte	0x274
 1872 00c3 54687265 		.ascii	"ThreadsQueue\000"
 1872      61647351 
 1872      75657565 
 1872      00
 1873 00d0 96020000 		.4byte	0x296
 1874 00d4 54687265 		.ascii	"ThreadsList\000"
 1874      6164734C 
 1874      69737400 
 1875 00e0 A1020000 		.4byte	0x2a1
 1876 00e4 72656761 		.ascii	"regarm_t\000"
 1876      726D5F74 
 1876      00
 1877 00ed AC020000 		.4byte	0x2ac
 1878 00f1 73746B61 		.ascii	"stkalign_t\000"
 1878      6C69676E 
 1878      5F7400
 1879 00fc B7020000 		.4byte	0x2b7
 1880 0100 696E7463 		.ascii	"intctx\000"
 1880      747800
 1881 0107 45030000 		.4byte	0x345
 1882 010b 636F6E74 		.ascii	"context\000"
 1882      65787400 
 1883 0113 6D030000 		.4byte	0x36d
 1884 0117 76746675 		.ascii	"vtfunc_t\000"
 1884      6E635F74 
 1884      00
 1885 0120 8A030000 		.4byte	0x38a
 1886 0124 56697274 		.ascii	"VirtualTimer\000"
 1886      75616C54 
 1886      696D6572 
ARM GAS  C:\Users\DNIEL~1\AppData\Local\Temp\cccboLOw.s 			page 35


 1886      00
 1887 0131 95030000 		.4byte	0x395
 1888 0135 56697274 		.ascii	"VirtualTimer\000"
 1888      75616C54 
 1888      696D6572 
 1888      00
 1889 0142 34040000 		.4byte	0x434
 1890 0146 56544C69 		.ascii	"VTList\000"
 1890      737400
 1891 014d 9C040000 		.4byte	0x49c
 1892 0151 52656164 		.ascii	"ReadyList\000"
 1892      794C6973 
 1892      7400
 1893 015b A7040000 		.4byte	0x4a7
 1894 015f 4D757465 		.ascii	"Mutex\000"
 1894      7800
 1895 0165 E4040000 		.4byte	0x4e4
 1896 0169 4D757465 		.ascii	"Mutex\000"
 1896      7800
 1897 016f 24010000 		.4byte	0x124
 1898 0173 54687265 		.ascii	"Thread\000"
 1898      616400
 1899 017a 09060000 		.4byte	0x609
 1900 017e 4750494F 		.ascii	"GPIO_TypeDef\000"
 1900      5F547970 
 1900      65446566 
 1900      00
 1901 018b 14060000 		.4byte	0x614
 1902 018f 696F706F 		.ascii	"ioportmask_t\000"
 1902      72746D61 
 1902      736B5F74 
 1902      00
 1903 019c 2F060000 		.4byte	0x62f
 1904 01a0 65657072 		.ascii	"eepromItemNames\000"
 1904      6F6D4974 
 1904      656D4E61 
 1904      6D657300 
 1905 01b0 66060000 		.4byte	0x666
 1906 01b4 65657072 		.ascii	"eepromItem\000"
 1906      6F6D4974 
 1906      656D00
 1907 01bf 00000000 		.4byte	0x0
 1908              		.section	.debug_aranges,"",%progbits
 1909 0000 2C000000 		.4byte	0x2c
 1910 0004 0200     		.2byte	0x2
 1911 0006 00000000 		.4byte	.Ldebug_info0
 1912 000a 04       		.byte	0x4
 1913 000b 00       		.byte	0x0
 1914 000c 0000     		.2byte	0x0
 1915 000e 0000     		.2byte	0x0
 1916 0010 00000000 		.4byte	.LFB119
 1917 0014 40000000 		.4byte	.LFE119-.LFB119
 1918 0018 00000000 		.4byte	.LFB120
 1919 001c 40000000 		.4byte	.LFE120-.LFB120
 1920 0020 00000000 		.4byte	.LFB121
 1921 0024 90000000 		.4byte	.LFE121-.LFB121
 1922 0028 00000000 		.4byte	0x0
ARM GAS  C:\Users\DNIEL~1\AppData\Local\Temp\cccboLOw.s 			page 36


 1923 002c 00000000 		.4byte	0x0
 1924              		.section	.debug_ranges,"",%progbits
 1925              	.Ldebug_ranges0:
 1926 0000 08000000 		.4byte	.LBB2
 1927 0004 0A000000 		.4byte	.LBE2
 1928 0008 0E000000 		.4byte	.LBB3
 1929 000c 40000000 		.4byte	.LBE3
 1930 0010 00000000 		.4byte	0x0
 1931 0014 00000000 		.4byte	0x0
 1932 0018 00000000 		.4byte	.LFB119
 1933 001c 40000000 		.4byte	.LFE119
 1934 0020 00000000 		.4byte	.LFB120
 1935 0024 40000000 		.4byte	.LFE120
 1936 0028 00000000 		.4byte	.LFB121
 1937 002c 90000000 		.4byte	.LFE121
 1938 0030 00000000 		.4byte	0x0
 1939 0034 00000000 		.4byte	0x0
 1940              		.section	.debug_str,"MS",%progbits,1
 1941              	.LASF109:
 1942 0000 7372632F 		.ascii	"src/main.c\000"
 1942      6D61696E 
 1942      2E6300
 1943              	.LASF70:
 1944 000b 7264796D 		.ascii	"rdymsg\000"
 1944      736700
 1945              	.LASF14:
 1946 0012 75696E74 		.ascii	"uint64_t\000"
 1946      36345F74 
 1946      00
 1947              	.LASF76:
 1948 001b 4F545950 		.ascii	"OTYPER\000"
 1948      455200
 1949              	.LASF101:
 1950 0022 76746C69 		.ascii	"vtlist\000"
 1950      737400
 1951              	.LASF84:
 1952 0029 696F706F 		.ascii	"ioportmask_t\000"
 1952      72746D61 
 1952      736B5F74 
 1952      00
 1953              	.LASF75:
 1954 0036 4D4F4445 		.ascii	"MODER\000"
 1954      5200
 1955              	.LASF44:
 1956 003c 54687265 		.ascii	"ThreadsQueue\000"
 1956      61647351 
 1956      75657565 
 1956      00
 1957              	.LASF78:
 1958 0049 50555044 		.ascii	"PUPDR\000"
 1958      5200
 1959              	.LASF71:
 1960 004f 65786974 		.ascii	"exitcode\000"
 1960      636F6465 
 1960      00
 1961              	.LASF103:
 1962 0058 49544D5F 		.ascii	"ITM_RxBuffer\000"
ARM GAS  C:\Users\DNIEL~1\AppData\Local\Temp\cccboLOw.s 			page 37


 1962      52784275 
 1962      66666572 
 1962      00
 1963              	.LASF27:
 1964 0065 705F7072 		.ascii	"p_prio\000"
 1964      696F00
 1965              	.LASF5:
 1966 006c 6C6F6E67 		.ascii	"long long int\000"
 1966      206C6F6E 
 1966      6720696E 
 1966      7400
 1967              	.LASF1:
 1968 007a 7369676E 		.ascii	"signed char\000"
 1968      65642063 
 1968      68617200 
 1969              	.LASF79:
 1970 0086 42535252 		.ascii	"BSRR\000"
 1970      00
 1971              	.LASF8:
 1972 008b 6C6F6E67 		.ascii	"long unsigned int\000"
 1972      20756E73 
 1972      69676E65 
 1972      6420696E 
 1972      7400
 1973              	.LASF43:
 1974 009d 705F6D70 		.ascii	"p_mpool\000"
 1974      6F6F6C00 
 1975              	.LASF6:
 1976 00a5 6C6F6E67 		.ascii	"long long unsigned int\000"
 1976      206C6F6E 
 1976      6720756E 
 1976      7369676E 
 1976      65642069 
 1977              	.LASF67:
 1978 00bc 6D5F7175 		.ascii	"m_queue\000"
 1978      65756500 
 1979              	.LASF19:
 1980 00c4 74736C69 		.ascii	"tslices_t\000"
 1980      6365735F 
 1980      7400
 1981              	.LASF100:
 1982 00ce 7461736B 		.ascii	"task20ms\000"
 1982      32306D73 
 1982      00
 1983              	.LASF7:
 1984 00d7 6C6F6E67 		.ascii	"long int\000"
 1984      20696E74 
 1984      00
 1985              	.LASF17:
 1986 00e0 74737461 		.ascii	"tstate_t\000"
 1986      74655F74 
 1986      00
 1987              	.LASF11:
 1988 00e9 75696E74 		.ascii	"uint16_t\000"
 1988      31365F74 
 1988      00
 1989              	.LASF96:
ARM GAS  C:\Users\DNIEL~1\AppData\Local\Temp\cccboLOw.s 			page 38


 1990 00f2 646F7562 		.ascii	"double\000"
 1990      6C6500
 1991              	.LASF29:
 1992 00f9 705F6E65 		.ascii	"p_newer\000"
 1992      77657200 
 1993              	.LASF77:
 1994 0101 4F535045 		.ascii	"OSPEEDR\000"
 1994      45445200 
 1995              	.LASF62:
 1996 0109 725F6E65 		.ascii	"r_newer\000"
 1996      77657200 
 1997              	.LASF46:
 1998 0111 72656761 		.ascii	"regarm_t\000"
 1998      726D5F74 
 1998      00
 1999              	.LASF53:
 2000 011a 76745F70 		.ascii	"vt_prev\000"
 2000      72657600 
 2001              	.LASF0:
 2002 0122 756E7369 		.ascii	"unsigned int\000"
 2002      676E6564 
 2002      20696E74 
 2002      00
 2003              	.LASF38:
 2004 012f 705F6D73 		.ascii	"p_msgqueue\000"
 2004      67717565 
 2004      756500
 2005              	.LASF90:
 2006 013a 4C415354 		.ascii	"LAST_ITEM\000"
 2006      5F495445 
 2006      4D00
 2007              	.LASF52:
 2008 0144 76745F6E 		.ascii	"vt_next\000"
 2008      65787400 
 2009              	.LASF83:
 2010 014c 4750494F 		.ascii	"GPIO_TypeDef\000"
 2010      5F547970 
 2010      65446566 
 2010      00
 2011              	.LASF80:
 2012 0159 4C434B52 		.ascii	"LCKR\000"
 2012      00
 2013              	.LASF95:
 2014 015e 6E616D65 		.ascii	"name\000"
 2014      00
 2015              	.LASF51:
 2016 0163 56697274 		.ascii	"VirtualTimer\000"
 2016      75616C54 
 2016      696D6572 
 2016      00
 2017              	.LASF105:
 2018 0170 65657072 		.ascii	"eepromitems\000"
 2018      6F6D6974 
 2018      656D7300 
 2019              	.LASF49:
 2020 017c 636F6E74 		.ascii	"context\000"
 2020      65787400 
ARM GAS  C:\Users\DNIEL~1\AppData\Local\Temp\cccboLOw.s 			page 39


 2021              	.LASF94:
 2022 0184 73697A65 		.ascii	"size\000"
 2022      00
 2023              	.LASF4:
 2024 0189 73686F72 		.ascii	"short unsigned int\000"
 2024      7420756E 
 2024      7369676E 
 2024      65642069 
 2024      6E7400
 2025              	.LASF21:
 2026 019c 6D73675F 		.ascii	"msg_t\000"
 2026      7400
 2027              	.LASF16:
 2028 01a2 746D6F64 		.ascii	"tmode_t\000"
 2028      655F7400 
 2029              	.LASF45:
 2030 01aa 54687265 		.ascii	"ThreadsList\000"
 2030      6164734C 
 2030      69737400 
 2031              	.LASF22:
 2032 01b6 6576656E 		.ascii	"eventmask_t\000"
 2032      746D6173 
 2032      6B5F7400 
 2033              	.LASF66:
 2034 01c2 4D757465 		.ascii	"Mutex\000"
 2034      7800
 2035              	.LASF47:
 2036 01c8 73746B61 		.ascii	"stkalign_t\000"
 2036      6C69676E 
 2036      5F7400
 2037              	.LASF99:
 2038 01d3 54687265 		.ascii	"Thread1\000"
 2038      61643100 
 2039              	.LASF54:
 2040 01db 76745F74 		.ascii	"vt_time\000"
 2040      696D6500 
 2041              	.LASF74:
 2042 01e3 636C6561 		.ascii	"clear\000"
 2042      7200
 2043              	.LASF55:
 2044 01e9 76745F66 		.ascii	"vt_func\000"
 2044      756E6300 
 2045              	.LASF93:
 2046 01f1 61646472 		.ascii	"address\000"
 2046      65737300 
 2047              	.LASF91:
 2048 01f9 45455052 		.ascii	"EEPROM_ITEMS_NUM\000"
 2048      4F4D5F49 
 2048      54454D53 
 2048      5F4E554D 
 2048      00
 2049              	.LASF61:
 2050 020a 725F6374 		.ascii	"r_ctx\000"
 2050      7800
 2051              	.LASF104:
 2052 0210 74696D65 		.ascii	"time\000"
 2052      00
ARM GAS  C:\Users\DNIEL~1\AppData\Local\Temp\cccboLOw.s 			page 40


 2053              	.LASF64:
 2054 0215 725F6375 		.ascii	"r_current\000"
 2054      7272656E 
 2054      7400
 2055              	.LASF63:
 2056 021f 725F6F6C 		.ascii	"r_older\000"
 2056      64657200 
 2057              	.LASF82:
 2058 0227 41465248 		.ascii	"AFRH\000"
 2058      00
 2059              	.LASF97:
 2060 022c 666C6F61 		.ascii	"float\000"
 2060      7400
 2061              	.LASF81:
 2062 0232 4146524C 		.ascii	"AFRL\000"
 2062      00
 2063              	.LASF106:
 2064 0237 77615468 		.ascii	"waThread1\000"
 2064      72656164 
 2064      3100
 2065              	.LASF18:
 2066 0241 74726566 		.ascii	"trefs_t\000"
 2066      735F7400 
 2067              	.LASF26:
 2068 0249 705F7072 		.ascii	"p_prev\000"
 2068      657600
 2069              	.LASF111:
 2070 0250 65657072 		.ascii	"eepromItemNames\000"
 2070      6F6D4974 
 2070      656D4E61 
 2070      6D657300 
 2071              	.LASF20:
 2072 0260 74707269 		.ascii	"tprio_t\000"
 2072      6F5F7400 
 2073              	.LASF88:
 2074 0268 4D494E5F 		.ascii	"MIN_REGEN_BRAKE\000"
 2074      52454745 
 2074      4E5F4252 
 2074      414B4500 
 2075              	.LASF15:
 2076 0278 5F426F6F 		.ascii	"_Bool\000"
 2076      6C00
 2077              	.LASF12:
 2078 027e 696E7433 		.ascii	"int32_t\000"
 2078      325F7400 
 2079              	.LASF2:
 2080 0286 756E7369 		.ascii	"unsigned char\000"
 2080      676E6564 
 2080      20636861 
 2080      7200
 2081              	.LASF110:
 2082 0294 433A5C44 		.ascii	"C:\\Dani\\MegaLux\\Repo\\Smarty\\Smarty\\smarty\\fi"
 2082      616E695C 
 2082      4D656761 
 2082      4C75785C 
 2082      5265706F 
 2083 02c0 726D7761 		.ascii	"rmware\000"
ARM GAS  C:\Users\DNIEL~1\AppData\Local\Temp\cccboLOw.s 			page 41


 2083      726500
 2084              	.LASF86:
 2085 02c7 4D494E5F 		.ascii	"MIN_THROTTLE\000"
 2085      5448524F 
 2085      54544C45 
 2085      00
 2086              	.LASF41:
 2087 02d4 705F6D74 		.ascii	"p_mtxlist\000"
 2087      786C6973 
 2087      7400
 2088              	.LASF3:
 2089 02de 73686F72 		.ascii	"short int\000"
 2089      7420696E 
 2089      7400
 2090              	.LASF32:
 2091 02e8 705F7374 		.ascii	"p_state\000"
 2091      61746500 
 2092              	.LASF35:
 2093 02f0 705F7072 		.ascii	"p_preempt\000"
 2093      65656D70 
 2093      7400
 2094              	.LASF30:
 2095 02fa 705F6F6C 		.ascii	"p_older\000"
 2095      64657200 
 2096              	.LASF60:
 2097 0302 725F7072 		.ascii	"r_prio\000"
 2097      696F00
 2098              	.LASF73:
 2099 0309 65776D61 		.ascii	"ewmask\000"
 2099      736B00
 2100              	.LASF25:
 2101 0310 705F6E65 		.ascii	"p_next\000"
 2101      787400
 2102              	.LASF33:
 2103 0317 705F666C 		.ascii	"p_flags\000"
 2103      61677300 
 2104              	.LASF24:
 2105 031f 54687265 		.ascii	"Thread\000"
 2105      616400
 2106              	.LASF40:
 2107 0326 705F6570 		.ascii	"p_epending\000"
 2107      656E6469 
 2107      6E6700
 2108              	.LASF13:
 2109 0331 75696E74 		.ascii	"uint32_t\000"
 2109      33325F74 
 2109      00
 2110              	.LASF59:
 2111 033a 725F7175 		.ascii	"r_queue\000"
 2111      65756500 
 2112              	.LASF57:
 2113 0342 76745F73 		.ascii	"vt_systime\000"
 2113      79737469 
 2113      6D6500
 2114              	.LASF98:
 2115 034d 6C6F6E67 		.ascii	"long double\000"
 2115      20646F75 
ARM GAS  C:\Users\DNIEL~1\AppData\Local\Temp\cccboLOw.s 			page 42


 2115      626C6500 
 2116              	.LASF9:
 2117 0359 63686172 		.ascii	"char\000"
 2117      00
 2118              	.LASF85:
 2119 035e 43525549 		.ascii	"CRUISE_CONTROLL\000"
 2119      53455F43 
 2119      4F4E5452 
 2119      4F4C4C00 
 2120              	.LASF69:
 2121 036e 6D5F6E65 		.ascii	"m_next\000"
 2121      787400
 2122              	.LASF23:
 2123 0375 73797374 		.ascii	"systime_t\000"
 2123      696D655F 
 2123      7400
 2124              	.LASF42:
 2125 037f 705F7265 		.ascii	"p_realprio\000"
 2125      616C7072 
 2125      696F00
 2126              	.LASF50:
 2127 038a 76746675 		.ascii	"vtfunc_t\000"
 2127      6E635F74 
 2127      00
 2128              	.LASF107:
 2129 0393 77617461 		.ascii	"watask20ms\000"
 2129      736B3230 
 2129      6D7300
 2130              	.LASF36:
 2131 039e 705F7469 		.ascii	"p_time\000"
 2131      6D6500
 2132              	.LASF92:
 2133 03a5 65657072 		.ascii	"eepromItem\000"
 2133      6F6D4974 
 2133      656D00
 2134              	.LASF48:
 2135 03b0 696E7463 		.ascii	"intctx\000"
 2135      747800
 2136              	.LASF89:
 2137 03b7 4D41585F 		.ascii	"MAX_REGEN_BRAKE\000"
 2137      52454745 
 2137      4E5F4252 
 2137      414B4500 
 2138              	.LASF56:
 2139 03c7 76745F70 		.ascii	"vt_par\000"
 2139      617200
 2140              	.LASF34:
 2141 03ce 705F7265 		.ascii	"p_refs\000"
 2141      667300
 2142              	.LASF65:
 2143 03d5 52656164 		.ascii	"ReadyList\000"
 2143      794C6973 
 2143      7400
 2144              	.LASF102:
 2145 03df 726C6973 		.ascii	"rlist\000"
 2145      7400
 2146              	.LASF87:
ARM GAS  C:\Users\DNIEL~1\AppData\Local\Temp\cccboLOw.s 			page 43


 2147 03e5 4D41585F 		.ascii	"MAX_THROTTLE\000"
 2147      5448524F 
 2147      54544C45 
 2147      00
 2148              	.LASF10:
 2149 03f2 75696E74 		.ascii	"uint8_t\000"
 2149      385F7400 
 2150              	.LASF72:
 2151 03fa 77746F62 		.ascii	"wtobjp\000"
 2151      6A7000
 2152              	.LASF108:
 2153 0401 474E5520 		.ascii	"GNU C 4.5.2\000"
 2153      4320342E 
 2153      352E3200 
 2154              	.LASF31:
 2155 040d 705F6E61 		.ascii	"p_name\000"
 2155      6D6500
 2156              	.LASF39:
 2157 0414 705F6D73 		.ascii	"p_msg\000"
 2157      6700
 2158              	.LASF58:
 2159 041a 56544C69 		.ascii	"VTList\000"
 2159      737400
 2160              	.LASF112:
 2161 0421 6D61696E 		.ascii	"main\000"
 2161      00
 2162              	.LASF68:
 2163 0426 6D5F6F77 		.ascii	"m_owner\000"
 2163      6E657200 
 2164              	.LASF28:
 2165 042e 705F6374 		.ascii	"p_ctx\000"
 2165      7800
 2166              	.LASF37:
 2167 0434 705F7761 		.ascii	"p_waiting\000"
 2167      6974696E 
 2167      6700
 2168              		.ident	"GCC: (Sourcery G++ Lite 2011.03-42) 4.5.2"
ARM GAS  C:\Users\DNIEL~1\AppData\Local\Temp\cccboLOw.s 			page 44


DEFINED SYMBOLS
                            *ABS*:00000000 main.c
C:\Users\DNIEL~1\AppData\Local\Temp\cccboLOw.s:24     .text.Thread1:00000000 $t
C:\Users\DNIEL~1\AppData\Local\Temp\cccboLOw.s:29     .text.Thread1:00000000 Thread1
C:\Users\DNIEL~1\AppData\Local\Temp\cccboLOw.s:84     .text.Thread1:00000034 $d
C:\Users\DNIEL~1\AppData\Local\Temp\cccboLOw.s:92     .text.task20ms:00000000 $t
C:\Users\DNIEL~1\AppData\Local\Temp\cccboLOw.s:97     .text.task20ms:00000000 task20ms
C:\Users\DNIEL~1\AppData\Local\Temp\cccboLOw.s:147    .text.task20ms:00000034 $d
C:\Users\DNIEL~1\AppData\Local\Temp\cccboLOw.s:154    .text.main:00000000 $t
C:\Users\DNIEL~1\AppData\Local\Temp\cccboLOw.s:160    .text.main:00000000 main
C:\Users\DNIEL~1\AppData\Local\Temp\cccboLOw.s:235    .text.main:0000007c $d
C:\Users\DNIEL~1\AppData\Local\Temp\cccboLOw.s:244    .bss.waThread1:00000000 $d
C:\Users\DNIEL~1\AppData\Local\Temp\cccboLOw.s:248    .bss.waThread1:00000000 waThread1
C:\Users\DNIEL~1\AppData\Local\Temp\cccboLOw.s:251    .bss.watask20ms:00000000 $d
C:\Users\DNIEL~1\AppData\Local\Temp\cccboLOw.s:255    .bss.watask20ms:00000000 watask20ms
C:\Users\DNIEL~1\AppData\Local\Temp\cccboLOw.s:258    .rodata.str1.4:00000000 $d
                     .debug_frame:00000010 $d

UNDEFINED SYMBOLS
chThdSleep
sdcardIsMounted
rlist
logCalc
lightCalc
measCalc
cruiseCalc
buttonCalc
mainTime
chThdSleepUntil
vtlist
halInit
chSysInit
sdcardInit
logInit
consoleInit
eepromInit
can_commInit
uart_commInit
lightInit
speedInit
measInit
cruiseInit
dspInit
buttonInit
chThdCreateStatic
consoleStart
