ARM GAS  C:\Users\srich\AppData\Local\Temp\cc8AEU99.s 			page 1


   1              		.syntax unified
   2              		.cpu cortex-m4
   3              		.fpu softvfp
   4              		.eabi_attribute 20, 1
   5              		.eabi_attribute 21, 1
   6              		.eabi_attribute 23, 3
   7              		.eabi_attribute 24, 1
   8              		.eabi_attribute 25, 1
   9              		.eabi_attribute 26, 1
  10              		.eabi_attribute 30, 2
  11              		.eabi_attribute 34, 1
  12              		.eabi_attribute 18, 4
  13              		.thumb
  14              		.file	"main.c"
  15              		.text
  16              	.Ltext0:
  17              		.cfi_sections	.debug_frame
  18              		.section	.text.Thread1,"ax",%progbits
  19              		.align	2
  20              		.p2align 4,,15
  21              		.thumb
  22              		.thumb_func
  23              		.type	Thread1, %function
  24              	Thread1:
  25              	.LFB119:
  26              		.file 1 "src/main.c"
  27              		.loc 1 39 0
  28              		.cfi_startproc
  29              		@ args = 0, pretend = 0, frame = 0
  30              		@ frame_needed = 0, uses_anonymous_args = 0
  31              	.LVL0:
  32 0000 F8B5     		push	{r3, r4, r5, r6, r7, lr}
  33              		.cfi_def_cfa_offset 24
  34              		.cfi_offset 3, -24
  35              		.cfi_offset 4, -20
  36              		.cfi_offset 5, -16
  37              		.cfi_offset 6, -12
  38              		.cfi_offset 7, -8
  39              		.cfi_offset 14, -4
  40              		.loc 1 42 0
  41 0002 0E4B     		ldr	r3, .L8
  42 0004 0E4A     		ldr	r2, .L8+4
  43 0006 9B69     		ldr	r3, [r3, #24]
  44              	.LBB2:
  45              		.loc 1 46 0
  46 0008 0E4F     		ldr	r7, .L8+8
  47              		.loc 1 58 0
  48 000a 0F4E     		ldr	r6, .L8+12
  49              	.LBE2:
  50              		.loc 1 42 0
  51 000c 9A61     		str	r2, [r3, #24]
  52 000e 0AE0     		b	.L3
  53              	.LVL1:
  54              	.L4:
  55              	.LBB3:
  56 0010 4FF47A74 		mov	r4, #1000
  57              	.L2:
ARM GAS  C:\Users\srich\AppData\Local\Temp\cc8AEU99.s 			page 2


  58              		.loc 1 58 0
  59 0014 0125     		movs	r5, #1
  60              		.loc 1 59 0
  61 0016 2046     		mov	r0, r4
  62              		.loc 1 58 0
  63 0018 7583     		strh	r5, [r6, #26]	@ movhi
  64              		.loc 1 59 0
  65 001a FFF7FEFF 		bl	chThdSleep
  66              	.LVL2:
  67              		.loc 1 60 0
  68 001e 3583     		strh	r5, [r6, #24]	@ movhi
  69              		.loc 1 61 0
  70 0020 2046     		mov	r0, r4
  71 0022 FFF7FEFF 		bl	chThdSleep
  72              	.LVL3:
  73              	.L3:
  74              		.loc 1 46 0
  75 0026 3B69     		ldr	r3, [r7, #16]
  76 0028 1B07     		lsls	r3, r3, #28
  77 002a F1D4     		bmi	.L4
  78              		.loc 1 47 0
  79 002c FFF7FEFF 		bl	sdcardIsMounted
  80              	.LVL4:
  81 0030 0028     		cmp	r0, #0
  82 0032 14BF     		ite	ne
  83 0034 FA24     		movne	r4, #250
  84 0036 3224     		moveq	r4, #50
  85 0038 ECE7     		b	.L2
  86              	.L9:
  87 003a 00BF     		.align	2
  88              	.L8:
  89 003c 00000000 		.word	rlist
  90 0040 00000000 		.word	.LC0
  91 0044 000C0240 		.word	1073875968
  92 0048 00000240 		.word	1073872896
  93              	.LBE3:
  94              		.cfi_endproc
  95              	.LFE119:
  96              		.size	Thread1, .-Thread1
  97              		.section	.text.task20ms,"ax",%progbits
  98              		.align	2
  99              		.p2align 4,,15
 100              		.thumb
 101              		.thumb_func
 102              		.type	task20ms, %function
 103              	task20ms:
 104              	.LFB120:
 105              		.loc 1 70 0
 106              		.cfi_startproc
 107              		@ args = 0, pretend = 0, frame = 0
 108              		@ frame_needed = 0, uses_anonymous_args = 0
 109              	.LVL5:
 110              		.loc 1 76 0
 111 0000 0C4B     		ldr	r3, .L13
 112              		.loc 1 77 0
 113 0002 0D49     		ldr	r1, .L13+4
 114              		.loc 1 76 0
ARM GAS  C:\Users\srich\AppData\Local\Temp\cc8AEU99.s 			page 3


 115 0004 9B69     		ldr	r3, [r3, #24]
 116 0006 0D4A     		ldr	r2, .L13+8
 117              		.loc 1 70 0
 118 0008 10B5     		push	{r4, lr}
 119              		.cfi_def_cfa_offset 8
 120              		.cfi_offset 4, -8
 121              		.cfi_offset 14, -4
 122              		.loc 1 77 0
 123 000a CC68     		ldr	r4, [r1, #12]
 124              	.LVL6:
 125              		.loc 1 76 0
 126 000c 9A61     		str	r2, [r3, #24]
 127              	.LVL7:
 128              	.L11:
 129              		.loc 1 79 0 discriminator 1
 130 000e 1434     		adds	r4, r4, #20
 131              	.LVL8:
 132              		.loc 1 81 0 discriminator 1
 133 0010 FFF7FEFF 		bl	logCalc
 134              	.LVL9:
 135              		.loc 1 82 0 discriminator 1
 136 0014 FFF7FEFF 		bl	lightCalc
 137              	.LVL10:
 138              		.loc 1 83 0 discriminator 1
 139 0018 FFF7FEFF 		bl	speedCalc
 140              	.LVL11:
 141              		.loc 1 84 0 discriminator 1
 142 001c FFF7FEFF 		bl	measCalc
 143              	.LVL12:
 144              		.loc 1 85 0 discriminator 1
 145 0020 FFF7FEFF 		bl	cruiseCalc
 146              	.LVL13:
 147              		.loc 1 86 0 discriminator 1
 148 0024 FFF7FEFF 		bl	buttonCalc
 149              	.LVL14:
 150              		.loc 1 88 0 discriminator 1
 151 0028 FFF7FEFF 		bl	calcCalc
 152              	.LVL15:
 153              		.loc 1 92 0 discriminator 1
 154 002c 2046     		mov	r0, r4
 155 002e FFF7FEFF 		bl	chThdSleepUntil
 156              	.LVL16:
 157              		.loc 1 93 0 discriminator 1
 158 0032 ECE7     		b	.L11
 159              	.L14:
 160              		.align	2
 161              	.L13:
 162 0034 00000000 		.word	rlist
 163 0038 00000000 		.word	vtlist
 164 003c 08000000 		.word	.LC1
 165              		.cfi_endproc
 166              	.LFE120:
 167              		.size	task20ms, .-task20ms
 168              		.section	.text.startup.main,"ax",%progbits
 169              		.align	2
 170              		.p2align 4,,15
 171              		.global	main
ARM GAS  C:\Users\srich\AppData\Local\Temp\cc8AEU99.s 			page 4


 172              		.thumb
 173              		.thumb_func
 174              		.type	main, %function
 175              	main:
 176              	.LFB121:
 177              		.loc 1 99 0
 178              		.cfi_startproc
 179              		@ Volatile: function does not return.
 180              		@ args = 0, pretend = 0, frame = 0
 181              		@ frame_needed = 0, uses_anonymous_args = 0
 182 0000 00B5     		push	{lr}
 183              		.cfi_def_cfa_offset 4
 184              		.cfi_offset 14, -4
 185 0002 83B0     		sub	sp, sp, #12
 186              		.cfi_def_cfa_offset 16
 187              		.loc 1 108 0
 188 0004 FFF7FEFF 		bl	halInit
 189              	.LVL17:
 190              		.loc 1 109 0
 191 0008 FFF7FEFF 		bl	chSysInit
 192              	.LVL18:
 193              		.loc 1 114 0
 194 000c 1E4B     		ldr	r3, .L18
 195 000e 4FF40042 		mov	r2, #32768
 196 0012 1A83     		strh	r2, [r3, #24]	@ movhi
 197              		.loc 1 119 0
 198 0014 FFF7FEFF 		bl	sdcardInit
 199              	.LVL19:
 200              		.loc 1 199 0
 201 0018 0024     		movs	r4, #0
 202              		.loc 1 124 0
 203 001a FFF7FEFF 		bl	logInit
 204              	.LVL20:
 205              		.loc 1 129 0
 206 001e FFF7FEFF 		bl	consoleInit
 207              	.LVL21:
 208              		.loc 1 134 0
 209 0022 FFF7FEFF 		bl	eepromInit
 210              	.LVL22:
 211              		.loc 1 139 0
 212 0026 FFF7FEFF 		bl	can_commInit
 213              	.LVL23:
 214              		.loc 1 143 0
 215 002a FFF7FEFF 		bl	uart_commInit
 216              	.LVL24:
 217              		.loc 1 148 0
 218 002e FFF7FEFF 		bl	lightInit
 219              	.LVL25:
 220              		.loc 1 153 0
 221 0032 FFF7FEFF 		bl	speedInit
 222              	.LVL26:
 223              		.loc 1 158 0
 224 0036 FFF7FEFF 		bl	measInit
 225              	.LVL27:
 226              		.loc 1 163 0
 227 003a FFF7FEFF 		bl	cruiseInit
 228              	.LVL28:
ARM GAS  C:\Users\srich\AppData\Local\Temp\cc8AEU99.s 			page 5


 229              		.loc 1 168 0
 230 003e 4FF47A70 		mov	r0, #1000
 231 0042 FFF7FEFF 		bl	chThdSleep
 232              	.LVL29:
 233              		.loc 1 169 0
 234 0046 FFF7FEFF 		bl	dspInit
 235              	.LVL30:
 236              		.loc 1 174 0
 237 004a FFF7FEFF 		bl	buttonInit
 238              	.LVL31:
 239              		.loc 1 184 0
 240 004e FFF7FEFF 		bl	safetyInit
 241              	.LVL32:
 242              		.loc 1 189 0
 243 0052 FFF7FEFF 		bl	calcInit
 244              	.LVL33:
 245              		.loc 1 194 0
 246 0056 FFF7FEFF 		bl	nmeaInit
 247              	.LVL34:
 248              		.loc 1 199 0
 249 005a 0C4B     		ldr	r3, .L18+4
 250 005c 0094     		str	r4, [sp]
 251 005e 4FF43471 		mov	r1, #720
 252 0062 4022     		movs	r2, #64
 253 0064 0A48     		ldr	r0, .L18+8
 254 0066 FFF7FEFF 		bl	chThdCreateStatic
 255              	.LVL35:
 256              		.loc 1 204 0
 257 006a 0094     		str	r4, [sp]
 258 006c 0948     		ldr	r0, .L18+12
 259 006e 0A4B     		ldr	r3, .L18+16
 260 0070 4FF4A871 		mov	r1, #336
 261 0074 4022     		movs	r2, #64
 262 0076 FFF7FEFF 		bl	chThdCreateStatic
 263              	.LVL36:
 264              	.L16:
 265              		.loc 1 211 0 discriminator 1
 266 007a FFF7FEFF 		bl	consoleStart
 267              	.LVL37:
 268              		.loc 1 212 0 discriminator 1
 269 007e 4FF47A70 		mov	r0, #1000
 270 0082 FFF7FEFF 		bl	chThdSleep
 271              	.LVL38:
 272              		.loc 1 213 0 discriminator 1
 273 0086 F8E7     		b	.L16
 274              	.L19:
 275              		.align	2
 276              	.L18:
 277 0088 00100240 		.word	1073876992
 278 008c 00000000 		.word	task20ms
 279 0090 00000000 		.word	.LANCHOR0
 280 0094 00000000 		.word	.LANCHOR1
 281 0098 00000000 		.word	Thread1
 282              		.cfi_endproc
 283              	.LFE121:
 284              		.size	main, .-main
 285              		.section	.bss.waThread1,"aw",%nobits
ARM GAS  C:\Users\srich\AppData\Local\Temp\cc8AEU99.s 			page 6


 286              		.align	3
 287              		.set	.LANCHOR1,. + 0
 288              		.type	waThread1, %object
 289              		.size	waThread1, 336
 290              	waThread1:
 291 0000 00000000 		.space	336
 291      00000000 
 291      00000000 
 291      00000000 
 291      00000000 
 292              		.section	.bss.watask20ms,"aw",%nobits
 293              		.align	3
 294              		.set	.LANCHOR0,. + 0
 295              		.type	watask20ms, %object
 296              		.size	watask20ms, 720
 297              	watask20ms:
 298 0000 00000000 		.space	720
 298      00000000 
 298      00000000 
 298      00000000 
 298      00000000 
 299              		.section	.rodata.str1.4,"aMS",%progbits,1
 300              		.align	2
 301              	.LC0:
 302 0000 626C696E 		.ascii	"blinker\000"
 302      6B657200 
 303              	.LC1:
 304 0008 7461736B 		.ascii	"task20ms\000"
 304      32306D73 
 304      00
 305              		.text
 306              	.Letext0:
 307              		.file 2 "c:\\chibistudio\\tools\\gnu tools arm embedded\\4.9 2015q3\\arm-none-eabi\\include\\machi
 308              		.file 3 "c:\\chibistudio\\tools\\gnu tools arm embedded\\4.9 2015q3\\lib\\gcc\\arm-none-eabi\\4.9.
 309              		.file 4 "c:\\chibistudio\\tools\\gnu tools arm embedded\\4.9 2015q3\\arm-none-eabi\\include\\sys\\
 310              		.file 5 "../../../ChibiOS/os/ports/GCC/ARMCMx/chtypes.h"
 311              		.file 6 "../../../ChibiOS/os/kernel/include/chlists.h"
 312              		.file 7 "../../../ChibiOS/os/kernel/include/chthreads.h"
 313              		.file 8 "../../../ChibiOS/os/ports/GCC/ARMCMx/chcore_v7m.h"
 314              		.file 9 "../../../ChibiOS/os/kernel/include/chvt.h"
 315              		.file 10 "../../../ChibiOS/os/kernel/include/chschd.h"
 316              		.file 11 "../../../ChibiOS/os/kernel/include/chmtx.h"
 317              		.file 12 "../../../ChibiOS/os/hal/platforms/STM32/GPIOv2/pal_lld.h"
 318              		.file 13 "include/eepromItems.h"
 319              		.file 14 "include/speed.h"
 320              		.file 15 "../../../ChibiOS/os/ports/common/ARMCMx/CMSIS/include/core_cm4.h"
 321              		.file 16 "include/log.h"
 322              		.file 17 "include/light.h"
 323              		.file 18 "include/meas.h"
 324              		.file 19 "include/cruise.h"
 325              		.file 20 "include/button.h"
 326              		.file 21 "include/calc.h"
 327              		.file 22 "../../../ChibiOS/os/hal/include/hal.h"
 328              		.file 23 "../../../ChibiOS/os/kernel/include/chsys.h"
 329              		.file 24 "include/sdcard.h"
 330              		.file 25 "include/console.h"
 331              		.file 26 "include/eeprom.h"
ARM GAS  C:\Users\srich\AppData\Local\Temp\cc8AEU99.s 			page 7


 332              		.file 27 "include/can_comm.h"
 333              		.file 28 "include/uart_comm.h"
 334              		.file 29 "include/safety.h"
 335              		.file 30 "include/nmea.h"
 336              		.file 31 "include/dsp.h"
 337              		.section	.debug_info,"",%progbits
 338              	.Ldebug_info0:
 339 0000 D30A0000 		.4byte	0xad3
 340 0004 0400     		.2byte	0x4
 341 0006 00000000 		.4byte	.Ldebug_abbrev0
 342 000a 04       		.byte	0x4
 343 000b 01       		.uleb128 0x1
 344 000c 40030000 		.4byte	.LASF150
 345 0010 01       		.byte	0x1
 346 0011 13000000 		.4byte	.LASF151
 347 0015 49010000 		.4byte	.LASF152
 348 0019 18000000 		.4byte	.Ldebug_ranges0+0x18
 349 001d 00000000 		.4byte	0
 350 0021 00000000 		.4byte	.Ldebug_line0
 351 0025 02       		.uleb128 0x2
 352 0026 01       		.byte	0x1
 353 0027 06       		.byte	0x6
 354 0028 CD000000 		.4byte	.LASF0
 355 002c 03       		.uleb128 0x3
 356 002d 4D000000 		.4byte	.LASF3
 357 0031 02       		.byte	0x2
 358 0032 1D       		.byte	0x1d
 359 0033 37000000 		.4byte	0x37
 360 0037 02       		.uleb128 0x2
 361 0038 01       		.byte	0x1
 362 0039 08       		.byte	0x8
 363 003a F9040000 		.4byte	.LASF1
 364 003e 02       		.uleb128 0x2
 365 003f 02       		.byte	0x2
 366 0040 05       		.byte	0x5
 367 0041 34050000 		.4byte	.LASF2
 368 0045 03       		.uleb128 0x3
 369 0046 D6050000 		.4byte	.LASF4
 370 004a 02       		.byte	0x2
 371 004b 2B       		.byte	0x2b
 372 004c 50000000 		.4byte	0x50
 373 0050 02       		.uleb128 0x2
 374 0051 02       		.byte	0x2
 375 0052 07       		.byte	0x7
 376 0053 7D020000 		.4byte	.LASF5
 377 0057 03       		.uleb128 0x3
 378 0058 D6020000 		.4byte	.LASF6
 379 005c 02       		.byte	0x2
 380 005d 3F       		.byte	0x3f
 381 005e 62000000 		.4byte	0x62
 382 0062 02       		.uleb128 0x2
 383 0063 04       		.byte	0x4
 384 0064 05       		.byte	0x5
 385 0065 2E010000 		.4byte	.LASF7
 386 0069 03       		.uleb128 0x3
 387 006a 0C060000 		.4byte	.LASF8
 388 006e 02       		.byte	0x2
ARM GAS  C:\Users\srich\AppData\Local\Temp\cc8AEU99.s 			page 8


 389 006f 41       		.byte	0x41
 390 0070 74000000 		.4byte	0x74
 391 0074 02       		.uleb128 0x2
 392 0075 04       		.byte	0x4
 393 0076 07       		.byte	0x7
 394 0077 E8000000 		.4byte	.LASF9
 395 007b 02       		.uleb128 0x2
 396 007c 08       		.byte	0x8
 397 007d 05       		.byte	0x5
 398 007e BF000000 		.4byte	.LASF10
 399 0082 03       		.uleb128 0x3
 400 0083 62040000 		.4byte	.LASF11
 401 0087 02       		.byte	0x2
 402 0088 5B       		.byte	0x5b
 403 0089 8D000000 		.4byte	0x8d
 404 008d 02       		.uleb128 0x2
 405 008e 08       		.byte	0x8
 406 008f 07       		.byte	0x7
 407 0090 B5010000 		.4byte	.LASF12
 408 0094 04       		.uleb128 0x4
 409 0095 04       		.byte	0x4
 410 0096 05       		.byte	0x5
 411 0097 696E7400 		.ascii	"int\000"
 412 009b 02       		.uleb128 0x2
 413 009c 04       		.byte	0x4
 414 009d 07       		.byte	0x7
 415 009e E8010000 		.4byte	.LASF13
 416 00a2 03       		.uleb128 0x3
 417 00a3 AE010000 		.4byte	.LASF14
 418 00a7 03       		.byte	0x3
 419 00a8 D4       		.byte	0xd4
 420 00a9 9B000000 		.4byte	0x9b
 421 00ad 05       		.uleb128 0x5
 422 00ae 04       		.byte	0x4
 423 00af 02       		.uleb128 0x2
 424 00b0 04       		.byte	0x4
 425 00b1 07       		.byte	0x7
 426 00b2 21030000 		.4byte	.LASF15
 427 00b6 02       		.uleb128 0x2
 428 00b7 01       		.byte	0x1
 429 00b8 08       		.byte	0x8
 430 00b9 C1050000 		.4byte	.LASF16
 431 00bd 06       		.uleb128 0x6
 432 00be 04       		.byte	0x4
 433 00bf C3000000 		.4byte	0xc3
 434 00c3 07       		.uleb128 0x7
 435 00c4 B6000000 		.4byte	0xb6
 436 00c8 03       		.uleb128 0x3
 437 00c9 89060000 		.4byte	.LASF17
 438 00cd 04       		.byte	0x4
 439 00ce 14       		.byte	0x14
 440 00cf 2C000000 		.4byte	0x2c
 441 00d3 03       		.uleb128 0x3
 442 00d4 6A010000 		.4byte	.LASF18
 443 00d8 04       		.byte	0x4
 444 00d9 1A       		.byte	0x1a
 445 00da 45000000 		.4byte	0x45
ARM GAS  C:\Users\srich\AppData\Local\Temp\cc8AEU99.s 			page 9


 446 00de 03       		.uleb128 0x3
 447 00df F1040000 		.4byte	.LASF19
 448 00e3 04       		.byte	0x4
 449 00e4 1F       		.byte	0x1f
 450 00e5 57000000 		.4byte	0x57
 451 00e9 03       		.uleb128 0x3
 452 00ea 99050000 		.4byte	.LASF20
 453 00ee 04       		.byte	0x4
 454 00ef 20       		.byte	0x20
 455 00f0 69000000 		.4byte	0x69
 456 00f4 03       		.uleb128 0x3
 457 00f5 2E000000 		.4byte	.LASF21
 458 00f9 04       		.byte	0x4
 459 00fa 26       		.byte	0x26
 460 00fb 82000000 		.4byte	0x82
 461 00ff 03       		.uleb128 0x3
 462 0100 02010000 		.4byte	.LASF22
 463 0104 05       		.byte	0x5
 464 0105 2B       		.byte	0x2b
 465 0106 0A010000 		.4byte	0x10a
 466 010a 02       		.uleb128 0x2
 467 010b 01       		.byte	0x1
 468 010c 02       		.byte	0x2
 469 010d EB040000 		.4byte	.LASF23
 470 0111 03       		.uleb128 0x3
 471 0112 A6020000 		.4byte	.LASF24
 472 0116 05       		.byte	0x5
 473 0117 2C       		.byte	0x2c
 474 0118 C8000000 		.4byte	0xc8
 475 011c 03       		.uleb128 0x3
 476 011d 40010000 		.4byte	.LASF25
 477 0121 05       		.byte	0x5
 478 0122 2D       		.byte	0x2d
 479 0123 C8000000 		.4byte	0xc8
 480 0127 03       		.uleb128 0x3
 481 0128 94040000 		.4byte	.LASF26
 482 012c 05       		.byte	0x5
 483 012d 2E       		.byte	0x2e
 484 012e C8000000 		.4byte	0xc8
 485 0132 03       		.uleb128 0x3
 486 0133 1B010000 		.4byte	.LASF27
 487 0137 05       		.byte	0x5
 488 0138 2F       		.byte	0x2f
 489 0139 C8000000 		.4byte	0xc8
 490 013d 03       		.uleb128 0x3
 491 013e D3040000 		.4byte	.LASF28
 492 0142 05       		.byte	0x5
 493 0143 30       		.byte	0x30
 494 0144 E9000000 		.4byte	0xe9
 495 0148 03       		.uleb128 0x3
 496 0149 90020000 		.4byte	.LASF29
 497 014d 05       		.byte	0x5
 498 014e 31       		.byte	0x31
 499 014f DE000000 		.4byte	0xde
 500 0153 03       		.uleb128 0x3
 501 0154 C4020000 		.4byte	.LASF30
 502 0158 05       		.byte	0x5
ARM GAS  C:\Users\srich\AppData\Local\Temp\cc8AEU99.s 			page 10


 503 0159 33       		.byte	0x33
 504 015a E9000000 		.4byte	0xe9
 505 015e 03       		.uleb128 0x3
 506 015f EE050000 		.4byte	.LASF31
 507 0163 05       		.byte	0x5
 508 0164 35       		.byte	0x35
 509 0165 E9000000 		.4byte	0xe9
 510 0169 03       		.uleb128 0x3
 511 016a 7F050000 		.4byte	.LASF32
 512 016e 06       		.byte	0x6
 513 016f 2A       		.byte	0x2a
 514 0170 74010000 		.4byte	0x174
 515 0174 08       		.uleb128 0x8
 516 0175 7F050000 		.4byte	.LASF32
 517 0179 48       		.byte	0x48
 518 017a 07       		.byte	0x7
 519 017b 5E       		.byte	0x5e
 520 017c 71020000 		.4byte	0x271
 521 0180 09       		.uleb128 0x9
 522 0181 66050000 		.4byte	.LASF33
 523 0185 07       		.byte	0x7
 524 0186 5F       		.byte	0x5f
 525 0187 92020000 		.4byte	0x292
 526 018b 00       		.byte	0
 527 018c 09       		.uleb128 0x9
 528 018d BC040000 		.4byte	.LASF34
 529 0191 07       		.byte	0x7
 530 0192 61       		.byte	0x61
 531 0193 92020000 		.4byte	0x292
 532 0197 04       		.byte	0x4
 533 0198 09       		.uleb128 0x9
 534 0199 B8000000 		.4byte	.LASF35
 535 019d 07       		.byte	0x7
 536 019e 63       		.byte	0x63
 537 019f 3D010000 		.4byte	0x13d
 538 01a3 08       		.byte	0x8
 539 01a4 09       		.uleb128 0x9
 540 01a5 E2060000 		.4byte	.LASF36
 541 01a9 07       		.byte	0x7
 542 01aa 64       		.byte	0x64
 543 01ab 55030000 		.4byte	0x355
 544 01af 0C       		.byte	0xc
 545 01b0 09       		.uleb128 0x9
 546 01b1 85010000 		.4byte	.LASF37
 547 01b5 07       		.byte	0x7
 548 01b6 66       		.byte	0x66
 549 01b7 92020000 		.4byte	0x292
 550 01bb 10       		.byte	0x10
 551 01bc 09       		.uleb128 0x9
 552 01bd 50050000 		.4byte	.LASF38
 553 01c1 07       		.byte	0x7
 554 01c2 67       		.byte	0x67
 555 01c3 92020000 		.4byte	0x292
 556 01c7 14       		.byte	0x14
 557 01c8 09       		.uleb128 0x9
 558 01c9 AD060000 		.4byte	.LASF39
 559 01cd 07       		.byte	0x7
ARM GAS  C:\Users\srich\AppData\Local\Temp\cc8AEU99.s 			page 11


 560 01ce 6E       		.byte	0x6e
 561 01cf BD000000 		.4byte	0xbd
 562 01d3 18       		.byte	0x18
 563 01d4 09       		.uleb128 0x9
 564 01d5 21050000 		.4byte	.LASF40
 565 01d9 07       		.byte	0x7
 566 01da 79       		.byte	0x79
 567 01db 1C010000 		.4byte	0x11c
 568 01df 1C       		.byte	0x1c
 569 01e0 09       		.uleb128 0x9
 570 01e1 6D050000 		.4byte	.LASF41
 571 01e5 07       		.byte	0x7
 572 01e6 7D       		.byte	0x7d
 573 01e7 11010000 		.4byte	0x111
 574 01eb 1D       		.byte	0x1d
 575 01ec 09       		.uleb128 0x9
 576 01ed 65060000 		.4byte	.LASF42
 577 01f1 07       		.byte	0x7
 578 01f2 82       		.byte	0x82
 579 01f3 27010000 		.4byte	0x127
 580 01f7 1E       		.byte	0x1e
 581 01f8 09       		.uleb128 0x9
 582 01f9 46050000 		.4byte	.LASF43
 583 01fd 07       		.byte	0x7
 584 01fe 88       		.byte	0x88
 585 01ff 32010000 		.4byte	0x132
 586 0203 1F       		.byte	0x1f
 587 0204 09       		.uleb128 0x9
 588 0205 22060000 		.4byte	.LASF44
 589 0209 07       		.byte	0x7
 590 020a 8F       		.byte	0x8f
 591 020b 2A040000 		.4byte	0x42a
 592 020f 20       		.byte	0x20
 593 0210 0A       		.uleb128 0xa
 594 0211 705F7500 		.ascii	"p_u\000"
 595 0215 07       		.byte	0x7
 596 0216 B4       		.byte	0xb4
 597 0217 D8040000 		.4byte	0x4d8
 598 021b 24       		.byte	0x24
 599 021c 09       		.uleb128 0x9
 600 021d E8060000 		.4byte	.LASF45
 601 0221 07       		.byte	0x7
 602 0222 B9       		.byte	0xb9
 603 0223 B8020000 		.4byte	0x2b8
 604 0227 28       		.byte	0x28
 605 0228 09       		.uleb128 0x9
 606 0229 F5010000 		.4byte	.LASF46
 607 022d 07       		.byte	0x7
 608 022e BF       		.byte	0xbf
 609 022f 98020000 		.4byte	0x298
 610 0233 2C       		.byte	0x2c
 611 0234 09       		.uleb128 0x9
 612 0235 BF060000 		.4byte	.LASF47
 613 0239 07       		.byte	0x7
 614 023a C3       		.byte	0xc3
 615 023b 48010000 		.4byte	0x148
 616 023f 34       		.byte	0x34
ARM GAS  C:\Users\srich\AppData\Local\Temp\cc8AEU99.s 			page 12


 617 0240 09       		.uleb128 0x9
 618 0241 86050000 		.4byte	.LASF48
 619 0245 07       		.byte	0x7
 620 0246 C9       		.byte	0xc9
 621 0247 53010000 		.4byte	0x153
 622 024b 38       		.byte	0x38
 623 024c 09       		.uleb128 0x9
 624 024d BA020000 		.4byte	.LASF49
 625 0251 07       		.byte	0x7
 626 0252 D0       		.byte	0xd0
 627 0253 0D050000 		.4byte	0x50d
 628 0257 3C       		.byte	0x3c
 629 0258 09       		.uleb128 0x9
 630 0259 F8050000 		.4byte	.LASF50
 631 025d 07       		.byte	0x7
 632 025e D4       		.byte	0xd4
 633 025f 3D010000 		.4byte	0x13d
 634 0263 40       		.byte	0x40
 635 0264 09       		.uleb128 0x9
 636 0265 FA000000 		.4byte	.LASF51
 637 0269 07       		.byte	0x7
 638 026a DA       		.byte	0xda
 639 026b AD000000 		.4byte	0xad
 640 026f 44       		.byte	0x44
 641 0270 00       		.byte	0
 642 0271 0B       		.uleb128 0xb
 643 0272 08       		.byte	0x8
 644 0273 06       		.byte	0x6
 645 0274 61       		.byte	0x61
 646 0275 92020000 		.4byte	0x292
 647 0279 09       		.uleb128 0x9
 648 027a 66050000 		.4byte	.LASF33
 649 027e 06       		.byte	0x6
 650 027f 62       		.byte	0x62
 651 0280 92020000 		.4byte	0x292
 652 0284 00       		.byte	0
 653 0285 09       		.uleb128 0x9
 654 0286 BC040000 		.4byte	.LASF34
 655 028a 06       		.byte	0x6
 656 028b 64       		.byte	0x64
 657 028c 92020000 		.4byte	0x292
 658 0290 04       		.byte	0x4
 659 0291 00       		.byte	0
 660 0292 06       		.uleb128 0x6
 661 0293 04       		.byte	0x4
 662 0294 69010000 		.4byte	0x169
 663 0298 03       		.uleb128 0x3
 664 0299 88000000 		.4byte	.LASF52
 665 029d 06       		.byte	0x6
 666 029e 66       		.byte	0x66
 667 029f 71020000 		.4byte	0x271
 668 02a3 0B       		.uleb128 0xb
 669 02a4 04       		.byte	0x4
 670 02a5 06       		.byte	0x6
 671 02a6 6B       		.byte	0x6b
 672 02a7 B8020000 		.4byte	0x2b8
 673 02ab 09       		.uleb128 0x9
ARM GAS  C:\Users\srich\AppData\Local\Temp\cc8AEU99.s 			page 13


 674 02ac 66050000 		.4byte	.LASF33
 675 02b0 06       		.byte	0x6
 676 02b1 6D       		.byte	0x6d
 677 02b2 92020000 		.4byte	0x292
 678 02b6 00       		.byte	0
 679 02b7 00       		.byte	0
 680 02b8 03       		.uleb128 0x3
 681 02b9 AE020000 		.4byte	.LASF53
 682 02bd 06       		.byte	0x6
 683 02be 70       		.byte	0x70
 684 02bf A3020000 		.4byte	0x2a3
 685 02c3 03       		.uleb128 0x3
 686 02c4 9D010000 		.4byte	.LASF54
 687 02c8 08       		.byte	0x8
 688 02c9 E5       		.byte	0xe5
 689 02ca AD000000 		.4byte	0xad
 690 02ce 03       		.uleb128 0x3
 691 02cf EB020000 		.4byte	.LASF55
 692 02d3 08       		.byte	0x8
 693 02d4 EB       		.byte	0xeb
 694 02d5 F4000000 		.4byte	0xf4
 695 02d9 0C       		.uleb128 0xc
 696 02da 34060000 		.4byte	.LASF56
 697 02de 24       		.byte	0x24
 698 02df 08       		.byte	0x8
 699 02e0 0C01     		.2byte	0x10c
 700 02e2 55030000 		.4byte	0x355
 701 02e6 0D       		.uleb128 0xd
 702 02e7 723400   		.ascii	"r4\000"
 703 02ea 08       		.byte	0x8
 704 02eb 1F01     		.2byte	0x11f
 705 02ed C3020000 		.4byte	0x2c3
 706 02f1 00       		.byte	0
 707 02f2 0D       		.uleb128 0xd
 708 02f3 723500   		.ascii	"r5\000"
 709 02f6 08       		.byte	0x8
 710 02f7 2001     		.2byte	0x120
 711 02f9 C3020000 		.4byte	0x2c3
 712 02fd 04       		.byte	0x4
 713 02fe 0D       		.uleb128 0xd
 714 02ff 723600   		.ascii	"r6\000"
 715 0302 08       		.byte	0x8
 716 0303 2101     		.2byte	0x121
 717 0305 C3020000 		.4byte	0x2c3
 718 0309 08       		.byte	0x8
 719 030a 0D       		.uleb128 0xd
 720 030b 723700   		.ascii	"r7\000"
 721 030e 08       		.byte	0x8
 722 030f 2201     		.2byte	0x122
 723 0311 C3020000 		.4byte	0x2c3
 724 0315 0C       		.byte	0xc
 725 0316 0D       		.uleb128 0xd
 726 0317 723800   		.ascii	"r8\000"
 727 031a 08       		.byte	0x8
 728 031b 2301     		.2byte	0x123
 729 031d C3020000 		.4byte	0x2c3
 730 0321 10       		.byte	0x10
ARM GAS  C:\Users\srich\AppData\Local\Temp\cc8AEU99.s 			page 14


 731 0322 0D       		.uleb128 0xd
 732 0323 723900   		.ascii	"r9\000"
 733 0326 08       		.byte	0x8
 734 0327 2401     		.2byte	0x124
 735 0329 C3020000 		.4byte	0x2c3
 736 032d 14       		.byte	0x14
 737 032e 0D       		.uleb128 0xd
 738 032f 72313000 		.ascii	"r10\000"
 739 0333 08       		.byte	0x8
 740 0334 2501     		.2byte	0x125
 741 0336 C3020000 		.4byte	0x2c3
 742 033a 18       		.byte	0x18
 743 033b 0D       		.uleb128 0xd
 744 033c 72313100 		.ascii	"r11\000"
 745 0340 08       		.byte	0x8
 746 0341 2601     		.2byte	0x126
 747 0343 C3020000 		.4byte	0x2c3
 748 0347 1C       		.byte	0x1c
 749 0348 0D       		.uleb128 0xd
 750 0349 6C7200   		.ascii	"lr\000"
 751 034c 08       		.byte	0x8
 752 034d 2701     		.2byte	0x127
 753 034f C3020000 		.4byte	0x2c3
 754 0353 20       		.byte	0x20
 755 0354 00       		.byte	0
 756 0355 0C       		.uleb128 0xc
 757 0356 70020000 		.4byte	.LASF57
 758 035a 04       		.byte	0x4
 759 035b 08       		.byte	0x8
 760 035c 3101     		.2byte	0x131
 761 035e 70030000 		.4byte	0x370
 762 0362 0D       		.uleb128 0xd
 763 0363 72313300 		.ascii	"r13\000"
 764 0367 08       		.byte	0x8
 765 0368 3201     		.2byte	0x132
 766 036a 70030000 		.4byte	0x370
 767 036e 00       		.byte	0
 768 036f 00       		.byte	0
 769 0370 06       		.uleb128 0x6
 770 0371 04       		.byte	0x4
 771 0372 D9020000 		.4byte	0x2d9
 772 0376 0E       		.uleb128 0xe
 773 0377 E9000000 		.4byte	0xe9
 774 037b 03       		.uleb128 0x3
 775 037c 03060000 		.4byte	.LASF58
 776 0380 09       		.byte	0x9
 777 0381 58       		.byte	0x58
 778 0382 86030000 		.4byte	0x386
 779 0386 06       		.uleb128 0x6
 780 0387 04       		.byte	0x4
 781 0388 8C030000 		.4byte	0x38c
 782 038c 0F       		.uleb128 0xf
 783 038d 97030000 		.4byte	0x397
 784 0391 10       		.uleb128 0x10
 785 0392 AD000000 		.4byte	0xad
 786 0396 00       		.byte	0
 787 0397 03       		.uleb128 0x3
ARM GAS  C:\Users\srich\AppData\Local\Temp\cc8AEU99.s 			page 15


 788 0398 3D020000 		.4byte	.LASF59
 789 039c 09       		.byte	0x9
 790 039d 5D       		.byte	0x5d
 791 039e A2030000 		.4byte	0x3a2
 792 03a2 08       		.uleb128 0x8
 793 03a3 3D020000 		.4byte	.LASF59
 794 03a7 14       		.byte	0x14
 795 03a8 09       		.byte	0x9
 796 03a9 64       		.byte	0x64
 797 03aa EB030000 		.4byte	0x3eb
 798 03ae 09       		.uleb128 0x9
 799 03af 16020000 		.4byte	.LASF60
 800 03b3 09       		.byte	0x9
 801 03b4 65       		.byte	0x65
 802 03b5 EB030000 		.4byte	0x3eb
 803 03b9 00       		.byte	0
 804 03ba 09       		.uleb128 0x9
 805 03bb A6010000 		.4byte	.LASF61
 806 03bf 09       		.byte	0x9
 807 03c0 67       		.byte	0x67
 808 03c1 EB030000 		.4byte	0x3eb
 809 03c5 04       		.byte	0x4
 810 03c6 09       		.uleb128 0x9
 811 03c7 91050000 		.4byte	.LASF62
 812 03cb 09       		.byte	0x9
 813 03cc 69       		.byte	0x69
 814 03cd 5E010000 		.4byte	0x15e
 815 03d1 08       		.byte	0x8
 816 03d2 09       		.uleb128 0x9
 817 03d3 30030000 		.4byte	.LASF63
 818 03d7 09       		.byte	0x9
 819 03d8 6A       		.byte	0x6a
 820 03d9 7B030000 		.4byte	0x37b
 821 03dd 0C       		.byte	0xc
 822 03de 09       		.uleb128 0x9
 823 03df 4B060000 		.4byte	.LASF64
 824 03e3 09       		.byte	0x9
 825 03e4 6C       		.byte	0x6c
 826 03e5 AD000000 		.4byte	0xad
 827 03e9 10       		.byte	0x10
 828 03ea 00       		.byte	0
 829 03eb 06       		.uleb128 0x6
 830 03ec 04       		.byte	0x4
 831 03ed 97030000 		.4byte	0x397
 832 03f1 0B       		.uleb128 0xb
 833 03f2 10       		.byte	0x10
 834 03f3 09       		.byte	0x9
 835 03f4 76       		.byte	0x76
 836 03f5 2A040000 		.4byte	0x42a
 837 03f9 09       		.uleb128 0x9
 838 03fa 16020000 		.4byte	.LASF60
 839 03fe 09       		.byte	0x9
 840 03ff 77       		.byte	0x77
 841 0400 EB030000 		.4byte	0x3eb
 842 0404 00       		.byte	0
 843 0405 09       		.uleb128 0x9
 844 0406 A6010000 		.4byte	.LASF61
ARM GAS  C:\Users\srich\AppData\Local\Temp\cc8AEU99.s 			page 16


 845 040a 09       		.byte	0x9
 846 040b 79       		.byte	0x79
 847 040c EB030000 		.4byte	0x3eb
 848 0410 04       		.byte	0x4
 849 0411 09       		.uleb128 0x9
 850 0412 91050000 		.4byte	.LASF62
 851 0416 09       		.byte	0x9
 852 0417 7B       		.byte	0x7b
 853 0418 5E010000 		.4byte	0x15e
 854 041c 08       		.byte	0x8
 855 041d 09       		.uleb128 0x9
 856 041e AA050000 		.4byte	.LASF65
 857 0422 09       		.byte	0x9
 858 0423 7C       		.byte	0x7c
 859 0424 2A040000 		.4byte	0x42a
 860 0428 0C       		.byte	0xc
 861 0429 00       		.byte	0
 862 042a 0E       		.uleb128 0xe
 863 042b 5E010000 		.4byte	0x15e
 864 042f 03       		.uleb128 0x3
 865 0430 C5060000 		.4byte	.LASF66
 866 0434 09       		.byte	0x9
 867 0435 7D       		.byte	0x7d
 868 0436 F1030000 		.4byte	0x3f1
 869 043a 0B       		.uleb128 0xb
 870 043b 1C       		.byte	0x1c
 871 043c 0A       		.byte	0xa
 872 043d 5E       		.byte	0x5e
 873 043e 8B040000 		.4byte	0x48b
 874 0442 09       		.uleb128 0x9
 875 0443 A2050000 		.4byte	.LASF67
 876 0447 0A       		.byte	0xa
 877 0448 5F       		.byte	0x5f
 878 0449 98020000 		.4byte	0x298
 879 044d 00       		.byte	0
 880 044e 09       		.uleb128 0x9
 881 044f 58050000 		.4byte	.LASF68
 882 0453 0A       		.byte	0xa
 883 0454 60       		.byte	0x60
 884 0455 3D010000 		.4byte	0x13d
 885 0459 08       		.byte	0x8
 886 045a 09       		.uleb128 0x9
 887 045b 35040000 		.4byte	.LASF69
 888 045f 0A       		.byte	0xa
 889 0460 62       		.byte	0x62
 890 0461 55030000 		.4byte	0x355
 891 0465 0C       		.byte	0xc
 892 0466 09       		.uleb128 0x9
 893 0467 95010000 		.4byte	.LASF70
 894 046b 0A       		.byte	0xa
 895 046c 65       		.byte	0x65
 896 046d 92020000 		.4byte	0x292
 897 0471 10       		.byte	0x10
 898 0472 09       		.uleb128 0x9
 899 0473 4A040000 		.4byte	.LASF71
 900 0477 0A       		.byte	0xa
 901 0478 66       		.byte	0x66
ARM GAS  C:\Users\srich\AppData\Local\Temp\cc8AEU99.s 			page 17


 902 0479 92020000 		.4byte	0x292
 903 047d 14       		.byte	0x14
 904 047e 09       		.uleb128 0x9
 905 047f 40040000 		.4byte	.LASF72
 906 0483 0A       		.byte	0xa
 907 0484 69       		.byte	0x69
 908 0485 92020000 		.4byte	0x292
 909 0489 18       		.byte	0x18
 910 048a 00       		.byte	0
 911 048b 03       		.uleb128 0x3
 912 048c 6C060000 		.4byte	.LASF73
 913 0490 0A       		.byte	0xa
 914 0491 6B       		.byte	0x6b
 915 0492 3A040000 		.4byte	0x43a
 916 0496 08       		.uleb128 0x8
 917 0497 D0020000 		.4byte	.LASF74
 918 049b 10       		.byte	0x10
 919 049c 0B       		.byte	0xb
 920 049d 2C       		.byte	0x2c
 921 049e C7040000 		.4byte	0x4c7
 922 04a2 09       		.uleb128 0x9
 923 04a3 09010000 		.4byte	.LASF75
 924 04a7 0B       		.byte	0xb
 925 04a8 2D       		.byte	0x2d
 926 04a9 98020000 		.4byte	0x298
 927 04ad 00       		.byte	0
 928 04ae 09       		.uleb128 0x9
 929 04af DA060000 		.4byte	.LASF76
 930 04b3 0B       		.byte	0xb
 931 04b4 2F       		.byte	0x2f
 932 04b5 92020000 		.4byte	0x292
 933 04b9 08       		.byte	0x8
 934 04ba 09       		.uleb128 0x9
 935 04bb E7050000 		.4byte	.LASF77
 936 04bf 0B       		.byte	0xb
 937 04c0 31       		.byte	0x31
 938 04c1 C7040000 		.4byte	0x4c7
 939 04c5 0C       		.byte	0xc
 940 04c6 00       		.byte	0
 941 04c7 06       		.uleb128 0x6
 942 04c8 04       		.byte	0x4
 943 04c9 96040000 		.4byte	0x496
 944 04cd 03       		.uleb128 0x3
 945 04ce D0020000 		.4byte	.LASF74
 946 04d2 0B       		.byte	0xb
 947 04d3 33       		.byte	0x33
 948 04d4 96040000 		.4byte	0x496
 949 04d8 11       		.uleb128 0x11
 950 04d9 04       		.byte	0x4
 951 04da 07       		.byte	0x7
 952 04db 96       		.byte	0x96
 953 04dc 0D050000 		.4byte	0x50d
 954 04e0 12       		.uleb128 0x12
 955 04e1 1E000000 		.4byte	.LASF78
 956 04e5 07       		.byte	0x7
 957 04e6 9D       		.byte	0x9d
 958 04e7 48010000 		.4byte	0x148
ARM GAS  C:\Users\srich\AppData\Local\Temp\cc8AEU99.s 			page 18


 959 04eb 12       		.uleb128 0x12
 960 04ec 9B000000 		.4byte	.LASF79
 961 04f0 07       		.byte	0x7
 962 04f1 A4       		.byte	0xa4
 963 04f2 48010000 		.4byte	0x148
 964 04f6 12       		.uleb128 0x12
 965 04f7 A6060000 		.4byte	.LASF80
 966 04fb 07       		.byte	0x7
 967 04fc AB       		.byte	0xab
 968 04fd AD000000 		.4byte	0xad
 969 0501 12       		.uleb128 0x12
 970 0502 5F050000 		.4byte	.LASF81
 971 0506 07       		.byte	0x7
 972 0507 B2       		.byte	0xb2
 973 0508 53010000 		.4byte	0x153
 974 050c 00       		.byte	0
 975 050d 06       		.uleb128 0x6
 976 050e 04       		.byte	0x4
 977 050f CD040000 		.4byte	0x4cd
 978 0513 03       		.uleb128 0x3
 979 0514 0B000000 		.4byte	.LASF82
 980 0518 07       		.byte	0x7
 981 0519 E5       		.byte	0xe5
 982 051a 1E050000 		.4byte	0x51e
 983 051e 06       		.uleb128 0x6
 984 051f 04       		.byte	0x4
 985 0520 24050000 		.4byte	0x524
 986 0524 13       		.uleb128 0x13
 987 0525 48010000 		.4byte	0x148
 988 0529 33050000 		.4byte	0x533
 989 052d 10       		.uleb128 0x10
 990 052e AD000000 		.4byte	0xad
 991 0532 00       		.byte	0
 992 0533 0E       		.uleb128 0xe
 993 0534 DE000000 		.4byte	0xde
 994 0538 0B       		.uleb128 0xb
 995 0539 04       		.byte	0x4
 996 053a 0C       		.byte	0xc
 997 053b 96       		.byte	0x96
 998 053c 59050000 		.4byte	0x559
 999 0540 0A       		.uleb128 0xa
 1000 0541 73657400 		.ascii	"set\000"
 1001 0545 0C       		.byte	0xc
 1002 0546 97       		.byte	0x97
 1003 0547 D3000000 		.4byte	0xd3
 1004 054b 00       		.byte	0
 1005 054c 09       		.uleb128 0x9
 1006 054d 2A030000 		.4byte	.LASF83
 1007 0551 0C       		.byte	0xc
 1008 0552 98       		.byte	0x98
 1009 0553 D3000000 		.4byte	0xd3
 1010 0557 02       		.byte	0x2
 1011 0558 00       		.byte	0
 1012 0559 11       		.uleb128 0x11
 1013 055a 04       		.byte	0x4
 1014 055b 0C       		.byte	0xc
 1015 055c 94       		.byte	0x94
ARM GAS  C:\Users\srich\AppData\Local\Temp\cc8AEU99.s 			page 19


 1016 055d 74050000 		.4byte	0x574
 1017 0561 14       		.uleb128 0x14
 1018 0562 5700     		.ascii	"W\000"
 1019 0564 0C       		.byte	0xc
 1020 0565 95       		.byte	0x95
 1021 0566 E9000000 		.4byte	0xe9
 1022 056a 14       		.uleb128 0x14
 1023 056b 4800     		.ascii	"H\000"
 1024 056d 0C       		.byte	0xc
 1025 056e 99       		.byte	0x99
 1026 056f 38050000 		.4byte	0x538
 1027 0573 00       		.byte	0
 1028 0574 0B       		.uleb128 0xb
 1029 0575 28       		.byte	0x28
 1030 0576 0C       		.byte	0xc
 1031 0577 8C       		.byte	0x8c
 1032 0578 F5050000 		.4byte	0x5f5
 1033 057c 09       		.uleb128 0x9
 1034 057d 82000000 		.4byte	.LASF84
 1035 0581 0C       		.byte	0xc
 1036 0582 8E       		.byte	0x8e
 1037 0583 76030000 		.4byte	0x376
 1038 0587 00       		.byte	0
 1039 0588 09       		.uleb128 0x9
 1040 0589 46000000 		.4byte	.LASF85
 1041 058d 0C       		.byte	0xc
 1042 058e 8F       		.byte	0x8f
 1043 058f 76030000 		.4byte	0x376
 1044 0593 04       		.byte	0x4
 1045 0594 09       		.uleb128 0x9
 1046 0595 8D010000 		.4byte	.LASF86
 1047 0599 0C       		.byte	0xc
 1048 059a 90       		.byte	0x90
 1049 059b 76030000 		.4byte	0x376
 1050 059f 08       		.byte	0x8
 1051 05a0 09       		.uleb128 0x9
 1052 05a1 95000000 		.4byte	.LASF87
 1053 05a5 0C       		.byte	0xc
 1054 05a6 91       		.byte	0x91
 1055 05a7 76030000 		.4byte	0x376
 1056 05ab 0C       		.byte	0xc
 1057 05ac 0A       		.uleb128 0xa
 1058 05ad 49445200 		.ascii	"IDR\000"
 1059 05b1 0C       		.byte	0xc
 1060 05b2 92       		.byte	0x92
 1061 05b3 76030000 		.4byte	0x376
 1062 05b7 10       		.byte	0x10
 1063 05b8 0A       		.uleb128 0xa
 1064 05b9 4F445200 		.ascii	"ODR\000"
 1065 05bd 0C       		.byte	0xc
 1066 05be 93       		.byte	0x93
 1067 05bf 76030000 		.4byte	0x376
 1068 05c3 14       		.byte	0x14
 1069 05c4 09       		.uleb128 0x9
 1070 05c5 D9000000 		.4byte	.LASF88
 1071 05c9 0C       		.byte	0xc
 1072 05ca 9A       		.byte	0x9a
ARM GAS  C:\Users\srich\AppData\Local\Temp\cc8AEU99.s 			page 20


 1073 05cb F5050000 		.4byte	0x5f5
 1074 05cf 18       		.byte	0x18
 1075 05d0 09       		.uleb128 0x9
 1076 05d1 33020000 		.4byte	.LASF89
 1077 05d5 0C       		.byte	0xc
 1078 05d6 9B       		.byte	0x9b
 1079 05d7 76030000 		.4byte	0x376
 1080 05db 1C       		.byte	0x1c
 1081 05dc 09       		.uleb128 0x9
 1082 05dd 78040000 		.4byte	.LASF90
 1083 05e1 0C       		.byte	0xc
 1084 05e2 9C       		.byte	0x9c
 1085 05e3 76030000 		.4byte	0x376
 1086 05e7 20       		.byte	0x20
 1087 05e8 09       		.uleb128 0x9
 1088 05e9 6D040000 		.4byte	.LASF91
 1089 05ed 0C       		.byte	0xc
 1090 05ee 9D       		.byte	0x9d
 1091 05ef 76030000 		.4byte	0x376
 1092 05f3 24       		.byte	0x24
 1093 05f4 00       		.byte	0
 1094 05f5 0E       		.uleb128 0xe
 1095 05f6 59050000 		.4byte	0x559
 1096 05fa 03       		.uleb128 0x3
 1097 05fb 1E020000 		.4byte	.LASF92
 1098 05ff 0C       		.byte	0xc
 1099 0600 9E       		.byte	0x9e
 1100 0601 74050000 		.4byte	0x574
 1101 0605 03       		.uleb128 0x3
 1102 0606 68000000 		.4byte	.LASF93
 1103 060a 0C       		.byte	0xc
 1104 060b F0       		.byte	0xf0
 1105 060c E9000000 		.4byte	0xe9
 1106 0610 15       		.uleb128 0x15
 1107 0611 CE020000 		.4byte	0x2ce
 1108 0615 20060000 		.4byte	0x620
 1109 0619 16       		.uleb128 0x16
 1110 061a AF000000 		.4byte	0xaf
 1111 061e 29       		.byte	0x29
 1112 061f 00       		.byte	0
 1113 0620 17       		.uleb128 0x17
 1114 0621 C3040000 		.4byte	.LASF153
 1115 0625 01       		.byte	0x1
 1116 0626 0D       		.byte	0xd
 1117 0627 06       		.byte	0x6
 1118 0628 75060000 		.4byte	0x675
 1119 062c 18       		.uleb128 0x18
 1120 062d C6050000 		.4byte	.LASF94
 1121 0631 00       		.sleb128 0
 1122 0632 18       		.uleb128 0x18
 1123 0633 07050000 		.4byte	.LASF95
 1124 0637 01       		.sleb128 1
 1125 0638 18       		.uleb128 0x18
 1126 0639 7C060000 		.4byte	.LASF96
 1127 063d 02       		.sleb128 2
 1128 063e 18       		.uleb128 0x18
 1129 063f DB040000 		.4byte	.LASF97
ARM GAS  C:\Users\srich\AppData\Local\Temp\cc8AEU99.s 			page 21


 1130 0643 03       		.sleb128 3
 1131 0644 18       		.uleb128 0x18
 1132 0645 3B060000 		.4byte	.LASF98
 1133 0649 04       		.sleb128 4
 1134 064a 18       		.uleb128 0x18
 1135 064b 91060000 		.4byte	.LASF99
 1136 064f 05       		.sleb128 5
 1137 0650 18       		.uleb128 0x18
 1138 0651 37000000 		.4byte	.LASF100
 1139 0655 06       		.sleb128 6
 1140 0656 18       		.uleb128 0x18
 1141 0657 4A020000 		.4byte	.LASF101
 1142 065b 07       		.sleb128 7
 1143 065c 18       		.uleb128 0x18
 1144 065d CC010000 		.4byte	.LASF102
 1145 0661 08       		.sleb128 8
 1146 0662 18       		.uleb128 0x18
 1147 0663 56020000 		.4byte	.LASF103
 1148 0667 09       		.sleb128 9
 1149 0668 18       		.uleb128 0x18
 1150 0669 00020000 		.4byte	.LASF104
 1151 066d 0A       		.sleb128 10
 1152 066e 18       		.uleb128 0x18
 1153 066f 1A040000 		.4byte	.LASF105
 1154 0673 0B       		.sleb128 11
 1155 0674 00       		.byte	0
 1156 0675 08       		.uleb128 0x8
 1157 0676 29060000 		.4byte	.LASF106
 1158 067a 06       		.byte	0x6
 1159 067b 0D       		.byte	0xd
 1160 067c 16       		.byte	0x16
 1161 067d B1060000 		.4byte	0x6b1
 1162 0681 0A       		.uleb128 0xa
 1163 0682 696400   		.ascii	"id\000"
 1164 0685 0D       		.byte	0xd
 1165 0686 18       		.byte	0x18
 1166 0687 D3000000 		.4byte	0xd3
 1167 068b 00       		.byte	0
 1168 068c 09       		.uleb128 0x9
 1169 068d 38030000 		.4byte	.LASF107
 1170 0691 0D       		.byte	0xd
 1171 0692 19       		.byte	0x19
 1172 0693 D3000000 		.4byte	0xd3
 1173 0697 02       		.byte	0x2
 1174 0698 09       		.uleb128 0x9
 1175 0699 78020000 		.4byte	.LASF108
 1176 069d 0D       		.byte	0xd
 1177 069e 1A       		.byte	0x1a
 1178 069f C8000000 		.4byte	0xc8
 1179 06a3 04       		.byte	0x4
 1180 06a4 09       		.uleb128 0x9
 1181 06a5 38020000 		.4byte	.LASF109
 1182 06a9 0D       		.byte	0xd
 1183 06aa 1B       		.byte	0x1b
 1184 06ab 20060000 		.4byte	0x620
 1185 06af 05       		.byte	0x5
 1186 06b0 00       		.byte	0
ARM GAS  C:\Users\srich\AppData\Local\Temp\cc8AEU99.s 			page 22


 1187 06b1 02       		.uleb128 0x2
 1188 06b2 08       		.byte	0x8
 1189 06b3 04       		.byte	0x4
 1190 06b4 73010000 		.4byte	.LASF110
 1191 06b8 02       		.uleb128 0x2
 1192 06b9 04       		.byte	0x4
 1193 06ba 04       		.byte	0x4
 1194 06bb 72040000 		.4byte	.LASF111
 1195 06bf 02       		.uleb128 0x2
 1196 06c0 08       		.byte	0x8
 1197 06c1 04       		.byte	0x4
 1198 06c2 B5050000 		.4byte	.LASF112
 1199 06c6 19       		.uleb128 0x19
 1200 06c7 F6020000 		.4byte	.LASF113
 1201 06cb 01       		.byte	0x1
 1202 06cc 27       		.byte	0x27
 1203 06cd 48010000 		.4byte	0x148
 1204 06d1 00000000 		.4byte	.LFB119
 1205 06d5 4C000000 		.4byte	.LFE119-.LFB119
 1206 06d9 01       		.uleb128 0x1
 1207 06da 9C       		.byte	0x9c
 1208 06db 31070000 		.4byte	0x731
 1209 06df 1A       		.uleb128 0x1a
 1210 06e0 61726700 		.ascii	"arg\000"
 1211 06e4 01       		.byte	0x1
 1212 06e5 27       		.byte	0x27
 1213 06e6 AD000000 		.4byte	0xad
 1214 06ea 00000000 		.4byte	.LLST0
 1215 06ee 1B       		.uleb128 0x1b
 1216 06ef 00000000 		.4byte	.Ldebug_ranges0+0
 1217 06f3 1C       		.uleb128 0x1c
 1218 06f4 3B040000 		.4byte	.LASF115
 1219 06f8 01       		.byte	0x1
 1220 06f9 2C       		.byte	0x2c
 1221 06fa 5E010000 		.4byte	0x15e
 1222 06fe 1D       		.uleb128 0x1d
 1223 06ff 1E000000 		.4byte	.LVL2
 1224 0703 C8090000 		.4byte	0x9c8
 1225 0707 12070000 		.4byte	0x712
 1226 070b 1E       		.uleb128 0x1e
 1227 070c 01       		.uleb128 0x1
 1228 070d 50       		.byte	0x50
 1229 070e 02       		.uleb128 0x2
 1230 070f 74       		.byte	0x74
 1231 0710 00       		.sleb128 0
 1232 0711 00       		.byte	0
 1233 0712 1D       		.uleb128 0x1d
 1234 0713 26000000 		.4byte	.LVL3
 1235 0717 C8090000 		.4byte	0x9c8
 1236 071b 26070000 		.4byte	0x726
 1237 071f 1E       		.uleb128 0x1e
 1238 0720 01       		.uleb128 0x1
 1239 0721 50       		.byte	0x50
 1240 0722 02       		.uleb128 0x2
 1241 0723 74       		.byte	0x74
 1242 0724 00       		.sleb128 0
 1243 0725 00       		.byte	0
ARM GAS  C:\Users\srich\AppData\Local\Temp\cc8AEU99.s 			page 23


 1244 0726 1F       		.uleb128 0x1f
 1245 0727 30000000 		.4byte	.LVL4
 1246 072b DA090000 		.4byte	0x9da
 1247 072f 00       		.byte	0
 1248 0730 00       		.byte	0
 1249 0731 19       		.uleb128 0x19
 1250 0732 25010000 		.4byte	.LASF114
 1251 0736 01       		.byte	0x1
 1252 0737 46       		.byte	0x46
 1253 0738 48010000 		.4byte	0x148
 1254 073c 00000000 		.4byte	.LFB120
 1255 0740 40000000 		.4byte	.LFE120-.LFB120
 1256 0744 01       		.uleb128 0x1
 1257 0745 9C       		.byte	0x9c
 1258 0746 C1070000 		.4byte	0x7c1
 1259 074a 1A       		.uleb128 0x1a
 1260 074b 61726700 		.ascii	"arg\000"
 1261 074f 01       		.byte	0x1
 1262 0750 46       		.byte	0x46
 1263 0751 AD000000 		.4byte	0xad
 1264 0755 21000000 		.4byte	.LLST1
 1265 0759 20       		.uleb128 0x20
 1266 075a 3B040000 		.4byte	.LASF115
 1267 075e 01       		.byte	0x1
 1268 075f 47       		.byte	0x47
 1269 0760 5E010000 		.4byte	0x15e
 1270 0764 01       		.uleb128 0x1
 1271 0765 54       		.byte	0x54
 1272 0766 1C       		.uleb128 0x1c
 1273 0767 E1050000 		.4byte	.LASF116
 1274 076b 01       		.byte	0x1
 1275 076c 49       		.byte	0x49
 1276 076d C8000000 		.4byte	0xc8
 1277 0771 1F       		.uleb128 0x1f
 1278 0772 14000000 		.4byte	.LVL9
 1279 0776 E5090000 		.4byte	0x9e5
 1280 077a 1F       		.uleb128 0x1f
 1281 077b 18000000 		.4byte	.LVL10
 1282 077f EC090000 		.4byte	0x9ec
 1283 0783 1F       		.uleb128 0x1f
 1284 0784 1C000000 		.4byte	.LVL11
 1285 0788 F3090000 		.4byte	0x9f3
 1286 078c 1F       		.uleb128 0x1f
 1287 078d 20000000 		.4byte	.LVL12
 1288 0791 FA090000 		.4byte	0x9fa
 1289 0795 1F       		.uleb128 0x1f
 1290 0796 24000000 		.4byte	.LVL13
 1291 079a 010A0000 		.4byte	0xa01
 1292 079e 1F       		.uleb128 0x1f
 1293 079f 28000000 		.4byte	.LVL14
 1294 07a3 080A0000 		.4byte	0xa08
 1295 07a7 1F       		.uleb128 0x1f
 1296 07a8 2C000000 		.4byte	.LVL15
 1297 07ac 0F0A0000 		.4byte	0xa0f
 1298 07b0 21       		.uleb128 0x21
 1299 07b1 32000000 		.4byte	.LVL16
 1300 07b5 160A0000 		.4byte	0xa16
ARM GAS  C:\Users\srich\AppData\Local\Temp\cc8AEU99.s 			page 24


 1301 07b9 1E       		.uleb128 0x1e
 1302 07ba 01       		.uleb128 0x1
 1303 07bb 50       		.byte	0x50
 1304 07bc 02       		.uleb128 0x2
 1305 07bd 74       		.byte	0x74
 1306 07be 00       		.sleb128 0
 1307 07bf 00       		.byte	0
 1308 07c0 00       		.byte	0
 1309 07c1 22       		.uleb128 0x22
 1310 07c2 CC060000 		.4byte	.LASF154
 1311 07c6 01       		.byte	0x1
 1312 07c7 63       		.byte	0x63
 1313 07c8 94000000 		.4byte	0x94
 1314 07cc 00000000 		.4byte	.LFB121
 1315 07d0 9C000000 		.4byte	.LFE121-.LFB121
 1316 07d4 01       		.uleb128 0x1
 1317 07d5 9C       		.byte	0x9c
 1318 07d6 0B090000 		.4byte	0x90b
 1319 07da 1F       		.uleb128 0x1f
 1320 07db 08000000 		.4byte	.LVL17
 1321 07df 280A0000 		.4byte	0xa28
 1322 07e3 1F       		.uleb128 0x1f
 1323 07e4 0C000000 		.4byte	.LVL18
 1324 07e8 2F0A0000 		.4byte	0xa2f
 1325 07ec 1F       		.uleb128 0x1f
 1326 07ed 18000000 		.4byte	.LVL19
 1327 07f1 360A0000 		.4byte	0xa36
 1328 07f5 1F       		.uleb128 0x1f
 1329 07f6 1E000000 		.4byte	.LVL20
 1330 07fa 3D0A0000 		.4byte	0xa3d
 1331 07fe 1F       		.uleb128 0x1f
 1332 07ff 22000000 		.4byte	.LVL21
 1333 0803 440A0000 		.4byte	0xa44
 1334 0807 1F       		.uleb128 0x1f
 1335 0808 26000000 		.4byte	.LVL22
 1336 080c 4B0A0000 		.4byte	0xa4b
 1337 0810 1F       		.uleb128 0x1f
 1338 0811 2A000000 		.4byte	.LVL23
 1339 0815 520A0000 		.4byte	0xa52
 1340 0819 1F       		.uleb128 0x1f
 1341 081a 2E000000 		.4byte	.LVL24
 1342 081e 590A0000 		.4byte	0xa59
 1343 0822 1F       		.uleb128 0x1f
 1344 0823 32000000 		.4byte	.LVL25
 1345 0827 600A0000 		.4byte	0xa60
 1346 082b 1F       		.uleb128 0x1f
 1347 082c 36000000 		.4byte	.LVL26
 1348 0830 670A0000 		.4byte	0xa67
 1349 0834 1F       		.uleb128 0x1f
 1350 0835 3A000000 		.4byte	.LVL27
 1351 0839 6E0A0000 		.4byte	0xa6e
 1352 083d 1F       		.uleb128 0x1f
 1353 083e 3E000000 		.4byte	.LVL28
 1354 0842 750A0000 		.4byte	0xa75
 1355 0846 1D       		.uleb128 0x1d
 1356 0847 46000000 		.4byte	.LVL29
 1357 084b C8090000 		.4byte	0x9c8
ARM GAS  C:\Users\srich\AppData\Local\Temp\cc8AEU99.s 			page 25


 1358 084f 5B080000 		.4byte	0x85b
 1359 0853 1E       		.uleb128 0x1e
 1360 0854 01       		.uleb128 0x1
 1361 0855 50       		.byte	0x50
 1362 0856 03       		.uleb128 0x3
 1363 0857 0A       		.byte	0xa
 1364 0858 E803     		.2byte	0x3e8
 1365 085a 00       		.byte	0
 1366 085b 1F       		.uleb128 0x1f
 1367 085c 4A000000 		.4byte	.LVL30
 1368 0860 7C0A0000 		.4byte	0xa7c
 1369 0864 1F       		.uleb128 0x1f
 1370 0865 4E000000 		.4byte	.LVL31
 1371 0869 890A0000 		.4byte	0xa89
 1372 086d 1F       		.uleb128 0x1f
 1373 086e 52000000 		.4byte	.LVL32
 1374 0872 900A0000 		.4byte	0xa90
 1375 0876 1F       		.uleb128 0x1f
 1376 0877 56000000 		.4byte	.LVL33
 1377 087b 970A0000 		.4byte	0xa97
 1378 087f 1F       		.uleb128 0x1f
 1379 0880 5A000000 		.4byte	.LVL34
 1380 0884 9E0A0000 		.4byte	0xa9e
 1381 0888 1D       		.uleb128 0x1d
 1382 0889 6A000000 		.4byte	.LVL35
 1383 088d A50A0000 		.4byte	0xaa5
 1384 0891 BC080000 		.4byte	0x8bc
 1385 0895 1E       		.uleb128 0x1e
 1386 0896 01       		.uleb128 0x1
 1387 0897 53       		.byte	0x53
 1388 0898 05       		.uleb128 0x5
 1389 0899 03       		.byte	0x3
 1390 089a 00000000 		.4byte	task20ms
 1391 089e 1E       		.uleb128 0x1e
 1392 089f 01       		.uleb128 0x1
 1393 08a0 52       		.byte	0x52
 1394 08a1 02       		.uleb128 0x2
 1395 08a2 08       		.byte	0x8
 1396 08a3 40       		.byte	0x40
 1397 08a4 1E       		.uleb128 0x1e
 1398 08a5 01       		.uleb128 0x1
 1399 08a6 51       		.byte	0x51
 1400 08a7 03       		.uleb128 0x3
 1401 08a8 0A       		.byte	0xa
 1402 08a9 D002     		.2byte	0x2d0
 1403 08ab 1E       		.uleb128 0x1e
 1404 08ac 01       		.uleb128 0x1
 1405 08ad 50       		.byte	0x50
 1406 08ae 05       		.uleb128 0x5
 1407 08af 03       		.byte	0x3
 1408 08b0 00000000 		.4byte	.LANCHOR0
 1409 08b4 1E       		.uleb128 0x1e
 1410 08b5 02       		.uleb128 0x2
 1411 08b6 7D       		.byte	0x7d
 1412 08b7 00       		.sleb128 0
 1413 08b8 02       		.uleb128 0x2
 1414 08b9 74       		.byte	0x74
ARM GAS  C:\Users\srich\AppData\Local\Temp\cc8AEU99.s 			page 26


 1415 08ba 00       		.sleb128 0
 1416 08bb 00       		.byte	0
 1417 08bc 1D       		.uleb128 0x1d
 1418 08bd 7A000000 		.4byte	.LVL36
 1419 08c1 A50A0000 		.4byte	0xaa5
 1420 08c5 F0080000 		.4byte	0x8f0
 1421 08c9 1E       		.uleb128 0x1e
 1422 08ca 01       		.uleb128 0x1
 1423 08cb 53       		.byte	0x53
 1424 08cc 05       		.uleb128 0x5
 1425 08cd 03       		.byte	0x3
 1426 08ce 00000000 		.4byte	Thread1
 1427 08d2 1E       		.uleb128 0x1e
 1428 08d3 01       		.uleb128 0x1
 1429 08d4 52       		.byte	0x52
 1430 08d5 02       		.uleb128 0x2
 1431 08d6 08       		.byte	0x8
 1432 08d7 40       		.byte	0x40
 1433 08d8 1E       		.uleb128 0x1e
 1434 08d9 01       		.uleb128 0x1
 1435 08da 51       		.byte	0x51
 1436 08db 03       		.uleb128 0x3
 1437 08dc 0A       		.byte	0xa
 1438 08dd 5001     		.2byte	0x150
 1439 08df 1E       		.uleb128 0x1e
 1440 08e0 01       		.uleb128 0x1
 1441 08e1 50       		.byte	0x50
 1442 08e2 05       		.uleb128 0x5
 1443 08e3 03       		.byte	0x3
 1444 08e4 00000000 		.4byte	.LANCHOR1
 1445 08e8 1E       		.uleb128 0x1e
 1446 08e9 02       		.uleb128 0x2
 1447 08ea 7D       		.byte	0x7d
 1448 08eb 00       		.sleb128 0
 1449 08ec 02       		.uleb128 0x2
 1450 08ed 74       		.byte	0x74
 1451 08ee 00       		.sleb128 0
 1452 08ef 00       		.byte	0
 1453 08f0 1F       		.uleb128 0x1f
 1454 08f1 7E000000 		.4byte	.LVL37
 1455 08f5 CF0A0000 		.4byte	0xacf
 1456 08f9 21       		.uleb128 0x21
 1457 08fa 86000000 		.4byte	.LVL38
 1458 08fe C8090000 		.4byte	0x9c8
 1459 0902 1E       		.uleb128 0x1e
 1460 0903 01       		.uleb128 0x1
 1461 0904 50       		.byte	0x50
 1462 0905 03       		.uleb128 0x3
 1463 0906 0A       		.byte	0xa
 1464 0907 E803     		.2byte	0x3e8
 1465 0909 00       		.byte	0
 1466 090a 00       		.byte	0
 1467 090b 15       		.uleb128 0x15
 1468 090c 75060000 		.4byte	0x675
 1469 0910 1B090000 		.4byte	0x91b
 1470 0914 16       		.uleb128 0x16
 1471 0915 AF000000 		.4byte	0xaf
ARM GAS  C:\Users\srich\AppData\Local\Temp\cc8AEU99.s 			page 27


 1472 0919 0A       		.byte	0xa
 1473 091a 00       		.byte	0
 1474 091b 23       		.uleb128 0x23
 1475 091c 64020000 		.4byte	.LASF117
 1476 0920 0D       		.byte	0xd
 1477 0921 23       		.byte	0x23
 1478 0922 0B090000 		.4byte	0x90b
 1479 0926 42       		.byte	0x42
 1480 0927 10       		.byte	0x10
 1481 0928 00       		.byte	0
 1482 0929 10       		.byte	0x10
 1483 092a 00       		.byte	0
 1484 092b 04       		.byte	0x4
 1485 092c 00       		.byte	0
 1486 092d 11       		.byte	0x11
 1487 092e 00       		.byte	0
 1488 092f 14       		.byte	0x14
 1489 0930 00       		.byte	0
 1490 0931 04       		.byte	0x4
 1491 0932 01       		.byte	0x1
 1492 0933 12       		.byte	0x12
 1493 0934 00       		.byte	0
 1494 0935 18       		.byte	0x18
 1495 0936 00       		.byte	0
 1496 0937 04       		.byte	0x4
 1497 0938 02       		.byte	0x2
 1498 0939 13       		.byte	0x13
 1499 093a 00       		.byte	0
 1500 093b 1C       		.byte	0x1c
 1501 093c 00       		.byte	0
 1502 093d 04       		.byte	0x4
 1503 093e 03       		.byte	0x3
 1504 093f 14       		.byte	0x14
 1505 0940 00       		.byte	0
 1506 0941 20       		.byte	0x20
 1507 0942 00       		.byte	0
 1508 0943 04       		.byte	0x4
 1509 0944 04       		.byte	0x4
 1510 0945 15       		.byte	0x15
 1511 0946 00       		.byte	0
 1512 0947 24       		.byte	0x24
 1513 0948 00       		.byte	0
 1514 0949 04       		.byte	0x4
 1515 094a 05       		.byte	0x5
 1516 094b 16       		.byte	0x16
 1517 094c 00       		.byte	0
 1518 094d 28       		.byte	0x28
 1519 094e 00       		.byte	0
 1520 094f 04       		.byte	0x4
 1521 0950 06       		.byte	0x6
 1522 0951 17       		.byte	0x17
 1523 0952 00       		.byte	0
 1524 0953 3C       		.byte	0x3c
 1525 0954 00       		.byte	0
 1526 0955 04       		.byte	0x4
 1527 0956 07       		.byte	0x7
 1528 0957 18       		.byte	0x18
ARM GAS  C:\Users\srich\AppData\Local\Temp\cc8AEU99.s 			page 28


 1529 0958 00       		.byte	0
 1530 0959 40       		.byte	0x40
 1531 095a 00       		.byte	0
 1532 095b 04       		.byte	0x4
 1533 095c 08       		.byte	0x8
 1534 095d 19       		.byte	0x19
 1535 095e 00       		.byte	0
 1536 095f 44       		.byte	0x44
 1537 0960 00       		.byte	0
 1538 0961 04       		.byte	0x4
 1539 0962 09       		.byte	0x9
 1540 0963 FB       		.byte	0xfb
 1541 0964 FF       		.byte	0xff
 1542 0965 FB       		.byte	0xfb
 1543 0966 FF       		.byte	0xff
 1544 0967 04       		.byte	0x4
 1545 0968 0A       		.byte	0xa
 1546 0969 15       		.uleb128 0x15
 1547 096a CE020000 		.4byte	0x2ce
 1548 096e 79090000 		.4byte	0x979
 1549 0972 16       		.uleb128 0x16
 1550 0973 AF000000 		.4byte	0xaf
 1551 0977 59       		.byte	0x59
 1552 0978 00       		.byte	0
 1553 0979 1C       		.uleb128 0x1c
 1554 097a 9C040000 		.4byte	.LASF118
 1555 097e 0E       		.byte	0xe
 1556 097f 1D       		.byte	0x1d
 1557 0980 69090000 		.4byte	0x969
 1558 0984 20       		.uleb128 0x20
 1559 0985 7D040000 		.4byte	.LASF119
 1560 0989 01       		.byte	0x1
 1561 098a 26       		.byte	0x26
 1562 098b 10060000 		.4byte	0x610
 1563 098f 05       		.uleb128 0x5
 1564 0990 03       		.byte	0x3
 1565 0991 00000000 		.4byte	waThread1
 1566 0995 20       		.uleb128 0x20
 1567 0996 17060000 		.4byte	.LASF120
 1568 099a 01       		.byte	0x1
 1569 099b 45       		.byte	0x45
 1570 099c 69090000 		.4byte	0x969
 1571 09a0 05       		.uleb128 0x5
 1572 09a1 03       		.byte	0x3
 1573 09a2 00000000 		.4byte	watask20ms
 1574 09a6 24       		.uleb128 0x24
 1575 09a7 57000000 		.4byte	.LASF121
 1576 09ab 09       		.byte	0x9
 1577 09ac F5       		.byte	0xf5
 1578 09ad 2F040000 		.4byte	0x42f
 1579 09b1 24       		.uleb128 0x24
 1580 09b2 76060000 		.4byte	.LASF122
 1581 09b6 0A       		.byte	0xa
 1582 09b7 6F       		.byte	0x6f
 1583 09b8 8B040000 		.4byte	0x48b
 1584 09bc 25       		.uleb128 0x25
 1585 09bd 14050000 		.4byte	.LASF123
ARM GAS  C:\Users\srich\AppData\Local\Temp\cc8AEU99.s 			page 29


 1586 09c1 0F       		.byte	0xf
 1587 09c2 9806     		.2byte	0x698
 1588 09c4 33050000 		.4byte	0x533
 1589 09c8 26       		.uleb128 0x26
 1590 09c9 5A060000 		.4byte	.LASF131
 1591 09cd 07       		.byte	0x7
 1592 09ce 7501     		.2byte	0x175
 1593 09d0 DA090000 		.4byte	0x9da
 1594 09d4 10       		.uleb128 0x10
 1595 09d5 5E010000 		.4byte	0x15e
 1596 09d9 00       		.byte	0
 1597 09da 27       		.uleb128 0x27
 1598 09db 96020000 		.4byte	.LASF155
 1599 09df 18       		.byte	0x18
 1600 09e0 1D       		.byte	0x1d
 1601 09e1 FF000000 		.4byte	0xff
 1602 09e5 28       		.uleb128 0x28
 1603 09e6 52060000 		.4byte	.LASF124
 1604 09ea 10       		.byte	0x10
 1605 09eb 12       		.byte	0x12
 1606 09ec 28       		.uleb128 0x28
 1607 09ed 5E000000 		.4byte	.LASF125
 1608 09f1 11       		.byte	0x11
 1609 09f2 0E       		.byte	0xe
 1610 09f3 28       		.uleb128 0x28
 1611 09f4 2B040000 		.4byte	.LASF126
 1612 09f8 0E       		.byte	0xe
 1613 09f9 0D       		.byte	0xd
 1614 09fa 28       		.uleb128 0x28
 1615 09fb 18030000 		.4byte	.LASF127
 1616 09ff 12       		.byte	0x12
 1617 0a00 21       		.byte	0x21
 1618 0a01 28       		.uleb128 0x28
 1619 0a02 B4060000 		.4byte	.LASF128
 1620 0a06 13       		.byte	0x13
 1621 0a07 0D       		.byte	0xd
 1622 0a08 28       		.uleb128 0x28
 1623 0a09 B1040000 		.4byte	.LASF129
 1624 0a0d 14       		.byte	0x14
 1625 0a0e 0D       		.byte	0xd
 1626 0a0f 28       		.uleb128 0x28
 1627 0a10 25000000 		.4byte	.LASF130
 1628 0a14 15       		.byte	0x15
 1629 0a15 15       		.byte	0x15
 1630 0a16 26       		.uleb128 0x26
 1631 0a17 52040000 		.4byte	.LASF132
 1632 0a1b 07       		.byte	0x7
 1633 0a1c 7601     		.2byte	0x176
 1634 0a1e 280A0000 		.4byte	0xa28
 1635 0a22 10       		.uleb128 0x10
 1636 0a23 5E010000 		.4byte	0x15e
 1637 0a27 00       		.byte	0
 1638 0a28 28       		.uleb128 0x28
 1639 0a29 2B020000 		.4byte	.LASF133
 1640 0a2d 16       		.byte	0x16
 1641 0a2e D0       		.byte	0xd0
 1642 0a2f 28       		.uleb128 0x28
ARM GAS  C:\Users\srich\AppData\Local\Temp\cc8AEU99.s 			page 30


 1643 0a30 DE000000 		.4byte	.LASF134
 1644 0a34 17       		.byte	0x17
 1645 0a35 F6       		.byte	0xf6
 1646 0a36 28       		.uleb128 0x28
 1647 0a37 00000000 		.4byte	.LASF135
 1648 0a3b 18       		.byte	0x18
 1649 0a3c 1A       		.byte	0x1a
 1650 0a3d 28       		.uleb128 0x28
 1651 0a3e 10030000 		.4byte	.LASF136
 1652 0a42 10       		.byte	0x10
 1653 0a43 11       		.byte	0x11
 1654 0a44 28       		.uleb128 0x28
 1655 0a45 0A020000 		.4byte	.LASF137
 1656 0a49 19       		.byte	0x19
 1657 0a4a 09       		.byte	0x9
 1658 0a4b 28       		.uleb128 0x28
 1659 0a4c A4000000 		.4byte	.LASF138
 1660 0a50 1A       		.byte	0x1a
 1661 0a51 0B       		.byte	0xb
 1662 0a52 28       		.uleb128 0x28
 1663 0a53 87040000 		.4byte	.LASF139
 1664 0a57 1B       		.byte	0x1b
 1665 0a58 11       		.byte	0x11
 1666 0a59 28       		.uleb128 0x28
 1667 0a5a DA010000 		.4byte	.LASF140
 1668 0a5e 1C       		.byte	0x1c
 1669 0a5f 0B       		.byte	0xb
 1670 0a60 28       		.uleb128 0x28
 1671 0a61 75050000 		.4byte	.LASF141
 1672 0a65 11       		.byte	0x11
 1673 0a66 0D       		.byte	0xd
 1674 0a67 28       		.uleb128 0x28
 1675 0a68 11010000 		.4byte	.LASF142
 1676 0a6c 0E       		.byte	0xe
 1677 0a6d 0C       		.byte	0xc
 1678 0a6e 28       		.uleb128 0x28
 1679 0a6f AF000000 		.4byte	.LASF143
 1680 0a73 12       		.byte	0x12
 1681 0a74 20       		.byte	0x20
 1682 0a75 28       		.uleb128 0x28
 1683 0a76 29050000 		.4byte	.LASF144
 1684 0a7a 13       		.byte	0x13
 1685 0a7b 0C       		.byte	0xc
 1686 0a7c 29       		.uleb128 0x29
 1687 0a7d 3E050000 		.4byte	.LASF156
 1688 0a81 1F       		.byte	0x1f
 1689 0a82 6E       		.byte	0x6e
 1690 0a83 890A0000 		.4byte	0xa89
 1691 0a87 2A       		.uleb128 0x2a
 1692 0a88 00       		.byte	0
 1693 0a89 28       		.uleb128 0x28
 1694 0a8a 7A010000 		.4byte	.LASF145
 1695 0a8e 14       		.byte	0x14
 1696 0a8f 0C       		.byte	0xc
 1697 0a90 28       		.uleb128 0x28
 1698 0a91 E0020000 		.4byte	.LASF146
 1699 0a95 1D       		.byte	0x1d
ARM GAS  C:\Users\srich\AppData\Local\Temp\cc8AEU99.s 			page 31


 1700 0a96 0C       		.byte	0xc
 1701 0a97 28       		.uleb128 0x28
 1702 0a98 D1060000 		.4byte	.LASF147
 1703 0a9c 15       		.byte	0x15
 1704 0a9d 14       		.byte	0x14
 1705 0a9e 28       		.uleb128 0x28
 1706 0a9f 37010000 		.4byte	.LASF148
 1707 0aa3 1E       		.byte	0x1e
 1708 0aa4 18       		.byte	0x18
 1709 0aa5 2B       		.uleb128 0x2b
 1710 0aa6 FE020000 		.4byte	.LASF157
 1711 0aaa 07       		.byte	0x7
 1712 0aab 7001     		.2byte	0x170
 1713 0aad 92020000 		.4byte	0x292
 1714 0ab1 CF0A0000 		.4byte	0xacf
 1715 0ab5 10       		.uleb128 0x10
 1716 0ab6 AD000000 		.4byte	0xad
 1717 0aba 10       		.uleb128 0x10
 1718 0abb A2000000 		.4byte	0xa2
 1719 0abf 10       		.uleb128 0x10
 1720 0ac0 3D010000 		.4byte	0x13d
 1721 0ac4 10       		.uleb128 0x10
 1722 0ac5 13050000 		.4byte	0x513
 1723 0ac9 10       		.uleb128 0x10
 1724 0aca AD000000 		.4byte	0xad
 1725 0ace 00       		.byte	0
 1726 0acf 28       		.uleb128 0x28
 1727 0ad0 75000000 		.4byte	.LASF149
 1728 0ad4 19       		.byte	0x19
 1729 0ad5 0A       		.byte	0xa
 1730 0ad6 00       		.byte	0
 1731              		.section	.debug_abbrev,"",%progbits
 1732              	.Ldebug_abbrev0:
 1733 0000 01       		.uleb128 0x1
 1734 0001 11       		.uleb128 0x11
 1735 0002 01       		.byte	0x1
 1736 0003 25       		.uleb128 0x25
 1737 0004 0E       		.uleb128 0xe
 1738 0005 13       		.uleb128 0x13
 1739 0006 0B       		.uleb128 0xb
 1740 0007 03       		.uleb128 0x3
 1741 0008 0E       		.uleb128 0xe
 1742 0009 1B       		.uleb128 0x1b
 1743 000a 0E       		.uleb128 0xe
 1744 000b 55       		.uleb128 0x55
 1745 000c 17       		.uleb128 0x17
 1746 000d 11       		.uleb128 0x11
 1747 000e 01       		.uleb128 0x1
 1748 000f 10       		.uleb128 0x10
 1749 0010 17       		.uleb128 0x17
 1750 0011 00       		.byte	0
 1751 0012 00       		.byte	0
 1752 0013 02       		.uleb128 0x2
 1753 0014 24       		.uleb128 0x24
 1754 0015 00       		.byte	0
 1755 0016 0B       		.uleb128 0xb
 1756 0017 0B       		.uleb128 0xb
ARM GAS  C:\Users\srich\AppData\Local\Temp\cc8AEU99.s 			page 32


 1757 0018 3E       		.uleb128 0x3e
 1758 0019 0B       		.uleb128 0xb
 1759 001a 03       		.uleb128 0x3
 1760 001b 0E       		.uleb128 0xe
 1761 001c 00       		.byte	0
 1762 001d 00       		.byte	0
 1763 001e 03       		.uleb128 0x3
 1764 001f 16       		.uleb128 0x16
 1765 0020 00       		.byte	0
 1766 0021 03       		.uleb128 0x3
 1767 0022 0E       		.uleb128 0xe
 1768 0023 3A       		.uleb128 0x3a
 1769 0024 0B       		.uleb128 0xb
 1770 0025 3B       		.uleb128 0x3b
 1771 0026 0B       		.uleb128 0xb
 1772 0027 49       		.uleb128 0x49
 1773 0028 13       		.uleb128 0x13
 1774 0029 00       		.byte	0
 1775 002a 00       		.byte	0
 1776 002b 04       		.uleb128 0x4
 1777 002c 24       		.uleb128 0x24
 1778 002d 00       		.byte	0
 1779 002e 0B       		.uleb128 0xb
 1780 002f 0B       		.uleb128 0xb
 1781 0030 3E       		.uleb128 0x3e
 1782 0031 0B       		.uleb128 0xb
 1783 0032 03       		.uleb128 0x3
 1784 0033 08       		.uleb128 0x8
 1785 0034 00       		.byte	0
 1786 0035 00       		.byte	0
 1787 0036 05       		.uleb128 0x5
 1788 0037 0F       		.uleb128 0xf
 1789 0038 00       		.byte	0
 1790 0039 0B       		.uleb128 0xb
 1791 003a 0B       		.uleb128 0xb
 1792 003b 00       		.byte	0
 1793 003c 00       		.byte	0
 1794 003d 06       		.uleb128 0x6
 1795 003e 0F       		.uleb128 0xf
 1796 003f 00       		.byte	0
 1797 0040 0B       		.uleb128 0xb
 1798 0041 0B       		.uleb128 0xb
 1799 0042 49       		.uleb128 0x49
 1800 0043 13       		.uleb128 0x13
 1801 0044 00       		.byte	0
 1802 0045 00       		.byte	0
 1803 0046 07       		.uleb128 0x7
 1804 0047 26       		.uleb128 0x26
 1805 0048 00       		.byte	0
 1806 0049 49       		.uleb128 0x49
 1807 004a 13       		.uleb128 0x13
 1808 004b 00       		.byte	0
 1809 004c 00       		.byte	0
 1810 004d 08       		.uleb128 0x8
 1811 004e 13       		.uleb128 0x13
 1812 004f 01       		.byte	0x1
 1813 0050 03       		.uleb128 0x3
ARM GAS  C:\Users\srich\AppData\Local\Temp\cc8AEU99.s 			page 33


 1814 0051 0E       		.uleb128 0xe
 1815 0052 0B       		.uleb128 0xb
 1816 0053 0B       		.uleb128 0xb
 1817 0054 3A       		.uleb128 0x3a
 1818 0055 0B       		.uleb128 0xb
 1819 0056 3B       		.uleb128 0x3b
 1820 0057 0B       		.uleb128 0xb
 1821 0058 01       		.uleb128 0x1
 1822 0059 13       		.uleb128 0x13
 1823 005a 00       		.byte	0
 1824 005b 00       		.byte	0
 1825 005c 09       		.uleb128 0x9
 1826 005d 0D       		.uleb128 0xd
 1827 005e 00       		.byte	0
 1828 005f 03       		.uleb128 0x3
 1829 0060 0E       		.uleb128 0xe
 1830 0061 3A       		.uleb128 0x3a
 1831 0062 0B       		.uleb128 0xb
 1832 0063 3B       		.uleb128 0x3b
 1833 0064 0B       		.uleb128 0xb
 1834 0065 49       		.uleb128 0x49
 1835 0066 13       		.uleb128 0x13
 1836 0067 38       		.uleb128 0x38
 1837 0068 0B       		.uleb128 0xb
 1838 0069 00       		.byte	0
 1839 006a 00       		.byte	0
 1840 006b 0A       		.uleb128 0xa
 1841 006c 0D       		.uleb128 0xd
 1842 006d 00       		.byte	0
 1843 006e 03       		.uleb128 0x3
 1844 006f 08       		.uleb128 0x8
 1845 0070 3A       		.uleb128 0x3a
 1846 0071 0B       		.uleb128 0xb
 1847 0072 3B       		.uleb128 0x3b
 1848 0073 0B       		.uleb128 0xb
 1849 0074 49       		.uleb128 0x49
 1850 0075 13       		.uleb128 0x13
 1851 0076 38       		.uleb128 0x38
 1852 0077 0B       		.uleb128 0xb
 1853 0078 00       		.byte	0
 1854 0079 00       		.byte	0
 1855 007a 0B       		.uleb128 0xb
 1856 007b 13       		.uleb128 0x13
 1857 007c 01       		.byte	0x1
 1858 007d 0B       		.uleb128 0xb
 1859 007e 0B       		.uleb128 0xb
 1860 007f 3A       		.uleb128 0x3a
 1861 0080 0B       		.uleb128 0xb
 1862 0081 3B       		.uleb128 0x3b
 1863 0082 0B       		.uleb128 0xb
 1864 0083 01       		.uleb128 0x1
 1865 0084 13       		.uleb128 0x13
 1866 0085 00       		.byte	0
 1867 0086 00       		.byte	0
 1868 0087 0C       		.uleb128 0xc
 1869 0088 13       		.uleb128 0x13
 1870 0089 01       		.byte	0x1
ARM GAS  C:\Users\srich\AppData\Local\Temp\cc8AEU99.s 			page 34


 1871 008a 03       		.uleb128 0x3
 1872 008b 0E       		.uleb128 0xe
 1873 008c 0B       		.uleb128 0xb
 1874 008d 0B       		.uleb128 0xb
 1875 008e 3A       		.uleb128 0x3a
 1876 008f 0B       		.uleb128 0xb
 1877 0090 3B       		.uleb128 0x3b
 1878 0091 05       		.uleb128 0x5
 1879 0092 01       		.uleb128 0x1
 1880 0093 13       		.uleb128 0x13
 1881 0094 00       		.byte	0
 1882 0095 00       		.byte	0
 1883 0096 0D       		.uleb128 0xd
 1884 0097 0D       		.uleb128 0xd
 1885 0098 00       		.byte	0
 1886 0099 03       		.uleb128 0x3
 1887 009a 08       		.uleb128 0x8
 1888 009b 3A       		.uleb128 0x3a
 1889 009c 0B       		.uleb128 0xb
 1890 009d 3B       		.uleb128 0x3b
 1891 009e 05       		.uleb128 0x5
 1892 009f 49       		.uleb128 0x49
 1893 00a0 13       		.uleb128 0x13
 1894 00a1 38       		.uleb128 0x38
 1895 00a2 0B       		.uleb128 0xb
 1896 00a3 00       		.byte	0
 1897 00a4 00       		.byte	0
 1898 00a5 0E       		.uleb128 0xe
 1899 00a6 35       		.uleb128 0x35
 1900 00a7 00       		.byte	0
 1901 00a8 49       		.uleb128 0x49
 1902 00a9 13       		.uleb128 0x13
 1903 00aa 00       		.byte	0
 1904 00ab 00       		.byte	0
 1905 00ac 0F       		.uleb128 0xf
 1906 00ad 15       		.uleb128 0x15
 1907 00ae 01       		.byte	0x1
 1908 00af 27       		.uleb128 0x27
 1909 00b0 19       		.uleb128 0x19
 1910 00b1 01       		.uleb128 0x1
 1911 00b2 13       		.uleb128 0x13
 1912 00b3 00       		.byte	0
 1913 00b4 00       		.byte	0
 1914 00b5 10       		.uleb128 0x10
 1915 00b6 05       		.uleb128 0x5
 1916 00b7 00       		.byte	0
 1917 00b8 49       		.uleb128 0x49
 1918 00b9 13       		.uleb128 0x13
 1919 00ba 00       		.byte	0
 1920 00bb 00       		.byte	0
 1921 00bc 11       		.uleb128 0x11
 1922 00bd 17       		.uleb128 0x17
 1923 00be 01       		.byte	0x1
 1924 00bf 0B       		.uleb128 0xb
 1925 00c0 0B       		.uleb128 0xb
 1926 00c1 3A       		.uleb128 0x3a
 1927 00c2 0B       		.uleb128 0xb
ARM GAS  C:\Users\srich\AppData\Local\Temp\cc8AEU99.s 			page 35


 1928 00c3 3B       		.uleb128 0x3b
 1929 00c4 0B       		.uleb128 0xb
 1930 00c5 01       		.uleb128 0x1
 1931 00c6 13       		.uleb128 0x13
 1932 00c7 00       		.byte	0
 1933 00c8 00       		.byte	0
 1934 00c9 12       		.uleb128 0x12
 1935 00ca 0D       		.uleb128 0xd
 1936 00cb 00       		.byte	0
 1937 00cc 03       		.uleb128 0x3
 1938 00cd 0E       		.uleb128 0xe
 1939 00ce 3A       		.uleb128 0x3a
 1940 00cf 0B       		.uleb128 0xb
 1941 00d0 3B       		.uleb128 0x3b
 1942 00d1 0B       		.uleb128 0xb
 1943 00d2 49       		.uleb128 0x49
 1944 00d3 13       		.uleb128 0x13
 1945 00d4 00       		.byte	0
 1946 00d5 00       		.byte	0
 1947 00d6 13       		.uleb128 0x13
 1948 00d7 15       		.uleb128 0x15
 1949 00d8 01       		.byte	0x1
 1950 00d9 27       		.uleb128 0x27
 1951 00da 19       		.uleb128 0x19
 1952 00db 49       		.uleb128 0x49
 1953 00dc 13       		.uleb128 0x13
 1954 00dd 01       		.uleb128 0x1
 1955 00de 13       		.uleb128 0x13
 1956 00df 00       		.byte	0
 1957 00e0 00       		.byte	0
 1958 00e1 14       		.uleb128 0x14
 1959 00e2 0D       		.uleb128 0xd
 1960 00e3 00       		.byte	0
 1961 00e4 03       		.uleb128 0x3
 1962 00e5 08       		.uleb128 0x8
 1963 00e6 3A       		.uleb128 0x3a
 1964 00e7 0B       		.uleb128 0xb
 1965 00e8 3B       		.uleb128 0x3b
 1966 00e9 0B       		.uleb128 0xb
 1967 00ea 49       		.uleb128 0x49
 1968 00eb 13       		.uleb128 0x13
 1969 00ec 00       		.byte	0
 1970 00ed 00       		.byte	0
 1971 00ee 15       		.uleb128 0x15
 1972 00ef 01       		.uleb128 0x1
 1973 00f0 01       		.byte	0x1
 1974 00f1 49       		.uleb128 0x49
 1975 00f2 13       		.uleb128 0x13
 1976 00f3 01       		.uleb128 0x1
 1977 00f4 13       		.uleb128 0x13
 1978 00f5 00       		.byte	0
 1979 00f6 00       		.byte	0
 1980 00f7 16       		.uleb128 0x16
 1981 00f8 21       		.uleb128 0x21
 1982 00f9 00       		.byte	0
 1983 00fa 49       		.uleb128 0x49
 1984 00fb 13       		.uleb128 0x13
ARM GAS  C:\Users\srich\AppData\Local\Temp\cc8AEU99.s 			page 36


 1985 00fc 2F       		.uleb128 0x2f
 1986 00fd 0B       		.uleb128 0xb
 1987 00fe 00       		.byte	0
 1988 00ff 00       		.byte	0
 1989 0100 17       		.uleb128 0x17
 1990 0101 04       		.uleb128 0x4
 1991 0102 01       		.byte	0x1
 1992 0103 03       		.uleb128 0x3
 1993 0104 0E       		.uleb128 0xe
 1994 0105 0B       		.uleb128 0xb
 1995 0106 0B       		.uleb128 0xb
 1996 0107 3A       		.uleb128 0x3a
 1997 0108 0B       		.uleb128 0xb
 1998 0109 3B       		.uleb128 0x3b
 1999 010a 0B       		.uleb128 0xb
 2000 010b 01       		.uleb128 0x1
 2001 010c 13       		.uleb128 0x13
 2002 010d 00       		.byte	0
 2003 010e 00       		.byte	0
 2004 010f 18       		.uleb128 0x18
 2005 0110 28       		.uleb128 0x28
 2006 0111 00       		.byte	0
 2007 0112 03       		.uleb128 0x3
 2008 0113 0E       		.uleb128 0xe
 2009 0114 1C       		.uleb128 0x1c
 2010 0115 0D       		.uleb128 0xd
 2011 0116 00       		.byte	0
 2012 0117 00       		.byte	0
 2013 0118 19       		.uleb128 0x19
 2014 0119 2E       		.uleb128 0x2e
 2015 011a 01       		.byte	0x1
 2016 011b 03       		.uleb128 0x3
 2017 011c 0E       		.uleb128 0xe
 2018 011d 3A       		.uleb128 0x3a
 2019 011e 0B       		.uleb128 0xb
 2020 011f 3B       		.uleb128 0x3b
 2021 0120 0B       		.uleb128 0xb
 2022 0121 27       		.uleb128 0x27
 2023 0122 19       		.uleb128 0x19
 2024 0123 49       		.uleb128 0x49
 2025 0124 13       		.uleb128 0x13
 2026 0125 11       		.uleb128 0x11
 2027 0126 01       		.uleb128 0x1
 2028 0127 12       		.uleb128 0x12
 2029 0128 06       		.uleb128 0x6
 2030 0129 40       		.uleb128 0x40
 2031 012a 18       		.uleb128 0x18
 2032 012b 9742     		.uleb128 0x2117
 2033 012d 19       		.uleb128 0x19
 2034 012e 01       		.uleb128 0x1
 2035 012f 13       		.uleb128 0x13
 2036 0130 00       		.byte	0
 2037 0131 00       		.byte	0
 2038 0132 1A       		.uleb128 0x1a
 2039 0133 05       		.uleb128 0x5
 2040 0134 00       		.byte	0
 2041 0135 03       		.uleb128 0x3
ARM GAS  C:\Users\srich\AppData\Local\Temp\cc8AEU99.s 			page 37


 2042 0136 08       		.uleb128 0x8
 2043 0137 3A       		.uleb128 0x3a
 2044 0138 0B       		.uleb128 0xb
 2045 0139 3B       		.uleb128 0x3b
 2046 013a 0B       		.uleb128 0xb
 2047 013b 49       		.uleb128 0x49
 2048 013c 13       		.uleb128 0x13
 2049 013d 02       		.uleb128 0x2
 2050 013e 17       		.uleb128 0x17
 2051 013f 00       		.byte	0
 2052 0140 00       		.byte	0
 2053 0141 1B       		.uleb128 0x1b
 2054 0142 0B       		.uleb128 0xb
 2055 0143 01       		.byte	0x1
 2056 0144 55       		.uleb128 0x55
 2057 0145 17       		.uleb128 0x17
 2058 0146 00       		.byte	0
 2059 0147 00       		.byte	0
 2060 0148 1C       		.uleb128 0x1c
 2061 0149 34       		.uleb128 0x34
 2062 014a 00       		.byte	0
 2063 014b 03       		.uleb128 0x3
 2064 014c 0E       		.uleb128 0xe
 2065 014d 3A       		.uleb128 0x3a
 2066 014e 0B       		.uleb128 0xb
 2067 014f 3B       		.uleb128 0x3b
 2068 0150 0B       		.uleb128 0xb
 2069 0151 49       		.uleb128 0x49
 2070 0152 13       		.uleb128 0x13
 2071 0153 00       		.byte	0
 2072 0154 00       		.byte	0
 2073 0155 1D       		.uleb128 0x1d
 2074 0156 898201   		.uleb128 0x4109
 2075 0159 01       		.byte	0x1
 2076 015a 11       		.uleb128 0x11
 2077 015b 01       		.uleb128 0x1
 2078 015c 31       		.uleb128 0x31
 2079 015d 13       		.uleb128 0x13
 2080 015e 01       		.uleb128 0x1
 2081 015f 13       		.uleb128 0x13
 2082 0160 00       		.byte	0
 2083 0161 00       		.byte	0
 2084 0162 1E       		.uleb128 0x1e
 2085 0163 8A8201   		.uleb128 0x410a
 2086 0166 00       		.byte	0
 2087 0167 02       		.uleb128 0x2
 2088 0168 18       		.uleb128 0x18
 2089 0169 9142     		.uleb128 0x2111
 2090 016b 18       		.uleb128 0x18
 2091 016c 00       		.byte	0
 2092 016d 00       		.byte	0
 2093 016e 1F       		.uleb128 0x1f
 2094 016f 898201   		.uleb128 0x4109
 2095 0172 00       		.byte	0
 2096 0173 11       		.uleb128 0x11
 2097 0174 01       		.uleb128 0x1
 2098 0175 31       		.uleb128 0x31
ARM GAS  C:\Users\srich\AppData\Local\Temp\cc8AEU99.s 			page 38


 2099 0176 13       		.uleb128 0x13
 2100 0177 00       		.byte	0
 2101 0178 00       		.byte	0
 2102 0179 20       		.uleb128 0x20
 2103 017a 34       		.uleb128 0x34
 2104 017b 00       		.byte	0
 2105 017c 03       		.uleb128 0x3
 2106 017d 0E       		.uleb128 0xe
 2107 017e 3A       		.uleb128 0x3a
 2108 017f 0B       		.uleb128 0xb
 2109 0180 3B       		.uleb128 0x3b
 2110 0181 0B       		.uleb128 0xb
 2111 0182 49       		.uleb128 0x49
 2112 0183 13       		.uleb128 0x13
 2113 0184 02       		.uleb128 0x2
 2114 0185 18       		.uleb128 0x18
 2115 0186 00       		.byte	0
 2116 0187 00       		.byte	0
 2117 0188 21       		.uleb128 0x21
 2118 0189 898201   		.uleb128 0x4109
 2119 018c 01       		.byte	0x1
 2120 018d 11       		.uleb128 0x11
 2121 018e 01       		.uleb128 0x1
 2122 018f 31       		.uleb128 0x31
 2123 0190 13       		.uleb128 0x13
 2124 0191 00       		.byte	0
 2125 0192 00       		.byte	0
 2126 0193 22       		.uleb128 0x22
 2127 0194 2E       		.uleb128 0x2e
 2128 0195 01       		.byte	0x1
 2129 0196 3F       		.uleb128 0x3f
 2130 0197 19       		.uleb128 0x19
 2131 0198 03       		.uleb128 0x3
 2132 0199 0E       		.uleb128 0xe
 2133 019a 3A       		.uleb128 0x3a
 2134 019b 0B       		.uleb128 0xb
 2135 019c 3B       		.uleb128 0x3b
 2136 019d 0B       		.uleb128 0xb
 2137 019e 27       		.uleb128 0x27
 2138 019f 19       		.uleb128 0x19
 2139 01a0 49       		.uleb128 0x49
 2140 01a1 13       		.uleb128 0x13
 2141 01a2 11       		.uleb128 0x11
 2142 01a3 01       		.uleb128 0x1
 2143 01a4 12       		.uleb128 0x12
 2144 01a5 06       		.uleb128 0x6
 2145 01a6 40       		.uleb128 0x40
 2146 01a7 18       		.uleb128 0x18
 2147 01a8 9742     		.uleb128 0x2117
 2148 01aa 19       		.uleb128 0x19
 2149 01ab 01       		.uleb128 0x1
 2150 01ac 13       		.uleb128 0x13
 2151 01ad 00       		.byte	0
 2152 01ae 00       		.byte	0
 2153 01af 23       		.uleb128 0x23
 2154 01b0 34       		.uleb128 0x34
 2155 01b1 00       		.byte	0
ARM GAS  C:\Users\srich\AppData\Local\Temp\cc8AEU99.s 			page 39


 2156 01b2 03       		.uleb128 0x3
 2157 01b3 0E       		.uleb128 0xe
 2158 01b4 3A       		.uleb128 0x3a
 2159 01b5 0B       		.uleb128 0xb
 2160 01b6 3B       		.uleb128 0x3b
 2161 01b7 0B       		.uleb128 0xb
 2162 01b8 49       		.uleb128 0x49
 2163 01b9 13       		.uleb128 0x13
 2164 01ba 1C       		.uleb128 0x1c
 2165 01bb 0A       		.uleb128 0xa
 2166 01bc 00       		.byte	0
 2167 01bd 00       		.byte	0
 2168 01be 24       		.uleb128 0x24
 2169 01bf 34       		.uleb128 0x34
 2170 01c0 00       		.byte	0
 2171 01c1 03       		.uleb128 0x3
 2172 01c2 0E       		.uleb128 0xe
 2173 01c3 3A       		.uleb128 0x3a
 2174 01c4 0B       		.uleb128 0xb
 2175 01c5 3B       		.uleb128 0x3b
 2176 01c6 0B       		.uleb128 0xb
 2177 01c7 49       		.uleb128 0x49
 2178 01c8 13       		.uleb128 0x13
 2179 01c9 3F       		.uleb128 0x3f
 2180 01ca 19       		.uleb128 0x19
 2181 01cb 3C       		.uleb128 0x3c
 2182 01cc 19       		.uleb128 0x19
 2183 01cd 00       		.byte	0
 2184 01ce 00       		.byte	0
 2185 01cf 25       		.uleb128 0x25
 2186 01d0 34       		.uleb128 0x34
 2187 01d1 00       		.byte	0
 2188 01d2 03       		.uleb128 0x3
 2189 01d3 0E       		.uleb128 0xe
 2190 01d4 3A       		.uleb128 0x3a
 2191 01d5 0B       		.uleb128 0xb
 2192 01d6 3B       		.uleb128 0x3b
 2193 01d7 05       		.uleb128 0x5
 2194 01d8 49       		.uleb128 0x49
 2195 01d9 13       		.uleb128 0x13
 2196 01da 3F       		.uleb128 0x3f
 2197 01db 19       		.uleb128 0x19
 2198 01dc 3C       		.uleb128 0x3c
 2199 01dd 19       		.uleb128 0x19
 2200 01de 00       		.byte	0
 2201 01df 00       		.byte	0
 2202 01e0 26       		.uleb128 0x26
 2203 01e1 2E       		.uleb128 0x2e
 2204 01e2 01       		.byte	0x1
 2205 01e3 3F       		.uleb128 0x3f
 2206 01e4 19       		.uleb128 0x19
 2207 01e5 03       		.uleb128 0x3
 2208 01e6 0E       		.uleb128 0xe
 2209 01e7 3A       		.uleb128 0x3a
 2210 01e8 0B       		.uleb128 0xb
 2211 01e9 3B       		.uleb128 0x3b
 2212 01ea 05       		.uleb128 0x5
ARM GAS  C:\Users\srich\AppData\Local\Temp\cc8AEU99.s 			page 40


 2213 01eb 27       		.uleb128 0x27
 2214 01ec 19       		.uleb128 0x19
 2215 01ed 3C       		.uleb128 0x3c
 2216 01ee 19       		.uleb128 0x19
 2217 01ef 01       		.uleb128 0x1
 2218 01f0 13       		.uleb128 0x13
 2219 01f1 00       		.byte	0
 2220 01f2 00       		.byte	0
 2221 01f3 27       		.uleb128 0x27
 2222 01f4 2E       		.uleb128 0x2e
 2223 01f5 00       		.byte	0
 2224 01f6 3F       		.uleb128 0x3f
 2225 01f7 19       		.uleb128 0x19
 2226 01f8 03       		.uleb128 0x3
 2227 01f9 0E       		.uleb128 0xe
 2228 01fa 3A       		.uleb128 0x3a
 2229 01fb 0B       		.uleb128 0xb
 2230 01fc 3B       		.uleb128 0x3b
 2231 01fd 0B       		.uleb128 0xb
 2232 01fe 27       		.uleb128 0x27
 2233 01ff 19       		.uleb128 0x19
 2234 0200 49       		.uleb128 0x49
 2235 0201 13       		.uleb128 0x13
 2236 0202 3C       		.uleb128 0x3c
 2237 0203 19       		.uleb128 0x19
 2238 0204 00       		.byte	0
 2239 0205 00       		.byte	0
 2240 0206 28       		.uleb128 0x28
 2241 0207 2E       		.uleb128 0x2e
 2242 0208 00       		.byte	0
 2243 0209 3F       		.uleb128 0x3f
 2244 020a 19       		.uleb128 0x19
 2245 020b 03       		.uleb128 0x3
 2246 020c 0E       		.uleb128 0xe
 2247 020d 3A       		.uleb128 0x3a
 2248 020e 0B       		.uleb128 0xb
 2249 020f 3B       		.uleb128 0x3b
 2250 0210 0B       		.uleb128 0xb
 2251 0211 27       		.uleb128 0x27
 2252 0212 19       		.uleb128 0x19
 2253 0213 3C       		.uleb128 0x3c
 2254 0214 19       		.uleb128 0x19
 2255 0215 00       		.byte	0
 2256 0216 00       		.byte	0
 2257 0217 29       		.uleb128 0x29
 2258 0218 2E       		.uleb128 0x2e
 2259 0219 01       		.byte	0x1
 2260 021a 3F       		.uleb128 0x3f
 2261 021b 19       		.uleb128 0x19
 2262 021c 03       		.uleb128 0x3
 2263 021d 0E       		.uleb128 0xe
 2264 021e 3A       		.uleb128 0x3a
 2265 021f 0B       		.uleb128 0xb
 2266 0220 3B       		.uleb128 0x3b
 2267 0221 0B       		.uleb128 0xb
 2268 0222 3C       		.uleb128 0x3c
 2269 0223 19       		.uleb128 0x19
ARM GAS  C:\Users\srich\AppData\Local\Temp\cc8AEU99.s 			page 41


 2270 0224 01       		.uleb128 0x1
 2271 0225 13       		.uleb128 0x13
 2272 0226 00       		.byte	0
 2273 0227 00       		.byte	0
 2274 0228 2A       		.uleb128 0x2a
 2275 0229 18       		.uleb128 0x18
 2276 022a 00       		.byte	0
 2277 022b 00       		.byte	0
 2278 022c 00       		.byte	0
 2279 022d 2B       		.uleb128 0x2b
 2280 022e 2E       		.uleb128 0x2e
 2281 022f 01       		.byte	0x1
 2282 0230 3F       		.uleb128 0x3f
 2283 0231 19       		.uleb128 0x19
 2284 0232 03       		.uleb128 0x3
 2285 0233 0E       		.uleb128 0xe
 2286 0234 3A       		.uleb128 0x3a
 2287 0235 0B       		.uleb128 0xb
 2288 0236 3B       		.uleb128 0x3b
 2289 0237 05       		.uleb128 0x5
 2290 0238 27       		.uleb128 0x27
 2291 0239 19       		.uleb128 0x19
 2292 023a 49       		.uleb128 0x49
 2293 023b 13       		.uleb128 0x13
 2294 023c 3C       		.uleb128 0x3c
 2295 023d 19       		.uleb128 0x19
 2296 023e 01       		.uleb128 0x1
 2297 023f 13       		.uleb128 0x13
 2298 0240 00       		.byte	0
 2299 0241 00       		.byte	0
 2300 0242 00       		.byte	0
 2301              		.section	.debug_loc,"",%progbits
 2302              	.Ldebug_loc0:
 2303              	.LLST0:
 2304 0000 00000000 		.4byte	.LVL0
 2305 0004 10000000 		.4byte	.LVL1
 2306 0008 0100     		.2byte	0x1
 2307 000a 50       		.byte	0x50
 2308 000b 10000000 		.4byte	.LVL1
 2309 000f 4C000000 		.4byte	.LFE119
 2310 0013 0400     		.2byte	0x4
 2311 0015 F3       		.byte	0xf3
 2312 0016 01       		.uleb128 0x1
 2313 0017 50       		.byte	0x50
 2314 0018 9F       		.byte	0x9f
 2315 0019 00000000 		.4byte	0
 2316 001d 00000000 		.4byte	0
 2317              	.LLST1:
 2318 0021 00000000 		.4byte	.LVL5
 2319 0025 0E000000 		.4byte	.LVL7
 2320 0029 0100     		.2byte	0x1
 2321 002b 50       		.byte	0x50
 2322 002c 0E000000 		.4byte	.LVL7
 2323 0030 40000000 		.4byte	.LFE120
 2324 0034 0400     		.2byte	0x4
 2325 0036 F3       		.byte	0xf3
 2326 0037 01       		.uleb128 0x1
ARM GAS  C:\Users\srich\AppData\Local\Temp\cc8AEU99.s 			page 42


 2327 0038 50       		.byte	0x50
 2328 0039 9F       		.byte	0x9f
 2329 003a 00000000 		.4byte	0
 2330 003e 00000000 		.4byte	0
 2331              		.section	.debug_aranges,"",%progbits
 2332 0000 2C000000 		.4byte	0x2c
 2333 0004 0200     		.2byte	0x2
 2334 0006 00000000 		.4byte	.Ldebug_info0
 2335 000a 04       		.byte	0x4
 2336 000b 00       		.byte	0
 2337 000c 0000     		.2byte	0
 2338 000e 0000     		.2byte	0
 2339 0010 00000000 		.4byte	.LFB119
 2340 0014 4C000000 		.4byte	.LFE119-.LFB119
 2341 0018 00000000 		.4byte	.LFB120
 2342 001c 40000000 		.4byte	.LFE120-.LFB120
 2343 0020 00000000 		.4byte	.LFB121
 2344 0024 9C000000 		.4byte	.LFE121-.LFB121
 2345 0028 00000000 		.4byte	0
 2346 002c 00000000 		.4byte	0
 2347              		.section	.debug_ranges,"",%progbits
 2348              	.Ldebug_ranges0:
 2349 0000 08000000 		.4byte	.LBB2
 2350 0004 0C000000 		.4byte	.LBE2
 2351 0008 10000000 		.4byte	.LBB3
 2352 000c 4C000000 		.4byte	.LBE3
 2353 0010 00000000 		.4byte	0
 2354 0014 00000000 		.4byte	0
 2355 0018 00000000 		.4byte	.LFB119
 2356 001c 4C000000 		.4byte	.LFE119
 2357 0020 00000000 		.4byte	.LFB120
 2358 0024 40000000 		.4byte	.LFE120
 2359 0028 00000000 		.4byte	.LFB121
 2360 002c 9C000000 		.4byte	.LFE121
 2361 0030 00000000 		.4byte	0
 2362 0034 00000000 		.4byte	0
 2363              		.section	.debug_line,"",%progbits
 2364              	.Ldebug_line0:
 2365 0000 1C040000 		.section	.debug_str,"MS",%progbits,1
 2365      02006A03 
 2365      00000201 
 2365      FB0E0D00 
 2365      01010101 
 2366              	.LASF135:
 2367 0000 73646361 		.ascii	"sdcardInit\000"
 2367      7264496E 
 2367      697400
 2368              	.LASF82:
 2369 000b 7466756E 		.ascii	"tfunc_t\000"
 2369      635F7400 
 2370              	.LASF151:
 2371 0013 7372632F 		.ascii	"src/main.c\000"
 2371      6D61696E 
 2371      2E6300
 2372              	.LASF78:
 2373 001e 7264796D 		.ascii	"rdymsg\000"
 2373      736700
ARM GAS  C:\Users\srich\AppData\Local\Temp\cc8AEU99.s 			page 43


 2374              	.LASF130:
 2375 0025 63616C63 		.ascii	"calcCalc\000"
 2375      43616C63 
 2375      00
 2376              	.LASF21:
 2377 002e 75696E74 		.ascii	"uint64_t\000"
 2377      36345F74 
 2377      00
 2378              	.LASF100:
 2379 0037 4B4D4554 		.ascii	"KMETER_COUNTER\000"
 2379      45525F43 
 2379      4F554E54 
 2379      455200
 2380              	.LASF85:
 2381 0046 4F545950 		.ascii	"OTYPER\000"
 2381      455200
 2382              	.LASF3:
 2383 004d 5F5F7569 		.ascii	"__uint8_t\000"
 2383      6E74385F 
 2383      7400
 2384              	.LASF121:
 2385 0057 76746C69 		.ascii	"vtlist\000"
 2385      737400
 2386              	.LASF125:
 2387 005e 6C696768 		.ascii	"lightCalc\000"
 2387      7443616C 
 2387      6300
 2388              	.LASF93:
 2389 0068 696F706F 		.ascii	"ioportmask_t\000"
 2389      72746D61 
 2389      736B5F74 
 2389      00
 2390              	.LASF149:
 2391 0075 636F6E73 		.ascii	"consoleStart\000"
 2391      6F6C6553 
 2391      74617274 
 2391      00
 2392              	.LASF84:
 2393 0082 4D4F4445 		.ascii	"MODER\000"
 2393      5200
 2394              	.LASF52:
 2395 0088 54687265 		.ascii	"ThreadsQueue\000"
 2395      61647351 
 2395      75657565 
 2395      00
 2396              	.LASF87:
 2397 0095 50555044 		.ascii	"PUPDR\000"
 2397      5200
 2398              	.LASF79:
 2399 009b 65786974 		.ascii	"exitcode\000"
 2399      636F6465 
 2399      00
 2400              	.LASF138:
 2401 00a4 65657072 		.ascii	"eepromInit\000"
 2401      6F6D496E 
 2401      697400
 2402              	.LASF143:
ARM GAS  C:\Users\srich\AppData\Local\Temp\cc8AEU99.s 			page 44


 2403 00af 6D656173 		.ascii	"measInit\000"
 2403      496E6974 
 2403      00
 2404              	.LASF35:
 2405 00b8 705F7072 		.ascii	"p_prio\000"
 2405      696F00
 2406              	.LASF10:
 2407 00bf 6C6F6E67 		.ascii	"long long int\000"
 2407      206C6F6E 
 2407      6720696E 
 2407      7400
 2408              	.LASF0:
 2409 00cd 7369676E 		.ascii	"signed char\000"
 2409      65642063 
 2409      68617200 
 2410              	.LASF88:
 2411 00d9 42535252 		.ascii	"BSRR\000"
 2411      00
 2412              	.LASF134:
 2413 00de 63685379 		.ascii	"chSysInit\000"
 2413      73496E69 
 2413      7400
 2414              	.LASF9:
 2415 00e8 6C6F6E67 		.ascii	"long unsigned int\000"
 2415      20756E73 
 2415      69676E65 
 2415      6420696E 
 2415      7400
 2416              	.LASF51:
 2417 00fa 705F6D70 		.ascii	"p_mpool\000"
 2417      6F6F6C00 
 2418              	.LASF22:
 2419 0102 626F6F6C 		.ascii	"bool_t\000"
 2419      5F7400
 2420              	.LASF75:
 2421 0109 6D5F7175 		.ascii	"m_queue\000"
 2421      65756500 
 2422              	.LASF142:
 2423 0111 73706565 		.ascii	"speedInit\000"
 2423      64496E69 
 2423      7400
 2424              	.LASF27:
 2425 011b 74736C69 		.ascii	"tslices_t\000"
 2425      6365735F 
 2425      7400
 2426              	.LASF114:
 2427 0125 7461736B 		.ascii	"task20ms\000"
 2427      32306D73 
 2427      00
 2428              	.LASF7:
 2429 012e 6C6F6E67 		.ascii	"long int\000"
 2429      20696E74 
 2429      00
 2430              	.LASF148:
 2431 0137 6E6D6561 		.ascii	"nmeaInit\000"
 2431      496E6974 
 2431      00
ARM GAS  C:\Users\srich\AppData\Local\Temp\cc8AEU99.s 			page 45


 2432              	.LASF25:
 2433 0140 74737461 		.ascii	"tstate_t\000"
 2433      74655F74 
 2433      00
 2434              	.LASF152:
 2435 0149 443A5C47 		.ascii	"D:\\GitHub\\Smarty\\smarty\\firmware\000"
 2435      69744875 
 2435      625C536D 
 2435      61727479 
 2435      5C736D61 
 2436              	.LASF18:
 2437 016a 75696E74 		.ascii	"uint16_t\000"
 2437      31365F74 
 2437      00
 2438              	.LASF110:
 2439 0173 646F7562 		.ascii	"double\000"
 2439      6C6500
 2440              	.LASF145:
 2441 017a 62757474 		.ascii	"buttonInit\000"
 2441      6F6E496E 
 2441      697400
 2442              	.LASF37:
 2443 0185 705F6E65 		.ascii	"p_newer\000"
 2443      77657200 
 2444              	.LASF86:
 2445 018d 4F535045 		.ascii	"OSPEEDR\000"
 2445      45445200 
 2446              	.LASF70:
 2447 0195 725F6E65 		.ascii	"r_newer\000"
 2447      77657200 
 2448              	.LASF54:
 2449 019d 72656761 		.ascii	"regarm_t\000"
 2449      726D5F74 
 2449      00
 2450              	.LASF61:
 2451 01a6 76745F70 		.ascii	"vt_prev\000"
 2451      72657600 
 2452              	.LASF14:
 2453 01ae 73697A65 		.ascii	"size_t\000"
 2453      5F7400
 2454              	.LASF12:
 2455 01b5 6C6F6E67 		.ascii	"long long unsigned int\000"
 2455      206C6F6E 
 2455      6720756E 
 2455      7369676E 
 2455      65642069 
 2456              	.LASF102:
 2457 01cc 4D494E5F 		.ascii	"MIN_STR_ANGLE\000"
 2457      5354525F 
 2457      414E474C 
 2457      4500
 2458              	.LASF140:
 2459 01da 75617274 		.ascii	"uart_commInit\000"
 2459      5F636F6D 
 2459      6D496E69 
 2459      7400
 2460              	.LASF13:
ARM GAS  C:\Users\srich\AppData\Local\Temp\cc8AEU99.s 			page 46


 2461 01e8 756E7369 		.ascii	"unsigned int\000"
 2461      676E6564 
 2461      20696E74 
 2461      00
 2462              	.LASF46:
 2463 01f5 705F6D73 		.ascii	"p_msgqueue\000"
 2463      67717565 
 2463      756500
 2464              	.LASF104:
 2465 0200 4C415354 		.ascii	"LAST_ITEM\000"
 2465      5F495445 
 2465      4D00
 2466              	.LASF137:
 2467 020a 636F6E73 		.ascii	"consoleInit\000"
 2467      6F6C6549 
 2467      6E697400 
 2468              	.LASF60:
 2469 0216 76745F6E 		.ascii	"vt_next\000"
 2469      65787400 
 2470              	.LASF92:
 2471 021e 4750494F 		.ascii	"GPIO_TypeDef\000"
 2471      5F547970 
 2471      65446566 
 2471      00
 2472              	.LASF133:
 2473 022b 68616C49 		.ascii	"halInit\000"
 2473      6E697400 
 2474              	.LASF89:
 2475 0233 4C434B52 		.ascii	"LCKR\000"
 2475      00
 2476              	.LASF109:
 2477 0238 6E616D65 		.ascii	"name\000"
 2477      00
 2478              	.LASF59:
 2479 023d 56697274 		.ascii	"VirtualTimer\000"
 2479      75616C54 
 2479      696D6572 
 2479      00
 2480              	.LASF101:
 2481 024a 544F5441 		.ascii	"TOTAL_METER\000"
 2481      4C5F4D45 
 2481      54455200 
 2482              	.LASF103:
 2483 0256 4D41585F 		.ascii	"MAX_STR_ANGLE\000"
 2483      5354525F 
 2483      414E474C 
 2483      4500
 2484              	.LASF117:
 2485 0264 65657072 		.ascii	"eepromitems\000"
 2485      6F6D6974 
 2485      656D7300 
 2486              	.LASF57:
 2487 0270 636F6E74 		.ascii	"context\000"
 2487      65787400 
 2488              	.LASF108:
 2489 0278 73697A65 		.ascii	"size\000"
 2489      00
ARM GAS  C:\Users\srich\AppData\Local\Temp\cc8AEU99.s 			page 47


 2490              	.LASF5:
 2491 027d 73686F72 		.ascii	"short unsigned int\000"
 2491      7420756E 
 2491      7369676E 
 2491      65642069 
 2491      6E7400
 2492              	.LASF29:
 2493 0290 6D73675F 		.ascii	"msg_t\000"
 2493      7400
 2494              	.LASF155:
 2495 0296 73646361 		.ascii	"sdcardIsMounted\000"
 2495      72644973 
 2495      4D6F756E 
 2495      74656400 
 2496              	.LASF24:
 2497 02a6 746D6F64 		.ascii	"tmode_t\000"
 2497      655F7400 
 2498              	.LASF53:
 2499 02ae 54687265 		.ascii	"ThreadsList\000"
 2499      6164734C 
 2499      69737400 
 2500              	.LASF49:
 2501 02ba 705F6D74 		.ascii	"p_mtxlist\000"
 2501      786C6973 
 2501      7400
 2502              	.LASF30:
 2503 02c4 6576656E 		.ascii	"eventmask_t\000"
 2503      746D6173 
 2503      6B5F7400 
 2504              	.LASF74:
 2505 02d0 4D757465 		.ascii	"Mutex\000"
 2505      7800
 2506              	.LASF6:
 2507 02d6 5F5F696E 		.ascii	"__int32_t\000"
 2507      7433325F 
 2507      7400
 2508              	.LASF146:
 2509 02e0 73616665 		.ascii	"safetyInit\000"
 2509      7479496E 
 2509      697400
 2510              	.LASF55:
 2511 02eb 73746B61 		.ascii	"stkalign_t\000"
 2511      6C69676E 
 2511      5F7400
 2512              	.LASF113:
 2513 02f6 54687265 		.ascii	"Thread1\000"
 2513      61643100 
 2514              	.LASF157:
 2515 02fe 63685468 		.ascii	"chThdCreateStatic\000"
 2515      64437265 
 2515      61746553 
 2515      74617469 
 2515      6300
 2516              	.LASF136:
 2517 0310 6C6F6749 		.ascii	"logInit\000"
 2517      6E697400 
 2518              	.LASF127:
ARM GAS  C:\Users\srich\AppData\Local\Temp\cc8AEU99.s 			page 48


 2519 0318 6D656173 		.ascii	"measCalc\000"
 2519      43616C63 
 2519      00
 2520              	.LASF15:
 2521 0321 73697A65 		.ascii	"sizetype\000"
 2521      74797065 
 2521      00
 2522              	.LASF83:
 2523 032a 636C6561 		.ascii	"clear\000"
 2523      7200
 2524              	.LASF63:
 2525 0330 76745F66 		.ascii	"vt_func\000"
 2525      756E6300 
 2526              	.LASF107:
 2527 0338 61646472 		.ascii	"address\000"
 2527      65737300 
 2528              	.LASF150:
 2529 0340 474E5520 		.ascii	"GNU C 4.9.3 20150529 (release) [ARM/embedded-4_9-br"
 2529      4320342E 
 2529      392E3320 
 2529      32303135 
 2529      30353239 
 2530 0373 616E6368 		.ascii	"anch revision 227977] -mcpu=cortex-m4 -mno-thumb-in"
 2530      20726576 
 2530      6973696F 
 2530      6E203232 
 2530      37393737 
 2531 03a6 74657277 		.ascii	"terwork -mthumb -ggdb -O2 -fomit-frame-pointer -fal"
 2531      6F726B20 
 2531      2D6D7468 
 2531      756D6220 
 2531      2D676764 
 2532 03d9 69676E2D 		.ascii	"ign-functions=16 -ffunction-sections -fdata-section"
 2532      66756E63 
 2532      74696F6E 
 2532      733D3136 
 2532      202D6666 
 2533 040c 73202D66 		.ascii	"s -fno-common\000"
 2533      6E6F2D63 
 2533      6F6D6D6F 
 2533      6E00
 2534              	.LASF105:
 2535 041a 45455052 		.ascii	"EEPROM_ITEMS_NUM\000"
 2535      4F4D5F49 
 2535      54454D53 
 2535      5F4E554D 
 2535      00
 2536              	.LASF126:
 2537 042b 73706565 		.ascii	"speedCalc\000"
 2537      6443616C 
 2537      6300
 2538              	.LASF69:
 2539 0435 725F6374 		.ascii	"r_ctx\000"
 2539      7800
 2540              	.LASF115:
 2541 043b 74696D65 		.ascii	"time\000"
 2541      00
ARM GAS  C:\Users\srich\AppData\Local\Temp\cc8AEU99.s 			page 49


 2542              	.LASF72:
 2543 0440 725F6375 		.ascii	"r_current\000"
 2543      7272656E 
 2543      7400
 2544              	.LASF71:
 2545 044a 725F6F6C 		.ascii	"r_older\000"
 2545      64657200 
 2546              	.LASF132:
 2547 0452 63685468 		.ascii	"chThdSleepUntil\000"
 2547      64536C65 
 2547      6570556E 
 2547      74696C00 
 2548              	.LASF11:
 2549 0462 5F5F7569 		.ascii	"__uint64_t\000"
 2549      6E743634 
 2549      5F7400
 2550              	.LASF91:
 2551 046d 41465248 		.ascii	"AFRH\000"
 2551      00
 2552              	.LASF111:
 2553 0472 666C6F61 		.ascii	"float\000"
 2553      7400
 2554              	.LASF90:
 2555 0478 4146524C 		.ascii	"AFRL\000"
 2555      00
 2556              	.LASF119:
 2557 047d 77615468 		.ascii	"waThread1\000"
 2557      72656164 
 2557      3100
 2558              	.LASF139:
 2559 0487 63616E5F 		.ascii	"can_commInit\000"
 2559      636F6D6D 
 2559      496E6974 
 2559      00
 2560              	.LASF26:
 2561 0494 74726566 		.ascii	"trefs_t\000"
 2561      735F7400 
 2562              	.LASF118:
 2563 049c 77617361 		.ascii	"wasave_kmeter_eeprom\000"
 2563      76655F6B 
 2563      6D657465 
 2563      725F6565 
 2563      70726F6D 
 2564              	.LASF129:
 2565 04b1 62757474 		.ascii	"buttonCalc\000"
 2565      6F6E4361 
 2565      6C6300
 2566              	.LASF34:
 2567 04bc 705F7072 		.ascii	"p_prev\000"
 2567      657600
 2568              	.LASF153:
 2569 04c3 65657072 		.ascii	"eepromItemNames\000"
 2569      6F6D4974 
 2569      656D4E61 
 2569      6D657300 
 2570              	.LASF28:
 2571 04d3 74707269 		.ascii	"tprio_t\000"
ARM GAS  C:\Users\srich\AppData\Local\Temp\cc8AEU99.s 			page 50


 2571      6F5F7400 
 2572              	.LASF97:
 2573 04db 4D494E5F 		.ascii	"MIN_REGEN_BRAKE\000"
 2573      52454745 
 2573      4E5F4252 
 2573      414B4500 
 2574              	.LASF23:
 2575 04eb 5F426F6F 		.ascii	"_Bool\000"
 2575      6C00
 2576              	.LASF19:
 2577 04f1 696E7433 		.ascii	"int32_t\000"
 2577      325F7400 
 2578              	.LASF1:
 2579 04f9 756E7369 		.ascii	"unsigned char\000"
 2579      676E6564 
 2579      20636861 
 2579      7200
 2580              	.LASF95:
 2581 0507 4D494E5F 		.ascii	"MIN_THROTTLE\000"
 2581      5448524F 
 2581      54544C45 
 2581      00
 2582              	.LASF123:
 2583 0514 49544D5F 		.ascii	"ITM_RxBuffer\000"
 2583      52784275 
 2583      66666572 
 2583      00
 2584              	.LASF40:
 2585 0521 705F7374 		.ascii	"p_state\000"
 2585      61746500 
 2586              	.LASF144:
 2587 0529 63727569 		.ascii	"cruiseInit\000"
 2587      7365496E 
 2587      697400
 2588              	.LASF2:
 2589 0534 73686F72 		.ascii	"short int\000"
 2589      7420696E 
 2589      7400
 2590              	.LASF156:
 2591 053e 64737049 		.ascii	"dspInit\000"
 2591      6E697400 
 2592              	.LASF43:
 2593 0546 705F7072 		.ascii	"p_preempt\000"
 2593      65656D70 
 2593      7400
 2594              	.LASF38:
 2595 0550 705F6F6C 		.ascii	"p_older\000"
 2595      64657200 
 2596              	.LASF68:
 2597 0558 725F7072 		.ascii	"r_prio\000"
 2597      696F00
 2598              	.LASF81:
 2599 055f 65776D61 		.ascii	"ewmask\000"
 2599      736B00
 2600              	.LASF33:
 2601 0566 705F6E65 		.ascii	"p_next\000"
 2601      787400
ARM GAS  C:\Users\srich\AppData\Local\Temp\cc8AEU99.s 			page 51


 2602              	.LASF41:
 2603 056d 705F666C 		.ascii	"p_flags\000"
 2603      61677300 
 2604              	.LASF141:
 2605 0575 6C696768 		.ascii	"lightInit\000"
 2605      74496E69 
 2605      7400
 2606              	.LASF32:
 2607 057f 54687265 		.ascii	"Thread\000"
 2607      616400
 2608              	.LASF48:
 2609 0586 705F6570 		.ascii	"p_epending\000"
 2609      656E6469 
 2609      6E6700
 2610              	.LASF62:
 2611 0591 76745F74 		.ascii	"vt_time\000"
 2611      696D6500 
 2612              	.LASF20:
 2613 0599 75696E74 		.ascii	"uint32_t\000"
 2613      33325F74 
 2613      00
 2614              	.LASF67:
 2615 05a2 725F7175 		.ascii	"r_queue\000"
 2615      65756500 
 2616              	.LASF65:
 2617 05aa 76745F73 		.ascii	"vt_systime\000"
 2617      79737469 
 2617      6D6500
 2618              	.LASF112:
 2619 05b5 6C6F6E67 		.ascii	"long double\000"
 2619      20646F75 
 2619      626C6500 
 2620              	.LASF16:
 2621 05c1 63686172 		.ascii	"char\000"
 2621      00
 2622              	.LASF94:
 2623 05c6 43525549 		.ascii	"CRUISE_CONTROLL\000"
 2623      53455F43 
 2623      4F4E5452 
 2623      4F4C4C00 
 2624              	.LASF4:
 2625 05d6 5F5F7569 		.ascii	"__uint16_t\000"
 2625      6E743136 
 2625      5F7400
 2626              	.LASF116:
 2627 05e1 73656765 		.ascii	"seged\000"
 2627      6400
 2628              	.LASF77:
 2629 05e7 6D5F6E65 		.ascii	"m_next\000"
 2629      787400
 2630              	.LASF31:
 2631 05ee 73797374 		.ascii	"systime_t\000"
 2631      696D655F 
 2631      7400
 2632              	.LASF50:
 2633 05f8 705F7265 		.ascii	"p_realprio\000"
 2633      616C7072 
ARM GAS  C:\Users\srich\AppData\Local\Temp\cc8AEU99.s 			page 52


 2633      696F00
 2634              	.LASF58:
 2635 0603 76746675 		.ascii	"vtfunc_t\000"
 2635      6E635F74 
 2635      00
 2636              	.LASF8:
 2637 060c 5F5F7569 		.ascii	"__uint32_t\000"
 2637      6E743332 
 2637      5F7400
 2638              	.LASF120:
 2639 0617 77617461 		.ascii	"watask20ms\000"
 2639      736B3230 
 2639      6D7300
 2640              	.LASF44:
 2641 0622 705F7469 		.ascii	"p_time\000"
 2641      6D6500
 2642              	.LASF106:
 2643 0629 65657072 		.ascii	"eepromItem\000"
 2643      6F6D4974 
 2643      656D00
 2644              	.LASF56:
 2645 0634 696E7463 		.ascii	"intctx\000"
 2645      747800
 2646              	.LASF98:
 2647 063b 4D41585F 		.ascii	"MAX_REGEN_BRAKE\000"
 2647      52454745 
 2647      4E5F4252 
 2647      414B4500 
 2648              	.LASF64:
 2649 064b 76745F70 		.ascii	"vt_par\000"
 2649      617200
 2650              	.LASF124:
 2651 0652 6C6F6743 		.ascii	"logCalc\000"
 2651      616C6300 
 2652              	.LASF131:
 2653 065a 63685468 		.ascii	"chThdSleep\000"
 2653      64536C65 
 2653      657000
 2654              	.LASF42:
 2655 0665 705F7265 		.ascii	"p_refs\000"
 2655      667300
 2656              	.LASF73:
 2657 066c 52656164 		.ascii	"ReadyList\000"
 2657      794C6973 
 2657      7400
 2658              	.LASF122:
 2659 0676 726C6973 		.ascii	"rlist\000"
 2659      7400
 2660              	.LASF96:
 2661 067c 4D41585F 		.ascii	"MAX_THROTTLE\000"
 2661      5448524F 
 2661      54544C45 
 2661      00
 2662              	.LASF17:
 2663 0689 75696E74 		.ascii	"uint8_t\000"
 2663      385F7400 
 2664              	.LASF99:
ARM GAS  C:\Users\srich\AppData\Local\Temp\cc8AEU99.s 			page 53


 2665 0691 544F5441 		.ascii	"TOTAL_KMETER_COUNTER\000"
 2665      4C5F4B4D 
 2665      45544552 
 2665      5F434F55 
 2665      4E544552 
 2666              	.LASF80:
 2667 06a6 77746F62 		.ascii	"wtobjp\000"
 2667      6A7000
 2668              	.LASF39:
 2669 06ad 705F6E61 		.ascii	"p_name\000"
 2669      6D6500
 2670              	.LASF128:
 2671 06b4 63727569 		.ascii	"cruiseCalc\000"
 2671      73654361 
 2671      6C6300
 2672              	.LASF47:
 2673 06bf 705F6D73 		.ascii	"p_msg\000"
 2673      6700
 2674              	.LASF66:
 2675 06c5 56544C69 		.ascii	"VTList\000"
 2675      737400
 2676              	.LASF154:
 2677 06cc 6D61696E 		.ascii	"main\000"
 2677      00
 2678              	.LASF147:
 2679 06d1 63616C63 		.ascii	"calcInit\000"
 2679      496E6974 
 2679      00
 2680              	.LASF76:
 2681 06da 6D5F6F77 		.ascii	"m_owner\000"
 2681      6E657200 
 2682              	.LASF36:
 2683 06e2 705F6374 		.ascii	"p_ctx\000"
 2683      7800
 2684              	.LASF45:
 2685 06e8 705F7761 		.ascii	"p_waiting\000"
 2685      6974696E 
 2685      6700
 2686              		.ident	"GCC: (GNU Tools for ARM Embedded Processors) 4.9.3 20150529 (release) [ARM/embedded-4_9-br
ARM GAS  C:\Users\srich\AppData\Local\Temp\cc8AEU99.s 			page 54


DEFINED SYMBOLS
                            *ABS*:00000000 main.c
C:\Users\srich\AppData\Local\Temp\cc8AEU99.s:19     .text.Thread1:00000000 $t
C:\Users\srich\AppData\Local\Temp\cc8AEU99.s:24     .text.Thread1:00000000 Thread1
C:\Users\srich\AppData\Local\Temp\cc8AEU99.s:89     .text.Thread1:0000003c $d
C:\Users\srich\AppData\Local\Temp\cc8AEU99.s:98     .text.task20ms:00000000 $t
C:\Users\srich\AppData\Local\Temp\cc8AEU99.s:103    .text.task20ms:00000000 task20ms
C:\Users\srich\AppData\Local\Temp\cc8AEU99.s:162    .text.task20ms:00000034 $d
C:\Users\srich\AppData\Local\Temp\cc8AEU99.s:169    .text.startup.main:00000000 $t
C:\Users\srich\AppData\Local\Temp\cc8AEU99.s:175    .text.startup.main:00000000 main
C:\Users\srich\AppData\Local\Temp\cc8AEU99.s:277    .text.startup.main:00000088 $d
C:\Users\srich\AppData\Local\Temp\cc8AEU99.s:286    .bss.waThread1:00000000 $d
C:\Users\srich\AppData\Local\Temp\cc8AEU99.s:290    .bss.waThread1:00000000 waThread1
C:\Users\srich\AppData\Local\Temp\cc8AEU99.s:293    .bss.watask20ms:00000000 $d
C:\Users\srich\AppData\Local\Temp\cc8AEU99.s:297    .bss.watask20ms:00000000 watask20ms
C:\Users\srich\AppData\Local\Temp\cc8AEU99.s:300    .rodata.str1.4:00000000 $d
                     .debug_frame:00000010 $d

UNDEFINED SYMBOLS
chThdSleep
sdcardIsMounted
rlist
logCalc
lightCalc
speedCalc
measCalc
cruiseCalc
buttonCalc
calcCalc
chThdSleepUntil
vtlist
halInit
chSysInit
sdcardInit
logInit
consoleInit
eepromInit
can_commInit
uart_commInit
lightInit
speedInit
measInit
cruiseInit
dspInit
buttonInit
safetyInit
calcInit
nmeaInit
chThdCreateStatic
consoleStart
