ARM GAS  C:\Users\DNIEL~1\AppData\Local\Temp\ccy8V3zE.s 			page 1


   1              		.syntax unified
   2              		.cpu cortex-m4
   3              		.fpu softvfp
   4              		.eabi_attribute 20, 1
   5              		.eabi_attribute 21, 1
   6              		.eabi_attribute 23, 3
   7              		.eabi_attribute 24, 1
   8              		.eabi_attribute 25, 1
   9              		.eabi_attribute 26, 1
  10              		.eabi_attribute 30, 2
  11              		.eabi_attribute 18, 4
  12              		.thumb
  13              		.file	"main.c"
  20 0000 8B020000 		.text
  20      0200E301 
  20      00000201 
  20      FB0E0D00 
  20      01010101 
  21              	.Ltext0:
  22              		.cfi_sections	.debug_frame
  23              		.section	.text.Thread1,"ax",%progbits
  24              		.align	2
  25              		.p2align 4,,15
  26              		.thumb
  27              		.thumb_func
  28              		.type	Thread1, %function
  29              	Thread1:
  30              	.LFB119:
  31              		.file 1 "src/main.c"
  32              		.loc 1 36 0
  33              		.cfi_startproc
  34              		@ args = 0, pretend = 0, frame = 0
  35              		@ frame_needed = 0, uses_anonymous_args = 0
  36              	.LVL0:
  37              		.loc 1 39 0
  38 0000 0F48     		ldr	r0, .L7
  39              	.LVL1:
  40 0002 104A     		ldr	r2, .L7+4
  41 0004 8369     		ldr	r3, [r0, #24]
  42              		.loc 1 36 0
  43 0006 70B5     		push	{r4, r5, r6, lr}
  44              	.LCFI0:
  45              		.cfi_def_cfa_offset 16
  46              	.LBB2:
  47              		.loc 1 43 0
  48 0008 0F4E     		ldr	r6, .L7+8
  49              		.cfi_offset 14, -4
  50              		.cfi_offset 6, -8
  51              		.cfi_offset 5, -12
  52              		.cfi_offset 4, -16
  53              		.loc 1 55 0
ARM GAS  C:\Users\DNIEL~1\AppData\Local\Temp\ccy8V3zE.s 			page 2


  54 000a 104D     		ldr	r5, .L7+12
  55              	.LBE2:
  56              		.loc 1 39 0
  57 000c 9A61     		str	r2, [r3, #24]
  58 000e 0BE0     		b	.L3
  59              	.L4:
  60              	.LBB3:
  61              		.loc 1 43 0
  62 0010 4FF47A74 		mov	r4, #1000
  63              	.L2:
  64              		.loc 1 55 0
  65 0014 0122     		movs	r2, #1
  66              		.loc 1 56 0
  67 0016 2046     		mov	r0, r4
  68              		.loc 1 55 0
  69 0018 6A83     		strh	r2, [r5, #26]	@ movhi
  70              		.loc 1 56 0
  71 001a FFF7FEFF 		bl	chThdSleep
  72              		.loc 1 58 0
  73 001e 2046     		mov	r0, r4
  74              		.loc 1 57 0
  75 0020 0124     		movs	r4, #1
  76 0022 2C83     		strh	r4, [r5, #24]	@ movhi
  77              		.loc 1 58 0
  78 0024 FFF7FEFF 		bl	chThdSleep
  79              	.L3:
  80              		.loc 1 43 0
  81 0028 3169     		ldr	r1, [r6, #16]
  82 002a 11F0080F 		tst	r1, #8
  83 002e EFD1     		bne	.L4
  84              		.loc 1 44 0
  85 0030 FFF7FEFF 		bl	sdcardIsMounted
  86 0034 0028     		cmp	r0, #0
  87 0036 0CBF     		ite	eq
  88 0038 3224     		moveq	r4, #50
  89 003a FA24     		movne	r4, #250
  90 003c EAE7     		b	.L2
  91              	.L8:
  92 003e 00BF     		.align	2
  93              	.L7:
  94 0040 00000000 		.word	rlist
  95 0044 00000000 		.word	.LC0
  96 0048 000C0240 		.word	1073875968
  97 004c 00000240 		.word	1073872896
  98              	.LBE3:
  99              		.cfi_endproc
 100              	.LFE119:
 101              		.size	Thread1, .-Thread1
 102              		.section	.text.task20ms,"ax",%progbits
 103              		.align	2
 104              		.p2align 4,,15
 105              		.thumb
 106              		.thumb_func
 107              		.type	task20ms, %function
 108              	task20ms:
 109              	.LFB120:
 110              		.loc 1 67 0
ARM GAS  C:\Users\DNIEL~1\AppData\Local\Temp\ccy8V3zE.s 			page 3


 111              		.cfi_startproc
 112              		@ args = 0, pretend = 0, frame = 0
 113              		@ frame_needed = 0, uses_anonymous_args = 0
 114              	.LVL2:
 115              		.loc 1 71 0
 116 0000 0E49     		ldr	r1, .L11
 117              		.loc 1 72 0
 118 0002 0F48     		ldr	r0, .L11+4
 119              	.LVL3:
 120              		.loc 1 71 0
 121 0004 8B69     		ldr	r3, [r1, #24]
 122 0006 0F4A     		ldr	r2, .L11+8
 123              		.loc 1 67 0
 124 0008 10B5     		push	{r4, lr}
 125              	.LCFI1:
 126              		.cfi_def_cfa_offset 8
 127              		.loc 1 72 0
 128 000a C468     		ldr	r4, [r0, #12]
 129              		.cfi_offset 14, -4
 130              		.cfi_offset 4, -8
 131              		.loc 1 71 0
 132 000c 9A61     		str	r2, [r3, #24]
 133              	.LVL4:
 134              	.L10:
 135              		.loc 1 74 0 discriminator 1
 136 000e 1434     		adds	r4, r4, #20
 137              	.LVL5:
 138              		.loc 1 76 0 discriminator 1
 139 0010 FFF7FEFF 		bl	logCalc
 140              		.loc 1 77 0 discriminator 1
 141 0014 FFF7FEFF 		bl	lightCalc
 142              		.loc 1 78 0 discriminator 1
 143 0018 FFF7FEFF 		bl	can_commCalc
 144              		.loc 1 79 0 discriminator 1
 145 001c FFF7FEFF 		bl	speedCalc
 146              		.loc 1 80 0 discriminator 1
 147 0020 FFF7FEFF 		bl	measCalc
 148              		.loc 1 81 0 discriminator 1
 149 0024 FFF7FEFF 		bl	cruiseCalc
 150              		.loc 1 82 0 discriminator 1
 151 0028 FFF7FEFF 		bl	buttonCalc
 152              		.loc 1 86 0 discriminator 1
 153 002c 2046     		mov	r0, r4
 154 002e FFF7FEFF 		bl	mainTime
 155              		.loc 1 87 0 discriminator 1
 156 0032 2046     		mov	r0, r4
 157 0034 FFF7FEFF 		bl	chThdSleepUntil
 158 0038 E9E7     		b	.L10
 159              	.L12:
 160 003a 00BF     		.align	2
 161              	.L11:
 162 003c 00000000 		.word	rlist
 163 0040 00000000 		.word	vtlist
 164 0044 08000000 		.word	.LC1
 165              		.cfi_endproc
 166              	.LFE120:
 167              		.size	task20ms, .-task20ms
ARM GAS  C:\Users\DNIEL~1\AppData\Local\Temp\ccy8V3zE.s 			page 4


 168 0048 AFF30080 		.section	.text.main,"ax",%progbits
 168      AFF30080 
 169              		.align	2
 170              		.p2align 4,,15
 171              		.global	main
 172              		.thumb
 173              		.thumb_func
 174              		.type	main, %function
 175              	main:
 176              	.LFB121:
 177              		.loc 1 94 0
 178              		.cfi_startproc
 179              		@ args = 0, pretend = 0, frame = 0
 180              		@ frame_needed = 0, uses_anonymous_args = 0
 181 0000 10B5     		push	{r4, lr}
 182              	.LCFI2:
 183              		.cfi_def_cfa_offset 8
 184 0002 82B0     		sub	sp, sp, #8
 185              	.LCFI3:
 186              		.cfi_def_cfa_offset 16
 187              		.loc 1 103 0
 188              		.cfi_offset 14, -4
 189              		.cfi_offset 4, -8
 190 0004 FFF7FEFF 		bl	halInit
 191              		.loc 1 104 0
 192 0008 FFF7FEFF 		bl	chSysInit
 193              		.loc 1 109 0
 194 000c 1C4B     		ldr	r3, .L15
 195 000e 48F20002 		movw	r2, 32768	@ movhi
 196 0012 1A83     		strh	r2, [r3, #24]	@ movhi
 197              		.loc 1 114 0
 198 0014 FFF7FEFF 		bl	sdcardInit
 199              		.loc 1 119 0
 200 0018 FFF7FEFF 		bl	logInit
 201              		.loc 1 124 0
 202 001c FFF7FEFF 		bl	consoleInit
 203              		.loc 1 129 0
 204 0020 FFF7FEFF 		bl	eepromInit
 205              		.loc 1 134 0
 206 0024 FFF7FEFF 		bl	can_commInit
 207              		.loc 1 138 0
 208 0028 FFF7FEFF 		bl	uart_commInit
 209              		.loc 1 143 0
 210 002c FFF7FEFF 		bl	lightInit
 211              		.loc 1 148 0
 212 0030 FFF7FEFF 		bl	speedInit
 213              		.loc 1 153 0
 214 0034 FFF7FEFF 		bl	measInit
 215              		.loc 1 158 0
 216 0038 FFF7FEFF 		bl	cruiseInit
 217              		.loc 1 163 0
 218 003c 4FF47A70 		mov	r0, #1000
 219 0040 FFF7FEFF 		bl	chThdSleep
 220              		.loc 1 179 0
 221 0044 0024     		movs	r4, #0
 222              		.loc 1 164 0
 223 0046 FFF7FEFF 		bl	dspInit
ARM GAS  C:\Users\DNIEL~1\AppData\Local\Temp\ccy8V3zE.s 			page 5


 224              		.loc 1 169 0
 225 004a FFF7FEFF 		bl	buttonInit
 226              		.loc 1 174 0
 227 004e FFF7FEFF 		bl	brakeInit
 228              		.loc 1 179 0
 229 0052 4FF43471 		mov	r1, #720
 230 0056 4022     		movs	r2, #64
 231 0058 0A4B     		ldr	r3, .L15+4
 232 005a 0B48     		ldr	r0, .L15+8
 233 005c 0094     		str	r4, [sp, #0]
 234 005e FFF7FEFF 		bl	chThdCreateStatic
 235              		.loc 1 184 0
 236 0062 0A48     		ldr	r0, .L15+12
 237 0064 0A4B     		ldr	r3, .L15+16
 238 0066 0094     		str	r4, [sp, #0]
 239 0068 4FF4A871 		mov	r1, #336
 240 006c 4022     		movs	r2, #64
 241 006e FFF7FEFF 		bl	chThdCreateStatic
 242              	.L14:
 243              		.loc 1 191 0 discriminator 1
 244 0072 FFF7FEFF 		bl	consoleStart
 245              		.loc 1 192 0 discriminator 1
 246 0076 4FF47A70 		mov	r0, #1000
 247 007a FFF7FEFF 		bl	chThdSleep
 248 007e F8E7     		b	.L14
 249              	.L16:
 250              		.align	2
 251              	.L15:
 252 0080 00100240 		.word	1073876992
 253 0084 00000000 		.word	task20ms
 254 0088 00000000 		.word	.LANCHOR0
 255 008c 00000000 		.word	.LANCHOR1
 256 0090 00000000 		.word	Thread1
 257              		.cfi_endproc
 258              	.LFE121:
 259              		.size	main, .-main
 260 0094 AFF30080 		.section	.bss.waThread1,"aw",%nobits
 260      AFF30080 
 260      AFF30080 
 261              		.align	3
 262              		.set	.LANCHOR1,. + 0
 263              		.type	waThread1, %object
 264              		.size	waThread1, 336
 265              	waThread1:
 266 0000 00000000 		.space	336
 266      00000000 
 266      00000000 
 266      00000000 
 266      00000000 
 267              		.section	.bss.watask20ms,"aw",%nobits
 268              		.align	3
 269              		.set	.LANCHOR0,. + 0
 270              		.type	watask20ms, %object
 271              		.size	watask20ms, 720
 272              	watask20ms:
 273 0000 00000000 		.space	720
 273      00000000 
ARM GAS  C:\Users\DNIEL~1\AppData\Local\Temp\ccy8V3zE.s 			page 6


 273      00000000 
 273      00000000 
 273      00000000 
 274              		.section	.rodata.str1.4,"aMS",%progbits,1
 275              		.align	2
 276              	.LC0:
 277 0000 626C696E 		.ascii	"blinker\000"
 277      6B657200 
 278              	.LC1:
 279 0008 7461736B 		.ascii	"task20ms\000"
 279      32306D73 
 279      00
 280 0011 000000   		.text
 281              	.Letext0: