ARM GAS  C:\Users\DNIEL~1\AppData\Local\Temp\ccIeTsuP.s 			page 1


   1              		.syntax unified
   2              		.cpu cortex-m4
   3              		.fpu softvfp
   4              		.eabi_attribute 20, 1
   5              		.eabi_attribute 21, 1
   6              		.eabi_attribute 23, 3
   7              		.eabi_attribute 24, 1
   8              		.eabi_attribute 25, 1
   9              		.eabi_attribute 26, 1
  10              		.eabi_attribute 30, 2
  11              		.eabi_attribute 18, 4
  12              		.thumb
  13              		.file	"meas.c"
  14              		.section	.debug_abbrev,"",%progbits
  15              	.Ldebug_abbrev0:
  16              		.section	.debug_info,"",%progbits
  17              	.Ldebug_info0:
  18              		.section	.debug_line,"",%progbits
  19              	.Ldebug_line0:
  20 0000 E2030000 		.text
  20      0200DA02 
  20      00000201 
  20      FB0E0D00 
  20      01010101 
  21              	.Ltext0:
  22              		.cfi_sections	.debug_frame
  23              		.section	.text.adcerrorcallback,"ax",%progbits
  24              		.align	2
  25              		.p2align 4,,15
  26              		.thumb
  27              		.thumb_func
  28              		.type	adcerrorcallback, %function
  29              	adcerrorcallback:
  30              	.LFB123:
  31              		.file 1 "src/meas.c"
  32              		.loc 1 165 0
  33              		.cfi_startproc
  34              		@ args = 0, pretend = 0, frame = 0
  35              		@ frame_needed = 0, uses_anonymous_args = 0
  36              		@ link register save eliminated.
  37              	.LVL0:
  38              		.loc 1 169 0
  39 0000 7047     		bx	lr
  40              		.cfi_endproc
  41              	.LFE123:
  42              		.size	adcerrorcallback, .-adcerrorcallback
  43 0002 00BFAFF3 		.section	.text.chprintf,"ax",%progbits
  43      0080AFF3 
  43      0080AFF3 
  43      0080
  44              		.align	2
  45              		.p2align 4,,15
  46              		.thumb
  47              		.thumb_func
  48              		.type	chprintf, %function
  49              	chprintf:
  50              	.LFB118:
ARM GAS  C:\Users\DNIEL~1\AppData\Local\Temp\ccIeTsuP.s 			page 2


  51              		.file 2 "../../../ChibiOS/os/various/chprintf.h"
  52              		.loc 2 69 0
  53              		.cfi_startproc
  54              		@ args = 4, pretend = 12, frame = 8
  55              		@ frame_needed = 0, uses_anonymous_args = 1
  56              	.LVL1:
  57 0000 0EB4     		push	{r1, r2, r3}
  58              	.LCFI0:
  59              		.cfi_def_cfa_offset 12
  60 0002 00B5     		push	{lr}
  61              	.LCFI1:
  62              		.cfi_def_cfa_offset 16
  63 0004 82B0     		sub	sp, sp, #8
  64              	.LCFI2:
  65              		.cfi_def_cfa_offset 24
  66              		.loc 2 69 0
  67 0006 03AB     		add	r3, sp, #12
  68              		.cfi_offset 14, -16
  69              		.cfi_offset 3, -4
  70              		.cfi_offset 2, -8
  71              		.cfi_offset 1, -12
  72 0008 53F8041B 		ldr	r1, [r3], #4
  73              		.loc 2 73 0
  74 000c 1A46     		mov	r2, r3
  75              		.loc 2 72 0
  76 000e 0193     		str	r3, [sp, #4]
  77              		.loc 2 73 0
  78 0010 FFF7FEFF 		bl	chvprintf
  79              	.LVL2:
  80              		.loc 2 75 0
  81 0014 02B0     		add	sp, sp, #8
  82 0016 5DF804EB 		pop	{lr}
  83 001a 03B0     		add	sp, sp, #12
  84 001c 7047     		bx	lr
  85              		.cfi_endproc
  86              	.LFE118:
  87              		.size	chprintf, .-chprintf
  88 001e 00BF     		.section	.text.measInit,"ax",%progbits
  89              		.align	2
  90              		.p2align 4,,15
  91              		.global	measInit
  92              		.thumb
  93              		.thumb_func
  94              		.type	measInit, %function
  95              	measInit:
  96              	.LFB119:
  97              		.loc 1 73 0
  98              		.cfi_startproc
  99              		@ args = 0, pretend = 0, frame = 0
 100              		@ frame_needed = 0, uses_anonymous_args = 0
 101 0000 08B5     		push	{r3, lr}
 102              	.LCFI3:
 103              		.cfi_def_cfa_offset 8
 104              		.loc 1 78 0
 105 0002 0648     		ldr	r0, .L4
 106 0004 0021     		movs	r1, #0
 107              		.cfi_offset 14, -4
ARM GAS  C:\Users\DNIEL~1\AppData\Local\Temp\ccIeTsuP.s 			page 3


 108              		.cfi_offset 3, -8
 109 0006 FFF7FEFF 		bl	adcStart
 110              		.loc 1 79 0
 111 000a 0548     		ldr	r0, .L4+4
 112 000c 0021     		movs	r1, #0
 113 000e FFF7FEFF 		bl	adcStart
 114              		.loc 1 80 0
 115 0012 044B     		ldr	r3, .L4+8
 116 0014 0022     		movs	r2, #0
 117 0016 1A70     		strb	r2, [r3, #0]
 118              		.loc 1 81 0
 119 0018 08BD     		pop	{r3, pc}
 120              	.L5:
 121 001a 00BF     		.align	2
 122              	.L4:
 123 001c 00000000 		.word	ADCD3
 124 0020 00000000 		.word	ADCD2
 125 0024 00000000 		.word	.LANCHOR0
 126              		.cfi_endproc
 127              	.LFE119:
 128              		.size	measInit, .-measInit
 129 0028 AFF30080 		.section	.text.measCalc,"ax",%progbits
 129      AFF30080 
 130              		.align	2
 131              		.p2align 4,,15
 132              		.global	measCalc
 133              		.thumb
 134              		.thumb_func
 135              		.type	measCalc, %function
 136              	measCalc:
 137              	.LFB120:
 138              		.loc 1 83 0
 139              		.cfi_startproc
 140              		@ args = 0, pretend = 0, frame = 0
 141              		@ frame_needed = 0, uses_anonymous_args = 0
 142              		.loc 1 91 0
 143 0000 944A     		ldr	r2, .L12
 144 0002 1378     		ldrb	r3, [r2, #0]	@ zero_extendqisi2
 145              		.loc 1 83 0
 146 0004 2DE9F041 		push	{r4, r5, r6, r7, r8, lr}
 147              	.LCFI4:
 148              		.cfi_def_cfa_offset 24
 149              		.loc 1 91 0
 150 0008 7BB9     		cbnz	r3, .L11
 151              		.cfi_offset 14, -4
 152              		.cfi_offset 8, -8
 153              		.cfi_offset 7, -12
 154              		.cfi_offset 6, -16
 155              		.cfi_offset 5, -20
 156              		.cfi_offset 4, -24
 157              		.loc 1 94 0
 158 000a 0120     		movs	r0, #1
 159 000c 1070     		strb	r0, [r2, #0]
 160              	.LVL3:
 161              	.L7:
 162              		.loc 1 150 0
 163 000e 0823     		movs	r3, #8
ARM GAS  C:\Users\DNIEL~1\AppData\Local\Temp\ccIeTsuP.s 			page 4


 164              	.LVL4:
 165 0010 9149     		ldr	r1, .L12+4
 166 0012 924A     		ldr	r2, .L12+8
 167 0014 9248     		ldr	r0, .L12+12
 168 0016 FFF7FEFF 		bl	adcConvert
 169              		.loc 1 151 0
 170 001a 9248     		ldr	r0, .L12+16
 171 001c 9249     		ldr	r1, .L12+20
 172 001e 934A     		ldr	r2, .L12+24
 173 0020 0823     		movs	r3, #8
 174              		.loc 1 152 0
 175 0022 BDE8F041 		pop	{r4, r5, r6, r7, r8, lr}
 176              		.loc 1 151 0
 177 0026 FFF7FEBF 		b	adcConvert
 178              	.L11:
 179              		.loc 1 91 0
 180 002a 012B     		cmp	r3, #1
 181 002c EFD1     		bne	.L7
 182              	.LVL5:
 183              		.loc 1 100 0
 184 002e 8B4A     		ldr	r2, .L12+8
 185 0030 B2F838E0 		ldrh	lr, [r2, #56]
 186 0034 B2F84640 		ldrh	r4, [r2, #70]
 187 0038 568D     		ldrh	r6, [r2, #42]
 188 003a 958B     		ldrh	r5, [r2, #28]
 189 003c D189     		ldrh	r1, [r2, #14]
 190 003e B2F85430 		ldrh	r3, [r2, #84]
 191 0042 1088     		ldrh	r0, [r2, #0]
 192 0044 B2F862C0 		ldrh	ip, [r2, #98]
 193 0048 0EEB0407 		add	r7, lr, r4
 194 004c 07EB060E 		add	lr, r7, r6
 195 0050 0EEB0504 		add	r4, lr, r5
 196 0054 6718     		adds	r7, r4, r1
 197 0056 FE18     		adds	r6, r7, r3
 198 0058 00EB060E 		add	lr, r0, r6
 199              	.LVL6:
 200 005c 0EEB0C05 		add	r5, lr, ip
 201              	.LVL7:
 202              		.loc 1 102 0
 203 0060 EC10     		asrs	r4, r5, #3
 204              	.LVL8:
 205              		.loc 1 105 0
 206 0062 41F2A951 		movw	r1, #5545
 207 0066 01FB04F6 		mul	r6, r1, r4
 208              	.LVL9:
 209              	.LBB2:
 210              		.loc 1 123 0
 211 006a 2023     		movs	r3, #32
 212              	.LVL10:
 213              	@ 123 "src/meas.c" 1
 214 006c 83F31188 		msr     BASEPRI, r3
 215              	@ 0 "" 2
 216              	.LVL11:
 217              		.thumb
 218              	.LBE2:
 219              		.loc 1 106 0
 220 0070 7F4B     		ldr	r3, .L12+28
ARM GAS  C:\Users\DNIEL~1\AppData\Local\Temp\ccIeTsuP.s 			page 5


 221              	.LVL12:
 222              		.loc 1 124 0
 223 0072 8049     		ldr	r1, .L12+32
 224              		.loc 1 106 0
 225 0074 83FB0647 		smull	r4, r7, r3, r6
 226 0078 BD19     		adds	r5, r7, r6
 227 007a F017     		asrs	r0, r6, #31
 228 007c C0EB6534 		rsb	r4, r0, r5, asr #13
 229              		.loc 1 124 0
 230 0080 23B2     		sxth	r3, r4
 231 0082 0B60     		str	r3, [r1, #0]
 232              	.LBB3:
 233              		.loc 1 125 0
 234 0084 0023     		movs	r3, #0
 235              	.LVL13:
 236              	@ 125 "src/meas.c" 1
 237 0086 83F31188 		msr     BASEPRI, r3
 238              	@ 0 "" 2
 239              	.LVL14:
 240              		.thumb
 241              	.LBE3:
 242              		.loc 1 100 0
 243 008a B2F810E0 		ldrh	lr, [r2, #16]
 244 008e B2F81EC0 		ldrh	ip, [r2, #30]
 245 0092 978D     		ldrh	r7, [r2, #44]
 246 0094 568F     		ldrh	r6, [r2, #58]
 247 0096 B2F84850 		ldrh	r5, [r2, #72]
 248 009a B2F85600 		ldrh	r0, [r2, #86]
 249 009e 5488     		ldrh	r4, [r2, #2]
 250 00a0 B2F86430 		ldrh	r3, [r2, #100]
 251              	.LVL15:
 252 00a4 F444     		add	ip, ip, lr
 253 00a6 0CEB070E 		add	lr, ip, r7
 254 00aa 0EEB0607 		add	r7, lr, r6
 255 00ae 7E19     		adds	r6, r7, r5
 256 00b0 3518     		adds	r5, r6, r0
 257 00b2 6019     		adds	r0, r4, r5
 258              	.LVL16:
 259 00b4 C418     		adds	r4, r0, r3
 260              	.LVL17:
 261              	.LBB4:
 262              		.loc 1 123 0
 263 00b6 2023     		movs	r3, #32
 264              	@ 123 "src/meas.c" 1
 265 00b8 83F31188 		msr     BASEPRI, r3
 266              	@ 0 "" 2
 267              	.LVL18:
 268              		.thumb
 269              	.LBE4:
 270              		.loc 1 124 0
 271 00bc 44F3CF03 		sbfx	r3, r4, #3, #16
 272              	.LVL19:
 273 00c0 4B60     		str	r3, [r1, #4]
 274              	.LBB5:
 275              		.loc 1 125 0
 276 00c2 0023     		movs	r3, #0
 277              	@ 125 "src/meas.c" 1
ARM GAS  C:\Users\DNIEL~1\AppData\Local\Temp\ccIeTsuP.s 			page 6


 278 00c4 83F31188 		msr     BASEPRI, r3
 279              	@ 0 "" 2
 280              	.LVL20:
 281              		.thumb
 282              	.LBE5:
 283              		.loc 1 100 0
 284 00c8 B2F812E0 		ldrh	lr, [r2, #18]
 285 00cc B2F820C0 		ldrh	ip, [r2, #32]
 286 00d0 D78D     		ldrh	r7, [r2, #46]
 287 00d2 968F     		ldrh	r6, [r2, #60]
 288 00d4 B2F84A50 		ldrh	r5, [r2, #74]
 289 00d8 B2F85800 		ldrh	r0, [r2, #88]
 290 00dc 9488     		ldrh	r4, [r2, #4]
 291 00de B2F86630 		ldrh	r3, [r2, #102]
 292              	.LVL21:
 293 00e2 F444     		add	ip, ip, lr
 294 00e4 0CEB070E 		add	lr, ip, r7
 295 00e8 0EEB0607 		add	r7, lr, r6
 296 00ec 7E19     		adds	r6, r7, r5
 297 00ee 3518     		adds	r5, r6, r0
 298 00f0 6019     		adds	r0, r4, r5
 299              	.LVL22:
 300 00f2 C418     		adds	r4, r0, r3
 301              	.LVL23:
 302              	.LBB6:
 303              		.loc 1 123 0
 304 00f4 2023     		movs	r3, #32
 305              	@ 123 "src/meas.c" 1
 306 00f6 83F31188 		msr     BASEPRI, r3
 307              	@ 0 "" 2
 308              	.LVL24:
 309              		.thumb
 310              	.LBE6:
 311              		.loc 1 124 0
 312 00fa 44F3CF03 		sbfx	r3, r4, #3, #16
 313              	.LVL25:
 314 00fe 8B60     		str	r3, [r1, #8]
 315              	.LBB7:
 316              		.loc 1 125 0
 317 0100 0023     		movs	r3, #0
 318              	@ 125 "src/meas.c" 1
 319 0102 83F31188 		msr     BASEPRI, r3
 320              	@ 0 "" 2
 321              	.LVL26:
 322              		.thumb
 323              	.LBE7:
 324              		.loc 1 100 0
 325 0106 B2F814E0 		ldrh	lr, [r2, #20]
 326 010a B2F822C0 		ldrh	ip, [r2, #34]
 327 010e 178E     		ldrh	r7, [r2, #48]
 328 0110 D68F     		ldrh	r6, [r2, #62]
 329 0112 B2F84C50 		ldrh	r5, [r2, #76]
 330 0116 B2F85A00 		ldrh	r0, [r2, #90]
 331 011a D488     		ldrh	r4, [r2, #6]
 332 011c B2F86830 		ldrh	r3, [r2, #104]
 333              	.LVL27:
 334 0120 F444     		add	ip, ip, lr
ARM GAS  C:\Users\DNIEL~1\AppData\Local\Temp\ccIeTsuP.s 			page 7


 335 0122 0CEB070E 		add	lr, ip, r7
 336 0126 0EEB0607 		add	r7, lr, r6
 337 012a 7E19     		adds	r6, r7, r5
 338 012c 3518     		adds	r5, r6, r0
 339 012e 6019     		adds	r0, r4, r5
 340              	.LVL28:
 341 0130 C418     		adds	r4, r0, r3
 342              	.LVL29:
 343              	.LBB8:
 344              		.loc 1 123 0
 345 0132 2023     		movs	r3, #32
 346              	@ 123 "src/meas.c" 1
 347 0134 83F31188 		msr     BASEPRI, r3
 348              	@ 0 "" 2
 349              	.LVL30:
 350              		.thumb
 351              	.LBE8:
 352              		.loc 1 124 0
 353 0138 44F3CF03 		sbfx	r3, r4, #3, #16
 354              	.LVL31:
 355 013c CB60     		str	r3, [r1, #12]
 356              	.LBB9:
 357              		.loc 1 125 0
 358 013e 0023     		movs	r3, #0
 359              	@ 125 "src/meas.c" 1
 360 0140 83F31188 		msr     BASEPRI, r3
 361              	@ 0 "" 2
 362              	.LVL32:
 363              		.thumb
 364              	.LBE9:
 365              		.loc 1 100 0
 366 0144 B2F816E0 		ldrh	lr, [r2, #22]
 367 0148 B2F824C0 		ldrh	ip, [r2, #36]
 368 014c 578E     		ldrh	r7, [r2, #50]
 369 014e B2F84060 		ldrh	r6, [r2, #64]
 370 0152 B2F84E50 		ldrh	r5, [r2, #78]
 371 0156 B2F85C00 		ldrh	r0, [r2, #92]
 372 015a 1489     		ldrh	r4, [r2, #8]
 373 015c B2F86A30 		ldrh	r3, [r2, #106]
 374              	.LVL33:
 375 0160 F444     		add	ip, ip, lr
 376 0162 0CEB070E 		add	lr, ip, r7
 377 0166 0EEB0607 		add	r7, lr, r6
 378 016a 7E19     		adds	r6, r7, r5
 379 016c 3518     		adds	r5, r6, r0
 380 016e 6019     		adds	r0, r4, r5
 381              	.LVL34:
 382 0170 C418     		adds	r4, r0, r3
 383              	.LVL35:
 384              	.LBB10:
 385              		.loc 1 123 0
 386 0172 2023     		movs	r3, #32
 387              	@ 123 "src/meas.c" 1
 388 0174 83F31188 		msr     BASEPRI, r3
 389              	@ 0 "" 2
 390              	.LVL36:
 391              		.thumb
ARM GAS  C:\Users\DNIEL~1\AppData\Local\Temp\ccIeTsuP.s 			page 8


 392              	.LBE10:
 393              		.loc 1 124 0
 394 0178 44F3CF03 		sbfx	r3, r4, #3, #16
 395              	.LVL37:
 396 017c 0B61     		str	r3, [r1, #16]
 397              	.LBB11:
 398              		.loc 1 125 0
 399 017e 0023     		movs	r3, #0
 400              	@ 125 "src/meas.c" 1
 401 0180 83F31188 		msr     BASEPRI, r3
 402              	@ 0 "" 2
 403              	.LVL38:
 404              		.thumb
 405              	.LBE11:
 406              		.loc 1 100 0
 407 0184 B2F818E0 		ldrh	lr, [r2, #24]
 408 0188 B2F826C0 		ldrh	ip, [r2, #38]
 409 018c 978E     		ldrh	r7, [r2, #52]
 410 018e B2F84260 		ldrh	r6, [r2, #66]
 411 0192 B2F85050 		ldrh	r5, [r2, #80]
 412 0196 B2F85E00 		ldrh	r0, [r2, #94]
 413 019a 5489     		ldrh	r4, [r2, #10]
 414 019c B2F86C30 		ldrh	r3, [r2, #108]
 415              	.LVL39:
 416 01a0 F444     		add	ip, ip, lr
 417 01a2 0CEB070E 		add	lr, ip, r7
 418 01a6 7644     		add	r6, lr, r6
 419 01a8 7719     		adds	r7, r6, r5
 420 01aa 3D18     		adds	r5, r7, r0
 421 01ac 6419     		adds	r4, r4, r5
 422              	.LVL40:
 423 01ae 04EB030C 		add	ip, r4, r3
 424              	.LVL41:
 425              	.LBB12:
 426              		.loc 1 123 0
 427 01b2 2023     		movs	r3, #32
 428              	@ 123 "src/meas.c" 1
 429 01b4 83F31188 		msr     BASEPRI, r3
 430              	@ 0 "" 2
 431              	.LVL42:
 432              		.thumb
 433              	.LBE12:
 434              		.loc 1 124 0
 435 01b8 4CF3CF00 		sbfx	r0, ip, #3, #16
 436 01bc 4861     		str	r0, [r1, #20]
 437              	.LBB13:
 438              		.loc 1 125 0
 439 01be 0023     		movs	r3, #0
 440              	.LVL43:
 441              	@ 125 "src/meas.c" 1
 442 01c0 83F31188 		msr     BASEPRI, r3
 443              	@ 0 "" 2
 444              	.LVL44:
 445              		.thumb
 446              	.LBE13:
 447              		.loc 1 100 0
 448 01c4 B2F828E0 		ldrh	lr, [r2, #40]
ARM GAS  C:\Users\DNIEL~1\AppData\Local\Temp\ccIeTsuP.s 			page 9


 449 01c8 568B     		ldrh	r6, [r2, #26]
 450 01ca D58E     		ldrh	r5, [r2, #54]
 451 01cc B2F84440 		ldrh	r4, [r2, #68]
 452 01d0 B2F852C0 		ldrh	ip, [r2, #82]
 453 01d4 B2F86030 		ldrh	r3, [r2, #96]
 454              	.LVL45:
 455 01d8 9089     		ldrh	r0, [r2, #12]
 456 01da B2F86E20 		ldrh	r2, [r2, #110]
 457 01de 0EEB0607 		add	r7, lr, r6
 458 01e2 7E19     		adds	r6, r7, r5
 459 01e4 3519     		adds	r5, r6, r4
 460 01e6 05EB0C04 		add	r4, r5, ip
 461 01ea 04EB030C 		add	ip, r4, r3
 462 01ee 6044     		add	r0, r0, ip
 463              	.LVL46:
 464 01f0 02EB000E 		add	lr, r2, r0
 465              	.LVL47:
 466              	.LBB14:
 467              		.loc 1 123 0
 468 01f4 2023     		movs	r3, #32
 469              	@ 123 "src/meas.c" 1
 470 01f6 83F31188 		msr     BASEPRI, r3
 471              	@ 0 "" 2
 472              	.LVL48:
 473              		.thumb
 474              	.LBE14:
 475              		.loc 1 124 0
 476 01fa 4EF3CF07 		sbfx	r7, lr, #3, #16
 477 01fe 8F61     		str	r7, [r1, #24]
 478              	.LBB15:
 479              		.loc 1 125 0
 480 0200 0023     		movs	r3, #0
 481              	.LVL49:
 482              	@ 125 "src/meas.c" 1
 483 0202 83F31188 		msr     BASEPRI, r3
 484              	@ 0 "" 2
 485              	.LVL50:
 486              		.thumb
 487              	.LBE15:
 488              		.loc 1 130 0
 489 0206 194B     		ldr	r3, .L12+24
 490              	.LVL51:
 491 0208 1F88     		ldrh	r7, [r3, #0]
 492 020a 9E88     		ldrh	r6, [r3, #4]
 493 020c 1D89     		ldrh	r5, [r3, #8]
 494 020e 9C89     		ldrh	r4, [r3, #12]
 495 0210 B3F810C0 		ldrh	ip, [r3, #16]
 496 0214 998A     		ldrh	r1, [r3, #20]
 497 0216 1A8B     		ldrh	r2, [r3, #24]
 498 0218 9B8B     		ldrh	r3, [r3, #28]
 499 021a BE19     		adds	r6, r7, r6
 500              	.LVL52:
 501 021c 7519     		adds	r5, r6, r5
 502              	.LVL53:
 503 021e 2C19     		adds	r4, r5, r4
 504              	.LVL54:
 505 0220 04EB0C00 		add	r0, r4, ip
ARM GAS  C:\Users\DNIEL~1\AppData\Local\Temp\ccIeTsuP.s 			page 10


 506              	.LVL55:
 507 0224 00EB010E 		add	lr, r0, r1
 508              	.LVL56:
 509 0228 0EEB020C 		add	ip, lr, r2
 510              	.LVL57:
 511 022c 0CEB0300 		add	r0, ip, r3
 512              	.LVL58:
 513              	.LBB16:
 514              		.loc 1 142 0
 515 0230 2023     		movs	r3, #32
 516              	.LVL59:
 517              	@ 142 "src/meas.c" 1
 518 0232 83F31188 		msr     BASEPRI, r3
 519              	@ 0 "" 2
 520              	.LVL60:
 521              		.thumb
 522              	.LBE16:
 523              		.loc 1 143 0
 524 0236 104A     		ldr	r2, .L12+36
 525 0238 40F3CF01 		sbfx	r1, r0, #3, #16
 526 023c 1160     		str	r1, [r2, #0]
 527              	.LBB17:
 528              		.loc 1 144 0
 529 023e 0023     		movs	r3, #0
 530              	.LVL61:
 531              	@ 144 "src/meas.c" 1
 532 0240 83F31188 		msr     BASEPRI, r3
 533              	@ 0 "" 2
 534              	.LVL62:
 535              		.thumb
 536              	.LBE17:
 537              	.LBB18:
 538              		.loc 1 142 0
 539 0244 2023     		movs	r3, #32
 540              	.LVL63:
 541              	@ 142 "src/meas.c" 1
 542 0246 83F31188 		msr     BASEPRI, r3
 543              	@ 0 "" 2
 544              	.LVL64:
 545              		.thumb
 546              	.LBE18:
 547              		.loc 1 143 0
 548 024a 0023     		movs	r3, #0
 549              	.LVL65:
 550 024c 5360     		str	r3, [r2, #4]
 551              	.LBB19:
 552              		.loc 1 144 0
 553              	@ 144 "src/meas.c" 1
 554 024e 83F31188 		msr     BASEPRI, r3
 555              	@ 0 "" 2
 556              	.LVL66:
 557              		.thumb
 558 0252 DCE6     		b	.L7
 559              	.L13:
 560              		.align	2
 561              	.L12:
 562 0254 00000000 		.word	.LANCHOR0
ARM GAS  C:\Users\DNIEL~1\AppData\Local\Temp\ccIeTsuP.s 			page 11


 563 0258 00000000 		.word	.LANCHOR5
 564 025c 00000000 		.word	.LANCHOR1
 565 0260 00000000 		.word	ADCD2
 566 0264 00000000 		.word	ADCD3
 567 0268 00000000 		.word	.LANCHOR6
 568 026c 00000000 		.word	.LANCHOR3
 569 0270 B32EF6A8 		.word	-1460261197
 570 0274 00000000 		.word	.LANCHOR2
 571 0278 00000000 		.word	.LANCHOR4
 572              	.LBE19:
 573              		.cfi_endproc
 574              	.LFE120:
 575              		.size	measCalc, .-measCalc
 576 027c AFF30080 		.section	.text.measGetValue,"ax",%progbits
 577              		.align	2
 578              		.p2align 4,,15
 579              		.global	measGetValue
 580              		.thumb
 581              		.thumb_func
 582              		.type	measGetValue, %function
 583              	measGetValue:
 584              	.LFB121:
 585              		.loc 1 154 0
 586              		.cfi_startproc
 587              		@ args = 0, pretend = 0, frame = 0
 588              		@ frame_needed = 0, uses_anonymous_args = 0
 589              		@ link register save eliminated.
 590              	.LVL67:
 591              		.loc 1 155 0
 592 0000 014B     		ldr	r3, .L15
 593              		.loc 1 156 0
 594 0002 33F92000 		ldrsh	r0, [r3, r0, lsl #2]
 595              	.LVL68:
 596 0006 7047     		bx	lr
 597              	.L16:
 598              		.align	2
 599              	.L15:
 600 0008 00000000 		.word	.LANCHOR2
 601              		.cfi_endproc
 602              	.LFE121:
 603              		.size	measGetValue, .-measGetValue
 604 000c AFF30080 		.section	.text.measGetValue_2,"ax",%progbits
 605              		.align	2
 606              		.p2align 4,,15
 607              		.global	measGetValue_2
 608              		.thumb
 609              		.thumb_func
 610              		.type	measGetValue_2, %function
 611              	measGetValue_2:
 612              	.LFB122:
 613              		.loc 1 158 0
 614              		.cfi_startproc
 615              		@ args = 0, pretend = 0, frame = 0
 616              		@ frame_needed = 0, uses_anonymous_args = 0
 617              		@ link register save eliminated.
 618              	.LVL69:
 619              		.loc 1 159 0
ARM GAS  C:\Users\DNIEL~1\AppData\Local\Temp\ccIeTsuP.s 			page 12


 620 0000 014B     		ldr	r3, .L18
 621              		.loc 1 160 0
 622 0002 33F92000 		ldrsh	r0, [r3, r0, lsl #2]
 623              	.LVL70:
 624 0006 7047     		bx	lr
 625              	.L19:
 626              		.align	2
 627              	.L18:
 628 0008 00000000 		.word	.LANCHOR4
 629              		.cfi_endproc
 630              	.LFE122:
 631              		.size	measGetValue_2, .-measGetValue_2
 632 000c AFF30080 		.section	.text.cmd_measvalues,"ax",%progbits
 633              		.align	2
 634              		.p2align 4,,15
 635              		.global	cmd_measvalues
 636              		.thumb
 637              		.thumb_func
 638              		.type	cmd_measvalues, %function
 639              	cmd_measvalues:
 640              	.LFB124:
 641              		.loc 1 171 0
 642              		.cfi_startproc
 643              		@ args = 0, pretend = 0, frame = 0
 644              		@ frame_needed = 0, uses_anonymous_args = 0
 645              	.LVL71:
 646 0000 70B5     		push	{r4, r5, r6, lr}
 647              	.LCFI5:
 648              		.cfi_def_cfa_offset 16
 649              		.loc 1 191 0
 650 0002 2A49     		ldr	r1, .L23
 651              	.LVL72:
 652              		.loc 1 196 0
 653 0004 2A4D     		ldr	r5, .L23+4
 654              		.cfi_offset 14, -4
 655              		.cfi_offset 6, -8
 656              		.cfi_offset 5, -12
 657              		.cfi_offset 4, -16
 658              		.loc 1 199 0
 659 0006 2B4E     		ldr	r6, .L23+8
 660              		.loc 1 171 0
 661 0008 0446     		mov	r4, r0
 662              		.loc 1 191 0
 663 000a FFF7FEFF 		bl	chprintf
 664              	.LVL73:
 665              		.loc 1 192 0
 666 000e 2046     		mov	r0, r4
 667 0010 2949     		ldr	r1, .L23+12
 668 0012 FFF7FEFF 		bl	chprintf
 669              		.loc 1 193 0
 670 0016 3FE0     		b	.L21
 671              	.L22:
 672              		.loc 1 194 0
 673 0018 0022     		movs	r2, #0
 674 001a 1346     		mov	r3, r2
 675 001c 2749     		ldr	r1, .L23+16
 676 001e 2046     		mov	r0, r4
ARM GAS  C:\Users\DNIEL~1\AppData\Local\Temp\ccIeTsuP.s 			page 13


 677 0020 FFF7FEFF 		bl	chprintf
 678              	.LVL74:
 679              		.loc 1 196 0
 680 0024 2046     		mov	r0, r4
 681 0026 2649     		ldr	r1, .L23+20
 682 0028 264A     		ldr	r2, .L23+24
 683 002a 2B68     		ldr	r3, [r5, #0]
 684 002c FFF7FEFF 		bl	chprintf
 685              	.LVL75:
 686 0030 2046     		mov	r0, r4
 687 0032 2349     		ldr	r1, .L23+20
 688 0034 244A     		ldr	r2, .L23+28
 689 0036 6B68     		ldr	r3, [r5, #4]
 690 0038 FFF7FEFF 		bl	chprintf
 691              	.LVL76:
 692 003c 2046     		mov	r0, r4
 693 003e 2049     		ldr	r1, .L23+20
 694 0040 224A     		ldr	r2, .L23+32
 695 0042 AB68     		ldr	r3, [r5, #8]
 696 0044 FFF7FEFF 		bl	chprintf
 697              	.LVL77:
 698 0048 2046     		mov	r0, r4
 699 004a 1D49     		ldr	r1, .L23+20
 700 004c 204A     		ldr	r2, .L23+36
 701 004e EB68     		ldr	r3, [r5, #12]
 702 0050 FFF7FEFF 		bl	chprintf
 703              	.LVL78:
 704 0054 2046     		mov	r0, r4
 705 0056 1A49     		ldr	r1, .L23+20
 706 0058 1E4A     		ldr	r2, .L23+40
 707 005a 2B69     		ldr	r3, [r5, #16]
 708 005c FFF7FEFF 		bl	chprintf
 709              	.LVL79:
 710 0060 2046     		mov	r0, r4
 711 0062 1749     		ldr	r1, .L23+20
 712 0064 1C4A     		ldr	r2, .L23+44
 713 0066 6B69     		ldr	r3, [r5, #20]
 714 0068 FFF7FEFF 		bl	chprintf
 715              	.LVL80:
 716 006c 2046     		mov	r0, r4
 717 006e 1449     		ldr	r1, .L23+20
 718 0070 1A4A     		ldr	r2, .L23+48
 719 0072 AB69     		ldr	r3, [r5, #24]
 720 0074 FFF7FEFF 		bl	chprintf
 721              	.LVL81:
 722              		.loc 1 199 0
 723 0078 2046     		mov	r0, r4
 724 007a 1149     		ldr	r1, .L23+20
 725 007c 184A     		ldr	r2, .L23+52
 726 007e 3368     		ldr	r3, [r6, #0]
 727 0080 FFF7FEFF 		bl	chprintf
 728              	.LVL82:
 729 0084 2046     		mov	r0, r4
 730 0086 0E49     		ldr	r1, .L23+20
 731 0088 164A     		ldr	r2, .L23+56
 732 008a 7368     		ldr	r3, [r6, #4]
 733 008c FFF7FEFF 		bl	chprintf
ARM GAS  C:\Users\DNIEL~1\AppData\Local\Temp\ccIeTsuP.s 			page 14


 734              	.LVL83:
 735              		.loc 1 201 0
 736 0090 4FF47A70 		mov	r0, #1000
 737 0094 FFF7FEFF 		bl	chThdSleep
 738              	.LVL84:
 739              	.L21:
 740              		.loc 1 193 0 discriminator 1
 741 0098 2168     		ldr	r1, [r4, #0]
 742 009a 2046     		mov	r0, r4
 743 009c 4B69     		ldr	r3, [r1, #20]
 744 009e 0021     		movs	r1, #0
 745 00a0 9847     		blx	r3
 746 00a2 B0F1FF3F 		cmp	r0, #-1
 747 00a6 B7D0     		beq	.L22
 748              		.loc 1 203 0
 749 00a8 70BD     		pop	{r4, r5, r6, pc}
 750              	.L24:
 751 00aa 00BF     		.align	2
 752              	.L23:
 753 00ac 00000000 		.word	.LC0
 754 00b0 00000000 		.word	.LANCHOR2
 755 00b4 00000000 		.word	.LANCHOR4
 756 00b8 04000000 		.word	.LC1
 757 00bc 0C000000 		.word	.LC2
 758 00c0 18000000 		.word	.LC3
 759 00c4 24000000 		.word	.LC4
 760 00c8 2C000000 		.word	.LC5
 761 00cc 3C000000 		.word	.LC6
 762 00d0 4C000000 		.word	.LC7
 763 00d4 54000000 		.word	.LC8
 764 00d8 5C000000 		.word	.LC9
 765 00dc 64000000 		.word	.LC10
 766 00e0 6C000000 		.word	.LC11
 767 00e4 74000000 		.word	.LC12
 768              		.cfi_endproc
 769              	.LFE124:
 770              		.size	cmd_measvalues, .-cmd_measvalues
 771              		.global	measstate
 772 00e8 AFF30080 		.section	.bss.measValue,"aw",%nobits
 772      AFF30080 
 773              		.align	2
 774              		.set	.LANCHOR2,. + 0
 775              		.type	measValue, %object
 776              		.size	measValue, 36
 777              	measValue:
 778 0000 00000000 		.space	36
 778      00000000 
 778      00000000 
 778      00000000 
 778      00000000 
 779              		.section	.bss.samples_2,"aw",%nobits
 780              		.align	2
 781              		.set	.LANCHOR3,. + 0
 782              		.type	samples_2, %object
 783              		.size	samples_2, 32
 784              	samples_2:
 785 0000 00000000 		.space	32
ARM GAS  C:\Users\DNIEL~1\AppData\Local\Temp\ccIeTsuP.s 			page 15


 785      00000000 
 785      00000000 
 785      00000000 
 785      00000000 
 786              		.section	.rodata.adcgrpcfg_2,"a",%progbits
 787              		.align	2
 788              		.set	.LANCHOR6,. + 0
 789              		.type	adcgrpcfg_2, %object
 790              		.size	adcgrpcfg_2, 40
 791              	adcgrpcfg_2:
 792 0000 00       		.byte	0
 793 0001 00       		.space	1
 794 0002 0200     		.short	2
 795 0004 00000000 		.word	0
 796 0008 00000000 		.word	adcerrorcallback
 797 000c 00000000 		.word	0
 798 0010 00000040 		.word	1073741824
 799 0014 00000000 		.word	0
 800 0018 00900000 		.word	36864
 801 001c 00001000 		.word	1048576
 802 0020 00000000 		.word	0
 803 0024 A4000000 		.word	164
 804              		.section	.bss.measstate,"aw",%nobits
 805              		.set	.LANCHOR0,. + 0
 806              		.type	measstate, %object
 807              		.size	measstate, 1
 808              	measstate:
 809 0000 00       		.space	1
 810              		.section	.bss.measValue_2,"aw",%nobits
 811              		.align	2
 812              		.set	.LANCHOR4,. + 0
 813              		.type	measValue_2, %object
 814              		.size	measValue_2, 16
 815              	measValue_2:
 816 0000 00000000 		.space	16
 816      00000000 
 816      00000000 
 816      00000000 
 817              		.section	.rodata.str1.4,"aMS",%progbits,1
 818              		.align	2
 819              	.LC0:
 820 0000 1B6300   		.ascii	"\033c\000"
 821 0003 00       		.space	1
 822              	.LC1:
 823 0004 1B5B324A 		.ascii	"\033[2J\000"
 823      00
 824 0009 000000   		.space	3
 825              	.LC2:
 826 000c 1B5B2564 		.ascii	"\033[%d;%dH\000"
 826      3B256448 
 826      00
 827 0015 000000   		.space	3
 828              	.LC3:
 829 0018 25733A20 		.ascii	"%s: %15d\015\012\000"
 829      25313564 
 829      0D0A00
 830 0023 00       		.space	1
ARM GAS  C:\Users\DNIEL~1\AppData\Local\Temp\ccIeTsuP.s 			page 16


 831              	.LC4:
 832 0024 55424154 		.ascii	"UBAT\000"
 832      00
 833 0029 000000   		.space	3
 834              	.LC5:
 835 002c 4252414B 		.ascii	"BRAKE_PRESSURE1\000"
 835      455F5052 
 835      45535355 
 835      52453100 
 836              	.LC6:
 837 003c 4252414B 		.ascii	"BRAKE_PRESSURE2\000"
 837      455F5052 
 837      45535355 
 837      52453200 
 838              	.LC7:
 839 004c 53454E32 		.ascii	"SEN2\000"
 839      00
 840 0051 000000   		.space	3
 841              	.LC8:
 842 0054 53454E33 		.ascii	"SEN3\000"
 842      00
 843 0059 000000   		.space	3
 844              	.LC9:
 845 005c 53454E34 		.ascii	"SEN4\000"
 845      00
 846 0061 000000   		.space	3
 847              	.LC10:
 848 0064 53454E35 		.ascii	"SEN5\000"
 848      00
 849 0069 000000   		.space	3
 850              	.LC11:
 851 006c 43555252 		.ascii	"CURR1\000"
 851      3100
 852 0072 0000     		.space	2
 853              	.LC12:
 854 0074 5448524F 		.ascii	"THROTTLE\000"
 854      54544C45 
 854      00
 855 007d 000000   		.section	.rodata.adcgrpcfg,"a",%progbits
 856              		.align	2
 857              		.set	.LANCHOR5,. + 0
 858              		.type	adcgrpcfg, %object
 859              		.size	adcgrpcfg, 40
 860              	adcgrpcfg:
 861 0000 00       		.byte	0
 862 0001 00       		.space	1
 863 0002 0700     		.short	7
 864 0004 00000000 		.word	0
 865 0008 00000000 		.word	adcerrorcallback
 866 000c 00000000 		.word	0
 867 0010 00000040 		.word	1073741824
 868 0014 49920000 		.word	37449
 869 0018 00000001 		.word	16777216
 870 001c 00006000 		.word	6291456
 871 0020 08000000 		.word	8
 872 0024 4E2DD61E 		.word	517352782
 873              		.section	.bss.samples,"aw",%nobits
ARM GAS  C:\Users\DNIEL~1\AppData\Local\Temp\ccIeTsuP.s 			page 17


 874              		.align	2
 875              		.set	.LANCHOR1,. + 0
 876              		.type	samples, %object
 877              		.size	samples, 112
 878              	samples:
 879 0000 00000000 		.space	112
 879      00000000 
 879      00000000 
 879      00000000 
 879      00000000 
 880              		.text
 881              	.Letext0:
 882              		.section	.debug_loc,"",%progbits
 883              	.Ldebug_loc0:
 884              	.LLST0:
 885 0000 00000000 		.4byte	.LFB118
 886 0004 02000000 		.4byte	.LCFI0
 887 0008 0200     		.2byte	0x2
 888 000a 7D       		.byte	0x7d
 889 000b 00       		.sleb128 0
 890 000c 02000000 		.4byte	.LCFI0
 891 0010 04000000 		.4byte	.LCFI1
 892 0014 0200     		.2byte	0x2
 893 0016 7D       		.byte	0x7d
 894 0017 0C       		.sleb128 12
 895 0018 04000000 		.4byte	.LCFI1
 896 001c 06000000 		.4byte	.LCFI2
 897 0020 0200     		.2byte	0x2
 898 0022 7D       		.byte	0x7d
 899 0023 10       		.sleb128 16
 900 0024 06000000 		.4byte	.LCFI2
 901 0028 1E000000 		.4byte	.LFE118
 902 002c 0200     		.2byte	0x2
 903 002e 7D       		.byte	0x7d
 904 002f 18       		.sleb128 24
 905 0030 00000000 		.4byte	0x0
 906 0034 00000000 		.4byte	0x0
 907              	.LLST1:
 908 0038 00000000 		.4byte	.LVL1
 909 003c 13000000 		.4byte	.LVL2-1
 910 0040 0100     		.2byte	0x1
 911 0042 50       		.byte	0x50
 912 0043 00000000 		.4byte	0x0
 913 0047 00000000 		.4byte	0x0
 914              	.LLST2:
 915 004b 00000000 		.4byte	.LFB119
 916 004f 02000000 		.4byte	.LCFI3
 917 0053 0200     		.2byte	0x2
 918 0055 7D       		.byte	0x7d
 919 0056 00       		.sleb128 0
 920 0057 02000000 		.4byte	.LCFI3
 921 005b 28000000 		.4byte	.LFE119
 922 005f 0200     		.2byte	0x2
 923 0061 7D       		.byte	0x7d
 924 0062 08       		.sleb128 8
 925 0063 00000000 		.4byte	0x0
 926 0067 00000000 		.4byte	0x0
ARM GAS  C:\Users\DNIEL~1\AppData\Local\Temp\ccIeTsuP.s 			page 18


 927              	.LLST3:
 928 006b 00000000 		.4byte	.LFB120
 929 006f 08000000 		.4byte	.LCFI4
 930 0073 0200     		.2byte	0x2
 931 0075 7D       		.byte	0x7d
 932 0076 00       		.sleb128 0
 933 0077 08000000 		.4byte	.LCFI4
 934 007b 7C020000 		.4byte	.LFE120
 935 007f 0200     		.2byte	0x2
 936 0081 7D       		.byte	0x7d
 937 0082 18       		.sleb128 24
 938 0083 00000000 		.4byte	0x0
 939 0087 00000000 		.4byte	0x0
 940              	.LLST4:
 941 008b 8A000000 		.4byte	.LVL14
 942 008f C8000000 		.4byte	.LVL20
 943 0093 0200     		.2byte	0x2
 944 0095 31       		.byte	0x31
 945 0096 9F       		.byte	0x9f
 946 0097 C8000000 		.4byte	.LVL20
 947 009b 06010000 		.4byte	.LVL26
 948 009f 0200     		.2byte	0x2
 949 00a1 32       		.byte	0x32
 950 00a2 9F       		.byte	0x9f
 951 00a3 06010000 		.4byte	.LVL26
 952 00a7 44010000 		.4byte	.LVL32
 953 00ab 0200     		.2byte	0x2
 954 00ad 33       		.byte	0x33
 955 00ae 9F       		.byte	0x9f
 956 00af 44010000 		.4byte	.LVL32
 957 00b3 84010000 		.4byte	.LVL38
 958 00b7 0200     		.2byte	0x2
 959 00b9 34       		.byte	0x34
 960 00ba 9F       		.byte	0x9f
 961 00bb 84010000 		.4byte	.LVL38
 962 00bf C4010000 		.4byte	.LVL44
 963 00c3 0200     		.2byte	0x2
 964 00c5 35       		.byte	0x35
 965 00c6 9F       		.byte	0x9f
 966 00c7 C4010000 		.4byte	.LVL44
 967 00cb 06020000 		.4byte	.LVL50
 968 00cf 0200     		.2byte	0x2
 969 00d1 36       		.byte	0x36
 970 00d2 9F       		.byte	0x9f
 971 00d3 06020000 		.4byte	.LVL50
 972 00d7 44020000 		.4byte	.LVL62
 973 00db 0200     		.2byte	0x2
 974 00dd 37       		.byte	0x37
 975 00de 9F       		.byte	0x9f
 976 00df 44020000 		.4byte	.LVL62
 977 00e3 52020000 		.4byte	.LVL66
 978 00e7 0200     		.2byte	0x2
 979 00e9 31       		.byte	0x31
 980 00ea 9F       		.byte	0x9f
 981 00eb 52020000 		.4byte	.LVL66
 982 00ef 7C020000 		.4byte	.LFE120
 983 00f3 0200     		.2byte	0x2
ARM GAS  C:\Users\DNIEL~1\AppData\Local\Temp\ccIeTsuP.s 			page 19


 984 00f5 32       		.byte	0x32
 985 00f6 9F       		.byte	0x9f
 986 00f7 00000000 		.4byte	0x0
 987 00fb 00000000 		.4byte	0x0
 988              	.LLST5:
 989 00ff 5C000000 		.4byte	.LVL6
 990 0103 60000000 		.4byte	.LVL7
 991 0107 0100     		.2byte	0x1
 992 0109 5E       		.byte	0x5e
 993 010a 60000000 		.4byte	.LVL7
 994 010e 62000000 		.4byte	.LVL8
 995 0112 0100     		.2byte	0x1
 996 0114 55       		.byte	0x55
 997 0115 62000000 		.4byte	.LVL8
 998 0119 6A000000 		.4byte	.LVL9
 999 011d 0100     		.2byte	0x1
 1000 011f 54       		.byte	0x54
 1001 0120 6A000000 		.4byte	.LVL9
 1002 0124 8A000000 		.4byte	.LVL14
 1003 0128 0700     		.2byte	0x7
 1004 012a 76       		.byte	0x76
 1005 012b 00       		.sleb128 0
 1006 012c 0A       		.byte	0xa
 1007 012d 7C30     		.2byte	0x307c
 1008 012f 1B       		.byte	0x1b
 1009 0130 9F       		.byte	0x9f
 1010 0131 B4000000 		.4byte	.LVL16
 1011 0135 B6000000 		.4byte	.LVL17
 1012 0139 0100     		.2byte	0x1
 1013 013b 50       		.byte	0x50
 1014 013c B6000000 		.4byte	.LVL17
 1015 0140 C8000000 		.4byte	.LVL20
 1016 0144 0500     		.2byte	0x5
 1017 0146 74       		.byte	0x74
 1018 0147 00       		.sleb128 0
 1019 0148 33       		.byte	0x33
 1020 0149 26       		.byte	0x26
 1021 014a 9F       		.byte	0x9f
 1022 014b F2000000 		.4byte	.LVL22
 1023 014f F4000000 		.4byte	.LVL23
 1024 0153 0100     		.2byte	0x1
 1025 0155 50       		.byte	0x50
 1026 0156 F4000000 		.4byte	.LVL23
 1027 015a 06010000 		.4byte	.LVL26
 1028 015e 0500     		.2byte	0x5
 1029 0160 74       		.byte	0x74
 1030 0161 00       		.sleb128 0
 1031 0162 33       		.byte	0x33
 1032 0163 26       		.byte	0x26
 1033 0164 9F       		.byte	0x9f
 1034 0165 30010000 		.4byte	.LVL28
 1035 0169 32010000 		.4byte	.LVL29
 1036 016d 0100     		.2byte	0x1
 1037 016f 50       		.byte	0x50
 1038 0170 32010000 		.4byte	.LVL29
 1039 0174 44010000 		.4byte	.LVL32
 1040 0178 0500     		.2byte	0x5
ARM GAS  C:\Users\DNIEL~1\AppData\Local\Temp\ccIeTsuP.s 			page 20


 1041 017a 74       		.byte	0x74
 1042 017b 00       		.sleb128 0
 1043 017c 33       		.byte	0x33
 1044 017d 26       		.byte	0x26
 1045 017e 9F       		.byte	0x9f
 1046 017f 70010000 		.4byte	.LVL34
 1047 0183 72010000 		.4byte	.LVL35
 1048 0187 0100     		.2byte	0x1
 1049 0189 50       		.byte	0x50
 1050 018a 72010000 		.4byte	.LVL35
 1051 018e 84010000 		.4byte	.LVL38
 1052 0192 0500     		.2byte	0x5
 1053 0194 74       		.byte	0x74
 1054 0195 00       		.sleb128 0
 1055 0196 33       		.byte	0x33
 1056 0197 26       		.byte	0x26
 1057 0198 9F       		.byte	0x9f
 1058 0199 AE010000 		.4byte	.LVL40
 1059 019d B2010000 		.4byte	.LVL41
 1060 01a1 0100     		.2byte	0x1
 1061 01a3 54       		.byte	0x54
 1062 01a4 B2010000 		.4byte	.LVL41
 1063 01a8 C4010000 		.4byte	.LVL44
 1064 01ac 0500     		.2byte	0x5
 1065 01ae 7C       		.byte	0x7c
 1066 01af 00       		.sleb128 0
 1067 01b0 33       		.byte	0x33
 1068 01b1 26       		.byte	0x26
 1069 01b2 9F       		.byte	0x9f
 1070 01b3 F0010000 		.4byte	.LVL46
 1071 01b7 F4010000 		.4byte	.LVL47
 1072 01bb 0100     		.2byte	0x1
 1073 01bd 50       		.byte	0x50
 1074 01be F4010000 		.4byte	.LVL47
 1075 01c2 06020000 		.4byte	.LVL50
 1076 01c6 0500     		.2byte	0x5
 1077 01c8 7E       		.byte	0x7e
 1078 01c9 00       		.sleb128 0
 1079 01ca 33       		.byte	0x33
 1080 01cb 26       		.byte	0x26
 1081 01cc 9F       		.byte	0x9f
 1082 01cd 06020000 		.4byte	.LVL50
 1083 01d1 1C020000 		.4byte	.LVL52
 1084 01d5 0500     		.2byte	0x5
 1085 01d7 03       		.byte	0x3
 1086 01d8 00000000 		.4byte	samples_2
 1087 01dc 1C020000 		.4byte	.LVL52
 1088 01e0 1E020000 		.4byte	.LVL53
 1089 01e4 0100     		.2byte	0x1
 1090 01e6 56       		.byte	0x56
 1091 01e7 1E020000 		.4byte	.LVL53
 1092 01eb 20020000 		.4byte	.LVL54
 1093 01ef 0100     		.2byte	0x1
 1094 01f1 55       		.byte	0x55
 1095 01f2 20020000 		.4byte	.LVL54
 1096 01f6 24020000 		.4byte	.LVL55
 1097 01fa 0100     		.2byte	0x1
ARM GAS  C:\Users\DNIEL~1\AppData\Local\Temp\ccIeTsuP.s 			page 21


 1098 01fc 54       		.byte	0x54
 1099 01fd 24020000 		.4byte	.LVL55
 1100 0201 28020000 		.4byte	.LVL56
 1101 0205 0100     		.2byte	0x1
 1102 0207 50       		.byte	0x50
 1103 0208 28020000 		.4byte	.LVL56
 1104 020c 2C020000 		.4byte	.LVL57
 1105 0210 0100     		.2byte	0x1
 1106 0212 5E       		.byte	0x5e
 1107 0213 2C020000 		.4byte	.LVL57
 1108 0217 30020000 		.4byte	.LVL58
 1109 021b 0100     		.2byte	0x1
 1110 021d 5C       		.byte	0x5c
 1111 021e 00000000 		.4byte	0x0
 1112 0222 00000000 		.4byte	0x0
 1113              	.LLST6:
 1114 0226 2E000000 		.4byte	.LVL5
 1115 022a 5C000000 		.4byte	.LVL6
 1116 022e 0200     		.2byte	0x2
 1117 0230 36       		.byte	0x36
 1118 0231 9F       		.byte	0x9f
 1119 0232 5C000000 		.4byte	.LVL6
 1120 0236 60000000 		.4byte	.LVL7
 1121 023a 0200     		.2byte	0x2
 1122 023c 37       		.byte	0x37
 1123 023d 9F       		.byte	0x9f
 1124 023e 60000000 		.4byte	.LVL7
 1125 0242 8A000000 		.4byte	.LVL14
 1126 0246 0200     		.2byte	0x2
 1127 0248 38       		.byte	0x38
 1128 0249 9F       		.byte	0x9f
 1129 024a 8A000000 		.4byte	.LVL14
 1130 024e B4000000 		.4byte	.LVL16
 1131 0252 0200     		.2byte	0x2
 1132 0254 36       		.byte	0x36
 1133 0255 9F       		.byte	0x9f
 1134 0256 B4000000 		.4byte	.LVL16
 1135 025a B6000000 		.4byte	.LVL17
 1136 025e 0200     		.2byte	0x2
 1137 0260 37       		.byte	0x37
 1138 0261 9F       		.byte	0x9f
 1139 0262 B6000000 		.4byte	.LVL17
 1140 0266 C8000000 		.4byte	.LVL20
 1141 026a 0200     		.2byte	0x2
 1142 026c 38       		.byte	0x38
 1143 026d 9F       		.byte	0x9f
 1144 026e C8000000 		.4byte	.LVL20
 1145 0272 F2000000 		.4byte	.LVL22
 1146 0276 0200     		.2byte	0x2
 1147 0278 36       		.byte	0x36
 1148 0279 9F       		.byte	0x9f
 1149 027a F2000000 		.4byte	.LVL22
 1150 027e F4000000 		.4byte	.LVL23
 1151 0282 0200     		.2byte	0x2
 1152 0284 37       		.byte	0x37
 1153 0285 9F       		.byte	0x9f
 1154 0286 F4000000 		.4byte	.LVL23
ARM GAS  C:\Users\DNIEL~1\AppData\Local\Temp\ccIeTsuP.s 			page 22


 1155 028a 06010000 		.4byte	.LVL26
 1156 028e 0200     		.2byte	0x2
 1157 0290 38       		.byte	0x38
 1158 0291 9F       		.byte	0x9f
 1159 0292 06010000 		.4byte	.LVL26
 1160 0296 30010000 		.4byte	.LVL28
 1161 029a 0200     		.2byte	0x2
 1162 029c 36       		.byte	0x36
 1163 029d 9F       		.byte	0x9f
 1164 029e 30010000 		.4byte	.LVL28
 1165 02a2 32010000 		.4byte	.LVL29
 1166 02a6 0200     		.2byte	0x2
 1167 02a8 37       		.byte	0x37
 1168 02a9 9F       		.byte	0x9f
 1169 02aa 32010000 		.4byte	.LVL29
 1170 02ae 44010000 		.4byte	.LVL32
 1171 02b2 0200     		.2byte	0x2
 1172 02b4 38       		.byte	0x38
 1173 02b5 9F       		.byte	0x9f
 1174 02b6 44010000 		.4byte	.LVL32
 1175 02ba 70010000 		.4byte	.LVL34
 1176 02be 0200     		.2byte	0x2
 1177 02c0 36       		.byte	0x36
 1178 02c1 9F       		.byte	0x9f
 1179 02c2 70010000 		.4byte	.LVL34
 1180 02c6 72010000 		.4byte	.LVL35
 1181 02ca 0200     		.2byte	0x2
 1182 02cc 37       		.byte	0x37
 1183 02cd 9F       		.byte	0x9f
 1184 02ce 72010000 		.4byte	.LVL35
 1185 02d2 84010000 		.4byte	.LVL38
 1186 02d6 0200     		.2byte	0x2
 1187 02d8 38       		.byte	0x38
 1188 02d9 9F       		.byte	0x9f
 1189 02da 84010000 		.4byte	.LVL38
 1190 02de AE010000 		.4byte	.LVL40
 1191 02e2 0200     		.2byte	0x2
 1192 02e4 36       		.byte	0x36
 1193 02e5 9F       		.byte	0x9f
 1194 02e6 AE010000 		.4byte	.LVL40
 1195 02ea B2010000 		.4byte	.LVL41
 1196 02ee 0200     		.2byte	0x2
 1197 02f0 37       		.byte	0x37
 1198 02f1 9F       		.byte	0x9f
 1199 02f2 B2010000 		.4byte	.LVL41
 1200 02f6 C4010000 		.4byte	.LVL44
 1201 02fa 0200     		.2byte	0x2
 1202 02fc 38       		.byte	0x38
 1203 02fd 9F       		.byte	0x9f
 1204 02fe C4010000 		.4byte	.LVL44
 1205 0302 F0010000 		.4byte	.LVL46
 1206 0306 0200     		.2byte	0x2
 1207 0308 36       		.byte	0x36
 1208 0309 9F       		.byte	0x9f
 1209 030a F0010000 		.4byte	.LVL46
 1210 030e F4010000 		.4byte	.LVL47
 1211 0312 0200     		.2byte	0x2
ARM GAS  C:\Users\DNIEL~1\AppData\Local\Temp\ccIeTsuP.s 			page 23


 1212 0314 37       		.byte	0x37
 1213 0315 9F       		.byte	0x9f
 1214 0316 F4010000 		.4byte	.LVL47
 1215 031a 06020000 		.4byte	.LVL50
 1216 031e 0200     		.2byte	0x2
 1217 0320 38       		.byte	0x38
 1218 0321 9F       		.byte	0x9f
 1219 0322 06020000 		.4byte	.LVL50
 1220 0326 1C020000 		.4byte	.LVL52
 1221 032a 0200     		.2byte	0x2
 1222 032c 31       		.byte	0x31
 1223 032d 9F       		.byte	0x9f
 1224 032e 1C020000 		.4byte	.LVL52
 1225 0332 1E020000 		.4byte	.LVL53
 1226 0336 0200     		.2byte	0x2
 1227 0338 32       		.byte	0x32
 1228 0339 9F       		.byte	0x9f
 1229 033a 1E020000 		.4byte	.LVL53
 1230 033e 20020000 		.4byte	.LVL54
 1231 0342 0200     		.2byte	0x2
 1232 0344 33       		.byte	0x33
 1233 0345 9F       		.byte	0x9f
 1234 0346 20020000 		.4byte	.LVL54
 1235 034a 24020000 		.4byte	.LVL55
 1236 034e 0200     		.2byte	0x2
 1237 0350 34       		.byte	0x34
 1238 0351 9F       		.byte	0x9f
 1239 0352 24020000 		.4byte	.LVL55
 1240 0356 28020000 		.4byte	.LVL56
 1241 035a 0200     		.2byte	0x2
 1242 035c 35       		.byte	0x35
 1243 035d 9F       		.byte	0x9f
 1244 035e 28020000 		.4byte	.LVL56
 1245 0362 2C020000 		.4byte	.LVL57
 1246 0366 0200     		.2byte	0x2
 1247 0368 36       		.byte	0x36
 1248 0369 9F       		.byte	0x9f
 1249 036a 2C020000 		.4byte	.LVL57
 1250 036e 30020000 		.4byte	.LVL58
 1251 0372 0200     		.2byte	0x2
 1252 0374 37       		.byte	0x37
 1253 0375 9F       		.byte	0x9f
 1254 0376 30020000 		.4byte	.LVL58
 1255 037a 7C020000 		.4byte	.LFE120
 1256 037e 0200     		.2byte	0x2
 1257 0380 38       		.byte	0x38
 1258 0381 9F       		.byte	0x9f
 1259 0382 00000000 		.4byte	0x0
 1260 0386 00000000 		.4byte	0x0
 1261              	.LLST7:
 1262 038a 70000000 		.4byte	.LVL11
 1263 038e 72000000 		.4byte	.LVL12
 1264 0392 0100     		.2byte	0x1
 1265 0394 53       		.byte	0x53
 1266 0395 BC000000 		.4byte	.LVL18
 1267 0399 C0000000 		.4byte	.LVL19
 1268 039d 0100     		.2byte	0x1
ARM GAS  C:\Users\DNIEL~1\AppData\Local\Temp\ccIeTsuP.s 			page 24


 1269 039f 53       		.byte	0x53
 1270 03a0 FA000000 		.4byte	.LVL24
 1271 03a4 FE000000 		.4byte	.LVL25
 1272 03a8 0100     		.2byte	0x1
 1273 03aa 53       		.byte	0x53
 1274 03ab 38010000 		.4byte	.LVL30
 1275 03af 3C010000 		.4byte	.LVL31
 1276 03b3 0100     		.2byte	0x1
 1277 03b5 53       		.byte	0x53
 1278 03b6 78010000 		.4byte	.LVL36
 1279 03ba 7C010000 		.4byte	.LVL37
 1280 03be 0100     		.2byte	0x1
 1281 03c0 53       		.byte	0x53
 1282 03c1 B8010000 		.4byte	.LVL42
 1283 03c5 C0010000 		.4byte	.LVL43
 1284 03c9 0100     		.2byte	0x1
 1285 03cb 53       		.byte	0x53
 1286 03cc FA010000 		.4byte	.LVL48
 1287 03d0 02020000 		.4byte	.LVL49
 1288 03d4 0100     		.2byte	0x1
 1289 03d6 53       		.byte	0x53
 1290 03d7 00000000 		.4byte	0x0
 1291 03db 00000000 		.4byte	0x0
 1292              	.LLST8:
 1293 03df 8A000000 		.4byte	.LVL14
 1294 03e3 A4000000 		.4byte	.LVL15
 1295 03e7 0100     		.2byte	0x1
 1296 03e9 53       		.byte	0x53
 1297 03ea C8000000 		.4byte	.LVL20
 1298 03ee E2000000 		.4byte	.LVL21
 1299 03f2 0100     		.2byte	0x1
 1300 03f4 53       		.byte	0x53
 1301 03f5 06010000 		.4byte	.LVL26
 1302 03f9 20010000 		.4byte	.LVL27
 1303 03fd 0100     		.2byte	0x1
 1304 03ff 53       		.byte	0x53
 1305 0400 44010000 		.4byte	.LVL32
 1306 0404 60010000 		.4byte	.LVL33
 1307 0408 0100     		.2byte	0x1
 1308 040a 53       		.byte	0x53
 1309 040b 84010000 		.4byte	.LVL38
 1310 040f A0010000 		.4byte	.LVL39
 1311 0413 0100     		.2byte	0x1
 1312 0415 53       		.byte	0x53
 1313 0416 C4010000 		.4byte	.LVL44
 1314 041a D8010000 		.4byte	.LVL45
 1315 041e 0100     		.2byte	0x1
 1316 0420 53       		.byte	0x53
 1317 0421 06020000 		.4byte	.LVL50
 1318 0425 08020000 		.4byte	.LVL51
 1319 0429 0100     		.2byte	0x1
 1320 042b 53       		.byte	0x53
 1321 042c 00000000 		.4byte	0x0
 1322 0430 00000000 		.4byte	0x0
 1323              	.LLST9:
 1324 0434 36020000 		.4byte	.LVL60
 1325 0438 40020000 		.4byte	.LVL61
ARM GAS  C:\Users\DNIEL~1\AppData\Local\Temp\ccIeTsuP.s 			page 25


 1326 043c 0100     		.2byte	0x1
 1327 043e 53       		.byte	0x53
 1328 043f 4A020000 		.4byte	.LVL64
 1329 0443 4C020000 		.4byte	.LVL65
 1330 0447 0100     		.2byte	0x1
 1331 0449 53       		.byte	0x53
 1332 044a 00000000 		.4byte	0x0
 1333 044e 00000000 		.4byte	0x0
 1334              	.LLST10:
 1335 0452 0E000000 		.4byte	.LVL3
 1336 0456 10000000 		.4byte	.LVL4
 1337 045a 0100     		.2byte	0x1
 1338 045c 53       		.byte	0x53
 1339 045d 44020000 		.4byte	.LVL62
 1340 0461 46020000 		.4byte	.LVL63
 1341 0465 0100     		.2byte	0x1
 1342 0467 53       		.byte	0x53
 1343 0468 52020000 		.4byte	.LVL66
 1344 046c 7C020000 		.4byte	.LFE120
 1345 0470 0100     		.2byte	0x1
 1346 0472 53       		.byte	0x53
 1347 0473 00000000 		.4byte	0x0
 1348 0477 00000000 		.4byte	0x0
 1349              	.LLST11:
 1350 047b 00000000 		.4byte	.LVL67
 1351 047f 06000000 		.4byte	.LVL68
 1352 0483 0100     		.2byte	0x1
 1353 0485 50       		.byte	0x50
 1354 0486 00000000 		.4byte	0x0
 1355 048a 00000000 		.4byte	0x0
 1356              	.LLST12:
 1357 048e 00000000 		.4byte	.LVL69
 1358 0492 06000000 		.4byte	.LVL70
 1359 0496 0100     		.2byte	0x1
 1360 0498 50       		.byte	0x50
 1361 0499 00000000 		.4byte	0x0
 1362 049d 00000000 		.4byte	0x0
 1363              	.LLST13:
 1364 04a1 00000000 		.4byte	.LFB124
 1365 04a5 02000000 		.4byte	.LCFI5
 1366 04a9 0200     		.2byte	0x2
 1367 04ab 7D       		.byte	0x7d
 1368 04ac 00       		.sleb128 0
 1369 04ad 02000000 		.4byte	.LCFI5
 1370 04b1 E8000000 		.4byte	.LFE124
 1371 04b5 0200     		.2byte	0x2
 1372 04b7 7D       		.byte	0x7d
 1373 04b8 10       		.sleb128 16
 1374 04b9 00000000 		.4byte	0x0
 1375 04bd 00000000 		.4byte	0x0
 1376              	.LLST14:
 1377 04c1 00000000 		.4byte	.LVL71
 1378 04c5 0D000000 		.4byte	.LVL73-1
 1379 04c9 0100     		.2byte	0x1
 1380 04cb 50       		.byte	0x50
 1381 04cc 0D000000 		.4byte	.LVL73-1
 1382 04d0 E8000000 		.4byte	.LFE124
ARM GAS  C:\Users\DNIEL~1\AppData\Local\Temp\ccIeTsuP.s 			page 26


 1383 04d4 0100     		.2byte	0x1
 1384 04d6 54       		.byte	0x54
 1385 04d7 00000000 		.4byte	0x0
 1386 04db 00000000 		.4byte	0x0
 1387              	.LLST15:
 1388 04df 00000000 		.4byte	.LVL71
 1389 04e3 04000000 		.4byte	.LVL72
 1390 04e7 0100     		.2byte	0x1
 1391 04e9 51       		.byte	0x51
 1392 04ea 00000000 		.4byte	0x0
 1393 04ee 00000000 		.4byte	0x0
 1394              	.LLST16:
 1395 04f2 00000000 		.4byte	.LVL71
 1396 04f6 0D000000 		.4byte	.LVL73-1
 1397 04fa 0100     		.2byte	0x1
 1398 04fc 52       		.byte	0x52
 1399 04fd 00000000 		.4byte	0x0
 1400 0501 00000000 		.4byte	0x0
 1401              	.LLST17:
 1402 0505 24000000 		.4byte	.LVL74
 1403 0509 30000000 		.4byte	.LVL75
 1404 050d 0200     		.2byte	0x2
 1405 050f 30       		.byte	0x30
 1406 0510 9F       		.byte	0x9f
 1407 0511 30000000 		.4byte	.LVL75
 1408 0515 3C000000 		.4byte	.LVL76
 1409 0519 0200     		.2byte	0x2
 1410 051b 31       		.byte	0x31
 1411 051c 9F       		.byte	0x9f
 1412 051d 3C000000 		.4byte	.LVL76
 1413 0521 48000000 		.4byte	.LVL77
 1414 0525 0200     		.2byte	0x2
 1415 0527 32       		.byte	0x32
 1416 0528 9F       		.byte	0x9f
 1417 0529 48000000 		.4byte	.LVL77
 1418 052d 54000000 		.4byte	.LVL78
 1419 0531 0200     		.2byte	0x2
 1420 0533 33       		.byte	0x33
 1421 0534 9F       		.byte	0x9f
 1422 0535 54000000 		.4byte	.LVL78
 1423 0539 60000000 		.4byte	.LVL79
 1424 053d 0200     		.2byte	0x2
 1425 053f 34       		.byte	0x34
 1426 0540 9F       		.byte	0x9f
 1427 0541 60000000 		.4byte	.LVL79
 1428 0545 6C000000 		.4byte	.LVL80
 1429 0549 0200     		.2byte	0x2
 1430 054b 35       		.byte	0x35
 1431 054c 9F       		.byte	0x9f
 1432 054d 6C000000 		.4byte	.LVL80
 1433 0551 78000000 		.4byte	.LVL81
 1434 0555 0200     		.2byte	0x2
 1435 0557 36       		.byte	0x36
 1436 0558 9F       		.byte	0x9f
 1437 0559 78000000 		.4byte	.LVL81
 1438 055d 84000000 		.4byte	.LVL82
 1439 0561 0200     		.2byte	0x2
ARM GAS  C:\Users\DNIEL~1\AppData\Local\Temp\ccIeTsuP.s 			page 27


 1440 0563 37       		.byte	0x37
 1441 0564 9F       		.byte	0x9f
 1442 0565 84000000 		.4byte	.LVL82
 1443 0569 90000000 		.4byte	.LVL83
 1444 056d 0200     		.2byte	0x2
 1445 056f 31       		.byte	0x31
 1446 0570 9F       		.byte	0x9f
 1447 0571 90000000 		.4byte	.LVL83
 1448 0575 98000000 		.4byte	.LVL84
 1449 0579 0200     		.2byte	0x2
 1450 057b 32       		.byte	0x32
 1451 057c 9F       		.byte	0x9f
 1452 057d 00000000 		.4byte	0x0
 1453 0581 00000000 		.4byte	0x0
 1454              		.file 3 "c:\\program files (x86)\\codesourcery\\sourcery g++ lite\\bin\\../lib/gcc/arm-none-eabi/4
 1455              		.file 4 "c:\\program files (x86)\\codesourcery\\sourcery g++ lite\\bin\\../lib/gcc/arm-none-eabi/4
 1456              		.file 5 "../../../ChibiOS/os/ports/GCC/ARMCMx/chtypes.h"
 1457              		.file 6 "../../../ChibiOS/os/kernel/include/chlists.h"
 1458              		.file 7 "../../../ChibiOS/os/kernel/include/chthreads.h"
 1459              		.file 8 "../../../ChibiOS/os/ports/GCC/ARMCMx/chcore_v7m.h"
 1460              		.file 9 "../../../ChibiOS/os/kernel/include/chmtx.h"
 1461              		.file 10 "../../../ChibiOS/os/kernel/include/chstreams.h"
 1462              		.file 11 "../../../ChibiOS/os/hal/platforms/STM32F4xx/stm32f4xx.h"
 1463              		.file 12 "../../../ChibiOS/os/hal/platforms/STM32F4xx/stm32_dma.h"
 1464              		.file 13 "../../../ChibiOS/os/hal/include/io_channel.h"
 1465              		.file 14 "../../../ChibiOS/os/hal/include/adc.h"
 1466              		.file 15 "../../../ChibiOS/os/hal/platforms/STM32F4xx/adc_lld.h"
 1467              		.file 16 "include/meas.h"
 1468              		.file 17 "c:\\program files (x86)\\codesourcery\\sourcery g++ lite\\bin\\../lib/gcc/arm-none-eabi/
 1469              		.file 18 "<built-in>"
 1470              		.file 19 "../../../ChibiOS/os/ports/common/ARMCMx/CMSIS/include/core_cm4.h"
 1471              		.section	.debug_info
 1472 0000 A40E0000 		.4byte	0xea4
 1473 0004 0200     		.2byte	0x2
 1474 0006 00000000 		.4byte	.Ldebug_abbrev0
 1475 000a 04       		.byte	0x4
 1476 000b 01       		.uleb128 0x1
 1477 000c B9020000 		.4byte	.LASF170
 1478 0010 01       		.byte	0x1
 1479 0011 3D030000 		.4byte	.LASF171
 1480 0015 AC030000 		.4byte	.LASF172
 1481 0019 00000000 		.4byte	0x0
 1482 001d 00000000 		.4byte	0x0
 1483 0021 B0000000 		.4byte	.Ldebug_ranges0+0xb0
 1484 0025 00000000 		.4byte	.Ldebug_line0
 1485 0029 02       		.uleb128 0x2
 1486 002a 04       		.byte	0x4
 1487 002b 05       		.byte	0x5
 1488 002c 696E7400 		.ascii	"int\000"
 1489 0030 03       		.uleb128 0x3
 1490 0031 05000000 		.4byte	.LASF2
 1491 0035 03       		.byte	0x3
 1492 0036 D3       		.byte	0xd3
 1493 0037 3B000000 		.4byte	0x3b
 1494 003b 04       		.uleb128 0x4
 1495 003c 04       		.byte	0x4
 1496 003d 07       		.byte	0x7
ARM GAS  C:\Users\DNIEL~1\AppData\Local\Temp\ccIeTsuP.s 			page 28


 1497 003e FE010000 		.4byte	.LASF0
 1498 0042 04       		.uleb128 0x4
 1499 0043 01       		.byte	0x1
 1500 0044 06       		.byte	0x6
 1501 0045 BE000000 		.4byte	.LASF1
 1502 0049 03       		.uleb128 0x3
 1503 004a 04060000 		.4byte	.LASF3
 1504 004e 04       		.byte	0x4
 1505 004f 2A       		.byte	0x2a
 1506 0050 54000000 		.4byte	0x54
 1507 0054 04       		.uleb128 0x4
 1508 0055 01       		.byte	0x1
 1509 0056 08       		.byte	0x8
 1510 0057 47040000 		.4byte	.LASF4
 1511 005b 03       		.uleb128 0x3
 1512 005c A8000000 		.4byte	.LASF5
 1513 0060 04       		.byte	0x4
 1514 0061 35       		.byte	0x35
 1515 0062 66000000 		.4byte	0x66
 1516 0066 04       		.uleb128 0x4
 1517 0067 02       		.byte	0x2
 1518 0068 05       		.byte	0x5
 1519 0069 74040000 		.4byte	.LASF6
 1520 006d 03       		.uleb128 0x3
 1521 006e 4D010000 		.4byte	.LASF7
 1522 0072 04       		.byte	0x4
 1523 0073 36       		.byte	0x36
 1524 0074 78000000 		.4byte	0x78
 1525 0078 04       		.uleb128 0x4
 1526 0079 02       		.byte	0x2
 1527 007a 07       		.byte	0x7
 1528 007b 72020000 		.4byte	.LASF8
 1529 007f 03       		.uleb128 0x3
 1530 0080 3F040000 		.4byte	.LASF9
 1531 0084 04       		.byte	0x4
 1532 0085 4F       		.byte	0x4f
 1533 0086 8A000000 		.4byte	0x8a
 1534 008a 04       		.uleb128 0x4
 1535 008b 04       		.byte	0x4
 1536 008c 05       		.byte	0x5
 1537 008d 04010000 		.4byte	.LASF10
 1538 0091 03       		.uleb128 0x3
 1539 0092 13050000 		.4byte	.LASF11
 1540 0096 04       		.byte	0x4
 1541 0097 50       		.byte	0x50
 1542 0098 9C000000 		.4byte	0x9c
 1543 009c 04       		.uleb128 0x4
 1544 009d 04       		.byte	0x4
 1545 009e 07       		.byte	0x7
 1546 009f 32050000 		.4byte	.LASF12
 1547 00a3 04       		.uleb128 0x4
 1548 00a4 08       		.byte	0x8
 1549 00a5 05       		.byte	0x5
 1550 00a6 B0000000 		.4byte	.LASF13
 1551 00aa 04       		.uleb128 0x4
 1552 00ab 08       		.byte	0x8
 1553 00ac 07       		.byte	0x7
ARM GAS  C:\Users\DNIEL~1\AppData\Local\Temp\ccIeTsuP.s 			page 29


 1554 00ad 3C000000 		.4byte	.LASF14
 1555 00b1 03       		.uleb128 0x3
 1556 00b2 D2000000 		.4byte	.LASF15
 1557 00b6 05       		.byte	0x5
 1558 00b7 2B       		.byte	0x2b
 1559 00b8 BC000000 		.4byte	0xbc
 1560 00bc 04       		.uleb128 0x4
 1561 00bd 01       		.byte	0x1
 1562 00be 02       		.byte	0x2
 1563 00bf 39040000 		.4byte	.LASF16
 1564 00c3 03       		.uleb128 0x3
 1565 00c4 C5020000 		.4byte	.LASF17
 1566 00c8 05       		.byte	0x5
 1567 00c9 2C       		.byte	0x2c
 1568 00ca 49000000 		.4byte	0x49
 1569 00ce 03       		.uleb128 0x3
 1570 00cf 33010000 		.4byte	.LASF18
 1571 00d3 05       		.byte	0x5
 1572 00d4 2D       		.byte	0x2d
 1573 00d5 49000000 		.4byte	0x49
 1574 00d9 03       		.uleb128 0x3
 1575 00da EE030000 		.4byte	.LASF19
 1576 00de 05       		.byte	0x5
 1577 00df 2E       		.byte	0x2e
 1578 00e0 49000000 		.4byte	0x49
 1579 00e4 03       		.uleb128 0x3
 1580 00e5 28050000 		.4byte	.LASF20
 1581 00e9 05       		.byte	0x5
 1582 00ea 2F       		.byte	0x2f
 1583 00eb 49000000 		.4byte	0x49
 1584 00ef 03       		.uleb128 0x3
 1585 00f0 21040000 		.4byte	.LASF21
 1586 00f4 05       		.byte	0x5
 1587 00f5 30       		.byte	0x30
 1588 00f6 91000000 		.4byte	0x91
 1589 00fa 03       		.uleb128 0x3
 1590 00fb 9F020000 		.4byte	.LASF22
 1591 00ff 05       		.byte	0x5
 1592 0100 31       		.byte	0x31
 1593 0101 7F000000 		.4byte	0x7f
 1594 0105 03       		.uleb128 0x3
 1595 0106 E6020000 		.4byte	.LASF23
 1596 010a 05       		.byte	0x5
 1597 010b 33       		.byte	0x33
 1598 010c 91000000 		.4byte	0x91
 1599 0110 03       		.uleb128 0x3
 1600 0111 87050000 		.4byte	.LASF24
 1601 0115 05       		.byte	0x5
 1602 0116 35       		.byte	0x35
 1603 0117 91000000 		.4byte	0x91
 1604 011b 03       		.uleb128 0x3
 1605 011c E4040000 		.4byte	.LASF25
 1606 0120 06       		.byte	0x6
 1607 0121 2A       		.byte	0x2a
 1608 0122 26010000 		.4byte	0x126
 1609 0126 05       		.uleb128 0x5
 1610 0127 E4040000 		.4byte	.LASF25
ARM GAS  C:\Users\DNIEL~1\AppData\Local\Temp\ccIeTsuP.s 			page 30


 1611 012b 48       		.byte	0x48
 1612 012c 07       		.byte	0x7
 1613 012d 5E       		.byte	0x5e
 1614 012e 4B020000 		.4byte	0x24b
 1615 0132 06       		.uleb128 0x6
 1616 0133 A0040000 		.4byte	.LASF26
 1617 0137 07       		.byte	0x7
 1618 0138 5F       		.byte	0x5f
 1619 0139 70020000 		.4byte	0x270
 1620 013d 02       		.byte	0x2
 1621 013e 23       		.byte	0x23
 1622 013f 00       		.uleb128 0x0
 1623 0140 06       		.uleb128 0x6
 1624 0141 01040000 		.4byte	.LASF27
 1625 0145 07       		.byte	0x7
 1626 0146 61       		.byte	0x61
 1627 0147 70020000 		.4byte	0x270
 1628 014b 02       		.byte	0x2
 1629 014c 23       		.byte	0x23
 1630 014d 04       		.uleb128 0x4
 1631 014e 06       		.uleb128 0x6
 1632 014f 96000000 		.4byte	.LASF28
 1633 0153 07       		.byte	0x7
 1634 0154 63       		.byte	0x63
 1635 0155 EF000000 		.4byte	0xef
 1636 0159 02       		.byte	0x2
 1637 015a 23       		.byte	0x23
 1638 015b 08       		.uleb128 0x8
 1639 015c 06       		.uleb128 0x6
 1640 015d 8D060000 		.4byte	.LASF29
 1641 0161 07       		.byte	0x7
 1642 0162 64       		.byte	0x64
 1643 0163 3E030000 		.4byte	0x33e
 1644 0167 02       		.byte	0x2
 1645 0168 23       		.byte	0x23
 1646 0169 0C       		.uleb128 0xc
 1647 016a 06       		.uleb128 0x6
 1648 016b 69010000 		.4byte	.LASF30
 1649 016f 07       		.byte	0x7
 1650 0170 66       		.byte	0x66
 1651 0171 70020000 		.4byte	0x270
 1652 0175 02       		.byte	0x2
 1653 0176 23       		.byte	0x23
 1654 0177 10       		.uleb128 0x10
 1655 0178 06       		.uleb128 0x6
 1656 0179 75030000 		.4byte	.LASF31
 1657 017d 07       		.byte	0x7
 1658 017e 67       		.byte	0x67
 1659 017f 70020000 		.4byte	0x270
 1660 0183 02       		.byte	0x2
 1661 0184 23       		.byte	0x23
 1662 0185 14       		.uleb128 0x14
 1663 0186 06       		.uleb128 0x6
 1664 0187 E4050000 		.4byte	.LASF32
 1665 018b 07       		.byte	0x7
 1666 018c 6E       		.byte	0x6e
 1667 018d E8030000 		.4byte	0x3e8
ARM GAS  C:\Users\DNIEL~1\AppData\Local\Temp\ccIeTsuP.s 			page 31


 1668 0191 02       		.byte	0x2
 1669 0192 23       		.byte	0x23
 1670 0193 18       		.uleb128 0x18
 1671 0194 06       		.uleb128 0x6
 1672 0195 7E040000 		.4byte	.LASF33
 1673 0199 07       		.byte	0x7
 1674 019a 79       		.byte	0x79
 1675 019b CE000000 		.4byte	0xce
 1676 019f 02       		.byte	0x2
 1677 01a0 23       		.byte	0x23
 1678 01a1 1C       		.uleb128 0x1c
 1679 01a2 06       		.uleb128 0x6
 1680 01a3 BF040000 		.4byte	.LASF34
 1681 01a7 07       		.byte	0x7
 1682 01a8 7D       		.byte	0x7d
 1683 01a9 C3000000 		.4byte	0xc3
 1684 01ad 02       		.byte	0x2
 1685 01ae 23       		.byte	0x23
 1686 01af 1D       		.uleb128 0x1d
 1687 01b0 06       		.uleb128 0x6
 1688 01b1 EB050000 		.4byte	.LASF35
 1689 01b5 07       		.byte	0x7
 1690 01b6 82       		.byte	0x82
 1691 01b7 D9000000 		.4byte	0xd9
 1692 01bb 02       		.byte	0x2
 1693 01bc 23       		.byte	0x23
 1694 01bd 1E       		.uleb128 0x1e
 1695 01be 06       		.uleb128 0x6
 1696 01bf 86040000 		.4byte	.LASF36
 1697 01c3 07       		.byte	0x7
 1698 01c4 88       		.byte	0x88
 1699 01c5 E4000000 		.4byte	0xe4
 1700 01c9 02       		.byte	0x2
 1701 01ca 23       		.byte	0x23
 1702 01cb 1F       		.uleb128 0x1f
 1703 01cc 06       		.uleb128 0x6
 1704 01cd 56010000 		.4byte	.LASF37
 1705 01d1 07       		.byte	0x7
 1706 01d2 8F       		.byte	0x8f
 1707 01d3 66030000 		.4byte	0x366
 1708 01d7 02       		.byte	0x2
 1709 01d8 23       		.byte	0x23
 1710 01d9 20       		.uleb128 0x20
 1711 01da 07       		.uleb128 0x7
 1712 01db 705F7500 		.ascii	"p_u\000"
 1713 01df 07       		.byte	0x7
 1714 01e0 B4       		.byte	0xb4
 1715 01e1 B3030000 		.4byte	0x3b3
 1716 01e5 02       		.byte	0x2
 1717 01e6 23       		.byte	0x23
 1718 01e7 24       		.uleb128 0x24
 1719 01e8 06       		.uleb128 0x6
 1720 01e9 93060000 		.4byte	.LASF38
 1721 01ed 07       		.byte	0x7
 1722 01ee B9       		.byte	0xb9
 1723 01ef 98020000 		.4byte	0x298
 1724 01f3 02       		.byte	0x2
ARM GAS  C:\Users\DNIEL~1\AppData\Local\Temp\ccIeTsuP.s 			page 32


 1725 01f4 23       		.byte	0x23
 1726 01f5 28       		.uleb128 0x28
 1727 01f6 06       		.uleb128 0x6
 1728 01f7 33020000 		.4byte	.LASF39
 1729 01fb 07       		.byte	0x7
 1730 01fc BF       		.byte	0xbf
 1731 01fd 76020000 		.4byte	0x276
 1732 0201 02       		.byte	0x2
 1733 0202 23       		.byte	0x23
 1734 0203 2C       		.uleb128 0x2c
 1735 0204 06       		.uleb128 0x6
 1736 0205 6B060000 		.4byte	.LASF40
 1737 0209 07       		.byte	0x7
 1738 020a C3       		.byte	0xc3
 1739 020b FA000000 		.4byte	0xfa
 1740 020f 02       		.byte	0x2
 1741 0210 23       		.byte	0x23
 1742 0211 34       		.uleb128 0x34
 1743 0212 06       		.uleb128 0x6
 1744 0213 FD040000 		.4byte	.LASF41
 1745 0217 07       		.byte	0x7
 1746 0218 C9       		.byte	0xc9
 1747 0219 05010000 		.4byte	0x105
 1748 021d 02       		.byte	0x2
 1749 021e 23       		.byte	0x23
 1750 021f 38       		.uleb128 0x38
 1751 0220 06       		.uleb128 0x6
 1752 0221 6A040000 		.4byte	.LASF42
 1753 0225 07       		.byte	0x7
 1754 0226 D0       		.byte	0xd0
 1755 0227 FA030000 		.4byte	0x3fa
 1756 022b 02       		.byte	0x2
 1757 022c 23       		.byte	0x23
 1758 022d 3C       		.uleb128 0x3c
 1759 022e 06       		.uleb128 0x6
 1760 022f 91050000 		.4byte	.LASF43
 1761 0233 07       		.byte	0x7
 1762 0234 D4       		.byte	0xd4
 1763 0235 EF000000 		.4byte	0xef
 1764 0239 02       		.byte	0x2
 1765 023a 23       		.byte	0x23
 1766 023b 40       		.uleb128 0x40
 1767 023c 06       		.uleb128 0x6
 1768 023d CA000000 		.4byte	.LASF44
 1769 0241 07       		.byte	0x7
 1770 0242 DA       		.byte	0xda
 1771 0243 AE020000 		.4byte	0x2ae
 1772 0247 02       		.byte	0x2
 1773 0248 23       		.byte	0x23
 1774 0249 44       		.uleb128 0x44
 1775 024a 00       		.byte	0x0
 1776 024b 08       		.uleb128 0x8
 1777 024c 08       		.byte	0x8
 1778 024d 06       		.byte	0x6
 1779 024e 61       		.byte	0x61
 1780 024f 70020000 		.4byte	0x270
 1781 0253 06       		.uleb128 0x6
ARM GAS  C:\Users\DNIEL~1\AppData\Local\Temp\ccIeTsuP.s 			page 33


 1782 0254 A0040000 		.4byte	.LASF26
 1783 0258 06       		.byte	0x6
 1784 0259 62       		.byte	0x62
 1785 025a 70020000 		.4byte	0x270
 1786 025e 02       		.byte	0x2
 1787 025f 23       		.byte	0x23
 1788 0260 00       		.uleb128 0x0
 1789 0261 06       		.uleb128 0x6
 1790 0262 01040000 		.4byte	.LASF27
 1791 0266 06       		.byte	0x6
 1792 0267 64       		.byte	0x64
 1793 0268 70020000 		.4byte	0x270
 1794 026c 02       		.byte	0x2
 1795 026d 23       		.byte	0x23
 1796 026e 04       		.uleb128 0x4
 1797 026f 00       		.byte	0x0
 1798 0270 09       		.uleb128 0x9
 1799 0271 04       		.byte	0x4
 1800 0272 1B010000 		.4byte	0x11b
 1801 0276 03       		.uleb128 0x3
 1802 0277 7D030000 		.4byte	.LASF45
 1803 027b 06       		.byte	0x6
 1804 027c 66       		.byte	0x66
 1805 027d 4B020000 		.4byte	0x24b
 1806 0281 08       		.uleb128 0x8
 1807 0282 04       		.byte	0x4
 1808 0283 06       		.byte	0x6
 1809 0284 6B       		.byte	0x6b
 1810 0285 98020000 		.4byte	0x298
 1811 0289 06       		.uleb128 0x6
 1812 028a A0040000 		.4byte	.LASF26
 1813 028e 06       		.byte	0x6
 1814 028f 6D       		.byte	0x6d
 1815 0290 70020000 		.4byte	0x270
 1816 0294 02       		.byte	0x2
 1817 0295 23       		.byte	0x23
 1818 0296 00       		.uleb128 0x0
 1819 0297 00       		.byte	0x0
 1820 0298 03       		.uleb128 0x3
 1821 0299 DA020000 		.4byte	.LASF46
 1822 029d 06       		.byte	0x6
 1823 029e 70       		.byte	0x70
 1824 029f 81020000 		.4byte	0x281
 1825 02a3 03       		.uleb128 0x3
 1826 02a4 9C010000 		.4byte	.LASF47
 1827 02a8 08       		.byte	0x8
 1828 02a9 E5       		.byte	0xe5
 1829 02aa AE020000 		.4byte	0x2ae
 1830 02ae 0A       		.uleb128 0xa
 1831 02af 04       		.byte	0x4
 1832 02b0 0B       		.uleb128 0xb
 1833 02b1 CE050000 		.4byte	.LASF48
 1834 02b5 24       		.byte	0x24
 1835 02b6 08       		.byte	0x8
 1836 02b7 0C01     		.2byte	0x10c
 1837 02b9 3E030000 		.4byte	0x33e
 1838 02bd 0C       		.uleb128 0xc
ARM GAS  C:\Users\DNIEL~1\AppData\Local\Temp\ccIeTsuP.s 			page 34


 1839 02be 723400   		.ascii	"r4\000"
 1840 02c1 08       		.byte	0x8
 1841 02c2 1F01     		.2byte	0x11f
 1842 02c4 A3020000 		.4byte	0x2a3
 1843 02c8 02       		.byte	0x2
 1844 02c9 23       		.byte	0x23
 1845 02ca 00       		.uleb128 0x0
 1846 02cb 0C       		.uleb128 0xc
 1847 02cc 723500   		.ascii	"r5\000"
 1848 02cf 08       		.byte	0x8
 1849 02d0 2001     		.2byte	0x120
 1850 02d2 A3020000 		.4byte	0x2a3
 1851 02d6 02       		.byte	0x2
 1852 02d7 23       		.byte	0x23
 1853 02d8 04       		.uleb128 0x4
 1854 02d9 0C       		.uleb128 0xc
 1855 02da 723600   		.ascii	"r6\000"
 1856 02dd 08       		.byte	0x8
 1857 02de 2101     		.2byte	0x121
 1858 02e0 A3020000 		.4byte	0x2a3
 1859 02e4 02       		.byte	0x2
 1860 02e5 23       		.byte	0x23
 1861 02e6 08       		.uleb128 0x8
 1862 02e7 0C       		.uleb128 0xc
 1863 02e8 723700   		.ascii	"r7\000"
 1864 02eb 08       		.byte	0x8
 1865 02ec 2201     		.2byte	0x122
 1866 02ee A3020000 		.4byte	0x2a3
 1867 02f2 02       		.byte	0x2
 1868 02f3 23       		.byte	0x23
 1869 02f4 0C       		.uleb128 0xc
 1870 02f5 0C       		.uleb128 0xc
 1871 02f6 723800   		.ascii	"r8\000"
 1872 02f9 08       		.byte	0x8
 1873 02fa 2301     		.2byte	0x123
 1874 02fc A3020000 		.4byte	0x2a3
 1875 0300 02       		.byte	0x2
 1876 0301 23       		.byte	0x23
 1877 0302 10       		.uleb128 0x10
 1878 0303 0C       		.uleb128 0xc
 1879 0304 723900   		.ascii	"r9\000"
 1880 0307 08       		.byte	0x8
 1881 0308 2401     		.2byte	0x124
 1882 030a A3020000 		.4byte	0x2a3
 1883 030e 02       		.byte	0x2
 1884 030f 23       		.byte	0x23
 1885 0310 14       		.uleb128 0x14
 1886 0311 0C       		.uleb128 0xc
 1887 0312 72313000 		.ascii	"r10\000"
 1888 0316 08       		.byte	0x8
 1889 0317 2501     		.2byte	0x125
 1890 0319 A3020000 		.4byte	0x2a3
 1891 031d 02       		.byte	0x2
 1892 031e 23       		.byte	0x23
 1893 031f 18       		.uleb128 0x18
 1894 0320 0C       		.uleb128 0xc
 1895 0321 72313100 		.ascii	"r11\000"
ARM GAS  C:\Users\DNIEL~1\AppData\Local\Temp\ccIeTsuP.s 			page 35


 1896 0325 08       		.byte	0x8
 1897 0326 2601     		.2byte	0x126
 1898 0328 A3020000 		.4byte	0x2a3
 1899 032c 02       		.byte	0x2
 1900 032d 23       		.byte	0x23
 1901 032e 1C       		.uleb128 0x1c
 1902 032f 0C       		.uleb128 0xc
 1903 0330 6C7200   		.ascii	"lr\000"
 1904 0333 08       		.byte	0x8
 1905 0334 2701     		.2byte	0x127
 1906 0336 A3020000 		.4byte	0x2a3
 1907 033a 02       		.byte	0x2
 1908 033b 23       		.byte	0x23
 1909 033c 20       		.uleb128 0x20
 1910 033d 00       		.byte	0x0
 1911 033e 0B       		.uleb128 0xb
 1912 033f C6050000 		.4byte	.LASF49
 1913 0343 04       		.byte	0x4
 1914 0344 08       		.byte	0x8
 1915 0345 3101     		.2byte	0x131
 1916 0347 5B030000 		.4byte	0x35b
 1917 034b 0C       		.uleb128 0xc
 1918 034c 72313300 		.ascii	"r13\000"
 1919 0350 08       		.byte	0x8
 1920 0351 3201     		.2byte	0x132
 1921 0353 5B030000 		.4byte	0x35b
 1922 0357 02       		.byte	0x2
 1923 0358 23       		.byte	0x23
 1924 0359 00       		.uleb128 0x0
 1925 035a 00       		.byte	0x0
 1926 035b 09       		.uleb128 0x9
 1927 035c 04       		.byte	0x4
 1928 035d B0020000 		.4byte	0x2b0
 1929 0361 0D       		.uleb128 0xd
 1930 0362 91000000 		.4byte	0x91
 1931 0366 0D       		.uleb128 0xd
 1932 0367 10010000 		.4byte	0x110
 1933 036b 05       		.uleb128 0x5
 1934 036c 37030000 		.4byte	.LASF50
 1935 0370 10       		.byte	0x10
 1936 0371 09       		.byte	0x9
 1937 0372 2C       		.byte	0x2c
 1938 0373 A2030000 		.4byte	0x3a2
 1939 0377 06       		.uleb128 0x6
 1940 0378 55040000 		.4byte	.LASF51
 1941 037c 09       		.byte	0x9
 1942 037d 2D       		.byte	0x2d
 1943 037e 76020000 		.4byte	0x276
 1944 0382 02       		.byte	0x2
 1945 0383 23       		.byte	0x23
 1946 0384 00       		.uleb128 0x0
 1947 0385 06       		.uleb128 0x6
 1948 0386 85060000 		.4byte	.LASF52
 1949 038a 09       		.byte	0x9
 1950 038b 2F       		.byte	0x2f
 1951 038c 70020000 		.4byte	0x270
 1952 0390 02       		.byte	0x2
ARM GAS  C:\Users\DNIEL~1\AppData\Local\Temp\ccIeTsuP.s 			page 36


 1953 0391 23       		.byte	0x23
 1954 0392 08       		.uleb128 0x8
 1955 0393 06       		.uleb128 0x6
 1956 0394 96030000 		.4byte	.LASF53
 1957 0398 09       		.byte	0x9
 1958 0399 31       		.byte	0x31
 1959 039a A2030000 		.4byte	0x3a2
 1960 039e 02       		.byte	0x2
 1961 039f 23       		.byte	0x23
 1962 03a0 0C       		.uleb128 0xc
 1963 03a1 00       		.byte	0x0
 1964 03a2 09       		.uleb128 0x9
 1965 03a3 04       		.byte	0x4
 1966 03a4 6B030000 		.4byte	0x36b
 1967 03a8 03       		.uleb128 0x3
 1968 03a9 37030000 		.4byte	.LASF50
 1969 03ad 09       		.byte	0x9
 1970 03ae 33       		.byte	0x33
 1971 03af 6B030000 		.4byte	0x36b
 1972 03b3 0E       		.uleb128 0xe
 1973 03b4 04       		.byte	0x4
 1974 03b5 07       		.byte	0x7
 1975 03b6 96       		.byte	0x96
 1976 03b7 E8030000 		.4byte	0x3e8
 1977 03bb 0F       		.uleb128 0xf
 1978 03bc 0C000000 		.4byte	.LASF54
 1979 03c0 07       		.byte	0x7
 1980 03c1 9D       		.byte	0x9d
 1981 03c2 FA000000 		.4byte	0xfa
 1982 03c6 0F       		.uleb128 0xf
 1983 03c7 62000000 		.4byte	.LASF55
 1984 03cb 07       		.byte	0x7
 1985 03cc A4       		.byte	0xa4
 1986 03cd FA000000 		.4byte	0xfa
 1987 03d1 0F       		.uleb128 0xf
 1988 03d2 3F060000 		.4byte	.LASF56
 1989 03d6 07       		.byte	0x7
 1990 03d7 AB       		.byte	0xab
 1991 03d8 AE020000 		.4byte	0x2ae
 1992 03dc 0F       		.uleb128 0xf
 1993 03dd 99040000 		.4byte	.LASF57
 1994 03e1 07       		.byte	0x7
 1995 03e2 B2       		.byte	0xb2
 1996 03e3 05010000 		.4byte	0x105
 1997 03e7 00       		.byte	0x0
 1998 03e8 09       		.uleb128 0x9
 1999 03e9 04       		.byte	0x4
 2000 03ea EE030000 		.4byte	0x3ee
 2001 03ee 10       		.uleb128 0x10
 2002 03ef F3030000 		.4byte	0x3f3
 2003 03f3 04       		.uleb128 0x4
 2004 03f4 01       		.byte	0x1
 2005 03f5 08       		.byte	0x8
 2006 03f6 49050000 		.4byte	.LASF58
 2007 03fa 09       		.uleb128 0x9
 2008 03fb 04       		.byte	0x4
 2009 03fc A8030000 		.4byte	0x3a8
ARM GAS  C:\Users\DNIEL~1\AppData\Local\Temp\ccIeTsuP.s 			page 37


 2010 0400 09       		.uleb128 0x9
 2011 0401 04       		.byte	0x4
 2012 0402 06040000 		.4byte	0x406
 2013 0406 11       		.uleb128 0x11
 2014 0407 01       		.byte	0x1
 2015 0408 FA000000 		.4byte	0xfa
 2016 040c 16040000 		.4byte	0x416
 2017 0410 12       		.uleb128 0x12
 2018 0411 AE020000 		.4byte	0x2ae
 2019 0415 00       		.byte	0x0
 2020 0416 09       		.uleb128 0x9
 2021 0417 04       		.byte	0x4
 2022 0418 49000000 		.4byte	0x49
 2023 041c 05       		.uleb128 0x5
 2024 041d A7040000 		.4byte	.LASF59
 2025 0421 10       		.byte	0x10
 2026 0422 0A       		.byte	0xa
 2027 0423 48       		.byte	0x48
 2028 0424 61040000 		.4byte	0x461
 2029 0428 06       		.uleb128 0x6
 2030 0429 FB020000 		.4byte	.LASF60
 2031 042d 0A       		.byte	0xa
 2032 042e 49       		.byte	0x49
 2033 042f 86040000 		.4byte	0x486
 2034 0433 02       		.byte	0x2
 2035 0434 23       		.byte	0x23
 2036 0435 00       		.uleb128 0x0
 2037 0436 06       		.uleb128 0x6
 2038 0437 44050000 		.4byte	.LASF61
 2039 043b 0A       		.byte	0xa
 2040 043c 49       		.byte	0x49
 2041 043d A6040000 		.4byte	0x4a6
 2042 0441 02       		.byte	0x2
 2043 0442 23       		.byte	0x23
 2044 0443 04       		.uleb128 0x4
 2045 0444 07       		.uleb128 0x7
 2046 0445 70757400 		.ascii	"put\000"
 2047 0449 0A       		.byte	0xa
 2048 044a 49       		.byte	0x49
 2049 044b C1040000 		.4byte	0x4c1
 2050 044f 02       		.byte	0x2
 2051 0450 23       		.byte	0x23
 2052 0451 08       		.uleb128 0x8
 2053 0452 07       		.uleb128 0x7
 2054 0453 67657400 		.ascii	"get\000"
 2055 0457 0A       		.byte	0xa
 2056 0458 49       		.byte	0x49
 2057 0459 00040000 		.4byte	0x400
 2058 045d 02       		.byte	0x2
 2059 045e 23       		.byte	0x23
 2060 045f 0C       		.uleb128 0xc
 2061 0460 00       		.byte	0x0
 2062 0461 11       		.uleb128 0x11
 2063 0462 01       		.byte	0x1
 2064 0463 30000000 		.4byte	0x30
 2065 0467 7B040000 		.4byte	0x47b
 2066 046b 12       		.uleb128 0x12
ARM GAS  C:\Users\DNIEL~1\AppData\Local\Temp\ccIeTsuP.s 			page 38


 2067 046c AE020000 		.4byte	0x2ae
 2068 0470 12       		.uleb128 0x12
 2069 0471 7B040000 		.4byte	0x47b
 2070 0475 12       		.uleb128 0x12
 2071 0476 30000000 		.4byte	0x30
 2072 047a 00       		.byte	0x0
 2073 047b 09       		.uleb128 0x9
 2074 047c 04       		.byte	0x4
 2075 047d 81040000 		.4byte	0x481
 2076 0481 10       		.uleb128 0x10
 2077 0482 49000000 		.4byte	0x49
 2078 0486 09       		.uleb128 0x9
 2079 0487 04       		.byte	0x4
 2080 0488 61040000 		.4byte	0x461
 2081 048c 11       		.uleb128 0x11
 2082 048d 01       		.byte	0x1
 2083 048e 30000000 		.4byte	0x30
 2084 0492 A6040000 		.4byte	0x4a6
 2085 0496 12       		.uleb128 0x12
 2086 0497 AE020000 		.4byte	0x2ae
 2087 049b 12       		.uleb128 0x12
 2088 049c 16040000 		.4byte	0x416
 2089 04a0 12       		.uleb128 0x12
 2090 04a1 30000000 		.4byte	0x30
 2091 04a5 00       		.byte	0x0
 2092 04a6 09       		.uleb128 0x9
 2093 04a7 04       		.byte	0x4
 2094 04a8 8C040000 		.4byte	0x48c
 2095 04ac 11       		.uleb128 0x11
 2096 04ad 01       		.byte	0x1
 2097 04ae FA000000 		.4byte	0xfa
 2098 04b2 C1040000 		.4byte	0x4c1
 2099 04b6 12       		.uleb128 0x12
 2100 04b7 AE020000 		.4byte	0x2ae
 2101 04bb 12       		.uleb128 0x12
 2102 04bc 49000000 		.4byte	0x49
 2103 04c0 00       		.byte	0x0
 2104 04c1 09       		.uleb128 0x9
 2105 04c2 04       		.byte	0x4
 2106 04c3 AC040000 		.4byte	0x4ac
 2107 04c7 08       		.uleb128 0x8
 2108 04c8 04       		.byte	0x4
 2109 04c9 0A       		.byte	0xa
 2110 04ca 51       		.byte	0x51
 2111 04cb DE040000 		.4byte	0x4de
 2112 04cf 07       		.uleb128 0x7
 2113 04d0 766D7400 		.ascii	"vmt\000"
 2114 04d4 0A       		.byte	0xa
 2115 04d5 53       		.byte	0x53
 2116 04d6 DE040000 		.4byte	0x4de
 2117 04da 02       		.byte	0x2
 2118 04db 23       		.byte	0x23
 2119 04dc 00       		.uleb128 0x0
 2120 04dd 00       		.byte	0x0
 2121 04de 09       		.uleb128 0x9
 2122 04df 04       		.byte	0x4
 2123 04e0 E4040000 		.4byte	0x4e4
ARM GAS  C:\Users\DNIEL~1\AppData\Local\Temp\ccIeTsuP.s 			page 39


 2124 04e4 10       		.uleb128 0x10
 2125 04e5 1C040000 		.4byte	0x41c
 2126 04e9 03       		.uleb128 0x3
 2127 04ea E9010000 		.4byte	.LASF62
 2128 04ee 0A       		.byte	0xa
 2129 04ef 55       		.byte	0x55
 2130 04f0 C7040000 		.4byte	0x4c7
 2131 04f4 0D       		.uleb128 0xd
 2132 04f5 7F000000 		.4byte	0x7f
 2133 04f9 13       		.uleb128 0x13
 2134 04fa 50       		.byte	0x50
 2135 04fb 0B       		.byte	0xb
 2136 04fc 0A02     		.2byte	0x20a
 2137 04fe 2D060000 		.4byte	0x62d
 2138 0502 0C       		.uleb128 0xc
 2139 0503 535200   		.ascii	"SR\000"
 2140 0506 0B       		.byte	0xb
 2141 0507 0C02     		.2byte	0x20c
 2142 0509 61030000 		.4byte	0x361
 2143 050d 02       		.byte	0x2
 2144 050e 23       		.byte	0x23
 2145 050f 00       		.uleb128 0x0
 2146 0510 0C       		.uleb128 0xc
 2147 0511 43523100 		.ascii	"CR1\000"
 2148 0515 0B       		.byte	0xb
 2149 0516 0D02     		.2byte	0x20d
 2150 0518 61030000 		.4byte	0x361
 2151 051c 02       		.byte	0x2
 2152 051d 23       		.byte	0x23
 2153 051e 04       		.uleb128 0x4
 2154 051f 0C       		.uleb128 0xc
 2155 0520 43523200 		.ascii	"CR2\000"
 2156 0524 0B       		.byte	0xb
 2157 0525 0E02     		.2byte	0x20e
 2158 0527 61030000 		.4byte	0x361
 2159 052b 02       		.byte	0x2
 2160 052c 23       		.byte	0x23
 2161 052d 08       		.uleb128 0x8
 2162 052e 14       		.uleb128 0x14
 2163 052f 8A030000 		.4byte	.LASF63
 2164 0533 0B       		.byte	0xb
 2165 0534 0F02     		.2byte	0x20f
 2166 0536 61030000 		.4byte	0x361
 2167 053a 02       		.byte	0x2
 2168 053b 23       		.byte	0x23
 2169 053c 0C       		.uleb128 0xc
 2170 053d 14       		.uleb128 0x14
 2171 053e 90030000 		.4byte	.LASF64
 2172 0542 0B       		.byte	0xb
 2173 0543 1002     		.2byte	0x210
 2174 0545 61030000 		.4byte	0x361
 2175 0549 02       		.byte	0x2
 2176 054a 23       		.byte	0x23
 2177 054b 10       		.uleb128 0x10
 2178 054c 14       		.uleb128 0x14
 2179 054d FE050000 		.4byte	.LASF65
 2180 0551 0B       		.byte	0xb
ARM GAS  C:\Users\DNIEL~1\AppData\Local\Temp\ccIeTsuP.s 			page 40


 2181 0552 1102     		.2byte	0x211
 2182 0554 61030000 		.4byte	0x361
 2183 0558 02       		.byte	0x2
 2184 0559 23       		.byte	0x23
 2185 055a 14       		.uleb128 0x14
 2186 055b 14       		.uleb128 0x14
 2187 055c 0B030000 		.4byte	.LASF66
 2188 0560 0B       		.byte	0xb
 2189 0561 1202     		.2byte	0x212
 2190 0563 61030000 		.4byte	0x361
 2191 0567 02       		.byte	0x2
 2192 0568 23       		.byte	0x23
 2193 0569 18       		.uleb128 0x18
 2194 056a 14       		.uleb128 0x14
 2195 056b 11030000 		.4byte	.LASF67
 2196 056f 0B       		.byte	0xb
 2197 0570 1302     		.2byte	0x213
 2198 0572 61030000 		.4byte	0x361
 2199 0576 02       		.byte	0x2
 2200 0577 23       		.byte	0x23
 2201 0578 1C       		.uleb128 0x1c
 2202 0579 14       		.uleb128 0x14
 2203 057a D2040000 		.4byte	.LASF68
 2204 057e 0B       		.byte	0xb
 2205 057f 1402     		.2byte	0x214
 2206 0581 61030000 		.4byte	0x361
 2207 0585 02       		.byte	0x2
 2208 0586 23       		.byte	0x23
 2209 0587 20       		.uleb128 0x20
 2210 0588 0C       		.uleb128 0xc
 2211 0589 48545200 		.ascii	"HTR\000"
 2212 058d 0B       		.byte	0xb
 2213 058e 1502     		.2byte	0x215
 2214 0590 61030000 		.4byte	0x361
 2215 0594 02       		.byte	0x2
 2216 0595 23       		.byte	0x23
 2217 0596 24       		.uleb128 0x24
 2218 0597 0C       		.uleb128 0xc
 2219 0598 4C545200 		.ascii	"LTR\000"
 2220 059c 0B       		.byte	0xb
 2221 059d 1602     		.2byte	0x216
 2222 059f 61030000 		.4byte	0x361
 2223 05a3 02       		.byte	0x2
 2224 05a4 23       		.byte	0x23
 2225 05a5 28       		.uleb128 0x28
 2226 05a6 14       		.uleb128 0x14
 2227 05a7 9D030000 		.4byte	.LASF69
 2228 05ab 0B       		.byte	0xb
 2229 05ac 1702     		.2byte	0x217
 2230 05ae 61030000 		.4byte	0x361
 2231 05b2 02       		.byte	0x2
 2232 05b3 23       		.byte	0x23
 2233 05b4 2C       		.uleb128 0x2c
 2234 05b5 14       		.uleb128 0x14
 2235 05b6 A2030000 		.4byte	.LASF70
 2236 05ba 0B       		.byte	0xb
 2237 05bb 1802     		.2byte	0x218
ARM GAS  C:\Users\DNIEL~1\AppData\Local\Temp\ccIeTsuP.s 			page 41


 2238 05bd 61030000 		.4byte	0x361
 2239 05c1 02       		.byte	0x2
 2240 05c2 23       		.byte	0x23
 2241 05c3 30       		.uleb128 0x30
 2242 05c4 14       		.uleb128 0x14
 2243 05c5 A7030000 		.4byte	.LASF71
 2244 05c9 0B       		.byte	0xb
 2245 05ca 1902     		.2byte	0x219
 2246 05cc 61030000 		.4byte	0x361
 2247 05d0 02       		.byte	0x2
 2248 05d1 23       		.byte	0x23
 2249 05d2 34       		.uleb128 0x34
 2250 05d3 14       		.uleb128 0x14
 2251 05d4 A3000000 		.4byte	.LASF72
 2252 05d8 0B       		.byte	0xb
 2253 05d9 1A02     		.2byte	0x21a
 2254 05db 61030000 		.4byte	0x361
 2255 05df 02       		.byte	0x2
 2256 05e0 23       		.byte	0x23
 2257 05e1 38       		.uleb128 0x38
 2258 05e2 14       		.uleb128 0x14
 2259 05e3 2B060000 		.4byte	.LASF73
 2260 05e7 0B       		.byte	0xb
 2261 05e8 1B02     		.2byte	0x21b
 2262 05ea 61030000 		.4byte	0x361
 2263 05ee 02       		.byte	0x2
 2264 05ef 23       		.byte	0x23
 2265 05f0 3C       		.uleb128 0x3c
 2266 05f1 14       		.uleb128 0x14
 2267 05f2 30060000 		.4byte	.LASF74
 2268 05f6 0B       		.byte	0xb
 2269 05f7 1C02     		.2byte	0x21c
 2270 05f9 61030000 		.4byte	0x361
 2271 05fd 02       		.byte	0x2
 2272 05fe 23       		.byte	0x23
 2273 05ff 40       		.uleb128 0x40
 2274 0600 14       		.uleb128 0x14
 2275 0601 35060000 		.4byte	.LASF75
 2276 0605 0B       		.byte	0xb
 2277 0606 1D02     		.2byte	0x21d
 2278 0608 61030000 		.4byte	0x361
 2279 060c 02       		.byte	0x2
 2280 060d 23       		.byte	0x23
 2281 060e 44       		.uleb128 0x44
 2282 060f 14       		.uleb128 0x14
 2283 0610 3A060000 		.4byte	.LASF76
 2284 0614 0B       		.byte	0xb
 2285 0615 1E02     		.2byte	0x21e
 2286 0617 61030000 		.4byte	0x361
 2287 061b 02       		.byte	0x2
 2288 061c 23       		.byte	0x23
 2289 061d 48       		.uleb128 0x48
 2290 061e 0C       		.uleb128 0xc
 2291 061f 445200   		.ascii	"DR\000"
 2292 0622 0B       		.byte	0xb
 2293 0623 1F02     		.2byte	0x21f
 2294 0625 61030000 		.4byte	0x361
ARM GAS  C:\Users\DNIEL~1\AppData\Local\Temp\ccIeTsuP.s 			page 42


 2295 0629 02       		.byte	0x2
 2296 062a 23       		.byte	0x23
 2297 062b 4C       		.uleb128 0x4c
 2298 062c 00       		.byte	0x0
 2299 062d 15       		.uleb128 0x15
 2300 062e 5D010000 		.4byte	.LASF77
 2301 0632 0B       		.byte	0xb
 2302 0633 2002     		.2byte	0x220
 2303 0635 F9040000 		.4byte	0x4f9
 2304 0639 13       		.uleb128 0x13
 2305 063a 18       		.byte	0x18
 2306 063b 0B       		.byte	0xb
 2307 063c B102     		.2byte	0x2b1
 2308 063e 9C060000 		.4byte	0x69c
 2309 0642 0C       		.uleb128 0xc
 2310 0643 435200   		.ascii	"CR\000"
 2311 0646 0B       		.byte	0xb
 2312 0647 B302     		.2byte	0x2b3
 2313 0649 61030000 		.4byte	0x361
 2314 064d 02       		.byte	0x2
 2315 064e 23       		.byte	0x23
 2316 064f 00       		.uleb128 0x0
 2317 0650 14       		.uleb128 0x14
 2318 0651 9C050000 		.4byte	.LASF78
 2319 0655 0B       		.byte	0xb
 2320 0656 B402     		.2byte	0x2b4
 2321 0658 61030000 		.4byte	0x361
 2322 065c 02       		.byte	0x2
 2323 065d 23       		.byte	0x23
 2324 065e 04       		.uleb128 0x4
 2325 065f 0C       		.uleb128 0xc
 2326 0660 50415200 		.ascii	"PAR\000"
 2327 0664 0B       		.byte	0xb
 2328 0665 B502     		.2byte	0x2b5
 2329 0667 61030000 		.4byte	0x361
 2330 066b 02       		.byte	0x2
 2331 066c 23       		.byte	0x23
 2332 066d 08       		.uleb128 0x8
 2333 066e 14       		.uleb128 0x14
 2334 066f 00000000 		.4byte	.LASF79
 2335 0673 0B       		.byte	0xb
 2336 0674 B602     		.2byte	0x2b6
 2337 0676 61030000 		.4byte	0x361
 2338 067a 02       		.byte	0x2
 2339 067b 23       		.byte	0x23
 2340 067c 0C       		.uleb128 0xc
 2341 067d 14       		.uleb128 0x14
 2342 067e D5050000 		.4byte	.LASF80
 2343 0682 0B       		.byte	0xb
 2344 0683 B702     		.2byte	0x2b7
 2345 0685 61030000 		.4byte	0x361
 2346 0689 02       		.byte	0x2
 2347 068a 23       		.byte	0x23
 2348 068b 10       		.uleb128 0x10
 2349 068c 0C       		.uleb128 0xc
 2350 068d 46435200 		.ascii	"FCR\000"
 2351 0691 0B       		.byte	0xb
ARM GAS  C:\Users\DNIEL~1\AppData\Local\Temp\ccIeTsuP.s 			page 43


 2352 0692 B802     		.2byte	0x2b8
 2353 0694 61030000 		.4byte	0x361
 2354 0698 02       		.byte	0x2
 2355 0699 23       		.byte	0x23
 2356 069a 14       		.uleb128 0x14
 2357 069b 00       		.byte	0x0
 2358 069c 15       		.uleb128 0x15
 2359 069d A1050000 		.4byte	.LASF81
 2360 06a1 0B       		.byte	0xb
 2361 06a2 B902     		.2byte	0x2b9
 2362 06a4 39060000 		.4byte	0x639
 2363 06a8 08       		.uleb128 0x8
 2364 06a9 0C       		.byte	0xc
 2365 06aa 0C       		.byte	0xc
 2366 06ab DA       		.byte	0xda
 2367 06ac F7060000 		.4byte	0x6f7
 2368 06b0 06       		.uleb128 0x6
 2369 06b1 35000000 		.4byte	.LASF82
 2370 06b5 0C       		.byte	0xc
 2371 06b6 DB       		.byte	0xdb
 2372 06b7 F7060000 		.4byte	0x6f7
 2373 06bb 02       		.byte	0x2
 2374 06bc 23       		.byte	0x23
 2375 06bd 00       		.uleb128 0x0
 2376 06be 06       		.uleb128 0x6
 2377 06bf 08050000 		.4byte	.LASF83
 2378 06c3 0C       		.byte	0xc
 2379 06c4 DC       		.byte	0xdc
 2380 06c5 FD060000 		.4byte	0x6fd
 2381 06c9 02       		.byte	0x2
 2382 06ca 23       		.byte	0x23
 2383 06cb 04       		.uleb128 0x4
 2384 06cc 06       		.uleb128 0x6
 2385 06cd 61020000 		.4byte	.LASF84
 2386 06d1 0C       		.byte	0xc
 2387 06d2 DD       		.byte	0xdd
 2388 06d3 49000000 		.4byte	0x49
 2389 06d7 02       		.byte	0x2
 2390 06d8 23       		.byte	0x23
 2391 06d9 08       		.uleb128 0x8
 2392 06da 06       		.uleb128 0x6
 2393 06db A5010000 		.4byte	.LASF85
 2394 06df 0C       		.byte	0xc
 2395 06e0 DF       		.byte	0xdf
 2396 06e1 49000000 		.4byte	0x49
 2397 06e5 02       		.byte	0x2
 2398 06e6 23       		.byte	0x23
 2399 06e7 09       		.uleb128 0x9
 2400 06e8 06       		.uleb128 0x6
 2401 06e9 26000000 		.4byte	.LASF86
 2402 06ed 0C       		.byte	0xc
 2403 06ee E0       		.byte	0xe0
 2404 06ef 49000000 		.4byte	0x49
 2405 06f3 02       		.byte	0x2
 2406 06f4 23       		.byte	0x23
 2407 06f5 0A       		.uleb128 0xa
 2408 06f6 00       		.byte	0x0
ARM GAS  C:\Users\DNIEL~1\AppData\Local\Temp\ccIeTsuP.s 			page 44


 2409 06f7 09       		.uleb128 0x9
 2410 06f8 04       		.byte	0x4
 2411 06f9 9C060000 		.4byte	0x69c
 2412 06fd 09       		.uleb128 0x9
 2413 06fe 04       		.byte	0x4
 2414 06ff 61030000 		.4byte	0x361
 2415 0703 03       		.uleb128 0x3
 2416 0704 08040000 		.4byte	.LASF87
 2417 0708 0C       		.byte	0xc
 2418 0709 E1       		.byte	0xe1
 2419 070a A8060000 		.4byte	0x6a8
 2420 070e 05       		.uleb128 0x5
 2421 070f 53000000 		.4byte	.LASF88
 2422 0713 20       		.byte	0x20
 2423 0714 0D       		.byte	0xd
 2424 0715 4E       		.byte	0x4e
 2425 0716 8B070000 		.4byte	0x78b
 2426 071a 06       		.uleb128 0x6
 2427 071b FB020000 		.4byte	.LASF60
 2428 071f 0D       		.byte	0xd
 2429 0720 4F       		.byte	0x4f
 2430 0721 86040000 		.4byte	0x486
 2431 0725 02       		.byte	0x2
 2432 0726 23       		.byte	0x23
 2433 0727 00       		.uleb128 0x0
 2434 0728 06       		.uleb128 0x6
 2435 0729 44050000 		.4byte	.LASF61
 2436 072d 0D       		.byte	0xd
 2437 072e 4F       		.byte	0x4f
 2438 072f A6040000 		.4byte	0x4a6
 2439 0733 02       		.byte	0x2
 2440 0734 23       		.byte	0x23
 2441 0735 04       		.uleb128 0x4
 2442 0736 07       		.uleb128 0x7
 2443 0737 70757400 		.ascii	"put\000"
 2444 073b 0D       		.byte	0xd
 2445 073c 4F       		.byte	0x4f
 2446 073d C1040000 		.4byte	0x4c1
 2447 0741 02       		.byte	0x2
 2448 0742 23       		.byte	0x23
 2449 0743 08       		.uleb128 0x8
 2450 0744 07       		.uleb128 0x7
 2451 0745 67657400 		.ascii	"get\000"
 2452 0749 0D       		.byte	0xd
 2453 074a 4F       		.byte	0x4f
 2454 074b 00040000 		.4byte	0x400
 2455 074f 02       		.byte	0x2
 2456 0750 23       		.byte	0x23
 2457 0751 0C       		.uleb128 0xc
 2458 0752 06       		.uleb128 0x6
 2459 0753 06030000 		.4byte	.LASF89
 2460 0757 0D       		.byte	0xd
 2461 0758 4F       		.byte	0x4f
 2462 0759 A5070000 		.4byte	0x7a5
 2463 075d 02       		.byte	0x2
 2464 075e 23       		.byte	0x23
 2465 075f 10       		.uleb128 0x10
ARM GAS  C:\Users\DNIEL~1\AppData\Local\Temp\ccIeTsuP.s 			page 45


 2466 0760 06       		.uleb128 0x6
 2467 0761 5C020000 		.4byte	.LASF90
 2468 0765 0D       		.byte	0xd
 2469 0766 4F       		.byte	0x4f
 2470 0767 C0070000 		.4byte	0x7c0
 2471 076b 02       		.byte	0x2
 2472 076c 23       		.byte	0x23
 2473 076d 14       		.uleb128 0x14
 2474 076e 06       		.uleb128 0x6
 2475 076f B2020000 		.4byte	.LASF91
 2476 0773 0D       		.byte	0xd
 2477 0774 4F       		.byte	0x4f
 2478 0775 E5070000 		.4byte	0x7e5
 2479 0779 02       		.byte	0x2
 2480 077a 23       		.byte	0x23
 2481 077b 18       		.uleb128 0x18
 2482 077c 06       		.uleb128 0x6
 2483 077d 9D000000 		.4byte	.LASF92
 2484 0781 0D       		.byte	0xd
 2485 0782 4F       		.byte	0x4f
 2486 0783 0A080000 		.4byte	0x80a
 2487 0787 02       		.byte	0x2
 2488 0788 23       		.byte	0x23
 2489 0789 1C       		.uleb128 0x1c
 2490 078a 00       		.byte	0x0
 2491 078b 11       		.uleb128 0x11
 2492 078c 01       		.byte	0x1
 2493 078d FA000000 		.4byte	0xfa
 2494 0791 A5070000 		.4byte	0x7a5
 2495 0795 12       		.uleb128 0x12
 2496 0796 AE020000 		.4byte	0x2ae
 2497 079a 12       		.uleb128 0x12
 2498 079b 49000000 		.4byte	0x49
 2499 079f 12       		.uleb128 0x12
 2500 07a0 10010000 		.4byte	0x110
 2501 07a4 00       		.byte	0x0
 2502 07a5 09       		.uleb128 0x9
 2503 07a6 04       		.byte	0x4
 2504 07a7 8B070000 		.4byte	0x78b
 2505 07ab 11       		.uleb128 0x11
 2506 07ac 01       		.byte	0x1
 2507 07ad FA000000 		.4byte	0xfa
 2508 07b1 C0070000 		.4byte	0x7c0
 2509 07b5 12       		.uleb128 0x12
 2510 07b6 AE020000 		.4byte	0x2ae
 2511 07ba 12       		.uleb128 0x12
 2512 07bb 10010000 		.4byte	0x110
 2513 07bf 00       		.byte	0x0
 2514 07c0 09       		.uleb128 0x9
 2515 07c1 04       		.byte	0x4
 2516 07c2 AB070000 		.4byte	0x7ab
 2517 07c6 11       		.uleb128 0x11
 2518 07c7 01       		.byte	0x1
 2519 07c8 30000000 		.4byte	0x30
 2520 07cc E5070000 		.4byte	0x7e5
 2521 07d0 12       		.uleb128 0x12
 2522 07d1 AE020000 		.4byte	0x2ae
ARM GAS  C:\Users\DNIEL~1\AppData\Local\Temp\ccIeTsuP.s 			page 46


 2523 07d5 12       		.uleb128 0x12
 2524 07d6 7B040000 		.4byte	0x47b
 2525 07da 12       		.uleb128 0x12
 2526 07db 30000000 		.4byte	0x30
 2527 07df 12       		.uleb128 0x12
 2528 07e0 10010000 		.4byte	0x110
 2529 07e4 00       		.byte	0x0
 2530 07e5 09       		.uleb128 0x9
 2531 07e6 04       		.byte	0x4
 2532 07e7 C6070000 		.4byte	0x7c6
 2533 07eb 11       		.uleb128 0x11
 2534 07ec 01       		.byte	0x1
 2535 07ed 30000000 		.4byte	0x30
 2536 07f1 0A080000 		.4byte	0x80a
 2537 07f5 12       		.uleb128 0x12
 2538 07f6 AE020000 		.4byte	0x2ae
 2539 07fa 12       		.uleb128 0x12
 2540 07fb 16040000 		.4byte	0x416
 2541 07ff 12       		.uleb128 0x12
 2542 0800 30000000 		.4byte	0x30
 2543 0804 12       		.uleb128 0x12
 2544 0805 10010000 		.4byte	0x110
 2545 0809 00       		.byte	0x0
 2546 080a 09       		.uleb128 0x9
 2547 080b 04       		.byte	0x4
 2548 080c EB070000 		.4byte	0x7eb
 2549 0810 08       		.uleb128 0x8
 2550 0811 04       		.byte	0x4
 2551 0812 0D       		.byte	0xd
 2552 0813 59       		.byte	0x59
 2553 0814 27080000 		.4byte	0x827
 2554 0818 07       		.uleb128 0x7
 2555 0819 766D7400 		.ascii	"vmt\000"
 2556 081d 0D       		.byte	0xd
 2557 081e 5B       		.byte	0x5b
 2558 081f 27080000 		.4byte	0x827
 2559 0823 02       		.byte	0x2
 2560 0824 23       		.byte	0x23
 2561 0825 00       		.uleb128 0x0
 2562 0826 00       		.byte	0x0
 2563 0827 09       		.uleb128 0x9
 2564 0828 04       		.byte	0x4
 2565 0829 2D080000 		.4byte	0x82d
 2566 082d 10       		.uleb128 0x10
 2567 082e 0E070000 		.4byte	0x70e
 2568 0832 03       		.uleb128 0x3
 2569 0833 1F060000 		.4byte	.LASF93
 2570 0837 0D       		.byte	0xd
 2571 0838 5D       		.byte	0x5d
 2572 0839 10080000 		.4byte	0x810
 2573 083d 16       		.uleb128 0x16
 2574 083e 01       		.byte	0x1
 2575 083f 0E       		.byte	0xe
 2576 0840 55       		.byte	0x55
 2577 0841 6A080000 		.4byte	0x86a
 2578 0845 17       		.uleb128 0x17
 2579 0846 6B000000 		.4byte	.LASF94
ARM GAS  C:\Users\DNIEL~1\AppData\Local\Temp\ccIeTsuP.s 			page 47


 2580 084a 00       		.sleb128 0
 2581 084b 17       		.uleb128 0x17
 2582 084c 57030000 		.4byte	.LASF95
 2583 0850 01       		.sleb128 1
 2584 0851 17       		.uleb128 0x17
 2585 0852 85020000 		.4byte	.LASF96
 2586 0856 02       		.sleb128 2
 2587 0857 17       		.uleb128 0x17
 2588 0858 C7040000 		.4byte	.LASF97
 2589 085c 03       		.sleb128 3
 2590 085d 17       		.uleb128 0x17
 2591 085e 46060000 		.4byte	.LASF98
 2592 0862 04       		.sleb128 4
 2593 0863 17       		.uleb128 0x17
 2594 0864 DA050000 		.4byte	.LASF99
 2595 0868 05       		.sleb128 5
 2596 0869 00       		.byte	0x0
 2597 086a 03       		.uleb128 0x3
 2598 086b 1B000000 		.4byte	.LASF100
 2599 086f 0E       		.byte	0xe
 2600 0870 5C       		.byte	0x5c
 2601 0871 3D080000 		.4byte	0x83d
 2602 0875 15       		.uleb128 0x15
 2603 0876 86010000 		.4byte	.LASF101
 2604 087a 0F       		.byte	0xf
 2605 087b 2701     		.2byte	0x127
 2606 087d 6D000000 		.4byte	0x6d
 2607 0881 15       		.uleb128 0x15
 2608 0882 58060000 		.4byte	.LASF102
 2609 0886 0F       		.byte	0xf
 2610 0887 2C01     		.2byte	0x12c
 2611 0889 6D000000 		.4byte	0x6d
 2612 088d 18       		.uleb128 0x18
 2613 088e 01       		.byte	0x1
 2614 088f 0F       		.byte	0xf
 2615 0890 3301     		.2byte	0x133
 2616 0892 A3080000 		.4byte	0x8a3
 2617 0896 17       		.uleb128 0x17
 2618 0897 0D010000 		.4byte	.LASF103
 2619 089b 00       		.sleb128 0
 2620 089c 17       		.uleb128 0x17
 2621 089d C7010000 		.4byte	.LASF104
 2622 08a1 01       		.sleb128 1
 2623 08a2 00       		.byte	0x0
 2624 08a3 15       		.uleb128 0x15
 2625 08a4 E3000000 		.4byte	.LASF105
 2626 08a8 0F       		.byte	0xf
 2627 08a9 3601     		.2byte	0x136
 2628 08ab 8D080000 		.4byte	0x88d
 2629 08af 15       		.uleb128 0x15
 2630 08b0 3E020000 		.4byte	.LASF106
 2631 08b4 0F       		.byte	0xf
 2632 08b5 3B01     		.2byte	0x13b
 2633 08b7 BB080000 		.4byte	0x8bb
 2634 08bb 0B       		.uleb128 0xb
 2635 08bc 3E020000 		.4byte	.LASF106
 2636 08c0 34       		.byte	0x34
ARM GAS  C:\Users\DNIEL~1\AppData\Local\Temp\ccIeTsuP.s 			page 48


 2637 08c1 0F       		.byte	0xf
 2638 08c2 9F01     		.2byte	0x19f
 2639 08c4 5F090000 		.4byte	0x95f
 2640 08c8 14       		.uleb128 0x14
 2641 08c9 F5000000 		.4byte	.LASF107
 2642 08cd 0F       		.byte	0xf
 2643 08ce A301     		.2byte	0x1a3
 2644 08d0 6A080000 		.4byte	0x86a
 2645 08d4 02       		.byte	0x2
 2646 08d5 23       		.byte	0x23
 2647 08d6 00       		.uleb128 0x0
 2648 08d7 14       		.uleb128 0x14
 2649 08d8 4E050000 		.4byte	.LASF108
 2650 08dc 0F       		.byte	0xf
 2651 08dd A701     		.2byte	0x1a7
 2652 08df 960A0000 		.4byte	0xa96
 2653 08e3 02       		.byte	0x2
 2654 08e4 23       		.byte	0x23
 2655 08e5 04       		.uleb128 0x4
 2656 08e6 14       		.uleb128 0x14
 2657 08e7 17030000 		.4byte	.LASF109
 2658 08eb 0F       		.byte	0xf
 2659 08ec AB01     		.2byte	0x1ab
 2660 08ee 8D090000 		.4byte	0x98d
 2661 08f2 02       		.byte	0x2
 2662 08f3 23       		.byte	0x23
 2663 08f4 08       		.uleb128 0x8
 2664 08f5 14       		.uleb128 0x14
 2665 08f6 99020000 		.4byte	.LASF110
 2666 08fa 0F       		.byte	0xf
 2667 08fb AF01     		.2byte	0x1af
 2668 08fd 30000000 		.4byte	0x30
 2669 0901 02       		.byte	0x2
 2670 0902 23       		.byte	0x23
 2671 0903 0C       		.uleb128 0xc
 2672 0904 14       		.uleb128 0x14
 2673 0905 01030000 		.4byte	.LASF111
 2674 0909 0F       		.byte	0xf
 2675 090a B301     		.2byte	0x1b3
 2676 090c A10A0000 		.4byte	0xaa1
 2677 0910 02       		.byte	0x2
 2678 0911 23       		.byte	0x23
 2679 0912 10       		.uleb128 0x10
 2680 0913 14       		.uleb128 0x14
 2681 0914 46010000 		.4byte	.LASF112
 2682 0918 0F       		.byte	0xf
 2683 0919 B801     		.2byte	0x1b8
 2684 091b 70020000 		.4byte	0x270
 2685 091f 02       		.byte	0x2
 2686 0920 23       		.byte	0x23
 2687 0921 14       		.uleb128 0x14
 2688 0922 14       		.uleb128 0x14
 2689 0923 33040000 		.4byte	.LASF113
 2690 0927 0F       		.byte	0xf
 2691 0928 BF01     		.2byte	0x1bf
 2692 092a A8030000 		.4byte	0x3a8
 2693 092e 02       		.byte	0x2
ARM GAS  C:\Users\DNIEL~1\AppData\Local\Temp\ccIeTsuP.s 			page 49


 2694 092f 23       		.byte	0x23
 2695 0930 18       		.uleb128 0x18
 2696 0931 0C       		.uleb128 0xc
 2697 0932 61646300 		.ascii	"adc\000"
 2698 0936 0F       		.byte	0xf
 2699 0937 CB01     		.2byte	0x1cb
 2700 0939 AC0A0000 		.4byte	0xaac
 2701 093d 02       		.byte	0x2
 2702 093e 23       		.byte	0x23
 2703 093f 28       		.uleb128 0x28
 2704 0940 14       		.uleb128 0x14
 2705 0941 EE000000 		.4byte	.LASF114
 2706 0945 0F       		.byte	0xf
 2707 0946 CF01     		.2byte	0x1cf
 2708 0948 B20A0000 		.4byte	0xab2
 2709 094c 02       		.byte	0x2
 2710 094d 23       		.byte	0x23
 2711 094e 2C       		.uleb128 0x2c
 2712 094f 14       		.uleb128 0x14
 2713 0950 13000000 		.4byte	.LASF115
 2714 0954 0F       		.byte	0xf
 2715 0955 D301     		.2byte	0x1d3
 2716 0957 91000000 		.4byte	0x91
 2717 095b 02       		.byte	0x2
 2718 095c 23       		.byte	0x23
 2719 095d 30       		.uleb128 0x30
 2720 095e 00       		.byte	0x0
 2721 095f 15       		.uleb128 0x15
 2722 0960 78010000 		.4byte	.LASF116
 2723 0964 0F       		.byte	0xf
 2724 0965 4501     		.2byte	0x145
 2725 0967 6B090000 		.4byte	0x96b
 2726 096b 09       		.uleb128 0x9
 2727 096c 04       		.byte	0x4
 2728 096d 71090000 		.4byte	0x971
 2729 0971 19       		.uleb128 0x19
 2730 0972 01       		.byte	0x1
 2731 0973 87090000 		.4byte	0x987
 2732 0977 12       		.uleb128 0x12
 2733 0978 87090000 		.4byte	0x987
 2734 097c 12       		.uleb128 0x12
 2735 097d 8D090000 		.4byte	0x98d
 2736 0981 12       		.uleb128 0x12
 2737 0982 30000000 		.4byte	0x30
 2738 0986 00       		.byte	0x0
 2739 0987 09       		.uleb128 0x9
 2740 0988 04       		.byte	0x4
 2741 0989 AF080000 		.4byte	0x8af
 2742 098d 09       		.uleb128 0x9
 2743 098e 04       		.byte	0x4
 2744 098f 75080000 		.4byte	0x875
 2745 0993 15       		.uleb128 0x15
 2746 0994 20010000 		.4byte	.LASF117
 2747 0998 0F       		.byte	0xf
 2748 0999 4E01     		.2byte	0x14e
 2749 099b 9F090000 		.4byte	0x99f
 2750 099f 09       		.uleb128 0x9
ARM GAS  C:\Users\DNIEL~1\AppData\Local\Temp\ccIeTsuP.s 			page 50


 2751 09a0 04       		.byte	0x4
 2752 09a1 A5090000 		.4byte	0x9a5
 2753 09a5 19       		.uleb128 0x19
 2754 09a6 01       		.byte	0x1
 2755 09a7 B6090000 		.4byte	0x9b6
 2756 09ab 12       		.uleb128 0x12
 2757 09ac 87090000 		.4byte	0x987
 2758 09b0 12       		.uleb128 0x12
 2759 09b1 A3080000 		.4byte	0x8a3
 2760 09b5 00       		.byte	0x0
 2761 09b6 13       		.uleb128 0x13
 2762 09b7 28       		.byte	0x28
 2763 09b8 0F       		.byte	0xf
 2764 09b9 5801     		.2byte	0x158
 2765 09bb 650A0000 		.4byte	0xa65
 2766 09bf 14       		.uleb128 0x14
 2767 09c0 FB000000 		.4byte	.LASF118
 2768 09c4 0F       		.byte	0xf
 2769 09c5 5C01     		.2byte	0x15c
 2770 09c7 B1000000 		.4byte	0xb1
 2771 09cb 02       		.byte	0x2
 2772 09cc 23       		.byte	0x23
 2773 09cd 00       		.uleb128 0x0
 2774 09ce 14       		.uleb128 0x14
 2775 09cf CD020000 		.4byte	.LASF119
 2776 09d3 0F       		.byte	0xf
 2777 09d4 6001     		.2byte	0x160
 2778 09d6 81080000 		.4byte	0x881
 2779 09da 02       		.byte	0x2
 2780 09db 23       		.byte	0x23
 2781 09dc 02       		.uleb128 0x2
 2782 09dd 14       		.uleb128 0x14
 2783 09de 71010000 		.4byte	.LASF120
 2784 09e2 0F       		.byte	0xf
 2785 09e3 6401     		.2byte	0x164
 2786 09e5 5F090000 		.4byte	0x95f
 2787 09e9 02       		.byte	0x2
 2788 09ea 23       		.byte	0x23
 2789 09eb 04       		.uleb128 0x4
 2790 09ec 14       		.uleb128 0x14
 2791 09ed 90040000 		.4byte	.LASF121
 2792 09f1 0F       		.byte	0xf
 2793 09f2 6801     		.2byte	0x168
 2794 09f4 93090000 		.4byte	0x993
 2795 09f8 02       		.byte	0x2
 2796 09f9 23       		.byte	0x23
 2797 09fa 08       		.uleb128 0x8
 2798 09fb 0C       		.uleb128 0xc
 2799 09fc 63723100 		.ascii	"cr1\000"
 2800 0a00 0F       		.byte	0xf
 2801 0a01 6F01     		.2byte	0x16f
 2802 0a03 91000000 		.4byte	0x91
 2803 0a07 02       		.byte	0x2
 2804 0a08 23       		.byte	0x23
 2805 0a09 0C       		.uleb128 0xc
 2806 0a0a 0C       		.uleb128 0xc
 2807 0a0b 63723200 		.ascii	"cr2\000"
ARM GAS  C:\Users\DNIEL~1\AppData\Local\Temp\ccIeTsuP.s 			page 51


 2808 0a0f 0F       		.byte	0xf
 2809 0a10 7601     		.2byte	0x176
 2810 0a12 91000000 		.4byte	0x91
 2811 0a16 02       		.byte	0x2
 2812 0a17 23       		.byte	0x23
 2813 0a18 10       		.uleb128 0x10
 2814 0a19 14       		.uleb128 0x14
 2815 0a1a F2050000 		.4byte	.LASF122
 2816 0a1e 0F       		.byte	0xf
 2817 0a1f 7C01     		.2byte	0x17c
 2818 0a21 91000000 		.4byte	0x91
 2819 0a25 02       		.byte	0x2
 2820 0a26 23       		.byte	0x23
 2821 0a27 14       		.uleb128 0x14
 2822 0a28 14       		.uleb128 0x14
 2823 0a29 F8050000 		.4byte	.LASF123
 2824 0a2d 0F       		.byte	0xf
 2825 0a2e 8201     		.2byte	0x182
 2826 0a30 91000000 		.4byte	0x91
 2827 0a34 02       		.byte	0x2
 2828 0a35 23       		.byte	0x23
 2829 0a36 18       		.uleb128 0x18
 2830 0a37 14       		.uleb128 0x14
 2831 0a38 78050000 		.4byte	.LASF124
 2832 0a3c 0F       		.byte	0xf
 2833 0a3d 8701     		.2byte	0x187
 2834 0a3f 91000000 		.4byte	0x91
 2835 0a43 02       		.byte	0x2
 2836 0a44 23       		.byte	0x23
 2837 0a45 1C       		.uleb128 0x1c
 2838 0a46 14       		.uleb128 0x14
 2839 0a47 7D050000 		.4byte	.LASF125
 2840 0a4b 0F       		.byte	0xf
 2841 0a4c 8C01     		.2byte	0x18c
 2842 0a4e 91000000 		.4byte	0x91
 2843 0a52 02       		.byte	0x2
 2844 0a53 23       		.byte	0x23
 2845 0a54 20       		.uleb128 0x20
 2846 0a55 14       		.uleb128 0x14
 2847 0a56 82050000 		.4byte	.LASF126
 2848 0a5a 0F       		.byte	0xf
 2849 0a5b 9101     		.2byte	0x191
 2850 0a5d 91000000 		.4byte	0x91
 2851 0a61 02       		.byte	0x2
 2852 0a62 23       		.byte	0x23
 2853 0a63 24       		.uleb128 0x24
 2854 0a64 00       		.byte	0x0
 2855 0a65 15       		.uleb128 0x15
 2856 0a66 0C060000 		.4byte	.LASF127
 2857 0a6a 0F       		.byte	0xf
 2858 0a6b 9201     		.2byte	0x192
 2859 0a6d B6090000 		.4byte	0x9b6
 2860 0a71 13       		.uleb128 0x13
 2861 0a72 04       		.byte	0x4
 2862 0a73 0F       		.byte	0xf
 2863 0a74 9801     		.2byte	0x198
 2864 0a76 8A0A0000 		.4byte	0xa8a
ARM GAS  C:\Users\DNIEL~1\AppData\Local\Temp\ccIeTsuP.s 			page 52


 2865 0a7a 14       		.uleb128 0x14
 2866 0a7b 0D050000 		.4byte	.LASF128
 2867 0a7f 0F       		.byte	0xf
 2868 0a80 9901     		.2byte	0x199
 2869 0a82 91000000 		.4byte	0x91
 2870 0a86 02       		.byte	0x2
 2871 0a87 23       		.byte	0x23
 2872 0a88 00       		.uleb128 0x0
 2873 0a89 00       		.byte	0x0
 2874 0a8a 15       		.uleb128 0x15
 2875 0a8b 92010000 		.4byte	.LASF129
 2876 0a8f 0F       		.byte	0xf
 2877 0a90 9A01     		.2byte	0x19a
 2878 0a92 710A0000 		.4byte	0xa71
 2879 0a96 09       		.uleb128 0x9
 2880 0a97 04       		.byte	0x4
 2881 0a98 9C0A0000 		.4byte	0xa9c
 2882 0a9c 10       		.uleb128 0x10
 2883 0a9d 8A0A0000 		.4byte	0xa8a
 2884 0aa1 09       		.uleb128 0x9
 2885 0aa2 04       		.byte	0x4
 2886 0aa3 A70A0000 		.4byte	0xaa7
 2887 0aa7 10       		.uleb128 0x10
 2888 0aa8 650A0000 		.4byte	0xa65
 2889 0aac 09       		.uleb128 0x9
 2890 0aad 04       		.byte	0x4
 2891 0aae 2D060000 		.4byte	0x62d
 2892 0ab2 09       		.uleb128 0x9
 2893 0ab3 04       		.byte	0x4
 2894 0ab4 B80A0000 		.4byte	0xab8
 2895 0ab8 10       		.uleb128 0x10
 2896 0ab9 03070000 		.4byte	0x703
 2897 0abd 1A       		.uleb128 0x1a
 2898 0abe 5D040000 		.4byte	.LASF138
 2899 0ac2 01       		.byte	0x1
 2900 0ac3 10       		.byte	0x10
 2901 0ac4 0C       		.byte	0xc
 2902 0ac5 FA0A0000 		.4byte	0xafa
 2903 0ac9 17       		.uleb128 0x17
 2904 0aca D9000000 		.4byte	.LASF130
 2905 0ace 00       		.sleb128 0
 2906 0acf 17       		.uleb128 0x17
 2907 0ad0 60030000 		.4byte	.LASF131
 2908 0ad4 01       		.sleb128 1
 2909 0ad5 17       		.uleb128 0x17
 2910 0ad6 63050000 		.4byte	.LASF132
 2911 0ada 02       		.sleb128 2
 2912 0adb 17       		.uleb128 0x17
 2913 0adc 0B020000 		.4byte	.LASF133
 2914 0ae0 03       		.sleb128 3
 2915 0ae1 17       		.uleb128 0x17
 2916 0ae2 15020000 		.4byte	.LASF134
 2917 0ae6 04       		.sleb128 4
 2918 0ae7 17       		.uleb128 0x17
 2919 0ae8 1F020000 		.4byte	.LASF135
 2920 0aec 05       		.sleb128 5
 2921 0aed 17       		.uleb128 0x17
ARM GAS  C:\Users\DNIEL~1\AppData\Local\Temp\ccIeTsuP.s 			page 53


 2922 0aee 29020000 		.4byte	.LASF136
 2923 0af2 06       		.sleb128 6
 2924 0af3 17       		.uleb128 0x17
 2925 0af4 BB010000 		.4byte	.LASF137
 2926 0af8 07       		.sleb128 7
 2927 0af9 00       		.byte	0x0
 2928 0afa 1A       		.uleb128 0x1a
 2929 0afb 55050000 		.4byte	.LASF139
 2930 0aff 01       		.byte	0x1
 2931 0b00 10       		.byte	0x10
 2932 0b01 18       		.byte	0x18
 2933 0b02 190B0000 		.4byte	0xb19
 2934 0b06 17       		.uleb128 0x17
 2935 0b07 2B030000 		.4byte	.LASF140
 2936 0b0b 00       		.sleb128 0
 2937 0b0c 17       		.uleb128 0x17
 2938 0b0d 71060000 		.4byte	.LASF141
 2939 0b11 01       		.sleb128 1
 2940 0b12 17       		.uleb128 0x17
 2941 0b13 B4050000 		.4byte	.LASF142
 2942 0b17 02       		.sleb128 2
 2943 0b18 00       		.byte	0x0
 2944 0b19 03       		.uleb128 0x3
 2945 0b1a 48030000 		.4byte	.LASF143
 2946 0b1e 11       		.byte	0x11
 2947 0b1f 28       		.byte	0x28
 2948 0b20 240B0000 		.4byte	0xb24
 2949 0b24 05       		.uleb128 0x5
 2950 0b25 3C010000 		.4byte	.LASF144
 2951 0b29 04       		.byte	0x4
 2952 0b2a 12       		.byte	0x12
 2953 0b2b 00       		.byte	0x0
 2954 0b2c 3E0B0000 		.4byte	0xb3e
 2955 0b30 1B       		.uleb128 0x1b
 2956 0b31 C1050000 		.4byte	.LASF145
 2957 0b35 AE020000 		.4byte	0x2ae
 2958 0b39 02       		.byte	0x2
 2959 0b3a 23       		.byte	0x23
 2960 0b3b 00       		.uleb128 0x0
 2961 0b3c 01       		.byte	0x1
 2962 0b3d 00       		.byte	0x0
 2963 0b3e 03       		.uleb128 0x3
 2964 0b3f 2D000000 		.4byte	.LASF146
 2965 0b43 11       		.byte	0x11
 2966 0b44 66       		.byte	0x66
 2967 0b45 190B0000 		.4byte	0xb19
 2968 0b49 1A       		.uleb128 0x1a
 2969 0b4a F6030000 		.4byte	.LASF147
 2970 0b4e 01       		.byte	0x1
 2971 0b4f 01       		.byte	0x1
 2972 0b50 0C       		.byte	0xc
 2973 0b51 620B0000 		.4byte	0xb62
 2974 0b55 17       		.uleb128 0x17
 2975 0b56 EB040000 		.4byte	.LASF148
 2976 0b5a 00       		.sleb128 0
 2977 0b5b 17       		.uleb128 0x17
 2978 0b5c D8040000 		.4byte	.LASF149
ARM GAS  C:\Users\DNIEL~1\AppData\Local\Temp\ccIeTsuP.s 			page 54


 2979 0b60 01       		.sleb128 1
 2980 0b61 00       		.byte	0x0
 2981 0b62 1C       		.uleb128 0x1c
 2982 0b63 D8010000 		.4byte	.LASF151
 2983 0b67 01       		.byte	0x1
 2984 0b68 A5       		.byte	0xa5
 2985 0b69 01       		.byte	0x1
 2986 0b6a 00000000 		.4byte	.LFB123
 2987 0b6e 02000000 		.4byte	.LFE123
 2988 0b72 02       		.byte	0x2
 2989 0b73 7D       		.byte	0x7d
 2990 0b74 00       		.sleb128 0
 2991 0b75 940B0000 		.4byte	0xb94
 2992 0b79 1D       		.uleb128 0x1d
 2993 0b7a 48020000 		.4byte	.LASF150
 2994 0b7e 01       		.byte	0x1
 2995 0b7f A5       		.byte	0xa5
 2996 0b80 87090000 		.4byte	0x987
 2997 0b84 01       		.byte	0x1
 2998 0b85 50       		.byte	0x50
 2999 0b86 1E       		.uleb128 0x1e
 3000 0b87 65727200 		.ascii	"err\000"
 3001 0b8b 01       		.byte	0x1
 3002 0b8c A5       		.byte	0xa5
 3003 0b8d A3080000 		.4byte	0x8a3
 3004 0b91 01       		.byte	0x1
 3005 0b92 51       		.byte	0x51
 3006 0b93 00       		.byte	0x0
 3007 0b94 1F       		.uleb128 0x1f
 3008 0b95 9D060000 		.4byte	.LASF152
 3009 0b99 02       		.byte	0x2
 3010 0b9a 45       		.byte	0x45
 3011 0b9b 01       		.byte	0x1
 3012 0b9c 00000000 		.4byte	.LFB118
 3013 0ba0 1E000000 		.4byte	.LFE118
 3014 0ba4 00000000 		.4byte	.LLST0
 3015 0ba8 D80B0000 		.4byte	0xbd8
 3016 0bac 20       		.uleb128 0x20
 3017 0bad 63687000 		.ascii	"chp\000"
 3018 0bb1 02       		.byte	0x2
 3019 0bb2 45       		.byte	0x45
 3020 0bb3 D80B0000 		.4byte	0xbd8
 3021 0bb7 38000000 		.4byte	.LLST1
 3022 0bbb 1E       		.uleb128 0x1e
 3023 0bbc 666D7400 		.ascii	"fmt\000"
 3024 0bc0 02       		.byte	0x2
 3025 0bc1 45       		.byte	0x45
 3026 0bc2 E8030000 		.4byte	0x3e8
 3027 0bc6 02       		.byte	0x2
 3028 0bc7 91       		.byte	0x91
 3029 0bc8 74       		.sleb128 -12
 3030 0bc9 21       		.uleb128 0x21
 3031 0bca 22       		.uleb128 0x22
 3032 0bcb 617000   		.ascii	"ap\000"
 3033 0bce 02       		.byte	0x2
 3034 0bcf 46       		.byte	0x46
 3035 0bd0 3E0B0000 		.4byte	0xb3e
ARM GAS  C:\Users\DNIEL~1\AppData\Local\Temp\ccIeTsuP.s 			page 55


 3036 0bd4 02       		.byte	0x2
 3037 0bd5 91       		.byte	0x91
 3038 0bd6 6C       		.sleb128 -20
 3039 0bd7 00       		.byte	0x0
 3040 0bd8 09       		.uleb128 0x9
 3041 0bd9 04       		.byte	0x4
 3042 0bda E9040000 		.4byte	0x4e9
 3043 0bde 23       		.uleb128 0x23
 3044 0bdf 01       		.byte	0x1
 3045 0be0 8D000000 		.4byte	.LASF173
 3046 0be4 01       		.byte	0x1
 3047 0be5 49       		.byte	0x49
 3048 0be6 01       		.byte	0x1
 3049 0be7 00000000 		.4byte	.LFB119
 3050 0beb 28000000 		.4byte	.LFE119
 3051 0bef 4B000000 		.4byte	.LLST2
 3052 0bf3 24       		.uleb128 0x24
 3053 0bf4 01       		.byte	0x1
 3054 0bf5 F2020000 		.4byte	.LASF155
 3055 0bf9 01       		.byte	0x1
 3056 0bfa 53       		.byte	0x53
 3057 0bfb 01       		.byte	0x1
 3058 0bfc 00000000 		.4byte	.LFB120
 3059 0c00 7C020000 		.4byte	.LFE120
 3060 0c04 6B000000 		.4byte	.LLST3
 3061 0c08 970C0000 		.4byte	0xc97
 3062 0c0c 25       		.uleb128 0x25
 3063 0c0d 636800   		.ascii	"ch\000"
 3064 0c10 01       		.byte	0x1
 3065 0c11 54       		.byte	0x54
 3066 0c12 29000000 		.4byte	0x29
 3067 0c16 8B000000 		.4byte	.LLST4
 3068 0c1a 25       		.uleb128 0x25
 3069 0c1b 61766700 		.ascii	"avg\000"
 3070 0c1f 01       		.byte	0x1
 3071 0c20 55       		.byte	0x55
 3072 0c21 29000000 		.4byte	0x29
 3073 0c25 FF000000 		.4byte	.LLST5
 3074 0c29 25       		.uleb128 0x25
 3075 0c2a 6900     		.ascii	"i\000"
 3076 0c2c 01       		.byte	0x1
 3077 0c2d 55       		.byte	0x55
 3078 0c2e 29000000 		.4byte	0x29
 3079 0c32 26020000 		.4byte	.LLST6
 3080 0c36 26       		.uleb128 0x26
 3081 0c37 00000000 		.4byte	.Ldebug_ranges0+0x0
 3082 0c3b 4F0C0000 		.4byte	0xc4f
 3083 0c3f 25       		.uleb128 0x25
 3084 0c40 746D7000 		.ascii	"tmp\000"
 3085 0c44 01       		.byte	0x1
 3086 0c45 7B       		.byte	0x7b
 3087 0c46 91000000 		.4byte	0x91
 3088 0c4a 8A030000 		.4byte	.LLST7
 3089 0c4e 00       		.byte	0x0
 3090 0c4f 26       		.uleb128 0x26
 3091 0c50 40000000 		.4byte	.Ldebug_ranges0+0x40
 3092 0c54 680C0000 		.4byte	0xc68
ARM GAS  C:\Users\DNIEL~1\AppData\Local\Temp\ccIeTsuP.s 			page 56


 3093 0c58 25       		.uleb128 0x25
 3094 0c59 746D7000 		.ascii	"tmp\000"
 3095 0c5d 01       		.byte	0x1
 3096 0c5e 7D       		.byte	0x7d
 3097 0c5f 91000000 		.4byte	0x91
 3098 0c63 DF030000 		.4byte	.LLST8
 3099 0c67 00       		.byte	0x0
 3100 0c68 26       		.uleb128 0x26
 3101 0c69 80000000 		.4byte	.Ldebug_ranges0+0x80
 3102 0c6d 810C0000 		.4byte	0xc81
 3103 0c71 25       		.uleb128 0x25
 3104 0c72 746D7000 		.ascii	"tmp\000"
 3105 0c76 01       		.byte	0x1
 3106 0c77 8E       		.byte	0x8e
 3107 0c78 91000000 		.4byte	0x91
 3108 0c7c 34040000 		.4byte	.LLST9
 3109 0c80 00       		.byte	0x0
 3110 0c81 27       		.uleb128 0x27
 3111 0c82 98000000 		.4byte	.Ldebug_ranges0+0x98
 3112 0c86 25       		.uleb128 0x25
 3113 0c87 746D7000 		.ascii	"tmp\000"
 3114 0c8b 01       		.byte	0x1
 3115 0c8c 90       		.byte	0x90
 3116 0c8d 91000000 		.4byte	0x91
 3117 0c91 52040000 		.4byte	.LLST10
 3118 0c95 00       		.byte	0x0
 3119 0c96 00       		.byte	0x0
 3120 0c97 28       		.uleb128 0x28
 3121 0c98 01       		.byte	0x1
 3122 0c99 A5020000 		.4byte	.LASF153
 3123 0c9d 01       		.byte	0x1
 3124 0c9e 9A       		.byte	0x9a
 3125 0c9f 01       		.byte	0x1
 3126 0ca0 5B000000 		.4byte	0x5b
 3127 0ca4 00000000 		.4byte	.LFB121
 3128 0ca8 0C000000 		.4byte	.LFE121
 3129 0cac 02       		.byte	0x2
 3130 0cad 7D       		.byte	0x7d
 3131 0cae 00       		.sleb128 0
 3132 0caf C20C0000 		.4byte	0xcc2
 3133 0cb3 20       		.uleb128 0x20
 3134 0cb4 636800   		.ascii	"ch\000"
 3135 0cb7 01       		.byte	0x1
 3136 0cb8 9A       		.byte	0x9a
 3137 0cb9 BD0A0000 		.4byte	0xabd
 3138 0cbd 7B040000 		.4byte	.LLST11
 3139 0cc1 00       		.byte	0x0
 3140 0cc2 28       		.uleb128 0x28
 3141 0cc3 01       		.byte	0x1
 3142 0cc4 4D020000 		.4byte	.LASF154
 3143 0cc8 01       		.byte	0x1
 3144 0cc9 9E       		.byte	0x9e
 3145 0cca 01       		.byte	0x1
 3146 0ccb 5B000000 		.4byte	0x5b
 3147 0ccf 00000000 		.4byte	.LFB122
 3148 0cd3 0C000000 		.4byte	.LFE122
 3149 0cd7 02       		.byte	0x2
ARM GAS  C:\Users\DNIEL~1\AppData\Local\Temp\ccIeTsuP.s 			page 57


 3150 0cd8 7D       		.byte	0x7d
 3151 0cd9 00       		.sleb128 0
 3152 0cda ED0C0000 		.4byte	0xced
 3153 0cde 20       		.uleb128 0x20
 3154 0cdf 636800   		.ascii	"ch\000"
 3155 0ce2 01       		.byte	0x1
 3156 0ce3 9E       		.byte	0x9e
 3157 0ce4 FA0A0000 		.4byte	0xafa
 3158 0ce8 8E040000 		.4byte	.LLST12
 3159 0cec 00       		.byte	0x0
 3160 0ced 24       		.uleb128 0x24
 3161 0cee 01       		.byte	0x1
 3162 0cef DF030000 		.4byte	.LASF156
 3163 0cf3 01       		.byte	0x1
 3164 0cf4 AB       		.byte	0xab
 3165 0cf5 01       		.byte	0x1
 3166 0cf6 00000000 		.4byte	.LFB124
 3167 0cfa E8000000 		.4byte	.LFE124
 3168 0cfe A1040000 		.4byte	.LLST13
 3169 0d02 580D0000 		.4byte	0xd58
 3170 0d06 20       		.uleb128 0x20
 3171 0d07 63687000 		.ascii	"chp\000"
 3172 0d0b 01       		.byte	0x1
 3173 0d0c AB       		.byte	0xab
 3174 0d0d D80B0000 		.4byte	0xbd8
 3175 0d11 C1040000 		.4byte	.LLST14
 3176 0d15 29       		.uleb128 0x29
 3177 0d16 53060000 		.4byte	.LASF157
 3178 0d1a 01       		.byte	0x1
 3179 0d1b AB       		.byte	0xab
 3180 0d1c 29000000 		.4byte	0x29
 3181 0d20 DF040000 		.4byte	.LLST15
 3182 0d24 29       		.uleb128 0x29
 3183 0d25 80060000 		.4byte	.LASF158
 3184 0d29 01       		.byte	0x1
 3185 0d2a AB       		.byte	0xab
 3186 0d2b 580D0000 		.4byte	0xd58
 3187 0d2f F2040000 		.4byte	.LLST16
 3188 0d33 25       		.uleb128 0x25
 3189 0d34 636800   		.ascii	"ch\000"
 3190 0d37 01       		.byte	0x1
 3191 0d38 AC       		.byte	0xac
 3192 0d39 BD0A0000 		.4byte	0xabd
 3193 0d3d 05050000 		.4byte	.LLST17
 3194 0d41 2A       		.uleb128 0x2a
 3195 0d42 1B040000 		.4byte	.LASF159
 3196 0d46 01       		.byte	0x1
 3197 0d47 AE       		.byte	0xae
 3198 0d48 740D0000 		.4byte	0xd74
 3199 0d4c 2A       		.uleb128 0x2a
 3200 0d4d F6040000 		.4byte	.LASF160
 3201 0d51 01       		.byte	0x1
 3202 0d52 B8       		.byte	0xb8
 3203 0d53 890D0000 		.4byte	0xd89
 3204 0d57 00       		.byte	0x0
 3205 0d58 09       		.uleb128 0x9
 3206 0d59 04       		.byte	0x4
ARM GAS  C:\Users\DNIEL~1\AppData\Local\Temp\ccIeTsuP.s 			page 58


 3207 0d5a 5E0D0000 		.4byte	0xd5e
 3208 0d5e 09       		.uleb128 0x9
 3209 0d5f 04       		.byte	0x4
 3210 0d60 F3030000 		.4byte	0x3f3
 3211 0d64 2B       		.uleb128 0x2b
 3212 0d65 E8030000 		.4byte	0x3e8
 3213 0d69 740D0000 		.4byte	0xd74
 3214 0d6d 2C       		.uleb128 0x2c
 3215 0d6e 3B000000 		.4byte	0x3b
 3216 0d72 06       		.byte	0x6
 3217 0d73 00       		.byte	0x0
 3218 0d74 10       		.uleb128 0x10
 3219 0d75 640D0000 		.4byte	0xd64
 3220 0d79 2B       		.uleb128 0x2b
 3221 0d7a E8030000 		.4byte	0x3e8
 3222 0d7e 890D0000 		.4byte	0xd89
 3223 0d82 2C       		.uleb128 0x2c
 3224 0d83 3B000000 		.4byte	0x3b
 3225 0d87 01       		.byte	0x1
 3226 0d88 00       		.byte	0x0
 3227 0d89 10       		.uleb128 0x10
 3228 0d8a 790D0000 		.4byte	0xd79
 3229 0d8e 2D       		.uleb128 0x2d
 3230 0d8f 80000000 		.4byte	.LASF161
 3231 0d93 13       		.byte	0x13
 3232 0d94 9806     		.2byte	0x698
 3233 0d96 F4040000 		.4byte	0x4f4
 3234 0d9a 01       		.byte	0x1
 3235 0d9b 01       		.byte	0x1
 3236 0d9c 2D       		.uleb128 0x2d
 3237 0d9d 1C050000 		.4byte	.LASF162
 3238 0da1 0F       		.byte	0xf
 3239 0da2 1C02     		.2byte	0x21c
 3240 0da4 AF080000 		.4byte	0x8af
 3241 0da8 01       		.byte	0x1
 3242 0da9 01       		.byte	0x1
 3243 0daa 2D       		.uleb128 0x2d
 3244 0dab 22050000 		.4byte	.LASF163
 3245 0daf 0F       		.byte	0xf
 3246 0db0 2002     		.2byte	0x220
 3247 0db2 AF080000 		.4byte	0x8af
 3248 0db6 01       		.byte	0x1
 3249 0db7 01       		.byte	0x1
 3250 0db8 2E       		.uleb128 0x2e
 3251 0db9 8F020000 		.4byte	.LASF164
 3252 0dbd 01       		.byte	0x1
 3253 0dbe 10       		.byte	0x10
 3254 0dbf 490B0000 		.4byte	0xb49
 3255 0dc3 01       		.byte	0x1
 3256 0dc4 01       		.byte	0x1
 3257 0dc5 2B       		.uleb128 0x2b
 3258 0dc6 7F000000 		.4byte	0x7f
 3259 0dca D50D0000 		.4byte	0xdd5
 3260 0dce 2C       		.uleb128 0x2c
 3261 0dcf 3B000000 		.4byte	0x3b
 3262 0dd3 08       		.byte	0x8
 3263 0dd4 00       		.byte	0x0
ARM GAS  C:\Users\DNIEL~1\AppData\Local\Temp\ccIeTsuP.s 			page 59


 3264 0dd5 2F       		.uleb128 0x2f
 3265 0dd6 29040000 		.4byte	.LASF165
 3266 0dda 01       		.byte	0x1
 3267 0ddb 12       		.byte	0x12
 3268 0ddc C50D0000 		.4byte	0xdc5
 3269 0de0 05       		.byte	0x5
 3270 0de1 03       		.byte	0x3
 3271 0de2 00000000 		.4byte	measValue
 3272 0de6 2B       		.uleb128 0x2b
 3273 0de7 75080000 		.4byte	0x875
 3274 0deb F60D0000 		.4byte	0xdf6
 3275 0def 2C       		.uleb128 0x2c
 3276 0df0 3B000000 		.4byte	0x3b
 3277 0df4 37       		.byte	0x37
 3278 0df5 00       		.byte	0x0
 3279 0df6 2F       		.uleb128 0x2f
 3280 0df7 17030000 		.4byte	.LASF109
 3281 0dfb 01       		.byte	0x1
 3282 0dfc 13       		.byte	0x13
 3283 0dfd E60D0000 		.4byte	0xde6
 3284 0e01 05       		.byte	0x5
 3285 0e02 03       		.byte	0x3
 3286 0e03 00000000 		.4byte	samples
 3287 0e07 2B       		.uleb128 0x2b
 3288 0e08 7F000000 		.4byte	0x7f
 3289 0e0c 170E0000 		.4byte	0xe17
 3290 0e10 2C       		.uleb128 0x2c
 3291 0e11 3B000000 		.4byte	0x3b
 3292 0e15 03       		.byte	0x3
 3293 0e16 00       		.byte	0x0
 3294 0e17 2F       		.uleb128 0x2f
 3295 0e18 AF010000 		.4byte	.LASF166
 3296 0e1c 01       		.byte	0x1
 3297 0e1d 15       		.byte	0x15
 3298 0e1e 070E0000 		.4byte	0xe07
 3299 0e22 05       		.byte	0x5
 3300 0e23 03       		.byte	0x3
 3301 0e24 00000000 		.4byte	measValue_2
 3302 0e28 2B       		.uleb128 0x2b
 3303 0e29 75080000 		.4byte	0x875
 3304 0e2d 380E0000 		.4byte	0xe38
 3305 0e31 2C       		.uleb128 0x2c
 3306 0e32 3B000000 		.4byte	0x3b
 3307 0e36 0F       		.byte	0xf
 3308 0e37 00       		.byte	0x0
 3309 0e38 2F       		.uleb128 0x2f
 3310 0e39 68020000 		.4byte	.LASF167
 3311 0e3d 01       		.byte	0x1
 3312 0e3e 16       		.byte	0x16
 3313 0e3f 280E0000 		.4byte	0xe28
 3314 0e43 05       		.byte	0x5
 3315 0e44 03       		.byte	0x3
 3316 0e45 00000000 		.4byte	samples_2
 3317 0e49 2F       		.uleb128 0x2f
 3318 0e4a 76000000 		.4byte	.LASF168
 3319 0e4e 01       		.byte	0x1
 3320 0e4f 22       		.byte	0x22
ARM GAS  C:\Users\DNIEL~1\AppData\Local\Temp\ccIeTsuP.s 			page 60


 3321 0e50 A70A0000 		.4byte	0xaa7
 3322 0e54 05       		.byte	0x5
 3323 0e55 03       		.byte	0x3
 3324 0e56 00000000 		.4byte	adcgrpcfg
 3325 0e5a 2F       		.uleb128 0x2f
 3326 0e5b 1F030000 		.4byte	.LASF169
 3327 0e5f 01       		.byte	0x1
 3328 0e60 3B       		.byte	0x3b
 3329 0e61 A70A0000 		.4byte	0xaa7
 3330 0e65 05       		.byte	0x5
 3331 0e66 03       		.byte	0x3
 3332 0e67 00000000 		.4byte	adcgrpcfg_2
 3333 0e6b 2D       		.uleb128 0x2d
 3334 0e6c 80000000 		.4byte	.LASF161
 3335 0e70 13       		.byte	0x13
 3336 0e71 9806     		.2byte	0x698
 3337 0e73 F4040000 		.4byte	0x4f4
 3338 0e77 01       		.byte	0x1
 3339 0e78 01       		.byte	0x1
 3340 0e79 2D       		.uleb128 0x2d
 3341 0e7a 1C050000 		.4byte	.LASF162
 3342 0e7e 0F       		.byte	0xf
 3343 0e7f 1C02     		.2byte	0x21c
 3344 0e81 AF080000 		.4byte	0x8af
 3345 0e85 01       		.byte	0x1
 3346 0e86 01       		.byte	0x1
 3347 0e87 2D       		.uleb128 0x2d
 3348 0e88 22050000 		.4byte	.LASF163
 3349 0e8c 0F       		.byte	0xf
 3350 0e8d 2002     		.2byte	0x220
 3351 0e8f AF080000 		.4byte	0x8af
 3352 0e93 01       		.byte	0x1
 3353 0e94 01       		.byte	0x1
 3354 0e95 30       		.uleb128 0x30
 3355 0e96 8F020000 		.4byte	.LASF164
 3356 0e9a 01       		.byte	0x1
 3357 0e9b 10       		.byte	0x10
 3358 0e9c 490B0000 		.4byte	0xb49
 3359 0ea0 01       		.byte	0x1
 3360 0ea1 05       		.byte	0x5
 3361 0ea2 03       		.byte	0x3
 3362 0ea3 00000000 		.4byte	measstate
 3363 0ea7 00       		.byte	0x0
 3364              		.section	.debug_abbrev
 3365 0000 01       		.uleb128 0x1
 3366 0001 11       		.uleb128 0x11
 3367 0002 01       		.byte	0x1
 3368 0003 25       		.uleb128 0x25
 3369 0004 0E       		.uleb128 0xe
 3370 0005 13       		.uleb128 0x13
 3371 0006 0B       		.uleb128 0xb
 3372 0007 03       		.uleb128 0x3
 3373 0008 0E       		.uleb128 0xe
 3374 0009 1B       		.uleb128 0x1b
 3375 000a 0E       		.uleb128 0xe
 3376 000b 11       		.uleb128 0x11
 3377 000c 01       		.uleb128 0x1
ARM GAS  C:\Users\DNIEL~1\AppData\Local\Temp\ccIeTsuP.s 			page 61


 3378 000d 52       		.uleb128 0x52
 3379 000e 01       		.uleb128 0x1
 3380 000f 55       		.uleb128 0x55
 3381 0010 06       		.uleb128 0x6
 3382 0011 10       		.uleb128 0x10
 3383 0012 06       		.uleb128 0x6
 3384 0013 00       		.byte	0x0
 3385 0014 00       		.byte	0x0
 3386 0015 02       		.uleb128 0x2
 3387 0016 24       		.uleb128 0x24
 3388 0017 00       		.byte	0x0
 3389 0018 0B       		.uleb128 0xb
 3390 0019 0B       		.uleb128 0xb
 3391 001a 3E       		.uleb128 0x3e
 3392 001b 0B       		.uleb128 0xb
 3393 001c 03       		.uleb128 0x3
 3394 001d 08       		.uleb128 0x8
 3395 001e 00       		.byte	0x0
 3396 001f 00       		.byte	0x0
 3397 0020 03       		.uleb128 0x3
 3398 0021 16       		.uleb128 0x16
 3399 0022 00       		.byte	0x0
 3400 0023 03       		.uleb128 0x3
 3401 0024 0E       		.uleb128 0xe
 3402 0025 3A       		.uleb128 0x3a
 3403 0026 0B       		.uleb128 0xb
 3404 0027 3B       		.uleb128 0x3b
 3405 0028 0B       		.uleb128 0xb
 3406 0029 49       		.uleb128 0x49
 3407 002a 13       		.uleb128 0x13
 3408 002b 00       		.byte	0x0
 3409 002c 00       		.byte	0x0
 3410 002d 04       		.uleb128 0x4
 3411 002e 24       		.uleb128 0x24
 3412 002f 00       		.byte	0x0
 3413 0030 0B       		.uleb128 0xb
 3414 0031 0B       		.uleb128 0xb
 3415 0032 3E       		.uleb128 0x3e
 3416 0033 0B       		.uleb128 0xb
 3417 0034 03       		.uleb128 0x3
 3418 0035 0E       		.uleb128 0xe
 3419 0036 00       		.byte	0x0
 3420 0037 00       		.byte	0x0
 3421 0038 05       		.uleb128 0x5
 3422 0039 13       		.uleb128 0x13
 3423 003a 01       		.byte	0x1
 3424 003b 03       		.uleb128 0x3
 3425 003c 0E       		.uleb128 0xe
 3426 003d 0B       		.uleb128 0xb
 3427 003e 0B       		.uleb128 0xb
 3428 003f 3A       		.uleb128 0x3a
 3429 0040 0B       		.uleb128 0xb
 3430 0041 3B       		.uleb128 0x3b
 3431 0042 0B       		.uleb128 0xb
 3432 0043 01       		.uleb128 0x1
 3433 0044 13       		.uleb128 0x13
 3434 0045 00       		.byte	0x0
ARM GAS  C:\Users\DNIEL~1\AppData\Local\Temp\ccIeTsuP.s 			page 62


 3435 0046 00       		.byte	0x0
 3436 0047 06       		.uleb128 0x6
 3437 0048 0D       		.uleb128 0xd
 3438 0049 00       		.byte	0x0
 3439 004a 03       		.uleb128 0x3
 3440 004b 0E       		.uleb128 0xe
 3441 004c 3A       		.uleb128 0x3a
 3442 004d 0B       		.uleb128 0xb
 3443 004e 3B       		.uleb128 0x3b
 3444 004f 0B       		.uleb128 0xb
 3445 0050 49       		.uleb128 0x49
 3446 0051 13       		.uleb128 0x13
 3447 0052 38       		.uleb128 0x38
 3448 0053 0A       		.uleb128 0xa
 3449 0054 00       		.byte	0x0
 3450 0055 00       		.byte	0x0
 3451 0056 07       		.uleb128 0x7
 3452 0057 0D       		.uleb128 0xd
 3453 0058 00       		.byte	0x0
 3454 0059 03       		.uleb128 0x3
 3455 005a 08       		.uleb128 0x8
 3456 005b 3A       		.uleb128 0x3a
 3457 005c 0B       		.uleb128 0xb
 3458 005d 3B       		.uleb128 0x3b
 3459 005e 0B       		.uleb128 0xb
 3460 005f 49       		.uleb128 0x49
 3461 0060 13       		.uleb128 0x13
 3462 0061 38       		.uleb128 0x38
 3463 0062 0A       		.uleb128 0xa
 3464 0063 00       		.byte	0x0
 3465 0064 00       		.byte	0x0
 3466 0065 08       		.uleb128 0x8
 3467 0066 13       		.uleb128 0x13
 3468 0067 01       		.byte	0x1
 3469 0068 0B       		.uleb128 0xb
 3470 0069 0B       		.uleb128 0xb
 3471 006a 3A       		.uleb128 0x3a
 3472 006b 0B       		.uleb128 0xb
 3473 006c 3B       		.uleb128 0x3b
 3474 006d 0B       		.uleb128 0xb
 3475 006e 01       		.uleb128 0x1
 3476 006f 13       		.uleb128 0x13
 3477 0070 00       		.byte	0x0
 3478 0071 00       		.byte	0x0
 3479 0072 09       		.uleb128 0x9
 3480 0073 0F       		.uleb128 0xf
 3481 0074 00       		.byte	0x0
 3482 0075 0B       		.uleb128 0xb
 3483 0076 0B       		.uleb128 0xb
 3484 0077 49       		.uleb128 0x49
 3485 0078 13       		.uleb128 0x13
 3486 0079 00       		.byte	0x0
 3487 007a 00       		.byte	0x0
 3488 007b 0A       		.uleb128 0xa
 3489 007c 0F       		.uleb128 0xf
 3490 007d 00       		.byte	0x0
 3491 007e 0B       		.uleb128 0xb
ARM GAS  C:\Users\DNIEL~1\AppData\Local\Temp\ccIeTsuP.s 			page 63


 3492 007f 0B       		.uleb128 0xb
 3493 0080 00       		.byte	0x0
 3494 0081 00       		.byte	0x0
 3495 0082 0B       		.uleb128 0xb
 3496 0083 13       		.uleb128 0x13
 3497 0084 01       		.byte	0x1
 3498 0085 03       		.uleb128 0x3
 3499 0086 0E       		.uleb128 0xe
 3500 0087 0B       		.uleb128 0xb
 3501 0088 0B       		.uleb128 0xb
 3502 0089 3A       		.uleb128 0x3a
 3503 008a 0B       		.uleb128 0xb
 3504 008b 3B       		.uleb128 0x3b
 3505 008c 05       		.uleb128 0x5
 3506 008d 01       		.uleb128 0x1
 3507 008e 13       		.uleb128 0x13
 3508 008f 00       		.byte	0x0
 3509 0090 00       		.byte	0x0
 3510 0091 0C       		.uleb128 0xc
 3511 0092 0D       		.uleb128 0xd
 3512 0093 00       		.byte	0x0
 3513 0094 03       		.uleb128 0x3
 3514 0095 08       		.uleb128 0x8
 3515 0096 3A       		.uleb128 0x3a
 3516 0097 0B       		.uleb128 0xb
 3517 0098 3B       		.uleb128 0x3b
 3518 0099 05       		.uleb128 0x5
 3519 009a 49       		.uleb128 0x49
 3520 009b 13       		.uleb128 0x13
 3521 009c 38       		.uleb128 0x38
 3522 009d 0A       		.uleb128 0xa
 3523 009e 00       		.byte	0x0
 3524 009f 00       		.byte	0x0
 3525 00a0 0D       		.uleb128 0xd
 3526 00a1 35       		.uleb128 0x35
 3527 00a2 00       		.byte	0x0
 3528 00a3 49       		.uleb128 0x49
 3529 00a4 13       		.uleb128 0x13
 3530 00a5 00       		.byte	0x0
 3531 00a6 00       		.byte	0x0
 3532 00a7 0E       		.uleb128 0xe
 3533 00a8 17       		.uleb128 0x17
 3534 00a9 01       		.byte	0x1
 3535 00aa 0B       		.uleb128 0xb
 3536 00ab 0B       		.uleb128 0xb
 3537 00ac 3A       		.uleb128 0x3a
 3538 00ad 0B       		.uleb128 0xb
 3539 00ae 3B       		.uleb128 0x3b
 3540 00af 0B       		.uleb128 0xb
 3541 00b0 01       		.uleb128 0x1
 3542 00b1 13       		.uleb128 0x13
 3543 00b2 00       		.byte	0x0
 3544 00b3 00       		.byte	0x0
 3545 00b4 0F       		.uleb128 0xf
 3546 00b5 0D       		.uleb128 0xd
 3547 00b6 00       		.byte	0x0
 3548 00b7 03       		.uleb128 0x3
ARM GAS  C:\Users\DNIEL~1\AppData\Local\Temp\ccIeTsuP.s 			page 64


 3549 00b8 0E       		.uleb128 0xe
 3550 00b9 3A       		.uleb128 0x3a
 3551 00ba 0B       		.uleb128 0xb
 3552 00bb 3B       		.uleb128 0x3b
 3553 00bc 0B       		.uleb128 0xb
 3554 00bd 49       		.uleb128 0x49
 3555 00be 13       		.uleb128 0x13
 3556 00bf 00       		.byte	0x0
 3557 00c0 00       		.byte	0x0
 3558 00c1 10       		.uleb128 0x10
 3559 00c2 26       		.uleb128 0x26
 3560 00c3 00       		.byte	0x0
 3561 00c4 49       		.uleb128 0x49
 3562 00c5 13       		.uleb128 0x13
 3563 00c6 00       		.byte	0x0
 3564 00c7 00       		.byte	0x0
 3565 00c8 11       		.uleb128 0x11
 3566 00c9 15       		.uleb128 0x15
 3567 00ca 01       		.byte	0x1
 3568 00cb 27       		.uleb128 0x27
 3569 00cc 0C       		.uleb128 0xc
 3570 00cd 49       		.uleb128 0x49
 3571 00ce 13       		.uleb128 0x13
 3572 00cf 01       		.uleb128 0x1
 3573 00d0 13       		.uleb128 0x13
 3574 00d1 00       		.byte	0x0
 3575 00d2 00       		.byte	0x0
 3576 00d3 12       		.uleb128 0x12
 3577 00d4 05       		.uleb128 0x5
 3578 00d5 00       		.byte	0x0
 3579 00d6 49       		.uleb128 0x49
 3580 00d7 13       		.uleb128 0x13
 3581 00d8 00       		.byte	0x0
 3582 00d9 00       		.byte	0x0
 3583 00da 13       		.uleb128 0x13
 3584 00db 13       		.uleb128 0x13
 3585 00dc 01       		.byte	0x1
 3586 00dd 0B       		.uleb128 0xb
 3587 00de 0B       		.uleb128 0xb
 3588 00df 3A       		.uleb128 0x3a
 3589 00e0 0B       		.uleb128 0xb
 3590 00e1 3B       		.uleb128 0x3b
 3591 00e2 05       		.uleb128 0x5
 3592 00e3 01       		.uleb128 0x1
 3593 00e4 13       		.uleb128 0x13
 3594 00e5 00       		.byte	0x0
 3595 00e6 00       		.byte	0x0
 3596 00e7 14       		.uleb128 0x14
 3597 00e8 0D       		.uleb128 0xd
 3598 00e9 00       		.byte	0x0
 3599 00ea 03       		.uleb128 0x3
 3600 00eb 0E       		.uleb128 0xe
 3601 00ec 3A       		.uleb128 0x3a
 3602 00ed 0B       		.uleb128 0xb
 3603 00ee 3B       		.uleb128 0x3b
 3604 00ef 05       		.uleb128 0x5
 3605 00f0 49       		.uleb128 0x49
ARM GAS  C:\Users\DNIEL~1\AppData\Local\Temp\ccIeTsuP.s 			page 65


 3606 00f1 13       		.uleb128 0x13
 3607 00f2 38       		.uleb128 0x38
 3608 00f3 0A       		.uleb128 0xa
 3609 00f4 00       		.byte	0x0
 3610 00f5 00       		.byte	0x0
 3611 00f6 15       		.uleb128 0x15
 3612 00f7 16       		.uleb128 0x16
 3613 00f8 00       		.byte	0x0
 3614 00f9 03       		.uleb128 0x3
 3615 00fa 0E       		.uleb128 0xe
 3616 00fb 3A       		.uleb128 0x3a
 3617 00fc 0B       		.uleb128 0xb
 3618 00fd 3B       		.uleb128 0x3b
 3619 00fe 05       		.uleb128 0x5
 3620 00ff 49       		.uleb128 0x49
 3621 0100 13       		.uleb128 0x13
 3622 0101 00       		.byte	0x0
 3623 0102 00       		.byte	0x0
 3624 0103 16       		.uleb128 0x16
 3625 0104 04       		.uleb128 0x4
 3626 0105 01       		.byte	0x1
 3627 0106 0B       		.uleb128 0xb
 3628 0107 0B       		.uleb128 0xb
 3629 0108 3A       		.uleb128 0x3a
 3630 0109 0B       		.uleb128 0xb
 3631 010a 3B       		.uleb128 0x3b
 3632 010b 0B       		.uleb128 0xb
 3633 010c 01       		.uleb128 0x1
 3634 010d 13       		.uleb128 0x13
 3635 010e 00       		.byte	0x0
 3636 010f 00       		.byte	0x0
 3637 0110 17       		.uleb128 0x17
 3638 0111 28       		.uleb128 0x28
 3639 0112 00       		.byte	0x0
 3640 0113 03       		.uleb128 0x3
 3641 0114 0E       		.uleb128 0xe
 3642 0115 1C       		.uleb128 0x1c
 3643 0116 0D       		.uleb128 0xd
 3644 0117 00       		.byte	0x0
 3645 0118 00       		.byte	0x0
 3646 0119 18       		.uleb128 0x18
 3647 011a 04       		.uleb128 0x4
 3648 011b 01       		.byte	0x1
 3649 011c 0B       		.uleb128 0xb
 3650 011d 0B       		.uleb128 0xb
 3651 011e 3A       		.uleb128 0x3a
 3652 011f 0B       		.uleb128 0xb
 3653 0120 3B       		.uleb128 0x3b
 3654 0121 05       		.uleb128 0x5
 3655 0122 01       		.uleb128 0x1
 3656 0123 13       		.uleb128 0x13
 3657 0124 00       		.byte	0x0
 3658 0125 00       		.byte	0x0
 3659 0126 19       		.uleb128 0x19
 3660 0127 15       		.uleb128 0x15
 3661 0128 01       		.byte	0x1
 3662 0129 27       		.uleb128 0x27
ARM GAS  C:\Users\DNIEL~1\AppData\Local\Temp\ccIeTsuP.s 			page 66


 3663 012a 0C       		.uleb128 0xc
 3664 012b 01       		.uleb128 0x1
 3665 012c 13       		.uleb128 0x13
 3666 012d 00       		.byte	0x0
 3667 012e 00       		.byte	0x0
 3668 012f 1A       		.uleb128 0x1a
 3669 0130 04       		.uleb128 0x4
 3670 0131 01       		.byte	0x1
 3671 0132 03       		.uleb128 0x3
 3672 0133 0E       		.uleb128 0xe
 3673 0134 0B       		.uleb128 0xb
 3674 0135 0B       		.uleb128 0xb
 3675 0136 3A       		.uleb128 0x3a
 3676 0137 0B       		.uleb128 0xb
 3677 0138 3B       		.uleb128 0x3b
 3678 0139 0B       		.uleb128 0xb
 3679 013a 01       		.uleb128 0x1
 3680 013b 13       		.uleb128 0x13
 3681 013c 00       		.byte	0x0
 3682 013d 00       		.byte	0x0
 3683 013e 1B       		.uleb128 0x1b
 3684 013f 0D       		.uleb128 0xd
 3685 0140 00       		.byte	0x0
 3686 0141 03       		.uleb128 0x3
 3687 0142 0E       		.uleb128 0xe
 3688 0143 49       		.uleb128 0x49
 3689 0144 13       		.uleb128 0x13
 3690 0145 38       		.uleb128 0x38
 3691 0146 0A       		.uleb128 0xa
 3692 0147 34       		.uleb128 0x34
 3693 0148 0C       		.uleb128 0xc
 3694 0149 00       		.byte	0x0
 3695 014a 00       		.byte	0x0
 3696 014b 1C       		.uleb128 0x1c
 3697 014c 2E       		.uleb128 0x2e
 3698 014d 01       		.byte	0x1
 3699 014e 03       		.uleb128 0x3
 3700 014f 0E       		.uleb128 0xe
 3701 0150 3A       		.uleb128 0x3a
 3702 0151 0B       		.uleb128 0xb
 3703 0152 3B       		.uleb128 0x3b
 3704 0153 0B       		.uleb128 0xb
 3705 0154 27       		.uleb128 0x27
 3706 0155 0C       		.uleb128 0xc
 3707 0156 11       		.uleb128 0x11
 3708 0157 01       		.uleb128 0x1
 3709 0158 12       		.uleb128 0x12
 3710 0159 01       		.uleb128 0x1
 3711 015a 40       		.uleb128 0x40
 3712 015b 0A       		.uleb128 0xa
 3713 015c 01       		.uleb128 0x1
 3714 015d 13       		.uleb128 0x13
 3715 015e 00       		.byte	0x0
 3716 015f 00       		.byte	0x0
 3717 0160 1D       		.uleb128 0x1d
 3718 0161 05       		.uleb128 0x5
 3719 0162 00       		.byte	0x0
ARM GAS  C:\Users\DNIEL~1\AppData\Local\Temp\ccIeTsuP.s 			page 67


 3720 0163 03       		.uleb128 0x3
 3721 0164 0E       		.uleb128 0xe
 3722 0165 3A       		.uleb128 0x3a
 3723 0166 0B       		.uleb128 0xb
 3724 0167 3B       		.uleb128 0x3b
 3725 0168 0B       		.uleb128 0xb
 3726 0169 49       		.uleb128 0x49
 3727 016a 13       		.uleb128 0x13
 3728 016b 02       		.uleb128 0x2
 3729 016c 0A       		.uleb128 0xa
 3730 016d 00       		.byte	0x0
 3731 016e 00       		.byte	0x0
 3732 016f 1E       		.uleb128 0x1e
 3733 0170 05       		.uleb128 0x5
 3734 0171 00       		.byte	0x0
 3735 0172 03       		.uleb128 0x3
 3736 0173 08       		.uleb128 0x8
 3737 0174 3A       		.uleb128 0x3a
 3738 0175 0B       		.uleb128 0xb
 3739 0176 3B       		.uleb128 0x3b
 3740 0177 0B       		.uleb128 0xb
 3741 0178 49       		.uleb128 0x49
 3742 0179 13       		.uleb128 0x13
 3743 017a 02       		.uleb128 0x2
 3744 017b 0A       		.uleb128 0xa
 3745 017c 00       		.byte	0x0
 3746 017d 00       		.byte	0x0
 3747 017e 1F       		.uleb128 0x1f
 3748 017f 2E       		.uleb128 0x2e
 3749 0180 01       		.byte	0x1
 3750 0181 03       		.uleb128 0x3
 3751 0182 0E       		.uleb128 0xe
 3752 0183 3A       		.uleb128 0x3a
 3753 0184 0B       		.uleb128 0xb
 3754 0185 3B       		.uleb128 0x3b
 3755 0186 0B       		.uleb128 0xb
 3756 0187 27       		.uleb128 0x27
 3757 0188 0C       		.uleb128 0xc
 3758 0189 11       		.uleb128 0x11
 3759 018a 01       		.uleb128 0x1
 3760 018b 12       		.uleb128 0x12
 3761 018c 01       		.uleb128 0x1
 3762 018d 40       		.uleb128 0x40
 3763 018e 06       		.uleb128 0x6
 3764 018f 01       		.uleb128 0x1
 3765 0190 13       		.uleb128 0x13
 3766 0191 00       		.byte	0x0
 3767 0192 00       		.byte	0x0
 3768 0193 20       		.uleb128 0x20
 3769 0194 05       		.uleb128 0x5
 3770 0195 00       		.byte	0x0
 3771 0196 03       		.uleb128 0x3
 3772 0197 08       		.uleb128 0x8
 3773 0198 3A       		.uleb128 0x3a
 3774 0199 0B       		.uleb128 0xb
 3775 019a 3B       		.uleb128 0x3b
 3776 019b 0B       		.uleb128 0xb
ARM GAS  C:\Users\DNIEL~1\AppData\Local\Temp\ccIeTsuP.s 			page 68


 3777 019c 49       		.uleb128 0x49
 3778 019d 13       		.uleb128 0x13
 3779 019e 02       		.uleb128 0x2
 3780 019f 06       		.uleb128 0x6
 3781 01a0 00       		.byte	0x0
 3782 01a1 00       		.byte	0x0
 3783 01a2 21       		.uleb128 0x21
 3784 01a3 18       		.uleb128 0x18
 3785 01a4 00       		.byte	0x0
 3786 01a5 00       		.byte	0x0
 3787 01a6 00       		.byte	0x0
 3788 01a7 22       		.uleb128 0x22
 3789 01a8 34       		.uleb128 0x34
 3790 01a9 00       		.byte	0x0
 3791 01aa 03       		.uleb128 0x3
 3792 01ab 08       		.uleb128 0x8
 3793 01ac 3A       		.uleb128 0x3a
 3794 01ad 0B       		.uleb128 0xb
 3795 01ae 3B       		.uleb128 0x3b
 3796 01af 0B       		.uleb128 0xb
 3797 01b0 49       		.uleb128 0x49
 3798 01b1 13       		.uleb128 0x13
 3799 01b2 02       		.uleb128 0x2
 3800 01b3 0A       		.uleb128 0xa
 3801 01b4 00       		.byte	0x0
 3802 01b5 00       		.byte	0x0
 3803 01b6 23       		.uleb128 0x23
 3804 01b7 2E       		.uleb128 0x2e
 3805 01b8 00       		.byte	0x0
 3806 01b9 3F       		.uleb128 0x3f
 3807 01ba 0C       		.uleb128 0xc
 3808 01bb 03       		.uleb128 0x3
 3809 01bc 0E       		.uleb128 0xe
 3810 01bd 3A       		.uleb128 0x3a
 3811 01be 0B       		.uleb128 0xb
 3812 01bf 3B       		.uleb128 0x3b
 3813 01c0 0B       		.uleb128 0xb
 3814 01c1 27       		.uleb128 0x27
 3815 01c2 0C       		.uleb128 0xc
 3816 01c3 11       		.uleb128 0x11
 3817 01c4 01       		.uleb128 0x1
 3818 01c5 12       		.uleb128 0x12
 3819 01c6 01       		.uleb128 0x1
 3820 01c7 40       		.uleb128 0x40
 3821 01c8 06       		.uleb128 0x6
 3822 01c9 00       		.byte	0x0
 3823 01ca 00       		.byte	0x0
 3824 01cb 24       		.uleb128 0x24
 3825 01cc 2E       		.uleb128 0x2e
 3826 01cd 01       		.byte	0x1
 3827 01ce 3F       		.uleb128 0x3f
 3828 01cf 0C       		.uleb128 0xc
 3829 01d0 03       		.uleb128 0x3
 3830 01d1 0E       		.uleb128 0xe
 3831 01d2 3A       		.uleb128 0x3a
 3832 01d3 0B       		.uleb128 0xb
 3833 01d4 3B       		.uleb128 0x3b
ARM GAS  C:\Users\DNIEL~1\AppData\Local\Temp\ccIeTsuP.s 			page 69


 3834 01d5 0B       		.uleb128 0xb
 3835 01d6 27       		.uleb128 0x27
 3836 01d7 0C       		.uleb128 0xc
 3837 01d8 11       		.uleb128 0x11
 3838 01d9 01       		.uleb128 0x1
 3839 01da 12       		.uleb128 0x12
 3840 01db 01       		.uleb128 0x1
 3841 01dc 40       		.uleb128 0x40
 3842 01dd 06       		.uleb128 0x6
 3843 01de 01       		.uleb128 0x1
 3844 01df 13       		.uleb128 0x13
 3845 01e0 00       		.byte	0x0
 3846 01e1 00       		.byte	0x0
 3847 01e2 25       		.uleb128 0x25
 3848 01e3 34       		.uleb128 0x34
 3849 01e4 00       		.byte	0x0
 3850 01e5 03       		.uleb128 0x3
 3851 01e6 08       		.uleb128 0x8
 3852 01e7 3A       		.uleb128 0x3a
 3853 01e8 0B       		.uleb128 0xb
 3854 01e9 3B       		.uleb128 0x3b
 3855 01ea 0B       		.uleb128 0xb
 3856 01eb 49       		.uleb128 0x49
 3857 01ec 13       		.uleb128 0x13
 3858 01ed 02       		.uleb128 0x2
 3859 01ee 06       		.uleb128 0x6
 3860 01ef 00       		.byte	0x0
 3861 01f0 00       		.byte	0x0
 3862 01f1 26       		.uleb128 0x26
 3863 01f2 0B       		.uleb128 0xb
 3864 01f3 01       		.byte	0x1
 3865 01f4 55       		.uleb128 0x55
 3866 01f5 06       		.uleb128 0x6
 3867 01f6 01       		.uleb128 0x1
 3868 01f7 13       		.uleb128 0x13
 3869 01f8 00       		.byte	0x0
 3870 01f9 00       		.byte	0x0
 3871 01fa 27       		.uleb128 0x27
 3872 01fb 0B       		.uleb128 0xb
 3873 01fc 01       		.byte	0x1
 3874 01fd 55       		.uleb128 0x55
 3875 01fe 06       		.uleb128 0x6
 3876 01ff 00       		.byte	0x0
 3877 0200 00       		.byte	0x0
 3878 0201 28       		.uleb128 0x28
 3879 0202 2E       		.uleb128 0x2e
 3880 0203 01       		.byte	0x1
 3881 0204 3F       		.uleb128 0x3f
 3882 0205 0C       		.uleb128 0xc
 3883 0206 03       		.uleb128 0x3
 3884 0207 0E       		.uleb128 0xe
 3885 0208 3A       		.uleb128 0x3a
 3886 0209 0B       		.uleb128 0xb
 3887 020a 3B       		.uleb128 0x3b
 3888 020b 0B       		.uleb128 0xb
 3889 020c 27       		.uleb128 0x27
 3890 020d 0C       		.uleb128 0xc
ARM GAS  C:\Users\DNIEL~1\AppData\Local\Temp\ccIeTsuP.s 			page 70


 3891 020e 49       		.uleb128 0x49
 3892 020f 13       		.uleb128 0x13
 3893 0210 11       		.uleb128 0x11
 3894 0211 01       		.uleb128 0x1
 3895 0212 12       		.uleb128 0x12
 3896 0213 01       		.uleb128 0x1
 3897 0214 40       		.uleb128 0x40
 3898 0215 0A       		.uleb128 0xa
 3899 0216 01       		.uleb128 0x1
 3900 0217 13       		.uleb128 0x13
 3901 0218 00       		.byte	0x0
 3902 0219 00       		.byte	0x0
 3903 021a 29       		.uleb128 0x29
 3904 021b 05       		.uleb128 0x5
 3905 021c 00       		.byte	0x0
 3906 021d 03       		.uleb128 0x3
 3907 021e 0E       		.uleb128 0xe
 3908 021f 3A       		.uleb128 0x3a
 3909 0220 0B       		.uleb128 0xb
 3910 0221 3B       		.uleb128 0x3b
 3911 0222 0B       		.uleb128 0xb
 3912 0223 49       		.uleb128 0x49
 3913 0224 13       		.uleb128 0x13
 3914 0225 02       		.uleb128 0x2
 3915 0226 06       		.uleb128 0x6
 3916 0227 00       		.byte	0x0
 3917 0228 00       		.byte	0x0
 3918 0229 2A       		.uleb128 0x2a
 3919 022a 34       		.uleb128 0x34
 3920 022b 00       		.byte	0x0
 3921 022c 03       		.uleb128 0x3
 3922 022d 0E       		.uleb128 0xe
 3923 022e 3A       		.uleb128 0x3a
 3924 022f 0B       		.uleb128 0xb
 3925 0230 3B       		.uleb128 0x3b
 3926 0231 0B       		.uleb128 0xb
 3927 0232 49       		.uleb128 0x49
 3928 0233 13       		.uleb128 0x13
 3929 0234 00       		.byte	0x0
 3930 0235 00       		.byte	0x0
 3931 0236 2B       		.uleb128 0x2b
 3932 0237 01       		.uleb128 0x1
 3933 0238 01       		.byte	0x1
 3934 0239 49       		.uleb128 0x49
 3935 023a 13       		.uleb128 0x13
 3936 023b 01       		.uleb128 0x1
 3937 023c 13       		.uleb128 0x13
 3938 023d 00       		.byte	0x0
 3939 023e 00       		.byte	0x0
 3940 023f 2C       		.uleb128 0x2c
 3941 0240 21       		.uleb128 0x21
 3942 0241 00       		.byte	0x0
 3943 0242 49       		.uleb128 0x49
 3944 0243 13       		.uleb128 0x13
 3945 0244 2F       		.uleb128 0x2f
 3946 0245 0B       		.uleb128 0xb
 3947 0246 00       		.byte	0x0
ARM GAS  C:\Users\DNIEL~1\AppData\Local\Temp\ccIeTsuP.s 			page 71


 3948 0247 00       		.byte	0x0
 3949 0248 2D       		.uleb128 0x2d
 3950 0249 34       		.uleb128 0x34
 3951 024a 00       		.byte	0x0
 3952 024b 03       		.uleb128 0x3
 3953 024c 0E       		.uleb128 0xe
 3954 024d 3A       		.uleb128 0x3a
 3955 024e 0B       		.uleb128 0xb
 3956 024f 3B       		.uleb128 0x3b
 3957 0250 05       		.uleb128 0x5
 3958 0251 49       		.uleb128 0x49
 3959 0252 13       		.uleb128 0x13
 3960 0253 3F       		.uleb128 0x3f
 3961 0254 0C       		.uleb128 0xc
 3962 0255 3C       		.uleb128 0x3c
 3963 0256 0C       		.uleb128 0xc
 3964 0257 00       		.byte	0x0
 3965 0258 00       		.byte	0x0
 3966 0259 2E       		.uleb128 0x2e
 3967 025a 34       		.uleb128 0x34
 3968 025b 00       		.byte	0x0
 3969 025c 03       		.uleb128 0x3
 3970 025d 0E       		.uleb128 0xe
 3971 025e 3A       		.uleb128 0x3a
 3972 025f 0B       		.uleb128 0xb
 3973 0260 3B       		.uleb128 0x3b
 3974 0261 0B       		.uleb128 0xb
 3975 0262 49       		.uleb128 0x49
 3976 0263 13       		.uleb128 0x13
 3977 0264 3F       		.uleb128 0x3f
 3978 0265 0C       		.uleb128 0xc
 3979 0266 3C       		.uleb128 0x3c
 3980 0267 0C       		.uleb128 0xc
 3981 0268 00       		.byte	0x0
 3982 0269 00       		.byte	0x0
 3983 026a 2F       		.uleb128 0x2f
 3984 026b 34       		.uleb128 0x34
 3985 026c 00       		.byte	0x0
 3986 026d 03       		.uleb128 0x3
 3987 026e 0E       		.uleb128 0xe
 3988 026f 3A       		.uleb128 0x3a
 3989 0270 0B       		.uleb128 0xb
 3990 0271 3B       		.uleb128 0x3b
 3991 0272 0B       		.uleb128 0xb
 3992 0273 49       		.uleb128 0x49
 3993 0274 13       		.uleb128 0x13
 3994 0275 02       		.uleb128 0x2
 3995 0276 0A       		.uleb128 0xa
 3996 0277 00       		.byte	0x0
 3997 0278 00       		.byte	0x0
 3998 0279 30       		.uleb128 0x30
 3999 027a 34       		.uleb128 0x34
 4000 027b 00       		.byte	0x0
 4001 027c 03       		.uleb128 0x3
 4002 027d 0E       		.uleb128 0xe
 4003 027e 3A       		.uleb128 0x3a
 4004 027f 0B       		.uleb128 0xb
ARM GAS  C:\Users\DNIEL~1\AppData\Local\Temp\ccIeTsuP.s 			page 72


 4005 0280 3B       		.uleb128 0x3b
 4006 0281 0B       		.uleb128 0xb
 4007 0282 49       		.uleb128 0x49
 4008 0283 13       		.uleb128 0x13
 4009 0284 3F       		.uleb128 0x3f
 4010 0285 0C       		.uleb128 0xc
 4011 0286 02       		.uleb128 0x2
 4012 0287 0A       		.uleb128 0xa
 4013 0288 00       		.byte	0x0
 4014 0289 00       		.byte	0x0
 4015 028a 00       		.byte	0x0
 4016              		.section	.debug_pubnames,"",%progbits
 4017 0000 6D000000 		.4byte	0x6d
 4018 0004 0200     		.2byte	0x2
 4019 0006 00000000 		.4byte	.Ldebug_info0
 4020 000a A80E0000 		.4byte	0xea8
 4021 000e DE0B0000 		.4byte	0xbde
 4022 0012 6D656173 		.ascii	"measInit\000"
 4022      496E6974 
 4022      00
 4023 001b F30B0000 		.4byte	0xbf3
 4024 001f 6D656173 		.ascii	"measCalc\000"
 4024      43616C63 
 4024      00
 4025 0028 970C0000 		.4byte	0xc97
 4026 002c 6D656173 		.ascii	"measGetValue\000"
 4026      47657456 
 4026      616C7565 
 4026      00
 4027 0039 C20C0000 		.4byte	0xcc2
 4028 003d 6D656173 		.ascii	"measGetValue_2\000"
 4028      47657456 
 4028      616C7565 
 4028      5F3200
 4029 004c ED0C0000 		.4byte	0xced
 4030 0050 636D645F 		.ascii	"cmd_measvalues\000"
 4030      6D656173 
 4030      76616C75 
 4030      657300
 4031 005f 950E0000 		.4byte	0xe95
 4032 0063 6D656173 		.ascii	"measstate\000"
 4032      73746174 
 4032      6500
 4033 006d 00000000 		.4byte	0x0
 4034              		.section	.debug_pubtypes,"",%progbits
 4035 0000 DC020000 		.4byte	0x2dc
 4036 0004 0200     		.2byte	0x2
 4037 0006 00000000 		.4byte	.Ldebug_info0
 4038 000a A80E0000 		.4byte	0xea8
 4039 000e 30000000 		.4byte	0x30
 4040 0012 73697A65 		.ascii	"size_t\000"
 4040      5F7400
 4041 0019 49000000 		.4byte	0x49
 4042 001d 75696E74 		.ascii	"uint8_t\000"
 4042      385F7400 
 4043 0025 5B000000 		.4byte	0x5b
 4044 0029 696E7431 		.ascii	"int16_t\000"
ARM GAS  C:\Users\DNIEL~1\AppData\Local\Temp\ccIeTsuP.s 			page 73


 4044      365F7400 
 4045 0031 6D000000 		.4byte	0x6d
 4046 0035 75696E74 		.ascii	"uint16_t\000"
 4046      31365F74 
 4046      00
 4047 003e 7F000000 		.4byte	0x7f
 4048 0042 696E7433 		.ascii	"int32_t\000"
 4048      325F7400 
 4049 004a 91000000 		.4byte	0x91
 4050 004e 75696E74 		.ascii	"uint32_t\000"
 4050      33325F74 
 4050      00
 4051 0057 B1000000 		.4byte	0xb1
 4052 005b 626F6F6C 		.ascii	"bool_t\000"
 4052      5F7400
 4053 0062 C3000000 		.4byte	0xc3
 4054 0066 746D6F64 		.ascii	"tmode_t\000"
 4054      655F7400 
 4055 006e CE000000 		.4byte	0xce
 4056 0072 74737461 		.ascii	"tstate_t\000"
 4056      74655F74 
 4056      00
 4057 007b D9000000 		.4byte	0xd9
 4058 007f 74726566 		.ascii	"trefs_t\000"
 4058      735F7400 
 4059 0087 E4000000 		.4byte	0xe4
 4060 008b 74736C69 		.ascii	"tslices_t\000"
 4060      6365735F 
 4060      7400
 4061 0095 EF000000 		.4byte	0xef
 4062 0099 74707269 		.ascii	"tprio_t\000"
 4062      6F5F7400 
 4063 00a1 FA000000 		.4byte	0xfa
 4064 00a5 6D73675F 		.ascii	"msg_t\000"
 4064      7400
 4065 00ab 05010000 		.4byte	0x105
 4066 00af 6576656E 		.ascii	"eventmask_t\000"
 4066      746D6173 
 4066      6B5F7400 
 4067 00bb 10010000 		.4byte	0x110
 4068 00bf 73797374 		.ascii	"systime_t\000"
 4068      696D655F 
 4068      7400
 4069 00c9 1B010000 		.4byte	0x11b
 4070 00cd 54687265 		.ascii	"Thread\000"
 4070      616400
 4071 00d4 76020000 		.4byte	0x276
 4072 00d8 54687265 		.ascii	"ThreadsQueue\000"
 4072      61647351 
 4072      75657565 
 4072      00
 4073 00e5 98020000 		.4byte	0x298
 4074 00e9 54687265 		.ascii	"ThreadsList\000"
 4074      6164734C 
 4074      69737400 
 4075 00f5 A3020000 		.4byte	0x2a3
 4076 00f9 72656761 		.ascii	"regarm_t\000"
ARM GAS  C:\Users\DNIEL~1\AppData\Local\Temp\ccIeTsuP.s 			page 74


 4076      726D5F74 
 4076      00
 4077 0102 B0020000 		.4byte	0x2b0
 4078 0106 696E7463 		.ascii	"intctx\000"
 4078      747800
 4079 010d 3E030000 		.4byte	0x33e
 4080 0111 636F6E74 		.ascii	"context\000"
 4080      65787400 
 4081 0119 6B030000 		.4byte	0x36b
 4082 011d 4D757465 		.ascii	"Mutex\000"
 4082      7800
 4083 0123 A8030000 		.4byte	0x3a8
 4084 0127 4D757465 		.ascii	"Mutex\000"
 4084      7800
 4085 012d 26010000 		.4byte	0x126
 4086 0131 54687265 		.ascii	"Thread\000"
 4086      616400
 4087 0138 1C040000 		.4byte	0x41c
 4088 013c 42617365 		.ascii	"BaseSequentialStreamVMT\000"
 4088      53657175 
 4088      656E7469 
 4088      616C5374 
 4088      7265616D 
 4089 0154 E9040000 		.4byte	0x4e9
 4090 0158 42617365 		.ascii	"BaseSequentialStream\000"
 4090      53657175 
 4090      656E7469 
 4090      616C5374 
 4090      7265616D 
 4091 016d 2D060000 		.4byte	0x62d
 4092 0171 4144435F 		.ascii	"ADC_TypeDef\000"
 4092      54797065 
 4092      44656600 
 4093 017d 9C060000 		.4byte	0x69c
 4094 0181 444D415F 		.ascii	"DMA_Stream_TypeDef\000"
 4094      53747265 
 4094      616D5F54 
 4094      79706544 
 4094      656600
 4095 0194 03070000 		.4byte	0x703
 4096 0198 73746D33 		.ascii	"stm32_dma_stream_t\000"
 4096      325F646D 
 4096      615F7374 
 4096      7265616D 
 4096      5F7400
 4097 01ab 0E070000 		.4byte	0x70e
 4098 01af 42617365 		.ascii	"BaseChannelVMT\000"
 4098      4368616E 
 4098      6E656C56 
 4098      4D5400
 4099 01be 32080000 		.4byte	0x832
 4100 01c2 42617365 		.ascii	"BaseChannel\000"
 4100      4368616E 
 4100      6E656C00 
 4101 01ce 6A080000 		.4byte	0x86a
 4102 01d2 61646373 		.ascii	"adcstate_t\000"
 4102      74617465 
ARM GAS  C:\Users\DNIEL~1\AppData\Local\Temp\ccIeTsuP.s 			page 75


 4102      5F7400
 4103 01dd 75080000 		.4byte	0x875
 4104 01e1 61646373 		.ascii	"adcsample_t\000"
 4104      616D706C 
 4104      655F7400 
 4105 01ed 81080000 		.4byte	0x881
 4106 01f1 6164635F 		.ascii	"adc_channels_num_t\000"
 4106      6368616E 
 4106      6E656C73 
 4106      5F6E756D 
 4106      5F7400
 4107 0204 A3080000 		.4byte	0x8a3
 4108 0208 61646365 		.ascii	"adcerror_t\000"
 4108      72726F72 
 4108      5F7400
 4109 0213 AF080000 		.4byte	0x8af
 4110 0217 41444344 		.ascii	"ADCDriver\000"
 4110      72697665 
 4110      7200
 4111 0221 5F090000 		.4byte	0x95f
 4112 0225 61646363 		.ascii	"adccallback_t\000"
 4112      616C6C62 
 4112      61636B5F 
 4112      7400
 4113 0233 93090000 		.4byte	0x993
 4114 0237 61646365 		.ascii	"adcerrorcallback_t\000"
 4114      72726F72 
 4114      63616C6C 
 4114      6261636B 
 4114      5F7400
 4115 024a 650A0000 		.4byte	0xa65
 4116 024e 41444343 		.ascii	"ADCConversionGroup\000"
 4116      6F6E7665 
 4116      7273696F 
 4116      6E47726F 
 4116      757000
 4117 0261 8A0A0000 		.4byte	0xa8a
 4118 0265 41444343 		.ascii	"ADCConfig\000"
 4118      6F6E6669 
 4118      6700
 4119 026f BB080000 		.4byte	0x8bb
 4120 0273 41444344 		.ascii	"ADCDriver\000"
 4120      72697665 
 4120      7200
 4121 027d BD0A0000 		.4byte	0xabd
 4122 0281 6D656173 		.ascii	"measChannels\000"
 4122      4368616E 
 4122      6E656C73 
 4122      00
 4123 028e FA0A0000 		.4byte	0xafa
 4124 0292 6D656173 		.ascii	"measChannels2\000"
 4124      4368616E 
 4124      6E656C73 
 4124      3200
 4125 02a0 240B0000 		.4byte	0xb24
 4126 02a4 5F5F7661 		.ascii	"__va_list\000"
 4126      5F6C6973 
ARM GAS  C:\Users\DNIEL~1\AppData\Local\Temp\ccIeTsuP.s 			page 76


 4126      7400
 4127 02ae 190B0000 		.4byte	0xb19
 4128 02b2 5F5F676E 		.ascii	"__gnuc_va_list\000"
 4128      75635F76 
 4128      615F6C69 
 4128      737400
 4129 02c1 3E0B0000 		.4byte	0xb3e
 4130 02c5 76615F6C 		.ascii	"va_list\000"
 4130      69737400 
 4131 02cd 490B0000 		.4byte	0xb49
 4132 02d1 6D656173 		.ascii	"measStates\000"
 4132      53746174 
 4132      657300
 4133 02dc 00000000 		.4byte	0x0
 4134              		.section	.debug_aranges,"",%progbits
 4135 0000 4C000000 		.4byte	0x4c
 4136 0004 0200     		.2byte	0x2
 4137 0006 00000000 		.4byte	.Ldebug_info0
 4138 000a 04       		.byte	0x4
 4139 000b 00       		.byte	0x0
 4140 000c 0000     		.2byte	0x0
 4141 000e 0000     		.2byte	0x0
 4142 0010 00000000 		.4byte	.LFB123
 4143 0014 02000000 		.4byte	.LFE123-.LFB123
 4144 0018 00000000 		.4byte	.LFB118
 4145 001c 1E000000 		.4byte	.LFE118-.LFB118
 4146 0020 00000000 		.4byte	.LFB119
 4147 0024 28000000 		.4byte	.LFE119-.LFB119
 4148 0028 00000000 		.4byte	.LFB120
 4149 002c 7C020000 		.4byte	.LFE120-.LFB120
 4150 0030 00000000 		.4byte	.LFB121
 4151 0034 0C000000 		.4byte	.LFE121-.LFB121
 4152 0038 00000000 		.4byte	.LFB122
 4153 003c 0C000000 		.4byte	.LFE122-.LFB122
 4154 0040 00000000 		.4byte	.LFB124
 4155 0044 E8000000 		.4byte	.LFE124-.LFB124
 4156 0048 00000000 		.4byte	0x0
 4157 004c 00000000 		.4byte	0x0
 4158              		.section	.debug_ranges,"",%progbits
 4159              	.Ldebug_ranges0:
 4160 0000 6A000000 		.4byte	.LBB2
 4161 0004 70000000 		.4byte	.LBE2
 4162 0008 F4010000 		.4byte	.LBB14
 4163 000c FA010000 		.4byte	.LBE14
 4164 0010 B2010000 		.4byte	.LBB12
 4165 0014 B8010000 		.4byte	.LBE12
 4166 0018 72010000 		.4byte	.LBB10
 4167 001c 78010000 		.4byte	.LBE10
 4168 0020 32010000 		.4byte	.LBB8
 4169 0024 38010000 		.4byte	.LBE8
 4170 0028 F4000000 		.4byte	.LBB6
 4171 002c FA000000 		.4byte	.LBE6
 4172 0030 B6000000 		.4byte	.LBB4
 4173 0034 BC000000 		.4byte	.LBE4
 4174 0038 00000000 		.4byte	0x0
 4175 003c 00000000 		.4byte	0x0
 4176 0040 84000000 		.4byte	.LBB3
ARM GAS  C:\Users\DNIEL~1\AppData\Local\Temp\ccIeTsuP.s 			page 77


 4177 0044 8A000000 		.4byte	.LBE3
 4178 0048 00020000 		.4byte	.LBB15
 4179 004c 06020000 		.4byte	.LBE15
 4180 0050 BE010000 		.4byte	.LBB13
 4181 0054 C4010000 		.4byte	.LBE13
 4182 0058 7E010000 		.4byte	.LBB11
 4183 005c 84010000 		.4byte	.LBE11
 4184 0060 3E010000 		.4byte	.LBB9
 4185 0064 44010000 		.4byte	.LBE9
 4186 0068 00010000 		.4byte	.LBB7
 4187 006c 06010000 		.4byte	.LBE7
 4188 0070 C2000000 		.4byte	.LBB5
 4189 0074 C8000000 		.4byte	.LBE5
 4190 0078 00000000 		.4byte	0x0
 4191 007c 00000000 		.4byte	0x0
 4192 0080 30020000 		.4byte	.LBB16
 4193 0084 36020000 		.4byte	.LBE16
 4194 0088 44020000 		.4byte	.LBB18
 4195 008c 4A020000 		.4byte	.LBE18
 4196 0090 00000000 		.4byte	0x0
 4197 0094 00000000 		.4byte	0x0
 4198 0098 3E020000 		.4byte	.LBB17
 4199 009c 44020000 		.4byte	.LBE17
 4200 00a0 4E020000 		.4byte	.LBB19
 4201 00a4 7C020000 		.4byte	.LBE19
 4202 00a8 00000000 		.4byte	0x0
 4203 00ac 00000000 		.4byte	0x0
 4204 00b0 00000000 		.4byte	.LFB123
 4205 00b4 02000000 		.4byte	.LFE123
 4206 00b8 00000000 		.4byte	.LFB118
 4207 00bc 1E000000 		.4byte	.LFE118
 4208 00c0 00000000 		.4byte	.LFB119
 4209 00c4 28000000 		.4byte	.LFE119
 4210 00c8 00000000 		.4byte	.LFB120
 4211 00cc 7C020000 		.4byte	.LFE120
 4212 00d0 00000000 		.4byte	.LFB121
 4213 00d4 0C000000 		.4byte	.LFE121
 4214 00d8 00000000 		.4byte	.LFB122
 4215 00dc 0C000000 		.4byte	.LFE122
 4216 00e0 00000000 		.4byte	.LFB124
 4217 00e4 E8000000 		.4byte	.LFE124
 4218 00e8 00000000 		.4byte	0x0
 4219 00ec 00000000 		.4byte	0x0
 4220              		.section	.debug_str,"MS",%progbits,1
 4221              	.LASF79:
 4222 0000 4D304152 		.ascii	"M0AR\000"
 4222      00
 4223              	.LASF2:
 4224 0005 73697A65 		.ascii	"size_t\000"
 4224      5F7400
 4225              	.LASF54:
 4226 000c 7264796D 		.ascii	"rdymsg\000"
 4226      736700
 4227              	.LASF115:
 4228 0013 646D616D 		.ascii	"dmamode\000"
 4228      6F646500 
 4229              	.LASF100:
ARM GAS  C:\Users\DNIEL~1\AppData\Local\Temp\ccIeTsuP.s 			page 78


 4230 001b 61646373 		.ascii	"adcstate_t\000"
 4230      74617465 
 4230      5F7400
 4231              	.LASF86:
 4232 0026 76656374 		.ascii	"vector\000"
 4232      6F7200
 4233              	.LASF146:
 4234 002d 76615F6C 		.ascii	"va_list\000"
 4234      69737400 
 4235              	.LASF82:
 4236 0035 73747265 		.ascii	"stream\000"
 4236      616D00
 4237              	.LASF14:
 4238 003c 6C6F6E67 		.ascii	"long long unsigned int\000"
 4238      206C6F6E 
 4238      6720756E 
 4238      7369676E 
 4238      65642069 
 4239              	.LASF88:
 4240 0053 42617365 		.ascii	"BaseChannelVMT\000"
 4240      4368616E 
 4240      6E656C56 
 4240      4D5400
 4241              	.LASF55:
 4242 0062 65786974 		.ascii	"exitcode\000"
 4242      636F6465 
 4242      00
 4243              	.LASF94:
 4244 006b 4144435F 		.ascii	"ADC_UNINIT\000"
 4244      554E494E 
 4244      495400
 4245              	.LASF168:
 4246 0076 61646367 		.ascii	"adcgrpcfg\000"
 4246      72706366 
 4246      6700
 4247              	.LASF161:
 4248 0080 49544D5F 		.ascii	"ITM_RxBuffer\000"
 4248      52784275 
 4248      66666572 
 4248      00
 4249              	.LASF173:
 4250 008d 6D656173 		.ascii	"measInit\000"
 4250      496E6974 
 4250      00
 4251              	.LASF28:
 4252 0096 705F7072 		.ascii	"p_prio\000"
 4252      696F00
 4253              	.LASF92:
 4254 009d 72656164 		.ascii	"readt\000"
 4254      7400
 4255              	.LASF72:
 4256 00a3 4A535152 		.ascii	"JSQR\000"
 4256      00
 4257              	.LASF5:
 4258 00a8 696E7431 		.ascii	"int16_t\000"
 4258      365F7400 
 4259              	.LASF13:
ARM GAS  C:\Users\DNIEL~1\AppData\Local\Temp\ccIeTsuP.s 			page 79


 4260 00b0 6C6F6E67 		.ascii	"long long int\000"
 4260      206C6F6E 
 4260      6720696E 
 4260      7400
 4261              	.LASF1:
 4262 00be 7369676E 		.ascii	"signed char\000"
 4262      65642063 
 4262      68617200 
 4263              	.LASF44:
 4264 00ca 705F6D70 		.ascii	"p_mpool\000"
 4264      6F6F6C00 
 4265              	.LASF15:
 4266 00d2 626F6F6C 		.ascii	"bool_t\000"
 4266      5F7400
 4267              	.LASF130:
 4268 00d9 4D454153 		.ascii	"MEAS_UBAT\000"
 4268      5F554241 
 4268      5400
 4269              	.LASF105:
 4270 00e3 61646365 		.ascii	"adcerror_t\000"
 4270      72726F72 
 4270      5F7400
 4271              	.LASF114:
 4272 00ee 646D6173 		.ascii	"dmastp\000"
 4272      747000
 4273              	.LASF107:
 4274 00f5 73746174 		.ascii	"state\000"
 4274      6500
 4275              	.LASF118:
 4276 00fb 63697263 		.ascii	"circular\000"
 4276      756C6172 
 4276      00
 4277              	.LASF10:
 4278 0104 6C6F6E67 		.ascii	"long int\000"
 4278      20696E74 
 4278      00
 4279              	.LASF103:
 4280 010d 4144435F 		.ascii	"ADC_ERR_DMAFAILURE\000"
 4280      4552525F 
 4280      444D4146 
 4280      41494C55 
 4280      524500
 4281              	.LASF117:
 4282 0120 61646365 		.ascii	"adcerrorcallback_t\000"
 4282      72726F72 
 4282      63616C6C 
 4282      6261636B 
 4282      5F7400
 4283              	.LASF18:
 4284 0133 74737461 		.ascii	"tstate_t\000"
 4284      74655F74 
 4284      00
 4285              	.LASF144:
 4286 013c 5F5F7661 		.ascii	"__va_list\000"
 4286      5F6C6973 
 4286      7400
 4287              	.LASF112:
ARM GAS  C:\Users\DNIEL~1\AppData\Local\Temp\ccIeTsuP.s 			page 80


 4288 0146 74687265 		.ascii	"thread\000"
 4288      616400
 4289              	.LASF7:
 4290 014d 75696E74 		.ascii	"uint16_t\000"
 4290      31365F74 
 4290      00
 4291              	.LASF37:
 4292 0156 705F7469 		.ascii	"p_time\000"
 4292      6D6500
 4293              	.LASF77:
 4294 015d 4144435F 		.ascii	"ADC_TypeDef\000"
 4294      54797065 
 4294      44656600 
 4295              	.LASF30:
 4296 0169 705F6E65 		.ascii	"p_newer\000"
 4296      77657200 
 4297              	.LASF120:
 4298 0171 656E645F 		.ascii	"end_cb\000"
 4298      636200
 4299              	.LASF116:
 4300 0178 61646363 		.ascii	"adccallback_t\000"
 4300      616C6C62 
 4300      61636B5F 
 4300      7400
 4301              	.LASF101:
 4302 0186 61646373 		.ascii	"adcsample_t\000"
 4302      616D706C 
 4302      655F7400 
 4303              	.LASF129:
 4304 0192 41444343 		.ascii	"ADCConfig\000"
 4304      6F6E6669 
 4304      6700
 4305              	.LASF47:
 4306 019c 72656761 		.ascii	"regarm_t\000"
 4306      726D5F74 
 4306      00
 4307              	.LASF85:
 4308 01a5 73656C66 		.ascii	"selfindex\000"
 4308      696E6465 
 4308      7800
 4309              	.LASF166:
 4310 01af 6D656173 		.ascii	"measValue_2\000"
 4310      56616C75 
 4310      655F3200 
 4311              	.LASF137:
 4312 01bb 4D454153 		.ascii	"MEAS_NUM_CH\000"
 4312      5F4E554D 
 4312      5F434800 
 4313              	.LASF104:
 4314 01c7 4144435F 		.ascii	"ADC_ERR_OVERFLOW\000"
 4314      4552525F 
 4314      4F564552 
 4314      464C4F57 
 4314      00
 4315              	.LASF151:
 4316 01d8 61646365 		.ascii	"adcerrorcallback\000"
 4316      72726F72 
ARM GAS  C:\Users\DNIEL~1\AppData\Local\Temp\ccIeTsuP.s 			page 81


 4316      63616C6C 
 4316      6261636B 
 4316      00
 4317              	.LASF62:
 4318 01e9 42617365 		.ascii	"BaseSequentialStream\000"
 4318      53657175 
 4318      656E7469 
 4318      616C5374 
 4318      7265616D 
 4319              	.LASF0:
 4320 01fe 756E7369 		.ascii	"unsigned int\000"
 4320      676E6564 
 4320      20696E74 
 4320      00
 4321              	.LASF133:
 4322 020b 4D454153 		.ascii	"MEAS_SEN2\000"
 4322      5F53454E 
 4322      3200
 4323              	.LASF134:
 4324 0215 4D454153 		.ascii	"MEAS_SEN3\000"
 4324      5F53454E 
 4324      3300
 4325              	.LASF135:
 4326 021f 4D454153 		.ascii	"MEAS_SEN4\000"
 4326      5F53454E 
 4326      3400
 4327              	.LASF136:
 4328 0229 4D454153 		.ascii	"MEAS_SEN5\000"
 4328      5F53454E 
 4328      3500
 4329              	.LASF39:
 4330 0233 705F6D73 		.ascii	"p_msgqueue\000"
 4330      67717565 
 4330      756500
 4331              	.LASF106:
 4332 023e 41444344 		.ascii	"ADCDriver\000"
 4332      72697665 
 4332      7200
 4333              	.LASF150:
 4334 0248 61646370 		.ascii	"adcp\000"
 4334      00
 4335              	.LASF154:
 4336 024d 6D656173 		.ascii	"measGetValue_2\000"
 4336      47657456 
 4336      616C7565 
 4336      5F3200
 4337              	.LASF90:
 4338 025c 67657474 		.ascii	"gett\000"
 4338      00
 4339              	.LASF84:
 4340 0261 69736869 		.ascii	"ishift\000"
 4340      667400
 4341              	.LASF167:
 4342 0268 73616D70 		.ascii	"samples_2\000"
 4342      6C65735F 
 4342      3200
 4343              	.LASF8:
ARM GAS  C:\Users\DNIEL~1\AppData\Local\Temp\ccIeTsuP.s 			page 82


 4344 0272 73686F72 		.ascii	"short unsigned int\000"
 4344      7420756E 
 4344      7369676E 
 4344      65642069 
 4344      6E7400
 4345              	.LASF96:
 4346 0285 4144435F 		.ascii	"ADC_READY\000"
 4346      52454144 
 4346      5900
 4347              	.LASF164:
 4348 028f 6D656173 		.ascii	"measstate\000"
 4348      73746174 
 4348      6500
 4349              	.LASF110:
 4350 0299 64657074 		.ascii	"depth\000"
 4350      6800
 4351              	.LASF22:
 4352 029f 6D73675F 		.ascii	"msg_t\000"
 4352      7400
 4353              	.LASF153:
 4354 02a5 6D656173 		.ascii	"measGetValue\000"
 4354      47657456 
 4354      616C7565 
 4354      00
 4355              	.LASF91:
 4356 02b2 77726974 		.ascii	"writet\000"
 4356      657400
 4357              	.LASF170:
 4358 02b9 474E5520 		.ascii	"GNU C 4.5.2\000"
 4358      4320342E 
 4358      352E3200 
 4359              	.LASF17:
 4360 02c5 746D6F64 		.ascii	"tmode_t\000"
 4360      655F7400 
 4361              	.LASF119:
 4362 02cd 6E756D5F 		.ascii	"num_channels\000"
 4362      6368616E 
 4362      6E656C73 
 4362      00
 4363              	.LASF46:
 4364 02da 54687265 		.ascii	"ThreadsList\000"
 4364      6164734C 
 4364      69737400 
 4365              	.LASF23:
 4366 02e6 6576656E 		.ascii	"eventmask_t\000"
 4366      746D6173 
 4366      6B5F7400 
 4367              	.LASF155:
 4368 02f2 6D656173 		.ascii	"measCalc\000"
 4368      43616C63 
 4368      00
 4369              	.LASF60:
 4370 02fb 77726974 		.ascii	"write\000"
 4370      6500
 4371              	.LASF111:
 4372 0301 67727070 		.ascii	"grpp\000"
 4372      00
ARM GAS  C:\Users\DNIEL~1\AppData\Local\Temp\ccIeTsuP.s 			page 83


 4373              	.LASF89:
 4374 0306 70757474 		.ascii	"putt\000"
 4374      00
 4375              	.LASF66:
 4376 030b 4A4F4652 		.ascii	"JOFR2\000"
 4376      3200
 4377              	.LASF67:
 4378 0311 4A4F4652 		.ascii	"JOFR3\000"
 4378      3300
 4379              	.LASF109:
 4380 0317 73616D70 		.ascii	"samples\000"
 4380      6C657300 
 4381              	.LASF169:
 4382 031f 61646367 		.ascii	"adcgrpcfg_2\000"
 4382      72706366 
 4382      675F3200 
 4383              	.LASF140:
 4384 032b 4D454153 		.ascii	"MEAS2_CURR1\000"
 4384      325F4355 
 4384      52523100 
 4385              	.LASF50:
 4386 0337 4D757465 		.ascii	"Mutex\000"
 4386      7800
 4387              	.LASF171:
 4388 033d 7372632F 		.ascii	"src/meas.c\000"
 4388      6D656173 
 4388      2E6300
 4389              	.LASF143:
 4390 0348 5F5F676E 		.ascii	"__gnuc_va_list\000"
 4390      75635F76 
 4390      615F6C69 
 4390      737400
 4391              	.LASF95:
 4392 0357 4144435F 		.ascii	"ADC_STOP\000"
 4392      53544F50 
 4392      00
 4393              	.LASF131:
 4394 0360 4D454153 		.ascii	"MEAS_BRAKE_PRESSURE1\000"
 4394      5F425241 
 4394      4B455F50 
 4394      52455353 
 4394      55524531 
 4395              	.LASF31:
 4396 0375 705F6F6C 		.ascii	"p_older\000"
 4396      64657200 
 4397              	.LASF45:
 4398 037d 54687265 		.ascii	"ThreadsQueue\000"
 4398      61647351 
 4398      75657565 
 4398      00
 4399              	.LASF63:
 4400 038a 534D5052 		.ascii	"SMPR1\000"
 4400      3100
 4401              	.LASF64:
 4402 0390 534D5052 		.ascii	"SMPR2\000"
 4402      3200
 4403              	.LASF53:
ARM GAS  C:\Users\DNIEL~1\AppData\Local\Temp\ccIeTsuP.s 			page 84


 4404 0396 6D5F6E65 		.ascii	"m_next\000"
 4404      787400
 4405              	.LASF69:
 4406 039d 53515231 		.ascii	"SQR1\000"
 4406      00
 4407              	.LASF70:
 4408 03a2 53515232 		.ascii	"SQR2\000"
 4408      00
 4409              	.LASF71:
 4410 03a7 53515233 		.ascii	"SQR3\000"
 4410      00
 4411              	.LASF172:
 4412 03ac 433A5C44 		.ascii	"C:\\Dani\\MegaLux\\Repo\\Smarty\\Smarty\\smarty\\fi"
 4412      616E695C 
 4412      4D656761 
 4412      4C75785C 
 4412      5265706F 
 4413 03d8 726D7761 		.ascii	"rmware\000"
 4413      726500
 4414              	.LASF156:
 4415 03df 636D645F 		.ascii	"cmd_measvalues\000"
 4415      6D656173 
 4415      76616C75 
 4415      657300
 4416              	.LASF19:
 4417 03ee 74726566 		.ascii	"trefs_t\000"
 4417      735F7400 
 4418              	.LASF147:
 4419 03f6 6D656173 		.ascii	"measStates\000"
 4419      53746174 
 4419      657300
 4420              	.LASF27:
 4421 0401 705F7072 		.ascii	"p_prev\000"
 4421      657600
 4422              	.LASF87:
 4423 0408 73746D33 		.ascii	"stm32_dma_stream_t\000"
 4423      325F646D 
 4423      615F7374 
 4423      7265616D 
 4423      5F7400
 4424              	.LASF159:
 4425 041b 6E616D65 		.ascii	"names\000"
 4425      7300
 4426              	.LASF21:
 4427 0421 74707269 		.ascii	"tprio_t\000"
 4427      6F5F7400 
 4428              	.LASF165:
 4429 0429 6D656173 		.ascii	"measValue\000"
 4429      56616C75 
 4429      6500
 4430              	.LASF113:
 4431 0433 6D757465 		.ascii	"mutex\000"
 4431      7800
 4432              	.LASF16:
 4433 0439 5F426F6F 		.ascii	"_Bool\000"
 4433      6C00
 4434              	.LASF9:
ARM GAS  C:\Users\DNIEL~1\AppData\Local\Temp\ccIeTsuP.s 			page 85


 4435 043f 696E7433 		.ascii	"int32_t\000"
 4435      325F7400 
 4436              	.LASF4:
 4437 0447 756E7369 		.ascii	"unsigned char\000"
 4437      676E6564 
 4437      20636861 
 4437      7200
 4438              	.LASF51:
 4439 0455 6D5F7175 		.ascii	"m_queue\000"
 4439      65756500 
 4440              	.LASF138:
 4441 045d 6D656173 		.ascii	"measChannels\000"
 4441      4368616E 
 4441      6E656C73 
 4441      00
 4442              	.LASF42:
 4443 046a 705F6D74 		.ascii	"p_mtxlist\000"
 4443      786C6973 
 4443      7400
 4444              	.LASF6:
 4445 0474 73686F72 		.ascii	"short int\000"
 4445      7420696E 
 4445      7400
 4446              	.LASF33:
 4447 047e 705F7374 		.ascii	"p_state\000"
 4447      61746500 
 4448              	.LASF36:
 4449 0486 705F7072 		.ascii	"p_preempt\000"
 4449      65656D70 
 4449      7400
 4450              	.LASF121:
 4451 0490 6572726F 		.ascii	"error_cb\000"
 4451      725F6362 
 4451      00
 4452              	.LASF57:
 4453 0499 65776D61 		.ascii	"ewmask\000"
 4453      736B00
 4454              	.LASF26:
 4455 04a0 705F6E65 		.ascii	"p_next\000"
 4455      787400
 4456              	.LASF59:
 4457 04a7 42617365 		.ascii	"BaseSequentialStreamVMT\000"
 4457      53657175 
 4457      656E7469 
 4457      616C5374 
 4457      7265616D 
 4458              	.LASF34:
 4459 04bf 705F666C 		.ascii	"p_flags\000"
 4459      61677300 
 4460              	.LASF97:
 4461 04c7 4144435F 		.ascii	"ADC_ACTIVE\000"
 4461      41435449 
 4461      564500
 4462              	.LASF68:
 4463 04d2 4A4F4652 		.ascii	"JOFR4\000"
 4463      3400
 4464              	.LASF149:
ARM GAS  C:\Users\DNIEL~1\AppData\Local\Temp\ccIeTsuP.s 			page 86


 4465 04d8 4D454153 		.ascii	"MEAS_RUNING\000"
 4465      5F52554E 
 4465      494E4700 
 4466              	.LASF25:
 4467 04e4 54687265 		.ascii	"Thread\000"
 4467      616400
 4468              	.LASF148:
 4469 04eb 4D454153 		.ascii	"MEAS_START\000"
 4469      5F535441 
 4469      525400
 4470              	.LASF160:
 4471 04f6 6E616D65 		.ascii	"names2\000"
 4471      733200
 4472              	.LASF41:
 4473 04fd 705F6570 		.ascii	"p_epending\000"
 4473      656E6469 
 4473      6E6700
 4474              	.LASF83:
 4475 0508 69666372 		.ascii	"ifcr\000"
 4475      00
 4476              	.LASF128:
 4477 050d 64756D6D 		.ascii	"dummy\000"
 4477      7900
 4478              	.LASF11:
 4479 0513 75696E74 		.ascii	"uint32_t\000"
 4479      33325F74 
 4479      00
 4480              	.LASF162:
 4481 051c 41444344 		.ascii	"ADCD2\000"
 4481      3200
 4482              	.LASF163:
 4483 0522 41444344 		.ascii	"ADCD3\000"
 4483      3300
 4484              	.LASF20:
 4485 0528 74736C69 		.ascii	"tslices_t\000"
 4485      6365735F 
 4485      7400
 4486              	.LASF12:
 4487 0532 6C6F6E67 		.ascii	"long unsigned int\000"
 4487      20756E73 
 4487      69676E65 
 4487      6420696E 
 4487      7400
 4488              	.LASF61:
 4489 0544 72656164 		.ascii	"read\000"
 4489      00
 4490              	.LASF58:
 4491 0549 63686172 		.ascii	"char\000"
 4491      00
 4492              	.LASF108:
 4493 054e 636F6E66 		.ascii	"config\000"
 4493      696700
 4494              	.LASF139:
 4495 0555 6D656173 		.ascii	"measChannels2\000"
 4495      4368616E 
 4495      6E656C73 
 4495      3200
ARM GAS  C:\Users\DNIEL~1\AppData\Local\Temp\ccIeTsuP.s 			page 87


 4496              	.LASF132:
 4497 0563 4D454153 		.ascii	"MEAS_BRAKE_PRESSURE2\000"
 4497      5F425241 
 4497      4B455F50 
 4497      52455353 
 4497      55524532 
 4498              	.LASF124:
 4499 0578 73717231 		.ascii	"sqr1\000"
 4499      00
 4500              	.LASF125:
 4501 057d 73717232 		.ascii	"sqr2\000"
 4501      00
 4502              	.LASF126:
 4503 0582 73717233 		.ascii	"sqr3\000"
 4503      00
 4504              	.LASF24:
 4505 0587 73797374 		.ascii	"systime_t\000"
 4505      696D655F 
 4505      7400
 4506              	.LASF43:
 4507 0591 705F7265 		.ascii	"p_realprio\000"
 4507      616C7072 
 4507      696F00
 4508              	.LASF78:
 4509 059c 4E445452 		.ascii	"NDTR\000"
 4509      00
 4510              	.LASF81:
 4511 05a1 444D415F 		.ascii	"DMA_Stream_TypeDef\000"
 4511      53747265 
 4511      616D5F54 
 4511      79706544 
 4511      656600
 4512              	.LASF142:
 4513 05b4 4D454153 		.ascii	"MEAS2_NUM_CH\000"
 4513      325F4E55 
 4513      4D5F4348 
 4513      00
 4514              	.LASF145:
 4515 05c1 5F5F6170 		.ascii	"__ap\000"
 4515      00
 4516              	.LASF49:
 4517 05c6 636F6E74 		.ascii	"context\000"
 4517      65787400 
 4518              	.LASF48:
 4519 05ce 696E7463 		.ascii	"intctx\000"
 4519      747800
 4520              	.LASF80:
 4521 05d5 4D314152 		.ascii	"M1AR\000"
 4521      00
 4522              	.LASF99:
 4523 05da 4144435F 		.ascii	"ADC_ERROR\000"
 4523      4552524F 
 4523      5200
 4524              	.LASF32:
 4525 05e4 705F6E61 		.ascii	"p_name\000"
 4525      6D6500
 4526              	.LASF35:
ARM GAS  C:\Users\DNIEL~1\AppData\Local\Temp\ccIeTsuP.s 			page 88


 4527 05eb 705F7265 		.ascii	"p_refs\000"
 4527      667300
 4528              	.LASF122:
 4529 05f2 736D7072 		.ascii	"smpr1\000"
 4529      3100
 4530              	.LASF123:
 4531 05f8 736D7072 		.ascii	"smpr2\000"
 4531      3200
 4532              	.LASF65:
 4533 05fe 4A4F4652 		.ascii	"JOFR1\000"
 4533      3100
 4534              	.LASF3:
 4535 0604 75696E74 		.ascii	"uint8_t\000"
 4535      385F7400 
 4536              	.LASF127:
 4537 060c 41444343 		.ascii	"ADCConversionGroup\000"
 4537      6F6E7665 
 4537      7273696F 
 4537      6E47726F 
 4537      757000
 4538              	.LASF93:
 4539 061f 42617365 		.ascii	"BaseChannel\000"
 4539      4368616E 
 4539      6E656C00 
 4540              	.LASF73:
 4541 062b 4A445231 		.ascii	"JDR1\000"
 4541      00
 4542              	.LASF74:
 4543 0630 4A445232 		.ascii	"JDR2\000"
 4543      00
 4544              	.LASF75:
 4545 0635 4A445233 		.ascii	"JDR3\000"
 4545      00
 4546              	.LASF76:
 4547 063a 4A445234 		.ascii	"JDR4\000"
 4547      00
 4548              	.LASF56:
 4549 063f 77746F62 		.ascii	"wtobjp\000"
 4549      6A7000
 4550              	.LASF98:
 4551 0646 4144435F 		.ascii	"ADC_COMPLETE\000"
 4551      434F4D50 
 4551      4C455445 
 4551      00
 4552              	.LASF157:
 4553 0653 61726763 		.ascii	"argc\000"
 4553      00
 4554              	.LASF102:
 4555 0658 6164635F 		.ascii	"adc_channels_num_t\000"
 4555      6368616E 
 4555      6E656C73 
 4555      5F6E756D 
 4555      5F7400
 4556              	.LASF40:
 4557 066b 705F6D73 		.ascii	"p_msg\000"
 4557      6700
 4558              	.LASF141:
ARM GAS  C:\Users\DNIEL~1\AppData\Local\Temp\ccIeTsuP.s 			page 89


 4559 0671 4D454153 		.ascii	"MEAS2_THROTTLE\000"
 4559      325F5448 
 4559      524F5454 
 4559      4C4500
 4560              	.LASF158:
 4561 0680 61726776 		.ascii	"argv\000"
 4561      00
 4562              	.LASF52:
 4563 0685 6D5F6F77 		.ascii	"m_owner\000"
 4563      6E657200 
 4564              	.LASF29:
 4565 068d 705F6374 		.ascii	"p_ctx\000"
 4565      7800
 4566              	.LASF38:
 4567 0693 705F7761 		.ascii	"p_waiting\000"
 4567      6974696E 
 4567      6700
 4568              	.LASF152:
 4569 069d 63687072 		.ascii	"chprintf\000"
 4569      696E7466 
 4569      00
 4570              		.ident	"GCC: (Sourcery G++ Lite 2011.03-42) 4.5.2"
ARM GAS  C:\Users\DNIEL~1\AppData\Local\Temp\ccIeTsuP.s 			page 90


DEFINED SYMBOLS
                            *ABS*:00000000 meas.c
C:\Users\DNIEL~1\AppData\Local\Temp\ccIeTsuP.s:24     .text.adcerrorcallback:00000000 $t
C:\Users\DNIEL~1\AppData\Local\Temp\ccIeTsuP.s:29     .text.adcerrorcallback:00000000 adcerrorcallback
C:\Users\DNIEL~1\AppData\Local\Temp\ccIeTsuP.s:44     .text.chprintf:00000000 $t
C:\Users\DNIEL~1\AppData\Local\Temp\ccIeTsuP.s:49     .text.chprintf:00000000 chprintf
C:\Users\DNIEL~1\AppData\Local\Temp\ccIeTsuP.s:89     .text.measInit:00000000 $t
C:\Users\DNIEL~1\AppData\Local\Temp\ccIeTsuP.s:95     .text.measInit:00000000 measInit
C:\Users\DNIEL~1\AppData\Local\Temp\ccIeTsuP.s:123    .text.measInit:0000001c $d
C:\Users\DNIEL~1\AppData\Local\Temp\ccIeTsuP.s:130    .text.measCalc:00000000 $t
C:\Users\DNIEL~1\AppData\Local\Temp\ccIeTsuP.s:136    .text.measCalc:00000000 measCalc
C:\Users\DNIEL~1\AppData\Local\Temp\ccIeTsuP.s:562    .text.measCalc:00000254 $d
C:\Users\DNIEL~1\AppData\Local\Temp\ccIeTsuP.s:577    .text.measGetValue:00000000 $t
C:\Users\DNIEL~1\AppData\Local\Temp\ccIeTsuP.s:583    .text.measGetValue:00000000 measGetValue
C:\Users\DNIEL~1\AppData\Local\Temp\ccIeTsuP.s:600    .text.measGetValue:00000008 $d
C:\Users\DNIEL~1\AppData\Local\Temp\ccIeTsuP.s:605    .text.measGetValue_2:00000000 $t
C:\Users\DNIEL~1\AppData\Local\Temp\ccIeTsuP.s:611    .text.measGetValue_2:00000000 measGetValue_2
C:\Users\DNIEL~1\AppData\Local\Temp\ccIeTsuP.s:628    .text.measGetValue_2:00000008 $d
C:\Users\DNIEL~1\AppData\Local\Temp\ccIeTsuP.s:633    .text.cmd_measvalues:00000000 $t
C:\Users\DNIEL~1\AppData\Local\Temp\ccIeTsuP.s:639    .text.cmd_measvalues:00000000 cmd_measvalues
C:\Users\DNIEL~1\AppData\Local\Temp\ccIeTsuP.s:753    .text.cmd_measvalues:000000ac $d
C:\Users\DNIEL~1\AppData\Local\Temp\ccIeTsuP.s:808    .bss.measstate:00000000 measstate
C:\Users\DNIEL~1\AppData\Local\Temp\ccIeTsuP.s:773    .bss.measValue:00000000 $d
C:\Users\DNIEL~1\AppData\Local\Temp\ccIeTsuP.s:777    .bss.measValue:00000000 measValue
C:\Users\DNIEL~1\AppData\Local\Temp\ccIeTsuP.s:780    .bss.samples_2:00000000 $d
C:\Users\DNIEL~1\AppData\Local\Temp\ccIeTsuP.s:784    .bss.samples_2:00000000 samples_2
C:\Users\DNIEL~1\AppData\Local\Temp\ccIeTsuP.s:787    .rodata.adcgrpcfg_2:00000000 $d
C:\Users\DNIEL~1\AppData\Local\Temp\ccIeTsuP.s:791    .rodata.adcgrpcfg_2:00000000 adcgrpcfg_2
C:\Users\DNIEL~1\AppData\Local\Temp\ccIeTsuP.s:809    .bss.measstate:00000000 $d
C:\Users\DNIEL~1\AppData\Local\Temp\ccIeTsuP.s:811    .bss.measValue_2:00000000 $d
C:\Users\DNIEL~1\AppData\Local\Temp\ccIeTsuP.s:815    .bss.measValue_2:00000000 measValue_2
C:\Users\DNIEL~1\AppData\Local\Temp\ccIeTsuP.s:818    .rodata.str1.4:00000000 $d
C:\Users\DNIEL~1\AppData\Local\Temp\ccIeTsuP.s:856    .rodata.adcgrpcfg:00000000 $d
C:\Users\DNIEL~1\AppData\Local\Temp\ccIeTsuP.s:860    .rodata.adcgrpcfg:00000000 adcgrpcfg
C:\Users\DNIEL~1\AppData\Local\Temp\ccIeTsuP.s:874    .bss.samples:00000000 $d
C:\Users\DNIEL~1\AppData\Local\Temp\ccIeTsuP.s:878    .bss.samples:00000000 samples
                     .debug_frame:00000010 $d
C:\Users\DNIEL~1\AppData\Local\Temp\ccIeTsuP.s:129    .text.measInit:00000028 $t
C:\Users\DNIEL~1\AppData\Local\Temp\ccIeTsuP.s:576    .text.measCalc:0000027c $t
C:\Users\DNIEL~1\AppData\Local\Temp\ccIeTsuP.s:604    .text.measGetValue:0000000c $t
C:\Users\DNIEL~1\AppData\Local\Temp\ccIeTsuP.s:632    .text.measGetValue_2:0000000c $t
C:\Users\DNIEL~1\AppData\Local\Temp\ccIeTsuP.s:772    .text.cmd_measvalues:000000e8 $t

UNDEFINED SYMBOLS
chvprintf
adcStart
ADCD3
ADCD2
adcConvert
chThdSleep
