ARM GAS  C:\Users\DNIEL~1\AppData\Local\Temp\cchmO6Yc.s 			page 1


   1              		.syntax unified
   2              		.cpu cortex-m4
   3              		.fpu softvfp
   4              		.eabi_attribute 20, 1
   5              		.eabi_attribute 21, 1
   6              		.eabi_attribute 23, 3
   7              		.eabi_attribute 24, 1
   8              		.eabi_attribute 25, 1
   9              		.eabi_attribute 26, 1
  10              		.eabi_attribute 30, 2
  11              		.eabi_attribute 18, 4
  12              		.thumb
  13              		.file	"meas.c"
  20 0000 B1050000 		.text
  20      0200F502 
  20      00000201 
  20      FB0E0D00 
  20      01010101 
  21              	.Ltext0:
  22              		.cfi_sections	.debug_frame
  23              		.section	.text.adcerrorcallback,"ax",%progbits
  24              		.align	2
  25              		.p2align 4,,15
  26              		.thumb
  27              		.thumb_func
  28              		.type	adcerrorcallback, %function
  29              	adcerrorcallback:
  30              	.LFB129:
  31              		.file 1 "src/meas.c"
  32              		.loc 1 287 0
  33              		.cfi_startproc
  34              		@ args = 0, pretend = 0, frame = 0
  35              		@ frame_needed = 0, uses_anonymous_args = 0
  36              		@ link register save eliminated.
  37              	.LVL0:
  38              		.loc 1 291 0
  39 0000 7047     		bx	lr
  40              		.cfi_endproc
  41              	.LFE129:
  42              		.size	adcerrorcallback, .-adcerrorcallback
  43 0002 00BFAFF3 		.section	.text.chprintf,"ax",%progbits
  43      0080AFF3 
  43      0080AFF3 
  43      0080
  44              		.align	2
  45              		.p2align 4,,15
  46              		.thumb
  47              		.thumb_func
  48              		.type	chprintf, %function
  49              	chprintf:
  50              	.LFB118:
ARM GAS  C:\Users\DNIEL~1\AppData\Local\Temp\cchmO6Yc.s 			page 2


  51              		.file 2 "../../../ChibiOS/os/various/chprintf.h"
  52              		.loc 2 69 0
  53              		.cfi_startproc
  54              		@ args = 4, pretend = 12, frame = 8
  55              		@ frame_needed = 0, uses_anonymous_args = 1
  56              	.LVL1:
  57 0000 0EB4     		push	{r1, r2, r3}
  58              	.LCFI0:
  59              		.cfi_def_cfa_offset 12
  60 0002 00B5     		push	{lr}
  61              	.LCFI1:
  62              		.cfi_def_cfa_offset 16
  63 0004 82B0     		sub	sp, sp, #8
  64              	.LCFI2:
  65              		.cfi_def_cfa_offset 24
  66              		.loc 2 69 0
  67 0006 03AB     		add	r3, sp, #12
  68              		.cfi_offset 14, -16
  69              		.cfi_offset 3, -4
  70              		.cfi_offset 2, -8
  71              		.cfi_offset 1, -12
  72 0008 53F8041B 		ldr	r1, [r3], #4
  73              		.loc 2 73 0
  74 000c 1A46     		mov	r2, r3
  75              		.loc 2 72 0
  76 000e 0193     		str	r3, [sp, #4]
  77              		.loc 2 73 0
  78 0010 FFF7FEFF 		bl	chvprintf
  79              	.LVL2:
  80              		.loc 2 75 0
  81 0014 02B0     		add	sp, sp, #8
  82 0016 5DF804EB 		pop	{lr}
  83 001a 03B0     		add	sp, sp, #12
  84 001c 7047     		bx	lr
  85              		.cfi_endproc
  86              	.LFE118:
  87              		.size	chprintf, .-chprintf
  88 001e 00BF     		.section	.text.measInit,"ax",%progbits
  89              		.align	2
  90              		.p2align 4,,15
  91              		.global	measInit
  92              		.thumb
  93              		.thumb_func
  94              		.type	measInit, %function
  95              	measInit:
  96              	.LFB119:
  97              		.loc 1 98 0
  98              		.cfi_startproc
  99              		@ args = 0, pretend = 0, frame = 0
 100              		@ frame_needed = 0, uses_anonymous_args = 0
 101 0000 10B5     		push	{r4, lr}
 102              	.LCFI3:
 103              		.cfi_def_cfa_offset 8
 104              		.loc 1 103 0
 105 0002 1D48     		ldr	r0, .L9
 106              		.loc 1 107 0
 107 0004 1D4C     		ldr	r4, .L9+4
ARM GAS  C:\Users\DNIEL~1\AppData\Local\Temp\cchmO6Yc.s 			page 3


 108              		.cfi_offset 14, -4
 109              		.cfi_offset 4, -8
 110              		.loc 1 103 0
 111 0006 0021     		movs	r1, #0
 112 0008 FFF7FEFF 		bl	adcStart
 113              		.loc 1 104 0
 114 000c 1C48     		ldr	r0, .L9+8
 115 000e 0021     		movs	r1, #0
 116 0010 FFF7FEFF 		bl	adcStart
 117              		.loc 1 105 0
 118 0014 1B4B     		ldr	r3, .L9+12
 119 0016 0022     		movs	r2, #0
 120              		.loc 1 107 0
 121 0018 0220     		movs	r0, #2
 122 001a 2146     		mov	r1, r4
 123              		.loc 1 105 0
 124 001c 1A70     		strb	r2, [r3, #0]
 125              		.loc 1 107 0
 126 001e FFF7FEFF 		bl	eepromRead
 127 0022 10B1     		cbz	r0, .L4
 128              		.loc 1 108 0
 129 0024 40F62820 		movw	r0, 2600	@ movhi
 130 0028 2080     		strh	r0, [r4, #0]	@ movhi
 131              	.L4:
 132              		.loc 1 110 0
 133 002a 174C     		ldr	r4, .L9+16
 134 002c 0120     		movs	r0, #1
 135 002e 2146     		mov	r1, r4
 136 0030 FFF7FEFF 		bl	eepromRead
 137 0034 10B1     		cbz	r0, .L5
 138              		.loc 1 111 0
 139 0036 40F25741 		movw	r1, 1111	@ movhi
 140 003a 2180     		strh	r1, [r4, #0]	@ movhi
 141              	.L5:
 142              		.loc 1 114 0
 143 003c 134C     		ldr	r4, .L9+20
 144 003e 0420     		movs	r0, #4
 145 0040 2146     		mov	r1, r4
 146 0042 FFF7FEFF 		bl	eepromRead
 147 0046 08B1     		cbz	r0, .L6
 148              		.loc 1 115 0
 149 0048 6422     		movs	r2, #100
 150 004a 2280     		strh	r2, [r4, #0]	@ movhi
 151              	.L6:
 152              		.loc 1 117 0
 153 004c 104C     		ldr	r4, .L9+24
 154 004e 0320     		movs	r0, #3
 155 0050 2146     		mov	r1, r4
 156 0052 FFF7FEFF 		bl	eepromRead
 157 0056 08B1     		cbz	r0, .L7
 158              		.loc 1 118 0
 159 0058 0023     		movs	r3, #0
 160 005a 2380     		strh	r3, [r4, #0]	@ movhi
 161              	.L7:
 162              		.loc 1 121 0
 163 005c 0D4B     		ldr	r3, .L9+28
 164              		.loc 1 122 0
ARM GAS  C:\Users\DNIEL~1\AppData\Local\Temp\cchmO6Yc.s 			page 4


 165 005e 0E4A     		ldr	r2, .L9+32
 166              		.loc 1 124 0
 167 0060 0E48     		ldr	r0, .L9+36
 168              		.loc 1 121 0
 169 0062 0021     		movs	r1, #0
 170 0064 1980     		strh	r1, [r3, #0]	@ movhi
 171              		.loc 1 122 0
 172 0066 1180     		strh	r1, [r2, #0]	@ movhi
 173              		.loc 1 124 0
 174 0068 0170     		strb	r1, [r0, #0]
 175              		.loc 1 125 0
 176 006a 0D4B     		ldr	r3, .L9+40
 177              		.loc 1 127 0
 178 006c 0D4A     		ldr	r2, .L9+44
 179              		.loc 1 128 0
 180 006e 0E48     		ldr	r0, .L9+48
 181              		.loc 1 125 0
 182 0070 1970     		strb	r1, [r3, #0]
 183              		.loc 1 127 0
 184 0072 1170     		strb	r1, [r2, #0]
 185              		.loc 1 128 0
 186 0074 0170     		strb	r1, [r0, #0]
 187              		.loc 1 129 0
 188 0076 10BD     		pop	{r4, pc}
 189              	.L10:
 190              		.align	2
 191              	.L9:
 192 0078 00000000 		.word	ADCD3
 193 007c 00000000 		.word	.LANCHOR1
 194 0080 00000000 		.word	ADCD2
 195 0084 00000000 		.word	.LANCHOR0
 196 0088 00000000 		.word	.LANCHOR2
 197 008c 00000000 		.word	.LANCHOR3
 198 0090 00000000 		.word	.LANCHOR4
 199 0094 00000000 		.word	.LANCHOR5
 200 0098 00000000 		.word	.LANCHOR6
 201 009c 00000000 		.word	.LANCHOR7
 202 00a0 00000000 		.word	.LANCHOR8
 203 00a4 00000000 		.word	.LANCHOR9
 204 00a8 00000000 		.word	.LANCHOR10
 205              		.cfi_endproc
 206              	.LFE119:
 207              		.size	measInit, .-measInit
 208 00ac AFF30080 		.section	.text.measCalc,"ax",%progbits
 209              		.align	2
 210              		.p2align 4,,15
 211              		.global	measCalc
 212              		.thumb
 213              		.thumb_func
 214              		.type	measCalc, %function
 215              	measCalc:
 216              	.LFB120:
 217              		.loc 1 131 0
 218              		.cfi_startproc
 219              		@ args = 0, pretend = 0, frame = 0
 220              		@ frame_needed = 0, uses_anonymous_args = 0
 221              		.loc 1 139 0
ARM GAS  C:\Users\DNIEL~1\AppData\Local\Temp\cchmO6Yc.s 			page 5


 222 0000 0A4A     		ldr	r2, .L31
 223 0002 1378     		ldrb	r3, [r2, #0]	@ zero_extendqisi2
 224              		.loc 1 131 0
 225 0004 2DE9F047 		push	{r4, r5, r6, r7, r8, r9, sl, lr}
 226              	.LCFI4:
 227              		.cfi_def_cfa_offset 32
 228              		.loc 1 139 0
 229 0008 F3B9     		cbnz	r3, .L30
 230              		.cfi_offset 14, -4
 231              		.cfi_offset 10, -8
 232              		.cfi_offset 9, -12
 233              		.cfi_offset 8, -16
 234              		.cfi_offset 7, -20
 235              		.cfi_offset 6, -24
 236              		.cfi_offset 5, -28
 237              		.cfi_offset 4, -32
 238              		.loc 1 142 0
 239 000a 0120     		movs	r0, #1
 240 000c 1070     		strb	r0, [r2, #0]
 241              	.LVL3:
 242              	.L12:
 243              		.loc 1 249 0
 244 000e 0823     		movs	r3, #8
 245              	.LVL4:
 246 0010 0749     		ldr	r1, .L31+4
 247 0012 084A     		ldr	r2, .L31+8
 248 0014 0848     		ldr	r0, .L31+12
 249 0016 FFF7FEFF 		bl	adcConvert
 250              		.loc 1 250 0
 251 001a 0848     		ldr	r0, .L31+16
 252 001c 0849     		ldr	r1, .L31+20
 253 001e 094A     		ldr	r2, .L31+24
 254 0020 0823     		movs	r3, #8
 255              		.loc 1 251 0
 256 0022 BDE8F047 		pop	{r4, r5, r6, r7, r8, r9, sl, lr}
 257              		.loc 1 250 0
 258 0026 FFF7FEBF 		b	adcConvert
 259              	.L32:
 260 002a 00BF     		.align	2
 261              	.L31:
 262 002c 00000000 		.word	.LANCHOR0
 263 0030 00000000 		.word	.LANCHOR15
 264 0034 00000000 		.word	.LANCHOR11
 265 0038 00000000 		.word	ADCD2
 266 003c 00000000 		.word	ADCD3
 267 0040 00000000 		.word	.LANCHOR16
 268 0044 00000000 		.word	.LANCHOR13
 269              	.L30:
 270              		.loc 1 139 0
 271 0048 012B     		cmp	r3, #1
 272 004a E0D1     		bne	.L12
 273              	.LVL5:
 274              		.loc 1 148 0
 275 004c CC4A     		ldr	r2, .L33
 276 004e B2F838E0 		ldrh	lr, [r2, #56]
 277 0052 B2F84650 		ldrh	r5, [r2, #70]
 278 0056 548D     		ldrh	r4, [r2, #42]
ARM GAS  C:\Users\DNIEL~1\AppData\Local\Temp\cchmO6Yc.s 			page 6


 279 0058 938B     		ldrh	r3, [r2, #28]
 280 005a D189     		ldrh	r1, [r2, #14]
 281 005c B2F85480 		ldrh	r8, [r2, #84]
 282 0060 1088     		ldrh	r0, [r2, #0]
 283 0062 B2F862C0 		ldrh	ip, [r2, #98]
 284 0066 0EEB0509 		add	r9, lr, r5
 285 006a 09EB0407 		add	r7, r9, r4
 286 006e FE18     		adds	r6, r7, r3
 287 0070 7518     		adds	r5, r6, r1
 288 0072 05EB080E 		add	lr, r5, r8
 289 0076 00EB0E09 		add	r9, r0, lr
 290              	.LVL6:
 291 007a 09EB0C04 		add	r4, r9, ip
 292              	.LVL7:
 293              		.loc 1 150 0
 294 007e E310     		asrs	r3, r4, #3
 295              	.LVL8:
 296              		.loc 1 153 0
 297 0080 41F2A951 		movw	r1, #5545
 298 0084 01FB03F6 		mul	r6, r1, r3
 299              	.LVL9:
 300              	.LBB18:
 301              		.loc 1 171 0
 302 0088 2023     		movs	r3, #32
 303              	.LVL10:
 304              	@ 171 "src/meas.c" 1
 305 008a 83F31188 		msr     BASEPRI, r3
 306              	@ 0 "" 2
 307              	.LVL11:
 308              		.thumb
 309              	.LBE18:
 310              		.loc 1 154 0
 311 008e BD4F     		ldr	r7, .L33+4
 312              		.loc 1 172 0
 313 0090 BD49     		ldr	r1, .L33+8
 314              		.loc 1 154 0
 315 0092 87FB0648 		smull	r4, r8, r7, r6
 316 0096 08EB0605 		add	r5, r8, r6
 317 009a F017     		asrs	r0, r6, #31
 318 009c C0EB6534 		rsb	r4, r0, r5, asr #13
 319              		.loc 1 172 0
 320 00a0 23B2     		sxth	r3, r4
 321              	.LVL12:
 322 00a2 0B60     		str	r3, [r1, #0]
 323              	.LBB19:
 324              		.loc 1 173 0
 325 00a4 0023     		movs	r3, #0
 326              	.LVL13:
 327              	@ 173 "src/meas.c" 1
 328 00a6 83F31188 		msr     BASEPRI, r3
 329              	@ 0 "" 2
 330              	.LVL14:
 331              		.thumb
 332              	.LBE19:
 333              		.loc 1 148 0
 334 00aa D78B     		ldrh	r7, [r2, #30]
 335 00ac B2F810E0 		ldrh	lr, [r2, #16]
ARM GAS  C:\Users\DNIEL~1\AppData\Local\Temp\cchmO6Yc.s 			page 7


 336 00b0 B2F82C90 		ldrh	r9, [r2, #44]
 337 00b4 B2F83A80 		ldrh	r8, [r2, #58]
 338 00b8 B2F84850 		ldrh	r5, [r2, #72]
 339 00bc B2F85600 		ldrh	r0, [r2, #86]
 340 00c0 5488     		ldrh	r4, [r2, #2]
 341 00c2 B2F86430 		ldrh	r3, [r2, #100]
 342              	.LVL15:
 343 00c6 07EB0E06 		add	r6, r7, lr
 344 00ca 06EB090C 		add	ip, r6, r9
 345 00ce 0CEB0807 		add	r7, ip, r8
 346 00d2 07EB050E 		add	lr, r7, r5
 347 00d6 0EEB0006 		add	r6, lr, r0
 348 00da 04EB0609 		add	r9, r4, r6
 349              	.LVL16:
 350 00de 09EB0308 		add	r8, r9, r3
 351              	.LVL17:
 352              	.LBB20:
 353              		.loc 1 171 0
 354 00e2 2023     		movs	r3, #32
 355              	@ 171 "src/meas.c" 1
 356 00e4 83F31188 		msr     BASEPRI, r3
 357              	@ 0 "" 2
 358              	.LVL18:
 359              		.thumb
 360              	.LBE20:
 361              		.loc 1 172 0
 362 00e8 48F3CF04 		sbfx	r4, r8, #3, #16
 363 00ec 4C60     		str	r4, [r1, #4]
 364              	.LBB21:
 365              		.loc 1 173 0
 366 00ee 0023     		movs	r3, #0
 367              	.LVL19:
 368              	@ 173 "src/meas.c" 1
 369 00f0 83F31188 		msr     BASEPRI, r3
 370              	@ 0 "" 2
 371              	.LVL20:
 372              		.thumb
 373              	.LBE21:
 374              		.loc 1 148 0
 375 00f4 B2F820C0 		ldrh	ip, [r2, #32]
 376 00f8 558A     		ldrh	r5, [r2, #18]
 377 00fa D08D     		ldrh	r0, [r2, #46]
 378 00fc 968F     		ldrh	r6, [r2, #60]
 379 00fe B2F84A90 		ldrh	r9, [r2, #74]
 380 0102 B2F85830 		ldrh	r3, [r2, #88]
 381              	.LVL21:
 382 0106 9488     		ldrh	r4, [r2, #4]
 383 0108 B2F86680 		ldrh	r8, [r2, #102]
 384 010c 0CEB0507 		add	r7, ip, r5
 385 0110 07EB000E 		add	lr, r7, r0
 386 0114 0EEB060C 		add	ip, lr, r6
 387 0118 0CEB0905 		add	r5, ip, r9
 388 011c EF18     		adds	r7, r5, r3
 389 011e E019     		adds	r0, r4, r7
 390              	.LVL22:
 391 0120 00EB0809 		add	r9, r0, r8
 392              	.LVL23:
ARM GAS  C:\Users\DNIEL~1\AppData\Local\Temp\cchmO6Yc.s 			page 8


 393              	.LBB22:
 394              		.loc 1 171 0
 395 0124 2023     		movs	r3, #32
 396              	@ 171 "src/meas.c" 1
 397 0126 83F31188 		msr     BASEPRI, r3
 398              	@ 0 "" 2
 399              	.LVL24:
 400              		.thumb
 401              	.LBE22:
 402              		.loc 1 172 0
 403 012a 49F3CF03 		sbfx	r3, r9, #3, #16
 404              	.LVL25:
 405 012e 8B60     		str	r3, [r1, #8]
 406              	.LBB23:
 407              		.loc 1 173 0
 408 0130 0023     		movs	r3, #0
 409              	@ 173 "src/meas.c" 1
 410 0132 83F31188 		msr     BASEPRI, r3
 411              	@ 0 "" 2
 412              	.LVL26:
 413              		.thumb
 414              	.LBE23:
 415              		.loc 1 148 0
 416 0136 B2F822E0 		ldrh	lr, [r2, #34]
 417 013a 968A     		ldrh	r6, [r2, #20]
 418 013c 158E     		ldrh	r5, [r2, #48]
 419 013e D48F     		ldrh	r4, [r2, #62]
 420 0140 B2F84C80 		ldrh	r8, [r2, #76]
 421 0144 B2F85A00 		ldrh	r0, [r2, #90]
 422 0148 D388     		ldrh	r3, [r2, #6]
 423              	.LVL27:
 424 014a B2F86890 		ldrh	r9, [r2, #104]
 425 014e 0EEB060C 		add	ip, lr, r6
 426 0152 0CEB0507 		add	r7, ip, r5
 427 0156 07EB040E 		add	lr, r7, r4
 428 015a 0EEB0806 		add	r6, lr, r8
 429 015e 3518     		adds	r5, r6, r0
 430 0160 5C19     		adds	r4, r3, r5
 431              	.LVL28:
 432 0162 04EB0908 		add	r8, r4, r9
 433              	.LVL29:
 434              	.LBB24:
 435              		.loc 1 171 0
 436 0166 2023     		movs	r3, #32
 437              	@ 171 "src/meas.c" 1
 438 0168 83F31188 		msr     BASEPRI, r3
 439              	@ 0 "" 2
 440              	.LVL30:
 441              		.thumb
 442              	.LBE24:
 443              		.loc 1 172 0
 444 016c 48F3CF03 		sbfx	r3, r8, #3, #16
 445              	.LVL31:
 446 0170 CB60     		str	r3, [r1, #12]
 447              	.LBB25:
 448              		.loc 1 173 0
 449 0172 0023     		movs	r3, #0
ARM GAS  C:\Users\DNIEL~1\AppData\Local\Temp\cchmO6Yc.s 			page 9


 450              	@ 173 "src/meas.c" 1
 451 0174 83F31188 		msr     BASEPRI, r3
 452              	@ 0 "" 2
 453              	.LVL32:
 454              		.thumb
 455              	.LBE25:
 456              		.loc 1 148 0
 457 0178 B2F824C0 		ldrh	ip, [r2, #36]
 458 017c D78A     		ldrh	r7, [r2, #22]
 459 017e B2F83290 		ldrh	r9, [r2, #50]
 460 0182 B2F84060 		ldrh	r6, [r2, #64]
 461 0186 B2F84E50 		ldrh	r5, [r2, #78]
 462 018a B2F85C40 		ldrh	r4, [r2, #92]
 463 018e 1389     		ldrh	r3, [r2, #8]
 464              	.LVL33:
 465 0190 B2F86A80 		ldrh	r8, [r2, #106]
 466 0194 0CEB0700 		add	r0, ip, r7
 467 0198 00EB090E 		add	lr, r0, r9
 468 019c 0EEB060C 		add	ip, lr, r6
 469 01a0 0CEB0507 		add	r7, ip, r5
 470 01a4 3819     		adds	r0, r7, r4
 471 01a6 03EB0009 		add	r9, r3, r0
 472              	.LVL34:
 473 01aa 09EB0804 		add	r4, r9, r8
 474              	.LVL35:
 475              	.LBB26:
 476              		.loc 1 171 0
 477 01ae 2023     		movs	r3, #32
 478              	@ 171 "src/meas.c" 1
 479 01b0 83F31188 		msr     BASEPRI, r3
 480              	@ 0 "" 2
 481              	.LVL36:
 482              		.thumb
 483              	.LBE26:
 484              		.loc 1 172 0
 485 01b4 44F3CF03 		sbfx	r3, r4, #3, #16
 486              	.LVL37:
 487 01b8 0B61     		str	r3, [r1, #16]
 488              	.LBB27:
 489              		.loc 1 173 0
 490 01ba 0023     		movs	r3, #0
 491              	@ 173 "src/meas.c" 1
 492 01bc 83F31188 		msr     BASEPRI, r3
 493              	@ 0 "" 2
 494              	.LVL38:
 495              		.thumb
 496              	.LBE27:
 497              		.loc 1 148 0
 498 01c0 D68C     		ldrh	r6, [r2, #38]
 499 01c2 B2F818E0 		ldrh	lr, [r2, #24]
 500 01c6 958E     		ldrh	r5, [r2, #52]
 501 01c8 B2F84280 		ldrh	r8, [r2, #66]
 502 01cc B2F85000 		ldrh	r0, [r2, #80]
 503 01d0 B2F85E90 		ldrh	r9, [r2, #94]
 504 01d4 5489     		ldrh	r4, [r2, #10]
 505 01d6 B2F86C30 		ldrh	r3, [r2, #108]
 506              	.LVL39:
ARM GAS  C:\Users\DNIEL~1\AppData\Local\Temp\cchmO6Yc.s 			page 10


 507 01da 06EB0E0C 		add	ip, r6, lr
 508 01de 0CEB0507 		add	r7, ip, r5
 509 01e2 07EB0806 		add	r6, r7, r8
 510 01e6 06EB000E 		add	lr, r6, r0
 511 01ea 0EEB0905 		add	r5, lr, r9
 512 01ee 04EB050C 		add	ip, r4, r5
 513              	.LVL40:
 514 01f2 0CEB0308 		add	r8, ip, r3
 515              	.LVL41:
 516              	.LBB28:
 517              		.loc 1 171 0
 518 01f6 2023     		movs	r3, #32
 519              	@ 171 "src/meas.c" 1
 520 01f8 83F31188 		msr     BASEPRI, r3
 521              	@ 0 "" 2
 522              	.LVL42:
 523              		.thumb
 524              	.LBE28:
 525              		.loc 1 172 0
 526 01fc 48F3CF00 		sbfx	r0, r8, #3, #16
 527 0200 4861     		str	r0, [r1, #20]
 528              	.LBB29:
 529              		.loc 1 173 0
 530 0202 0023     		movs	r3, #0
 531              	.LVL43:
 532              	@ 173 "src/meas.c" 1
 533 0204 83F31188 		msr     BASEPRI, r3
 534              	@ 0 "" 2
 535              	.LVL44:
 536              		.thumb
 537              	.LBE29:
 538              		.loc 1 148 0
 539 0208 178D     		ldrh	r7, [r2, #40]
 540 020a B2F81A90 		ldrh	r9, [r2, #26]
 541 020e D68E     		ldrh	r6, [r2, #54]
 542 0210 B2F84450 		ldrh	r5, [r2, #68]
 543 0214 B2F85240 		ldrh	r4, [r2, #82]
 544 0218 B2F860C0 		ldrh	ip, [r2, #96]
 545 021c 9089     		ldrh	r0, [r2, #12]
 546 021e B2F86E80 		ldrh	r8, [r2, #110]
 547 0222 07EB0903 		add	r3, r7, r9
 548              	.LVL45:
 549 0226 03EB060E 		add	lr, r3, r6
 550 022a 0EEB0502 		add	r2, lr, r5
 551 022e 1719     		adds	r7, r2, r4
 552 0230 07EB0C09 		add	r9, r7, ip
 553 0234 00EB0903 		add	r3, r0, r9
 554              	.LVL46:
 555 0238 08EB030C 		add	ip, r8, r3
 556              	.LVL47:
 557              	.LBB30:
 558              		.loc 1 171 0
 559 023c 2023     		movs	r3, #32
 560              	@ 171 "src/meas.c" 1
 561 023e 83F31188 		msr     BASEPRI, r3
 562              	@ 0 "" 2
 563              	.LVL48:
ARM GAS  C:\Users\DNIEL~1\AppData\Local\Temp\cchmO6Yc.s 			page 11


 564              		.thumb
 565              	.LBE30:
 566              		.loc 1 172 0
 567 0242 4CF3CF04 		sbfx	r4, ip, #3, #16
 568 0246 8C61     		str	r4, [r1, #24]
 569              	.LBB31:
 570              		.loc 1 173 0
 571 0248 0023     		movs	r3, #0
 572              	.LVL49:
 573              	@ 173 "src/meas.c" 1
 574 024a 83F31188 		msr     BASEPRI, r3
 575              	@ 0 "" 2
 576              	.LVL50:
 577              		.thumb
 578              	.LBE31:
 579              		.loc 1 178 0
 580 024e 4F4C     		ldr	r4, .L33+12
 581 0250 2088     		ldrh	r0, [r4, #0]
 582 0252 E188     		ldrh	r1, [r4, #6]
 583 0254 A689     		ldrh	r6, [r4, #12]
 584 0256 628A     		ldrh	r2, [r4, #18]
 585 0258 B4F81890 		ldrh	r9, [r4, #24]
 586 025c B4F81E80 		ldrh	r8, [r4, #30]
 587 0260 B4F824C0 		ldrh	ip, [r4, #36]
 588 0264 638D     		ldrh	r3, [r4, #42]
 589              	.LVL51:
 590 0266 4518     		adds	r5, r0, r1
 591              	.LVL52:
 592 0268 05EB060E 		add	lr, r5, r6
 593              	.LVL53:
 594 026c 0EEB0207 		add	r7, lr, r2
 595              	.LVL54:
 596 0270 07EB0900 		add	r0, r7, r9
 597              	.LVL55:
 598 0274 00EB0801 		add	r1, r0, r8
 599              	.LVL56:
 600 0278 01EB0C05 		add	r5, r1, ip
 601              	.LVL57:
 602 027c EA18     		adds	r2, r5, r3
 603              	.LVL58:
 604              	.LBB32:
 605              		.loc 1 241 0
 606 027e 2023     		movs	r3, #32
 607              	.LVL59:
 608              	@ 241 "src/meas.c" 1
 609 0280 83F31188 		msr     BASEPRI, r3
 610              	@ 0 "" 2
 611              	.LVL60:
 612              		.thumb
 613              	.LBE32:
 614              		.loc 1 242 0
 615 0284 424D     		ldr	r5, .L33+16
 616 0286 42F3CF06 		sbfx	r6, r2, #3, #16
 617 028a 2E60     		str	r6, [r5, #0]
 618              	.LBB33:
 619              		.loc 1 243 0
 620 028c 0023     		movs	r3, #0
ARM GAS  C:\Users\DNIEL~1\AppData\Local\Temp\cchmO6Yc.s 			page 12


 621              	.LVL61:
 622              	@ 243 "src/meas.c" 1
 623 028e 83F31188 		msr     BASEPRI, r3
 624              	@ 0 "" 2
 625              	.LVL62:
 626              		.thumb
 627              	.LBE33:
 628              		.loc 1 178 0
 629 0292 B4F80290 		ldrh	r9, [r4, #2]
 630 0296 B4F80E80 		ldrh	r8, [r4, #14]
 631 029a B4F808C0 		ldrh	ip, [r4, #8]
 632 029e B4F814E0 		ldrh	lr, [r4, #20]
 633 02a2 678B     		ldrh	r7, [r4, #26]
 634 02a4 208C     		ldrh	r0, [r4, #32]
 635 02a6 E18C     		ldrh	r1, [r4, #38]
 636              		.loc 1 186 0
 637 02a8 3A4E     		ldr	r6, .L33+20
 638              		.loc 1 178 0
 639 02aa A28D     		ldrh	r2, [r4, #44]
 640              		.loc 1 186 0
 641 02ac 3378     		ldrb	r3, [r6, #0]	@ zero_extendqisi2
 642              	.LVL63:
 643              		.loc 1 178 0
 644 02ae C844     		add	r8, r9, r8
 645 02b0 C444     		add	ip, r8, ip
 646              	.LVL64:
 647 02b2 E644     		add	lr, ip, lr
 648              	.LVL65:
 649 02b4 0EEB0709 		add	r9, lr, r7
 650              	.LVL66:
 651 02b8 09EB0008 		add	r8, r9, r0
 652              	.LVL67:
 653 02bc 08EB0100 		add	r0, r8, r1
 654              	.LVL68:
 655 02c0 8718     		adds	r7, r0, r2
 656              	.LVL69:
 657              		.loc 1 180 0
 658 02c2 FF10     		asrs	r7, r7, #3
 659              	.LVL70:
 660              		.loc 1 186 0
 661 02c4 002B     		cmp	r3, #0
 662 02c6 40F0CC80 		bne	.L15
 663 02ca DFF8DC80 		ldr	r8, .L33+40
 664              	.L16:
 665              		.loc 1 194 0
 666 02ce DFF8DC90 		ldr	r9, .L33+44
 667 02d2 99F80020 		ldrb	r2, [r9, #0]	@ zero_extendqisi2
 668 02d6 002A     		cmp	r2, #0
 669 02d8 40F09680 		bne	.L17
 670 02dc 2E49     		ldr	r1, .L33+24
 671 02de 0E88     		ldrh	r6, [r1, #0]
 672              	.L21:
 673              		.loc 1 202 0
 674 02e0 B8F800E0 		ldrh	lr, [r8, #0]
 675 02e4 7745     		cmp	r7, lr
 676 02e6 B4BF     		ite	lt
 677 02e8 3B46     		movlt	r3, r7
ARM GAS  C:\Users\DNIEL~1\AppData\Local\Temp\cchmO6Yc.s 			page 13


 678 02ea 7346     		movge	r3, lr
 679              	.LVL71:
 680              	.LBB34:
 681              	.LBB35:
 682              		.loc 1 255 0
 683 02ec 9E42     		cmp	r6, r3
 684 02ee ACBF     		ite	ge
 685 02f0 C6EB060C 		rsbge	ip, r6, r6
 686 02f4 C6EB030C 		rsblt	ip, r6, r3
 687 02f8 42F22830 		movw	r0, #9000
 688 02fc C6EB0E07 		rsb	r7, r6, lr
 689 0300 00FB0CF1 		mul	r1, r0, ip
 690 0304 91FBF7F2 		sdiv	r2, r1, r7
 691              	.LBE35:
 692              	.LBE34:
 693              		.loc 1 205 0
 694 0308 244E     		ldr	r6, .L33+28
 695              	.LVL72:
 696 030a 1FFA82F9 		uxth	r9, r2
 697 030e A6F80090 		strh	r9, [r6, #0]	@ movhi
 698              	.LVL73:
 699              	.LBB36:
 700              		.loc 1 241 0
 701 0312 2023     		movs	r3, #32
 702              	.LBE36:
 703              		.loc 1 208 0
 704 0314 8145     		cmp	r9, r0
 705 0316 A8BF     		it	ge
 706 0318 8146     		movge	r9, r0
 707              	.LVL74:
 708              	.LBB37:
 709              		.loc 1 241 0
 710              	@ 241 "src/meas.c" 1
 711 031a 83F31188 		msr     BASEPRI, r3
 712              	@ 0 "" 2
 713              	.LVL75:
 714              		.thumb
 715              	.LBE37:
 716              		.loc 1 209 0
 717 031e 29EAE978 		bic	r8, r9, r9, asr #31
 718              		.loc 1 242 0
 719 0322 0FFA88F3 		sxth	r3, r8
 720              	.LVL76:
 721 0326 6B60     		str	r3, [r5, #4]
 722              	.LBB38:
 723              		.loc 1 243 0
 724 0328 0023     		movs	r3, #0
 725              	@ 243 "src/meas.c" 1
 726 032a 83F31188 		msr     BASEPRI, r3
 727              	@ 0 "" 2
 728              	.LVL77:
 729              		.thumb
 730              	.LBE38:
 731              		.loc 1 178 0
 732 032e B4F80AC0 		ldrh	ip, [r4, #10]
 733 0332 B4F81090 		ldrh	r9, [r4, #16]
 734 0336 B4F816E0 		ldrh	lr, [r4, #22]
ARM GAS  C:\Users\DNIEL~1\AppData\Local\Temp\cchmO6Yc.s 			page 14


 735              	.LVL78:
 736 033a A788     		ldrh	r7, [r4, #4]
 737 033c A08B     		ldrh	r0, [r4, #28]
 738 033e 618C     		ldrh	r1, [r4, #34]
 739 0340 228D     		ldrh	r2, [r4, #40]
 740 0342 E68D     		ldrh	r6, [r4, #46]
 741              		.loc 1 213 0
 742 0344 DFF86880 		ldr	r8, .L33+48
 743              		.loc 1 178 0
 744 0348 09EB0C04 		add	r4, r9, ip
 745 034c 04EB0E0C 		add	ip, r4, lr
 746 0350 07EB0C0E 		add	lr, r7, ip
 747              	.LVL79:
 748 0354 0EEB0004 		add	r4, lr, r0
 749              	.LVL80:
 750 0358 6718     		adds	r7, r4, r1
 751              	.LVL81:
 752 035a 07EB020C 		add	ip, r7, r2
 753              	.LVL82:
 754              		.loc 1 213 0
 755 035e 98F80030 		ldrb	r3, [r8, #0]	@ zero_extendqisi2
 756              	.LVL83:
 757              		.loc 1 178 0
 758 0362 6644     		add	r6, r6, ip
 759              	.LVL84:
 760              		.loc 1 180 0
 761 0364 F610     		asrs	r6, r6, #3
 762              	.LVL85:
 763              		.loc 1 213 0
 764 0366 002B     		cmp	r3, #0
 765 0368 6ED1     		bne	.L18
 766 036a 0D4F     		ldr	r7, .L33+32
 767              	.L19:
 768              		.loc 1 221 0
 769 036c DFF84480 		ldr	r8, .L33+52
 770 0370 98F80010 		ldrb	r1, [r8, #0]	@ zero_extendqisi2
 771 0374 0029     		cmp	r1, #0
 772 0376 57D1     		bne	.L26
 773 0378 0A4B     		ldr	r3, .L33+36
 774 037a 1C88     		ldrh	r4, [r3, #0]
 775 037c 1CE0     		b	.L34
 776              	.L35:
 777 037e 00BF     		.align	2
 778              	.L33:
 779 0380 00000000 		.word	.LANCHOR11
 780 0384 B32EF6A8 		.word	-1460261197
 781 0388 00000000 		.word	.LANCHOR12
 782 038c 00000000 		.word	.LANCHOR13
 783 0390 00000000 		.word	.LANCHOR14
 784 0394 00000000 		.word	.LANCHOR8
 785 0398 00000000 		.word	.LANCHOR2
 786 039c 00000000 		.word	.LANCHOR5
 787 03a0 00000000 		.word	.LANCHOR3
 788 03a4 00000000 		.word	.LANCHOR4
 789 03a8 00000000 		.word	.LANCHOR1
 790 03ac 00000000 		.word	.LANCHOR7
 791 03b0 00000000 		.word	.LANCHOR10
ARM GAS  C:\Users\DNIEL~1\AppData\Local\Temp\cchmO6Yc.s 			page 15


 792 03b4 00000000 		.word	.LANCHOR9
 793              	.L34:
 794              	.L27:
 795              		.loc 1 229 0
 796 03b8 B7F800C0 		ldrh	ip, [r7, #0]
 797 03bc 6645     		cmp	r6, ip
 798 03be B4BF     		ite	lt
 799 03c0 3046     		movlt	r0, r6
 800 03c2 6046     		movge	r0, ip
 801              	.LVL86:
 802              	.LBB39:
 803              	.LBB40:
 804              		.loc 1 255 0
 805 03c4 8442     		cmp	r4, r0
 806 03c6 ACBF     		ite	ge
 807 03c8 C4EB0401 		rsbge	r1, r4, r4
 808 03cc C4EB0001 		rsblt	r1, r4, r0
 809 03d0 42F22833 		movw	r3, #9000
 810 03d4 03FB01FE 		mul	lr, r3, r1
 811 03d8 C4EB0C02 		rsb	r2, r4, ip
 812 03dc 9EFBF2F0 		sdiv	r0, lr, r2
 813              	.LVL87:
 814              	.LBE40:
 815              	.LBE39:
 816              		.loc 1 232 0
 817 03e0 2B49     		ldr	r1, .L36
 818 03e2 1FFA80FC 		uxth	ip, r0
 819              	.LVL88:
 820 03e6 A1F800C0 		strh	ip, [r1, #0]	@ movhi
 821              	.LVL89:
 822              		.loc 1 235 0
 823 03ea 9C45     		cmp	ip, r3
 824 03ec A8BF     		it	ge
 825 03ee 9C46     		movge	ip, r3
 826              	.LVL90:
 827              	.LBB41:
 828              		.loc 1 241 0
 829 03f0 2023     		movs	r3, #32
 830              	@ 241 "src/meas.c" 1
 831 03f2 83F31188 		msr     BASEPRI, r3
 832              	@ 0 "" 2
 833              	.LVL91:
 834              		.thumb
 835              	.LBE41:
 836              		.loc 1 236 0
 837 03f6 2CEAEC7E 		bic	lr, ip, ip, asr #31
 838              		.loc 1 242 0
 839 03fa 0FFA8EF2 		sxth	r2, lr
 840 03fe AA60     		str	r2, [r5, #8]
 841              	.LBB42:
 842              		.loc 1 243 0
 843 0400 0023     		movs	r3, #0
 844              	.LVL92:
 845              	@ 243 "src/meas.c" 1
 846 0402 83F31188 		msr     BASEPRI, r3
 847              	@ 0 "" 2
 848              	.LVL93:
ARM GAS  C:\Users\DNIEL~1\AppData\Local\Temp\cchmO6Yc.s 			page 16


 849              		.thumb
 850 0406 02E6     		b	.L12
 851              	.LVL94:
 852              	.L17:
 853              	.LBE42:
 854              		.loc 1 195 0
 855 0408 BEB2     		uxth	r6, r7
 856 040a DFF88CA0 		ldr	sl, .L36+8
 857              		.loc 1 196 0
 858 040e 0120     		movs	r0, #1
 859 0410 3146     		mov	r1, r6
 860              		.loc 1 195 0
 861 0412 AAF80060 		strh	r6, [sl, #0]	@ movhi
 862              		.loc 1 196 0
 863 0416 FFF7FEFF 		bl	eepromWrite
 864 041a 90BB     		cbnz	r0, .L20
 865 041c BAF80060 		ldrh	r6, [sl, #0]
 866              	.L22:
 867              		.loc 1 199 0
 868 0420 0020     		movs	r0, #0
 869 0422 89F80000 		strb	r0, [r9, #0]
 870 0426 5BE7     		b	.L21
 871              	.LVL95:
 872              	.L26:
 873              		.loc 1 222 0
 874 0428 DFF87090 		ldr	r9, .L36+12
 875 042c B4B2     		uxth	r4, r6
 876              		.loc 1 223 0
 877 042e 0320     		movs	r0, #3
 878 0430 2146     		mov	r1, r4
 879              		.loc 1 222 0
 880 0432 A9F80040 		strh	r4, [r9, #0]	@ movhi
 881              		.loc 1 223 0
 882 0436 FFF7FEFF 		bl	eepromWrite
 883 043a 28BB     		cbnz	r0, .L28
 884 043c B9F80040 		ldrh	r4, [r9, #0]
 885              	.L29:
 886              		.loc 1 226 0
 887 0440 0020     		movs	r0, #0
 888 0442 88F80000 		strb	r0, [r8, #0]
 889 0446 B7E7     		b	.L27
 890              	.L18:
 891              		.loc 1 214 0
 892 0448 124F     		ldr	r7, .L36+4
 893 044a B4B2     		uxth	r4, r6
 894              		.loc 1 215 0
 895 044c 0420     		movs	r0, #4
 896 044e 2146     		mov	r1, r4
 897              		.loc 1 214 0
 898 0450 3C80     		strh	r4, [r7, #0]	@ movhi
 899              		.loc 1 215 0
 900 0452 FFF7FEFF 		bl	eepromWrite
 901 0456 00B1     		cbz	r0, .L25
 902              		.loc 1 216 0
 903 0458 3C80     		strh	r4, [r7, #0]	@ movhi
 904              	.L25:
 905              		.loc 1 218 0
ARM GAS  C:\Users\DNIEL~1\AppData\Local\Temp\cchmO6Yc.s 			page 17


 906 045a 0024     		movs	r4, #0
 907 045c 88F80040 		strb	r4, [r8, #0]
 908 0460 84E7     		b	.L19
 909              	.LVL96:
 910              	.L15:
 911              		.loc 1 187 0
 912 0462 DFF83C80 		ldr	r8, .L36+16
 913 0466 1FFA87F9 		uxth	r9, r7
 914              		.loc 1 188 0
 915 046a 0220     		movs	r0, #2
 916 046c 4946     		mov	r1, r9
 917              		.loc 1 187 0
 918 046e A8F80090 		strh	r9, [r8, #0]	@ movhi
 919              		.loc 1 188 0
 920 0472 FFF7FEFF 		bl	eepromWrite
 921 0476 08B1     		cbz	r0, .L24
 922              		.loc 1 189 0
 923 0478 A8F80090 		strh	r9, [r8, #0]	@ movhi
 924              	.L24:
 925              		.loc 1 191 0
 926 047c 0022     		movs	r2, #0
 927 047e 3270     		strb	r2, [r6, #0]
 928 0480 25E7     		b	.L16
 929              	.L20:
 930              		.loc 1 197 0
 931 0482 AAF80060 		strh	r6, [sl, #0]	@ movhi
 932 0486 CBE7     		b	.L22
 933              	.LVL97:
 934              	.L28:
 935              		.loc 1 224 0
 936 0488 A9F80040 		strh	r4, [r9, #0]	@ movhi
 937 048c D8E7     		b	.L29
 938              	.L37:
 939 048e 00BF     		.align	2
 940              	.L36:
 941 0490 00000000 		.word	.LANCHOR6
 942 0494 00000000 		.word	.LANCHOR3
 943 0498 00000000 		.word	.LANCHOR2
 944 049c 00000000 		.word	.LANCHOR4
 945 04a0 00000000 		.word	.LANCHOR1
 946              		.cfi_endproc
 947              	.LFE120:
 948              		.size	measCalc, .-measCalc
 949 04a4 AFF30080 		.section	.text.map,"ax",%progbits
 949      AFF30080 
 949      AFF30080 
 950              		.align	2
 951              		.p2align 4,,15
 952              		.global	map
 953              		.thumb
 954              		.thumb_func
 955              		.type	map, %function
 956              	map:
 957              	.LFB121:
 958              		.loc 1 254 0
 959              		.cfi_startproc
 960              		@ args = 4, pretend = 0, frame = 0
ARM GAS  C:\Users\DNIEL~1\AppData\Local\Temp\cchmO6Yc.s 			page 18


 961              		@ frame_needed = 0, uses_anonymous_args = 0
 962              		@ link register save eliminated.
 963              	.LVL98:
 964 0000 10B4     		push	{r4}
 965              	.LCFI5:
 966              		.cfi_def_cfa_offset 4
 967              		.loc 1 255 0
 968 0002 019C     		ldr	r4, [sp, #4]
 969              		.cfi_offset 4, -4
 970 0004 401A     		subs	r0, r0, r1
 971              	.LVL99:
 972 0006 E41A     		subs	r4, r4, r3
 973 0008 00FB04FC 		mul	ip, r0, r4
 974 000c 511A     		subs	r1, r2, r1
 975              	.LVL100:
 976 000e 9CFBF1F0 		sdiv	r0, ip, r1
 977              		.loc 1 256 0
 978 0012 C018     		adds	r0, r0, r3
 979 0014 10BC     		pop	{r4}
 980 0016 7047     		bx	lr
 981              		.cfi_endproc
 982              	.LFE121:
 983              		.size	map, .-map
 984 0018 AFF30080 		.section	.text.measGetValue,"ax",%progbits
 984      AFF30080 
 985              		.align	2
 986              		.p2align 4,,15
 987              		.global	measGetValue
 988              		.thumb
 989              		.thumb_func
 990              		.type	measGetValue, %function
 991              	measGetValue:
 992              	.LFB122:
 993              		.loc 1 258 0
 994              		.cfi_startproc
 995              		@ args = 0, pretend = 0, frame = 0
 996              		@ frame_needed = 0, uses_anonymous_args = 0
 997              		@ link register save eliminated.
 998              	.LVL101:
 999              		.loc 1 259 0
 1000 0000 014B     		ldr	r3, .L40
 1001              		.loc 1 260 0
 1002 0002 33F92000 		ldrsh	r0, [r3, r0, lsl #2]
 1003              	.LVL102:
 1004 0006 7047     		bx	lr
 1005              	.L41:
 1006              		.align	2
 1007              	.L40:
 1008 0008 00000000 		.word	.LANCHOR12
 1009              		.cfi_endproc
 1010              	.LFE122:
 1011              		.size	measGetValue, .-measGetValue
 1012 000c AFF30080 		.section	.text.measGetValue_2,"ax",%progbits
 1013              		.align	2
 1014              		.p2align 4,,15
 1015              		.global	measGetValue_2
 1016              		.thumb
ARM GAS  C:\Users\DNIEL~1\AppData\Local\Temp\cchmO6Yc.s 			page 19


 1017              		.thumb_func
 1018              		.type	measGetValue_2, %function
 1019              	measGetValue_2:
 1020              	.LFB123:
 1021              		.loc 1 262 0
 1022              		.cfi_startproc
 1023              		@ args = 0, pretend = 0, frame = 0
 1024              		@ frame_needed = 0, uses_anonymous_args = 0
 1025              		@ link register save eliminated.
 1026              	.LVL103:
 1027              		.loc 1 263 0
 1028 0000 014B     		ldr	r3, .L43
 1029              		.loc 1 264 0
 1030 0002 33F92000 		ldrsh	r0, [r3, r0, lsl #2]
 1031              	.LVL104:
 1032 0006 7047     		bx	lr
 1033              	.L44:
 1034              		.align	2
 1035              	.L43:
 1036 0008 00000000 		.word	.LANCHOR14
 1037              		.cfi_endproc
 1038              	.LFE123:
 1039              		.size	measGetValue_2, .-measGetValue_2
 1040 000c AFF30080 		.section	.text.meas_throttleSetMin,"ax",%progbits
 1041              		.align	2
 1042              		.p2align 4,,15
 1043              		.global	meas_throttleSetMin
 1044              		.thumb
 1045              		.thumb_func
 1046              		.type	meas_throttleSetMin, %function
 1047              	meas_throttleSetMin:
 1048              	.LFB124:
 1049              		.loc 1 266 0
 1050              		.cfi_startproc
 1051              		@ args = 0, pretend = 0, frame = 0
 1052              		@ frame_needed = 0, uses_anonymous_args = 0
 1053              		@ link register save eliminated.
 1054              		.loc 1 267 0
 1055 0000 014B     		ldr	r3, .L46
 1056 0002 0122     		movs	r2, #1
 1057 0004 1A70     		strb	r2, [r3, #0]
 1058              		.loc 1 268 0
 1059 0006 7047     		bx	lr
 1060              	.L47:
 1061              		.align	2
 1062              	.L46:
 1063 0008 00000000 		.word	.LANCHOR7
 1064              		.cfi_endproc
 1065              	.LFE124:
 1066              		.size	meas_throttleSetMin, .-meas_throttleSetMin
 1067 000c AFF30080 		.section	.text.meas_throttleSetMax,"ax",%progbits
 1068              		.align	2
 1069              		.p2align 4,,15
 1070              		.global	meas_throttleSetMax
 1071              		.thumb
 1072              		.thumb_func
 1073              		.type	meas_throttleSetMax, %function
ARM GAS  C:\Users\DNIEL~1\AppData\Local\Temp\cchmO6Yc.s 			page 20


 1074              	meas_throttleSetMax:
 1075              	.LFB125:
 1076              		.loc 1 269 0
 1077              		.cfi_startproc
 1078              		@ args = 0, pretend = 0, frame = 0
 1079              		@ frame_needed = 0, uses_anonymous_args = 0
 1080              		@ link register save eliminated.
 1081              		.loc 1 270 0
 1082 0000 014B     		ldr	r3, .L49
 1083 0002 0122     		movs	r2, #1
 1084 0004 1A70     		strb	r2, [r3, #0]
 1085              		.loc 1 271 0
 1086 0006 7047     		bx	lr
 1087              	.L50:
 1088              		.align	2
 1089              	.L49:
 1090 0008 00000000 		.word	.LANCHOR8
 1091              		.cfi_endproc
 1092              	.LFE125:
 1093              		.size	meas_throttleSetMax, .-meas_throttleSetMax
 1094 000c AFF30080 		.section	.text.meas_regen_brakeSetMin,"ax",%progbits
 1095              		.align	2
 1096              		.p2align 4,,15
 1097              		.global	meas_regen_brakeSetMin
 1098              		.thumb
 1099              		.thumb_func
 1100              		.type	meas_regen_brakeSetMin, %function
 1101              	meas_regen_brakeSetMin:
 1102              	.LFB126:
 1103              		.loc 1 273 0
 1104              		.cfi_startproc
 1105              		@ args = 0, pretend = 0, frame = 0
 1106              		@ frame_needed = 0, uses_anonymous_args = 0
 1107              		@ link register save eliminated.
 1108              		.loc 1 274 0
 1109 0000 014B     		ldr	r3, .L52
 1110 0002 0122     		movs	r2, #1
 1111 0004 1A70     		strb	r2, [r3, #0]
 1112              		.loc 1 275 0
 1113 0006 7047     		bx	lr
 1114              	.L53:
 1115              		.align	2
 1116              	.L52:
 1117 0008 00000000 		.word	.LANCHOR9
 1118              		.cfi_endproc
 1119              	.LFE126:
 1120              		.size	meas_regen_brakeSetMin, .-meas_regen_brakeSetMin
 1121 000c AFF30080 		.section	.text.meas_regen_brakeSetMax,"ax",%progbits
 1122              		.align	2
 1123              		.p2align 4,,15
 1124              		.global	meas_regen_brakeSetMax
 1125              		.thumb
 1126              		.thumb_func
 1127              		.type	meas_regen_brakeSetMax, %function
 1128              	meas_regen_brakeSetMax:
 1129              	.LFB127:
 1130              		.loc 1 276 0
ARM GAS  C:\Users\DNIEL~1\AppData\Local\Temp\cchmO6Yc.s 			page 21


 1131              		.cfi_startproc
 1132              		@ args = 0, pretend = 0, frame = 0
 1133              		@ frame_needed = 0, uses_anonymous_args = 0
 1134              		@ link register save eliminated.
 1135              		.loc 1 277 0
 1136 0000 014B     		ldr	r3, .L55
 1137 0002 0122     		movs	r2, #1
 1138 0004 1A70     		strb	r2, [r3, #0]
 1139              		.loc 1 278 0
 1140 0006 7047     		bx	lr
 1141              	.L56:
 1142              		.align	2
 1143              	.L55:
 1144 0008 00000000 		.word	.LANCHOR10
 1145              		.cfi_endproc
 1146              	.LFE127:
 1147              		.size	meas_regen_brakeSetMax, .-meas_regen_brakeSetMax
 1148 000c AFF30080 		.section	.text.mainTime,"ax",%progbits
 1149              		.align	2
 1150              		.p2align 4,,15
 1151              		.global	mainTime
 1152              		.thumb
 1153              		.thumb_func
 1154              		.type	mainTime, %function
 1155              	mainTime:
 1156              	.LFB128:
 1157              		.loc 1 280 0
 1158              		.cfi_startproc
 1159              		@ args = 0, pretend = 0, frame = 0
 1160              		@ frame_needed = 0, uses_anonymous_args = 0
 1161              		@ link register save eliminated.
 1162              	.LVL105:
 1163              		.loc 1 281 0
 1164 0000 014B     		ldr	r3, .L58
 1165 0002 1860     		str	r0, [r3, #0]
 1166              		.loc 1 282 0
 1167 0004 7047     		bx	lr
 1168              	.L59:
 1169 0006 00BF     		.align	2
 1170              	.L58:
 1171 0008 00000000 		.word	.LANCHOR17
 1172              		.cfi_endproc
 1173              	.LFE128:
 1174              		.size	mainTime, .-mainTime
 1175 000c AFF30080 		.section	.text.cmd_measvalues,"ax",%progbits
 1176              		.align	2
 1177              		.p2align 4,,15
 1178              		.global	cmd_measvalues
 1179              		.thumb
 1180              		.thumb_func
 1181              		.type	cmd_measvalues, %function
 1182              	cmd_measvalues:
 1183              	.LFB130:
 1184              		.loc 1 293 0
 1185              		.cfi_startproc
 1186              		@ args = 0, pretend = 0, frame = 0
 1187              		@ frame_needed = 0, uses_anonymous_args = 0
ARM GAS  C:\Users\DNIEL~1\AppData\Local\Temp\cchmO6Yc.s 			page 22


 1188              	.LVL106:
 1189 0000 70B5     		push	{r4, r5, r6, lr}
 1190              	.LCFI6:
 1191              		.cfi_def_cfa_offset 16
 1192              		.loc 1 314 0
 1193 0002 2D49     		ldr	r1, .L63
 1194              	.LVL107:
 1195              		.loc 1 319 0
 1196 0004 2D4D     		ldr	r5, .L63+4
 1197              		.cfi_offset 14, -4
 1198              		.cfi_offset 6, -8
 1199              		.cfi_offset 5, -12
 1200              		.cfi_offset 4, -16
 1201              		.loc 1 322 0
 1202 0006 2E4E     		ldr	r6, .L63+8
 1203              		.loc 1 293 0
 1204 0008 0446     		mov	r4, r0
 1205              		.loc 1 314 0
 1206 000a FFF7FEFF 		bl	chprintf
 1207              	.LVL108:
 1208              		.loc 1 315 0
 1209 000e 2046     		mov	r0, r4
 1210 0010 2C49     		ldr	r1, .L63+12
 1211 0012 FFF7FEFF 		bl	chprintf
 1212              		.loc 1 316 0
 1213 0016 45E0     		b	.L61
 1214              	.L62:
 1215              		.loc 1 317 0
 1216 0018 0022     		movs	r2, #0
 1217 001a 1346     		mov	r3, r2
 1218 001c 2A49     		ldr	r1, .L63+16
 1219 001e 2046     		mov	r0, r4
 1220 0020 FFF7FEFF 		bl	chprintf
 1221              	.LVL109:
 1222              		.loc 1 319 0
 1223 0024 2046     		mov	r0, r4
 1224 0026 2949     		ldr	r1, .L63+20
 1225 0028 294A     		ldr	r2, .L63+24
 1226 002a 2B68     		ldr	r3, [r5, #0]
 1227 002c FFF7FEFF 		bl	chprintf
 1228              	.LVL110:
 1229 0030 2046     		mov	r0, r4
 1230 0032 2649     		ldr	r1, .L63+20
 1231 0034 274A     		ldr	r2, .L63+28
 1232 0036 6B68     		ldr	r3, [r5, #4]
 1233 0038 FFF7FEFF 		bl	chprintf
 1234              	.LVL111:
 1235 003c 2046     		mov	r0, r4
 1236 003e 2349     		ldr	r1, .L63+20
 1237 0040 254A     		ldr	r2, .L63+32
 1238 0042 AB68     		ldr	r3, [r5, #8]
 1239 0044 FFF7FEFF 		bl	chprintf
 1240              	.LVL112:
 1241 0048 2046     		mov	r0, r4
 1242 004a 2049     		ldr	r1, .L63+20
 1243 004c 234A     		ldr	r2, .L63+36
 1244 004e EB68     		ldr	r3, [r5, #12]
ARM GAS  C:\Users\DNIEL~1\AppData\Local\Temp\cchmO6Yc.s 			page 23


 1245 0050 FFF7FEFF 		bl	chprintf
 1246              	.LVL113:
 1247 0054 2046     		mov	r0, r4
 1248 0056 1D49     		ldr	r1, .L63+20
 1249 0058 214A     		ldr	r2, .L63+40
 1250 005a 2B69     		ldr	r3, [r5, #16]
 1251 005c FFF7FEFF 		bl	chprintf
 1252              	.LVL114:
 1253 0060 2046     		mov	r0, r4
 1254 0062 1A49     		ldr	r1, .L63+20
 1255 0064 1F4A     		ldr	r2, .L63+44
 1256 0066 6B69     		ldr	r3, [r5, #20]
 1257 0068 FFF7FEFF 		bl	chprintf
 1258              	.LVL115:
 1259 006c 2046     		mov	r0, r4
 1260 006e 1749     		ldr	r1, .L63+20
 1261 0070 1D4A     		ldr	r2, .L63+48
 1262 0072 AB69     		ldr	r3, [r5, #24]
 1263 0074 FFF7FEFF 		bl	chprintf
 1264              	.LVL116:
 1265              		.loc 1 322 0
 1266 0078 2046     		mov	r0, r4
 1267 007a 1449     		ldr	r1, .L63+20
 1268 007c 1B4A     		ldr	r2, .L63+52
 1269 007e 3368     		ldr	r3, [r6, #0]
 1270 0080 FFF7FEFF 		bl	chprintf
 1271              	.LVL117:
 1272 0084 2046     		mov	r0, r4
 1273 0086 1149     		ldr	r1, .L63+20
 1274 0088 194A     		ldr	r2, .L63+56
 1275 008a 7368     		ldr	r3, [r6, #4]
 1276 008c FFF7FEFF 		bl	chprintf
 1277              	.LVL118:
 1278 0090 2046     		mov	r0, r4
 1279 0092 0E49     		ldr	r1, .L63+20
 1280 0094 174A     		ldr	r2, .L63+60
 1281 0096 B368     		ldr	r3, [r6, #8]
 1282 0098 FFF7FEFF 		bl	chprintf
 1283              	.LVL119:
 1284              		.loc 1 324 0
 1285 009c 4FF4FA70 		mov	r0, #500
 1286 00a0 FFF7FEFF 		bl	chThdSleep
 1287              	.LVL120:
 1288              	.L61:
 1289              		.loc 1 316 0 discriminator 1
 1290 00a4 2168     		ldr	r1, [r4, #0]
 1291 00a6 2046     		mov	r0, r4
 1292 00a8 4B69     		ldr	r3, [r1, #20]
 1293 00aa 0021     		movs	r1, #0
 1294 00ac 9847     		blx	r3
 1295 00ae B0F1FF3F 		cmp	r0, #-1
 1296 00b2 B1D0     		beq	.L62
 1297              		.loc 1 326 0
 1298 00b4 70BD     		pop	{r4, r5, r6, pc}
 1299              	.L64:
 1300 00b6 00BF     		.align	2
 1301              	.L63:
ARM GAS  C:\Users\DNIEL~1\AppData\Local\Temp\cchmO6Yc.s 			page 24


 1302 00b8 00000000 		.word	.LC0
 1303 00bc 00000000 		.word	.LANCHOR12
 1304 00c0 00000000 		.word	.LANCHOR14
 1305 00c4 04000000 		.word	.LC1
 1306 00c8 0C000000 		.word	.LC2
 1307 00cc 18000000 		.word	.LC3
 1308 00d0 24000000 		.word	.LC4
 1309 00d4 2C000000 		.word	.LC5
 1310 00d8 3C000000 		.word	.LC6
 1311 00dc 4C000000 		.word	.LC7
 1312 00e0 54000000 		.word	.LC8
 1313 00e4 5C000000 		.word	.LC9
 1314 00e8 64000000 		.word	.LC10
 1315 00ec 6C000000 		.word	.LC11
 1316 00f0 74000000 		.word	.LC12
 1317 00f4 80000000 		.word	.LC13
 1318              		.cfi_endproc
 1319              	.LFE130:
 1320              		.size	cmd_measvalues, .-cmd_measvalues
 1321 00f8 AFF30080 		.section	.text.cmd_getThrottle,"ax",%progbits
 1321      AFF30080 
 1322              		.align	2
 1323              		.p2align 4,,15
 1324              		.global	cmd_getThrottle
 1325              		.thumb
 1326              		.thumb_func
 1327              		.type	cmd_getThrottle, %function
 1328              	cmd_getThrottle:
 1329              	.LFB131:
 1330              		.loc 1 328 0
 1331              		.cfi_startproc
 1332              		@ args = 0, pretend = 0, frame = 0
 1333              		@ frame_needed = 0, uses_anonymous_args = 0
 1334              	.LVL121:
 1335 0000 70B5     		push	{r4, r5, r6, lr}
 1336              	.LCFI7:
 1337              		.cfi_def_cfa_offset 16
 1338              		.loc 1 328 0
 1339 0002 0D46     		mov	r5, r1
 1340              		.cfi_offset 14, -4
 1341              		.cfi_offset 6, -8
 1342              		.cfi_offset 5, -12
 1343              		.cfi_offset 4, -16
 1344 0004 0446     		mov	r4, r0
 1345              		.loc 1 332 0
 1346 0006 1849     		ldr	r1, .L70
 1347              	.LVL122:
 1348              		.loc 1 328 0
 1349 0008 1646     		mov	r6, r2
 1350              		.loc 1 332 0
 1351 000a FFF7FEFF 		bl	chprintf
 1352              	.LVL123:
 1353              		.loc 1 333 0
 1354 000e 2046     		mov	r0, r4
 1355 0010 1649     		ldr	r1, .L70+4
 1356 0012 FFF7FEFF 		bl	chprintf
 1357              		.loc 1 335 0
ARM GAS  C:\Users\DNIEL~1\AppData\Local\Temp\cchmO6Yc.s 			page 25


 1358 0016 012D     		cmp	r5, #1
 1359 0018 09D0     		beq	.L68
 1360              	.LVL124:
 1361              	.L66:
 1362              		.loc 1 346 0
 1363 001a 2046     		mov	r0, r4
 1364 001c 1449     		ldr	r1, .L70+8
 1365 001e FFF7FEFF 		bl	chprintf
 1366              		.loc 1 347 0
 1367 0022 1449     		ldr	r1, .L70+12
 1368 0024 2046     		mov	r0, r4
 1369              		.loc 1 350 0
 1370 0026 BDE87040 		pop	{r4, r5, r6, lr}
 1371              		.loc 1 347 0
 1372 002a FFF7FEBF 		b	chprintf
 1373              	.LVL125:
 1374              	.L68:
 1375              		.loc 1 335 0 discriminator 1
 1376 002e 3668     		ldr	r6, [r6, #0]
 1377              	.LVL126:
 1378 0030 1149     		ldr	r1, .L70+16
 1379 0032 3046     		mov	r0, r6
 1380 0034 FFF7FEFF 		bl	strcmp
 1381 0038 68B1     		cbz	r0, .L69
 1382              		.loc 1 340 0 discriminator 1
 1383 003a 3046     		mov	r0, r6
 1384 003c 0F49     		ldr	r1, .L70+20
 1385 003e FFF7FEFF 		bl	strcmp
 1386 0042 0028     		cmp	r0, #0
 1387 0044 E9D1     		bne	.L66
 1388              	.LBB43:
 1389              	.LBB44:
 1390              		.loc 1 270 0
 1391 0046 0E48     		ldr	r0, .L70+24
 1392              	.LBE44:
 1393              	.LBE43:
 1394              		.loc 1 342 0
 1395 0048 0E49     		ldr	r1, .L70+28
 1396              	.LBB46:
 1397              	.LBB45:
 1398              		.loc 1 270 0
 1399 004a 0570     		strb	r5, [r0, #0]
 1400              	.LBE45:
 1401              	.LBE46:
 1402              		.loc 1 342 0
 1403 004c 2046     		mov	r0, r4
 1404              		.loc 1 350 0
 1405 004e BDE87040 		pop	{r4, r5, r6, lr}
 1406              		.loc 1 342 0
 1407 0052 FFF7FEBF 		b	chprintf
 1408              	.L69:
 1409              	.LBB47:
 1410              	.LBB48:
 1411              		.loc 1 267 0
 1412 0056 0C4B     		ldr	r3, .L70+32
 1413              	.LBE48:
 1414              	.LBE47:
ARM GAS  C:\Users\DNIEL~1\AppData\Local\Temp\cchmO6Yc.s 			page 26


 1415              		.loc 1 337 0
 1416 0058 0C49     		ldr	r1, .L70+36
 1417              	.LBB50:
 1418              	.LBB49:
 1419              		.loc 1 267 0
 1420 005a 1D70     		strb	r5, [r3, #0]
 1421              	.LBE49:
 1422              	.LBE50:
 1423              		.loc 1 337 0
 1424 005c 2046     		mov	r0, r4
 1425              		.loc 1 350 0
 1426 005e BDE87040 		pop	{r4, r5, r6, lr}
 1427              		.loc 1 337 0
 1428 0062 FFF7FEBF 		b	chprintf
 1429              	.L71:
 1430 0066 00BF     		.align	2
 1431              	.L70:
 1432 0068 00000000 		.word	.LC0
 1433 006c 04000000 		.word	.LC1
 1434 0070 E4000000 		.word	.LC18
 1435 0074 00010000 		.word	.LC19
 1436 0078 8C000000 		.word	.LC14
 1437 007c B8000000 		.word	.LC16
 1438 0080 00000000 		.word	.LANCHOR8
 1439 0084 C0000000 		.word	.LC17
 1440 0088 00000000 		.word	.LANCHOR7
 1441 008c 94000000 		.word	.LC15
 1442              		.cfi_endproc
 1443              	.LFE131:
 1444              		.size	cmd_getThrottle, .-cmd_getThrottle
 1445              		.section	.text.cmd_getRegenBrake,"ax",%progbits
 1446              		.align	2
 1447              		.p2align 4,,15
 1448              		.global	cmd_getRegenBrake
 1449              		.thumb
 1450              		.thumb_func
 1451              		.type	cmd_getRegenBrake, %function
 1452              	cmd_getRegenBrake:
 1453              	.LFB132:
 1454              		.loc 1 352 0
 1455              		.cfi_startproc
 1456              		@ args = 0, pretend = 0, frame = 0
 1457              		@ frame_needed = 0, uses_anonymous_args = 0
 1458              	.LVL127:
 1459 0000 70B5     		push	{r4, r5, r6, lr}
 1460              	.LCFI8:
 1461              		.cfi_def_cfa_offset 16
 1462              		.loc 1 352 0
 1463 0002 0D46     		mov	r5, r1
 1464              		.cfi_offset 14, -4
 1465              		.cfi_offset 6, -8
 1466              		.cfi_offset 5, -12
 1467              		.cfi_offset 4, -16
 1468 0004 0446     		mov	r4, r0
 1469              		.loc 1 356 0
 1470 0006 1849     		ldr	r1, .L77
 1471              	.LVL128:
ARM GAS  C:\Users\DNIEL~1\AppData\Local\Temp\cchmO6Yc.s 			page 27


 1472              		.loc 1 352 0
 1473 0008 1646     		mov	r6, r2
 1474              		.loc 1 356 0
 1475 000a FFF7FEFF 		bl	chprintf
 1476              	.LVL129:
 1477              		.loc 1 357 0
 1478 000e 2046     		mov	r0, r4
 1479 0010 1649     		ldr	r1, .L77+4
 1480 0012 FFF7FEFF 		bl	chprintf
 1481              		.loc 1 359 0
 1482 0016 012D     		cmp	r5, #1
 1483 0018 09D0     		beq	.L75
 1484              	.LVL130:
 1485              	.L73:
 1486              		.loc 1 370 0
 1487 001a 2046     		mov	r0, r4
 1488 001c 1449     		ldr	r1, .L77+8
 1489 001e FFF7FEFF 		bl	chprintf
 1490              		.loc 1 371 0
 1491 0022 1449     		ldr	r1, .L77+12
 1492 0024 2046     		mov	r0, r4
 1493              		.loc 1 374 0
 1494 0026 BDE87040 		pop	{r4, r5, r6, lr}
 1495              		.loc 1 371 0
 1496 002a FFF7FEBF 		b	chprintf
 1497              	.LVL131:
 1498              	.L75:
 1499              		.loc 1 359 0 discriminator 1
 1500 002e 3668     		ldr	r6, [r6, #0]
 1501              	.LVL132:
 1502 0030 1149     		ldr	r1, .L77+16
 1503 0032 3046     		mov	r0, r6
 1504 0034 FFF7FEFF 		bl	strcmp
 1505 0038 68B1     		cbz	r0, .L76
 1506              		.loc 1 364 0 discriminator 1
 1507 003a 3046     		mov	r0, r6
 1508 003c 0F49     		ldr	r1, .L77+20
 1509 003e FFF7FEFF 		bl	strcmp
 1510 0042 0028     		cmp	r0, #0
 1511 0044 E9D1     		bne	.L73
 1512              	.LBB51:
 1513              	.LBB52:
 1514              		.loc 1 277 0
 1515 0046 0E48     		ldr	r0, .L77+24
 1516              	.LBE52:
 1517              	.LBE51:
 1518              		.loc 1 366 0
 1519 0048 0E49     		ldr	r1, .L77+28
 1520              	.LBB54:
 1521              	.LBB53:
 1522              		.loc 1 277 0
 1523 004a 0570     		strb	r5, [r0, #0]
 1524              	.LBE53:
 1525              	.LBE54:
 1526              		.loc 1 366 0
 1527 004c 2046     		mov	r0, r4
 1528              		.loc 1 374 0
ARM GAS  C:\Users\DNIEL~1\AppData\Local\Temp\cchmO6Yc.s 			page 28


 1529 004e BDE87040 		pop	{r4, r5, r6, lr}
 1530              		.loc 1 366 0
 1531 0052 FFF7FEBF 		b	chprintf
 1532              	.L76:
 1533              	.LBB55:
 1534              	.LBB56:
 1535              		.loc 1 274 0
 1536 0056 0C4B     		ldr	r3, .L77+32
 1537              	.LBE56:
 1538              	.LBE55:
 1539              		.loc 1 361 0
 1540 0058 0C49     		ldr	r1, .L77+36
 1541              	.LBB58:
 1542              	.LBB57:
 1543              		.loc 1 274 0
 1544 005a 1D70     		strb	r5, [r3, #0]
 1545              	.LBE57:
 1546              	.LBE58:
 1547              		.loc 1 361 0
 1548 005c 2046     		mov	r0, r4
 1549              		.loc 1 374 0
 1550 005e BDE87040 		pop	{r4, r5, r6, lr}
 1551              		.loc 1 361 0
 1552 0062 FFF7FEBF 		b	chprintf
 1553              	.L78:
 1554 0066 00BF     		.align	2
 1555              	.L77:
 1556 0068 00000000 		.word	.LC0
 1557 006c 04000000 		.word	.LC1
 1558 0070 E4000000 		.word	.LC18
 1559 0074 00010000 		.word	.LC19
 1560 0078 8C000000 		.word	.LC14
 1561 007c B8000000 		.word	.LC16
 1562 0080 00000000 		.word	.LANCHOR10
 1563 0084 44010000 		.word	.LC21
 1564 0088 00000000 		.word	.LANCHOR9
 1565 008c 1C010000 		.word	.LC20
 1566              		.cfi_endproc
 1567              	.LFE132:
 1568              		.size	cmd_getRegenBrake, .-cmd_getRegenBrake
 1569              		.section	.text.cmd_mainValues,"ax",%progbits
 1570              		.align	2
 1571              		.p2align 4,,15
 1572              		.global	cmd_mainValues
 1573              		.thumb
 1574              		.thumb_func
 1575              		.type	cmd_mainValues, %function
 1576              	cmd_mainValues:
 1577              	.LFB133:
 1578              		.loc 1 376 0
 1579              		.cfi_startproc
 1580              		@ args = 0, pretend = 0, frame = 0
 1581              		@ frame_needed = 0, uses_anonymous_args = 0
 1582              	.LVL133:
 1583 0000 F0B5     		push	{r4, r5, r6, r7, lr}
 1584              	.LCFI9:
 1585              		.cfi_def_cfa_offset 20
ARM GAS  C:\Users\DNIEL~1\AppData\Local\Temp\cchmO6Yc.s 			page 29


 1586              		.loc 1 380 0
 1587 0002 1149     		ldr	r1, .L82
 1588              	.LVL134:
 1589              		.loc 1 383 0
 1590 0004 114D     		ldr	r5, .L82+4
 1591              		.cfi_offset 14, -4
 1592              		.cfi_offset 7, -8
 1593              		.cfi_offset 6, -12
 1594              		.cfi_offset 5, -16
 1595              		.cfi_offset 4, -20
 1596 0006 124E     		ldr	r6, .L82+8
 1597              		.loc 1 376 0
 1598 0008 0446     		mov	r4, r0
 1599 000a 83B0     		sub	sp, sp, #12
 1600              	.LCFI10:
 1601              		.cfi_def_cfa_offset 32
 1602              		.loc 1 380 0
 1603 000c FFF7FEFF 		bl	chprintf
 1604              	.LVL135:
 1605              		.loc 1 381 0
 1606 0010 2046     		mov	r0, r4
 1607 0012 1049     		ldr	r1, .L82+12
 1608 0014 FFF7FEFF 		bl	chprintf
 1609              		.loc 1 382 0
 1610 0018 0BE0     		b	.L80
 1611              	.L81:
 1612              		.loc 1 383 0
 1613 001a EA68     		ldr	r2, [r5, #12]
 1614 001c 3368     		ldr	r3, [r6, #0]
 1615 001e EF68     		ldr	r7, [r5, #12]
 1616 0020 0D49     		ldr	r1, .L82+16
 1617 0022 DF1B     		subs	r7, r3, r7
 1618 0024 2046     		mov	r0, r4
 1619 0026 0097     		str	r7, [sp, #0]
 1620 0028 FFF7FEFF 		bl	chprintf
 1621              		.loc 1 384 0
 1622 002c 3220     		movs	r0, #50
 1623 002e FFF7FEFF 		bl	chThdSleep
 1624              	.L80:
 1625              		.loc 1 382 0 discriminator 1
 1626 0032 2168     		ldr	r1, [r4, #0]
 1627 0034 2046     		mov	r0, r4
 1628 0036 4B69     		ldr	r3, [r1, #20]
 1629 0038 0021     		movs	r1, #0
 1630 003a 9847     		blx	r3
 1631 003c B0F1FF3F 		cmp	r0, #-1
 1632 0040 EBD0     		beq	.L81
 1633              		.loc 1 386 0
 1634 0042 03B0     		add	sp, sp, #12
 1635 0044 F0BD     		pop	{r4, r5, r6, r7, pc}
 1636              	.L83:
 1637 0046 00BF     		.align	2
 1638              	.L82:
 1639 0048 00000000 		.word	.LC0
 1640 004c 00000000 		.word	vtlist
 1641 0050 00000000 		.word	.LANCHOR17
 1642 0054 04000000 		.word	.LC1
ARM GAS  C:\Users\DNIEL~1\AppData\Local\Temp\cchmO6Yc.s 			page 30


 1643 0058 6C010000 		.word	.LC22
 1644              		.cfi_endproc
 1645              	.LFE133:
 1646              		.size	cmd_mainValues, .-cmd_mainValues
 1647              		.global	measstate
 1648 005c AFF30080 		.section	.bss.measValue,"aw",%nobits
 1649              		.align	2
 1650              		.set	.LANCHOR12,. + 0
 1651              		.type	measValue, %object
 1652              		.size	measValue, 36
 1653              	measValue:
 1654 0000 00000000 		.space	36
 1654      00000000 
 1654      00000000 
 1654      00000000 
 1654      00000000 
 1655              		.section	.bss.max_throttle,"aw",%nobits
 1656              		.align	1
 1657              		.set	.LANCHOR1,. + 0
 1658              		.type	max_throttle, %object
 1659              		.size	max_throttle, 2
 1660              	max_throttle:
 1661 0000 0000     		.space	2
 1662              		.section	.bss.set_min_throttle,"aw",%nobits
 1663              		.set	.LANCHOR7,. + 0
 1664              		.type	set_min_throttle, %object
 1665              		.size	set_min_throttle, 1
 1666              	set_min_throttle:
 1667 0000 00       		.space	1
 1668              		.section	.bss.set_max_regen,"aw",%nobits
 1669              		.set	.LANCHOR10,. + 0
 1670              		.type	set_max_regen, %object
 1671              		.size	set_max_regen, 1
 1672              	set_max_regen:
 1673 0000 00       		.space	1
 1674              		.section	.bss.measstate,"aw",%nobits
 1675              		.set	.LANCHOR0,. + 0
 1676              		.type	measstate, %object
 1677              		.size	measstate, 1
 1678              	measstate:
 1679 0000 00       		.space	1
 1680              		.section	.bss.min_regen_brake,"aw",%nobits
 1681              		.align	1
 1682              		.set	.LANCHOR4,. + 0
 1683              		.type	min_regen_brake, %object
 1684              		.size	min_regen_brake, 2
 1685              	min_regen_brake:
 1686 0000 0000     		.space	2
 1687              		.section	.bss.measValue_2,"aw",%nobits
 1688              		.align	2
 1689              		.set	.LANCHOR14,. + 0
 1690              		.type	measValue_2, %object
 1691              		.size	measValue_2, 20
 1692              	measValue_2:
 1693 0000 00000000 		.space	20
 1693      00000000 
 1693      00000000 
ARM GAS  C:\Users\DNIEL~1\AppData\Local\Temp\cchmO6Yc.s 			page 31


 1693      00000000 
 1693      00000000 
 1694              		.section	.bss.samples_2,"aw",%nobits
 1695              		.align	2
 1696              		.set	.LANCHOR13,. + 0
 1697              		.type	samples_2, %object
 1698              		.size	samples_2, 48
 1699              	samples_2:
 1700 0000 00000000 		.space	48
 1700      00000000 
 1700      00000000 
 1700      00000000 
 1700      00000000 
 1701              		.section	.bss.ido,"aw",%nobits
 1702              		.align	2
 1703              		.set	.LANCHOR17,. + 0
 1704              		.type	ido, %object
 1705              		.size	ido, 4
 1706              	ido:
 1707 0000 00000000 		.space	4
 1708              		.section	.rodata.adcgrpcfg,"a",%progbits
 1709              		.align	2
 1710              		.set	.LANCHOR15,. + 0
 1711              		.type	adcgrpcfg, %object
 1712              		.size	adcgrpcfg, 40
 1713              	adcgrpcfg:
 1714 0000 00       		.byte	0
 1715 0001 00       		.space	1
 1716 0002 0700     		.short	7
 1717 0004 00000000 		.word	0
 1718 0008 00000000 		.word	adcerrorcallback
 1719 000c 00000000 		.word	0
 1720 0010 00000040 		.word	1073741824
 1721 0014 49920000 		.word	37449
 1722 0018 00000001 		.word	16777216
 1723 001c 00006000 		.word	6291456
 1724 0020 08000000 		.word	8
 1725 0024 4E2DD61E 		.word	517352782
 1726              		.section	.bss.set_min_regen,"aw",%nobits
 1727              		.set	.LANCHOR9,. + 0
 1728              		.type	set_min_regen, %object
 1729              		.size	set_min_regen, 1
 1730              	set_min_regen:
 1731 0000 00       		.space	1
 1732              		.section	.rodata.adcgrpcfg_2,"a",%progbits
 1733              		.align	2
 1734              		.set	.LANCHOR16,. + 0
 1735              		.type	adcgrpcfg_2, %object
 1736              		.size	adcgrpcfg_2, 40
 1737              	adcgrpcfg_2:
 1738 0000 00       		.byte	0
 1739 0001 00       		.space	1
 1740 0002 0300     		.short	3
 1741 0004 00000000 		.word	0
 1742 0008 00000000 		.word	adcerrorcallback
 1743 000c 00000000 		.word	0
 1744 0010 00000040 		.word	1073741824
ARM GAS  C:\Users\DNIEL~1\AppData\Local\Temp\cchmO6Yc.s 			page 32


 1745 0014 00000000 		.word	0
 1746 0018 00900400 		.word	299008
 1747 001c 00002000 		.word	2097152
 1748 0020 00000000 		.word	0
 1749 0024 A4180000 		.word	6308
 1750              		.section	.bss.min_throttle,"aw",%nobits
 1751              		.align	1
 1752              		.set	.LANCHOR2,. + 0
 1753              		.type	min_throttle, %object
 1754              		.size	min_throttle, 2
 1755              	min_throttle:
 1756 0000 0000     		.space	2
 1757              		.section	.bss.set_max_throttle,"aw",%nobits
 1758              		.set	.LANCHOR8,. + 0
 1759              		.type	set_max_throttle, %object
 1760              		.size	set_max_throttle, 1
 1761              	set_max_throttle:
 1762 0000 00       		.space	1
 1763              		.section	.bss.regen_brake,"aw",%nobits
 1764              		.align	1
 1765              		.set	.LANCHOR6,. + 0
 1766              		.type	regen_brake, %object
 1767              		.size	regen_brake, 2
 1768              	regen_brake:
 1769 0000 0000     		.space	2
 1770              		.section	.bss.samples,"aw",%nobits
 1771              		.align	2
 1772              		.set	.LANCHOR11,. + 0
 1773              		.type	samples, %object
 1774              		.size	samples, 112
 1775              	samples:
 1776 0000 00000000 		.space	112
 1776      00000000 
 1776      00000000 
 1776      00000000 
 1776      00000000 
 1777              		.section	.bss.throttle,"aw",%nobits
 1778              		.align	1
 1779              		.set	.LANCHOR5,. + 0
 1780              		.type	throttle, %object
 1781              		.size	throttle, 2
 1782              	throttle:
 1783 0000 0000     		.space	2
 1784              		.section	.bss.max_regen_brake,"aw",%nobits
 1785              		.align	1
 1786              		.set	.LANCHOR3,. + 0
 1787              		.type	max_regen_brake, %object
 1788              		.size	max_regen_brake, 2
 1789              	max_regen_brake:
 1790 0000 0000     		.space	2
 1791              		.section	.rodata.str1.4,"aMS",%progbits,1
 1792              		.align	2
 1793              	.LC0:
 1794 0000 1B6300   		.ascii	"\033c\000"
 1795 0003 00       		.space	1
 1796              	.LC1:
 1797 0004 1B5B324A 		.ascii	"\033[2J\000"
ARM GAS  C:\Users\DNIEL~1\AppData\Local\Temp\cchmO6Yc.s 			page 33


 1797      00
 1798 0009 000000   		.space	3
 1799              	.LC2:
 1800 000c 1B5B2564 		.ascii	"\033[%d;%dH\000"
 1800      3B256448 
 1800      00
 1801 0015 000000   		.space	3
 1802              	.LC3:
 1803 0018 25733A20 		.ascii	"%s: %15d\015\012\000"
 1803      25313564 
 1803      0D0A00
 1804 0023 00       		.space	1
 1805              	.LC4:
 1806 0024 55424154 		.ascii	"UBAT\000"
 1806      00
 1807 0029 000000   		.space	3
 1808              	.LC5:
 1809 002c 4252414B 		.ascii	"BRAKE_PRESSURE1\000"
 1809      455F5052 
 1809      45535355 
 1809      52453100 
 1810              	.LC6:
 1811 003c 4252414B 		.ascii	"BRAKE_PRESSURE2\000"
 1811      455F5052 
 1811      45535355 
 1811      52453200 
 1812              	.LC7:
 1813 004c 53454E32 		.ascii	"SEN2\000"
 1813      00
 1814 0051 000000   		.space	3
 1815              	.LC8:
 1816 0054 53454E33 		.ascii	"SEN3\000"
 1816      00
 1817 0059 000000   		.space	3
 1818              	.LC9:
 1819 005c 53454E34 		.ascii	"SEN4\000"
 1819      00
 1820 0061 000000   		.space	3
 1821              	.LC10:
 1822 0064 53454E35 		.ascii	"SEN5\000"
 1822      00
 1823 0069 000000   		.space	3
 1824              	.LC11:
 1825 006c 43555252 		.ascii	"CURR1\000"
 1825      3100
 1826 0072 0000     		.space	2
 1827              	.LC12:
 1828 0074 5448524F 		.ascii	"THROTTLE\000"
 1828      54544C45 
 1828      00
 1829 007d 000000   		.space	3
 1830              	.LC13:
 1831 0080 52454745 		.ascii	"REGEN_BRAKE\000"
 1831      4E5F4252 
 1831      414B4500 
 1832              	.LC14:
 1833 008c 7365745F 		.ascii	"set_min\000"
ARM GAS  C:\Users\DNIEL~1\AppData\Local\Temp\cchmO6Yc.s 			page 34


 1833      6D696E00 
 1834              	.LC15:
 1835 0094 53657420 		.ascii	"Set throttle pedal min. value!\015\012\000"
 1835      7468726F 
 1835      74746C65 
 1835      20706564 
 1835      616C206D 
 1836 00b5 000000   		.space	3
 1837              	.LC16:
 1838 00b8 7365745F 		.ascii	"set_max\000"
 1838      6D617800 
 1839              	.LC17:
 1840 00c0 53657420 		.ascii	"Set throttle pedal max. value!\015\012\000"
 1840      7468726F 
 1840      74746C65 
 1840      20706564 
 1840      616C206D 
 1841 00e1 000000   		.space	3
 1842              	.LC18:
 1843 00e4 55736167 		.ascii	"Usage: throttle set_min\015\012\000"
 1843      653A2074 
 1843      68726F74 
 1843      746C6520 
 1843      7365745F 
 1844 00fe 0000     		.space	2
 1845              	.LC19:
 1846 0100 20202020 		.ascii	"                set_max\015\012\000"
 1846      20202020 
 1846      20202020 
 1846      20202020 
 1846      7365745F 
 1847 011a 0000     		.space	2
 1848              	.LC20:
 1849 011c 53657420 		.ascii	"Set regen. brake pedal min. value!\015\012\000"
 1849      72656765 
 1849      6E2E2062 
 1849      72616B65 
 1849      20706564 
 1850 0141 000000   		.space	3
 1851              	.LC21:
 1852 0144 53657420 		.ascii	"Set regen. brake pedal max. value!\015\012\000"
 1852      72656765 
 1852      6E2E2062 
 1852      72616B65 
 1852      20706564 
 1853 0169 000000   		.space	3
 1854              	.LC22:
 1855 016c 63685469 		.ascii	"chTimeNov(), beallitott, maradek: %15d, %15d, %15d\015"
 1855      6D654E6F 
 1855      7628292C 
 1855      20626561 
 1855      6C6C6974 
 1856 019f 0A00     		.ascii	"\012\000"
 1857 01a1 000000   		.text
 1858              	.Letext0: