ARM GAS  C:\Users\danit\AppData\Local\Temp\ccx2tz3j.s 			page 1


   1              		.syntax unified
   2              		.cpu cortex-m4
   3              		.fpu softvfp
   4              		.eabi_attribute 20, 1
   5              		.eabi_attribute 21, 1
   6              		.eabi_attribute 23, 3
   7              		.eabi_attribute 24, 1
   8              		.eabi_attribute 25, 1
   9              		.eabi_attribute 26, 1
  10              		.eabi_attribute 30, 2
  11              		.eabi_attribute 34, 1
  12              		.eabi_attribute 18, 4
  13              		.thumb
  14              		.file	"pwm.c"
  15              		.text
  16              	.Ltext0:
  17              		.cfi_sections	.debug_frame
  18              		.section	.text.pwmInit,"ax",%progbits
  19              		.align	2
  20              		.p2align 4,,15
  21              		.global	pwmInit
  22              		.thumb
  23              		.thumb_func
  24              		.type	pwmInit, %function
  25              	pwmInit:
  26              	.LFB118:
  27              		.file 1 "../../../ChibiOS/os/hal/src/pwm.c"
  28              		.loc 1 68 0
  29              		.cfi_startproc
  30              		@ args = 0, pretend = 0, frame = 0
  31              		@ frame_needed = 0, uses_anonymous_args = 0
  32              		@ link register save eliminated.
  33              		.loc 1 70 0
  34 0000 FFF7FEBF 		b	pwm_lld_init
  35              	.LVL0:
  36              		.cfi_endproc
  37              	.LFE118:
  38              		.size	pwmInit, .-pwmInit
  39              		.section	.text.pwmObjectInit,"ax",%progbits
  40              		.align	2
  41              		.p2align 4,,15
  42              		.global	pwmObjectInit
  43              		.thumb
  44              		.thumb_func
  45              		.type	pwmObjectInit, %function
  46              	pwmObjectInit:
  47              	.LFB119:
  48              		.loc 1 80 0
  49              		.cfi_startproc
  50              		@ args = 0, pretend = 0, frame = 0
  51              		@ frame_needed = 0, uses_anonymous_args = 0
  52              		@ link register save eliminated.
  53              	.LVL1:
  54              		.loc 1 82 0
  55 0000 0122     		movs	r2, #1
  56              		.loc 1 83 0
  57 0002 0023     		movs	r3, #0
ARM GAS  C:\Users\danit\AppData\Local\Temp\ccx2tz3j.s 			page 2


  58              		.loc 1 82 0
  59 0004 0270     		strb	r2, [r0]
  60              		.loc 1 83 0
  61 0006 4360     		str	r3, [r0, #4]
  62 0008 7047     		bx	lr
  63              		.cfi_endproc
  64              	.LFE119:
  65              		.size	pwmObjectInit, .-pwmObjectInit
  66 000a 00BF     		.section	.text.pwmStart,"ax",%progbits
  67              		.align	2
  68              		.p2align 4,,15
  69              		.global	pwmStart
  70              		.thumb
  71              		.thumb_func
  72              		.type	pwmStart, %function
  73              	pwmStart:
  74              	.LFB120:
  75              		.loc 1 99 0
  76              		.cfi_startproc
  77              		@ args = 0, pretend = 0, frame = 0
  78              		@ frame_needed = 0, uses_anonymous_args = 0
  79              	.LVL2:
  80 0000 10B5     		push	{r4, lr}
  81              		.cfi_def_cfa_offset 8
  82              		.cfi_offset 4, -8
  83              		.cfi_offset 14, -4
  84              	.LBB2:
  85              		.loc 1 103 0
  86 0002 2023     		movs	r3, #32
  87              	.LBE2:
  88              		.loc 1 99 0
  89 0004 0446     		mov	r4, r0
  90              	.LBB3:
  91              		.loc 1 103 0
  92              	@ 103 "../../../ChibiOS/os/hal/src/pwm.c" 1
  93 0006 83F31188 		msr     BASEPRI, r3
  94              	@ 0 "" 2
  95              		.thumb
  96              	.LBE3:
  97              		.loc 1 107 0
  98 000a 8B88     		ldrh	r3, [r1, #4]
  99 000c 0381     		strh	r3, [r0, #8]	@ movhi
 100              		.loc 1 106 0
 101 000e 4160     		str	r1, [r0, #4]
 102              		.loc 1 108 0
 103 0010 FFF7FEFF 		bl	pwm_lld_start
 104              	.LVL3:
 105              		.loc 1 109 0
 106 0014 0223     		movs	r3, #2
 107 0016 2370     		strb	r3, [r4]
 108              	.LBB4:
 109              		.loc 1 110 0
 110 0018 0023     		movs	r3, #0
 111              	@ 110 "../../../ChibiOS/os/hal/src/pwm.c" 1
 112 001a 83F31188 		msr     BASEPRI, r3
 113              	@ 0 "" 2
 114              		.thumb
ARM GAS  C:\Users\danit\AppData\Local\Temp\ccx2tz3j.s 			page 3


 115 001e 10BD     		pop	{r4, pc}
 116              	.LBE4:
 117              		.cfi_endproc
 118              	.LFE120:
 119              		.size	pwmStart, .-pwmStart
 120              		.section	.text.pwmStop,"ax",%progbits
 121              		.align	2
 122              		.p2align 4,,15
 123              		.global	pwmStop
 124              		.thumb
 125              		.thumb_func
 126              		.type	pwmStop, %function
 127              	pwmStop:
 128              	.LFB121:
 129              		.loc 1 120 0
 130              		.cfi_startproc
 131              		@ args = 0, pretend = 0, frame = 0
 132              		@ frame_needed = 0, uses_anonymous_args = 0
 133              	.LVL4:
 134 0000 10B5     		push	{r4, lr}
 135              		.cfi_def_cfa_offset 8
 136              		.cfi_offset 4, -8
 137              		.cfi_offset 14, -4
 138              	.LBB5:
 139              		.loc 1 124 0
 140 0002 2023     		movs	r3, #32
 141              	.LBE5:
 142              		.loc 1 120 0
 143 0004 0446     		mov	r4, r0
 144              	.LBB6:
 145              		.loc 1 124 0
 146              	@ 124 "../../../ChibiOS/os/hal/src/pwm.c" 1
 147 0006 83F31188 		msr     BASEPRI, r3
 148              	@ 0 "" 2
 149              		.thumb
 150              	.LBE6:
 151              		.loc 1 127 0
 152 000a FFF7FEFF 		bl	pwm_lld_stop
 153              	.LVL5:
 154              		.loc 1 128 0
 155 000e 0123     		movs	r3, #1
 156 0010 2370     		strb	r3, [r4]
 157              	.LBB7:
 158              		.loc 1 129 0
 159 0012 0023     		movs	r3, #0
 160              	@ 129 "../../../ChibiOS/os/hal/src/pwm.c" 1
 161 0014 83F31188 		msr     BASEPRI, r3
 162              	@ 0 "" 2
 163              		.thumb
 164 0018 10BD     		pop	{r4, pc}
 165              	.LBE7:
 166              		.cfi_endproc
 167              	.LFE121:
 168              		.size	pwmStop, .-pwmStop
 169 001a 00BF     		.section	.text.pwmChangePeriod,"ax",%progbits
 170              		.align	2
 171              		.p2align 4,,15
ARM GAS  C:\Users\danit\AppData\Local\Temp\ccx2tz3j.s 			page 4


 172              		.global	pwmChangePeriod
 173              		.thumb
 174              		.thumb_func
 175              		.type	pwmChangePeriod, %function
 176              	pwmChangePeriod:
 177              	.LFB122:
 178              		.loc 1 147 0
 179              		.cfi_startproc
 180              		@ args = 0, pretend = 0, frame = 0
 181              		@ frame_needed = 0, uses_anonymous_args = 0
 182              		@ link register save eliminated.
 183              	.LVL6:
 184              	.LBB8:
 185              		.loc 1 151 0
 186 0000 2023     		movs	r3, #32
 187              	@ 151 "../../../ChibiOS/os/hal/src/pwm.c" 1
 188 0002 83F31188 		msr     BASEPRI, r3
 189              	@ 0 "" 2
 190              		.thumb
 191              	.LBE8:
 192              		.loc 1 154 0
 193 0006 4B1E     		subs	r3, r1, #1
 194 0008 0269     		ldr	r2, [r0, #16]
 195 000a 0181     		strh	r1, [r0, #8]	@ movhi
 196 000c 9BB2     		uxth	r3, r3
 197 000e D362     		str	r3, [r2, #44]
 198              	.LBB9:
 199              		.loc 1 155 0
 200 0010 0023     		movs	r3, #0
 201              	@ 155 "../../../ChibiOS/os/hal/src/pwm.c" 1
 202 0012 83F31188 		msr     BASEPRI, r3
 203              	@ 0 "" 2
 204              		.thumb
 205 0016 7047     		bx	lr
 206              	.LBE9:
 207              		.cfi_endproc
 208              	.LFE122:
 209              		.size	pwmChangePeriod, .-pwmChangePeriod
 210              		.section	.text.pwmEnableChannel,"ax",%progbits
 211              		.align	2
 212              		.p2align 4,,15
 213              		.global	pwmEnableChannel
 214              		.thumb
 215              		.thumb_func
 216              		.type	pwmEnableChannel, %function
 217              	pwmEnableChannel:
 218              	.LFB123:
 219              		.loc 1 174 0
 220              		.cfi_startproc
 221              		@ args = 0, pretend = 0, frame = 0
 222              		@ frame_needed = 0, uses_anonymous_args = 0
 223              	.LVL7:
 224 0000 08B5     		push	{r3, lr}
 225              		.cfi_def_cfa_offset 8
 226              		.cfi_offset 3, -8
 227              		.cfi_offset 14, -4
 228              	.LBB10:
ARM GAS  C:\Users\danit\AppData\Local\Temp\ccx2tz3j.s 			page 5


 229              		.loc 1 179 0
 230 0002 2023     		movs	r3, #32
 231              	@ 179 "../../../ChibiOS/os/hal/src/pwm.c" 1
 232 0004 83F31188 		msr     BASEPRI, r3
 233              	@ 0 "" 2
 234              		.thumb
 235              	.LBE10:
 236              		.loc 1 182 0
 237 0008 FFF7FEFF 		bl	pwm_lld_enable_channel
 238              	.LVL8:
 239              	.LBB11:
 240              		.loc 1 183 0
 241 000c 0023     		movs	r3, #0
 242              	@ 183 "../../../ChibiOS/os/hal/src/pwm.c" 1
 243 000e 83F31188 		msr     BASEPRI, r3
 244              	@ 0 "" 2
 245              		.thumb
 246 0012 08BD     		pop	{r3, pc}
 247              	.LBE11:
 248              		.cfi_endproc
 249              	.LFE123:
 250              		.size	pwmEnableChannel, .-pwmEnableChannel
 251              		.section	.text.pwmDisableChannel,"ax",%progbits
 252              		.align	2
 253              		.p2align 4,,15
 254              		.global	pwmDisableChannel
 255              		.thumb
 256              		.thumb_func
 257              		.type	pwmDisableChannel, %function
 258              	pwmDisableChannel:
 259              	.LFB124:
 260              		.loc 1 200 0
 261              		.cfi_startproc
 262              		@ args = 0, pretend = 0, frame = 0
 263              		@ frame_needed = 0, uses_anonymous_args = 0
 264              	.LVL9:
 265 0000 08B5     		push	{r3, lr}
 266              		.cfi_def_cfa_offset 8
 267              		.cfi_offset 3, -8
 268              		.cfi_offset 14, -4
 269              	.LBB12:
 270              		.loc 1 205 0
 271 0002 2023     		movs	r3, #32
 272              	@ 205 "../../../ChibiOS/os/hal/src/pwm.c" 1
 273 0004 83F31188 		msr     BASEPRI, r3
 274              	@ 0 "" 2
 275              		.thumb
 276              	.LBE12:
 277              		.loc 1 208 0
 278 0008 FFF7FEFF 		bl	pwm_lld_disable_channel
 279              	.LVL10:
 280              	.LBB13:
 281              		.loc 1 209 0
 282 000c 0023     		movs	r3, #0
 283              	@ 209 "../../../ChibiOS/os/hal/src/pwm.c" 1
 284 000e 83F31188 		msr     BASEPRI, r3
 285              	@ 0 "" 2
ARM GAS  C:\Users\danit\AppData\Local\Temp\ccx2tz3j.s 			page 6


 286              		.thumb
 287 0012 08BD     		pop	{r3, pc}
 288              	.LBE13:
 289              		.cfi_endproc
 290              	.LFE124:
 291              		.size	pwmDisableChannel, .-pwmDisableChannel
 292              		.text
 293              	.Letext0:
 294              		.file 2 "c:\\program files (x86)\\gnu tools arm embedded\\4.9 2015q2\\arm-none-eabi\\include\\mach
 295              		.file 3 "c:\\program files (x86)\\gnu tools arm embedded\\4.9 2015q2\\arm-none-eabi\\include\\sys\
 296              		.file 4 "../../../ChibiOS/os/hal/platforms/STM32/TIMv1/stm32_tim.h"
 297              		.file 5 "../../../ChibiOS/os/hal/include/pwm.h"
 298              		.file 6 "../../../ChibiOS/os/hal/platforms/STM32/TIMv1/pwm_lld.h"
 299              		.file 7 "../../../ChibiOS/os/ports/common/ARMCMx/CMSIS/include/core_cm4.h"