ARM GAS  C:\Users\danit\AppData\Local\Temp\ccx2tz3j.s 			page 1


   1              		.syntax unified
   2              		.cpu cortex-m4
   3              		.fpu softvfp
   4              		.eabi_attribute 20, 1
   5              		.eabi_attribute 21, 1
   6              		.eabi_attribute 23, 3
   7              		.eabi_attribute 24, 1
   8              		.eabi_attribute 25, 1
   9              		.eabi_attribute 26, 1
  10              		.eabi_attribute 30, 2
  11              		.eabi_attribute 34, 1
  12              		.eabi_attribute 18, 4
  13              		.thumb
  14              		.file	"pwm.c"
  15              		.text
  16              	.Ltext0:
  17              		.cfi_sections	.debug_frame
  18              		.section	.text.pwmInit,"ax",%progbits
  19              		.align	2
  20              		.p2align 4,,15
  21              		.global	pwmInit
  22              		.thumb
  23              		.thumb_func
  24              		.type	pwmInit, %function
  25              	pwmInit:
  26              	.LFB118:
  27              		.file 1 "../../../ChibiOS/os/hal/src/pwm.c"
  28              		.loc 1 68 0
  29              		.cfi_startproc
  30              		@ args = 0, pretend = 0, frame = 0
  31              		@ frame_needed = 0, uses_anonymous_args = 0
  32              		@ link register save eliminated.
  33              		.loc 1 70 0
  34 0000 FFF7FEBF 		b	pwm_lld_init
  35              	.LVL0:
  36              		.cfi_endproc
  37              	.LFE118:
  38              		.size	pwmInit, .-pwmInit
  39              		.section	.text.pwmObjectInit,"ax",%progbits
  40              		.align	2
  41              		.p2align 4,,15
  42              		.global	pwmObjectInit
  43              		.thumb
  44              		.thumb_func
  45              		.type	pwmObjectInit, %function
  46              	pwmObjectInit:
  47              	.LFB119:
  48              		.loc 1 80 0
  49              		.cfi_startproc
  50              		@ args = 0, pretend = 0, frame = 0
  51              		@ frame_needed = 0, uses_anonymous_args = 0
  52              		@ link register save eliminated.
  53              	.LVL1:
  54              		.loc 1 82 0
  55 0000 0122     		movs	r2, #1
  56              		.loc 1 83 0
  57 0002 0023     		movs	r3, #0
ARM GAS  C:\Users\danit\AppData\Local\Temp\ccx2tz3j.s 			page 2


  58              		.loc 1 82 0
  59 0004 0270     		strb	r2, [r0]
  60              		.loc 1 83 0
  61 0006 4360     		str	r3, [r0, #4]
  62 0008 7047     		bx	lr
  63              		.cfi_endproc
  64              	.LFE119:
  65              		.size	pwmObjectInit, .-pwmObjectInit
  66 000a 00BF     		.section	.text.pwmStart,"ax",%progbits
  67              		.align	2
  68              		.p2align 4,,15
  69              		.global	pwmStart
  70              		.thumb
  71              		.thumb_func
  72              		.type	pwmStart, %function
  73              	pwmStart:
  74              	.LFB120:
  75              		.loc 1 99 0
  76              		.cfi_startproc
  77              		@ args = 0, pretend = 0, frame = 0
  78              		@ frame_needed = 0, uses_anonymous_args = 0
  79              	.LVL2:
  80 0000 10B5     		push	{r4, lr}
  81              		.cfi_def_cfa_offset 8
  82              		.cfi_offset 4, -8
  83              		.cfi_offset 14, -4
  84              	.LBB2:
  85              		.loc 1 103 0
  86 0002 2023     		movs	r3, #32
  87              	.LBE2:
  88              		.loc 1 99 0
  89 0004 0446     		mov	r4, r0
  90              	.LBB3:
  91              		.loc 1 103 0
  92              	@ 103 "../../../ChibiOS/os/hal/src/pwm.c" 1
  93 0006 83F31188 		msr     BASEPRI, r3
  94              	@ 0 "" 2
  95              		.thumb
  96              	.LBE3:
  97              		.loc 1 107 0
  98 000a 8B88     		ldrh	r3, [r1, #4]
  99 000c 0381     		strh	r3, [r0, #8]	@ movhi
 100              		.loc 1 106 0
 101 000e 4160     		str	r1, [r0, #4]
 102              		.loc 1 108 0
 103 0010 FFF7FEFF 		bl	pwm_lld_start
 104              	.LVL3:
 105              		.loc 1 109 0
 106 0014 0223     		movs	r3, #2
 107 0016 2370     		strb	r3, [r4]
 108              	.LBB4:
 109              		.loc 1 110 0
 110 0018 0023     		movs	r3, #0
 111              	@ 110 "../../../ChibiOS/os/hal/src/pwm.c" 1
 112 001a 83F31188 		msr     BASEPRI, r3
 113              	@ 0 "" 2
 114              		.thumb
ARM GAS  C:\Users\danit\AppData\Local\Temp\ccx2tz3j.s 			page 3


 115 001e 10BD     		pop	{r4, pc}
 116              	.LBE4:
 117              		.cfi_endproc
 118              	.LFE120:
 119              		.size	pwmStart, .-pwmStart
 120              		.section	.text.pwmStop,"ax",%progbits
 121              		.align	2
 122              		.p2align 4,,15
 123              		.global	pwmStop
 124              		.thumb
 125              		.thumb_func
 126              		.type	pwmStop, %function
 127              	pwmStop:
 128              	.LFB121:
 129              		.loc 1 120 0
 130              		.cfi_startproc
 131              		@ args = 0, pretend = 0, frame = 0
 132              		@ frame_needed = 0, uses_anonymous_args = 0
 133              	.LVL4:
 134 0000 10B5     		push	{r4, lr}
 135              		.cfi_def_cfa_offset 8
 136              		.cfi_offset 4, -8
 137              		.cfi_offset 14, -4
 138              	.LBB5:
 139              		.loc 1 124 0
 140 0002 2023     		movs	r3, #32
 141              	.LBE5:
 142              		.loc 1 120 0
 143 0004 0446     		mov	r4, r0
 144              	.LBB6:
 145              		.loc 1 124 0
 146              	@ 124 "../../../ChibiOS/os/hal/src/pwm.c" 1
 147 0006 83F31188 		msr     BASEPRI, r3
 148              	@ 0 "" 2
 149              		.thumb
 150              	.LBE6:
 151              		.loc 1 127 0
 152 000a FFF7FEFF 		bl	pwm_lld_stop
 153              	.LVL5:
 154              		.loc 1 128 0
 155 000e 0123     		movs	r3, #1
 156 0010 2370     		strb	r3, [r4]
 157              	.LBB7:
 158              		.loc 1 129 0
 159 0012 0023     		movs	r3, #0
 160              	@ 129 "../../../ChibiOS/os/hal/src/pwm.c" 1
 161 0014 83F31188 		msr     BASEPRI, r3
 162              	@ 0 "" 2
 163              		.thumb
 164 0018 10BD     		pop	{r4, pc}
 165              	.LBE7:
 166              		.cfi_endproc
 167              	.LFE121:
 168              		.size	pwmStop, .-pwmStop
 169 001a 00BF     		.section	.text.pwmChangePeriod,"ax",%progbits
 170              		.align	2
 171              		.p2align 4,,15
ARM GAS  C:\Users\danit\AppData\Local\Temp\ccx2tz3j.s 			page 4


 172              		.global	pwmChangePeriod
 173              		.thumb
 174              		.thumb_func
 175              		.type	pwmChangePeriod, %function
 176              	pwmChangePeriod:
 177              	.LFB122:
 178              		.loc 1 147 0
 179              		.cfi_startproc
 180              		@ args = 0, pretend = 0, frame = 0
 181              		@ frame_needed = 0, uses_anonymous_args = 0
 182              		@ link register save eliminated.
 183              	.LVL6:
 184              	.LBB8:
 185              		.loc 1 151 0
 186 0000 2023     		movs	r3, #32
 187              	@ 151 "../../../ChibiOS/os/hal/src/pwm.c" 1
 188 0002 83F31188 		msr     BASEPRI, r3
 189              	@ 0 "" 2
 190              		.thumb
 191              	.LBE8:
 192              		.loc 1 154 0
 193 0006 4B1E     		subs	r3, r1, #1
 194 0008 0269     		ldr	r2, [r0, #16]
 195 000a 0181     		strh	r1, [r0, #8]	@ movhi
 196 000c 9BB2     		uxth	r3, r3
 197 000e D362     		str	r3, [r2, #44]
 198              	.LBB9:
 199              		.loc 1 155 0
 200 0010 0023     		movs	r3, #0
 201              	@ 155 "../../../ChibiOS/os/hal/src/pwm.c" 1
 202 0012 83F31188 		msr     BASEPRI, r3
 203              	@ 0 "" 2
 204              		.thumb
 205 0016 7047     		bx	lr
 206              	.LBE9:
 207              		.cfi_endproc
 208              	.LFE122:
 209              		.size	pwmChangePeriod, .-pwmChangePeriod
 210              		.section	.text.pwmEnableChannel,"ax",%progbits
 211              		.align	2
 212              		.p2align 4,,15
 213              		.global	pwmEnableChannel
 214              		.thumb
 215              		.thumb_func
 216              		.type	pwmEnableChannel, %function
 217              	pwmEnableChannel:
 218              	.LFB123:
 219              		.loc 1 174 0
 220              		.cfi_startproc
 221              		@ args = 0, pretend = 0, frame = 0
 222              		@ frame_needed = 0, uses_anonymous_args = 0
 223              	.LVL7:
 224 0000 08B5     		push	{r3, lr}
 225              		.cfi_def_cfa_offset 8
 226              		.cfi_offset 3, -8
 227              		.cfi_offset 14, -4
 228              	.LBB10:
ARM GAS  C:\Users\danit\AppData\Local\Temp\ccx2tz3j.s 			page 5


 229              		.loc 1 179 0
 230 0002 2023     		movs	r3, #32
 231              	@ 179 "../../../ChibiOS/os/hal/src/pwm.c" 1
 232 0004 83F31188 		msr     BASEPRI, r3
 233              	@ 0 "" 2
 234              		.thumb
 235              	.LBE10:
 236              		.loc 1 182 0
 237 0008 FFF7FEFF 		bl	pwm_lld_enable_channel
 238              	.LVL8:
 239              	.LBB11:
 240              		.loc 1 183 0
 241 000c 0023     		movs	r3, #0
 242              	@ 183 "../../../ChibiOS/os/hal/src/pwm.c" 1
 243 000e 83F31188 		msr     BASEPRI, r3
 244              	@ 0 "" 2
 245              		.thumb
 246 0012 08BD     		pop	{r3, pc}
 247              	.LBE11:
 248              		.cfi_endproc
 249              	.LFE123:
 250              		.size	pwmEnableChannel, .-pwmEnableChannel
 251              		.section	.text.pwmDisableChannel,"ax",%progbits
 252              		.align	2
 253              		.p2align 4,,15
 254              		.global	pwmDisableChannel
 255              		.thumb
 256              		.thumb_func
 257              		.type	pwmDisableChannel, %function
 258              	pwmDisableChannel:
 259              	.LFB124:
 260              		.loc 1 200 0
 261              		.cfi_startproc
 262              		@ args = 0, pretend = 0, frame = 0
 263              		@ frame_needed = 0, uses_anonymous_args = 0
 264              	.LVL9:
 265 0000 08B5     		push	{r3, lr}
 266              		.cfi_def_cfa_offset 8
 267              		.cfi_offset 3, -8
 268              		.cfi_offset 14, -4
 269              	.LBB12:
 270              		.loc 1 205 0
 271 0002 2023     		movs	r3, #32
 272              	@ 205 "../../../ChibiOS/os/hal/src/pwm.c" 1
 273 0004 83F31188 		msr     BASEPRI, r3
 274              	@ 0 "" 2
 275              		.thumb
 276              	.LBE12:
 277              		.loc 1 208 0
 278 0008 FFF7FEFF 		bl	pwm_lld_disable_channel
 279              	.LVL10:
 280              	.LBB13:
 281              		.loc 1 209 0
 282 000c 0023     		movs	r3, #0
 283              	@ 209 "../../../ChibiOS/os/hal/src/pwm.c" 1
 284 000e 83F31188 		msr     BASEPRI, r3
 285              	@ 0 "" 2
ARM GAS  C:\Users\danit\AppData\Local\Temp\ccx2tz3j.s 			page 6


 286              		.thumb
 287 0012 08BD     		pop	{r3, pc}
 288              	.LBE13:
 289              		.cfi_endproc
 290              	.LFE124:
 291              		.size	pwmDisableChannel, .-pwmDisableChannel
 292              		.text
 293              	.Letext0:
 294              		.file 2 "c:\\program files (x86)\\gnu tools arm embedded\\4.9 2015q2\\arm-none-eabi\\include\\mach
 295              		.file 3 "c:\\program files (x86)\\gnu tools arm embedded\\4.9 2015q2\\arm-none-eabi\\include\\sys\
 296              		.file 4 "../../../ChibiOS/os/hal/platforms/STM32/TIMv1/stm32_tim.h"
 297              		.file 5 "../../../ChibiOS/os/hal/include/pwm.h"
 298              		.file 6 "../../../ChibiOS/os/hal/platforms/STM32/TIMv1/pwm_lld.h"
 299              		.file 7 "../../../ChibiOS/os/ports/common/ARMCMx/CMSIS/include/core_cm4.h"
 300              		.section	.debug_info,"",%progbits
 301              	.Ldebug_info0:
 302 0000 81060000 		.4byte	0x681
 303 0004 0400     		.2byte	0x4
 304 0006 00000000 		.4byte	.Ldebug_abbrev0
 305 000a 04       		.byte	0x4
 306 000b 01       		.uleb128 0x1
 307 000c E7010000 		.4byte	.LASF64
 308 0010 01       		.byte	0x1
 309 0011 CB000000 		.4byte	.LASF65
 310 0015 7F010000 		.4byte	.LASF66
 311 0019 30000000 		.4byte	.Ldebug_ranges0+0x30
 312 001d 00000000 		.4byte	0
 313 0021 00000000 		.4byte	.Ldebug_line0
 314 0025 02       		.uleb128 0x2
 315 0026 04       		.byte	0x4
 316 0027 05       		.byte	0x5
 317 0028 696E7400 		.ascii	"int\000"
 318 002c 03       		.uleb128 0x3
 319 002d 04       		.byte	0x4
 320 002e 07       		.byte	0x7
 321 002f CA020000 		.4byte	.LASF0
 322 0033 03       		.uleb128 0x3
 323 0034 01       		.byte	0x1
 324 0035 06       		.byte	0x6
 325 0036 C4010000 		.4byte	.LASF1
 326 003a 04       		.uleb128 0x4
 327 003b 1D010000 		.4byte	.LASF4
 328 003f 02       		.byte	0x2
 329 0040 1D       		.byte	0x1d
 330 0041 45000000 		.4byte	0x45
 331 0045 03       		.uleb128 0x3
 332 0046 01       		.byte	0x1
 333 0047 08       		.byte	0x8
 334 0048 5A010000 		.4byte	.LASF2
 335 004c 03       		.uleb128 0x3
 336 004d 02       		.byte	0x2
 337 004e 05       		.byte	0x5
 338 004f 29000000 		.4byte	.LASF3
 339 0053 04       		.uleb128 0x4
 340 0054 7A000000 		.4byte	.LASF5
 341 0058 02       		.byte	0x2
 342 0059 2B       		.byte	0x2b
ARM GAS  C:\Users\danit\AppData\Local\Temp\ccx2tz3j.s 			page 7


 343 005a 5E000000 		.4byte	0x5e
 344 005e 03       		.uleb128 0x3
 345 005f 02       		.byte	0x2
 346 0060 07       		.byte	0x7
 347 0061 EA020000 		.4byte	.LASF6
 348 0065 04       		.uleb128 0x4
 349 0066 63030000 		.4byte	.LASF7
 350 006a 02       		.byte	0x2
 351 006b 3F       		.byte	0x3f
 352 006c 70000000 		.4byte	0x70
 353 0070 03       		.uleb128 0x3
 354 0071 04       		.byte	0x4
 355 0072 05       		.byte	0x5
 356 0073 FB000000 		.4byte	.LASF8
 357 0077 04       		.uleb128 0x4
 358 0078 6A000000 		.4byte	.LASF9
 359 007c 02       		.byte	0x2
 360 007d 41       		.byte	0x41
 361 007e 82000000 		.4byte	0x82
 362 0082 03       		.uleb128 0x3
 363 0083 04       		.byte	0x4
 364 0084 07       		.byte	0x7
 365 0085 4B030000 		.4byte	.LASF10
 366 0089 03       		.uleb128 0x3
 367 008a 08       		.byte	0x8
 368 008b 05       		.byte	0x5
 369 008c ED000000 		.4byte	.LASF11
 370 0090 03       		.uleb128 0x3
 371 0091 08       		.byte	0x8
 372 0092 07       		.byte	0x7
 373 0093 D0010000 		.4byte	.LASF12
 374 0097 04       		.uleb128 0x4
 375 0098 A3000000 		.4byte	.LASF13
 376 009c 03       		.byte	0x3
 377 009d 14       		.byte	0x14
 378 009e 3A000000 		.4byte	0x3a
 379 00a2 04       		.uleb128 0x4
 380 00a3 D7020000 		.4byte	.LASF14
 381 00a7 03       		.byte	0x3
 382 00a8 1A       		.byte	0x1a
 383 00a9 53000000 		.4byte	0x53
 384 00ad 04       		.uleb128 0x4
 385 00ae 25030000 		.4byte	.LASF15
 386 00b2 03       		.byte	0x3
 387 00b3 1F       		.byte	0x1f
 388 00b4 65000000 		.4byte	0x65
 389 00b8 04       		.uleb128 0x4
 390 00b9 C1020000 		.4byte	.LASF16
 391 00bd 03       		.byte	0x3
 392 00be 20       		.byte	0x20
 393 00bf 77000000 		.4byte	0x77
 394 00c3 03       		.uleb128 0x3
 395 00c4 01       		.byte	0x1
 396 00c5 02       		.byte	0x2
 397 00c6 2D030000 		.4byte	.LASF17
 398 00ca 05       		.uleb128 0x5
 399 00cb B8000000 		.4byte	0xb8
ARM GAS  C:\Users\danit\AppData\Local\Temp\ccx2tz3j.s 			page 8


 400 00cf 03       		.uleb128 0x3
 401 00d0 04       		.byte	0x4
 402 00d1 07       		.byte	0x7
 403 00d2 3C000000 		.4byte	.LASF18
 404 00d6 03       		.uleb128 0x3
 405 00d7 01       		.byte	0x1
 406 00d8 08       		.byte	0x8
 407 00d9 0A030000 		.4byte	.LASF19
 408 00dd 06       		.uleb128 0x6
 409 00de B8000000 		.4byte	0xb8
 410 00e2 ED000000 		.4byte	0xed
 411 00e6 07       		.uleb128 0x7
 412 00e7 CF000000 		.4byte	0xcf
 413 00eb 03       		.byte	0x3
 414 00ec 00       		.byte	0
 415 00ed 05       		.uleb128 0x5
 416 00ee AD000000 		.4byte	0xad
 417 00f2 08       		.uleb128 0x8
 418 00f3 60       		.byte	0x60
 419 00f4 04       		.byte	0x4
 420 00f5 9E01     		.2byte	0x19e
 421 00f7 0B020000 		.4byte	0x20b
 422 00fb 09       		.uleb128 0x9
 423 00fc 43523100 		.ascii	"CR1\000"
 424 0100 04       		.byte	0x4
 425 0101 9F01     		.2byte	0x19f
 426 0103 CA000000 		.4byte	0xca
 427 0107 00       		.byte	0
 428 0108 09       		.uleb128 0x9
 429 0109 43523200 		.ascii	"CR2\000"
 430 010d 04       		.byte	0x4
 431 010e A001     		.2byte	0x1a0
 432 0110 CA000000 		.4byte	0xca
 433 0114 04       		.byte	0x4
 434 0115 0A       		.uleb128 0xa
 435 0116 4A010000 		.4byte	.LASF20
 436 011a 04       		.byte	0x4
 437 011b A101     		.2byte	0x1a1
 438 011d CA000000 		.4byte	0xca
 439 0121 08       		.byte	0x8
 440 0122 0A       		.uleb128 0xa
 441 0123 E5020000 		.4byte	.LASF21
 442 0127 04       		.byte	0x4
 443 0128 A201     		.2byte	0x1a2
 444 012a CA000000 		.4byte	0xca
 445 012e 0C       		.byte	0xc
 446 012f 09       		.uleb128 0x9
 447 0130 535200   		.ascii	"SR\000"
 448 0133 04       		.byte	0x4
 449 0134 A301     		.2byte	0x1a3
 450 0136 CA000000 		.4byte	0xca
 451 013a 10       		.byte	0x10
 452 013b 09       		.uleb128 0x9
 453 013c 45475200 		.ascii	"EGR\000"
 454 0140 04       		.byte	0x4
 455 0141 A401     		.2byte	0x1a4
 456 0143 CA000000 		.4byte	0xca
ARM GAS  C:\Users\danit\AppData\Local\Temp\ccx2tz3j.s 			page 9


 457 0147 14       		.byte	0x14
 458 0148 0A       		.uleb128 0xa
 459 0149 27010000 		.4byte	.LASF22
 460 014d 04       		.byte	0x4
 461 014e A501     		.2byte	0x1a5
 462 0150 CA000000 		.4byte	0xca
 463 0154 18       		.byte	0x18
 464 0155 0A       		.uleb128 0xa
 465 0156 1D000000 		.4byte	.LASF23
 466 015a 04       		.byte	0x4
 467 015b A601     		.2byte	0x1a6
 468 015d CA000000 		.4byte	0xca
 469 0161 1C       		.byte	0x1c
 470 0162 0A       		.uleb128 0xa
 471 0163 00000000 		.4byte	.LASF24
 472 0167 04       		.byte	0x4
 473 0168 A701     		.2byte	0x1a7
 474 016a CA000000 		.4byte	0xca
 475 016e 20       		.byte	0x20
 476 016f 09       		.uleb128 0x9
 477 0170 434E5400 		.ascii	"CNT\000"
 478 0174 04       		.byte	0x4
 479 0175 A801     		.2byte	0x1a8
 480 0177 CA000000 		.4byte	0xca
 481 017b 24       		.byte	0x24
 482 017c 09       		.uleb128 0x9
 483 017d 50534300 		.ascii	"PSC\000"
 484 0181 04       		.byte	0x4
 485 0182 A901     		.2byte	0x1a9
 486 0184 CA000000 		.4byte	0xca
 487 0188 28       		.byte	0x28
 488 0189 09       		.uleb128 0x9
 489 018a 41525200 		.ascii	"ARR\000"
 490 018e 04       		.byte	0x4
 491 018f AA01     		.2byte	0x1aa
 492 0191 CA000000 		.4byte	0xca
 493 0195 2C       		.byte	0x2c
 494 0196 09       		.uleb128 0x9
 495 0197 52435200 		.ascii	"RCR\000"
 496 019b 04       		.byte	0x4
 497 019c AB01     		.2byte	0x1ab
 498 019e CA000000 		.4byte	0xca
 499 01a2 30       		.byte	0x30
 500 01a3 09       		.uleb128 0x9
 501 01a4 43435200 		.ascii	"CCR\000"
 502 01a8 04       		.byte	0x4
 503 01a9 AC01     		.2byte	0x1ac
 504 01ab 0B020000 		.4byte	0x20b
 505 01af 34       		.byte	0x34
 506 01b0 0A       		.uleb128 0xa
 507 01b1 E0020000 		.4byte	.LASF25
 508 01b5 04       		.byte	0x4
 509 01b6 AD01     		.2byte	0x1ad
 510 01b8 CA000000 		.4byte	0xca
 511 01bc 44       		.byte	0x44
 512 01bd 09       		.uleb128 0x9
 513 01be 44435200 		.ascii	"DCR\000"
ARM GAS  C:\Users\danit\AppData\Local\Temp\ccx2tz3j.s 			page 10


 514 01c2 04       		.byte	0x4
 515 01c3 AE01     		.2byte	0x1ae
 516 01c5 CA000000 		.4byte	0xca
 517 01c9 48       		.byte	0x48
 518 01ca 0A       		.uleb128 0xa
 519 01cb 12000000 		.4byte	.LASF26
 520 01cf 04       		.byte	0x4
 521 01d0 AF01     		.2byte	0x1af
 522 01d2 CA000000 		.4byte	0xca
 523 01d6 4C       		.byte	0x4c
 524 01d7 09       		.uleb128 0x9
 525 01d8 4F5200   		.ascii	"OR\000"
 526 01db 04       		.byte	0x4
 527 01dc B001     		.2byte	0x1b0
 528 01de CA000000 		.4byte	0xca
 529 01e2 50       		.byte	0x50
 530 01e3 0A       		.uleb128 0xa
 531 01e4 23000000 		.4byte	.LASF27
 532 01e8 04       		.byte	0x4
 533 01e9 B101     		.2byte	0x1b1
 534 01eb CA000000 		.4byte	0xca
 535 01ef 54       		.byte	0x54
 536 01f0 0A       		.uleb128 0xa
 537 01f1 0C010000 		.4byte	.LASF28
 538 01f5 04       		.byte	0x4
 539 01f6 B201     		.2byte	0x1b2
 540 01f8 CA000000 		.4byte	0xca
 541 01fc 58       		.byte	0x58
 542 01fd 0A       		.uleb128 0xa
 543 01fe 11010000 		.4byte	.LASF29
 544 0202 04       		.byte	0x4
 545 0203 B301     		.2byte	0x1b3
 546 0205 CA000000 		.4byte	0xca
 547 0209 5C       		.byte	0x5c
 548 020a 00       		.byte	0
 549 020b 05       		.uleb128 0x5
 550 020c DD000000 		.4byte	0xdd
 551 0210 0B       		.uleb128 0xb
 552 0211 0F030000 		.4byte	.LASF30
 553 0215 04       		.byte	0x4
 554 0216 B401     		.2byte	0x1b4
 555 0218 F2000000 		.4byte	0xf2
 556 021c 0C       		.uleb128 0xc
 557 021d 04       		.byte	0x4
 558 021e 10020000 		.4byte	0x210
 559 0222 0D       		.uleb128 0xd
 560 0223 01       		.byte	0x1
 561 0224 05       		.byte	0x5
 562 0225 55       		.byte	0x55
 563 0226 3D020000 		.4byte	0x23d
 564 022a 0E       		.uleb128 0xe
 565 022b 4F010000 		.4byte	.LASF31
 566 022f 00       		.sleb128 0
 567 0230 0E       		.uleb128 0xe
 568 0231 77030000 		.4byte	.LASF32
 569 0235 01       		.sleb128 1
 570 0236 0E       		.uleb128 0xe
ARM GAS  C:\Users\danit\AppData\Local\Temp\ccx2tz3j.s 			page 11


 571 0237 6D030000 		.4byte	.LASF33
 572 023b 02       		.sleb128 2
 573 023c 00       		.byte	0
 574 023d 04       		.uleb128 0x4
 575 023e BF030000 		.4byte	.LASF34
 576 0242 05       		.byte	0x5
 577 0243 59       		.byte	0x59
 578 0244 22020000 		.4byte	0x222
 579 0248 04       		.uleb128 0x4
 580 0249 1B030000 		.4byte	.LASF35
 581 024d 05       		.byte	0x5
 582 024e 5E       		.byte	0x5e
 583 024f 53020000 		.4byte	0x253
 584 0253 0F       		.uleb128 0xf
 585 0254 1B030000 		.4byte	.LASF35
 586 0258 14       		.byte	0x14
 587 0259 06       		.byte	0x6
 588 025a 6F01     		.2byte	0x16f
 589 025c A2020000 		.4byte	0x2a2
 590 0260 0A       		.uleb128 0xa
 591 0261 17000000 		.4byte	.LASF36
 592 0265 06       		.byte	0x6
 593 0266 7301     		.2byte	0x173
 594 0268 3D020000 		.4byte	0x23d
 595 026c 00       		.byte	0
 596 026d 0A       		.uleb128 0xa
 597 026e 8E000000 		.4byte	.LASF37
 598 0272 06       		.byte	0x6
 599 0273 7701     		.2byte	0x177
 600 0275 8C030000 		.4byte	0x38c
 601 0279 04       		.byte	0x4
 602 027a 0A       		.uleb128 0xa
 603 027b 16010000 		.4byte	.LASF38
 604 027f 06       		.byte	0x6
 605 0280 7B01     		.2byte	0x17b
 606 0282 DC020000 		.4byte	0x2dc
 607 0286 08       		.byte	0x8
 608 0287 0A       		.uleb128 0xa
 609 0288 5D030000 		.4byte	.LASF39
 610 028c 06       		.byte	0x6
 611 028d 8301     		.2byte	0x183
 612 028f B8000000 		.4byte	0xb8
 613 0293 0C       		.byte	0xc
 614 0294 09       		.uleb128 0x9
 615 0295 74696D00 		.ascii	"tim\000"
 616 0299 06       		.byte	0x6
 617 029a 8701     		.2byte	0x187
 618 029c 1C020000 		.4byte	0x21c
 619 02a0 10       		.byte	0x10
 620 02a1 00       		.byte	0
 621 02a2 04       		.uleb128 0x4
 622 02a3 CA030000 		.4byte	.LASF40
 623 02a7 05       		.byte	0x5
 624 02a8 65       		.byte	0x65
 625 02a9 AD020000 		.4byte	0x2ad
 626 02ad 0C       		.uleb128 0xc
 627 02ae 04       		.byte	0x4
ARM GAS  C:\Users\danit\AppData\Local\Temp\ccx2tz3j.s 			page 12


 628 02af B3020000 		.4byte	0x2b3
 629 02b3 10       		.uleb128 0x10
 630 02b4 BE020000 		.4byte	0x2be
 631 02b8 11       		.uleb128 0x11
 632 02b9 BE020000 		.4byte	0x2be
 633 02bd 00       		.byte	0
 634 02be 0C       		.uleb128 0xc
 635 02bf 04       		.byte	0x4
 636 02c0 48020000 		.4byte	0x248
 637 02c4 0B       		.uleb128 0xb
 638 02c5 A8030000 		.4byte	.LASF41
 639 02c9 06       		.byte	0x6
 640 02ca 2001     		.2byte	0x120
 641 02cc B8000000 		.4byte	0xb8
 642 02d0 0B       		.uleb128 0xb
 643 02d1 5D000000 		.4byte	.LASF42
 644 02d5 06       		.byte	0x6
 645 02d6 2501     		.2byte	0x125
 646 02d8 97000000 		.4byte	0x97
 647 02dc 0B       		.uleb128 0xb
 648 02dd 33000000 		.4byte	.LASF43
 649 02e1 06       		.byte	0x6
 650 02e2 2A01     		.2byte	0x12a
 651 02e4 A2000000 		.4byte	0xa2
 652 02e8 08       		.uleb128 0x8
 653 02e9 08       		.byte	0x8
 654 02ea 06       		.byte	0x6
 655 02eb 2F01     		.2byte	0x12f
 656 02ed 0C030000 		.4byte	0x30c
 657 02f1 0A       		.uleb128 0xa
 658 02f2 75000000 		.4byte	.LASF44
 659 02f6 06       		.byte	0x6
 660 02f7 3301     		.2byte	0x133
 661 02f9 C4020000 		.4byte	0x2c4
 662 02fd 00       		.byte	0
 663 02fe 0A       		.uleb128 0xa
 664 02ff D8030000 		.4byte	.LASF45
 665 0303 06       		.byte	0x6
 666 0304 3901     		.2byte	0x139
 667 0306 A2020000 		.4byte	0x2a2
 668 030a 04       		.byte	0x4
 669 030b 00       		.byte	0
 670 030c 0B       		.uleb128 0xb
 671 030d 97030000 		.4byte	.LASF46
 672 0311 06       		.byte	0x6
 673 0312 3B01     		.2byte	0x13b
 674 0314 E8020000 		.4byte	0x2e8
 675 0318 08       		.uleb128 0x8
 676 0319 34       		.byte	0x34
 677 031a 06       		.byte	0x6
 678 031b 4001     		.2byte	0x140
 679 031d 70030000 		.4byte	0x370
 680 0321 0A       		.uleb128 0xa
 681 0322 8D030000 		.4byte	.LASF47
 682 0326 06       		.byte	0x6
 683 0327 4601     		.2byte	0x146
 684 0329 B8000000 		.4byte	0xb8
ARM GAS  C:\Users\danit\AppData\Local\Temp\ccx2tz3j.s 			page 13


 685 032d 00       		.byte	0
 686 032e 0A       		.uleb128 0xa
 687 032f 16010000 		.4byte	.LASF38
 688 0333 06       		.byte	0x6
 689 0334 4C01     		.2byte	0x14c
 690 0336 DC020000 		.4byte	0x2dc
 691 033a 04       		.byte	0x4
 692 033b 0A       		.uleb128 0xa
 693 033c D8030000 		.4byte	.LASF45
 694 0340 06       		.byte	0x6
 695 0341 5201     		.2byte	0x152
 696 0343 A2020000 		.4byte	0x2a2
 697 0347 08       		.byte	0x8
 698 0348 0A       		.uleb128 0xa
 699 0349 85000000 		.4byte	.LASF48
 700 034d 06       		.byte	0x6
 701 034e 5601     		.2byte	0x156
 702 0350 70030000 		.4byte	0x370
 703 0354 0C       		.byte	0xc
 704 0355 09       		.uleb128 0x9
 705 0356 63723200 		.ascii	"cr2\000"
 706 035a 06       		.byte	0x6
 707 035b 5C01     		.2byte	0x15c
 708 035d B8000000 		.4byte	0xb8
 709 0361 2C       		.byte	0x2c
 710 0362 0A       		.uleb128 0xa
 711 0363 80030000 		.4byte	.LASF49
 712 0367 06       		.byte	0x6
 713 0368 6901     		.2byte	0x169
 714 036a B8000000 		.4byte	0xb8
 715 036e 30       		.byte	0x30
 716 036f 00       		.byte	0
 717 0370 06       		.uleb128 0x6
 718 0371 0C030000 		.4byte	0x30c
 719 0375 80030000 		.4byte	0x380
 720 0379 07       		.uleb128 0x7
 721 037a CF000000 		.4byte	0xcf
 722 037e 03       		.byte	0x3
 723 037f 00       		.byte	0
 724 0380 0B       		.uleb128 0xb
 725 0381 3B010000 		.4byte	.LASF50
 726 0385 06       		.byte	0x6
 727 0386 6A01     		.2byte	0x16a
 728 0388 18030000 		.4byte	0x318
 729 038c 0C       		.uleb128 0xc
 730 038d 04       		.byte	0x4
 731 038e 92030000 		.4byte	0x392
 732 0392 12       		.uleb128 0x12
 733 0393 80030000 		.4byte	0x380
 734 0397 13       		.uleb128 0x13
 735 0398 04010000 		.4byte	.LASF51
 736 039c 01       		.byte	0x1
 737 039d 44       		.byte	0x44
 738 039e 00000000 		.4byte	.LFB118
 739 03a2 04000000 		.4byte	.LFE118-.LFB118
 740 03a6 01       		.uleb128 0x1
 741 03a7 9C       		.byte	0x9c
ARM GAS  C:\Users\danit\AppData\Local\Temp\ccx2tz3j.s 			page 14


 742 03a8 B6030000 		.4byte	0x3b6
 743 03ac 14       		.uleb128 0x14
 744 03ad 04000000 		.4byte	.LVL0
 745 03b1 29060000 		.4byte	0x629
 746 03b5 00       		.byte	0
 747 03b6 13       		.uleb128 0x13
 748 03b7 95000000 		.4byte	.LASF52
 749 03bb 01       		.byte	0x1
 750 03bc 50       		.byte	0x50
 751 03bd 00000000 		.4byte	.LFB119
 752 03c1 0A000000 		.4byte	.LFE119-.LFB119
 753 03c5 01       		.uleb128 0x1
 754 03c6 9C       		.byte	0x9c
 755 03c7 D9030000 		.4byte	0x3d9
 756 03cb 15       		.uleb128 0x15
 757 03cc 45010000 		.4byte	.LASF54
 758 03d0 01       		.byte	0x1
 759 03d1 50       		.byte	0x50
 760 03d2 BE020000 		.4byte	0x2be
 761 03d6 01       		.uleb128 0x1
 762 03d7 50       		.byte	0x50
 763 03d8 00       		.byte	0
 764 03d9 13       		.uleb128 0x13
 765 03da C2000000 		.4byte	.LASF53
 766 03de 01       		.byte	0x1
 767 03df 63       		.byte	0x63
 768 03e0 00000000 		.4byte	.LFB120
 769 03e4 20000000 		.4byte	.LFE120-.LFB120
 770 03e8 01       		.uleb128 0x1
 771 03e9 9C       		.byte	0x9c
 772 03ea 4F040000 		.4byte	0x44f
 773 03ee 16       		.uleb128 0x16
 774 03ef 45010000 		.4byte	.LASF54
 775 03f3 01       		.byte	0x1
 776 03f4 63       		.byte	0x63
 777 03f5 BE020000 		.4byte	0x2be
 778 03f9 00000000 		.4byte	.LLST0
 779 03fd 16       		.uleb128 0x16
 780 03fe 8E000000 		.4byte	.LASF37
 781 0402 01       		.byte	0x1
 782 0403 63       		.byte	0x63
 783 0404 8C030000 		.4byte	0x38c
 784 0408 1E000000 		.4byte	.LLST1
 785 040c 17       		.uleb128 0x17
 786 040d 00000000 		.4byte	.Ldebug_ranges0+0
 787 0411 23040000 		.4byte	0x423
 788 0415 18       		.uleb128 0x18
 789 0416 746D7000 		.ascii	"tmp\000"
 790 041a 01       		.byte	0x1
 791 041b 67       		.byte	0x67
 792 041c B8000000 		.4byte	0xb8
 793 0420 01       		.uleb128 0x1
 794 0421 53       		.byte	0x53
 795 0422 00       		.byte	0
 796 0423 19       		.uleb128 0x19
 797 0424 18000000 		.4byte	.LBB4
 798 0428 08000000 		.4byte	.LBE4-.LBB4
ARM GAS  C:\Users\danit\AppData\Local\Temp\ccx2tz3j.s 			page 15


 799 042c 3E040000 		.4byte	0x43e
 800 0430 18       		.uleb128 0x18
 801 0431 746D7000 		.ascii	"tmp\000"
 802 0435 01       		.byte	0x1
 803 0436 6E       		.byte	0x6e
 804 0437 B8000000 		.4byte	0xb8
 805 043b 01       		.uleb128 0x1
 806 043c 53       		.byte	0x53
 807 043d 00       		.byte	0
 808 043e 1A       		.uleb128 0x1a
 809 043f 14000000 		.4byte	.LVL3
 810 0443 31060000 		.4byte	0x631
 811 0447 1B       		.uleb128 0x1b
 812 0448 01       		.uleb128 0x1
 813 0449 50       		.byte	0x50
 814 044a 02       		.uleb128 0x2
 815 044b 74       		.byte	0x74
 816 044c 00       		.sleb128 0
 817 044d 00       		.byte	0
 818 044e 00       		.byte	0
 819 044f 13       		.uleb128 0x13
 820 0450 85030000 		.4byte	.LASF55
 821 0454 01       		.byte	0x1
 822 0455 78       		.byte	0x78
 823 0456 00000000 		.4byte	.LFB121
 824 045a 1A000000 		.4byte	.LFE121-.LFB121
 825 045e 01       		.uleb128 0x1
 826 045f 9C       		.byte	0x9c
 827 0460 B6040000 		.4byte	0x4b6
 828 0464 16       		.uleb128 0x16
 829 0465 45010000 		.4byte	.LASF54
 830 0469 01       		.byte	0x1
 831 046a 78       		.byte	0x78
 832 046b BE020000 		.4byte	0x2be
 833 046f 3F000000 		.4byte	.LLST2
 834 0473 17       		.uleb128 0x17
 835 0474 18000000 		.4byte	.Ldebug_ranges0+0x18
 836 0478 8A040000 		.4byte	0x48a
 837 047c 18       		.uleb128 0x18
 838 047d 746D7000 		.ascii	"tmp\000"
 839 0481 01       		.byte	0x1
 840 0482 7C       		.byte	0x7c
 841 0483 B8000000 		.4byte	0xb8
 842 0487 01       		.uleb128 0x1
 843 0488 53       		.byte	0x53
 844 0489 00       		.byte	0
 845 048a 19       		.uleb128 0x19
 846 048b 12000000 		.4byte	.LBB7
 847 048f 08000000 		.4byte	.LBE7-.LBB7
 848 0493 A5040000 		.4byte	0x4a5
 849 0497 18       		.uleb128 0x18
 850 0498 746D7000 		.ascii	"tmp\000"
 851 049c 01       		.byte	0x1
 852 049d 81       		.byte	0x81
 853 049e B8000000 		.4byte	0xb8
 854 04a2 01       		.uleb128 0x1
 855 04a3 53       		.byte	0x53
ARM GAS  C:\Users\danit\AppData\Local\Temp\ccx2tz3j.s 			page 16


 856 04a4 00       		.byte	0
 857 04a5 1A       		.uleb128 0x1a
 858 04a6 0E000000 		.4byte	.LVL5
 859 04aa 43060000 		.4byte	0x643
 860 04ae 1B       		.uleb128 0x1b
 861 04af 01       		.uleb128 0x1
 862 04b0 50       		.byte	0x50
 863 04b1 02       		.uleb128 0x2
 864 04b2 74       		.byte	0x74
 865 04b3 00       		.sleb128 0
 866 04b4 00       		.byte	0
 867 04b5 00       		.byte	0
 868 04b6 13       		.uleb128 0x13
 869 04b7 3B030000 		.4byte	.LASF56
 870 04bb 01       		.byte	0x1
 871 04bc 93       		.byte	0x93
 872 04bd 00000000 		.4byte	.LFB122
 873 04c1 18000000 		.4byte	.LFE122-.LFB122
 874 04c5 01       		.uleb128 0x1
 875 04c6 9C       		.byte	0x9c
 876 04c7 18050000 		.4byte	0x518
 877 04cb 15       		.uleb128 0x15
 878 04cc 45010000 		.4byte	.LASF54
 879 04d0 01       		.byte	0x1
 880 04d1 93       		.byte	0x93
 881 04d2 BE020000 		.4byte	0x2be
 882 04d6 01       		.uleb128 0x1
 883 04d7 50       		.byte	0x50
 884 04d8 15       		.uleb128 0x15
 885 04d9 16010000 		.4byte	.LASF38
 886 04dd 01       		.byte	0x1
 887 04de 93       		.byte	0x93
 888 04df DC020000 		.4byte	0x2dc
 889 04e3 01       		.uleb128 0x1
 890 04e4 51       		.byte	0x51
 891 04e5 19       		.uleb128 0x19
 892 04e6 00000000 		.4byte	.LBB8
 893 04ea 06000000 		.4byte	.LBE8-.LBB8
 894 04ee 00050000 		.4byte	0x500
 895 04f2 18       		.uleb128 0x18
 896 04f3 746D7000 		.ascii	"tmp\000"
 897 04f7 01       		.byte	0x1
 898 04f8 97       		.byte	0x97
 899 04f9 B8000000 		.4byte	0xb8
 900 04fd 01       		.uleb128 0x1
 901 04fe 53       		.byte	0x53
 902 04ff 00       		.byte	0
 903 0500 1C       		.uleb128 0x1c
 904 0501 10000000 		.4byte	.LBB9
 905 0505 08000000 		.4byte	.LBE9-.LBB9
 906 0509 18       		.uleb128 0x18
 907 050a 746D7000 		.ascii	"tmp\000"
 908 050e 01       		.byte	0x1
 909 050f 9B       		.byte	0x9b
 910 0510 B8000000 		.4byte	0xb8
 911 0514 01       		.uleb128 0x1
 912 0515 53       		.byte	0x53
ARM GAS  C:\Users\danit\AppData\Local\Temp\ccx2tz3j.s 			page 17


 913 0516 00       		.byte	0
 914 0517 00       		.byte	0
 915 0518 13       		.uleb128 0x13
 916 0519 AB000000 		.4byte	.LASF57
 917 051d 01       		.byte	0x1
 918 051e AC       		.byte	0xac
 919 051f 00000000 		.4byte	.LFB123
 920 0523 14000000 		.4byte	.LFE123-.LFB123
 921 0527 01       		.uleb128 0x1
 922 0528 9C       		.byte	0x9c
 923 0529 A2050000 		.4byte	0x5a2
 924 052d 16       		.uleb128 0x16
 925 052e 45010000 		.4byte	.LASF54
 926 0532 01       		.byte	0x1
 927 0533 AC       		.byte	0xac
 928 0534 BE020000 		.4byte	0x2be
 929 0538 5D000000 		.4byte	.LLST3
 930 053c 16       		.uleb128 0x16
 931 053d 33030000 		.4byte	.LASF58
 932 0541 01       		.byte	0x1
 933 0542 AD       		.byte	0xad
 934 0543 D0020000 		.4byte	0x2d0
 935 0547 7E000000 		.4byte	.LLST4
 936 054b 16       		.uleb128 0x16
 937 054c BC000000 		.4byte	.LASF59
 938 0550 01       		.byte	0x1
 939 0551 AE       		.byte	0xae
 940 0552 DC020000 		.4byte	0x2dc
 941 0556 9F000000 		.4byte	.LLST5
 942 055a 19       		.uleb128 0x19
 943 055b 02000000 		.4byte	.LBB10
 944 055f 06000000 		.4byte	.LBE10-.LBB10
 945 0563 75050000 		.4byte	0x575
 946 0567 18       		.uleb128 0x18
 947 0568 746D7000 		.ascii	"tmp\000"
 948 056c 01       		.byte	0x1
 949 056d B3       		.byte	0xb3
 950 056e B8000000 		.4byte	0xb8
 951 0572 01       		.uleb128 0x1
 952 0573 53       		.byte	0x53
 953 0574 00       		.byte	0
 954 0575 19       		.uleb128 0x19
 955 0576 0C000000 		.4byte	.LBB11
 956 057a 08000000 		.4byte	.LBE11-.LBB11
 957 057e 90050000 		.4byte	0x590
 958 0582 18       		.uleb128 0x18
 959 0583 746D7000 		.ascii	"tmp\000"
 960 0587 01       		.byte	0x1
 961 0588 B7       		.byte	0xb7
 962 0589 B8000000 		.4byte	0xb8
 963 058d 01       		.uleb128 0x1
 964 058e 53       		.byte	0x53
 965 058f 00       		.byte	0
 966 0590 1A       		.uleb128 0x1a
 967 0591 0C000000 		.4byte	.LVL8
 968 0595 55060000 		.4byte	0x655
 969 0599 1B       		.uleb128 0x1b
ARM GAS  C:\Users\danit\AppData\Local\Temp\ccx2tz3j.s 			page 18


 970 059a 01       		.uleb128 0x1
 971 059b 50       		.byte	0x50
 972 059c 03       		.uleb128 0x3
 973 059d F3       		.byte	0xf3
 974 059e 01       		.uleb128 0x1
 975 059f 50       		.byte	0x50
 976 05a0 00       		.byte	0
 977 05a1 00       		.byte	0
 978 05a2 13       		.uleb128 0x13
 979 05a3 B2010000 		.4byte	.LASF60
 980 05a7 01       		.byte	0x1
 981 05a8 C8       		.byte	0xc8
 982 05a9 00000000 		.4byte	.LFB124
 983 05ad 14000000 		.4byte	.LFE124-.LFB124
 984 05b1 01       		.uleb128 0x1
 985 05b2 9C       		.byte	0x9c
 986 05b3 1D060000 		.4byte	0x61d
 987 05b7 16       		.uleb128 0x16
 988 05b8 45010000 		.4byte	.LASF54
 989 05bc 01       		.byte	0x1
 990 05bd C8       		.byte	0xc8
 991 05be BE020000 		.4byte	0x2be
 992 05c2 C0000000 		.4byte	.LLST6
 993 05c6 16       		.uleb128 0x16
 994 05c7 33030000 		.4byte	.LASF58
 995 05cb 01       		.byte	0x1
 996 05cc C8       		.byte	0xc8
 997 05cd D0020000 		.4byte	0x2d0
 998 05d1 E1000000 		.4byte	.LLST7
 999 05d5 19       		.uleb128 0x19
 1000 05d6 02000000 		.4byte	.LBB12
 1001 05da 06000000 		.4byte	.LBE12-.LBB12
 1002 05de F0050000 		.4byte	0x5f0
 1003 05e2 18       		.uleb128 0x18
 1004 05e3 746D7000 		.ascii	"tmp\000"
 1005 05e7 01       		.byte	0x1
 1006 05e8 CD       		.byte	0xcd
 1007 05e9 B8000000 		.4byte	0xb8
 1008 05ed 01       		.uleb128 0x1
 1009 05ee 53       		.byte	0x53
 1010 05ef 00       		.byte	0
 1011 05f0 19       		.uleb128 0x19
 1012 05f1 0C000000 		.4byte	.LBB13
 1013 05f5 08000000 		.4byte	.LBE13-.LBB13
 1014 05f9 0B060000 		.4byte	0x60b
 1015 05fd 18       		.uleb128 0x18
 1016 05fe 746D7000 		.ascii	"tmp\000"
 1017 0602 01       		.byte	0x1
 1018 0603 D1       		.byte	0xd1
 1019 0604 B8000000 		.4byte	0xb8
 1020 0608 01       		.uleb128 0x1
 1021 0609 53       		.byte	0x53
 1022 060a 00       		.byte	0
 1023 060b 1A       		.uleb128 0x1a
 1024 060c 0C000000 		.4byte	.LVL10
 1025 0610 71060000 		.4byte	0x671
 1026 0614 1B       		.uleb128 0x1b
ARM GAS  C:\Users\danit\AppData\Local\Temp\ccx2tz3j.s 			page 19


 1027 0615 01       		.uleb128 0x1
 1028 0616 50       		.byte	0x50
 1029 0617 03       		.uleb128 0x3
 1030 0618 F3       		.byte	0xf3
 1031 0619 01       		.uleb128 0x1
 1032 061a 50       		.byte	0x50
 1033 061b 00       		.byte	0
 1034 061c 00       		.byte	0
 1035 061d 1D       		.uleb128 0x1d
 1036 061e B2030000 		.4byte	.LASF67
 1037 0622 07       		.byte	0x7
 1038 0623 9806     		.2byte	0x698
 1039 0625 ED000000 		.4byte	0xed
 1040 0629 1E       		.uleb128 0x1e
 1041 062a FD020000 		.4byte	.LASF68
 1042 062e 06       		.byte	0x6
 1043 062f D101     		.2byte	0x1d1
 1044 0631 1F       		.uleb128 0x1f
 1045 0632 2D010000 		.4byte	.LASF61
 1046 0636 06       		.byte	0x6
 1047 0637 D201     		.2byte	0x1d2
 1048 0639 43060000 		.4byte	0x643
 1049 063d 11       		.uleb128 0x11
 1050 063e BE020000 		.4byte	0x2be
 1051 0642 00       		.byte	0
 1052 0643 1F       		.uleb128 0x1f
 1053 0644 05000000 		.4byte	.LASF62
 1054 0648 06       		.byte	0x6
 1055 0649 D301     		.2byte	0x1d3
 1056 064b 55060000 		.4byte	0x655
 1057 064f 11       		.uleb128 0x11
 1058 0650 BE020000 		.4byte	0x2be
 1059 0654 00       		.byte	0
 1060 0655 1F       		.uleb128 0x1f
 1061 0656 68010000 		.4byte	.LASF63
 1062 065a 06       		.byte	0x6
 1063 065b D401     		.2byte	0x1d4
 1064 065d 71060000 		.4byte	0x671
 1065 0661 11       		.uleb128 0x11
 1066 0662 BE020000 		.4byte	0x2be
 1067 0666 11       		.uleb128 0x11
 1068 0667 D0020000 		.4byte	0x2d0
 1069 066b 11       		.uleb128 0x11
 1070 066c DC020000 		.4byte	0x2dc
 1071 0670 00       		.byte	0
 1072 0671 20       		.uleb128 0x20
 1073 0672 45000000 		.4byte	.LASF69
 1074 0676 06       		.byte	0x6
 1075 0677 D701     		.2byte	0x1d7
 1076 0679 11       		.uleb128 0x11
 1077 067a BE020000 		.4byte	0x2be
 1078 067e 11       		.uleb128 0x11
 1079 067f D0020000 		.4byte	0x2d0
 1080 0683 00       		.byte	0
 1081 0684 00       		.byte	0
 1082              		.section	.debug_abbrev,"",%progbits
 1083              	.Ldebug_abbrev0:
ARM GAS  C:\Users\danit\AppData\Local\Temp\ccx2tz3j.s 			page 20


 1084 0000 01       		.uleb128 0x1
 1085 0001 11       		.uleb128 0x11
 1086 0002 01       		.byte	0x1
 1087 0003 25       		.uleb128 0x25
 1088 0004 0E       		.uleb128 0xe
 1089 0005 13       		.uleb128 0x13
 1090 0006 0B       		.uleb128 0xb
 1091 0007 03       		.uleb128 0x3
 1092 0008 0E       		.uleb128 0xe
 1093 0009 1B       		.uleb128 0x1b
 1094 000a 0E       		.uleb128 0xe
 1095 000b 55       		.uleb128 0x55
 1096 000c 17       		.uleb128 0x17
 1097 000d 11       		.uleb128 0x11
 1098 000e 01       		.uleb128 0x1
 1099 000f 10       		.uleb128 0x10
 1100 0010 17       		.uleb128 0x17
 1101 0011 00       		.byte	0
 1102 0012 00       		.byte	0
 1103 0013 02       		.uleb128 0x2
 1104 0014 24       		.uleb128 0x24
 1105 0015 00       		.byte	0
 1106 0016 0B       		.uleb128 0xb
 1107 0017 0B       		.uleb128 0xb
 1108 0018 3E       		.uleb128 0x3e
 1109 0019 0B       		.uleb128 0xb
 1110 001a 03       		.uleb128 0x3
 1111 001b 08       		.uleb128 0x8
 1112 001c 00       		.byte	0
 1113 001d 00       		.byte	0
 1114 001e 03       		.uleb128 0x3
 1115 001f 24       		.uleb128 0x24
 1116 0020 00       		.byte	0
 1117 0021 0B       		.uleb128 0xb
 1118 0022 0B       		.uleb128 0xb
 1119 0023 3E       		.uleb128 0x3e
 1120 0024 0B       		.uleb128 0xb
 1121 0025 03       		.uleb128 0x3
 1122 0026 0E       		.uleb128 0xe
 1123 0027 00       		.byte	0
 1124 0028 00       		.byte	0
 1125 0029 04       		.uleb128 0x4
 1126 002a 16       		.uleb128 0x16
 1127 002b 00       		.byte	0
 1128 002c 03       		.uleb128 0x3
 1129 002d 0E       		.uleb128 0xe
 1130 002e 3A       		.uleb128 0x3a
 1131 002f 0B       		.uleb128 0xb
 1132 0030 3B       		.uleb128 0x3b
 1133 0031 0B       		.uleb128 0xb
 1134 0032 49       		.uleb128 0x49
 1135 0033 13       		.uleb128 0x13
 1136 0034 00       		.byte	0
 1137 0035 00       		.byte	0
 1138 0036 05       		.uleb128 0x5
 1139 0037 35       		.uleb128 0x35
 1140 0038 00       		.byte	0
ARM GAS  C:\Users\danit\AppData\Local\Temp\ccx2tz3j.s 			page 21


 1141 0039 49       		.uleb128 0x49
 1142 003a 13       		.uleb128 0x13
 1143 003b 00       		.byte	0
 1144 003c 00       		.byte	0
 1145 003d 06       		.uleb128 0x6
 1146 003e 01       		.uleb128 0x1
 1147 003f 01       		.byte	0x1
 1148 0040 49       		.uleb128 0x49
 1149 0041 13       		.uleb128 0x13
 1150 0042 01       		.uleb128 0x1
 1151 0043 13       		.uleb128 0x13
 1152 0044 00       		.byte	0
 1153 0045 00       		.byte	0
 1154 0046 07       		.uleb128 0x7
 1155 0047 21       		.uleb128 0x21
 1156 0048 00       		.byte	0
 1157 0049 49       		.uleb128 0x49
 1158 004a 13       		.uleb128 0x13
 1159 004b 2F       		.uleb128 0x2f
 1160 004c 0B       		.uleb128 0xb
 1161 004d 00       		.byte	0
 1162 004e 00       		.byte	0
 1163 004f 08       		.uleb128 0x8
 1164 0050 13       		.uleb128 0x13
 1165 0051 01       		.byte	0x1
 1166 0052 0B       		.uleb128 0xb
 1167 0053 0B       		.uleb128 0xb
 1168 0054 3A       		.uleb128 0x3a
 1169 0055 0B       		.uleb128 0xb
 1170 0056 3B       		.uleb128 0x3b
 1171 0057 05       		.uleb128 0x5
 1172 0058 01       		.uleb128 0x1
 1173 0059 13       		.uleb128 0x13
 1174 005a 00       		.byte	0
 1175 005b 00       		.byte	0
 1176 005c 09       		.uleb128 0x9
 1177 005d 0D       		.uleb128 0xd
 1178 005e 00       		.byte	0
 1179 005f 03       		.uleb128 0x3
 1180 0060 08       		.uleb128 0x8
 1181 0061 3A       		.uleb128 0x3a
 1182 0062 0B       		.uleb128 0xb
 1183 0063 3B       		.uleb128 0x3b
 1184 0064 05       		.uleb128 0x5
 1185 0065 49       		.uleb128 0x49
 1186 0066 13       		.uleb128 0x13
 1187 0067 38       		.uleb128 0x38
 1188 0068 0B       		.uleb128 0xb
 1189 0069 00       		.byte	0
 1190 006a 00       		.byte	0
 1191 006b 0A       		.uleb128 0xa
 1192 006c 0D       		.uleb128 0xd
 1193 006d 00       		.byte	0
 1194 006e 03       		.uleb128 0x3
 1195 006f 0E       		.uleb128 0xe
 1196 0070 3A       		.uleb128 0x3a
 1197 0071 0B       		.uleb128 0xb
ARM GAS  C:\Users\danit\AppData\Local\Temp\ccx2tz3j.s 			page 22


 1198 0072 3B       		.uleb128 0x3b
 1199 0073 05       		.uleb128 0x5
 1200 0074 49       		.uleb128 0x49
 1201 0075 13       		.uleb128 0x13
 1202 0076 38       		.uleb128 0x38
 1203 0077 0B       		.uleb128 0xb
 1204 0078 00       		.byte	0
 1205 0079 00       		.byte	0
 1206 007a 0B       		.uleb128 0xb
 1207 007b 16       		.uleb128 0x16
 1208 007c 00       		.byte	0
 1209 007d 03       		.uleb128 0x3
 1210 007e 0E       		.uleb128 0xe
 1211 007f 3A       		.uleb128 0x3a
 1212 0080 0B       		.uleb128 0xb
 1213 0081 3B       		.uleb128 0x3b
 1214 0082 05       		.uleb128 0x5
 1215 0083 49       		.uleb128 0x49
 1216 0084 13       		.uleb128 0x13
 1217 0085 00       		.byte	0
 1218 0086 00       		.byte	0
 1219 0087 0C       		.uleb128 0xc
 1220 0088 0F       		.uleb128 0xf
 1221 0089 00       		.byte	0
 1222 008a 0B       		.uleb128 0xb
 1223 008b 0B       		.uleb128 0xb
 1224 008c 49       		.uleb128 0x49
 1225 008d 13       		.uleb128 0x13
 1226 008e 00       		.byte	0
 1227 008f 00       		.byte	0
 1228 0090 0D       		.uleb128 0xd
 1229 0091 04       		.uleb128 0x4
 1230 0092 01       		.byte	0x1
 1231 0093 0B       		.uleb128 0xb
 1232 0094 0B       		.uleb128 0xb
 1233 0095 3A       		.uleb128 0x3a
 1234 0096 0B       		.uleb128 0xb
 1235 0097 3B       		.uleb128 0x3b
 1236 0098 0B       		.uleb128 0xb
 1237 0099 01       		.uleb128 0x1
 1238 009a 13       		.uleb128 0x13
 1239 009b 00       		.byte	0
 1240 009c 00       		.byte	0
 1241 009d 0E       		.uleb128 0xe
 1242 009e 28       		.uleb128 0x28
 1243 009f 00       		.byte	0
 1244 00a0 03       		.uleb128 0x3
 1245 00a1 0E       		.uleb128 0xe
 1246 00a2 1C       		.uleb128 0x1c
 1247 00a3 0D       		.uleb128 0xd
 1248 00a4 00       		.byte	0
 1249 00a5 00       		.byte	0
 1250 00a6 0F       		.uleb128 0xf
 1251 00a7 13       		.uleb128 0x13
 1252 00a8 01       		.byte	0x1
 1253 00a9 03       		.uleb128 0x3
 1254 00aa 0E       		.uleb128 0xe
ARM GAS  C:\Users\danit\AppData\Local\Temp\ccx2tz3j.s 			page 23


 1255 00ab 0B       		.uleb128 0xb
 1256 00ac 0B       		.uleb128 0xb
 1257 00ad 3A       		.uleb128 0x3a
 1258 00ae 0B       		.uleb128 0xb
 1259 00af 3B       		.uleb128 0x3b
 1260 00b0 05       		.uleb128 0x5
 1261 00b1 01       		.uleb128 0x1
 1262 00b2 13       		.uleb128 0x13
 1263 00b3 00       		.byte	0
 1264 00b4 00       		.byte	0
 1265 00b5 10       		.uleb128 0x10
 1266 00b6 15       		.uleb128 0x15
 1267 00b7 01       		.byte	0x1
 1268 00b8 27       		.uleb128 0x27
 1269 00b9 19       		.uleb128 0x19
 1270 00ba 01       		.uleb128 0x1
 1271 00bb 13       		.uleb128 0x13
 1272 00bc 00       		.byte	0
 1273 00bd 00       		.byte	0
 1274 00be 11       		.uleb128 0x11
 1275 00bf 05       		.uleb128 0x5
 1276 00c0 00       		.byte	0
 1277 00c1 49       		.uleb128 0x49
 1278 00c2 13       		.uleb128 0x13
 1279 00c3 00       		.byte	0
 1280 00c4 00       		.byte	0
 1281 00c5 12       		.uleb128 0x12
 1282 00c6 26       		.uleb128 0x26
 1283 00c7 00       		.byte	0
 1284 00c8 49       		.uleb128 0x49
 1285 00c9 13       		.uleb128 0x13
 1286 00ca 00       		.byte	0
 1287 00cb 00       		.byte	0
 1288 00cc 13       		.uleb128 0x13
 1289 00cd 2E       		.uleb128 0x2e
 1290 00ce 01       		.byte	0x1
 1291 00cf 3F       		.uleb128 0x3f
 1292 00d0 19       		.uleb128 0x19
 1293 00d1 03       		.uleb128 0x3
 1294 00d2 0E       		.uleb128 0xe
 1295 00d3 3A       		.uleb128 0x3a
 1296 00d4 0B       		.uleb128 0xb
 1297 00d5 3B       		.uleb128 0x3b
 1298 00d6 0B       		.uleb128 0xb
 1299 00d7 27       		.uleb128 0x27
 1300 00d8 19       		.uleb128 0x19
 1301 00d9 11       		.uleb128 0x11
 1302 00da 01       		.uleb128 0x1
 1303 00db 12       		.uleb128 0x12
 1304 00dc 06       		.uleb128 0x6
 1305 00dd 40       		.uleb128 0x40
 1306 00de 18       		.uleb128 0x18
 1307 00df 9742     		.uleb128 0x2117
 1308 00e1 19       		.uleb128 0x19
 1309 00e2 01       		.uleb128 0x1
 1310 00e3 13       		.uleb128 0x13
 1311 00e4 00       		.byte	0
ARM GAS  C:\Users\danit\AppData\Local\Temp\ccx2tz3j.s 			page 24


 1312 00e5 00       		.byte	0
 1313 00e6 14       		.uleb128 0x14
 1314 00e7 898201   		.uleb128 0x4109
 1315 00ea 00       		.byte	0
 1316 00eb 11       		.uleb128 0x11
 1317 00ec 01       		.uleb128 0x1
 1318 00ed 9542     		.uleb128 0x2115
 1319 00ef 19       		.uleb128 0x19
 1320 00f0 31       		.uleb128 0x31
 1321 00f1 13       		.uleb128 0x13
 1322 00f2 00       		.byte	0
 1323 00f3 00       		.byte	0
 1324 00f4 15       		.uleb128 0x15
 1325 00f5 05       		.uleb128 0x5
 1326 00f6 00       		.byte	0
 1327 00f7 03       		.uleb128 0x3
 1328 00f8 0E       		.uleb128 0xe
 1329 00f9 3A       		.uleb128 0x3a
 1330 00fa 0B       		.uleb128 0xb
 1331 00fb 3B       		.uleb128 0x3b
 1332 00fc 0B       		.uleb128 0xb
 1333 00fd 49       		.uleb128 0x49
 1334 00fe 13       		.uleb128 0x13
 1335 00ff 02       		.uleb128 0x2
 1336 0100 18       		.uleb128 0x18
 1337 0101 00       		.byte	0
 1338 0102 00       		.byte	0
 1339 0103 16       		.uleb128 0x16
 1340 0104 05       		.uleb128 0x5
 1341 0105 00       		.byte	0
 1342 0106 03       		.uleb128 0x3
 1343 0107 0E       		.uleb128 0xe
 1344 0108 3A       		.uleb128 0x3a
 1345 0109 0B       		.uleb128 0xb
 1346 010a 3B       		.uleb128 0x3b
 1347 010b 0B       		.uleb128 0xb
 1348 010c 49       		.uleb128 0x49
 1349 010d 13       		.uleb128 0x13
 1350 010e 02       		.uleb128 0x2
 1351 010f 17       		.uleb128 0x17
 1352 0110 00       		.byte	0
 1353 0111 00       		.byte	0
 1354 0112 17       		.uleb128 0x17
 1355 0113 0B       		.uleb128 0xb
 1356 0114 01       		.byte	0x1
 1357 0115 55       		.uleb128 0x55
 1358 0116 17       		.uleb128 0x17
 1359 0117 01       		.uleb128 0x1
 1360 0118 13       		.uleb128 0x13
 1361 0119 00       		.byte	0
 1362 011a 00       		.byte	0
 1363 011b 18       		.uleb128 0x18
 1364 011c 34       		.uleb128 0x34
 1365 011d 00       		.byte	0
 1366 011e 03       		.uleb128 0x3
 1367 011f 08       		.uleb128 0x8
 1368 0120 3A       		.uleb128 0x3a
ARM GAS  C:\Users\danit\AppData\Local\Temp\ccx2tz3j.s 			page 25


 1369 0121 0B       		.uleb128 0xb
 1370 0122 3B       		.uleb128 0x3b
 1371 0123 0B       		.uleb128 0xb
 1372 0124 49       		.uleb128 0x49
 1373 0125 13       		.uleb128 0x13
 1374 0126 02       		.uleb128 0x2
 1375 0127 18       		.uleb128 0x18
 1376 0128 00       		.byte	0
 1377 0129 00       		.byte	0
 1378 012a 19       		.uleb128 0x19
 1379 012b 0B       		.uleb128 0xb
 1380 012c 01       		.byte	0x1
 1381 012d 11       		.uleb128 0x11
 1382 012e 01       		.uleb128 0x1
 1383 012f 12       		.uleb128 0x12
 1384 0130 06       		.uleb128 0x6
 1385 0131 01       		.uleb128 0x1
 1386 0132 13       		.uleb128 0x13
 1387 0133 00       		.byte	0
 1388 0134 00       		.byte	0
 1389 0135 1A       		.uleb128 0x1a
 1390 0136 898201   		.uleb128 0x4109
 1391 0139 01       		.byte	0x1
 1392 013a 11       		.uleb128 0x11
 1393 013b 01       		.uleb128 0x1
 1394 013c 31       		.uleb128 0x31
 1395 013d 13       		.uleb128 0x13
 1396 013e 00       		.byte	0
 1397 013f 00       		.byte	0
 1398 0140 1B       		.uleb128 0x1b
 1399 0141 8A8201   		.uleb128 0x410a
 1400 0144 00       		.byte	0
 1401 0145 02       		.uleb128 0x2
 1402 0146 18       		.uleb128 0x18
 1403 0147 9142     		.uleb128 0x2111
 1404 0149 18       		.uleb128 0x18
 1405 014a 00       		.byte	0
 1406 014b 00       		.byte	0
 1407 014c 1C       		.uleb128 0x1c
 1408 014d 0B       		.uleb128 0xb
 1409 014e 01       		.byte	0x1
 1410 014f 11       		.uleb128 0x11
 1411 0150 01       		.uleb128 0x1
 1412 0151 12       		.uleb128 0x12
 1413 0152 06       		.uleb128 0x6
 1414 0153 00       		.byte	0
 1415 0154 00       		.byte	0
 1416 0155 1D       		.uleb128 0x1d
 1417 0156 34       		.uleb128 0x34
 1418 0157 00       		.byte	0
 1419 0158 03       		.uleb128 0x3
 1420 0159 0E       		.uleb128 0xe
 1421 015a 3A       		.uleb128 0x3a
 1422 015b 0B       		.uleb128 0xb
 1423 015c 3B       		.uleb128 0x3b
 1424 015d 05       		.uleb128 0x5
 1425 015e 49       		.uleb128 0x49
ARM GAS  C:\Users\danit\AppData\Local\Temp\ccx2tz3j.s 			page 26


 1426 015f 13       		.uleb128 0x13
 1427 0160 3F       		.uleb128 0x3f
 1428 0161 19       		.uleb128 0x19
 1429 0162 3C       		.uleb128 0x3c
 1430 0163 19       		.uleb128 0x19
 1431 0164 00       		.byte	0
 1432 0165 00       		.byte	0
 1433 0166 1E       		.uleb128 0x1e
 1434 0167 2E       		.uleb128 0x2e
 1435 0168 00       		.byte	0
 1436 0169 3F       		.uleb128 0x3f
 1437 016a 19       		.uleb128 0x19
 1438 016b 03       		.uleb128 0x3
 1439 016c 0E       		.uleb128 0xe
 1440 016d 3A       		.uleb128 0x3a
 1441 016e 0B       		.uleb128 0xb
 1442 016f 3B       		.uleb128 0x3b
 1443 0170 05       		.uleb128 0x5
 1444 0171 27       		.uleb128 0x27
 1445 0172 19       		.uleb128 0x19
 1446 0173 3C       		.uleb128 0x3c
 1447 0174 19       		.uleb128 0x19
 1448 0175 00       		.byte	0
 1449 0176 00       		.byte	0
 1450 0177 1F       		.uleb128 0x1f
 1451 0178 2E       		.uleb128 0x2e
 1452 0179 01       		.byte	0x1
 1453 017a 3F       		.uleb128 0x3f
 1454 017b 19       		.uleb128 0x19
 1455 017c 03       		.uleb128 0x3
 1456 017d 0E       		.uleb128 0xe
 1457 017e 3A       		.uleb128 0x3a
 1458 017f 0B       		.uleb128 0xb
 1459 0180 3B       		.uleb128 0x3b
 1460 0181 05       		.uleb128 0x5
 1461 0182 27       		.uleb128 0x27
 1462 0183 19       		.uleb128 0x19
 1463 0184 3C       		.uleb128 0x3c
 1464 0185 19       		.uleb128 0x19
 1465 0186 01       		.uleb128 0x1
 1466 0187 13       		.uleb128 0x13
 1467 0188 00       		.byte	0
 1468 0189 00       		.byte	0
 1469 018a 20       		.uleb128 0x20
 1470 018b 2E       		.uleb128 0x2e
 1471 018c 01       		.byte	0x1
 1472 018d 3F       		.uleb128 0x3f
 1473 018e 19       		.uleb128 0x19
 1474 018f 03       		.uleb128 0x3
 1475 0190 0E       		.uleb128 0xe
 1476 0191 3A       		.uleb128 0x3a
 1477 0192 0B       		.uleb128 0xb
 1478 0193 3B       		.uleb128 0x3b
 1479 0194 05       		.uleb128 0x5
 1480 0195 27       		.uleb128 0x27
 1481 0196 19       		.uleb128 0x19
 1482 0197 3C       		.uleb128 0x3c
ARM GAS  C:\Users\danit\AppData\Local\Temp\ccx2tz3j.s 			page 27


 1483 0198 19       		.uleb128 0x19
 1484 0199 00       		.byte	0
 1485 019a 00       		.byte	0
 1486 019b 00       		.byte	0
 1487              		.section	.debug_loc,"",%progbits
 1488              	.Ldebug_loc0:
 1489              	.LLST0:
 1490 0000 00000000 		.4byte	.LVL2
 1491 0004 13000000 		.4byte	.LVL3-1
 1492 0008 0100     		.2byte	0x1
 1493 000a 50       		.byte	0x50
 1494 000b 13000000 		.4byte	.LVL3-1
 1495 000f 20000000 		.4byte	.LFE120
 1496 0013 0100     		.2byte	0x1
 1497 0015 54       		.byte	0x54
 1498 0016 00000000 		.4byte	0
 1499 001a 00000000 		.4byte	0
 1500              	.LLST1:
 1501 001e 00000000 		.4byte	.LVL2
 1502 0022 13000000 		.4byte	.LVL3-1
 1503 0026 0100     		.2byte	0x1
 1504 0028 51       		.byte	0x51
 1505 0029 13000000 		.4byte	.LVL3-1
 1506 002d 20000000 		.4byte	.LFE120
 1507 0031 0400     		.2byte	0x4
 1508 0033 F3       		.byte	0xf3
 1509 0034 01       		.uleb128 0x1
 1510 0035 51       		.byte	0x51
 1511 0036 9F       		.byte	0x9f
 1512 0037 00000000 		.4byte	0
 1513 003b 00000000 		.4byte	0
 1514              	.LLST2:
 1515 003f 00000000 		.4byte	.LVL4
 1516 0043 0D000000 		.4byte	.LVL5-1
 1517 0047 0100     		.2byte	0x1
 1518 0049 50       		.byte	0x50
 1519 004a 0D000000 		.4byte	.LVL5-1
 1520 004e 1A000000 		.4byte	.LFE121
 1521 0052 0100     		.2byte	0x1
 1522 0054 54       		.byte	0x54
 1523 0055 00000000 		.4byte	0
 1524 0059 00000000 		.4byte	0
 1525              	.LLST3:
 1526 005d 00000000 		.4byte	.LVL7
 1527 0061 0B000000 		.4byte	.LVL8-1
 1528 0065 0100     		.2byte	0x1
 1529 0067 50       		.byte	0x50
 1530 0068 0B000000 		.4byte	.LVL8-1
 1531 006c 14000000 		.4byte	.LFE123
 1532 0070 0400     		.2byte	0x4
 1533 0072 F3       		.byte	0xf3
 1534 0073 01       		.uleb128 0x1
 1535 0074 50       		.byte	0x50
 1536 0075 9F       		.byte	0x9f
 1537 0076 00000000 		.4byte	0
 1538 007a 00000000 		.4byte	0
 1539              	.LLST4:
ARM GAS  C:\Users\danit\AppData\Local\Temp\ccx2tz3j.s 			page 28


 1540 007e 00000000 		.4byte	.LVL7
 1541 0082 0B000000 		.4byte	.LVL8-1
 1542 0086 0100     		.2byte	0x1
 1543 0088 51       		.byte	0x51
 1544 0089 0B000000 		.4byte	.LVL8-1
 1545 008d 14000000 		.4byte	.LFE123
 1546 0091 0400     		.2byte	0x4
 1547 0093 F3       		.byte	0xf3
 1548 0094 01       		.uleb128 0x1
 1549 0095 51       		.byte	0x51
 1550 0096 9F       		.byte	0x9f
 1551 0097 00000000 		.4byte	0
 1552 009b 00000000 		.4byte	0
 1553              	.LLST5:
 1554 009f 00000000 		.4byte	.LVL7
 1555 00a3 0B000000 		.4byte	.LVL8-1
 1556 00a7 0100     		.2byte	0x1
 1557 00a9 52       		.byte	0x52
 1558 00aa 0B000000 		.4byte	.LVL8-1
 1559 00ae 14000000 		.4byte	.LFE123
 1560 00b2 0400     		.2byte	0x4
 1561 00b4 F3       		.byte	0xf3
 1562 00b5 01       		.uleb128 0x1
 1563 00b6 52       		.byte	0x52
 1564 00b7 9F       		.byte	0x9f
 1565 00b8 00000000 		.4byte	0
 1566 00bc 00000000 		.4byte	0
 1567              	.LLST6:
 1568 00c0 00000000 		.4byte	.LVL9
 1569 00c4 0B000000 		.4byte	.LVL10-1
 1570 00c8 0100     		.2byte	0x1
 1571 00ca 50       		.byte	0x50
 1572 00cb 0B000000 		.4byte	.LVL10-1
 1573 00cf 14000000 		.4byte	.LFE124
 1574 00d3 0400     		.2byte	0x4
 1575 00d5 F3       		.byte	0xf3
 1576 00d6 01       		.uleb128 0x1
 1577 00d7 50       		.byte	0x50
 1578 00d8 9F       		.byte	0x9f
 1579 00d9 00000000 		.4byte	0
 1580 00dd 00000000 		.4byte	0
 1581              	.LLST7:
 1582 00e1 00000000 		.4byte	.LVL9
 1583 00e5 0B000000 		.4byte	.LVL10-1
 1584 00e9 0100     		.2byte	0x1
 1585 00eb 51       		.byte	0x51
 1586 00ec 0B000000 		.4byte	.LVL10-1
 1587 00f0 14000000 		.4byte	.LFE124
 1588 00f4 0400     		.2byte	0x4
 1589 00f6 F3       		.byte	0xf3
 1590 00f7 01       		.uleb128 0x1
 1591 00f8 51       		.byte	0x51
 1592 00f9 9F       		.byte	0x9f
 1593 00fa 00000000 		.4byte	0
 1594 00fe 00000000 		.4byte	0
 1595              		.section	.debug_aranges,"",%progbits
 1596 0000 4C000000 		.4byte	0x4c
ARM GAS  C:\Users\danit\AppData\Local\Temp\ccx2tz3j.s 			page 29


 1597 0004 0200     		.2byte	0x2
 1598 0006 00000000 		.4byte	.Ldebug_info0
 1599 000a 04       		.byte	0x4
 1600 000b 00       		.byte	0
 1601 000c 0000     		.2byte	0
 1602 000e 0000     		.2byte	0
 1603 0010 00000000 		.4byte	.LFB118
 1604 0014 04000000 		.4byte	.LFE118-.LFB118
 1605 0018 00000000 		.4byte	.LFB119
 1606 001c 0A000000 		.4byte	.LFE119-.LFB119
 1607 0020 00000000 		.4byte	.LFB120
 1608 0024 20000000 		.4byte	.LFE120-.LFB120
 1609 0028 00000000 		.4byte	.LFB121
 1610 002c 1A000000 		.4byte	.LFE121-.LFB121
 1611 0030 00000000 		.4byte	.LFB122
 1612 0034 18000000 		.4byte	.LFE122-.LFB122
 1613 0038 00000000 		.4byte	.LFB123
 1614 003c 14000000 		.4byte	.LFE123-.LFB123
 1615 0040 00000000 		.4byte	.LFB124
 1616 0044 14000000 		.4byte	.LFE124-.LFB124
 1617 0048 00000000 		.4byte	0
 1618 004c 00000000 		.4byte	0
 1619              		.section	.debug_ranges,"",%progbits
 1620              	.Ldebug_ranges0:
 1621 0000 02000000 		.4byte	.LBB2
 1622 0004 04000000 		.4byte	.LBE2
 1623 0008 06000000 		.4byte	.LBB3
 1624 000c 0A000000 		.4byte	.LBE3
 1625 0010 00000000 		.4byte	0
 1626 0014 00000000 		.4byte	0
 1627 0018 02000000 		.4byte	.LBB5
 1628 001c 04000000 		.4byte	.LBE5
 1629 0020 06000000 		.4byte	.LBB6
 1630 0024 0A000000 		.4byte	.LBE6
 1631 0028 00000000 		.4byte	0
 1632 002c 00000000 		.4byte	0
 1633 0030 00000000 		.4byte	.LFB118
 1634 0034 04000000 		.4byte	.LFE118
 1635 0038 00000000 		.4byte	.LFB119
 1636 003c 0A000000 		.4byte	.LFE119
 1637 0040 00000000 		.4byte	.LFB120
 1638 0044 20000000 		.4byte	.LFE120
 1639 0048 00000000 		.4byte	.LFB121
 1640 004c 1A000000 		.4byte	.LFE121
 1641 0050 00000000 		.4byte	.LFB122
 1642 0054 18000000 		.4byte	.LFE122
 1643 0058 00000000 		.4byte	.LFB123
 1644 005c 14000000 		.4byte	.LFE123
 1645 0060 00000000 		.4byte	.LFB124
 1646 0064 14000000 		.4byte	.LFE124
 1647 0068 00000000 		.4byte	0
 1648 006c 00000000 		.4byte	0
 1649              		.section	.debug_line,"",%progbits
 1650              	.Ldebug_line0:
 1651 0000 4C020000 		.section	.debug_str,"MS",%progbits,1
 1651      0200BA01 
 1651      00000201 
ARM GAS  C:\Users\danit\AppData\Local\Temp\ccx2tz3j.s 			page 30


 1651      FB0E0D00 
 1651      01010101 
 1652              	.LASF24:
 1653 0000 43434552 		.ascii	"CCER\000"
 1653      00
 1654              	.LASF62:
 1655 0005 70776D5F 		.ascii	"pwm_lld_stop\000"
 1655      6C6C645F 
 1655      73746F70 
 1655      00
 1656              	.LASF26:
 1657 0012 444D4152 		.ascii	"DMAR\000"
 1657      00
 1658              	.LASF36:
 1659 0017 73746174 		.ascii	"state\000"
 1659      6500
 1660              	.LASF23:
 1661 001d 43434D52 		.ascii	"CCMR2\000"
 1661      3200
 1662              	.LASF27:
 1663 0023 43434D52 		.ascii	"CCMR3\000"
 1663      3300
 1664              	.LASF3:
 1665 0029 73686F72 		.ascii	"short int\000"
 1665      7420696E 
 1665      7400
 1666              	.LASF43:
 1667 0033 70776D63 		.ascii	"pwmcnt_t\000"
 1667      6E745F74 
 1667      00
 1668              	.LASF18:
 1669 003c 73697A65 		.ascii	"sizetype\000"
 1669      74797065 
 1669      00
 1670              	.LASF69:
 1671 0045 70776D5F 		.ascii	"pwm_lld_disable_channel\000"
 1671      6C6C645F 
 1671      64697361 
 1671      626C655F 
 1671      6368616E 
 1672              	.LASF42:
 1673 005d 70776D63 		.ascii	"pwmchannel_t\000"
 1673      68616E6E 
 1673      656C5F74 
 1673      00
 1674              	.LASF9:
 1675 006a 5F5F7569 		.ascii	"__uint32_t\000"
 1675      6E743332 
 1675      5F7400
 1676              	.LASF44:
 1677 0075 6D6F6465 		.ascii	"mode\000"
 1677      00
 1678              	.LASF5:
 1679 007a 5F5F7569 		.ascii	"__uint16_t\000"
 1679      6E743136 
 1679      5F7400
 1680              	.LASF48:
ARM GAS  C:\Users\danit\AppData\Local\Temp\ccx2tz3j.s 			page 31


 1681 0085 6368616E 		.ascii	"channels\000"
 1681      6E656C73 
 1681      00
 1682              	.LASF37:
 1683 008e 636F6E66 		.ascii	"config\000"
 1683      696700
 1684              	.LASF52:
 1685 0095 70776D4F 		.ascii	"pwmObjectInit\000"
 1685      626A6563 
 1685      74496E69 
 1685      7400
 1686              	.LASF13:
 1687 00a3 75696E74 		.ascii	"uint8_t\000"
 1687      385F7400 
 1688              	.LASF57:
 1689 00ab 70776D45 		.ascii	"pwmEnableChannel\000"
 1689      6E61626C 
 1689      65436861 
 1689      6E6E656C 
 1689      00
 1690              	.LASF59:
 1691 00bc 77696474 		.ascii	"width\000"
 1691      6800
 1692              	.LASF53:
 1693 00c2 70776D53 		.ascii	"pwmStart\000"
 1693      74617274 
 1693      00
 1694              	.LASF65:
 1695 00cb 2E2E2F2E 		.ascii	"../../../ChibiOS/os/hal/src/pwm.c\000"
 1695      2E2F2E2E 
 1695      2F436869 
 1695      62694F53 
 1695      2F6F732F 
 1696              	.LASF11:
 1697 00ed 6C6F6E67 		.ascii	"long long int\000"
 1697      206C6F6E 
 1697      6720696E 
 1697      7400
 1698              	.LASF8:
 1699 00fb 6C6F6E67 		.ascii	"long int\000"
 1699      20696E74 
 1699      00
 1700              	.LASF51:
 1701 0104 70776D49 		.ascii	"pwmInit\000"
 1701      6E697400 
 1702              	.LASF28:
 1703 010c 43435235 		.ascii	"CCR5\000"
 1703      00
 1704              	.LASF29:
 1705 0111 43435236 		.ascii	"CCR6\000"
 1705      00
 1706              	.LASF38:
 1707 0116 70657269 		.ascii	"period\000"
 1707      6F6400
 1708              	.LASF4:
 1709 011d 5F5F7569 		.ascii	"__uint8_t\000"
 1709      6E74385F 
ARM GAS  C:\Users\danit\AppData\Local\Temp\ccx2tz3j.s 			page 32


 1709      7400
 1710              	.LASF22:
 1711 0127 43434D52 		.ascii	"CCMR1\000"
 1711      3100
 1712              	.LASF61:
 1713 012d 70776D5F 		.ascii	"pwm_lld_start\000"
 1713      6C6C645F 
 1713      73746172 
 1713      7400
 1714              	.LASF50:
 1715 013b 50574D43 		.ascii	"PWMConfig\000"
 1715      6F6E6669 
 1715      6700
 1716              	.LASF54:
 1717 0145 70776D70 		.ascii	"pwmp\000"
 1717      00
 1718              	.LASF20:
 1719 014a 534D4352 		.ascii	"SMCR\000"
 1719      00
 1720              	.LASF31:
 1721 014f 50574D5F 		.ascii	"PWM_UNINIT\000"
 1721      554E494E 
 1721      495400
 1722              	.LASF2:
 1723 015a 756E7369 		.ascii	"unsigned char\000"
 1723      676E6564 
 1723      20636861 
 1723      7200
 1724              	.LASF63:
 1725 0168 70776D5F 		.ascii	"pwm_lld_enable_channel\000"
 1725      6C6C645F 
 1725      656E6162 
 1725      6C655F63 
 1725      68616E6E 
 1726              	.LASF66:
 1727 017f 443A5C44 		.ascii	"D:\\Dani\\MegaLux\\Repo\\Smarty\\Smarty\\smarty\\fi"
 1727      616E695C 
 1727      4D656761 
 1727      4C75785C 
 1727      5265706F 
 1728 01ab 726D7761 		.ascii	"rmware\000"
 1728      726500
 1729              	.LASF60:
 1730 01b2 70776D44 		.ascii	"pwmDisableChannel\000"
 1730      69736162 
 1730      6C654368 
 1730      616E6E65 
 1730      6C00
 1731              	.LASF1:
 1732 01c4 7369676E 		.ascii	"signed char\000"
 1732      65642063 
 1732      68617200 
 1733              	.LASF12:
 1734 01d0 6C6F6E67 		.ascii	"long long unsigned int\000"
 1734      206C6F6E 
 1734      6720756E 
 1734      7369676E 
ARM GAS  C:\Users\danit\AppData\Local\Temp\ccx2tz3j.s 			page 33


 1734      65642069 
 1735              	.LASF64:
 1736 01e7 474E5520 		.ascii	"GNU C 4.9.3 20150529 (release) [ARM/embedded-4_9-br"
 1736      4320342E 
 1736      392E3320 
 1736      32303135 
 1736      30353239 
 1737 021a 616E6368 		.ascii	"anch revision 224288] -mcpu=cortex-m4 -mno-thumb-in"
 1737      20726576 
 1737      6973696F 
 1737      6E203232 
 1737      34323838 
 1738 024d 74657277 		.ascii	"terwork -mthumb -ggdb -O2 -fomit-frame-pointer -fal"
 1738      6F726B20 
 1738      2D6D7468 
 1738      756D6220 
 1738      2D676764 
 1739 0280 69676E2D 		.ascii	"ign-functions=16 -ffunction-sections -fdata-section"
 1739      66756E63 
 1739      74696F6E 
 1739      733D3136 
 1739      202D6666 
 1740 02b3 73202D66 		.ascii	"s -fno-common\000"
 1740      6E6F2D63 
 1740      6F6D6D6F 
 1740      6E00
 1741              	.LASF16:
 1742 02c1 75696E74 		.ascii	"uint32_t\000"
 1742      33325F74 
 1742      00
 1743              	.LASF0:
 1744 02ca 756E7369 		.ascii	"unsigned int\000"
 1744      676E6564 
 1744      20696E74 
 1744      00
 1745              	.LASF14:
 1746 02d7 75696E74 		.ascii	"uint16_t\000"
 1746      31365F74 
 1746      00
 1747              	.LASF25:
 1748 02e0 42445452 		.ascii	"BDTR\000"
 1748      00
 1749              	.LASF21:
 1750 02e5 44494552 		.ascii	"DIER\000"
 1750      00
 1751              	.LASF6:
 1752 02ea 73686F72 		.ascii	"short unsigned int\000"
 1752      7420756E 
 1752      7369676E 
 1752      65642069 
 1752      6E7400
 1753              	.LASF68:
 1754 02fd 70776D5F 		.ascii	"pwm_lld_init\000"
 1754      6C6C645F 
 1754      696E6974 
 1754      00
 1755              	.LASF19:
ARM GAS  C:\Users\danit\AppData\Local\Temp\ccx2tz3j.s 			page 34


 1756 030a 63686172 		.ascii	"char\000"
 1756      00
 1757              	.LASF30:
 1758 030f 73746D33 		.ascii	"stm32_tim_t\000"
 1758      325F7469 
 1758      6D5F7400 
 1759              	.LASF35:
 1760 031b 50574D44 		.ascii	"PWMDriver\000"
 1760      72697665 
 1760      7200
 1761              	.LASF15:
 1762 0325 696E7433 		.ascii	"int32_t\000"
 1762      325F7400 
 1763              	.LASF17:
 1764 032d 5F426F6F 		.ascii	"_Bool\000"
 1764      6C00
 1765              	.LASF58:
 1766 0333 6368616E 		.ascii	"channel\000"
 1766      6E656C00 
 1767              	.LASF56:
 1768 033b 70776D43 		.ascii	"pwmChangePeriod\000"
 1768      68616E67 
 1768      65506572 
 1768      696F6400 
 1769              	.LASF10:
 1770 034b 6C6F6E67 		.ascii	"long unsigned int\000"
 1770      20756E73 
 1770      69676E65 
 1770      6420696E 
 1770      7400
 1771              	.LASF39:
 1772 035d 636C6F63 		.ascii	"clock\000"
 1772      6B00
 1773              	.LASF7:
 1774 0363 5F5F696E 		.ascii	"__int32_t\000"
 1774      7433325F 
 1774      7400
 1775              	.LASF33:
 1776 036d 50574D5F 		.ascii	"PWM_READY\000"
 1776      52454144 
 1776      5900
 1777              	.LASF32:
 1778 0377 50574D5F 		.ascii	"PWM_STOP\000"
 1778      53544F50 
 1778      00
 1779              	.LASF49:
 1780 0380 64696572 		.ascii	"dier\000"
 1780      00
 1781              	.LASF55:
 1782 0385 70776D53 		.ascii	"pwmStop\000"
 1782      746F7000 
 1783              	.LASF47:
 1784 038d 66726571 		.ascii	"frequency\000"
 1784      75656E63 
 1784      7900
 1785              	.LASF46:
 1786 0397 50574D43 		.ascii	"PWMChannelConfig\000"
ARM GAS  C:\Users\danit\AppData\Local\Temp\ccx2tz3j.s 			page 35


 1786      68616E6E 
 1786      656C436F 
 1786      6E666967 
 1786      00
 1787              	.LASF41:
 1788 03a8 70776D6D 		.ascii	"pwmmode_t\000"
 1788      6F64655F 
 1788      7400
 1789              	.LASF67:
 1790 03b2 49544D5F 		.ascii	"ITM_RxBuffer\000"
 1790      52784275 
 1790      66666572 
 1790      00
 1791              	.LASF34:
 1792 03bf 70776D73 		.ascii	"pwmstate_t\000"
 1792      74617465 
 1792      5F7400
 1793              	.LASF40:
 1794 03ca 70776D63 		.ascii	"pwmcallback_t\000"
 1794      616C6C62 
 1794      61636B5F 
 1794      7400
 1795              	.LASF45:
 1796 03d8 63616C6C 		.ascii	"callback\000"
 1796      6261636B 
 1796      00
 1797              		.ident	"GCC: (GNU Tools for ARM Embedded Processors) 4.9.3 20150529 (release) [ARM/embedded-4_9-br
ARM GAS  C:\Users\danit\AppData\Local\Temp\ccx2tz3j.s 			page 36


DEFINED SYMBOLS
                            *ABS*:00000000 pwm.c
C:\Users\danit\AppData\Local\Temp\ccx2tz3j.s:19     .text.pwmInit:00000000 $t
C:\Users\danit\AppData\Local\Temp\ccx2tz3j.s:25     .text.pwmInit:00000000 pwmInit
C:\Users\danit\AppData\Local\Temp\ccx2tz3j.s:40     .text.pwmObjectInit:00000000 $t
C:\Users\danit\AppData\Local\Temp\ccx2tz3j.s:46     .text.pwmObjectInit:00000000 pwmObjectInit
C:\Users\danit\AppData\Local\Temp\ccx2tz3j.s:67     .text.pwmStart:00000000 $t
C:\Users\danit\AppData\Local\Temp\ccx2tz3j.s:73     .text.pwmStart:00000000 pwmStart
C:\Users\danit\AppData\Local\Temp\ccx2tz3j.s:121    .text.pwmStop:00000000 $t
C:\Users\danit\AppData\Local\Temp\ccx2tz3j.s:127    .text.pwmStop:00000000 pwmStop
C:\Users\danit\AppData\Local\Temp\ccx2tz3j.s:170    .text.pwmChangePeriod:00000000 $t
C:\Users\danit\AppData\Local\Temp\ccx2tz3j.s:176    .text.pwmChangePeriod:00000000 pwmChangePeriod
C:\Users\danit\AppData\Local\Temp\ccx2tz3j.s:211    .text.pwmEnableChannel:00000000 $t
C:\Users\danit\AppData\Local\Temp\ccx2tz3j.s:217    .text.pwmEnableChannel:00000000 pwmEnableChannel
C:\Users\danit\AppData\Local\Temp\ccx2tz3j.s:252    .text.pwmDisableChannel:00000000 $t
C:\Users\danit\AppData\Local\Temp\ccx2tz3j.s:258    .text.pwmDisableChannel:00000000 pwmDisableChannel
                     .debug_frame:00000010 $d

UNDEFINED SYMBOLS
pwm_lld_init
pwm_lld_start
pwm_lld_stop
pwm_lld_enable_channel
pwm_lld_disable_channel
