ARM GAS  C:\Users\DNIEL~1\AppData\Local\Temp\ccON3PQQ.s 			page 1


   1              		.syntax unified
   2              		.cpu cortex-m4
   3              		.fpu softvfp
   4              		.eabi_attribute 20, 1
   5              		.eabi_attribute 21, 1
   6              		.eabi_attribute 23, 3
   7              		.eabi_attribute 24, 1
   8              		.eabi_attribute 25, 1
   9              		.eabi_attribute 26, 1
  10              		.eabi_attribute 30, 2
  11              		.eabi_attribute 18, 4
  12              		.thumb
  13              		.file	"sdc.c"
  14              		.section	.debug_abbrev,"",%progbits
  15              	.Ldebug_abbrev0:
  16              		.section	.debug_info,"",%progbits
  17              	.Ldebug_info0:
  18              		.section	.debug_line,"",%progbits
  19              	.Ldebug_line0:
  20 0000 2C040000 		.text
  20      02003C02 
  20      00000201 
  20      FB0E0D00 
  20      01010101 
  21              	.Ltext0:
  22              		.cfi_sections	.debug_frame
  23              		.section	.text.sdcGetInfo,"ax",%progbits
  24              		.align	2
  25              		.p2align 4,,15
  26              		.global	sdcGetInfo
  27              		.thumb
  28              		.thumb_func
  29              		.type	sdcGetInfo, %function
  30              	sdcGetInfo:
  31              	.LFB129:
  32              		.file 1 "../../../ChibiOS/os/hal/src/sdc.c"
  33              		.loc 1 512 0
  34              		.cfi_startproc
  35              		@ args = 0, pretend = 0, frame = 0
  36              		@ frame_needed = 0, uses_anonymous_args = 0
  37              		@ link register save eliminated.
  38              	.LVL0:
  39              		.loc 1 516 0
  40 0000 0379     		ldrb	r3, [r0, #4]	@ zero_extendqisi2
  41 0002 052B     		cmp	r3, #5
  42 0004 01D0     		beq	.L5
  43              		.loc 1 517 0
  44 0006 0120     		movs	r0, #1
  45              	.LVL1:
  46              		.loc 1 523 0
  47 0008 7047     		bx	lr
  48              	.LVL2:
  49              	.L5:
  50              		.loc 1 519 0
  51 000a 826A     		ldr	r2, [r0, #40]
  52              		.loc 1 520 0
  53 000c 4FF40070 		mov	r0, #512
ARM GAS  C:\Users\DNIEL~1\AppData\Local\Temp\ccON3PQQ.s 			page 2


  54              	.LVL3:
  55 0010 0860     		str	r0, [r1, #0]
  56              		.loc 1 519 0
  57 0012 4A60     		str	r2, [r1, #4]
  58              		.loc 1 522 0
  59 0014 0020     		movs	r0, #0
  60 0016 7047     		bx	lr
  61              		.cfi_endproc
  62              	.LFE129:
  63              		.size	sdcGetInfo, .-sdcGetInfo
  64 0018 AFF30080 		.section	.text.sdcSync,"ax",%progbits
  64      AFF30080 
  65              		.align	2
  66              		.p2align 4,,15
  67              		.global	sdcSync
  68              		.thumb
  69              		.thumb_func
  70              		.type	sdcSync, %function
  71              	sdcSync:
  72              	.LFB128:
  73              		.loc 1 482 0
  74              		.cfi_startproc
  75              		@ args = 0, pretend = 0, frame = 0
  76              		@ frame_needed = 0, uses_anonymous_args = 0
  77              	.LVL4:
  78 0000 38B5     		push	{r3, r4, r5, lr}
  79              	.LCFI0:
  80              		.cfi_def_cfa_offset 16
  81              		.loc 1 487 0
  82 0002 0579     		ldrb	r5, [r0, #4]	@ zero_extendqisi2
  83              		.cfi_offset 14, -4
  84              		.cfi_offset 5, -8
  85              		.cfi_offset 4, -12
  86              		.cfi_offset 3, -16
  87 0004 052D     		cmp	r5, #5
  88              		.loc 1 482 0
  89 0006 0446     		mov	r4, r0
  90              		.loc 1 487 0
  91 0008 01D0     		beq	.L9
  92              		.loc 1 488 0
  93 000a 0120     		movs	r0, #1
  94              	.LVL5:
  95              		.loc 1 498 0
  96 000c 38BD     		pop	{r3, r4, r5, pc}
  97              	.L9:
  98              		.loc 1 491 0
  99 000e 0823     		movs	r3, #8
 100 0010 0371     		strb	r3, [r0, #4]
 101              		.loc 1 493 0
 102 0012 FFF7FEFF 		bl	sdc_lld_sync
 103              	.LVL6:
 104              		.loc 1 496 0
 105 0016 2571     		strb	r5, [r4, #4]
 106              		.loc 1 497 0
 107 0018 38BD     		pop	{r3, r4, r5, pc}
 108              		.cfi_endproc
 109              	.LFE128:
ARM GAS  C:\Users\DNIEL~1\AppData\Local\Temp\ccON3PQQ.s 			page 3


 110              		.size	sdcSync, .-sdcSync
 111 001a 00BFAFF3 		.section	.text.sdcWrite,"ax",%progbits
 111      0080
 112              		.align	2
 113              		.p2align 4,,15
 114              		.global	sdcWrite
 115              		.thumb
 116              		.thumb_func
 117              		.type	sdcWrite, %function
 118              	sdcWrite:
 119              	.LFB126:
 120              		.loc 1 428 0
 121              		.cfi_startproc
 122              		@ args = 0, pretend = 0, frame = 0
 123              		@ frame_needed = 0, uses_anonymous_args = 0
 124              	.LVL7:
 125 0000 70B5     		push	{r4, r5, r6, lr}
 126              	.LCFI1:
 127              		.cfi_def_cfa_offset 16
 128              		.loc 1 434 0
 129 0002 4E1E     		subs	r6, r1, #1
 130              		.cfi_offset 14, -4
 131              		.cfi_offset 6, -8
 132              		.cfi_offset 5, -12
 133              		.cfi_offset 4, -16
 134 0004 856A     		ldr	r5, [r0, #40]
 135 0006 F618     		adds	r6, r6, r3
 136 0008 AE42     		cmp	r6, r5
 137              		.loc 1 428 0
 138 000a 0446     		mov	r4, r0
 139              		.loc 1 434 0
 140 000c 05D9     		bls	.L11
 141              		.loc 1 435 0
 142 000e 416B     		ldr	r1, [r0, #52]
 143              	.LVL8:
 144 0010 41F08003 		orr	r3, r1, #128
 145              	.LVL9:
 146 0014 4363     		str	r3, [r0, #52]
 147              		.loc 1 436 0
 148 0016 0120     		movs	r0, #1
 149              	.LVL10:
 150 0018 70BD     		pop	{r4, r5, r6, pc}
 151              	.LVL11:
 152              	.L11:
 153              		.loc 1 440 0
 154 001a 0725     		movs	r5, #7
 155 001c 0571     		strb	r5, [r0, #4]
 156              		.loc 1 442 0
 157 001e FFF7FEFF 		bl	sdc_lld_write
 158              	.LVL12:
 159              		.loc 1 445 0
 160 0022 0522     		movs	r2, #5
 161 0024 2271     		strb	r2, [r4, #4]
 162              		.loc 1 447 0
 163 0026 70BD     		pop	{r4, r5, r6, pc}
 164              		.cfi_endproc
 165              	.LFE126:
ARM GAS  C:\Users\DNIEL~1\AppData\Local\Temp\ccON3PQQ.s 			page 4


 166              		.size	sdcWrite, .-sdcWrite
 167 0028 AFF30080 		.section	.text.sdcRead,"ax",%progbits
 167      AFF30080 
 168              		.align	2
 169              		.p2align 4,,15
 170              		.global	sdcRead
 171              		.thumb
 172              		.thumb_func
 173              		.type	sdcRead, %function
 174              	sdcRead:
 175              	.LFB125:
 176              		.loc 1 390 0
 177              		.cfi_startproc
 178              		@ args = 0, pretend = 0, frame = 0
 179              		@ frame_needed = 0, uses_anonymous_args = 0
 180              	.LVL13:
 181 0000 70B5     		push	{r4, r5, r6, lr}
 182              	.LCFI2:
 183              		.cfi_def_cfa_offset 16
 184              		.loc 1 396 0
 185 0002 4E1E     		subs	r6, r1, #1
 186              		.cfi_offset 14, -4
 187              		.cfi_offset 6, -8
 188              		.cfi_offset 5, -12
 189              		.cfi_offset 4, -16
 190 0004 856A     		ldr	r5, [r0, #40]
 191 0006 F618     		adds	r6, r6, r3
 192 0008 AE42     		cmp	r6, r5
 193              		.loc 1 390 0
 194 000a 0446     		mov	r4, r0
 195              		.loc 1 396 0
 196 000c 05D9     		bls	.L14
 197              		.loc 1 397 0
 198 000e 416B     		ldr	r1, [r0, #52]
 199              	.LVL14:
 200 0010 41F08003 		orr	r3, r1, #128
 201              	.LVL15:
 202 0014 4363     		str	r3, [r0, #52]
 203              		.loc 1 398 0
 204 0016 0120     		movs	r0, #1
 205              	.LVL16:
 206 0018 70BD     		pop	{r4, r5, r6, pc}
 207              	.LVL17:
 208              	.L14:
 209              		.loc 1 402 0
 210 001a 0625     		movs	r5, #6
 211 001c 0571     		strb	r5, [r0, #4]
 212              		.loc 1 404 0
 213 001e FFF7FEFF 		bl	sdc_lld_read
 214              	.LVL18:
 215              		.loc 1 407 0
 216 0022 0522     		movs	r2, #5
 217 0024 2271     		strb	r2, [r4, #4]
 218              		.loc 1 409 0
 219 0026 70BD     		pop	{r4, r5, r6, pc}
 220              		.cfi_endproc
 221              	.LFE125:
ARM GAS  C:\Users\DNIEL~1\AppData\Local\Temp\ccON3PQQ.s 			page 5


 222              		.size	sdcRead, .-sdcRead
 223 0028 AFF30080 		.section	.text.sdcConnect,"ax",%progbits
 223      AFF30080 
 224              		.align	2
 225              		.p2align 4,,15
 226              		.global	sdcConnect
 227              		.thumb
 228              		.thumb_func
 229              		.type	sdcConnect, %function
 230              	sdcConnect:
 231              	.LFB123:
 232              		.loc 1 198 0
 233              		.cfi_startproc
 234              		@ args = 0, pretend = 0, frame = 8
 235              		@ frame_needed = 0, uses_anonymous_args = 0
 236              	.LVL19:
 237 0000 F0B5     		push	{r4, r5, r6, r7, lr}
 238              	.LCFI3:
 239              		.cfi_def_cfa_offset 20
 240              		.loc 1 206 0
 241 0002 0323     		movs	r3, #3
 242              		.loc 1 198 0
 243 0004 83B0     		sub	sp, sp, #12
 244              	.LCFI4:
 245              		.cfi_def_cfa_offset 32
 246              		.loc 1 206 0
 247 0006 0371     		strb	r3, [r0, #4]
 248              		.loc 1 198 0
 249 0008 0446     		mov	r4, r0
 250              		.cfi_offset 14, -4
 251              		.cfi_offset 7, -8
 252              		.cfi_offset 6, -12
 253              		.cfi_offset 5, -16
 254              		.cfi_offset 4, -20
 255              		.loc 1 209 0
 256 000a FFF7FEFF 		bl	sdc_lld_start_clk
 257              	.LVL20:
 258              		.loc 1 212 0
 259 000e 0021     		movs	r1, #0
 260 0010 0A46     		mov	r2, r1
 261 0012 2046     		mov	r0, r4
 262 0014 FFF7FEFF 		bl	sdc_lld_send_cmd_none
 263              		.loc 1 215 0
 264 0018 4FF4D572 		mov	r2, #426
 265 001c 2046     		mov	r0, r4
 266 001e 0821     		movs	r1, #8
 267 0020 01AB     		add	r3, sp, #4
 268 0022 FFF7FEFF 		bl	sdc_lld_send_cmd_short_crc
 269 0026 0246     		mov	r2, r0
 270 0028 70B9     		cbnz	r0, .L17
 271              		.loc 1 219 0
 272 002a 019B     		ldr	r3, [sp, #4]
 273              		.loc 1 217 0
 274 002c 0121     		movs	r1, #1
 275              		.loc 1 219 0
 276 002e C3F30320 		ubfx	r0, r3, #8, #4
 277 0032 8842     		cmp	r0, r1
ARM GAS  C:\Users\DNIEL~1\AppData\Local\Temp\ccON3PQQ.s 			page 6


 278              		.loc 1 217 0
 279 0034 2163     		str	r1, [r4, #48]
 280              		.loc 1 219 0
 281 0036 7BD0     		beq	.L34
 282              	.L18:
 283              		.loc 1 330 0
 284 0038 2046     		mov	r0, r4
 285 003a FFF7FEFF 		bl	sdc_lld_stop_clk
 286              		.loc 1 331 0
 287 003e 0220     		movs	r0, #2
 288 0040 2071     		strb	r0, [r4, #4]
 289              		.loc 1 332 0
 290 0042 0120     		movs	r0, #1
 291              	.L26:
 292              		.loc 1 333 0
 293 0044 03B0     		add	sp, sp, #12
 294 0046 F0BD     		pop	{r4, r5, r6, r7, pc}
 295              	.L17:
 296              		.loc 1 234 0
 297 0048 0025     		movs	r5, #0
 298              		.loc 1 237 0
 299 004a 2946     		mov	r1, r5
 300              		.loc 1 234 0
 301 004c 2563     		str	r5, [r4, #48]
 302              		.loc 1 237 0
 303 004e 2046     		mov	r0, r4
 304 0050 2A46     		mov	r2, r5
 305 0052 FFF7FEFF 		bl	sdc_lld_send_cmd_none
 306              	.L19:
 307              	.LBB2:
 308              		.loc 1 253 0
 309 0056 216B     		ldr	r1, [r4, #48]
 310              		.loc 1 254 0
 311 0058 794B     		ldr	r3, .L36
 312 005a 7A4A     		ldr	r2, .L36+4
 313              		.loc 1 253 0
 314 005c 01F00F06 		and	r6, r1, #15
 315              		.loc 1 254 0
 316 0060 012E     		cmp	r6, #1
 317 0062 14BF     		ite	ne
 318 0064 1546     		movne	r5, r2
 319 0066 1D46     		moveq	r5, r3
 320              	.LVL21:
 321              		.loc 1 261 0
 322 0068 2046     		mov	r0, r4
 323 006a 3721     		movs	r1, #55
 324 006c 0022     		movs	r2, #0
 325 006e 01AB     		add	r3, sp, #4
 326              		.loc 1 259 0
 327 0070 0026     		movs	r6, #0
 328              	.LVL22:
 329              		.loc 1 261 0
 330 0072 FFF7FEFF 		bl	sdc_lld_send_cmd_short_crc
 331              	.LVL23:
 332 0076 0028     		cmp	r0, #0
 333 0078 DED1     		bne	.L18
 334              	.L35:
ARM GAS  C:\Users\DNIEL~1\AppData\Local\Temp\ccON3PQQ.s 			page 7


 335              		.loc 1 262 0 discriminator 1
 336 007a 734B     		ldr	r3, .L36+8
 337 007c 019A     		ldr	r2, [sp, #4]
 338 007e 02EA0300 		and	r0, r2, r3
 339              		.loc 1 261 0 discriminator 1
 340 0082 0028     		cmp	r0, #0
 341 0084 D8D1     		bne	.L18
 342              		.loc 1 264 0
 343 0086 2046     		mov	r0, r4
 344 0088 2921     		movs	r1, #41
 345 008a 2A46     		mov	r2, r5
 346 008c 01AB     		add	r3, sp, #4
 347 008e FFF7FEFF 		bl	sdc_lld_send_cmd_short
 348 0092 0746     		mov	r7, r0
 349 0094 0028     		cmp	r0, #0
 350 0096 CFD1     		bne	.L18
 351              		.loc 1 266 0
 352 0098 019B     		ldr	r3, [sp, #4]
 353 009a 002B     		cmp	r3, #0
 354 009c 58DB     		blt	.L33
 355              		.loc 1 271 0
 356 009e 0136     		adds	r6, r6, #1
 357              	.LVL24:
 358 00a0 642E     		cmp	r6, #100
 359 00a2 C9D0     		beq	.L18
 360              		.loc 1 273 0
 361 00a4 0A20     		movs	r0, #10
 362 00a6 FFF7FEFF 		bl	chThdSleep
 363              		.loc 1 261 0
 364 00aa 2046     		mov	r0, r4
 365 00ac 3721     		movs	r1, #55
 366 00ae 3A46     		mov	r2, r7
 367 00b0 01AB     		add	r3, sp, #4
 368 00b2 FFF7FEFF 		bl	sdc_lld_send_cmd_short_crc
 369 00b6 0028     		cmp	r0, #0
 370 00b8 BED1     		bne	.L18
 371              		.loc 1 262 0
 372 00ba 6349     		ldr	r1, .L36+8
 373 00bc 019A     		ldr	r2, [sp, #4]
 374 00be 02EA0103 		and	r3, r2, r1
 375              		.loc 1 261 0
 376 00c2 002B     		cmp	r3, #0
 377 00c4 B8D1     		bne	.L18
 378              		.loc 1 264 0
 379 00c6 2046     		mov	r0, r4
 380 00c8 2921     		movs	r1, #41
 381 00ca 2A46     		mov	r2, r5
 382 00cc 01AB     		add	r3, sp, #4
 383 00ce FFF7FEFF 		bl	sdc_lld_send_cmd_short
 384 00d2 0746     		mov	r7, r0
 385 00d4 0028     		cmp	r0, #0
 386 00d6 AFD1     		bne	.L18
 387              		.loc 1 266 0
 388 00d8 019B     		ldr	r3, [sp, #4]
 389 00da 002B     		cmp	r3, #0
 390 00dc 38DB     		blt	.L33
 391              		.loc 1 273 0
ARM GAS  C:\Users\DNIEL~1\AppData\Local\Temp\ccON3PQQ.s 			page 8


 392 00de 0A20     		movs	r0, #10
 393 00e0 FFF7FEFF 		bl	chThdSleep
 394              		.loc 1 261 0
 395 00e4 2046     		mov	r0, r4
 396 00e6 3721     		movs	r1, #55
 397 00e8 3A46     		mov	r2, r7
 398 00ea 01AB     		add	r3, sp, #4
 399 00ec FFF7FEFF 		bl	sdc_lld_send_cmd_short_crc
 400 00f0 0028     		cmp	r0, #0
 401 00f2 A1D1     		bne	.L18
 402              		.loc 1 262 0
 403 00f4 544B     		ldr	r3, .L36+8
 404 00f6 0199     		ldr	r1, [sp, #4]
 405 00f8 01EA0300 		and	r0, r1, r3
 406              		.loc 1 261 0
 407 00fc 0028     		cmp	r0, #0
 408 00fe 9BD1     		bne	.L18
 409              		.loc 1 264 0
 410 0100 2046     		mov	r0, r4
 411 0102 2921     		movs	r1, #41
 412 0104 2A46     		mov	r2, r5
 413 0106 01AB     		add	r3, sp, #4
 414 0108 FFF7FEFF 		bl	sdc_lld_send_cmd_short
 415 010c 0028     		cmp	r0, #0
 416 010e 93D1     		bne	.L18
 417              		.loc 1 266 0
 418 0110 019B     		ldr	r3, [sp, #4]
 419 0112 002B     		cmp	r3, #0
 420 0114 1CDB     		blt	.L33
 421              		.loc 1 273 0
 422 0116 0A20     		movs	r0, #10
 423 0118 FFF7FEFF 		bl	chThdSleep
 424              		.loc 1 261 0
 425 011c 2046     		mov	r0, r4
 426 011e 3721     		movs	r1, #55
 427 0120 0022     		movs	r2, #0
 428 0122 01AB     		add	r3, sp, #4
 429              		.loc 1 271 0
 430 0124 0236     		adds	r6, r6, #2
 431              	.LVL25:
 432              		.loc 1 261 0
 433 0126 FFF7FEFF 		bl	sdc_lld_send_cmd_short_crc
 434 012a 0028     		cmp	r0, #0
 435 012c A5D0     		beq	.L35
 436 012e 83E7     		b	.L18
 437              	.LVL26:
 438              	.L34:
 439              	.LBE2:
 440              		.loc 1 221 0
 441 0130 2046     		mov	r0, r4
 442 0132 3721     		movs	r1, #55
 443 0134 01AB     		add	r3, sp, #4
 444 0136 FFF7FEFF 		bl	sdc_lld_send_cmd_short_crc
 445 013a 0028     		cmp	r0, #0
 446 013c 7FF47CAF 		bne	.L18
 447              		.loc 1 222 0 discriminator 1
 448 0140 4149     		ldr	r1, .L36+8
ARM GAS  C:\Users\DNIEL~1\AppData\Local\Temp\ccON3PQQ.s 			page 9


 449 0142 0198     		ldr	r0, [sp, #4]
 450 0144 00EA0102 		and	r2, r0, r1
 451              		.loc 1 221 0 discriminator 1
 452 0148 002A     		cmp	r2, #0
 453 014a 7FF475AF 		bne	.L18
 454 014e 82E7     		b	.L19
 455              	.LVL27:
 456              	.L33:
 457              	.LBB3:
 458              		.loc 1 267 0
 459 0150 13F0804F 		tst	r3, #1073741824
 460 0154 03D0     		beq	.L22
 461              		.loc 1 268 0
 462 0156 206B     		ldr	r0, [r4, #48]
 463 0158 40F01001 		orr	r1, r0, #16
 464 015c 2163     		str	r1, [r4, #48]
 465              	.L22:
 466              	.LBE3:
 467              		.loc 1 278 0
 468 015e 0022     		movs	r2, #0
 469 0160 2046     		mov	r0, r4
 470 0162 0221     		movs	r1, #2
 471 0164 04F10803 		add	r3, r4, #8
 472 0168 FFF7FEFF 		bl	sdc_lld_send_cmd_long_crc
 473 016c 0246     		mov	r2, r0
 474 016e 0028     		cmp	r0, #0
 475 0170 7FF462AF 		bne	.L18
 476              		.loc 1 282 0
 477 0174 2046     		mov	r0, r4
 478 0176 0321     		movs	r1, #3
 479 0178 04F13803 		add	r3, r4, #56
 480 017c FFF7FEFF 		bl	sdc_lld_send_cmd_short_crc
 481 0180 0028     		cmp	r0, #0
 482 0182 7FF459AF 		bne	.L18
 483              		.loc 1 287 0
 484 0186 04F11805 		add	r5, r4, #24
 485              	.LVL28:
 486 018a 2046     		mov	r0, r4
 487 018c 0921     		movs	r1, #9
 488 018e A26B     		ldr	r2, [r4, #56]
 489 0190 2B46     		mov	r3, r5
 490 0192 FFF7FEFF 		bl	sdc_lld_send_cmd_long_crc
 491 0196 0028     		cmp	r0, #0
 492 0198 7FF44EAF 		bne	.L18
 493              		.loc 1 292 0
 494 019c 2046     		mov	r0, r4
 495 019e FFF7FEFF 		bl	sdc_lld_set_data_clk
 496              		.loc 1 295 0
 497 01a2 2046     		mov	r0, r4
 498 01a4 0721     		movs	r1, #7
 499 01a6 A26B     		ldr	r2, [r4, #56]
 500 01a8 01AB     		add	r3, sp, #4
 501 01aa FFF7FEFF 		bl	sdc_lld_send_cmd_short_crc
 502 01ae 0028     		cmp	r0, #0
 503 01b0 7FF442AF 		bne	.L18
 504              		.loc 1 300 0
 505 01b4 2046     		mov	r0, r4
ARM GAS  C:\Users\DNIEL~1\AppData\Local\Temp\ccON3PQQ.s 			page 10


 506 01b6 1021     		movs	r1, #16
 507 01b8 4FF40072 		mov	r2, #512
 508 01bc 01AB     		add	r3, sp, #4
 509 01be FFF7FEFF 		bl	sdc_lld_send_cmd_short_crc
 510 01c2 0028     		cmp	r0, #0
 511 01c4 7FF438AF 		bne	.L18
 512              		.loc 1 302 0
 513 01c8 1F49     		ldr	r1, .L36+8
 514 01ca 019A     		ldr	r2, [sp, #4]
 515 01cc 02EA0103 		and	r3, r2, r1
 516              		.loc 1 301 0
 517 01d0 002B     		cmp	r3, #0
 518 01d2 7FF431AF 		bne	.L18
 519              		.loc 1 306 0
 520 01d6 206B     		ldr	r0, [r4, #48]
 521 01d8 00F00F0C 		and	ip, r0, #15
 522 01dc BCF1010F 		cmp	ip, #1
 523 01e0 23D8     		bhi	.L24
 524              		.loc 1 309 0
 525 01e2 0121     		movs	r1, #1
 526 01e4 2046     		mov	r0, r4
 527 01e6 FFF7FEFF 		bl	sdc_lld_set_bus_mode
 528              		.loc 1 310 0
 529 01ea 2046     		mov	r0, r4
 530 01ec 3721     		movs	r1, #55
 531 01ee A26B     		ldr	r2, [r4, #56]
 532 01f0 01AB     		add	r3, sp, #4
 533 01f2 FFF7FEFF 		bl	sdc_lld_send_cmd_short_crc
 534 01f6 0028     		cmp	r0, #0
 535 01f8 7FF41EAF 		bne	.L18
 536              		.loc 1 311 0 discriminator 1
 537 01fc 1249     		ldr	r1, .L36+8
 538 01fe 019A     		ldr	r2, [sp, #4]
 539 0200 02EA0103 		and	r3, r2, r1
 540              		.loc 1 310 0 discriminator 1
 541 0204 002B     		cmp	r3, #0
 542 0206 7FF417AF 		bne	.L18
 543              		.loc 1 313 0
 544 020a 2046     		mov	r0, r4
 545 020c 0621     		movs	r1, #6
 546 020e 0222     		movs	r2, #2
 547 0210 01AB     		add	r3, sp, #4
 548 0212 FFF7FEFF 		bl	sdc_lld_send_cmd_short_crc
 549 0216 0028     		cmp	r0, #0
 550 0218 7FF40EAF 		bne	.L18
 551              		.loc 1 314 0 discriminator 1
 552 021c 0A4B     		ldr	r3, .L36+8
 553 021e 0199     		ldr	r1, [sp, #4]
 554 0220 01EA0300 		and	r0, r1, r3
 555              		.loc 1 313 0 discriminator 1
 556 0224 0028     		cmp	r0, #0
 557 0226 7FF407AF 		bne	.L18
 558              	.L24:
 559              		.loc 1 320 0
 560 022a 2846     		mov	r0, r5
 561 022c FFF7FEFF 		bl	mmcsdGetCapacity
 562 0230 A062     		str	r0, [r4, #40]
ARM GAS  C:\Users\DNIEL~1\AppData\Local\Temp\ccON3PQQ.s 			page 11


 563              		.loc 1 321 0
 564 0232 0028     		cmp	r0, #0
 565 0234 3FF400AF 		beq	.L18
 566              		.loc 1 325 0
 567 0238 0522     		movs	r2, #5
 568 023a 2271     		strb	r2, [r4, #4]
 569              		.loc 1 326 0
 570 023c 0020     		movs	r0, #0
 571 023e 01E7     		b	.L26
 572              	.L37:
 573              		.align	2
 574              	.L36:
 575 0240 000010C0 		.word	-1072693248
 576 0244 00001080 		.word	-2146435072
 577 0248 08E0FFFD 		.word	-33562616
 578              		.cfi_endproc
 579              	.LFE123:
 580              		.size	sdcConnect, .-sdcConnect
 581 024c AFF30080 		.section	.text._sdc_wait_for_transfer_state,"ax",%progbits
 582              		.align	2
 583              		.p2align 4,,15
 584              		.global	_sdc_wait_for_transfer_state
 585              		.thumb
 586              		.thumb_func
 587              		.type	_sdc_wait_for_transfer_state, %function
 588              	_sdc_wait_for_transfer_state:
 589              	.LFB118:
 590              		.loc 1 82 0
 591              		.cfi_startproc
 592              		@ args = 0, pretend = 0, frame = 8
 593              		@ frame_needed = 0, uses_anonymous_args = 0
 594              	.LVL29:
 595 0000 10B5     		push	{r4, lr}
 596              	.LCFI5:
 597              		.cfi_def_cfa_offset 8
 598 0002 0446     		mov	r4, r0
 599              		.cfi_offset 14, -4
 600              		.cfi_offset 4, -8
 601 0004 82B0     		sub	sp, sp, #8
 602              	.LCFI6:
 603              		.cfi_def_cfa_offset 16
 604              	.LVL30:
 605              	.L42:
 606              		.loc 1 86 0
 607 0006 2046     		mov	r0, r4
 608 0008 0D21     		movs	r1, #13
 609 000a A26B     		ldr	r2, [r4, #56]
 610 000c 01AB     		add	r3, sp, #4
 611 000e FFF7FEFF 		bl	sdc_lld_send_cmd_short_crc
 612 0012 48B9     		cbnz	r0, .L45
 613              		.loc 1 88 0
 614 0014 019B     		ldr	r3, [sp, #4]
 615 0016 0948     		ldr	r0, .L48
 616 0018 03EA0000 		and	r0, r3, r0
 617              		.loc 1 87 0
 618 001c 20B9     		cbnz	r0, .L45
 619              		.loc 1 90 0
ARM GAS  C:\Users\DNIEL~1\AppData\Local\Temp\ccON3PQQ.s 			page 12


 620 001e C3F34323 		ubfx	r3, r3, #9, #4
 621 0022 042B     		cmp	r3, #4
 622 0024 01D0     		beq	.L39
 623 0026 02D2     		bcs	.L47
 624              	.L45:
 625              		.loc 1 103 0
 626 0028 0120     		movs	r0, #1
 627              	.L39:
 628              		.loc 1 108 0
 629 002a 02B0     		add	sp, sp, #8
 630 002c 10BD     		pop	{r4, pc}
 631              	.L47:
 632              		.loc 1 90 0
 633 002e 072B     		cmp	r3, #7
 634 0030 FAD8     		bhi	.L45
 635              		.loc 1 97 0
 636 0032 0120     		movs	r0, #1
 637 0034 FFF7FEFF 		bl	chThdSleep
 638              		.loc 1 105 0
 639 0038 E5E7     		b	.L42
 640              	.L49:
 641 003a 00BF     		.align	2
 642              	.L48:
 643 003c 08E0FFFD 		.word	-33562616
 644              		.cfi_endproc
 645              	.LFE118:
 646              		.size	_sdc_wait_for_transfer_state, .-_sdc_wait_for_transfer_state
 647              		.section	.text.sdcDisconnect,"ax",%progbits
 648              		.align	2
 649              		.p2align 4,,15
 650              		.global	sdcDisconnect
 651              		.thumb
 652              		.thumb_func
 653              		.type	sdcDisconnect, %function
 654              	sdcDisconnect:
 655              	.LFB124:
 656              		.loc 1 346 0
 657              		.cfi_startproc
 658              		@ args = 0, pretend = 0, frame = 0
 659              		@ frame_needed = 0, uses_anonymous_args = 0
 660              	.LVL31:
 661 0000 38B5     		push	{r3, r4, r5, lr}
 662              	.LCFI7:
 663              		.cfi_def_cfa_offset 16
 664              		.loc 1 346 0
 665 0002 0446     		mov	r4, r0
 666              		.cfi_offset 14, -4
 667              		.cfi_offset 5, -8
 668              		.cfi_offset 4, -12
 669              		.cfi_offset 3, -16
 670              	.LBB4:
 671              		.loc 1 350 0
 672 0004 2023     		movs	r3, #32
 673              	.LVL32:
 674              	@ 350 "../../../ChibiOS/os/hal/src/sdc.c" 1
 675 0006 83F31188 		msr     BASEPRI, r3
 676              	@ 0 "" 2
ARM GAS  C:\Users\DNIEL~1\AppData\Local\Temp\ccON3PQQ.s 			page 13


 677              	.LVL33:
 678              		.thumb
 679              	.LBE4:
 680              		.loc 1 353 0
 681 000a 0379     		ldrb	r3, [r0, #4]	@ zero_extendqisi2
 682              	.LVL34:
 683 000c 022B     		cmp	r3, #2
 684 000e 16D0     		beq	.L54
 685              		.loc 1 357 0
 686 0010 0421     		movs	r1, #4
 687 0012 0171     		strb	r1, [r0, #4]
 688              	.LBB5:
 689              		.loc 1 358 0
 690 0014 0023     		movs	r3, #0
 691              	.LVL35:
 692              	@ 358 "../../../ChibiOS/os/hal/src/sdc.c" 1
 693 0016 83F31188 		msr     BASEPRI, r3
 694              	@ 0 "" 2
 695              	.LVL36:
 696              		.thumb
 697              	.LBE5:
 698              		.loc 1 361 0
 699 001a FFF7FEFF 		bl	_sdc_wait_for_transfer_state
 700              	.LVL37:
 701 001e 0546     		mov	r5, r0
 702 0020 30B9     		cbnz	r0, .L55
 703              		.loc 1 368 0
 704 0022 2046     		mov	r0, r4
 705 0024 FFF7FEFF 		bl	sdc_lld_stop_clk
 706              		.loc 1 369 0
 707 0028 0222     		movs	r2, #2
 708 002a 2271     		strb	r2, [r4, #4]
 709              		.loc 1 370 0
 710 002c 2846     		mov	r0, r5
 711              		.loc 1 371 0
 712 002e 38BD     		pop	{r3, r4, r5, pc}
 713              	.L55:
 714              		.loc 1 362 0
 715 0030 2046     		mov	r0, r4
 716 0032 FFF7FEFF 		bl	sdc_lld_stop_clk
 717              		.loc 1 363 0
 718 0036 0220     		movs	r0, #2
 719 0038 2071     		strb	r0, [r4, #4]
 720              		.loc 1 364 0
 721 003a 0120     		movs	r0, #1
 722 003c 38BD     		pop	{r3, r4, r5, pc}
 723              	.L54:
 724              	.LBB6:
 725              		.loc 1 354 0
 726 003e 0023     		movs	r3, #0
 727              	.LVL38:
 728              	@ 354 "../../../ChibiOS/os/hal/src/sdc.c" 1
 729 0040 83F31188 		msr     BASEPRI, r3
 730              	@ 0 "" 2
 731              	.LVL39:
 732              		.thumb
 733              	.LBE6:
ARM GAS  C:\Users\DNIEL~1\AppData\Local\Temp\ccON3PQQ.s 			page 14


 734              		.loc 1 355 0
 735 0044 1846     		mov	r0, r3
 736 0046 38BD     		pop	{r3, r4, r5, pc}
 737              		.cfi_endproc
 738              	.LFE124:
 739              		.size	sdcDisconnect, .-sdcDisconnect
 740              		.section	.text.sdcInit,"ax",%progbits
 741              		.align	2
 742              		.p2align 4,,15
 743              		.global	sdcInit
 744              		.thumb
 745              		.thumb_func
 746              		.type	sdcInit, %function
 747              	sdcInit:
 748              	.LFB119:
 749              		.loc 1 121 0
 750              		.cfi_startproc
 751              		@ args = 0, pretend = 0, frame = 0
 752              		@ frame_needed = 0, uses_anonymous_args = 0
 753              		@ link register save eliminated.
 754              		.loc 1 124 0
 755              		.loc 1 123 0
 756 0000 FFF7FEBF 		b	sdc_lld_init
 757              		.cfi_endproc
 758              	.LFE119:
 759              		.size	sdcInit, .-sdcInit
 760 0004 AFF30080 		.section	.text.sdcObjectInit,"ax",%progbits
 760      AFF30080 
 760      AFF30080 
 761              		.align	2
 762              		.p2align 4,,15
 763              		.global	sdcObjectInit
 764              		.thumb
 765              		.thumb_func
 766              		.type	sdcObjectInit, %function
 767              	sdcObjectInit:
 768              	.LFB120:
 769              		.loc 1 133 0
 770              		.cfi_startproc
 771              		@ args = 0, pretend = 0, frame = 0
 772              		@ frame_needed = 0, uses_anonymous_args = 0
 773              		@ link register save eliminated.
 774              	.LVL40:
 775              		.loc 1 135 0
 776 0000 0449     		ldr	r1, .L58
 777              		.loc 1 137 0
 778 0002 0023     		movs	r3, #0
 779              		.loc 1 136 0
 780 0004 0122     		movs	r2, #1
 781              		.loc 1 135 0
 782 0006 0160     		str	r1, [r0, #0]
 783              		.loc 1 136 0
 784 0008 0271     		strb	r2, [r0, #4]
 785              		.loc 1 137 0
 786 000a 4363     		str	r3, [r0, #52]
 787              		.loc 1 138 0
 788 000c C362     		str	r3, [r0, #44]
ARM GAS  C:\Users\DNIEL~1\AppData\Local\Temp\ccON3PQQ.s 			page 15


 789              		.loc 1 139 0
 790 000e 8362     		str	r3, [r0, #40]
 791              		.loc 1 140 0
 792 0010 7047     		bx	lr
 793              	.L59:
 794 0012 00BF     		.align	2
 795              	.L58:
 796 0014 00000000 		.word	.LANCHOR0
 797              		.cfi_endproc
 798              	.LFE120:
 799              		.size	sdcObjectInit, .-sdcObjectInit
 800 0018 AFF30080 		.section	.text.sdcStart,"ax",%progbits
 800      AFF30080 
 801              		.align	2
 802              		.p2align 4,,15
 803              		.global	sdcStart
 804              		.thumb
 805              		.thumb_func
 806              		.type	sdcStart, %function
 807              	sdcStart:
 808              	.LFB121:
 809              		.loc 1 152 0
 810              		.cfi_startproc
 811              		@ args = 0, pretend = 0, frame = 0
 812              		@ frame_needed = 0, uses_anonymous_args = 0
 813              	.LVL41:
 814 0000 10B5     		push	{r4, lr}
 815              	.LCFI8:
 816              		.cfi_def_cfa_offset 8
 817              	.LBB7:
 818              		.loc 1 156 0
 819 0002 2023     		movs	r3, #32
 820              	.LVL42:
 821              	.LBE7:
 822              		.loc 1 152 0
 823 0004 0446     		mov	r4, r0
 824              		.cfi_offset 14, -4
 825              		.cfi_offset 4, -8
 826              	.LBB8:
 827              		.loc 1 156 0
 828              	@ 156 "../../../ChibiOS/os/hal/src/sdc.c" 1
 829 0006 83F31188 		msr     BASEPRI, r3
 830              	@ 0 "" 2
 831              	.LVL43:
 832              		.thumb
 833              	.LBE8:
 834              		.loc 1 159 0
 835 000a C162     		str	r1, [r0, #44]
 836              		.loc 1 160 0
 837 000c FFF7FEFF 		bl	sdc_lld_start
 838              	.LVL44:
 839              		.loc 1 161 0
 840 0010 0223     		movs	r3, #2
 841 0012 2371     		strb	r3, [r4, #4]
 842              	.LBB9:
 843              		.loc 1 162 0
 844 0014 0023     		movs	r3, #0
ARM GAS  C:\Users\DNIEL~1\AppData\Local\Temp\ccON3PQQ.s 			page 16


 845              	.LVL45:
 846              	@ 162 "../../../ChibiOS/os/hal/src/sdc.c" 1
 847 0016 83F31188 		msr     BASEPRI, r3
 848              	@ 0 "" 2
 849              	.LVL46:
 850              		.thumb
 851              	.LBE9:
 852              		.loc 1 163 0
 853 001a 10BD     		pop	{r4, pc}
 854              		.cfi_endproc
 855              	.LFE121:
 856              		.size	sdcStart, .-sdcStart
 857 001c AFF30080 		.section	.text.sdcStop,"ax",%progbits
 858              		.align	2
 859              		.p2align 4,,15
 860              		.global	sdcStop
 861              		.thumb
 862              		.thumb_func
 863              		.type	sdcStop, %function
 864              	sdcStop:
 865              	.LFB122:
 866              		.loc 1 172 0
 867              		.cfi_startproc
 868              		@ args = 0, pretend = 0, frame = 0
 869              		@ frame_needed = 0, uses_anonymous_args = 0
 870              	.LVL47:
 871 0000 10B5     		push	{r4, lr}
 872              	.LCFI9:
 873              		.cfi_def_cfa_offset 8
 874              	.LBB10:
 875              		.loc 1 176 0
 876 0002 2023     		movs	r3, #32
 877              	.LVL48:
 878              	.LBE10:
 879              		.loc 1 172 0
 880 0004 0446     		mov	r4, r0
 881              		.cfi_offset 14, -4
 882              		.cfi_offset 4, -8
 883              	.LBB11:
 884              		.loc 1 176 0
 885              	@ 176 "../../../ChibiOS/os/hal/src/sdc.c" 1
 886 0006 83F31188 		msr     BASEPRI, r3
 887              	@ 0 "" 2
 888              	.LVL49:
 889              		.thumb
 890              	.LBE11:
 891              		.loc 1 179 0
 892 000a FFF7FEFF 		bl	sdc_lld_stop
 893              	.LVL50:
 894              		.loc 1 180 0
 895 000e 0123     		movs	r3, #1
 896 0010 2371     		strb	r3, [r4, #4]
 897              	.LBB12:
 898              		.loc 1 181 0
 899 0012 0023     		movs	r3, #0
 900              	.LVL51:
 901              	@ 181 "../../../ChibiOS/os/hal/src/sdc.c" 1
ARM GAS  C:\Users\DNIEL~1\AppData\Local\Temp\ccON3PQQ.s 			page 17


 902 0014 83F31188 		msr     BASEPRI, r3
 903              	@ 0 "" 2
 904              	.LVL52:
 905              		.thumb
 906              	.LBE12:
 907              		.loc 1 182 0
 908 0018 10BD     		pop	{r4, pc}
 909              		.cfi_endproc
 910              	.LFE122:
 911              		.size	sdcStop, .-sdcStop
 912 001a 00BFAFF3 		.section	.text.sdcGetAndClearErrors,"ax",%progbits
 912      0080
 913              		.align	2
 914              		.p2align 4,,15
 915              		.global	sdcGetAndClearErrors
 916              		.thumb
 917              		.thumb_func
 918              		.type	sdcGetAndClearErrors, %function
 919              	sdcGetAndClearErrors:
 920              	.LFB127:
 921              		.loc 1 457 0
 922              		.cfi_startproc
 923              		@ args = 0, pretend = 0, frame = 0
 924              		@ frame_needed = 0, uses_anonymous_args = 0
 925              		@ link register save eliminated.
 926              	.LVL53:
 927              		.loc 1 457 0
 928 0000 0246     		mov	r2, r0
 929              	.LBB13:
 930              		.loc 1 464 0
 931 0002 2023     		movs	r3, #32
 932              	.LVL54:
 933              	@ 464 "../../../ChibiOS/os/hal/src/sdc.c" 1
 934 0004 83F31188 		msr     BASEPRI, r3
 935              	@ 0 "" 2
 936              	.LVL55:
 937              		.thumb
 938              	.LBE13:
 939              		.loc 1 466 0
 940 0008 0023     		movs	r3, #0
 941              	.LVL56:
 942              		.loc 1 465 0
 943 000a 406B     		ldr	r0, [r0, #52]
 944              	.LVL57:
 945              		.loc 1 466 0
 946 000c 5363     		str	r3, [r2, #52]
 947              	.LBB14:
 948              		.loc 1 467 0
 949              	@ 467 "../../../ChibiOS/os/hal/src/sdc.c" 1
 950 000e 83F31188 		msr     BASEPRI, r3
 951              	@ 0 "" 2
 952              	.LVL58:
 953              		.thumb
 954              	.LBE14:
 955              		.loc 1 469 0
 956 0012 7047     		bx	lr
 957              		.cfi_endproc
ARM GAS  C:\Users\DNIEL~1\AppData\Local\Temp\ccON3PQQ.s 			page 18


 958              	.LFE127:
 959              		.size	sdcGetAndClearErrors, .-sdcGetAndClearErrors
 960 0014 AFF30080 		.section	.text.sdcErase,"ax",%progbits
 960      AFF30080 
 960      AFF30080 
 961              		.align	2
 962              		.p2align 4,,15
 963              		.global	sdcErase
 964              		.thumb
 965              		.thumb_func
 966              		.type	sdcErase, %function
 967              	sdcErase:
 968              	.LFB130:
 969              		.loc 1 539 0
 970              		.cfi_startproc
 971              		@ args = 0, pretend = 0, frame = 8
 972              		@ frame_needed = 0, uses_anonymous_args = 0
 973              	.LVL59:
 974 0000 70B5     		push	{r4, r5, r6, lr}
 975              	.LCFI10:
 976              		.cfi_def_cfa_offset 16
 977              		.loc 1 549 0
 978 0002 036B     		ldr	r3, [r0, #48]
 979              		.loc 1 539 0
 980 0004 0446     		mov	r4, r0
 981              		.cfi_offset 14, -4
 982              		.cfi_offset 6, -8
 983              		.cfi_offset 5, -12
 984              		.cfi_offset 4, -16
 985              		.loc 1 546 0
 986 0006 0720     		movs	r0, #7
 987              	.LVL60:
 988              		.loc 1 549 0
 989 0008 13F0100F 		tst	r3, #16
 990              		.loc 1 539 0
 991 000c 82B0     		sub	sp, sp, #8
 992              	.LCFI11:
 993              		.cfi_def_cfa_offset 24
 994              		.loc 1 546 0
 995 000e 2071     		strb	r0, [r4, #4]
 996              		.loc 1 539 0
 997 0010 0E46     		mov	r6, r1
 998 0012 1546     		mov	r5, r2
 999              		.loc 1 549 0
 1000 0014 01D1     		bne	.L64
 1001              		.loc 1 550 0
 1002 0016 4E02     		lsls	r6, r1, #9
 1003              	.LVL61:
 1004              		.loc 1 551 0
 1005 0018 5502     		lsls	r5, r2, #9
 1006              	.LVL62:
 1007              	.L64:
 1008              		.loc 1 554 0
 1009 001a 2046     		mov	r0, r4
 1010 001c FFF7FEFF 		bl	_sdc_wait_for_transfer_state
 1011              		.loc 1 556 0
 1012 0020 2046     		mov	r0, r4
ARM GAS  C:\Users\DNIEL~1\AppData\Local\Temp\ccON3PQQ.s 			page 19


 1013 0022 2021     		movs	r1, #32
 1014 0024 3246     		mov	r2, r6
 1015 0026 01AB     		add	r3, sp, #4
 1016 0028 FFF7FEFF 		bl	sdc_lld_send_cmd_short_crc
 1017 002c 20B9     		cbnz	r0, .L65
 1018              		.loc 1 558 0
 1019 002e 164B     		ldr	r3, .L68
 1020 0030 019A     		ldr	r2, [sp, #4]
 1021 0032 02EA0301 		and	r1, r2, r3
 1022              		.loc 1 557 0
 1023 0036 21B1     		cbz	r1, .L67
 1024              	.LVL63:
 1025              	.L65:
 1026              		.loc 1 581 0
 1027 0038 0520     		movs	r0, #5
 1028 003a 2071     		strb	r0, [r4, #4]
 1029              		.loc 1 582 0
 1030 003c 0120     		movs	r0, #1
 1031              	.L66:
 1032              		.loc 1 583 0
 1033 003e 02B0     		add	sp, sp, #8
 1034 0040 70BD     		pop	{r4, r5, r6, pc}
 1035              	.LVL64:
 1036              	.L67:
 1037              		.loc 1 561 0
 1038 0042 2046     		mov	r0, r4
 1039 0044 2121     		movs	r1, #33
 1040 0046 2A46     		mov	r2, r5
 1041 0048 01AB     		add	r3, sp, #4
 1042 004a FFF7FEFF 		bl	sdc_lld_send_cmd_short_crc
 1043 004e 0028     		cmp	r0, #0
 1044 0050 F2D1     		bne	.L65
 1045              		.loc 1 563 0
 1046 0052 0D48     		ldr	r0, .L68
 1047 0054 0199     		ldr	r1, [sp, #4]
 1048 0056 01EA0002 		and	r2, r1, r0
 1049              		.loc 1 562 0
 1050 005a 002A     		cmp	r2, #0
 1051 005c ECD1     		bne	.L65
 1052              		.loc 1 566 0
 1053 005e 2046     		mov	r0, r4
 1054 0060 2621     		movs	r1, #38
 1055 0062 01AB     		add	r3, sp, #4
 1056 0064 FFF7FEFF 		bl	sdc_lld_send_cmd_short_crc
 1057 0068 0028     		cmp	r0, #0
 1058 006a E5D1     		bne	.L65
 1059              		.loc 1 568 0
 1060 006c 064D     		ldr	r5, .L68
 1061              	.LVL65:
 1062 006e 019B     		ldr	r3, [sp, #4]
 1063 0070 03EA0505 		and	r5, r3, r5
 1064              		.loc 1 567 0
 1065 0074 002D     		cmp	r5, #0
 1066 0076 DFD1     		bne	.L65
 1067              		.loc 1 575 0
 1068 0078 2046     		mov	r0, r4
 1069 007a FFF7FEFF 		bl	_sdc_wait_for_transfer_state
ARM GAS  C:\Users\DNIEL~1\AppData\Local\Temp\ccON3PQQ.s 			page 20


 1070              		.loc 1 577 0
 1071 007e 0522     		movs	r2, #5
 1072 0080 2271     		strb	r2, [r4, #4]
 1073              		.loc 1 578 0
 1074 0082 2846     		mov	r0, r5
 1075 0084 DBE7     		b	.L66
 1076              	.L69:
 1077 0086 00BF     		.align	2
 1078              	.L68:
 1079 0088 08E0FFFD 		.word	-33562616
 1080              		.cfi_endproc
 1081              	.LFE130:
 1082              		.size	sdcErase, .-sdcErase
 1083 008c AFF30080 		.section	.rodata.sdc_vmt,"a",%progbits
 1084              		.align	2
 1085              		.set	.LANCHOR0,. + 0
 1086              		.type	sdc_vmt, %object
 1087              		.size	sdc_vmt, 32
 1088              	sdc_vmt:
 1089 0000 00000000 		.word	sdc_lld_is_card_inserted
 1090 0004 00000000 		.word	sdc_lld_is_write_protected
 1091 0008 00000000 		.word	sdcConnect
 1092 000c 00000000 		.word	sdcDisconnect
 1093 0010 00000000 		.word	sdcRead
 1094 0014 00000000 		.word	sdcWrite
 1095 0018 00000000 		.word	sdcSync
 1096 001c 00000000 		.word	sdcGetInfo
 1097              		.text
 1098              	.Letext0:
 1099              		.section	.debug_loc,"",%progbits
 1100              	.Ldebug_loc0:
 1101              	.LLST0:
 1102 0000 00000000 		.4byte	.LVL0
 1103 0004 08000000 		.4byte	.LVL1
 1104 0008 0100     		.2byte	0x1
 1105 000a 50       		.byte	0x50
 1106 000b 0A000000 		.4byte	.LVL2
 1107 000f 10000000 		.4byte	.LVL3
 1108 0013 0100     		.2byte	0x1
 1109 0015 50       		.byte	0x50
 1110 0016 00000000 		.4byte	0x0
 1111 001a 00000000 		.4byte	0x0
 1112              	.LLST1:
 1113 001e 00000000 		.4byte	.LFB128
 1114 0022 02000000 		.4byte	.LCFI0
 1115 0026 0200     		.2byte	0x2
 1116 0028 7D       		.byte	0x7d
 1117 0029 00       		.sleb128 0
 1118 002a 02000000 		.4byte	.LCFI0
 1119 002e 1A000000 		.4byte	.LFE128
 1120 0032 0200     		.2byte	0x2
 1121 0034 7D       		.byte	0x7d
 1122 0035 10       		.sleb128 16
 1123 0036 00000000 		.4byte	0x0
 1124 003a 00000000 		.4byte	0x0
 1125              	.LLST2:
 1126 003e 00000000 		.4byte	.LVL4
ARM GAS  C:\Users\DNIEL~1\AppData\Local\Temp\ccON3PQQ.s 			page 21


 1127 0042 0C000000 		.4byte	.LVL5
 1128 0046 0100     		.2byte	0x1
 1129 0048 50       		.byte	0x50
 1130 0049 0C000000 		.4byte	.LVL5
 1131 004d 1A000000 		.4byte	.LFE128
 1132 0051 0100     		.2byte	0x1
 1133 0053 54       		.byte	0x54
 1134 0054 00000000 		.4byte	0x0
 1135 0058 00000000 		.4byte	0x0
 1136              	.LLST3:
 1137 005c 00000000 		.4byte	.LFB126
 1138 0060 02000000 		.4byte	.LCFI1
 1139 0064 0200     		.2byte	0x2
 1140 0066 7D       		.byte	0x7d
 1141 0067 00       		.sleb128 0
 1142 0068 02000000 		.4byte	.LCFI1
 1143 006c 28000000 		.4byte	.LFE126
 1144 0070 0200     		.2byte	0x2
 1145 0072 7D       		.byte	0x7d
 1146 0073 10       		.sleb128 16
 1147 0074 00000000 		.4byte	0x0
 1148 0078 00000000 		.4byte	0x0
 1149              	.LLST4:
 1150 007c 00000000 		.4byte	.LVL7
 1151 0080 18000000 		.4byte	.LVL10
 1152 0084 0100     		.2byte	0x1
 1153 0086 50       		.byte	0x50
 1154 0087 18000000 		.4byte	.LVL10
 1155 008b 28000000 		.4byte	.LFE126
 1156 008f 0100     		.2byte	0x1
 1157 0091 54       		.byte	0x54
 1158 0092 00000000 		.4byte	0x0
 1159 0096 00000000 		.4byte	0x0
 1160              	.LLST5:
 1161 009a 00000000 		.4byte	.LVL7
 1162 009e 10000000 		.4byte	.LVL8
 1163 00a2 0100     		.2byte	0x1
 1164 00a4 51       		.byte	0x51
 1165 00a5 1A000000 		.4byte	.LVL11
 1166 00a9 21000000 		.4byte	.LVL12-1
 1167 00ad 0100     		.2byte	0x1
 1168 00af 51       		.byte	0x51
 1169 00b0 00000000 		.4byte	0x0
 1170 00b4 00000000 		.4byte	0x0
 1171              	.LLST6:
 1172 00b8 00000000 		.4byte	.LVL7
 1173 00bc 21000000 		.4byte	.LVL12-1
 1174 00c0 0100     		.2byte	0x1
 1175 00c2 52       		.byte	0x52
 1176 00c3 00000000 		.4byte	0x0
 1177 00c7 00000000 		.4byte	0x0
 1178              	.LLST7:
 1179 00cb 00000000 		.4byte	.LVL7
 1180 00cf 14000000 		.4byte	.LVL9
 1181 00d3 0100     		.2byte	0x1
 1182 00d5 53       		.byte	0x53
 1183 00d6 1A000000 		.4byte	.LVL11
ARM GAS  C:\Users\DNIEL~1\AppData\Local\Temp\ccON3PQQ.s 			page 22


 1184 00da 21000000 		.4byte	.LVL12-1
 1185 00de 0100     		.2byte	0x1
 1186 00e0 53       		.byte	0x53
 1187 00e1 00000000 		.4byte	0x0
 1188 00e5 00000000 		.4byte	0x0
 1189              	.LLST8:
 1190 00e9 00000000 		.4byte	.LFB125
 1191 00ed 02000000 		.4byte	.LCFI2
 1192 00f1 0200     		.2byte	0x2
 1193 00f3 7D       		.byte	0x7d
 1194 00f4 00       		.sleb128 0
 1195 00f5 02000000 		.4byte	.LCFI2
 1196 00f9 28000000 		.4byte	.LFE125
 1197 00fd 0200     		.2byte	0x2
 1198 00ff 7D       		.byte	0x7d
 1199 0100 10       		.sleb128 16
 1200 0101 00000000 		.4byte	0x0
 1201 0105 00000000 		.4byte	0x0
 1202              	.LLST9:
 1203 0109 00000000 		.4byte	.LVL13
 1204 010d 18000000 		.4byte	.LVL16
 1205 0111 0100     		.2byte	0x1
 1206 0113 50       		.byte	0x50
 1207 0114 18000000 		.4byte	.LVL16
 1208 0118 28000000 		.4byte	.LFE125
 1209 011c 0100     		.2byte	0x1
 1210 011e 54       		.byte	0x54
 1211 011f 00000000 		.4byte	0x0
 1212 0123 00000000 		.4byte	0x0
 1213              	.LLST10:
 1214 0127 00000000 		.4byte	.LVL13
 1215 012b 10000000 		.4byte	.LVL14
 1216 012f 0100     		.2byte	0x1
 1217 0131 51       		.byte	0x51
 1218 0132 1A000000 		.4byte	.LVL17
 1219 0136 21000000 		.4byte	.LVL18-1
 1220 013a 0100     		.2byte	0x1
 1221 013c 51       		.byte	0x51
 1222 013d 00000000 		.4byte	0x0
 1223 0141 00000000 		.4byte	0x0
 1224              	.LLST11:
 1225 0145 00000000 		.4byte	.LVL13
 1226 0149 21000000 		.4byte	.LVL18-1
 1227 014d 0100     		.2byte	0x1
 1228 014f 52       		.byte	0x52
 1229 0150 00000000 		.4byte	0x0
 1230 0154 00000000 		.4byte	0x0
 1231              	.LLST12:
 1232 0158 00000000 		.4byte	.LVL13
 1233 015c 14000000 		.4byte	.LVL15
 1234 0160 0100     		.2byte	0x1
 1235 0162 53       		.byte	0x53
 1236 0163 1A000000 		.4byte	.LVL17
 1237 0167 21000000 		.4byte	.LVL18-1
 1238 016b 0100     		.2byte	0x1
 1239 016d 53       		.byte	0x53
 1240 016e 00000000 		.4byte	0x0
ARM GAS  C:\Users\DNIEL~1\AppData\Local\Temp\ccON3PQQ.s 			page 23


 1241 0172 00000000 		.4byte	0x0
 1242              	.LLST13:
 1243 0176 00000000 		.4byte	.LFB123
 1244 017a 02000000 		.4byte	.LCFI3
 1245 017e 0200     		.2byte	0x2
 1246 0180 7D       		.byte	0x7d
 1247 0181 00       		.sleb128 0
 1248 0182 02000000 		.4byte	.LCFI3
 1249 0186 06000000 		.4byte	.LCFI4
 1250 018a 0200     		.2byte	0x2
 1251 018c 7D       		.byte	0x7d
 1252 018d 14       		.sleb128 20
 1253 018e 06000000 		.4byte	.LCFI4
 1254 0192 4C020000 		.4byte	.LFE123
 1255 0196 0200     		.2byte	0x2
 1256 0198 7D       		.byte	0x7d
 1257 0199 20       		.sleb128 32
 1258 019a 00000000 		.4byte	0x0
 1259 019e 00000000 		.4byte	0x0
 1260              	.LLST14:
 1261 01a2 00000000 		.4byte	.LVL19
 1262 01a6 0D000000 		.4byte	.LVL20-1
 1263 01aa 0100     		.2byte	0x1
 1264 01ac 50       		.byte	0x50
 1265 01ad 0D000000 		.4byte	.LVL20-1
 1266 01b1 4C020000 		.4byte	.LFE123
 1267 01b5 0100     		.2byte	0x1
 1268 01b7 54       		.byte	0x54
 1269 01b8 00000000 		.4byte	0x0
 1270 01bc 00000000 		.4byte	0x0
 1271              	.LLST15:
 1272 01c0 68000000 		.4byte	.LVL21
 1273 01c4 72000000 		.4byte	.LVL22
 1274 01c8 0200     		.2byte	0x2
 1275 01ca 30       		.byte	0x30
 1276 01cb 9F       		.byte	0x9f
 1277 01cc 72000000 		.4byte	.LVL22
 1278 01d0 75000000 		.4byte	.LVL23-1
 1279 01d4 0100     		.2byte	0x1
 1280 01d6 52       		.byte	0x52
 1281 01d7 75000000 		.4byte	.LVL23-1
 1282 01db A0000000 		.4byte	.LVL24
 1283 01df 0100     		.2byte	0x1
 1284 01e1 56       		.byte	0x56
 1285 01e2 26010000 		.4byte	.LVL25
 1286 01e6 30010000 		.4byte	.LVL26
 1287 01ea 0100     		.2byte	0x1
 1288 01ec 56       		.byte	0x56
 1289 01ed 00000000 		.4byte	0x0
 1290 01f1 00000000 		.4byte	0x0
 1291              	.LLST16:
 1292 01f5 68000000 		.4byte	.LVL21
 1293 01f9 30010000 		.4byte	.LVL26
 1294 01fd 0100     		.2byte	0x1
 1295 01ff 55       		.byte	0x55
 1296 0200 50010000 		.4byte	.LVL27
 1297 0204 8A010000 		.4byte	.LVL28
ARM GAS  C:\Users\DNIEL~1\AppData\Local\Temp\ccON3PQQ.s 			page 24


 1298 0208 0100     		.2byte	0x1
 1299 020a 55       		.byte	0x55
 1300 020b 00000000 		.4byte	0x0
 1301 020f 00000000 		.4byte	0x0
 1302              	.LLST17:
 1303 0213 00000000 		.4byte	.LFB118
 1304 0217 02000000 		.4byte	.LCFI5
 1305 021b 0200     		.2byte	0x2
 1306 021d 7D       		.byte	0x7d
 1307 021e 00       		.sleb128 0
 1308 021f 02000000 		.4byte	.LCFI5
 1309 0223 06000000 		.4byte	.LCFI6
 1310 0227 0200     		.2byte	0x2
 1311 0229 7D       		.byte	0x7d
 1312 022a 08       		.sleb128 8
 1313 022b 06000000 		.4byte	.LCFI6
 1314 022f 40000000 		.4byte	.LFE118
 1315 0233 0200     		.2byte	0x2
 1316 0235 7D       		.byte	0x7d
 1317 0236 10       		.sleb128 16
 1318 0237 00000000 		.4byte	0x0
 1319 023b 00000000 		.4byte	0x0
 1320              	.LLST18:
 1321 023f 00000000 		.4byte	.LVL29
 1322 0243 06000000 		.4byte	.LVL30
 1323 0247 0100     		.2byte	0x1
 1324 0249 50       		.byte	0x50
 1325 024a 06000000 		.4byte	.LVL30
 1326 024e 40000000 		.4byte	.LFE118
 1327 0252 0100     		.2byte	0x1
 1328 0254 54       		.byte	0x54
 1329 0255 00000000 		.4byte	0x0
 1330 0259 00000000 		.4byte	0x0
 1331              	.LLST19:
 1332 025d 00000000 		.4byte	.LFB124
 1333 0261 02000000 		.4byte	.LCFI7
 1334 0265 0200     		.2byte	0x2
 1335 0267 7D       		.byte	0x7d
 1336 0268 00       		.sleb128 0
 1337 0269 02000000 		.4byte	.LCFI7
 1338 026d 48000000 		.4byte	.LFE124
 1339 0271 0200     		.2byte	0x2
 1340 0273 7D       		.byte	0x7d
 1341 0274 10       		.sleb128 16
 1342 0275 00000000 		.4byte	0x0
 1343 0279 00000000 		.4byte	0x0
 1344              	.LLST20:
 1345 027d 00000000 		.4byte	.LVL31
 1346 0281 1D000000 		.4byte	.LVL37-1
 1347 0285 0100     		.2byte	0x1
 1348 0287 50       		.byte	0x50
 1349 0288 1D000000 		.4byte	.LVL37-1
 1350 028c 48000000 		.4byte	.LFE124
 1351 0290 0100     		.2byte	0x1
 1352 0292 54       		.byte	0x54
 1353 0293 00000000 		.4byte	0x0
 1354 0297 00000000 		.4byte	0x0
ARM GAS  C:\Users\DNIEL~1\AppData\Local\Temp\ccON3PQQ.s 			page 25


 1355              	.LLST21:
 1356 029b 0A000000 		.4byte	.LVL33
 1357 029f 0C000000 		.4byte	.LVL34
 1358 02a3 0100     		.2byte	0x1
 1359 02a5 53       		.byte	0x53
 1360 02a6 00000000 		.4byte	0x0
 1361 02aa 00000000 		.4byte	0x0
 1362              	.LLST22:
 1363 02ae 1A000000 		.4byte	.LVL36
 1364 02b2 1D000000 		.4byte	.LVL37-1
 1365 02b6 0100     		.2byte	0x1
 1366 02b8 53       		.byte	0x53
 1367 02b9 00000000 		.4byte	0x0
 1368 02bd 00000000 		.4byte	0x0
 1369              	.LLST23:
 1370 02c1 44000000 		.4byte	.LVL39
 1371 02c5 48000000 		.4byte	.LFE124
 1372 02c9 0100     		.2byte	0x1
 1373 02cb 53       		.byte	0x53
 1374 02cc 00000000 		.4byte	0x0
 1375 02d0 00000000 		.4byte	0x0
 1376              	.LLST24:
 1377 02d4 00000000 		.4byte	.LFB121
 1378 02d8 02000000 		.4byte	.LCFI8
 1379 02dc 0200     		.2byte	0x2
 1380 02de 7D       		.byte	0x7d
 1381 02df 00       		.sleb128 0
 1382 02e0 02000000 		.4byte	.LCFI8
 1383 02e4 1C000000 		.4byte	.LFE121
 1384 02e8 0200     		.2byte	0x2
 1385 02ea 7D       		.byte	0x7d
 1386 02eb 08       		.sleb128 8
 1387 02ec 00000000 		.4byte	0x0
 1388 02f0 00000000 		.4byte	0x0
 1389              	.LLST25:
 1390 02f4 00000000 		.4byte	.LVL41
 1391 02f8 0F000000 		.4byte	.LVL44-1
 1392 02fc 0100     		.2byte	0x1
 1393 02fe 50       		.byte	0x50
 1394 02ff 0F000000 		.4byte	.LVL44-1
 1395 0303 1C000000 		.4byte	.LFE121
 1396 0307 0100     		.2byte	0x1
 1397 0309 54       		.byte	0x54
 1398 030a 00000000 		.4byte	0x0
 1399 030e 00000000 		.4byte	0x0
 1400              	.LLST26:
 1401 0312 00000000 		.4byte	.LVL41
 1402 0316 0F000000 		.4byte	.LVL44-1
 1403 031a 0100     		.2byte	0x1
 1404 031c 51       		.byte	0x51
 1405 031d 00000000 		.4byte	0x0
 1406 0321 00000000 		.4byte	0x0
 1407              	.LLST27:
 1408 0325 0A000000 		.4byte	.LVL43
 1409 0329 0F000000 		.4byte	.LVL44-1
 1410 032d 0100     		.2byte	0x1
 1411 032f 53       		.byte	0x53
ARM GAS  C:\Users\DNIEL~1\AppData\Local\Temp\ccON3PQQ.s 			page 26


 1412 0330 00000000 		.4byte	0x0
 1413 0334 00000000 		.4byte	0x0
 1414              	.LLST28:
 1415 0338 1A000000 		.4byte	.LVL46
 1416 033c 1C000000 		.4byte	.LFE121
 1417 0340 0100     		.2byte	0x1
 1418 0342 53       		.byte	0x53
 1419 0343 00000000 		.4byte	0x0
 1420 0347 00000000 		.4byte	0x0
 1421              	.LLST29:
 1422 034b 00000000 		.4byte	.LFB122
 1423 034f 02000000 		.4byte	.LCFI9
 1424 0353 0200     		.2byte	0x2
 1425 0355 7D       		.byte	0x7d
 1426 0356 00       		.sleb128 0
 1427 0357 02000000 		.4byte	.LCFI9
 1428 035b 1A000000 		.4byte	.LFE122
 1429 035f 0200     		.2byte	0x2
 1430 0361 7D       		.byte	0x7d
 1431 0362 08       		.sleb128 8
 1432 0363 00000000 		.4byte	0x0
 1433 0367 00000000 		.4byte	0x0
 1434              	.LLST30:
 1435 036b 00000000 		.4byte	.LVL47
 1436 036f 0D000000 		.4byte	.LVL50-1
 1437 0373 0100     		.2byte	0x1
 1438 0375 50       		.byte	0x50
 1439 0376 0D000000 		.4byte	.LVL50-1
 1440 037a 1A000000 		.4byte	.LFE122
 1441 037e 0100     		.2byte	0x1
 1442 0380 54       		.byte	0x54
 1443 0381 00000000 		.4byte	0x0
 1444 0385 00000000 		.4byte	0x0
 1445              	.LLST31:
 1446 0389 0A000000 		.4byte	.LVL49
 1447 038d 0D000000 		.4byte	.LVL50-1
 1448 0391 0100     		.2byte	0x1
 1449 0393 53       		.byte	0x53
 1450 0394 00000000 		.4byte	0x0
 1451 0398 00000000 		.4byte	0x0
 1452              	.LLST32:
 1453 039c 18000000 		.4byte	.LVL52
 1454 03a0 1A000000 		.4byte	.LFE122
 1455 03a4 0100     		.2byte	0x1
 1456 03a6 53       		.byte	0x53
 1457 03a7 00000000 		.4byte	0x0
 1458 03ab 00000000 		.4byte	0x0
 1459              	.LLST33:
 1460 03af 00000000 		.4byte	.LVL53
 1461 03b3 0C000000 		.4byte	.LVL57
 1462 03b7 0100     		.2byte	0x1
 1463 03b9 50       		.byte	0x50
 1464 03ba 0C000000 		.4byte	.LVL57
 1465 03be 14000000 		.4byte	.LFE127
 1466 03c2 0100     		.2byte	0x1
 1467 03c4 52       		.byte	0x52
 1468 03c5 00000000 		.4byte	0x0
ARM GAS  C:\Users\DNIEL~1\AppData\Local\Temp\ccON3PQQ.s 			page 27


 1469 03c9 00000000 		.4byte	0x0
 1470              	.LLST34:
 1471 03cd 08000000 		.4byte	.LVL55
 1472 03d1 0A000000 		.4byte	.LVL56
 1473 03d5 0100     		.2byte	0x1
 1474 03d7 53       		.byte	0x53
 1475 03d8 00000000 		.4byte	0x0
 1476 03dc 00000000 		.4byte	0x0
 1477              	.LLST35:
 1478 03e0 00000000 		.4byte	.LFB130
 1479 03e4 02000000 		.4byte	.LCFI10
 1480 03e8 0200     		.2byte	0x2
 1481 03ea 7D       		.byte	0x7d
 1482 03eb 00       		.sleb128 0
 1483 03ec 02000000 		.4byte	.LCFI10
 1484 03f0 0E000000 		.4byte	.LCFI11
 1485 03f4 0200     		.2byte	0x2
 1486 03f6 7D       		.byte	0x7d
 1487 03f7 10       		.sleb128 16
 1488 03f8 0E000000 		.4byte	.LCFI11
 1489 03fc 8C000000 		.4byte	.LFE130
 1490 0400 0200     		.2byte	0x2
 1491 0402 7D       		.byte	0x7d
 1492 0403 18       		.sleb128 24
 1493 0404 00000000 		.4byte	0x0
 1494 0408 00000000 		.4byte	0x0
 1495              	.LLST36:
 1496 040c 00000000 		.4byte	.LVL59
 1497 0410 08000000 		.4byte	.LVL60
 1498 0414 0100     		.2byte	0x1
 1499 0416 50       		.byte	0x50
 1500 0417 08000000 		.4byte	.LVL60
 1501 041b 8C000000 		.4byte	.LFE130
 1502 041f 0100     		.2byte	0x1
 1503 0421 54       		.byte	0x54
 1504 0422 00000000 		.4byte	0x0
 1505 0426 00000000 		.4byte	0x0
 1506              	.LLST37:
 1507 042a 00000000 		.4byte	.LVL59
 1508 042e 18000000 		.4byte	.LVL61
 1509 0432 0100     		.2byte	0x1
 1510 0434 51       		.byte	0x51
 1511 0435 18000000 		.4byte	.LVL61
 1512 0439 8C000000 		.4byte	.LFE130
 1513 043d 0100     		.2byte	0x1
 1514 043f 56       		.byte	0x56
 1515 0440 00000000 		.4byte	0x0
 1516 0444 00000000 		.4byte	0x0
 1517              	.LLST38:
 1518 0448 00000000 		.4byte	.LVL59
 1519 044c 1A000000 		.4byte	.LVL62
 1520 0450 0100     		.2byte	0x1
 1521 0452 52       		.byte	0x52
 1522 0453 1A000000 		.4byte	.LVL62
 1523 0457 38000000 		.4byte	.LVL63
 1524 045b 0100     		.2byte	0x1
 1525 045d 55       		.byte	0x55
ARM GAS  C:\Users\DNIEL~1\AppData\Local\Temp\ccON3PQQ.s 			page 28


 1526 045e 42000000 		.4byte	.LVL64
 1527 0462 6E000000 		.4byte	.LVL65
 1528 0466 0100     		.2byte	0x1
 1529 0468 55       		.byte	0x55
 1530 0469 00000000 		.4byte	0x0
 1531 046d 00000000 		.4byte	0x0
 1532              		.file 2 "c:\\program files (x86)\\codesourcery\\sourcery g++ lite\\bin\\../lib/gcc/arm-none-eabi/4
 1533              		.file 3 "../../../ChibiOS/os/ports/GCC/ARMCMx/chtypes.h"
 1534              		.file 4 "../../../ChibiOS/os/kernel/include/chlists.h"
 1535              		.file 5 "../../../ChibiOS/os/kernel/include/chthreads.h"
 1536              		.file 6 "../../../ChibiOS/os/ports/GCC/ARMCMx/chcore_v7m.h"
 1537              		.file 7 "../../../ChibiOS/os/kernel/include/chmtx.h"
 1538              		.file 8 "../../../ChibiOS/os/hal/platforms/STM32F4xx/stm32f4xx.h"
 1539              		.file 9 "../../../ChibiOS/os/hal/platforms/STM32F4xx/stm32_dma.h"
 1540              		.file 10 "../../../ChibiOS/os/hal/include/io_block.h"
 1541              		.file 11 "../../../ChibiOS/os/hal/platforms/STM32/sdc_lld.h"
 1542              		.file 12 "../../../ChibiOS/os/ports/common/ARMCMx/CMSIS/include/core_cm4.h"
 1543              		.section	.debug_info
 1544 0000 1C0C0000 		.4byte	0xc1c
 1545 0004 0200     		.2byte	0x2
 1546 0006 00000000 		.4byte	.Ldebug_abbrev0
 1547 000a 04       		.byte	0x4
 1548 000b 01       		.uleb128 0x1
 1549 000c FC000000 		.4byte	.LASF126
 1550 0010 01       		.byte	0x1
 1551 0011 A0020000 		.4byte	.LASF127
 1552 0015 33030000 		.4byte	.LASF128
 1553 0019 00000000 		.4byte	0x0
 1554 001d 00000000 		.4byte	0x0
 1555 0021 48000000 		.4byte	.Ldebug_ranges0+0x48
 1556 0025 00000000 		.4byte	.Ldebug_line0
 1557 0029 02       		.uleb128 0x2
 1558 002a 04       		.byte	0x4
 1559 002b 05       		.byte	0x5
 1560 002c 696E7400 		.ascii	"int\000"
 1561 0030 03       		.uleb128 0x3
 1562 0031 04       		.byte	0x4
 1563 0032 07       		.byte	0x7
 1564 0033 99010000 		.4byte	.LASF0
 1565 0037 03       		.uleb128 0x3
 1566 0038 01       		.byte	0x1
 1567 0039 06       		.byte	0x6
 1568 003a C0000000 		.4byte	.LASF1
 1569 003e 04       		.uleb128 0x4
 1570 003f CE040000 		.4byte	.LASF5
 1571 0043 02       		.byte	0x2
 1572 0044 2A       		.byte	0x2a
 1573 0045 49000000 		.4byte	0x49
 1574 0049 03       		.uleb128 0x3
 1575 004a 01       		.byte	0x1
 1576 004b 08       		.byte	0x8
 1577 004c 25030000 		.4byte	.LASF2
 1578 0050 03       		.uleb128 0x3
 1579 0051 02       		.byte	0x2
 1580 0052 05       		.byte	0x5
 1581 0053 70030000 		.4byte	.LASF3
 1582 0057 03       		.uleb128 0x3
ARM GAS  C:\Users\DNIEL~1\AppData\Local\Temp\ccON3PQQ.s 			page 29


 1583 0058 02       		.byte	0x2
 1584 0059 07       		.byte	0x7
 1585 005a D8010000 		.4byte	.LASF4
 1586 005e 04       		.uleb128 0x4
 1587 005f 1D030000 		.4byte	.LASF6
 1588 0063 02       		.byte	0x2
 1589 0064 4F       		.byte	0x4f
 1590 0065 69000000 		.4byte	0x69
 1591 0069 03       		.uleb128 0x3
 1592 006a 04       		.byte	0x4
 1593 006b 05       		.byte	0x5
 1594 006c 23010000 		.4byte	.LASF7
 1595 0070 04       		.uleb128 0x4
 1596 0071 DD030000 		.4byte	.LASF8
 1597 0075 02       		.byte	0x2
 1598 0076 50       		.byte	0x50
 1599 0077 7B000000 		.4byte	0x7b
 1600 007b 03       		.uleb128 0x3
 1601 007c 04       		.byte	0x4
 1602 007d 07       		.byte	0x7
 1603 007e E6030000 		.4byte	.LASF9
 1604 0082 03       		.uleb128 0x3
 1605 0083 08       		.byte	0x8
 1606 0084 05       		.byte	0x5
 1607 0085 B2000000 		.4byte	.LASF10
 1608 0089 03       		.uleb128 0x3
 1609 008a 08       		.byte	0x8
 1610 008b 07       		.byte	0x7
 1611 008c 55000000 		.4byte	.LASF11
 1612 0090 04       		.uleb128 0x4
 1613 0091 E2000000 		.4byte	.LASF12
 1614 0095 03       		.byte	0x3
 1615 0096 2B       		.byte	0x2b
 1616 0097 9B000000 		.4byte	0x9b
 1617 009b 03       		.uleb128 0x3
 1618 009c 01       		.byte	0x1
 1619 009d 02       		.byte	0x2
 1620 009e 17030000 		.4byte	.LASF13
 1621 00a2 04       		.uleb128 0x4
 1622 00a3 0B020000 		.4byte	.LASF14
 1623 00a7 03       		.byte	0x3
 1624 00a8 2C       		.byte	0x2c
 1625 00a9 3E000000 		.4byte	0x3e
 1626 00ad 04       		.uleb128 0x4
 1627 00ae 2C010000 		.4byte	.LASF15
 1628 00b2 03       		.byte	0x3
 1629 00b3 2D       		.byte	0x2d
 1630 00b4 3E000000 		.4byte	0x3e
 1631 00b8 04       		.uleb128 0x4
 1632 00b9 D0020000 		.4byte	.LASF16
 1633 00bd 03       		.byte	0x3
 1634 00be 2E       		.byte	0x2e
 1635 00bf 3E000000 		.4byte	0x3e
 1636 00c3 04       		.uleb128 0x4
 1637 00c4 08010000 		.4byte	.LASF17
 1638 00c8 03       		.byte	0x3
 1639 00c9 2F       		.byte	0x2f
ARM GAS  C:\Users\DNIEL~1\AppData\Local\Temp\ccON3PQQ.s 			page 30


 1640 00ca 3E000000 		.4byte	0x3e
 1641 00ce 04       		.uleb128 0x4
 1642 00cf 08030000 		.4byte	.LASF18
 1643 00d3 03       		.byte	0x3
 1644 00d4 30       		.byte	0x30
 1645 00d5 70000000 		.4byte	0x70
 1646 00d9 04       		.uleb128 0x4
 1647 00da F6010000 		.4byte	.LASF19
 1648 00de 03       		.byte	0x3
 1649 00df 31       		.byte	0x31
 1650 00e0 5E000000 		.4byte	0x5e
 1651 00e4 04       		.uleb128 0x4
 1652 00e5 1F020000 		.4byte	.LASF20
 1653 00e9 03       		.byte	0x3
 1654 00ea 33       		.byte	0x33
 1655 00eb 70000000 		.4byte	0x70
 1656 00ef 04       		.uleb128 0x4
 1657 00f0 27040000 		.4byte	.LASF21
 1658 00f4 03       		.byte	0x3
 1659 00f5 35       		.byte	0x35
 1660 00f6 70000000 		.4byte	0x70
 1661 00fa 04       		.uleb128 0x4
 1662 00fb BE030000 		.4byte	.LASF22
 1663 00ff 04       		.byte	0x4
 1664 0100 2A       		.byte	0x2a
 1665 0101 05010000 		.4byte	0x105
 1666 0105 05       		.uleb128 0x5
 1667 0106 BE030000 		.4byte	.LASF22
 1668 010a 48       		.byte	0x48
 1669 010b 05       		.byte	0x5
 1670 010c 5E       		.byte	0x5e
 1671 010d 2A020000 		.4byte	0x22a
 1672 0111 06       		.uleb128 0x6
 1673 0112 A7030000 		.4byte	.LASF23
 1674 0116 05       		.byte	0x5
 1675 0117 5F       		.byte	0x5f
 1676 0118 4F020000 		.4byte	0x24f
 1677 011c 02       		.byte	0x2
 1678 011d 23       		.byte	0x23
 1679 011e 00       		.uleb128 0x0
 1680 011f 06       		.uleb128 0x6
 1681 0120 E6020000 		.4byte	.LASF24
 1682 0124 05       		.byte	0x5
 1683 0125 61       		.byte	0x61
 1684 0126 4F020000 		.4byte	0x24f
 1685 012a 02       		.byte	0x2
 1686 012b 23       		.byte	0x23
 1687 012c 04       		.uleb128 0x4
 1688 012d 06       		.uleb128 0x6
 1689 012e AB000000 		.4byte	.LASF25
 1690 0132 05       		.byte	0x5
 1691 0133 63       		.byte	0x63
 1692 0134 CE000000 		.4byte	0xce
 1693 0138 02       		.byte	0x2
 1694 0139 23       		.byte	0x23
 1695 013a 08       		.uleb128 0x8
 1696 013b 06       		.uleb128 0x6
ARM GAS  C:\Users\DNIEL~1\AppData\Local\Temp\ccON3PQQ.s 			page 31


 1697 013c 18050000 		.4byte	.LASF26
 1698 0140 05       		.byte	0x5
 1699 0141 64       		.byte	0x64
 1700 0142 1D030000 		.4byte	0x31d
 1701 0146 02       		.byte	0x2
 1702 0147 23       		.byte	0x23
 1703 0148 0C       		.uleb128 0xc
 1704 0149 06       		.uleb128 0x6
 1705 014a 4A010000 		.4byte	.LASF27
 1706 014e 05       		.byte	0x5
 1707 014f 66       		.byte	0x66
 1708 0150 4F020000 		.4byte	0x24f
 1709 0154 02       		.byte	0x2
 1710 0155 23       		.byte	0x23
 1711 0156 10       		.uleb128 0x10
 1712 0157 06       		.uleb128 0x6
 1713 0158 98030000 		.4byte	.LASF28
 1714 015c 05       		.byte	0x5
 1715 015d 67       		.byte	0x67
 1716 015e 4F020000 		.4byte	0x24f
 1717 0162 02       		.byte	0x2
 1718 0163 23       		.byte	0x23
 1719 0164 14       		.uleb128 0x14
 1720 0165 06       		.uleb128 0x6
 1721 0166 F2040000 		.4byte	.LASF29
 1722 016a 05       		.byte	0x5
 1723 016b 6E       		.byte	0x6e
 1724 016c C7030000 		.4byte	0x3c7
 1725 0170 02       		.byte	0x2
 1726 0171 23       		.byte	0x23
 1727 0172 18       		.uleb128 0x18
 1728 0173 06       		.uleb128 0x6
 1729 0174 7A030000 		.4byte	.LASF30
 1730 0178 05       		.byte	0x5
 1731 0179 79       		.byte	0x79
 1732 017a AD000000 		.4byte	0xad
 1733 017e 02       		.byte	0x2
 1734 017f 23       		.byte	0x23
 1735 0180 1C       		.uleb128 0x1c
 1736 0181 06       		.uleb128 0x6
 1737 0182 B6030000 		.4byte	.LASF31
 1738 0186 05       		.byte	0x5
 1739 0187 7D       		.byte	0x7d
 1740 0188 A2000000 		.4byte	0xa2
 1741 018c 02       		.byte	0x2
 1742 018d 23       		.byte	0x23
 1743 018e 1D       		.uleb128 0x1d
 1744 018f 06       		.uleb128 0x6
 1745 0190 AB040000 		.4byte	.LASF32
 1746 0194 05       		.byte	0x5
 1747 0195 82       		.byte	0x82
 1748 0196 B8000000 		.4byte	0xb8
 1749 019a 02       		.byte	0x2
 1750 019b 23       		.byte	0x23
 1751 019c 1E       		.uleb128 0x1e
 1752 019d 06       		.uleb128 0x6
 1753 019e 8E030000 		.4byte	.LASF33
ARM GAS  C:\Users\DNIEL~1\AppData\Local\Temp\ccON3PQQ.s 			page 32


 1754 01a2 05       		.byte	0x5
 1755 01a3 88       		.byte	0x88
 1756 01a4 C3000000 		.4byte	0xc3
 1757 01a8 02       		.byte	0x2
 1758 01a9 23       		.byte	0x23
 1759 01aa 1F       		.uleb128 0x1f
 1760 01ab 06       		.uleb128 0x6
 1761 01ac 21000000 		.4byte	.LASF34
 1762 01b0 05       		.byte	0x5
 1763 01b1 8F       		.byte	0x8f
 1764 01b2 45030000 		.4byte	0x345
 1765 01b6 02       		.byte	0x2
 1766 01b7 23       		.byte	0x23
 1767 01b8 20       		.uleb128 0x20
 1768 01b9 07       		.uleb128 0x7
 1769 01ba 705F7500 		.ascii	"p_u\000"
 1770 01be 05       		.byte	0x5
 1771 01bf B4       		.byte	0xb4
 1772 01c0 92030000 		.4byte	0x392
 1773 01c4 02       		.byte	0x2
 1774 01c5 23       		.byte	0x23
 1775 01c6 24       		.uleb128 0x24
 1776 01c7 06       		.uleb128 0x6
 1777 01c8 1E050000 		.4byte	.LASF35
 1778 01cc 05       		.byte	0x5
 1779 01cd B9       		.byte	0xb9
 1780 01ce 77020000 		.4byte	0x277
 1781 01d2 02       		.byte	0x2
 1782 01d3 23       		.byte	0x23
 1783 01d4 28       		.uleb128 0x28
 1784 01d5 06       		.uleb128 0x6
 1785 01d6 B8010000 		.4byte	.LASF36
 1786 01da 05       		.byte	0x5
 1787 01db BF       		.byte	0xbf
 1788 01dc 55020000 		.4byte	0x255
 1789 01e0 02       		.byte	0x2
 1790 01e1 23       		.byte	0x23
 1791 01e2 2C       		.uleb128 0x2c
 1792 01e3 06       		.uleb128 0x6
 1793 01e4 F9040000 		.4byte	.LASF37
 1794 01e8 05       		.byte	0x5
 1795 01e9 C3       		.byte	0xc3
 1796 01ea D9000000 		.4byte	0xd9
 1797 01ee 02       		.byte	0x2
 1798 01ef 23       		.byte	0x23
 1799 01f0 34       		.uleb128 0x34
 1800 01f1 06       		.uleb128 0x6
 1801 01f2 CD030000 		.4byte	.LASF38
 1802 01f6 05       		.byte	0x5
 1803 01f7 C9       		.byte	0xc9
 1804 01f8 E4000000 		.4byte	0xe4
 1805 01fc 02       		.byte	0x2
 1806 01fd 23       		.byte	0x23
 1807 01fe 38       		.uleb128 0x38
 1808 01ff 06       		.uleb128 0x6
 1809 0200 66030000 		.4byte	.LASF39
 1810 0204 05       		.byte	0x5
ARM GAS  C:\Users\DNIEL~1\AppData\Local\Temp\ccON3PQQ.s 			page 33


 1811 0205 D0       		.byte	0xd0
 1812 0206 D9030000 		.4byte	0x3d9
 1813 020a 02       		.byte	0x2
 1814 020b 23       		.byte	0x23
 1815 020c 3C       		.uleb128 0x3c
 1816 020d 06       		.uleb128 0x6
 1817 020e 31040000 		.4byte	.LASF40
 1818 0212 05       		.byte	0x5
 1819 0213 D4       		.byte	0xd4
 1820 0214 CE000000 		.4byte	0xce
 1821 0218 02       		.byte	0x2
 1822 0219 23       		.byte	0x23
 1823 021a 40       		.uleb128 0x40
 1824 021b 06       		.uleb128 0x6
 1825 021c DA000000 		.4byte	.LASF41
 1826 0220 05       		.byte	0x5
 1827 0221 DA       		.byte	0xda
 1828 0222 8D020000 		.4byte	0x28d
 1829 0226 02       		.byte	0x2
 1830 0227 23       		.byte	0x23
 1831 0228 44       		.uleb128 0x44
 1832 0229 00       		.byte	0x0
 1833 022a 08       		.uleb128 0x8
 1834 022b 08       		.byte	0x8
 1835 022c 04       		.byte	0x4
 1836 022d 61       		.byte	0x61
 1837 022e 4F020000 		.4byte	0x24f
 1838 0232 06       		.uleb128 0x6
 1839 0233 A7030000 		.4byte	.LASF23
 1840 0237 04       		.byte	0x4
 1841 0238 62       		.byte	0x62
 1842 0239 4F020000 		.4byte	0x24f
 1843 023d 02       		.byte	0x2
 1844 023e 23       		.byte	0x23
 1845 023f 00       		.uleb128 0x0
 1846 0240 06       		.uleb128 0x6
 1847 0241 E6020000 		.4byte	.LASF24
 1848 0245 04       		.byte	0x4
 1849 0246 64       		.byte	0x64
 1850 0247 4F020000 		.4byte	0x24f
 1851 024b 02       		.byte	0x2
 1852 024c 23       		.byte	0x23
 1853 024d 04       		.uleb128 0x4
 1854 024e 00       		.byte	0x0
 1855 024f 09       		.uleb128 0x9
 1856 0250 04       		.byte	0x4
 1857 0251 FA000000 		.4byte	0xfa
 1858 0255 04       		.uleb128 0x4
 1859 0256 7C020000 		.4byte	.LASF42
 1860 025a 04       		.byte	0x4
 1861 025b 66       		.byte	0x66
 1862 025c 2A020000 		.4byte	0x22a
 1863 0260 08       		.uleb128 0x8
 1864 0261 04       		.byte	0x4
 1865 0262 04       		.byte	0x4
 1866 0263 6B       		.byte	0x6b
 1867 0264 77020000 		.4byte	0x277
ARM GAS  C:\Users\DNIEL~1\AppData\Local\Temp\ccON3PQQ.s 			page 34


 1868 0268 06       		.uleb128 0x6
 1869 0269 A7030000 		.4byte	.LASF23
 1870 026d 04       		.byte	0x4
 1871 026e 6D       		.byte	0x6d
 1872 026f 4F020000 		.4byte	0x24f
 1873 0273 02       		.byte	0x2
 1874 0274 23       		.byte	0x23
 1875 0275 00       		.uleb128 0x0
 1876 0276 00       		.byte	0x0
 1877 0277 04       		.uleb128 0x4
 1878 0278 13020000 		.4byte	.LASF43
 1879 027c 04       		.byte	0x4
 1880 027d 70       		.byte	0x70
 1881 027e 60020000 		.4byte	0x260
 1882 0282 04       		.uleb128 0x4
 1883 0283 68010000 		.4byte	.LASF44
 1884 0287 06       		.byte	0x6
 1885 0288 E5       		.byte	0xe5
 1886 0289 8D020000 		.4byte	0x28d
 1887 028d 0A       		.uleb128 0xa
 1888 028e 04       		.byte	0x4
 1889 028f 0B       		.uleb128 0xb
 1890 0290 7E040000 		.4byte	.LASF45
 1891 0294 24       		.byte	0x24
 1892 0295 06       		.byte	0x6
 1893 0296 0C01     		.2byte	0x10c
 1894 0298 1D030000 		.4byte	0x31d
 1895 029c 0C       		.uleb128 0xc
 1896 029d 723400   		.ascii	"r4\000"
 1897 02a0 06       		.byte	0x6
 1898 02a1 1F01     		.2byte	0x11f
 1899 02a3 82020000 		.4byte	0x282
 1900 02a7 02       		.byte	0x2
 1901 02a8 23       		.byte	0x23
 1902 02a9 00       		.uleb128 0x0
 1903 02aa 0C       		.uleb128 0xc
 1904 02ab 723500   		.ascii	"r5\000"
 1905 02ae 06       		.byte	0x6
 1906 02af 2001     		.2byte	0x120
 1907 02b1 82020000 		.4byte	0x282
 1908 02b5 02       		.byte	0x2
 1909 02b6 23       		.byte	0x23
 1910 02b7 04       		.uleb128 0x4
 1911 02b8 0C       		.uleb128 0xc
 1912 02b9 723600   		.ascii	"r6\000"
 1913 02bc 06       		.byte	0x6
 1914 02bd 2101     		.2byte	0x121
 1915 02bf 82020000 		.4byte	0x282
 1916 02c3 02       		.byte	0x2
 1917 02c4 23       		.byte	0x23
 1918 02c5 08       		.uleb128 0x8
 1919 02c6 0C       		.uleb128 0xc
 1920 02c7 723700   		.ascii	"r7\000"
 1921 02ca 06       		.byte	0x6
 1922 02cb 2201     		.2byte	0x122
 1923 02cd 82020000 		.4byte	0x282
 1924 02d1 02       		.byte	0x2
ARM GAS  C:\Users\DNIEL~1\AppData\Local\Temp\ccON3PQQ.s 			page 35


 1925 02d2 23       		.byte	0x23
 1926 02d3 0C       		.uleb128 0xc
 1927 02d4 0C       		.uleb128 0xc
 1928 02d5 723800   		.ascii	"r8\000"
 1929 02d8 06       		.byte	0x6
 1930 02d9 2301     		.2byte	0x123
 1931 02db 82020000 		.4byte	0x282
 1932 02df 02       		.byte	0x2
 1933 02e0 23       		.byte	0x23
 1934 02e1 10       		.uleb128 0x10
 1935 02e2 0C       		.uleb128 0xc
 1936 02e3 723900   		.ascii	"r9\000"
 1937 02e6 06       		.byte	0x6
 1938 02e7 2401     		.2byte	0x124
 1939 02e9 82020000 		.4byte	0x282
 1940 02ed 02       		.byte	0x2
 1941 02ee 23       		.byte	0x23
 1942 02ef 14       		.uleb128 0x14
 1943 02f0 0C       		.uleb128 0xc
 1944 02f1 72313000 		.ascii	"r10\000"
 1945 02f5 06       		.byte	0x6
 1946 02f6 2501     		.2byte	0x125
 1947 02f8 82020000 		.4byte	0x282
 1948 02fc 02       		.byte	0x2
 1949 02fd 23       		.byte	0x23
 1950 02fe 18       		.uleb128 0x18
 1951 02ff 0C       		.uleb128 0xc
 1952 0300 72313100 		.ascii	"r11\000"
 1953 0304 06       		.byte	0x6
 1954 0305 2601     		.2byte	0x126
 1955 0307 82020000 		.4byte	0x282
 1956 030b 02       		.byte	0x2
 1957 030c 23       		.byte	0x23
 1958 030d 1C       		.uleb128 0x1c
 1959 030e 0C       		.uleb128 0xc
 1960 030f 6C7200   		.ascii	"lr\000"
 1961 0312 06       		.byte	0x6
 1962 0313 2701     		.2byte	0x127
 1963 0315 82020000 		.4byte	0x282
 1964 0319 02       		.byte	0x2
 1965 031a 23       		.byte	0x23
 1966 031b 20       		.uleb128 0x20
 1967 031c 00       		.byte	0x0
 1968 031d 0B       		.uleb128 0xb
 1969 031e 6B040000 		.4byte	.LASF46
 1970 0322 04       		.byte	0x4
 1971 0323 06       		.byte	0x6
 1972 0324 3101     		.2byte	0x131
 1973 0326 3A030000 		.4byte	0x33a
 1974 032a 0C       		.uleb128 0xc
 1975 032b 72313300 		.ascii	"r13\000"
 1976 032f 06       		.byte	0x6
 1977 0330 3201     		.2byte	0x132
 1978 0332 3A030000 		.4byte	0x33a
 1979 0336 02       		.byte	0x2
 1980 0337 23       		.byte	0x23
 1981 0338 00       		.uleb128 0x0
ARM GAS  C:\Users\DNIEL~1\AppData\Local\Temp\ccON3PQQ.s 			page 36


 1982 0339 00       		.byte	0x0
 1983 033a 09       		.uleb128 0x9
 1984 033b 04       		.byte	0x4
 1985 033c 8F020000 		.4byte	0x28f
 1986 0340 0D       		.uleb128 0xd
 1987 0341 70000000 		.4byte	0x70
 1988 0345 0D       		.uleb128 0xd
 1989 0346 EF000000 		.4byte	0xef
 1990 034a 05       		.uleb128 0x5
 1991 034b 5A020000 		.4byte	.LASF47
 1992 034f 10       		.byte	0x10
 1993 0350 07       		.byte	0x7
 1994 0351 2C       		.byte	0x2c
 1995 0352 81030000 		.4byte	0x381
 1996 0356 06       		.uleb128 0x6
 1997 0357 E9000000 		.4byte	.LASF48
 1998 035b 07       		.byte	0x7
 1999 035c 2D       		.byte	0x2d
 2000 035d 55020000 		.4byte	0x255
 2001 0361 02       		.byte	0x2
 2002 0362 23       		.byte	0x23
 2003 0363 00       		.uleb128 0x0
 2004 0364 06       		.uleb128 0x6
 2005 0365 FF040000 		.4byte	.LASF49
 2006 0369 07       		.byte	0x7
 2007 036a 2F       		.byte	0x2f
 2008 036b 4F020000 		.4byte	0x24f
 2009 036f 02       		.byte	0x2
 2010 0370 23       		.byte	0x23
 2011 0371 08       		.uleb128 0x8
 2012 0372 06       		.uleb128 0x6
 2013 0373 20040000 		.4byte	.LASF50
 2014 0377 07       		.byte	0x7
 2015 0378 31       		.byte	0x31
 2016 0379 81030000 		.4byte	0x381
 2017 037d 02       		.byte	0x2
 2018 037e 23       		.byte	0x23
 2019 037f 0C       		.uleb128 0xc
 2020 0380 00       		.byte	0x0
 2021 0381 09       		.uleb128 0x9
 2022 0382 04       		.byte	0x4
 2023 0383 4A030000 		.4byte	0x34a
 2024 0387 04       		.uleb128 0x4
 2025 0388 5A020000 		.4byte	.LASF47
 2026 038c 07       		.byte	0x7
 2027 038d 33       		.byte	0x33
 2028 038e 4A030000 		.4byte	0x34a
 2029 0392 0E       		.uleb128 0xe
 2030 0393 04       		.byte	0x4
 2031 0394 05       		.byte	0x5
 2032 0395 96       		.byte	0x96
 2033 0396 C7030000 		.4byte	0x3c7
 2034 039a 0F       		.uleb128 0xf
 2035 039b 30000000 		.4byte	.LASF51
 2036 039f 05       		.byte	0x5
 2037 03a0 9D       		.byte	0x9d
 2038 03a1 D9000000 		.4byte	0xd9
ARM GAS  C:\Users\DNIEL~1\AppData\Local\Temp\ccON3PQQ.s 			page 37


 2039 03a5 0F       		.uleb128 0xf
 2040 03a6 6C000000 		.4byte	.LASF52
 2041 03aa 05       		.byte	0x5
 2042 03ab A4       		.byte	0xa4
 2043 03ac D9000000 		.4byte	0xd9
 2044 03b0 0F       		.uleb128 0xf
 2045 03b1 EB040000 		.4byte	.LASF53
 2046 03b5 05       		.byte	0x5
 2047 03b6 AB       		.byte	0xab
 2048 03b7 8D020000 		.4byte	0x28d
 2049 03bb 0F       		.uleb128 0xf
 2050 03bc A0030000 		.4byte	.LASF54
 2051 03c0 05       		.byte	0x5
 2052 03c1 B2       		.byte	0xb2
 2053 03c2 E4000000 		.4byte	0xe4
 2054 03c6 00       		.byte	0x0
 2055 03c7 09       		.uleb128 0x9
 2056 03c8 04       		.byte	0x4
 2057 03c9 CD030000 		.4byte	0x3cd
 2058 03cd 10       		.uleb128 0x10
 2059 03ce D2030000 		.4byte	0x3d2
 2060 03d2 03       		.uleb128 0x3
 2061 03d3 01       		.byte	0x1
 2062 03d4 08       		.byte	0x8
 2063 03d5 FD030000 		.4byte	.LASF55
 2064 03d9 09       		.uleb128 0x9
 2065 03da 04       		.byte	0x4
 2066 03db 87030000 		.4byte	0x387
 2067 03df 09       		.uleb128 0x9
 2068 03e0 04       		.byte	0x4
 2069 03e1 3E000000 		.4byte	0x3e
 2070 03e5 09       		.uleb128 0x9
 2071 03e6 04       		.byte	0x4
 2072 03e7 EB030000 		.4byte	0x3eb
 2073 03eb 10       		.uleb128 0x10
 2074 03ec 3E000000 		.4byte	0x3e
 2075 03f0 11       		.uleb128 0x11
 2076 03f1 70000000 		.4byte	0x70
 2077 03f5 00040000 		.4byte	0x400
 2078 03f9 12       		.uleb128 0x12
 2079 03fa 30000000 		.4byte	0x30
 2080 03fe 03       		.byte	0x3
 2081 03ff 00       		.byte	0x0
 2082 0400 11       		.uleb128 0x11
 2083 0401 70000000 		.4byte	0x70
 2084 0405 10040000 		.4byte	0x410
 2085 0409 12       		.uleb128 0x12
 2086 040a 30000000 		.4byte	0x30
 2087 040e 00       		.byte	0x0
 2088 040f 00       		.byte	0x0
 2089 0410 0D       		.uleb128 0xd
 2090 0411 5E000000 		.4byte	0x5e
 2091 0415 13       		.uleb128 0x13
 2092 0416 18       		.byte	0x18
 2093 0417 08       		.byte	0x8
 2094 0418 B102     		.2byte	0x2b1
 2095 041a 78040000 		.4byte	0x478
ARM GAS  C:\Users\DNIEL~1\AppData\Local\Temp\ccON3PQQ.s 			page 38


 2096 041e 0C       		.uleb128 0xc
 2097 041f 435200   		.ascii	"CR\000"
 2098 0422 08       		.byte	0x8
 2099 0423 B302     		.2byte	0x2b3
 2100 0425 40030000 		.4byte	0x340
 2101 0429 02       		.byte	0x2
 2102 042a 23       		.byte	0x23
 2103 042b 00       		.uleb128 0x0
 2104 042c 14       		.uleb128 0x14
 2105 042d 3C040000 		.4byte	.LASF56
 2106 0431 08       		.byte	0x8
 2107 0432 B402     		.2byte	0x2b4
 2108 0434 40030000 		.4byte	0x340
 2109 0438 02       		.byte	0x2
 2110 0439 23       		.byte	0x23
 2111 043a 04       		.uleb128 0x4
 2112 043b 0C       		.uleb128 0xc
 2113 043c 50415200 		.ascii	"PAR\000"
 2114 0440 08       		.byte	0x8
 2115 0441 B502     		.2byte	0x2b5
 2116 0443 40030000 		.4byte	0x340
 2117 0447 02       		.byte	0x2
 2118 0448 23       		.byte	0x23
 2119 0449 08       		.uleb128 0x8
 2120 044a 14       		.uleb128 0x14
 2121 044b 44000000 		.4byte	.LASF57
 2122 044f 08       		.byte	0x8
 2123 0450 B602     		.2byte	0x2b6
 2124 0452 40030000 		.4byte	0x340
 2125 0456 02       		.byte	0x2
 2126 0457 23       		.byte	0x23
 2127 0458 0C       		.uleb128 0xc
 2128 0459 14       		.uleb128 0x14
 2129 045a 91040000 		.4byte	.LASF58
 2130 045e 08       		.byte	0x8
 2131 045f B702     		.2byte	0x2b7
 2132 0461 40030000 		.4byte	0x340
 2133 0465 02       		.byte	0x2
 2134 0466 23       		.byte	0x23
 2135 0467 10       		.uleb128 0x10
 2136 0468 0C       		.uleb128 0xc
 2137 0469 46435200 		.ascii	"FCR\000"
 2138 046d 08       		.byte	0x8
 2139 046e B802     		.2byte	0x2b8
 2140 0470 40030000 		.4byte	0x340
 2141 0474 02       		.byte	0x2
 2142 0475 23       		.byte	0x23
 2143 0476 14       		.uleb128 0x14
 2144 0477 00       		.byte	0x0
 2145 0478 15       		.uleb128 0x15
 2146 0479 41040000 		.4byte	.LASF59
 2147 047d 08       		.byte	0x8
 2148 047e B902     		.2byte	0x2b9
 2149 0480 15040000 		.4byte	0x415
 2150 0484 08       		.uleb128 0x8
 2151 0485 0C       		.byte	0xc
 2152 0486 09       		.byte	0x9
ARM GAS  C:\Users\DNIEL~1\AppData\Local\Temp\ccON3PQQ.s 			page 39


 2153 0487 DA       		.byte	0xda
 2154 0488 D3040000 		.4byte	0x4d3
 2155 048c 06       		.uleb128 0x6
 2156 048d 4E000000 		.4byte	.LASF60
 2157 0491 09       		.byte	0x9
 2158 0492 DB       		.byte	0xdb
 2159 0493 D3040000 		.4byte	0x4d3
 2160 0497 02       		.byte	0x2
 2161 0498 23       		.byte	0x23
 2162 0499 00       		.uleb128 0x0
 2163 049a 06       		.uleb128 0x6
 2164 049b D8030000 		.4byte	.LASF61
 2165 049f 09       		.byte	0x9
 2166 04a0 DC       		.byte	0xdc
 2167 04a1 D9040000 		.4byte	0x4d9
 2168 04a5 02       		.byte	0x2
 2169 04a6 23       		.byte	0x23
 2170 04a7 04       		.uleb128 0x4
 2171 04a8 06       		.uleb128 0x6
 2172 04a9 C3010000 		.4byte	.LASF62
 2173 04ad 09       		.byte	0x9
 2174 04ae DD       		.byte	0xdd
 2175 04af 3E000000 		.4byte	0x3e
 2176 04b3 02       		.byte	0x2
 2177 04b4 23       		.byte	0x23
 2178 04b5 08       		.uleb128 0x8
 2179 04b6 06       		.uleb128 0x6
 2180 04b7 71010000 		.4byte	.LASF63
 2181 04bb 09       		.byte	0x9
 2182 04bc DF       		.byte	0xdf
 2183 04bd 3E000000 		.4byte	0x3e
 2184 04c1 02       		.byte	0x2
 2185 04c2 23       		.byte	0x23
 2186 04c3 09       		.uleb128 0x9
 2187 04c4 06       		.uleb128 0x6
 2188 04c5 75000000 		.4byte	.LASF64
 2189 04c9 09       		.byte	0x9
 2190 04ca E0       		.byte	0xe0
 2191 04cb 3E000000 		.4byte	0x3e
 2192 04cf 02       		.byte	0x2
 2193 04d0 23       		.byte	0x23
 2194 04d1 0A       		.uleb128 0xa
 2195 04d2 00       		.byte	0x0
 2196 04d3 09       		.uleb128 0x9
 2197 04d4 04       		.byte	0x4
 2198 04d5 78040000 		.4byte	0x478
 2199 04d9 09       		.uleb128 0x9
 2200 04da 04       		.byte	0x4
 2201 04db 40030000 		.4byte	0x340
 2202 04df 04       		.uleb128 0x4
 2203 04e0 ED020000 		.4byte	.LASF65
 2204 04e4 09       		.byte	0x9
 2205 04e5 E1       		.byte	0xe1
 2206 04e6 84040000 		.4byte	0x484
 2207 04ea 16       		.uleb128 0x16
 2208 04eb 01       		.byte	0x1
 2209 04ec 0A       		.byte	0xa
ARM GAS  C:\Users\DNIEL~1\AppData\Local\Temp\ccON3PQQ.s 			page 40


 2210 04ed 33       		.byte	0x33
 2211 04ee 29050000 		.4byte	0x529
 2212 04f2 17       		.uleb128 0x17
 2213 04f3 12010000 		.4byte	.LASF66
 2214 04f7 00       		.sleb128 0
 2215 04f8 17       		.uleb128 0x17
 2216 04f9 41010000 		.4byte	.LASF67
 2217 04fd 01       		.sleb128 1
 2218 04fe 17       		.uleb128 0x17
 2219 04ff EB010000 		.4byte	.LASF68
 2220 0503 02       		.sleb128 2
 2221 0504 17       		.uleb128 0x17
 2222 0505 FC010000 		.4byte	.LASF69
 2223 0509 03       		.sleb128 3
 2224 050a 17       		.uleb128 0x17
 2225 050b 02040000 		.4byte	.LASF70
 2226 050f 04       		.sleb128 4
 2227 0510 17       		.uleb128 0x17
 2228 0511 72020000 		.4byte	.LASF71
 2229 0515 05       		.sleb128 5
 2230 0516 17       		.uleb128 0x17
 2231 0517 31020000 		.4byte	.LASF72
 2232 051b 06       		.sleb128 6
 2233 051c 17       		.uleb128 0x17
 2234 051d 82030000 		.4byte	.LASF73
 2235 0521 07       		.sleb128 7
 2236 0522 17       		.uleb128 0x17
 2237 0523 35010000 		.4byte	.LASF74
 2238 0527 08       		.sleb128 8
 2239 0528 00       		.byte	0x0
 2240 0529 04       		.uleb128 0x4
 2241 052a 92000000 		.4byte	.LASF75
 2242 052e 0A       		.byte	0xa
 2243 052f 3D       		.byte	0x3d
 2244 0530 EA040000 		.4byte	0x4ea
 2245 0534 08       		.uleb128 0x8
 2246 0535 08       		.byte	0x8
 2247 0536 0A       		.byte	0xa
 2248 0537 42       		.byte	0x42
 2249 0538 59050000 		.4byte	0x559
 2250 053c 06       		.uleb128 0x6
 2251 053d 81010000 		.4byte	.LASF76
 2252 0541 0A       		.byte	0xa
 2253 0542 43       		.byte	0x43
 2254 0543 70000000 		.4byte	0x70
 2255 0547 02       		.byte	0x2
 2256 0548 23       		.byte	0x23
 2257 0549 00       		.uleb128 0x0
 2258 054a 06       		.uleb128 0x6
 2259 054b 28000000 		.4byte	.LASF77
 2260 054f 0A       		.byte	0xa
 2261 0550 44       		.byte	0x44
 2262 0551 70000000 		.4byte	0x70
 2263 0555 02       		.byte	0x2
 2264 0556 23       		.byte	0x23
 2265 0557 04       		.uleb128 0x4
 2266 0558 00       		.byte	0x0
ARM GAS  C:\Users\DNIEL~1\AppData\Local\Temp\ccON3PQQ.s 			page 41


 2267 0559 04       		.uleb128 0x4
 2268 055a 00000000 		.4byte	.LASF78
 2269 055e 0A       		.byte	0xa
 2270 055f 45       		.byte	0x45
 2271 0560 34050000 		.4byte	0x534
 2272 0564 18       		.uleb128 0x18
 2273 0565 01       		.byte	0x1
 2274 0566 90000000 		.4byte	0x90
 2275 056a 74050000 		.4byte	0x574
 2276 056e 19       		.uleb128 0x19
 2277 056f 8D020000 		.4byte	0x28d
 2278 0573 00       		.byte	0x0
 2279 0574 09       		.uleb128 0x9
 2280 0575 04       		.byte	0x4
 2281 0576 64050000 		.4byte	0x564
 2282 057a 18       		.uleb128 0x18
 2283 057b 01       		.byte	0x1
 2284 057c 90000000 		.4byte	0x90
 2285 0580 99050000 		.4byte	0x599
 2286 0584 19       		.uleb128 0x19
 2287 0585 8D020000 		.4byte	0x28d
 2288 0589 19       		.uleb128 0x19
 2289 058a 70000000 		.4byte	0x70
 2290 058e 19       		.uleb128 0x19
 2291 058f DF030000 		.4byte	0x3df
 2292 0593 19       		.uleb128 0x19
 2293 0594 70000000 		.4byte	0x70
 2294 0598 00       		.byte	0x0
 2295 0599 09       		.uleb128 0x9
 2296 059a 04       		.byte	0x4
 2297 059b 7A050000 		.4byte	0x57a
 2298 059f 18       		.uleb128 0x18
 2299 05a0 01       		.byte	0x1
 2300 05a1 90000000 		.4byte	0x90
 2301 05a5 BE050000 		.4byte	0x5be
 2302 05a9 19       		.uleb128 0x19
 2303 05aa 8D020000 		.4byte	0x28d
 2304 05ae 19       		.uleb128 0x19
 2305 05af 70000000 		.4byte	0x70
 2306 05b3 19       		.uleb128 0x19
 2307 05b4 E5030000 		.4byte	0x3e5
 2308 05b8 19       		.uleb128 0x19
 2309 05b9 70000000 		.4byte	0x70
 2310 05bd 00       		.byte	0x0
 2311 05be 09       		.uleb128 0x9
 2312 05bf 04       		.byte	0x4
 2313 05c0 9F050000 		.4byte	0x59f
 2314 05c4 18       		.uleb128 0x18
 2315 05c5 01       		.byte	0x1
 2316 05c6 90000000 		.4byte	0x90
 2317 05ca D9050000 		.4byte	0x5d9
 2318 05ce 19       		.uleb128 0x19
 2319 05cf 8D020000 		.4byte	0x28d
 2320 05d3 19       		.uleb128 0x19
 2321 05d4 D9050000 		.4byte	0x5d9
 2322 05d8 00       		.byte	0x0
 2323 05d9 09       		.uleb128 0x9
ARM GAS  C:\Users\DNIEL~1\AppData\Local\Temp\ccON3PQQ.s 			page 42


 2324 05da 04       		.byte	0x4
 2325 05db 59050000 		.4byte	0x559
 2326 05df 09       		.uleb128 0x9
 2327 05e0 04       		.byte	0x4
 2328 05e1 C4050000 		.4byte	0x5c4
 2329 05e5 09       		.uleb128 0x9
 2330 05e6 04       		.byte	0x4
 2331 05e7 EB050000 		.4byte	0x5eb
 2332 05eb 10       		.uleb128 0x10
 2333 05ec DF040000 		.4byte	0x4df
 2334 05f0 16       		.uleb128 0x16
 2335 05f1 01       		.byte	0x1
 2336 05f2 0B       		.byte	0xb
 2337 05f3 B6       		.byte	0xb6
 2338 05f4 0B060000 		.4byte	0x60b
 2339 05f8 17       		.uleb128 0x17
 2340 05f9 CC000000 		.4byte	.LASF79
 2341 05fd 00       		.sleb128 0
 2342 05fe 17       		.uleb128 0x17
 2343 05ff 5D040000 		.4byte	.LASF80
 2344 0603 01       		.sleb128 1
 2345 0604 17       		.uleb128 0x17
 2346 0605 CA010000 		.4byte	.LASF81
 2347 0609 02       		.sleb128 2
 2348 060a 00       		.byte	0x0
 2349 060b 04       		.uleb128 0x4
 2350 060c 8A010000 		.4byte	.LASF82
 2351 0610 0B       		.byte	0xb
 2352 0611 BF       		.byte	0xbf
 2353 0612 70000000 		.4byte	0x70
 2354 0616 04       		.uleb128 0x4
 2355 0617 73040000 		.4byte	.LASF83
 2356 061b 0B       		.byte	0xb
 2357 061c C4       		.byte	0xc4
 2358 061d 70000000 		.4byte	0x70
 2359 0621 04       		.uleb128 0x4
 2360 0622 0E050000 		.4byte	.LASF84
 2361 0626 0B       		.byte	0xb
 2362 0627 C9       		.byte	0xc9
 2363 0628 2C060000 		.4byte	0x62c
 2364 062c 05       		.uleb128 0x5
 2365 062d 0E050000 		.4byte	.LASF84
 2366 0631 48       		.byte	0x48
 2367 0632 0B       		.byte	0xb
 2368 0633 E5       		.byte	0xe5
 2369 0634 E3060000 		.4byte	0x6e3
 2370 0638 07       		.uleb128 0x7
 2371 0639 766D7400 		.ascii	"vmt\000"
 2372 063d 0B       		.byte	0xb
 2373 063e E9       		.byte	0xe9
 2374 063f 82070000 		.4byte	0x782
 2375 0643 02       		.byte	0x2
 2376 0644 23       		.byte	0x23
 2377 0645 00       		.uleb128 0x0
 2378 0646 06       		.uleb128 0x6
 2379 0647 1D010000 		.4byte	.LASF85
 2380 064b 0B       		.byte	0xb
ARM GAS  C:\Users\DNIEL~1\AppData\Local\Temp\ccON3PQQ.s 			page 43


 2381 064c EA       		.byte	0xea
 2382 064d 29050000 		.4byte	0x529
 2383 0651 02       		.byte	0x2
 2384 0652 23       		.byte	0x23
 2385 0653 04       		.uleb128 0x4
 2386 0654 07       		.uleb128 0x7
 2387 0655 63696400 		.ascii	"cid\000"
 2388 0659 0B       		.byte	0xb
 2389 065a EA       		.byte	0xea
 2390 065b F0030000 		.4byte	0x3f0
 2391 065f 02       		.byte	0x2
 2392 0660 23       		.byte	0x23
 2393 0661 08       		.uleb128 0x8
 2394 0662 07       		.uleb128 0x7
 2395 0663 63736400 		.ascii	"csd\000"
 2396 0667 0B       		.byte	0xb
 2397 0668 EA       		.byte	0xea
 2398 0669 F0030000 		.4byte	0x3f0
 2399 066d 02       		.byte	0x2
 2400 066e 23       		.byte	0x23
 2401 066f 18       		.uleb128 0x18
 2402 0670 06       		.uleb128 0x6
 2403 0671 10000000 		.4byte	.LASF86
 2404 0675 0B       		.byte	0xb
 2405 0676 EA       		.byte	0xea
 2406 0677 70000000 		.4byte	0x70
 2407 067b 02       		.byte	0x2
 2408 067c 23       		.byte	0x23
 2409 067d 28       		.uleb128 0x28
 2410 067e 06       		.uleb128 0x6
 2411 067f 14040000 		.4byte	.LASF87
 2412 0683 0B       		.byte	0xb
 2413 0684 EE       		.byte	0xee
 2414 0685 8D070000 		.4byte	0x78d
 2415 0689 02       		.byte	0x2
 2416 068a 23       		.byte	0x23
 2417 068b 2C       		.uleb128 0x2c
 2418 068c 06       		.uleb128 0x6
 2419 068d 7C000000 		.4byte	.LASF88
 2420 0691 0B       		.byte	0xb
 2421 0692 F2       		.byte	0xf2
 2422 0693 0B060000 		.4byte	0x60b
 2423 0697 02       		.byte	0x2
 2424 0698 23       		.byte	0x23
 2425 0699 30       		.uleb128 0x30
 2426 069a 06       		.uleb128 0x6
 2427 069b B1010000 		.4byte	.LASF89
 2428 069f 0B       		.byte	0xb
 2429 06a0 F6       		.byte	0xf6
 2430 06a1 16060000 		.4byte	0x616
 2431 06a5 02       		.byte	0x2
 2432 06a6 23       		.byte	0x23
 2433 06a7 34       		.uleb128 0x34
 2434 06a8 07       		.uleb128 0x7
 2435 06a9 72636100 		.ascii	"rca\000"
 2436 06ad 0B       		.byte	0xb
 2437 06ae FA       		.byte	0xfa
ARM GAS  C:\Users\DNIEL~1\AppData\Local\Temp\ccON3PQQ.s 			page 44


 2438 06af 70000000 		.4byte	0x70
 2439 06b3 02       		.byte	0x2
 2440 06b4 23       		.byte	0x23
 2441 06b5 38       		.uleb128 0x38
 2442 06b6 06       		.uleb128 0x6
 2443 06b7 10030000 		.4byte	.LASF90
 2444 06bb 0B       		.byte	0xb
 2445 06bc FF       		.byte	0xff
 2446 06bd 4F020000 		.4byte	0x24f
 2447 06c1 02       		.byte	0x2
 2448 06c2 23       		.byte	0x23
 2449 06c3 3C       		.uleb128 0x3c
 2450 06c4 14       		.uleb128 0x14
 2451 06c5 E3040000 		.4byte	.LASF91
 2452 06c9 0B       		.byte	0xb
 2453 06ca 0301     		.2byte	0x103
 2454 06cc 70000000 		.4byte	0x70
 2455 06d0 02       		.byte	0x2
 2456 06d1 23       		.byte	0x23
 2457 06d2 40       		.uleb128 0x40
 2458 06d3 0C       		.uleb128 0xc
 2459 06d4 646D6100 		.ascii	"dma\000"
 2460 06d8 0B       		.byte	0xb
 2461 06d9 0701     		.2byte	0x107
 2462 06db E5050000 		.4byte	0x5e5
 2463 06df 02       		.byte	0x2
 2464 06e0 23       		.byte	0x23
 2465 06e1 44       		.uleb128 0x44
 2466 06e2 00       		.byte	0x0
 2467 06e3 08       		.uleb128 0x8
 2468 06e4 04       		.byte	0x4
 2469 06e5 0B       		.byte	0xb
 2470 06e6 CF       		.byte	0xcf
 2471 06e7 FA060000 		.4byte	0x6fa
 2472 06eb 06       		.uleb128 0x6
 2473 06ec 7B010000 		.4byte	.LASF92
 2474 06f0 0B       		.byte	0xb
 2475 06f1 D0       		.byte	0xd0
 2476 06f2 70000000 		.4byte	0x70
 2477 06f6 02       		.byte	0x2
 2478 06f7 23       		.byte	0x23
 2479 06f8 00       		.uleb128 0x0
 2480 06f9 00       		.byte	0x0
 2481 06fa 04       		.uleb128 0x4
 2482 06fb C4040000 		.4byte	.LASF93
 2483 06ff 0B       		.byte	0xb
 2484 0700 D1       		.byte	0xd1
 2485 0701 E3060000 		.4byte	0x6e3
 2486 0705 05       		.uleb128 0x5
 2487 0706 52010000 		.4byte	.LASF94
 2488 070a 20       		.byte	0x20
 2489 070b 0B       		.byte	0xb
 2490 070c DE       		.byte	0xde
 2491 070d 82070000 		.4byte	0x782
 2492 0711 06       		.uleb128 0x6
 2493 0712 85040000 		.4byte	.LASF95
 2494 0716 0B       		.byte	0xb
ARM GAS  C:\Users\DNIEL~1\AppData\Local\Temp\ccON3PQQ.s 			page 45


 2495 0717 DF       		.byte	0xdf
 2496 0718 74050000 		.4byte	0x574
 2497 071c 02       		.byte	0x2
 2498 071d 23       		.byte	0x23
 2499 071e 00       		.uleb128 0x0
 2500 071f 06       		.uleb128 0x6
 2501 0720 37000000 		.4byte	.LASF96
 2502 0724 0B       		.byte	0xb
 2503 0725 DF       		.byte	0xdf
 2504 0726 74050000 		.4byte	0x574
 2505 072a 02       		.byte	0x2
 2506 072b 23       		.byte	0x23
 2507 072c 04       		.uleb128 0x4
 2508 072d 06       		.uleb128 0x6
 2509 072e C5030000 		.4byte	.LASF97
 2510 0732 0B       		.byte	0xb
 2511 0733 DF       		.byte	0xdf
 2512 0734 74050000 		.4byte	0x574
 2513 0738 02       		.byte	0x2
 2514 0739 23       		.byte	0x23
 2515 073a 08       		.uleb128 0x8
 2516 073b 06       		.uleb128 0x6
 2517 073c F1000000 		.4byte	.LASF98
 2518 0740 0B       		.byte	0xb
 2519 0741 DF       		.byte	0xdf
 2520 0742 74050000 		.4byte	0x574
 2521 0746 02       		.byte	0x2
 2522 0747 23       		.byte	0x23
 2523 0748 0C       		.uleb128 0xc
 2524 0749 06       		.uleb128 0x6
 2525 074a F8030000 		.4byte	.LASF99
 2526 074e 0B       		.byte	0xb
 2527 074f DF       		.byte	0xdf
 2528 0750 99050000 		.4byte	0x599
 2529 0754 02       		.byte	0x2
 2530 0755 23       		.byte	0x23
 2531 0756 10       		.uleb128 0x10
 2532 0757 06       		.uleb128 0x6
 2533 0758 2B020000 		.4byte	.LASF100
 2534 075c 0B       		.byte	0xb
 2535 075d DF       		.byte	0xdf
 2536 075e BE050000 		.4byte	0x5be
 2537 0762 02       		.byte	0x2
 2538 0763 23       		.byte	0x23
 2539 0764 14       		.uleb128 0x14
 2540 0765 06       		.uleb128 0x6
 2541 0766 D8020000 		.4byte	.LASF101
 2542 076a 0B       		.byte	0xb
 2543 076b DF       		.byte	0xdf
 2544 076c 74050000 		.4byte	0x574
 2545 0770 02       		.byte	0x2
 2546 0771 23       		.byte	0x23
 2547 0772 18       		.uleb128 0x18
 2548 0773 06       		.uleb128 0x6
 2549 0774 5F010000 		.4byte	.LASF102
 2550 0778 0B       		.byte	0xb
 2551 0779 DF       		.byte	0xdf
ARM GAS  C:\Users\DNIEL~1\AppData\Local\Temp\ccON3PQQ.s 			page 46


 2552 077a DF050000 		.4byte	0x5df
 2553 077e 02       		.byte	0x2
 2554 077f 23       		.byte	0x23
 2555 0780 1C       		.uleb128 0x1c
 2556 0781 00       		.byte	0x0
 2557 0782 09       		.uleb128 0x9
 2558 0783 04       		.byte	0x4
 2559 0784 88070000 		.4byte	0x788
 2560 0788 10       		.uleb128 0x10
 2561 0789 05070000 		.4byte	0x705
 2562 078d 09       		.uleb128 0x9
 2563 078e 04       		.byte	0x4
 2564 078f 93070000 		.4byte	0x793
 2565 0793 10       		.uleb128 0x10
 2566 0794 FA060000 		.4byte	0x6fa
 2567 0798 1A       		.uleb128 0x1a
 2568 0799 01       		.byte	0x1
 2569 079a B2040000 		.4byte	.LASF105
 2570 079e 01       		.byte	0x1
 2571 079f 0002     		.2byte	0x200
 2572 07a1 01       		.byte	0x1
 2573 07a2 90000000 		.4byte	0x90
 2574 07a6 00000000 		.4byte	.LFB129
 2575 07aa 18000000 		.4byte	.LFE129
 2576 07ae 02       		.byte	0x2
 2577 07af 7D       		.byte	0x7d
 2578 07b0 00       		.sleb128 0
 2579 07b1 D4070000 		.4byte	0x7d4
 2580 07b5 1B       		.uleb128 0x1b
 2581 07b6 1B040000 		.4byte	.LASF103
 2582 07ba 01       		.byte	0x1
 2583 07bb 0002     		.2byte	0x200
 2584 07bd D4070000 		.4byte	0x7d4
 2585 07c1 00000000 		.4byte	.LLST0
 2586 07c5 1C       		.uleb128 0x1c
 2587 07c6 49000000 		.4byte	.LASF104
 2588 07ca 01       		.byte	0x1
 2589 07cb 0002     		.2byte	0x200
 2590 07cd D9050000 		.4byte	0x5d9
 2591 07d1 01       		.byte	0x1
 2592 07d2 51       		.byte	0x51
 2593 07d3 00       		.byte	0x0
 2594 07d4 09       		.uleb128 0x9
 2595 07d5 04       		.byte	0x4
 2596 07d6 21060000 		.4byte	0x621
 2597 07da 1D       		.uleb128 0x1d
 2598 07db 01       		.byte	0x1
 2599 07dc 89020000 		.4byte	.LASF106
 2600 07e0 01       		.byte	0x1
 2601 07e1 E201     		.2byte	0x1e2
 2602 07e3 01       		.byte	0x1
 2603 07e4 90000000 		.4byte	0x90
 2604 07e8 00000000 		.4byte	.LFB128
 2605 07ec 1A000000 		.4byte	.LFE128
 2606 07f0 1E000000 		.4byte	.LLST1
 2607 07f4 17080000 		.4byte	0x817
 2608 07f8 1B       		.uleb128 0x1b
ARM GAS  C:\Users\DNIEL~1\AppData\Local\Temp\ccON3PQQ.s 			page 47


 2609 07f9 1B040000 		.4byte	.LASF103
 2610 07fd 01       		.byte	0x1
 2611 07fe E201     		.2byte	0x1e2
 2612 0800 D4070000 		.4byte	0x7d4
 2613 0804 3E000000 		.4byte	.LLST2
 2614 0808 1E       		.uleb128 0x1e
 2615 0809 07050000 		.4byte	.LASF109
 2616 080d 01       		.byte	0x1
 2617 080e E301     		.2byte	0x1e3
 2618 0810 90000000 		.4byte	0x90
 2619 0814 01       		.byte	0x1
 2620 0815 50       		.byte	0x50
 2621 0816 00       		.byte	0x0
 2622 0817 1D       		.uleb128 0x1d
 2623 0818 01       		.byte	0x1
 2624 0819 69020000 		.4byte	.LASF107
 2625 081d 01       		.byte	0x1
 2626 081e AB01     		.2byte	0x1ab
 2627 0820 01       		.byte	0x1
 2628 0821 90000000 		.4byte	0x90
 2629 0825 00000000 		.4byte	.LFB126
 2630 0829 28000000 		.4byte	.LFE126
 2631 082d 5C000000 		.4byte	.LLST3
 2632 0831 82080000 		.4byte	0x882
 2633 0835 1B       		.uleb128 0x1b
 2634 0836 1B040000 		.4byte	.LASF103
 2635 083a 01       		.byte	0x1
 2636 083b AB01     		.2byte	0x1ab
 2637 083d D4070000 		.4byte	0x7d4
 2638 0841 7C000000 		.4byte	.LLST4
 2639 0845 1B       		.uleb128 0x1b
 2640 0846 54040000 		.4byte	.LASF108
 2641 084a 01       		.byte	0x1
 2642 084b AB01     		.2byte	0x1ab
 2643 084d 70000000 		.4byte	0x70
 2644 0851 9A000000 		.4byte	.LLST5
 2645 0855 1F       		.uleb128 0x1f
 2646 0856 62756600 		.ascii	"buf\000"
 2647 085a 01       		.byte	0x1
 2648 085b AC01     		.2byte	0x1ac
 2649 085d E5030000 		.4byte	0x3e5
 2650 0861 B8000000 		.4byte	.LLST6
 2651 0865 1F       		.uleb128 0x1f
 2652 0866 6E00     		.ascii	"n\000"
 2653 0868 01       		.byte	0x1
 2654 0869 AC01     		.2byte	0x1ac
 2655 086b 70000000 		.4byte	0x70
 2656 086f CB000000 		.4byte	.LLST7
 2657 0873 1E       		.uleb128 0x1e
 2658 0874 BD040000 		.4byte	.LASF110
 2659 0878 01       		.byte	0x1
 2660 0879 AD01     		.2byte	0x1ad
 2661 087b 90000000 		.4byte	0x90
 2662 087f 01       		.byte	0x1
 2663 0880 50       		.byte	0x50
 2664 0881 00       		.byte	0x0
 2665 0882 1D       		.uleb128 0x1d
ARM GAS  C:\Users\DNIEL~1\AppData\Local\Temp\ccON3PQQ.s 			page 48


 2666 0883 01       		.byte	0x1
 2667 0884 98020000 		.4byte	.LASF111
 2668 0888 01       		.byte	0x1
 2669 0889 8501     		.2byte	0x185
 2670 088b 01       		.byte	0x1
 2671 088c 90000000 		.4byte	0x90
 2672 0890 00000000 		.4byte	.LFB125
 2673 0894 28000000 		.4byte	.LFE125
 2674 0898 E9000000 		.4byte	.LLST8
 2675 089c ED080000 		.4byte	0x8ed
 2676 08a0 1B       		.uleb128 0x1b
 2677 08a1 1B040000 		.4byte	.LASF103
 2678 08a5 01       		.byte	0x1
 2679 08a6 8501     		.2byte	0x185
 2680 08a8 D4070000 		.4byte	0x7d4
 2681 08ac 09010000 		.4byte	.LLST9
 2682 08b0 1B       		.uleb128 0x1b
 2683 08b1 54040000 		.4byte	.LASF108
 2684 08b5 01       		.byte	0x1
 2685 08b6 8501     		.2byte	0x185
 2686 08b8 70000000 		.4byte	0x70
 2687 08bc 27010000 		.4byte	.LLST10
 2688 08c0 1F       		.uleb128 0x1f
 2689 08c1 62756600 		.ascii	"buf\000"
 2690 08c5 01       		.byte	0x1
 2691 08c6 8601     		.2byte	0x186
 2692 08c8 DF030000 		.4byte	0x3df
 2693 08cc 45010000 		.4byte	.LLST11
 2694 08d0 1F       		.uleb128 0x1f
 2695 08d1 6E00     		.ascii	"n\000"
 2696 08d3 01       		.byte	0x1
 2697 08d4 8601     		.2byte	0x186
 2698 08d6 70000000 		.4byte	0x70
 2699 08da 58010000 		.4byte	.LLST12
 2700 08de 1E       		.uleb128 0x1e
 2701 08df BD040000 		.4byte	.LASF110
 2702 08e3 01       		.byte	0x1
 2703 08e4 8701     		.2byte	0x187
 2704 08e6 90000000 		.4byte	0x90
 2705 08ea 01       		.byte	0x1
 2706 08eb 50       		.byte	0x50
 2707 08ec 00       		.byte	0x0
 2708 08ed 20       		.uleb128 0x20
 2709 08ee 01       		.byte	0x1
 2710 08ef A6010000 		.4byte	.LASF112
 2711 08f3 01       		.byte	0x1
 2712 08f4 C6       		.byte	0xc6
 2713 08f5 01       		.byte	0x1
 2714 08f6 90000000 		.4byte	0x90
 2715 08fa 00000000 		.4byte	.LFB123
 2716 08fe 4C020000 		.4byte	.LFE123
 2717 0902 76010000 		.4byte	.LLST13
 2718 0906 56090000 		.4byte	0x956
 2719 090a 21       		.uleb128 0x21
 2720 090b 1B040000 		.4byte	.LASF103
 2721 090f 01       		.byte	0x1
 2722 0910 C6       		.byte	0xc6
ARM GAS  C:\Users\DNIEL~1\AppData\Local\Temp\ccON3PQQ.s 			page 49


 2723 0911 D4070000 		.4byte	0x7d4
 2724 0915 A2010000 		.4byte	.LLST14
 2725 0919 22       		.uleb128 0x22
 2726 091a 94010000 		.4byte	.LASF113
 2727 091e 01       		.byte	0x1
 2728 091f C7       		.byte	0xc7
 2729 0920 00040000 		.4byte	0x400
 2730 0924 02       		.byte	0x2
 2731 0925 91       		.byte	0x91
 2732 0926 64       		.sleb128 -28
 2733 0927 23       		.uleb128 0x23
 2734 0928 91020000 		.4byte	.LASF123
 2735 092c 01       		.byte	0x1
 2736 092d 4901     		.2byte	0x149
 2737 092f 38000000 		.4byte	.L18
 2738 0933 24       		.uleb128 0x24
 2739 0934 00000000 		.4byte	.Ldebug_ranges0+0x0
 2740 0938 25       		.uleb128 0x25
 2741 0939 6900     		.ascii	"i\000"
 2742 093b 01       		.byte	0x1
 2743 093c F9       		.byte	0xf9
 2744 093d 30000000 		.4byte	0x30
 2745 0941 C0010000 		.4byte	.LLST15
 2746 0945 25       		.uleb128 0x25
 2747 0946 6F637200 		.ascii	"ocr\000"
 2748 094a 01       		.byte	0x1
 2749 094b FA       		.byte	0xfa
 2750 094c 70000000 		.4byte	0x70
 2751 0950 F5010000 		.4byte	.LLST16
 2752 0954 00       		.byte	0x0
 2753 0955 00       		.byte	0x0
 2754 0956 20       		.uleb128 0x20
 2755 0957 01       		.byte	0x1
 2756 0958 3D020000 		.4byte	.LASF114
 2757 095c 01       		.byte	0x1
 2758 095d 52       		.byte	0x52
 2759 095e 01       		.byte	0x1
 2760 095f 90000000 		.4byte	0x90
 2761 0963 00000000 		.4byte	.LFB118
 2762 0967 40000000 		.4byte	.LFE118
 2763 096b 13020000 		.4byte	.LLST17
 2764 096f 91090000 		.4byte	0x991
 2765 0973 21       		.uleb128 0x21
 2766 0974 1B040000 		.4byte	.LASF103
 2767 0978 01       		.byte	0x1
 2768 0979 52       		.byte	0x52
 2769 097a D4070000 		.4byte	0x7d4
 2770 097e 3F020000 		.4byte	.LLST18
 2771 0982 22       		.uleb128 0x22
 2772 0983 94010000 		.4byte	.LASF113
 2773 0987 01       		.byte	0x1
 2774 0988 53       		.byte	0x53
 2775 0989 00040000 		.4byte	0x400
 2776 098d 02       		.byte	0x2
 2777 098e 91       		.byte	0x91
 2778 098f 74       		.sleb128 -12
 2779 0990 00       		.byte	0x0
ARM GAS  C:\Users\DNIEL~1\AppData\Local\Temp\ccON3PQQ.s 			page 50


 2780 0991 1D       		.uleb128 0x1d
 2781 0992 01       		.byte	0x1
 2782 0993 9D000000 		.4byte	.LASF115
 2783 0997 01       		.byte	0x1
 2784 0998 5A01     		.2byte	0x15a
 2785 099a 01       		.byte	0x1
 2786 099b 90000000 		.4byte	0x90
 2787 099f 00000000 		.4byte	.LFB124
 2788 09a3 48000000 		.4byte	.LFE124
 2789 09a7 5D020000 		.4byte	.LLST19
 2790 09ab 160A0000 		.4byte	0xa16
 2791 09af 1B       		.uleb128 0x1b
 2792 09b0 1B040000 		.4byte	.LASF103
 2793 09b4 01       		.byte	0x1
 2794 09b5 5A01     		.2byte	0x15a
 2795 09b7 D4070000 		.4byte	0x7d4
 2796 09bb 7D020000 		.4byte	.LLST20
 2797 09bf 26       		.uleb128 0x26
 2798 09c0 04000000 		.4byte	.LBB4
 2799 09c4 0A000000 		.4byte	.LBE4
 2800 09c8 DD090000 		.4byte	0x9dd
 2801 09cc 27       		.uleb128 0x27
 2802 09cd 746D7000 		.ascii	"tmp\000"
 2803 09d1 01       		.byte	0x1
 2804 09d2 5E01     		.2byte	0x15e
 2805 09d4 70000000 		.4byte	0x70
 2806 09d8 9B020000 		.4byte	.LLST21
 2807 09dc 00       		.byte	0x0
 2808 09dd 26       		.uleb128 0x26
 2809 09de 14000000 		.4byte	.LBB5
 2810 09e2 1A000000 		.4byte	.LBE5
 2811 09e6 FB090000 		.4byte	0x9fb
 2812 09ea 27       		.uleb128 0x27
 2813 09eb 746D7000 		.ascii	"tmp\000"
 2814 09ef 01       		.byte	0x1
 2815 09f0 6601     		.2byte	0x166
 2816 09f2 70000000 		.4byte	0x70
 2817 09f6 AE020000 		.4byte	.LLST22
 2818 09fa 00       		.byte	0x0
 2819 09fb 28       		.uleb128 0x28
 2820 09fc 3E000000 		.4byte	.LBB6
 2821 0a00 44000000 		.4byte	.LBE6
 2822 0a04 27       		.uleb128 0x27
 2823 0a05 746D7000 		.ascii	"tmp\000"
 2824 0a09 01       		.byte	0x1
 2825 0a0a 6201     		.2byte	0x162
 2826 0a0c 70000000 		.4byte	0x70
 2827 0a10 C1020000 		.4byte	.LLST23
 2828 0a14 00       		.byte	0x0
 2829 0a15 00       		.byte	0x0
 2830 0a16 29       		.uleb128 0x29
 2831 0a17 01       		.byte	0x1
 2832 0a18 19000000 		.4byte	.LASF129
 2833 0a1c 01       		.byte	0x1
 2834 0a1d 79       		.byte	0x79
 2835 0a1e 01       		.byte	0x1
 2836 0a1f 00000000 		.4byte	.LFB119
ARM GAS  C:\Users\DNIEL~1\AppData\Local\Temp\ccON3PQQ.s 			page 51


 2837 0a23 04000000 		.4byte	.LFE119
 2838 0a27 02       		.byte	0x2
 2839 0a28 7D       		.byte	0x7d
 2840 0a29 00       		.sleb128 0
 2841 0a2a 2A       		.uleb128 0x2a
 2842 0a2b 01       		.byte	0x1
 2843 0a2c C2020000 		.4byte	.LASF116
 2844 0a30 01       		.byte	0x1
 2845 0a31 85       		.byte	0x85
 2846 0a32 01       		.byte	0x1
 2847 0a33 00000000 		.4byte	.LFB120
 2848 0a37 18000000 		.4byte	.LFE120
 2849 0a3b 02       		.byte	0x2
 2850 0a3c 7D       		.byte	0x7d
 2851 0a3d 00       		.sleb128 0
 2852 0a3e 500A0000 		.4byte	0xa50
 2853 0a42 2B       		.uleb128 0x2b
 2854 0a43 1B040000 		.4byte	.LASF103
 2855 0a47 01       		.byte	0x1
 2856 0a48 85       		.byte	0x85
 2857 0a49 D4070000 		.4byte	0x7d4
 2858 0a4d 01       		.byte	0x1
 2859 0a4e 50       		.byte	0x50
 2860 0a4f 00       		.byte	0x0
 2861 0a50 2C       		.uleb128 0x2c
 2862 0a51 01       		.byte	0x1
 2863 0a52 DD020000 		.4byte	.LASF117
 2864 0a56 01       		.byte	0x1
 2865 0a57 98       		.byte	0x98
 2866 0a58 01       		.byte	0x1
 2867 0a59 00000000 		.4byte	.LFB121
 2868 0a5d 1C000000 		.4byte	.LFE121
 2869 0a61 D4020000 		.4byte	.LLST24
 2870 0a65 BA0A0000 		.4byte	0xaba
 2871 0a69 21       		.uleb128 0x21
 2872 0a6a 1B040000 		.4byte	.LASF103
 2873 0a6e 01       		.byte	0x1
 2874 0a6f 98       		.byte	0x98
 2875 0a70 D4070000 		.4byte	0x7d4
 2876 0a74 F4020000 		.4byte	.LLST25
 2877 0a78 21       		.uleb128 0x21
 2878 0a79 14040000 		.4byte	.LASF87
 2879 0a7d 01       		.byte	0x1
 2880 0a7e 98       		.byte	0x98
 2881 0a7f 8D070000 		.4byte	0x78d
 2882 0a83 12030000 		.4byte	.LLST26
 2883 0a87 2D       		.uleb128 0x2d
 2884 0a88 18000000 		.4byte	.Ldebug_ranges0+0x18
 2885 0a8c A00A0000 		.4byte	0xaa0
 2886 0a90 25       		.uleb128 0x25
 2887 0a91 746D7000 		.ascii	"tmp\000"
 2888 0a95 01       		.byte	0x1
 2889 0a96 9C       		.byte	0x9c
 2890 0a97 70000000 		.4byte	0x70
 2891 0a9b 25030000 		.4byte	.LLST27
 2892 0a9f 00       		.byte	0x0
 2893 0aa0 28       		.uleb128 0x28
ARM GAS  C:\Users\DNIEL~1\AppData\Local\Temp\ccON3PQQ.s 			page 52


 2894 0aa1 14000000 		.4byte	.LBB9
 2895 0aa5 1A000000 		.4byte	.LBE9
 2896 0aa9 25       		.uleb128 0x25
 2897 0aaa 746D7000 		.ascii	"tmp\000"
 2898 0aae 01       		.byte	0x1
 2899 0aaf A2       		.byte	0xa2
 2900 0ab0 70000000 		.4byte	0x70
 2901 0ab4 38030000 		.4byte	.LLST28
 2902 0ab8 00       		.byte	0x0
 2903 0ab9 00       		.byte	0x0
 2904 0aba 2C       		.uleb128 0x2c
 2905 0abb 01       		.byte	0x1
 2906 0abc 00030000 		.4byte	.LASF118
 2907 0ac0 01       		.byte	0x1
 2908 0ac1 AC       		.byte	0xac
 2909 0ac2 01       		.byte	0x1
 2910 0ac3 00000000 		.4byte	.LFB122
 2911 0ac7 1A000000 		.4byte	.LFE122
 2912 0acb 4B030000 		.4byte	.LLST29
 2913 0acf 150B0000 		.4byte	0xb15
 2914 0ad3 21       		.uleb128 0x21
 2915 0ad4 1B040000 		.4byte	.LASF103
 2916 0ad8 01       		.byte	0x1
 2917 0ad9 AC       		.byte	0xac
 2918 0ada D4070000 		.4byte	0x7d4
 2919 0ade 6B030000 		.4byte	.LLST30
 2920 0ae2 2D       		.uleb128 0x2d
 2921 0ae3 30000000 		.4byte	.Ldebug_ranges0+0x30
 2922 0ae7 FB0A0000 		.4byte	0xafb
 2923 0aeb 25       		.uleb128 0x25
 2924 0aec 746D7000 		.ascii	"tmp\000"
 2925 0af0 01       		.byte	0x1
 2926 0af1 B0       		.byte	0xb0
 2927 0af2 70000000 		.4byte	0x70
 2928 0af6 89030000 		.4byte	.LLST31
 2929 0afa 00       		.byte	0x0
 2930 0afb 28       		.uleb128 0x28
 2931 0afc 12000000 		.4byte	.LBB12
 2932 0b00 18000000 		.4byte	.LBE12
 2933 0b04 25       		.uleb128 0x25
 2934 0b05 746D7000 		.ascii	"tmp\000"
 2935 0b09 01       		.byte	0x1
 2936 0b0a B5       		.byte	0xb5
 2937 0b0b 70000000 		.4byte	0x70
 2938 0b0f 9C030000 		.4byte	.LLST32
 2939 0b13 00       		.byte	0x0
 2940 0b14 00       		.byte	0x0
 2941 0b15 1A       		.uleb128 0x1a
 2942 0b16 01       		.byte	0x1
 2943 0b17 96040000 		.4byte	.LASF119
 2944 0b1b 01       		.byte	0x1
 2945 0b1c C901     		.2byte	0x1c9
 2946 0b1e 01       		.byte	0x1
 2947 0b1f 16060000 		.4byte	0x616
 2948 0b23 00000000 		.4byte	.LFB127
 2949 0b27 14000000 		.4byte	.LFE127
 2950 0b2b 02       		.byte	0x2
ARM GAS  C:\Users\DNIEL~1\AppData\Local\Temp\ccON3PQQ.s 			page 53


 2951 0b2c 7D       		.byte	0x7d
 2952 0b2d 00       		.sleb128 0
 2953 0b2e 880B0000 		.4byte	0xb88
 2954 0b32 1B       		.uleb128 0x1b
 2955 0b33 1B040000 		.4byte	.LASF103
 2956 0b37 01       		.byte	0x1
 2957 0b38 C901     		.2byte	0x1c9
 2958 0b3a D4070000 		.4byte	0x7d4
 2959 0b3e AF030000 		.4byte	.LLST33
 2960 0b42 1E       		.uleb128 0x1e
 2961 0b43 D6040000 		.4byte	.LASF120
 2962 0b47 01       		.byte	0x1
 2963 0b48 CA01     		.2byte	0x1ca
 2964 0b4a 16060000 		.4byte	0x616
 2965 0b4e 02       		.byte	0x2
 2966 0b4f 72       		.byte	0x72
 2967 0b50 34       		.sleb128 52
 2968 0b51 26       		.uleb128 0x26
 2969 0b52 02000000 		.4byte	.LBB13
 2970 0b56 08000000 		.4byte	.LBE13
 2971 0b5a 6F0B0000 		.4byte	0xb6f
 2972 0b5e 27       		.uleb128 0x27
 2973 0b5f 746D7000 		.ascii	"tmp\000"
 2974 0b63 01       		.byte	0x1
 2975 0b64 D001     		.2byte	0x1d0
 2976 0b66 70000000 		.4byte	0x70
 2977 0b6a CD030000 		.4byte	.LLST34
 2978 0b6e 00       		.byte	0x0
 2979 0b6f 28       		.uleb128 0x28
 2980 0b70 0E000000 		.4byte	.LBB14
 2981 0b74 12000000 		.4byte	.LBE14
 2982 0b78 2E       		.uleb128 0x2e
 2983 0b79 746D7000 		.ascii	"tmp\000"
 2984 0b7d 01       		.byte	0x1
 2985 0b7e D301     		.2byte	0x1d3
 2986 0b80 70000000 		.4byte	0x70
 2987 0b84 01       		.byte	0x1
 2988 0b85 53       		.byte	0x53
 2989 0b86 00       		.byte	0x0
 2990 0b87 00       		.byte	0x0
 2991 0b88 1D       		.uleb128 0x1d
 2992 0b89 01       		.byte	0x1
 2993 0b8a 60020000 		.4byte	.LASF121
 2994 0b8e 01       		.byte	0x1
 2995 0b8f 1B02     		.2byte	0x21b
 2996 0b91 01       		.byte	0x1
 2997 0b92 90000000 		.4byte	0x90
 2998 0b96 00000000 		.4byte	.LFB130
 2999 0b9a 8C000000 		.4byte	.LFE130
 3000 0b9e E0030000 		.4byte	.LLST35
 3001 0ba2 F20B0000 		.4byte	0xbf2
 3002 0ba6 1B       		.uleb128 0x1b
 3003 0ba7 1B040000 		.4byte	.LASF103
 3004 0bab 01       		.byte	0x1
 3005 0bac 1B02     		.2byte	0x21b
 3006 0bae D4070000 		.4byte	0x7d4
 3007 0bb2 0C040000 		.4byte	.LLST36
ARM GAS  C:\Users\DNIEL~1\AppData\Local\Temp\ccON3PQQ.s 			page 54


 3008 0bb6 1B       		.uleb128 0x1b
 3009 0bb7 54040000 		.4byte	.LASF108
 3010 0bbb 01       		.byte	0x1
 3011 0bbc 1B02     		.2byte	0x21b
 3012 0bbe 70000000 		.4byte	0x70
 3013 0bc2 2A040000 		.4byte	.LLST37
 3014 0bc6 1B       		.uleb128 0x1b
 3015 0bc7 DC040000 		.4byte	.LASF122
 3016 0bcb 01       		.byte	0x1
 3017 0bcc 1B02     		.2byte	0x21b
 3018 0bce 70000000 		.4byte	0x70
 3019 0bd2 48040000 		.4byte	.LLST38
 3020 0bd6 1E       		.uleb128 0x1e
 3021 0bd7 94010000 		.4byte	.LASF113
 3022 0bdb 01       		.byte	0x1
 3023 0bdc 1C02     		.2byte	0x21c
 3024 0bde 00040000 		.4byte	0x400
 3025 0be2 02       		.byte	0x2
 3026 0be3 91       		.byte	0x91
 3027 0be4 6C       		.sleb128 -20
 3028 0be5 23       		.uleb128 0x23
 3029 0be6 91020000 		.4byte	.LASF123
 3030 0bea 01       		.byte	0x1
 3031 0beb 4402     		.2byte	0x244
 3032 0bed 38000000 		.4byte	.L65
 3033 0bf1 00       		.byte	0x0
 3034 0bf2 2F       		.uleb128 0x2f
 3035 0bf3 85000000 		.4byte	.LASF125
 3036 0bf7 0C       		.byte	0xc
 3037 0bf8 9806     		.2byte	0x698
 3038 0bfa 10040000 		.4byte	0x410
 3039 0bfe 01       		.byte	0x1
 3040 0bff 01       		.byte	0x1
 3041 0c00 22       		.uleb128 0x22
 3042 0c01 AE030000 		.4byte	.LASF124
 3043 0c05 01       		.byte	0x1
 3044 0c06 38       		.byte	0x38
 3045 0c07 88070000 		.4byte	0x788
 3046 0c0b 05       		.byte	0x5
 3047 0c0c 03       		.byte	0x3
 3048 0c0d 00000000 		.4byte	sdc_vmt
 3049 0c11 2F       		.uleb128 0x2f
 3050 0c12 85000000 		.4byte	.LASF125
 3051 0c16 0C       		.byte	0xc
 3052 0c17 9806     		.2byte	0x698
 3053 0c19 10040000 		.4byte	0x410
 3054 0c1d 01       		.byte	0x1
 3055 0c1e 01       		.byte	0x1
 3056 0c1f 00       		.byte	0x0
 3057              		.section	.debug_abbrev
 3058 0000 01       		.uleb128 0x1
 3059 0001 11       		.uleb128 0x11
 3060 0002 01       		.byte	0x1
 3061 0003 25       		.uleb128 0x25
 3062 0004 0E       		.uleb128 0xe
 3063 0005 13       		.uleb128 0x13
 3064 0006 0B       		.uleb128 0xb
ARM GAS  C:\Users\DNIEL~1\AppData\Local\Temp\ccON3PQQ.s 			page 55


 3065 0007 03       		.uleb128 0x3
 3066 0008 0E       		.uleb128 0xe
 3067 0009 1B       		.uleb128 0x1b
 3068 000a 0E       		.uleb128 0xe
 3069 000b 11       		.uleb128 0x11
 3070 000c 01       		.uleb128 0x1
 3071 000d 52       		.uleb128 0x52
 3072 000e 01       		.uleb128 0x1
 3073 000f 55       		.uleb128 0x55
 3074 0010 06       		.uleb128 0x6
 3075 0011 10       		.uleb128 0x10
 3076 0012 06       		.uleb128 0x6
 3077 0013 00       		.byte	0x0
 3078 0014 00       		.byte	0x0
 3079 0015 02       		.uleb128 0x2
 3080 0016 24       		.uleb128 0x24
 3081 0017 00       		.byte	0x0
 3082 0018 0B       		.uleb128 0xb
 3083 0019 0B       		.uleb128 0xb
 3084 001a 3E       		.uleb128 0x3e
 3085 001b 0B       		.uleb128 0xb
 3086 001c 03       		.uleb128 0x3
 3087 001d 08       		.uleb128 0x8
 3088 001e 00       		.byte	0x0
 3089 001f 00       		.byte	0x0
 3090 0020 03       		.uleb128 0x3
 3091 0021 24       		.uleb128 0x24
 3092 0022 00       		.byte	0x0
 3093 0023 0B       		.uleb128 0xb
 3094 0024 0B       		.uleb128 0xb
 3095 0025 3E       		.uleb128 0x3e
 3096 0026 0B       		.uleb128 0xb
 3097 0027 03       		.uleb128 0x3
 3098 0028 0E       		.uleb128 0xe
 3099 0029 00       		.byte	0x0
 3100 002a 00       		.byte	0x0
 3101 002b 04       		.uleb128 0x4
 3102 002c 16       		.uleb128 0x16
 3103 002d 00       		.byte	0x0
 3104 002e 03       		.uleb128 0x3
 3105 002f 0E       		.uleb128 0xe
 3106 0030 3A       		.uleb128 0x3a
 3107 0031 0B       		.uleb128 0xb
 3108 0032 3B       		.uleb128 0x3b
 3109 0033 0B       		.uleb128 0xb
 3110 0034 49       		.uleb128 0x49
 3111 0035 13       		.uleb128 0x13
 3112 0036 00       		.byte	0x0
 3113 0037 00       		.byte	0x0
 3114 0038 05       		.uleb128 0x5
 3115 0039 13       		.uleb128 0x13
 3116 003a 01       		.byte	0x1
 3117 003b 03       		.uleb128 0x3
 3118 003c 0E       		.uleb128 0xe
 3119 003d 0B       		.uleb128 0xb
 3120 003e 0B       		.uleb128 0xb
 3121 003f 3A       		.uleb128 0x3a
ARM GAS  C:\Users\DNIEL~1\AppData\Local\Temp\ccON3PQQ.s 			page 56


 3122 0040 0B       		.uleb128 0xb
 3123 0041 3B       		.uleb128 0x3b
 3124 0042 0B       		.uleb128 0xb
 3125 0043 01       		.uleb128 0x1
 3126 0044 13       		.uleb128 0x13
 3127 0045 00       		.byte	0x0
 3128 0046 00       		.byte	0x0
 3129 0047 06       		.uleb128 0x6
 3130 0048 0D       		.uleb128 0xd
 3131 0049 00       		.byte	0x0
 3132 004a 03       		.uleb128 0x3
 3133 004b 0E       		.uleb128 0xe
 3134 004c 3A       		.uleb128 0x3a
 3135 004d 0B       		.uleb128 0xb
 3136 004e 3B       		.uleb128 0x3b
 3137 004f 0B       		.uleb128 0xb
 3138 0050 49       		.uleb128 0x49
 3139 0051 13       		.uleb128 0x13
 3140 0052 38       		.uleb128 0x38
 3141 0053 0A       		.uleb128 0xa
 3142 0054 00       		.byte	0x0
 3143 0055 00       		.byte	0x0
 3144 0056 07       		.uleb128 0x7
 3145 0057 0D       		.uleb128 0xd
 3146 0058 00       		.byte	0x0
 3147 0059 03       		.uleb128 0x3
 3148 005a 08       		.uleb128 0x8
 3149 005b 3A       		.uleb128 0x3a
 3150 005c 0B       		.uleb128 0xb
 3151 005d 3B       		.uleb128 0x3b
 3152 005e 0B       		.uleb128 0xb
 3153 005f 49       		.uleb128 0x49
 3154 0060 13       		.uleb128 0x13
 3155 0061 38       		.uleb128 0x38
 3156 0062 0A       		.uleb128 0xa
 3157 0063 00       		.byte	0x0
 3158 0064 00       		.byte	0x0
 3159 0065 08       		.uleb128 0x8
 3160 0066 13       		.uleb128 0x13
 3161 0067 01       		.byte	0x1
 3162 0068 0B       		.uleb128 0xb
 3163 0069 0B       		.uleb128 0xb
 3164 006a 3A       		.uleb128 0x3a
 3165 006b 0B       		.uleb128 0xb
 3166 006c 3B       		.uleb128 0x3b
 3167 006d 0B       		.uleb128 0xb
 3168 006e 01       		.uleb128 0x1
 3169 006f 13       		.uleb128 0x13
 3170 0070 00       		.byte	0x0
 3171 0071 00       		.byte	0x0
 3172 0072 09       		.uleb128 0x9
 3173 0073 0F       		.uleb128 0xf
 3174 0074 00       		.byte	0x0
 3175 0075 0B       		.uleb128 0xb
 3176 0076 0B       		.uleb128 0xb
 3177 0077 49       		.uleb128 0x49
 3178 0078 13       		.uleb128 0x13
ARM GAS  C:\Users\DNIEL~1\AppData\Local\Temp\ccON3PQQ.s 			page 57


 3179 0079 00       		.byte	0x0
 3180 007a 00       		.byte	0x0
 3181 007b 0A       		.uleb128 0xa
 3182 007c 0F       		.uleb128 0xf
 3183 007d 00       		.byte	0x0
 3184 007e 0B       		.uleb128 0xb
 3185 007f 0B       		.uleb128 0xb
 3186 0080 00       		.byte	0x0
 3187 0081 00       		.byte	0x0
 3188 0082 0B       		.uleb128 0xb
 3189 0083 13       		.uleb128 0x13
 3190 0084 01       		.byte	0x1
 3191 0085 03       		.uleb128 0x3
 3192 0086 0E       		.uleb128 0xe
 3193 0087 0B       		.uleb128 0xb
 3194 0088 0B       		.uleb128 0xb
 3195 0089 3A       		.uleb128 0x3a
 3196 008a 0B       		.uleb128 0xb
 3197 008b 3B       		.uleb128 0x3b
 3198 008c 05       		.uleb128 0x5
 3199 008d 01       		.uleb128 0x1
 3200 008e 13       		.uleb128 0x13
 3201 008f 00       		.byte	0x0
 3202 0090 00       		.byte	0x0
 3203 0091 0C       		.uleb128 0xc
 3204 0092 0D       		.uleb128 0xd
 3205 0093 00       		.byte	0x0
 3206 0094 03       		.uleb128 0x3
 3207 0095 08       		.uleb128 0x8
 3208 0096 3A       		.uleb128 0x3a
 3209 0097 0B       		.uleb128 0xb
 3210 0098 3B       		.uleb128 0x3b
 3211 0099 05       		.uleb128 0x5
 3212 009a 49       		.uleb128 0x49
 3213 009b 13       		.uleb128 0x13
 3214 009c 38       		.uleb128 0x38
 3215 009d 0A       		.uleb128 0xa
 3216 009e 00       		.byte	0x0
 3217 009f 00       		.byte	0x0
 3218 00a0 0D       		.uleb128 0xd
 3219 00a1 35       		.uleb128 0x35
 3220 00a2 00       		.byte	0x0
 3221 00a3 49       		.uleb128 0x49
 3222 00a4 13       		.uleb128 0x13
 3223 00a5 00       		.byte	0x0
 3224 00a6 00       		.byte	0x0
 3225 00a7 0E       		.uleb128 0xe
 3226 00a8 17       		.uleb128 0x17
 3227 00a9 01       		.byte	0x1
 3228 00aa 0B       		.uleb128 0xb
 3229 00ab 0B       		.uleb128 0xb
 3230 00ac 3A       		.uleb128 0x3a
 3231 00ad 0B       		.uleb128 0xb
 3232 00ae 3B       		.uleb128 0x3b
 3233 00af 0B       		.uleb128 0xb
 3234 00b0 01       		.uleb128 0x1
 3235 00b1 13       		.uleb128 0x13
ARM GAS  C:\Users\DNIEL~1\AppData\Local\Temp\ccON3PQQ.s 			page 58


 3236 00b2 00       		.byte	0x0
 3237 00b3 00       		.byte	0x0
 3238 00b4 0F       		.uleb128 0xf
 3239 00b5 0D       		.uleb128 0xd
 3240 00b6 00       		.byte	0x0
 3241 00b7 03       		.uleb128 0x3
 3242 00b8 0E       		.uleb128 0xe
 3243 00b9 3A       		.uleb128 0x3a
 3244 00ba 0B       		.uleb128 0xb
 3245 00bb 3B       		.uleb128 0x3b
 3246 00bc 0B       		.uleb128 0xb
 3247 00bd 49       		.uleb128 0x49
 3248 00be 13       		.uleb128 0x13
 3249 00bf 00       		.byte	0x0
 3250 00c0 00       		.byte	0x0
 3251 00c1 10       		.uleb128 0x10
 3252 00c2 26       		.uleb128 0x26
 3253 00c3 00       		.byte	0x0
 3254 00c4 49       		.uleb128 0x49
 3255 00c5 13       		.uleb128 0x13
 3256 00c6 00       		.byte	0x0
 3257 00c7 00       		.byte	0x0
 3258 00c8 11       		.uleb128 0x11
 3259 00c9 01       		.uleb128 0x1
 3260 00ca 01       		.byte	0x1
 3261 00cb 49       		.uleb128 0x49
 3262 00cc 13       		.uleb128 0x13
 3263 00cd 01       		.uleb128 0x1
 3264 00ce 13       		.uleb128 0x13
 3265 00cf 00       		.byte	0x0
 3266 00d0 00       		.byte	0x0
 3267 00d1 12       		.uleb128 0x12
 3268 00d2 21       		.uleb128 0x21
 3269 00d3 00       		.byte	0x0
 3270 00d4 49       		.uleb128 0x49
 3271 00d5 13       		.uleb128 0x13
 3272 00d6 2F       		.uleb128 0x2f
 3273 00d7 0B       		.uleb128 0xb
 3274 00d8 00       		.byte	0x0
 3275 00d9 00       		.byte	0x0
 3276 00da 13       		.uleb128 0x13
 3277 00db 13       		.uleb128 0x13
 3278 00dc 01       		.byte	0x1
 3279 00dd 0B       		.uleb128 0xb
 3280 00de 0B       		.uleb128 0xb
 3281 00df 3A       		.uleb128 0x3a
 3282 00e0 0B       		.uleb128 0xb
 3283 00e1 3B       		.uleb128 0x3b
 3284 00e2 05       		.uleb128 0x5
 3285 00e3 01       		.uleb128 0x1
 3286 00e4 13       		.uleb128 0x13
 3287 00e5 00       		.byte	0x0
 3288 00e6 00       		.byte	0x0
 3289 00e7 14       		.uleb128 0x14
 3290 00e8 0D       		.uleb128 0xd
 3291 00e9 00       		.byte	0x0
 3292 00ea 03       		.uleb128 0x3
ARM GAS  C:\Users\DNIEL~1\AppData\Local\Temp\ccON3PQQ.s 			page 59


 3293 00eb 0E       		.uleb128 0xe
 3294 00ec 3A       		.uleb128 0x3a
 3295 00ed 0B       		.uleb128 0xb
 3296 00ee 3B       		.uleb128 0x3b
 3297 00ef 05       		.uleb128 0x5
 3298 00f0 49       		.uleb128 0x49
 3299 00f1 13       		.uleb128 0x13
 3300 00f2 38       		.uleb128 0x38
 3301 00f3 0A       		.uleb128 0xa
 3302 00f4 00       		.byte	0x0
 3303 00f5 00       		.byte	0x0
 3304 00f6 15       		.uleb128 0x15
 3305 00f7 16       		.uleb128 0x16
 3306 00f8 00       		.byte	0x0
 3307 00f9 03       		.uleb128 0x3
 3308 00fa 0E       		.uleb128 0xe
 3309 00fb 3A       		.uleb128 0x3a
 3310 00fc 0B       		.uleb128 0xb
 3311 00fd 3B       		.uleb128 0x3b
 3312 00fe 05       		.uleb128 0x5
 3313 00ff 49       		.uleb128 0x49
 3314 0100 13       		.uleb128 0x13
 3315 0101 00       		.byte	0x0
 3316 0102 00       		.byte	0x0
 3317 0103 16       		.uleb128 0x16
 3318 0104 04       		.uleb128 0x4
 3319 0105 01       		.byte	0x1
 3320 0106 0B       		.uleb128 0xb
 3321 0107 0B       		.uleb128 0xb
 3322 0108 3A       		.uleb128 0x3a
 3323 0109 0B       		.uleb128 0xb
 3324 010a 3B       		.uleb128 0x3b
 3325 010b 0B       		.uleb128 0xb
 3326 010c 01       		.uleb128 0x1
 3327 010d 13       		.uleb128 0x13
 3328 010e 00       		.byte	0x0
 3329 010f 00       		.byte	0x0
 3330 0110 17       		.uleb128 0x17
 3331 0111 28       		.uleb128 0x28
 3332 0112 00       		.byte	0x0
 3333 0113 03       		.uleb128 0x3
 3334 0114 0E       		.uleb128 0xe
 3335 0115 1C       		.uleb128 0x1c
 3336 0116 0D       		.uleb128 0xd
 3337 0117 00       		.byte	0x0
 3338 0118 00       		.byte	0x0
 3339 0119 18       		.uleb128 0x18
 3340 011a 15       		.uleb128 0x15
 3341 011b 01       		.byte	0x1
 3342 011c 27       		.uleb128 0x27
 3343 011d 0C       		.uleb128 0xc
 3344 011e 49       		.uleb128 0x49
 3345 011f 13       		.uleb128 0x13
 3346 0120 01       		.uleb128 0x1
 3347 0121 13       		.uleb128 0x13
 3348 0122 00       		.byte	0x0
 3349 0123 00       		.byte	0x0
ARM GAS  C:\Users\DNIEL~1\AppData\Local\Temp\ccON3PQQ.s 			page 60


 3350 0124 19       		.uleb128 0x19
 3351 0125 05       		.uleb128 0x5
 3352 0126 00       		.byte	0x0
 3353 0127 49       		.uleb128 0x49
 3354 0128 13       		.uleb128 0x13
 3355 0129 00       		.byte	0x0
 3356 012a 00       		.byte	0x0
 3357 012b 1A       		.uleb128 0x1a
 3358 012c 2E       		.uleb128 0x2e
 3359 012d 01       		.byte	0x1
 3360 012e 3F       		.uleb128 0x3f
 3361 012f 0C       		.uleb128 0xc
 3362 0130 03       		.uleb128 0x3
 3363 0131 0E       		.uleb128 0xe
 3364 0132 3A       		.uleb128 0x3a
 3365 0133 0B       		.uleb128 0xb
 3366 0134 3B       		.uleb128 0x3b
 3367 0135 05       		.uleb128 0x5
 3368 0136 27       		.uleb128 0x27
 3369 0137 0C       		.uleb128 0xc
 3370 0138 49       		.uleb128 0x49
 3371 0139 13       		.uleb128 0x13
 3372 013a 11       		.uleb128 0x11
 3373 013b 01       		.uleb128 0x1
 3374 013c 12       		.uleb128 0x12
 3375 013d 01       		.uleb128 0x1
 3376 013e 40       		.uleb128 0x40
 3377 013f 0A       		.uleb128 0xa
 3378 0140 01       		.uleb128 0x1
 3379 0141 13       		.uleb128 0x13
 3380 0142 00       		.byte	0x0
 3381 0143 00       		.byte	0x0
 3382 0144 1B       		.uleb128 0x1b
 3383 0145 05       		.uleb128 0x5
 3384 0146 00       		.byte	0x0
 3385 0147 03       		.uleb128 0x3
 3386 0148 0E       		.uleb128 0xe
 3387 0149 3A       		.uleb128 0x3a
 3388 014a 0B       		.uleb128 0xb
 3389 014b 3B       		.uleb128 0x3b
 3390 014c 05       		.uleb128 0x5
 3391 014d 49       		.uleb128 0x49
 3392 014e 13       		.uleb128 0x13
 3393 014f 02       		.uleb128 0x2
 3394 0150 06       		.uleb128 0x6
 3395 0151 00       		.byte	0x0
 3396 0152 00       		.byte	0x0
 3397 0153 1C       		.uleb128 0x1c
 3398 0154 05       		.uleb128 0x5
 3399 0155 00       		.byte	0x0
 3400 0156 03       		.uleb128 0x3
 3401 0157 0E       		.uleb128 0xe
 3402 0158 3A       		.uleb128 0x3a
 3403 0159 0B       		.uleb128 0xb
 3404 015a 3B       		.uleb128 0x3b
 3405 015b 05       		.uleb128 0x5
 3406 015c 49       		.uleb128 0x49
ARM GAS  C:\Users\DNIEL~1\AppData\Local\Temp\ccON3PQQ.s 			page 61


 3407 015d 13       		.uleb128 0x13
 3408 015e 02       		.uleb128 0x2
 3409 015f 0A       		.uleb128 0xa
 3410 0160 00       		.byte	0x0
 3411 0161 00       		.byte	0x0
 3412 0162 1D       		.uleb128 0x1d
 3413 0163 2E       		.uleb128 0x2e
 3414 0164 01       		.byte	0x1
 3415 0165 3F       		.uleb128 0x3f
 3416 0166 0C       		.uleb128 0xc
 3417 0167 03       		.uleb128 0x3
 3418 0168 0E       		.uleb128 0xe
 3419 0169 3A       		.uleb128 0x3a
 3420 016a 0B       		.uleb128 0xb
 3421 016b 3B       		.uleb128 0x3b
 3422 016c 05       		.uleb128 0x5
 3423 016d 27       		.uleb128 0x27
 3424 016e 0C       		.uleb128 0xc
 3425 016f 49       		.uleb128 0x49
 3426 0170 13       		.uleb128 0x13
 3427 0171 11       		.uleb128 0x11
 3428 0172 01       		.uleb128 0x1
 3429 0173 12       		.uleb128 0x12
 3430 0174 01       		.uleb128 0x1
 3431 0175 40       		.uleb128 0x40
 3432 0176 06       		.uleb128 0x6
 3433 0177 01       		.uleb128 0x1
 3434 0178 13       		.uleb128 0x13
 3435 0179 00       		.byte	0x0
 3436 017a 00       		.byte	0x0
 3437 017b 1E       		.uleb128 0x1e
 3438 017c 34       		.uleb128 0x34
 3439 017d 00       		.byte	0x0
 3440 017e 03       		.uleb128 0x3
 3441 017f 0E       		.uleb128 0xe
 3442 0180 3A       		.uleb128 0x3a
 3443 0181 0B       		.uleb128 0xb
 3444 0182 3B       		.uleb128 0x3b
 3445 0183 05       		.uleb128 0x5
 3446 0184 49       		.uleb128 0x49
 3447 0185 13       		.uleb128 0x13
 3448 0186 02       		.uleb128 0x2
 3449 0187 0A       		.uleb128 0xa
 3450 0188 00       		.byte	0x0
 3451 0189 00       		.byte	0x0
 3452 018a 1F       		.uleb128 0x1f
 3453 018b 05       		.uleb128 0x5
 3454 018c 00       		.byte	0x0
 3455 018d 03       		.uleb128 0x3
 3456 018e 08       		.uleb128 0x8
 3457 018f 3A       		.uleb128 0x3a
 3458 0190 0B       		.uleb128 0xb
 3459 0191 3B       		.uleb128 0x3b
 3460 0192 05       		.uleb128 0x5
 3461 0193 49       		.uleb128 0x49
 3462 0194 13       		.uleb128 0x13
 3463 0195 02       		.uleb128 0x2
ARM GAS  C:\Users\DNIEL~1\AppData\Local\Temp\ccON3PQQ.s 			page 62


 3464 0196 06       		.uleb128 0x6
 3465 0197 00       		.byte	0x0
 3466 0198 00       		.byte	0x0
 3467 0199 20       		.uleb128 0x20
 3468 019a 2E       		.uleb128 0x2e
 3469 019b 01       		.byte	0x1
 3470 019c 3F       		.uleb128 0x3f
 3471 019d 0C       		.uleb128 0xc
 3472 019e 03       		.uleb128 0x3
 3473 019f 0E       		.uleb128 0xe
 3474 01a0 3A       		.uleb128 0x3a
 3475 01a1 0B       		.uleb128 0xb
 3476 01a2 3B       		.uleb128 0x3b
 3477 01a3 0B       		.uleb128 0xb
 3478 01a4 27       		.uleb128 0x27
 3479 01a5 0C       		.uleb128 0xc
 3480 01a6 49       		.uleb128 0x49
 3481 01a7 13       		.uleb128 0x13
 3482 01a8 11       		.uleb128 0x11
 3483 01a9 01       		.uleb128 0x1
 3484 01aa 12       		.uleb128 0x12
 3485 01ab 01       		.uleb128 0x1
 3486 01ac 40       		.uleb128 0x40
 3487 01ad 06       		.uleb128 0x6
 3488 01ae 01       		.uleb128 0x1
 3489 01af 13       		.uleb128 0x13
 3490 01b0 00       		.byte	0x0
 3491 01b1 00       		.byte	0x0
 3492 01b2 21       		.uleb128 0x21
 3493 01b3 05       		.uleb128 0x5
 3494 01b4 00       		.byte	0x0
 3495 01b5 03       		.uleb128 0x3
 3496 01b6 0E       		.uleb128 0xe
 3497 01b7 3A       		.uleb128 0x3a
 3498 01b8 0B       		.uleb128 0xb
 3499 01b9 3B       		.uleb128 0x3b
 3500 01ba 0B       		.uleb128 0xb
 3501 01bb 49       		.uleb128 0x49
 3502 01bc 13       		.uleb128 0x13
 3503 01bd 02       		.uleb128 0x2
 3504 01be 06       		.uleb128 0x6
 3505 01bf 00       		.byte	0x0
 3506 01c0 00       		.byte	0x0
 3507 01c1 22       		.uleb128 0x22
 3508 01c2 34       		.uleb128 0x34
 3509 01c3 00       		.byte	0x0
 3510 01c4 03       		.uleb128 0x3
 3511 01c5 0E       		.uleb128 0xe
 3512 01c6 3A       		.uleb128 0x3a
 3513 01c7 0B       		.uleb128 0xb
 3514 01c8 3B       		.uleb128 0x3b
 3515 01c9 0B       		.uleb128 0xb
 3516 01ca 49       		.uleb128 0x49
 3517 01cb 13       		.uleb128 0x13
 3518 01cc 02       		.uleb128 0x2
 3519 01cd 0A       		.uleb128 0xa
 3520 01ce 00       		.byte	0x0
ARM GAS  C:\Users\DNIEL~1\AppData\Local\Temp\ccON3PQQ.s 			page 63


 3521 01cf 00       		.byte	0x0
 3522 01d0 23       		.uleb128 0x23
 3523 01d1 0A       		.uleb128 0xa
 3524 01d2 00       		.byte	0x0
 3525 01d3 03       		.uleb128 0x3
 3526 01d4 0E       		.uleb128 0xe
 3527 01d5 3A       		.uleb128 0x3a
 3528 01d6 0B       		.uleb128 0xb
 3529 01d7 3B       		.uleb128 0x3b
 3530 01d8 05       		.uleb128 0x5
 3531 01d9 11       		.uleb128 0x11
 3532 01da 01       		.uleb128 0x1
 3533 01db 00       		.byte	0x0
 3534 01dc 00       		.byte	0x0
 3535 01dd 24       		.uleb128 0x24
 3536 01de 0B       		.uleb128 0xb
 3537 01df 01       		.byte	0x1
 3538 01e0 55       		.uleb128 0x55
 3539 01e1 06       		.uleb128 0x6
 3540 01e2 00       		.byte	0x0
 3541 01e3 00       		.byte	0x0
 3542 01e4 25       		.uleb128 0x25
 3543 01e5 34       		.uleb128 0x34
 3544 01e6 00       		.byte	0x0
 3545 01e7 03       		.uleb128 0x3
 3546 01e8 08       		.uleb128 0x8
 3547 01e9 3A       		.uleb128 0x3a
 3548 01ea 0B       		.uleb128 0xb
 3549 01eb 3B       		.uleb128 0x3b
 3550 01ec 0B       		.uleb128 0xb
 3551 01ed 49       		.uleb128 0x49
 3552 01ee 13       		.uleb128 0x13
 3553 01ef 02       		.uleb128 0x2
 3554 01f0 06       		.uleb128 0x6
 3555 01f1 00       		.byte	0x0
 3556 01f2 00       		.byte	0x0
 3557 01f3 26       		.uleb128 0x26
 3558 01f4 0B       		.uleb128 0xb
 3559 01f5 01       		.byte	0x1
 3560 01f6 11       		.uleb128 0x11
 3561 01f7 01       		.uleb128 0x1
 3562 01f8 12       		.uleb128 0x12
 3563 01f9 01       		.uleb128 0x1
 3564 01fa 01       		.uleb128 0x1
 3565 01fb 13       		.uleb128 0x13
 3566 01fc 00       		.byte	0x0
 3567 01fd 00       		.byte	0x0
 3568 01fe 27       		.uleb128 0x27
 3569 01ff 34       		.uleb128 0x34
 3570 0200 00       		.byte	0x0
 3571 0201 03       		.uleb128 0x3
 3572 0202 08       		.uleb128 0x8
 3573 0203 3A       		.uleb128 0x3a
 3574 0204 0B       		.uleb128 0xb
 3575 0205 3B       		.uleb128 0x3b
 3576 0206 05       		.uleb128 0x5
 3577 0207 49       		.uleb128 0x49
ARM GAS  C:\Users\DNIEL~1\AppData\Local\Temp\ccON3PQQ.s 			page 64


 3578 0208 13       		.uleb128 0x13
 3579 0209 02       		.uleb128 0x2
 3580 020a 06       		.uleb128 0x6
 3581 020b 00       		.byte	0x0
 3582 020c 00       		.byte	0x0
 3583 020d 28       		.uleb128 0x28
 3584 020e 0B       		.uleb128 0xb
 3585 020f 01       		.byte	0x1
 3586 0210 11       		.uleb128 0x11
 3587 0211 01       		.uleb128 0x1
 3588 0212 12       		.uleb128 0x12
 3589 0213 01       		.uleb128 0x1
 3590 0214 00       		.byte	0x0
 3591 0215 00       		.byte	0x0
 3592 0216 29       		.uleb128 0x29
 3593 0217 2E       		.uleb128 0x2e
 3594 0218 00       		.byte	0x0
 3595 0219 3F       		.uleb128 0x3f
 3596 021a 0C       		.uleb128 0xc
 3597 021b 03       		.uleb128 0x3
 3598 021c 0E       		.uleb128 0xe
 3599 021d 3A       		.uleb128 0x3a
 3600 021e 0B       		.uleb128 0xb
 3601 021f 3B       		.uleb128 0x3b
 3602 0220 0B       		.uleb128 0xb
 3603 0221 27       		.uleb128 0x27
 3604 0222 0C       		.uleb128 0xc
 3605 0223 11       		.uleb128 0x11
 3606 0224 01       		.uleb128 0x1
 3607 0225 12       		.uleb128 0x12
 3608 0226 01       		.uleb128 0x1
 3609 0227 40       		.uleb128 0x40
 3610 0228 0A       		.uleb128 0xa
 3611 0229 00       		.byte	0x0
 3612 022a 00       		.byte	0x0
 3613 022b 2A       		.uleb128 0x2a
 3614 022c 2E       		.uleb128 0x2e
 3615 022d 01       		.byte	0x1
 3616 022e 3F       		.uleb128 0x3f
 3617 022f 0C       		.uleb128 0xc
 3618 0230 03       		.uleb128 0x3
 3619 0231 0E       		.uleb128 0xe
 3620 0232 3A       		.uleb128 0x3a
 3621 0233 0B       		.uleb128 0xb
 3622 0234 3B       		.uleb128 0x3b
 3623 0235 0B       		.uleb128 0xb
 3624 0236 27       		.uleb128 0x27
 3625 0237 0C       		.uleb128 0xc
 3626 0238 11       		.uleb128 0x11
 3627 0239 01       		.uleb128 0x1
 3628 023a 12       		.uleb128 0x12
 3629 023b 01       		.uleb128 0x1
 3630 023c 40       		.uleb128 0x40
 3631 023d 0A       		.uleb128 0xa
 3632 023e 01       		.uleb128 0x1
 3633 023f 13       		.uleb128 0x13
 3634 0240 00       		.byte	0x0
ARM GAS  C:\Users\DNIEL~1\AppData\Local\Temp\ccON3PQQ.s 			page 65


 3635 0241 00       		.byte	0x0
 3636 0242 2B       		.uleb128 0x2b
 3637 0243 05       		.uleb128 0x5
 3638 0244 00       		.byte	0x0
 3639 0245 03       		.uleb128 0x3
 3640 0246 0E       		.uleb128 0xe
 3641 0247 3A       		.uleb128 0x3a
 3642 0248 0B       		.uleb128 0xb
 3643 0249 3B       		.uleb128 0x3b
 3644 024a 0B       		.uleb128 0xb
 3645 024b 49       		.uleb128 0x49
 3646 024c 13       		.uleb128 0x13
 3647 024d 02       		.uleb128 0x2
 3648 024e 0A       		.uleb128 0xa
 3649 024f 00       		.byte	0x0
 3650 0250 00       		.byte	0x0
 3651 0251 2C       		.uleb128 0x2c
 3652 0252 2E       		.uleb128 0x2e
 3653 0253 01       		.byte	0x1
 3654 0254 3F       		.uleb128 0x3f
 3655 0255 0C       		.uleb128 0xc
 3656 0256 03       		.uleb128 0x3
 3657 0257 0E       		.uleb128 0xe
 3658 0258 3A       		.uleb128 0x3a
 3659 0259 0B       		.uleb128 0xb
 3660 025a 3B       		.uleb128 0x3b
 3661 025b 0B       		.uleb128 0xb
 3662 025c 27       		.uleb128 0x27
 3663 025d 0C       		.uleb128 0xc
 3664 025e 11       		.uleb128 0x11
 3665 025f 01       		.uleb128 0x1
 3666 0260 12       		.uleb128 0x12
 3667 0261 01       		.uleb128 0x1
 3668 0262 40       		.uleb128 0x40
 3669 0263 06       		.uleb128 0x6
 3670 0264 01       		.uleb128 0x1
 3671 0265 13       		.uleb128 0x13
 3672 0266 00       		.byte	0x0
 3673 0267 00       		.byte	0x0
 3674 0268 2D       		.uleb128 0x2d
 3675 0269 0B       		.uleb128 0xb
 3676 026a 01       		.byte	0x1
 3677 026b 55       		.uleb128 0x55
 3678 026c 06       		.uleb128 0x6
 3679 026d 01       		.uleb128 0x1
 3680 026e 13       		.uleb128 0x13
 3681 026f 00       		.byte	0x0
 3682 0270 00       		.byte	0x0
 3683 0271 2E       		.uleb128 0x2e
 3684 0272 34       		.uleb128 0x34
 3685 0273 00       		.byte	0x0
 3686 0274 03       		.uleb128 0x3
 3687 0275 08       		.uleb128 0x8
 3688 0276 3A       		.uleb128 0x3a
 3689 0277 0B       		.uleb128 0xb
 3690 0278 3B       		.uleb128 0x3b
 3691 0279 05       		.uleb128 0x5
ARM GAS  C:\Users\DNIEL~1\AppData\Local\Temp\ccON3PQQ.s 			page 66


 3692 027a 49       		.uleb128 0x49
 3693 027b 13       		.uleb128 0x13
 3694 027c 02       		.uleb128 0x2
 3695 027d 0A       		.uleb128 0xa
 3696 027e 00       		.byte	0x0
 3697 027f 00       		.byte	0x0
 3698 0280 2F       		.uleb128 0x2f
 3699 0281 34       		.uleb128 0x34
 3700 0282 00       		.byte	0x0
 3701 0283 03       		.uleb128 0x3
 3702 0284 0E       		.uleb128 0xe
 3703 0285 3A       		.uleb128 0x3a
 3704 0286 0B       		.uleb128 0xb
 3705 0287 3B       		.uleb128 0x3b
 3706 0288 05       		.uleb128 0x5
 3707 0289 49       		.uleb128 0x49
 3708 028a 13       		.uleb128 0x13
 3709 028b 3F       		.uleb128 0x3f
 3710 028c 0C       		.uleb128 0xc
 3711 028d 3C       		.uleb128 0x3c
 3712 028e 0C       		.uleb128 0xc
 3713 028f 00       		.byte	0x0
 3714 0290 00       		.byte	0x0
 3715 0291 00       		.byte	0x0
 3716              		.section	.debug_pubnames,"",%progbits
 3717 0000 E1000000 		.4byte	0xe1
 3718 0004 0200     		.2byte	0x2
 3719 0006 00000000 		.4byte	.Ldebug_info0
 3720 000a 200C0000 		.4byte	0xc20
 3721 000e 98070000 		.4byte	0x798
 3722 0012 73646347 		.ascii	"sdcGetInfo\000"
 3722      6574496E 
 3722      666F00
 3723 001d DA070000 		.4byte	0x7da
 3724 0021 73646353 		.ascii	"sdcSync\000"
 3724      796E6300 
 3725 0029 17080000 		.4byte	0x817
 3726 002d 73646357 		.ascii	"sdcWrite\000"
 3726      72697465 
 3726      00
 3727 0036 82080000 		.4byte	0x882
 3728 003a 73646352 		.ascii	"sdcRead\000"
 3728      65616400 
 3729 0042 ED080000 		.4byte	0x8ed
 3730 0046 73646343 		.ascii	"sdcConnect\000"
 3730      6F6E6E65 
 3730      637400
 3731 0051 56090000 		.4byte	0x956
 3732 0055 5F736463 		.ascii	"_sdc_wait_for_transfer_state\000"
 3732      5F776169 
 3732      745F666F 
 3732      725F7472 
 3732      616E7366 
 3733 0072 91090000 		.4byte	0x991
 3734 0076 73646344 		.ascii	"sdcDisconnect\000"
 3734      6973636F 
 3734      6E6E6563 
ARM GAS  C:\Users\DNIEL~1\AppData\Local\Temp\ccON3PQQ.s 			page 67


 3734      7400
 3735 0084 160A0000 		.4byte	0xa16
 3736 0088 73646349 		.ascii	"sdcInit\000"
 3736      6E697400 
 3737 0090 2A0A0000 		.4byte	0xa2a
 3738 0094 7364634F 		.ascii	"sdcObjectInit\000"
 3738      626A6563 
 3738      74496E69 
 3738      7400
 3739 00a2 500A0000 		.4byte	0xa50
 3740 00a6 73646353 		.ascii	"sdcStart\000"
 3740      74617274 
 3740      00
 3741 00af BA0A0000 		.4byte	0xaba
 3742 00b3 73646353 		.ascii	"sdcStop\000"
 3742      746F7000 
 3743 00bb 150B0000 		.4byte	0xb15
 3744 00bf 73646347 		.ascii	"sdcGetAndClearErrors\000"
 3744      6574416E 
 3744      64436C65 
 3744      61724572 
 3744      726F7273 
 3745 00d4 880B0000 		.4byte	0xb88
 3746 00d8 73646345 		.ascii	"sdcErase\000"
 3746      72617365 
 3746      00
 3747 00e1 00000000 		.4byte	0x0
 3748              		.section	.debug_pubtypes,"",%progbits
 3749 0000 BD010000 		.4byte	0x1bd
 3750 0004 0200     		.2byte	0x2
 3751 0006 00000000 		.4byte	.Ldebug_info0
 3752 000a 200C0000 		.4byte	0xc20
 3753 000e 3E000000 		.4byte	0x3e
 3754 0012 75696E74 		.ascii	"uint8_t\000"
 3754      385F7400 
 3755 001a 5E000000 		.4byte	0x5e
 3756 001e 696E7433 		.ascii	"int32_t\000"
 3756      325F7400 
 3757 0026 70000000 		.4byte	0x70
 3758 002a 75696E74 		.ascii	"uint32_t\000"
 3758      33325F74 
 3758      00
 3759 0033 90000000 		.4byte	0x90
 3760 0037 626F6F6C 		.ascii	"bool_t\000"
 3760      5F7400
 3761 003e A2000000 		.4byte	0xa2
 3762 0042 746D6F64 		.ascii	"tmode_t\000"
 3762      655F7400 
 3763 004a AD000000 		.4byte	0xad
 3764 004e 74737461 		.ascii	"tstate_t\000"
 3764      74655F74 
 3764      00
 3765 0057 B8000000 		.4byte	0xb8
 3766 005b 74726566 		.ascii	"trefs_t\000"
 3766      735F7400 
 3767 0063 C3000000 		.4byte	0xc3
 3768 0067 74736C69 		.ascii	"tslices_t\000"
ARM GAS  C:\Users\DNIEL~1\AppData\Local\Temp\ccON3PQQ.s 			page 68


 3768      6365735F 
 3768      7400
 3769 0071 CE000000 		.4byte	0xce
 3770 0075 74707269 		.ascii	"tprio_t\000"
 3770      6F5F7400 
 3771 007d D9000000 		.4byte	0xd9
 3772 0081 6D73675F 		.ascii	"msg_t\000"
 3772      7400
 3773 0087 E4000000 		.4byte	0xe4
 3774 008b 6576656E 		.ascii	"eventmask_t\000"
 3774      746D6173 
 3774      6B5F7400 
 3775 0097 EF000000 		.4byte	0xef
 3776 009b 73797374 		.ascii	"systime_t\000"
 3776      696D655F 
 3776      7400
 3777 00a5 FA000000 		.4byte	0xfa
 3778 00a9 54687265 		.ascii	"Thread\000"
 3778      616400
 3779 00b0 55020000 		.4byte	0x255
 3780 00b4 54687265 		.ascii	"ThreadsQueue\000"
 3780      61647351 
 3780      75657565 
 3780      00
 3781 00c1 77020000 		.4byte	0x277
 3782 00c5 54687265 		.ascii	"ThreadsList\000"
 3782      6164734C 
 3782      69737400 
 3783 00d1 82020000 		.4byte	0x282
 3784 00d5 72656761 		.ascii	"regarm_t\000"
 3784      726D5F74 
 3784      00
 3785 00de 8F020000 		.4byte	0x28f
 3786 00e2 696E7463 		.ascii	"intctx\000"
 3786      747800
 3787 00e9 1D030000 		.4byte	0x31d
 3788 00ed 636F6E74 		.ascii	"context\000"
 3788      65787400 
 3789 00f5 4A030000 		.4byte	0x34a
 3790 00f9 4D757465 		.ascii	"Mutex\000"
 3790      7800
 3791 00ff 87030000 		.4byte	0x387
 3792 0103 4D757465 		.ascii	"Mutex\000"
 3792      7800
 3793 0109 05010000 		.4byte	0x105
 3794 010d 54687265 		.ascii	"Thread\000"
 3794      616400
 3795 0114 78040000 		.4byte	0x478
 3796 0118 444D415F 		.ascii	"DMA_Stream_TypeDef\000"
 3796      53747265 
 3796      616D5F54 
 3796      79706544 
 3796      656600
 3797 012b DF040000 		.4byte	0x4df
 3798 012f 73746D33 		.ascii	"stm32_dma_stream_t\000"
 3798      325F646D 
 3798      615F7374 
ARM GAS  C:\Users\DNIEL~1\AppData\Local\Temp\ccON3PQQ.s 			page 69


 3798      7265616D 
 3798      5F7400
 3799 0142 29050000 		.4byte	0x529
 3800 0146 626C6B73 		.ascii	"blkstate_t\000"
 3800      74617465 
 3800      5F7400
 3801 0151 59050000 		.4byte	0x559
 3802 0155 426C6F63 		.ascii	"BlockDeviceInfo\000"
 3802      6B446576 
 3802      69636549 
 3802      6E666F00 
 3803 0165 0B060000 		.4byte	0x60b
 3804 0169 7364636D 		.ascii	"sdcmode_t\000"
 3804      6F64655F 
 3804      7400
 3805 0173 16060000 		.4byte	0x616
 3806 0177 73646366 		.ascii	"sdcflags_t\000"
 3806      6C616773 
 3806      5F7400
 3807 0182 21060000 		.4byte	0x621
 3808 0186 53444344 		.ascii	"SDCDriver\000"
 3808      72697665 
 3808      7200
 3809 0190 FA060000 		.4byte	0x6fa
 3810 0194 53444343 		.ascii	"SDCConfig\000"
 3810      6F6E6669 
 3810      6700
 3811 019e 05070000 		.4byte	0x705
 3812 01a2 53444344 		.ascii	"SDCDriverVMT\000"
 3812      72697665 
 3812      72564D54 
 3812      00
 3813 01af 2C060000 		.4byte	0x62c
 3814 01b3 53444344 		.ascii	"SDCDriver\000"
 3814      72697665 
 3814      7200
 3815 01bd 00000000 		.4byte	0x0
 3816              		.section	.debug_aranges,"",%progbits
 3817 0000 7C000000 		.4byte	0x7c
 3818 0004 0200     		.2byte	0x2
 3819 0006 00000000 		.4byte	.Ldebug_info0
 3820 000a 04       		.byte	0x4
 3821 000b 00       		.byte	0x0
 3822 000c 0000     		.2byte	0x0
 3823 000e 0000     		.2byte	0x0
 3824 0010 00000000 		.4byte	.LFB129
 3825 0014 18000000 		.4byte	.LFE129-.LFB129
 3826 0018 00000000 		.4byte	.LFB128
 3827 001c 1A000000 		.4byte	.LFE128-.LFB128
 3828 0020 00000000 		.4byte	.LFB126
 3829 0024 28000000 		.4byte	.LFE126-.LFB126
 3830 0028 00000000 		.4byte	.LFB125
 3831 002c 28000000 		.4byte	.LFE125-.LFB125
 3832 0030 00000000 		.4byte	.LFB123
 3833 0034 4C020000 		.4byte	.LFE123-.LFB123
 3834 0038 00000000 		.4byte	.LFB118
 3835 003c 40000000 		.4byte	.LFE118-.LFB118
ARM GAS  C:\Users\DNIEL~1\AppData\Local\Temp\ccON3PQQ.s 			page 70


 3836 0040 00000000 		.4byte	.LFB124
 3837 0044 48000000 		.4byte	.LFE124-.LFB124
 3838 0048 00000000 		.4byte	.LFB119
 3839 004c 04000000 		.4byte	.LFE119-.LFB119
 3840 0050 00000000 		.4byte	.LFB120
 3841 0054 18000000 		.4byte	.LFE120-.LFB120
 3842 0058 00000000 		.4byte	.LFB121
 3843 005c 1C000000 		.4byte	.LFE121-.LFB121
 3844 0060 00000000 		.4byte	.LFB122
 3845 0064 1A000000 		.4byte	.LFE122-.LFB122
 3846 0068 00000000 		.4byte	.LFB127
 3847 006c 14000000 		.4byte	.LFE127-.LFB127
 3848 0070 00000000 		.4byte	.LFB130
 3849 0074 8C000000 		.4byte	.LFE130-.LFB130
 3850 0078 00000000 		.4byte	0x0
 3851 007c 00000000 		.4byte	0x0
 3852              		.section	.debug_ranges,"",%progbits
 3853              	.Ldebug_ranges0:
 3854 0000 56000000 		.4byte	.LBB2
 3855 0004 30010000 		.4byte	.LBE2
 3856 0008 50010000 		.4byte	.LBB3
 3857 000c 5E010000 		.4byte	.LBE3
 3858 0010 00000000 		.4byte	0x0
 3859 0014 00000000 		.4byte	0x0
 3860 0018 02000000 		.4byte	.LBB7
 3861 001c 04000000 		.4byte	.LBE7
 3862 0020 06000000 		.4byte	.LBB8
 3863 0024 0A000000 		.4byte	.LBE8
 3864 0028 00000000 		.4byte	0x0
 3865 002c 00000000 		.4byte	0x0
 3866 0030 02000000 		.4byte	.LBB10
 3867 0034 04000000 		.4byte	.LBE10
 3868 0038 06000000 		.4byte	.LBB11
 3869 003c 0A000000 		.4byte	.LBE11
 3870 0040 00000000 		.4byte	0x0
 3871 0044 00000000 		.4byte	0x0
 3872 0048 00000000 		.4byte	.LFB129
 3873 004c 18000000 		.4byte	.LFE129
 3874 0050 00000000 		.4byte	.LFB128
 3875 0054 1A000000 		.4byte	.LFE128
 3876 0058 00000000 		.4byte	.LFB126
 3877 005c 28000000 		.4byte	.LFE126
 3878 0060 00000000 		.4byte	.LFB125
 3879 0064 28000000 		.4byte	.LFE125
 3880 0068 00000000 		.4byte	.LFB123
 3881 006c 4C020000 		.4byte	.LFE123
 3882 0070 00000000 		.4byte	.LFB118
 3883 0074 40000000 		.4byte	.LFE118
 3884 0078 00000000 		.4byte	.LFB124
 3885 007c 48000000 		.4byte	.LFE124
 3886 0080 00000000 		.4byte	.LFB119
 3887 0084 04000000 		.4byte	.LFE119
 3888 0088 00000000 		.4byte	.LFB120
 3889 008c 18000000 		.4byte	.LFE120
 3890 0090 00000000 		.4byte	.LFB121
 3891 0094 1C000000 		.4byte	.LFE121
 3892 0098 00000000 		.4byte	.LFB122
ARM GAS  C:\Users\DNIEL~1\AppData\Local\Temp\ccON3PQQ.s 			page 71


 3893 009c 1A000000 		.4byte	.LFE122
 3894 00a0 00000000 		.4byte	.LFB127
 3895 00a4 14000000 		.4byte	.LFE127
 3896 00a8 00000000 		.4byte	.LFB130
 3897 00ac 8C000000 		.4byte	.LFE130
 3898 00b0 00000000 		.4byte	0x0
 3899 00b4 00000000 		.4byte	0x0
 3900              		.section	.debug_str,"MS",%progbits,1
 3901              	.LASF78:
 3902 0000 426C6F63 		.ascii	"BlockDeviceInfo\000"
 3902      6B446576 
 3902      69636549 
 3902      6E666F00 
 3903              	.LASF86:
 3904 0010 63617061 		.ascii	"capacity\000"
 3904      63697479 
 3904      00
 3905              	.LASF129:
 3906 0019 73646349 		.ascii	"sdcInit\000"
 3906      6E697400 
 3907              	.LASF34:
 3908 0021 705F7469 		.ascii	"p_time\000"
 3908      6D6500
 3909              	.LASF77:
 3910 0028 626C6B5F 		.ascii	"blk_num\000"
 3910      6E756D00 
 3911              	.LASF51:
 3912 0030 7264796D 		.ascii	"rdymsg\000"
 3912      736700
 3913              	.LASF96:
 3914 0037 69735F70 		.ascii	"is_protected\000"
 3914      726F7465 
 3914      63746564 
 3914      00
 3915              	.LASF57:
 3916 0044 4D304152 		.ascii	"M0AR\000"
 3916      00
 3917              	.LASF104:
 3918 0049 62646970 		.ascii	"bdip\000"
 3918      00
 3919              	.LASF60:
 3920 004e 73747265 		.ascii	"stream\000"
 3920      616D00
 3921              	.LASF11:
 3922 0055 6C6F6E67 		.ascii	"long long unsigned int\000"
 3922      206C6F6E 
 3922      6720756E 
 3922      7369676E 
 3922      65642069 
 3923              	.LASF52:
 3924 006c 65786974 		.ascii	"exitcode\000"
 3924      636F6465 
 3924      00
 3925              	.LASF64:
 3926 0075 76656374 		.ascii	"vector\000"
 3926      6F7200
 3927              	.LASF88:
ARM GAS  C:\Users\DNIEL~1\AppData\Local\Temp\ccON3PQQ.s 			page 72


 3928 007c 63617264 		.ascii	"cardmode\000"
 3928      6D6F6465 
 3928      00
 3929              	.LASF125:
 3930 0085 49544D5F 		.ascii	"ITM_RxBuffer\000"
 3930      52784275 
 3930      66666572 
 3930      00
 3931              	.LASF75:
 3932 0092 626C6B73 		.ascii	"blkstate_t\000"
 3932      74617465 
 3932      5F7400
 3933              	.LASF115:
 3934 009d 73646344 		.ascii	"sdcDisconnect\000"
 3934      6973636F 
 3934      6E6E6563 
 3934      7400
 3935              	.LASF25:
 3936 00ab 705F7072 		.ascii	"p_prio\000"
 3936      696F00
 3937              	.LASF10:
 3938 00b2 6C6F6E67 		.ascii	"long long int\000"
 3938      206C6F6E 
 3938      6720696E 
 3938      7400
 3939              	.LASF1:
 3940 00c0 7369676E 		.ascii	"signed char\000"
 3940      65642063 
 3940      68617200 
 3941              	.LASF79:
 3942 00cc 5344435F 		.ascii	"SDC_MODE_1BIT\000"
 3942      4D4F4445 
 3942      5F314249 
 3942      5400
 3943              	.LASF41:
 3944 00da 705F6D70 		.ascii	"p_mpool\000"
 3944      6F6F6C00 
 3945              	.LASF12:
 3946 00e2 626F6F6C 		.ascii	"bool_t\000"
 3946      5F7400
 3947              	.LASF48:
 3948 00e9 6D5F7175 		.ascii	"m_queue\000"
 3948      65756500 
 3949              	.LASF98:
 3950 00f1 64697363 		.ascii	"disconnect\000"
 3950      6F6E6E65 
 3950      637400
 3951              	.LASF126:
 3952 00fc 474E5520 		.ascii	"GNU C 4.5.2\000"
 3952      4320342E 
 3952      352E3200 
 3953              	.LASF17:
 3954 0108 74736C69 		.ascii	"tslices_t\000"
 3954      6365735F 
 3954      7400
 3955              	.LASF66:
 3956 0112 424C4B5F 		.ascii	"BLK_UNINIT\000"
ARM GAS  C:\Users\DNIEL~1\AppData\Local\Temp\ccON3PQQ.s 			page 73


 3956      554E494E 
 3956      495400
 3957              	.LASF85:
 3958 011d 73746174 		.ascii	"state\000"
 3958      6500
 3959              	.LASF7:
 3960 0123 6C6F6E67 		.ascii	"long int\000"
 3960      20696E74 
 3960      00
 3961              	.LASF15:
 3962 012c 74737461 		.ascii	"tstate_t\000"
 3962      74655F74 
 3962      00
 3963              	.LASF74:
 3964 0135 424C4B5F 		.ascii	"BLK_SYNCING\000"
 3964      53594E43 
 3964      494E4700 
 3965              	.LASF67:
 3966 0141 424C4B5F 		.ascii	"BLK_STOP\000"
 3966      53544F50 
 3966      00
 3967              	.LASF27:
 3968 014a 705F6E65 		.ascii	"p_newer\000"
 3968      77657200 
 3969              	.LASF94:
 3970 0152 53444344 		.ascii	"SDCDriverVMT\000"
 3970      72697665 
 3970      72564D54 
 3970      00
 3971              	.LASF102:
 3972 015f 6765745F 		.ascii	"get_info\000"
 3972      696E666F 
 3972      00
 3973              	.LASF44:
 3974 0168 72656761 		.ascii	"regarm_t\000"
 3974      726D5F74 
 3974      00
 3975              	.LASF63:
 3976 0171 73656C66 		.ascii	"selfindex\000"
 3976      696E6465 
 3976      7800
 3977              	.LASF92:
 3978 017b 64756D6D 		.ascii	"dummy\000"
 3978      7900
 3979              	.LASF76:
 3980 0181 626C6B5F 		.ascii	"blk_size\000"
 3980      73697A65 
 3980      00
 3981              	.LASF82:
 3982 018a 7364636D 		.ascii	"sdcmode_t\000"
 3982      6F64655F 
 3982      7400
 3983              	.LASF113:
 3984 0194 72657370 		.ascii	"resp\000"
 3984      00
 3985              	.LASF0:
 3986 0199 756E7369 		.ascii	"unsigned int\000"
ARM GAS  C:\Users\DNIEL~1\AppData\Local\Temp\ccON3PQQ.s 			page 74


 3986      676E6564 
 3986      20696E74 
 3986      00
 3987              	.LASF112:
 3988 01a6 73646343 		.ascii	"sdcConnect\000"
 3988      6F6E6E65 
 3988      637400
 3989              	.LASF89:
 3990 01b1 6572726F 		.ascii	"errors\000"
 3990      727300
 3991              	.LASF36:
 3992 01b8 705F6D73 		.ascii	"p_msgqueue\000"
 3992      67717565 
 3992      756500
 3993              	.LASF62:
 3994 01c3 69736869 		.ascii	"ishift\000"
 3994      667400
 3995              	.LASF81:
 3996 01ca 5344435F 		.ascii	"SDC_MODE_8BIT\000"
 3996      4D4F4445 
 3996      5F384249 
 3996      5400
 3997              	.LASF4:
 3998 01d8 73686F72 		.ascii	"short unsigned int\000"
 3998      7420756E 
 3998      7369676E 
 3998      65642069 
 3998      6E7400
 3999              	.LASF68:
 4000 01eb 424C4B5F 		.ascii	"BLK_ACTIVE\000"
 4000      41435449 
 4000      564500
 4001              	.LASF19:
 4002 01f6 6D73675F 		.ascii	"msg_t\000"
 4002      7400
 4003              	.LASF69:
 4004 01fc 424C4B5F 		.ascii	"BLK_CONNECTING\000"
 4004      434F4E4E 
 4004      45435449 
 4004      4E4700
 4005              	.LASF14:
 4006 020b 746D6F64 		.ascii	"tmode_t\000"
 4006      655F7400 
 4007              	.LASF43:
 4008 0213 54687265 		.ascii	"ThreadsList\000"
 4008      6164734C 
 4008      69737400 
 4009              	.LASF20:
 4010 021f 6576656E 		.ascii	"eventmask_t\000"
 4010      746D6173 
 4010      6B5F7400 
 4011              	.LASF100:
 4012 022b 77726974 		.ascii	"write\000"
 4012      6500
 4013              	.LASF72:
 4014 0231 424C4B5F 		.ascii	"BLK_READING\000"
 4014      52454144 
ARM GAS  C:\Users\DNIEL~1\AppData\Local\Temp\ccON3PQQ.s 			page 75


 4014      494E4700 
 4015              	.LASF114:
 4016 023d 5F736463 		.ascii	"_sdc_wait_for_transfer_state\000"
 4016      5F776169 
 4016      745F666F 
 4016      725F7472 
 4016      616E7366 
 4017              	.LASF47:
 4018 025a 4D757465 		.ascii	"Mutex\000"
 4018      7800
 4019              	.LASF121:
 4020 0260 73646345 		.ascii	"sdcErase\000"
 4020      72617365 
 4020      00
 4021              	.LASF107:
 4022 0269 73646357 		.ascii	"sdcWrite\000"
 4022      72697465 
 4022      00
 4023              	.LASF71:
 4024 0272 424C4B5F 		.ascii	"BLK_READY\000"
 4024      52454144 
 4024      5900
 4025              	.LASF42:
 4026 027c 54687265 		.ascii	"ThreadsQueue\000"
 4026      61647351 
 4026      75657565 
 4026      00
 4027              	.LASF106:
 4028 0289 73646353 		.ascii	"sdcSync\000"
 4028      796E6300 
 4029              	.LASF123:
 4030 0291 6661696C 		.ascii	"failed\000"
 4030      656400
 4031              	.LASF111:
 4032 0298 73646352 		.ascii	"sdcRead\000"
 4032      65616400 
 4033              	.LASF127:
 4034 02a0 2E2E2F2E 		.ascii	"../../../ChibiOS/os/hal/src/sdc.c\000"
 4034      2E2F2E2E 
 4034      2F436869 
 4034      62694F53 
 4034      2F6F732F 
 4035              	.LASF116:
 4036 02c2 7364634F 		.ascii	"sdcObjectInit\000"
 4036      626A6563 
 4036      74496E69 
 4036      7400
 4037              	.LASF16:
 4038 02d0 74726566 		.ascii	"trefs_t\000"
 4038      735F7400 
 4039              	.LASF101:
 4040 02d8 73796E63 		.ascii	"sync\000"
 4040      00
 4041              	.LASF117:
 4042 02dd 73646353 		.ascii	"sdcStart\000"
 4042      74617274 
 4042      00
ARM GAS  C:\Users\DNIEL~1\AppData\Local\Temp\ccON3PQQ.s 			page 76


 4043              	.LASF24:
 4044 02e6 705F7072 		.ascii	"p_prev\000"
 4044      657600
 4045              	.LASF65:
 4046 02ed 73746D33 		.ascii	"stm32_dma_stream_t\000"
 4046      325F646D 
 4046      615F7374 
 4046      7265616D 
 4046      5F7400
 4047              	.LASF118:
 4048 0300 73646353 		.ascii	"sdcStop\000"
 4048      746F7000 
 4049              	.LASF18:
 4050 0308 74707269 		.ascii	"tprio_t\000"
 4050      6F5F7400 
 4051              	.LASF90:
 4052 0310 74687265 		.ascii	"thread\000"
 4052      616400
 4053              	.LASF13:
 4054 0317 5F426F6F 		.ascii	"_Bool\000"
 4054      6C00
 4055              	.LASF6:
 4056 031d 696E7433 		.ascii	"int32_t\000"
 4056      325F7400 
 4057              	.LASF2:
 4058 0325 756E7369 		.ascii	"unsigned char\000"
 4058      676E6564 
 4058      20636861 
 4058      7200
 4059              	.LASF128:
 4060 0333 433A5C44 		.ascii	"C:\\Dani\\MegaLux\\Repo\\Smarty\\Smarty\\smarty\\fi"
 4060      616E695C 
 4060      4D656761 
 4060      4C75785C 
 4060      5265706F 
 4061 035f 726D7761 		.ascii	"rmware\000"
 4061      726500
 4062              	.LASF39:
 4063 0366 705F6D74 		.ascii	"p_mtxlist\000"
 4063      786C6973 
 4063      7400
 4064              	.LASF3:
 4065 0370 73686F72 		.ascii	"short int\000"
 4065      7420696E 
 4065      7400
 4066              	.LASF30:
 4067 037a 705F7374 		.ascii	"p_state\000"
 4067      61746500 
 4068              	.LASF73:
 4069 0382 424C4B5F 		.ascii	"BLK_WRITING\000"
 4069      57524954 
 4069      494E4700 
 4070              	.LASF33:
 4071 038e 705F7072 		.ascii	"p_preempt\000"
 4071      65656D70 
 4071      7400
 4072              	.LASF28:
ARM GAS  C:\Users\DNIEL~1\AppData\Local\Temp\ccON3PQQ.s 			page 77


 4073 0398 705F6F6C 		.ascii	"p_older\000"
 4073      64657200 
 4074              	.LASF54:
 4075 03a0 65776D61 		.ascii	"ewmask\000"
 4075      736B00
 4076              	.LASF23:
 4077 03a7 705F6E65 		.ascii	"p_next\000"
 4077      787400
 4078              	.LASF124:
 4079 03ae 7364635F 		.ascii	"sdc_vmt\000"
 4079      766D7400 
 4080              	.LASF31:
 4081 03b6 705F666C 		.ascii	"p_flags\000"
 4081      61677300 
 4082              	.LASF22:
 4083 03be 54687265 		.ascii	"Thread\000"
 4083      616400
 4084              	.LASF97:
 4085 03c5 636F6E6E 		.ascii	"connect\000"
 4085      65637400 
 4086              	.LASF38:
 4087 03cd 705F6570 		.ascii	"p_epending\000"
 4087      656E6469 
 4087      6E6700
 4088              	.LASF61:
 4089 03d8 69666372 		.ascii	"ifcr\000"
 4089      00
 4090              	.LASF8:
 4091 03dd 75696E74 		.ascii	"uint32_t\000"
 4091      33325F74 
 4091      00
 4092              	.LASF9:
 4093 03e6 6C6F6E67 		.ascii	"long unsigned int\000"
 4093      20756E73 
 4093      69676E65 
 4093      6420696E 
 4093      7400
 4094              	.LASF99:
 4095 03f8 72656164 		.ascii	"read\000"
 4095      00
 4096              	.LASF55:
 4097 03fd 63686172 		.ascii	"char\000"
 4097      00
 4098              	.LASF70:
 4099 0402 424C4B5F 		.ascii	"BLK_DISCONNECTING\000"
 4099      44495343 
 4099      4F4E4E45 
 4099      4354494E 
 4099      4700
 4100              	.LASF87:
 4101 0414 636F6E66 		.ascii	"config\000"
 4101      696700
 4102              	.LASF103:
 4103 041b 73646370 		.ascii	"sdcp\000"
 4103      00
 4104              	.LASF50:
 4105 0420 6D5F6E65 		.ascii	"m_next\000"
ARM GAS  C:\Users\DNIEL~1\AppData\Local\Temp\ccON3PQQ.s 			page 78


 4105      787400
 4106              	.LASF21:
 4107 0427 73797374 		.ascii	"systime_t\000"
 4107      696D655F 
 4107      7400
 4108              	.LASF40:
 4109 0431 705F7265 		.ascii	"p_realprio\000"
 4109      616C7072 
 4109      696F00
 4110              	.LASF56:
 4111 043c 4E445452 		.ascii	"NDTR\000"
 4111      00
 4112              	.LASF59:
 4113 0441 444D415F 		.ascii	"DMA_Stream_TypeDef\000"
 4113      53747265 
 4113      616D5F54 
 4113      79706544 
 4113      656600
 4114              	.LASF108:
 4115 0454 73746172 		.ascii	"startblk\000"
 4115      74626C6B 
 4115      00
 4116              	.LASF80:
 4117 045d 5344435F 		.ascii	"SDC_MODE_4BIT\000"
 4117      4D4F4445 
 4117      5F344249 
 4117      5400
 4118              	.LASF46:
 4119 046b 636F6E74 		.ascii	"context\000"
 4119      65787400 
 4120              	.LASF83:
 4121 0473 73646366 		.ascii	"sdcflags_t\000"
 4121      6C616773 
 4121      5F7400
 4122              	.LASF45:
 4123 047e 696E7463 		.ascii	"intctx\000"
 4123      747800
 4124              	.LASF95:
 4125 0485 69735F69 		.ascii	"is_inserted\000"
 4125      6E736572 
 4125      74656400 
 4126              	.LASF58:
 4127 0491 4D314152 		.ascii	"M1AR\000"
 4127      00
 4128              	.LASF119:
 4129 0496 73646347 		.ascii	"sdcGetAndClearErrors\000"
 4129      6574416E 
 4129      64436C65 
 4129      61724572 
 4129      726F7273 
 4130              	.LASF32:
 4131 04ab 705F7265 		.ascii	"p_refs\000"
 4131      667300
 4132              	.LASF105:
 4133 04b2 73646347 		.ascii	"sdcGetInfo\000"
 4133      6574496E 
 4133      666F00
ARM GAS  C:\Users\DNIEL~1\AppData\Local\Temp\ccON3PQQ.s 			page 79


 4134              	.LASF110:
 4135 04bd 73746174 		.ascii	"status\000"
 4135      757300
 4136              	.LASF93:
 4137 04c4 53444343 		.ascii	"SDCConfig\000"
 4137      6F6E6669 
 4137      6700
 4138              	.LASF5:
 4139 04ce 75696E74 		.ascii	"uint8_t\000"
 4139      385F7400 
 4140              	.LASF120:
 4141 04d6 666C6167 		.ascii	"flags\000"
 4141      7300
 4142              	.LASF122:
 4143 04dc 656E6462 		.ascii	"endblk\000"
 4143      6C6B00
 4144              	.LASF91:
 4145 04e3 646D616D 		.ascii	"dmamode\000"
 4145      6F646500 
 4146              	.LASF53:
 4147 04eb 77746F62 		.ascii	"wtobjp\000"
 4147      6A7000
 4148              	.LASF29:
 4149 04f2 705F6E61 		.ascii	"p_name\000"
 4149      6D6500
 4150              	.LASF37:
 4151 04f9 705F6D73 		.ascii	"p_msg\000"
 4151      6700
 4152              	.LASF49:
 4153 04ff 6D5F6F77 		.ascii	"m_owner\000"
 4153      6E657200 
 4154              	.LASF109:
 4155 0507 72657375 		.ascii	"result\000"
 4155      6C7400
 4156              	.LASF84:
 4157 050e 53444344 		.ascii	"SDCDriver\000"
 4157      72697665 
 4157      7200
 4158              	.LASF26:
 4159 0518 705F6374 		.ascii	"p_ctx\000"
 4159      7800
 4160              	.LASF35:
 4161 051e 705F7761 		.ascii	"p_waiting\000"
 4161      6974696E 
 4161      6700
 4162              		.ident	"GCC: (Sourcery G++ Lite 2011.03-42) 4.5.2"
ARM GAS  C:\Users\DNIEL~1\AppData\Local\Temp\ccON3PQQ.s 			page 80


DEFINED SYMBOLS
                            *ABS*:00000000 sdc.c
C:\Users\DNIEL~1\AppData\Local\Temp\ccON3PQQ.s:24     .text.sdcGetInfo:00000000 $t
C:\Users\DNIEL~1\AppData\Local\Temp\ccON3PQQ.s:30     .text.sdcGetInfo:00000000 sdcGetInfo
C:\Users\DNIEL~1\AppData\Local\Temp\ccON3PQQ.s:65     .text.sdcSync:00000000 $t
C:\Users\DNIEL~1\AppData\Local\Temp\ccON3PQQ.s:71     .text.sdcSync:00000000 sdcSync
C:\Users\DNIEL~1\AppData\Local\Temp\ccON3PQQ.s:112    .text.sdcWrite:00000000 $t
C:\Users\DNIEL~1\AppData\Local\Temp\ccON3PQQ.s:118    .text.sdcWrite:00000000 sdcWrite
C:\Users\DNIEL~1\AppData\Local\Temp\ccON3PQQ.s:168    .text.sdcRead:00000000 $t
C:\Users\DNIEL~1\AppData\Local\Temp\ccON3PQQ.s:174    .text.sdcRead:00000000 sdcRead
C:\Users\DNIEL~1\AppData\Local\Temp\ccON3PQQ.s:224    .text.sdcConnect:00000000 $t
C:\Users\DNIEL~1\AppData\Local\Temp\ccON3PQQ.s:230    .text.sdcConnect:00000000 sdcConnect
C:\Users\DNIEL~1\AppData\Local\Temp\ccON3PQQ.s:575    .text.sdcConnect:00000240 $d
C:\Users\DNIEL~1\AppData\Local\Temp\ccON3PQQ.s:582    .text._sdc_wait_for_transfer_state:00000000 $t
C:\Users\DNIEL~1\AppData\Local\Temp\ccON3PQQ.s:588    .text._sdc_wait_for_transfer_state:00000000 _sdc_wait_for_transfer_state
C:\Users\DNIEL~1\AppData\Local\Temp\ccON3PQQ.s:643    .text._sdc_wait_for_transfer_state:0000003c $d
C:\Users\DNIEL~1\AppData\Local\Temp\ccON3PQQ.s:648    .text.sdcDisconnect:00000000 $t
C:\Users\DNIEL~1\AppData\Local\Temp\ccON3PQQ.s:654    .text.sdcDisconnect:00000000 sdcDisconnect
C:\Users\DNIEL~1\AppData\Local\Temp\ccON3PQQ.s:741    .text.sdcInit:00000000 $t
C:\Users\DNIEL~1\AppData\Local\Temp\ccON3PQQ.s:747    .text.sdcInit:00000000 sdcInit
C:\Users\DNIEL~1\AppData\Local\Temp\ccON3PQQ.s:761    .text.sdcObjectInit:00000000 $t
C:\Users\DNIEL~1\AppData\Local\Temp\ccON3PQQ.s:767    .text.sdcObjectInit:00000000 sdcObjectInit
C:\Users\DNIEL~1\AppData\Local\Temp\ccON3PQQ.s:796    .text.sdcObjectInit:00000014 $d
C:\Users\DNIEL~1\AppData\Local\Temp\ccON3PQQ.s:801    .text.sdcStart:00000000 $t
C:\Users\DNIEL~1\AppData\Local\Temp\ccON3PQQ.s:807    .text.sdcStart:00000000 sdcStart
C:\Users\DNIEL~1\AppData\Local\Temp\ccON3PQQ.s:858    .text.sdcStop:00000000 $t
C:\Users\DNIEL~1\AppData\Local\Temp\ccON3PQQ.s:864    .text.sdcStop:00000000 sdcStop
C:\Users\DNIEL~1\AppData\Local\Temp\ccON3PQQ.s:913    .text.sdcGetAndClearErrors:00000000 $t
C:\Users\DNIEL~1\AppData\Local\Temp\ccON3PQQ.s:919    .text.sdcGetAndClearErrors:00000000 sdcGetAndClearErrors
C:\Users\DNIEL~1\AppData\Local\Temp\ccON3PQQ.s:961    .text.sdcErase:00000000 $t
C:\Users\DNIEL~1\AppData\Local\Temp\ccON3PQQ.s:967    .text.sdcErase:00000000 sdcErase
C:\Users\DNIEL~1\AppData\Local\Temp\ccON3PQQ.s:1079   .text.sdcErase:00000088 $d
C:\Users\DNIEL~1\AppData\Local\Temp\ccON3PQQ.s:1084   .rodata.sdc_vmt:00000000 $d
C:\Users\DNIEL~1\AppData\Local\Temp\ccON3PQQ.s:1088   .rodata.sdc_vmt:00000000 sdc_vmt
                     .debug_frame:00000010 $d
C:\Users\DNIEL~1\AppData\Local\Temp\ccON3PQQ.s:581    .text.sdcConnect:0000024c $t
C:\Users\DNIEL~1\AppData\Local\Temp\ccON3PQQ.s:800    .text.sdcObjectInit:00000018 $t
C:\Users\DNIEL~1\AppData\Local\Temp\ccON3PQQ.s:1083   .text.sdcErase:0000008c $t

UNDEFINED SYMBOLS
sdc_lld_sync
sdc_lld_write
sdc_lld_read
sdc_lld_start_clk
sdc_lld_send_cmd_none
sdc_lld_send_cmd_short_crc
sdc_lld_stop_clk
sdc_lld_send_cmd_short
chThdSleep
sdc_lld_send_cmd_long_crc
sdc_lld_set_data_clk
sdc_lld_set_bus_mode
mmcsdGetCapacity
sdc_lld_init
sdc_lld_start
sdc_lld_stop
sdc_lld_is_card_inserted
ARM GAS  C:\Users\DNIEL~1\AppData\Local\Temp\ccON3PQQ.s 			page 81


sdc_lld_is_write_protected
