ARM GAS  C:\Users\srich\AppData\Local\Temp\ccUnnuc1.s 			page 1


   1              		.syntax unified
   2              		.cpu cortex-m4
   3              		.fpu softvfp
   4              		.eabi_attribute 20, 1
   5              		.eabi_attribute 21, 1
   6              		.eabi_attribute 23, 3
   7              		.eabi_attribute 24, 1
   8              		.eabi_attribute 25, 1
   9              		.eabi_attribute 26, 1
  10              		.eabi_attribute 30, 2
  11              		.eabi_attribute 34, 1
  12              		.eabi_attribute 18, 4
  13              		.thumb
  14              		.file	"sdc.c"
  15              		.text
  16              	.Ltext0:
  17              		.cfi_sections	.debug_frame
  18              		.section	.text.sdcGetInfo,"ax",%progbits
  19              		.align	2
  20              		.p2align 4,,15
  21              		.global	sdcGetInfo
  22              		.thumb
  23              		.thumb_func
  24              		.type	sdcGetInfo, %function
  25              	sdcGetInfo:
  26              	.LFB129:
  27              		.file 1 "../../../ChibiOS/os/hal/src/sdc.c"
  28              		.loc 1 512 0
  29              		.cfi_startproc
  30              		@ args = 0, pretend = 0, frame = 0
  31              		@ frame_needed = 0, uses_anonymous_args = 0
  32              		@ link register save eliminated.
  33              	.LVL0:
  34              		.loc 1 516 0
  35 0000 0379     		ldrb	r3, [r0, #4]	@ zero_extendqisi2
  36 0002 052B     		cmp	r3, #5
  37 0004 01D0     		beq	.L5
  38              		.loc 1 517 0
  39 0006 0120     		movs	r0, #1
  40              	.LVL1:
  41              		.loc 1 523 0
  42 0008 7047     		bx	lr
  43              	.LVL2:
  44              	.L5:
  45              		.loc 1 519 0
  46 000a 836A     		ldr	r3, [r0, #40]
  47 000c 4B60     		str	r3, [r1, #4]
  48              		.loc 1 520 0
  49 000e 4FF40073 		mov	r3, #512
  50 0012 0B60     		str	r3, [r1]
  51              		.loc 1 522 0
  52 0014 0020     		movs	r0, #0
  53              	.LVL3:
  54 0016 7047     		bx	lr
  55              		.cfi_endproc
  56              	.LFE129:
  57              		.size	sdcGetInfo, .-sdcGetInfo
ARM GAS  C:\Users\srich\AppData\Local\Temp\ccUnnuc1.s 			page 2


  58              		.section	.text.sdcConnect,"ax",%progbits
  59              		.align	2
  60              		.p2align 4,,15
  61              		.global	sdcConnect
  62              		.thumb
  63              		.thumb_func
  64              		.type	sdcConnect, %function
  65              	sdcConnect:
  66              	.LFB123:
  67              		.loc 1 198 0
  68              		.cfi_startproc
  69              		@ args = 0, pretend = 0, frame = 8
  70              		@ frame_needed = 0, uses_anonymous_args = 0
  71              	.LVL4:
  72 0000 2DE9F041 		push	{r4, r5, r6, r7, r8, lr}
  73              		.cfi_def_cfa_offset 24
  74              		.cfi_offset 4, -24
  75              		.cfi_offset 5, -20
  76              		.cfi_offset 6, -16
  77              		.cfi_offset 7, -12
  78              		.cfi_offset 8, -8
  79              		.cfi_offset 14, -4
  80              		.loc 1 206 0
  81 0004 0323     		movs	r3, #3
  82              		.loc 1 198 0
  83 0006 82B0     		sub	sp, sp, #8
  84              		.cfi_def_cfa_offset 32
  85              		.loc 1 206 0
  86 0008 0371     		strb	r3, [r0, #4]
  87              		.loc 1 198 0
  88 000a 0446     		mov	r4, r0
  89              		.loc 1 209 0
  90 000c FFF7FEFF 		bl	sdc_lld_start_clk
  91              	.LVL5:
  92              		.loc 1 212 0
  93 0010 0021     		movs	r1, #0
  94 0012 0A46     		mov	r2, r1
  95 0014 2046     		mov	r0, r4
  96 0016 FFF7FEFF 		bl	sdc_lld_send_cmd_none
  97              	.LVL6:
  98              		.loc 1 215 0
  99 001a 2046     		mov	r0, r4
 100 001c 01AB     		add	r3, sp, #4
 101 001e 0821     		movs	r1, #8
 102 0020 4FF4D572 		mov	r2, #426
 103 0024 FFF7FEFF 		bl	sdc_lld_send_cmd_short_crc
 104              	.LVL7:
 105 0028 88B9     		cbnz	r0, .L7
 106              		.loc 1 219 0
 107 002a 019B     		ldr	r3, [sp, #4]
 108              		.loc 1 217 0
 109 002c 0122     		movs	r2, #1
 110              		.loc 1 219 0
 111 002e C3F30323 		ubfx	r3, r3, #8, #4
 112 0032 9342     		cmp	r3, r2
 113              		.loc 1 217 0
 114 0034 2263     		str	r2, [r4, #48]
ARM GAS  C:\Users\srich\AppData\Local\Temp\ccUnnuc1.s 			page 3


 115              		.loc 1 219 0
 116 0036 00F0A680 		beq	.L28
 117              	.L8:
 118              	.LDL1:
 119              		.loc 1 330 0
 120 003a 2046     		mov	r0, r4
 121 003c FFF7FEFF 		bl	sdc_lld_stop_clk
 122              	.LVL8:
 123              		.loc 1 331 0
 124 0040 0223     		movs	r3, #2
 125 0042 2371     		strb	r3, [r4, #4]
 126              		.loc 1 332 0
 127 0044 0125     		movs	r5, #1
 128              	.L16:
 129              		.loc 1 333 0
 130 0046 2846     		mov	r0, r5
 131 0048 02B0     		add	sp, sp, #8
 132              		.cfi_remember_state
 133              		.cfi_def_cfa_offset 24
 134              		@ sp needed
 135 004a BDE8F081 		pop	{r4, r5, r6, r7, r8, pc}
 136              	.LVL9:
 137              	.L7:
 138              		.cfi_restore_state
 139              		.loc 1 234 0
 140 004e 0021     		movs	r1, #0
 141 0050 2163     		str	r1, [r4, #48]
 142              		.loc 1 237 0
 143 0052 0A46     		mov	r2, r1
 144 0054 2046     		mov	r0, r4
 145 0056 FFF7FEFF 		bl	sdc_lld_send_cmd_none
 146              	.LVL10:
 147              	.L9:
 148              	.LBB5:
 149              		.loc 1 253 0
 150 005a 226B     		ldr	r2, [r4, #48]
 151              		.loc 1 256 0
 152 005c 524B     		ldr	r3, .L29
 153 005e 5349     		ldr	r1, .L29+4
 154              		.loc 1 253 0
 155 0060 02F00F02 		and	r2, r2, #15
 156              		.loc 1 256 0
 157 0064 012A     		cmp	r2, #1
 158 0066 0CBF     		ite	eq
 159 0068 9846     		moveq	r8, r3
 160 006a 8846     		movne	r8, r1
 161              	.LVL11:
 162 006c 6426     		movs	r6, #100
 163 006e 03E0     		b	.L13
 164              	.LVL12:
 165              	.L11:
 166              		.loc 1 271 0
 167 0070 013E     		subs	r6, r6, #1
 168              	.LVL13:
 169 0072 E2D0     		beq	.L8
 170              		.loc 1 273 0
 171 0074 FFF7FEFF 		bl	chThdSleep
ARM GAS  C:\Users\srich\AppData\Local\Temp\ccUnnuc1.s 			page 4


 172              	.LVL14:
 173              	.L13:
 174              		.loc 1 261 0
 175 0078 3721     		movs	r1, #55
 176 007a 0022     		movs	r2, #0
 177 007c 01AB     		add	r3, sp, #4
 178 007e 2046     		mov	r0, r4
 179 0080 FFF7FEFF 		bl	sdc_lld_send_cmd_short_crc
 180              	.LVL15:
 181              		.loc 1 262 0
 182 0084 4A4D     		ldr	r5, .L29+8
 183              		.loc 1 264 0
 184 0086 2921     		movs	r1, #41
 185 0088 4246     		mov	r2, r8
 186 008a 01AB     		add	r3, sp, #4
 187              		.loc 1 261 0
 188 008c 0028     		cmp	r0, #0
 189 008e D4D1     		bne	.L8
 190              	.LVL16:
 191              		.loc 1 262 0 discriminator 1
 192 0090 019F     		ldr	r7, [sp, #4]
 193 0092 3D40     		ands	r5, r5, r7
 194              		.loc 1 264 0 discriminator 1
 195 0094 2046     		mov	r0, r4
 196              		.loc 1 261 0 discriminator 1
 197 0096 002D     		cmp	r5, #0
 198 0098 CFD1     		bne	.L8
 199              	.LVL17:
 200              		.loc 1 264 0
 201 009a FFF7FEFF 		bl	sdc_lld_send_cmd_short
 202              	.LVL18:
 203 009e 0028     		cmp	r0, #0
 204 00a0 CBD1     		bne	.L8
 205              		.loc 1 266 0
 206 00a2 019B     		ldr	r3, [sp, #4]
 207 00a4 002B     		cmp	r3, #0
 208              		.loc 1 273 0
 209 00a6 4FF00A00 		mov	r0, #10
 210              		.loc 1 266 0
 211 00aa E1DA     		bge	.L11
 212              		.loc 1 267 0
 213 00ac 5B00     		lsls	r3, r3, #1
 214 00ae 03D5     		bpl	.L12
 215              		.loc 1 268 0
 216 00b0 236B     		ldr	r3, [r4, #48]
 217 00b2 43F01003 		orr	r3, r3, #16
 218 00b6 2363     		str	r3, [r4, #48]
 219              	.L12:
 220              	.LBE5:
 221              		.loc 1 278 0
 222 00b8 2046     		mov	r0, r4
 223 00ba 0221     		movs	r1, #2
 224 00bc 0022     		movs	r2, #0
 225 00be 04F10803 		add	r3, r4, #8
 226 00c2 FFF7FEFF 		bl	sdc_lld_send_cmd_long_crc
 227              	.LVL19:
 228 00c6 0028     		cmp	r0, #0
ARM GAS  C:\Users\srich\AppData\Local\Temp\ccUnnuc1.s 			page 5


 229 00c8 B7D1     		bne	.L8
 230              		.loc 1 282 0
 231 00ca 0246     		mov	r2, r0
 232 00cc 0321     		movs	r1, #3
 233 00ce 2046     		mov	r0, r4
 234 00d0 04F13803 		add	r3, r4, #56
 235 00d4 FFF7FEFF 		bl	sdc_lld_send_cmd_short_crc
 236              	.LVL20:
 237 00d8 0028     		cmp	r0, #0
 238 00da AED1     		bne	.L8
 239              		.loc 1 288 0
 240 00dc 04F11806 		add	r6, r4, #24
 241              	.LVL21:
 242              		.loc 1 287 0
 243 00e0 3346     		mov	r3, r6
 244 00e2 2046     		mov	r0, r4
 245 00e4 0921     		movs	r1, #9
 246 00e6 A26B     		ldr	r2, [r4, #56]
 247 00e8 FFF7FEFF 		bl	sdc_lld_send_cmd_long_crc
 248              	.LVL22:
 249 00ec 0028     		cmp	r0, #0
 250 00ee A4D1     		bne	.L8
 251              		.loc 1 292 0
 252 00f0 2046     		mov	r0, r4
 253 00f2 FFF7FEFF 		bl	sdc_lld_set_data_clk
 254              	.LVL23:
 255              		.loc 1 295 0
 256 00f6 2046     		mov	r0, r4
 257 00f8 0721     		movs	r1, #7
 258 00fa A26B     		ldr	r2, [r4, #56]
 259 00fc 01AB     		add	r3, sp, #4
 260 00fe FFF7FEFF 		bl	sdc_lld_send_cmd_short_crc
 261              	.LVL24:
 262 0102 0028     		cmp	r0, #0
 263 0104 99D1     		bne	.L8
 264              		.loc 1 300 0
 265 0106 2046     		mov	r0, r4
 266 0108 1021     		movs	r1, #16
 267 010a 4FF40072 		mov	r2, #512
 268 010e 01AB     		add	r3, sp, #4
 269 0110 FFF7FEFF 		bl	sdc_lld_send_cmd_short_crc
 270              	.LVL25:
 271 0114 0546     		mov	r5, r0
 272 0116 0028     		cmp	r0, #0
 273 0118 8FD1     		bne	.L8
 274              		.loc 1 302 0
 275 011a 019A     		ldr	r2, [sp, #4]
 276 011c 244B     		ldr	r3, .L29+8
 277 011e 1340     		ands	r3, r3, r2
 278              		.loc 1 301 0
 279 0120 002B     		cmp	r3, #0
 280 0122 8AD1     		bne	.L8
 281              		.loc 1 306 0
 282 0124 236B     		ldr	r3, [r4, #48]
 283 0126 03F00F03 		and	r3, r3, #15
 284 012a 012B     		cmp	r3, #1
 285 012c 21D8     		bhi	.L14
ARM GAS  C:\Users\srich\AppData\Local\Temp\ccUnnuc1.s 			page 6


 286              		.loc 1 309 0
 287 012e 2046     		mov	r0, r4
 288 0130 0121     		movs	r1, #1
 289 0132 FFF7FEFF 		bl	sdc_lld_set_bus_mode
 290              	.LVL26:
 291              		.loc 1 310 0
 292 0136 2046     		mov	r0, r4
 293 0138 3721     		movs	r1, #55
 294 013a A26B     		ldr	r2, [r4, #56]
 295 013c 01AB     		add	r3, sp, #4
 296 013e FFF7FEFF 		bl	sdc_lld_send_cmd_short_crc
 297              	.LVL27:
 298 0142 0028     		cmp	r0, #0
 299 0144 7FF479AF 		bne	.L8
 300              		.loc 1 311 0 discriminator 1
 301 0148 019A     		ldr	r2, [sp, #4]
 302 014a 194B     		ldr	r3, .L29+8
 303 014c 1340     		ands	r3, r3, r2
 304              		.loc 1 310 0 discriminator 1
 305 014e 002B     		cmp	r3, #0
 306 0150 7FF473AF 		bne	.L8
 307              		.loc 1 313 0
 308 0154 01AB     		add	r3, sp, #4
 309 0156 2046     		mov	r0, r4
 310 0158 0621     		movs	r1, #6
 311 015a 0222     		movs	r2, #2
 312 015c FFF7FEFF 		bl	sdc_lld_send_cmd_short_crc
 313              	.LVL28:
 314 0160 0028     		cmp	r0, #0
 315 0162 7FF46AAF 		bne	.L8
 316              		.loc 1 314 0 discriminator 1
 317 0166 019A     		ldr	r2, [sp, #4]
 318 0168 114B     		ldr	r3, .L29+8
 319 016a 1340     		ands	r3, r3, r2
 320              		.loc 1 313 0 discriminator 1
 321 016c 002B     		cmp	r3, #0
 322 016e 7FF464AF 		bne	.L8
 323              	.L14:
 324              		.loc 1 320 0
 325 0172 3046     		mov	r0, r6
 326 0174 FFF7FEFF 		bl	mmcsdGetCapacity
 327              	.LVL29:
 328 0178 A062     		str	r0, [r4, #40]
 329              		.loc 1 321 0
 330 017a 0028     		cmp	r0, #0
 331 017c 3FF45DAF 		beq	.L8
 332              		.loc 1 325 0
 333 0180 0523     		movs	r3, #5
 334 0182 2371     		strb	r3, [r4, #4]
 335              		.loc 1 326 0
 336 0184 5FE7     		b	.L16
 337              	.LVL30:
 338              	.L28:
 339              		.loc 1 221 0
 340 0186 0246     		mov	r2, r0
 341 0188 3721     		movs	r1, #55
 342 018a 2046     		mov	r0, r4
ARM GAS  C:\Users\srich\AppData\Local\Temp\ccUnnuc1.s 			page 7


 343 018c 01AB     		add	r3, sp, #4
 344 018e FFF7FEFF 		bl	sdc_lld_send_cmd_short_crc
 345              	.LVL31:
 346 0192 0028     		cmp	r0, #0
 347 0194 7FF451AF 		bne	.L8
 348              		.loc 1 222 0 discriminator 1
 349 0198 019A     		ldr	r2, [sp, #4]
 350 019a 054B     		ldr	r3, .L29+8
 351 019c 1340     		ands	r3, r3, r2
 352              		.loc 1 221 0 discriminator 1
 353 019e 002B     		cmp	r3, #0
 354 01a0 7FF44BAF 		bne	.L8
 355 01a4 59E7     		b	.L9
 356              	.L30:
 357 01a6 00BF     		.align	2
 358              	.L29:
 359 01a8 000010C0 		.word	-1072693248
 360 01ac 00001080 		.word	-2146435072
 361 01b0 08E0FFFD 		.word	-33562616
 362              		.cfi_endproc
 363              	.LFE123:
 364              		.size	sdcConnect, .-sdcConnect
 365              		.section	.text.sdcRead,"ax",%progbits
 366              		.align	2
 367              		.p2align 4,,15
 368              		.global	sdcRead
 369              		.thumb
 370              		.thumb_func
 371              		.type	sdcRead, %function
 372              	sdcRead:
 373              	.LFB125:
 374              		.loc 1 390 0
 375              		.cfi_startproc
 376              		@ args = 0, pretend = 0, frame = 0
 377              		@ frame_needed = 0, uses_anonymous_args = 0
 378              	.LVL32:
 379 0000 70B5     		push	{r4, r5, r6, lr}
 380              		.cfi_def_cfa_offset 16
 381              		.cfi_offset 4, -16
 382              		.cfi_offset 5, -12
 383              		.cfi_offset 6, -8
 384              		.cfi_offset 14, -4
 385 0002 4D1E     		subs	r5, r1, #1
 386              		.loc 1 396 0
 387 0004 866A     		ldr	r6, [r0, #40]
 388 0006 1D44     		add	r5, r5, r3
 389 0008 B542     		cmp	r5, r6
 390              		.loc 1 390 0
 391 000a 0446     		mov	r4, r0
 392              		.loc 1 396 0
 393 000c 05D9     		bls	.L32
 394              		.loc 1 397 0
 395 000e 436B     		ldr	r3, [r0, #52]
 396              	.LVL33:
 397 0010 43F08003 		orr	r3, r3, #128
 398 0014 4363     		str	r3, [r0, #52]
 399              		.loc 1 398 0
ARM GAS  C:\Users\srich\AppData\Local\Temp\ccUnnuc1.s 			page 8


 400 0016 0120     		movs	r0, #1
 401              	.LVL34:
 402 0018 70BD     		pop	{r4, r5, r6, pc}
 403              	.LVL35:
 404              	.L32:
 405              	.LBB8:
 406              	.LBB9:
 407              		.loc 1 402 0
 408 001a 0625     		movs	r5, #6
 409 001c 0571     		strb	r5, [r0, #4]
 410              		.loc 1 404 0
 411 001e FFF7FEFF 		bl	sdc_lld_read
 412              	.LVL36:
 413              		.loc 1 407 0
 414 0022 0523     		movs	r3, #5
 415 0024 2371     		strb	r3, [r4, #4]
 416              	.LBE9:
 417              	.LBE8:
 418              		.loc 1 409 0
 419 0026 70BD     		pop	{r4, r5, r6, pc}
 420              		.cfi_endproc
 421              	.LFE125:
 422              		.size	sdcRead, .-sdcRead
 423              		.section	.text.sdcWrite,"ax",%progbits
 424              		.align	2
 425              		.p2align 4,,15
 426              		.global	sdcWrite
 427              		.thumb
 428              		.thumb_func
 429              		.type	sdcWrite, %function
 430              	sdcWrite:
 431              	.LFB126:
 432              		.loc 1 428 0
 433              		.cfi_startproc
 434              		@ args = 0, pretend = 0, frame = 0
 435              		@ frame_needed = 0, uses_anonymous_args = 0
 436              	.LVL37:
 437 0000 70B5     		push	{r4, r5, r6, lr}
 438              		.cfi_def_cfa_offset 16
 439              		.cfi_offset 4, -16
 440              		.cfi_offset 5, -12
 441              		.cfi_offset 6, -8
 442              		.cfi_offset 14, -4
 443 0002 4D1E     		subs	r5, r1, #1
 444              		.loc 1 434 0
 445 0004 866A     		ldr	r6, [r0, #40]
 446 0006 1D44     		add	r5, r5, r3
 447 0008 B542     		cmp	r5, r6
 448              		.loc 1 428 0
 449 000a 0446     		mov	r4, r0
 450              		.loc 1 434 0
 451 000c 05D9     		bls	.L36
 452              		.loc 1 435 0
 453 000e 436B     		ldr	r3, [r0, #52]
 454              	.LVL38:
 455 0010 43F08003 		orr	r3, r3, #128
 456 0014 4363     		str	r3, [r0, #52]
ARM GAS  C:\Users\srich\AppData\Local\Temp\ccUnnuc1.s 			page 9


 457              		.loc 1 436 0
 458 0016 0120     		movs	r0, #1
 459              	.LVL39:
 460 0018 70BD     		pop	{r4, r5, r6, pc}
 461              	.LVL40:
 462              	.L36:
 463              	.LBB12:
 464              	.LBB13:
 465              		.loc 1 440 0
 466 001a 0725     		movs	r5, #7
 467 001c 0571     		strb	r5, [r0, #4]
 468              		.loc 1 442 0
 469 001e FFF7FEFF 		bl	sdc_lld_write
 470              	.LVL41:
 471              		.loc 1 445 0
 472 0022 0523     		movs	r3, #5
 473 0024 2371     		strb	r3, [r4, #4]
 474              	.LBE13:
 475              	.LBE12:
 476              		.loc 1 447 0
 477 0026 70BD     		pop	{r4, r5, r6, pc}
 478              		.cfi_endproc
 479              	.LFE126:
 480              		.size	sdcWrite, .-sdcWrite
 481              		.section	.text.sdcSync,"ax",%progbits
 482              		.align	2
 483              		.p2align 4,,15
 484              		.global	sdcSync
 485              		.thumb
 486              		.thumb_func
 487              		.type	sdcSync, %function
 488              	sdcSync:
 489              	.LFB128:
 490              		.loc 1 482 0
 491              		.cfi_startproc
 492              		@ args = 0, pretend = 0, frame = 0
 493              		@ frame_needed = 0, uses_anonymous_args = 0
 494              	.LVL42:
 495 0000 38B5     		push	{r3, r4, r5, lr}
 496              		.cfi_def_cfa_offset 16
 497              		.cfi_offset 3, -16
 498              		.cfi_offset 4, -12
 499              		.cfi_offset 5, -8
 500              		.cfi_offset 14, -4
 501              		.loc 1 487 0
 502 0002 0579     		ldrb	r5, [r0, #4]	@ zero_extendqisi2
 503 0004 052D     		cmp	r5, #5
 504 0006 01D0     		beq	.L43
 505              		.loc 1 488 0
 506 0008 0120     		movs	r0, #1
 507              	.LVL43:
 508              		.loc 1 498 0
 509 000a 38BD     		pop	{r3, r4, r5, pc}
 510              	.LVL44:
 511              	.L43:
 512 000c 0446     		mov	r4, r0
 513              	.LBB16:
ARM GAS  C:\Users\srich\AppData\Local\Temp\ccUnnuc1.s 			page 10


 514              	.LBB17:
 515              		.loc 1 491 0
 516 000e 0823     		movs	r3, #8
 517 0010 0371     		strb	r3, [r0, #4]
 518              		.loc 1 493 0
 519 0012 FFF7FEFF 		bl	sdc_lld_sync
 520              	.LVL45:
 521              		.loc 1 496 0
 522 0016 2571     		strb	r5, [r4, #4]
 523 0018 38BD     		pop	{r3, r4, r5, pc}
 524              	.LBE17:
 525              	.LBE16:
 526              		.cfi_endproc
 527              	.LFE128:
 528              		.size	sdcSync, .-sdcSync
 529 001a 00BF     		.section	.text._sdc_wait_for_transfer_state,"ax",%progbits
 530              		.align	2
 531              		.p2align 4,,15
 532              		.global	_sdc_wait_for_transfer_state
 533              		.thumb
 534              		.thumb_func
 535              		.type	_sdc_wait_for_transfer_state, %function
 536              	_sdc_wait_for_transfer_state:
 537              	.LFB118:
 538              		.loc 1 82 0
 539              		.cfi_startproc
 540              		@ args = 0, pretend = 0, frame = 8
 541              		@ frame_needed = 0, uses_anonymous_args = 0
 542              	.LVL46:
 543 0000 10B5     		push	{r4, lr}
 544              		.cfi_def_cfa_offset 8
 545              		.cfi_offset 4, -8
 546              		.cfi_offset 14, -4
 547 0002 0446     		mov	r4, r0
 548 0004 82B0     		sub	sp, sp, #8
 549              		.cfi_def_cfa_offset 16
 550              	.LVL47:
 551              	.L48:
 552              		.loc 1 86 0
 553 0006 01AB     		add	r3, sp, #4
 554 0008 2046     		mov	r0, r4
 555 000a 0D21     		movs	r1, #13
 556 000c A26B     		ldr	r2, [r4, #56]
 557 000e FFF7FEFF 		bl	sdc_lld_send_cmd_short_crc
 558              	.LVL48:
 559              		.loc 1 88 0
 560 0012 0A4B     		ldr	r3, .L55
 561              		.loc 1 86 0
 562 0014 78B9     		cbnz	r0, .L45
 563              		.loc 1 88 0
 564 0016 019A     		ldr	r2, [sp, #4]
 565 0018 1340     		ands	r3, r3, r2
 566              		.loc 1 90 0
 567 001a C2F34321 		ubfx	r1, r2, #9, #4
 568              		.loc 1 87 0
 569 001e 4BB9     		cbnz	r3, .L49
 570              		.loc 1 90 0
ARM GAS  C:\Users\srich\AppData\Local\Temp\ccUnnuc1.s 			page 11


 571 0020 0429     		cmp	r1, #4
 572 0022 08D0     		beq	.L45
 573              		.loc 1 97 0
 574 0024 4FF00100 		mov	r0, #1
 575              		.loc 1 90 0
 576 0028 04D3     		bcc	.L49
 577 002a 0729     		cmp	r1, #7
 578 002c 02D8     		bhi	.L49
 579              		.loc 1 97 0
 580 002e FFF7FEFF 		bl	chThdSleep
 581              	.LVL49:
 582              		.loc 1 105 0
 583 0032 E8E7     		b	.L48
 584              	.L49:
 585              		.loc 1 89 0
 586 0034 0120     		movs	r0, #1
 587              	.L45:
 588              		.loc 1 108 0
 589 0036 02B0     		add	sp, sp, #8
 590              		.cfi_def_cfa_offset 8
 591              		@ sp needed
 592 0038 10BD     		pop	{r4, pc}
 593              	.LVL50:
 594              	.L56:
 595 003a 00BF     		.align	2
 596              	.L55:
 597 003c 08E0FFFD 		.word	-33562616
 598              		.cfi_endproc
 599              	.LFE118:
 600              		.size	_sdc_wait_for_transfer_state, .-_sdc_wait_for_transfer_state
 601              		.section	.text.sdcDisconnect,"ax",%progbits
 602              		.align	2
 603              		.p2align 4,,15
 604              		.global	sdcDisconnect
 605              		.thumb
 606              		.thumb_func
 607              		.type	sdcDisconnect, %function
 608              	sdcDisconnect:
 609              	.LFB124:
 610              		.loc 1 346 0
 611              		.cfi_startproc
 612              		@ args = 0, pretend = 0, frame = 0
 613              		@ frame_needed = 0, uses_anonymous_args = 0
 614              	.LVL51:
 615 0000 38B5     		push	{r3, r4, r5, lr}
 616              		.cfi_def_cfa_offset 16
 617              		.cfi_offset 3, -16
 618              		.cfi_offset 4, -12
 619              		.cfi_offset 5, -8
 620              		.cfi_offset 14, -4
 621              	.LBB25:
 622              		.loc 1 350 0
 623 0002 2023     		movs	r3, #32
 624              	@ 350 "../../../ChibiOS/os/hal/src/sdc.c" 1
 625 0004 83F31188 		msr     BASEPRI, r3
 626              	@ 0 "" 2
 627              		.thumb
ARM GAS  C:\Users\srich\AppData\Local\Temp\ccUnnuc1.s 			page 12


 628              	.LBE25:
 629              		.loc 1 353 0
 630 0008 0379     		ldrb	r3, [r0, #4]	@ zero_extendqisi2
 631 000a 022B     		cmp	r3, #2
 632 000c 0FD0     		beq	.L62
 633              	.LVL52:
 634              	.LBB26:
 635              	.LBB27:
 636              		.loc 1 357 0
 637 000e 0423     		movs	r3, #4
 638 0010 0371     		strb	r3, [r0, #4]
 639 0012 0446     		mov	r4, r0
 640              	.LBB28:
 641              		.loc 1 358 0
 642 0014 0023     		movs	r3, #0
 643              	@ 358 "../../../ChibiOS/os/hal/src/sdc.c" 1
 644 0016 83F31188 		msr     BASEPRI, r3
 645              	@ 0 "" 2
 646              		.thumb
 647              	.LBE28:
 648              		.loc 1 361 0
 649 001a FFF7FEFF 		bl	_sdc_wait_for_transfer_state
 650              	.LVL53:
 651 001e 0546     		mov	r5, r0
 652              		.loc 1 362 0
 653 0020 2046     		mov	r0, r4
 654              		.loc 1 368 0
 655 0022 FFF7FEFF 		bl	sdc_lld_stop_clk
 656              	.LVL54:
 657              		.loc 1 369 0
 658 0026 0223     		movs	r3, #2
 659 0028 2371     		strb	r3, [r4, #4]
 660              	.LBE27:
 661              	.LBE26:
 662              		.loc 1 371 0
 663 002a 2846     		mov	r0, r5
 664 002c 38BD     		pop	{r3, r4, r5, pc}
 665              	.LVL55:
 666              	.L62:
 667              	.LBB29:
 668              		.loc 1 354 0
 669 002e 0023     		movs	r3, #0
 670              	@ 354 "../../../ChibiOS/os/hal/src/sdc.c" 1
 671 0030 83F31188 		msr     BASEPRI, r3
 672              	@ 0 "" 2
 673              		.thumb
 674              	.LBE29:
 675              		.loc 1 355 0
 676 0034 1D46     		mov	r5, r3
 677              		.loc 1 371 0
 678 0036 2846     		mov	r0, r5
 679              	.LVL56:
 680 0038 38BD     		pop	{r3, r4, r5, pc}
 681              		.cfi_endproc
 682              	.LFE124:
 683              		.size	sdcDisconnect, .-sdcDisconnect
 684 003a 00BF     		.section	.text.sdcInit,"ax",%progbits
ARM GAS  C:\Users\srich\AppData\Local\Temp\ccUnnuc1.s 			page 13


 685              		.align	2
 686              		.p2align 4,,15
 687              		.global	sdcInit
 688              		.thumb
 689              		.thumb_func
 690              		.type	sdcInit, %function
 691              	sdcInit:
 692              	.LFB119:
 693              		.loc 1 121 0
 694              		.cfi_startproc
 695              		@ args = 0, pretend = 0, frame = 0
 696              		@ frame_needed = 0, uses_anonymous_args = 0
 697              		@ link register save eliminated.
 698              		.loc 1 123 0
 699 0000 FFF7FEBF 		b	sdc_lld_init
 700              	.LVL57:
 701              		.cfi_endproc
 702              	.LFE119:
 703              		.size	sdcInit, .-sdcInit
 704              		.section	.text.sdcObjectInit,"ax",%progbits
 705              		.align	2
 706              		.p2align 4,,15
 707              		.global	sdcObjectInit
 708              		.thumb
 709              		.thumb_func
 710              		.type	sdcObjectInit, %function
 711              	sdcObjectInit:
 712              	.LFB120:
 713              		.loc 1 133 0
 714              		.cfi_startproc
 715              		@ args = 0, pretend = 0, frame = 0
 716              		@ frame_needed = 0, uses_anonymous_args = 0
 717              		@ link register save eliminated.
 718              	.LVL58:
 719              		.loc 1 135 0
 720 0000 044B     		ldr	r3, .L65
 721 0002 0360     		str	r3, [r0]
 722              		.loc 1 136 0
 723 0004 0122     		movs	r2, #1
 724              		.loc 1 137 0
 725 0006 0023     		movs	r3, #0
 726              		.loc 1 136 0
 727 0008 0271     		strb	r2, [r0, #4]
 728              		.loc 1 137 0
 729 000a 4363     		str	r3, [r0, #52]
 730              		.loc 1 138 0
 731 000c C362     		str	r3, [r0, #44]
 732              		.loc 1 139 0
 733 000e 8362     		str	r3, [r0, #40]
 734 0010 7047     		bx	lr
 735              	.L66:
 736 0012 00BF     		.align	2
 737              	.L65:
 738 0014 00000000 		.word	.LANCHOR0
 739              		.cfi_endproc
 740              	.LFE120:
 741              		.size	sdcObjectInit, .-sdcObjectInit
ARM GAS  C:\Users\srich\AppData\Local\Temp\ccUnnuc1.s 			page 14


 742              		.section	.text.sdcStart,"ax",%progbits
 743              		.align	2
 744              		.p2align 4,,15
 745              		.global	sdcStart
 746              		.thumb
 747              		.thumb_func
 748              		.type	sdcStart, %function
 749              	sdcStart:
 750              	.LFB121:
 751              		.loc 1 152 0
 752              		.cfi_startproc
 753              		@ args = 0, pretend = 0, frame = 0
 754              		@ frame_needed = 0, uses_anonymous_args = 0
 755              	.LVL59:
 756 0000 10B5     		push	{r4, lr}
 757              		.cfi_def_cfa_offset 8
 758              		.cfi_offset 4, -8
 759              		.cfi_offset 14, -4
 760              	.LBB30:
 761              		.loc 1 156 0
 762 0002 2023     		movs	r3, #32
 763              	.LBE30:
 764              		.loc 1 152 0
 765 0004 0446     		mov	r4, r0
 766              	.LBB31:
 767              		.loc 1 156 0
 768              	@ 156 "../../../ChibiOS/os/hal/src/sdc.c" 1
 769 0006 83F31188 		msr     BASEPRI, r3
 770              	@ 0 "" 2
 771              		.thumb
 772              	.LBE31:
 773              		.loc 1 159 0
 774 000a C162     		str	r1, [r0, #44]
 775              		.loc 1 160 0
 776 000c FFF7FEFF 		bl	sdc_lld_start
 777              	.LVL60:
 778              		.loc 1 161 0
 779 0010 0223     		movs	r3, #2
 780 0012 2371     		strb	r3, [r4, #4]
 781              	.LBB32:
 782              		.loc 1 162 0
 783 0014 0023     		movs	r3, #0
 784              	@ 162 "../../../ChibiOS/os/hal/src/sdc.c" 1
 785 0016 83F31188 		msr     BASEPRI, r3
 786              	@ 0 "" 2
 787              		.thumb
 788 001a 10BD     		pop	{r4, pc}
 789              	.LBE32:
 790              		.cfi_endproc
 791              	.LFE121:
 792              		.size	sdcStart, .-sdcStart
 793              		.section	.text.sdcStop,"ax",%progbits
 794              		.align	2
 795              		.p2align 4,,15
 796              		.global	sdcStop
 797              		.thumb
 798              		.thumb_func
ARM GAS  C:\Users\srich\AppData\Local\Temp\ccUnnuc1.s 			page 15


 799              		.type	sdcStop, %function
 800              	sdcStop:
 801              	.LFB122:
 802              		.loc 1 172 0
 803              		.cfi_startproc
 804              		@ args = 0, pretend = 0, frame = 0
 805              		@ frame_needed = 0, uses_anonymous_args = 0
 806              	.LVL61:
 807 0000 10B5     		push	{r4, lr}
 808              		.cfi_def_cfa_offset 8
 809              		.cfi_offset 4, -8
 810              		.cfi_offset 14, -4
 811              	.LBB33:
 812              		.loc 1 176 0
 813 0002 2023     		movs	r3, #32
 814              	.LBE33:
 815              		.loc 1 172 0
 816 0004 0446     		mov	r4, r0
 817              	.LBB34:
 818              		.loc 1 176 0
 819              	@ 176 "../../../ChibiOS/os/hal/src/sdc.c" 1
 820 0006 83F31188 		msr     BASEPRI, r3
 821              	@ 0 "" 2
 822              		.thumb
 823              	.LBE34:
 824              		.loc 1 179 0
 825 000a FFF7FEFF 		bl	sdc_lld_stop
 826              	.LVL62:
 827              		.loc 1 180 0
 828 000e 0123     		movs	r3, #1
 829 0010 2371     		strb	r3, [r4, #4]
 830              	.LBB35:
 831              		.loc 1 181 0
 832 0012 0023     		movs	r3, #0
 833              	@ 181 "../../../ChibiOS/os/hal/src/sdc.c" 1
 834 0014 83F31188 		msr     BASEPRI, r3
 835              	@ 0 "" 2
 836              		.thumb
 837 0018 10BD     		pop	{r4, pc}
 838              	.LBE35:
 839              		.cfi_endproc
 840              	.LFE122:
 841              		.size	sdcStop, .-sdcStop
 842 001a 00BF     		.section	.text.sdcGetAndClearErrors,"ax",%progbits
 843              		.align	2
 844              		.p2align 4,,15
 845              		.global	sdcGetAndClearErrors
 846              		.thumb
 847              		.thumb_func
 848              		.type	sdcGetAndClearErrors, %function
 849              	sdcGetAndClearErrors:
 850              	.LFB127:
 851              		.loc 1 457 0
 852              		.cfi_startproc
 853              		@ args = 0, pretend = 0, frame = 0
 854              		@ frame_needed = 0, uses_anonymous_args = 0
 855              		@ link register save eliminated.
ARM GAS  C:\Users\srich\AppData\Local\Temp\ccUnnuc1.s 			page 16


 856              	.LVL63:
 857              		.loc 1 457 0
 858 0000 0246     		mov	r2, r0
 859              	.LBB36:
 860              		.loc 1 464 0
 861 0002 2023     		movs	r3, #32
 862              	@ 464 "../../../ChibiOS/os/hal/src/sdc.c" 1
 863 0004 83F31188 		msr     BASEPRI, r3
 864              	@ 0 "" 2
 865              		.thumb
 866              	.LBE36:
 867              		.loc 1 466 0
 868 0008 0023     		movs	r3, #0
 869              		.loc 1 465 0
 870 000a 406B     		ldr	r0, [r0, #52]
 871              	.LVL64:
 872              		.loc 1 466 0
 873 000c 5363     		str	r3, [r2, #52]
 874              	.LBB37:
 875              		.loc 1 467 0
 876              	@ 467 "../../../ChibiOS/os/hal/src/sdc.c" 1
 877 000e 83F31188 		msr     BASEPRI, r3
 878              	@ 0 "" 2
 879              		.thumb
 880              	.LBE37:
 881              		.loc 1 469 0
 882 0012 7047     		bx	lr
 883              		.cfi_endproc
 884              	.LFE127:
 885              		.size	sdcGetAndClearErrors, .-sdcGetAndClearErrors
 886              		.section	.text.sdcErase,"ax",%progbits
 887              		.align	2
 888              		.p2align 4,,15
 889              		.global	sdcErase
 890              		.thumb
 891              		.thumb_func
 892              		.type	sdcErase, %function
 893              	sdcErase:
 894              	.LFB130:
 895              		.loc 1 539 0
 896              		.cfi_startproc
 897              		@ args = 0, pretend = 0, frame = 8
 898              		@ frame_needed = 0, uses_anonymous_args = 0
 899              	.LVL65:
 900 0000 70B5     		push	{r4, r5, r6, lr}
 901              		.cfi_def_cfa_offset 16
 902              		.cfi_offset 4, -16
 903              		.cfi_offset 5, -12
 904              		.cfi_offset 6, -8
 905              		.cfi_offset 14, -4
 906 0002 0446     		mov	r4, r0
 907              		.loc 1 546 0
 908 0004 0720     		movs	r0, #7
 909              	.LVL66:
 910              		.loc 1 549 0
 911 0006 236B     		ldr	r3, [r4, #48]
 912              		.loc 1 546 0
ARM GAS  C:\Users\srich\AppData\Local\Temp\ccUnnuc1.s 			page 17


 913 0008 2071     		strb	r0, [r4, #4]
 914              		.loc 1 549 0
 915 000a DB06     		lsls	r3, r3, #27
 916              		.loc 1 539 0
 917 000c 0D46     		mov	r5, r1
 918 000e 82B0     		sub	sp, sp, #8
 919              		.cfi_def_cfa_offset 24
 920              		.loc 1 550 0
 921 0010 58BF     		it	pl
 922 0012 4D02     		lslpl	r5, r1, #9
 923              	.LVL67:
 924              		.loc 1 554 0
 925 0014 2046     		mov	r0, r4
 926              		.loc 1 539 0
 927 0016 1646     		mov	r6, r2
 928              		.loc 1 551 0
 929 0018 58BF     		it	pl
 930 001a 5602     		lslpl	r6, r2, #9
 931              	.LVL68:
 932              		.loc 1 554 0
 933 001c FFF7FEFF 		bl	_sdc_wait_for_transfer_state
 934              	.LVL69:
 935              		.loc 1 556 0
 936 0020 2A46     		mov	r2, r5
 937 0022 01AB     		add	r3, sp, #4
 938 0024 2046     		mov	r0, r4
 939 0026 2021     		movs	r1, #32
 940 0028 FFF7FEFF 		bl	sdc_lld_send_cmd_short_crc
 941              	.LVL70:
 942 002c 18B9     		cbnz	r0, .L74
 943              		.loc 1 558 0
 944 002e 019A     		ldr	r2, [sp, #4]
 945 0030 144B     		ldr	r3, .L78
 946 0032 1340     		ands	r3, r3, r2
 947              		.loc 1 557 0
 948 0034 2BB1     		cbz	r3, .L77
 949              	.LVL71:
 950              	.L74:
 951              	.LDL2:
 952              		.loc 1 581 0
 953 0036 0523     		movs	r3, #5
 954 0038 2371     		strb	r3, [r4, #4]
 955              		.loc 1 582 0
 956 003a 0125     		movs	r5, #1
 957              	.L75:
 958              		.loc 1 583 0
 959 003c 2846     		mov	r0, r5
 960 003e 02B0     		add	sp, sp, #8
 961              		.cfi_remember_state
 962              		.cfi_def_cfa_offset 16
 963              		@ sp needed
 964 0040 70BD     		pop	{r4, r5, r6, pc}
 965              	.LVL72:
 966              	.L77:
 967              		.cfi_restore_state
 968              		.loc 1 561 0
 969 0042 3246     		mov	r2, r6
ARM GAS  C:\Users\srich\AppData\Local\Temp\ccUnnuc1.s 			page 18


 970 0044 2046     		mov	r0, r4
 971 0046 2121     		movs	r1, #33
 972 0048 01AB     		add	r3, sp, #4
 973 004a FFF7FEFF 		bl	sdc_lld_send_cmd_short_crc
 974              	.LVL73:
 975 004e 0028     		cmp	r0, #0
 976 0050 F1D1     		bne	.L74
 977              		.loc 1 563 0
 978 0052 019B     		ldr	r3, [sp, #4]
 979 0054 0B4A     		ldr	r2, .L78
 980 0056 1A40     		ands	r2, r2, r3
 981              		.loc 1 562 0
 982 0058 002A     		cmp	r2, #0
 983 005a ECD1     		bne	.L74
 984              		.loc 1 566 0
 985 005c 01AB     		add	r3, sp, #4
 986 005e 2046     		mov	r0, r4
 987 0060 2621     		movs	r1, #38
 988 0062 FFF7FEFF 		bl	sdc_lld_send_cmd_short_crc
 989              	.LVL74:
 990 0066 0546     		mov	r5, r0
 991              	.LVL75:
 992 0068 0028     		cmp	r0, #0
 993 006a E4D1     		bne	.L74
 994              		.loc 1 568 0
 995 006c 019A     		ldr	r2, [sp, #4]
 996 006e 054B     		ldr	r3, .L78
 997 0070 1340     		ands	r3, r3, r2
 998              		.loc 1 567 0
 999 0072 002B     		cmp	r3, #0
 1000 0074 DFD1     		bne	.L74
 1001              		.loc 1 575 0
 1002 0076 2046     		mov	r0, r4
 1003 0078 FFF7FEFF 		bl	_sdc_wait_for_transfer_state
 1004              	.LVL76:
 1005              		.loc 1 577 0
 1006 007c 0523     		movs	r3, #5
 1007 007e 2371     		strb	r3, [r4, #4]
 1008              		.loc 1 578 0
 1009 0080 DCE7     		b	.L75
 1010              	.L79:
 1011 0082 00BF     		.align	2
 1012              	.L78:
 1013 0084 08E0FFFD 		.word	-33562616
 1014              		.cfi_endproc
 1015              	.LFE130:
 1016              		.size	sdcErase, .-sdcErase
 1017              		.section	.rodata.sdc_vmt,"a",%progbits
 1018              		.align	2
 1019              		.set	.LANCHOR0,. + 0
 1020              		.type	sdc_vmt, %object
 1021              		.size	sdc_vmt, 32
 1022              	sdc_vmt:
 1023 0000 00000000 		.word	sdc_lld_is_card_inserted
 1024 0004 00000000 		.word	sdc_lld_is_write_protected
 1025 0008 00000000 		.word	sdcConnect
 1026 000c 00000000 		.word	sdcDisconnect
ARM GAS  C:\Users\srich\AppData\Local\Temp\ccUnnuc1.s 			page 19


 1027 0010 00000000 		.word	sdcRead
 1028 0014 00000000 		.word	sdcWrite
 1029 0018 00000000 		.word	sdcSync
 1030 001c 00000000 		.word	sdcGetInfo
 1031              		.text
 1032              	.Letext0:
 1033              		.file 2 "c:\\chibistudio\\tools\\gnu tools arm embedded\\4.9 2015q3\\arm-none-eabi\\include\\machi
 1034              		.file 3 "c:\\chibistudio\\tools\\gnu tools arm embedded\\4.9 2015q3\\arm-none-eabi\\include\\sys\\
 1035              		.file 4 "../../../ChibiOS/os/ports/GCC/ARMCMx/chtypes.h"
 1036              		.file 5 "../../../ChibiOS/os/kernel/include/chlists.h"
 1037              		.file 6 "../../../ChibiOS/os/kernel/include/chthreads.h"
 1038              		.file 7 "../../../ChibiOS/os/ports/GCC/ARMCMx/chcore_v7m.h"
 1039              		.file 8 "../../../ChibiOS/os/kernel/include/chmtx.h"
 1040              		.file 9 "../../../ChibiOS/os/hal/platforms/STM32F4xx/stm32f4xx.h"
 1041              		.file 10 "../../../ChibiOS/os/hal/platforms/STM32F4xx/stm32_dma.h"
 1042              		.file 11 "../../../ChibiOS/os/hal/include/io_block.h"
 1043              		.file 12 "../../../ChibiOS/os/hal/platforms/STM32/sdc_lld.h"
 1044              		.file 13 "../../../ChibiOS/os/hal/include/mmcsd.h"
 1045              		.file 14 "../../../ChibiOS/os/ports/common/ARMCMx/CMSIS/include/core_cm4.h"