ARM GAS  C:\Users\srich\AppData\Local\Temp\ccUnnuc1.s 			page 1


   1              		.syntax unified
   2              		.cpu cortex-m4
   3              		.fpu softvfp
   4              		.eabi_attribute 20, 1
   5              		.eabi_attribute 21, 1
   6              		.eabi_attribute 23, 3
   7              		.eabi_attribute 24, 1
   8              		.eabi_attribute 25, 1
   9              		.eabi_attribute 26, 1
  10              		.eabi_attribute 30, 2
  11              		.eabi_attribute 34, 1
  12              		.eabi_attribute 18, 4
  13              		.thumb
  14              		.file	"sdc.c"
  15              		.text
  16              	.Ltext0:
  17              		.cfi_sections	.debug_frame
  18              		.section	.text.sdcGetInfo,"ax",%progbits
  19              		.align	2
  20              		.p2align 4,,15
  21              		.global	sdcGetInfo
  22              		.thumb
  23              		.thumb_func
  24              		.type	sdcGetInfo, %function
  25              	sdcGetInfo:
  26              	.LFB129:
  27              		.file 1 "../../../ChibiOS/os/hal/src/sdc.c"
  28              		.loc 1 512 0
  29              		.cfi_startproc
  30              		@ args = 0, pretend = 0, frame = 0
  31              		@ frame_needed = 0, uses_anonymous_args = 0
  32              		@ link register save eliminated.
  33              	.LVL0:
  34              		.loc 1 516 0
  35 0000 0379     		ldrb	r3, [r0, #4]	@ zero_extendqisi2
  36 0002 052B     		cmp	r3, #5
  37 0004 01D0     		beq	.L5
  38              		.loc 1 517 0
  39 0006 0120     		movs	r0, #1
  40              	.LVL1:
  41              		.loc 1 523 0
  42 0008 7047     		bx	lr
  43              	.LVL2:
  44              	.L5:
  45              		.loc 1 519 0
  46 000a 836A     		ldr	r3, [r0, #40]
  47 000c 4B60     		str	r3, [r1, #4]
  48              		.loc 1 520 0
  49 000e 4FF40073 		mov	r3, #512
  50 0012 0B60     		str	r3, [r1]
  51              		.loc 1 522 0
  52 0014 0020     		movs	r0, #0
  53              	.LVL3:
  54 0016 7047     		bx	lr
  55              		.cfi_endproc
  56              	.LFE129:
  57              		.size	sdcGetInfo, .-sdcGetInfo
ARM GAS  C:\Users\srich\AppData\Local\Temp\ccUnnuc1.s 			page 2


  58              		.section	.text.sdcConnect,"ax",%progbits
  59              		.align	2
  60              		.p2align 4,,15
  61              		.global	sdcConnect
  62              		.thumb
  63              		.thumb_func
  64              		.type	sdcConnect, %function
  65              	sdcConnect:
  66              	.LFB123:
  67              		.loc 1 198 0
  68              		.cfi_startproc
  69              		@ args = 0, pretend = 0, frame = 8
  70              		@ frame_needed = 0, uses_anonymous_args = 0
  71              	.LVL4:
  72 0000 2DE9F041 		push	{r4, r5, r6, r7, r8, lr}
  73              		.cfi_def_cfa_offset 24
  74              		.cfi_offset 4, -24
  75              		.cfi_offset 5, -20
  76              		.cfi_offset 6, -16
  77              		.cfi_offset 7, -12
  78              		.cfi_offset 8, -8
  79              		.cfi_offset 14, -4
  80              		.loc 1 206 0
  81 0004 0323     		movs	r3, #3
  82              		.loc 1 198 0
  83 0006 82B0     		sub	sp, sp, #8
  84              		.cfi_def_cfa_offset 32
  85              		.loc 1 206 0
  86 0008 0371     		strb	r3, [r0, #4]
  87              		.loc 1 198 0
  88 000a 0446     		mov	r4, r0
  89              		.loc 1 209 0
  90 000c FFF7FEFF 		bl	sdc_lld_start_clk
  91              	.LVL5:
  92              		.loc 1 212 0
  93 0010 0021     		movs	r1, #0
  94 0012 0A46     		mov	r2, r1
  95 0014 2046     		mov	r0, r4
  96 0016 FFF7FEFF 		bl	sdc_lld_send_cmd_none
  97              	.LVL6:
  98              		.loc 1 215 0
  99 001a 2046     		mov	r0, r4
 100 001c 01AB     		add	r3, sp, #4
 101 001e 0821     		movs	r1, #8
 102 0020 4FF4D572 		mov	r2, #426
 103 0024 FFF7FEFF 		bl	sdc_lld_send_cmd_short_crc
 104              	.LVL7:
 105 0028 88B9     		cbnz	r0, .L7
 106              		.loc 1 219 0
 107 002a 019B     		ldr	r3, [sp, #4]
 108              		.loc 1 217 0
 109 002c 0122     		movs	r2, #1
 110              		.loc 1 219 0
 111 002e C3F30323 		ubfx	r3, r3, #8, #4
 112 0032 9342     		cmp	r3, r2
 113              		.loc 1 217 0
 114 0034 2263     		str	r2, [r4, #48]
ARM GAS  C:\Users\srich\AppData\Local\Temp\ccUnnuc1.s 			page 3


 115              		.loc 1 219 0
 116 0036 00F0A680 		beq	.L28
 117              	.L8:
 118              	.LDL1:
 119              		.loc 1 330 0
 120 003a 2046     		mov	r0, r4
 121 003c FFF7FEFF 		bl	sdc_lld_stop_clk
 122              	.LVL8:
 123              		.loc 1 331 0
 124 0040 0223     		movs	r3, #2
 125 0042 2371     		strb	r3, [r4, #4]
 126              		.loc 1 332 0
 127 0044 0125     		movs	r5, #1
 128              	.L16:
 129              		.loc 1 333 0
 130 0046 2846     		mov	r0, r5
 131 0048 02B0     		add	sp, sp, #8
 132              		.cfi_remember_state
 133              		.cfi_def_cfa_offset 24
 134              		@ sp needed
 135 004a BDE8F081 		pop	{r4, r5, r6, r7, r8, pc}
 136              	.LVL9:
 137              	.L7:
 138              		.cfi_restore_state
 139              		.loc 1 234 0
 140 004e 0021     		movs	r1, #0
 141 0050 2163     		str	r1, [r4, #48]
 142              		.loc 1 237 0
 143 0052 0A46     		mov	r2, r1
 144 0054 2046     		mov	r0, r4
 145 0056 FFF7FEFF 		bl	sdc_lld_send_cmd_none
 146              	.LVL10:
 147              	.L9:
 148              	.LBB5:
 149              		.loc 1 253 0
 150 005a 226B     		ldr	r2, [r4, #48]
 151              		.loc 1 256 0
 152 005c 524B     		ldr	r3, .L29
 153 005e 5349     		ldr	r1, .L29+4
 154              		.loc 1 253 0
 155 0060 02F00F02 		and	r2, r2, #15
 156              		.loc 1 256 0
 157 0064 012A     		cmp	r2, #1
 158 0066 0CBF     		ite	eq
 159 0068 9846     		moveq	r8, r3
 160 006a 8846     		movne	r8, r1
 161              	.LVL11:
 162 006c 6426     		movs	r6, #100
 163 006e 03E0     		b	.L13
 164              	.LVL12:
 165              	.L11:
 166              		.loc 1 271 0
 167 0070 013E     		subs	r6, r6, #1
 168              	.LVL13:
 169 0072 E2D0     		beq	.L8
 170              		.loc 1 273 0
 171 0074 FFF7FEFF 		bl	chThdSleep
ARM GAS  C:\Users\srich\AppData\Local\Temp\ccUnnuc1.s 			page 4


 172              	.LVL14:
 173              	.L13:
 174              		.loc 1 261 0
 175 0078 3721     		movs	r1, #55
 176 007a 0022     		movs	r2, #0
 177 007c 01AB     		add	r3, sp, #4
 178 007e 2046     		mov	r0, r4
 179 0080 FFF7FEFF 		bl	sdc_lld_send_cmd_short_crc
 180              	.LVL15:
 181              		.loc 1 262 0
 182 0084 4A4D     		ldr	r5, .L29+8
 183              		.loc 1 264 0
 184 0086 2921     		movs	r1, #41
 185 0088 4246     		mov	r2, r8
 186 008a 01AB     		add	r3, sp, #4
 187              		.loc 1 261 0
 188 008c 0028     		cmp	r0, #0
 189 008e D4D1     		bne	.L8
 190              	.LVL16:
 191              		.loc 1 262 0 discriminator 1
 192 0090 019F     		ldr	r7, [sp, #4]
 193 0092 3D40     		ands	r5, r5, r7
 194              		.loc 1 264 0 discriminator 1
 195 0094 2046     		mov	r0, r4
 196              		.loc 1 261 0 discriminator 1
 197 0096 002D     		cmp	r5, #0
 198 0098 CFD1     		bne	.L8
 199              	.LVL17:
 200              		.loc 1 264 0
 201 009a FFF7FEFF 		bl	sdc_lld_send_cmd_short
 202              	.LVL18:
 203 009e 0028     		cmp	r0, #0
 204 00a0 CBD1     		bne	.L8
 205              		.loc 1 266 0
 206 00a2 019B     		ldr	r3, [sp, #4]
 207 00a4 002B     		cmp	r3, #0
 208              		.loc 1 273 0
 209 00a6 4FF00A00 		mov	r0, #10
 210              		.loc 1 266 0
 211 00aa E1DA     		bge	.L11
 212              		.loc 1 267 0
 213 00ac 5B00     		lsls	r3, r3, #1
 214 00ae 03D5     		bpl	.L12
 215              		.loc 1 268 0
 216 00b0 236B     		ldr	r3, [r4, #48]
 217 00b2 43F01003 		orr	r3, r3, #16
 218 00b6 2363     		str	r3, [r4, #48]
 219              	.L12:
 220              	.LBE5:
 221              		.loc 1 278 0
 222 00b8 2046     		mov	r0, r4
 223 00ba 0221     		movs	r1, #2
 224 00bc 0022     		movs	r2, #0
 225 00be 04F10803 		add	r3, r4, #8
 226 00c2 FFF7FEFF 		bl	sdc_lld_send_cmd_long_crc
 227              	.LVL19:
 228 00c6 0028     		cmp	r0, #0
ARM GAS  C:\Users\srich\AppData\Local\Temp\ccUnnuc1.s 			page 5


 229 00c8 B7D1     		bne	.L8
 230              		.loc 1 282 0
 231 00ca 0246     		mov	r2, r0
 232 00cc 0321     		movs	r1, #3
 233 00ce 2046     		mov	r0, r4
 234 00d0 04F13803 		add	r3, r4, #56
 235 00d4 FFF7FEFF 		bl	sdc_lld_send_cmd_short_crc
 236              	.LVL20:
 237 00d8 0028     		cmp	r0, #0
 238 00da AED1     		bne	.L8
 239              		.loc 1 288 0
 240 00dc 04F11806 		add	r6, r4, #24
 241              	.LVL21:
 242              		.loc 1 287 0
 243 00e0 3346     		mov	r3, r6
 244 00e2 2046     		mov	r0, r4
 245 00e4 0921     		movs	r1, #9
 246 00e6 A26B     		ldr	r2, [r4, #56]
 247 00e8 FFF7FEFF 		bl	sdc_lld_send_cmd_long_crc
 248              	.LVL22:
 249 00ec 0028     		cmp	r0, #0
 250 00ee A4D1     		bne	.L8
 251              		.loc 1 292 0
 252 00f0 2046     		mov	r0, r4
 253 00f2 FFF7FEFF 		bl	sdc_lld_set_data_clk
 254              	.LVL23:
 255              		.loc 1 295 0
 256 00f6 2046     		mov	r0, r4
 257 00f8 0721     		movs	r1, #7
 258 00fa A26B     		ldr	r2, [r4, #56]
 259 00fc 01AB     		add	r3, sp, #4
 260 00fe FFF7FEFF 		bl	sdc_lld_send_cmd_short_crc
 261              	.LVL24:
 262 0102 0028     		cmp	r0, #0
 263 0104 99D1     		bne	.L8
 264              		.loc 1 300 0
 265 0106 2046     		mov	r0, r4
 266 0108 1021     		movs	r1, #16
 267 010a 4FF40072 		mov	r2, #512
 268 010e 01AB     		add	r3, sp, #4
 269 0110 FFF7FEFF 		bl	sdc_lld_send_cmd_short_crc
 270              	.LVL25:
 271 0114 0546     		mov	r5, r0
 272 0116 0028     		cmp	r0, #0
 273 0118 8FD1     		bne	.L8
 274              		.loc 1 302 0
 275 011a 019A     		ldr	r2, [sp, #4]
 276 011c 244B     		ldr	r3, .L29+8
 277 011e 1340     		ands	r3, r3, r2
 278              		.loc 1 301 0
 279 0120 002B     		cmp	r3, #0
 280 0122 8AD1     		bne	.L8
 281              		.loc 1 306 0
 282 0124 236B     		ldr	r3, [r4, #48]
 283 0126 03F00F03 		and	r3, r3, #15
 284 012a 012B     		cmp	r3, #1
 285 012c 21D8     		bhi	.L14
ARM GAS  C:\Users\srich\AppData\Local\Temp\ccUnnuc1.s 			page 6


 286              		.loc 1 309 0
 287 012e 2046     		mov	r0, r4
 288 0130 0121     		movs	r1, #1
 289 0132 FFF7FEFF 		bl	sdc_lld_set_bus_mode
 290              	.LVL26:
 291              		.loc 1 310 0
 292 0136 2046     		mov	r0, r4
 293 0138 3721     		movs	r1, #55
 294 013a A26B     		ldr	r2, [r4, #56]
 295 013c 01AB     		add	r3, sp, #4
 296 013e FFF7FEFF 		bl	sdc_lld_send_cmd_short_crc
 297              	.LVL27:
 298 0142 0028     		cmp	r0, #0
 299 0144 7FF479AF 		bne	.L8
 300              		.loc 1 311 0 discriminator 1
 301 0148 019A     		ldr	r2, [sp, #4]
 302 014a 194B     		ldr	r3, .L29+8
 303 014c 1340     		ands	r3, r3, r2
 304              		.loc 1 310 0 discriminator 1
 305 014e 002B     		cmp	r3, #0
 306 0150 7FF473AF 		bne	.L8
 307              		.loc 1 313 0
 308 0154 01AB     		add	r3, sp, #4
 309 0156 2046     		mov	r0, r4
 310 0158 0621     		movs	r1, #6
 311 015a 0222     		movs	r2, #2
 312 015c FFF7FEFF 		bl	sdc_lld_send_cmd_short_crc
 313              	.LVL28:
 314 0160 0028     		cmp	r0, #0
 315 0162 7FF46AAF 		bne	.L8
 316              		.loc 1 314 0 discriminator 1
 317 0166 019A     		ldr	r2, [sp, #4]
 318 0168 114B     		ldr	r3, .L29+8
 319 016a 1340     		ands	r3, r3, r2
 320              		.loc 1 313 0 discriminator 1
 321 016c 002B     		cmp	r3, #0
 322 016e 7FF464AF 		bne	.L8
 323              	.L14:
 324              		.loc 1 320 0
 325 0172 3046     		mov	r0, r6
 326 0174 FFF7FEFF 		bl	mmcsdGetCapacity
 327              	.LVL29:
 328 0178 A062     		str	r0, [r4, #40]
 329              		.loc 1 321 0
 330 017a 0028     		cmp	r0, #0
 331 017c 3FF45DAF 		beq	.L8
 332              		.loc 1 325 0
 333 0180 0523     		movs	r3, #5
 334 0182 2371     		strb	r3, [r4, #4]
 335              		.loc 1 326 0
 336 0184 5FE7     		b	.L16
 337              	.LVL30:
 338              	.L28:
 339              		.loc 1 221 0
 340 0186 0246     		mov	r2, r0
 341 0188 3721     		movs	r1, #55
 342 018a 2046     		mov	r0, r4
ARM GAS  C:\Users\srich\AppData\Local\Temp\ccUnnuc1.s 			page 7


 343 018c 01AB     		add	r3, sp, #4
 344 018e FFF7FEFF 		bl	sdc_lld_send_cmd_short_crc
 345              	.LVL31:
 346 0192 0028     		cmp	r0, #0
 347 0194 7FF451AF 		bne	.L8
 348              		.loc 1 222 0 discriminator 1
 349 0198 019A     		ldr	r2, [sp, #4]
 350 019a 054B     		ldr	r3, .L29+8
 351 019c 1340     		ands	r3, r3, r2
 352              		.loc 1 221 0 discriminator 1
 353 019e 002B     		cmp	r3, #0
 354 01a0 7FF44BAF 		bne	.L8
 355 01a4 59E7     		b	.L9
 356              	.L30:
 357 01a6 00BF     		.align	2
 358              	.L29:
 359 01a8 000010C0 		.word	-1072693248
 360 01ac 00001080 		.word	-2146435072
 361 01b0 08E0FFFD 		.word	-33562616
 362              		.cfi_endproc
 363              	.LFE123:
 364              		.size	sdcConnect, .-sdcConnect
 365              		.section	.text.sdcRead,"ax",%progbits
 366              		.align	2
 367              		.p2align 4,,15
 368              		.global	sdcRead
 369              		.thumb
 370              		.thumb_func
 371              		.type	sdcRead, %function
 372              	sdcRead:
 373              	.LFB125:
 374              		.loc 1 390 0
 375              		.cfi_startproc
 376              		@ args = 0, pretend = 0, frame = 0
 377              		@ frame_needed = 0, uses_anonymous_args = 0
 378              	.LVL32:
 379 0000 70B5     		push	{r4, r5, r6, lr}
 380              		.cfi_def_cfa_offset 16
 381              		.cfi_offset 4, -16
 382              		.cfi_offset 5, -12
 383              		.cfi_offset 6, -8
 384              		.cfi_offset 14, -4
 385 0002 4D1E     		subs	r5, r1, #1
 386              		.loc 1 396 0
 387 0004 866A     		ldr	r6, [r0, #40]
 388 0006 1D44     		add	r5, r5, r3
 389 0008 B542     		cmp	r5, r6
 390              		.loc 1 390 0
 391 000a 0446     		mov	r4, r0
 392              		.loc 1 396 0
 393 000c 05D9     		bls	.L32
 394              		.loc 1 397 0
 395 000e 436B     		ldr	r3, [r0, #52]
 396              	.LVL33:
 397 0010 43F08003 		orr	r3, r3, #128
 398 0014 4363     		str	r3, [r0, #52]
 399              		.loc 1 398 0
ARM GAS  C:\Users\srich\AppData\Local\Temp\ccUnnuc1.s 			page 8


 400 0016 0120     		movs	r0, #1
 401              	.LVL34:
 402 0018 70BD     		pop	{r4, r5, r6, pc}
 403              	.LVL35:
 404              	.L32:
 405              	.LBB8:
 406              	.LBB9:
 407              		.loc 1 402 0
 408 001a 0625     		movs	r5, #6
 409 001c 0571     		strb	r5, [r0, #4]
 410              		.loc 1 404 0
 411 001e FFF7FEFF 		bl	sdc_lld_read
 412              	.LVL36:
 413              		.loc 1 407 0
 414 0022 0523     		movs	r3, #5
 415 0024 2371     		strb	r3, [r4, #4]
 416              	.LBE9:
 417              	.LBE8:
 418              		.loc 1 409 0
 419 0026 70BD     		pop	{r4, r5, r6, pc}
 420              		.cfi_endproc
 421              	.LFE125:
 422              		.size	sdcRead, .-sdcRead
 423              		.section	.text.sdcWrite,"ax",%progbits
 424              		.align	2
 425              		.p2align 4,,15
 426              		.global	sdcWrite
 427              		.thumb
 428              		.thumb_func
 429              		.type	sdcWrite, %function
 430              	sdcWrite:
 431              	.LFB126:
 432              		.loc 1 428 0
 433              		.cfi_startproc
 434              		@ args = 0, pretend = 0, frame = 0
 435              		@ frame_needed = 0, uses_anonymous_args = 0
 436              	.LVL37:
 437 0000 70B5     		push	{r4, r5, r6, lr}
 438              		.cfi_def_cfa_offset 16
 439              		.cfi_offset 4, -16
 440              		.cfi_offset 5, -12
 441              		.cfi_offset 6, -8
 442              		.cfi_offset 14, -4
 443 0002 4D1E     		subs	r5, r1, #1
 444              		.loc 1 434 0
 445 0004 866A     		ldr	r6, [r0, #40]
 446 0006 1D44     		add	r5, r5, r3
 447 0008 B542     		cmp	r5, r6
 448              		.loc 1 428 0
 449 000a 0446     		mov	r4, r0
 450              		.loc 1 434 0
 451 000c 05D9     		bls	.L36
 452              		.loc 1 435 0
 453 000e 436B     		ldr	r3, [r0, #52]
 454              	.LVL38:
 455 0010 43F08003 		orr	r3, r3, #128
 456 0014 4363     		str	r3, [r0, #52]
ARM GAS  C:\Users\srich\AppData\Local\Temp\ccUnnuc1.s 			page 9


 457              		.loc 1 436 0
 458 0016 0120     		movs	r0, #1
 459              	.LVL39:
 460 0018 70BD     		pop	{r4, r5, r6, pc}
 461              	.LVL40:
 462              	.L36:
 463              	.LBB12:
 464              	.LBB13:
 465              		.loc 1 440 0
 466 001a 0725     		movs	r5, #7
 467 001c 0571     		strb	r5, [r0, #4]
 468              		.loc 1 442 0
 469 001e FFF7FEFF 		bl	sdc_lld_write
 470              	.LVL41:
 471              		.loc 1 445 0
 472 0022 0523     		movs	r3, #5
 473 0024 2371     		strb	r3, [r4, #4]
 474              	.LBE13:
 475              	.LBE12:
 476              		.loc 1 447 0
 477 0026 70BD     		pop	{r4, r5, r6, pc}
 478              		.cfi_endproc
 479              	.LFE126:
 480              		.size	sdcWrite, .-sdcWrite
 481              		.section	.text.sdcSync,"ax",%progbits
 482              		.align	2
 483              		.p2align 4,,15
 484              		.global	sdcSync
 485              		.thumb
 486              		.thumb_func
 487              		.type	sdcSync, %function
 488              	sdcSync:
 489              	.LFB128:
 490              		.loc 1 482 0
 491              		.cfi_startproc
 492              		@ args = 0, pretend = 0, frame = 0
 493              		@ frame_needed = 0, uses_anonymous_args = 0
 494              	.LVL42:
 495 0000 38B5     		push	{r3, r4, r5, lr}
 496              		.cfi_def_cfa_offset 16
 497              		.cfi_offset 3, -16
 498              		.cfi_offset 4, -12
 499              		.cfi_offset 5, -8
 500              		.cfi_offset 14, -4
 501              		.loc 1 487 0
 502 0002 0579     		ldrb	r5, [r0, #4]	@ zero_extendqisi2
 503 0004 052D     		cmp	r5, #5
 504 0006 01D0     		beq	.L43
 505              		.loc 1 488 0
 506 0008 0120     		movs	r0, #1
 507              	.LVL43:
 508              		.loc 1 498 0
 509 000a 38BD     		pop	{r3, r4, r5, pc}
 510              	.LVL44:
 511              	.L43:
 512 000c 0446     		mov	r4, r0
 513              	.LBB16:
ARM GAS  C:\Users\srich\AppData\Local\Temp\ccUnnuc1.s 			page 10


 514              	.LBB17:
 515              		.loc 1 491 0
 516 000e 0823     		movs	r3, #8
 517 0010 0371     		strb	r3, [r0, #4]
 518              		.loc 1 493 0
 519 0012 FFF7FEFF 		bl	sdc_lld_sync
 520              	.LVL45:
 521              		.loc 1 496 0
 522 0016 2571     		strb	r5, [r4, #4]
 523 0018 38BD     		pop	{r3, r4, r5, pc}
 524              	.LBE17:
 525              	.LBE16:
 526              		.cfi_endproc
 527              	.LFE128:
 528              		.size	sdcSync, .-sdcSync
 529 001a 00BF     		.section	.text._sdc_wait_for_transfer_state,"ax",%progbits
 530              		.align	2
 531              		.p2align 4,,15
 532              		.global	_sdc_wait_for_transfer_state
 533              		.thumb
 534              		.thumb_func
 535              		.type	_sdc_wait_for_transfer_state, %function
 536              	_sdc_wait_for_transfer_state:
 537              	.LFB118:
 538              		.loc 1 82 0
 539              		.cfi_startproc
 540              		@ args = 0, pretend = 0, frame = 8
 541              		@ frame_needed = 0, uses_anonymous_args = 0
 542              	.LVL46:
 543 0000 10B5     		push	{r4, lr}
 544              		.cfi_def_cfa_offset 8
 545              		.cfi_offset 4, -8
 546              		.cfi_offset 14, -4
 547 0002 0446     		mov	r4, r0
 548 0004 82B0     		sub	sp, sp, #8
 549              		.cfi_def_cfa_offset 16
 550              	.LVL47:
 551              	.L48:
 552              		.loc 1 86 0
 553 0006 01AB     		add	r3, sp, #4
 554 0008 2046     		mov	r0, r4
 555 000a 0D21     		movs	r1, #13
 556 000c A26B     		ldr	r2, [r4, #56]
 557 000e FFF7FEFF 		bl	sdc_lld_send_cmd_short_crc
 558              	.LVL48:
 559              		.loc 1 88 0
 560 0012 0A4B     		ldr	r3, .L55
 561              		.loc 1 86 0
 562 0014 78B9     		cbnz	r0, .L45
 563              		.loc 1 88 0
 564 0016 019A     		ldr	r2, [sp, #4]
 565 0018 1340     		ands	r3, r3, r2
 566              		.loc 1 90 0
 567 001a C2F34321 		ubfx	r1, r2, #9, #4
 568              		.loc 1 87 0
 569 001e 4BB9     		cbnz	r3, .L49
 570              		.loc 1 90 0
ARM GAS  C:\Users\srich\AppData\Local\Temp\ccUnnuc1.s 			page 11


 571 0020 0429     		cmp	r1, #4
 572 0022 08D0     		beq	.L45
 573              		.loc 1 97 0
 574 0024 4FF00100 		mov	r0, #1
 575              		.loc 1 90 0
 576 0028 04D3     		bcc	.L49
 577 002a 0729     		cmp	r1, #7
 578 002c 02D8     		bhi	.L49
 579              		.loc 1 97 0
 580 002e FFF7FEFF 		bl	chThdSleep
 581              	.LVL49:
 582              		.loc 1 105 0
 583 0032 E8E7     		b	.L48
 584              	.L49:
 585              		.loc 1 89 0
 586 0034 0120     		movs	r0, #1
 587              	.L45:
 588              		.loc 1 108 0
 589 0036 02B0     		add	sp, sp, #8
 590              		.cfi_def_cfa_offset 8
 591              		@ sp needed
 592 0038 10BD     		pop	{r4, pc}
 593              	.LVL50:
 594              	.L56:
 595 003a 00BF     		.align	2
 596              	.L55:
 597 003c 08E0FFFD 		.word	-33562616
 598              		.cfi_endproc
 599              	.LFE118:
 600              		.size	_sdc_wait_for_transfer_state, .-_sdc_wait_for_transfer_state
 601              		.section	.text.sdcDisconnect,"ax",%progbits
 602              		.align	2
 603              		.p2align 4,,15
 604              		.global	sdcDisconnect
 605              		.thumb
 606              		.thumb_func
 607              		.type	sdcDisconnect, %function
 608              	sdcDisconnect:
 609              	.LFB124:
 610              		.loc 1 346 0
 611              		.cfi_startproc
 612              		@ args = 0, pretend = 0, frame = 0
 613              		@ frame_needed = 0, uses_anonymous_args = 0
 614              	.LVL51:
 615 0000 38B5     		push	{r3, r4, r5, lr}
 616              		.cfi_def_cfa_offset 16
 617              		.cfi_offset 3, -16
 618              		.cfi_offset 4, -12
 619              		.cfi_offset 5, -8
 620              		.cfi_offset 14, -4
 621              	.LBB25:
 622              		.loc 1 350 0
 623 0002 2023     		movs	r3, #32
 624              	@ 350 "../../../ChibiOS/os/hal/src/sdc.c" 1
 625 0004 83F31188 		msr     BASEPRI, r3
 626              	@ 0 "" 2
 627              		.thumb
ARM GAS  C:\Users\srich\AppData\Local\Temp\ccUnnuc1.s 			page 12


 628              	.LBE25:
 629              		.loc 1 353 0
 630 0008 0379     		ldrb	r3, [r0, #4]	@ zero_extendqisi2
 631 000a 022B     		cmp	r3, #2
 632 000c 0FD0     		beq	.L62
 633              	.LVL52:
 634              	.LBB26:
 635              	.LBB27:
 636              		.loc 1 357 0
 637 000e 0423     		movs	r3, #4
 638 0010 0371     		strb	r3, [r0, #4]
 639 0012 0446     		mov	r4, r0
 640              	.LBB28:
 641              		.loc 1 358 0
 642 0014 0023     		movs	r3, #0
 643              	@ 358 "../../../ChibiOS/os/hal/src/sdc.c" 1
 644 0016 83F31188 		msr     BASEPRI, r3
 645              	@ 0 "" 2
 646              		.thumb
 647              	.LBE28:
 648              		.loc 1 361 0
 649 001a FFF7FEFF 		bl	_sdc_wait_for_transfer_state
 650              	.LVL53:
 651 001e 0546     		mov	r5, r0
 652              		.loc 1 362 0
 653 0020 2046     		mov	r0, r4
 654              		.loc 1 368 0
 655 0022 FFF7FEFF 		bl	sdc_lld_stop_clk
 656              	.LVL54:
 657              		.loc 1 369 0
 658 0026 0223     		movs	r3, #2
 659 0028 2371     		strb	r3, [r4, #4]
 660              	.LBE27:
 661              	.LBE26:
 662              		.loc 1 371 0
 663 002a 2846     		mov	r0, r5
 664 002c 38BD     		pop	{r3, r4, r5, pc}
 665              	.LVL55:
 666              	.L62:
 667              	.LBB29:
 668              		.loc 1 354 0
 669 002e 0023     		movs	r3, #0
 670              	@ 354 "../../../ChibiOS/os/hal/src/sdc.c" 1
 671 0030 83F31188 		msr     BASEPRI, r3
 672              	@ 0 "" 2
 673              		.thumb
 674              	.LBE29:
 675              		.loc 1 355 0
 676 0034 1D46     		mov	r5, r3
 677              		.loc 1 371 0
 678 0036 2846     		mov	r0, r5
 679              	.LVL56:
 680 0038 38BD     		pop	{r3, r4, r5, pc}
 681              		.cfi_endproc
 682              	.LFE124:
 683              		.size	sdcDisconnect, .-sdcDisconnect
 684 003a 00BF     		.section	.text.sdcInit,"ax",%progbits
ARM GAS  C:\Users\srich\AppData\Local\Temp\ccUnnuc1.s 			page 13


 685              		.align	2
 686              		.p2align 4,,15
 687              		.global	sdcInit
 688              		.thumb
 689              		.thumb_func
 690              		.type	sdcInit, %function
 691              	sdcInit:
 692              	.LFB119:
 693              		.loc 1 121 0
 694              		.cfi_startproc
 695              		@ args = 0, pretend = 0, frame = 0
 696              		@ frame_needed = 0, uses_anonymous_args = 0
 697              		@ link register save eliminated.
 698              		.loc 1 123 0
 699 0000 FFF7FEBF 		b	sdc_lld_init
 700              	.LVL57:
 701              		.cfi_endproc
 702              	.LFE119:
 703              		.size	sdcInit, .-sdcInit
 704              		.section	.text.sdcObjectInit,"ax",%progbits
 705              		.align	2
 706              		.p2align 4,,15
 707              		.global	sdcObjectInit
 708              		.thumb
 709              		.thumb_func
 710              		.type	sdcObjectInit, %function
 711              	sdcObjectInit:
 712              	.LFB120:
 713              		.loc 1 133 0
 714              		.cfi_startproc
 715              		@ args = 0, pretend = 0, frame = 0
 716              		@ frame_needed = 0, uses_anonymous_args = 0
 717              		@ link register save eliminated.
 718              	.LVL58:
 719              		.loc 1 135 0
 720 0000 044B     		ldr	r3, .L65
 721 0002 0360     		str	r3, [r0]
 722              		.loc 1 136 0
 723 0004 0122     		movs	r2, #1
 724              		.loc 1 137 0
 725 0006 0023     		movs	r3, #0
 726              		.loc 1 136 0
 727 0008 0271     		strb	r2, [r0, #4]
 728              		.loc 1 137 0
 729 000a 4363     		str	r3, [r0, #52]
 730              		.loc 1 138 0
 731 000c C362     		str	r3, [r0, #44]
 732              		.loc 1 139 0
 733 000e 8362     		str	r3, [r0, #40]
 734 0010 7047     		bx	lr
 735              	.L66:
 736 0012 00BF     		.align	2
 737              	.L65:
 738 0014 00000000 		.word	.LANCHOR0
 739              		.cfi_endproc
 740              	.LFE120:
 741              		.size	sdcObjectInit, .-sdcObjectInit
ARM GAS  C:\Users\srich\AppData\Local\Temp\ccUnnuc1.s 			page 14


 742              		.section	.text.sdcStart,"ax",%progbits
 743              		.align	2
 744              		.p2align 4,,15
 745              		.global	sdcStart
 746              		.thumb
 747              		.thumb_func
 748              		.type	sdcStart, %function
 749              	sdcStart:
 750              	.LFB121:
 751              		.loc 1 152 0
 752              		.cfi_startproc
 753              		@ args = 0, pretend = 0, frame = 0
 754              		@ frame_needed = 0, uses_anonymous_args = 0
 755              	.LVL59:
 756 0000 10B5     		push	{r4, lr}
 757              		.cfi_def_cfa_offset 8
 758              		.cfi_offset 4, -8
 759              		.cfi_offset 14, -4
 760              	.LBB30:
 761              		.loc 1 156 0
 762 0002 2023     		movs	r3, #32
 763              	.LBE30:
 764              		.loc 1 152 0
 765 0004 0446     		mov	r4, r0
 766              	.LBB31:
 767              		.loc 1 156 0
 768              	@ 156 "../../../ChibiOS/os/hal/src/sdc.c" 1
 769 0006 83F31188 		msr     BASEPRI, r3
 770              	@ 0 "" 2
 771              		.thumb
 772              	.LBE31:
 773              		.loc 1 159 0
 774 000a C162     		str	r1, [r0, #44]
 775              		.loc 1 160 0
 776 000c FFF7FEFF 		bl	sdc_lld_start
 777              	.LVL60:
 778              		.loc 1 161 0
 779 0010 0223     		movs	r3, #2
 780 0012 2371     		strb	r3, [r4, #4]
 781              	.LBB32:
 782              		.loc 1 162 0
 783 0014 0023     		movs	r3, #0
 784              	@ 162 "../../../ChibiOS/os/hal/src/sdc.c" 1
 785 0016 83F31188 		msr     BASEPRI, r3
 786              	@ 0 "" 2
 787              		.thumb
 788 001a 10BD     		pop	{r4, pc}
 789              	.LBE32:
 790              		.cfi_endproc
 791              	.LFE121:
 792              		.size	sdcStart, .-sdcStart
 793              		.section	.text.sdcStop,"ax",%progbits
 794              		.align	2
 795              		.p2align 4,,15
 796              		.global	sdcStop
 797              		.thumb
 798              		.thumb_func
ARM GAS  C:\Users\srich\AppData\Local\Temp\ccUnnuc1.s 			page 15


 799              		.type	sdcStop, %function
 800              	sdcStop:
 801              	.LFB122:
 802              		.loc 1 172 0
 803              		.cfi_startproc
 804              		@ args = 0, pretend = 0, frame = 0
 805              		@ frame_needed = 0, uses_anonymous_args = 0
 806              	.LVL61:
 807 0000 10B5     		push	{r4, lr}
 808              		.cfi_def_cfa_offset 8
 809              		.cfi_offset 4, -8
 810              		.cfi_offset 14, -4
 811              	.LBB33:
 812              		.loc 1 176 0
 813 0002 2023     		movs	r3, #32
 814              	.LBE33:
 815              		.loc 1 172 0
 816 0004 0446     		mov	r4, r0
 817              	.LBB34:
 818              		.loc 1 176 0
 819              	@ 176 "../../../ChibiOS/os/hal/src/sdc.c" 1
 820 0006 83F31188 		msr     BASEPRI, r3
 821              	@ 0 "" 2
 822              		.thumb
 823              	.LBE34:
 824              		.loc 1 179 0
 825 000a FFF7FEFF 		bl	sdc_lld_stop
 826              	.LVL62:
 827              		.loc 1 180 0
 828 000e 0123     		movs	r3, #1
 829 0010 2371     		strb	r3, [r4, #4]
 830              	.LBB35:
 831              		.loc 1 181 0
 832 0012 0023     		movs	r3, #0
 833              	@ 181 "../../../ChibiOS/os/hal/src/sdc.c" 1
 834 0014 83F31188 		msr     BASEPRI, r3
 835              	@ 0 "" 2
 836              		.thumb
 837 0018 10BD     		pop	{r4, pc}
 838              	.LBE35:
 839              		.cfi_endproc
 840              	.LFE122:
 841              		.size	sdcStop, .-sdcStop
 842 001a 00BF     		.section	.text.sdcGetAndClearErrors,"ax",%progbits
 843              		.align	2
 844              		.p2align 4,,15
 845              		.global	sdcGetAndClearErrors
 846              		.thumb
 847              		.thumb_func
 848              		.type	sdcGetAndClearErrors, %function
 849              	sdcGetAndClearErrors:
 850              	.LFB127:
 851              		.loc 1 457 0
 852              		.cfi_startproc
 853              		@ args = 0, pretend = 0, frame = 0
 854              		@ frame_needed = 0, uses_anonymous_args = 0
 855              		@ link register save eliminated.
ARM GAS  C:\Users\srich\AppData\Local\Temp\ccUnnuc1.s 			page 16


 856              	.LVL63:
 857              		.loc 1 457 0
 858 0000 0246     		mov	r2, r0
 859              	.LBB36:
 860              		.loc 1 464 0
 861 0002 2023     		movs	r3, #32
 862              	@ 464 "../../../ChibiOS/os/hal/src/sdc.c" 1
 863 0004 83F31188 		msr     BASEPRI, r3
 864              	@ 0 "" 2
 865              		.thumb
 866              	.LBE36:
 867              		.loc 1 466 0
 868 0008 0023     		movs	r3, #0
 869              		.loc 1 465 0
 870 000a 406B     		ldr	r0, [r0, #52]
 871              	.LVL64:
 872              		.loc 1 466 0
 873 000c 5363     		str	r3, [r2, #52]
 874              	.LBB37:
 875              		.loc 1 467 0
 876              	@ 467 "../../../ChibiOS/os/hal/src/sdc.c" 1
 877 000e 83F31188 		msr     BASEPRI, r3
 878              	@ 0 "" 2
 879              		.thumb
 880              	.LBE37:
 881              		.loc 1 469 0
 882 0012 7047     		bx	lr
 883              		.cfi_endproc
 884              	.LFE127:
 885              		.size	sdcGetAndClearErrors, .-sdcGetAndClearErrors
 886              		.section	.text.sdcErase,"ax",%progbits
 887              		.align	2
 888              		.p2align 4,,15
 889              		.global	sdcErase
 890              		.thumb
 891              		.thumb_func
 892              		.type	sdcErase, %function
 893              	sdcErase:
 894              	.LFB130:
 895              		.loc 1 539 0
 896              		.cfi_startproc
 897              		@ args = 0, pretend = 0, frame = 8
 898              		@ frame_needed = 0, uses_anonymous_args = 0
 899              	.LVL65:
 900 0000 70B5     		push	{r4, r5, r6, lr}
 901              		.cfi_def_cfa_offset 16
 902              		.cfi_offset 4, -16
 903              		.cfi_offset 5, -12
 904              		.cfi_offset 6, -8
 905              		.cfi_offset 14, -4
 906 0002 0446     		mov	r4, r0
 907              		.loc 1 546 0
 908 0004 0720     		movs	r0, #7
 909              	.LVL66:
 910              		.loc 1 549 0
 911 0006 236B     		ldr	r3, [r4, #48]
 912              		.loc 1 546 0
ARM GAS  C:\Users\srich\AppData\Local\Temp\ccUnnuc1.s 			page 17


 913 0008 2071     		strb	r0, [r4, #4]
 914              		.loc 1 549 0
 915 000a DB06     		lsls	r3, r3, #27
 916              		.loc 1 539 0
 917 000c 0D46     		mov	r5, r1
 918 000e 82B0     		sub	sp, sp, #8
 919              		.cfi_def_cfa_offset 24
 920              		.loc 1 550 0
 921 0010 58BF     		it	pl
 922 0012 4D02     		lslpl	r5, r1, #9
 923              	.LVL67:
 924              		.loc 1 554 0
 925 0014 2046     		mov	r0, r4
 926              		.loc 1 539 0
 927 0016 1646     		mov	r6, r2
 928              		.loc 1 551 0
 929 0018 58BF     		it	pl
 930 001a 5602     		lslpl	r6, r2, #9
 931              	.LVL68:
 932              		.loc 1 554 0
 933 001c FFF7FEFF 		bl	_sdc_wait_for_transfer_state
 934              	.LVL69:
 935              		.loc 1 556 0
 936 0020 2A46     		mov	r2, r5
 937 0022 01AB     		add	r3, sp, #4
 938 0024 2046     		mov	r0, r4
 939 0026 2021     		movs	r1, #32
 940 0028 FFF7FEFF 		bl	sdc_lld_send_cmd_short_crc
 941              	.LVL70:
 942 002c 18B9     		cbnz	r0, .L74
 943              		.loc 1 558 0
 944 002e 019A     		ldr	r2, [sp, #4]
 945 0030 144B     		ldr	r3, .L78
 946 0032 1340     		ands	r3, r3, r2
 947              		.loc 1 557 0
 948 0034 2BB1     		cbz	r3, .L77
 949              	.LVL71:
 950              	.L74:
 951              	.LDL2:
 952              		.loc 1 581 0
 953 0036 0523     		movs	r3, #5
 954 0038 2371     		strb	r3, [r4, #4]
 955              		.loc 1 582 0
 956 003a 0125     		movs	r5, #1
 957              	.L75:
 958              		.loc 1 583 0
 959 003c 2846     		mov	r0, r5
 960 003e 02B0     		add	sp, sp, #8
 961              		.cfi_remember_state
 962              		.cfi_def_cfa_offset 16
 963              		@ sp needed
 964 0040 70BD     		pop	{r4, r5, r6, pc}
 965              	.LVL72:
 966              	.L77:
 967              		.cfi_restore_state
 968              		.loc 1 561 0
 969 0042 3246     		mov	r2, r6
ARM GAS  C:\Users\srich\AppData\Local\Temp\ccUnnuc1.s 			page 18


 970 0044 2046     		mov	r0, r4
 971 0046 2121     		movs	r1, #33
 972 0048 01AB     		add	r3, sp, #4
 973 004a FFF7FEFF 		bl	sdc_lld_send_cmd_short_crc
 974              	.LVL73:
 975 004e 0028     		cmp	r0, #0
 976 0050 F1D1     		bne	.L74
 977              		.loc 1 563 0
 978 0052 019B     		ldr	r3, [sp, #4]
 979 0054 0B4A     		ldr	r2, .L78
 980 0056 1A40     		ands	r2, r2, r3
 981              		.loc 1 562 0
 982 0058 002A     		cmp	r2, #0
 983 005a ECD1     		bne	.L74
 984              		.loc 1 566 0
 985 005c 01AB     		add	r3, sp, #4
 986 005e 2046     		mov	r0, r4
 987 0060 2621     		movs	r1, #38
 988 0062 FFF7FEFF 		bl	sdc_lld_send_cmd_short_crc
 989              	.LVL74:
 990 0066 0546     		mov	r5, r0
 991              	.LVL75:
 992 0068 0028     		cmp	r0, #0
 993 006a E4D1     		bne	.L74
 994              		.loc 1 568 0
 995 006c 019A     		ldr	r2, [sp, #4]
 996 006e 054B     		ldr	r3, .L78
 997 0070 1340     		ands	r3, r3, r2
 998              		.loc 1 567 0
 999 0072 002B     		cmp	r3, #0
 1000 0074 DFD1     		bne	.L74
 1001              		.loc 1 575 0
 1002 0076 2046     		mov	r0, r4
 1003 0078 FFF7FEFF 		bl	_sdc_wait_for_transfer_state
 1004              	.LVL76:
 1005              		.loc 1 577 0
 1006 007c 0523     		movs	r3, #5
 1007 007e 2371     		strb	r3, [r4, #4]
 1008              		.loc 1 578 0
 1009 0080 DCE7     		b	.L75
 1010              	.L79:
 1011 0082 00BF     		.align	2
 1012              	.L78:
 1013 0084 08E0FFFD 		.word	-33562616
 1014              		.cfi_endproc
 1015              	.LFE130:
 1016              		.size	sdcErase, .-sdcErase
 1017              		.section	.rodata.sdc_vmt,"a",%progbits
 1018              		.align	2
 1019              		.set	.LANCHOR0,. + 0
 1020              		.type	sdc_vmt, %object
 1021              		.size	sdc_vmt, 32
 1022              	sdc_vmt:
 1023 0000 00000000 		.word	sdc_lld_is_card_inserted
 1024 0004 00000000 		.word	sdc_lld_is_write_protected
 1025 0008 00000000 		.word	sdcConnect
 1026 000c 00000000 		.word	sdcDisconnect
ARM GAS  C:\Users\srich\AppData\Local\Temp\ccUnnuc1.s 			page 19


 1027 0010 00000000 		.word	sdcRead
 1028 0014 00000000 		.word	sdcWrite
 1029 0018 00000000 		.word	sdcSync
 1030 001c 00000000 		.word	sdcGetInfo
 1031              		.text
 1032              	.Letext0:
 1033              		.file 2 "c:\\chibistudio\\tools\\gnu tools arm embedded\\4.9 2015q3\\arm-none-eabi\\include\\machi
 1034              		.file 3 "c:\\chibistudio\\tools\\gnu tools arm embedded\\4.9 2015q3\\arm-none-eabi\\include\\sys\\
 1035              		.file 4 "../../../ChibiOS/os/ports/GCC/ARMCMx/chtypes.h"
 1036              		.file 5 "../../../ChibiOS/os/kernel/include/chlists.h"
 1037              		.file 6 "../../../ChibiOS/os/kernel/include/chthreads.h"
 1038              		.file 7 "../../../ChibiOS/os/ports/GCC/ARMCMx/chcore_v7m.h"
 1039              		.file 8 "../../../ChibiOS/os/kernel/include/chmtx.h"
 1040              		.file 9 "../../../ChibiOS/os/hal/platforms/STM32F4xx/stm32f4xx.h"
 1041              		.file 10 "../../../ChibiOS/os/hal/platforms/STM32F4xx/stm32_dma.h"
 1042              		.file 11 "../../../ChibiOS/os/hal/include/io_block.h"
 1043              		.file 12 "../../../ChibiOS/os/hal/platforms/STM32/sdc_lld.h"
 1044              		.file 13 "../../../ChibiOS/os/hal/include/mmcsd.h"
 1045              		.file 14 "../../../ChibiOS/os/ports/common/ARMCMx/CMSIS/include/core_cm4.h"
 1046              		.section	.debug_info,"",%progbits
 1047              	.Ldebug_info0:
 1048 0000 8F110000 		.4byte	0x118f
 1049 0004 0400     		.2byte	0x4
 1050 0006 00000000 		.4byte	.Ldebug_abbrev0
 1051 000a 04       		.byte	0x4
 1052 000b 01       		.uleb128 0x1
 1053 000c 37030000 		.4byte	.LASF145
 1054 0010 01       		.byte	0x1
 1055 0011 51040000 		.4byte	.LASF146
 1056 0015 3F010000 		.4byte	.LASF147
 1057 0019 30000000 		.4byte	.Ldebug_ranges0+0x30
 1058 001d 00000000 		.4byte	0
 1059 0021 00000000 		.4byte	.Ldebug_line0
 1060 0025 02       		.uleb128 0x2
 1061 0026 04       		.byte	0x4
 1062 0027 05       		.byte	0x5
 1063 0028 696E7400 		.ascii	"int\000"
 1064 002c 03       		.uleb128 0x3
 1065 002d 04       		.byte	0x4
 1066 002e 07       		.byte	0x7
 1067 002f E8010000 		.4byte	.LASF0
 1068 0033 03       		.uleb128 0x3
 1069 0034 01       		.byte	0x1
 1070 0035 06       		.byte	0x6
 1071 0036 CA000000 		.4byte	.LASF1
 1072 003a 04       		.uleb128 0x4
 1073 003b 49000000 		.4byte	.LASF5
 1074 003f 02       		.byte	0x2
 1075 0040 1D       		.byte	0x1d
 1076 0041 45000000 		.4byte	0x45
 1077 0045 03       		.uleb128 0x3
 1078 0046 01       		.byte	0x1
 1079 0047 08       		.byte	0x8
 1080 0048 D6040000 		.4byte	.LASF2
 1081 004c 03       		.uleb128 0x3
 1082 004d 02       		.byte	0x2
 1083 004e 05       		.byte	0x5
ARM GAS  C:\Users\srich\AppData\Local\Temp\ccUnnuc1.s 			page 20


 1084 004f FC040000 		.4byte	.LASF3
 1085 0053 03       		.uleb128 0x3
 1086 0054 02       		.byte	0x2
 1087 0055 07       		.byte	0x7
 1088 0056 5B020000 		.4byte	.LASF4
 1089 005a 04       		.uleb128 0x4
 1090 005b FE050000 		.4byte	.LASF6
 1091 005f 02       		.byte	0x2
 1092 0060 3F       		.byte	0x3f
 1093 0061 65000000 		.4byte	0x65
 1094 0065 03       		.uleb128 0x3
 1095 0066 04       		.byte	0x4
 1096 0067 05       		.byte	0x5
 1097 0068 21010000 		.4byte	.LASF7
 1098 006c 04       		.uleb128 0x4
 1099 006d 92010000 		.4byte	.LASF8
 1100 0071 02       		.byte	0x2
 1101 0072 41       		.byte	0x41
 1102 0073 77000000 		.4byte	0x77
 1103 0077 03       		.uleb128 0x3
 1104 0078 04       		.byte	0x4
 1105 0079 07       		.byte	0x7
 1106 007a A8050000 		.4byte	.LASF9
 1107 007e 03       		.uleb128 0x3
 1108 007f 08       		.byte	0x8
 1109 0080 05       		.byte	0x5
 1110 0081 BC000000 		.4byte	.LASF10
 1111 0085 03       		.uleb128 0x3
 1112 0086 08       		.byte	0x8
 1113 0087 07       		.byte	0x7
 1114 0088 5F000000 		.4byte	.LASF11
 1115 008c 04       		.uleb128 0x4
 1116 008d AE060000 		.4byte	.LASF12
 1117 0091 03       		.byte	0x3
 1118 0092 14       		.byte	0x14
 1119 0093 3A000000 		.4byte	0x3a
 1120 0097 04       		.uleb128 0x4
 1121 0098 CE040000 		.4byte	.LASF13
 1122 009c 03       		.byte	0x3
 1123 009d 1F       		.byte	0x1f
 1124 009e 5A000000 		.4byte	0x5a
 1125 00a2 04       		.uleb128 0x4
 1126 00a3 8A050000 		.4byte	.LASF14
 1127 00a7 03       		.byte	0x3
 1128 00a8 20       		.byte	0x20
 1129 00a9 6C000000 		.4byte	0x6c
 1130 00ad 04       		.uleb128 0x4
 1131 00ae EC000000 		.4byte	.LASF15
 1132 00b2 04       		.byte	0x4
 1133 00b3 2B       		.byte	0x2b
 1134 00b4 B8000000 		.4byte	0xb8
 1135 00b8 03       		.uleb128 0x3
 1136 00b9 01       		.byte	0x1
 1137 00ba 02       		.byte	0x2
 1138 00bb C8040000 		.4byte	.LASF16
 1139 00bf 04       		.uleb128 0x4
 1140 00c0 9D020000 		.4byte	.LASF17
ARM GAS  C:\Users\srich\AppData\Local\Temp\ccUnnuc1.s 			page 21


 1141 00c4 04       		.byte	0x4
 1142 00c5 2C       		.byte	0x2c
 1143 00c6 8C000000 		.4byte	0x8c
 1144 00ca 04       		.uleb128 0x4
 1145 00cb 2A010000 		.4byte	.LASF18
 1146 00cf 04       		.byte	0x4
 1147 00d0 2D       		.byte	0x2d
 1148 00d1 8C000000 		.4byte	0x8c
 1149 00d5 04       		.uleb128 0x4
 1150 00d6 81040000 		.4byte	.LASF19
 1151 00da 04       		.byte	0x4
 1152 00db 2E       		.byte	0x2e
 1153 00dc 8C000000 		.4byte	0x8c
 1154 00e0 04       		.uleb128 0x4
 1155 00e1 06010000 		.4byte	.LASF20
 1156 00e5 04       		.byte	0x4
 1157 00e6 2F       		.byte	0x2f
 1158 00e7 8C000000 		.4byte	0x8c
 1159 00eb 04       		.uleb128 0x4
 1160 00ec B9040000 		.4byte	.LASF21
 1161 00f0 04       		.byte	0x4
 1162 00f1 30       		.byte	0x30
 1163 00f2 A2000000 		.4byte	0xa2
 1164 00f6 04       		.uleb128 0x4
 1165 00f7 7B020000 		.4byte	.LASF22
 1166 00fb 04       		.byte	0x4
 1167 00fc 31       		.byte	0x31
 1168 00fd 97000000 		.4byte	0x97
 1169 0101 04       		.uleb128 0x4
 1170 0102 B1020000 		.4byte	.LASF23
 1171 0106 04       		.byte	0x4
 1172 0107 33       		.byte	0x33
 1173 0108 A2000000 		.4byte	0xa2
 1174 010c 04       		.uleb128 0x4
 1175 010d E9050000 		.4byte	.LASF24
 1176 0111 04       		.byte	0x4
 1177 0112 35       		.byte	0x35
 1178 0113 A2000000 		.4byte	0xa2
 1179 0117 04       		.uleb128 0x4
 1180 0118 57050000 		.4byte	.LASF25
 1181 011c 05       		.byte	0x5
 1182 011d 2A       		.byte	0x2a
 1183 011e 22010000 		.4byte	0x122
 1184 0122 05       		.uleb128 0x5
 1185 0123 57050000 		.4byte	.LASF25
 1186 0127 48       		.byte	0x48
 1187 0128 06       		.byte	0x6
 1188 0129 5E       		.byte	0x5e
 1189 012a 1F020000 		.4byte	0x21f
 1190 012e 06       		.uleb128 0x6
 1191 012f 33050000 		.4byte	.LASF26
 1192 0133 06       		.byte	0x6
 1193 0134 5F       		.byte	0x5f
 1194 0135 40020000 		.4byte	0x240
 1195 0139 00       		.byte	0
 1196 013a 06       		.uleb128 0x6
 1197 013b 97040000 		.4byte	.LASF27
ARM GAS  C:\Users\srich\AppData\Local\Temp\ccUnnuc1.s 			page 22


 1198 013f 06       		.byte	0x6
 1199 0140 61       		.byte	0x61
 1200 0141 40020000 		.4byte	0x240
 1201 0145 04       		.byte	0x4
 1202 0146 06       		.uleb128 0x6
 1203 0147 B5000000 		.4byte	.LASF28
 1204 014b 06       		.byte	0x6
 1205 014c 63       		.byte	0x63
 1206 014d EB000000 		.4byte	0xeb
 1207 0151 08       		.byte	0x8
 1208 0152 06       		.uleb128 0x6
 1209 0153 24070000 		.4byte	.LASF29
 1210 0157 06       		.byte	0x6
 1211 0158 64       		.byte	0x64
 1212 0159 FA020000 		.4byte	0x2fa
 1213 015d 0C       		.byte	0xc
 1214 015e 06       		.uleb128 0x6
 1215 015f 74010000 		.4byte	.LASF30
 1216 0163 06       		.byte	0x6
 1217 0164 66       		.byte	0x66
 1218 0165 40020000 		.4byte	0x240
 1219 0169 10       		.byte	0x10
 1220 016a 06       		.uleb128 0x6
 1221 016b 24050000 		.4byte	.LASF31
 1222 016f 06       		.byte	0x6
 1223 0170 67       		.byte	0x67
 1224 0171 40020000 		.4byte	0x240
 1225 0175 14       		.byte	0x14
 1226 0176 06       		.uleb128 0x6
 1227 0177 D2060000 		.4byte	.LASF32
 1228 017b 06       		.byte	0x6
 1229 017c 6E       		.byte	0x6e
 1230 017d A3030000 		.4byte	0x3a3
 1231 0181 18       		.byte	0x18
 1232 0182 06       		.uleb128 0x6
 1233 0183 06050000 		.4byte	.LASF33
 1234 0187 06       		.byte	0x6
 1235 0188 79       		.byte	0x79
 1236 0189 CA000000 		.4byte	0xca
 1237 018d 1C       		.byte	0x1c
 1238 018e 06       		.uleb128 0x6
 1239 018f 4F050000 		.4byte	.LASF34
 1240 0193 06       		.byte	0x6
 1241 0194 7D       		.byte	0x7d
 1242 0195 BF000000 		.4byte	0xbf
 1243 0199 1D       		.byte	0x1d
 1244 019a 06       		.uleb128 0x6
 1245 019b 8B060000 		.4byte	.LASF35
 1246 019f 06       		.byte	0x6
 1247 01a0 82       		.byte	0x82
 1248 01a1 D5000000 		.4byte	0xd5
 1249 01a5 1E       		.byte	0x1e
 1250 01a6 06       		.uleb128 0x6
 1251 01a7 1A050000 		.4byte	.LASF36
 1252 01ab 06       		.byte	0x6
 1253 01ac 88       		.byte	0x88
 1254 01ad E0000000 		.4byte	0xe0
ARM GAS  C:\Users\srich\AppData\Local\Temp\ccUnnuc1.s 			page 23


 1255 01b1 1F       		.byte	0x1f
 1256 01b2 06       		.uleb128 0x6
 1257 01b3 21000000 		.4byte	.LASF37
 1258 01b7 06       		.byte	0x6
 1259 01b8 8F       		.byte	0x8f
 1260 01b9 27030000 		.4byte	0x327
 1261 01bd 20       		.byte	0x20
 1262 01be 07       		.uleb128 0x7
 1263 01bf 705F7500 		.ascii	"p_u\000"
 1264 01c3 06       		.byte	0x6
 1265 01c4 B4       		.byte	0xb4
 1266 01c5 6E030000 		.4byte	0x36e
 1267 01c9 24       		.byte	0x24
 1268 01ca 06       		.uleb128 0x6
 1269 01cb 2A070000 		.4byte	.LASF38
 1270 01cf 06       		.byte	0x6
 1271 01d0 B9       		.byte	0xb9
 1272 01d1 66020000 		.4byte	0x266
 1273 01d5 28       		.byte	0x28
 1274 01d6 06       		.uleb128 0x6
 1275 01d7 0F020000 		.4byte	.LASF39
 1276 01db 06       		.byte	0x6
 1277 01dc BF       		.byte	0xbf
 1278 01dd 46020000 		.4byte	0x246
 1279 01e1 2C       		.byte	0x2c
 1280 01e2 06       		.uleb128 0x6
 1281 01e3 05070000 		.4byte	.LASF40
 1282 01e7 06       		.byte	0x6
 1283 01e8 C3       		.byte	0xc3
 1284 01e9 F6000000 		.4byte	0xf6
 1285 01ed 34       		.byte	0x34
 1286 01ee 06       		.uleb128 0x6
 1287 01ef 2C030000 		.4byte	.LASF41
 1288 01f3 06       		.byte	0x6
 1289 01f4 C9       		.byte	0xc9
 1290 01f5 01010000 		.4byte	0x101
 1291 01f9 38       		.byte	0x38
 1292 01fa 06       		.uleb128 0x6
 1293 01fb F2040000 		.4byte	.LASF42
 1294 01ff 06       		.byte	0x6
 1295 0200 D0       		.byte	0xd0
 1296 0201 B5030000 		.4byte	0x3b5
 1297 0205 3C       		.byte	0x3c
 1298 0206 06       		.uleb128 0x6
 1299 0207 F3050000 		.4byte	.LASF43
 1300 020b 06       		.byte	0x6
 1301 020c D4       		.byte	0xd4
 1302 020d EB000000 		.4byte	0xeb
 1303 0211 40       		.byte	0x40
 1304 0212 06       		.uleb128 0x6
 1305 0213 E4000000 		.4byte	.LASF44
 1306 0217 06       		.byte	0x6
 1307 0218 DA       		.byte	0xda
 1308 0219 7C020000 		.4byte	0x27c
 1309 021d 44       		.byte	0x44
 1310 021e 00       		.byte	0
 1311 021f 08       		.uleb128 0x8
ARM GAS  C:\Users\srich\AppData\Local\Temp\ccUnnuc1.s 			page 24


 1312 0220 08       		.byte	0x8
 1313 0221 05       		.byte	0x5
 1314 0222 61       		.byte	0x61
 1315 0223 40020000 		.4byte	0x240
 1316 0227 06       		.uleb128 0x6
 1317 0228 33050000 		.4byte	.LASF26
 1318 022c 05       		.byte	0x5
 1319 022d 62       		.byte	0x62
 1320 022e 40020000 		.4byte	0x240
 1321 0232 00       		.byte	0
 1322 0233 06       		.uleb128 0x6
 1323 0234 97040000 		.4byte	.LASF27
 1324 0238 05       		.byte	0x5
 1325 0239 64       		.byte	0x64
 1326 023a 40020000 		.4byte	0x240
 1327 023e 04       		.byte	0x4
 1328 023f 00       		.byte	0
 1329 0240 09       		.uleb128 0x9
 1330 0241 04       		.byte	0x4
 1331 0242 17010000 		.4byte	0x117
 1332 0246 04       		.uleb128 0x4
 1333 0247 2D040000 		.4byte	.LASF45
 1334 024b 05       		.byte	0x5
 1335 024c 66       		.byte	0x66
 1336 024d 1F020000 		.4byte	0x21f
 1337 0251 08       		.uleb128 0x8
 1338 0252 04       		.byte	0x4
 1339 0253 05       		.byte	0x5
 1340 0254 6B       		.byte	0x6b
 1341 0255 66020000 		.4byte	0x266
 1342 0259 06       		.uleb128 0x6
 1343 025a 33050000 		.4byte	.LASF26
 1344 025e 05       		.byte	0x5
 1345 025f 6D       		.byte	0x6d
 1346 0260 40020000 		.4byte	0x240
 1347 0264 00       		.byte	0
 1348 0265 00       		.byte	0
 1349 0266 04       		.uleb128 0x4
 1350 0267 A5020000 		.4byte	.LASF46
 1351 026b 05       		.byte	0x5
 1352 026c 70       		.byte	0x70
 1353 026d 51020000 		.4byte	0x251
 1354 0271 04       		.uleb128 0x4
 1355 0272 9D010000 		.4byte	.LASF47
 1356 0276 07       		.byte	0x7
 1357 0277 E5       		.byte	0xe5
 1358 0278 7C020000 		.4byte	0x27c
 1359 027c 0A       		.uleb128 0xa
 1360 027d 04       		.byte	0x4
 1361 027e 0B       		.uleb128 0xb
 1362 027f 4A060000 		.4byte	.LASF48
 1363 0283 24       		.byte	0x24
 1364 0284 07       		.byte	0x7
 1365 0285 0C01     		.2byte	0x10c
 1366 0287 FA020000 		.4byte	0x2fa
 1367 028b 0C       		.uleb128 0xc
 1368 028c 723400   		.ascii	"r4\000"
ARM GAS  C:\Users\srich\AppData\Local\Temp\ccUnnuc1.s 			page 25


 1369 028f 07       		.byte	0x7
 1370 0290 1F01     		.2byte	0x11f
 1371 0292 71020000 		.4byte	0x271
 1372 0296 00       		.byte	0
 1373 0297 0C       		.uleb128 0xc
 1374 0298 723500   		.ascii	"r5\000"
 1375 029b 07       		.byte	0x7
 1376 029c 2001     		.2byte	0x120
 1377 029e 71020000 		.4byte	0x271
 1378 02a2 04       		.byte	0x4
 1379 02a3 0C       		.uleb128 0xc
 1380 02a4 723600   		.ascii	"r6\000"
 1381 02a7 07       		.byte	0x7
 1382 02a8 2101     		.2byte	0x121
 1383 02aa 71020000 		.4byte	0x271
 1384 02ae 08       		.byte	0x8
 1385 02af 0C       		.uleb128 0xc
 1386 02b0 723700   		.ascii	"r7\000"
 1387 02b3 07       		.byte	0x7
 1388 02b4 2201     		.2byte	0x122
 1389 02b6 71020000 		.4byte	0x271
 1390 02ba 0C       		.byte	0xc
 1391 02bb 0C       		.uleb128 0xc
 1392 02bc 723800   		.ascii	"r8\000"
 1393 02bf 07       		.byte	0x7
 1394 02c0 2301     		.2byte	0x123
 1395 02c2 71020000 		.4byte	0x271
 1396 02c6 10       		.byte	0x10
 1397 02c7 0C       		.uleb128 0xc
 1398 02c8 723900   		.ascii	"r9\000"
 1399 02cb 07       		.byte	0x7
 1400 02cc 2401     		.2byte	0x124
 1401 02ce 71020000 		.4byte	0x271
 1402 02d2 14       		.byte	0x14
 1403 02d3 0C       		.uleb128 0xc
 1404 02d4 72313000 		.ascii	"r10\000"
 1405 02d8 07       		.byte	0x7
 1406 02d9 2501     		.2byte	0x125
 1407 02db 71020000 		.4byte	0x271
 1408 02df 18       		.byte	0x18
 1409 02e0 0C       		.uleb128 0xc
 1410 02e1 72313100 		.ascii	"r11\000"
 1411 02e5 07       		.byte	0x7
 1412 02e6 2601     		.2byte	0x126
 1413 02e8 71020000 		.4byte	0x271
 1414 02ec 1C       		.byte	0x1c
 1415 02ed 0C       		.uleb128 0xc
 1416 02ee 6C7200   		.ascii	"lr\000"
 1417 02f1 07       		.byte	0x7
 1418 02f2 2701     		.2byte	0x127
 1419 02f4 71020000 		.4byte	0x271
 1420 02f8 20       		.byte	0x20
 1421 02f9 00       		.byte	0
 1422 02fa 0B       		.uleb128 0xb
 1423 02fb 37060000 		.4byte	.LASF49
 1424 02ff 04       		.byte	0x4
 1425 0300 07       		.byte	0x7
ARM GAS  C:\Users\srich\AppData\Local\Temp\ccUnnuc1.s 			page 26


 1426 0301 3101     		.2byte	0x131
 1427 0303 15030000 		.4byte	0x315
 1428 0307 0C       		.uleb128 0xc
 1429 0308 72313300 		.ascii	"r13\000"
 1430 030c 07       		.byte	0x7
 1431 030d 3201     		.2byte	0x132
 1432 030f 15030000 		.4byte	0x315
 1433 0313 00       		.byte	0
 1434 0314 00       		.byte	0
 1435 0315 09       		.uleb128 0x9
 1436 0316 04       		.byte	0x4
 1437 0317 7E020000 		.4byte	0x27e
 1438 031b 0D       		.uleb128 0xd
 1439 031c A2000000 		.4byte	0xa2
 1440 0320 03       		.uleb128 0x3
 1441 0321 04       		.byte	0x4
 1442 0322 07       		.byte	0x7
 1443 0323 E2020000 		.4byte	.LASF50
 1444 0327 0D       		.uleb128 0xd
 1445 0328 0C010000 		.4byte	0x10c
 1446 032c 05       		.uleb128 0x5
 1447 032d BD020000 		.4byte	.LASF51
 1448 0331 10       		.byte	0x10
 1449 0332 08       		.byte	0x8
 1450 0333 2C       		.byte	0x2c
 1451 0334 5D030000 		.4byte	0x35d
 1452 0338 06       		.uleb128 0x6
 1453 0339 F3000000 		.4byte	.LASF52
 1454 033d 08       		.byte	0x8
 1455 033e 2D       		.byte	0x2d
 1456 033f 46020000 		.4byte	0x246
 1457 0343 00       		.byte	0
 1458 0344 06       		.uleb128 0x6
 1459 0345 0B070000 		.4byte	.LASF53
 1460 0349 08       		.byte	0x8
 1461 034a 2F       		.byte	0x2f
 1462 034b 40020000 		.4byte	0x240
 1463 034f 08       		.byte	0x8
 1464 0350 06       		.uleb128 0x6
 1465 0351 E2050000 		.4byte	.LASF54
 1466 0355 08       		.byte	0x8
 1467 0356 31       		.byte	0x31
 1468 0357 5D030000 		.4byte	0x35d
 1469 035b 0C       		.byte	0xc
 1470 035c 00       		.byte	0
 1471 035d 09       		.uleb128 0x9
 1472 035e 04       		.byte	0x4
 1473 035f 2C030000 		.4byte	0x32c
 1474 0363 04       		.uleb128 0x4
 1475 0364 BD020000 		.4byte	.LASF51
 1476 0368 08       		.byte	0x8
 1477 0369 33       		.byte	0x33
 1478 036a 2C030000 		.4byte	0x32c
 1479 036e 0E       		.uleb128 0xe
 1480 036f 04       		.byte	0x4
 1481 0370 06       		.byte	0x6
 1482 0371 96       		.byte	0x96
ARM GAS  C:\Users\srich\AppData\Local\Temp\ccUnnuc1.s 			page 27


 1483 0372 A3030000 		.4byte	0x3a3
 1484 0376 0F       		.uleb128 0xf
 1485 0377 30000000 		.4byte	.LASF55
 1486 037b 06       		.byte	0x6
 1487 037c 9D       		.byte	0x9d
 1488 037d F6000000 		.4byte	0xf6
 1489 0381 0F       		.uleb128 0xf
 1490 0382 76000000 		.4byte	.LASF56
 1491 0386 06       		.byte	0x6
 1492 0387 A4       		.byte	0xa4
 1493 0388 F6000000 		.4byte	0xf6
 1494 038c 0F       		.uleb128 0xf
 1495 038d CB060000 		.4byte	.LASF57
 1496 0391 06       		.byte	0x6
 1497 0392 AB       		.byte	0xab
 1498 0393 7C020000 		.4byte	0x27c
 1499 0397 0F       		.uleb128 0xf
 1500 0398 2C050000 		.4byte	.LASF58
 1501 039c 06       		.byte	0x6
 1502 039d B2       		.byte	0xb2
 1503 039e 01010000 		.4byte	0x101
 1504 03a2 00       		.byte	0
 1505 03a3 09       		.uleb128 0x9
 1506 03a4 04       		.byte	0x4
 1507 03a5 A9030000 		.4byte	0x3a9
 1508 03a9 10       		.uleb128 0x10
 1509 03aa AE030000 		.4byte	0x3ae
 1510 03ae 03       		.uleb128 0x3
 1511 03af 01       		.byte	0x1
 1512 03b0 08       		.byte	0x8
 1513 03b1 BF050000 		.4byte	.LASF59
 1514 03b5 09       		.uleb128 0x9
 1515 03b6 04       		.byte	0x4
 1516 03b7 63030000 		.4byte	0x363
 1517 03bb 09       		.uleb128 0x9
 1518 03bc 04       		.byte	0x4
 1519 03bd 8C000000 		.4byte	0x8c
 1520 03c1 09       		.uleb128 0x9
 1521 03c2 04       		.byte	0x4
 1522 03c3 C7030000 		.4byte	0x3c7
 1523 03c7 10       		.uleb128 0x10
 1524 03c8 8C000000 		.4byte	0x8c
 1525 03cc 11       		.uleb128 0x11
 1526 03cd A2000000 		.4byte	0xa2
 1527 03d1 DC030000 		.4byte	0x3dc
 1528 03d5 12       		.uleb128 0x12
 1529 03d6 20030000 		.4byte	0x320
 1530 03da 03       		.byte	0x3
 1531 03db 00       		.byte	0
 1532 03dc 11       		.uleb128 0x11
 1533 03dd A2000000 		.4byte	0xa2
 1534 03e1 EC030000 		.4byte	0x3ec
 1535 03e5 12       		.uleb128 0x12
 1536 03e6 20030000 		.4byte	0x320
 1537 03ea 00       		.byte	0
 1538 03eb 00       		.byte	0
 1539 03ec 0D       		.uleb128 0xd
ARM GAS  C:\Users\srich\AppData\Local\Temp\ccUnnuc1.s 			page 28


 1540 03ed 97000000 		.4byte	0x97
 1541 03f1 13       		.uleb128 0x13
 1542 03f2 18       		.byte	0x18
 1543 03f3 09       		.byte	0x9
 1544 03f4 B102     		.2byte	0x2b1
 1545 03f6 48040000 		.4byte	0x448
 1546 03fa 0C       		.uleb128 0xc
 1547 03fb 435200   		.ascii	"CR\000"
 1548 03fe 09       		.byte	0x9
 1549 03ff B302     		.2byte	0x2b3
 1550 0401 1B030000 		.4byte	0x31b
 1551 0405 00       		.byte	0
 1552 0406 14       		.uleb128 0x14
 1553 0407 08060000 		.4byte	.LASF60
 1554 040b 09       		.byte	0x9
 1555 040c B402     		.2byte	0x2b4
 1556 040e 1B030000 		.4byte	0x31b
 1557 0412 04       		.byte	0x4
 1558 0413 0C       		.uleb128 0xc
 1559 0414 50415200 		.ascii	"PAR\000"
 1560 0418 09       		.byte	0x9
 1561 0419 B502     		.2byte	0x2b5
 1562 041b 1B030000 		.4byte	0x31b
 1563 041f 08       		.byte	0x8
 1564 0420 14       		.uleb128 0x14
 1565 0421 44000000 		.4byte	.LASF61
 1566 0425 09       		.byte	0x9
 1567 0426 B602     		.2byte	0x2b6
 1568 0428 1B030000 		.4byte	0x31b
 1569 042c 0C       		.byte	0xc
 1570 042d 14       		.uleb128 0x14
 1571 042e 5D060000 		.4byte	.LASF62
 1572 0432 09       		.byte	0x9
 1573 0433 B702     		.2byte	0x2b7
 1574 0435 1B030000 		.4byte	0x31b
 1575 0439 10       		.byte	0x10
 1576 043a 0C       		.uleb128 0xc
 1577 043b 46435200 		.ascii	"FCR\000"
 1578 043f 09       		.byte	0x9
 1579 0440 B802     		.2byte	0x2b8
 1580 0442 1B030000 		.4byte	0x31b
 1581 0446 14       		.byte	0x14
 1582 0447 00       		.byte	0
 1583 0448 15       		.uleb128 0x15
 1584 0449 0D060000 		.4byte	.LASF63
 1585 044d 09       		.byte	0x9
 1586 044e B902     		.2byte	0x2b9
 1587 0450 F1030000 		.4byte	0x3f1
 1588 0454 08       		.uleb128 0x8
 1589 0455 0C       		.byte	0xc
 1590 0456 0A       		.byte	0xa
 1591 0457 DA       		.byte	0xda
 1592 0458 99040000 		.4byte	0x499
 1593 045c 06       		.uleb128 0x6
 1594 045d 58000000 		.4byte	.LASF64
 1595 0461 0A       		.byte	0xa
 1596 0462 DB       		.byte	0xdb
ARM GAS  C:\Users\srich\AppData\Local\Temp\ccUnnuc1.s 			page 29


 1597 0463 99040000 		.4byte	0x499
 1598 0467 00       		.byte	0
 1599 0468 06       		.uleb128 0x6
 1600 0469 85050000 		.4byte	.LASF65
 1601 046d 0A       		.byte	0xa
 1602 046e DC       		.byte	0xdc
 1603 046f 9F040000 		.4byte	0x49f
 1604 0473 04       		.byte	0x4
 1605 0474 06       		.uleb128 0x6
 1606 0475 46020000 		.4byte	.LASF66
 1607 0479 0A       		.byte	0xa
 1608 047a DD       		.byte	0xdd
 1609 047b 8C000000 		.4byte	0x8c
 1610 047f 08       		.byte	0x8
 1611 0480 06       		.uleb128 0x6
 1612 0481 A6010000 		.4byte	.LASF67
 1613 0485 0A       		.byte	0xa
 1614 0486 DF       		.byte	0xdf
 1615 0487 8C000000 		.4byte	0x8c
 1616 048b 09       		.byte	0x9
 1617 048c 06       		.uleb128 0x6
 1618 048d 7F000000 		.4byte	.LASF68
 1619 0491 0A       		.byte	0xa
 1620 0492 E0       		.byte	0xe0
 1621 0493 8C000000 		.4byte	0x8c
 1622 0497 0A       		.byte	0xa
 1623 0498 00       		.byte	0
 1624 0499 09       		.uleb128 0x9
 1625 049a 04       		.byte	0x4
 1626 049b 48040000 		.4byte	0x448
 1627 049f 09       		.uleb128 0x9
 1628 04a0 04       		.byte	0x4
 1629 04a1 1B030000 		.4byte	0x31b
 1630 04a5 04       		.uleb128 0x4
 1631 04a6 9E040000 		.4byte	.LASF69
 1632 04aa 0A       		.byte	0xa
 1633 04ab E1       		.byte	0xe1
 1634 04ac 54040000 		.4byte	0x454
 1635 04b0 16       		.uleb128 0x16
 1636 04b1 01       		.byte	0x1
 1637 04b2 0B       		.byte	0xb
 1638 04b3 33       		.byte	0x33
 1639 04b4 EF040000 		.4byte	0x4ef
 1640 04b8 17       		.uleb128 0x17
 1641 04b9 10010000 		.4byte	.LASF70
 1642 04bd 00       		.sleb128 0
 1643 04be 17       		.uleb128 0x17
 1644 04bf 60010000 		.4byte	.LASF71
 1645 04c3 01       		.sleb128 1
 1646 04c4 17       		.uleb128 0x17
 1647 04c5 69010000 		.4byte	.LASF72
 1648 04c9 02       		.sleb128 2
 1649 04ca 17       		.uleb128 0x17
 1650 04cb 8E020000 		.4byte	.LASF73
 1651 04cf 03       		.sleb128 3
 1652 04d0 17       		.uleb128 0x17
 1653 04d1 C4050000 		.4byte	.LASF74
ARM GAS  C:\Users\srich\AppData\Local\Temp\ccUnnuc1.s 			page 30


 1654 04d5 04       		.sleb128 4
 1655 04d6 17       		.uleb128 0x17
 1656 04d7 23040000 		.4byte	.LASF75
 1657 04db 05       		.sleb128 5
 1658 04dc 17       		.uleb128 0x17
 1659 04dd D6020000 		.4byte	.LASF76
 1660 04e1 06       		.sleb128 6
 1661 04e2 17       		.uleb128 0x17
 1662 04e3 0E050000 		.4byte	.LASF77
 1663 04e7 07       		.sleb128 7
 1664 04e8 17       		.uleb128 0x17
 1665 04e9 33010000 		.4byte	.LASF78
 1666 04ed 08       		.sleb128 8
 1667 04ee 00       		.byte	0
 1668 04ef 04       		.uleb128 0x4
 1669 04f0 9C000000 		.4byte	.LASF79
 1670 04f4 0B       		.byte	0xb
 1671 04f5 3D       		.byte	0x3d
 1672 04f6 B0040000 		.4byte	0x4b0
 1673 04fa 08       		.uleb128 0x8
 1674 04fb 08       		.byte	0x8
 1675 04fc 0B       		.byte	0xb
 1676 04fd 42       		.byte	0x42
 1677 04fe 1B050000 		.4byte	0x51b
 1678 0502 06       		.uleb128 0x6
 1679 0503 B6010000 		.4byte	.LASF80
 1680 0507 0B       		.byte	0xb
 1681 0508 43       		.byte	0x43
 1682 0509 A2000000 		.4byte	0xa2
 1683 050d 00       		.byte	0
 1684 050e 06       		.uleb128 0x6
 1685 050f 28000000 		.4byte	.LASF81
 1686 0513 0B       		.byte	0xb
 1687 0514 44       		.byte	0x44
 1688 0515 A2000000 		.4byte	0xa2
 1689 0519 04       		.byte	0x4
 1690 051a 00       		.byte	0
 1691 051b 04       		.uleb128 0x4
 1692 051c 00000000 		.4byte	.LASF82
 1693 0520 0B       		.byte	0xb
 1694 0521 45       		.byte	0x45
 1695 0522 FA040000 		.4byte	0x4fa
 1696 0526 18       		.uleb128 0x18
 1697 0527 AD000000 		.4byte	0xad
 1698 052b 35050000 		.4byte	0x535
 1699 052f 19       		.uleb128 0x19
 1700 0530 7C020000 		.4byte	0x27c
 1701 0534 00       		.byte	0
 1702 0535 09       		.uleb128 0x9
 1703 0536 04       		.byte	0x4
 1704 0537 26050000 		.4byte	0x526
 1705 053b 18       		.uleb128 0x18
 1706 053c AD000000 		.4byte	0xad
 1707 0540 59050000 		.4byte	0x559
 1708 0544 19       		.uleb128 0x19
 1709 0545 7C020000 		.4byte	0x27c
 1710 0549 19       		.uleb128 0x19
ARM GAS  C:\Users\srich\AppData\Local\Temp\ccUnnuc1.s 			page 31


 1711 054a A2000000 		.4byte	0xa2
 1712 054e 19       		.uleb128 0x19
 1713 054f BB030000 		.4byte	0x3bb
 1714 0553 19       		.uleb128 0x19
 1715 0554 A2000000 		.4byte	0xa2
 1716 0558 00       		.byte	0
 1717 0559 09       		.uleb128 0x9
 1718 055a 04       		.byte	0x4
 1719 055b 3B050000 		.4byte	0x53b
 1720 055f 18       		.uleb128 0x18
 1721 0560 AD000000 		.4byte	0xad
 1722 0564 7D050000 		.4byte	0x57d
 1723 0568 19       		.uleb128 0x19
 1724 0569 7C020000 		.4byte	0x27c
 1725 056d 19       		.uleb128 0x19
 1726 056e A2000000 		.4byte	0xa2
 1727 0572 19       		.uleb128 0x19
 1728 0573 C1030000 		.4byte	0x3c1
 1729 0577 19       		.uleb128 0x19
 1730 0578 A2000000 		.4byte	0xa2
 1731 057c 00       		.byte	0
 1732 057d 09       		.uleb128 0x9
 1733 057e 04       		.byte	0x4
 1734 057f 5F050000 		.4byte	0x55f
 1735 0583 18       		.uleb128 0x18
 1736 0584 AD000000 		.4byte	0xad
 1737 0588 97050000 		.4byte	0x597
 1738 058c 19       		.uleb128 0x19
 1739 058d 7C020000 		.4byte	0x27c
 1740 0591 19       		.uleb128 0x19
 1741 0592 97050000 		.4byte	0x597
 1742 0596 00       		.byte	0
 1743 0597 09       		.uleb128 0x9
 1744 0598 04       		.byte	0x4
 1745 0599 1B050000 		.4byte	0x51b
 1746 059d 09       		.uleb128 0x9
 1747 059e 04       		.byte	0x4
 1748 059f 83050000 		.4byte	0x583
 1749 05a3 09       		.uleb128 0x9
 1750 05a4 04       		.byte	0x4
 1751 05a5 A9050000 		.4byte	0x5a9
 1752 05a9 10       		.uleb128 0x10
 1753 05aa A5040000 		.4byte	0x4a5
 1754 05ae 16       		.uleb128 0x16
 1755 05af 01       		.byte	0x1
 1756 05b0 0C       		.byte	0xc
 1757 05b1 B6       		.byte	0xb6
 1758 05b2 C9050000 		.4byte	0x5c9
 1759 05b6 17       		.uleb128 0x17
 1760 05b7 D6000000 		.4byte	.LASF83
 1761 05bb 00       		.sleb128 0
 1762 05bc 17       		.uleb128 0x17
 1763 05bd 29060000 		.4byte	.LASF84
 1764 05c1 01       		.sleb128 1
 1765 05c2 17       		.uleb128 0x17
 1766 05c3 4D020000 		.4byte	.LASF85
 1767 05c7 02       		.sleb128 2
ARM GAS  C:\Users\srich\AppData\Local\Temp\ccUnnuc1.s 			page 32


 1768 05c8 00       		.byte	0
 1769 05c9 04       		.uleb128 0x4
 1770 05ca 5E050000 		.4byte	.LASF86
 1771 05ce 0C       		.byte	0xc
 1772 05cf BA       		.byte	0xba
 1773 05d0 AE050000 		.4byte	0x5ae
 1774 05d4 04       		.uleb128 0x4
 1775 05d5 BF010000 		.4byte	.LASF87
 1776 05d9 0C       		.byte	0xc
 1777 05da BF       		.byte	0xbf
 1778 05db A2000000 		.4byte	0xa2
 1779 05df 04       		.uleb128 0x4
 1780 05e0 3F060000 		.4byte	.LASF88
 1781 05e4 0C       		.byte	0xc
 1782 05e5 C4       		.byte	0xc4
 1783 05e6 A2000000 		.4byte	0xa2
 1784 05ea 04       		.uleb128 0x4
 1785 05eb 1A070000 		.4byte	.LASF89
 1786 05ef 0C       		.byte	0xc
 1787 05f0 C9       		.byte	0xc9
 1788 05f1 F5050000 		.4byte	0x5f5
 1789 05f5 05       		.uleb128 0x5
 1790 05f6 1A070000 		.4byte	.LASF89
 1791 05fa 48       		.byte	0x48
 1792 05fb 0C       		.byte	0xc
 1793 05fc E5       		.byte	0xe5
 1794 05fd 94060000 		.4byte	0x694
 1795 0601 07       		.uleb128 0x7
 1796 0602 766D7400 		.ascii	"vmt\000"
 1797 0606 0C       		.byte	0xc
 1798 0607 E9       		.byte	0xe9
 1799 0608 21070000 		.4byte	0x721
 1800 060c 00       		.byte	0
 1801 060d 06       		.uleb128 0x6
 1802 060e 1B010000 		.4byte	.LASF90
 1803 0612 0C       		.byte	0xc
 1804 0613 EA       		.byte	0xea
 1805 0614 EF040000 		.4byte	0x4ef
 1806 0618 04       		.byte	0x4
 1807 0619 07       		.uleb128 0x7
 1808 061a 63696400 		.ascii	"cid\000"
 1809 061e 0C       		.byte	0xc
 1810 061f EA       		.byte	0xea
 1811 0620 CC030000 		.4byte	0x3cc
 1812 0624 08       		.byte	0x8
 1813 0625 07       		.uleb128 0x7
 1814 0626 63736400 		.ascii	"csd\000"
 1815 062a 0C       		.byte	0xc
 1816 062b EA       		.byte	0xea
 1817 062c CC030000 		.4byte	0x3cc
 1818 0630 18       		.byte	0x18
 1819 0631 06       		.uleb128 0x6
 1820 0632 10000000 		.4byte	.LASF91
 1821 0636 0C       		.byte	0xc
 1822 0637 EA       		.byte	0xea
 1823 0638 A2000000 		.4byte	0xa2
 1824 063c 28       		.byte	0x28
ARM GAS  C:\Users\srich\AppData\Local\Temp\ccUnnuc1.s 			page 33


 1825 063d 06       		.uleb128 0x6
 1826 063e D6050000 		.4byte	.LASF92
 1827 0642 0C       		.byte	0xc
 1828 0643 EE       		.byte	0xee
 1829 0644 2C070000 		.4byte	0x72c
 1830 0648 2C       		.byte	0x2c
 1831 0649 06       		.uleb128 0x6
 1832 064a 86000000 		.4byte	.LASF93
 1833 064e 0C       		.byte	0xc
 1834 064f F2       		.byte	0xf2
 1835 0650 D4050000 		.4byte	0x5d4
 1836 0654 30       		.byte	0x30
 1837 0655 06       		.uleb128 0x6
 1838 0656 08020000 		.4byte	.LASF94
 1839 065a 0C       		.byte	0xc
 1840 065b F6       		.byte	0xf6
 1841 065c DF050000 		.4byte	0x5df
 1842 0660 34       		.byte	0x34
 1843 0661 07       		.uleb128 0x7
 1844 0662 72636100 		.ascii	"rca\000"
 1845 0666 0C       		.byte	0xc
 1846 0667 FA       		.byte	0xfa
 1847 0668 A2000000 		.4byte	0xa2
 1848 066c 38       		.byte	0x38
 1849 066d 06       		.uleb128 0x6
 1850 066e C1040000 		.4byte	.LASF95
 1851 0672 0C       		.byte	0xc
 1852 0673 FF       		.byte	0xff
 1853 0674 40020000 		.4byte	0x240
 1854 0678 3C       		.byte	0x3c
 1855 0679 14       		.uleb128 0x14
 1856 067a C3060000 		.4byte	.LASF96
 1857 067e 0C       		.byte	0xc
 1858 067f 0301     		.2byte	0x103
 1859 0681 A2000000 		.4byte	0xa2
 1860 0685 40       		.byte	0x40
 1861 0686 0C       		.uleb128 0xc
 1862 0687 646D6100 		.ascii	"dma\000"
 1863 068b 0C       		.byte	0xc
 1864 068c 0701     		.2byte	0x107
 1865 068e A3050000 		.4byte	0x5a3
 1866 0692 44       		.byte	0x44
 1867 0693 00       		.byte	0
 1868 0694 08       		.uleb128 0x8
 1869 0695 04       		.byte	0x4
 1870 0696 0C       		.byte	0xc
 1871 0697 CF       		.byte	0xcf
 1872 0698 A9060000 		.4byte	0x6a9
 1873 069c 06       		.uleb128 0x6
 1874 069d B0010000 		.4byte	.LASF97
 1875 06a1 0C       		.byte	0xc
 1876 06a2 D0       		.byte	0xd0
 1877 06a3 A2000000 		.4byte	0xa2
 1878 06a7 00       		.byte	0
 1879 06a8 00       		.byte	0
 1880 06a9 04       		.uleb128 0x4
 1881 06aa A4060000 		.4byte	.LASF98
ARM GAS  C:\Users\srich\AppData\Local\Temp\ccUnnuc1.s 			page 34


 1882 06ae 0C       		.byte	0xc
 1883 06af D1       		.byte	0xd1
 1884 06b0 94060000 		.4byte	0x694
 1885 06b4 05       		.uleb128 0x5
 1886 06b5 7C010000 		.4byte	.LASF99
 1887 06b9 20       		.byte	0x20
 1888 06ba 0C       		.byte	0xc
 1889 06bb DE       		.byte	0xde
 1890 06bc 21070000 		.4byte	0x721
 1891 06c0 06       		.uleb128 0x6
 1892 06c1 51060000 		.4byte	.LASF100
 1893 06c5 0C       		.byte	0xc
 1894 06c6 DF       		.byte	0xdf
 1895 06c7 35050000 		.4byte	0x535
 1896 06cb 00       		.byte	0
 1897 06cc 06       		.uleb128 0x6
 1898 06cd 37000000 		.4byte	.LASF101
 1899 06d1 0C       		.byte	0xc
 1900 06d2 DF       		.byte	0xdf
 1901 06d3 35050000 		.4byte	0x535
 1902 06d7 04       		.byte	0x4
 1903 06d8 06       		.uleb128 0x6
 1904 06d9 6B050000 		.4byte	.LASF102
 1905 06dd 0C       		.byte	0xc
 1906 06de DF       		.byte	0xdf
 1907 06df 35050000 		.4byte	0x535
 1908 06e3 08       		.byte	0x8
 1909 06e4 06       		.uleb128 0x6
 1910 06e5 FB000000 		.4byte	.LASF103
 1911 06e9 0C       		.byte	0xc
 1912 06ea DF       		.byte	0xdf
 1913 06eb 35050000 		.4byte	0x535
 1914 06ef 0C       		.byte	0xc
 1915 06f0 06       		.uleb128 0x6
 1916 06f1 BA050000 		.4byte	.LASF104
 1917 06f5 0C       		.byte	0xc
 1918 06f6 DF       		.byte	0xdf
 1919 06f7 59050000 		.4byte	0x559
 1920 06fb 10       		.byte	0x10
 1921 06fc 06       		.uleb128 0x6
 1922 06fd D0020000 		.4byte	.LASF105
 1923 0701 0C       		.byte	0xc
 1924 0702 DF       		.byte	0xdf
 1925 0703 7D050000 		.4byte	0x57d
 1926 0707 14       		.byte	0x14
 1927 0708 06       		.uleb128 0x6
 1928 0709 89040000 		.4byte	.LASF106
 1929 070d 0C       		.byte	0xc
 1930 070e DF       		.byte	0xdf
 1931 070f 35050000 		.4byte	0x535
 1932 0713 18       		.byte	0x18
 1933 0714 06       		.uleb128 0x6
 1934 0715 89010000 		.4byte	.LASF107
 1935 0719 0C       		.byte	0xc
 1936 071a DF       		.byte	0xdf
 1937 071b 9D050000 		.4byte	0x59d
 1938 071f 1C       		.byte	0x1c
ARM GAS  C:\Users\srich\AppData\Local\Temp\ccUnnuc1.s 			page 35


 1939 0720 00       		.byte	0
 1940 0721 09       		.uleb128 0x9
 1941 0722 04       		.byte	0x4
 1942 0723 27070000 		.4byte	0x727
 1943 0727 10       		.uleb128 0x10
 1944 0728 B4060000 		.4byte	0x6b4
 1945 072c 09       		.uleb128 0x9
 1946 072d 04       		.byte	0x4
 1947 072e 32070000 		.4byte	0x732
 1948 0732 10       		.uleb128 0x10
 1949 0733 A9060000 		.4byte	0x6a9
 1950 0737 1A       		.uleb128 0x1a
 1951 0738 49040000 		.4byte	.LASF110
 1952 073c 01       		.byte	0x1
 1953 073d 8501     		.2byte	0x185
 1954 073f AD000000 		.4byte	0xad
 1955 0743 01       		.byte	0x1
 1956 0744 83070000 		.4byte	0x783
 1957 0748 1B       		.uleb128 0x1b
 1958 0749 DD050000 		.4byte	.LASF108
 1959 074d 01       		.byte	0x1
 1960 074e 8501     		.2byte	0x185
 1961 0750 83070000 		.4byte	0x783
 1962 0754 1B       		.uleb128 0x1b
 1963 0755 20060000 		.4byte	.LASF109
 1964 0759 01       		.byte	0x1
 1965 075a 8501     		.2byte	0x185
 1966 075c A2000000 		.4byte	0xa2
 1967 0760 1C       		.uleb128 0x1c
 1968 0761 62756600 		.ascii	"buf\000"
 1969 0765 01       		.byte	0x1
 1970 0766 8601     		.2byte	0x186
 1971 0768 BB030000 		.4byte	0x3bb
 1972 076c 1C       		.uleb128 0x1c
 1973 076d 6E00     		.ascii	"n\000"
 1974 076f 01       		.byte	0x1
 1975 0770 8601     		.2byte	0x186
 1976 0772 A2000000 		.4byte	0xa2
 1977 0776 1D       		.uleb128 0x1d
 1978 0777 9D060000 		.4byte	.LASF112
 1979 077b 01       		.byte	0x1
 1980 077c 8701     		.2byte	0x187
 1981 077e AD000000 		.4byte	0xad
 1982 0782 00       		.byte	0
 1983 0783 09       		.uleb128 0x9
 1984 0784 04       		.byte	0x4
 1985 0785 EA050000 		.4byte	0x5ea
 1986 0789 1A       		.uleb128 0x1a
 1987 078a 1A040000 		.4byte	.LASF111
 1988 078e 01       		.byte	0x1
 1989 078f AB01     		.2byte	0x1ab
 1990 0791 AD000000 		.4byte	0xad
 1991 0795 01       		.byte	0x1
 1992 0796 D5070000 		.4byte	0x7d5
 1993 079a 1B       		.uleb128 0x1b
 1994 079b DD050000 		.4byte	.LASF108
 1995 079f 01       		.byte	0x1
ARM GAS  C:\Users\srich\AppData\Local\Temp\ccUnnuc1.s 			page 36


 1996 07a0 AB01     		.2byte	0x1ab
 1997 07a2 83070000 		.4byte	0x783
 1998 07a6 1B       		.uleb128 0x1b
 1999 07a7 20060000 		.4byte	.LASF109
 2000 07ab 01       		.byte	0x1
 2001 07ac AB01     		.2byte	0x1ab
 2002 07ae A2000000 		.4byte	0xa2
 2003 07b2 1C       		.uleb128 0x1c
 2004 07b3 62756600 		.ascii	"buf\000"
 2005 07b7 01       		.byte	0x1
 2006 07b8 AC01     		.2byte	0x1ac
 2007 07ba C1030000 		.4byte	0x3c1
 2008 07be 1C       		.uleb128 0x1c
 2009 07bf 6E00     		.ascii	"n\000"
 2010 07c1 01       		.byte	0x1
 2011 07c2 AC01     		.2byte	0x1ac
 2012 07c4 A2000000 		.4byte	0xa2
 2013 07c8 1D       		.uleb128 0x1d
 2014 07c9 9D060000 		.4byte	.LASF112
 2015 07cd 01       		.byte	0x1
 2016 07ce AD01     		.2byte	0x1ad
 2017 07d0 AD000000 		.4byte	0xad
 2018 07d4 00       		.byte	0
 2019 07d5 1A       		.uleb128 0x1a
 2020 07d6 3A040000 		.4byte	.LASF113
 2021 07da 01       		.byte	0x1
 2022 07db E201     		.2byte	0x1e2
 2023 07dd AD000000 		.4byte	0xad
 2024 07e1 01       		.byte	0x1
 2025 07e2 FF070000 		.4byte	0x7ff
 2026 07e6 1B       		.uleb128 0x1b
 2027 07e7 DD050000 		.4byte	.LASF108
 2028 07eb 01       		.byte	0x1
 2029 07ec E201     		.2byte	0x1e2
 2030 07ee 83070000 		.4byte	0x783
 2031 07f2 1D       		.uleb128 0x1d
 2032 07f3 13070000 		.4byte	.LASF114
 2033 07f7 01       		.byte	0x1
 2034 07f8 E301     		.2byte	0x1e3
 2035 07fa AD000000 		.4byte	0xad
 2036 07fe 00       		.byte	0
 2037 07ff 1A       		.uleb128 0x1a
 2038 0800 A7000000 		.4byte	.LASF115
 2039 0804 01       		.byte	0x1
 2040 0805 5A01     		.2byte	0x15a
 2041 0807 AD000000 		.4byte	0xad
 2042 080b 01       		.byte	0x1
 2043 080c 4F080000 		.4byte	0x84f
 2044 0810 1B       		.uleb128 0x1b
 2045 0811 DD050000 		.4byte	.LASF108
 2046 0815 01       		.byte	0x1
 2047 0816 5A01     		.2byte	0x15a
 2048 0818 83070000 		.4byte	0x783
 2049 081c 1E       		.uleb128 0x1e
 2050 081d 2E080000 		.4byte	0x82e
 2051 0821 1F       		.uleb128 0x1f
 2052 0822 746D7000 		.ascii	"tmp\000"
ARM GAS  C:\Users\srich\AppData\Local\Temp\ccUnnuc1.s 			page 37


 2053 0826 01       		.byte	0x1
 2054 0827 5E01     		.2byte	0x15e
 2055 0829 A2000000 		.4byte	0xa2
 2056 082d 00       		.byte	0
 2057 082e 1E       		.uleb128 0x1e
 2058 082f 40080000 		.4byte	0x840
 2059 0833 1F       		.uleb128 0x1f
 2060 0834 746D7000 		.ascii	"tmp\000"
 2061 0838 01       		.byte	0x1
 2062 0839 6201     		.2byte	0x162
 2063 083b A2000000 		.4byte	0xa2
 2064 083f 00       		.byte	0
 2065 0840 20       		.uleb128 0x20
 2066 0841 1F       		.uleb128 0x1f
 2067 0842 746D7000 		.ascii	"tmp\000"
 2068 0846 01       		.byte	0x1
 2069 0847 6601     		.2byte	0x166
 2070 0849 A2000000 		.4byte	0xa2
 2071 084d 00       		.byte	0
 2072 084e 00       		.byte	0
 2073 084f 21       		.uleb128 0x21
 2074 0850 92060000 		.4byte	.LASF117
 2075 0854 01       		.byte	0x1
 2076 0855 0002     		.2byte	0x200
 2077 0857 AD000000 		.4byte	0xad
 2078 085b 00000000 		.4byte	.LFB129
 2079 085f 18000000 		.4byte	.LFE129-.LFB129
 2080 0863 01       		.uleb128 0x1
 2081 0864 9C       		.byte	0x9c
 2082 0865 88080000 		.4byte	0x888
 2083 0869 22       		.uleb128 0x22
 2084 086a DD050000 		.4byte	.LASF108
 2085 086e 01       		.byte	0x1
 2086 086f 0002     		.2byte	0x200
 2087 0871 83070000 		.4byte	0x783
 2088 0875 00000000 		.4byte	.LLST0
 2089 0879 23       		.uleb128 0x23
 2090 087a 53000000 		.4byte	.LASF116
 2091 087e 01       		.byte	0x1
 2092 087f 0002     		.2byte	0x200
 2093 0881 97050000 		.4byte	0x597
 2094 0885 01       		.uleb128 0x1
 2095 0886 51       		.byte	0x51
 2096 0887 00       		.byte	0
 2097 0888 24       		.uleb128 0x24
 2098 0889 FD010000 		.4byte	.LASF118
 2099 088d 01       		.byte	0x1
 2100 088e C6       		.byte	0xc6
 2101 088f AD000000 		.4byte	0xad
 2102 0893 00000000 		.4byte	.LFB123
 2103 0897 B4010000 		.4byte	.LFE123-.LFB123
 2104 089b 01       		.uleb128 0x1
 2105 089c 9C       		.byte	0x9c
 2106 089d 170B0000 		.4byte	0xb17
 2107 08a1 25       		.uleb128 0x25
 2108 08a2 DD050000 		.4byte	.LASF108
 2109 08a6 01       		.byte	0x1
ARM GAS  C:\Users\srich\AppData\Local\Temp\ccUnnuc1.s 			page 38


 2110 08a7 C6       		.byte	0xc6
 2111 08a8 83070000 		.4byte	0x783
 2112 08ac 3A000000 		.4byte	.LLST1
 2113 08b0 26       		.uleb128 0x26
 2114 08b1 E3010000 		.4byte	.LASF119
 2115 08b5 01       		.byte	0x1
 2116 08b6 C7       		.byte	0xc7
 2117 08b7 DC030000 		.4byte	0x3dc
 2118 08bb 02       		.uleb128 0x2
 2119 08bc 91       		.byte	0x91
 2120 08bd 64       		.sleb128 -28
 2121 08be 27       		.uleb128 0x27
 2122 08bf 42040000 		.4byte	.LASF129
 2123 08c3 01       		.byte	0x1
 2124 08c4 4901     		.2byte	0x149
 2125 08c6 3A000000 		.4byte	.LDL1
 2126 08ca 28       		.uleb128 0x28
 2127 08cb 5A000000 		.4byte	.LBB5
 2128 08cf 5E000000 		.4byte	.LBE5-.LBB5
 2129 08d3 44090000 		.4byte	0x944
 2130 08d7 29       		.uleb128 0x29
 2131 08d8 6900     		.ascii	"i\000"
 2132 08da 01       		.byte	0x1
 2133 08db F9       		.byte	0xf9
 2134 08dc 2C000000 		.4byte	0x2c
 2135 08e0 6E000000 		.4byte	.LLST2
 2136 08e4 29       		.uleb128 0x29
 2137 08e5 6F637200 		.ascii	"ocr\000"
 2138 08e9 01       		.byte	0x1
 2139 08ea FA       		.byte	0xfa
 2140 08eb A2000000 		.4byte	0xa2
 2141 08ef B2000000 		.4byte	.LLST3
 2142 08f3 2A       		.uleb128 0x2a
 2143 08f4 78000000 		.4byte	.LVL14
 2144 08f8 04100000 		.4byte	0x1004
 2145 08fc 2B       		.uleb128 0x2b
 2146 08fd 84000000 		.4byte	.LVL15
 2147 0901 16100000 		.4byte	0x1016
 2148 0905 21090000 		.4byte	0x921
 2149 0909 2C       		.uleb128 0x2c
 2150 090a 01       		.uleb128 0x1
 2151 090b 53       		.byte	0x53
 2152 090c 02       		.uleb128 0x2
 2153 090d 91       		.byte	0x91
 2154 090e 64       		.sleb128 -28
 2155 090f 2C       		.uleb128 0x2c
 2156 0910 01       		.uleb128 0x1
 2157 0911 52       		.byte	0x52
 2158 0912 01       		.uleb128 0x1
 2159 0913 30       		.byte	0x30
 2160 0914 2C       		.uleb128 0x2c
 2161 0915 01       		.uleb128 0x1
 2162 0916 51       		.byte	0x51
 2163 0917 02       		.uleb128 0x2
 2164 0918 08       		.byte	0x8
 2165 0919 37       		.byte	0x37
 2166 091a 2C       		.uleb128 0x2c
ARM GAS  C:\Users\srich\AppData\Local\Temp\ccUnnuc1.s 			page 39


 2167 091b 01       		.uleb128 0x1
 2168 091c 50       		.byte	0x50
 2169 091d 02       		.uleb128 0x2
 2170 091e 74       		.byte	0x74
 2171 091f 00       		.sleb128 0
 2172 0920 00       		.byte	0
 2173 0921 2D       		.uleb128 0x2d
 2174 0922 9E000000 		.4byte	.LVL18
 2175 0926 41100000 		.4byte	0x1041
 2176 092a 2C       		.uleb128 0x2c
 2177 092b 01       		.uleb128 0x1
 2178 092c 53       		.byte	0x53
 2179 092d 02       		.uleb128 0x2
 2180 092e 91       		.byte	0x91
 2181 092f 64       		.sleb128 -28
 2182 0930 2C       		.uleb128 0x2c
 2183 0931 01       		.uleb128 0x1
 2184 0932 52       		.byte	0x52
 2185 0933 02       		.uleb128 0x2
 2186 0934 78       		.byte	0x78
 2187 0935 00       		.sleb128 0
 2188 0936 2C       		.uleb128 0x2c
 2189 0937 01       		.uleb128 0x1
 2190 0938 51       		.byte	0x51
 2191 0939 02       		.uleb128 0x2
 2192 093a 08       		.byte	0x8
 2193 093b 29       		.byte	0x29
 2194 093c 2C       		.uleb128 0x2c
 2195 093d 01       		.uleb128 0x1
 2196 093e 50       		.byte	0x50
 2197 093f 02       		.uleb128 0x2
 2198 0940 74       		.byte	0x74
 2199 0941 00       		.sleb128 0
 2200 0942 00       		.byte	0
 2201 0943 00       		.byte	0
 2202 0944 2B       		.uleb128 0x2b
 2203 0945 10000000 		.4byte	.LVL5
 2204 0949 66100000 		.4byte	0x1066
 2205 094d 58090000 		.4byte	0x958
 2206 0951 2C       		.uleb128 0x2c
 2207 0952 01       		.uleb128 0x1
 2208 0953 50       		.byte	0x50
 2209 0954 02       		.uleb128 0x2
 2210 0955 74       		.byte	0x74
 2211 0956 00       		.sleb128 0
 2212 0957 00       		.byte	0
 2213 0958 2B       		.uleb128 0x2b
 2214 0959 1A000000 		.4byte	.LVL6
 2215 095d 78100000 		.4byte	0x1078
 2216 0961 76090000 		.4byte	0x976
 2217 0965 2C       		.uleb128 0x2c
 2218 0966 01       		.uleb128 0x1
 2219 0967 52       		.byte	0x52
 2220 0968 01       		.uleb128 0x1
 2221 0969 30       		.byte	0x30
 2222 096a 2C       		.uleb128 0x2c
 2223 096b 01       		.uleb128 0x1
ARM GAS  C:\Users\srich\AppData\Local\Temp\ccUnnuc1.s 			page 40


 2224 096c 51       		.byte	0x51
 2225 096d 01       		.uleb128 0x1
 2226 096e 30       		.byte	0x30
 2227 096f 2C       		.uleb128 0x2c
 2228 0970 01       		.uleb128 0x1
 2229 0971 50       		.byte	0x50
 2230 0972 02       		.uleb128 0x2
 2231 0973 74       		.byte	0x74
 2232 0974 00       		.sleb128 0
 2233 0975 00       		.byte	0
 2234 0976 2B       		.uleb128 0x2b
 2235 0977 28000000 		.4byte	.LVL7
 2236 097b 16100000 		.4byte	0x1016
 2237 097f 9C090000 		.4byte	0x99c
 2238 0983 2C       		.uleb128 0x2c
 2239 0984 01       		.uleb128 0x1
 2240 0985 53       		.byte	0x53
 2241 0986 02       		.uleb128 0x2
 2242 0987 91       		.byte	0x91
 2243 0988 64       		.sleb128 -28
 2244 0989 2C       		.uleb128 0x2c
 2245 098a 01       		.uleb128 0x1
 2246 098b 52       		.byte	0x52
 2247 098c 03       		.uleb128 0x3
 2248 098d 0A       		.byte	0xa
 2249 098e AA01     		.2byte	0x1aa
 2250 0990 2C       		.uleb128 0x2c
 2251 0991 01       		.uleb128 0x1
 2252 0992 51       		.byte	0x51
 2253 0993 01       		.uleb128 0x1
 2254 0994 38       		.byte	0x38
 2255 0995 2C       		.uleb128 0x2c
 2256 0996 01       		.uleb128 0x1
 2257 0997 50       		.byte	0x50
 2258 0998 02       		.uleb128 0x2
 2259 0999 74       		.byte	0x74
 2260 099a 00       		.sleb128 0
 2261 099b 00       		.byte	0
 2262 099c 2B       		.uleb128 0x2b
 2263 099d 40000000 		.4byte	.LVL8
 2264 09a1 94100000 		.4byte	0x1094
 2265 09a5 B0090000 		.4byte	0x9b0
 2266 09a9 2C       		.uleb128 0x2c
 2267 09aa 01       		.uleb128 0x1
 2268 09ab 50       		.byte	0x50
 2269 09ac 02       		.uleb128 0x2
 2270 09ad 74       		.byte	0x74
 2271 09ae 00       		.sleb128 0
 2272 09af 00       		.byte	0
 2273 09b0 2B       		.uleb128 0x2b
 2274 09b1 5A000000 		.4byte	.LVL10
 2275 09b5 78100000 		.4byte	0x1078
 2276 09b9 CE090000 		.4byte	0x9ce
 2277 09bd 2C       		.uleb128 0x2c
 2278 09be 01       		.uleb128 0x1
 2279 09bf 52       		.byte	0x52
 2280 09c0 01       		.uleb128 0x1
ARM GAS  C:\Users\srich\AppData\Local\Temp\ccUnnuc1.s 			page 41


 2281 09c1 30       		.byte	0x30
 2282 09c2 2C       		.uleb128 0x2c
 2283 09c3 01       		.uleb128 0x1
 2284 09c4 51       		.byte	0x51
 2285 09c5 01       		.uleb128 0x1
 2286 09c6 30       		.byte	0x30
 2287 09c7 2C       		.uleb128 0x2c
 2288 09c8 01       		.uleb128 0x1
 2289 09c9 50       		.byte	0x50
 2290 09ca 02       		.uleb128 0x2
 2291 09cb 74       		.byte	0x74
 2292 09cc 00       		.sleb128 0
 2293 09cd 00       		.byte	0
 2294 09ce 2B       		.uleb128 0x2b
 2295 09cf C6000000 		.4byte	.LVL19
 2296 09d3 A6100000 		.4byte	0x10a6
 2297 09d7 F2090000 		.4byte	0x9f2
 2298 09db 2C       		.uleb128 0x2c
 2299 09dc 01       		.uleb128 0x1
 2300 09dd 53       		.byte	0x53
 2301 09de 02       		.uleb128 0x2
 2302 09df 74       		.byte	0x74
 2303 09e0 08       		.sleb128 8
 2304 09e1 2C       		.uleb128 0x2c
 2305 09e2 01       		.uleb128 0x1
 2306 09e3 52       		.byte	0x52
 2307 09e4 01       		.uleb128 0x1
 2308 09e5 30       		.byte	0x30
 2309 09e6 2C       		.uleb128 0x2c
 2310 09e7 01       		.uleb128 0x1
 2311 09e8 51       		.byte	0x51
 2312 09e9 01       		.uleb128 0x1
 2313 09ea 32       		.byte	0x32
 2314 09eb 2C       		.uleb128 0x2c
 2315 09ec 01       		.uleb128 0x1
 2316 09ed 50       		.byte	0x50
 2317 09ee 02       		.uleb128 0x2
 2318 09ef 74       		.byte	0x74
 2319 09f0 00       		.sleb128 0
 2320 09f1 00       		.byte	0
 2321 09f2 2B       		.uleb128 0x2b
 2322 09f3 D8000000 		.4byte	.LVL20
 2323 09f7 16100000 		.4byte	0x1016
 2324 09fb 110A0000 		.4byte	0xa11
 2325 09ff 2C       		.uleb128 0x2c
 2326 0a00 01       		.uleb128 0x1
 2327 0a01 53       		.byte	0x53
 2328 0a02 02       		.uleb128 0x2
 2329 0a03 74       		.byte	0x74
 2330 0a04 38       		.sleb128 56
 2331 0a05 2C       		.uleb128 0x2c
 2332 0a06 01       		.uleb128 0x1
 2333 0a07 51       		.byte	0x51
 2334 0a08 01       		.uleb128 0x1
 2335 0a09 33       		.byte	0x33
 2336 0a0a 2C       		.uleb128 0x2c
 2337 0a0b 01       		.uleb128 0x1
ARM GAS  C:\Users\srich\AppData\Local\Temp\ccUnnuc1.s 			page 42


 2338 0a0c 50       		.byte	0x50
 2339 0a0d 02       		.uleb128 0x2
 2340 0a0e 74       		.byte	0x74
 2341 0a0f 00       		.sleb128 0
 2342 0a10 00       		.byte	0
 2343 0a11 2B       		.uleb128 0x2b
 2344 0a12 EC000000 		.4byte	.LVL22
 2345 0a16 A6100000 		.4byte	0x10a6
 2346 0a1a 300A0000 		.4byte	0xa30
 2347 0a1e 2C       		.uleb128 0x2c
 2348 0a1f 01       		.uleb128 0x1
 2349 0a20 53       		.byte	0x53
 2350 0a21 02       		.uleb128 0x2
 2351 0a22 76       		.byte	0x76
 2352 0a23 00       		.sleb128 0
 2353 0a24 2C       		.uleb128 0x2c
 2354 0a25 01       		.uleb128 0x1
 2355 0a26 51       		.byte	0x51
 2356 0a27 01       		.uleb128 0x1
 2357 0a28 39       		.byte	0x39
 2358 0a29 2C       		.uleb128 0x2c
 2359 0a2a 01       		.uleb128 0x1
 2360 0a2b 50       		.byte	0x50
 2361 0a2c 02       		.uleb128 0x2
 2362 0a2d 74       		.byte	0x74
 2363 0a2e 00       		.sleb128 0
 2364 0a2f 00       		.byte	0
 2365 0a30 2B       		.uleb128 0x2b
 2366 0a31 F6000000 		.4byte	.LVL23
 2367 0a35 CB100000 		.4byte	0x10cb
 2368 0a39 440A0000 		.4byte	0xa44
 2369 0a3d 2C       		.uleb128 0x2c
 2370 0a3e 01       		.uleb128 0x1
 2371 0a3f 50       		.byte	0x50
 2372 0a40 02       		.uleb128 0x2
 2373 0a41 74       		.byte	0x74
 2374 0a42 00       		.sleb128 0
 2375 0a43 00       		.byte	0
 2376 0a44 2B       		.uleb128 0x2b
 2377 0a45 02010000 		.4byte	.LVL24
 2378 0a49 16100000 		.4byte	0x1016
 2379 0a4d 630A0000 		.4byte	0xa63
 2380 0a51 2C       		.uleb128 0x2c
 2381 0a52 01       		.uleb128 0x1
 2382 0a53 53       		.byte	0x53
 2383 0a54 02       		.uleb128 0x2
 2384 0a55 91       		.byte	0x91
 2385 0a56 64       		.sleb128 -28
 2386 0a57 2C       		.uleb128 0x2c
 2387 0a58 01       		.uleb128 0x1
 2388 0a59 51       		.byte	0x51
 2389 0a5a 01       		.uleb128 0x1
 2390 0a5b 37       		.byte	0x37
 2391 0a5c 2C       		.uleb128 0x2c
 2392 0a5d 01       		.uleb128 0x1
 2393 0a5e 50       		.byte	0x50
 2394 0a5f 02       		.uleb128 0x2
ARM GAS  C:\Users\srich\AppData\Local\Temp\ccUnnuc1.s 			page 43


 2395 0a60 74       		.byte	0x74
 2396 0a61 00       		.sleb128 0
 2397 0a62 00       		.byte	0
 2398 0a63 2B       		.uleb128 0x2b
 2399 0a64 14010000 		.4byte	.LVL25
 2400 0a68 16100000 		.4byte	0x1016
 2401 0a6c 890A0000 		.4byte	0xa89
 2402 0a70 2C       		.uleb128 0x2c
 2403 0a71 01       		.uleb128 0x1
 2404 0a72 53       		.byte	0x53
 2405 0a73 02       		.uleb128 0x2
 2406 0a74 91       		.byte	0x91
 2407 0a75 64       		.sleb128 -28
 2408 0a76 2C       		.uleb128 0x2c
 2409 0a77 01       		.uleb128 0x1
 2410 0a78 52       		.byte	0x52
 2411 0a79 03       		.uleb128 0x3
 2412 0a7a 0A       		.byte	0xa
 2413 0a7b 0002     		.2byte	0x200
 2414 0a7d 2C       		.uleb128 0x2c
 2415 0a7e 01       		.uleb128 0x1
 2416 0a7f 51       		.byte	0x51
 2417 0a80 01       		.uleb128 0x1
 2418 0a81 40       		.byte	0x40
 2419 0a82 2C       		.uleb128 0x2c
 2420 0a83 01       		.uleb128 0x1
 2421 0a84 50       		.byte	0x50
 2422 0a85 02       		.uleb128 0x2
 2423 0a86 74       		.byte	0x74
 2424 0a87 00       		.sleb128 0
 2425 0a88 00       		.byte	0
 2426 0a89 2B       		.uleb128 0x2b
 2427 0a8a 36010000 		.4byte	.LVL26
 2428 0a8e DD100000 		.4byte	0x10dd
 2429 0a92 A20A0000 		.4byte	0xaa2
 2430 0a96 2C       		.uleb128 0x2c
 2431 0a97 01       		.uleb128 0x1
 2432 0a98 51       		.byte	0x51
 2433 0a99 01       		.uleb128 0x1
 2434 0a9a 31       		.byte	0x31
 2435 0a9b 2C       		.uleb128 0x2c
 2436 0a9c 01       		.uleb128 0x1
 2437 0a9d 50       		.byte	0x50
 2438 0a9e 02       		.uleb128 0x2
 2439 0a9f 74       		.byte	0x74
 2440 0aa0 00       		.sleb128 0
 2441 0aa1 00       		.byte	0
 2442 0aa2 2B       		.uleb128 0x2b
 2443 0aa3 42010000 		.4byte	.LVL27
 2444 0aa7 16100000 		.4byte	0x1016
 2445 0aab C20A0000 		.4byte	0xac2
 2446 0aaf 2C       		.uleb128 0x2c
 2447 0ab0 01       		.uleb128 0x1
 2448 0ab1 53       		.byte	0x53
 2449 0ab2 02       		.uleb128 0x2
 2450 0ab3 91       		.byte	0x91
 2451 0ab4 64       		.sleb128 -28
ARM GAS  C:\Users\srich\AppData\Local\Temp\ccUnnuc1.s 			page 44


 2452 0ab5 2C       		.uleb128 0x2c
 2453 0ab6 01       		.uleb128 0x1
 2454 0ab7 51       		.byte	0x51
 2455 0ab8 02       		.uleb128 0x2
 2456 0ab9 08       		.byte	0x8
 2457 0aba 37       		.byte	0x37
 2458 0abb 2C       		.uleb128 0x2c
 2459 0abc 01       		.uleb128 0x1
 2460 0abd 50       		.byte	0x50
 2461 0abe 02       		.uleb128 0x2
 2462 0abf 74       		.byte	0x74
 2463 0ac0 00       		.sleb128 0
 2464 0ac1 00       		.byte	0
 2465 0ac2 2B       		.uleb128 0x2b
 2466 0ac3 60010000 		.4byte	.LVL28
 2467 0ac7 16100000 		.4byte	0x1016
 2468 0acb E60A0000 		.4byte	0xae6
 2469 0acf 2C       		.uleb128 0x2c
 2470 0ad0 01       		.uleb128 0x1
 2471 0ad1 53       		.byte	0x53
 2472 0ad2 02       		.uleb128 0x2
 2473 0ad3 91       		.byte	0x91
 2474 0ad4 64       		.sleb128 -28
 2475 0ad5 2C       		.uleb128 0x2c
 2476 0ad6 01       		.uleb128 0x1
 2477 0ad7 52       		.byte	0x52
 2478 0ad8 01       		.uleb128 0x1
 2479 0ad9 32       		.byte	0x32
 2480 0ada 2C       		.uleb128 0x2c
 2481 0adb 01       		.uleb128 0x1
 2482 0adc 51       		.byte	0x51
 2483 0add 01       		.uleb128 0x1
 2484 0ade 36       		.byte	0x36
 2485 0adf 2C       		.uleb128 0x2c
 2486 0ae0 01       		.uleb128 0x1
 2487 0ae1 50       		.byte	0x50
 2488 0ae2 02       		.uleb128 0x2
 2489 0ae3 74       		.byte	0x74
 2490 0ae4 00       		.sleb128 0
 2491 0ae5 00       		.byte	0
 2492 0ae6 2B       		.uleb128 0x2b
 2493 0ae7 78010000 		.4byte	.LVL29
 2494 0aeb F4100000 		.4byte	0x10f4
 2495 0aef FA0A0000 		.4byte	0xafa
 2496 0af3 2C       		.uleb128 0x2c
 2497 0af4 01       		.uleb128 0x1
 2498 0af5 50       		.byte	0x50
 2499 0af6 02       		.uleb128 0x2
 2500 0af7 76       		.byte	0x76
 2501 0af8 00       		.sleb128 0
 2502 0af9 00       		.byte	0
 2503 0afa 2D       		.uleb128 0x2d
 2504 0afb 92010000 		.4byte	.LVL31
 2505 0aff 16100000 		.4byte	0x1016
 2506 0b03 2C       		.uleb128 0x2c
 2507 0b04 01       		.uleb128 0x1
 2508 0b05 53       		.byte	0x53
ARM GAS  C:\Users\srich\AppData\Local\Temp\ccUnnuc1.s 			page 45


 2509 0b06 02       		.uleb128 0x2
 2510 0b07 91       		.byte	0x91
 2511 0b08 64       		.sleb128 -28
 2512 0b09 2C       		.uleb128 0x2c
 2513 0b0a 01       		.uleb128 0x1
 2514 0b0b 51       		.byte	0x51
 2515 0b0c 02       		.uleb128 0x2
 2516 0b0d 08       		.byte	0x8
 2517 0b0e 37       		.byte	0x37
 2518 0b0f 2C       		.uleb128 0x2c
 2519 0b10 01       		.uleb128 0x1
 2520 0b11 50       		.byte	0x50
 2521 0b12 02       		.uleb128 0x2
 2522 0b13 74       		.byte	0x74
 2523 0b14 00       		.sleb128 0
 2524 0b15 00       		.byte	0
 2525 0b16 00       		.byte	0
 2526 0b17 2E       		.uleb128 0x2e
 2527 0b18 37070000 		.4byte	0x737
 2528 0b1c 00000000 		.4byte	.LFB125
 2529 0b20 28000000 		.4byte	.LFE125-.LFB125
 2530 0b24 01       		.uleb128 0x1
 2531 0b25 9C       		.byte	0x9c
 2532 0b26 970B0000 		.4byte	0xb97
 2533 0b2a 2F       		.uleb128 0x2f
 2534 0b2b 48070000 		.4byte	0x748
 2535 0b2f DB000000 		.4byte	.LLST4
 2536 0b33 2F       		.uleb128 0x2f
 2537 0b34 54070000 		.4byte	0x754
 2538 0b38 0F010000 		.4byte	.LLST5
 2539 0b3c 2F       		.uleb128 0x2f
 2540 0b3d 60070000 		.4byte	0x760
 2541 0b41 30010000 		.4byte	.LLST6
 2542 0b45 2F       		.uleb128 0x2f
 2543 0b46 6C070000 		.4byte	0x76c
 2544 0b4a 51010000 		.4byte	.LLST7
 2545 0b4e 30       		.uleb128 0x30
 2546 0b4f 76070000 		.4byte	0x776
 2547 0b53 31       		.uleb128 0x31
 2548 0b54 1A000000 		.4byte	.LBB8
 2549 0b58 0C000000 		.4byte	.LBE8-.LBB8
 2550 0b5c 32       		.uleb128 0x32
 2551 0b5d 6C070000 		.4byte	0x76c
 2552 0b61 32       		.uleb128 0x32
 2553 0b62 60070000 		.4byte	0x760
 2554 0b66 32       		.uleb128 0x32
 2555 0b67 54070000 		.4byte	0x754
 2556 0b6b 2F       		.uleb128 0x2f
 2557 0b6c 48070000 		.4byte	0x748
 2558 0b70 8B010000 		.4byte	.LLST8
 2559 0b74 31       		.uleb128 0x31
 2560 0b75 1A000000 		.4byte	.LBB9
 2561 0b79 0C000000 		.4byte	.LBE9-.LBB9
 2562 0b7d 33       		.uleb128 0x33
 2563 0b7e 76070000 		.4byte	0x776
 2564 0b82 01       		.uleb128 0x1
 2565 0b83 50       		.byte	0x50
ARM GAS  C:\Users\srich\AppData\Local\Temp\ccUnnuc1.s 			page 46


 2566 0b84 2D       		.uleb128 0x2d
 2567 0b85 22000000 		.4byte	.LVL36
 2568 0b89 0A110000 		.4byte	0x110a
 2569 0b8d 2C       		.uleb128 0x2c
 2570 0b8e 01       		.uleb128 0x1
 2571 0b8f 50       		.byte	0x50
 2572 0b90 02       		.uleb128 0x2
 2573 0b91 74       		.byte	0x74
 2574 0b92 00       		.sleb128 0
 2575 0b93 00       		.byte	0
 2576 0b94 00       		.byte	0
 2577 0b95 00       		.byte	0
 2578 0b96 00       		.byte	0
 2579 0b97 2E       		.uleb128 0x2e
 2580 0b98 89070000 		.4byte	0x789
 2581 0b9c 00000000 		.4byte	.LFB126
 2582 0ba0 28000000 		.4byte	.LFE126-.LFB126
 2583 0ba4 01       		.uleb128 0x1
 2584 0ba5 9C       		.byte	0x9c
 2585 0ba6 170C0000 		.4byte	0xc17
 2586 0baa 2F       		.uleb128 0x2f
 2587 0bab 9A070000 		.4byte	0x79a
 2588 0baf A9010000 		.4byte	.LLST9
 2589 0bb3 2F       		.uleb128 0x2f
 2590 0bb4 A6070000 		.4byte	0x7a6
 2591 0bb8 DD010000 		.4byte	.LLST10
 2592 0bbc 2F       		.uleb128 0x2f
 2593 0bbd B2070000 		.4byte	0x7b2
 2594 0bc1 FE010000 		.4byte	.LLST11
 2595 0bc5 2F       		.uleb128 0x2f
 2596 0bc6 BE070000 		.4byte	0x7be
 2597 0bca 1F020000 		.4byte	.LLST12
 2598 0bce 30       		.uleb128 0x30
 2599 0bcf C8070000 		.4byte	0x7c8
 2600 0bd3 31       		.uleb128 0x31
 2601 0bd4 1A000000 		.4byte	.LBB12
 2602 0bd8 0C000000 		.4byte	.LBE12-.LBB12
 2603 0bdc 32       		.uleb128 0x32
 2604 0bdd BE070000 		.4byte	0x7be
 2605 0be1 32       		.uleb128 0x32
 2606 0be2 B2070000 		.4byte	0x7b2
 2607 0be6 32       		.uleb128 0x32
 2608 0be7 A6070000 		.4byte	0x7a6
 2609 0beb 2F       		.uleb128 0x2f
 2610 0bec 9A070000 		.4byte	0x79a
 2611 0bf0 59020000 		.4byte	.LLST13
 2612 0bf4 31       		.uleb128 0x31
 2613 0bf5 1A000000 		.4byte	.LBB13
 2614 0bf9 0C000000 		.4byte	.LBE13-.LBB13
 2615 0bfd 33       		.uleb128 0x33
 2616 0bfe C8070000 		.4byte	0x7c8
 2617 0c02 01       		.uleb128 0x1
 2618 0c03 50       		.byte	0x50
 2619 0c04 2D       		.uleb128 0x2d
 2620 0c05 22000000 		.4byte	.LVL41
 2621 0c09 2F110000 		.4byte	0x112f
 2622 0c0d 2C       		.uleb128 0x2c
ARM GAS  C:\Users\srich\AppData\Local\Temp\ccUnnuc1.s 			page 47


 2623 0c0e 01       		.uleb128 0x1
 2624 0c0f 50       		.byte	0x50
 2625 0c10 02       		.uleb128 0x2
 2626 0c11 74       		.byte	0x74
 2627 0c12 00       		.sleb128 0
 2628 0c13 00       		.byte	0
 2629 0c14 00       		.byte	0
 2630 0c15 00       		.byte	0
 2631 0c16 00       		.byte	0
 2632 0c17 2E       		.uleb128 0x2e
 2633 0c18 D5070000 		.4byte	0x7d5
 2634 0c1c 00000000 		.4byte	.LFB128
 2635 0c20 1A000000 		.4byte	.LFE128-.LFB128
 2636 0c24 01       		.uleb128 0x1
 2637 0c25 9C       		.byte	0x9c
 2638 0c26 6D0C0000 		.4byte	0xc6d
 2639 0c2a 2F       		.uleb128 0x2f
 2640 0c2b E6070000 		.4byte	0x7e6
 2641 0c2f 77020000 		.4byte	.LLST14
 2642 0c33 30       		.uleb128 0x30
 2643 0c34 F2070000 		.4byte	0x7f2
 2644 0c38 31       		.uleb128 0x31
 2645 0c39 0E000000 		.4byte	.LBB16
 2646 0c3d 0C000000 		.4byte	.LBE16-.LBB16
 2647 0c41 2F       		.uleb128 0x2f
 2648 0c42 E6070000 		.4byte	0x7e6
 2649 0c46 AE020000 		.4byte	.LLST15
 2650 0c4a 31       		.uleb128 0x31
 2651 0c4b 0E000000 		.4byte	.LBB17
 2652 0c4f 0C000000 		.4byte	.LBE17-.LBB17
 2653 0c53 33       		.uleb128 0x33
 2654 0c54 F2070000 		.4byte	0x7f2
 2655 0c58 01       		.uleb128 0x1
 2656 0c59 50       		.byte	0x50
 2657 0c5a 2D       		.uleb128 0x2d
 2658 0c5b 16000000 		.4byte	.LVL45
 2659 0c5f 54110000 		.4byte	0x1154
 2660 0c63 2C       		.uleb128 0x2c
 2661 0c64 01       		.uleb128 0x1
 2662 0c65 50       		.byte	0x50
 2663 0c66 02       		.uleb128 0x2
 2664 0c67 74       		.byte	0x74
 2665 0c68 00       		.sleb128 0
 2666 0c69 00       		.byte	0
 2667 0c6a 00       		.byte	0
 2668 0c6b 00       		.byte	0
 2669 0c6c 00       		.byte	0
 2670 0c6d 24       		.uleb128 0x24
 2671 0c6e 01030000 		.4byte	.LASF120
 2672 0c72 01       		.byte	0x1
 2673 0c73 52       		.byte	0x52
 2674 0c74 AD000000 		.4byte	0xad
 2675 0c78 00000000 		.4byte	.LFB118
 2676 0c7c 40000000 		.4byte	.LFE118-.LFB118
 2677 0c80 01       		.uleb128 0x1
 2678 0c81 9C       		.byte	0x9c
 2679 0c82 D20C0000 		.4byte	0xcd2
ARM GAS  C:\Users\srich\AppData\Local\Temp\ccUnnuc1.s 			page 48


 2680 0c86 25       		.uleb128 0x25
 2681 0c87 DD050000 		.4byte	.LASF108
 2682 0c8b 01       		.byte	0x1
 2683 0c8c 52       		.byte	0x52
 2684 0c8d 83070000 		.4byte	0x783
 2685 0c91 CC020000 		.4byte	.LLST16
 2686 0c95 26       		.uleb128 0x26
 2687 0c96 E3010000 		.4byte	.LASF119
 2688 0c9a 01       		.byte	0x1
 2689 0c9b 53       		.byte	0x53
 2690 0c9c DC030000 		.4byte	0x3dc
 2691 0ca0 02       		.uleb128 0x2
 2692 0ca1 91       		.byte	0x91
 2693 0ca2 74       		.sleb128 -12
 2694 0ca3 2B       		.uleb128 0x2b
 2695 0ca4 12000000 		.4byte	.LVL48
 2696 0ca8 16100000 		.4byte	0x1016
 2697 0cac C20C0000 		.4byte	0xcc2
 2698 0cb0 2C       		.uleb128 0x2c
 2699 0cb1 01       		.uleb128 0x1
 2700 0cb2 53       		.byte	0x53
 2701 0cb3 02       		.uleb128 0x2
 2702 0cb4 91       		.byte	0x91
 2703 0cb5 74       		.sleb128 -12
 2704 0cb6 2C       		.uleb128 0x2c
 2705 0cb7 01       		.uleb128 0x1
 2706 0cb8 51       		.byte	0x51
 2707 0cb9 01       		.uleb128 0x1
 2708 0cba 3D       		.byte	0x3d
 2709 0cbb 2C       		.uleb128 0x2c
 2710 0cbc 01       		.uleb128 0x1
 2711 0cbd 50       		.byte	0x50
 2712 0cbe 02       		.uleb128 0x2
 2713 0cbf 74       		.byte	0x74
 2714 0cc0 00       		.sleb128 0
 2715 0cc1 00       		.byte	0
 2716 0cc2 2D       		.uleb128 0x2d
 2717 0cc3 32000000 		.4byte	.LVL49
 2718 0cc7 04100000 		.4byte	0x1004
 2719 0ccb 2C       		.uleb128 0x2c
 2720 0ccc 01       		.uleb128 0x1
 2721 0ccd 50       		.byte	0x50
 2722 0cce 01       		.uleb128 0x1
 2723 0ccf 31       		.byte	0x31
 2724 0cd0 00       		.byte	0
 2725 0cd1 00       		.byte	0
 2726 0cd2 2E       		.uleb128 0x2e
 2727 0cd3 FF070000 		.4byte	0x7ff
 2728 0cd7 00000000 		.4byte	.LFB124
 2729 0cdb 3A000000 		.4byte	.LFE124-.LFB124
 2730 0cdf 01       		.uleb128 0x1
 2731 0ce0 9C       		.byte	0x9c
 2732 0ce1 650D0000 		.4byte	0xd65
 2733 0ce5 2F       		.uleb128 0x2f
 2734 0ce6 10080000 		.4byte	0x810
 2735 0cea F8020000 		.4byte	.LLST17
 2736 0cee 28       		.uleb128 0x28
ARM GAS  C:\Users\srich\AppData\Local\Temp\ccUnnuc1.s 			page 49


 2737 0cef 02000000 		.4byte	.LBB25
 2738 0cf3 06000000 		.4byte	.LBE25-.LBB25
 2739 0cf7 030D0000 		.4byte	0xd03
 2740 0cfb 33       		.uleb128 0x33
 2741 0cfc 21080000 		.4byte	0x821
 2742 0d00 01       		.uleb128 0x1
 2743 0d01 53       		.byte	0x53
 2744 0d02 00       		.byte	0
 2745 0d03 28       		.uleb128 0x28
 2746 0d04 0E000000 		.4byte	.LBB26
 2747 0d08 1C000000 		.4byte	.LBE26-.LBB26
 2748 0d0c 530D0000 		.4byte	0xd53
 2749 0d10 2F       		.uleb128 0x2f
 2750 0d11 10080000 		.4byte	0x810
 2751 0d15 2F030000 		.4byte	.LLST18
 2752 0d19 28       		.uleb128 0x28
 2753 0d1a 14000000 		.4byte	.LBB28
 2754 0d1e 06000000 		.4byte	.LBE28-.LBB28
 2755 0d22 2E0D0000 		.4byte	0xd2e
 2756 0d26 33       		.uleb128 0x33
 2757 0d27 41080000 		.4byte	0x841
 2758 0d2b 01       		.uleb128 0x1
 2759 0d2c 53       		.byte	0x53
 2760 0d2d 00       		.byte	0
 2761 0d2e 2B       		.uleb128 0x2b
 2762 0d2f 1E000000 		.4byte	.LVL53
 2763 0d33 6D0C0000 		.4byte	0xc6d
 2764 0d37 420D0000 		.4byte	0xd42
 2765 0d3b 2C       		.uleb128 0x2c
 2766 0d3c 01       		.uleb128 0x1
 2767 0d3d 50       		.byte	0x50
 2768 0d3e 02       		.uleb128 0x2
 2769 0d3f 74       		.byte	0x74
 2770 0d40 00       		.sleb128 0
 2771 0d41 00       		.byte	0
 2772 0d42 2D       		.uleb128 0x2d
 2773 0d43 26000000 		.4byte	.LVL54
 2774 0d47 94100000 		.4byte	0x1094
 2775 0d4b 2C       		.uleb128 0x2c
 2776 0d4c 01       		.uleb128 0x1
 2777 0d4d 50       		.byte	0x50
 2778 0d4e 02       		.uleb128 0x2
 2779 0d4f 74       		.byte	0x74
 2780 0d50 00       		.sleb128 0
 2781 0d51 00       		.byte	0
 2782 0d52 00       		.byte	0
 2783 0d53 31       		.uleb128 0x31
 2784 0d54 2E000000 		.4byte	.LBB29
 2785 0d58 06000000 		.4byte	.LBE29-.LBB29
 2786 0d5c 33       		.uleb128 0x33
 2787 0d5d 33080000 		.4byte	0x833
 2788 0d61 01       		.uleb128 0x1
 2789 0d62 53       		.byte	0x53
 2790 0d63 00       		.byte	0
 2791 0d64 00       		.byte	0
 2792 0d65 34       		.uleb128 0x34
 2793 0d66 19000000 		.4byte	.LASF121
ARM GAS  C:\Users\srich\AppData\Local\Temp\ccUnnuc1.s 			page 50


 2794 0d6a 01       		.byte	0x1
 2795 0d6b 79       		.byte	0x79
 2796 0d6c 00000000 		.4byte	.LFB119
 2797 0d70 04000000 		.4byte	.LFE119-.LFB119
 2798 0d74 01       		.uleb128 0x1
 2799 0d75 9C       		.byte	0x9c
 2800 0d76 840D0000 		.4byte	0xd84
 2801 0d7a 35       		.uleb128 0x35
 2802 0d7b 04000000 		.4byte	.LVL57
 2803 0d7f 6A110000 		.4byte	0x116a
 2804 0d83 00       		.byte	0
 2805 0d84 34       		.uleb128 0x34
 2806 0d85 73040000 		.4byte	.LASF122
 2807 0d89 01       		.byte	0x1
 2808 0d8a 85       		.byte	0x85
 2809 0d8b 00000000 		.4byte	.LFB120
 2810 0d8f 18000000 		.4byte	.LFE120-.LFB120
 2811 0d93 01       		.uleb128 0x1
 2812 0d94 9C       		.byte	0x9c
 2813 0d95 A70D0000 		.4byte	0xda7
 2814 0d99 36       		.uleb128 0x36
 2815 0d9a DD050000 		.4byte	.LASF108
 2816 0d9e 01       		.byte	0x1
 2817 0d9f 85       		.byte	0x85
 2818 0da0 83070000 		.4byte	0x783
 2819 0da4 01       		.uleb128 0x1
 2820 0da5 50       		.byte	0x50
 2821 0da6 00       		.byte	0
 2822 0da7 34       		.uleb128 0x34
 2823 0da8 8E040000 		.4byte	.LASF123
 2824 0dac 01       		.byte	0x1
 2825 0dad 98       		.byte	0x98
 2826 0dae 00000000 		.4byte	.LFB121
 2827 0db2 1C000000 		.4byte	.LFE121-.LFB121
 2828 0db6 01       		.uleb128 0x1
 2829 0db7 9C       		.byte	0x9c
 2830 0db8 1D0E0000 		.4byte	0xe1d
 2831 0dbc 25       		.uleb128 0x25
 2832 0dbd DD050000 		.4byte	.LASF108
 2833 0dc1 01       		.byte	0x1
 2834 0dc2 98       		.byte	0x98
 2835 0dc3 83070000 		.4byte	0x783
 2836 0dc7 4D030000 		.4byte	.LLST19
 2837 0dcb 25       		.uleb128 0x25
 2838 0dcc D6050000 		.4byte	.LASF92
 2839 0dd0 01       		.byte	0x1
 2840 0dd1 98       		.byte	0x98
 2841 0dd2 2C070000 		.4byte	0x72c
 2842 0dd6 6B030000 		.4byte	.LLST20
 2843 0dda 37       		.uleb128 0x37
 2844 0ddb 00000000 		.4byte	.Ldebug_ranges0+0
 2845 0ddf F10D0000 		.4byte	0xdf1
 2846 0de3 38       		.uleb128 0x38
 2847 0de4 746D7000 		.ascii	"tmp\000"
 2848 0de8 01       		.byte	0x1
 2849 0de9 9C       		.byte	0x9c
 2850 0dea A2000000 		.4byte	0xa2
ARM GAS  C:\Users\srich\AppData\Local\Temp\ccUnnuc1.s 			page 51


 2851 0dee 01       		.uleb128 0x1
 2852 0def 53       		.byte	0x53
 2853 0df0 00       		.byte	0
 2854 0df1 28       		.uleb128 0x28
 2855 0df2 14000000 		.4byte	.LBB32
 2856 0df6 08000000 		.4byte	.LBE32-.LBB32
 2857 0dfa 0C0E0000 		.4byte	0xe0c
 2858 0dfe 38       		.uleb128 0x38
 2859 0dff 746D7000 		.ascii	"tmp\000"
 2860 0e03 01       		.byte	0x1
 2861 0e04 A2       		.byte	0xa2
 2862 0e05 A2000000 		.4byte	0xa2
 2863 0e09 01       		.uleb128 0x1
 2864 0e0a 53       		.byte	0x53
 2865 0e0b 00       		.byte	0
 2866 0e0c 2D       		.uleb128 0x2d
 2867 0e0d 10000000 		.4byte	.LVL60
 2868 0e11 72110000 		.4byte	0x1172
 2869 0e15 2C       		.uleb128 0x2c
 2870 0e16 01       		.uleb128 0x1
 2871 0e17 50       		.byte	0x50
 2872 0e18 02       		.uleb128 0x2
 2873 0e19 74       		.byte	0x74
 2874 0e1a 00       		.sleb128 0
 2875 0e1b 00       		.byte	0
 2876 0e1c 00       		.byte	0
 2877 0e1d 34       		.uleb128 0x34
 2878 0e1e B1040000 		.4byte	.LASF124
 2879 0e22 01       		.byte	0x1
 2880 0e23 AC       		.byte	0xac
 2881 0e24 00000000 		.4byte	.LFB122
 2882 0e28 1A000000 		.4byte	.LFE122-.LFB122
 2883 0e2c 01       		.uleb128 0x1
 2884 0e2d 9C       		.byte	0x9c
 2885 0e2e 840E0000 		.4byte	0xe84
 2886 0e32 25       		.uleb128 0x25
 2887 0e33 DD050000 		.4byte	.LASF108
 2888 0e37 01       		.byte	0x1
 2889 0e38 AC       		.byte	0xac
 2890 0e39 83070000 		.4byte	0x783
 2891 0e3d 8C030000 		.4byte	.LLST21
 2892 0e41 37       		.uleb128 0x37
 2893 0e42 18000000 		.4byte	.Ldebug_ranges0+0x18
 2894 0e46 580E0000 		.4byte	0xe58
 2895 0e4a 38       		.uleb128 0x38
 2896 0e4b 746D7000 		.ascii	"tmp\000"
 2897 0e4f 01       		.byte	0x1
 2898 0e50 B0       		.byte	0xb0
 2899 0e51 A2000000 		.4byte	0xa2
 2900 0e55 01       		.uleb128 0x1
 2901 0e56 53       		.byte	0x53
 2902 0e57 00       		.byte	0
 2903 0e58 28       		.uleb128 0x28
 2904 0e59 12000000 		.4byte	.LBB35
 2905 0e5d 08000000 		.4byte	.LBE35-.LBB35
 2906 0e61 730E0000 		.4byte	0xe73
 2907 0e65 38       		.uleb128 0x38
ARM GAS  C:\Users\srich\AppData\Local\Temp\ccUnnuc1.s 			page 52


 2908 0e66 746D7000 		.ascii	"tmp\000"
 2909 0e6a 01       		.byte	0x1
 2910 0e6b B5       		.byte	0xb5
 2911 0e6c A2000000 		.4byte	0xa2
 2912 0e70 01       		.uleb128 0x1
 2913 0e71 53       		.byte	0x53
 2914 0e72 00       		.byte	0
 2915 0e73 2D       		.uleb128 0x2d
 2916 0e74 0E000000 		.4byte	.LVL62
 2917 0e78 84110000 		.4byte	0x1184
 2918 0e7c 2C       		.uleb128 0x2c
 2919 0e7d 01       		.uleb128 0x1
 2920 0e7e 50       		.byte	0x50
 2921 0e7f 02       		.uleb128 0x2
 2922 0e80 74       		.byte	0x74
 2923 0e81 00       		.sleb128 0
 2924 0e82 00       		.byte	0
 2925 0e83 00       		.byte	0
 2926 0e84 21       		.uleb128 0x21
 2927 0e85 D9060000 		.4byte	.LASF125
 2928 0e89 01       		.byte	0x1
 2929 0e8a C901     		.2byte	0x1c9
 2930 0e8c DF050000 		.4byte	0x5df
 2931 0e90 00000000 		.4byte	.LFB127
 2932 0e94 14000000 		.4byte	.LFE127-.LFB127
 2933 0e98 01       		.uleb128 0x1
 2934 0e99 9C       		.byte	0x9c
 2935 0e9a F10E0000 		.4byte	0xef1
 2936 0e9e 22       		.uleb128 0x22
 2937 0e9f DD050000 		.4byte	.LASF108
 2938 0ea3 01       		.byte	0x1
 2939 0ea4 C901     		.2byte	0x1c9
 2940 0ea6 83070000 		.4byte	0x783
 2941 0eaa AA030000 		.4byte	.LLST22
 2942 0eae 39       		.uleb128 0x39
 2943 0eaf B6060000 		.4byte	.LASF126
 2944 0eb3 01       		.byte	0x1
 2945 0eb4 CA01     		.2byte	0x1ca
 2946 0eb6 DF050000 		.4byte	0x5df
 2947 0eba 01       		.uleb128 0x1
 2948 0ebb 50       		.byte	0x50
 2949 0ebc 28       		.uleb128 0x28
 2950 0ebd 02000000 		.4byte	.LBB36
 2951 0ec1 06000000 		.4byte	.LBE36-.LBB36
 2952 0ec5 D80E0000 		.4byte	0xed8
 2953 0ec9 3A       		.uleb128 0x3a
 2954 0eca 746D7000 		.ascii	"tmp\000"
 2955 0ece 01       		.byte	0x1
 2956 0ecf D001     		.2byte	0x1d0
 2957 0ed1 A2000000 		.4byte	0xa2
 2958 0ed5 01       		.uleb128 0x1
 2959 0ed6 53       		.byte	0x53
 2960 0ed7 00       		.byte	0
 2961 0ed8 31       		.uleb128 0x31
 2962 0ed9 0E000000 		.4byte	.LBB37
 2963 0edd 04000000 		.4byte	.LBE37-.LBB37
 2964 0ee1 3A       		.uleb128 0x3a
ARM GAS  C:\Users\srich\AppData\Local\Temp\ccUnnuc1.s 			page 53


 2965 0ee2 746D7000 		.ascii	"tmp\000"
 2966 0ee6 01       		.byte	0x1
 2967 0ee7 D301     		.2byte	0x1d3
 2968 0ee9 A2000000 		.4byte	0xa2
 2969 0eed 01       		.uleb128 0x1
 2970 0eee 53       		.byte	0x53
 2971 0eef 00       		.byte	0
 2972 0ef0 00       		.byte	0
 2973 0ef1 21       		.uleb128 0x21
 2974 0ef2 11040000 		.4byte	.LASF127
 2975 0ef6 01       		.byte	0x1
 2976 0ef7 1B02     		.2byte	0x21b
 2977 0ef9 AD000000 		.4byte	0xad
 2978 0efd 00000000 		.4byte	.LFB130
 2979 0f01 88000000 		.4byte	.LFE130-.LFB130
 2980 0f05 01       		.uleb128 0x1
 2981 0f06 9C       		.byte	0x9c
 2982 0f07 E70F0000 		.4byte	0xfe7
 2983 0f0b 22       		.uleb128 0x22
 2984 0f0c DD050000 		.4byte	.LASF108
 2985 0f10 01       		.byte	0x1
 2986 0f11 1B02     		.2byte	0x21b
 2987 0f13 83070000 		.4byte	0x783
 2988 0f17 C8030000 		.4byte	.LLST23
 2989 0f1b 22       		.uleb128 0x22
 2990 0f1c 20060000 		.4byte	.LASF109
 2991 0f20 01       		.byte	0x1
 2992 0f21 1B02     		.2byte	0x21b
 2993 0f23 A2000000 		.4byte	0xa2
 2994 0f27 E6030000 		.4byte	.LLST24
 2995 0f2b 22       		.uleb128 0x22
 2996 0f2c BC060000 		.4byte	.LASF128
 2997 0f30 01       		.byte	0x1
 2998 0f31 1B02     		.2byte	0x21b
 2999 0f33 A2000000 		.4byte	0xa2
 3000 0f37 0F040000 		.4byte	.LLST25
 3001 0f3b 39       		.uleb128 0x39
 3002 0f3c E3010000 		.4byte	.LASF119
 3003 0f40 01       		.byte	0x1
 3004 0f41 1C02     		.2byte	0x21c
 3005 0f43 DC030000 		.4byte	0x3dc
 3006 0f47 02       		.uleb128 0x2
 3007 0f48 91       		.byte	0x91
 3008 0f49 6C       		.sleb128 -20
 3009 0f4a 27       		.uleb128 0x27
 3010 0f4b 42040000 		.4byte	.LASF129
 3011 0f4f 01       		.byte	0x1
 3012 0f50 4402     		.2byte	0x244
 3013 0f52 36000000 		.4byte	.LDL2
 3014 0f56 2B       		.uleb128 0x2b
 3015 0f57 20000000 		.4byte	.LVL69
 3016 0f5b 6D0C0000 		.4byte	0xc6d
 3017 0f5f 6A0F0000 		.4byte	0xf6a
 3018 0f63 2C       		.uleb128 0x2c
 3019 0f64 01       		.uleb128 0x1
 3020 0f65 50       		.byte	0x50
 3021 0f66 02       		.uleb128 0x2
ARM GAS  C:\Users\srich\AppData\Local\Temp\ccUnnuc1.s 			page 54


 3022 0f67 74       		.byte	0x74
 3023 0f68 00       		.sleb128 0
 3024 0f69 00       		.byte	0
 3025 0f6a 2B       		.uleb128 0x2b
 3026 0f6b 2C000000 		.4byte	.LVL70
 3027 0f6f 16100000 		.4byte	0x1016
 3028 0f73 900F0000 		.4byte	0xf90
 3029 0f77 2C       		.uleb128 0x2c
 3030 0f78 01       		.uleb128 0x1
 3031 0f79 53       		.byte	0x53
 3032 0f7a 02       		.uleb128 0x2
 3033 0f7b 91       		.byte	0x91
 3034 0f7c 6C       		.sleb128 -20
 3035 0f7d 2C       		.uleb128 0x2c
 3036 0f7e 01       		.uleb128 0x1
 3037 0f7f 52       		.byte	0x52
 3038 0f80 02       		.uleb128 0x2
 3039 0f81 75       		.byte	0x75
 3040 0f82 00       		.sleb128 0
 3041 0f83 2C       		.uleb128 0x2c
 3042 0f84 01       		.uleb128 0x1
 3043 0f85 51       		.byte	0x51
 3044 0f86 02       		.uleb128 0x2
 3045 0f87 08       		.byte	0x8
 3046 0f88 20       		.byte	0x20
 3047 0f89 2C       		.uleb128 0x2c
 3048 0f8a 01       		.uleb128 0x1
 3049 0f8b 50       		.byte	0x50
 3050 0f8c 02       		.uleb128 0x2
 3051 0f8d 74       		.byte	0x74
 3052 0f8e 00       		.sleb128 0
 3053 0f8f 00       		.byte	0
 3054 0f90 2B       		.uleb128 0x2b
 3055 0f91 4E000000 		.4byte	.LVL73
 3056 0f95 16100000 		.4byte	0x1016
 3057 0f99 B60F0000 		.4byte	0xfb6
 3058 0f9d 2C       		.uleb128 0x2c
 3059 0f9e 01       		.uleb128 0x1
 3060 0f9f 53       		.byte	0x53
 3061 0fa0 02       		.uleb128 0x2
 3062 0fa1 91       		.byte	0x91
 3063 0fa2 6C       		.sleb128 -20
 3064 0fa3 2C       		.uleb128 0x2c
 3065 0fa4 01       		.uleb128 0x1
 3066 0fa5 52       		.byte	0x52
 3067 0fa6 02       		.uleb128 0x2
 3068 0fa7 76       		.byte	0x76
 3069 0fa8 00       		.sleb128 0
 3070 0fa9 2C       		.uleb128 0x2c
 3071 0faa 01       		.uleb128 0x1
 3072 0fab 51       		.byte	0x51
 3073 0fac 02       		.uleb128 0x2
 3074 0fad 08       		.byte	0x8
 3075 0fae 21       		.byte	0x21
 3076 0faf 2C       		.uleb128 0x2c
 3077 0fb0 01       		.uleb128 0x1
 3078 0fb1 50       		.byte	0x50
ARM GAS  C:\Users\srich\AppData\Local\Temp\ccUnnuc1.s 			page 55


 3079 0fb2 02       		.uleb128 0x2
 3080 0fb3 74       		.byte	0x74
 3081 0fb4 00       		.sleb128 0
 3082 0fb5 00       		.byte	0
 3083 0fb6 2B       		.uleb128 0x2b
 3084 0fb7 66000000 		.4byte	.LVL74
 3085 0fbb 16100000 		.4byte	0x1016
 3086 0fbf D60F0000 		.4byte	0xfd6
 3087 0fc3 2C       		.uleb128 0x2c
 3088 0fc4 01       		.uleb128 0x1
 3089 0fc5 53       		.byte	0x53
 3090 0fc6 02       		.uleb128 0x2
 3091 0fc7 91       		.byte	0x91
 3092 0fc8 6C       		.sleb128 -20
 3093 0fc9 2C       		.uleb128 0x2c
 3094 0fca 01       		.uleb128 0x1
 3095 0fcb 51       		.byte	0x51
 3096 0fcc 02       		.uleb128 0x2
 3097 0fcd 08       		.byte	0x8
 3098 0fce 26       		.byte	0x26
 3099 0fcf 2C       		.uleb128 0x2c
 3100 0fd0 01       		.uleb128 0x1
 3101 0fd1 50       		.byte	0x50
 3102 0fd2 02       		.uleb128 0x2
 3103 0fd3 74       		.byte	0x74
 3104 0fd4 00       		.sleb128 0
 3105 0fd5 00       		.byte	0
 3106 0fd6 2D       		.uleb128 0x2d
 3107 0fd7 7C000000 		.4byte	.LVL76
 3108 0fdb 6D0C0000 		.4byte	0xc6d
 3109 0fdf 2C       		.uleb128 0x2c
 3110 0fe0 01       		.uleb128 0x1
 3111 0fe1 50       		.byte	0x50
 3112 0fe2 02       		.uleb128 0x2
 3113 0fe3 74       		.byte	0x74
 3114 0fe4 00       		.sleb128 0
 3115 0fe5 00       		.byte	0
 3116 0fe6 00       		.byte	0
 3117 0fe7 26       		.uleb128 0x26
 3118 0fe8 F5010000 		.4byte	.LASF130
 3119 0fec 01       		.byte	0x1
 3120 0fed 38       		.byte	0x38
 3121 0fee 27070000 		.4byte	0x727
 3122 0ff2 05       		.uleb128 0x5
 3123 0ff3 03       		.byte	0x3
 3124 0ff4 00000000 		.4byte	sdc_vmt
 3125 0ff8 3B       		.uleb128 0x3b
 3126 0ff9 8F000000 		.4byte	.LASF148
 3127 0ffd 0E       		.byte	0xe
 3128 0ffe 9806     		.2byte	0x698
 3129 1000 EC030000 		.4byte	0x3ec
 3130 1004 3C       		.uleb128 0x3c
 3131 1005 80060000 		.4byte	.LASF133
 3132 1009 06       		.byte	0x6
 3133 100a 7501     		.2byte	0x175
 3134 100c 16100000 		.4byte	0x1016
 3135 1010 19       		.uleb128 0x19
ARM GAS  C:\Users\srich\AppData\Local\Temp\ccUnnuc1.s 			page 56


 3136 1011 0C010000 		.4byte	0x10c
 3137 1015 00       		.byte	0
 3138 1016 3D       		.uleb128 0x3d
 3139 1017 2B020000 		.4byte	.LASF131
 3140 101b 0C       		.byte	0xc
 3141 101c 2A01     		.2byte	0x12a
 3142 101e AD000000 		.4byte	0xad
 3143 1022 3B100000 		.4byte	0x103b
 3144 1026 19       		.uleb128 0x19
 3145 1027 83070000 		.4byte	0x783
 3146 102b 19       		.uleb128 0x19
 3147 102c 8C000000 		.4byte	0x8c
 3148 1030 19       		.uleb128 0x19
 3149 1031 A2000000 		.4byte	0xa2
 3150 1035 19       		.uleb128 0x19
 3151 1036 3B100000 		.4byte	0x103b
 3152 103a 00       		.byte	0
 3153 103b 09       		.uleb128 0x9
 3154 103c 04       		.byte	0x4
 3155 103d A2000000 		.4byte	0xa2
 3156 1041 3D       		.uleb128 0x3d
 3157 1042 EE060000 		.4byte	.LASF132
 3158 1046 0C       		.byte	0xc
 3159 1047 2801     		.2byte	0x128
 3160 1049 AD000000 		.4byte	0xad
 3161 104d 66100000 		.4byte	0x1066
 3162 1051 19       		.uleb128 0x19
 3163 1052 83070000 		.4byte	0x783
 3164 1056 19       		.uleb128 0x19
 3165 1057 8C000000 		.4byte	0x8c
 3166 105b 19       		.uleb128 0x19
 3167 105c A2000000 		.4byte	0xa2
 3168 1060 19       		.uleb128 0x19
 3169 1061 3B100000 		.4byte	0x103b
 3170 1065 00       		.byte	0
 3171 1066 3C       		.uleb128 0x3c
 3172 1067 73050000 		.4byte	.LASF134
 3173 106b 0C       		.byte	0xc
 3174 106c 2301     		.2byte	0x123
 3175 106e 78100000 		.4byte	0x1078
 3176 1072 19       		.uleb128 0x19
 3177 1073 83070000 		.4byte	0x783
 3178 1077 00       		.byte	0
 3179 1078 3C       		.uleb128 0x3c
 3180 1079 EB020000 		.4byte	.LASF135
 3181 107d 0C       		.byte	0xc
 3182 107e 2701     		.2byte	0x127
 3183 1080 94100000 		.4byte	0x1094
 3184 1084 19       		.uleb128 0x19
 3185 1085 83070000 		.4byte	0x783
 3186 1089 19       		.uleb128 0x19
 3187 108a 8C000000 		.4byte	0x8c
 3188 108e 19       		.uleb128 0x19
 3189 108f A2000000 		.4byte	0xa2
 3190 1093 00       		.byte	0
 3191 1094 3C       		.uleb128 0x3c
 3192 1095 62060000 		.4byte	.LASF136
ARM GAS  C:\Users\srich\AppData\Local\Temp\ccUnnuc1.s 			page 57


 3193 1099 0C       		.byte	0xc
 3194 109a 2501     		.2byte	0x125
 3195 109c A6100000 		.4byte	0x10a6
 3196 10a0 19       		.uleb128 0x19
 3197 10a1 83070000 		.4byte	0x783
 3198 10a5 00       		.byte	0
 3199 10a6 3D       		.uleb128 0x3d
 3200 10a7 C9010000 		.4byte	.LASF137
 3201 10ab 0C       		.byte	0xc
 3202 10ac 2C01     		.2byte	0x12c
 3203 10ae AD000000 		.4byte	0xad
 3204 10b2 CB100000 		.4byte	0x10cb
 3205 10b6 19       		.uleb128 0x19
 3206 10b7 83070000 		.4byte	0x783
 3207 10bb 19       		.uleb128 0x19
 3208 10bc 8C000000 		.4byte	0x8c
 3209 10c0 19       		.uleb128 0x19
 3210 10c1 A2000000 		.4byte	0xa2
 3211 10c5 19       		.uleb128 0x19
 3212 10c6 3B100000 		.4byte	0x103b
 3213 10ca 00       		.byte	0
 3214 10cb 3C       		.uleb128 0x3c
 3215 10cc 3A050000 		.4byte	.LASF138
 3216 10d0 0C       		.byte	0xc
 3217 10d1 2401     		.2byte	0x124
 3218 10d3 DD100000 		.4byte	0x10dd
 3219 10d7 19       		.uleb128 0x19
 3220 10d8 83070000 		.4byte	0x783
 3221 10dc 00       		.byte	0
 3222 10dd 3C       		.uleb128 0x3c
 3223 10de 93050000 		.4byte	.LASF139
 3224 10e2 0C       		.byte	0xc
 3225 10e3 2601     		.2byte	0x126
 3226 10e5 F4100000 		.4byte	0x10f4
 3227 10e9 19       		.uleb128 0x19
 3228 10ea 83070000 		.4byte	0x783
 3229 10ee 19       		.uleb128 0x19
 3230 10ef C9050000 		.4byte	0x5c9
 3231 10f3 00       		.byte	0
 3232 10f4 3D       		.uleb128 0x3d
 3233 10f5 1A020000 		.4byte	.LASF140
 3234 10f9 0D       		.byte	0xd
 3235 10fa 1501     		.2byte	0x115
 3236 10fc A2000000 		.4byte	0xa2
 3237 1100 0A110000 		.4byte	0x110a
 3238 1104 19       		.uleb128 0x19
 3239 1105 3B100000 		.4byte	0x103b
 3240 1109 00       		.byte	0
 3241 110a 3D       		.uleb128 0x3d
 3242 110b 81020000 		.4byte	.LASF141
 3243 110f 0C       		.byte	0xc
 3244 1110 2E01     		.2byte	0x12e
 3245 1112 AD000000 		.4byte	0xad
 3246 1116 2F110000 		.4byte	0x112f
 3247 111a 19       		.uleb128 0x19
 3248 111b 83070000 		.4byte	0x783
 3249 111f 19       		.uleb128 0x19
ARM GAS  C:\Users\srich\AppData\Local\Temp\ccUnnuc1.s 			page 58


 3250 1120 A2000000 		.4byte	0xa2
 3251 1124 19       		.uleb128 0x19
 3252 1125 BB030000 		.4byte	0x3bb
 3253 1129 19       		.uleb128 0x19
 3254 112a A2000000 		.4byte	0xa2
 3255 112e 00       		.byte	0
 3256 112f 3D       		.uleb128 0x3d
 3257 1130 E4040000 		.4byte	.LASF142
 3258 1134 0C       		.byte	0xc
 3259 1135 3001     		.2byte	0x130
 3260 1137 AD000000 		.4byte	0xad
 3261 113b 54110000 		.4byte	0x1154
 3262 113f 19       		.uleb128 0x19
 3263 1140 83070000 		.4byte	0x783
 3264 1144 19       		.uleb128 0x19
 3265 1145 A2000000 		.4byte	0xa2
 3266 1149 19       		.uleb128 0x19
 3267 114a C1030000 		.4byte	0x3c1
 3268 114e 19       		.uleb128 0x19
 3269 114f A2000000 		.4byte	0xa2
 3270 1153 00       		.byte	0
 3271 1154 3D       		.uleb128 0x3d
 3272 1155 6E020000 		.4byte	.LASF143
 3273 1159 0C       		.byte	0xc
 3274 115a 3201     		.2byte	0x132
 3275 115c AD000000 		.4byte	0xad
 3276 1160 6A110000 		.4byte	0x116a
 3277 1164 19       		.uleb128 0x19
 3278 1165 83070000 		.4byte	0x783
 3279 1169 00       		.byte	0
 3280 116a 3E       		.uleb128 0x3e
 3281 116b 73060000 		.4byte	.LASF149
 3282 116f 0C       		.byte	0xc
 3283 1170 2001     		.2byte	0x120
 3284 1172 3C       		.uleb128 0x3c
 3285 1173 1E030000 		.4byte	.LASF144
 3286 1177 0C       		.byte	0xc
 3287 1178 2101     		.2byte	0x121
 3288 117a 84110000 		.4byte	0x1184
 3289 117e 19       		.uleb128 0x19
 3290 117f 83070000 		.4byte	0x783
 3291 1183 00       		.byte	0
 3292 1184 3F       		.uleb128 0x3f
 3293 1185 C3020000 		.4byte	.LASF150
 3294 1189 0C       		.byte	0xc
 3295 118a 2201     		.2byte	0x122
 3296 118c 19       		.uleb128 0x19
 3297 118d 83070000 		.4byte	0x783
 3298 1191 00       		.byte	0
 3299 1192 00       		.byte	0
 3300              		.section	.debug_abbrev,"",%progbits
 3301              	.Ldebug_abbrev0:
 3302 0000 01       		.uleb128 0x1
 3303 0001 11       		.uleb128 0x11
 3304 0002 01       		.byte	0x1
 3305 0003 25       		.uleb128 0x25
 3306 0004 0E       		.uleb128 0xe
ARM GAS  C:\Users\srich\AppData\Local\Temp\ccUnnuc1.s 			page 59


 3307 0005 13       		.uleb128 0x13
 3308 0006 0B       		.uleb128 0xb
 3309 0007 03       		.uleb128 0x3
 3310 0008 0E       		.uleb128 0xe
 3311 0009 1B       		.uleb128 0x1b
 3312 000a 0E       		.uleb128 0xe
 3313 000b 55       		.uleb128 0x55
 3314 000c 17       		.uleb128 0x17
 3315 000d 11       		.uleb128 0x11
 3316 000e 01       		.uleb128 0x1
 3317 000f 10       		.uleb128 0x10
 3318 0010 17       		.uleb128 0x17
 3319 0011 00       		.byte	0
 3320 0012 00       		.byte	0
 3321 0013 02       		.uleb128 0x2
 3322 0014 24       		.uleb128 0x24
 3323 0015 00       		.byte	0
 3324 0016 0B       		.uleb128 0xb
 3325 0017 0B       		.uleb128 0xb
 3326 0018 3E       		.uleb128 0x3e
 3327 0019 0B       		.uleb128 0xb
 3328 001a 03       		.uleb128 0x3
 3329 001b 08       		.uleb128 0x8
 3330 001c 00       		.byte	0
 3331 001d 00       		.byte	0
 3332 001e 03       		.uleb128 0x3
 3333 001f 24       		.uleb128 0x24
 3334 0020 00       		.byte	0
 3335 0021 0B       		.uleb128 0xb
 3336 0022 0B       		.uleb128 0xb
 3337 0023 3E       		.uleb128 0x3e
 3338 0024 0B       		.uleb128 0xb
 3339 0025 03       		.uleb128 0x3
 3340 0026 0E       		.uleb128 0xe
 3341 0027 00       		.byte	0
 3342 0028 00       		.byte	0
 3343 0029 04       		.uleb128 0x4
 3344 002a 16       		.uleb128 0x16
 3345 002b 00       		.byte	0
 3346 002c 03       		.uleb128 0x3
 3347 002d 0E       		.uleb128 0xe
 3348 002e 3A       		.uleb128 0x3a
 3349 002f 0B       		.uleb128 0xb
 3350 0030 3B       		.uleb128 0x3b
 3351 0031 0B       		.uleb128 0xb
 3352 0032 49       		.uleb128 0x49
 3353 0033 13       		.uleb128 0x13
 3354 0034 00       		.byte	0
 3355 0035 00       		.byte	0
 3356 0036 05       		.uleb128 0x5
 3357 0037 13       		.uleb128 0x13
 3358 0038 01       		.byte	0x1
 3359 0039 03       		.uleb128 0x3
 3360 003a 0E       		.uleb128 0xe
 3361 003b 0B       		.uleb128 0xb
 3362 003c 0B       		.uleb128 0xb
 3363 003d 3A       		.uleb128 0x3a
ARM GAS  C:\Users\srich\AppData\Local\Temp\ccUnnuc1.s 			page 60


 3364 003e 0B       		.uleb128 0xb
 3365 003f 3B       		.uleb128 0x3b
 3366 0040 0B       		.uleb128 0xb
 3367 0041 01       		.uleb128 0x1
 3368 0042 13       		.uleb128 0x13
 3369 0043 00       		.byte	0
 3370 0044 00       		.byte	0
 3371 0045 06       		.uleb128 0x6
 3372 0046 0D       		.uleb128 0xd
 3373 0047 00       		.byte	0
 3374 0048 03       		.uleb128 0x3
 3375 0049 0E       		.uleb128 0xe
 3376 004a 3A       		.uleb128 0x3a
 3377 004b 0B       		.uleb128 0xb
 3378 004c 3B       		.uleb128 0x3b
 3379 004d 0B       		.uleb128 0xb
 3380 004e 49       		.uleb128 0x49
 3381 004f 13       		.uleb128 0x13
 3382 0050 38       		.uleb128 0x38
 3383 0051 0B       		.uleb128 0xb
 3384 0052 00       		.byte	0
 3385 0053 00       		.byte	0
 3386 0054 07       		.uleb128 0x7
 3387 0055 0D       		.uleb128 0xd
 3388 0056 00       		.byte	0
 3389 0057 03       		.uleb128 0x3
 3390 0058 08       		.uleb128 0x8
 3391 0059 3A       		.uleb128 0x3a
 3392 005a 0B       		.uleb128 0xb
 3393 005b 3B       		.uleb128 0x3b
 3394 005c 0B       		.uleb128 0xb
 3395 005d 49       		.uleb128 0x49
 3396 005e 13       		.uleb128 0x13
 3397 005f 38       		.uleb128 0x38
 3398 0060 0B       		.uleb128 0xb
 3399 0061 00       		.byte	0
 3400 0062 00       		.byte	0
 3401 0063 08       		.uleb128 0x8
 3402 0064 13       		.uleb128 0x13
 3403 0065 01       		.byte	0x1
 3404 0066 0B       		.uleb128 0xb
 3405 0067 0B       		.uleb128 0xb
 3406 0068 3A       		.uleb128 0x3a
 3407 0069 0B       		.uleb128 0xb
 3408 006a 3B       		.uleb128 0x3b
 3409 006b 0B       		.uleb128 0xb
 3410 006c 01       		.uleb128 0x1
 3411 006d 13       		.uleb128 0x13
 3412 006e 00       		.byte	0
 3413 006f 00       		.byte	0
 3414 0070 09       		.uleb128 0x9
 3415 0071 0F       		.uleb128 0xf
 3416 0072 00       		.byte	0
 3417 0073 0B       		.uleb128 0xb
 3418 0074 0B       		.uleb128 0xb
 3419 0075 49       		.uleb128 0x49
 3420 0076 13       		.uleb128 0x13
ARM GAS  C:\Users\srich\AppData\Local\Temp\ccUnnuc1.s 			page 61


 3421 0077 00       		.byte	0
 3422 0078 00       		.byte	0
 3423 0079 0A       		.uleb128 0xa
 3424 007a 0F       		.uleb128 0xf
 3425 007b 00       		.byte	0
 3426 007c 0B       		.uleb128 0xb
 3427 007d 0B       		.uleb128 0xb
 3428 007e 00       		.byte	0
 3429 007f 00       		.byte	0
 3430 0080 0B       		.uleb128 0xb
 3431 0081 13       		.uleb128 0x13
 3432 0082 01       		.byte	0x1
 3433 0083 03       		.uleb128 0x3
 3434 0084 0E       		.uleb128 0xe
 3435 0085 0B       		.uleb128 0xb
 3436 0086 0B       		.uleb128 0xb
 3437 0087 3A       		.uleb128 0x3a
 3438 0088 0B       		.uleb128 0xb
 3439 0089 3B       		.uleb128 0x3b
 3440 008a 05       		.uleb128 0x5
 3441 008b 01       		.uleb128 0x1
 3442 008c 13       		.uleb128 0x13
 3443 008d 00       		.byte	0
 3444 008e 00       		.byte	0
 3445 008f 0C       		.uleb128 0xc
 3446 0090 0D       		.uleb128 0xd
 3447 0091 00       		.byte	0
 3448 0092 03       		.uleb128 0x3
 3449 0093 08       		.uleb128 0x8
 3450 0094 3A       		.uleb128 0x3a
 3451 0095 0B       		.uleb128 0xb
 3452 0096 3B       		.uleb128 0x3b
 3453 0097 05       		.uleb128 0x5
 3454 0098 49       		.uleb128 0x49
 3455 0099 13       		.uleb128 0x13
 3456 009a 38       		.uleb128 0x38
 3457 009b 0B       		.uleb128 0xb
 3458 009c 00       		.byte	0
 3459 009d 00       		.byte	0
 3460 009e 0D       		.uleb128 0xd
 3461 009f 35       		.uleb128 0x35
 3462 00a0 00       		.byte	0
 3463 00a1 49       		.uleb128 0x49
 3464 00a2 13       		.uleb128 0x13
 3465 00a3 00       		.byte	0
 3466 00a4 00       		.byte	0
 3467 00a5 0E       		.uleb128 0xe
 3468 00a6 17       		.uleb128 0x17
 3469 00a7 01       		.byte	0x1
 3470 00a8 0B       		.uleb128 0xb
 3471 00a9 0B       		.uleb128 0xb
 3472 00aa 3A       		.uleb128 0x3a
 3473 00ab 0B       		.uleb128 0xb
 3474 00ac 3B       		.uleb128 0x3b
 3475 00ad 0B       		.uleb128 0xb
 3476 00ae 01       		.uleb128 0x1
 3477 00af 13       		.uleb128 0x13
ARM GAS  C:\Users\srich\AppData\Local\Temp\ccUnnuc1.s 			page 62


 3478 00b0 00       		.byte	0
 3479 00b1 00       		.byte	0
 3480 00b2 0F       		.uleb128 0xf
 3481 00b3 0D       		.uleb128 0xd
 3482 00b4 00       		.byte	0
 3483 00b5 03       		.uleb128 0x3
 3484 00b6 0E       		.uleb128 0xe
 3485 00b7 3A       		.uleb128 0x3a
 3486 00b8 0B       		.uleb128 0xb
 3487 00b9 3B       		.uleb128 0x3b
 3488 00ba 0B       		.uleb128 0xb
 3489 00bb 49       		.uleb128 0x49
 3490 00bc 13       		.uleb128 0x13
 3491 00bd 00       		.byte	0
 3492 00be 00       		.byte	0
 3493 00bf 10       		.uleb128 0x10
 3494 00c0 26       		.uleb128 0x26
 3495 00c1 00       		.byte	0
 3496 00c2 49       		.uleb128 0x49
 3497 00c3 13       		.uleb128 0x13
 3498 00c4 00       		.byte	0
 3499 00c5 00       		.byte	0
 3500 00c6 11       		.uleb128 0x11
 3501 00c7 01       		.uleb128 0x1
 3502 00c8 01       		.byte	0x1
 3503 00c9 49       		.uleb128 0x49
 3504 00ca 13       		.uleb128 0x13
 3505 00cb 01       		.uleb128 0x1
 3506 00cc 13       		.uleb128 0x13
 3507 00cd 00       		.byte	0
 3508 00ce 00       		.byte	0
 3509 00cf 12       		.uleb128 0x12
 3510 00d0 21       		.uleb128 0x21
 3511 00d1 00       		.byte	0
 3512 00d2 49       		.uleb128 0x49
 3513 00d3 13       		.uleb128 0x13
 3514 00d4 2F       		.uleb128 0x2f
 3515 00d5 0B       		.uleb128 0xb
 3516 00d6 00       		.byte	0
 3517 00d7 00       		.byte	0
 3518 00d8 13       		.uleb128 0x13
 3519 00d9 13       		.uleb128 0x13
 3520 00da 01       		.byte	0x1
 3521 00db 0B       		.uleb128 0xb
 3522 00dc 0B       		.uleb128 0xb
 3523 00dd 3A       		.uleb128 0x3a
 3524 00de 0B       		.uleb128 0xb
 3525 00df 3B       		.uleb128 0x3b
 3526 00e0 05       		.uleb128 0x5
 3527 00e1 01       		.uleb128 0x1
 3528 00e2 13       		.uleb128 0x13
 3529 00e3 00       		.byte	0
 3530 00e4 00       		.byte	0
 3531 00e5 14       		.uleb128 0x14
 3532 00e6 0D       		.uleb128 0xd
 3533 00e7 00       		.byte	0
 3534 00e8 03       		.uleb128 0x3
ARM GAS  C:\Users\srich\AppData\Local\Temp\ccUnnuc1.s 			page 63


 3535 00e9 0E       		.uleb128 0xe
 3536 00ea 3A       		.uleb128 0x3a
 3537 00eb 0B       		.uleb128 0xb
 3538 00ec 3B       		.uleb128 0x3b
 3539 00ed 05       		.uleb128 0x5
 3540 00ee 49       		.uleb128 0x49
 3541 00ef 13       		.uleb128 0x13
 3542 00f0 38       		.uleb128 0x38
 3543 00f1 0B       		.uleb128 0xb
 3544 00f2 00       		.byte	0
 3545 00f3 00       		.byte	0
 3546 00f4 15       		.uleb128 0x15
 3547 00f5 16       		.uleb128 0x16
 3548 00f6 00       		.byte	0
 3549 00f7 03       		.uleb128 0x3
 3550 00f8 0E       		.uleb128 0xe
 3551 00f9 3A       		.uleb128 0x3a
 3552 00fa 0B       		.uleb128 0xb
 3553 00fb 3B       		.uleb128 0x3b
 3554 00fc 05       		.uleb128 0x5
 3555 00fd 49       		.uleb128 0x49
 3556 00fe 13       		.uleb128 0x13
 3557 00ff 00       		.byte	0
 3558 0100 00       		.byte	0
 3559 0101 16       		.uleb128 0x16
 3560 0102 04       		.uleb128 0x4
 3561 0103 01       		.byte	0x1
 3562 0104 0B       		.uleb128 0xb
 3563 0105 0B       		.uleb128 0xb
 3564 0106 3A       		.uleb128 0x3a
 3565 0107 0B       		.uleb128 0xb
 3566 0108 3B       		.uleb128 0x3b
 3567 0109 0B       		.uleb128 0xb
 3568 010a 01       		.uleb128 0x1
 3569 010b 13       		.uleb128 0x13
 3570 010c 00       		.byte	0
 3571 010d 00       		.byte	0
 3572 010e 17       		.uleb128 0x17
 3573 010f 28       		.uleb128 0x28
 3574 0110 00       		.byte	0
 3575 0111 03       		.uleb128 0x3
 3576 0112 0E       		.uleb128 0xe
 3577 0113 1C       		.uleb128 0x1c
 3578 0114 0D       		.uleb128 0xd
 3579 0115 00       		.byte	0
 3580 0116 00       		.byte	0
 3581 0117 18       		.uleb128 0x18
 3582 0118 15       		.uleb128 0x15
 3583 0119 01       		.byte	0x1
 3584 011a 27       		.uleb128 0x27
 3585 011b 19       		.uleb128 0x19
 3586 011c 49       		.uleb128 0x49
 3587 011d 13       		.uleb128 0x13
 3588 011e 01       		.uleb128 0x1
 3589 011f 13       		.uleb128 0x13
 3590 0120 00       		.byte	0
 3591 0121 00       		.byte	0
ARM GAS  C:\Users\srich\AppData\Local\Temp\ccUnnuc1.s 			page 64


 3592 0122 19       		.uleb128 0x19
 3593 0123 05       		.uleb128 0x5
 3594 0124 00       		.byte	0
 3595 0125 49       		.uleb128 0x49
 3596 0126 13       		.uleb128 0x13
 3597 0127 00       		.byte	0
 3598 0128 00       		.byte	0
 3599 0129 1A       		.uleb128 0x1a
 3600 012a 2E       		.uleb128 0x2e
 3601 012b 01       		.byte	0x1
 3602 012c 3F       		.uleb128 0x3f
 3603 012d 19       		.uleb128 0x19
 3604 012e 03       		.uleb128 0x3
 3605 012f 0E       		.uleb128 0xe
 3606 0130 3A       		.uleb128 0x3a
 3607 0131 0B       		.uleb128 0xb
 3608 0132 3B       		.uleb128 0x3b
 3609 0133 05       		.uleb128 0x5
 3610 0134 27       		.uleb128 0x27
 3611 0135 19       		.uleb128 0x19
 3612 0136 49       		.uleb128 0x49
 3613 0137 13       		.uleb128 0x13
 3614 0138 20       		.uleb128 0x20
 3615 0139 0B       		.uleb128 0xb
 3616 013a 01       		.uleb128 0x1
 3617 013b 13       		.uleb128 0x13
 3618 013c 00       		.byte	0
 3619 013d 00       		.byte	0
 3620 013e 1B       		.uleb128 0x1b
 3621 013f 05       		.uleb128 0x5
 3622 0140 00       		.byte	0
 3623 0141 03       		.uleb128 0x3
 3624 0142 0E       		.uleb128 0xe
 3625 0143 3A       		.uleb128 0x3a
 3626 0144 0B       		.uleb128 0xb
 3627 0145 3B       		.uleb128 0x3b
 3628 0146 05       		.uleb128 0x5
 3629 0147 49       		.uleb128 0x49
 3630 0148 13       		.uleb128 0x13
 3631 0149 00       		.byte	0
 3632 014a 00       		.byte	0
 3633 014b 1C       		.uleb128 0x1c
 3634 014c 05       		.uleb128 0x5
 3635 014d 00       		.byte	0
 3636 014e 03       		.uleb128 0x3
 3637 014f 08       		.uleb128 0x8
 3638 0150 3A       		.uleb128 0x3a
 3639 0151 0B       		.uleb128 0xb
 3640 0152 3B       		.uleb128 0x3b
 3641 0153 05       		.uleb128 0x5
 3642 0154 49       		.uleb128 0x49
 3643 0155 13       		.uleb128 0x13
 3644 0156 00       		.byte	0
 3645 0157 00       		.byte	0
 3646 0158 1D       		.uleb128 0x1d
 3647 0159 34       		.uleb128 0x34
 3648 015a 00       		.byte	0
ARM GAS  C:\Users\srich\AppData\Local\Temp\ccUnnuc1.s 			page 65


 3649 015b 03       		.uleb128 0x3
 3650 015c 0E       		.uleb128 0xe
 3651 015d 3A       		.uleb128 0x3a
 3652 015e 0B       		.uleb128 0xb
 3653 015f 3B       		.uleb128 0x3b
 3654 0160 05       		.uleb128 0x5
 3655 0161 49       		.uleb128 0x49
 3656 0162 13       		.uleb128 0x13
 3657 0163 00       		.byte	0
 3658 0164 00       		.byte	0
 3659 0165 1E       		.uleb128 0x1e
 3660 0166 0B       		.uleb128 0xb
 3661 0167 01       		.byte	0x1
 3662 0168 01       		.uleb128 0x1
 3663 0169 13       		.uleb128 0x13
 3664 016a 00       		.byte	0
 3665 016b 00       		.byte	0
 3666 016c 1F       		.uleb128 0x1f
 3667 016d 34       		.uleb128 0x34
 3668 016e 00       		.byte	0
 3669 016f 03       		.uleb128 0x3
 3670 0170 08       		.uleb128 0x8
 3671 0171 3A       		.uleb128 0x3a
 3672 0172 0B       		.uleb128 0xb
 3673 0173 3B       		.uleb128 0x3b
 3674 0174 05       		.uleb128 0x5
 3675 0175 49       		.uleb128 0x49
 3676 0176 13       		.uleb128 0x13
 3677 0177 00       		.byte	0
 3678 0178 00       		.byte	0
 3679 0179 20       		.uleb128 0x20
 3680 017a 0B       		.uleb128 0xb
 3681 017b 01       		.byte	0x1
 3682 017c 00       		.byte	0
 3683 017d 00       		.byte	0
 3684 017e 21       		.uleb128 0x21
 3685 017f 2E       		.uleb128 0x2e
 3686 0180 01       		.byte	0x1
 3687 0181 3F       		.uleb128 0x3f
 3688 0182 19       		.uleb128 0x19
 3689 0183 03       		.uleb128 0x3
 3690 0184 0E       		.uleb128 0xe
 3691 0185 3A       		.uleb128 0x3a
 3692 0186 0B       		.uleb128 0xb
 3693 0187 3B       		.uleb128 0x3b
 3694 0188 05       		.uleb128 0x5
 3695 0189 27       		.uleb128 0x27
 3696 018a 19       		.uleb128 0x19
 3697 018b 49       		.uleb128 0x49
 3698 018c 13       		.uleb128 0x13
 3699 018d 11       		.uleb128 0x11
 3700 018e 01       		.uleb128 0x1
 3701 018f 12       		.uleb128 0x12
 3702 0190 06       		.uleb128 0x6
 3703 0191 40       		.uleb128 0x40
 3704 0192 18       		.uleb128 0x18
 3705 0193 9742     		.uleb128 0x2117
ARM GAS  C:\Users\srich\AppData\Local\Temp\ccUnnuc1.s 			page 66


 3706 0195 19       		.uleb128 0x19
 3707 0196 01       		.uleb128 0x1
 3708 0197 13       		.uleb128 0x13
 3709 0198 00       		.byte	0
 3710 0199 00       		.byte	0
 3711 019a 22       		.uleb128 0x22
 3712 019b 05       		.uleb128 0x5
 3713 019c 00       		.byte	0
 3714 019d 03       		.uleb128 0x3
 3715 019e 0E       		.uleb128 0xe
 3716 019f 3A       		.uleb128 0x3a
 3717 01a0 0B       		.uleb128 0xb
 3718 01a1 3B       		.uleb128 0x3b
 3719 01a2 05       		.uleb128 0x5
 3720 01a3 49       		.uleb128 0x49
 3721 01a4 13       		.uleb128 0x13
 3722 01a5 02       		.uleb128 0x2
 3723 01a6 17       		.uleb128 0x17
 3724 01a7 00       		.byte	0
 3725 01a8 00       		.byte	0
 3726 01a9 23       		.uleb128 0x23
 3727 01aa 05       		.uleb128 0x5
 3728 01ab 00       		.byte	0
 3729 01ac 03       		.uleb128 0x3
 3730 01ad 0E       		.uleb128 0xe
 3731 01ae 3A       		.uleb128 0x3a
 3732 01af 0B       		.uleb128 0xb
 3733 01b0 3B       		.uleb128 0x3b
 3734 01b1 05       		.uleb128 0x5
 3735 01b2 49       		.uleb128 0x49
 3736 01b3 13       		.uleb128 0x13
 3737 01b4 02       		.uleb128 0x2
 3738 01b5 18       		.uleb128 0x18
 3739 01b6 00       		.byte	0
 3740 01b7 00       		.byte	0
 3741 01b8 24       		.uleb128 0x24
 3742 01b9 2E       		.uleb128 0x2e
 3743 01ba 01       		.byte	0x1
 3744 01bb 3F       		.uleb128 0x3f
 3745 01bc 19       		.uleb128 0x19
 3746 01bd 03       		.uleb128 0x3
 3747 01be 0E       		.uleb128 0xe
 3748 01bf 3A       		.uleb128 0x3a
 3749 01c0 0B       		.uleb128 0xb
 3750 01c1 3B       		.uleb128 0x3b
 3751 01c2 0B       		.uleb128 0xb
 3752 01c3 27       		.uleb128 0x27
 3753 01c4 19       		.uleb128 0x19
 3754 01c5 49       		.uleb128 0x49
 3755 01c6 13       		.uleb128 0x13
 3756 01c7 11       		.uleb128 0x11
 3757 01c8 01       		.uleb128 0x1
 3758 01c9 12       		.uleb128 0x12
 3759 01ca 06       		.uleb128 0x6
 3760 01cb 40       		.uleb128 0x40
 3761 01cc 18       		.uleb128 0x18
 3762 01cd 9742     		.uleb128 0x2117
ARM GAS  C:\Users\srich\AppData\Local\Temp\ccUnnuc1.s 			page 67


 3763 01cf 19       		.uleb128 0x19
 3764 01d0 01       		.uleb128 0x1
 3765 01d1 13       		.uleb128 0x13
 3766 01d2 00       		.byte	0
 3767 01d3 00       		.byte	0
 3768 01d4 25       		.uleb128 0x25
 3769 01d5 05       		.uleb128 0x5
 3770 01d6 00       		.byte	0
 3771 01d7 03       		.uleb128 0x3
 3772 01d8 0E       		.uleb128 0xe
 3773 01d9 3A       		.uleb128 0x3a
 3774 01da 0B       		.uleb128 0xb
 3775 01db 3B       		.uleb128 0x3b
 3776 01dc 0B       		.uleb128 0xb
 3777 01dd 49       		.uleb128 0x49
 3778 01de 13       		.uleb128 0x13
 3779 01df 02       		.uleb128 0x2
 3780 01e0 17       		.uleb128 0x17
 3781 01e1 00       		.byte	0
 3782 01e2 00       		.byte	0
 3783 01e3 26       		.uleb128 0x26
 3784 01e4 34       		.uleb128 0x34
 3785 01e5 00       		.byte	0
 3786 01e6 03       		.uleb128 0x3
 3787 01e7 0E       		.uleb128 0xe
 3788 01e8 3A       		.uleb128 0x3a
 3789 01e9 0B       		.uleb128 0xb
 3790 01ea 3B       		.uleb128 0x3b
 3791 01eb 0B       		.uleb128 0xb
 3792 01ec 49       		.uleb128 0x49
 3793 01ed 13       		.uleb128 0x13
 3794 01ee 02       		.uleb128 0x2
 3795 01ef 18       		.uleb128 0x18
 3796 01f0 00       		.byte	0
 3797 01f1 00       		.byte	0
 3798 01f2 27       		.uleb128 0x27
 3799 01f3 0A       		.uleb128 0xa
 3800 01f4 00       		.byte	0
 3801 01f5 03       		.uleb128 0x3
 3802 01f6 0E       		.uleb128 0xe
 3803 01f7 3A       		.uleb128 0x3a
 3804 01f8 0B       		.uleb128 0xb
 3805 01f9 3B       		.uleb128 0x3b
 3806 01fa 05       		.uleb128 0x5
 3807 01fb 11       		.uleb128 0x11
 3808 01fc 01       		.uleb128 0x1
 3809 01fd 00       		.byte	0
 3810 01fe 00       		.byte	0
 3811 01ff 28       		.uleb128 0x28
 3812 0200 0B       		.uleb128 0xb
 3813 0201 01       		.byte	0x1
 3814 0202 11       		.uleb128 0x11
 3815 0203 01       		.uleb128 0x1
 3816 0204 12       		.uleb128 0x12
 3817 0205 06       		.uleb128 0x6
 3818 0206 01       		.uleb128 0x1
 3819 0207 13       		.uleb128 0x13
ARM GAS  C:\Users\srich\AppData\Local\Temp\ccUnnuc1.s 			page 68


 3820 0208 00       		.byte	0
 3821 0209 00       		.byte	0
 3822 020a 29       		.uleb128 0x29
 3823 020b 34       		.uleb128 0x34
 3824 020c 00       		.byte	0
 3825 020d 03       		.uleb128 0x3
 3826 020e 08       		.uleb128 0x8
 3827 020f 3A       		.uleb128 0x3a
 3828 0210 0B       		.uleb128 0xb
 3829 0211 3B       		.uleb128 0x3b
 3830 0212 0B       		.uleb128 0xb
 3831 0213 49       		.uleb128 0x49
 3832 0214 13       		.uleb128 0x13
 3833 0215 02       		.uleb128 0x2
 3834 0216 17       		.uleb128 0x17
 3835 0217 00       		.byte	0
 3836 0218 00       		.byte	0
 3837 0219 2A       		.uleb128 0x2a
 3838 021a 898201   		.uleb128 0x4109
 3839 021d 00       		.byte	0
 3840 021e 11       		.uleb128 0x11
 3841 021f 01       		.uleb128 0x1
 3842 0220 31       		.uleb128 0x31
 3843 0221 13       		.uleb128 0x13
 3844 0222 00       		.byte	0
 3845 0223 00       		.byte	0
 3846 0224 2B       		.uleb128 0x2b
 3847 0225 898201   		.uleb128 0x4109
 3848 0228 01       		.byte	0x1
 3849 0229 11       		.uleb128 0x11
 3850 022a 01       		.uleb128 0x1
 3851 022b 31       		.uleb128 0x31
 3852 022c 13       		.uleb128 0x13
 3853 022d 01       		.uleb128 0x1
 3854 022e 13       		.uleb128 0x13
 3855 022f 00       		.byte	0
 3856 0230 00       		.byte	0
 3857 0231 2C       		.uleb128 0x2c
 3858 0232 8A8201   		.uleb128 0x410a
 3859 0235 00       		.byte	0
 3860 0236 02       		.uleb128 0x2
 3861 0237 18       		.uleb128 0x18
 3862 0238 9142     		.uleb128 0x2111
 3863 023a 18       		.uleb128 0x18
 3864 023b 00       		.byte	0
 3865 023c 00       		.byte	0
 3866 023d 2D       		.uleb128 0x2d
 3867 023e 898201   		.uleb128 0x4109
 3868 0241 01       		.byte	0x1
 3869 0242 11       		.uleb128 0x11
 3870 0243 01       		.uleb128 0x1
 3871 0244 31       		.uleb128 0x31
 3872 0245 13       		.uleb128 0x13
 3873 0246 00       		.byte	0
 3874 0247 00       		.byte	0
 3875 0248 2E       		.uleb128 0x2e
 3876 0249 2E       		.uleb128 0x2e
ARM GAS  C:\Users\srich\AppData\Local\Temp\ccUnnuc1.s 			page 69


 3877 024a 01       		.byte	0x1
 3878 024b 31       		.uleb128 0x31
 3879 024c 13       		.uleb128 0x13
 3880 024d 11       		.uleb128 0x11
 3881 024e 01       		.uleb128 0x1
 3882 024f 12       		.uleb128 0x12
 3883 0250 06       		.uleb128 0x6
 3884 0251 40       		.uleb128 0x40
 3885 0252 18       		.uleb128 0x18
 3886 0253 9742     		.uleb128 0x2117
 3887 0255 19       		.uleb128 0x19
 3888 0256 01       		.uleb128 0x1
 3889 0257 13       		.uleb128 0x13
 3890 0258 00       		.byte	0
 3891 0259 00       		.byte	0
 3892 025a 2F       		.uleb128 0x2f
 3893 025b 05       		.uleb128 0x5
 3894 025c 00       		.byte	0
 3895 025d 31       		.uleb128 0x31
 3896 025e 13       		.uleb128 0x13
 3897 025f 02       		.uleb128 0x2
 3898 0260 17       		.uleb128 0x17
 3899 0261 00       		.byte	0
 3900 0262 00       		.byte	0
 3901 0263 30       		.uleb128 0x30
 3902 0264 34       		.uleb128 0x34
 3903 0265 00       		.byte	0
 3904 0266 31       		.uleb128 0x31
 3905 0267 13       		.uleb128 0x13
 3906 0268 00       		.byte	0
 3907 0269 00       		.byte	0
 3908 026a 31       		.uleb128 0x31
 3909 026b 0B       		.uleb128 0xb
 3910 026c 01       		.byte	0x1
 3911 026d 11       		.uleb128 0x11
 3912 026e 01       		.uleb128 0x1
 3913 026f 12       		.uleb128 0x12
 3914 0270 06       		.uleb128 0x6
 3915 0271 00       		.byte	0
 3916 0272 00       		.byte	0
 3917 0273 32       		.uleb128 0x32
 3918 0274 05       		.uleb128 0x5
 3919 0275 00       		.byte	0
 3920 0276 31       		.uleb128 0x31
 3921 0277 13       		.uleb128 0x13
 3922 0278 00       		.byte	0
 3923 0279 00       		.byte	0
 3924 027a 33       		.uleb128 0x33
 3925 027b 34       		.uleb128 0x34
 3926 027c 00       		.byte	0
 3927 027d 31       		.uleb128 0x31
 3928 027e 13       		.uleb128 0x13
 3929 027f 02       		.uleb128 0x2
 3930 0280 18       		.uleb128 0x18
 3931 0281 00       		.byte	0
 3932 0282 00       		.byte	0
 3933 0283 34       		.uleb128 0x34
ARM GAS  C:\Users\srich\AppData\Local\Temp\ccUnnuc1.s 			page 70


 3934 0284 2E       		.uleb128 0x2e
 3935 0285 01       		.byte	0x1
 3936 0286 3F       		.uleb128 0x3f
 3937 0287 19       		.uleb128 0x19
 3938 0288 03       		.uleb128 0x3
 3939 0289 0E       		.uleb128 0xe
 3940 028a 3A       		.uleb128 0x3a
 3941 028b 0B       		.uleb128 0xb
 3942 028c 3B       		.uleb128 0x3b
 3943 028d 0B       		.uleb128 0xb
 3944 028e 27       		.uleb128 0x27
 3945 028f 19       		.uleb128 0x19
 3946 0290 11       		.uleb128 0x11
 3947 0291 01       		.uleb128 0x1
 3948 0292 12       		.uleb128 0x12
 3949 0293 06       		.uleb128 0x6
 3950 0294 40       		.uleb128 0x40
 3951 0295 18       		.uleb128 0x18
 3952 0296 9742     		.uleb128 0x2117
 3953 0298 19       		.uleb128 0x19
 3954 0299 01       		.uleb128 0x1
 3955 029a 13       		.uleb128 0x13
 3956 029b 00       		.byte	0
 3957 029c 00       		.byte	0
 3958 029d 35       		.uleb128 0x35
 3959 029e 898201   		.uleb128 0x4109
 3960 02a1 00       		.byte	0
 3961 02a2 11       		.uleb128 0x11
 3962 02a3 01       		.uleb128 0x1
 3963 02a4 9542     		.uleb128 0x2115
 3964 02a6 19       		.uleb128 0x19
 3965 02a7 31       		.uleb128 0x31
 3966 02a8 13       		.uleb128 0x13
 3967 02a9 00       		.byte	0
 3968 02aa 00       		.byte	0
 3969 02ab 36       		.uleb128 0x36
 3970 02ac 05       		.uleb128 0x5
 3971 02ad 00       		.byte	0
 3972 02ae 03       		.uleb128 0x3
 3973 02af 0E       		.uleb128 0xe
 3974 02b0 3A       		.uleb128 0x3a
 3975 02b1 0B       		.uleb128 0xb
 3976 02b2 3B       		.uleb128 0x3b
 3977 02b3 0B       		.uleb128 0xb
 3978 02b4 49       		.uleb128 0x49
 3979 02b5 13       		.uleb128 0x13
 3980 02b6 02       		.uleb128 0x2
 3981 02b7 18       		.uleb128 0x18
 3982 02b8 00       		.byte	0
 3983 02b9 00       		.byte	0
 3984 02ba 37       		.uleb128 0x37
 3985 02bb 0B       		.uleb128 0xb
 3986 02bc 01       		.byte	0x1
 3987 02bd 55       		.uleb128 0x55
 3988 02be 17       		.uleb128 0x17
 3989 02bf 01       		.uleb128 0x1
 3990 02c0 13       		.uleb128 0x13
ARM GAS  C:\Users\srich\AppData\Local\Temp\ccUnnuc1.s 			page 71


 3991 02c1 00       		.byte	0
 3992 02c2 00       		.byte	0
 3993 02c3 38       		.uleb128 0x38
 3994 02c4 34       		.uleb128 0x34
 3995 02c5 00       		.byte	0
 3996 02c6 03       		.uleb128 0x3
 3997 02c7 08       		.uleb128 0x8
 3998 02c8 3A       		.uleb128 0x3a
 3999 02c9 0B       		.uleb128 0xb
 4000 02ca 3B       		.uleb128 0x3b
 4001 02cb 0B       		.uleb128 0xb
 4002 02cc 49       		.uleb128 0x49
 4003 02cd 13       		.uleb128 0x13
 4004 02ce 02       		.uleb128 0x2
 4005 02cf 18       		.uleb128 0x18
 4006 02d0 00       		.byte	0
 4007 02d1 00       		.byte	0
 4008 02d2 39       		.uleb128 0x39
 4009 02d3 34       		.uleb128 0x34
 4010 02d4 00       		.byte	0
 4011 02d5 03       		.uleb128 0x3
 4012 02d6 0E       		.uleb128 0xe
 4013 02d7 3A       		.uleb128 0x3a
 4014 02d8 0B       		.uleb128 0xb
 4015 02d9 3B       		.uleb128 0x3b
 4016 02da 05       		.uleb128 0x5
 4017 02db 49       		.uleb128 0x49
 4018 02dc 13       		.uleb128 0x13
 4019 02dd 02       		.uleb128 0x2
 4020 02de 18       		.uleb128 0x18
 4021 02df 00       		.byte	0
 4022 02e0 00       		.byte	0
 4023 02e1 3A       		.uleb128 0x3a
 4024 02e2 34       		.uleb128 0x34
 4025 02e3 00       		.byte	0
 4026 02e4 03       		.uleb128 0x3
 4027 02e5 08       		.uleb128 0x8
 4028 02e6 3A       		.uleb128 0x3a
 4029 02e7 0B       		.uleb128 0xb
 4030 02e8 3B       		.uleb128 0x3b
 4031 02e9 05       		.uleb128 0x5
 4032 02ea 49       		.uleb128 0x49
 4033 02eb 13       		.uleb128 0x13
 4034 02ec 02       		.uleb128 0x2
 4035 02ed 18       		.uleb128 0x18
 4036 02ee 00       		.byte	0
 4037 02ef 00       		.byte	0
 4038 02f0 3B       		.uleb128 0x3b
 4039 02f1 34       		.uleb128 0x34
 4040 02f2 00       		.byte	0
 4041 02f3 03       		.uleb128 0x3
 4042 02f4 0E       		.uleb128 0xe
 4043 02f5 3A       		.uleb128 0x3a
 4044 02f6 0B       		.uleb128 0xb
 4045 02f7 3B       		.uleb128 0x3b
 4046 02f8 05       		.uleb128 0x5
 4047 02f9 49       		.uleb128 0x49
ARM GAS  C:\Users\srich\AppData\Local\Temp\ccUnnuc1.s 			page 72


 4048 02fa 13       		.uleb128 0x13
 4049 02fb 3F       		.uleb128 0x3f
 4050 02fc 19       		.uleb128 0x19
 4051 02fd 3C       		.uleb128 0x3c
 4052 02fe 19       		.uleb128 0x19
 4053 02ff 00       		.byte	0
 4054 0300 00       		.byte	0
 4055 0301 3C       		.uleb128 0x3c
 4056 0302 2E       		.uleb128 0x2e
 4057 0303 01       		.byte	0x1
 4058 0304 3F       		.uleb128 0x3f
 4059 0305 19       		.uleb128 0x19
 4060 0306 03       		.uleb128 0x3
 4061 0307 0E       		.uleb128 0xe
 4062 0308 3A       		.uleb128 0x3a
 4063 0309 0B       		.uleb128 0xb
 4064 030a 3B       		.uleb128 0x3b
 4065 030b 05       		.uleb128 0x5
 4066 030c 27       		.uleb128 0x27
 4067 030d 19       		.uleb128 0x19
 4068 030e 3C       		.uleb128 0x3c
 4069 030f 19       		.uleb128 0x19
 4070 0310 01       		.uleb128 0x1
 4071 0311 13       		.uleb128 0x13
 4072 0312 00       		.byte	0
 4073 0313 00       		.byte	0
 4074 0314 3D       		.uleb128 0x3d
 4075 0315 2E       		.uleb128 0x2e
 4076 0316 01       		.byte	0x1
 4077 0317 3F       		.uleb128 0x3f
 4078 0318 19       		.uleb128 0x19
 4079 0319 03       		.uleb128 0x3
 4080 031a 0E       		.uleb128 0xe
 4081 031b 3A       		.uleb128 0x3a
 4082 031c 0B       		.uleb128 0xb
 4083 031d 3B       		.uleb128 0x3b
 4084 031e 05       		.uleb128 0x5
 4085 031f 27       		.uleb128 0x27
 4086 0320 19       		.uleb128 0x19
 4087 0321 49       		.uleb128 0x49
 4088 0322 13       		.uleb128 0x13
 4089 0323 3C       		.uleb128 0x3c
 4090 0324 19       		.uleb128 0x19
 4091 0325 01       		.uleb128 0x1
 4092 0326 13       		.uleb128 0x13
 4093 0327 00       		.byte	0
 4094 0328 00       		.byte	0
 4095 0329 3E       		.uleb128 0x3e
 4096 032a 2E       		.uleb128 0x2e
 4097 032b 00       		.byte	0
 4098 032c 3F       		.uleb128 0x3f
 4099 032d 19       		.uleb128 0x19
 4100 032e 03       		.uleb128 0x3
 4101 032f 0E       		.uleb128 0xe
 4102 0330 3A       		.uleb128 0x3a
 4103 0331 0B       		.uleb128 0xb
 4104 0332 3B       		.uleb128 0x3b
ARM GAS  C:\Users\srich\AppData\Local\Temp\ccUnnuc1.s 			page 73


 4105 0333 05       		.uleb128 0x5
 4106 0334 27       		.uleb128 0x27
 4107 0335 19       		.uleb128 0x19
 4108 0336 3C       		.uleb128 0x3c
 4109 0337 19       		.uleb128 0x19
 4110 0338 00       		.byte	0
 4111 0339 00       		.byte	0
 4112 033a 3F       		.uleb128 0x3f
 4113 033b 2E       		.uleb128 0x2e
 4114 033c 01       		.byte	0x1
 4115 033d 3F       		.uleb128 0x3f
 4116 033e 19       		.uleb128 0x19
 4117 033f 03       		.uleb128 0x3
 4118 0340 0E       		.uleb128 0xe
 4119 0341 3A       		.uleb128 0x3a
 4120 0342 0B       		.uleb128 0xb
 4121 0343 3B       		.uleb128 0x3b
 4122 0344 05       		.uleb128 0x5
 4123 0345 27       		.uleb128 0x27
 4124 0346 19       		.uleb128 0x19
 4125 0347 3C       		.uleb128 0x3c
 4126 0348 19       		.uleb128 0x19
 4127 0349 00       		.byte	0
 4128 034a 00       		.byte	0
 4129 034b 00       		.byte	0
 4130              		.section	.debug_loc,"",%progbits
 4131              	.Ldebug_loc0:
 4132              	.LLST0:
 4133 0000 00000000 		.4byte	.LVL0
 4134 0004 08000000 		.4byte	.LVL1
 4135 0008 0100     		.2byte	0x1
 4136 000a 50       		.byte	0x50
 4137 000b 08000000 		.4byte	.LVL1
 4138 000f 0A000000 		.4byte	.LVL2
 4139 0013 0400     		.2byte	0x4
 4140 0015 F3       		.byte	0xf3
 4141 0016 01       		.uleb128 0x1
 4142 0017 50       		.byte	0x50
 4143 0018 9F       		.byte	0x9f
 4144 0019 0A000000 		.4byte	.LVL2
 4145 001d 16000000 		.4byte	.LVL3
 4146 0021 0100     		.2byte	0x1
 4147 0023 50       		.byte	0x50
 4148 0024 16000000 		.4byte	.LVL3
 4149 0028 18000000 		.4byte	.LFE129
 4150 002c 0400     		.2byte	0x4
 4151 002e F3       		.byte	0xf3
 4152 002f 01       		.uleb128 0x1
 4153 0030 50       		.byte	0x50
 4154 0031 9F       		.byte	0x9f
 4155 0032 00000000 		.4byte	0
 4156 0036 00000000 		.4byte	0
 4157              	.LLST1:
 4158 003a 00000000 		.4byte	.LVL4
 4159 003e 0F000000 		.4byte	.LVL5-1
 4160 0042 0100     		.2byte	0x1
 4161 0044 50       		.byte	0x50
ARM GAS  C:\Users\srich\AppData\Local\Temp\ccUnnuc1.s 			page 74


 4162 0045 0F000000 		.4byte	.LVL5-1
 4163 0049 9A000000 		.4byte	.LVL17
 4164 004d 0100     		.2byte	0x1
 4165 004f 54       		.byte	0x54
 4166 0050 9A000000 		.4byte	.LVL17
 4167 0054 9D000000 		.4byte	.LVL18-1
 4168 0058 0100     		.2byte	0x1
 4169 005a 50       		.byte	0x50
 4170 005b 9D000000 		.4byte	.LVL18-1
 4171 005f B4010000 		.4byte	.LFE123
 4172 0063 0100     		.2byte	0x1
 4173 0065 54       		.byte	0x54
 4174 0066 00000000 		.4byte	0
 4175 006a 00000000 		.4byte	0
 4176              	.LLST2:
 4177 006e 6C000000 		.4byte	.LVL11
 4178 0072 70000000 		.4byte	.LVL12
 4179 0076 0200     		.2byte	0x2
 4180 0078 30       		.byte	0x30
 4181 0079 9F       		.byte	0x9f
 4182 007a 70000000 		.4byte	.LVL12
 4183 007e 72000000 		.4byte	.LVL13
 4184 0082 0600     		.2byte	0x6
 4185 0084 08       		.byte	0x8
 4186 0085 65       		.byte	0x65
 4187 0086 76       		.byte	0x76
 4188 0087 00       		.sleb128 0
 4189 0088 1C       		.byte	0x1c
 4190 0089 9F       		.byte	0x9f
 4191 008a 72000000 		.4byte	.LVL13
 4192 008e 9E000000 		.4byte	.LVL18
 4193 0092 0600     		.2byte	0x6
 4194 0094 08       		.byte	0x8
 4195 0095 64       		.byte	0x64
 4196 0096 76       		.byte	0x76
 4197 0097 00       		.sleb128 0
 4198 0098 1C       		.byte	0x1c
 4199 0099 9F       		.byte	0x9f
 4200 009a 9E000000 		.4byte	.LVL18
 4201 009e E0000000 		.4byte	.LVL21
 4202 00a2 0600     		.2byte	0x6
 4203 00a4 08       		.byte	0x8
 4204 00a5 65       		.byte	0x65
 4205 00a6 76       		.byte	0x76
 4206 00a7 00       		.sleb128 0
 4207 00a8 1C       		.byte	0x1c
 4208 00a9 9F       		.byte	0x9f
 4209 00aa 00000000 		.4byte	0
 4210 00ae 00000000 		.4byte	0
 4211              	.LLST3:
 4212 00b2 6C000000 		.4byte	.LVL11
 4213 00b6 90000000 		.4byte	.LVL16
 4214 00ba 0100     		.2byte	0x1
 4215 00bc 58       		.byte	0x58
 4216 00bd 90000000 		.4byte	.LVL16
 4217 00c1 9D000000 		.4byte	.LVL18-1
 4218 00c5 0100     		.2byte	0x1
ARM GAS  C:\Users\srich\AppData\Local\Temp\ccUnnuc1.s 			page 75


 4219 00c7 52       		.byte	0x52
 4220 00c8 9D000000 		.4byte	.LVL18-1
 4221 00cc 86010000 		.4byte	.LVL30
 4222 00d0 0100     		.2byte	0x1
 4223 00d2 58       		.byte	0x58
 4224 00d3 00000000 		.4byte	0
 4225 00d7 00000000 		.4byte	0
 4226              	.LLST4:
 4227 00db 00000000 		.4byte	.LVL32
 4228 00df 18000000 		.4byte	.LVL34
 4229 00e3 0100     		.2byte	0x1
 4230 00e5 50       		.byte	0x50
 4231 00e6 18000000 		.4byte	.LVL34
 4232 00ea 1A000000 		.4byte	.LVL35
 4233 00ee 0100     		.2byte	0x1
 4234 00f0 54       		.byte	0x54
 4235 00f1 1A000000 		.4byte	.LVL35
 4236 00f5 21000000 		.4byte	.LVL36-1
 4237 00f9 0100     		.2byte	0x1
 4238 00fb 50       		.byte	0x50
 4239 00fc 21000000 		.4byte	.LVL36-1
 4240 0100 28000000 		.4byte	.LFE125
 4241 0104 0100     		.2byte	0x1
 4242 0106 54       		.byte	0x54
 4243 0107 00000000 		.4byte	0
 4244 010b 00000000 		.4byte	0
 4245              	.LLST5:
 4246 010f 00000000 		.4byte	.LVL32
 4247 0113 21000000 		.4byte	.LVL36-1
 4248 0117 0100     		.2byte	0x1
 4249 0119 51       		.byte	0x51
 4250 011a 21000000 		.4byte	.LVL36-1
 4251 011e 28000000 		.4byte	.LFE125
 4252 0122 0400     		.2byte	0x4
 4253 0124 F3       		.byte	0xf3
 4254 0125 01       		.uleb128 0x1
 4255 0126 51       		.byte	0x51
 4256 0127 9F       		.byte	0x9f
 4257 0128 00000000 		.4byte	0
 4258 012c 00000000 		.4byte	0
 4259              	.LLST6:
 4260 0130 00000000 		.4byte	.LVL32
 4261 0134 21000000 		.4byte	.LVL36-1
 4262 0138 0100     		.2byte	0x1
 4263 013a 52       		.byte	0x52
 4264 013b 21000000 		.4byte	.LVL36-1
 4265 013f 28000000 		.4byte	.LFE125
 4266 0143 0400     		.2byte	0x4
 4267 0145 F3       		.byte	0xf3
 4268 0146 01       		.uleb128 0x1
 4269 0147 52       		.byte	0x52
 4270 0148 9F       		.byte	0x9f
 4271 0149 00000000 		.4byte	0
 4272 014d 00000000 		.4byte	0
 4273              	.LLST7:
 4274 0151 00000000 		.4byte	.LVL32
 4275 0155 10000000 		.4byte	.LVL33
ARM GAS  C:\Users\srich\AppData\Local\Temp\ccUnnuc1.s 			page 76


 4276 0159 0100     		.2byte	0x1
 4277 015b 53       		.byte	0x53
 4278 015c 10000000 		.4byte	.LVL33
 4279 0160 1A000000 		.4byte	.LVL35
 4280 0164 0400     		.2byte	0x4
 4281 0166 F3       		.byte	0xf3
 4282 0167 01       		.uleb128 0x1
 4283 0168 53       		.byte	0x53
 4284 0169 9F       		.byte	0x9f
 4285 016a 1A000000 		.4byte	.LVL35
 4286 016e 21000000 		.4byte	.LVL36-1
 4287 0172 0100     		.2byte	0x1
 4288 0174 53       		.byte	0x53
 4289 0175 21000000 		.4byte	.LVL36-1
 4290 0179 28000000 		.4byte	.LFE125
 4291 017d 0400     		.2byte	0x4
 4292 017f F3       		.byte	0xf3
 4293 0180 01       		.uleb128 0x1
 4294 0181 53       		.byte	0x53
 4295 0182 9F       		.byte	0x9f
 4296 0183 00000000 		.4byte	0
 4297 0187 00000000 		.4byte	0
 4298              	.LLST8:
 4299 018b 1A000000 		.4byte	.LVL35
 4300 018f 21000000 		.4byte	.LVL36-1
 4301 0193 0100     		.2byte	0x1
 4302 0195 50       		.byte	0x50
 4303 0196 21000000 		.4byte	.LVL36-1
 4304 019a 28000000 		.4byte	.LFE125
 4305 019e 0100     		.2byte	0x1
 4306 01a0 54       		.byte	0x54
 4307 01a1 00000000 		.4byte	0
 4308 01a5 00000000 		.4byte	0
 4309              	.LLST9:
 4310 01a9 00000000 		.4byte	.LVL37
 4311 01ad 18000000 		.4byte	.LVL39
 4312 01b1 0100     		.2byte	0x1
 4313 01b3 50       		.byte	0x50
 4314 01b4 18000000 		.4byte	.LVL39
 4315 01b8 1A000000 		.4byte	.LVL40
 4316 01bc 0100     		.2byte	0x1
 4317 01be 54       		.byte	0x54
 4318 01bf 1A000000 		.4byte	.LVL40
 4319 01c3 21000000 		.4byte	.LVL41-1
 4320 01c7 0100     		.2byte	0x1
 4321 01c9 50       		.byte	0x50
 4322 01ca 21000000 		.4byte	.LVL41-1
 4323 01ce 28000000 		.4byte	.LFE126
 4324 01d2 0100     		.2byte	0x1
 4325 01d4 54       		.byte	0x54
 4326 01d5 00000000 		.4byte	0
 4327 01d9 00000000 		.4byte	0
 4328              	.LLST10:
 4329 01dd 00000000 		.4byte	.LVL37
 4330 01e1 21000000 		.4byte	.LVL41-1
 4331 01e5 0100     		.2byte	0x1
 4332 01e7 51       		.byte	0x51
ARM GAS  C:\Users\srich\AppData\Local\Temp\ccUnnuc1.s 			page 77


 4333 01e8 21000000 		.4byte	.LVL41-1
 4334 01ec 28000000 		.4byte	.LFE126
 4335 01f0 0400     		.2byte	0x4
 4336 01f2 F3       		.byte	0xf3
 4337 01f3 01       		.uleb128 0x1
 4338 01f4 51       		.byte	0x51
 4339 01f5 9F       		.byte	0x9f
 4340 01f6 00000000 		.4byte	0
 4341 01fa 00000000 		.4byte	0
 4342              	.LLST11:
 4343 01fe 00000000 		.4byte	.LVL37
 4344 0202 21000000 		.4byte	.LVL41-1
 4345 0206 0100     		.2byte	0x1
 4346 0208 52       		.byte	0x52
 4347 0209 21000000 		.4byte	.LVL41-1
 4348 020d 28000000 		.4byte	.LFE126
 4349 0211 0400     		.2byte	0x4
 4350 0213 F3       		.byte	0xf3
 4351 0214 01       		.uleb128 0x1
 4352 0215 52       		.byte	0x52
 4353 0216 9F       		.byte	0x9f
 4354 0217 00000000 		.4byte	0
 4355 021b 00000000 		.4byte	0
 4356              	.LLST12:
 4357 021f 00000000 		.4byte	.LVL37
 4358 0223 10000000 		.4byte	.LVL38
 4359 0227 0100     		.2byte	0x1
 4360 0229 53       		.byte	0x53
 4361 022a 10000000 		.4byte	.LVL38
 4362 022e 1A000000 		.4byte	.LVL40
 4363 0232 0400     		.2byte	0x4
 4364 0234 F3       		.byte	0xf3
 4365 0235 01       		.uleb128 0x1
 4366 0236 53       		.byte	0x53
 4367 0237 9F       		.byte	0x9f
 4368 0238 1A000000 		.4byte	.LVL40
 4369 023c 21000000 		.4byte	.LVL41-1
 4370 0240 0100     		.2byte	0x1
 4371 0242 53       		.byte	0x53
 4372 0243 21000000 		.4byte	.LVL41-1
 4373 0247 28000000 		.4byte	.LFE126
 4374 024b 0400     		.2byte	0x4
 4375 024d F3       		.byte	0xf3
 4376 024e 01       		.uleb128 0x1
 4377 024f 53       		.byte	0x53
 4378 0250 9F       		.byte	0x9f
 4379 0251 00000000 		.4byte	0
 4380 0255 00000000 		.4byte	0
 4381              	.LLST13:
 4382 0259 1A000000 		.4byte	.LVL40
 4383 025d 21000000 		.4byte	.LVL41-1
 4384 0261 0100     		.2byte	0x1
 4385 0263 50       		.byte	0x50
 4386 0264 21000000 		.4byte	.LVL41-1
 4387 0268 28000000 		.4byte	.LFE126
 4388 026c 0100     		.2byte	0x1
 4389 026e 54       		.byte	0x54
ARM GAS  C:\Users\srich\AppData\Local\Temp\ccUnnuc1.s 			page 78


 4390 026f 00000000 		.4byte	0
 4391 0273 00000000 		.4byte	0
 4392              	.LLST14:
 4393 0277 00000000 		.4byte	.LVL42
 4394 027b 0A000000 		.4byte	.LVL43
 4395 027f 0100     		.2byte	0x1
 4396 0281 50       		.byte	0x50
 4397 0282 0A000000 		.4byte	.LVL43
 4398 0286 0C000000 		.4byte	.LVL44
 4399 028a 0400     		.2byte	0x4
 4400 028c F3       		.byte	0xf3
 4401 028d 01       		.uleb128 0x1
 4402 028e 50       		.byte	0x50
 4403 028f 9F       		.byte	0x9f
 4404 0290 0C000000 		.4byte	.LVL44
 4405 0294 15000000 		.4byte	.LVL45-1
 4406 0298 0100     		.2byte	0x1
 4407 029a 50       		.byte	0x50
 4408 029b 15000000 		.4byte	.LVL45-1
 4409 029f 1A000000 		.4byte	.LFE128
 4410 02a3 0100     		.2byte	0x1
 4411 02a5 54       		.byte	0x54
 4412 02a6 00000000 		.4byte	0
 4413 02aa 00000000 		.4byte	0
 4414              	.LLST15:
 4415 02ae 0C000000 		.4byte	.LVL44
 4416 02b2 15000000 		.4byte	.LVL45-1
 4417 02b6 0100     		.2byte	0x1
 4418 02b8 50       		.byte	0x50
 4419 02b9 15000000 		.4byte	.LVL45-1
 4420 02bd 1A000000 		.4byte	.LFE128
 4421 02c1 0100     		.2byte	0x1
 4422 02c3 54       		.byte	0x54
 4423 02c4 00000000 		.4byte	0
 4424 02c8 00000000 		.4byte	0
 4425              	.LLST16:
 4426 02cc 00000000 		.4byte	.LVL46
 4427 02d0 06000000 		.4byte	.LVL47
 4428 02d4 0100     		.2byte	0x1
 4429 02d6 50       		.byte	0x50
 4430 02d7 06000000 		.4byte	.LVL47
 4431 02db 3A000000 		.4byte	.LVL50
 4432 02df 0100     		.2byte	0x1
 4433 02e1 54       		.byte	0x54
 4434 02e2 3A000000 		.4byte	.LVL50
 4435 02e6 40000000 		.4byte	.LFE118
 4436 02ea 0400     		.2byte	0x4
 4437 02ec F3       		.byte	0xf3
 4438 02ed 01       		.uleb128 0x1
 4439 02ee 50       		.byte	0x50
 4440 02ef 9F       		.byte	0x9f
 4441 02f0 00000000 		.4byte	0
 4442 02f4 00000000 		.4byte	0
 4443              	.LLST17:
 4444 02f8 00000000 		.4byte	.LVL51
 4445 02fc 1D000000 		.4byte	.LVL53-1
 4446 0300 0100     		.2byte	0x1
ARM GAS  C:\Users\srich\AppData\Local\Temp\ccUnnuc1.s 			page 79


 4447 0302 50       		.byte	0x50
 4448 0303 1D000000 		.4byte	.LVL53-1
 4449 0307 2E000000 		.4byte	.LVL55
 4450 030b 0100     		.2byte	0x1
 4451 030d 54       		.byte	0x54
 4452 030e 2E000000 		.4byte	.LVL55
 4453 0312 38000000 		.4byte	.LVL56
 4454 0316 0100     		.2byte	0x1
 4455 0318 50       		.byte	0x50
 4456 0319 38000000 		.4byte	.LVL56
 4457 031d 3A000000 		.4byte	.LFE124
 4458 0321 0400     		.2byte	0x4
 4459 0323 F3       		.byte	0xf3
 4460 0324 01       		.uleb128 0x1
 4461 0325 50       		.byte	0x50
 4462 0326 9F       		.byte	0x9f
 4463 0327 00000000 		.4byte	0
 4464 032b 00000000 		.4byte	0
 4465              	.LLST18:
 4466 032f 0E000000 		.4byte	.LVL52
 4467 0333 1D000000 		.4byte	.LVL53-1
 4468 0337 0100     		.2byte	0x1
 4469 0339 50       		.byte	0x50
 4470 033a 1D000000 		.4byte	.LVL53-1
 4471 033e 2E000000 		.4byte	.LVL55
 4472 0342 0100     		.2byte	0x1
 4473 0344 54       		.byte	0x54
 4474 0345 00000000 		.4byte	0
 4475 0349 00000000 		.4byte	0
 4476              	.LLST19:
 4477 034d 00000000 		.4byte	.LVL59
 4478 0351 0F000000 		.4byte	.LVL60-1
 4479 0355 0100     		.2byte	0x1
 4480 0357 50       		.byte	0x50
 4481 0358 0F000000 		.4byte	.LVL60-1
 4482 035c 1C000000 		.4byte	.LFE121
 4483 0360 0100     		.2byte	0x1
 4484 0362 54       		.byte	0x54
 4485 0363 00000000 		.4byte	0
 4486 0367 00000000 		.4byte	0
 4487              	.LLST20:
 4488 036b 00000000 		.4byte	.LVL59
 4489 036f 0F000000 		.4byte	.LVL60-1
 4490 0373 0100     		.2byte	0x1
 4491 0375 51       		.byte	0x51
 4492 0376 0F000000 		.4byte	.LVL60-1
 4493 037a 1C000000 		.4byte	.LFE121
 4494 037e 0400     		.2byte	0x4
 4495 0380 F3       		.byte	0xf3
 4496 0381 01       		.uleb128 0x1
 4497 0382 51       		.byte	0x51
 4498 0383 9F       		.byte	0x9f
 4499 0384 00000000 		.4byte	0
 4500 0388 00000000 		.4byte	0
 4501              	.LLST21:
 4502 038c 00000000 		.4byte	.LVL61
 4503 0390 0D000000 		.4byte	.LVL62-1
ARM GAS  C:\Users\srich\AppData\Local\Temp\ccUnnuc1.s 			page 80


 4504 0394 0100     		.2byte	0x1
 4505 0396 50       		.byte	0x50
 4506 0397 0D000000 		.4byte	.LVL62-1
 4507 039b 1A000000 		.4byte	.LFE122
 4508 039f 0100     		.2byte	0x1
 4509 03a1 54       		.byte	0x54
 4510 03a2 00000000 		.4byte	0
 4511 03a6 00000000 		.4byte	0
 4512              	.LLST22:
 4513 03aa 00000000 		.4byte	.LVL63
 4514 03ae 0C000000 		.4byte	.LVL64
 4515 03b2 0100     		.2byte	0x1
 4516 03b4 50       		.byte	0x50
 4517 03b5 0C000000 		.4byte	.LVL64
 4518 03b9 14000000 		.4byte	.LFE127
 4519 03bd 0100     		.2byte	0x1
 4520 03bf 52       		.byte	0x52
 4521 03c0 00000000 		.4byte	0
 4522 03c4 00000000 		.4byte	0
 4523              	.LLST23:
 4524 03c8 00000000 		.4byte	.LVL65
 4525 03cc 06000000 		.4byte	.LVL66
 4526 03d0 0100     		.2byte	0x1
 4527 03d2 50       		.byte	0x50
 4528 03d3 06000000 		.4byte	.LVL66
 4529 03d7 88000000 		.4byte	.LFE130
 4530 03db 0100     		.2byte	0x1
 4531 03dd 54       		.byte	0x54
 4532 03de 00000000 		.4byte	0
 4533 03e2 00000000 		.4byte	0
 4534              	.LLST24:
 4535 03e6 00000000 		.4byte	.LVL65
 4536 03ea 14000000 		.4byte	.LVL67
 4537 03ee 0100     		.2byte	0x1
 4538 03f0 51       		.byte	0x51
 4539 03f1 14000000 		.4byte	.LVL67
 4540 03f5 36000000 		.4byte	.LVL71
 4541 03f9 0100     		.2byte	0x1
 4542 03fb 55       		.byte	0x55
 4543 03fc 42000000 		.4byte	.LVL72
 4544 0400 68000000 		.4byte	.LVL75
 4545 0404 0100     		.2byte	0x1
 4546 0406 55       		.byte	0x55
 4547 0407 00000000 		.4byte	0
 4548 040b 00000000 		.4byte	0
 4549              	.LLST25:
 4550 040f 00000000 		.4byte	.LVL65
 4551 0413 1C000000 		.4byte	.LVL68
 4552 0417 0100     		.2byte	0x1
 4553 0419 52       		.byte	0x52
 4554 041a 1C000000 		.4byte	.LVL68
 4555 041e 88000000 		.4byte	.LFE130
 4556 0422 0100     		.2byte	0x1
 4557 0424 56       		.byte	0x56
 4558 0425 00000000 		.4byte	0
 4559 0429 00000000 		.4byte	0
 4560              		.section	.debug_aranges,"",%progbits
ARM GAS  C:\Users\srich\AppData\Local\Temp\ccUnnuc1.s 			page 81


 4561 0000 7C000000 		.4byte	0x7c
 4562 0004 0200     		.2byte	0x2
 4563 0006 00000000 		.4byte	.Ldebug_info0
 4564 000a 04       		.byte	0x4
 4565 000b 00       		.byte	0
 4566 000c 0000     		.2byte	0
 4567 000e 0000     		.2byte	0
 4568 0010 00000000 		.4byte	.LFB129
 4569 0014 18000000 		.4byte	.LFE129-.LFB129
 4570 0018 00000000 		.4byte	.LFB123
 4571 001c B4010000 		.4byte	.LFE123-.LFB123
 4572 0020 00000000 		.4byte	.LFB125
 4573 0024 28000000 		.4byte	.LFE125-.LFB125
 4574 0028 00000000 		.4byte	.LFB126
 4575 002c 28000000 		.4byte	.LFE126-.LFB126
 4576 0030 00000000 		.4byte	.LFB128
 4577 0034 1A000000 		.4byte	.LFE128-.LFB128
 4578 0038 00000000 		.4byte	.LFB118
 4579 003c 40000000 		.4byte	.LFE118-.LFB118
 4580 0040 00000000 		.4byte	.LFB124
 4581 0044 3A000000 		.4byte	.LFE124-.LFB124
 4582 0048 00000000 		.4byte	.LFB119
 4583 004c 04000000 		.4byte	.LFE119-.LFB119
 4584 0050 00000000 		.4byte	.LFB120
 4585 0054 18000000 		.4byte	.LFE120-.LFB120
 4586 0058 00000000 		.4byte	.LFB121
 4587 005c 1C000000 		.4byte	.LFE121-.LFB121
 4588 0060 00000000 		.4byte	.LFB122
 4589 0064 1A000000 		.4byte	.LFE122-.LFB122
 4590 0068 00000000 		.4byte	.LFB127
 4591 006c 14000000 		.4byte	.LFE127-.LFB127
 4592 0070 00000000 		.4byte	.LFB130
 4593 0074 88000000 		.4byte	.LFE130-.LFB130
 4594 0078 00000000 		.4byte	0
 4595 007c 00000000 		.4byte	0
 4596              		.section	.debug_ranges,"",%progbits
 4597              	.Ldebug_ranges0:
 4598 0000 02000000 		.4byte	.LBB30
 4599 0004 04000000 		.4byte	.LBE30
 4600 0008 06000000 		.4byte	.LBB31
 4601 000c 0A000000 		.4byte	.LBE31
 4602 0010 00000000 		.4byte	0
 4603 0014 00000000 		.4byte	0
 4604 0018 02000000 		.4byte	.LBB33
 4605 001c 04000000 		.4byte	.LBE33
 4606 0020 06000000 		.4byte	.LBB34
 4607 0024 0A000000 		.4byte	.LBE34
 4608 0028 00000000 		.4byte	0
 4609 002c 00000000 		.4byte	0
 4610 0030 00000000 		.4byte	.LFB129
 4611 0034 18000000 		.4byte	.LFE129
 4612 0038 00000000 		.4byte	.LFB123
 4613 003c B4010000 		.4byte	.LFE123
 4614 0040 00000000 		.4byte	.LFB125
 4615 0044 28000000 		.4byte	.LFE125
 4616 0048 00000000 		.4byte	.LFB126
 4617 004c 28000000 		.4byte	.LFE126
ARM GAS  C:\Users\srich\AppData\Local\Temp\ccUnnuc1.s 			page 82


 4618 0050 00000000 		.4byte	.LFB128
 4619 0054 1A000000 		.4byte	.LFE128
 4620 0058 00000000 		.4byte	.LFB118
 4621 005c 40000000 		.4byte	.LFE118
 4622 0060 00000000 		.4byte	.LFB124
 4623 0064 3A000000 		.4byte	.LFE124
 4624 0068 00000000 		.4byte	.LFB119
 4625 006c 04000000 		.4byte	.LFE119
 4626 0070 00000000 		.4byte	.LFB120
 4627 0074 18000000 		.4byte	.LFE120
 4628 0078 00000000 		.4byte	.LFB121
 4629 007c 1C000000 		.4byte	.LFE121
 4630 0080 00000000 		.4byte	.LFB122
 4631 0084 1A000000 		.4byte	.LFE122
 4632 0088 00000000 		.4byte	.LFB127
 4633 008c 14000000 		.4byte	.LFE127
 4634 0090 00000000 		.4byte	.LFB130
 4635 0094 88000000 		.4byte	.LFE130
 4636 0098 00000000 		.4byte	0
 4637 009c 00000000 		.4byte	0
 4638              		.section	.debug_line,"",%progbits
 4639              	.Ldebug_line0:
 4640 0000 61040000 		.section	.debug_str,"MS",%progbits,1
 4640      02008702 
 4640      00000201 
 4640      FB0E0D00 
 4640      01010101 
 4641              	.LASF82:
 4642 0000 426C6F63 		.ascii	"BlockDeviceInfo\000"
 4642      6B446576 
 4642      69636549 
 4642      6E666F00 
 4643              	.LASF91:
 4644 0010 63617061 		.ascii	"capacity\000"
 4644      63697479 
 4644      00
 4645              	.LASF121:
 4646 0019 73646349 		.ascii	"sdcInit\000"
 4646      6E697400 
 4647              	.LASF37:
 4648 0021 705F7469 		.ascii	"p_time\000"
 4648      6D6500
 4649              	.LASF81:
 4650 0028 626C6B5F 		.ascii	"blk_num\000"
 4650      6E756D00 
 4651              	.LASF55:
 4652 0030 7264796D 		.ascii	"rdymsg\000"
 4652      736700
 4653              	.LASF101:
 4654 0037 69735F70 		.ascii	"is_protected\000"
 4654      726F7465 
 4654      63746564 
 4654      00
 4655              	.LASF61:
 4656 0044 4D304152 		.ascii	"M0AR\000"
 4656      00
 4657              	.LASF5:
ARM GAS  C:\Users\srich\AppData\Local\Temp\ccUnnuc1.s 			page 83


 4658 0049 5F5F7569 		.ascii	"__uint8_t\000"
 4658      6E74385F 
 4658      7400
 4659              	.LASF116:
 4660 0053 62646970 		.ascii	"bdip\000"
 4660      00
 4661              	.LASF64:
 4662 0058 73747265 		.ascii	"stream\000"
 4662      616D00
 4663              	.LASF11:
 4664 005f 6C6F6E67 		.ascii	"long long unsigned int\000"
 4664      206C6F6E 
 4664      6720756E 
 4664      7369676E 
 4664      65642069 
 4665              	.LASF56:
 4666 0076 65786974 		.ascii	"exitcode\000"
 4666      636F6465 
 4666      00
 4667              	.LASF68:
 4668 007f 76656374 		.ascii	"vector\000"
 4668      6F7200
 4669              	.LASF93:
 4670 0086 63617264 		.ascii	"cardmode\000"
 4670      6D6F6465 
 4670      00
 4671              	.LASF148:
 4672 008f 49544D5F 		.ascii	"ITM_RxBuffer\000"
 4672      52784275 
 4672      66666572 
 4672      00
 4673              	.LASF79:
 4674 009c 626C6B73 		.ascii	"blkstate_t\000"
 4674      74617465 
 4674      5F7400
 4675              	.LASF115:
 4676 00a7 73646344 		.ascii	"sdcDisconnect\000"
 4676      6973636F 
 4676      6E6E6563 
 4676      7400
 4677              	.LASF28:
 4678 00b5 705F7072 		.ascii	"p_prio\000"
 4678      696F00
 4679              	.LASF10:
 4680 00bc 6C6F6E67 		.ascii	"long long int\000"
 4680      206C6F6E 
 4680      6720696E 
 4680      7400
 4681              	.LASF1:
 4682 00ca 7369676E 		.ascii	"signed char\000"
 4682      65642063 
 4682      68617200 
 4683              	.LASF83:
 4684 00d6 5344435F 		.ascii	"SDC_MODE_1BIT\000"
 4684      4D4F4445 
 4684      5F314249 
 4684      5400
ARM GAS  C:\Users\srich\AppData\Local\Temp\ccUnnuc1.s 			page 84


 4685              	.LASF44:
 4686 00e4 705F6D70 		.ascii	"p_mpool\000"
 4686      6F6F6C00 
 4687              	.LASF15:
 4688 00ec 626F6F6C 		.ascii	"bool_t\000"
 4688      5F7400
 4689              	.LASF52:
 4690 00f3 6D5F7175 		.ascii	"m_queue\000"
 4690      65756500 
 4691              	.LASF103:
 4692 00fb 64697363 		.ascii	"disconnect\000"
 4692      6F6E6E65 
 4692      637400
 4693              	.LASF20:
 4694 0106 74736C69 		.ascii	"tslices_t\000"
 4694      6365735F 
 4694      7400
 4695              	.LASF70:
 4696 0110 424C4B5F 		.ascii	"BLK_UNINIT\000"
 4696      554E494E 
 4696      495400
 4697              	.LASF90:
 4698 011b 73746174 		.ascii	"state\000"
 4698      6500
 4699              	.LASF7:
 4700 0121 6C6F6E67 		.ascii	"long int\000"
 4700      20696E74 
 4700      00
 4701              	.LASF18:
 4702 012a 74737461 		.ascii	"tstate_t\000"
 4702      74655F74 
 4702      00
 4703              	.LASF78:
 4704 0133 424C4B5F 		.ascii	"BLK_SYNCING\000"
 4704      53594E43 
 4704      494E4700 
 4705              	.LASF147:
 4706 013f 443A5C47 		.ascii	"D:\\GitHub\\Smarty\\smarty\\firmware\000"
 4706      69744875 
 4706      625C536D 
 4706      61727479 
 4706      5C736D61 
 4707              	.LASF71:
 4708 0160 424C4B5F 		.ascii	"BLK_STOP\000"
 4708      53544F50 
 4708      00
 4709              	.LASF72:
 4710 0169 424C4B5F 		.ascii	"BLK_ACTIVE\000"
 4710      41435449 
 4710      564500
 4711              	.LASF30:
 4712 0174 705F6E65 		.ascii	"p_newer\000"
 4712      77657200 
 4713              	.LASF99:
 4714 017c 53444344 		.ascii	"SDCDriverVMT\000"
 4714      72697665 
 4714      72564D54 
ARM GAS  C:\Users\srich\AppData\Local\Temp\ccUnnuc1.s 			page 85


 4714      00
 4715              	.LASF107:
 4716 0189 6765745F 		.ascii	"get_info\000"
 4716      696E666F 
 4716      00
 4717              	.LASF8:
 4718 0192 5F5F7569 		.ascii	"__uint32_t\000"
 4718      6E743332 
 4718      5F7400
 4719              	.LASF47:
 4720 019d 72656761 		.ascii	"regarm_t\000"
 4720      726D5F74 
 4720      00
 4721              	.LASF67:
 4722 01a6 73656C66 		.ascii	"selfindex\000"
 4722      696E6465 
 4722      7800
 4723              	.LASF97:
 4724 01b0 64756D6D 		.ascii	"dummy\000"
 4724      7900
 4725              	.LASF80:
 4726 01b6 626C6B5F 		.ascii	"blk_size\000"
 4726      73697A65 
 4726      00
 4727              	.LASF87:
 4728 01bf 7364636D 		.ascii	"sdcmode_t\000"
 4728      6F64655F 
 4728      7400
 4729              	.LASF137:
 4730 01c9 7364635F 		.ascii	"sdc_lld_send_cmd_long_crc\000"
 4730      6C6C645F 
 4730      73656E64 
 4730      5F636D64 
 4730      5F6C6F6E 
 4731              	.LASF119:
 4732 01e3 72657370 		.ascii	"resp\000"
 4732      00
 4733              	.LASF0:
 4734 01e8 756E7369 		.ascii	"unsigned int\000"
 4734      676E6564 
 4734      20696E74 
 4734      00
 4735              	.LASF130:
 4736 01f5 7364635F 		.ascii	"sdc_vmt\000"
 4736      766D7400 
 4737              	.LASF118:
 4738 01fd 73646343 		.ascii	"sdcConnect\000"
 4738      6F6E6E65 
 4738      637400
 4739              	.LASF94:
 4740 0208 6572726F 		.ascii	"errors\000"
 4740      727300
 4741              	.LASF39:
 4742 020f 705F6D73 		.ascii	"p_msgqueue\000"
 4742      67717565 
 4742      756500
 4743              	.LASF140:
ARM GAS  C:\Users\srich\AppData\Local\Temp\ccUnnuc1.s 			page 86


 4744 021a 6D6D6373 		.ascii	"mmcsdGetCapacity\000"
 4744      64476574 
 4744      43617061 
 4744      63697479 
 4744      00
 4745              	.LASF131:
 4746 022b 7364635F 		.ascii	"sdc_lld_send_cmd_short_crc\000"
 4746      6C6C645F 
 4746      73656E64 
 4746      5F636D64 
 4746      5F73686F 
 4747              	.LASF66:
 4748 0246 69736869 		.ascii	"ishift\000"
 4748      667400
 4749              	.LASF85:
 4750 024d 5344435F 		.ascii	"SDC_MODE_8BIT\000"
 4750      4D4F4445 
 4750      5F384249 
 4750      5400
 4751              	.LASF4:
 4752 025b 73686F72 		.ascii	"short unsigned int\000"
 4752      7420756E 
 4752      7369676E 
 4752      65642069 
 4752      6E7400
 4753              	.LASF143:
 4754 026e 7364635F 		.ascii	"sdc_lld_sync\000"
 4754      6C6C645F 
 4754      73796E63 
 4754      00
 4755              	.LASF22:
 4756 027b 6D73675F 		.ascii	"msg_t\000"
 4756      7400
 4757              	.LASF141:
 4758 0281 7364635F 		.ascii	"sdc_lld_read\000"
 4758      6C6C645F 
 4758      72656164 
 4758      00
 4759              	.LASF73:
 4760 028e 424C4B5F 		.ascii	"BLK_CONNECTING\000"
 4760      434F4E4E 
 4760      45435449 
 4760      4E4700
 4761              	.LASF17:
 4762 029d 746D6F64 		.ascii	"tmode_t\000"
 4762      655F7400 
 4763              	.LASF46:
 4764 02a5 54687265 		.ascii	"ThreadsList\000"
 4764      6164734C 
 4764      69737400 
 4765              	.LASF23:
 4766 02b1 6576656E 		.ascii	"eventmask_t\000"
 4766      746D6173 
 4766      6B5F7400 
 4767              	.LASF51:
 4768 02bd 4D757465 		.ascii	"Mutex\000"
 4768      7800
ARM GAS  C:\Users\srich\AppData\Local\Temp\ccUnnuc1.s 			page 87


 4769              	.LASF150:
 4770 02c3 7364635F 		.ascii	"sdc_lld_stop\000"
 4770      6C6C645F 
 4770      73746F70 
 4770      00
 4771              	.LASF105:
 4772 02d0 77726974 		.ascii	"write\000"
 4772      6500
 4773              	.LASF76:
 4774 02d6 424C4B5F 		.ascii	"BLK_READING\000"
 4774      52454144 
 4774      494E4700 
 4775              	.LASF50:
 4776 02e2 73697A65 		.ascii	"sizetype\000"
 4776      74797065 
 4776      00
 4777              	.LASF135:
 4778 02eb 7364635F 		.ascii	"sdc_lld_send_cmd_none\000"
 4778      6C6C645F 
 4778      73656E64 
 4778      5F636D64 
 4778      5F6E6F6E 
 4779              	.LASF120:
 4780 0301 5F736463 		.ascii	"_sdc_wait_for_transfer_state\000"
 4780      5F776169 
 4780      745F666F 
 4780      725F7472 
 4780      616E7366 
 4781              	.LASF144:
 4782 031e 7364635F 		.ascii	"sdc_lld_start\000"
 4782      6C6C645F 
 4782      73746172 
 4782      7400
 4783              	.LASF41:
 4784 032c 705F6570 		.ascii	"p_epending\000"
 4784      656E6469 
 4784      6E6700
 4785              	.LASF145:
 4786 0337 474E5520 		.ascii	"GNU C 4.9.3 20150529 (release) [ARM/embedded-4_9-br"
 4786      4320342E 
 4786      392E3320 
 4786      32303135 
 4786      30353239 
 4787 036a 616E6368 		.ascii	"anch revision 227977] -mcpu=cortex-m4 -mno-thumb-in"
 4787      20726576 
 4787      6973696F 
 4787      6E203232 
 4787      37393737 
 4788 039d 74657277 		.ascii	"terwork -mthumb -ggdb -O2 -fomit-frame-pointer -fal"
 4788      6F726B20 
 4788      2D6D7468 
 4788      756D6220 
 4788      2D676764 
 4789 03d0 69676E2D 		.ascii	"ign-functions=16 -ffunction-sections -fdata-section"
 4789      66756E63 
 4789      74696F6E 
 4789      733D3136 
ARM GAS  C:\Users\srich\AppData\Local\Temp\ccUnnuc1.s 			page 88


 4789      202D6666 
 4790 0403 73202D66 		.ascii	"s -fno-common\000"
 4790      6E6F2D63 
 4790      6F6D6D6F 
 4790      6E00
 4791              	.LASF127:
 4792 0411 73646345 		.ascii	"sdcErase\000"
 4792      72617365 
 4792      00
 4793              	.LASF111:
 4794 041a 73646357 		.ascii	"sdcWrite\000"
 4794      72697465 
 4794      00
 4795              	.LASF75:
 4796 0423 424C4B5F 		.ascii	"BLK_READY\000"
 4796      52454144 
 4796      5900
 4797              	.LASF45:
 4798 042d 54687265 		.ascii	"ThreadsQueue\000"
 4798      61647351 
 4798      75657565 
 4798      00
 4799              	.LASF113:
 4800 043a 73646353 		.ascii	"sdcSync\000"
 4800      796E6300 
 4801              	.LASF129:
 4802 0442 6661696C 		.ascii	"failed\000"
 4802      656400
 4803              	.LASF110:
 4804 0449 73646352 		.ascii	"sdcRead\000"
 4804      65616400 
 4805              	.LASF146:
 4806 0451 2E2E2F2E 		.ascii	"../../../ChibiOS/os/hal/src/sdc.c\000"
 4806      2E2F2E2E 
 4806      2F436869 
 4806      62694F53 
 4806      2F6F732F 
 4807              	.LASF122:
 4808 0473 7364634F 		.ascii	"sdcObjectInit\000"
 4808      626A6563 
 4808      74496E69 
 4808      7400
 4809              	.LASF19:
 4810 0481 74726566 		.ascii	"trefs_t\000"
 4810      735F7400 
 4811              	.LASF106:
 4812 0489 73796E63 		.ascii	"sync\000"
 4812      00
 4813              	.LASF123:
 4814 048e 73646353 		.ascii	"sdcStart\000"
 4814      74617274 
 4814      00
 4815              	.LASF27:
 4816 0497 705F7072 		.ascii	"p_prev\000"
 4816      657600
 4817              	.LASF69:
 4818 049e 73746D33 		.ascii	"stm32_dma_stream_t\000"
ARM GAS  C:\Users\srich\AppData\Local\Temp\ccUnnuc1.s 			page 89


 4818      325F646D 
 4818      615F7374 
 4818      7265616D 
 4818      5F7400
 4819              	.LASF124:
 4820 04b1 73646353 		.ascii	"sdcStop\000"
 4820      746F7000 
 4821              	.LASF21:
 4822 04b9 74707269 		.ascii	"tprio_t\000"
 4822      6F5F7400 
 4823              	.LASF95:
 4824 04c1 74687265 		.ascii	"thread\000"
 4824      616400
 4825              	.LASF16:
 4826 04c8 5F426F6F 		.ascii	"_Bool\000"
 4826      6C00
 4827              	.LASF13:
 4828 04ce 696E7433 		.ascii	"int32_t\000"
 4828      325F7400 
 4829              	.LASF2:
 4830 04d6 756E7369 		.ascii	"unsigned char\000"
 4830      676E6564 
 4830      20636861 
 4830      7200
 4831              	.LASF142:
 4832 04e4 7364635F 		.ascii	"sdc_lld_write\000"
 4832      6C6C645F 
 4832      77726974 
 4832      6500
 4833              	.LASF42:
 4834 04f2 705F6D74 		.ascii	"p_mtxlist\000"
 4834      786C6973 
 4834      7400
 4835              	.LASF3:
 4836 04fc 73686F72 		.ascii	"short int\000"
 4836      7420696E 
 4836      7400
 4837              	.LASF33:
 4838 0506 705F7374 		.ascii	"p_state\000"
 4838      61746500 
 4839              	.LASF77:
 4840 050e 424C4B5F 		.ascii	"BLK_WRITING\000"
 4840      57524954 
 4840      494E4700 
 4841              	.LASF36:
 4842 051a 705F7072 		.ascii	"p_preempt\000"
 4842      65656D70 
 4842      7400
 4843              	.LASF31:
 4844 0524 705F6F6C 		.ascii	"p_older\000"
 4844      64657200 
 4845              	.LASF58:
 4846 052c 65776D61 		.ascii	"ewmask\000"
 4846      736B00
 4847              	.LASF26:
 4848 0533 705F6E65 		.ascii	"p_next\000"
 4848      787400
ARM GAS  C:\Users\srich\AppData\Local\Temp\ccUnnuc1.s 			page 90


 4849              	.LASF138:
 4850 053a 7364635F 		.ascii	"sdc_lld_set_data_clk\000"
 4850      6C6C645F 
 4850      7365745F 
 4850      64617461 
 4850      5F636C6B 
 4851              	.LASF34:
 4852 054f 705F666C 		.ascii	"p_flags\000"
 4852      61677300 
 4853              	.LASF25:
 4854 0557 54687265 		.ascii	"Thread\000"
 4854      616400
 4855              	.LASF86:
 4856 055e 73646362 		.ascii	"sdcbusmode_t\000"
 4856      75736D6F 
 4856      64655F74 
 4856      00
 4857              	.LASF102:
 4858 056b 636F6E6E 		.ascii	"connect\000"
 4858      65637400 
 4859              	.LASF134:
 4860 0573 7364635F 		.ascii	"sdc_lld_start_clk\000"
 4860      6C6C645F 
 4860      73746172 
 4860      745F636C 
 4860      6B00
 4861              	.LASF65:
 4862 0585 69666372 		.ascii	"ifcr\000"
 4862      00
 4863              	.LASF14:
 4864 058a 75696E74 		.ascii	"uint32_t\000"
 4864      33325F74 
 4864      00
 4865              	.LASF139:
 4866 0593 7364635F 		.ascii	"sdc_lld_set_bus_mode\000"
 4866      6C6C645F 
 4866      7365745F 
 4866      6275735F 
 4866      6D6F6465 
 4867              	.LASF9:
 4868 05a8 6C6F6E67 		.ascii	"long unsigned int\000"
 4868      20756E73 
 4868      69676E65 
 4868      6420696E 
 4868      7400
 4869              	.LASF104:
 4870 05ba 72656164 		.ascii	"read\000"
 4870      00
 4871              	.LASF59:
 4872 05bf 63686172 		.ascii	"char\000"
 4872      00
 4873              	.LASF74:
 4874 05c4 424C4B5F 		.ascii	"BLK_DISCONNECTING\000"
 4874      44495343 
 4874      4F4E4E45 
 4874      4354494E 
 4874      4700
ARM GAS  C:\Users\srich\AppData\Local\Temp\ccUnnuc1.s 			page 91


 4875              	.LASF92:
 4876 05d6 636F6E66 		.ascii	"config\000"
 4876      696700
 4877              	.LASF108:
 4878 05dd 73646370 		.ascii	"sdcp\000"
 4878      00
 4879              	.LASF54:
 4880 05e2 6D5F6E65 		.ascii	"m_next\000"
 4880      787400
 4881              	.LASF24:
 4882 05e9 73797374 		.ascii	"systime_t\000"
 4882      696D655F 
 4882      7400
 4883              	.LASF43:
 4884 05f3 705F7265 		.ascii	"p_realprio\000"
 4884      616C7072 
 4884      696F00
 4885              	.LASF6:
 4886 05fe 5F5F696E 		.ascii	"__int32_t\000"
 4886      7433325F 
 4886      7400
 4887              	.LASF60:
 4888 0608 4E445452 		.ascii	"NDTR\000"
 4888      00
 4889              	.LASF63:
 4890 060d 444D415F 		.ascii	"DMA_Stream_TypeDef\000"
 4890      53747265 
 4890      616D5F54 
 4890      79706544 
 4890      656600
 4891              	.LASF109:
 4892 0620 73746172 		.ascii	"startblk\000"
 4892      74626C6B 
 4892      00
 4893              	.LASF84:
 4894 0629 5344435F 		.ascii	"SDC_MODE_4BIT\000"
 4894      4D4F4445 
 4894      5F344249 
 4894      5400
 4895              	.LASF49:
 4896 0637 636F6E74 		.ascii	"context\000"
 4896      65787400 
 4897              	.LASF88:
 4898 063f 73646366 		.ascii	"sdcflags_t\000"
 4898      6C616773 
 4898      5F7400
 4899              	.LASF48:
 4900 064a 696E7463 		.ascii	"intctx\000"
 4900      747800
 4901              	.LASF100:
 4902 0651 69735F69 		.ascii	"is_inserted\000"
 4902      6E736572 
 4902      74656400 
 4903              	.LASF62:
 4904 065d 4D314152 		.ascii	"M1AR\000"
 4904      00
 4905              	.LASF136:
ARM GAS  C:\Users\srich\AppData\Local\Temp\ccUnnuc1.s 			page 92


 4906 0662 7364635F 		.ascii	"sdc_lld_stop_clk\000"
 4906      6C6C645F 
 4906      73746F70 
 4906      5F636C6B 
 4906      00
 4907              	.LASF149:
 4908 0673 7364635F 		.ascii	"sdc_lld_init\000"
 4908      6C6C645F 
 4908      696E6974 
 4908      00
 4909              	.LASF133:
 4910 0680 63685468 		.ascii	"chThdSleep\000"
 4910      64536C65 
 4910      657000
 4911              	.LASF35:
 4912 068b 705F7265 		.ascii	"p_refs\000"
 4912      667300
 4913              	.LASF117:
 4914 0692 73646347 		.ascii	"sdcGetInfo\000"
 4914      6574496E 
 4914      666F00
 4915              	.LASF112:
 4916 069d 73746174 		.ascii	"status\000"
 4916      757300
 4917              	.LASF98:
 4918 06a4 53444343 		.ascii	"SDCConfig\000"
 4918      6F6E6669 
 4918      6700
 4919              	.LASF12:
 4920 06ae 75696E74 		.ascii	"uint8_t\000"
 4920      385F7400 
 4921              	.LASF126:
 4922 06b6 666C6167 		.ascii	"flags\000"
 4922      7300
 4923              	.LASF128:
 4924 06bc 656E6462 		.ascii	"endblk\000"
 4924      6C6B00
 4925              	.LASF96:
 4926 06c3 646D616D 		.ascii	"dmamode\000"
 4926      6F646500 
 4927              	.LASF57:
 4928 06cb 77746F62 		.ascii	"wtobjp\000"
 4928      6A7000
 4929              	.LASF32:
 4930 06d2 705F6E61 		.ascii	"p_name\000"
 4930      6D6500
 4931              	.LASF125:
 4932 06d9 73646347 		.ascii	"sdcGetAndClearErrors\000"
 4932      6574416E 
 4932      64436C65 
 4932      61724572 
 4932      726F7273 
 4933              	.LASF132:
 4934 06ee 7364635F 		.ascii	"sdc_lld_send_cmd_short\000"
 4934      6C6C645F 
 4934      73656E64 
 4934      5F636D64 
ARM GAS  C:\Users\srich\AppData\Local\Temp\ccUnnuc1.s 			page 93


 4934      5F73686F 
 4935              	.LASF40:
 4936 0705 705F6D73 		.ascii	"p_msg\000"
 4936      6700
 4937              	.LASF53:
 4938 070b 6D5F6F77 		.ascii	"m_owner\000"
 4938      6E657200 
 4939              	.LASF114:
 4940 0713 72657375 		.ascii	"result\000"
 4940      6C7400
 4941              	.LASF89:
 4942 071a 53444344 		.ascii	"SDCDriver\000"
 4942      72697665 
 4942      7200
 4943              	.LASF29:
 4944 0724 705F6374 		.ascii	"p_ctx\000"
 4944      7800
 4945              	.LASF38:
 4946 072a 705F7761 		.ascii	"p_waiting\000"
 4946      6974696E 
 4946      6700
 4947              		.ident	"GCC: (GNU Tools for ARM Embedded Processors) 4.9.3 20150529 (release) [ARM/embedded-4_9-br
ARM GAS  C:\Users\srich\AppData\Local\Temp\ccUnnuc1.s 			page 94


DEFINED SYMBOLS
                            *ABS*:00000000 sdc.c
C:\Users\srich\AppData\Local\Temp\ccUnnuc1.s:19     .text.sdcGetInfo:00000000 $t
C:\Users\srich\AppData\Local\Temp\ccUnnuc1.s:25     .text.sdcGetInfo:00000000 sdcGetInfo
C:\Users\srich\AppData\Local\Temp\ccUnnuc1.s:59     .text.sdcConnect:00000000 $t
C:\Users\srich\AppData\Local\Temp\ccUnnuc1.s:65     .text.sdcConnect:00000000 sdcConnect
C:\Users\srich\AppData\Local\Temp\ccUnnuc1.s:359    .text.sdcConnect:000001a8 $d
C:\Users\srich\AppData\Local\Temp\ccUnnuc1.s:366    .text.sdcRead:00000000 $t
C:\Users\srich\AppData\Local\Temp\ccUnnuc1.s:372    .text.sdcRead:00000000 sdcRead
C:\Users\srich\AppData\Local\Temp\ccUnnuc1.s:424    .text.sdcWrite:00000000 $t
C:\Users\srich\AppData\Local\Temp\ccUnnuc1.s:430    .text.sdcWrite:00000000 sdcWrite
C:\Users\srich\AppData\Local\Temp\ccUnnuc1.s:482    .text.sdcSync:00000000 $t
C:\Users\srich\AppData\Local\Temp\ccUnnuc1.s:488    .text.sdcSync:00000000 sdcSync
C:\Users\srich\AppData\Local\Temp\ccUnnuc1.s:530    .text._sdc_wait_for_transfer_state:00000000 $t
C:\Users\srich\AppData\Local\Temp\ccUnnuc1.s:536    .text._sdc_wait_for_transfer_state:00000000 _sdc_wait_for_transfer_state
C:\Users\srich\AppData\Local\Temp\ccUnnuc1.s:597    .text._sdc_wait_for_transfer_state:0000003c $d
C:\Users\srich\AppData\Local\Temp\ccUnnuc1.s:602    .text.sdcDisconnect:00000000 $t
C:\Users\srich\AppData\Local\Temp\ccUnnuc1.s:608    .text.sdcDisconnect:00000000 sdcDisconnect
C:\Users\srich\AppData\Local\Temp\ccUnnuc1.s:685    .text.sdcInit:00000000 $t
C:\Users\srich\AppData\Local\Temp\ccUnnuc1.s:691    .text.sdcInit:00000000 sdcInit
C:\Users\srich\AppData\Local\Temp\ccUnnuc1.s:705    .text.sdcObjectInit:00000000 $t
C:\Users\srich\AppData\Local\Temp\ccUnnuc1.s:711    .text.sdcObjectInit:00000000 sdcObjectInit
C:\Users\srich\AppData\Local\Temp\ccUnnuc1.s:738    .text.sdcObjectInit:00000014 $d
C:\Users\srich\AppData\Local\Temp\ccUnnuc1.s:743    .text.sdcStart:00000000 $t
C:\Users\srich\AppData\Local\Temp\ccUnnuc1.s:749    .text.sdcStart:00000000 sdcStart
C:\Users\srich\AppData\Local\Temp\ccUnnuc1.s:794    .text.sdcStop:00000000 $t
C:\Users\srich\AppData\Local\Temp\ccUnnuc1.s:800    .text.sdcStop:00000000 sdcStop
C:\Users\srich\AppData\Local\Temp\ccUnnuc1.s:843    .text.sdcGetAndClearErrors:00000000 $t
C:\Users\srich\AppData\Local\Temp\ccUnnuc1.s:849    .text.sdcGetAndClearErrors:00000000 sdcGetAndClearErrors
C:\Users\srich\AppData\Local\Temp\ccUnnuc1.s:887    .text.sdcErase:00000000 $t
C:\Users\srich\AppData\Local\Temp\ccUnnuc1.s:893    .text.sdcErase:00000000 sdcErase
C:\Users\srich\AppData\Local\Temp\ccUnnuc1.s:1013   .text.sdcErase:00000084 $d
C:\Users\srich\AppData\Local\Temp\ccUnnuc1.s:1018   .rodata.sdc_vmt:00000000 $d
C:\Users\srich\AppData\Local\Temp\ccUnnuc1.s:1022   .rodata.sdc_vmt:00000000 sdc_vmt
                     .debug_frame:00000010 $d

UNDEFINED SYMBOLS
sdc_lld_start_clk
sdc_lld_send_cmd_none
sdc_lld_send_cmd_short_crc
sdc_lld_stop_clk
chThdSleep
sdc_lld_send_cmd_short
sdc_lld_send_cmd_long_crc
sdc_lld_set_data_clk
sdc_lld_set_bus_mode
mmcsdGetCapacity
sdc_lld_read
sdc_lld_write
sdc_lld_sync
sdc_lld_init
sdc_lld_start
sdc_lld_stop
sdc_lld_is_card_inserted
sdc_lld_is_write_protected
