ARM GAS  C:\Users\danit\AppData\Local\Temp\ccER83YA.s 			page 1


   1              		.syntax unified
   2              		.cpu cortex-m4
   3              		.fpu softvfp
   4              		.eabi_attribute 20, 1
   5              		.eabi_attribute 21, 1
   6              		.eabi_attribute 23, 3
   7              		.eabi_attribute 24, 1
   8              		.eabi_attribute 25, 1
   9              		.eabi_attribute 26, 1
  10              		.eabi_attribute 30, 2
  11              		.eabi_attribute 34, 1
  12              		.eabi_attribute 18, 4
  13              		.thumb
  14              		.file	"sdc_lld.c"
  15              		.text
  16              	.Ltext0:
  17              		.cfi_sections	.debug_frame
  18              		.section	.text.sdc_lld_collect_errors.isra.0,"ax",%progbits
  19              		.align	2
  20              		.p2align 4,,15
  21              		.thumb
  22              		.thumb_func
  23              		.type	sdc_lld_collect_errors.isra.0, %function
  24              	sdc_lld_collect_errors.isra.0:
  25              	.LFB140:
  26              		.file 1 "../../../ChibiOS/os/hal/platforms/STM32/sdc_lld.c"
  27              		.loc 1 215 0
  28              		.cfi_startproc
  29              		@ args = 0, pretend = 0, frame = 0
  30              		@ frame_needed = 0, uses_anonymous_args = 0
  31              		@ link register save eliminated.
  32              	.LVL0:
  33              		.loc 1 218 0
  34 0000 01F00103 		and	r3, r1, #1
  35              	.LVL1:
  36              		.loc 1 220 0
  37 0004 8A07     		lsls	r2, r1, #30
  38              		.loc 1 221 0
  39 0006 48BF     		it	mi
  40 0008 43F00203 		orrmi	r3, r3, #2
  41              	.LVL2:
  42              		.loc 1 222 0
  43 000c 4A07     		lsls	r2, r1, #29
  44              		.loc 1 223 0
  45 000e 48BF     		it	mi
  46 0010 43F00803 		orrmi	r3, r3, #8
  47              	.LVL3:
  48              		.loc 1 224 0
  49 0014 0A07     		lsls	r2, r1, #28
  50              		.loc 1 225 0
  51 0016 48BF     		it	mi
  52 0018 43F00403 		orrmi	r3, r3, #4
  53              	.LVL4:
  54              		.loc 1 226 0
  55 001c CA06     		lsls	r2, r1, #27
  56              		.loc 1 227 0
  57 001e 48BF     		it	mi
ARM GAS  C:\Users\danit\AppData\Local\Temp\ccER83YA.s 			page 2


  58 0020 43F01003 		orrmi	r3, r3, #16
  59              	.LVL5:
  60              		.loc 1 228 0
  61 0024 8A06     		lsls	r2, r1, #26
  62              		.loc 1 229 0
  63 0026 48BF     		it	mi
  64 0028 43F02003 		orrmi	r3, r3, #32
  65              	.LVL6:
  66              		.loc 1 230 0
  67 002c 8A05     		lsls	r2, r1, #22
  68              		.loc 1 233 0
  69 002e 0268     		ldr	r2, [r0]
  70              		.loc 1 231 0
  71 0030 48BF     		it	mi
  72 0032 43F04003 		orrmi	r3, r3, #64
  73              	.LVL7:
  74              		.loc 1 233 0
  75 0036 1343     		orrs	r3, r3, r2
  76              	.LVL8:
  77 0038 0360     		str	r3, [r0]
  78 003a 7047     		bx	lr
  79              		.cfi_endproc
  80              	.LFE140:
  81              		.size	sdc_lld_collect_errors.isra.0, .-sdc_lld_collect_errors.isra.0
  82              		.section	.text.Vector104,"ax",%progbits
  83              		.align	2
  84              		.p2align 4,,15
  85              		.global	Vector104
  86              		.thumb
  87              		.thumb_func
  88              		.type	Vector104, %function
  89              	Vector104:
  90              	.LFB123:
  91              		.loc 1 274 0
  92              		.cfi_startproc
  93              		@ args = 0, pretend = 0, frame = 0
  94              		@ frame_needed = 0, uses_anonymous_args = 0
  95 0000 38B5     		push	{r3, r4, r5, lr}
  96              		.cfi_def_cfa_offset 16
  97              		.cfi_offset 3, -16
  98              		.cfi_offset 4, -12
  99              		.cfi_offset 5, -8
 100              		.cfi_offset 14, -4
 101              	.LBB5:
 102              		.loc 1 278 0
 103 0002 2023     		movs	r3, #32
 104              	@ 278 "../../../ChibiOS/os/hal/platforms/STM32/sdc_lld.c" 1
 105 0004 83F31188 		msr     BASEPRI, r3
 106              	@ 0 "" 2
 107              		.thumb
 108              	.LBE5:
 109              		.loc 1 284 0
 110 0008 074C     		ldr	r4, .L33
 111              		.loc 1 282 0
 112 000a 084B     		ldr	r3, .L33+4
 113              		.loc 1 284 0
 114 000c E06B     		ldr	r0, [r4, #60]
ARM GAS  C:\Users\danit\AppData\Local\Temp\ccER83YA.s 			page 3


 115              		.loc 1 282 0
 116 000e 0025     		movs	r5, #0
 117 0010 DD63     		str	r5, [r3, #60]
 118              		.loc 1 284 0
 119 0012 10B1     		cbz	r0, .L27
 120              		.loc 1 285 0
 121 0014 FFF7FEFF 		bl	chSchReadyI
 122              	.LVL9:
 123              		.loc 1 286 0
 124 0018 E563     		str	r5, [r4, #60]
 125              	.L27:
 126              	.LBB6:
 127              		.loc 1 289 0
 128 001a 0023     		movs	r3, #0
 129              	@ 289 "../../../ChibiOS/os/hal/platforms/STM32/sdc_lld.c" 1
 130 001c 83F31188 		msr     BASEPRI, r3
 131              	@ 0 "" 2
 132              		.thumb
 133              	.LBE6:
 134              		.loc 1 292 0
 135 0020 BDE83840 		pop	{r3, r4, r5, lr}
 136              		.cfi_restore 14
 137              		.cfi_restore 5
 138              		.cfi_restore 4
 139              		.cfi_restore 3
 140              		.cfi_def_cfa_offset 0
 141              		.loc 1 291 0
 142 0024 FFF7FEBF 		b	_port_irq_epilogue
 143              	.LVL10:
 144              	.L34:
 145              		.align	2
 146              	.L33:
 147 0028 00000000 		.word	.LANCHOR0
 148 002c 002C0140 		.word	1073818624
 149              		.cfi_endproc
 150              	.LFE123:
 151              		.size	Vector104, .-Vector104
 152              		.section	.text.sdc_lld_init,"ax",%progbits
 153              		.align	2
 154              		.p2align 4,,15
 155              		.global	sdc_lld_init
 156              		.thumb
 157              		.thumb_func
 158              		.type	sdc_lld_init, %function
 159              	sdc_lld_init:
 160              	.LFB124:
 161              		.loc 1 303 0
 162              		.cfi_startproc
 163              		@ args = 0, pretend = 0, frame = 0
 164              		@ frame_needed = 0, uses_anonymous_args = 0
 165 0000 10B5     		push	{r4, lr}
 166              		.cfi_def_cfa_offset 8
 167              		.cfi_offset 4, -8
 168              		.cfi_offset 14, -4
 169              		.loc 1 305 0
 170 0002 044C     		ldr	r4, .L37
 171 0004 2046     		mov	r0, r4
ARM GAS  C:\Users\danit\AppData\Local\Temp\ccER83YA.s 			page 4


 172 0006 FFF7FEFF 		bl	sdcObjectInit
 173              	.LVL11:
 174              		.loc 1 306 0
 175 000a 0022     		movs	r2, #0
 176              		.loc 1 307 0
 177 000c 024B     		ldr	r3, .L37+4
 178              		.loc 1 306 0
 179 000e E263     		str	r2, [r4, #60]
 180              		.loc 1 307 0
 181 0010 6364     		str	r3, [r4, #68]
 182 0012 10BD     		pop	{r4, pc}
 183              	.L38:
 184              		.align	2
 185              	.L37:
 186 0014 00000000 		.word	.LANCHOR0
 187 0018 84000000 		.word	_stm32_dma_streams+132
 188              		.cfi_endproc
 189              	.LFE124:
 190              		.size	sdc_lld_init, .-sdc_lld_init
 191              		.section	.text.sdc_lld_start,"ax",%progbits
 192              		.align	2
 193              		.p2align 4,,15
 194              		.global	sdc_lld_start
 195              		.thumb
 196              		.thumb_func
 197              		.type	sdc_lld_start, %function
 198              	sdc_lld_start:
 199              	.LFB125:
 200              		.loc 1 320 0
 201              		.cfi_startproc
 202              		@ args = 0, pretend = 0, frame = 0
 203              		@ frame_needed = 0, uses_anonymous_args = 0
 204              	.LVL12:
 205              		.loc 1 334 0
 206 0000 0379     		ldrb	r3, [r0, #4]	@ zero_extendqisi2
 207              		.loc 1 329 0
 208 0002 114A     		ldr	r2, .L43
 209              		.loc 1 334 0
 210 0004 012B     		cmp	r3, #1
 211              		.loc 1 320 0
 212 0006 10B5     		push	{r4, lr}
 213              		.cfi_def_cfa_offset 8
 214              		.cfi_offset 4, -8
 215              		.cfi_offset 14, -4
 216              		.loc 1 329 0
 217 0008 0264     		str	r2, [r0, #64]
 218              		.loc 1 334 0
 219 000a 06D0     		beq	.L42
 220              	.LVL13:
 221              	.L40:
 222              		.loc 1 349 0
 223 000c 0F4B     		ldr	r3, .L43+4
 224 000e 0022     		movs	r2, #0
 225 0010 1A60     		str	r2, [r3]
 226              		.loc 1 350 0
 227 0012 5A60     		str	r2, [r3, #4]
 228              		.loc 1 351 0
ARM GAS  C:\Users\danit\AppData\Local\Temp\ccER83YA.s 			page 5


 229 0014 DA62     		str	r2, [r3, #44]
 230              		.loc 1 352 0
 231 0016 5A62     		str	r2, [r3, #36]
 232 0018 10BD     		pop	{r4, pc}
 233              	.LVL14:
 234              	.L42:
 235              	.LBB7:
 236              		.loc 1 337 0
 237 001a 0022     		movs	r2, #0
 238 001c 0446     		mov	r4, r0
 239 001e 1346     		mov	r3, r2
 240 0020 0921     		movs	r1, #9
 241 0022 406C     		ldr	r0, [r0, #68]
 242              	.LVL15:
 243 0024 FFF7FEFF 		bl	dmaStreamAllocate
 244              	.LVL16:
 245              		.loc 1 339 0
 246 0028 636C     		ldr	r3, [r4, #68]
 247 002a 0949     		ldr	r1, .L43+8
 248 002c 1B68     		ldr	r3, [r3]
 249              		.loc 1 341 0
 250 002e 0722     		movs	r2, #7
 251              		.loc 1 339 0
 252 0030 9960     		str	r1, [r3, #8]
 253              		.loc 1 343 0
 254 0032 3120     		movs	r0, #49
 255              		.loc 1 341 0
 256 0034 5A61     		str	r2, [r3, #20]
 257              		.loc 1 343 0
 258 0036 9021     		movs	r1, #144
 259 0038 FFF7FEFF 		bl	nvicEnableVector
 260              	.LVL17:
 261              		.loc 1 345 0
 262 003c 054A     		ldr	r2, .L43+12
 263 003e 536C     		ldr	r3, [r2, #68]
 264 0040 43F40063 		orr	r3, r3, #2048
 265 0044 5364     		str	r3, [r2, #68]
 266 0046 E1E7     		b	.L40
 267              	.L44:
 268              		.align	2
 269              	.L43:
 270 0048 2054A308 		.word	144921632
 271 004c 002C0140 		.word	1073818624
 272 0050 802C0140 		.word	1073818752
 273 0054 00380240 		.word	1073887232
 274              	.LBE7:
 275              		.cfi_endproc
 276              	.LFE125:
 277              		.size	sdc_lld_start, .-sdc_lld_start
 278              		.section	.text.sdc_lld_stop,"ax",%progbits
 279              		.align	2
 280              		.p2align 4,,15
 281              		.global	sdc_lld_stop
 282              		.thumb
 283              		.thumb_func
 284              		.type	sdc_lld_stop, %function
 285              	sdc_lld_stop:
ARM GAS  C:\Users\danit\AppData\Local\Temp\ccER83YA.s 			page 6


 286              	.LFB126:
 287              		.loc 1 362 0
 288              		.cfi_startproc
 289              		@ args = 0, pretend = 0, frame = 0
 290              		@ frame_needed = 0, uses_anonymous_args = 0
 291              	.LVL18:
 292              		.loc 1 364 0
 293 0000 0379     		ldrb	r3, [r0, #4]	@ zero_extendqisi2
 294 0002 012B     		cmp	r3, #1
 295 0004 13D0     		beq	.L51
 296              		.loc 1 367 0
 297 0006 0A4B     		ldr	r3, .L52
 298              		.loc 1 362 0
 299 0008 10B5     		push	{r4, lr}
 300              		.cfi_def_cfa_offset 8
 301              		.cfi_offset 4, -8
 302              		.cfi_offset 14, -4
 303              		.loc 1 367 0
 304 000a 0022     		movs	r2, #0
 305 000c 0446     		mov	r4, r0
 306 000e 1A60     		str	r2, [r3]
 307              		.loc 1 373 0
 308 0010 3120     		movs	r0, #49
 309              	.LVL19:
 310              		.loc 1 368 0
 311 0012 5A60     		str	r2, [r3, #4]
 312              		.loc 1 369 0
 313 0014 DA62     		str	r2, [r3, #44]
 314              		.loc 1 370 0
 315 0016 5A62     		str	r2, [r3, #36]
 316              		.loc 1 373 0
 317 0018 FFF7FEFF 		bl	nvicDisableVector
 318              	.LVL20:
 319              		.loc 1 374 0
 320 001c 606C     		ldr	r0, [r4, #68]
 321 001e FFF7FEFF 		bl	dmaStreamRelease
 322              	.LVL21:
 323              		.loc 1 375 0
 324 0022 044A     		ldr	r2, .L52+4
 325 0024 536C     		ldr	r3, [r2, #68]
 326 0026 23F40063 		bic	r3, r3, #2048
 327 002a 5364     		str	r3, [r2, #68]
 328 002c 10BD     		pop	{r4, pc}
 329              	.LVL22:
 330              	.L51:
 331              		.cfi_def_cfa_offset 0
 332              		.cfi_restore 4
 333              		.cfi_restore 14
 334 002e 7047     		bx	lr
 335              	.L53:
 336              		.align	2
 337              	.L52:
 338 0030 002C0140 		.word	1073818624
 339 0034 00380240 		.word	1073887232
 340              		.cfi_endproc
 341              	.LFE126:
 342              		.size	sdc_lld_stop, .-sdc_lld_stop
ARM GAS  C:\Users\danit\AppData\Local\Temp\ccER83YA.s 			page 7


 343              		.section	.text.sdc_lld_start_clk,"ax",%progbits
 344              		.align	2
 345              		.p2align 4,,15
 346              		.global	sdc_lld_start_clk
 347              		.thumb
 348              		.thumb_func
 349              		.type	sdc_lld_start_clk, %function
 350              	sdc_lld_start_clk:
 351              	.LFB127:
 352              		.loc 1 386 0
 353              		.cfi_startproc
 354              		@ args = 0, pretend = 0, frame = 0
 355              		@ frame_needed = 0, uses_anonymous_args = 0
 356              		@ link register save eliminated.
 357              	.LVL23:
 358              		.loc 1 391 0
 359 0000 064B     		ldr	r3, .L55
 360 0002 7822     		movs	r2, #120
 361 0004 5A60     		str	r2, [r3, #4]
 362              		.loc 1 392 0
 363 0006 1A68     		ldr	r2, [r3]
 364 0008 42F00302 		orr	r2, r2, #3
 365 000c 1A60     		str	r2, [r3]
 366              		.loc 1 393 0
 367 000e 5A68     		ldr	r2, [r3, #4]
 368 0010 42F48072 		orr	r2, r2, #256
 369 0014 5A60     		str	r2, [r3, #4]
 370              		.loc 1 396 0
 371 0016 0A20     		movs	r0, #10
 372              	.LVL24:
 373 0018 FFF7FEBF 		b	chThdSleep
 374              	.LVL25:
 375              	.L56:
 376              		.align	2
 377              	.L55:
 378 001c 002C0140 		.word	1073818624
 379              		.cfi_endproc
 380              	.LFE127:
 381              		.size	sdc_lld_start_clk, .-sdc_lld_start_clk
 382              		.section	.text.sdc_lld_set_data_clk,"ax",%progbits
 383              		.align	2
 384              		.p2align 4,,15
 385              		.global	sdc_lld_set_data_clk
 386              		.thumb
 387              		.thumb_func
 388              		.type	sdc_lld_set_data_clk, %function
 389              	sdc_lld_set_data_clk:
 390              	.LFB128:
 391              		.loc 1 406 0
 392              		.cfi_startproc
 393              		@ args = 0, pretend = 0, frame = 0
 394              		@ frame_needed = 0, uses_anonymous_args = 0
 395              		@ link register save eliminated.
 396              	.LVL26:
 397              		.loc 1 410 0
 398 0000 024A     		ldr	r2, .L58
 399 0002 5368     		ldr	r3, [r2, #4]
ARM GAS  C:\Users\danit\AppData\Local\Temp\ccER83YA.s 			page 8


 400 0004 23F0FF03 		bic	r3, r3, #255
 401 0008 5360     		str	r3, [r2, #4]
 402 000a 7047     		bx	lr
 403              	.L59:
 404              		.align	2
 405              	.L58:
 406 000c 002C0140 		.word	1073818624
 407              		.cfi_endproc
 408              	.LFE128:
 409              		.size	sdc_lld_set_data_clk, .-sdc_lld_set_data_clk
 410              		.section	.text.sdc_lld_stop_clk,"ax",%progbits
 411              		.align	2
 412              		.p2align 4,,15
 413              		.global	sdc_lld_stop_clk
 414              		.thumb
 415              		.thumb_func
 416              		.type	sdc_lld_stop_clk, %function
 417              	sdc_lld_stop_clk:
 418              	.LFB129:
 419              		.loc 1 420 0
 420              		.cfi_startproc
 421              		@ args = 0, pretend = 0, frame = 0
 422              		@ frame_needed = 0, uses_anonymous_args = 0
 423              		@ link register save eliminated.
 424              	.LVL27:
 425              		.loc 1 424 0
 426 0000 024B     		ldr	r3, .L61
 427 0002 0022     		movs	r2, #0
 428 0004 5A60     		str	r2, [r3, #4]
 429              		.loc 1 425 0
 430 0006 1A60     		str	r2, [r3]
 431 0008 7047     		bx	lr
 432              	.L62:
 433 000a 00BF     		.align	2
 434              	.L61:
 435 000c 002C0140 		.word	1073818624
 436              		.cfi_endproc
 437              	.LFE129:
 438              		.size	sdc_lld_stop_clk, .-sdc_lld_stop_clk
 439              		.section	.text.sdc_lld_set_bus_mode,"ax",%progbits
 440              		.align	2
 441              		.p2align 4,,15
 442              		.global	sdc_lld_set_bus_mode
 443              		.thumb
 444              		.thumb_func
 445              		.type	sdc_lld_set_bus_mode, %function
 446              	sdc_lld_set_bus_mode:
 447              	.LFB130:
 448              		.loc 1 436 0
 449              		.cfi_startproc
 450              		@ args = 0, pretend = 0, frame = 0
 451              		@ frame_needed = 0, uses_anonymous_args = 0
 452              		@ link register save eliminated.
 453              	.LVL28:
 454              		.loc 1 437 0
 455 0000 084A     		ldr	r2, .L70
 456 0002 5368     		ldr	r3, [r2, #4]
ARM GAS  C:\Users\danit\AppData\Local\Temp\ccER83YA.s 			page 9


 457              		.loc 1 441 0
 458 0004 0129     		cmp	r1, #1
 459              		.loc 1 437 0
 460 0006 23F4C053 		bic	r3, r3, #6144
 461              	.LVL29:
 462              		.loc 1 441 0
 463 000a 07D0     		beq	.L65
 464 000c 03D3     		bcc	.L68
 465 000e 0229     		cmp	r1, #2
 466 0010 03D1     		bne	.L69
 467              		.loc 1 449 0
 468 0012 43F48053 		orr	r3, r3, #4096
 469              	.LVL30:
 470              	.L68:
 471 0016 5360     		str	r3, [r2, #4]
 472 0018 7047     		bx	lr
 473              	.LVL31:
 474              	.L69:
 475 001a 7047     		bx	lr
 476              	.L65:
 477              		.loc 1 446 0
 478 001c 43F40063 		orr	r3, r3, #2048
 479              	.LVL32:
 480 0020 5360     		str	r3, [r2, #4]
 481              		.loc 1 447 0
 482 0022 7047     		bx	lr
 483              	.L71:
 484              		.align	2
 485              	.L70:
 486 0024 002C0140 		.word	1073818624
 487              		.cfi_endproc
 488              	.LFE130:
 489              		.size	sdc_lld_set_bus_mode, .-sdc_lld_set_bus_mode
 490              		.section	.text.sdc_lld_send_cmd_none,"ax",%progbits
 491              		.align	2
 492              		.p2align 4,,15
 493              		.global	sdc_lld_send_cmd_none
 494              		.thumb
 495              		.thumb_func
 496              		.type	sdc_lld_send_cmd_none, %function
 497              	sdc_lld_send_cmd_none:
 498              	.LFB131:
 499              		.loc 1 463 0
 500              		.cfi_startproc
 501              		@ args = 0, pretend = 0, frame = 0
 502              		@ frame_needed = 0, uses_anonymous_args = 0
 503              		@ link register save eliminated.
 504              	.LVL33:
 505              		.loc 1 467 0
 506 0000 064B     		ldr	r3, .L76
 507              		.loc 1 468 0
 508 0002 41F48061 		orr	r1, r1, #1024
 509              	.LVL34:
 510              		.loc 1 467 0
 511 0006 9A60     		str	r2, [r3, #8]
 512              		.loc 1 469 0
 513 0008 1846     		mov	r0, r3
ARM GAS  C:\Users\danit\AppData\Local\Temp\ccER83YA.s 			page 10


 514              	.LVL35:
 515              		.loc 1 468 0
 516 000a D960     		str	r1, [r3, #12]
 517              	.LVL36:
 518              	.L73:
 519              		.loc 1 469 0 discriminator 1
 520 000c 436B     		ldr	r3, [r0, #52]
 521 000e 034A     		ldr	r2, .L76
 522 0010 1B06     		lsls	r3, r3, #24
 523 0012 FBD5     		bpl	.L73
 524              		.loc 1 471 0
 525 0014 8023     		movs	r3, #128
 526 0016 9363     		str	r3, [r2, #56]
 527 0018 7047     		bx	lr
 528              	.L77:
 529 001a 00BF     		.align	2
 530              	.L76:
 531 001c 002C0140 		.word	1073818624
 532              		.cfi_endproc
 533              	.LFE131:
 534              		.size	sdc_lld_send_cmd_none, .-sdc_lld_send_cmd_none
 535              		.section	.text.sdc_lld_send_cmd_short,"ax",%progbits
 536              		.align	2
 537              		.p2align 4,,15
 538              		.global	sdc_lld_send_cmd_short
 539              		.thumb
 540              		.thumb_func
 541              		.type	sdc_lld_send_cmd_short, %function
 542              	sdc_lld_send_cmd_short:
 543              	.LFB132:
 544              		.loc 1 490 0
 545              		.cfi_startproc
 546              		@ args = 0, pretend = 0, frame = 0
 547              		@ frame_needed = 0, uses_anonymous_args = 0
 548              	.LVL37:
 549 0000 38B5     		push	{r3, r4, r5, lr}
 550              		.cfi_def_cfa_offset 16
 551              		.cfi_offset 3, -16
 552              		.cfi_offset 4, -12
 553              		.cfi_offset 5, -8
 554              		.cfi_offset 14, -4
 555              		.loc 1 495 0
 556 0002 0C4C     		ldr	r4, .L86
 557              		.loc 1 496 0
 558 0004 41F48861 		orr	r1, r1, #1088
 559              	.LVL38:
 560              		.loc 1 495 0
 561 0008 A260     		str	r2, [r4, #8]
 562              		.loc 1 497 0
 563 000a 2546     		mov	r5, r4
 564              		.loc 1 496 0
 565 000c E160     		str	r1, [r4, #12]
 566              	.LVL39:
 567              	.L79:
 568              		.loc 1 497 0 discriminator 1
 569 000e 696B     		ldr	r1, [r5, #52]
 570              	.LVL40:
ARM GAS  C:\Users\danit\AppData\Local\Temp\ccER83YA.s 			page 11


 571 0010 084A     		ldr	r2, .L86
 572 0012 11F04504 		ands	r4, r1, #69
 573 0016 FAD0     		beq	.L79
 574              		.loc 1 500 0
 575 0018 9463     		str	r4, [r2, #56]
 576              		.loc 1 501 0
 577 001a 11F00404 		ands	r4, r1, #4
 578 001e 03D1     		bne	.L85
 579              		.loc 1 505 0
 580 0020 5269     		ldr	r2, [r2, #20]
 581 0022 1A60     		str	r2, [r3]
 582              		.loc 1 506 0
 583 0024 2046     		mov	r0, r4
 584              	.LVL41:
 585              		.loc 1 507 0
 586 0026 38BD     		pop	{r3, r4, r5, pc}
 587              	.LVL42:
 588              	.L85:
 589              		.loc 1 502 0
 590 0028 3430     		adds	r0, r0, #52
 591              	.LVL43:
 592 002a FFF7FEFF 		bl	sdc_lld_collect_errors.isra.0
 593              	.LVL44:
 594              		.loc 1 503 0
 595 002e 0120     		movs	r0, #1
 596 0030 38BD     		pop	{r3, r4, r5, pc}
 597              	.L87:
 598 0032 00BF     		.align	2
 599              	.L86:
 600 0034 002C0140 		.word	1073818624
 601              		.cfi_endproc
 602              	.LFE132:
 603              		.size	sdc_lld_send_cmd_short, .-sdc_lld_send_cmd_short
 604              		.section	.text.sdc_lld_send_cmd_short_crc,"ax",%progbits
 605              		.align	2
 606              		.p2align 4,,15
 607              		.global	sdc_lld_send_cmd_short_crc
 608              		.thumb
 609              		.thumb_func
 610              		.type	sdc_lld_send_cmd_short_crc, %function
 611              	sdc_lld_send_cmd_short_crc:
 612              	.LFB133:
 613              		.loc 1 524 0
 614              		.cfi_startproc
 615              		@ args = 0, pretend = 0, frame = 0
 616              		@ frame_needed = 0, uses_anonymous_args = 0
 617              	.LVL45:
 618 0000 38B5     		push	{r3, r4, r5, lr}
 619              		.cfi_def_cfa_offset 16
 620              		.cfi_offset 3, -16
 621              		.cfi_offset 4, -12
 622              		.cfi_offset 5, -8
 623              		.cfi_offset 14, -4
 624              		.loc 1 529 0
 625 0002 0C4C     		ldr	r4, .L96
 626              		.loc 1 530 0
 627 0004 41F48861 		orr	r1, r1, #1088
ARM GAS  C:\Users\danit\AppData\Local\Temp\ccER83YA.s 			page 12


 628              	.LVL46:
 629              		.loc 1 529 0
 630 0008 A260     		str	r2, [r4, #8]
 631              		.loc 1 531 0
 632 000a 2546     		mov	r5, r4
 633              		.loc 1 530 0
 634 000c E160     		str	r1, [r4, #12]
 635              	.LVL47:
 636              	.L89:
 637              		.loc 1 531 0 discriminator 1
 638 000e 696B     		ldr	r1, [r5, #52]
 639              	.LVL48:
 640 0010 084A     		ldr	r2, .L96
 641 0012 11F04504 		ands	r4, r1, #69
 642 0016 FAD0     		beq	.L89
 643              		.loc 1 534 0
 644 0018 9463     		str	r4, [r2, #56]
 645              		.loc 1 535 0
 646 001a 11F00504 		ands	r4, r1, #5
 647 001e 03D1     		bne	.L95
 648              		.loc 1 539 0
 649 0020 5269     		ldr	r2, [r2, #20]
 650 0022 1A60     		str	r2, [r3]
 651              		.loc 1 540 0
 652 0024 2046     		mov	r0, r4
 653              	.LVL49:
 654              		.loc 1 541 0
 655 0026 38BD     		pop	{r3, r4, r5, pc}
 656              	.LVL50:
 657              	.L95:
 658              		.loc 1 536 0
 659 0028 3430     		adds	r0, r0, #52
 660              	.LVL51:
 661 002a FFF7FEFF 		bl	sdc_lld_collect_errors.isra.0
 662              	.LVL52:
 663              		.loc 1 537 0
 664 002e 0120     		movs	r0, #1
 665 0030 38BD     		pop	{r3, r4, r5, pc}
 666              	.L97:
 667 0032 00BF     		.align	2
 668              	.L96:
 669 0034 002C0140 		.word	1073818624
 670              		.cfi_endproc
 671              	.LFE133:
 672              		.size	sdc_lld_send_cmd_short_crc, .-sdc_lld_send_cmd_short_crc
 673              		.section	.text.sdc_lld_wait_transaction_end,"ax",%progbits
 674              		.align	2
 675              		.p2align 4,,15
 676              		.thumb
 677              		.thumb_func
 678              		.type	sdc_lld_wait_transaction_end, %function
 679              	sdc_lld_wait_transaction_end:
 680              	.LFB120:
 681              		.loc 1 157 0
 682              		.cfi_startproc
 683              		@ args = 0, pretend = 0, frame = 0
 684              		@ frame_needed = 0, uses_anonymous_args = 0
ARM GAS  C:\Users\danit\AppData\Local\Temp\ccER83YA.s 			page 13


 685              	.LVL53:
 686 0000 2DE9F041 		push	{r4, r5, r6, r7, r8, lr}
 687              		.cfi_def_cfa_offset 24
 688              		.cfi_offset 4, -24
 689              		.cfi_offset 5, -20
 690              		.cfi_offset 6, -16
 691              		.cfi_offset 7, -12
 692              		.cfi_offset 8, -8
 693              		.cfi_offset 14, -4
 694              	.LBB16:
 695              		.loc 1 161 0
 696 0004 2023     		movs	r3, #32
 697              	.LBE16:
 698              		.loc 1 157 0
 699 0006 0446     		mov	r4, r0
 700 0008 0D46     		mov	r5, r1
 701 000a 1646     		mov	r6, r2
 702              	.LBB17:
 703              		.loc 1 161 0
 704              	@ 161 "../../../ChibiOS/os/hal/platforms/STM32/sdc_lld.c" 1
 705 000c 83F31188 		msr     BASEPRI, r3
 706              	@ 0 "" 2
 707              		.thumb
 708              	.LBE17:
 709              		.loc 1 162 0
 710 0010 194B     		ldr	r3, .L111
 711 0012 DB6B     		ldr	r3, [r3, #60]
 712 0014 4BBB     		cbnz	r3, .L109
 713              	.LVL54:
 714              	.L99:
 715              		.loc 1 170 0
 716 0016 184B     		ldr	r3, .L111
 717 0018 5B6B     		ldr	r3, [r3, #52]
 718 001a 13F48073 		ands	r3, r3, #256
 719 001e 1FD0     		beq	.L110
 720 0020 616C     		ldr	r1, [r4, #68]
 721 0022 0B68     		ldr	r3, [r1]
 722              	.L102:
 723              		.loc 1 177 0 discriminator 1
 724 0024 1A68     		ldr	r2, [r3]
 725 0026 12F00102 		ands	r2, r2, #1
 726 002a FBD1     		bne	.L102
 727              		.loc 1 181 0
 728 002c 91F808E0 		ldrb	lr, [r1, #8]	@ zero_extendqisi2
 729 0030 4F68     		ldr	r7, [r1, #4]
 730              		.loc 1 183 0
 731 0032 1149     		ldr	r1, .L111
 732 0034 1148     		ldr	r0, .L111+4
 733              		.loc 1 181 0
 734 0036 3D23     		movs	r3, #61
 735 0038 03FA0EF3 		lsl	r3, r3, lr
 736 003c 3B60     		str	r3, [r7]
 737              		.loc 1 183 0
 738 003e 8863     		str	r0, [r1, #56]
 739              	.LBB18:
 740              		.loc 1 185 0
 741 0040 1346     		mov	r3, r2
ARM GAS  C:\Users\danit\AppData\Local\Temp\ccER83YA.s 			page 14


 742              	.LBE18:
 743              		.loc 1 184 0
 744 0042 CA62     		str	r2, [r1, #44]
 745              	.LBB19:
 746              		.loc 1 185 0
 747              	@ 185 "../../../ChibiOS/os/hal/platforms/STM32/sdc_lld.c" 1
 748 0044 83F31188 		msr     BASEPRI, r3
 749              	@ 0 "" 2
 750              		.thumb
 751              	.LBE19:
 752              		.loc 1 201 0
 753 0048 012D     		cmp	r5, #1
 754 004a 06D9     		bls	.L103
 755              	.LVL55:
 756              	.LBB20:
 757              	.LBB21:
 758              		.loc 1 202 0
 759 004c 2046     		mov	r0, r4
 760 004e 3346     		mov	r3, r6
 761 0050 0C21     		movs	r1, #12
 762              	.LBE21:
 763              	.LBE20:
 764              		.loc 1 205 0
 765 0052 BDE8F041 		pop	{r4, r5, r6, r7, r8, lr}
 766              		.cfi_remember_state
 767              		.cfi_restore 14
 768              		.cfi_restore 8
 769              		.cfi_restore 7
 770              		.cfi_restore 6
 771              		.cfi_restore 5
 772              		.cfi_restore 4
 773              		.cfi_def_cfa_offset 0
 774              	.LVL56:
 775              	.LBB23:
 776              	.LBB22:
 777              		.loc 1 202 0
 778 0056 FFF7FEBF 		b	sdc_lld_send_cmd_short_crc
 779              	.LVL57:
 780              	.L103:
 781              		.cfi_restore_state
 782              	.LBE22:
 783              	.LBE23:
 784              		.loc 1 204 0
 785 005a 1046     		mov	r0, r2
 786              		.loc 1 205 0
 787 005c BDE8F081 		pop	{r4, r5, r6, r7, r8, pc}
 788              	.LVL58:
 789              	.L110:
 790              	.LBB24:
 791              		.loc 1 171 0
 792              	@ 171 "../../../ChibiOS/os/hal/platforms/STM32/sdc_lld.c" 1
 793 0060 83F31188 		msr     BASEPRI, r3
 794              	@ 0 "" 2
 795              		.thumb
 796              	.LBE24:
 797              		.loc 1 172 0
 798 0064 0120     		movs	r0, #1
ARM GAS  C:\Users\danit\AppData\Local\Temp\ccER83YA.s 			page 15


 799 0066 BDE8F081 		pop	{r4, r5, r6, r7, r8, pc}
 800              	.LVL59:
 801              	.L109:
 802              		.loc 1 165 0
 803 006a 054B     		ldr	r3, .L111+8
 804 006c 9B69     		ldr	r3, [r3, #24]
 805 006e C363     		str	r3, [r0, #60]
 806              		.loc 1 166 0
 807 0070 0220     		movs	r0, #2
 808              	.LVL60:
 809 0072 FFF7FEFF 		bl	chSchGoSleepS
 810              	.LVL61:
 811 0076 CEE7     		b	.L99
 812              	.L112:
 813              		.align	2
 814              	.L111:
 815 0078 002C0140 		.word	1073818624
 816 007c FF07C000 		.word	12584959
 817 0080 00000000 		.word	rlist
 818              		.cfi_endproc
 819              	.LFE120:
 820              		.size	sdc_lld_wait_transaction_end, .-sdc_lld_wait_transaction_end
 821              		.section	.text.sdc_lld_error_cleanup,"ax",%progbits
 822              		.align	2
 823              		.p2align 4,,15
 824              		.thumb
 825              		.thumb_func
 826              		.type	sdc_lld_error_cleanup, %function
 827              	sdc_lld_error_cleanup:
 828              	.LFB122:
 829              		.loc 1 247 0
 830              		.cfi_startproc
 831              		@ args = 0, pretend = 0, frame = 0
 832              		@ frame_needed = 0, uses_anonymous_args = 0
 833              	.LVL62:
 834 0000 2DE9F041 		push	{r4, r5, r6, r7, r8, lr}
 835              		.cfi_def_cfa_offset 24
 836              		.cfi_offset 4, -24
 837              		.cfi_offset 5, -20
 838              		.cfi_offset 6, -16
 839              		.cfi_offset 7, -12
 840              		.cfi_offset 8, -8
 841              		.cfi_offset 14, -4
 842              		.loc 1 247 0
 843 0004 0646     		mov	r6, r0
 844              		.loc 1 250 0
 845 0006 406C     		ldr	r0, [r0, #68]
 846              	.LVL63:
 847              		.loc 1 248 0
 848 0008 184F     		ldr	r7, .L118
 849              		.loc 1 250 0
 850 000a 057A     		ldrb	r5, [r0, #8]	@ zero_extendqisi2
 851              		.loc 1 248 0
 852 000c D7F834C0 		ldr	ip, [r7, #52]
 853              	.LVL64:
 854              		.loc 1 251 0
 855 0010 90E80840 		ldmia	r0, {r3, lr}
ARM GAS  C:\Users\danit\AppData\Local\Temp\ccER83YA.s 			page 16


 856              		.loc 1 250 0
 857 0014 3D24     		movs	r4, #61
 858 0016 AC40     		lsls	r4, r4, r5
 859 0018 CEF80040 		str	r4, [lr]
 860              		.loc 1 251 0
 861 001c 1C68     		ldr	r4, [r3]
 862 001e 24F01F04 		bic	r4, r4, #31
 863              		.loc 1 247 0
 864 0022 0F46     		mov	r7, r1
 865 0024 1546     		mov	r5, r2
 866              		.loc 1 251 0
 867 0026 1C60     		str	r4, [r3]
 868              	.LVL65:
 869              	.L114:
 870              		.loc 1 251 0 is_stmt 0 discriminator 2
 871 0028 1A68     		ldr	r2, [r3]
 872 002a 12F00104 		ands	r4, r2, #1
 873 002e FBD1     		bne	.L114
 874              		.loc 1 251 0 discriminator 3
 875 0030 017A     		ldrb	r1, [r0, #8]	@ zero_extendqisi2
 876              	.LVL66:
 877              		.loc 1 252 0 is_stmt 1 discriminator 3
 878 0032 0E4B     		ldr	r3, .L118
 879 0034 DFF83880 		ldr	r8, .L118+4
 880              		.loc 1 251 0 discriminator 3
 881 0038 3D22     		movs	r2, #61
 882 003a 8A40     		lsls	r2, r2, r1
 883 003c CEF80020 		str	r2, [lr]
 884              		.loc 1 255 0 discriminator 3
 885 0040 6146     		mov	r1, ip
 886              		.loc 1 252 0 discriminator 3
 887 0042 C3F83880 		str	r8, [r3, #56]
 888              		.loc 1 255 0 discriminator 3
 889 0046 06F13400 		add	r0, r6, #52
 890              		.loc 1 253 0 discriminator 3
 891 004a DC63     		str	r4, [r3, #60]
 892              		.loc 1 254 0 discriminator 3
 893 004c DC62     		str	r4, [r3, #44]
 894              		.loc 1 255 0 discriminator 3
 895 004e FFF7FEFF 		bl	sdc_lld_collect_errors.isra.0
 896              	.LVL67:
 897              		.loc 1 256 0 discriminator 3
 898 0052 012F     		cmp	r7, #1
 899 0054 07D9     		bls	.L113
 900              	.LVL68:
 901              	.LBB27:
 902              	.LBB28:
 903              		.loc 1 257 0
 904 0056 3046     		mov	r0, r6
 905 0058 2246     		mov	r2, r4
 906 005a 2B46     		mov	r3, r5
 907 005c 0C21     		movs	r1, #12
 908              	.LBE28:
 909              	.LBE27:
 910              		.loc 1 258 0
 911 005e BDE8F041 		pop	{r4, r5, r6, r7, r8, lr}
 912              		.cfi_remember_state
ARM GAS  C:\Users\danit\AppData\Local\Temp\ccER83YA.s 			page 17


 913              		.cfi_restore 14
 914              		.cfi_restore 8
 915              		.cfi_restore 7
 916              		.cfi_restore 6
 917              		.cfi_restore 5
 918              		.cfi_restore 4
 919              		.cfi_def_cfa_offset 0
 920              	.LVL69:
 921              	.LBB30:
 922              	.LBB29:
 923              		.loc 1 257 0
 924 0062 FFF7FEBF 		b	sdc_lld_send_cmd_short_crc
 925              	.LVL70:
 926              	.L113:
 927              		.cfi_restore_state
 928 0066 BDE8F081 		pop	{r4, r5, r6, r7, r8, pc}
 929              	.LVL71:
 930              	.L119:
 931 006a 00BF     		.align	2
 932              	.L118:
 933 006c 002C0140 		.word	1073818624
 934 0070 FF07C000 		.word	12584959
 935              	.LBE29:
 936              	.LBE30:
 937              		.cfi_endproc
 938              	.LFE122:
 939              		.size	sdc_lld_error_cleanup, .-sdc_lld_error_cleanup
 940              		.section	.text.sdc_lld_send_cmd_long_crc,"ax",%progbits
 941              		.align	2
 942              		.p2align 4,,15
 943              		.global	sdc_lld_send_cmd_long_crc
 944              		.thumb
 945              		.thumb_func
 946              		.type	sdc_lld_send_cmd_long_crc, %function
 947              	sdc_lld_send_cmd_long_crc:
 948              	.LFB134:
 949              		.loc 1 558 0
 950              		.cfi_startproc
 951              		@ args = 0, pretend = 0, frame = 0
 952              		@ frame_needed = 0, uses_anonymous_args = 0
 953              	.LVL72:
 954 0000 38B5     		push	{r3, r4, r5, lr}
 955              		.cfi_def_cfa_offset 16
 956              		.cfi_offset 3, -16
 957              		.cfi_offset 4, -12
 958              		.cfi_offset 5, -8
 959              		.cfi_offset 14, -4
 960              		.loc 1 563 0
 961 0002 0F4C     		ldr	r4, .L128
 962              		.loc 1 564 0
 963 0004 41F49861 		orr	r1, r1, #1216
 964              	.LVL73:
 965              		.loc 1 563 0
 966 0008 A260     		str	r2, [r4, #8]
 967              		.loc 1 566 0
 968 000a 2546     		mov	r5, r4
 969              		.loc 1 564 0
ARM GAS  C:\Users\danit\AppData\Local\Temp\ccER83YA.s 			page 18


 970 000c E160     		str	r1, [r4, #12]
 971              	.LVL74:
 972              	.L121:
 973              		.loc 1 566 0 discriminator 1
 974 000e 696B     		ldr	r1, [r5, #52]
 975              	.LVL75:
 976 0010 0B4A     		ldr	r2, .L128
 977 0012 11F04504 		ands	r4, r1, #69
 978 0016 FAD0     		beq	.L121
 979              		.loc 1 569 0
 980 0018 9463     		str	r4, [r2, #56]
 981              		.loc 1 570 0
 982 001a 11F03F04 		ands	r4, r1, #63
 983 001e 09D1     		bne	.L127
 984              	.LVL76:
 985              		.loc 1 575 0
 986 0020 116A     		ldr	r1, [r2, #32]
 987              	.LVL77:
 988 0022 1960     		str	r1, [r3]
 989              	.LVL78:
 990              		.loc 1 576 0
 991 0024 D169     		ldr	r1, [r2, #28]
 992 0026 5960     		str	r1, [r3, #4]
 993              	.LVL79:
 994              		.loc 1 577 0
 995 0028 9169     		ldr	r1, [r2, #24]
 996 002a 9960     		str	r1, [r3, #8]
 997              		.loc 1 578 0
 998 002c 5269     		ldr	r2, [r2, #20]
 999 002e DA60     		str	r2, [r3, #12]
 1000              		.loc 1 579 0
 1001 0030 2046     		mov	r0, r4
 1002              	.LVL80:
 1003              		.loc 1 580 0
 1004 0032 38BD     		pop	{r3, r4, r5, pc}
 1005              	.LVL81:
 1006              	.L127:
 1007              		.loc 1 571 0
 1008 0034 3430     		adds	r0, r0, #52
 1009              	.LVL82:
 1010 0036 FFF7FEFF 		bl	sdc_lld_collect_errors.isra.0
 1011              	.LVL83:
 1012              		.loc 1 572 0
 1013 003a 0120     		movs	r0, #1
 1014 003c 38BD     		pop	{r3, r4, r5, pc}
 1015              	.L129:
 1016 003e 00BF     		.align	2
 1017              	.L128:
 1018 0040 002C0140 		.word	1073818624
 1019              		.cfi_endproc
 1020              	.LFE134:
 1021              		.size	sdc_lld_send_cmd_long_crc, .-sdc_lld_send_cmd_long_crc
 1022              		.section	.text.sdc_lld_read_aligned,"ax",%progbits
 1023              		.align	2
 1024              		.p2align 4,,15
 1025              		.global	sdc_lld_read_aligned
 1026              		.thumb
ARM GAS  C:\Users\danit\AppData\Local\Temp\ccER83YA.s 			page 19


 1027              		.thumb_func
 1028              		.type	sdc_lld_read_aligned, %function
 1029              	sdc_lld_read_aligned:
 1030              	.LFB135:
 1031              		.loc 1 597 0
 1032              		.cfi_startproc
 1033              		@ args = 0, pretend = 0, frame = 8
 1034              		@ frame_needed = 0, uses_anonymous_args = 0
 1035              	.LVL84:
 1036 0000 2DE9F041 		push	{r4, r5, r6, r7, r8, lr}
 1037              		.cfi_def_cfa_offset 24
 1038              		.cfi_offset 4, -24
 1039              		.cfi_offset 5, -20
 1040              		.cfi_offset 6, -16
 1041              		.cfi_offset 7, -12
 1042              		.cfi_offset 8, -8
 1043              		.cfi_offset 14, -4
 1044              		.loc 1 602 0
 1045 0004 264C     		ldr	r4, .L142
 1046 0006 274D     		ldr	r5, .L142+4
 1047 0008 6562     		str	r5, [r4, #36]
 1048              		.loc 1 597 0
 1049 000a 82B0     		sub	sp, sp, #8
 1050              		.cfi_def_cfa_offset 32
 1051              		.loc 1 597 0
 1052 000c 0F46     		mov	r7, r1
 1053 000e 9046     		mov	r8, r2
 1054 0010 1E46     		mov	r6, r3
 1055 0012 0546     		mov	r5, r0
 1056              		.loc 1 605 0
 1057 0014 FFF7FEFF 		bl	_sdc_wait_for_transfer_state
 1058              	.LVL85:
 1059 0018 10B1     		cbz	r0, .L141
 1060              	.LVL86:
 1061              	.L138:
 1062              		.loc 1 642 0
 1063 001a 02B0     		add	sp, sp, #8
 1064              		.cfi_remember_state
 1065              		.cfi_def_cfa_offset 24
 1066              		@ sp needed
 1067 001c BDE8F081 		pop	{r4, r5, r6, r7, r8, pc}
 1068              	.LVL87:
 1069              	.L141:
 1070              		.cfi_restore_state
 1071              	.LBB35:
 1072              	.LBB36:
 1073              		.loc 1 609 0
 1074 0020 6B6C     		ldr	r3, [r5, #68]
 1075              		.loc 1 612 0
 1076 0022 2A6C     		ldr	r2, [r5, #64]
 1077              		.loc 1 609 0
 1078 0024 1B68     		ldr	r3, [r3]
 1079              		.loc 1 616 0
 1080 0026 DFF884C0 		ldr	ip, .L142+12
 1081              		.loc 1 609 0
 1082 002a C3F80C80 		str	r8, [r3, #12]
 1083              		.loc 1 610 0
ARM GAS  C:\Users\danit\AppData\Local\Temp\ccER83YA.s 			page 20


 1084 002e 7102     		lsls	r1, r6, #9
 1085 0030 8808     		lsrs	r0, r1, #2
 1086 0032 5860     		str	r0, [r3, #4]
 1087              		.loc 1 612 0
 1088 0034 1A60     		str	r2, [r3]
 1089              		.loc 1 613 0
 1090 0036 1A68     		ldr	r2, [r3]
 1091              		.loc 1 625 0
 1092 0038 9B20     		movs	r0, #155
 1093              		.loc 1 613 0
 1094 003a 42F00102 		orr	r2, r2, #1
 1095              		.loc 1 617 0
 1096 003e 40F22A3E 		movw	lr, #810
 1097              		.loc 1 613 0
 1098 0042 1A60     		str	r2, [r3]
 1099              		.loc 1 616 0
 1100 0044 C4F838C0 		str	ip, [r4, #56]
 1101              		.loc 1 617 0
 1102 0048 C4F83CE0 		str	lr, [r4, #60]
 1103              		.loc 1 622 0
 1104 004c A162     		str	r1, [r4, #40]
 1105              		.loc 1 625 0
 1106 004e E062     		str	r0, [r4, #44]
 1107              	.LVL88:
 1108              	.LBB37:
 1109              	.LBB38:
 1110              		.loc 1 88 0
 1111 0050 2B6B     		ldr	r3, [r5, #48]
 1112 0052 DB06     		lsls	r3, r3, #27
 1113              		.loc 1 89 0
 1114 0054 58BF     		it	pl
 1115 0056 7F02     		lslpl	r7, r7, #9
 1116              	.LVL89:
 1117              		.loc 1 93 0
 1118 0058 01AC     		add	r4, sp, #4
 1119              	.LVL90:
 1120              		.loc 1 91 0
 1121 005a 012E     		cmp	r6, #1
 1122              		.loc 1 93 0
 1123 005c 3A46     		mov	r2, r7
 1124 005e 2346     		mov	r3, r4
 1125 0060 2846     		mov	r0, r5
 1126              		.loc 1 91 0
 1127 0062 17D9     		bls	.L133
 1128              	.LVL91:
 1129              		.loc 1 93 0
 1130 0064 1221     		movs	r1, #18
 1131 0066 FFF7FEFF 		bl	sdc_lld_send_cmd_short_crc
 1132              	.LVL92:
 1133 006a 50B9     		cbnz	r0, .L136
 1134              	.L140:
 1135              		.loc 1 100 0
 1136 006c 019A     		ldr	r2, [sp, #4]
 1137 006e 0E4B     		ldr	r3, .L142+8
 1138 0070 1340     		ands	r3, r3, r2
 1139 0072 33B9     		cbnz	r3, .L136
 1140              	.LBE38:
ARM GAS  C:\Users\danit\AppData\Local\Temp\ccER83YA.s 			page 21


 1141              	.LBE37:
 1142              		.loc 1 634 0
 1143 0074 2846     		mov	r0, r5
 1144 0076 3146     		mov	r1, r6
 1145 0078 2246     		mov	r2, r4
 1146 007a FFF7FEFF 		bl	sdc_lld_wait_transaction_end
 1147              	.LVL93:
 1148 007e 0028     		cmp	r0, #0
 1149 0080 CBD0     		beq	.L138
 1150              	.L136:
 1151              		.loc 1 640 0
 1152 0082 2846     		mov	r0, r5
 1153 0084 3146     		mov	r1, r6
 1154 0086 2246     		mov	r2, r4
 1155 0088 FFF7FEFF 		bl	sdc_lld_error_cleanup
 1156              	.LVL94:
 1157              		.loc 1 641 0
 1158 008c 0120     		movs	r0, #1
 1159              	.LBE36:
 1160              	.LBE35:
 1161              		.loc 1 642 0
 1162 008e 02B0     		add	sp, sp, #8
 1163              		.cfi_remember_state
 1164              		.cfi_def_cfa_offset 24
 1165              		@ sp needed
 1166 0090 BDE8F081 		pop	{r4, r5, r6, r7, r8, pc}
 1167              	.LVL95:
 1168              	.L133:
 1169              		.cfi_restore_state
 1170              	.LBB42:
 1171              	.LBB41:
 1172              	.LBB40:
 1173              	.LBB39:
 1174              		.loc 1 99 0
 1175 0094 1121     		movs	r1, #17
 1176 0096 FFF7FEFF 		bl	sdc_lld_send_cmd_short_crc
 1177              	.LVL96:
 1178 009a 0028     		cmp	r0, #0
 1179 009c E6D0     		beq	.L140
 1180 009e F0E7     		b	.L136
 1181              	.L143:
 1182              		.align	2
 1183              	.L142:
 1184 00a0 002C0140 		.word	1073818624
 1185 00a4 C0270900 		.word	600000
 1186 00a8 08E0FFFD 		.word	-33562616
 1187 00ac FF07C000 		.word	12584959
 1188              	.LBE39:
 1189              	.LBE40:
 1190              	.LBE41:
 1191              	.LBE42:
 1192              		.cfi_endproc
 1193              	.LFE135:
 1194              		.size	sdc_lld_read_aligned, .-sdc_lld_read_aligned
 1195              		.section	.text.sdc_lld_write_aligned,"ax",%progbits
 1196              		.align	2
 1197              		.p2align 4,,15
ARM GAS  C:\Users\danit\AppData\Local\Temp\ccER83YA.s 			page 22


 1198              		.global	sdc_lld_write_aligned
 1199              		.thumb
 1200              		.thumb_func
 1201              		.type	sdc_lld_write_aligned, %function
 1202              	sdc_lld_write_aligned:
 1203              	.LFB136:
 1204              		.loc 1 659 0
 1205              		.cfi_startproc
 1206              		@ args = 0, pretend = 0, frame = 8
 1207              		@ frame_needed = 0, uses_anonymous_args = 0
 1208              	.LVL97:
 1209 0000 2DE9F041 		push	{r4, r5, r6, r7, r8, lr}
 1210              		.cfi_def_cfa_offset 24
 1211              		.cfi_offset 4, -24
 1212              		.cfi_offset 5, -20
 1213              		.cfi_offset 6, -16
 1214              		.cfi_offset 7, -12
 1215              		.cfi_offset 8, -8
 1216              		.cfi_offset 14, -4
 1217              		.loc 1 664 0
 1218 0004 274C     		ldr	r4, .L156
 1219 0006 284D     		ldr	r5, .L156+4
 1220 0008 6562     		str	r5, [r4, #36]
 1221              		.loc 1 659 0
 1222 000a 82B0     		sub	sp, sp, #8
 1223              		.cfi_def_cfa_offset 32
 1224              		.loc 1 659 0
 1225 000c 0F46     		mov	r7, r1
 1226 000e 9046     		mov	r8, r2
 1227 0010 1E46     		mov	r6, r3
 1228 0012 0546     		mov	r5, r0
 1229              		.loc 1 667 0
 1230 0014 FFF7FEFF 		bl	_sdc_wait_for_transfer_state
 1231              	.LVL98:
 1232 0018 10B1     		cbz	r0, .L155
 1233              	.LVL99:
 1234              	.L152:
 1235              		.loc 1 703 0
 1236 001a 02B0     		add	sp, sp, #8
 1237              		.cfi_remember_state
 1238              		.cfi_def_cfa_offset 24
 1239              		@ sp needed
 1240 001c BDE8F081 		pop	{r4, r5, r6, r7, r8, pc}
 1241              	.LVL100:
 1242              	.L155:
 1243              		.cfi_restore_state
 1244              	.LBB47:
 1245              	.LBB48:
 1246              		.loc 1 671 0
 1247 0020 6B6C     		ldr	r3, [r5, #68]
 1248              		.loc 1 674 0
 1249 0022 2A6C     		ldr	r2, [r5, #64]
 1250              		.loc 1 671 0
 1251 0024 1B68     		ldr	r3, [r3]
 1252              		.loc 1 678 0
 1253 0026 DFF888E0 		ldr	lr, .L156+12
 1254              		.loc 1 671 0
ARM GAS  C:\Users\danit\AppData\Local\Temp\ccER83YA.s 			page 23


 1255 002a C3F80C80 		str	r8, [r3, #12]
 1256              		.loc 1 672 0
 1257 002e 7102     		lsls	r1, r6, #9
 1258 0030 8808     		lsrs	r0, r1, #2
 1259              		.loc 1 674 0
 1260 0032 42F04002 		orr	r2, r2, #64
 1261              		.loc 1 672 0
 1262 0036 5860     		str	r0, [r3, #4]
 1263              		.loc 1 674 0
 1264 0038 1A60     		str	r2, [r3]
 1265              		.loc 1 675 0
 1266 003a 1A68     		ldr	r2, [r3]
 1267              		.loc 1 679 0
 1268 003c 40F21A30 		movw	r0, #794
 1269              		.loc 1 675 0
 1270 0040 42F00102 		orr	r2, r2, #1
 1271 0044 1A60     		str	r2, [r3]
 1272              		.loc 1 678 0
 1273 0046 C4F838E0 		str	lr, [r4, #56]
 1274              		.loc 1 679 0
 1275 004a E063     		str	r0, [r4, #60]
 1276              		.loc 1 684 0
 1277 004c A162     		str	r1, [r4, #40]
 1278              	.LVL101:
 1279              	.LBB49:
 1280              	.LBB50:
 1281              		.loc 1 126 0
 1282 004e 2B6B     		ldr	r3, [r5, #48]
 1283 0050 DB06     		lsls	r3, r3, #27
 1284              		.loc 1 127 0
 1285 0052 58BF     		it	pl
 1286 0054 7F02     		lslpl	r7, r7, #9
 1287              	.LVL102:
 1288              		.loc 1 131 0
 1289 0056 01AC     		add	r4, sp, #4
 1290              	.LVL103:
 1291              		.loc 1 129 0
 1292 0058 012E     		cmp	r6, #1
 1293              		.loc 1 131 0
 1294 005a 3A46     		mov	r2, r7
 1295 005c 2346     		mov	r3, r4
 1296 005e 2846     		mov	r0, r5
 1297              		.loc 1 129 0
 1298 0060 1AD9     		bls	.L147
 1299              	.LVL104:
 1300              		.loc 1 131 0
 1301 0062 1921     		movs	r1, #25
 1302 0064 FFF7FEFF 		bl	sdc_lld_send_cmd_short_crc
 1303              	.LVL105:
 1304 0068 68B9     		cbnz	r0, .L150
 1305              	.L154:
 1306              		.loc 1 138 0
 1307 006a 019A     		ldr	r2, [sp, #4]
 1308 006c 0F4B     		ldr	r3, .L156+8
 1309 006e 1340     		ands	r3, r3, r2
 1310 0070 4BB9     		cbnz	r3, .L150
 1311              	.LBE50:
ARM GAS  C:\Users\danit\AppData\Local\Temp\ccER83YA.s 			page 24


 1312              	.LBE49:
 1313              		.loc 1 691 0
 1314 0072 0C4B     		ldr	r3, .L156
 1315 0074 9922     		movs	r2, #153
 1316 0076 DA62     		str	r2, [r3, #44]
 1317              		.loc 1 695 0
 1318 0078 2846     		mov	r0, r5
 1319 007a 3146     		mov	r1, r6
 1320 007c 2246     		mov	r2, r4
 1321 007e FFF7FEFF 		bl	sdc_lld_wait_transaction_end
 1322              	.LVL106:
 1323 0082 0028     		cmp	r0, #0
 1324 0084 C9D0     		beq	.L152
 1325              	.L150:
 1326              		.loc 1 701 0
 1327 0086 2846     		mov	r0, r5
 1328 0088 3146     		mov	r1, r6
 1329 008a 2246     		mov	r2, r4
 1330 008c FFF7FEFF 		bl	sdc_lld_error_cleanup
 1331              	.LVL107:
 1332              		.loc 1 702 0
 1333 0090 0120     		movs	r0, #1
 1334              	.LBE48:
 1335              	.LBE47:
 1336              		.loc 1 703 0
 1337 0092 02B0     		add	sp, sp, #8
 1338              		.cfi_remember_state
 1339              		.cfi_def_cfa_offset 24
 1340              		@ sp needed
 1341 0094 BDE8F081 		pop	{r4, r5, r6, r7, r8, pc}
 1342              	.LVL108:
 1343              	.L147:
 1344              		.cfi_restore_state
 1345              	.LBB54:
 1346              	.LBB53:
 1347              	.LBB52:
 1348              	.LBB51:
 1349              		.loc 1 137 0
 1350 0098 1821     		movs	r1, #24
 1351 009a FFF7FEFF 		bl	sdc_lld_send_cmd_short_crc
 1352              	.LVL109:
 1353 009e 0028     		cmp	r0, #0
 1354 00a0 E3D0     		beq	.L154
 1355 00a2 F0E7     		b	.L150
 1356              	.L157:
 1357              		.align	2
 1358              	.L156:
 1359 00a4 002C0140 		.word	1073818624
 1360 00a8 808D5B00 		.word	6000000
 1361 00ac 08E0FFFD 		.word	-33562616
 1362 00b0 FF07C000 		.word	12584959
 1363              	.LBE51:
 1364              	.LBE52:
 1365              	.LBE53:
 1366              	.LBE54:
 1367              		.cfi_endproc
 1368              	.LFE136:
ARM GAS  C:\Users\danit\AppData\Local\Temp\ccER83YA.s 			page 25


 1369              		.size	sdc_lld_write_aligned, .-sdc_lld_write_aligned
 1370              		.section	.text.sdc_lld_read,"ax",%progbits
 1371              		.align	2
 1372              		.p2align 4,,15
 1373              		.global	sdc_lld_read
 1374              		.thumb
 1375              		.thumb_func
 1376              		.type	sdc_lld_read, %function
 1377              	sdc_lld_read:
 1378              	.LFB137:
 1379              		.loc 1 720 0
 1380              		.cfi_startproc
 1381              		@ args = 0, pretend = 0, frame = 0
 1382              		@ frame_needed = 0, uses_anonymous_args = 0
 1383              	.LVL110:
 1384 0000 2DE9F041 		push	{r4, r5, r6, r7, r8, lr}
 1385              		.cfi_def_cfa_offset 24
 1386              		.cfi_offset 4, -24
 1387              		.cfi_offset 5, -20
 1388              		.cfi_offset 6, -16
 1389              		.cfi_offset 7, -12
 1390              		.cfi_offset 8, -8
 1391              		.cfi_offset 14, -4
 1392              		.loc 1 723 0
 1393 0004 9407     		lsls	r4, r2, #30
 1394              		.loc 1 720 0
 1395 0006 1546     		mov	r5, r2
 1396              		.loc 1 723 0
 1397 0008 1DD0     		beq	.L159
 1398              	.LVL111:
 1399 000a 1E46     		mov	r6, r3
 1400              	.LBB55:
 1401              		.loc 1 725 0 discriminator 1
 1402 000c C3B1     		cbz	r3, .L163
 1403 000e 0746     		mov	r7, r0
 1404 0010 0C46     		mov	r4, r1
 1405 0012 0E44     		add	r6, r6, r1
 1406 0014 06E0     		b	.L162
 1407              	.LVL112:
 1408              	.L166:
 1409              		.loc 1 728 0 discriminator 2
 1410 0016 2846     		mov	r0, r5
 1411 0018 FFF7FEFF 		bl	memcpy
 1412              	.LVL113:
 1413              		.loc 1 725 0 discriminator 2
 1414 001c B442     		cmp	r4, r6
 1415              		.loc 1 729 0 discriminator 2
 1416 001e 05F50075 		add	r5, r5, #512
 1417              	.LVL114:
 1418              		.loc 1 725 0 discriminator 2
 1419 0022 0DD0     		beq	.L163
 1420              	.LVL115:
 1421              	.L162:
 1422              		.loc 1 726 0
 1423 0024 2146     		mov	r1, r4
 1424 0026 0A4A     		ldr	r2, .L167
 1425 0028 3846     		mov	r0, r7
ARM GAS  C:\Users\danit\AppData\Local\Temp\ccER83YA.s 			page 26


 1426 002a 0123     		movs	r3, #1
 1427 002c FFF7FEFF 		bl	sdc_lld_read_aligned
 1428              	.LVL116:
 1429              		.loc 1 730 0
 1430 0030 0134     		adds	r4, r4, #1
 1431              	.LVL117:
 1432              		.loc 1 728 0
 1433 0032 0749     		ldr	r1, .L167
 1434 0034 4FF40072 		mov	r2, #512
 1435              		.loc 1 726 0
 1436 0038 0028     		cmp	r0, #0
 1437 003a ECD0     		beq	.L166
 1438              	.LBE55:
 1439              		.loc 1 736 0
 1440 003c BDE8F081 		pop	{r4, r5, r6, r7, r8, pc}
 1441              	.LVL118:
 1442              	.L163:
 1443              	.LBB56:
 1444              		.loc 1 732 0
 1445 0040 0020     		movs	r0, #0
 1446 0042 BDE8F081 		pop	{r4, r5, r6, r7, r8, pc}
 1447              	.LVL119:
 1448              	.L159:
 1449              	.LBE56:
 1450              		.loc 1 736 0
 1451 0046 BDE8F041 		pop	{r4, r5, r6, r7, r8, lr}
 1452              		.cfi_restore 14
 1453              		.cfi_restore 8
 1454              		.cfi_restore 7
 1455              		.cfi_restore 6
 1456              		.cfi_restore 5
 1457              		.cfi_restore 4
 1458              		.cfi_def_cfa_offset 0
 1459              		.loc 1 735 0
 1460 004a FFF7FEBF 		b	sdc_lld_read_aligned
 1461              	.LVL120:
 1462              	.L168:
 1463 004e 00BF     		.align	2
 1464              	.L167:
 1465 0050 00000000 		.word	.LANCHOR1
 1466              		.cfi_endproc
 1467              	.LFE137:
 1468              		.size	sdc_lld_read, .-sdc_lld_read
 1469              		.section	.text.sdc_lld_write,"ax",%progbits
 1470              		.align	2
 1471              		.p2align 4,,15
 1472              		.global	sdc_lld_write
 1473              		.thumb
 1474              		.thumb_func
 1475              		.type	sdc_lld_write, %function
 1476              	sdc_lld_write:
 1477              	.LFB138:
 1478              		.loc 1 753 0
 1479              		.cfi_startproc
 1480              		@ args = 0, pretend = 0, frame = 0
 1481              		@ frame_needed = 0, uses_anonymous_args = 0
 1482              	.LVL121:
ARM GAS  C:\Users\danit\AppData\Local\Temp\ccER83YA.s 			page 27


 1483 0000 2DE9F041 		push	{r4, r5, r6, r7, r8, lr}
 1484              		.cfi_def_cfa_offset 24
 1485              		.cfi_offset 4, -24
 1486              		.cfi_offset 5, -20
 1487              		.cfi_offset 6, -16
 1488              		.cfi_offset 7, -12
 1489              		.cfi_offset 8, -8
 1490              		.cfi_offset 14, -4
 1491              		.loc 1 756 0
 1492 0004 9407     		lsls	r4, r2, #30
 1493              		.loc 1 753 0
 1494 0006 1546     		mov	r5, r2
 1495              		.loc 1 756 0
 1496 0008 1DD0     		beq	.L170
 1497              	.LVL122:
 1498 000a 1E46     		mov	r6, r3
 1499              	.LBB57:
 1500              		.loc 1 758 0 discriminator 1
 1501 000c C3B1     		cbz	r3, .L174
 1502 000e 0746     		mov	r7, r0
 1503 0010 0C46     		mov	r4, r1
 1504 0012 0E44     		add	r6, r6, r1
 1505 0014 01E0     		b	.L173
 1506              	.LVL123:
 1507              	.L177:
 1508              		.loc 1 758 0 is_stmt 0 discriminator 2
 1509 0016 B442     		cmp	r4, r6
 1510 0018 12D0     		beq	.L174
 1511              	.LVL124:
 1512              	.L173:
 1513              		.loc 1 759 0 is_stmt 1
 1514 001a 2946     		mov	r1, r5
 1515 001c 4FF40072 		mov	r2, #512
 1516 0020 0B48     		ldr	r0, .L178
 1517 0022 FFF7FEFF 		bl	memcpy
 1518              	.LVL125:
 1519              		.loc 1 761 0
 1520 0026 2146     		mov	r1, r4
 1521 0028 3846     		mov	r0, r7
 1522 002a 094A     		ldr	r2, .L178
 1523 002c 0123     		movs	r3, #1
 1524 002e FFF7FEFF 		bl	sdc_lld_write_aligned
 1525              	.LVL126:
 1526              		.loc 1 763 0
 1527 0032 0134     		adds	r4, r4, #1
 1528              	.LVL127:
 1529              		.loc 1 760 0
 1530 0034 05F50075 		add	r5, r5, #512
 1531              	.LVL128:
 1532              		.loc 1 761 0
 1533 0038 0028     		cmp	r0, #0
 1534 003a ECD0     		beq	.L177
 1535              	.LBE57:
 1536              		.loc 1 769 0
 1537 003c BDE8F081 		pop	{r4, r5, r6, r7, r8, pc}
 1538              	.LVL129:
 1539              	.L174:
ARM GAS  C:\Users\danit\AppData\Local\Temp\ccER83YA.s 			page 28


 1540              	.LBB58:
 1541              		.loc 1 765 0
 1542 0040 0020     		movs	r0, #0
 1543 0042 BDE8F081 		pop	{r4, r5, r6, r7, r8, pc}
 1544              	.LVL130:
 1545              	.L170:
 1546              	.LBE58:
 1547              		.loc 1 769 0
 1548 0046 BDE8F041 		pop	{r4, r5, r6, r7, r8, lr}
 1549              		.cfi_restore 14
 1550              		.cfi_restore 8
 1551              		.cfi_restore 7
 1552              		.cfi_restore 6
 1553              		.cfi_restore 5
 1554              		.cfi_restore 4
 1555              		.cfi_def_cfa_offset 0
 1556              		.loc 1 768 0
 1557 004a FFF7FEBF 		b	sdc_lld_write_aligned
 1558              	.LVL131:
 1559              	.L179:
 1560 004e 00BF     		.align	2
 1561              	.L178:
 1562 0050 00000000 		.word	.LANCHOR1
 1563              		.cfi_endproc
 1564              	.LFE138:
 1565              		.size	sdc_lld_write, .-sdc_lld_write
 1566              		.section	.text.sdc_lld_sync,"ax",%progbits
 1567              		.align	2
 1568              		.p2align 4,,15
 1569              		.global	sdc_lld_sync
 1570              		.thumb
 1571              		.thumb_func
 1572              		.type	sdc_lld_sync, %function
 1573              	sdc_lld_sync:
 1574              	.LFB139:
 1575              		.loc 1 782 0
 1576              		.cfi_startproc
 1577              		@ args = 0, pretend = 0, frame = 0
 1578              		@ frame_needed = 0, uses_anonymous_args = 0
 1579              		@ link register save eliminated.
 1580              	.LVL132:
 1581              		.loc 1 787 0
 1582 0000 0020     		movs	r0, #0
 1583              	.LVL133:
 1584 0002 7047     		bx	lr
 1585              		.cfi_endproc
 1586              	.LFE139:
 1587              		.size	sdc_lld_sync, .-sdc_lld_sync
 1588              		.global	SDCD1
 1589              		.section	.bss.SDCD1,"aw",%nobits
 1590              		.align	2
 1591              		.set	.LANCHOR0,. + 0
 1592              		.type	SDCD1, %object
 1593              		.size	SDCD1, 72
 1594              	SDCD1:
 1595 0000 00000000 		.space	72
 1595      00000000 
ARM GAS  C:\Users\danit\AppData\Local\Temp\ccER83YA.s 			page 29


 1595      00000000 
 1595      00000000 
 1595      00000000 
 1596              		.section	.bss.u,"aw",%nobits
 1597              		.align	2
 1598              		.set	.LANCHOR1,. + 0
 1599              		.type	u, %object
 1600              		.size	u, 512
 1601              	u:
 1602 0000 00000000 		.space	512
 1602      00000000 
 1602      00000000 
 1602      00000000 
 1602      00000000 
 1603              		.text
 1604              	.Letext0:
 1605              		.file 2 "c:\\program files (x86)\\gnu tools arm embedded\\4.9 2015q2\\arm-none-eabi\\include\\mach
 1606              		.file 3 "c:\\program files (x86)\\gnu tools arm embedded\\4.9 2015q2\\arm-none-eabi\\include\\sys\
 1607              		.file 4 "../../../ChibiOS/os/ports/GCC/ARMCMx/chtypes.h"
 1608              		.file 5 "../../../ChibiOS/os/kernel/include/chlists.h"
 1609              		.file 6 "../../../ChibiOS/os/kernel/include/chthreads.h"
 1610              		.file 7 "../../../ChibiOS/os/ports/GCC/ARMCMx/chcore_v7m.h"
 1611              		.file 8 "../../../ChibiOS/os/kernel/include/chschd.h"
 1612              		.file 9 "../../../ChibiOS/os/kernel/include/chmtx.h"
 1613              		.file 10 "../../../ChibiOS/os/hal/platforms/STM32F4xx/stm32f4xx.h"
 1614              		.file 11 "../../../ChibiOS/os/hal/platforms/STM32F4xx/stm32_dma.h"
 1615              		.file 12 "../../../ChibiOS/os/hal/include/io_block.h"
 1616              		.file 13 "../../../ChibiOS/os/hal/platforms/STM32/sdc_lld.h"
 1617              		.file 14 "../../../ChibiOS/os/ports/common/ARMCMx/CMSIS/include/core_cm4.h"
 1618              		.file 15 "../../../ChibiOS/os/hal/include/sdc.h"
 1619              		.file 16 "../../../ChibiOS/os/ports/common/ARMCMx/nvic.h"