ARM GAS  C:\Users\srich\AppData\Local\Temp\ccSr1o7n.s 			page 1


   1              		.syntax unified
   2              		.cpu cortex-m4
   3              		.fpu softvfp
   4              		.eabi_attribute 20, 1
   5              		.eabi_attribute 21, 1
   6              		.eabi_attribute 23, 3
   7              		.eabi_attribute 24, 1
   8              		.eabi_attribute 25, 1
   9              		.eabi_attribute 26, 1
  10              		.eabi_attribute 30, 2
  11              		.eabi_attribute 34, 1
  12              		.eabi_attribute 18, 4
  13              		.thumb
  14              		.file	"sdcard.c"
  15              		.text
  16              	.Ltext0:
  17              		.cfi_sections	.debug_frame
  18              		.section	.text.chprintf,"ax",%progbits
  19              		.align	2
  20              		.p2align 4,,15
  21              		.thumb
  22              		.thumb_func
  23              		.type	chprintf, %function
  24              	chprintf:
  25              	.LFB118:
  26              		.file 1 "../../../ChibiOS/os/various/chprintf.h"
  27              		.loc 1 69 0
  28              		.cfi_startproc
  29              		@ args = 4, pretend = 12, frame = 8
  30              		@ frame_needed = 0, uses_anonymous_args = 1
  31              	.LVL0:
  32 0000 0EB4     		push	{r1, r2, r3}
  33              		.cfi_def_cfa_offset 12
  34              		.cfi_offset 1, -12
  35              		.cfi_offset 2, -8
  36              		.cfi_offset 3, -4
  37 0002 00B5     		push	{lr}
  38              		.cfi_def_cfa_offset 16
  39              		.cfi_offset 14, -16
  40 0004 82B0     		sub	sp, sp, #8
  41              		.cfi_def_cfa_offset 24
  42              		.loc 1 69 0
  43 0006 03AA     		add	r2, sp, #12
  44 0008 52F8041B 		ldr	r1, [r2], #4
  45              		.loc 1 72 0
  46 000c 0192     		str	r2, [sp, #4]
  47              		.loc 1 73 0
  48 000e FFF7FEFF 		bl	chvprintf
  49              	.LVL1:
  50              		.loc 1 75 0
  51 0012 02B0     		add	sp, sp, #8
  52              		.cfi_def_cfa_offset 16
  53              		@ sp needed
  54 0014 5DF804EB 		ldr	lr, [sp], #4
  55              		.cfi_restore 14
  56              		.cfi_def_cfa_offset 12
  57 0018 03B0     		add	sp, sp, #12
ARM GAS  C:\Users\srich\AppData\Local\Temp\ccSr1o7n.s 			page 2


  58              		.cfi_restore 3
  59              		.cfi_restore 2
  60              		.cfi_restore 1
  61              		.cfi_def_cfa_offset 0
  62 001a 7047     		bx	lr
  63              		.cfi_endproc
  64              	.LFE118:
  65              		.size	chprintf, .-chprintf
  66              		.section	.text.scan_files.constprop.1,"ax",%progbits
  67              		.align	2
  68              		.p2align 4,,15
  69              		.thumb
  70              		.thumb_func
  71              		.type	scan_files.constprop.1, %function
  72              	scan_files.constprop.1:
  73              	.LFB135:
  74              		.file 2 "src/sdcard.c"
  75              		.loc 2 80 0
  76              		.cfi_startproc
  77              		@ args = 0, pretend = 0, frame = 72
  78              		@ frame_needed = 0, uses_anonymous_args = 0
  79              	.LVL2:
  80 0000 2DE9F043 		push	{r4, r5, r6, r7, r8, r9, lr}
  81              		.cfi_def_cfa_offset 28
  82              		.cfi_offset 4, -28
  83              		.cfi_offset 5, -24
  84              		.cfi_offset 6, -20
  85              		.cfi_offset 7, -16
  86              		.cfi_offset 8, -12
  87              		.cfi_offset 9, -8
  88              		.cfi_offset 14, -4
  89              		.loc 2 92 0
  90 0004 234E     		ldr	r6, .L19
  91              		.loc 2 88 0
  92 0006 244B     		ldr	r3, .L19+4
  93              		.loc 2 80 0
  94 0008 93B0     		sub	sp, sp, #76
  95              		.cfi_def_cfa_offset 104
  96              		.loc 2 80 0
  97 000a 8046     		mov	r8, r0
  98              		.loc 2 88 0
  99 000c 0793     		str	r3, [sp, #28]
 100              		.loc 2 92 0
 101 000e 3146     		mov	r1, r6
 102              		.loc 2 89 0
 103 0010 4FF48073 		mov	r3, #256
 104              		.loc 2 92 0
 105 0014 09A8     		add	r0, sp, #36
 106              	.LVL3:
 107              		.loc 2 89 0
 108 0016 0893     		str	r3, [sp, #32]
 109              		.loc 2 92 0
 110 0018 FFF7FEFF 		bl	f_opendir
 111              	.LVL4:
 112              		.loc 2 93 0
 113 001c 98BB     		cbnz	r0, .L4
 114              		.loc 2 94 0
ARM GAS  C:\Users\srich\AppData\Local\Temp\ccSr1o7n.s 			page 3


 115 001e 3046     		mov	r0, r6
 116              	.LVL5:
 117 0020 FFF7FEFF 		bl	strlen
 118              	.LVL6:
 119              		.loc 2 107 0
 120 0024 4FF02F09 		mov	r9, #47
 121              		.loc 2 94 0
 122 0028 0746     		mov	r7, r0
 123              	.LVL7:
 124              	.L6:
 125              		.loc 2 96 0
 126 002a 09A8     		add	r0, sp, #36
 127 002c 01A9     		add	r1, sp, #4
 128 002e FFF7FEFF 		bl	f_readdir
 129              	.LVL8:
 130              		.loc 2 97 0
 131 0032 40BB     		cbnz	r0, .L4
 132              	.L18:
 133 0034 9DF80D30 		ldrb	r3, [sp, #13]	@ zero_extendqisi2
 134 0038 2BB3     		cbz	r3, .L4
 135              		.loc 2 99 0
 136 003a 2E2B     		cmp	r3, #46
 137 003c F5D0     		beq	.L6
 138              		.loc 2 102 0
 139 003e 079C     		ldr	r4, [sp, #28]
 140              		.loc 2 106 0
 141 0040 9DF80C30 		ldrb	r3, [sp, #12]	@ zero_extendqisi2
 142              		.loc 2 102 0
 143 0044 94F800E0 		ldrb	lr, [r4]	@ zero_extendqisi2
 144              		.loc 2 115 0
 145 0048 1449     		ldr	r1, .L19+8
 146 004a 124A     		ldr	r2, .L19
 147              		.loc 2 107 0
 148 004c 7D1C     		adds	r5, r7, #1
 149              	.LVL9:
 150              		.loc 2 108 0
 151 004e 7019     		adds	r0, r6, r5
 152              	.LVL10:
 153              		.loc 2 102 0
 154 0050 BEF1000F 		cmp	lr, #0
 155 0054 01D1     		bne	.L7
 156 0056 0DF10D04 		add	r4, sp, #13
 157              	.L7:
 158              	.LVL11:
 159              		.loc 2 106 0
 160 005a 13F0100F 		tst	r3, #16
 161              		.loc 2 115 0
 162 005e 2346     		mov	r3, r4
 163              		.loc 2 106 0
 164 0060 14D0     		beq	.L8
 165              		.loc 2 108 0
 166 0062 2146     		mov	r1, r4
 167              		.loc 2 107 0
 168 0064 06F80790 		strb	r9, [r6, r7]
 169              		.loc 2 108 0
 170 0068 FFF7FEFF 		bl	strcpy
 171              	.LVL12:
ARM GAS  C:\Users\srich\AppData\Local\Temp\ccSr1o7n.s 			page 4


 172              		.loc 2 109 0
 173 006c 4046     		mov	r0, r8
 174 006e FFF7C7FF 		bl	scan_files.constprop.1
 175              	.LVL13:
 176 0072 0346     		mov	r3, r0
 177              	.LVL14:
 178              		.loc 2 110 0
 179 0074 3BB9     		cbnz	r3, .L4
 180              		.loc 2 96 0
 181 0076 09A8     		add	r0, sp, #36
 182 0078 01A9     		add	r1, sp, #4
 183              		.loc 2 112 0
 184 007a 7355     		strb	r3, [r6, r5]
 185              		.loc 2 107 0
 186 007c 2F46     		mov	r7, r5
 187              	.LVL15:
 188              		.loc 2 96 0
 189 007e FFF7FEFF 		bl	f_readdir
 190              	.LVL16:
 191              		.loc 2 97 0
 192 0082 0028     		cmp	r0, #0
 193 0084 D6D0     		beq	.L18
 194              	.LVL17:
 195              	.L4:
 196              		.loc 2 120 0
 197 0086 13B0     		add	sp, sp, #76
 198              		.cfi_remember_state
 199              		.cfi_def_cfa_offset 28
 200              		@ sp needed
 201 0088 BDE8F083 		pop	{r4, r5, r6, r7, r8, r9, pc}
 202              	.LVL18:
 203              	.L8:
 204              		.cfi_restore_state
 205              		.loc 2 115 0
 206 008c 4046     		mov	r0, r8
 207 008e FFF7FEFF 		bl	chprintf
 208              	.LVL19:
 209 0092 CAE7     		b	.L6
 210              	.L20:
 211              		.align	2
 212              	.L19:
 213 0094 00000000 		.word	.LANCHOR1
 214 0098 00000000 		.word	.LANCHOR0
 215 009c 00000000 		.word	.LC0
 216              		.cfi_endproc
 217              	.LFE135:
 218              		.size	scan_files.constprop.1, .-scan_files.constprop.1
 219              		.section	.text.sdc_lld_is_card_inserted,"ax",%progbits
 220              		.align	2
 221              		.p2align 4,,15
 222              		.global	sdc_lld_is_card_inserted
 223              		.thumb
 224              		.thumb_func
 225              		.type	sdc_lld_is_card_inserted, %function
 226              	sdc_lld_is_card_inserted:
 227              	.LFB119:
 228              		.loc 2 44 0
ARM GAS  C:\Users\srich\AppData\Local\Temp\ccSr1o7n.s 			page 5


 229              		.cfi_startproc
 230              		@ args = 0, pretend = 0, frame = 0
 231              		@ frame_needed = 0, uses_anonymous_args = 0
 232              		@ link register save eliminated.
 233              	.LVL20:
 234              		.loc 2 48 0
 235 0000 0120     		movs	r0, #1
 236              	.LVL21:
 237 0002 7047     		bx	lr
 238              		.cfi_endproc
 239              	.LFE119:
 240              		.size	sdc_lld_is_card_inserted, .-sdc_lld_is_card_inserted
 241              		.section	.text.sdc_lld_is_write_protected,"ax",%progbits
 242              		.align	2
 243              		.p2align 4,,15
 244              		.global	sdc_lld_is_write_protected
 245              		.thumb
 246              		.thumb_func
 247              		.type	sdc_lld_is_write_protected, %function
 248              	sdc_lld_is_write_protected:
 249              	.LFB120:
 250              		.loc 2 58 0
 251              		.cfi_startproc
 252              		@ args = 0, pretend = 0, frame = 0
 253              		@ frame_needed = 0, uses_anonymous_args = 0
 254              		@ link register save eliminated.
 255              	.LVL22:
 256              		.loc 2 62 0
 257 0000 0020     		movs	r0, #0
 258              	.LVL23:
 259 0002 7047     		bx	lr
 260              		.cfi_endproc
 261              	.LFE120:
 262              		.size	sdc_lld_is_write_protected, .-sdc_lld_is_write_protected
 263              		.section	.text.fillbuffer,"ax",%progbits
 264              		.align	2
 265              		.p2align 4,,15
 266              		.global	fillbuffer
 267              		.thumb
 268              		.thumb_func
 269              		.type	fillbuffer, %function
 270              	fillbuffer:
 271              	.LFB121:
 272              		.loc 2 69 0
 273              		.cfi_startproc
 274              		@ args = 0, pretend = 0, frame = 0
 275              		@ frame_needed = 0, uses_anonymous_args = 0
 276              		@ link register save eliminated.
 277              	.LVL24:
 278 0000 4B1E     		subs	r3, r1, #1
 279 0002 01F6FF72 		addw	r2, r1, #4095
 280              	.LVL25:
 281              	.L24:
 282              		.loc 2 72 0 discriminator 3
 283 0006 03F8010F 		strb	r0, [r3, #1]!
 284              	.LVL26:
 285              		.loc 2 71 0 discriminator 3
ARM GAS  C:\Users\srich\AppData\Local\Temp\ccSr1o7n.s 			page 6


 286 000a 9342     		cmp	r3, r2
 287 000c FBD1     		bne	.L24
 288              		.loc 2 73 0
 289 000e 7047     		bx	lr
 290              		.cfi_endproc
 291              	.LFE121:
 292              		.size	fillbuffer, .-fillbuffer
 293              		.section	.text.fillbuffers,"ax",%progbits
 294              		.align	2
 295              		.p2align 4,,15
 296              		.global	fillbuffers
 297              		.thumb
 298              		.thumb_func
 299              		.type	fillbuffers, %function
 300              	fillbuffers:
 301              	.LFB122:
 302              		.loc 2 75 0
 303              		.cfi_startproc
 304              		@ args = 0, pretend = 0, frame = 0
 305              		@ frame_needed = 0, uses_anonymous_args = 0
 306              		@ link register save eliminated.
 307              	.LVL27:
 308 0000 074B     		ldr	r3, .L31
 309              	.LVL28:
 310 0002 03F58052 		add	r2, r3, #4096
 311              	.LVL29:
 312              	.L27:
 313              	.LBB19:
 314              	.LBB20:
 315              		.loc 2 72 0
 316 0006 03F8010F 		strb	r0, [r3, #1]!
 317              	.LVL30:
 318              		.loc 2 71 0
 319 000a 9342     		cmp	r3, r2
 320 000c FBD1     		bne	.L27
 321 000e 054B     		ldr	r3, .L31+4
 322              	.LVL31:
 323 0010 03F58052 		add	r2, r3, #4096
 324              	.L28:
 325              	.LVL32:
 326              	.LBE20:
 327              	.LBE19:
 328              	.LBB21:
 329              	.LBB22:
 330              		.loc 2 72 0
 331 0014 03F8010F 		strb	r0, [r3, #1]!
 332              	.LVL33:
 333              		.loc 2 71 0
 334 0018 9342     		cmp	r3, r2
 335 001a FBD1     		bne	.L28
 336              	.LBE22:
 337              	.LBE21:
 338              		.loc 2 78 0
 339 001c 7047     		bx	lr
 340              	.L32:
 341 001e 00BF     		.align	2
 342              	.L31:
ARM GAS  C:\Users\srich\AppData\Local\Temp\ccSr1o7n.s 			page 7


 343 0020 FFFFFFFF 		.word	.LANCHOR2-1
 344 0024 FFFFFFFF 		.word	.LANCHOR3-1
 345              		.cfi_endproc
 346              	.LFE122:
 347              		.size	fillbuffers, .-fillbuffers
 348              		.section	.text.sdcardInit,"ax",%progbits
 349              		.align	2
 350              		.p2align 4,,15
 351              		.global	sdcardInit
 352              		.thumb
 353              		.thumb_func
 354              		.type	sdcardInit, %function
 355              	sdcardInit:
 356              	.LFB124:
 357              		.loc 2 122 0
 358              		.cfi_startproc
 359              		@ args = 0, pretend = 0, frame = 0
 360              		@ frame_needed = 0, uses_anonymous_args = 0
 361 0000 08B5     		push	{r3, lr}
 362              		.cfi_def_cfa_offset 8
 363              		.cfi_offset 3, -8
 364              		.cfi_offset 14, -4
 365              		.loc 2 126 0
 366 0002 0448     		ldr	r0, .L35
 367 0004 0449     		ldr	r1, .L35+4
 368 0006 FFF7FEFF 		bl	sdcStart
 369              	.LVL34:
 370              		.loc 2 128 0
 371 000a 044B     		ldr	r3, .L35+8
 372 000c 0022     		movs	r2, #0
 373 000e 1A70     		strb	r2, [r3]
 374 0010 08BD     		pop	{r3, pc}
 375              	.L36:
 376 0012 00BF     		.align	2
 377              	.L35:
 378 0014 00000000 		.word	SDCD1
 379 0018 00000000 		.word	.LANCHOR4
 380 001c 00000000 		.word	.LANCHOR5
 381              		.cfi_endproc
 382              	.LFE124:
 383              		.size	sdcardInit, .-sdcardInit
 384              		.section	.text.sdcardMount,"ax",%progbits
 385              		.align	2
 386              		.p2align 4,,15
 387              		.global	sdcardMount
 388              		.thumb
 389              		.thumb_func
 390              		.type	sdcardMount, %function
 391              	sdcardMount:
 392              	.LFB125:
 393              		.loc 2 131 0
 394              		.cfi_startproc
 395              		@ args = 0, pretend = 0, frame = 8
 396              		@ frame_needed = 0, uses_anonymous_args = 0
 397 0000 10B5     		push	{r4, lr}
 398              		.cfi_def_cfa_offset 8
 399              		.cfi_offset 4, -8
ARM GAS  C:\Users\srich\AppData\Local\Temp\ccSr1o7n.s 			page 8


 400              		.cfi_offset 14, -4
 401              		.loc 2 139 0
 402 0002 1348     		ldr	r0, .L45
 403              		.loc 2 131 0
 404 0004 82B0     		sub	sp, sp, #8
 405              		.cfi_def_cfa_offset 16
 406              		.loc 2 139 0
 407 0006 FFF7FEFF 		bl	sdcConnect
 408              	.LVL35:
 409 000a 80B9     		cbnz	r0, .L41
 410              		.loc 2 142 0
 411 000c 1149     		ldr	r1, .L45+4
 412 000e FFF7FEFF 		bl	f_mount
 413              	.LVL36:
 414              		.loc 2 143 0
 415 0012 0446     		mov	r4, r0
 416 0014 68B9     		cbnz	r0, .L43
 417              		.loc 2 147 0
 418 0016 1048     		ldr	r0, .L45+8
 419              	.LVL37:
 420 0018 6946     		mov	r1, sp
 421 001a 01AA     		add	r2, sp, #4
 422 001c FFF7FEFF 		bl	f_getfree
 423              	.LVL38:
 424              		.loc 2 148 0
 425 0020 60B9     		cbnz	r0, .L44
 426              		.loc 2 153 0
 427 0022 0E4B     		ldr	r3, .L45+12
 428 0024 0122     		movs	r2, #1
 429 0026 1A70     		strb	r2, [r3]
 430              	.LVL39:
 431              	.L38:
 432              		.loc 2 155 0
 433 0028 40B2     		sxtb	r0, r0
 434 002a 02B0     		add	sp, sp, #8
 435              		.cfi_remember_state
 436              		.cfi_def_cfa_offset 8
 437              		@ sp needed
 438 002c 10BD     		pop	{r4, pc}
 439              	.L41:
 440              		.cfi_restore_state
 441              		.loc 2 140 0
 442 002e FF20     		movs	r0, #255
 443 0030 FAE7     		b	.L38
 444              	.LVL40:
 445              	.L43:
 446              		.loc 2 144 0
 447 0032 0748     		ldr	r0, .L45
 448              	.LVL41:
 449 0034 FFF7FEFF 		bl	sdcDisconnect
 450              	.LVL42:
 451              		.loc 2 145 0
 452 0038 FE20     		movs	r0, #254
 453 003a F5E7     		b	.L38
 454              	.LVL43:
 455              	.L44:
 456              	.LBB25:
ARM GAS  C:\Users\srich\AppData\Local\Temp\ccSr1o7n.s 			page 9


 457              	.LBB26:
 458              		.loc 2 149 0
 459 003c 2146     		mov	r1, r4
 460 003e 2046     		mov	r0, r4
 461              	.LVL44:
 462 0040 FFF7FEFF 		bl	f_mount
 463              	.LVL45:
 464              		.loc 2 150 0
 465 0044 0248     		ldr	r0, .L45
 466 0046 FFF7FEFF 		bl	sdcDisconnect
 467              	.LVL46:
 468 004a FD20     		movs	r0, #253
 469 004c ECE7     		b	.L38
 470              	.L46:
 471 004e 00BF     		.align	2
 472              	.L45:
 473 0050 00000000 		.word	SDCD1
 474 0054 00000000 		.word	.LANCHOR6
 475 0058 08000000 		.word	.LC1
 476 005c 00000000 		.word	.LANCHOR5
 477              	.LBE26:
 478              	.LBE25:
 479              		.cfi_endproc
 480              	.LFE125:
 481              		.size	sdcardMount, .-sdcardMount
 482              		.section	.text.sdcardUMount,"ax",%progbits
 483              		.align	2
 484              		.p2align 4,,15
 485              		.global	sdcardUMount
 486              		.thumb
 487              		.thumb_func
 488              		.type	sdcardUMount, %function
 489              	sdcardUMount:
 490              	.LFB126:
 491              		.loc 2 157 0
 492              		.cfi_startproc
 493              		@ args = 0, pretend = 0, frame = 0
 494              		@ frame_needed = 0, uses_anonymous_args = 0
 495 0000 10B5     		push	{r4, lr}
 496              		.cfi_def_cfa_offset 8
 497              		.cfi_offset 4, -8
 498              		.cfi_offset 14, -4
 499              		.loc 2 158 0
 500 0002 064B     		ldr	r3, .L49
 501 0004 0024     		movs	r4, #0
 502              		.loc 2 159 0
 503 0006 2146     		mov	r1, r4
 504 0008 2046     		mov	r0, r4
 505              		.loc 2 158 0
 506 000a 1C70     		strb	r4, [r3]
 507              		.loc 2 159 0
 508 000c FFF7FEFF 		bl	f_mount
 509              	.LVL47:
 510              		.loc 2 160 0
 511 0010 0348     		ldr	r0, .L49+4
 512 0012 FFF7FEFF 		bl	sdcDisconnect
 513              	.LVL48:
ARM GAS  C:\Users\srich\AppData\Local\Temp\ccSr1o7n.s 			page 10


 514              		.loc 2 162 0
 515 0016 2046     		mov	r0, r4
 516 0018 10BD     		pop	{r4, pc}
 517              	.L50:
 518 001a 00BF     		.align	2
 519              	.L49:
 520 001c 00000000 		.word	.LANCHOR5
 521 0020 00000000 		.word	SDCD1
 522              		.cfi_endproc
 523              	.LFE126:
 524              		.size	sdcardUMount, .-sdcardUMount
 525              		.section	.text.sdcardIsMounted,"ax",%progbits
 526              		.align	2
 527              		.p2align 4,,15
 528              		.global	sdcardIsMounted
 529              		.thumb
 530              		.thumb_func
 531              		.type	sdcardIsMounted, %function
 532              	sdcardIsMounted:
 533              	.LFB127:
 534              		.loc 2 164 0
 535              		.cfi_startproc
 536              		@ args = 0, pretend = 0, frame = 0
 537              		@ frame_needed = 0, uses_anonymous_args = 0
 538              		@ link register save eliminated.
 539              		.loc 2 165 0
 540 0000 014B     		ldr	r3, .L52
 541              		.loc 2 166 0
 542 0002 1878     		ldrb	r0, [r3]	@ zero_extendqisi2
 543 0004 7047     		bx	lr
 544              	.L53:
 545 0006 00BF     		.align	2
 546              	.L52:
 547 0008 00000000 		.word	.LANCHOR5
 548              		.cfi_endproc
 549              	.LFE127:
 550              		.size	sdcardIsMounted, .-sdcardIsMounted
 551              		.section	.text.cmd_tree,"ax",%progbits
 552              		.align	2
 553              		.p2align 4,,15
 554              		.global	cmd_tree
 555              		.thumb
 556              		.thumb_func
 557              		.type	cmd_tree, %function
 558              	cmd_tree:
 559              	.LFB128:
 560              		.loc 2 168 0
 561              		.cfi_startproc
 562              		@ args = 0, pretend = 0, frame = 8
 563              		@ frame_needed = 0, uses_anonymous_args = 0
 564              	.LVL49:
 565 0000 30B5     		push	{r4, r5, lr}
 566              		.cfi_def_cfa_offset 12
 567              		.cfi_offset 4, -12
 568              		.cfi_offset 5, -8
 569              		.cfi_offset 14, -4
 570              		.loc 2 174 0
ARM GAS  C:\Users\srich\AppData\Local\Temp\ccSr1o7n.s 			page 11


 571 0002 0029     		cmp	r1, #0
 572              		.loc 2 168 0
 573 0004 85B0     		sub	sp, sp, #20
 574              		.cfi_def_cfa_offset 32
 575              		.loc 2 174 0
 576 0006 04DD     		ble	.L55
 577              		.loc 2 175 0
 578 0008 1549     		ldr	r1, .L61
 579              	.LVL50:
 580 000a FFF7FEFF 		bl	chprintf
 581              	.LVL51:
 582              	.L54:
 583              		.loc 2 193 0
 584 000e 05B0     		add	sp, sp, #20
 585              		.cfi_remember_state
 586              		.cfi_def_cfa_offset 12
 587              		@ sp needed
 588 0010 30BD     		pop	{r4, r5, pc}
 589              	.LVL52:
 590              	.L55:
 591              		.cfi_restore_state
 592              		.loc 2 178 0
 593 0012 144B     		ldr	r3, .L61+4
 594 0014 1B78     		ldrb	r3, [r3]	@ zero_extendqisi2
 595 0016 23B9     		cbnz	r3, .L57
 596              		.loc 2 179 0
 597 0018 1349     		ldr	r1, .L61+8
 598              	.LVL53:
 599 001a FFF7FEFF 		bl	chprintf
 600              	.LVL54:
 601              		.loc 2 193 0
 602 001e 05B0     		add	sp, sp, #20
 603              		.cfi_remember_state
 604              		.cfi_def_cfa_offset 12
 605              		@ sp needed
 606 0020 30BD     		pop	{r4, r5, pc}
 607              	.LVL55:
 608              	.L57:
 609              		.cfi_restore_state
 610 0022 0446     		mov	r4, r0
 611              		.loc 2 182 0
 612 0024 02A9     		add	r1, sp, #8
 613              	.LVL56:
 614 0026 1148     		ldr	r0, .L61+12
 615              	.LVL57:
 616 0028 03AA     		add	r2, sp, #12
 617              	.LVL58:
 618 002a FFF7FEFF 		bl	f_getfree
 619              	.LVL59:
 620              		.loc 2 183 0
 621 002e 0546     		mov	r5, r0
 622 0030 28B1     		cbz	r0, .L58
 623              		.loc 2 184 0
 624 0032 2046     		mov	r0, r4
 625              	.LVL60:
 626 0034 0E49     		ldr	r1, .L61+16
 627 0036 FFF7FEFF 		bl	chprintf
ARM GAS  C:\Users\srich\AppData\Local\Temp\ccSr1o7n.s 			page 12


 628              	.LVL61:
 629              		.loc 2 193 0
 630 003a 05B0     		add	sp, sp, #20
 631              		.cfi_remember_state
 632              		.cfi_def_cfa_offset 12
 633              		@ sp needed
 634 003c 30BD     		pop	{r4, r5, pc}
 635              	.LVL62:
 636              	.L58:
 637              		.cfi_restore_state
 638              		.loc 2 190 0
 639 003e 0D4B     		ldr	r3, .L61+20
 640 0040 029A     		ldr	r2, [sp, #8]
 641 0042 9B78     		ldrb	r3, [r3, #2]	@ zero_extendqisi2
 642              		.loc 2 187 0
 643 0044 0C49     		ldr	r1, .L61+24
 644 0046 5002     		lsls	r0, r2, #9
 645              	.LVL63:
 646 0048 03FB00F0 		mul	r0, r3, r0
 647 004c 0090     		str	r0, [sp]
 648 004e 2046     		mov	r0, r4
 649 0050 FFF7FEFF 		bl	chprintf
 650              	.LVL64:
 651              		.loc 2 191 0
 652 0054 094B     		ldr	r3, .L61+28
 653              		.loc 2 192 0
 654 0056 2046     		mov	r0, r4
 655              		.loc 2 191 0
 656 0058 1D70     		strb	r5, [r3]
 657              		.loc 2 192 0
 658 005a FFF7FEFF 		bl	scan_files.constprop.1
 659              	.LVL65:
 660 005e D6E7     		b	.L54
 661              	.L62:
 662              		.align	2
 663              	.L61:
 664 0060 0C000000 		.word	.LC2
 665 0064 00000000 		.word	.LANCHOR5
 666 0068 1C000000 		.word	.LC3
 667 006c 08000000 		.word	.LC1
 668 0070 38000000 		.word	.LC4
 669 0074 00000000 		.word	.LANCHOR6
 670 0078 54000000 		.word	.LC5
 671 007c 00000000 		.word	.LANCHOR1
 672              		.cfi_endproc
 673              	.LFE128:
 674              		.size	cmd_tree, .-cmd_tree
 675              		.section	.text.cmd_mountsd,"ax",%progbits
 676              		.align	2
 677              		.p2align 4,,15
 678              		.global	cmd_mountsd
 679              		.thumb
 680              		.thumb_func
 681              		.type	cmd_mountsd, %function
 682              	cmd_mountsd:
 683              	.LFB129:
 684              		.loc 2 195 0
ARM GAS  C:\Users\srich\AppData\Local\Temp\ccSr1o7n.s 			page 13


 685              		.cfi_startproc
 686              		@ args = 0, pretend = 0, frame = 0
 687              		@ frame_needed = 0, uses_anonymous_args = 0
 688              	.LVL66:
 689              		.loc 2 199 0
 690 0000 0029     		cmp	r1, #0
 691 0002 02DD     		ble	.L64
 692              		.loc 2 200 0
 693 0004 1549     		ldr	r1, .L72
 694              	.LVL67:
 695 0006 FFF7FEBF 		b	chprintf
 696              	.LVL68:
 697              	.L64:
 698              		.loc 2 195 0
 699 000a 10B5     		push	{r4, lr}
 700              		.cfi_def_cfa_offset 8
 701              		.cfi_offset 4, -8
 702              		.cfi_offset 14, -4
 703 000c 0446     		mov	r4, r0
 704              		.loc 2 204 0
 705 000e FFF7FEFF 		bl	sdcardMount
 706              	.LVL69:
 707              		.loc 2 205 0
 708 0012 0330     		adds	r0, r0, #3
 709              	.LVL70:
 710 0014 0328     		cmp	r0, #3
 711 0016 1BD8     		bhi	.L65
 712 0018 DFE800F0 		tbb	[pc, r0]
 713              	.L67:
 714 001c 14       		.byte	(.L66-.L67)/2
 715 001d 0E       		.byte	(.L68-.L67)/2
 716 001e 08       		.byte	(.L69-.L67)/2
 717 001f 02       		.byte	(.L70-.L67)/2
 718              		.p2align 1
 719              	.L70:
 720              		.loc 2 216 0
 721 0020 2046     		mov	r0, r4
 722 0022 0F49     		ldr	r1, .L72+4
 723              		.loc 2 222 0
 724 0024 BDE81040 		pop	{r4, lr}
 725              		.cfi_remember_state
 726              		.cfi_restore 14
 727              		.cfi_restore 4
 728              		.cfi_def_cfa_offset 0
 729              	.LVL71:
 730              		.loc 2 216 0
 731 0028 FFF7FEBF 		b	chprintf
 732              	.LVL72:
 733              	.L69:
 734              		.cfi_restore_state
 735              		.loc 2 207 0
 736 002c 2046     		mov	r0, r4
 737 002e 0D49     		ldr	r1, .L72+8
 738              		.loc 2 222 0
 739 0030 BDE81040 		pop	{r4, lr}
 740              		.cfi_remember_state
 741              		.cfi_restore 14
ARM GAS  C:\Users\srich\AppData\Local\Temp\ccSr1o7n.s 			page 14


 742              		.cfi_restore 4
 743              		.cfi_def_cfa_offset 0
 744              	.LVL73:
 745              		.loc 2 207 0
 746 0034 FFF7FEBF 		b	chprintf
 747              	.LVL74:
 748              	.L68:
 749              		.cfi_restore_state
 750              		.loc 2 210 0
 751 0038 2046     		mov	r0, r4
 752 003a 0B49     		ldr	r1, .L72+12
 753              		.loc 2 222 0
 754 003c BDE81040 		pop	{r4, lr}
 755              		.cfi_remember_state
 756              		.cfi_restore 14
 757              		.cfi_restore 4
 758              		.cfi_def_cfa_offset 0
 759              	.LVL75:
 760              		.loc 2 210 0
 761 0040 FFF7FEBF 		b	chprintf
 762              	.LVL76:
 763              	.L66:
 764              		.cfi_restore_state
 765              		.loc 2 213 0
 766 0044 2046     		mov	r0, r4
 767 0046 0949     		ldr	r1, .L72+16
 768              		.loc 2 222 0
 769 0048 BDE81040 		pop	{r4, lr}
 770              		.cfi_restore 14
 771              		.cfi_restore 4
 772              		.cfi_def_cfa_offset 0
 773              	.LVL77:
 774              		.loc 2 213 0
 775 004c FFF7FEBF 		b	chprintf
 776              	.LVL78:
 777              	.L65:
 778              		.loc 2 219 0
 779 0050 2046     		mov	r0, r4
 780 0052 0749     		ldr	r1, .L72+20
 781              		.loc 2 222 0
 782 0054 BDE81040 		pop	{r4, lr}
 783              	.LVL79:
 784              		.loc 2 219 0
 785 0058 FFF7FEBF 		b	chprintf
 786              	.LVL80:
 787              	.L73:
 788              		.align	2
 789              	.L72:
 790 005c 98000000 		.word	.LC6
 791 0060 E0000000 		.word	.LC9
 792 0064 AC000000 		.word	.LC7
 793 0068 C8000000 		.word	.LC8
 794 006c 38000000 		.word	.LC4
 795 0070 F4000000 		.word	.LC10
 796              		.cfi_endproc
 797              	.LFE129:
 798              		.size	cmd_mountsd, .-cmd_mountsd
ARM GAS  C:\Users\srich\AppData\Local\Temp\ccSr1o7n.s 			page 15


 799              		.section	.text.cmd_umountsd,"ax",%progbits
 800              		.align	2
 801              		.p2align 4,,15
 802              		.global	cmd_umountsd
 803              		.thumb
 804              		.thumb_func
 805              		.type	cmd_umountsd, %function
 806              	cmd_umountsd:
 807              	.LFB130:
 808              		.loc 2 224 0
 809              		.cfi_startproc
 810              		@ args = 0, pretend = 0, frame = 0
 811              		@ frame_needed = 0, uses_anonymous_args = 0
 812              	.LVL81:
 813              		.loc 2 228 0
 814 0000 0029     		cmp	r1, #0
 815 0002 02DD     		ble	.L75
 816              		.loc 2 229 0
 817 0004 0949     		ldr	r1, .L79
 818              	.LVL82:
 819 0006 FFF7FEBF 		b	chprintf
 820              	.LVL83:
 821              	.L75:
 822              		.loc 2 224 0
 823 000a 10B5     		push	{r4, lr}
 824              		.cfi_def_cfa_offset 8
 825              		.cfi_offset 4, -8
 826              		.cfi_offset 14, -4
 827 000c 0446     		mov	r4, r0
 828              		.loc 2 233 0
 829 000e FFF7FEFF 		bl	sdcardUMount
 830              	.LVL84:
 831              		.loc 2 234 0
 832 0012 28B1     		cbz	r0, .L78
 833              		.loc 2 238 0
 834 0014 2046     		mov	r0, r4
 835              	.LVL85:
 836 0016 0649     		ldr	r1, .L79+4
 837              		.loc 2 240 0
 838 0018 BDE81040 		pop	{r4, lr}
 839              		.cfi_remember_state
 840              		.cfi_restore 14
 841              		.cfi_restore 4
 842              		.cfi_def_cfa_offset 0
 843              	.LVL86:
 844              		.loc 2 238 0
 845 001c FFF7FEBF 		b	chprintf
 846              	.LVL87:
 847              	.L78:
 848              		.cfi_restore_state
 849              		.loc 2 235 0
 850 0020 2046     		mov	r0, r4
 851              	.LVL88:
 852 0022 0449     		ldr	r1, .L79+8
 853              		.loc 2 240 0
 854 0024 BDE81040 		pop	{r4, lr}
 855              		.cfi_restore 14
ARM GAS  C:\Users\srich\AppData\Local\Temp\ccSr1o7n.s 			page 16


 856              		.cfi_restore 4
 857              		.cfi_def_cfa_offset 0
 858              	.LVL89:
 859              		.loc 2 235 0
 860 0028 FFF7FEBF 		b	chprintf
 861              	.LVL90:
 862              	.L80:
 863              		.align	2
 864              	.L79:
 865 002c 04010000 		.word	.LC11
 866 0030 2C010000 		.word	.LC13
 867 0034 18010000 		.word	.LC12
 868              		.cfi_endproc
 869              	.LFE130:
 870              		.size	cmd_umountsd, .-cmd_umountsd
 871              		.section	.text.cmd_cat,"ax",%progbits
 872              		.align	2
 873              		.p2align 4,,15
 874              		.global	cmd_cat
 875              		.thumb
 876              		.thumb_func
 877              		.type	cmd_cat, %function
 878              	cmd_cat:
 879              	.LFB131:
 880              		.loc 2 242 0
 881              		.cfi_startproc
 882              		@ args = 0, pretend = 0, frame = 632
 883              		@ frame_needed = 0, uses_anonymous_args = 0
 884              	.LVL91:
 885 0000 10B5     		push	{r4, lr}
 886              		.cfi_def_cfa_offset 8
 887              		.cfi_offset 4, -8
 888              		.cfi_offset 14, -4
 889              		.loc 2 248 0
 890 0002 0129     		cmp	r1, #1
 891              		.loc 2 242 0
 892 0004 ADF51E7D 		sub	sp, sp, #632
 893              		.cfi_def_cfa_offset 640
 894              		.loc 2 242 0
 895 0008 0B46     		mov	r3, r1
 896              		.loc 2 248 0
 897 000a 05D0     		beq	.L82
 898              		.loc 2 249 0
 899 000c 1949     		ldr	r1, .L96
 900              	.LVL92:
 901 000e FFF7FEFF 		bl	chprintf
 902              	.LVL93:
 903              	.L81:
 904              		.loc 2 271 0
 905 0012 0DF51E7D 		add	sp, sp, #632
 906              		.cfi_remember_state
 907              		.cfi_def_cfa_offset 8
 908              		@ sp needed
 909 0016 10BD     		pop	{r4, pc}
 910              	.LVL94:
 911              	.L82:
 912              		.cfi_restore_state
ARM GAS  C:\Users\srich\AppData\Local\Temp\ccSr1o7n.s 			page 17


 913              		.loc 2 252 0
 914 0018 1749     		ldr	r1, .L96+4
 915              	.LVL95:
 916 001a 0978     		ldrb	r1, [r1]	@ zero_extendqisi2
 917 001c 29B9     		cbnz	r1, .L84
 918              		.loc 2 253 0
 919 001e 1749     		ldr	r1, .L96+8
 920 0020 FFF7FEFF 		bl	chprintf
 921              	.LVL96:
 922              		.loc 2 271 0
 923 0024 0DF51E7D 		add	sp, sp, #632
 924              		.cfi_remember_state
 925              		.cfi_def_cfa_offset 8
 926              		@ sp needed
 927 0028 10BD     		pop	{r4, pc}
 928              	.LVL97:
 929              	.L84:
 930              		.cfi_restore_state
 931 002a 0446     		mov	r4, r0
 932              		.loc 2 256 0
 933 002c 1168     		ldr	r1, [r2]
 934 002e 15A8     		add	r0, sp, #84
 935              	.LVL98:
 936 0030 1A46     		mov	r2, r3
 937              	.LVL99:
 938 0032 FFF7FEFF 		bl	f_open
 939              	.LVL100:
 940              		.loc 2 257 0
 941 0036 58B1     		cbz	r0, .L85
 942              		.loc 2 258 0
 943 0038 2046     		mov	r0, r4
 944              	.LVL101:
 945 003a 1149     		ldr	r1, .L96+12
 946 003c FFF7FEFF 		bl	chprintf
 947              	.LVL102:
 948              		.loc 2 271 0
 949 0040 0DF51E7D 		add	sp, sp, #632
 950              		.cfi_remember_state
 951              		.cfi_def_cfa_offset 8
 952              		@ sp needed
 953 0044 10BD     		pop	{r4, pc}
 954              	.LVL103:
 955              	.L91:
 956              		.cfi_restore_state
 957              		.loc 2 263 0
 958 0046 2046     		mov	r0, r4
 959              	.LVL104:
 960 0048 0E49     		ldr	r1, .L96+16
 961 004a 01AA     		add	r2, sp, #4
 962 004c FFF7FEFF 		bl	chprintf
 963              	.LVL105:
 964              	.L85:
 965              		.loc 2 261 0
 966 0050 01A8     		add	r0, sp, #4
 967 0052 5021     		movs	r1, #80
 968 0054 15AA     		add	r2, sp, #84
 969 0056 FFF7FEFF 		bl	f_gets
ARM GAS  C:\Users\srich\AppData\Local\Temp\ccSr1o7n.s 			page 18


 970              	.LVL106:
 971              		.loc 2 262 0
 972 005a 0028     		cmp	r0, #0
 973 005c F3D1     		bne	.L91
 974              		.loc 2 266 0
 975 005e 15A8     		add	r0, sp, #84
 976              	.LVL107:
 977 0060 FFF7FEFF 		bl	f_close
 978              	.LVL108:
 979              		.loc 2 267 0
 980 0064 0028     		cmp	r0, #0
 981 0066 D4D0     		beq	.L81
 982              		.loc 2 268 0
 983 0068 2046     		mov	r0, r4
 984              	.LVL109:
 985 006a 0749     		ldr	r1, .L96+20
 986 006c FFF7FEFF 		bl	chprintf
 987              	.LVL110:
 988              		.loc 2 269 0
 989 0070 CFE7     		b	.L81
 990              	.L97:
 991 0072 00BF     		.align	2
 992              	.L96:
 993 0074 48010000 		.word	.LC14
 994 0078 00000000 		.word	.LANCHOR5
 995 007c 1C000000 		.word	.LC3
 996 0080 5C010000 		.word	.LC15
 997 0084 74010000 		.word	.LC16
 998 0088 78010000 		.word	.LC17
 999              		.cfi_endproc
 1000              	.LFE131:
 1001              		.size	cmd_cat, .-cmd_cat
 1002              		.section	.text.cmd_sdiotest,"ax",%progbits
 1003              		.align	2
 1004              		.p2align 4,,15
 1005              		.global	cmd_sdiotest
 1006              		.thumb
 1007              		.thumb_func
 1008              		.type	cmd_sdiotest, %function
 1009              	cmd_sdiotest:
 1010              	.LFB132:
 1011              		.loc 2 273 0
 1012              		.cfi_startproc
 1013              		@ args = 0, pretend = 0, frame = 640
 1014              		@ frame_needed = 0, uses_anonymous_args = 0
 1015              	.LVL111:
 1016 0000 2DE9F043 		push	{r4, r5, r6, r7, r8, r9, lr}
 1017              		.cfi_def_cfa_offset 28
 1018              		.cfi_offset 4, -28
 1019              		.cfi_offset 5, -24
 1020              		.cfi_offset 6, -20
 1021              		.cfi_offset 7, -16
 1022              		.cfi_offset 8, -12
 1023              		.cfi_offset 9, -8
 1024              		.cfi_offset 14, -4
 1025              		.loc 2 278 0
 1026 0004 6E49     		ldr	r1, .L199
ARM GAS  C:\Users\srich\AppData\Local\Temp\ccSr1o7n.s 			page 19


 1027              	.LVL112:
 1028              		.loc 2 281 0
 1029 0006 6F4C     		ldr	r4, .L199+4
 1030              		.loc 2 273 0
 1031 0008 ADF5237D 		sub	sp, sp, #652
 1032              		.cfi_def_cfa_offset 680
 1033              		.loc 2 273 0
 1034 000c 8046     		mov	r8, r0
 1035              		.loc 2 278 0
 1036 000e FFF7FEFF 		bl	chprintf
 1037              	.LVL113:
 1038              		.loc 2 279 0
 1039 0012 6420     		movs	r0, #100
 1040 0014 FFF7FEFF 		bl	chThdSleep
 1041              	.LVL114:
 1042              		.loc 2 281 0
 1043 0018 2046     		mov	r0, r4
 1044 001a FFF7FEFF 		bl	sdcConnect
 1045              	.LVL115:
 1046 001e 0546     		mov	r5, r0
 1047 0020 0028     		cmp	r0, #0
 1048 0022 40F0C780 		bne	.L99
 1049              	.LBB27:
 1050              		.loc 2 283 0
 1051 0026 4046     		mov	r0, r8
 1052 0028 6749     		ldr	r1, .L199+8
 1053 002a FFF7FEFF 		bl	chprintf
 1054              	.LVL116:
 1055              		.loc 2 284 0
 1056 002e 4046     		mov	r0, r8
 1057 0030 6649     		ldr	r1, .L199+12
 1058 0032 FFF7FEFF 		bl	chprintf
 1059              	.LVL117:
 1060              		.loc 2 285 0
 1061 0036 E069     		ldr	r0, [r4, #28]
 1062 0038 A169     		ldr	r1, [r4, #24]
 1063 003a 626A     		ldr	r2, [r4, #36]
 1064 003c 236A     		ldr	r3, [r4, #32]
 1065 003e 8DE80300 		stmia	sp, {r0, r1}
 1066 0042 4046     		mov	r0, r8
 1067 0044 6249     		ldr	r1, .L199+16
 1068 0046 FFF7FEFF 		bl	chprintf
 1069              	.LVL118:
 1070              		.loc 2 288 0
 1071 004a 6249     		ldr	r1, .L199+20
 1072 004c 4046     		mov	r0, r8
 1073 004e FFF7FEFF 		bl	chprintf
 1074              	.LVL119:
 1075              		.loc 2 289 0
 1076 0052 6420     		movs	r0, #100
 1077 0054 FFF7FEFF 		bl	chThdSleep
 1078              	.LVL120:
 1079              		.loc 2 290 0
 1080 0058 2046     		mov	r0, r4
 1081 005a 2946     		mov	r1, r5
 1082 005c 5E4A     		ldr	r2, .L199+24
 1083 005e 0123     		movs	r3, #1
ARM GAS  C:\Users\srich\AppData\Local\Temp\ccSr1o7n.s 			page 20


 1084 0060 FFF7FEFF 		bl	sdcRead
 1085              	.LVL121:
 1086 0064 0028     		cmp	r0, #0
 1087 0066 40F0B281 		bne	.L183
 1088              	.L100:
 1089              		.loc 2 292 0
 1090 006a 5C49     		ldr	r1, .L199+28
 1091 006c 4046     		mov	r0, r8
 1092 006e FFF7FEFF 		bl	chprintf
 1093              	.LVL122:
 1094              		.loc 2 293 0
 1095 0072 6420     		movs	r0, #100
 1096 0074 FFF7FEFF 		bl	chThdSleep
 1097              	.LVL123:
 1098              		.loc 2 296 0
 1099 0078 5949     		ldr	r1, .L199+32
 1100 007a 4046     		mov	r0, r8
 1101 007c FFF7FEFF 		bl	chprintf
 1102              	.LVL124:
 1103              		.loc 2 297 0
 1104 0080 6420     		movs	r0, #100
 1105 0082 FFF7FEFF 		bl	chThdSleep
 1106              	.LVL125:
 1107              		.loc 2 298 0
 1108 0086 4F48     		ldr	r0, .L199+4
 1109 0088 564A     		ldr	r2, .L199+36
 1110 008a 0021     		movs	r1, #0
 1111 008c 0123     		movs	r3, #1
 1112 008e FFF7FEFF 		bl	sdcRead
 1113              	.LVL126:
 1114 0092 0028     		cmp	r0, #0
 1115 0094 40F09E81 		bne	.L184
 1116              	.L101:
 1117              		.loc 2 300 0
 1118 0098 4A48     		ldr	r0, .L199+4
 1119 009a 534A     		ldr	r2, .L199+40
 1120 009c 0021     		movs	r1, #0
 1121 009e 0123     		movs	r3, #1
 1122 00a0 FFF7FEFF 		bl	sdcRead
 1123              	.LVL127:
 1124 00a4 0028     		cmp	r0, #0
 1125 00a6 40F09881 		bne	.L185
 1126              	.L102:
 1127              		.loc 2 302 0
 1128 00aa 4648     		ldr	r0, .L199+4
 1129 00ac 4F4A     		ldr	r2, .L199+44
 1130 00ae 0021     		movs	r1, #0
 1131 00b0 0123     		movs	r3, #1
 1132 00b2 FFF7FEFF 		bl	sdcRead
 1133              	.LVL128:
 1134 00b6 0028     		cmp	r0, #0
 1135 00b8 40F09281 		bne	.L186
 1136              	.L103:
 1137              		.loc 2 304 0
 1138 00bc 4749     		ldr	r1, .L199+28
 1139 00be 4C4D     		ldr	r5, .L199+48
 1140 00c0 4046     		mov	r0, r8
ARM GAS  C:\Users\srich\AppData\Local\Temp\ccSr1o7n.s 			page 21


 1141 00c2 FFF7FEFF 		bl	chprintf
 1142              	.LVL129:
 1143              		.loc 2 305 0
 1144 00c6 6420     		movs	r0, #100
 1145 00c8 FFF7FEFF 		bl	chThdSleep
 1146              	.LVL130:
 1147              		.loc 2 308 0
 1148 00cc 4046     		mov	r0, r8
 1149 00ce 4949     		ldr	r1, .L199+52
 1150 00d0 FFF7FEFF 		bl	chprintf
 1151              	.LVL131:
 1152              		.loc 2 309 0
 1153 00d4 6420     		movs	r0, #100
 1154 00d6 FFF7FEFF 		bl	chThdSleep
 1155              	.LVL132:
 1156 00da 05F58059 		add	r9, r5, #4096
 1157 00de 2B46     		mov	r3, r5
 1158              	.LBB28:
 1159              	.LBB29:
 1160              	.LBB30:
 1161              	.LBB31:
 1162              		.loc 2 72 0
 1163 00e0 5522     		movs	r2, #85
 1164              	.LVL133:
 1165              	.L104:
 1166 00e2 03F8012F 		strb	r2, [r3, #1]!
 1167              	.LVL134:
 1168              		.loc 2 71 0
 1169 00e6 4B45     		cmp	r3, r9
 1170 00e8 FBD1     		bne	.L104
 1171 00ea 434C     		ldr	r4, .L199+56
 1172              	.LBE31:
 1173              	.LBE30:
 1174              	.LBB35:
 1175              	.LBB36:
 1176              		.loc 2 72 0
 1177 00ec 5522     		movs	r2, #85
 1178 00ee 04F58057 		add	r7, r4, #4096
 1179              	.LBE36:
 1180              	.LBE35:
 1181              	.LBB38:
 1182              	.LBB32:
 1183              		.loc 2 71 0
 1184 00f2 2346     		mov	r3, r4
 1185              	.LVL135:
 1186              	.L105:
 1187              	.LBE32:
 1188              	.LBE38:
 1189              	.LBB39:
 1190              	.LBB37:
 1191              		.loc 2 72 0
 1192 00f4 03F8012F 		strb	r2, [r3, #1]!
 1193              	.LVL136:
 1194              		.loc 2 71 0
 1195 00f8 BB42     		cmp	r3, r7
 1196 00fa FBD1     		bne	.L105
 1197              	.LBE37:
ARM GAS  C:\Users\srich\AppData\Local\Temp\ccSr1o7n.s 			page 22


 1198              	.LBE39:
 1199              	.LBE29:
 1200              	.LBE28:
 1201              		.loc 2 312 0
 1202 00fc 3148     		ldr	r0, .L199+4
 1203 00fe 364A     		ldr	r2, .L199+24
 1204 0100 0021     		movs	r1, #0
 1205 0102 0823     		movs	r3, #8
 1206              	.LVL137:
 1207 0104 FFF7FEFF 		bl	sdcRead
 1208              	.LVL138:
 1209 0108 0028     		cmp	r0, #0
 1210 010a 40F06C81 		bne	.L187
 1211              	.L106:
 1212              	.LBB44:
 1213              	.LBB42:
 1214              	.LBB40:
 1215              	.LBB33:
 1216              		.loc 2 71 0 discriminator 1
 1217 010e 4FF47A76 		mov	r6, #1000
 1218 0112 08E0     		b	.L109
 1219              	.LVL139:
 1220              	.L107:
 1221              	.LBE33:
 1222              	.LBE40:
 1223              	.LBE42:
 1224              	.LBE44:
 1225              		.loc 2 317 0
 1226 0114 3048     		ldr	r0, .L199+24
 1227 0116 3949     		ldr	r1, .L199+60
 1228 0118 4FF48052 		mov	r2, #4096
 1229 011c FFF7FEFF 		bl	memcmp
 1230              	.LVL140:
 1231 0120 60B9     		cbnz	r0, .L188
 1232              	.LVL141:
 1233              		.loc 2 314 0 discriminator 2
 1234 0122 013E     		subs	r6, r6, #1
 1235              	.LVL142:
 1236 0124 0ED0     		beq	.L189
 1237              	.LVL143:
 1238              	.L109:
 1239              		.loc 2 315 0
 1240 0126 2748     		ldr	r0, .L199+4
 1241 0128 344A     		ldr	r2, .L199+60
 1242 012a 0021     		movs	r1, #0
 1243 012c 0823     		movs	r3, #8
 1244 012e FFF7FEFF 		bl	sdcRead
 1245              	.LVL144:
 1246 0132 0028     		cmp	r0, #0
 1247 0134 EED0     		beq	.L107
 1248              		.loc 2 316 0
 1249 0136 FFF7FEFF 		bl	port_halt
 1250              	.LVL145:
 1251 013a EBE7     		b	.L107
 1252              	.L188:
 1253              		.loc 2 318 0
 1254 013c FFF7FEFF 		bl	port_halt
ARM GAS  C:\Users\srich\AppData\Local\Temp\ccSr1o7n.s 			page 23


 1255              	.LVL146:
 1256              		.loc 2 314 0
 1257 0140 013E     		subs	r6, r6, #1
 1258              	.LVL147:
 1259 0142 F0D1     		bne	.L109
 1260              	.LVL148:
 1261              	.L189:
 1262              		.loc 2 320 0
 1263 0144 2549     		ldr	r1, .L199+28
 1264 0146 4046     		mov	r0, r8
 1265 0148 FFF7FEFF 		bl	chprintf
 1266              	.LVL149:
 1267              		.loc 2 321 0
 1268 014c 6420     		movs	r0, #100
 1269 014e FFF7FEFF 		bl	chThdSleep
 1270              	.LVL150:
 1271              		.loc 2 324 0
 1272 0152 4046     		mov	r0, r8
 1273 0154 2A49     		ldr	r1, .L199+64
 1274 0156 FFF7FEFF 		bl	chprintf
 1275              	.LVL151:
 1276              		.loc 2 325 0
 1277 015a 6420     		movs	r0, #100
 1278 015c FFF7FEFF 		bl	chThdSleep
 1279              	.LVL152:
 1280              	.LBB45:
 1281              	.LBB46:
 1282              	.LBB47:
 1283              		.loc 2 72 0
 1284 0160 5523     		movs	r3, #85
 1285              	.LVL153:
 1286              	.L110:
 1287 0162 05F8013F 		strb	r3, [r5, #1]!
 1288              	.LVL154:
 1289              		.loc 2 71 0
 1290 0166 A945     		cmp	r9, r5
 1291 0168 FBD1     		bne	.L110
 1292              	.LBE47:
 1293              	.LBE46:
 1294              	.LBB48:
 1295              	.LBB49:
 1296              		.loc 2 72 0
 1297 016a 5523     		movs	r3, #85
 1298              	.L161:
 1299              	.LVL155:
 1300 016c 04F8013F 		strb	r3, [r4, #1]!
 1301              	.LVL156:
 1302              		.loc 2 71 0
 1303 0170 BC42     		cmp	r4, r7
 1304 0172 FBD1     		bne	.L161
 1305              	.LBE49:
 1306              	.LBE48:
 1307              	.LBE45:
 1308              		.loc 2 328 0
 1309 0174 1348     		ldr	r0, .L199+4
 1310 0176 1B4A     		ldr	r2, .L199+36
 1311 0178 0021     		movs	r1, #0
ARM GAS  C:\Users\srich\AppData\Local\Temp\ccSr1o7n.s 			page 24


 1312 017a 0823     		movs	r3, #8
 1313 017c FFF7FEFF 		bl	sdcRead
 1314              	.LVL157:
 1315 0180 0028     		cmp	r0, #0
 1316 0182 40F03381 		bne	.L190
 1317              	.L112:
 1318              	.LVL158:
 1319              	.LBB50:
 1320              	.LBB43:
 1321              	.LBB41:
 1322              	.LBB34:
 1323              		.loc 2 71 0 discriminator 1
 1324 0186 4FF47A74 		mov	r4, #1000
 1325              	.LVL159:
 1326 018a 08E0     		b	.L115
 1327              	.LVL160:
 1328              	.L113:
 1329              	.LBE34:
 1330              	.LBE41:
 1331              	.LBE43:
 1332              	.LBE50:
 1333              		.loc 2 333 0
 1334 018c 1248     		ldr	r0, .L199+24
 1335 018e 1B49     		ldr	r1, .L199+60
 1336 0190 4FF48052 		mov	r2, #4096
 1337 0194 FFF7FEFF 		bl	memcmp
 1338              	.LVL161:
 1339 0198 B0BB     		cbnz	r0, .L191
 1340              	.LVL162:
 1341              		.loc 2 330 0 discriminator 2
 1342 019a 013C     		subs	r4, r4, #1
 1343              	.LVL163:
 1344 019c 38D0     		beq	.L192
 1345              	.LVL164:
 1346              	.L115:
 1347              		.loc 2 331 0
 1348 019e 0948     		ldr	r0, .L199+4
 1349 01a0 184A     		ldr	r2, .L199+68
 1350 01a2 0021     		movs	r1, #0
 1351 01a4 0823     		movs	r3, #8
 1352 01a6 FFF7FEFF 		bl	sdcRead
 1353              	.LVL165:
 1354 01aa 0028     		cmp	r0, #0
 1355 01ac EED0     		beq	.L113
 1356              		.loc 2 332 0
 1357 01ae FFF7FEFF 		bl	port_halt
 1358              	.LVL166:
 1359 01b2 EBE7     		b	.L113
 1360              	.LVL167:
 1361              	.L99:
 1362              	.LBE27:
 1363              		.loc 2 447 0
 1364 01b4 FFF7FEFF 		bl	port_halt
 1365              	.LVL168:
 1366              		.loc 2 449 0
 1367 01b8 0DF5237D 		add	sp, sp, #652
 1368              		.cfi_remember_state
ARM GAS  C:\Users\srich\AppData\Local\Temp\ccSr1o7n.s 			page 25


 1369              		.cfi_def_cfa_offset 28
 1370              		@ sp needed
 1371 01bc BDE8F083 		pop	{r4, r5, r6, r7, r8, r9, pc}
 1372              	.LVL169:
 1373              	.L200:
 1374              		.align	2
 1375              	.L199:
 1376 01c0 90010000 		.word	.LC18
 1377 01c4 00000000 		.word	SDCD1
 1378 01c8 AC010000 		.word	.LC19
 1379 01cc B4010000 		.word	.LC20
 1380 01d0 D0010000 		.word	.LC21
 1381 01d4 E0010000 		.word	.LC22
 1382 01d8 00000000 		.word	.LANCHOR2
 1383 01dc F8010000 		.word	.LC23
 1384 01e0 00020000 		.word	.LC24
 1385 01e4 01000000 		.word	.LANCHOR2+1
 1386 01e8 02000000 		.word	.LANCHOR2+2
 1387 01ec 03000000 		.word	.LANCHOR2+3
 1388 01f0 FFFFFFFF 		.word	.LANCHOR2-1
 1389 01f4 1C020000 		.word	.LC25
 1390 01f8 FFFFFFFF 		.word	.LANCHOR3-1
 1391 01fc 00000000 		.word	.LANCHOR3
 1392 0200 38020000 		.word	.LC26
 1393 0204 01000000 		.word	.LANCHOR3+1
 1394              	.LVL170:
 1395              	.L191:
 1396              		.cfi_restore_state
 1397              	.LBB51:
 1398              		.loc 2 334 0
 1399 0208 FFF7FEFF 		bl	port_halt
 1400              	.LVL171:
 1401              		.loc 2 330 0
 1402 020c 013C     		subs	r4, r4, #1
 1403              	.LVL172:
 1404 020e C6D1     		bne	.L115
 1405              	.LVL173:
 1406              	.L192:
 1407              		.loc 2 336 0
 1408 0210 7F49     		ldr	r1, .L201
 1409              		.loc 2 350 0
 1410 0212 804E     		ldr	r6, .L201+4
 1411              		.loc 2 336 0
 1412 0214 4046     		mov	r0, r8
 1413 0216 FFF7FEFF 		bl	chprintf
 1414              	.LVL174:
 1415              		.loc 2 337 0
 1416 021a 6420     		movs	r0, #100
 1417 021c FFF7FEFF 		bl	chThdSleep
 1418              	.LVL175:
 1419              		.loc 2 350 0
 1420 0220 0FCE     		ldmia	r6!, {r0, r1, r2, r3}
 1421 0222 07AD     		add	r5, sp, #28
 1422              	.LVL176:
 1423 0224 0FC5     		stmia	r5!, {r0, r1, r2, r3}
 1424 0226 3368     		ldr	r3, [r6]
 1425              		.loc 2 352 0
ARM GAS  C:\Users\srich\AppData\Local\Temp\ccSr1o7n.s 			page 26


 1426 0228 7B49     		ldr	r1, .L201+8
 1427              		.loc 2 350 0
 1428 022a 2B60     		str	r3, [r5]
 1429              		.loc 2 352 0
 1430 022c 4046     		mov	r0, r8
 1431 022e FFF7FEFF 		bl	chprintf
 1432              	.LVL177:
 1433              		.loc 2 353 0
 1434 0232 6420     		movs	r0, #100
 1435 0234 FFF7FEFF 		bl	chThdSleep
 1436              	.LVL178:
 1437              		.loc 2 354 0
 1438 0238 2046     		mov	r0, r4
 1439 023a 7849     		ldr	r1, .L201+12
 1440 023c FFF7FEFF 		bl	f_mount
 1441              	.LVL179:
 1442              		.loc 2 355 0
 1443 0240 0028     		cmp	r0, #0
 1444 0242 40F0B280 		bne	.L193
 1445              		.loc 2 359 0
 1446 0246 764B     		ldr	r3, .L201+16
 1447              		.loc 2 360 0
 1448 0248 7649     		ldr	r1, .L201+20
 1449              		.loc 2 359 0
 1450 024a 0122     		movs	r2, #1
 1451              		.loc 2 360 0
 1452 024c 4046     		mov	r0, r8
 1453              	.LVL180:
 1454              		.loc 2 359 0
 1455 024e 1A70     		strb	r2, [r3]
 1456              		.loc 2 360 0
 1457 0250 FFF7FEFF 		bl	chprintf
 1458              	.LVL181:
 1459              	.L117:
 1460              		.loc 2 363 0
 1461 0254 7449     		ldr	r1, .L201+24
 1462 0256 4046     		mov	r0, r8
 1463 0258 FFF7FEFF 		bl	chprintf
 1464              	.LVL182:
 1465              		.loc 2 364 0
 1466 025c 6420     		movs	r0, #100
 1467 025e FFF7FEFF 		bl	chThdSleep
 1468              	.LVL183:
 1469              		.loc 2 365 0
 1470 0262 03A9     		add	r1, sp, #12
 1471 0264 7148     		ldr	r0, .L201+28
 1472 0266 04AA     		add	r2, sp, #16
 1473 0268 FFF7FEFF 		bl	f_getfree
 1474              	.LVL184:
 1475              		.loc 2 366 0
 1476 026c 0028     		cmp	r0, #0
 1477 026e 40F0C680 		bne	.L194
 1478              	.LVL185:
 1479              	.L118:
 1480              		.loc 2 369 0
 1481 0272 4046     		mov	r0, r8
 1482 0274 6B49     		ldr	r1, .L201+20
ARM GAS  C:\Users\srich\AppData\Local\Temp\ccSr1o7n.s 			page 27


 1483 0276 FFF7FEFF 		bl	chprintf
 1484              	.LVL186:
 1485              		.loc 2 373 0
 1486 027a 684B     		ldr	r3, .L201+12
 1487 027c 039A     		ldr	r2, [sp, #12]
 1488 027e 9B78     		ldrb	r3, [r3, #2]	@ zero_extendqisi2
 1489              		.loc 2 370 0
 1490 0280 6B49     		ldr	r1, .L201+32
 1491 0282 5002     		lsls	r0, r2, #9
 1492 0284 03FB00F0 		mul	r0, r3, r0
 1493 0288 0090     		str	r0, [sp]
 1494 028a 4046     		mov	r0, r8
 1495 028c FFF7FEFF 		bl	chprintf
 1496              	.LVL187:
 1497              		.loc 2 376 0
 1498 0290 6849     		ldr	r1, .L201+36
 1499 0292 4046     		mov	r0, r8
 1500 0294 FFF7FEFF 		bl	chprintf
 1501              	.LVL188:
 1502              		.loc 2 377 0
 1503 0298 6420     		movs	r0, #100
 1504 029a FFF7FEFF 		bl	chThdSleep
 1505              	.LVL189:
 1506              		.loc 2 378 0
 1507 029e 19A8     		add	r0, sp, #100
 1508 02a0 6549     		ldr	r1, .L201+40
 1509 02a2 1222     		movs	r2, #18
 1510 02a4 FFF7FEFF 		bl	f_open
 1511              	.LVL190:
 1512              		.loc 2 379 0
 1513 02a8 0028     		cmp	r0, #0
 1514 02aa 40F0A580 		bne	.L195
 1515              	.LVL191:
 1516              	.L119:
 1517              		.loc 2 382 0
 1518 02ae 4046     		mov	r0, r8
 1519 02b0 5C49     		ldr	r1, .L201+20
 1520 02b2 FFF7FEFF 		bl	chprintf
 1521              	.LVL192:
 1522              		.loc 2 383 0
 1523 02b6 6149     		ldr	r1, .L201+44
 1524 02b8 4046     		mov	r0, r8
 1525 02ba FFF7FEFF 		bl	chprintf
 1526              	.LVL193:
 1527              		.loc 2 384 0
 1528 02be 6420     		movs	r0, #100
 1529 02c0 FFF7FEFF 		bl	chThdSleep
 1530              	.LVL194:
 1531              		.loc 2 385 0
 1532 02c4 1422     		movs	r2, #20
 1533 02c6 19A8     		add	r0, sp, #100
 1534 02c8 07A9     		add	r1, sp, #28
 1535 02ca 0DEB0203 		add	r3, sp, r2
 1536 02ce FFF7FEFF 		bl	f_write
 1537              	.LVL195:
 1538              		.loc 2 386 0
 1539 02d2 0028     		cmp	r0, #0
ARM GAS  C:\Users\srich\AppData\Local\Temp\ccSr1o7n.s 			page 28


 1540 02d4 71D0     		beq	.L120
 1541              		.loc 2 387 0
 1542 02d6 FFF7FEFF 		bl	port_halt
 1543              	.LVL196:
 1544              	.L121:
 1545              		.loc 2 392 0
 1546 02da 4046     		mov	r0, r8
 1547 02dc 5849     		ldr	r1, .L201+48
 1548 02de FFF7FEFF 		bl	chprintf
 1549              	.LVL197:
 1550              		.loc 2 393 0
 1551 02e2 19A8     		add	r0, sp, #100
 1552 02e4 FFF7FEFF 		bl	f_close
 1553              	.LVL198:
 1554              		.loc 2 394 0
 1555 02e8 0028     		cmp	r0, #0
 1556 02ea 61D0     		beq	.L122
 1557              		.loc 2 395 0
 1558 02ec FFF7FEFF 		bl	port_halt
 1559              	.LVL199:
 1560              	.L123:
 1561              		.loc 2 400 0
 1562 02f0 4046     		mov	r0, r8
 1563 02f2 5449     		ldr	r1, .L201+52
 1564 02f4 FFF7FEFF 		bl	chprintf
 1565              	.LVL200:
 1566              		.loc 2 401 0
 1567 02f8 11A9     		add	r1, sp, #68
 1568 02fa 4F48     		ldr	r0, .L201+40
 1569 02fc FFF7FEFF 		bl	f_stat
 1570              	.LVL201:
 1571 0300 0446     		mov	r4, r0
 1572              	.LVL202:
 1573              		.loc 2 402 0
 1574 0302 6420     		movs	r0, #100
 1575 0304 FFF7FEFF 		bl	chThdSleep
 1576              	.LVL203:
 1577              		.loc 2 403 0
 1578 0308 14B9     		cbnz	r4, .L126
 1579              		.loc 2 407 0
 1580 030a 119B     		ldr	r3, [sp, #68]
 1581 030c 142B     		cmp	r3, #20
 1582 030e 79D0     		beq	.L196
 1583              	.L126:
 1584              		.loc 2 404 0
 1585 0310 FFF7FEFF 		bl	port_halt
 1586              	.LVL204:
 1587              	.L125:
 1588              		.loc 2 413 0
 1589 0314 4046     		mov	r0, r8
 1590 0316 4C49     		ldr	r1, .L201+56
 1591 0318 FFF7FEFF 		bl	chprintf
 1592              	.LVL205:
 1593              		.loc 2 414 0
 1594 031c 19A8     		add	r0, sp, #100
 1595 031e 4649     		ldr	r1, .L201+40
 1596 0320 0122     		movs	r2, #1
ARM GAS  C:\Users\srich\AppData\Local\Temp\ccSr1o7n.s 			page 29


 1597 0322 FFF7FEFF 		bl	f_open
 1598              	.LVL206:
 1599 0326 0446     		mov	r4, r0
 1600              	.LVL207:
 1601              		.loc 2 415 0
 1602 0328 6420     		movs	r0, #100
 1603 032a FFF7FEFF 		bl	chThdSleep
 1604              	.LVL208:
 1605              		.loc 2 416 0
 1606 032e 002C     		cmp	r4, #0
 1607 0330 5FD1     		bne	.L197
 1608              	.L127:
 1609              		.loc 2 420 0
 1610 0332 19A8     		add	r0, sp, #100
 1611 0334 0CA9     		add	r1, sp, #48
 1612 0336 1422     		movs	r2, #20
 1613 0338 06AB     		add	r3, sp, #24
 1614 033a FFF7FEFF 		bl	f_read
 1615              	.LVL209:
 1616              		.loc 2 421 0
 1617 033e 30B9     		cbnz	r0, .L130
 1618              		.loc 2 425 0
 1619 0340 07A8     		add	r0, sp, #28
 1620              	.LVL210:
 1621 0342 0CA9     		add	r1, sp, #48
 1622 0344 1422     		movs	r2, #20
 1623 0346 FFF7FEFF 		bl	memcmp
 1624              	.LVL211:
 1625 034a 0028     		cmp	r0, #0
 1626 034c 3AD0     		beq	.L198
 1627              	.L130:
 1628              		.loc 2 422 0
 1629 034e FFF7FEFF 		bl	port_halt
 1630              	.LVL212:
 1631              	.L129:
 1632              		.loc 2 433 0
 1633 0352 4046     		mov	r0, r8
 1634 0354 3D49     		ldr	r1, .L201+60
 1635 0356 FFF7FEFF 		bl	chprintf
 1636              	.LVL213:
 1637              		.loc 2 434 0
 1638 035a 0020     		movs	r0, #0
 1639 035c 0146     		mov	r1, r0
 1640 035e FFF7FEFF 		bl	f_mount
 1641              	.LVL214:
 1642              		.loc 2 435 0
 1643 0362 4046     		mov	r0, r8
 1644 0364 2F49     		ldr	r1, .L201+20
 1645 0366 FFF7FEFF 		bl	chprintf
 1646              	.LVL215:
 1647              		.loc 2 437 0
 1648 036a 4046     		mov	r0, r8
 1649 036c 3849     		ldr	r1, .L201+64
 1650 036e FFF7FEFF 		bl	chprintf
 1651              	.LVL216:
 1652              		.loc 2 438 0
 1653 0372 6420     		movs	r0, #100
ARM GAS  C:\Users\srich\AppData\Local\Temp\ccSr1o7n.s 			page 30


 1654 0374 FFF7FEFF 		bl	chThdSleep
 1655              	.LVL217:
 1656              		.loc 2 439 0
 1657 0378 3648     		ldr	r0, .L201+68
 1658 037a FFF7FEFF 		bl	sdcDisconnect
 1659              	.LVL218:
 1660 037e 08B1     		cbz	r0, .L131
 1661              		.loc 2 440 0
 1662 0380 FFF7FEFF 		bl	port_halt
 1663              	.LVL219:
 1664              	.L131:
 1665              		.loc 2 441 0
 1666 0384 4046     		mov	r0, r8
 1667 0386 2249     		ldr	r1, .L201
 1668 0388 FFF7FEFF 		bl	chprintf
 1669              	.LVL220:
 1670              		.loc 2 442 0
 1671 038c 4046     		mov	r0, r8
 1672 038e 3249     		ldr	r1, .L201+72
 1673 0390 FFF7FEFF 		bl	chprintf
 1674              	.LVL221:
 1675              		.loc 2 443 0
 1676 0394 4046     		mov	r0, r8
 1677 0396 3149     		ldr	r1, .L201+76
 1678 0398 FFF7FEFF 		bl	chprintf
 1679              	.LVL222:
 1680              		.loc 2 444 0
 1681 039c 6420     		movs	r0, #100
 1682 039e FFF7FEFF 		bl	chThdSleep
 1683              	.LVL223:
 1684              	.LBE51:
 1685              		.loc 2 449 0
 1686 03a2 0DF5237D 		add	sp, sp, #652
 1687              		.cfi_remember_state
 1688              		.cfi_def_cfa_offset 28
 1689              		@ sp needed
 1690 03a6 BDE8F083 		pop	{r4, r5, r6, r7, r8, r9, pc}
 1691              	.LVL224:
 1692              	.L193:
 1693              		.cfi_restore_state
 1694              	.LBB52:
 1695              		.loc 2 356 0
 1696 03aa FFF7FEFF 		bl	port_halt
 1697              	.LVL225:
 1698 03ae 51E7     		b	.L117
 1699              	.LVL226:
 1700              	.L122:
 1701              		.loc 2 398 0
 1702 03b0 4046     		mov	r0, r8
 1703              	.LVL227:
 1704 03b2 1C49     		ldr	r1, .L201+20
 1705 03b4 FFF7FEFF 		bl	chprintf
 1706              	.LVL228:
 1707 03b8 9AE7     		b	.L123
 1708              	.LVL229:
 1709              	.L120:
 1710              		.loc 2 390 0
ARM GAS  C:\Users\srich\AppData\Local\Temp\ccSr1o7n.s 			page 31


 1711 03ba 4046     		mov	r0, r8
 1712              	.LVL230:
 1713 03bc 1949     		ldr	r1, .L201+20
 1714 03be FFF7FEFF 		bl	chprintf
 1715              	.LVL231:
 1716 03c2 8AE7     		b	.L121
 1717              	.L198:
 1718              		.loc 2 429 0
 1719 03c4 4046     		mov	r0, r8
 1720 03c6 1749     		ldr	r1, .L201+20
 1721 03c8 FFF7FEFF 		bl	chprintf
 1722              	.LVL232:
 1723 03cc C1E7     		b	.L129
 1724              	.LVL233:
 1725              	.L183:
 1726              		.loc 2 291 0
 1727 03ce FFF7FEFF 		bl	port_halt
 1728              	.LVL234:
 1729 03d2 4AE6     		b	.L100
 1730              	.L184:
 1731              		.loc 2 299 0
 1732 03d4 FFF7FEFF 		bl	port_halt
 1733              	.LVL235:
 1734 03d8 5EE6     		b	.L101
 1735              	.L185:
 1736              		.loc 2 301 0
 1737 03da FFF7FEFF 		bl	port_halt
 1738              	.LVL236:
 1739 03de 64E6     		b	.L102
 1740              	.L186:
 1741              		.loc 2 303 0
 1742 03e0 FFF7FEFF 		bl	port_halt
 1743              	.LVL237:
 1744 03e4 6AE6     		b	.L103
 1745              	.LVL238:
 1746              	.L187:
 1747              		.loc 2 313 0
 1748 03e6 FFF7FEFF 		bl	port_halt
 1749              	.LVL239:
 1750 03ea 90E6     		b	.L106
 1751              	.LVL240:
 1752              	.L190:
 1753              		.loc 2 329 0
 1754 03ec FFF7FEFF 		bl	port_halt
 1755              	.LVL241:
 1756 03f0 C9E6     		b	.L112
 1757              	.LVL242:
 1758              	.L197:
 1759              		.loc 2 417 0
 1760 03f2 FFF7FEFF 		bl	port_halt
 1761              	.LVL243:
 1762 03f6 9CE7     		b	.L127
 1763              	.LVL244:
 1764              	.L195:
 1765              		.loc 2 380 0
 1766 03f8 FFF7FEFF 		bl	port_halt
 1767              	.LVL245:
ARM GAS  C:\Users\srich\AppData\Local\Temp\ccSr1o7n.s 			page 32


 1768 03fc 57E7     		b	.L119
 1769              	.LVL246:
 1770              	.L194:
 1771              		.loc 2 367 0
 1772 03fe FFF7FEFF 		bl	port_halt
 1773              	.LVL247:
 1774 0402 36E7     		b	.L118
 1775              	.LVL248:
 1776              	.L196:
 1777              		.loc 2 408 0
 1778 0404 4046     		mov	r0, r8
 1779 0406 0749     		ldr	r1, .L201+20
 1780 0408 FFF7FEFF 		bl	chprintf
 1781              	.LVL249:
 1782 040c 82E7     		b	.L125
 1783              	.L202:
 1784 040e 00BF     		.align	2
 1785              	.L201:
 1786 0410 F8010000 		.word	.LC23
 1787 0414 DC030000 		.word	.LC27
 1788 0418 54020000 		.word	.LC28
 1789 041c 00000000 		.word	.LANCHOR6
 1790 0420 00000000 		.word	.LANCHOR5
 1791 0424 AC010000 		.word	.LC19
 1792 0428 80020000 		.word	.LC29
 1793 042c 08000000 		.word	.LC1
 1794 0430 54000000 		.word	.LC5
 1795 0434 98020000 		.word	.LC30
 1796 0438 B8020000 		.word	.LC31
 1797 043c C8020000 		.word	.LC32
 1798 0440 E4020000 		.word	.LC33
 1799 0444 00030000 		.word	.LC34
 1800 0448 24030000 		.word	.LC35
 1801 044c 48030000 		.word	.LC36
 1802 0450 60030000 		.word	.LC37
 1803 0454 00000000 		.word	SDCD1
 1804 0458 7C030000 		.word	.LC38
 1805 045c B8030000 		.word	.LC39
 1806              	.LBE52:
 1807              		.cfi_endproc
 1808              	.LFE132:
 1809              		.size	cmd_sdiotest, .-cmd_sdiotest
 1810              		.section	.text.cmd_debug,"ax",%progbits
 1811              		.align	2
 1812              		.p2align 4,,15
 1813              		.global	cmd_debug
 1814              		.thumb
 1815              		.thumb_func
 1816              		.type	cmd_debug, %function
 1817              	cmd_debug:
 1818              	.LFB133:
 1819              		.loc 2 451 0
 1820              		.cfi_startproc
 1821              		@ args = 0, pretend = 0, frame = 584
 1822              		@ frame_needed = 0, uses_anonymous_args = 0
 1823              	.LVL250:
 1824 0000 F0B5     		push	{r4, r5, r6, r7, lr}
ARM GAS  C:\Users\srich\AppData\Local\Temp\ccSr1o7n.s 			page 33


 1825              		.cfi_def_cfa_offset 20
 1826              		.cfi_offset 4, -20
 1827              		.cfi_offset 5, -16
 1828              		.cfi_offset 6, -12
 1829              		.cfi_offset 7, -8
 1830              		.cfi_offset 14, -4
 1831              		.loc 2 456 0
 1832 0002 304D     		ldr	r5, .L224
 1833              		.loc 2 451 0
 1834 0004 0646     		mov	r6, r0
 1835 0006 0F46     		mov	r7, r1
 1836              		.loc 2 456 0
 1837 0008 0FCD     		ldmia	r5!, {r0, r1, r2, r3}
 1838              	.LVL251:
 1839              		.loc 2 451 0
 1840 000a ADF5137D 		sub	sp, sp, #588
 1841              		.cfi_def_cfa_offset 608
 1842              		.loc 2 456 0
 1843 000e 01AC     		add	r4, sp, #4
 1844 0010 0FC4     		stmia	r4!, {r0, r1, r2, r3}
 1845 0012 95E80F00 		ldmia	r5, {r0, r1, r2, r3}
 1846 0016 84E80F00 		stmia	r4, {r0, r1, r2, r3}
 1847              		.loc 2 459 0
 1848 001a 002F     		cmp	r7, #0
 1849 001c 46D1     		bne	.L221
 1850              		.loc 2 463 0
 1851 001e 2A4B     		ldr	r3, .L224+4
 1852 0020 1B78     		ldrb	r3, [r3]	@ zero_extendqisi2
 1853 0022 002B     		cmp	r3, #0
 1854 0024 3BD0     		beq	.L222
 1855              		.loc 2 467 0
 1856 0026 294D     		ldr	r5, .L224+8
 1857 0028 2949     		ldr	r1, .L224+12
 1858 002a EA68     		ldr	r2, [r5, #12]
 1859 002c 3046     		mov	r0, r6
 1860 002e FFF7FEFF 		bl	chprintf
 1861              	.LVL252:
 1862              		.loc 2 468 0
 1863 0032 6420     		movs	r0, #100
 1864 0034 FFF7FEFF 		bl	chThdSleep
 1865              	.LVL253:
 1866              		.loc 2 469 0
 1867 0038 09A8     		add	r0, sp, #36
 1868 003a 2649     		ldr	r1, .L224+16
 1869 003c 1222     		movs	r2, #18
 1870 003e FFF7FEFF 		bl	f_open
 1871              	.LVL254:
 1872              		.loc 2 470 0
 1873 0042 0028     		cmp	r0, #0
 1874 0044 39D1     		bne	.L223
 1875              	.LVL255:
 1876              	.L207:
 1877              		.loc 2 473 0
 1878 0046 2449     		ldr	r1, .L224+20
 1879 0048 3046     		mov	r0, r6
 1880 004a FFF7FEFF 		bl	chprintf
 1881              	.LVL256:
ARM GAS  C:\Users\srich\AppData\Local\Temp\ccSr1o7n.s 			page 34


 1882              		.loc 2 474 0
 1883 004e 6420     		movs	r0, #100
 1884 0050 FFF7FEFF 		bl	chThdSleep
 1885              	.LVL257:
 1886              		.loc 2 475 0
 1887 0054 EA68     		ldr	r2, [r5, #12]
 1888 0056 2149     		ldr	r1, .L224+24
 1889 0058 3046     		mov	r0, r6
 1890 005a FFF7FEFF 		bl	chprintf
 1891              	.LVL258:
 1892 005e 6424     		movs	r4, #100
 1893 0060 01E0     		b	.L210
 1894              	.LVL259:
 1895              	.L208:
 1896              		.loc 2 476 0 discriminator 2
 1897 0062 013C     		subs	r4, r4, #1
 1898              	.LVL260:
 1899 0064 0BD0     		beq	.L209
 1900              	.LVL261:
 1901              	.L210:
 1902              		.loc 2 478 0
 1903 0066 09A8     		add	r0, sp, #36
 1904 0068 01A9     		add	r1, sp, #4
 1905 006a 2022     		movs	r2, #32
 1906 006c 6B46     		mov	r3, sp
 1907 006e FFF7FEFF 		bl	f_write
 1908              	.LVL262:
 1909              		.loc 2 479 0
 1910 0072 0028     		cmp	r0, #0
 1911 0074 F5D0     		beq	.L208
 1912              		.loc 2 481 0
 1913 0076 3046     		mov	r0, r6
 1914              	.LVL263:
 1915 0078 1949     		ldr	r1, .L224+28
 1916 007a FFF7FEFF 		bl	chprintf
 1917              	.LVL264:
 1918              	.L209:
 1919              		.loc 2 485 0
 1920 007e 3046     		mov	r0, r6
 1921 0080 EA68     		ldr	r2, [r5, #12]
 1922 0082 1849     		ldr	r1, .L224+32
 1923 0084 FFF7FEFF 		bl	chprintf
 1924              	.LVL265:
 1925              		.loc 2 486 0
 1926 0088 09A8     		add	r0, sp, #36
 1927 008a FFF7FEFF 		bl	f_close
 1928              	.LVL266:
 1929              		.loc 2 487 0
 1930 008e 50B1     		cbz	r0, .L203
 1931              		.loc 2 488 0
 1932 0090 3046     		mov	r0, r6
 1933              	.LVL267:
 1934 0092 1549     		ldr	r1, .L224+36
 1935 0094 FFF7FEFF 		bl	chprintf
 1936              	.LVL268:
 1937              		.loc 2 491 0
 1938 0098 0DF5137D 		add	sp, sp, #588
ARM GAS  C:\Users\srich\AppData\Local\Temp\ccSr1o7n.s 			page 35


 1939              		.cfi_remember_state
 1940              		.cfi_def_cfa_offset 20
 1941              		@ sp needed
 1942 009c F0BD     		pop	{r4, r5, r6, r7, pc}
 1943              	.LVL269:
 1944              	.L222:
 1945              		.cfi_restore_state
 1946              		.loc 2 464 0
 1947 009e 3046     		mov	r0, r6
 1948 00a0 1249     		ldr	r1, .L224+40
 1949 00a2 FFF7FEFF 		bl	chprintf
 1950              	.LVL270:
 1951              	.L203:
 1952              		.loc 2 491 0
 1953 00a6 0DF5137D 		add	sp, sp, #588
 1954              		.cfi_remember_state
 1955              		.cfi_def_cfa_offset 20
 1956              		@ sp needed
 1957 00aa F0BD     		pop	{r4, r5, r6, r7, pc}
 1958              	.LVL271:
 1959              	.L221:
 1960              		.cfi_restore_state
 1961              		.loc 2 460 0
 1962 00ac 3046     		mov	r0, r6
 1963 00ae 1049     		ldr	r1, .L224+44
 1964 00b0 FFF7FEFF 		bl	chprintf
 1965              	.LVL272:
 1966              		.loc 2 491 0
 1967 00b4 0DF5137D 		add	sp, sp, #588
 1968              		.cfi_remember_state
 1969              		.cfi_def_cfa_offset 20
 1970              		@ sp needed
 1971 00b8 F0BD     		pop	{r4, r5, r6, r7, pc}
 1972              	.LVL273:
 1973              	.L223:
 1974              		.cfi_restore_state
 1975              		.loc 2 471 0
 1976 00ba 3046     		mov	r0, r6
 1977              	.LVL274:
 1978 00bc 0D49     		ldr	r1, .L224+48
 1979 00be FFF7FEFF 		bl	chprintf
 1980              	.LVL275:
 1981 00c2 C0E7     		b	.L207
 1982              	.L225:
 1983              		.align	2
 1984              	.L224:
 1985 00c4 84040000 		.word	.LC40
 1986 00c8 00000000 		.word	.LANCHOR5
 1987 00cc 00000000 		.word	vtlist
 1988 00d0 00040000 		.word	.LC42
 1989 00d4 18040000 		.word	.LC43
 1990 00d8 AC010000 		.word	.LC19
 1991 00dc 44040000 		.word	.LC45
 1992 00e0 64040000 		.word	.LC46
 1993 00e4 78040000 		.word	.LC47
 1994 00e8 78010000 		.word	.LC17
 1995 00ec 1C000000 		.word	.LC3
ARM GAS  C:\Users\srich\AppData\Local\Temp\ccSr1o7n.s 			page 36


 1996 00f0 F0030000 		.word	.LC41
 1997 00f4 28040000 		.word	.LC44
 1998              		.cfi_endproc
 1999              	.LFE133:
 2000              		.size	cmd_debug, .-cmd_debug
 2001              		.global	sdcard_fbuff
 2002              		.section	.bss.sdcard_fbuff,"aw",%nobits
 2003              		.align	2
 2004              		.set	.LANCHOR1,. + 0
 2005              		.type	sdcard_fbuff, %object
 2006              		.size	sdcard_fbuff, 1024
 2007              	sdcard_fbuff:
 2008 0000 00000000 		.space	1024
 2008      00000000 
 2008      00000000 
 2008      00000000 
 2008      00000000 
 2009              		.section	.bss.sdcard_fs_ready,"aw",%nobits
 2010              		.set	.LANCHOR5,. + 0
 2011              		.type	sdcard_fs_ready, %object
 2012              		.size	sdcard_fs_ready, 1
 2013              	sdcard_fs_ready:
 2014 0000 00       		.space	1
 2015              		.section	.bss.lfn.9150,"aw",%nobits
 2016              		.align	2
 2017              		.set	.LANCHOR0,. + 0
 2018              		.type	lfn.9150, %object
 2019              		.size	lfn.9150, 256
 2020              	lfn.9150:
 2021 0000 00000000 		.space	256
 2021      00000000 
 2021      00000000 
 2021      00000000 
 2021      00000000 
 2022              		.section	.rodata.sdccfg,"a",%progbits
 2023              		.align	2
 2024              		.set	.LANCHOR4,. + 0
 2025              		.type	sdccfg, %object
 2026              		.size	sdccfg, 4
 2027              	sdccfg:
 2028 0000 00000000 		.space	4
 2029              		.section	.bss.sdcard_filesystem,"aw",%nobits
 2030              		.align	2
 2031              		.set	.LANCHOR6,. + 0
 2032              		.type	sdcard_filesystem, %object
 2033              		.size	sdcard_filesystem, 560
 2034              	sdcard_filesystem:
 2035 0000 00000000 		.space	560
 2035      00000000 
 2035      00000000 
 2035      00000000 
 2035      00000000 
 2036              		.section	.rodata.str1.4,"aMS",%progbits,1
 2037              		.align	2
 2038              	.LC0:
 2039 0000 25732F25 		.ascii	"%s/%s\015\012\000"
 2039      730D0A00 
ARM GAS  C:\Users\srich\AppData\Local\Temp\ccSr1o7n.s 			page 37


 2040              	.LC1:
 2041 0008 2F00     		.ascii	"/\000"
 2042 000a 0000     		.space	2
 2043              	.LC2:
 2044 000c 55736167 		.ascii	"Usage: tree\015\012\000"
 2044      653A2074 
 2044      7265650D 
 2044      0A00
 2045 001a 0000     		.space	2
 2046              	.LC3:
 2047 001c 46696C65 		.ascii	"File System not mounted\015\012\000"
 2047      20537973 
 2047      74656D20 
 2047      6E6F7420 
 2047      6D6F756E 
 2048 0036 0000     		.space	2
 2049              	.LC4:
 2050 0038 46533A20 		.ascii	"FS: f_getfree() failed\015\012\000"
 2050      665F6765 
 2050      74667265 
 2050      65282920 
 2050      6661696C 
 2051 0051 000000   		.space	3
 2052              	.LC5:
 2053 0054 46533A20 		.ascii	"FS: %lu free clusters, %lu sectors per cluster, %lu"
 2053      256C7520 
 2053      66726565 
 2053      20636C75 
 2053      73746572 
 2054 0087 20627974 		.ascii	" bytes free\015\012\000"
 2054      65732066 
 2054      7265650D 
 2054      0A00
 2055 0095 000000   		.space	3
 2056              	.LC6:
 2057 0098 55736167 		.ascii	"Usage: mountsd\015\012\000"
 2057      653A206D 
 2057      6F756E74 
 2057      73640D0A 
 2057      00
 2058 00a9 000000   		.space	3
 2059              	.LC7:
 2060 00ac 5344433A 		.ascii	"SDC: sdcConnect() failed\015\012\000"
 2060      20736463 
 2060      436F6E6E 
 2060      65637428 
 2060      29206661 
 2061 00c7 00       		.space	1
 2062              	.LC8:
 2063 00c8 46533A20 		.ascii	"FS: f_mount() failed\015\012\000"
 2063      665F6D6F 
 2063      756E7428 
 2063      29206661 
 2063      696C6564 
 2064 00df 00       		.space	1
 2065              	.LC9:
 2066 00e0 53442063 		.ascii	"SD card mounted\015\012\000"
ARM GAS  C:\Users\srich\AppData\Local\Temp\ccSr1o7n.s 			page 38


 2066      61726420 
 2066      6D6F756E 
 2066      7465640D 
 2066      0A00
 2067 00f2 0000     		.space	2
 2068              	.LC10:
 2069 00f4 556E6B6E 		.ascii	"Unknown Error\015\012\000"
 2069      6F776E20 
 2069      4572726F 
 2069      720D0A00 
 2070              	.LC11:
 2071 0104 55736167 		.ascii	"Usage: umountsd\015\012\000"
 2071      653A2075 
 2071      6D6F756E 
 2071      7473640D 
 2071      0A00
 2072 0116 0000     		.space	2
 2073              	.LC12:
 2074 0118 53442063 		.ascii	"SD card unmounted\015\012\000"
 2074      61726420 
 2074      756E6D6F 
 2074      756E7465 
 2074      640D0A00 
 2075              	.LC13:
 2076 012c 53442063 		.ascii	"SD card unmount failed\015\012\000"
 2076      61726420 
 2076      756E6D6F 
 2076      756E7420 
 2076      6661696C 
 2077 0145 000000   		.space	3
 2078              	.LC14:
 2079 0148 55736167 		.ascii	"Usage: cat FILE\015\012\000"
 2079      653A2063 
 2079      61742046 
 2079      494C450D 
 2079      0A00
 2080 015a 0000     		.space	2
 2081              	.LC15:
 2082 015c 46533A20 		.ascii	"FS: f_open() failed\015\012\000"
 2082      665F6F70 
 2082      656E2829 
 2082      20666169 
 2082      6C65640D 
 2083 0172 0000     		.space	2
 2084              	.LC16:
 2085 0174 257300   		.ascii	"%s\000"
 2086 0177 00       		.space	1
 2087              	.LC17:
 2088 0178 46533A20 		.ascii	"FS: f_close() failed\015\012\000"
 2088      665F636C 
 2088      6F736528 
 2088      29206661 
 2088      696C6564 
 2089 018f 00       		.space	1
 2090              	.LC18:
 2091 0190 54727969 		.ascii	"Trying to connect SDIO... \000"
 2091      6E672074 
ARM GAS  C:\Users\srich\AppData\Local\Temp\ccSr1o7n.s 			page 39


 2091      6F20636F 
 2091      6E6E6563 
 2091      74205344 
 2092 01ab 00       		.space	1
 2093              	.LC19:
 2094 01ac 4F4B0D0A 		.ascii	"OK\015\012\000"
 2094      00
 2095 01b1 000000   		.space	3
 2096              	.LC20:
 2097 01b4 2A2A2A20 		.ascii	"*** Card CSD content is: \000"
 2097      43617264 
 2097      20435344 
 2097      20636F6E 
 2097      74656E74 
 2098 01ce 0000     		.space	2
 2099              	.LC21:
 2100 01d0 25582025 		.ascii	"%X %X %X %X \015\012\000"
 2100      58202558 
 2100      20255820 
 2100      0D0A00
 2101 01df 00       		.space	1
 2102              	.LC22:
 2103 01e0 53696E67 		.ascii	"Single aligned read...\000"
 2103      6C652061 
 2103      6C69676E 
 2103      65642072 
 2103      6561642E 
 2104 01f7 00       		.space	1
 2105              	.LC23:
 2106 01f8 204F4B0D 		.ascii	" OK\015\012\000"
 2106      0A00
 2107 01fe 0000     		.space	2
 2108              	.LC24:
 2109 0200 53696E67 		.ascii	"Single unaligned read...\000"
 2109      6C652075 
 2109      6E616C69 
 2109      676E6564 
 2109      20726561 
 2110 0219 000000   		.space	3
 2111              	.LC25:
 2112 021c 4D756C74 		.ascii	"Multiple aligned reads...\000"
 2112      69706C65 
 2112      20616C69 
 2112      676E6564 
 2112      20726561 
 2113 0236 0000     		.space	2
 2114              	.LC26:
 2115 0238 4D756C74 		.ascii	"Multiple unaligned reads...\000"
 2115      69706C65 
 2115      20756E61 
 2115      6C69676E 
 2115      65642072 
 2116              	.LC28:
 2117 0254 52656769 		.ascii	"Register working area for filesystem... \000"
 2117      73746572 
 2117      20776F72 
 2117      6B696E67 
ARM GAS  C:\Users\srich\AppData\Local\Temp\ccSr1o7n.s 			page 40


 2117      20617265 
 2118 027d 000000   		.space	3
 2119              	.LC29:
 2120 0280 4D6F756E 		.ascii	"Mount filesystem... \000"
 2120      74206669 
 2120      6C657379 
 2120      7374656D 
 2120      2E2E2E20 
 2121 0295 000000   		.space	3
 2122              	.LC30:
 2123 0298 43726561 		.ascii	"Create file \"chtest.txt\"... \000"
 2123      74652066 
 2123      696C6520 
 2123      22636874 
 2123      6573742E 
 2124 02b5 000000   		.space	3
 2125              	.LC31:
 2126 02b8 303A6368 		.ascii	"0:chtest.txt\000"
 2126      74657374 
 2126      2E747874 
 2126      00
 2127 02c5 000000   		.space	3
 2128              	.LC32:
 2129 02c8 57726974 		.ascii	"Write some data in it... \000"
 2129      6520736F 
 2129      6D652064 
 2129      61746120 
 2129      696E2069 
 2130 02e2 0000     		.space	2
 2131              	.LC33:
 2132 02e4 436C6F73 		.ascii	"Close file \"chtest.txt\"... \000"
 2132      65206669 
 2132      6C652022 
 2132      63687465 
 2132      73742E74 
 2133              	.LC34:
 2134 0300 43686563 		.ascii	"Check file size \"chtest.txt\"... \000"
 2134      6B206669 
 2134      6C652073 
 2134      697A6520 
 2134      22636874 
 2135 0321 000000   		.space	3
 2136              	.LC35:
 2137 0324 43686563 		.ascii	"Check file content \"chtest.txt\"... \000"
 2137      6B206669 
 2137      6C652063 
 2137      6F6E7465 
 2137      6E742022 
 2138              	.LC36:
 2139 0348 556D6F75 		.ascii	"Umount filesystem... \000"
 2139      6E742066 
 2139      696C6573 
 2139      79737465 
 2139      6D2E2E2E 
 2140 035e 0000     		.space	2
 2141              	.LC37:
 2142 0360 44697363 		.ascii	"Disconnecting from SDIO...\000"
ARM GAS  C:\Users\srich\AppData\Local\Temp\ccSr1o7n.s 			page 41


 2142      6F6E6E65 
 2142      6374696E 
 2142      67206672 
 2142      6F6D2053 
 2143 037b 00       		.space	1
 2144              	.LC38:
 2145 037c 2D2D2D2D 		.ascii	"---------------------------------------------------"
 2145      2D2D2D2D 
 2145      2D2D2D2D 
 2145      2D2D2D2D 
 2145      2D2D2D2D 
 2146 03af 2D2D2D0D 		.ascii	"---\015\012\000"
 2146      0A00
 2147 03b5 000000   		.space	3
 2148              	.LC39:
 2149 03b8 416C6C20 		.ascii	"All tests passed successfully.\015\012\000"
 2149      74657374 
 2149      73207061 
 2149      73736564 
 2149      20737563 
 2150 03d9 000000   		.space	3
 2151              	.LC27:
 2152 03dc 54686973 		.ascii	"This is test file\015\012\000"
 2152      20697320 
 2152      74657374 
 2152      2066696C 
 2152      650D0A00 
 2153              	.LC41:
 2154 03f0 55736167 		.ascii	"Usage: debug\015\012\000"
 2154      653A2064 
 2154      65627567 
 2154      0D0A00
 2155 03ff 00       		.space	1
 2156              	.LC42:
 2157 0400 4F70656E 		.ascii	"Open test file (%u)...\000"
 2157      20746573 
 2157      74206669 
 2157      6C652028 
 2157      2575292E 
 2158 0417 00       		.space	1
 2159              	.LC43:
 2160 0418 303A6C6F 		.ascii	"0:logtest.txt\000"
 2160      67746573 
 2160      742E7478 
 2160      7400
 2161 0426 0000     		.space	2
 2162              	.LC44:
 2163 0428 46533A20 		.ascii	"FS: File creation error\015\012\000"
 2163      46696C65 
 2163      20637265 
 2163      6174696F 
 2163      6E206572 
 2164 0442 0000     		.space	2
 2165              	.LC45:
 2166 0444 53746172 		.ascii	"Start writing test file (%u)...\000"
 2166      74207772 
 2166      6974696E 
ARM GAS  C:\Users\srich\AppData\Local\Temp\ccSr1o7n.s 			page 42


 2166      67207465 
 2166      73742066 
 2167              	.LC46:
 2168 0464 46533A20 		.ascii	"FS: Write error\015\012\000"
 2168      57726974 
 2168      65206572 
 2168      726F720D 
 2168      0A00
 2169 0476 0000     		.space	2
 2170              	.LC47:
 2171 0478 4F4B2028 		.ascii	"OK (%u)\015\012\000"
 2171      2575290D 
 2171      0A00
 2172 0482 0000     		.space	2
 2173              	.LC40:
 2174 0484 36353533 		.ascii	"65536 65535 65534 65533 65532\015\012\000"
 2174      36203635 
 2174      35333520 
 2174      36353533 
 2174      34203635 
 2175              		.section	.bss.inbuf,"aw",%nobits
 2176              		.align	2
 2177              		.set	.LANCHOR2,. + 0
 2178              		.type	inbuf, %object
 2179              		.size	inbuf, 4097
 2180              	inbuf:
 2181 0000 00000000 		.space	4097
 2181      00000000 
 2181      00000000 
 2181      00000000 
 2181      00000000 
 2182              		.section	.bss.outbuf,"aw",%nobits
 2183              		.align	2
 2184              		.set	.LANCHOR3,. + 0
 2185              		.type	outbuf, %object
 2186              		.size	outbuf, 4097
 2187              	outbuf:
 2188 0000 00000000 		.space	4097
 2188      00000000 
 2188      00000000 
 2188      00000000 
 2188      00000000 
 2189              		.text
 2190              	.Letext0:
 2191              		.file 3 "c:\\chibistudio\\tools\\gnu tools arm embedded\\4.9 2015q3\\arm-none-eabi\\include\\machi
 2192              		.file 4 "c:\\chibistudio\\tools\\gnu tools arm embedded\\4.9 2015q3\\lib\\gcc\\arm-none-eabi\\4.9.
 2193              		.file 5 "c:\\chibistudio\\tools\\gnu tools arm embedded\\4.9 2015q3\\lib\\gcc\\arm-none-eabi\\4.9.
 2194              		.file 6 "c:\\chibistudio\\tools\\gnu tools arm embedded\\4.9 2015q3\\arm-none-eabi\\include\\sys\\
 2195              		.file 7 "../../../ChibiOS/os/ports/GCC/ARMCMx/chtypes.h"
 2196              		.file 8 "../../../ChibiOS/os/kernel/include/chlists.h"
 2197              		.file 9 "<built-in>"
 2198              		.file 10 "../../../ChibiOS/os/kernel/include/chthreads.h"
 2199              		.file 11 "../../../ChibiOS/os/ports/GCC/ARMCMx/chcore_v7m.h"
 2200              		.file 12 "../../../ChibiOS/os/kernel/include/chvt.h"
 2201              		.file 13 "../../../ChibiOS/os/kernel/include/chmtx.h"
 2202              		.file 14 "../../../ChibiOS/os/kernel/include/chstreams.h"
 2203              		.file 15 "../../../ChibiOS/os/hal/platforms/STM32F4xx/stm32f4xx.h"
ARM GAS  C:\Users\srich\AppData\Local\Temp\ccSr1o7n.s 			page 43


 2204              		.file 16 "../../../ChibiOS/os/hal/platforms/STM32F4xx/stm32_dma.h"
 2205              		.file 17 "../../../ChibiOS/os/hal/include/io_block.h"
 2206              		.file 18 "../../../ChibiOS/os/hal/platforms/STM32/sdc_lld.h"
 2207              		.file 19 "include/sdcard.h"
 2208              		.file 20 "../../../ChibiOS/ext/fatfs/src/integer.h"
 2209              		.file 21 "../../../ChibiOS/ext/fatfs/src/ff.h"
 2210              		.file 22 "../../../ChibiOS/os/ports/common/ARMCMx/CMSIS/include/core_cm4.h"
 2211              		.file 23 "c:\\chibistudio\\tools\\gnu tools arm embedded\\4.9 2015q3\\arm-none-eabi\\include\\stri
 2212              		.file 24 "../../../ChibiOS/os/hal/include/sdc.h"