ARM GAS  C:\Users\danit\AppData\Local\Temp\cc4ycDDa.s 			page 1


   1              		.syntax unified
   2              		.cpu cortex-m4
   3              		.fpu softvfp
   4              		.eabi_attribute 20, 1
   5              		.eabi_attribute 21, 1
   6              		.eabi_attribute 23, 3
   7              		.eabi_attribute 24, 1
   8              		.eabi_attribute 25, 1
   9              		.eabi_attribute 26, 1
  10              		.eabi_attribute 30, 2
  11              		.eabi_attribute 34, 1
  12              		.eabi_attribute 18, 4
  13              		.thumb
  14              		.file	"serial_usb.c"
  15              		.text
  16              	.Ltext0:
  17              		.cfi_sections	.debug_frame
  18              		.section	.text.onotify,"ax",%progbits
  19              		.align	2
  20              		.p2align 4,,15
  21              		.thumb
  22              		.thumb_func
  23              		.type	onotify, %function
  24              	onotify:
  25              	.LFB127:
  26              		.file 1 "../../../ChibiOS/os/hal/src/serial_usb.c"
  27              		.loc 1 150 0
  28              		.cfi_startproc
  29              		@ args = 0, pretend = 0, frame = 0
  30              		@ frame_needed = 0, uses_anonymous_args = 0
  31              	.LVL0:
  32 0000 10B5     		push	{r4, lr}
  33              		.cfi_def_cfa_offset 8
  34              		.cfi_offset 4, -8
  35              		.cfi_offset 14, -4
  36              		.loc 1 152 0
  37 0002 046A     		ldr	r4, [r0, #32]
  38              	.LVL1:
  39              		.loc 1 156 0
  40 0004 D4F85422 		ldr	r2, [r4, #596]
  41 0008 1368     		ldr	r3, [r2]
  42 000a 1978     		ldrb	r1, [r3]	@ zero_extendqisi2
  43 000c 0429     		cmp	r1, #4
  44 000e 00D0     		beq	.L8
  45              	.LVL2:
  46              	.L1:
  47 0010 10BD     		pop	{r4, pc}
  48              	.LVL3:
  49              	.L8:
  50              		.loc 1 156 0 is_stmt 0 discriminator 1
  51 0012 217A     		ldrb	r1, [r4, #8]	@ zero_extendqisi2
  52 0014 0229     		cmp	r1, #2
  53 0016 FBD1     		bne	.L1
  54              		.loc 1 162 0 is_stmt 1
  55 0018 1B89     		ldrh	r3, [r3, #8]
  56 001a 1279     		ldrb	r2, [r2, #4]	@ zero_extendqisi2
  57 001c 1341     		asrs	r3, r3, r2
ARM GAS  C:\Users\danit\AppData\Local\Temp\cc4ycDDa.s 			page 2


  58 001e 13F00103 		ands	r3, r3, #1
  59 0022 F5D1     		bne	.L1
  60              		.loc 1 163 0 discriminator 1
  61 0024 216C     		ldr	r1, [r4, #64]
  62 0026 E26B     		ldr	r2, [r4, #60]
  63 0028 A06B     		ldr	r0, [r4, #56]
  64              	.LVL4:
  65 002a 8A1A     		subs	r2, r1, r2
  66              	.LVL5:
  67              		.loc 1 162 0 discriminator 1
  68 002c 121A     		subs	r2, r2, r0
  69              	.LVL6:
  70 002e EFD0     		beq	.L1
  71              	.LBB2:
  72              		.loc 1 164 0
  73              	@ 164 "../../../ChibiOS/os/hal/src/serial_usb.c" 1
  74 0030 83F31188 		msr     BASEPRI, r3
  75              	@ 0 "" 2
  76              		.thumb
  77              	.LBE2:
  78              		.loc 1 166 0
  79 0034 D4F85412 		ldr	r1, [r4, #596]
  80 0038 1346     		mov	r3, r2
  81 003a 0868     		ldr	r0, [r1]
  82 003c 0979     		ldrb	r1, [r1, #4]	@ zero_extendqisi2
  83 003e 04F13002 		add	r2, r4, #48
  84              	.LVL7:
  85 0042 FFF7FEFF 		bl	usbPrepareQueuedTransmit
  86              	.LVL8:
  87              	.LBB3:
  88              		.loc 1 170 0
  89 0046 2023     		movs	r3, #32
  90              	@ 170 "../../../ChibiOS/os/hal/src/serial_usb.c" 1
  91 0048 83F31188 		msr     BASEPRI, r3
  92              	@ 0 "" 2
  93              		.thumb
  94              	.LBE3:
  95              		.loc 1 171 0
  96 004c D4F85432 		ldr	r3, [r4, #596]
  97              		.loc 1 173 0
  98 0050 BDE81040 		pop	{r4, lr}
  99              		.cfi_restore 14
 100              		.cfi_restore 4
 101              		.cfi_def_cfa_offset 0
 102              	.LVL9:
 103              		.loc 1 171 0
 104 0054 1868     		ldr	r0, [r3]
 105 0056 1979     		ldrb	r1, [r3, #4]	@ zero_extendqisi2
 106 0058 FFF7FEBF 		b	usbStartTransmitI
 107              	.LVL10:
 108              		.cfi_endproc
 109              	.LFE127:
 110              		.size	onotify, .-onotify
 111              		.section	.text.inotify,"ax",%progbits
 112              		.align	2
 113              		.p2align 4,,15
 114              		.thumb
ARM GAS  C:\Users\danit\AppData\Local\Temp\cc4ycDDa.s 			page 3


 115              		.thumb_func
 116              		.type	inotify, %function
 117              	inotify:
 118              	.LFB126:
 119              		.loc 1 119 0
 120              		.cfi_startproc
 121              		@ args = 0, pretend = 0, frame = 0
 122              		@ frame_needed = 0, uses_anonymous_args = 0
 123              	.LVL11:
 124 0000 38B5     		push	{r3, r4, r5, lr}
 125              		.cfi_def_cfa_offset 16
 126              		.cfi_offset 3, -16
 127              		.cfi_offset 4, -12
 128              		.cfi_offset 5, -8
 129              		.cfi_offset 14, -4
 130              		.loc 1 121 0
 131 0002 046A     		ldr	r4, [r0, #32]
 132              	.LVL12:
 133              		.loc 1 125 0
 134 0004 D4F85432 		ldr	r3, [r4, #596]
 135 0008 1A68     		ldr	r2, [r3]
 136 000a 1178     		ldrb	r1, [r2]	@ zero_extendqisi2
 137 000c 0429     		cmp	r1, #4
 138 000e 00D0     		beq	.L12
 139              	.LVL13:
 140              	.L9:
 141 0010 38BD     		pop	{r3, r4, r5, pc}
 142              	.LVL14:
 143              	.L12:
 144              		.loc 1 125 0 is_stmt 0 discriminator 1
 145 0012 217A     		ldrb	r1, [r4, #8]	@ zero_extendqisi2
 146 0014 0229     		cmp	r1, #2
 147 0016 FBD1     		bne	.L9
 148              		.loc 1 132 0 is_stmt 1
 149 0018 5979     		ldrb	r1, [r3, #5]	@ zero_extendqisi2
 150              		.loc 1 133 0
 151 001a 5389     		ldrh	r3, [r2, #10]
 152              		.loc 1 132 0
 153 001c 02EB8102 		add	r2, r2, r1, lsl #2
 154              		.loc 1 133 0
 155 0020 0B41     		asrs	r3, r3, r1
 156              		.loc 1 132 0
 157 0022 D268     		ldr	r2, [r2, #12]
 158              		.loc 1 133 0
 159 0024 13F00103 		ands	r3, r3, #1
 160              		.loc 1 132 0
 161 0028 558A     		ldrh	r5, [r2, #18]
 162              	.LVL15:
 163              		.loc 1 133 0
 164 002a F1D1     		bne	.L9
 165              		.loc 1 134 0 discriminator 1
 166 002c A269     		ldr	r2, [r4, #24]
 167 002e E169     		ldr	r1, [r4, #28]
 168 0030 6069     		ldr	r0, [r4, #20]
 169              	.LVL16:
 170 0032 891A     		subs	r1, r1, r2
 171 0034 0A1A     		subs	r2, r1, r0
ARM GAS  C:\Users\danit\AppData\Local\Temp\cc4ycDDa.s 			page 4


 172              	.LVL17:
 173              		.loc 1 133 0 discriminator 1
 174 0036 9542     		cmp	r5, r2
 175 0038 EAD8     		bhi	.L9
 176              	.LBB4:
 177              		.loc 1 135 0
 178              	@ 135 "../../../ChibiOS/os/hal/src/serial_usb.c" 1
 179 003a 83F31188 		msr     BASEPRI, r3
 180              	@ 0 "" 2
 181              		.thumb
 182              	.LBE4:
 183              		.loc 1 137 0
 184 003e B2FBF5F3 		udiv	r3, r2, r5
 185              	.LVL18:
 186              		.loc 1 138 0
 187 0042 D4F85412 		ldr	r1, [r4, #596]
 188 0046 05FB03F3 		mul	r3, r5, r3
 189              	.LVL19:
 190 004a 0868     		ldr	r0, [r1]
 191 004c 4979     		ldrb	r1, [r1, #5]	@ zero_extendqisi2
 192 004e 04F10C02 		add	r2, r4, #12
 193 0052 FFF7FEFF 		bl	usbPrepareQueuedReceive
 194              	.LVL20:
 195              	.LBB5:
 196              		.loc 1 142 0
 197 0056 2023     		movs	r3, #32
 198              	@ 142 "../../../ChibiOS/os/hal/src/serial_usb.c" 1
 199 0058 83F31188 		msr     BASEPRI, r3
 200              	@ 0 "" 2
 201              		.thumb
 202              	.LBE5:
 203              		.loc 1 143 0
 204 005c D4F85432 		ldr	r3, [r4, #596]
 205 0060 1868     		ldr	r0, [r3]
 206 0062 5979     		ldrb	r1, [r3, #5]	@ zero_extendqisi2
 207              		.loc 1 145 0
 208 0064 BDE83840 		pop	{r3, r4, r5, lr}
 209              		.cfi_restore 14
 210              		.cfi_restore 5
 211              		.cfi_restore 4
 212              		.cfi_restore 3
 213              		.cfi_def_cfa_offset 0
 214              	.LVL21:
 215              		.loc 1 143 0
 216 0068 FFF7FEBF 		b	usbStartReceiveI
 217              	.LVL22:
 218              		.cfi_endproc
 219              	.LFE126:
 220              		.size	inotify, .-inotify
 221              		.section	.text.readt,"ax",%progbits
 222              		.align	2
 223              		.p2align 4,,15
 224              		.thumb
 225              		.thumb_func
 226              		.type	readt, %function
 227              	readt:
 228              	.LFB125:
ARM GAS  C:\Users\danit\AppData\Local\Temp\cc4ycDDa.s 			page 5


 229              		.loc 1 106 0
 230              		.cfi_startproc
 231              		@ args = 0, pretend = 0, frame = 0
 232              		@ frame_needed = 0, uses_anonymous_args = 0
 233              		@ link register save eliminated.
 234              	.LVL23:
 235              		.loc 1 108 0
 236 0000 0C30     		adds	r0, r0, #12
 237              	.LVL24:
 238 0002 FFF7FEBF 		b	chIQReadTimeout
 239              	.LVL25:
 240              		.cfi_endproc
 241              	.LFE125:
 242              		.size	readt, .-readt
 243 0006 00BF     		.section	.text.read,"ax",%progbits
 244              		.align	2
 245              		.p2align 4,,15
 246              		.thumb
 247              		.thumb_func
 248              		.type	read, %function
 249              	read:
 250              	.LFB119:
 251              		.loc 1 75 0
 252              		.cfi_startproc
 253              		@ args = 0, pretend = 0, frame = 0
 254              		@ frame_needed = 0, uses_anonymous_args = 0
 255              		@ link register save eliminated.
 256              	.LVL26:
 257              		.loc 1 77 0
 258 0000 0C30     		adds	r0, r0, #12
 259              	.LVL27:
 260 0002 4FF0FF33 		mov	r3, #-1
 261 0006 FFF7FEBF 		b	chIQReadTimeout
 262              	.LVL28:
 263              		.cfi_endproc
 264              	.LFE119:
 265              		.size	read, .-read
 266 000a 00BF     		.section	.text.writet,"ax",%progbits
 267              		.align	2
 268              		.p2align 4,,15
 269              		.thumb
 270              		.thumb_func
 271              		.type	writet, %function
 272              	writet:
 273              	.LFB124:
 274              		.loc 1 101 0
 275              		.cfi_startproc
 276              		@ args = 0, pretend = 0, frame = 0
 277              		@ frame_needed = 0, uses_anonymous_args = 0
 278              		@ link register save eliminated.
 279              	.LVL29:
 280              		.loc 1 103 0
 281 0000 3030     		adds	r0, r0, #48
 282              	.LVL30:
 283 0002 FFF7FEBF 		b	chOQWriteTimeout
 284              	.LVL31:
 285              		.cfi_endproc
ARM GAS  C:\Users\danit\AppData\Local\Temp\cc4ycDDa.s 			page 6


 286              	.LFE124:
 287              		.size	writet, .-writet
 288 0006 00BF     		.section	.text.write,"ax",%progbits
 289              		.align	2
 290              		.p2align 4,,15
 291              		.thumb
 292              		.thumb_func
 293              		.type	write, %function
 294              	write:
 295              	.LFB118:
 296              		.loc 1 69 0
 297              		.cfi_startproc
 298              		@ args = 0, pretend = 0, frame = 0
 299              		@ frame_needed = 0, uses_anonymous_args = 0
 300              		@ link register save eliminated.
 301              	.LVL32:
 302              		.loc 1 71 0
 303 0000 3030     		adds	r0, r0, #48
 304              	.LVL33:
 305 0002 4FF0FF33 		mov	r3, #-1
 306 0006 FFF7FEBF 		b	chOQWriteTimeout
 307              	.LVL34:
 308              		.cfi_endproc
 309              	.LFE118:
 310              		.size	write, .-write
 311 000a 00BF     		.section	.text.gett,"ax",%progbits
 312              		.align	2
 313              		.p2align 4,,15
 314              		.thumb
 315              		.thumb_func
 316              		.type	gett, %function
 317              	gett:
 318              	.LFB123:
 319              		.loc 1 96 0
 320              		.cfi_startproc
 321              		@ args = 0, pretend = 0, frame = 0
 322              		@ frame_needed = 0, uses_anonymous_args = 0
 323              		@ link register save eliminated.
 324              	.LVL35:
 325              		.loc 1 98 0
 326 0000 0C30     		adds	r0, r0, #12
 327              	.LVL36:
 328 0002 FFF7FEBF 		b	chIQGetTimeout
 329              	.LVL37:
 330              		.cfi_endproc
 331              	.LFE123:
 332              		.size	gett, .-gett
 333 0006 00BF     		.section	.text.get,"ax",%progbits
 334              		.align	2
 335              		.p2align 4,,15
 336              		.thumb
 337              		.thumb_func
 338              		.type	get, %function
 339              	get:
 340              	.LFB121:
 341              		.loc 1 86 0
 342              		.cfi_startproc
ARM GAS  C:\Users\danit\AppData\Local\Temp\cc4ycDDa.s 			page 7


 343              		@ args = 0, pretend = 0, frame = 0
 344              		@ frame_needed = 0, uses_anonymous_args = 0
 345              		@ link register save eliminated.
 346              	.LVL38:
 347              		.loc 1 88 0
 348 0000 0C30     		adds	r0, r0, #12
 349              	.LVL39:
 350 0002 4FF0FF31 		mov	r1, #-1
 351 0006 FFF7FEBF 		b	chIQGetTimeout
 352              	.LVL40:
 353              		.cfi_endproc
 354              	.LFE121:
 355              		.size	get, .-get
 356 000a 00BF     		.section	.text.putt,"ax",%progbits
 357              		.align	2
 358              		.p2align 4,,15
 359              		.thumb
 360              		.thumb_func
 361              		.type	putt, %function
 362              	putt:
 363              	.LFB122:
 364              		.loc 1 91 0
 365              		.cfi_startproc
 366              		@ args = 0, pretend = 0, frame = 0
 367              		@ frame_needed = 0, uses_anonymous_args = 0
 368              		@ link register save eliminated.
 369              	.LVL41:
 370              		.loc 1 93 0
 371 0000 3030     		adds	r0, r0, #48
 372              	.LVL42:
 373 0002 FFF7FEBF 		b	chOQPutTimeout
 374              	.LVL43:
 375              		.cfi_endproc
 376              	.LFE122:
 377              		.size	putt, .-putt
 378 0006 00BF     		.section	.text.put,"ax",%progbits
 379              		.align	2
 380              		.p2align 4,,15
 381              		.thumb
 382              		.thumb_func
 383              		.type	put, %function
 384              	put:
 385              	.LFB120:
 386              		.loc 1 81 0
 387              		.cfi_startproc
 388              		@ args = 0, pretend = 0, frame = 0
 389              		@ frame_needed = 0, uses_anonymous_args = 0
 390              		@ link register save eliminated.
 391              	.LVL44:
 392              		.loc 1 83 0
 393 0000 3030     		adds	r0, r0, #48
 394              	.LVL45:
 395 0002 4FF0FF32 		mov	r2, #-1
 396 0006 FFF7FEBF 		b	chOQPutTimeout
 397              	.LVL46:
 398              		.cfi_endproc
 399              	.LFE120:
ARM GAS  C:\Users\danit\AppData\Local\Temp\cc4ycDDa.s 			page 8


 400              		.size	put, .-put
 401 000a 00BF     		.section	.text.sduInit,"ax",%progbits
 402              		.align	2
 403              		.p2align 4,,15
 404              		.global	sduInit
 405              		.thumb
 406              		.thumb_func
 407              		.type	sduInit, %function
 408              	sduInit:
 409              	.LFB128:
 410              		.loc 1 186 0
 411              		.cfi_startproc
 412              		@ args = 0, pretend = 0, frame = 0
 413              		@ frame_needed = 0, uses_anonymous_args = 0
 414              		@ link register save eliminated.
 415 0000 7047     		bx	lr
 416              		.cfi_endproc
 417              	.LFE128:
 418              		.size	sduInit, .-sduInit
 419 0002 00BF     		.section	.text.sduObjectInit,"ax",%progbits
 420              		.align	2
 421              		.p2align 4,,15
 422              		.global	sduObjectInit
 423              		.thumb
 424              		.thumb_func
 425              		.type	sduObjectInit, %function
 426              	sduObjectInit:
 427              	.LFB129:
 428              		.loc 1 198 0
 429              		.cfi_startproc
 430              		@ args = 0, pretend = 0, frame = 0
 431              		@ frame_needed = 0, uses_anonymous_args = 0
 432              	.LVL47:
 433              		.loc 1 198 0
 434 0000 10B5     		push	{r4, lr}
 435              		.cfi_def_cfa_offset 8
 436              		.cfi_offset 4, -8
 437              		.cfi_offset 14, -4
 438              		.loc 1 200 0
 439 0002 0346     		mov	r3, r0
 440 0004 0E4A     		ldr	r2, .L24
 441 0006 43F8042B 		str	r2, [r3], #4
 442              		.loc 1 198 0
 443 000a 82B0     		sub	sp, sp, #8
 444              		.cfi_def_cfa_offset 16
 445              		.loc 1 198 0
 446 000c 0446     		mov	r4, r0
 447              		.loc 1 202 0
 448 000e 0122     		movs	r2, #1
 449              		.loc 1 203 0
 450 0010 0090     		str	r0, [sp]
 451 0012 04F15401 		add	r1, r4, #84
 452              		.loc 1 201 0
 453 0016 4360     		str	r3, [r0, #4]
 454              		.loc 1 202 0
 455 0018 0272     		strb	r2, [r0, #8]
 456              		.loc 1 203 0
ARM GAS  C:\Users\danit\AppData\Local\Temp\cc4ycDDa.s 			page 9


 457 001a 0A4B     		ldr	r3, .L24+4
 458 001c 0C30     		adds	r0, r0, #12
 459              	.LVL48:
 460 001e 4FF48072 		mov	r2, #256
 461 0022 FFF7FEFF 		bl	chIQInit
 462              	.LVL49:
 463              		.loc 1 204 0
 464 0026 0094     		str	r4, [sp]
 465 0028 04F13000 		add	r0, r4, #48
 466 002c 04F5AA71 		add	r1, r4, #340
 467 0030 4FF48072 		mov	r2, #256
 468 0034 044B     		ldr	r3, .L24+8
 469 0036 FFF7FEFF 		bl	chOQInit
 470              	.LVL50:
 471              		.loc 1 205 0
 472 003a 02B0     		add	sp, sp, #8
 473              		.cfi_def_cfa_offset 8
 474              		@ sp needed
 475 003c 10BD     		pop	{r4, pc}
 476              	.LVL51:
 477              	.L25:
 478 003e 00BF     		.align	2
 479              	.L24:
 480 0040 00000000 		.word	.LANCHOR0
 481 0044 00000000 		.word	inotify
 482 0048 00000000 		.word	onotify
 483              		.cfi_endproc
 484              	.LFE129:
 485              		.size	sduObjectInit, .-sduObjectInit
 486              		.section	.text.sduStart,"ax",%progbits
 487              		.align	2
 488              		.p2align 4,,15
 489              		.global	sduStart
 490              		.thumb
 491              		.thumb_func
 492              		.type	sduStart, %function
 493              	sduStart:
 494              	.LFB130:
 495              		.loc 1 215 0
 496              		.cfi_startproc
 497              		@ args = 0, pretend = 0, frame = 0
 498              		@ frame_needed = 0, uses_anonymous_args = 0
 499              		@ link register save eliminated.
 500              	.LVL52:
 501 0000 30B4     		push	{r4, r5}
 502              		.cfi_def_cfa_offset 8
 503              		.cfi_offset 4, -8
 504              		.cfi_offset 5, -4
 505              		.loc 1 216 0
 506 0002 0A68     		ldr	r2, [r1]
 507              	.LVL53:
 508              	.LBB6:
 509              		.loc 1 220 0
 510 0004 2023     		movs	r3, #32
 511              	@ 220 "../../../ChibiOS/os/hal/src/serial_usb.c" 1
 512 0006 83F31188 		msr     BASEPRI, r3
 513              	@ 0 "" 2
ARM GAS  C:\Users\danit\AppData\Local\Temp\cc4ycDDa.s 			page 10


 514              		.thumb
 515              	.LBE6:
 516              		.loc 1 224 0
 517 000a 0B79     		ldrb	r3, [r1, #4]	@ zero_extendqisi2
 518 000c 02EB8303 		add	r3, r2, r3, lsl #2
 519              		.loc 1 228 0
 520 0010 0225     		movs	r5, #2
 521              		.loc 1 224 0
 522 0012 9861     		str	r0, [r3, #24]
 523              		.loc 1 225 0
 524 0014 4C79     		ldrb	r4, [r1, #5]	@ zero_extendqisi2
 525 0016 0934     		adds	r4, r4, #9
 526              	.LBB7:
 527              		.loc 1 229 0
 528 0018 0023     		movs	r3, #0
 529              	.LBE7:
 530              		.loc 1 225 0
 531 001a 42F82400 		str	r0, [r2, r4, lsl #2]
 532              		.loc 1 226 0
 533 001e 8C79     		ldrb	r4, [r1, #6]	@ zero_extendqisi2
 534 0020 02EB8402 		add	r2, r2, r4, lsl #2
 535              	.LVL54:
 536 0024 9061     		str	r0, [r2, #24]
 537              		.loc 1 227 0
 538 0026 C0F85412 		str	r1, [r0, #596]
 539              		.loc 1 228 0
 540 002a 0572     		strb	r5, [r0, #8]
 541              	.LBB8:
 542              		.loc 1 229 0
 543              	@ 229 "../../../ChibiOS/os/hal/src/serial_usb.c" 1
 544 002c 83F31188 		msr     BASEPRI, r3
 545              	@ 0 "" 2
 546              		.thumb
 547              	.LBE8:
 548              		.loc 1 230 0
 549 0030 30BC     		pop	{r4, r5}
 550              		.cfi_restore 5
 551              		.cfi_restore 4
 552              		.cfi_def_cfa_offset 0
 553 0032 7047     		bx	lr
 554              		.cfi_endproc
 555              	.LFE130:
 556              		.size	sduStart, .-sduStart
 557              		.section	.text.sduStop,"ax",%progbits
 558              		.align	2
 559              		.p2align 4,,15
 560              		.global	sduStop
 561              		.thumb
 562              		.thumb_func
 563              		.type	sduStop, %function
 564              	sduStop:
 565              	.LFB131:
 566              		.loc 1 241 0
 567              		.cfi_startproc
 568              		@ args = 0, pretend = 0, frame = 0
 569              		@ frame_needed = 0, uses_anonymous_args = 0
 570              	.LVL55:
ARM GAS  C:\Users\danit\AppData\Local\Temp\cc4ycDDa.s 			page 11


 571              		.loc 1 242 0
 572 0000 D0F85422 		ldr	r2, [r0, #596]
 573              		.loc 1 241 0
 574 0004 70B5     		push	{r4, r5, r6, lr}
 575              		.cfi_def_cfa_offset 16
 576              		.cfi_offset 4, -16
 577              		.cfi_offset 5, -12
 578              		.cfi_offset 6, -8
 579              		.cfi_offset 14, -4
 580              	.LBB9:
 581              		.loc 1 246 0
 582 0006 2023     		movs	r3, #32
 583              	.LBE9:
 584              		.loc 1 241 0
 585 0008 0446     		mov	r4, r0
 586              		.loc 1 242 0
 587 000a 1268     		ldr	r2, [r2]
 588              	.LVL56:
 589              	.LBB10:
 590              		.loc 1 246 0
 591              	@ 246 "../../../ChibiOS/os/hal/src/serial_usb.c" 1
 592 000c 83F31188 		msr     BASEPRI, r3
 593              	@ 0 "" 2
 594              		.thumb
 595              	.LBE10:
 596              		.loc 1 253 0
 597 0010 D0F85432 		ldr	r3, [r0, #596]
 598 0014 1979     		ldrb	r1, [r3, #4]	@ zero_extendqisi2
 599 0016 0531     		adds	r1, r1, #5
 600 0018 02EB8101 		add	r1, r2, r1, lsl #2
 601 001c 0025     		movs	r5, #0
 602 001e 4D60     		str	r5, [r1, #4]
 603              		.loc 1 254 0
 604 0020 5979     		ldrb	r1, [r3, #5]	@ zero_extendqisi2
 605 0022 0931     		adds	r1, r1, #9
 606              		.loc 1 256 0
 607 0024 0126     		movs	r6, #1
 608              		.loc 1 254 0
 609 0026 42F82150 		str	r5, [r2, r1, lsl #2]
 610              		.loc 1 255 0
 611 002a 9B79     		ldrb	r3, [r3, #6]	@ zero_extendqisi2
 612 002c 0533     		adds	r3, r3, #5
 613 002e 02EB8302 		add	r2, r2, r3, lsl #2
 614              	.LVL57:
 615              		.loc 1 259 0
 616 0032 0221     		movs	r1, #2
 617              		.loc 1 255 0
 618 0034 5560     		str	r5, [r2, #4]
 619              		.loc 1 259 0
 620 0036 0430     		adds	r0, r0, #4
 621              	.LVL58:
 622              		.loc 1 256 0
 623 0038 2672     		strb	r6, [r4, #8]
 624              		.loc 1 259 0
 625 003a FFF7FEFF 		bl	chEvtBroadcastFlagsI
 626              	.LVL59:
 627              		.loc 1 260 0
ARM GAS  C:\Users\danit\AppData\Local\Temp\cc4ycDDa.s 			page 12


 628 003e 04F10C00 		add	r0, r4, #12
 629 0042 FFF7FEFF 		bl	chIQResetI
 630              	.LVL60:
 631              		.loc 1 261 0
 632 0046 04F13000 		add	r0, r4, #48
 633 004a FFF7FEFF 		bl	chOQResetI
 634              	.LVL61:
 635              		.loc 1 262 0
 636 004e FFF7FEFF 		bl	chSchRescheduleS
 637              	.LVL62:
 638              	.LBB11:
 639              		.loc 1 264 0
 640 0052 2B46     		mov	r3, r5
 641              	@ 264 "../../../ChibiOS/os/hal/src/serial_usb.c" 1
 642 0054 83F31188 		msr     BASEPRI, r3
 643              	@ 0 "" 2
 644              		.thumb
 645 0058 70BD     		pop	{r4, r5, r6, pc}
 646              	.LBE11:
 647              		.cfi_endproc
 648              	.LFE131:
 649              		.size	sduStop, .-sduStop
 650 005a 00BF     		.section	.text.sduConfigureHookI,"ax",%progbits
 651              		.align	2
 652              		.p2align 4,,15
 653              		.global	sduConfigureHookI
 654              		.thumb
 655              		.thumb_func
 656              		.type	sduConfigureHookI, %function
 657              	sduConfigureHookI:
 658              	.LFB132:
 659              		.loc 1 274 0
 660              		.cfi_startproc
 661              		@ args = 0, pretend = 0, frame = 0
 662              		@ frame_needed = 0, uses_anonymous_args = 0
 663              	.LVL63:
 664 0000 70B5     		push	{r4, r5, r6, lr}
 665              		.cfi_def_cfa_offset 16
 666              		.cfi_offset 4, -16
 667              		.cfi_offset 5, -12
 668              		.cfi_offset 6, -8
 669              		.cfi_offset 14, -4
 670              		.loc 1 275 0
 671 0002 D0F85432 		ldr	r3, [r0, #596]
 672              		.loc 1 277 0
 673 0006 00F10C06 		add	r6, r0, #12
 674              		.loc 1 274 0
 675 000a 0446     		mov	r4, r0
 676              		.loc 1 277 0
 677 000c 3046     		mov	r0, r6
 678              	.LVL64:
 679              		.loc 1 275 0
 680 000e 1D68     		ldr	r5, [r3]
 681              	.LVL65:
 682              		.loc 1 277 0
 683 0010 FFF7FEFF 		bl	chIQResetI
 684              	.LVL66:
ARM GAS  C:\Users\danit\AppData\Local\Temp\cc4ycDDa.s 			page 13


 685              		.loc 1 278 0
 686 0014 04F13000 		add	r0, r4, #48
 687 0018 FFF7FEFF 		bl	chOQResetI
 688              	.LVL67:
 689              		.loc 1 279 0
 690 001c 201D     		adds	r0, r4, #4
 691 001e 0121     		movs	r1, #1
 692 0020 FFF7FEFF 		bl	chEvtBroadcastFlagsI
 693              	.LVL68:
 694              		.loc 1 283 0
 695 0024 D4F85432 		ldr	r3, [r4, #596]
 696 0028 5979     		ldrb	r1, [r3, #5]	@ zero_extendqisi2
 697 002a 05EB8103 		add	r3, r5, r1, lsl #2
 698              		.loc 1 282 0
 699 002e 2846     		mov	r0, r5
 700              		.loc 1 283 0
 701 0030 DB68     		ldr	r3, [r3, #12]
 702              		.loc 1 282 0
 703 0032 3246     		mov	r2, r6
 704 0034 5B8A     		ldrh	r3, [r3, #18]
 705 0036 FFF7FEFF 		bl	usbPrepareQueuedReceive
 706              	.LVL69:
 707              		.loc 1 284 0
 708 003a D4F85432 		ldr	r3, [r4, #596]
 709 003e 2846     		mov	r0, r5
 710 0040 5979     		ldrb	r1, [r3, #5]	@ zero_extendqisi2
 711              		.loc 1 285 0
 712 0042 BDE87040 		pop	{r4, r5, r6, lr}
 713              		.cfi_restore 14
 714              		.cfi_restore 6
 715              		.cfi_restore 5
 716              		.cfi_restore 4
 717              		.cfi_def_cfa_offset 0
 718              	.LVL70:
 719              		.loc 1 284 0
 720 0046 FFF7FEBF 		b	usbStartReceiveI
 721              	.LVL71:
 722              		.cfi_endproc
 723              	.LFE132:
 724              		.size	sduConfigureHookI, .-sduConfigureHookI
 725 004a 00BF     		.section	.text.sduRequestsHook,"ax",%progbits
 726              		.align	2
 727              		.p2align 4,,15
 728              		.global	sduRequestsHook
 729              		.thumb
 730              		.thumb_func
 731              		.type	sduRequestsHook, %function
 732              	sduRequestsHook:
 733              	.LFB133:
 734              		.loc 1 302 0
 735              		.cfi_startproc
 736              		@ args = 0, pretend = 0, frame = 0
 737              		@ frame_needed = 0, uses_anonymous_args = 0
 738              		@ link register save eliminated.
 739              	.LVL72:
 740              		.loc 1 304 0
 741 0000 90F84430 		ldrb	r3, [r0, #68]	@ zero_extendqisi2
ARM GAS  C:\Users\danit\AppData\Local\Temp\cc4ycDDa.s 			page 14


 742 0004 03F06003 		and	r3, r3, #96
 743 0008 202B     		cmp	r3, #32
 744 000a 01D0     		beq	.L40
 745              	.L39:
 746              		.loc 1 317 0
 747 000c 0020     		movs	r0, #0
 748              	.LVL73:
 749              		.loc 1 321 0
 750 000e 7047     		bx	lr
 751              	.LVL74:
 752              	.L40:
 753              		.loc 1 305 0
 754 0010 90F84530 		ldrb	r3, [r0, #69]	@ zero_extendqisi2
 755 0014 212B     		cmp	r3, #33
 756 0016 03D0     		beq	.L36
 757 0018 222B     		cmp	r3, #34
 758 001a 09D0     		beq	.L35
 759 001c 202B     		cmp	r3, #32
 760 001e F5D1     		bne	.L39
 761              	.L36:
 762              		.loc 1 310 0
 763 0020 064B     		ldr	r3, .L41
 764 0022 8363     		str	r3, [r0, #56]
 765 0024 0722     		movs	r2, #7
 766 0026 0023     		movs	r3, #0
 767 0028 C263     		str	r2, [r0, #60]
 768 002a 0364     		str	r3, [r0, #64]
 769              		.loc 1 311 0
 770 002c 0120     		movs	r0, #1
 771              	.LVL75:
 772 002e 7047     		bx	lr
 773              	.LVL76:
 774              	.L35:
 775              		.loc 1 314 0
 776 0030 0023     		movs	r3, #0
 777 0032 8363     		str	r3, [r0, #56]
 778 0034 C363     		str	r3, [r0, #60]
 779 0036 0364     		str	r3, [r0, #64]
 780              		.loc 1 315 0
 781 0038 0120     		movs	r0, #1
 782              	.LVL77:
 783 003a 7047     		bx	lr
 784              	.L42:
 785              		.align	2
 786              	.L41:
 787 003c 00000000 		.word	.LANCHOR1
 788              		.cfi_endproc
 789              	.LFE133:
 790              		.size	sduRequestsHook, .-sduRequestsHook
 791              		.section	.text.sduDataTransmitted,"ax",%progbits
 792              		.align	2
 793              		.p2align 4,,15
 794              		.global	sduDataTransmitted
 795              		.thumb
 796              		.thumb_func
 797              		.type	sduDataTransmitted, %function
 798              	sduDataTransmitted:
ARM GAS  C:\Users\danit\AppData\Local\Temp\cc4ycDDa.s 			page 15


 799              	.LFB134:
 800              		.loc 1 331 0
 801              		.cfi_startproc
 802              		@ args = 0, pretend = 0, frame = 0
 803              		@ frame_needed = 0, uses_anonymous_args = 0
 804              	.LVL78:
 805 0000 2DE9F041 		push	{r4, r5, r6, r7, r8, lr}
 806              		.cfi_def_cfa_offset 24
 807              		.cfi_offset 4, -24
 808              		.cfi_offset 5, -20
 809              		.cfi_offset 6, -16
 810              		.cfi_offset 7, -12
 811              		.cfi_offset 8, -8
 812              		.cfi_offset 14, -4
 813 0004 00EB8108 		add	r8, r0, r1, lsl #2
 814              		.loc 1 333 0
 815 0008 D8F81840 		ldr	r4, [r8, #24]
 816              	.LVL79:
 817              		.loc 1 335 0
 818 000c B4B1     		cbz	r4, .L43
 819 000e 0F46     		mov	r7, r1
 820 0010 0646     		mov	r6, r0
 821              	.LBB12:
 822              		.loc 1 338 0
 823 0012 2023     		movs	r3, #32
 824              	@ 338 "../../../ChibiOS/os/hal/src/serial_usb.c" 1
 825 0014 83F31188 		msr     BASEPRI, r3
 826              	@ 0 "" 2
 827              		.thumb
 828              	.LBE12:
 829              		.loc 1 339 0
 830 0018 0821     		movs	r1, #8
 831              	.LVL80:
 832 001a 201D     		adds	r0, r4, #4
 833              	.LVL81:
 834 001c FFF7FEFF 		bl	chEvtBroadcastFlagsI
 835              	.LVL82:
 836              		.loc 1 341 0
 837 0020 226C     		ldr	r2, [r4, #64]
 838 0022 E36B     		ldr	r3, [r4, #60]
 839 0024 A56B     		ldr	r5, [r4, #56]
 840 0026 D31A     		subs	r3, r2, r3
 841              	.LVL83:
 842 0028 5D1B     		subs	r5, r3, r5
 843              	.LVL84:
 844 002a 12D1     		bne	.L55
 845              		.loc 1 351 0
 846 002c D8F80C30 		ldr	r3, [r8, #12]
 847 0030 5A69     		ldr	r2, [r3, #20]
 848 0032 5268     		ldr	r2, [r2, #4]
 849 0034 22B9     		cbnz	r2, .L56
 850              	.L46:
 851              	.LBB13:
 852              		.loc 1 366 0
 853 0036 0023     		movs	r3, #0
 854              	@ 366 "../../../ChibiOS/os/hal/src/serial_usb.c" 1
 855 0038 83F31188 		msr     BASEPRI, r3
ARM GAS  C:\Users\danit\AppData\Local\Temp\cc4ycDDa.s 			page 16


 856              	@ 0 "" 2
 857              	.LVL85:
 858              		.thumb
 859              	.L43:
 860 003c BDE8F081 		pop	{r4, r5, r6, r7, r8, pc}
 861              	.LVL86:
 862              	.L56:
 863              	.LBE13:
 864              		.loc 1 353 0 discriminator 1
 865 0040 1B8A     		ldrh	r3, [r3, #16]
 866 0042 013B     		subs	r3, r3, #1
 867              		.loc 1 351 0 discriminator 1
 868 0044 1340     		ands	r3, r3, r2
 869 0046 F6D1     		bne	.L46
 870              	.LBB14:
 871              		.loc 1 358 0
 872              	@ 358 "../../../ChibiOS/os/hal/src/serial_usb.c" 1
 873 0048 83F31188 		msr     BASEPRI, r3
 874              	@ 0 "" 2
 875              		.thumb
 876              	.LBE14:
 877              		.loc 1 360 0
 878 004c 04F13002 		add	r2, r4, #48
 879 0050 05E0     		b	.L54
 880              	.L55:
 881              	.LBB15:
 882              		.loc 1 344 0
 883 0052 0023     		movs	r3, #0
 884              	@ 344 "../../../ChibiOS/os/hal/src/serial_usb.c" 1
 885 0054 83F31188 		msr     BASEPRI, r3
 886              	@ 0 "" 2
 887              		.thumb
 888              	.LBE15:
 889              		.loc 1 346 0
 890 0058 04F13002 		add	r2, r4, #48
 891 005c 2B46     		mov	r3, r5
 892              	.L54:
 893              		.loc 1 360 0
 894 005e 3046     		mov	r0, r6
 895 0060 3946     		mov	r1, r7
 896 0062 FFF7FEFF 		bl	usbPrepareQueuedTransmit
 897              	.LVL87:
 898              	.LBB16:
 899              		.loc 1 362 0
 900 0066 2023     		movs	r3, #32
 901              	@ 362 "../../../ChibiOS/os/hal/src/serial_usb.c" 1
 902 0068 83F31188 		msr     BASEPRI, r3
 903              	@ 0 "" 2
 904              		.thumb
 905              	.LBE16:
 906              		.loc 1 363 0
 907 006c 3046     		mov	r0, r6
 908 006e 3946     		mov	r1, r7
 909 0070 FFF7FEFF 		bl	usbStartTransmitI
 910              	.LVL88:
 911 0074 DFE7     		b	.L46
 912              		.cfi_endproc
ARM GAS  C:\Users\danit\AppData\Local\Temp\cc4ycDDa.s 			page 17


 913              	.LFE134:
 914              		.size	sduDataTransmitted, .-sduDataTransmitted
 915 0076 00BF     		.section	.text.sduDataReceived,"ax",%progbits
 916              		.align	2
 917              		.p2align 4,,15
 918              		.global	sduDataReceived
 919              		.thumb
 920              		.thumb_func
 921              		.type	sduDataReceived, %function
 922              	sduDataReceived:
 923              	.LFB135:
 924              		.loc 1 377 0
 925              		.cfi_startproc
 926              		@ args = 0, pretend = 0, frame = 0
 927              		@ frame_needed = 0, uses_anonymous_args = 0
 928              	.LVL89:
 929 0000 2DE9F041 		push	{r4, r5, r6, r7, r8, lr}
 930              		.cfi_def_cfa_offset 24
 931              		.cfi_offset 4, -24
 932              		.cfi_offset 5, -20
 933              		.cfi_offset 6, -16
 934              		.cfi_offset 7, -12
 935              		.cfi_offset 8, -8
 936              		.cfi_offset 14, -4
 937 0004 00EB8104 		add	r4, r0, r1, lsl #2
 938              		.loc 1 379 0
 939 0008 666A     		ldr	r6, [r4, #36]
 940              	.LVL90:
 941              		.loc 1 381 0
 942 000a A6B1     		cbz	r6, .L57
 943 000c 0F46     		mov	r7, r1
 944 000e 8046     		mov	r8, r0
 945              	.LBB17:
 946              		.loc 1 384 0
 947 0010 2023     		movs	r3, #32
 948              	@ 384 "../../../ChibiOS/os/hal/src/serial_usb.c" 1
 949 0012 83F31188 		msr     BASEPRI, r3
 950              	@ 0 "" 2
 951              		.thumb
 952              	.LBE17:
 953              		.loc 1 385 0
 954 0016 0421     		movs	r1, #4
 955              	.LVL91:
 956 0018 7018     		adds	r0, r6, r1
 957              	.LVL92:
 958 001a FFF7FEFF 		bl	chEvtBroadcastFlagsI
 959              	.LVL93:
 960              		.loc 1 390 0
 961 001e 06F11403 		add	r3, r6, #20
 962              		.loc 1 389 0
 963 0022 E268     		ldr	r2, [r4, #12]
 964              		.loc 1 390 0
 965 0024 38CB     		ldmia	r3, {r3, r4, r5}
 966              		.loc 1 389 0
 967 0026 518A     		ldrh	r1, [r2, #18]
 968              	.LVL94:
 969              		.loc 1 390 0
ARM GAS  C:\Users\danit\AppData\Local\Temp\cc4ycDDa.s 			page 18


 970 0028 2D1B     		subs	r5, r5, r4
 971 002a EC1A     		subs	r4, r5, r3
 972              	.LVL95:
 973 002c A142     		cmp	r1, r4
 974 002e 04D9     		bls	.L64
 975              	.LVL96:
 976              	.L59:
 977              	.LBB18:
 978              		.loc 1 402 0
 979 0030 0023     		movs	r3, #0
 980              	@ 402 "../../../ChibiOS/os/hal/src/serial_usb.c" 1
 981 0032 83F31188 		msr     BASEPRI, r3
 982              	@ 0 "" 2
 983              	.LVL97:
 984              		.thumb
 985              	.L57:
 986 0036 BDE8F081 		pop	{r4, r5, r6, r7, r8, pc}
 987              	.LVL98:
 988              	.L64:
 989              	.LBE18:
 990              	.LBB19:
 991              		.loc 1 393 0
 992 003a 0023     		movs	r3, #0
 993              	@ 393 "../../../ChibiOS/os/hal/src/serial_usb.c" 1
 994 003c 83F31188 		msr     BASEPRI, r3
 995              	@ 0 "" 2
 996              		.thumb
 997              	.LBE19:
 998              		.loc 1 395 0
 999 0040 B4FBF1F3 		udiv	r3, r4, r1
 1000              	.LVL99:
 1001              		.loc 1 396 0
 1002 0044 06F10C02 		add	r2, r6, #12
 1003 0048 01FB03F3 		mul	r3, r1, r3
 1004              	.LVL100:
 1005 004c 4046     		mov	r0, r8
 1006 004e 3946     		mov	r1, r7
 1007              	.LVL101:
 1008 0050 FFF7FEFF 		bl	usbPrepareQueuedReceive
 1009              	.LVL102:
 1010              	.LBB20:
 1011              		.loc 1 398 0
 1012 0054 2023     		movs	r3, #32
 1013              	@ 398 "../../../ChibiOS/os/hal/src/serial_usb.c" 1
 1014 0056 83F31188 		msr     BASEPRI, r3
 1015              	@ 0 "" 2
 1016              		.thumb
 1017              	.LBE20:
 1018              		.loc 1 399 0
 1019 005a 4046     		mov	r0, r8
 1020 005c 3946     		mov	r1, r7
 1021 005e FFF7FEFF 		bl	usbStartReceiveI
 1022              	.LVL103:
 1023 0062 E5E7     		b	.L59
 1024              		.cfi_endproc
 1025              	.LFE135:
 1026              		.size	sduDataReceived, .-sduDataReceived
ARM GAS  C:\Users\danit\AppData\Local\Temp\cc4ycDDa.s 			page 19


 1027              		.section	.text.sduInterruptTransmitted,"ax",%progbits
 1028              		.align	2
 1029              		.p2align 4,,15
 1030              		.global	sduInterruptTransmitted
 1031              		.thumb
 1032              		.thumb_func
 1033              		.type	sduInterruptTransmitted, %function
 1034              	sduInterruptTransmitted:
 1035              	.LFB136:
 1036              		.loc 1 413 0
 1037              		.cfi_startproc
 1038              		@ args = 0, pretend = 0, frame = 0
 1039              		@ frame_needed = 0, uses_anonymous_args = 0
 1040              		@ link register save eliminated.
 1041              	.LVL104:
 1042 0000 7047     		bx	lr
 1043              		.cfi_endproc
 1044              	.LFE136:
 1045              		.size	sduInterruptTransmitted, .-sduInterruptTransmitted
 1046 0002 00BF     		.section	.rodata.vmt,"a",%progbits
 1047              		.align	2
 1048              		.set	.LANCHOR0,. + 0
 1049              		.type	vmt, %object
 1050              		.size	vmt, 32
 1051              	vmt:
 1052 0000 00000000 		.word	write
 1053 0004 00000000 		.word	read
 1054 0008 00000000 		.word	put
 1055 000c 00000000 		.word	get
 1056 0010 00000000 		.word	putt
 1057 0014 00000000 		.word	gett
 1058 0018 00000000 		.word	writet
 1059 001c 00000000 		.word	readt
 1060              		.section	.data.linecoding,"aw",%progbits
 1061              		.align	2
 1062              		.set	.LANCHOR1,. + 0
 1063              		.type	linecoding, %object
 1064              		.size	linecoding, 7
 1065              	linecoding:
 1066 0000 00       		.byte	0
 1067 0001 96       		.byte	-106
 1068 0002 00       		.byte	0
 1069 0003 00       		.byte	0
 1070 0004 00       		.byte	0
 1071 0005 00       		.byte	0
 1072 0006 08       		.byte	8
 1073              		.text
 1074              	.Letext0:
 1075              		.file 2 "c:\\program files (x86)\\gnu tools arm embedded\\4.9 2015q2\\lib\\gcc\\arm-none-eabi\\4.9
 1076              		.file 3 "c:\\program files (x86)\\gnu tools arm embedded\\4.9 2015q2\\arm-none-eabi\\include\\mach
 1077              		.file 4 "c:\\program files (x86)\\gnu tools arm embedded\\4.9 2015q2\\arm-none-eabi\\include\\sys\
 1078              		.file 5 "../../../ChibiOS/os/ports/GCC/ARMCMx/chtypes.h"
 1079              		.file 6 "../../../ChibiOS/os/kernel/include/chlists.h"
 1080              		.file 7 "../../../ChibiOS/os/kernel/include/chthreads.h"
 1081              		.file 8 "../../../ChibiOS/os/ports/GCC/ARMCMx/chcore_v7m.h"
 1082              		.file 9 "../../../ChibiOS/os/kernel/include/chmtx.h"
 1083              		.file 10 "../../../ChibiOS/os/kernel/include/chevents.h"
ARM GAS  C:\Users\danit\AppData\Local\Temp\cc4ycDDa.s 			page 20


 1084              		.file 11 "../../../ChibiOS/os/kernel/include/chqueues.h"
 1085              		.file 12 "../../../ChibiOS/os/hal/include/usb.h"
 1086              		.file 13 "../../../ChibiOS/os/hal/platforms/STM32/OTGv1/usb_lld.h"
 1087              		.file 14 "../../../ChibiOS/os/hal/platforms/STM32/OTGv1/stm32_otg.h"
 1088              		.file 15 "../../../ChibiOS/os/hal/include/serial_usb.h"
 1089              		.file 16 "../../../ChibiOS/os/ports/common/ARMCMx/CMSIS/include/core_cm4.h"
 1090              		.file 17 "../../../ChibiOS/os/kernel/include/chschd.h"