ARM GAS  C:\Users\danit\AppData\Local\Temp\ccBoNNmX.s 			page 1


   1              		.syntax unified
   2              		.cpu cortex-m4
   3              		.fpu softvfp
   4              		.eabi_attribute 20, 1
   5              		.eabi_attribute 21, 1
   6              		.eabi_attribute 23, 3
   7              		.eabi_attribute 24, 1
   8              		.eabi_attribute 25, 1
   9              		.eabi_attribute 26, 1
  10              		.eabi_attribute 30, 2
  11              		.eabi_attribute 34, 1
  12              		.eabi_attribute 18, 4
  13              		.thumb
  14              		.file	"serial_lld.c"
  15              		.text
  16              	.Ltext0:
  17              		.cfi_sections	.debug_frame
  18              		.section	.text.notify1,"ax",%progbits
  19              		.align	2
  20              		.p2align 4,,15
  21              		.thumb
  22              		.thumb_func
  23              		.type	notify1, %function
  24              	notify1:
  25              	.LFB122:
  26              		.file 1 "../../../ChibiOS/os/hal/platforms/STM32/USARTv1/serial_lld.c"
  27              		.loc 1 204 0
  28              		.cfi_startproc
  29              		@ args = 0, pretend = 0, frame = 0
  30              		@ frame_needed = 0, uses_anonymous_args = 0
  31              		@ link register save eliminated.
  32              	.LVL0:
  33              		.loc 1 207 0
  34 0000 034A     		ldr	r2, .L2
  35 0002 9389     		ldrh	r3, [r2, #12]
  36 0004 9BB2     		uxth	r3, r3
  37 0006 43F08003 		orr	r3, r3, #128
  38 000a 9381     		strh	r3, [r2, #12]	@ movhi
  39 000c 7047     		bx	lr
  40              	.L3:
  41 000e 00BF     		.align	2
  42              	.L2:
  43 0010 00100140 		.word	1073811456
  44              		.cfi_endproc
  45              	.LFE122:
  46              		.size	notify1, .-notify1
  47              		.section	.text.notify2,"ax",%progbits
  48              		.align	2
  49              		.p2align 4,,15
  50              		.thumb
  51              		.thumb_func
  52              		.type	notify2, %function
  53              	notify2:
  54              	.LFB123:
  55              		.loc 1 212 0
  56              		.cfi_startproc
  57              		@ args = 0, pretend = 0, frame = 0
ARM GAS  C:\Users\danit\AppData\Local\Temp\ccBoNNmX.s 			page 2


  58              		@ frame_needed = 0, uses_anonymous_args = 0
  59              		@ link register save eliminated.
  60              	.LVL1:
  61              		.loc 1 215 0
  62 0000 034A     		ldr	r2, .L5
  63 0002 9389     		ldrh	r3, [r2, #12]
  64 0004 9BB2     		uxth	r3, r3
  65 0006 43F08003 		orr	r3, r3, #128
  66 000a 9381     		strh	r3, [r2, #12]	@ movhi
  67 000c 7047     		bx	lr
  68              	.L6:
  69 000e 00BF     		.align	2
  70              	.L5:
  71 0010 00440040 		.word	1073759232
  72              		.cfi_endproc
  73              	.LFE123:
  74              		.size	notify2, .-notify2
  75              		.section	.text.notify3,"ax",%progbits
  76              		.align	2
  77              		.p2align 4,,15
  78              		.thumb
  79              		.thumb_func
  80              		.type	notify3, %function
  81              	notify3:
  82              	.LFB124:
  83              		.loc 1 220 0
  84              		.cfi_startproc
  85              		@ args = 0, pretend = 0, frame = 0
  86              		@ frame_needed = 0, uses_anonymous_args = 0
  87              		@ link register save eliminated.
  88              	.LVL2:
  89              		.loc 1 223 0
  90 0000 034A     		ldr	r2, .L8
  91 0002 9389     		ldrh	r3, [r2, #12]
  92 0004 9BB2     		uxth	r3, r3
  93 0006 43F08003 		orr	r3, r3, #128
  94 000a 9381     		strh	r3, [r2, #12]	@ movhi
  95 000c 7047     		bx	lr
  96              	.L9:
  97 000e 00BF     		.align	2
  98              	.L8:
  99 0010 00480040 		.word	1073760256
 100              		.cfi_endproc
 101              	.LFE124:
 102              		.size	notify3, .-notify3
 103              		.section	.text.serve_interrupt,"ax",%progbits
 104              		.align	2
 105              		.p2align 4,,15
 106              		.thumb
 107              		.thumb_func
 108              		.type	serve_interrupt, %function
 109              	serve_interrupt:
 110              	.LFB121:
 111              		.loc 1 154 0
 112              		.cfi_startproc
 113              		@ args = 0, pretend = 0, frame = 0
 114              		@ frame_needed = 0, uses_anonymous_args = 0
ARM GAS  C:\Users\danit\AppData\Local\Temp\ccBoNNmX.s 			page 3


 115              	.LVL3:
 116 0000 2DE9F041 		push	{r4, r5, r6, r7, r8, lr}
 117              		.cfi_def_cfa_offset 24
 118              		.cfi_offset 4, -24
 119              		.cfi_offset 5, -20
 120              		.cfi_offset 6, -16
 121              		.cfi_offset 7, -12
 122              		.cfi_offset 8, -8
 123              		.cfi_offset 14, -4
 124              		.loc 1 155 0
 125 0004 456F     		ldr	r5, [r0, #116]
 126              	.LVL4:
 127              		.loc 1 156 0
 128 0006 AB89     		ldrh	r3, [r5, #12]
 129              		.loc 1 157 0
 130 0008 2C88     		ldrh	r4, [r5]
 131 000a A4B2     		uxth	r4, r4
 132              		.loc 1 160 0
 133 000c E705     		lsls	r7, r4, #23
 134              		.loc 1 154 0
 135 000e 0646     		mov	r6, r0
 136              		.loc 1 156 0
 137 0010 1FFA83F8 		uxth	r8, r3
 138              	.LVL5:
 139              		.loc 1 160 0
 140 0014 46D4     		bmi	.L56
 141              	.LVL6:
 142              	.L11:
 143              	.LBB15:
 144              		.loc 1 168 0
 145 0016 2023     		movs	r3, #32
 146              	@ 168 "../../../ChibiOS/os/hal/platforms/STM32/USARTv1/serial_lld.c" 1
 147 0018 83F31188 		msr     BASEPRI, r3
 148              	@ 0 "" 2
 149              		.thumb
 150              	.LBE15:
 151              		.loc 1 169 0
 152 001c A006     		lsls	r0, r4, #26
 153 001e 22D5     		bpl	.L12
 154              	.LBB16:
 155              	.LBB17:
 156              		.loc 1 146 0
 157 0020 371D     		adds	r7, r6, #4
 158 0022 08E0     		b	.L18
 159              	.LVL7:
 160              	.L13:
 161              	.LBE17:
 162              	.LBE16:
 163              		.loc 1 173 0
 164 0024 A988     		ldrh	r1, [r5, #4]
 165 0026 3046     		mov	r0, r6
 166 0028 C9B2     		uxtb	r1, r1
 167 002a FFF7FEFF 		bl	sdIncomingDataI
 168              	.LVL8:
 169              		.loc 1 174 0
 170 002e 2C88     		ldrh	r4, [r5]
 171 0030 A4B2     		uxth	r4, r4
ARM GAS  C:\Users\danit\AppData\Local\Temp\ccBoNNmX.s 			page 4


 172              	.LVL9:
 173              		.loc 1 169 0
 174 0032 A106     		lsls	r1, r4, #26
 175 0034 17D5     		bpl	.L12
 176              	.L18:
 177              		.loc 1 171 0
 178 0036 2207     		lsls	r2, r4, #28
 179 0038 F4D0     		beq	.L13
 180              	.LVL10:
 181              	.LBB19:
 182              	.LBB18:
 183              		.loc 1 139 0
 184 003a 14F0080F 		tst	r4, #8
 185 003e 14BF     		ite	ne
 186 0040 8021     		movne	r1, #128
 187 0042 0021     		moveq	r1, #0
 188              	.LVL11:
 189              		.loc 1 140 0
 190 0044 14F0010F 		tst	r4, #1
 191              		.loc 1 141 0
 192 0048 18BF     		it	ne
 193 004a 41F02001 		orrne	r1, r1, #32
 194              	.LVL12:
 195              		.loc 1 142 0
 196 004e A307     		lsls	r3, r4, #30
 197              		.loc 1 143 0
 198 0050 48BF     		it	mi
 199 0052 41F04001 		orrmi	r1, r1, #64
 200              	.LVL13:
 201              		.loc 1 144 0
 202 0056 6407     		lsls	r4, r4, #29
 203              	.LVL14:
 204              		.loc 1 146 0
 205 0058 3846     		mov	r0, r7
 206              		.loc 1 145 0
 207 005a 48BF     		it	mi
 208 005c 41F48071 		orrmi	r1, r1, #256
 209              	.LVL15:
 210              		.loc 1 146 0
 211 0060 FFF7FEFF 		bl	chEvtBroadcastFlagsI
 212              	.LVL16:
 213 0064 DEE7     		b	.L13
 214              	.LVL17:
 215              	.L12:
 216              	.LBE18:
 217              	.LBE19:
 218              	.LBB20:
 219              		.loc 1 176 0
 220 0066 0023     		movs	r3, #0
 221              	@ 176 "../../../ChibiOS/os/hal/platforms/STM32/USARTv1/serial_lld.c" 1
 222 0068 83F31188 		msr     BASEPRI, r3
 223              	@ 0 "" 2
 224              		.thumb
 225              	.LBE20:
 226              		.loc 1 179 0
 227 006c 18F0800F 		tst	r8, #128
 228 0070 01D0     		beq	.L19
ARM GAS  C:\Users\danit\AppData\Local\Temp\ccBoNNmX.s 			page 5


 229              		.loc 1 179 0 is_stmt 0 discriminator 1
 230 0072 2206     		lsls	r2, r4, #24
 231 0074 25D4     		bmi	.L57
 232              	.L19:
 233              		.loc 1 193 0 is_stmt 1
 234 0076 6306     		lsls	r3, r4, #25
 235 0078 12D5     		bpl	.L10
 236              	.LBB21:
 237              		.loc 1 194 0
 238 007a 2023     		movs	r3, #32
 239              	@ 194 "../../../ChibiOS/os/hal/platforms/STM32/USARTv1/serial_lld.c" 1
 240 007c 83F31188 		msr     BASEPRI, r3
 241              	@ 0 "" 2
 242              		.thumb
 243              	.LBE21:
 244              		.loc 1 195 0
 245 0080 726C     		ldr	r2, [r6, #68]
 246 0082 B36C     		ldr	r3, [r6, #72]
 247 0084 9A42     		cmp	r2, r3
 248 0086 2BD0     		beq	.L58
 249              	.L23:
 250              		.loc 1 197 0
 251 0088 28F04003 		bic	r3, r8, #64
 252 008c 9BB2     		uxth	r3, r3
 253              		.loc 1 198 0
 254 008e 4FF6BF72 		movw	r2, #65471
 255              		.loc 1 197 0
 256 0092 AB81     		strh	r3, [r5, #12]	@ movhi
 257              	.LBB22:
 258              		.loc 1 199 0
 259 0094 0023     		movs	r3, #0
 260              	.LBE22:
 261              		.loc 1 198 0
 262 0096 2A80     		strh	r2, [r5]	@ movhi
 263              	.LBB23:
 264              		.loc 1 199 0
 265              	@ 199 "../../../ChibiOS/os/hal/platforms/STM32/USARTv1/serial_lld.c" 1
 266 0098 83F31188 		msr     BASEPRI, r3
 267              	@ 0 "" 2
 268              		.thumb
 269 009c BDE8F081 		pop	{r4, r5, r6, r7, r8, pc}
 270              	.LVL18:
 271              	.L10:
 272 00a0 BDE8F081 		pop	{r4, r5, r6, r7, r8, pc}
 273              	.LVL19:
 274              	.L56:
 275              	.LBE23:
 276              	.LBB24:
 277              		.loc 1 161 0
 278 00a4 2023     		movs	r3, #32
 279              	@ 161 "../../../ChibiOS/os/hal/platforms/STM32/USARTv1/serial_lld.c" 1
 280 00a6 83F31188 		msr     BASEPRI, r3
 281              	@ 0 "" 2
 282              		.thumb
 283              	.LBE24:
 284              		.loc 1 162 0
 285 00aa 4FF40071 		mov	r1, #512
ARM GAS  C:\Users\danit\AppData\Local\Temp\ccBoNNmX.s 			page 6


 286 00ae 0430     		adds	r0, r0, #4
 287              	.LVL20:
 288 00b0 FFF7FEFF 		bl	chEvtBroadcastFlagsI
 289              	.LVL21:
 290              	.LBB25:
 291              		.loc 1 163 0
 292 00b4 0023     		movs	r3, #0
 293              	@ 163 "../../../ChibiOS/os/hal/platforms/STM32/USARTv1/serial_lld.c" 1
 294 00b6 83F31188 		msr     BASEPRI, r3
 295              	@ 0 "" 2
 296              		.thumb
 297              	.LBE25:
 298              		.loc 1 164 0
 299 00ba 4FF6FF63 		movw	r3, #65279
 300 00be 2B80     		strh	r3, [r5]	@ movhi
 301 00c0 A9E7     		b	.L11
 302              	.L57:
 303              	.LBB26:
 304              	.LBB27:
 305              		.loc 1 181 0
 306 00c2 2023     		movs	r3, #32
 307              	@ 181 "../../../ChibiOS/os/hal/platforms/STM32/USARTv1/serial_lld.c" 1
 308 00c4 83F31188 		msr     BASEPRI, r3
 309              	@ 0 "" 2
 310              		.thumb
 311              	.LBE27:
 312              		.loc 1 182 0
 313 00c8 06F13000 		add	r0, r6, #48
 314 00cc FFF7FEFF 		bl	chOQGetI
 315              	.LVL22:
 316              		.loc 1 183 0
 317 00d0 0028     		cmp	r0, #0
 318 00d2 0DDB     		blt	.L59
 319              		.loc 1 188 0
 320 00d4 80B2     		uxth	r0, r0
 321              	.LVL23:
 322 00d6 A880     		strh	r0, [r5, #4]	@ movhi
 323              	.L21:
 324              	.LBB28:
 325              		.loc 1 189 0
 326 00d8 0023     		movs	r3, #0
 327              	@ 189 "../../../ChibiOS/os/hal/platforms/STM32/USARTv1/serial_lld.c" 1
 328 00da 83F31188 		msr     BASEPRI, r3
 329              	@ 0 "" 2
 330              		.thumb
 331 00de CAE7     		b	.L19
 332              	.L58:
 333              	.LBE28:
 334              	.LBE26:
 335              		.loc 1 195 0 discriminator 1
 336 00e0 B36B     		ldr	r3, [r6, #56]
 337 00e2 002B     		cmp	r3, #0
 338 00e4 D0D0     		beq	.L23
 339              		.loc 1 196 0
 340 00e6 301D     		adds	r0, r6, #4
 341 00e8 1021     		movs	r1, #16
 342 00ea FFF7FEFF 		bl	chEvtBroadcastFlagsI
ARM GAS  C:\Users\danit\AppData\Local\Temp\ccBoNNmX.s 			page 7


 343              	.LVL24:
 344 00ee CBE7     		b	.L23
 345              	.LVL25:
 346              	.L59:
 347              	.LBB29:
 348              		.loc 1 184 0
 349 00f0 301D     		adds	r0, r6, #4
 350              	.LVL26:
 351 00f2 0821     		movs	r1, #8
 352 00f4 FFF7FEFF 		bl	chEvtBroadcastFlagsI
 353              	.LVL27:
 354              		.loc 1 185 0
 355 00f8 28F0C003 		bic	r3, r8, #192
 356 00fc 43F04003 		orr	r3, r3, #64
 357 0100 AB81     		strh	r3, [r5, #12]	@ movhi
 358 0102 E9E7     		b	.L21
 359              	.LBE29:
 360              		.cfi_endproc
 361              	.LFE121:
 362              		.size	serve_interrupt, .-serve_interrupt
 363              		.section	.text.VectorD4,"ax",%progbits
 364              		.align	2
 365              		.p2align 4,,15
 366              		.global	VectorD4
 367              		.thumb
 368              		.thumb_func
 369              		.type	VectorD4, %function
 370              	VectorD4:
 371              	.LFB125:
 372              		.loc 1 264 0
 373              		.cfi_startproc
 374              		@ args = 0, pretend = 0, frame = 0
 375              		@ frame_needed = 0, uses_anonymous_args = 0
 376 0000 08B5     		push	{r3, lr}
 377              		.cfi_def_cfa_offset 8
 378              		.cfi_offset 3, -8
 379              		.cfi_offset 14, -4
 380              		.loc 1 268 0
 381 0002 0348     		ldr	r0, .L62
 382 0004 FFF7FEFF 		bl	serve_interrupt
 383              	.LVL28:
 384              		.loc 1 271 0
 385 0008 BDE80840 		pop	{r3, lr}
 386              		.cfi_restore 14
 387              		.cfi_restore 3
 388              		.cfi_def_cfa_offset 0
 389              		.loc 1 270 0
 390 000c FFF7FEBF 		b	_port_irq_epilogue
 391              	.LVL29:
 392              	.L63:
 393              		.align	2
 394              	.L62:
 395 0010 00000000 		.word	.LANCHOR0
 396              		.cfi_endproc
 397              	.LFE125:
 398              		.size	VectorD4, .-VectorD4
 399              		.section	.text.VectorD8,"ax",%progbits
ARM GAS  C:\Users\danit\AppData\Local\Temp\ccBoNNmX.s 			page 8


 400              		.align	2
 401              		.p2align 4,,15
 402              		.global	VectorD8
 403              		.thumb
 404              		.thumb_func
 405              		.type	VectorD8, %function
 406              	VectorD8:
 407              	.LFB126:
 408              		.loc 1 283 0
 409              		.cfi_startproc
 410              		@ args = 0, pretend = 0, frame = 0
 411              		@ frame_needed = 0, uses_anonymous_args = 0
 412 0000 08B5     		push	{r3, lr}
 413              		.cfi_def_cfa_offset 8
 414              		.cfi_offset 3, -8
 415              		.cfi_offset 14, -4
 416              		.loc 1 287 0
 417 0002 0348     		ldr	r0, .L66
 418 0004 FFF7FEFF 		bl	serve_interrupt
 419              	.LVL30:
 420              		.loc 1 290 0
 421 0008 BDE80840 		pop	{r3, lr}
 422              		.cfi_restore 14
 423              		.cfi_restore 3
 424              		.cfi_def_cfa_offset 0
 425              		.loc 1 289 0
 426 000c FFF7FEBF 		b	_port_irq_epilogue
 427              	.LVL31:
 428              	.L67:
 429              		.align	2
 430              	.L66:
 431 0010 00000000 		.word	.LANCHOR1
 432              		.cfi_endproc
 433              	.LFE126:
 434              		.size	VectorD8, .-VectorD8
 435              		.section	.text.VectorDC,"ax",%progbits
 436              		.align	2
 437              		.p2align 4,,15
 438              		.global	VectorDC
 439              		.thumb
 440              		.thumb_func
 441              		.type	VectorDC, %function
 442              	VectorDC:
 443              	.LFB127:
 444              		.loc 1 302 0
 445              		.cfi_startproc
 446              		@ args = 0, pretend = 0, frame = 0
 447              		@ frame_needed = 0, uses_anonymous_args = 0
 448 0000 08B5     		push	{r3, lr}
 449              		.cfi_def_cfa_offset 8
 450              		.cfi_offset 3, -8
 451              		.cfi_offset 14, -4
 452              		.loc 1 306 0
 453 0002 0348     		ldr	r0, .L70
 454 0004 FFF7FEFF 		bl	serve_interrupt
 455              	.LVL32:
 456              		.loc 1 309 0
ARM GAS  C:\Users\danit\AppData\Local\Temp\ccBoNNmX.s 			page 9


 457 0008 BDE80840 		pop	{r3, lr}
 458              		.cfi_restore 14
 459              		.cfi_restore 3
 460              		.cfi_def_cfa_offset 0
 461              		.loc 1 308 0
 462 000c FFF7FEBF 		b	_port_irq_epilogue
 463              	.LVL33:
 464              	.L71:
 465              		.align	2
 466              	.L70:
 467 0010 00000000 		.word	.LANCHOR2
 468              		.cfi_endproc
 469              	.LFE127:
 470              		.size	VectorDC, .-VectorDC
 471              		.section	.text.sd_lld_init,"ax",%progbits
 472              		.align	2
 473              		.p2align 4,,15
 474              		.global	sd_lld_init
 475              		.thumb
 476              		.thumb_func
 477              		.type	sd_lld_init, %function
 478              	sd_lld_init:
 479              	.LFB128:
 480              		.loc 1 378 0
 481              		.cfi_startproc
 482              		@ args = 0, pretend = 0, frame = 0
 483              		@ frame_needed = 0, uses_anonymous_args = 0
 484 0000 70B5     		push	{r4, r5, r6, lr}
 485              		.cfi_def_cfa_offset 16
 486              		.cfi_offset 4, -16
 487              		.cfi_offset 5, -12
 488              		.cfi_offset 6, -8
 489              		.cfi_offset 14, -4
 490              		.loc 1 381 0
 491 0002 0C4E     		ldr	r6, .L74
 492              		.loc 1 386 0
 493 0004 0C4D     		ldr	r5, .L74+4
 494              		.loc 1 381 0
 495 0006 0D4A     		ldr	r2, .L74+8
 496              		.loc 1 391 0
 497 0008 0D4C     		ldr	r4, .L74+12
 498              		.loc 1 381 0
 499 000a 3046     		mov	r0, r6
 500 000c 0021     		movs	r1, #0
 501 000e FFF7FEFF 		bl	sdObjectInit
 502              	.LVL34:
 503              		.loc 1 382 0
 504 0012 0C4B     		ldr	r3, .L74+16
 505              		.loc 1 386 0
 506 0014 0C4A     		ldr	r2, .L74+20
 507              		.loc 1 382 0
 508 0016 7367     		str	r3, [r6, #116]
 509              		.loc 1 386 0
 510 0018 2846     		mov	r0, r5
 511 001a 0021     		movs	r1, #0
 512 001c FFF7FEFF 		bl	sdObjectInit
 513              	.LVL35:
ARM GAS  C:\Users\danit\AppData\Local\Temp\ccBoNNmX.s 			page 10


 514              		.loc 1 387 0
 515 0020 0A4B     		ldr	r3, .L74+24
 516              		.loc 1 391 0
 517 0022 0B4A     		ldr	r2, .L74+28
 518              		.loc 1 387 0
 519 0024 6B67     		str	r3, [r5, #116]
 520              		.loc 1 391 0
 521 0026 2046     		mov	r0, r4
 522 0028 0021     		movs	r1, #0
 523 002a FFF7FEFF 		bl	sdObjectInit
 524              	.LVL36:
 525              		.loc 1 392 0
 526 002e 094B     		ldr	r3, .L74+32
 527 0030 6367     		str	r3, [r4, #116]
 528 0032 70BD     		pop	{r4, r5, r6, pc}
 529              	.L75:
 530              		.align	2
 531              	.L74:
 532 0034 00000000 		.word	.LANCHOR0
 533 0038 00000000 		.word	.LANCHOR1
 534 003c 00000000 		.word	notify1
 535 0040 00000000 		.word	.LANCHOR2
 536 0044 00100140 		.word	1073811456
 537 0048 00000000 		.word	notify2
 538 004c 00440040 		.word	1073759232
 539 0050 00000000 		.word	notify3
 540 0054 00480040 		.word	1073760256
 541              		.cfi_endproc
 542              	.LFE128:
 543              		.size	sd_lld_init, .-sd_lld_init
 544              		.section	.text.sd_lld_start,"ax",%progbits
 545              		.align	2
 546              		.p2align 4,,15
 547              		.global	sd_lld_start
 548              		.thumb
 549              		.thumb_func
 550              		.type	sd_lld_start, %function
 551              	sd_lld_start:
 552              	.LFB129:
 553              		.loc 1 421 0
 554              		.cfi_startproc
 555              		@ args = 0, pretend = 0, frame = 0
 556              		@ frame_needed = 0, uses_anonymous_args = 0
 557              	.LVL37:
 558 0000 38B5     		push	{r3, r4, r5, lr}
 559              		.cfi_def_cfa_offset 16
 560              		.cfi_offset 3, -16
 561              		.cfi_offset 4, -12
 562              		.cfi_offset 5, -8
 563              		.cfi_offset 14, -4
 564              		.loc 1 424 0
 565 0002 2D4C     		ldr	r4, .L88
 566              		.loc 1 426 0
 567 0004 037A     		ldrb	r3, [r0, #8]	@ zero_extendqisi2
 568              		.loc 1 424 0
 569 0006 0029     		cmp	r1, #0
 570 0008 18BF     		it	ne
ARM GAS  C:\Users\danit\AppData\Local\Temp\ccBoNNmX.s 			page 11


 571 000a 0C46     		movne	r4, r1
 572              	.LVL38:
 573              		.loc 1 426 0
 574 000c 012B     		cmp	r3, #1
 575              		.loc 1 421 0
 576 000e 0546     		mov	r5, r0
 577              		.loc 1 426 0
 578 0010 23D0     		beq	.L85
 579              	.LVL39:
 580              	.L78:
 581 0012 6B6F     		ldr	r3, [r5, #116]
 582              	.LVL40:
 583              	.LBB32:
 584              	.LBB33:
 585              		.loc 1 97 0
 586 0014 294A     		ldr	r2, .L88+4
 587 0016 9342     		cmp	r3, r2
 588 0018 32D0     		beq	.L81
 589 001a 02F58062 		add	r2, r2, #1024
 590 001e 9342     		cmp	r3, r2
 591 0020 2ED0     		beq	.L81
 592              		.loc 1 103 0
 593 0022 2168     		ldr	r1, [r4]
 594 0024 264A     		ldr	r2, .L88+8
 595 0026 B2FBF1F2 		udiv	r2, r2, r1
 596 002a 92B2     		uxth	r2, r2
 597 002c 1A81     		strh	r2, [r3, #8]	@ movhi
 598              	.L83:
 599              		.loc 1 108 0
 600 002e A288     		ldrh	r2, [r4, #4]
 601              		.loc 1 106 0
 602 0030 E088     		ldrh	r0, [r4, #6]
 603              		.loc 1 107 0
 604 0032 2189     		ldrh	r1, [r4, #8]
 605              		.loc 1 108 0
 606 0034 42F40452 		orr	r2, r2, #8448
 607              		.loc 1 106 0
 608 0038 40F04000 		orr	r0, r0, #64
 609              		.loc 1 108 0
 610 003c 42F02C02 		orr	r2, r2, #44
 611              		.loc 1 107 0
 612 0040 41F00101 		orr	r1, r1, #1
 613              		.loc 1 108 0
 614 0044 92B2     		uxth	r2, r2
 615              		.loc 1 106 0
 616 0046 80B2     		uxth	r0, r0
 617              		.loc 1 107 0
 618 0048 89B2     		uxth	r1, r1
 619              		.loc 1 111 0
 620 004a 0024     		movs	r4, #0
 621              	.LVL41:
 622              		.loc 1 106 0
 623 004c 1882     		strh	r0, [r3, #16]	@ movhi
 624              		.loc 1 107 0
 625 004e 9982     		strh	r1, [r3, #20]	@ movhi
 626              		.loc 1 108 0
 627 0050 9A81     		strh	r2, [r3, #12]	@ movhi
ARM GAS  C:\Users\danit\AppData\Local\Temp\ccBoNNmX.s 			page 12


 628              		.loc 1 111 0
 629 0052 1C80     		strh	r4, [r3]	@ movhi
 630              		.loc 1 112 0
 631 0054 1A88     		ldrh	r2, [r3]
 632              		.loc 1 113 0
 633 0056 9B88     		ldrh	r3, [r3, #4]
 634              	.LVL42:
 635 0058 38BD     		pop	{r3, r4, r5, pc}
 636              	.LVL43:
 637              	.L85:
 638              	.LBE33:
 639              	.LBE32:
 640              		.loc 1 428 0
 641 005a 1A4B     		ldr	r3, .L88+12
 642 005c 9842     		cmp	r0, r3
 643 005e 16D0     		beq	.L86
 644              		.loc 1 435 0
 645 0060 194B     		ldr	r3, .L88+16
 646 0062 9842     		cmp	r0, r3
 647 0064 1DD0     		beq	.L87
 648              		.loc 1 442 0
 649 0066 194B     		ldr	r3, .L88+20
 650 0068 9842     		cmp	r0, r3
 651 006a D2D1     		bne	.L78
 652              		.loc 1 443 0
 653 006c 184A     		ldr	r2, .L88+24
 654 006e 136C     		ldr	r3, [r2, #64]
 655 0070 43F48023 		orr	r3, r3, #262144
 656 0074 1364     		str	r3, [r2, #64]
 657              		.loc 1 444 0
 658 0076 2720     		movs	r0, #39
 659              	.LVL44:
 660 0078 C021     		movs	r1, #192
 661 007a FFF7FEFF 		bl	nvicEnableVector
 662              	.LVL45:
 663 007e C8E7     		b	.L78
 664              	.LVL46:
 665              	.L81:
 666              	.LBB35:
 667              	.LBB34:
 668              		.loc 1 101 0
 669 0080 2168     		ldr	r1, [r4]
 670 0082 144A     		ldr	r2, .L88+28
 671 0084 B2FBF1F2 		udiv	r2, r2, r1
 672 0088 92B2     		uxth	r2, r2
 673 008a 1A81     		strh	r2, [r3, #8]	@ movhi
 674 008c CFE7     		b	.L83
 675              	.LVL47:
 676              	.L86:
 677              	.LBE34:
 678              	.LBE35:
 679              		.loc 1 429 0
 680 008e 104A     		ldr	r2, .L88+24
 681 0090 536C     		ldr	r3, [r2, #68]
 682 0092 43F01003 		orr	r3, r3, #16
 683 0096 5364     		str	r3, [r2, #68]
 684              		.loc 1 430 0
ARM GAS  C:\Users\danit\AppData\Local\Temp\ccBoNNmX.s 			page 13


 685 0098 2520     		movs	r0, #37
 686              	.LVL48:
 687 009a C021     		movs	r1, #192
 688 009c FFF7FEFF 		bl	nvicEnableVector
 689              	.LVL49:
 690 00a0 B7E7     		b	.L78
 691              	.LVL50:
 692              	.L87:
 693              		.loc 1 436 0
 694 00a2 0B4A     		ldr	r2, .L88+24
 695 00a4 136C     		ldr	r3, [r2, #64]
 696 00a6 43F40033 		orr	r3, r3, #131072
 697 00aa 1364     		str	r3, [r2, #64]
 698              		.loc 1 437 0
 699 00ac 2620     		movs	r0, #38
 700              	.LVL51:
 701 00ae C021     		movs	r1, #192
 702 00b0 FFF7FEFF 		bl	nvicEnableVector
 703              	.LVL52:
 704 00b4 ADE7     		b	.L78
 705              	.L89:
 706 00b6 00BF     		.align	2
 707              	.L88:
 708 00b8 00000000 		.word	.LANCHOR3
 709 00bc 00100140 		.word	1073811456
 710 00c0 80DE8002 		.word	42000000
 711 00c4 00000000 		.word	.LANCHOR0
 712 00c8 00000000 		.word	.LANCHOR1
 713 00cc 00000000 		.word	.LANCHOR2
 714 00d0 00380240 		.word	1073887232
 715 00d4 00BD0105 		.word	84000000
 716              		.cfi_endproc
 717              	.LFE129:
 718              		.size	sd_lld_start, .-sd_lld_start
 719              		.section	.text.sd_lld_stop,"ax",%progbits
 720              		.align	2
 721              		.p2align 4,,15
 722              		.global	sd_lld_stop
 723              		.thumb
 724              		.thumb_func
 725              		.type	sd_lld_stop, %function
 726              	sd_lld_stop:
 727              	.LFB130:
 728              		.loc 1 482 0
 729              		.cfi_startproc
 730              		@ args = 0, pretend = 0, frame = 0
 731              		@ frame_needed = 0, uses_anonymous_args = 0
 732              		@ link register save eliminated.
 733              	.LVL53:
 734              		.loc 1 484 0
 735 0000 037A     		ldrb	r3, [r0, #8]	@ zero_extendqisi2
 736 0002 022B     		cmp	r3, #2
 737 0004 00D0     		beq	.L96
 738              	.L90:
 739 0006 7047     		bx	lr
 740              	.L96:
 741              		.loc 1 487 0
ARM GAS  C:\Users\danit\AppData\Local\Temp\ccBoNNmX.s 			page 14


 742 0008 1249     		ldr	r1, .L99
 743              		.loc 1 485 0
 744 000a 436F     		ldr	r3, [r0, #116]
 745              	.LVL54:
 746              	.LBB36:
 747              	.LBB37:
 748              		.loc 1 124 0
 749 000c 0022     		movs	r2, #0
 750              	.LBE37:
 751              	.LBE36:
 752              		.loc 1 487 0
 753 000e 8842     		cmp	r0, r1
 754              	.LBB39:
 755              	.LBB38:
 756              		.loc 1 124 0
 757 0010 9A81     		strh	r2, [r3, #12]	@ movhi
 758              		.loc 1 125 0
 759 0012 1A82     		strh	r2, [r3, #16]	@ movhi
 760              		.loc 1 126 0
 761 0014 9A82     		strh	r2, [r3, #20]	@ movhi
 762              	.LBE38:
 763              	.LBE39:
 764              		.loc 1 487 0
 765 0016 0DD0     		beq	.L97
 766              		.loc 1 494 0
 767 0018 0F4B     		ldr	r3, .L99+4
 768              	.LVL55:
 769 001a 9842     		cmp	r0, r3
 770 001c 12D0     		beq	.L98
 771              		.loc 1 501 0
 772 001e 0F4B     		ldr	r3, .L99+8
 773 0020 9842     		cmp	r0, r3
 774 0022 F0D1     		bne	.L90
 775              		.loc 1 502 0
 776 0024 0E4A     		ldr	r2, .L99+12
 777 0026 136C     		ldr	r3, [r2, #64]
 778 0028 23F48023 		bic	r3, r3, #262144
 779 002c 1364     		str	r3, [r2, #64]
 780              		.loc 1 503 0
 781 002e 2720     		movs	r0, #39
 782              	.LVL56:
 783 0030 FFF7FEBF 		b	nvicDisableVector
 784              	.LVL57:
 785              	.L97:
 786              		.loc 1 488 0
 787 0034 0A4A     		ldr	r2, .L99+12
 788 0036 536C     		ldr	r3, [r2, #68]
 789              	.LVL58:
 790 0038 23F01003 		bic	r3, r3, #16
 791 003c 5364     		str	r3, [r2, #68]
 792              		.loc 1 489 0
 793 003e 2520     		movs	r0, #37
 794              	.LVL59:
 795 0040 FFF7FEBF 		b	nvicDisableVector
 796              	.LVL60:
 797              	.L98:
 798              		.loc 1 495 0
ARM GAS  C:\Users\danit\AppData\Local\Temp\ccBoNNmX.s 			page 15


 799 0044 064A     		ldr	r2, .L99+12
 800 0046 136C     		ldr	r3, [r2, #64]
 801 0048 23F40033 		bic	r3, r3, #131072
 802 004c 1364     		str	r3, [r2, #64]
 803              		.loc 1 496 0
 804 004e 2620     		movs	r0, #38
 805              	.LVL61:
 806 0050 FFF7FEBF 		b	nvicDisableVector
 807              	.LVL62:
 808              	.L100:
 809              		.align	2
 810              	.L99:
 811 0054 00000000 		.word	.LANCHOR0
 812 0058 00000000 		.word	.LANCHOR1
 813 005c 00000000 		.word	.LANCHOR2
 814 0060 00380240 		.word	1073887232
 815              		.cfi_endproc
 816              	.LFE130:
 817              		.size	sd_lld_stop, .-sd_lld_stop
 818              		.global	SD3
 819              		.global	SD2
 820              		.global	SD1
 821              		.section	.rodata.default_config,"a",%progbits
 822              		.align	2
 823              		.set	.LANCHOR3,. + 0
 824              		.type	default_config, %object
 825              		.size	default_config, 12
 826              	default_config:
 827 0000 00960000 		.word	38400
 828 0004 0000     		.short	0
 829 0006 0040     		.short	16384
 830 0008 0000     		.short	0
 831 000a 0000     		.space	2
 832              		.section	.bss.SD1,"aw",%nobits
 833              		.align	2
 834              		.set	.LANCHOR0,. + 0
 835              		.type	SD1, %object
 836              		.size	SD1, 120
 837              	SD1:
 838 0000 00000000 		.space	120
 838      00000000 
 838      00000000 
 838      00000000 
 838      00000000 
 839              		.section	.bss.SD2,"aw",%nobits
 840              		.align	2
 841              		.set	.LANCHOR1,. + 0
 842              		.type	SD2, %object
 843              		.size	SD2, 120
 844              	SD2:
 845 0000 00000000 		.space	120
 845      00000000 
 845      00000000 
 845      00000000 
 845      00000000 
 846              		.section	.bss.SD3,"aw",%nobits
 847              		.align	2
ARM GAS  C:\Users\danit\AppData\Local\Temp\ccBoNNmX.s 			page 16


 848              		.set	.LANCHOR2,. + 0
 849              		.type	SD3, %object
 850              		.size	SD3, 120
 851              	SD3:
 852 0000 00000000 		.space	120
 852      00000000 
 852      00000000 
 852      00000000 
 852      00000000 
 853              		.text
 854              	.Letext0:
 855              		.file 2 "c:\\program files (x86)\\gnu tools arm embedded\\4.9 2015q2\\lib\\gcc\\arm-none-eabi\\4.9
 856              		.file 3 "c:\\program files (x86)\\gnu tools arm embedded\\4.9 2015q2\\arm-none-eabi\\include\\mach
 857              		.file 4 "c:\\program files (x86)\\gnu tools arm embedded\\4.9 2015q2\\arm-none-eabi\\include\\sys\
 858              		.file 5 "../../../ChibiOS/os/ports/GCC/ARMCMx/chtypes.h"
 859              		.file 6 "../../../ChibiOS/os/kernel/include/chlists.h"
 860              		.file 7 "../../../ChibiOS/os/kernel/include/chthreads.h"
 861              		.file 8 "../../../ChibiOS/os/ports/GCC/ARMCMx/chcore_v7m.h"
 862              		.file 9 "../../../ChibiOS/os/kernel/include/chmtx.h"
 863              		.file 10 "../../../ChibiOS/os/kernel/include/chevents.h"
 864              		.file 11 "../../../ChibiOS/os/kernel/include/chqueues.h"
 865              		.file 12 "../../../ChibiOS/os/hal/platforms/STM32F4xx/stm32f4xx.h"
 866              		.file 13 "../../../ChibiOS/os/hal/include/serial.h"
 867              		.file 14 "../../../ChibiOS/os/hal/platforms/STM32/USARTv1/serial_lld.h"
 868              		.file 15 "../../../ChibiOS/os/ports/common/ARMCMx/nvic.h"
 869              		.file 16 "../../../ChibiOS/os/ports/common/ARMCMx/CMSIS/include/core_cm4.h"
 870              		.section	.debug_info,"",%progbits
 871              	.Ldebug_info0:
 872 0000 10100000 		.4byte	0x1010
 873 0004 0400     		.2byte	0x4
 874 0006 00000000 		.4byte	.Ldebug_abbrev0
 875 000a 04       		.byte	0x4
 876 000b 01       		.uleb128 0x1
 877 000c A6050000 		.4byte	.LASF154
 878 0010 01       		.byte	0x1
 879 0011 0B030000 		.4byte	.LASF155
 880 0015 DC060000 		.4byte	.LASF156
 881 0019 78000000 		.4byte	.Ldebug_ranges0+0x78
 882 001d 00000000 		.4byte	0
 883 0021 00000000 		.4byte	.Ldebug_line0
 884 0025 02       		.uleb128 0x2
 885 0026 04       		.byte	0x4
 886 0027 05       		.byte	0x5
 887 0028 696E7400 		.ascii	"int\000"
 888 002c 03       		.uleb128 0x3
 889 002d 11000000 		.4byte	.LASF2
 890 0031 02       		.byte	0x2
 891 0032 D4       		.byte	0xd4
 892 0033 37000000 		.4byte	0x37
 893 0037 04       		.uleb128 0x4
 894 0038 04       		.byte	0x4
 895 0039 07       		.byte	0x7
 896 003a AA010000 		.4byte	.LASF0
 897 003e 04       		.uleb128 0x4
 898 003f 01       		.byte	0x1
 899 0040 06       		.byte	0x6
 900 0041 A9000000 		.4byte	.LASF1
ARM GAS  C:\Users\danit\AppData\Local\Temp\ccBoNNmX.s 			page 17


 901 0045 03       		.uleb128 0x3
 902 0046 2B000000 		.4byte	.LASF3
 903 004a 03       		.byte	0x3
 904 004b 1D       		.byte	0x1d
 905 004c 50000000 		.4byte	0x50
 906 0050 04       		.uleb128 0x4
 907 0051 01       		.byte	0x1
 908 0052 08       		.byte	0x8
 909 0053 F2030000 		.4byte	.LASF4
 910 0057 04       		.uleb128 0x4
 911 0058 02       		.byte	0x2
 912 0059 05       		.byte	0x5
 913 005a 34040000 		.4byte	.LASF5
 914 005e 03       		.uleb128 0x3
 915 005f 1D050000 		.4byte	.LASF6
 916 0063 03       		.byte	0x3
 917 0064 2B       		.byte	0x2b
 918 0065 69000000 		.4byte	0x69
 919 0069 04       		.uleb128 0x4
 920 006a 02       		.byte	0x2
 921 006b 07       		.byte	0x7
 922 006c F9010000 		.4byte	.LASF7
 923 0070 03       		.uleb128 0x3
 924 0071 4D050000 		.4byte	.LASF8
 925 0075 03       		.byte	0x3
 926 0076 3F       		.byte	0x3f
 927 0077 7B000000 		.4byte	0x7b
 928 007b 04       		.uleb128 0x4
 929 007c 04       		.byte	0x4
 930 007d 05       		.byte	0x5
 931 007e 05010000 		.4byte	.LASF9
 932 0082 03       		.uleb128 0x3
 933 0083 77010000 		.4byte	.LASF10
 934 0087 03       		.byte	0x3
 935 0088 41       		.byte	0x41
 936 0089 8D000000 		.4byte	0x8d
 937 008d 04       		.uleb128 0x4
 938 008e 04       		.byte	0x4
 939 008f 07       		.byte	0x7
 940 0090 EA040000 		.4byte	.LASF11
 941 0094 04       		.uleb128 0x4
 942 0095 08       		.byte	0x8
 943 0096 05       		.byte	0x5
 944 0097 9B000000 		.4byte	.LASF12
 945 009b 04       		.uleb128 0x4
 946 009c 08       		.byte	0x8
 947 009d 07       		.byte	0x7
 948 009e 3F000000 		.4byte	.LASF13
 949 00a2 03       		.uleb128 0x3
 950 00a3 8E060000 		.4byte	.LASF14
 951 00a7 04       		.byte	0x4
 952 00a8 14       		.byte	0x14
 953 00a9 45000000 		.4byte	0x45
 954 00ad 03       		.uleb128 0x3
 955 00ae B7010000 		.4byte	.LASF15
 956 00b2 04       		.byte	0x4
 957 00b3 1A       		.byte	0x1a
ARM GAS  C:\Users\danit\AppData\Local\Temp\ccBoNNmX.s 			page 18


 958 00b4 5E000000 		.4byte	0x5e
 959 00b8 03       		.uleb128 0x3
 960 00b9 EA030000 		.4byte	.LASF16
 961 00bd 04       		.byte	0x4
 962 00be 1F       		.byte	0x1f
 963 00bf 70000000 		.4byte	0x70
 964 00c3 03       		.uleb128 0x3
 965 00c4 B8040000 		.4byte	.LASF17
 966 00c8 04       		.byte	0x4
 967 00c9 20       		.byte	0x20
 968 00ca 82000000 		.4byte	0x82
 969 00ce 03       		.uleb128 0x3
 970 00cf CB000000 		.4byte	.LASF18
 971 00d3 05       		.byte	0x5
 972 00d4 2B       		.byte	0x2b
 973 00d5 D9000000 		.4byte	0xd9
 974 00d9 04       		.uleb128 0x4
 975 00da 01       		.byte	0x1
 976 00db 02       		.byte	0x2
 977 00dc E4030000 		.4byte	.LASF19
 978 00e0 03       		.uleb128 0x3
 979 00e1 4C020000 		.4byte	.LASF20
 980 00e5 05       		.byte	0x5
 981 00e6 2C       		.byte	0x2c
 982 00e7 A2000000 		.4byte	0xa2
 983 00eb 03       		.uleb128 0x3
 984 00ec 21010000 		.4byte	.LASF21
 985 00f0 05       		.byte	0x5
 986 00f1 2D       		.byte	0x2d
 987 00f2 A2000000 		.4byte	0xa2
 988 00f6 03       		.uleb128 0x3
 989 00f7 89030000 		.4byte	.LASF22
 990 00fb 05       		.byte	0x5
 991 00fc 2E       		.byte	0x2e
 992 00fd A2000000 		.4byte	0xa2
 993 0101 03       		.uleb128 0x3
 994 0102 DA000000 		.4byte	.LASF23
 995 0106 05       		.byte	0x5
 996 0107 2F       		.byte	0x2f
 997 0108 A2000000 		.4byte	0xa2
 998 010c 03       		.uleb128 0x3
 999 010d D4030000 		.4byte	.LASF24
 1000 0111 05       		.byte	0x5
 1001 0112 30       		.byte	0x30
 1002 0113 C3000000 		.4byte	0xc3
 1003 0117 03       		.uleb128 0x3
 1004 0118 17020000 		.4byte	.LASF25
 1005 011c 05       		.byte	0x5
 1006 011d 31       		.byte	0x31
 1007 011e B8000000 		.4byte	0xb8
 1008 0122 03       		.uleb128 0x3
 1009 0123 6A020000 		.4byte	.LASF26
 1010 0127 05       		.byte	0x5
 1011 0128 33       		.byte	0x33
 1012 0129 C3000000 		.4byte	0xc3
 1013 012d 03       		.uleb128 0x3
 1014 012e 7F050000 		.4byte	.LASF27
ARM GAS  C:\Users\danit\AppData\Local\Temp\ccBoNNmX.s 			page 19


 1015 0132 05       		.byte	0x5
 1016 0133 34       		.byte	0x34
 1017 0134 C3000000 		.4byte	0xc3
 1018 0138 03       		.uleb128 0x3
 1019 0139 38050000 		.4byte	.LASF28
 1020 013d 05       		.byte	0x5
 1021 013e 35       		.byte	0x35
 1022 013f C3000000 		.4byte	0xc3
 1023 0143 03       		.uleb128 0x3
 1024 0144 82040000 		.4byte	.LASF29
 1025 0148 06       		.byte	0x6
 1026 0149 2A       		.byte	0x2a
 1027 014a 4E010000 		.4byte	0x14e
 1028 014e 05       		.uleb128 0x5
 1029 014f 82040000 		.4byte	.LASF29
 1030 0153 48       		.byte	0x48
 1031 0154 07       		.byte	0x7
 1032 0155 5E       		.byte	0x5e
 1033 0156 4B020000 		.4byte	0x24b
 1034 015a 06       		.uleb128 0x6
 1035 015b DD020000 		.4byte	.LASF30
 1036 015f 07       		.byte	0x7
 1037 0160 5F       		.byte	0x5f
 1038 0161 6C020000 		.4byte	0x26c
 1039 0165 00       		.byte	0
 1040 0166 06       		.uleb128 0x6
 1041 0167 C3030000 		.4byte	.LASF31
 1042 016b 07       		.byte	0x7
 1043 016c 61       		.byte	0x61
 1044 016d 6C020000 		.4byte	0x26c
 1045 0171 04       		.byte	0x4
 1046 0172 06       		.uleb128 0x6
 1047 0173 A1060000 		.4byte	.LASF32
 1048 0177 07       		.byte	0x7
 1049 0178 63       		.byte	0x63
 1050 0179 0C010000 		.4byte	0x10c
 1051 017d 08       		.byte	0x8
 1052 017e 06       		.uleb128 0x6
 1053 017f 1E070000 		.4byte	.LASF33
 1054 0183 07       		.byte	0x7
 1055 0184 64       		.byte	0x64
 1056 0185 26030000 		.4byte	0x326
 1057 0189 0C       		.byte	0xc
 1058 018a 06       		.uleb128 0x6
 1059 018b 67010000 		.4byte	.LASF34
 1060 018f 07       		.byte	0x7
 1061 0190 66       		.byte	0x66
 1062 0191 6C020000 		.4byte	0x26c
 1063 0195 10       		.byte	0x10
 1064 0196 06       		.uleb128 0x6
 1065 0197 EC020000 		.4byte	.LASF35
 1066 019b 07       		.byte	0x7
 1067 019c 67       		.byte	0x67
 1068 019d 6C020000 		.4byte	0x26c
 1069 01a1 14       		.byte	0x14
 1070 01a2 06       		.uleb128 0x6
 1071 01a3 97050000 		.4byte	.LASF36
ARM GAS  C:\Users\danit\AppData\Local\Temp\ccBoNNmX.s 			page 20


 1072 01a7 07       		.byte	0x7
 1073 01a8 6E       		.byte	0x6e
 1074 01a9 41040000 		.4byte	0x441
 1075 01ad 18       		.byte	0x18
 1076 01ae 06       		.uleb128 0x6
 1077 01af 22040000 		.4byte	.LASF37
 1078 01b3 07       		.byte	0x7
 1079 01b4 79       		.byte	0x79
 1080 01b5 EB000000 		.4byte	0xeb
 1081 01b9 1C       		.byte	0x1c
 1082 01ba 06       		.uleb128 0x6
 1083 01bb 59040000 		.4byte	.LASF38
 1084 01bf 07       		.byte	0x7
 1085 01c0 7D       		.byte	0x7d
 1086 01c1 E0000000 		.4byte	0xe0
 1087 01c5 1D       		.byte	0x1d
 1088 01c6 06       		.uleb128 0x6
 1089 01c7 33010000 		.4byte	.LASF39
 1090 01cb 07       		.byte	0x7
 1091 01cc 82       		.byte	0x82
 1092 01cd F6000000 		.4byte	0xf6
 1093 01d1 1E       		.byte	0x1e
 1094 01d2 06       		.uleb128 0x6
 1095 01d3 3E040000 		.4byte	.LASF40
 1096 01d7 07       		.byte	0x7
 1097 01d8 88       		.byte	0x88
 1098 01d9 01010000 		.4byte	0x101
 1099 01dd 1F       		.byte	0x1f
 1100 01de 06       		.uleb128 0x6
 1101 01df 4B010000 		.4byte	.LASF41
 1102 01e3 07       		.byte	0x7
 1103 01e4 8F       		.byte	0x8f
 1104 01e5 53030000 		.4byte	0x353
 1105 01e9 20       		.byte	0x20
 1106 01ea 07       		.uleb128 0x7
 1107 01eb 705F7500 		.ascii	"p_u\000"
 1108 01ef 07       		.byte	0x7
 1109 01f0 B4       		.byte	0xb4
 1110 01f1 0C040000 		.4byte	0x40c
 1111 01f5 24       		.byte	0x24
 1112 01f6 06       		.uleb128 0x6
 1113 01f7 24070000 		.4byte	.LASF42
 1114 01fb 07       		.byte	0x7
 1115 01fc B9       		.byte	0xb9
 1116 01fd 92020000 		.4byte	0x292
 1117 0201 28       		.byte	0x28
 1118 0202 06       		.uleb128 0x6
 1119 0203 D7010000 		.4byte	.LASF43
 1120 0207 07       		.byte	0x7
 1121 0208 BF       		.byte	0xbf
 1122 0209 72020000 		.4byte	0x272
 1123 020d 2C       		.byte	0x2c
 1124 020e 06       		.uleb128 0x6
 1125 020f CA060000 		.4byte	.LASF44
 1126 0213 07       		.byte	0x7
 1127 0214 C3       		.byte	0xc3
 1128 0215 17010000 		.4byte	0x117
ARM GAS  C:\Users\danit\AppData\Local\Temp\ccBoNNmX.s 			page 21


 1129 0219 34       		.byte	0x34
 1130 021a 06       		.uleb128 0x6
 1131 021b 99040000 		.4byte	.LASF45
 1132 021f 07       		.byte	0x7
 1133 0220 C9       		.byte	0xc9
 1134 0221 22010000 		.4byte	0x122
 1135 0225 38       		.byte	0x38
 1136 0226 06       		.uleb128 0x6
 1137 0227 2A040000 		.4byte	.LASF46
 1138 022b 07       		.byte	0x7
 1139 022c D0       		.byte	0xd0
 1140 022d 53040000 		.4byte	0x453
 1141 0231 3C       		.byte	0x3c
 1142 0232 06       		.uleb128 0x6
 1143 0233 42050000 		.4byte	.LASF47
 1144 0237 07       		.byte	0x7
 1145 0238 D4       		.byte	0xd4
 1146 0239 0C010000 		.4byte	0x10c
 1147 023d 40       		.byte	0x40
 1148 023e 06       		.uleb128 0x6
 1149 023f C3000000 		.4byte	.LASF48
 1150 0243 07       		.byte	0x7
 1151 0244 DA       		.byte	0xda
 1152 0245 A8020000 		.4byte	0x2a8
 1153 0249 44       		.byte	0x44
 1154 024a 00       		.byte	0
 1155 024b 08       		.uleb128 0x8
 1156 024c 08       		.byte	0x8
 1157 024d 06       		.byte	0x6
 1158 024e 61       		.byte	0x61
 1159 024f 6C020000 		.4byte	0x26c
 1160 0253 06       		.uleb128 0x6
 1161 0254 DD020000 		.4byte	.LASF30
 1162 0258 06       		.byte	0x6
 1163 0259 62       		.byte	0x62
 1164 025a 6C020000 		.4byte	0x26c
 1165 025e 00       		.byte	0
 1166 025f 06       		.uleb128 0x6
 1167 0260 C3030000 		.4byte	.LASF31
 1168 0264 06       		.byte	0x6
 1169 0265 64       		.byte	0x64
 1170 0266 6C020000 		.4byte	0x26c
 1171 026a 04       		.byte	0x4
 1172 026b 00       		.byte	0
 1173 026c 09       		.uleb128 0x9
 1174 026d 04       		.byte	0x4
 1175 026e 43010000 		.4byte	0x143
 1176 0272 03       		.uleb128 0x3
 1177 0273 F4020000 		.4byte	.LASF49
 1178 0277 06       		.byte	0x6
 1179 0278 66       		.byte	0x66
 1180 0279 4B020000 		.4byte	0x24b
 1181 027d 08       		.uleb128 0x8
 1182 027e 04       		.byte	0x4
 1183 027f 06       		.byte	0x6
 1184 0280 6B       		.byte	0x6b
 1185 0281 92020000 		.4byte	0x292
ARM GAS  C:\Users\danit\AppData\Local\Temp\ccBoNNmX.s 			page 22


 1186 0285 06       		.uleb128 0x6
 1187 0286 DD020000 		.4byte	.LASF30
 1188 028a 06       		.byte	0x6
 1189 028b 6D       		.byte	0x6d
 1190 028c 6C020000 		.4byte	0x26c
 1191 0290 00       		.byte	0
 1192 0291 00       		.byte	0
 1193 0292 03       		.uleb128 0x3
 1194 0293 5E020000 		.4byte	.LASF50
 1195 0297 06       		.byte	0x6
 1196 0298 70       		.byte	0x70
 1197 0299 7D020000 		.4byte	0x27d
 1198 029d 03       		.uleb128 0x3
 1199 029e 82010000 		.4byte	.LASF51
 1200 02a2 08       		.byte	0x8
 1201 02a3 E5       		.byte	0xe5
 1202 02a4 A8020000 		.4byte	0x2a8
 1203 02a8 0A       		.uleb128 0xa
 1204 02a9 04       		.byte	0x4
 1205 02aa 0B       		.uleb128 0xb
 1206 02ab 6F050000 		.4byte	.LASF52
 1207 02af 24       		.byte	0x24
 1208 02b0 08       		.byte	0x8
 1209 02b1 0C01     		.2byte	0x10c
 1210 02b3 26030000 		.4byte	0x326
 1211 02b7 0C       		.uleb128 0xc
 1212 02b8 723400   		.ascii	"r4\000"
 1213 02bb 08       		.byte	0x8
 1214 02bc 1F01     		.2byte	0x11f
 1215 02be 9D020000 		.4byte	0x29d
 1216 02c2 00       		.byte	0
 1217 02c3 0C       		.uleb128 0xc
 1218 02c4 723500   		.ascii	"r5\000"
 1219 02c7 08       		.byte	0x8
 1220 02c8 2001     		.2byte	0x120
 1221 02ca 9D020000 		.4byte	0x29d
 1222 02ce 04       		.byte	0x4
 1223 02cf 0C       		.uleb128 0xc
 1224 02d0 723600   		.ascii	"r6\000"
 1225 02d3 08       		.byte	0x8
 1226 02d4 2101     		.2byte	0x121
 1227 02d6 9D020000 		.4byte	0x29d
 1228 02da 08       		.byte	0x8
 1229 02db 0C       		.uleb128 0xc
 1230 02dc 723700   		.ascii	"r7\000"
 1231 02df 08       		.byte	0x8
 1232 02e0 2201     		.2byte	0x122
 1233 02e2 9D020000 		.4byte	0x29d
 1234 02e6 0C       		.byte	0xc
 1235 02e7 0C       		.uleb128 0xc
 1236 02e8 723800   		.ascii	"r8\000"
 1237 02eb 08       		.byte	0x8
 1238 02ec 2301     		.2byte	0x123
 1239 02ee 9D020000 		.4byte	0x29d
 1240 02f2 10       		.byte	0x10
 1241 02f3 0C       		.uleb128 0xc
 1242 02f4 723900   		.ascii	"r9\000"
ARM GAS  C:\Users\danit\AppData\Local\Temp\ccBoNNmX.s 			page 23


 1243 02f7 08       		.byte	0x8
 1244 02f8 2401     		.2byte	0x124
 1245 02fa 9D020000 		.4byte	0x29d
 1246 02fe 14       		.byte	0x14
 1247 02ff 0C       		.uleb128 0xc
 1248 0300 72313000 		.ascii	"r10\000"
 1249 0304 08       		.byte	0x8
 1250 0305 2501     		.2byte	0x125
 1251 0307 9D020000 		.4byte	0x29d
 1252 030b 18       		.byte	0x18
 1253 030c 0C       		.uleb128 0xc
 1254 030d 72313100 		.ascii	"r11\000"
 1255 0311 08       		.byte	0x8
 1256 0312 2601     		.2byte	0x126
 1257 0314 9D020000 		.4byte	0x29d
 1258 0318 1C       		.byte	0x1c
 1259 0319 0C       		.uleb128 0xc
 1260 031a 6C7200   		.ascii	"lr\000"
 1261 031d 08       		.byte	0x8
 1262 031e 2701     		.2byte	0x127
 1263 0320 9D020000 		.4byte	0x29d
 1264 0324 20       		.byte	0x20
 1265 0325 00       		.byte	0
 1266 0326 0B       		.uleb128 0xb
 1267 0327 67050000 		.4byte	.LASF53
 1268 032b 04       		.byte	0x4
 1269 032c 08       		.byte	0x8
 1270 032d 3101     		.2byte	0x131
 1271 032f 41030000 		.4byte	0x341
 1272 0333 0C       		.uleb128 0xc
 1273 0334 72313300 		.ascii	"r13\000"
 1274 0338 08       		.byte	0x8
 1275 0339 3201     		.2byte	0x132
 1276 033b 41030000 		.4byte	0x341
 1277 033f 00       		.byte	0
 1278 0340 00       		.byte	0
 1279 0341 09       		.uleb128 0x9
 1280 0342 04       		.byte	0x4
 1281 0343 AA020000 		.4byte	0x2aa
 1282 0347 0D       		.uleb128 0xd
 1283 0348 C3000000 		.4byte	0xc3
 1284 034c 04       		.uleb128 0x4
 1285 034d 04       		.byte	0x4
 1286 034e 07       		.byte	0x7
 1287 034f C4020000 		.4byte	.LASF54
 1288 0353 0D       		.uleb128 0xd
 1289 0354 38010000 		.4byte	0x138
 1290 0358 05       		.uleb128 0x5
 1291 0359 D7020000 		.4byte	.LASF55
 1292 035d 10       		.byte	0x10
 1293 035e 09       		.byte	0x9
 1294 035f 2C       		.byte	0x2c
 1295 0360 89030000 		.4byte	0x389
 1296 0364 06       		.uleb128 0x6
 1297 0365 D2000000 		.4byte	.LASF56
 1298 0369 09       		.byte	0x9
 1299 036a 2D       		.byte	0x2d
ARM GAS  C:\Users\danit\AppData\Local\Temp\ccBoNNmX.s 			page 24


 1300 036b 72020000 		.4byte	0x272
 1301 036f 00       		.byte	0
 1302 0370 06       		.uleb128 0x6
 1303 0371 16070000 		.4byte	.LASF57
 1304 0375 09       		.byte	0x9
 1305 0376 2F       		.byte	0x2f
 1306 0377 6C020000 		.4byte	0x26c
 1307 037b 08       		.byte	0x8
 1308 037c 06       		.uleb128 0x6
 1309 037d 31050000 		.4byte	.LASF58
 1310 0381 09       		.byte	0x9
 1311 0382 31       		.byte	0x31
 1312 0383 89030000 		.4byte	0x389
 1313 0387 0C       		.byte	0xc
 1314 0388 00       		.byte	0
 1315 0389 09       		.uleb128 0x9
 1316 038a 04       		.byte	0x4
 1317 038b 58030000 		.4byte	0x358
 1318 038f 03       		.uleb128 0x3
 1319 0390 D7020000 		.4byte	.LASF55
 1320 0394 09       		.byte	0x9
 1321 0395 33       		.byte	0x33
 1322 0396 58030000 		.4byte	0x358
 1323 039a 03       		.uleb128 0x3
 1324 039b A8060000 		.4byte	.LASF59
 1325 039f 0A       		.byte	0xa
 1326 03a0 2C       		.byte	0x2c
 1327 03a1 A5030000 		.4byte	0x3a5
 1328 03a5 05       		.uleb128 0x5
 1329 03a6 A8060000 		.4byte	.LASF59
 1330 03aa 10       		.byte	0x10
 1331 03ab 0A       		.byte	0xa
 1332 03ac 31       		.byte	0x31
 1333 03ad E2030000 		.4byte	0x3e2
 1334 03b1 06       		.uleb128 0x6
 1335 03b2 61040000 		.4byte	.LASF60
 1336 03b6 0A       		.byte	0xa
 1337 03b7 32       		.byte	0x32
 1338 03b8 E2030000 		.4byte	0x3e2
 1339 03bc 00       		.byte	0
 1340 03bd 06       		.uleb128 0x6
 1341 03be 0D040000 		.4byte	.LASF61
 1342 03c2 0A       		.byte	0xa
 1343 03c3 35       		.byte	0x35
 1344 03c4 6C020000 		.4byte	0x26c
 1345 03c8 04       		.byte	0x4
 1346 03c9 06       		.uleb128 0x6
 1347 03ca 51030000 		.4byte	.LASF62
 1348 03ce 0A       		.byte	0xa
 1349 03cf 37       		.byte	0x37
 1350 03d0 22010000 		.4byte	0x122
 1351 03d4 08       		.byte	0x8
 1352 03d5 06       		.uleb128 0x6
 1353 03d6 19040000 		.4byte	.LASF63
 1354 03da 0A       		.byte	0xa
 1355 03db 3A       		.byte	0x3a
 1356 03dc 2D010000 		.4byte	0x12d
ARM GAS  C:\Users\danit\AppData\Local\Temp\ccBoNNmX.s 			page 25


 1357 03e0 0C       		.byte	0xc
 1358 03e1 00       		.byte	0
 1359 03e2 09       		.uleb128 0x9
 1360 03e3 04       		.byte	0x4
 1361 03e4 9A030000 		.4byte	0x39a
 1362 03e8 05       		.uleb128 0x5
 1363 03e9 98010000 		.4byte	.LASF64
 1364 03ed 04       		.byte	0x4
 1365 03ee 0A       		.byte	0xa
 1366 03ef 41       		.byte	0x41
 1367 03f0 01040000 		.4byte	0x401
 1368 03f4 06       		.uleb128 0x6
 1369 03f5 9E050000 		.4byte	.LASF65
 1370 03f9 0A       		.byte	0xa
 1371 03fa 42       		.byte	0x42
 1372 03fb E2030000 		.4byte	0x3e2
 1373 03ff 00       		.byte	0
 1374 0400 00       		.byte	0
 1375 0401 03       		.uleb128 0x3
 1376 0402 98010000 		.4byte	.LASF64
 1377 0406 0A       		.byte	0xa
 1378 0407 45       		.byte	0x45
 1379 0408 E8030000 		.4byte	0x3e8
 1380 040c 0E       		.uleb128 0xe
 1381 040d 04       		.byte	0x4
 1382 040e 07       		.byte	0x7
 1383 040f 96       		.byte	0x96
 1384 0410 41040000 		.4byte	0x441
 1385 0414 0F       		.uleb128 0xf
 1386 0415 18000000 		.4byte	.LASF66
 1387 0419 07       		.byte	0x7
 1388 041a 9D       		.byte	0x9d
 1389 041b 17010000 		.4byte	0x117
 1390 041f 0F       		.uleb128 0xf
 1391 0420 56000000 		.4byte	.LASF67
 1392 0424 07       		.byte	0x7
 1393 0425 A4       		.byte	0xa4
 1394 0426 17010000 		.4byte	0x117
 1395 042a 0F       		.uleb128 0xf
 1396 042b B6060000 		.4byte	.LASF68
 1397 042f 07       		.byte	0x7
 1398 0430 AB       		.byte	0xab
 1399 0431 A8020000 		.4byte	0x2a8
 1400 0435 0F       		.uleb128 0xf
 1401 0436 52040000 		.4byte	.LASF69
 1402 043a 07       		.byte	0x7
 1403 043b B2       		.byte	0xb2
 1404 043c 22010000 		.4byte	0x122
 1405 0440 00       		.byte	0
 1406 0441 09       		.uleb128 0x9
 1407 0442 04       		.byte	0x4
 1408 0443 47040000 		.4byte	0x447
 1409 0447 10       		.uleb128 0x10
 1410 0448 4C040000 		.4byte	0x44c
 1411 044c 04       		.uleb128 0x4
 1412 044d 01       		.byte	0x1
 1413 044e 08       		.byte	0x8
ARM GAS  C:\Users\danit\AppData\Local\Temp\ccBoNNmX.s 			page 26


 1414 044f 01050000 		.4byte	.LASF70
 1415 0453 09       		.uleb128 0x9
 1416 0454 04       		.byte	0x4
 1417 0455 8F030000 		.4byte	0x38f
 1418 0459 09       		.uleb128 0x9
 1419 045a 04       		.byte	0x4
 1420 045b 5F040000 		.4byte	0x45f
 1421 045f 11       		.uleb128 0x11
 1422 0460 17010000 		.4byte	0x117
 1423 0464 6E040000 		.4byte	0x46e
 1424 0468 12       		.uleb128 0x12
 1425 0469 A8020000 		.4byte	0x2a8
 1426 046d 00       		.byte	0
 1427 046e 03       		.uleb128 0x3
 1428 046f 98020000 		.4byte	.LASF71
 1429 0473 0B       		.byte	0xb
 1430 0474 37       		.byte	0x37
 1431 0475 79040000 		.4byte	0x479
 1432 0479 05       		.uleb128 0x5
 1433 047a 98020000 		.4byte	.LASF71
 1434 047e 24       		.byte	0x24
 1435 047f 0B       		.byte	0xb
 1436 0480 45       		.byte	0x45
 1437 0481 E6040000 		.4byte	0x4e6
 1438 0485 06       		.uleb128 0x6
 1439 0486 89000000 		.4byte	.LASF72
 1440 048a 0B       		.byte	0xb
 1441 048b 46       		.byte	0x46
 1442 048c 72020000 		.4byte	0x272
 1443 0490 00       		.byte	0
 1444 0491 06       		.uleb128 0x6
 1445 0492 CD020000 		.4byte	.LASF73
 1446 0496 0B       		.byte	0xb
 1447 0497 47       		.byte	0x47
 1448 0498 2C000000 		.4byte	0x2c
 1449 049c 08       		.byte	0x8
 1450 049d 06       		.uleb128 0x6
 1451 049e 3A010000 		.4byte	.LASF74
 1452 04a2 0B       		.byte	0xb
 1453 04a3 48       		.byte	0x48
 1454 04a4 08050000 		.4byte	0x508
 1455 04a8 0C       		.byte	0xc
 1456 04a9 06       		.uleb128 0x6
 1457 04aa 91050000 		.4byte	.LASF75
 1458 04ae 0B       		.byte	0xb
 1459 04af 49       		.byte	0x49
 1460 04b0 08050000 		.4byte	0x508
 1461 04b4 10       		.byte	0x10
 1462 04b5 06       		.uleb128 0x6
 1463 04b6 43010000 		.4byte	.LASF76
 1464 04ba 0B       		.byte	0xb
 1465 04bb 4B       		.byte	0x4b
 1466 04bc 08050000 		.4byte	0x508
 1467 04c0 14       		.byte	0x14
 1468 04c1 06       		.uleb128 0x6
 1469 04c2 DC030000 		.4byte	.LASF77
 1470 04c6 0B       		.byte	0xb
ARM GAS  C:\Users\danit\AppData\Local\Temp\ccBoNNmX.s 			page 27


 1471 04c7 4C       		.byte	0x4c
 1472 04c8 08050000 		.4byte	0x508
 1473 04cc 18       		.byte	0x18
 1474 04cd 06       		.uleb128 0x6
 1475 04ce 85060000 		.4byte	.LASF78
 1476 04d2 0B       		.byte	0xb
 1477 04d3 4D       		.byte	0x4d
 1478 04d4 E6040000 		.4byte	0x4e6
 1479 04d8 1C       		.byte	0x1c
 1480 04d9 06       		.uleb128 0x6
 1481 04da 0F070000 		.4byte	.LASF79
 1482 04de 0B       		.byte	0xb
 1483 04df 4E       		.byte	0x4e
 1484 04e0 A8020000 		.4byte	0x2a8
 1485 04e4 20       		.byte	0x20
 1486 04e5 00       		.byte	0
 1487 04e6 03       		.uleb128 0x3
 1488 04e7 8E020000 		.4byte	.LASF80
 1489 04eb 0B       		.byte	0xb
 1490 04ec 3A       		.byte	0x3a
 1491 04ed F1040000 		.4byte	0x4f1
 1492 04f1 09       		.uleb128 0x9
 1493 04f2 04       		.byte	0x4
 1494 04f3 F7040000 		.4byte	0x4f7
 1495 04f7 13       		.uleb128 0x13
 1496 04f8 02050000 		.4byte	0x502
 1497 04fc 12       		.uleb128 0x12
 1498 04fd 02050000 		.4byte	0x502
 1499 0501 00       		.byte	0
 1500 0502 09       		.uleb128 0x9
 1501 0503 04       		.byte	0x4
 1502 0504 6E040000 		.4byte	0x46e
 1503 0508 09       		.uleb128 0x9
 1504 0509 04       		.byte	0x4
 1505 050a A2000000 		.4byte	0xa2
 1506 050e 03       		.uleb128 0x3
 1507 050f 96060000 		.4byte	.LASF81
 1508 0513 0B       		.byte	0xb
 1509 0514 82       		.byte	0x82
 1510 0515 6E040000 		.4byte	0x46e
 1511 0519 03       		.uleb128 0x3
 1512 051a 1F000000 		.4byte	.LASF82
 1513 051e 0B       		.byte	0xb
 1514 051f F5       		.byte	0xf5
 1515 0520 6E040000 		.4byte	0x46e
 1516 0524 11       		.uleb128 0x11
 1517 0525 2C000000 		.4byte	0x2c
 1518 0529 3D050000 		.4byte	0x53d
 1519 052d 12       		.uleb128 0x12
 1520 052e A8020000 		.4byte	0x2a8
 1521 0532 12       		.uleb128 0x12
 1522 0533 3D050000 		.4byte	0x53d
 1523 0537 12       		.uleb128 0x12
 1524 0538 2C000000 		.4byte	0x2c
 1525 053c 00       		.byte	0
 1526 053d 09       		.uleb128 0x9
 1527 053e 04       		.byte	0x4
ARM GAS  C:\Users\danit\AppData\Local\Temp\ccBoNNmX.s 			page 28


 1528 053f 43050000 		.4byte	0x543
 1529 0543 10       		.uleb128 0x10
 1530 0544 A2000000 		.4byte	0xa2
 1531 0548 09       		.uleb128 0x9
 1532 0549 04       		.byte	0x4
 1533 054a 24050000 		.4byte	0x524
 1534 054e 11       		.uleb128 0x11
 1535 054f 2C000000 		.4byte	0x2c
 1536 0553 67050000 		.4byte	0x567
 1537 0557 12       		.uleb128 0x12
 1538 0558 A8020000 		.4byte	0x2a8
 1539 055c 12       		.uleb128 0x12
 1540 055d 08050000 		.4byte	0x508
 1541 0561 12       		.uleb128 0x12
 1542 0562 2C000000 		.4byte	0x2c
 1543 0566 00       		.byte	0
 1544 0567 09       		.uleb128 0x9
 1545 0568 04       		.byte	0x4
 1546 0569 4E050000 		.4byte	0x54e
 1547 056d 11       		.uleb128 0x11
 1548 056e 17010000 		.4byte	0x117
 1549 0572 81050000 		.4byte	0x581
 1550 0576 12       		.uleb128 0x12
 1551 0577 A8020000 		.4byte	0x2a8
 1552 057b 12       		.uleb128 0x12
 1553 057c A2000000 		.4byte	0xa2
 1554 0580 00       		.byte	0
 1555 0581 09       		.uleb128 0x9
 1556 0582 04       		.byte	0x4
 1557 0583 6D050000 		.4byte	0x56d
 1558 0587 14       		.uleb128 0x14
 1559 0588 C3000000 		.4byte	0xc3
 1560 058c 97050000 		.4byte	0x597
 1561 0590 15       		.uleb128 0x15
 1562 0591 4C030000 		.4byte	0x34c
 1563 0595 01       		.byte	0x1
 1564 0596 00       		.byte	0
 1565 0597 0D       		.uleb128 0xd
 1566 0598 AD000000 		.4byte	0xad
 1567 059c 0D       		.uleb128 0xd
 1568 059d B8000000 		.4byte	0xb8
 1569 05a1 16       		.uleb128 0x16
 1570 05a2 90       		.byte	0x90
 1571 05a3 0C       		.byte	0xc
 1572 05a4 5804     		.2byte	0x458
 1573 05a6 4A070000 		.4byte	0x74a
 1574 05aa 0C       		.uleb128 0xc
 1575 05ab 435200   		.ascii	"CR\000"
 1576 05ae 0C       		.byte	0xc
 1577 05af 5A04     		.2byte	0x45a
 1578 05b1 47030000 		.4byte	0x347
 1579 05b5 00       		.byte	0
 1580 05b6 17       		.uleb128 0x17
 1581 05b7 6F010000 		.4byte	.LASF83
 1582 05bb 0C       		.byte	0xc
 1583 05bc 5B04     		.2byte	0x45b
 1584 05be 47030000 		.4byte	0x347
ARM GAS  C:\Users\danit\AppData\Local\Temp\ccBoNNmX.s 			page 29


 1585 05c2 04       		.byte	0x4
 1586 05c3 17       		.uleb128 0x17
 1587 05c4 C5060000 		.4byte	.LASF84
 1588 05c8 0C       		.byte	0xc
 1589 05c9 5C04     		.2byte	0x45c
 1590 05cb 47030000 		.4byte	0x347
 1591 05cf 08       		.byte	0x8
 1592 05d0 0C       		.uleb128 0xc
 1593 05d1 43495200 		.ascii	"CIR\000"
 1594 05d5 0C       		.byte	0xc
 1595 05d6 5D04     		.2byte	0x45d
 1596 05d8 47030000 		.4byte	0x347
 1597 05dc 0C       		.byte	0xc
 1598 05dd 17       		.uleb128 0x17
 1599 05de B5000000 		.4byte	.LASF85
 1600 05e2 0C       		.byte	0xc
 1601 05e3 5E04     		.2byte	0x45e
 1602 05e5 47030000 		.4byte	0x347
 1603 05e9 10       		.byte	0x10
 1604 05ea 17       		.uleb128 0x17
 1605 05eb 28050000 		.4byte	.LASF86
 1606 05ef 0C       		.byte	0xc
 1607 05f0 5F04     		.2byte	0x45f
 1608 05f2 47030000 		.4byte	0x347
 1609 05f6 14       		.byte	0x14
 1610 05f7 17       		.uleb128 0x17
 1611 05f8 79040000 		.4byte	.LASF87
 1612 05fc 0C       		.byte	0xc
 1613 05fd 6004     		.2byte	0x460
 1614 05ff 47030000 		.4byte	0x347
 1615 0603 18       		.byte	0x18
 1616 0604 17       		.uleb128 0x17
 1617 0605 91030000 		.4byte	.LASF88
 1618 0609 0C       		.byte	0xc
 1619 060a 6104     		.2byte	0x461
 1620 060c C3000000 		.4byte	0xc3
 1621 0610 1C       		.byte	0x1c
 1622 0611 17       		.uleb128 0x17
 1623 0612 48030000 		.4byte	.LASF89
 1624 0616 0C       		.byte	0xc
 1625 0617 6204     		.2byte	0x462
 1626 0619 47030000 		.4byte	0x347
 1627 061d 20       		.byte	0x20
 1628 061e 17       		.uleb128 0x17
 1629 061f 0E010000 		.4byte	.LASF90
 1630 0623 0C       		.byte	0xc
 1631 0624 6304     		.2byte	0x463
 1632 0626 47030000 		.4byte	0x347
 1633 062a 24       		.byte	0x24
 1634 062b 17       		.uleb128 0x17
 1635 062c 9B030000 		.4byte	.LASF91
 1636 0630 0C       		.byte	0xc
 1637 0631 6404     		.2byte	0x464
 1638 0633 87050000 		.4byte	0x587
 1639 0637 28       		.byte	0x28
 1640 0638 17       		.uleb128 0x17
 1641 0639 BD060000 		.4byte	.LASF92
ARM GAS  C:\Users\danit\AppData\Local\Temp\ccBoNNmX.s 			page 30


 1642 063d 0C       		.byte	0xc
 1643 063e 6504     		.2byte	0x465
 1644 0640 47030000 		.4byte	0x347
 1645 0644 30       		.byte	0x30
 1646 0645 17       		.uleb128 0x17
 1647 0646 5F050000 		.4byte	.LASF93
 1648 064a 0C       		.byte	0xc
 1649 064b 6604     		.2byte	0x466
 1650 064d 47030000 		.4byte	0x347
 1651 0651 34       		.byte	0x34
 1652 0652 17       		.uleb128 0x17
 1653 0653 E4020000 		.4byte	.LASF94
 1654 0657 0C       		.byte	0xc
 1655 0658 6704     		.2byte	0x467
 1656 065a 47030000 		.4byte	0x347
 1657 065e 38       		.byte	0x38
 1658 065f 17       		.uleb128 0x17
 1659 0660 A5030000 		.4byte	.LASF95
 1660 0664 0C       		.byte	0xc
 1661 0665 6804     		.2byte	0x468
 1662 0667 C3000000 		.4byte	0xc3
 1663 066b 3C       		.byte	0x3c
 1664 066c 17       		.uleb128 0x17
 1665 066d 57050000 		.4byte	.LASF96
 1666 0671 0C       		.byte	0xc
 1667 0672 6904     		.2byte	0x469
 1668 0674 47030000 		.4byte	0x347
 1669 0678 40       		.byte	0x40
 1670 0679 17       		.uleb128 0x17
 1671 067a 71040000 		.4byte	.LASF97
 1672 067e 0C       		.byte	0xc
 1673 067f 6A04     		.2byte	0x46a
 1674 0681 47030000 		.4byte	0x347
 1675 0685 44       		.byte	0x44
 1676 0686 17       		.uleb128 0x17
 1677 0687 AF030000 		.4byte	.LASF98
 1678 068b 0C       		.byte	0xc
 1679 068c 6B04     		.2byte	0x46b
 1680 068e 87050000 		.4byte	0x587
 1681 0692 48       		.byte	0x48
 1682 0693 17       		.uleb128 0x17
 1683 0694 6C000000 		.4byte	.LASF99
 1684 0698 0C       		.byte	0xc
 1685 0699 6C04     		.2byte	0x46c
 1686 069b 47030000 		.4byte	0x347
 1687 069f 50       		.byte	0x50
 1688 06a0 17       		.uleb128 0x17
 1689 06a1 01030000 		.4byte	.LASF100
 1690 06a5 0C       		.byte	0xc
 1691 06a6 6D04     		.2byte	0x46d
 1692 06a8 47030000 		.4byte	0x347
 1693 06ac 54       		.byte	0x54
 1694 06ad 17       		.uleb128 0x17
 1695 06ae 48040000 		.4byte	.LASF101
 1696 06b2 0C       		.byte	0xc
 1697 06b3 6E04     		.2byte	0x46e
 1698 06b5 47030000 		.4byte	0x347
ARM GAS  C:\Users\danit\AppData\Local\Temp\ccBoNNmX.s 			page 31


 1699 06b9 58       		.byte	0x58
 1700 06ba 17       		.uleb128 0x17
 1701 06bb B9030000 		.4byte	.LASF102
 1702 06bf 0C       		.byte	0xc
 1703 06c0 6F04     		.2byte	0x46f
 1704 06c2 C3000000 		.4byte	0xc3
 1705 06c6 5C       		.byte	0x5c
 1706 06c7 17       		.uleb128 0x17
 1707 06c8 17010000 		.4byte	.LASF103
 1708 06cc 0C       		.byte	0xc
 1709 06cd 7004     		.2byte	0x470
 1710 06cf 47030000 		.4byte	0x347
 1711 06d3 60       		.byte	0x60
 1712 06d4 17       		.uleb128 0x17
 1713 06d5 54020000 		.4byte	.LASF104
 1714 06d9 0C       		.byte	0xc
 1715 06da 7104     		.2byte	0x471
 1716 06dc 47030000 		.4byte	0x347
 1717 06e0 64       		.byte	0x64
 1718 06e1 17       		.uleb128 0x17
 1719 06e2 AE040000 		.4byte	.LASF105
 1720 06e6 0C       		.byte	0xc
 1721 06e7 7204     		.2byte	0x472
 1722 06e9 87050000 		.4byte	0x587
 1723 06ed 68       		.byte	0x68
 1724 06ee 17       		.uleb128 0x17
 1725 06ef 80060000 		.4byte	.LASF106
 1726 06f3 0C       		.byte	0xc
 1727 06f4 7304     		.2byte	0x473
 1728 06f6 47030000 		.4byte	0x347
 1729 06fa 70       		.byte	0x70
 1730 06fb 0C       		.uleb128 0xc
 1731 06fc 43535200 		.ascii	"CSR\000"
 1732 0700 0C       		.byte	0xc
 1733 0701 7404     		.2byte	0x474
 1734 0703 47030000 		.4byte	0x347
 1735 0707 74       		.byte	0x74
 1736 0708 17       		.uleb128 0x17
 1737 0709 CA030000 		.4byte	.LASF107
 1738 070d 0C       		.byte	0xc
 1739 070e 7504     		.2byte	0x475
 1740 0710 87050000 		.4byte	0x587
 1741 0714 78       		.byte	0x78
 1742 0715 17       		.uleb128 0x17
 1743 0716 8B050000 		.4byte	.LASF108
 1744 071a 0C       		.byte	0xc
 1745 071b 7604     		.2byte	0x476
 1746 071d 47030000 		.4byte	0x347
 1747 0721 80       		.byte	0x80
 1748 0722 17       		.uleb128 0x17
 1749 0723 0C020000 		.4byte	.LASF109
 1750 0727 0C       		.byte	0xc
 1751 0728 7704     		.2byte	0x477
 1752 072a 47030000 		.4byte	0x347
 1753 072e 84       		.byte	0x84
 1754 072f 17       		.uleb128 0x17
 1755 0730 7E030000 		.4byte	.LASF110
ARM GAS  C:\Users\danit\AppData\Local\Temp\ccBoNNmX.s 			page 32


 1756 0734 0C       		.byte	0xc
 1757 0735 7804     		.2byte	0x478
 1758 0737 47030000 		.4byte	0x347
 1759 073b 88       		.byte	0x88
 1760 073c 17       		.uleb128 0x17
 1761 073d 93000000 		.4byte	.LASF111
 1762 0741 0C       		.byte	0xc
 1763 0742 7904     		.2byte	0x479
 1764 0744 47030000 		.4byte	0x347
 1765 0748 8C       		.byte	0x8c
 1766 0749 00       		.byte	0
 1767 074a 18       		.uleb128 0x18
 1768 074b E4000000 		.4byte	.LASF112
 1769 074f 0C       		.byte	0xc
 1770 0750 7B04     		.2byte	0x47b
 1771 0752 A1050000 		.4byte	0x5a1
 1772 0756 16       		.uleb128 0x16
 1773 0757 1C       		.byte	0x1c
 1774 0758 0C       		.byte	0xc
 1775 0759 2905     		.2byte	0x529
 1776 075b 14080000 		.4byte	0x814
 1777 075f 0C       		.uleb128 0xc
 1778 0760 535200   		.ascii	"SR\000"
 1779 0763 0C       		.byte	0xc
 1780 0764 2B05     		.2byte	0x52b
 1781 0766 97050000 		.4byte	0x597
 1782 076a 00       		.byte	0
 1783 076b 17       		.uleb128 0x17
 1784 076c 91030000 		.4byte	.LASF88
 1785 0770 0C       		.byte	0xc
 1786 0771 2C05     		.2byte	0x52c
 1787 0773 AD000000 		.4byte	0xad
 1788 0777 02       		.byte	0x2
 1789 0778 0C       		.uleb128 0xc
 1790 0779 445200   		.ascii	"DR\000"
 1791 077c 0C       		.byte	0xc
 1792 077d 2D05     		.2byte	0x52d
 1793 077f 97050000 		.4byte	0x597
 1794 0783 04       		.byte	0x4
 1795 0784 17       		.uleb128 0x17
 1796 0785 9B030000 		.4byte	.LASF91
 1797 0789 0C       		.byte	0xc
 1798 078a 2E05     		.2byte	0x52e
 1799 078c AD000000 		.4byte	0xad
 1800 0790 06       		.byte	0x6
 1801 0791 0C       		.uleb128 0xc
 1802 0792 42525200 		.ascii	"BRR\000"
 1803 0796 0C       		.byte	0xc
 1804 0797 2F05     		.2byte	0x52f
 1805 0799 97050000 		.4byte	0x597
 1806 079d 08       		.byte	0x8
 1807 079e 17       		.uleb128 0x17
 1808 079f A5030000 		.4byte	.LASF95
 1809 07a3 0C       		.byte	0xc
 1810 07a4 3005     		.2byte	0x530
 1811 07a6 AD000000 		.4byte	0xad
 1812 07aa 0A       		.byte	0xa
ARM GAS  C:\Users\danit\AppData\Local\Temp\ccBoNNmX.s 			page 33


 1813 07ab 0C       		.uleb128 0xc
 1814 07ac 43523100 		.ascii	"CR1\000"
 1815 07b0 0C       		.byte	0xc
 1816 07b1 3105     		.2byte	0x531
 1817 07b3 97050000 		.4byte	0x597
 1818 07b7 0C       		.byte	0xc
 1819 07b8 17       		.uleb128 0x17
 1820 07b9 AF030000 		.4byte	.LASF98
 1821 07bd 0C       		.byte	0xc
 1822 07be 3205     		.2byte	0x532
 1823 07c0 AD000000 		.4byte	0xad
 1824 07c4 0E       		.byte	0xe
 1825 07c5 0C       		.uleb128 0xc
 1826 07c6 43523200 		.ascii	"CR2\000"
 1827 07ca 0C       		.byte	0xc
 1828 07cb 3305     		.2byte	0x533
 1829 07cd 97050000 		.4byte	0x597
 1830 07d1 10       		.byte	0x10
 1831 07d2 17       		.uleb128 0x17
 1832 07d3 B9030000 		.4byte	.LASF102
 1833 07d7 0C       		.byte	0xc
 1834 07d8 3405     		.2byte	0x534
 1835 07da AD000000 		.4byte	0xad
 1836 07de 12       		.byte	0x12
 1837 07df 0C       		.uleb128 0xc
 1838 07e0 43523300 		.ascii	"CR3\000"
 1839 07e4 0C       		.byte	0xc
 1840 07e5 3505     		.2byte	0x535
 1841 07e7 97050000 		.4byte	0x597
 1842 07eb 14       		.byte	0x14
 1843 07ec 17       		.uleb128 0x17
 1844 07ed AE040000 		.4byte	.LASF105
 1845 07f1 0C       		.byte	0xc
 1846 07f2 3605     		.2byte	0x536
 1847 07f4 AD000000 		.4byte	0xad
 1848 07f8 16       		.byte	0x16
 1849 07f9 17       		.uleb128 0x17
 1850 07fa BE000000 		.4byte	.LASF113
 1851 07fe 0C       		.byte	0xc
 1852 07ff 3705     		.2byte	0x537
 1853 0801 97050000 		.4byte	0x597
 1854 0805 18       		.byte	0x18
 1855 0806 17       		.uleb128 0x17
 1856 0807 CA030000 		.4byte	.LASF107
 1857 080b 0C       		.byte	0xc
 1858 080c 3805     		.2byte	0x538
 1859 080e AD000000 		.4byte	0xad
 1860 0812 1A       		.byte	0x1a
 1861 0813 00       		.byte	0
 1862 0814 18       		.uleb128 0x18
 1863 0815 37020000 		.4byte	.LASF114
 1864 0819 0C       		.byte	0xc
 1865 081a 3905     		.2byte	0x539
 1866 081c 56070000 		.4byte	0x756
 1867 0820 11       		.uleb128 0x11
 1868 0821 17010000 		.4byte	0x117
 1869 0825 39080000 		.4byte	0x839
ARM GAS  C:\Users\danit\AppData\Local\Temp\ccBoNNmX.s 			page 34


 1870 0829 12       		.uleb128 0x12
 1871 082a A8020000 		.4byte	0x2a8
 1872 082e 12       		.uleb128 0x12
 1873 082f A2000000 		.4byte	0xa2
 1874 0833 12       		.uleb128 0x12
 1875 0834 38010000 		.4byte	0x138
 1876 0838 00       		.byte	0
 1877 0839 09       		.uleb128 0x9
 1878 083a 04       		.byte	0x4
 1879 083b 20080000 		.4byte	0x820
 1880 083f 11       		.uleb128 0x11
 1881 0840 17010000 		.4byte	0x117
 1882 0844 53080000 		.4byte	0x853
 1883 0848 12       		.uleb128 0x12
 1884 0849 A8020000 		.4byte	0x2a8
 1885 084d 12       		.uleb128 0x12
 1886 084e 38010000 		.4byte	0x138
 1887 0852 00       		.byte	0
 1888 0853 09       		.uleb128 0x9
 1889 0854 04       		.byte	0x4
 1890 0855 3F080000 		.4byte	0x83f
 1891 0859 11       		.uleb128 0x11
 1892 085a 2C000000 		.4byte	0x2c
 1893 085e 77080000 		.4byte	0x877
 1894 0862 12       		.uleb128 0x12
 1895 0863 A8020000 		.4byte	0x2a8
 1896 0867 12       		.uleb128 0x12
 1897 0868 3D050000 		.4byte	0x53d
 1898 086c 12       		.uleb128 0x12
 1899 086d 2C000000 		.4byte	0x2c
 1900 0871 12       		.uleb128 0x12
 1901 0872 38010000 		.4byte	0x138
 1902 0876 00       		.byte	0
 1903 0877 09       		.uleb128 0x9
 1904 0878 04       		.byte	0x4
 1905 0879 59080000 		.4byte	0x859
 1906 087d 11       		.uleb128 0x11
 1907 087e 2C000000 		.4byte	0x2c
 1908 0882 9B080000 		.4byte	0x89b
 1909 0886 12       		.uleb128 0x12
 1910 0887 A8020000 		.4byte	0x2a8
 1911 088b 12       		.uleb128 0x12
 1912 088c 08050000 		.4byte	0x508
 1913 0890 12       		.uleb128 0x12
 1914 0891 2C000000 		.4byte	0x2c
 1915 0895 12       		.uleb128 0x12
 1916 0896 38010000 		.4byte	0x138
 1917 089a 00       		.byte	0
 1918 089b 09       		.uleb128 0x9
 1919 089c 04       		.byte	0x4
 1920 089d 7D080000 		.4byte	0x87d
 1921 08a1 19       		.uleb128 0x19
 1922 08a2 01       		.byte	0x1
 1923 08a3 0D       		.byte	0xd
 1924 08a4 64       		.byte	0x64
 1925 08a5 BC080000 		.4byte	0x8bc
 1926 08a9 1A       		.uleb128 0x1a
ARM GAS  C:\Users\danit\AppData\Local\Temp\ccBoNNmX.s 			page 35


 1927 08aa A4040000 		.4byte	.LASF115
 1928 08ae 00       		.sleb128 0
 1929 08af 1A       		.uleb128 0x1a
 1930 08b0 69040000 		.4byte	.LASF116
 1931 08b4 01       		.sleb128 1
 1932 08b5 1A       		.uleb128 0x1a
 1933 08b6 76050000 		.4byte	.LASF117
 1934 08ba 02       		.sleb128 2
 1935 08bb 00       		.byte	0
 1936 08bc 03       		.uleb128 0x3
 1937 08bd C1040000 		.4byte	.LASF118
 1938 08c1 0D       		.byte	0xd
 1939 08c2 68       		.byte	0x68
 1940 08c3 A1080000 		.4byte	0x8a1
 1941 08c7 03       		.uleb128 0x3
 1942 08c8 CB040000 		.4byte	.LASF119
 1943 08cc 0D       		.byte	0xd
 1944 08cd 6D       		.byte	0x6d
 1945 08ce D2080000 		.4byte	0x8d2
 1946 08d2 05       		.uleb128 0x5
 1947 08d3 CB040000 		.4byte	.LASF119
 1948 08d7 78       		.byte	0x78
 1949 08d8 0D       		.byte	0xd
 1950 08d9 87       		.byte	0x87
 1951 08da 3D090000 		.4byte	0x93d
 1952 08de 07       		.uleb128 0x7
 1953 08df 766D7400 		.ascii	"vmt\000"
 1954 08e3 0D       		.byte	0xd
 1955 08e4 89       		.byte	0x89
 1956 08e5 EE090000 		.4byte	0x9ee
 1957 08e9 00       		.byte	0
 1958 08ea 06       		.uleb128 0x6
 1959 08eb F3010000 		.4byte	.LASF120
 1960 08ef 0D       		.byte	0xd
 1961 08f0 8A       		.byte	0x8a
 1962 08f1 01040000 		.4byte	0x401
 1963 08f5 04       		.byte	0x4
 1964 08f6 06       		.uleb128 0x6
 1965 08f7 FF000000 		.4byte	.LASF121
 1966 08fb 0D       		.byte	0xd
 1967 08fc 8A       		.byte	0x8a
 1968 08fd BC080000 		.4byte	0x8bc
 1969 0901 08       		.byte	0x8
 1970 0902 06       		.uleb128 0x6
 1971 0903 D0010000 		.4byte	.LASF122
 1972 0907 0D       		.byte	0xd
 1973 0908 8A       		.byte	0x8a
 1974 0909 0E050000 		.4byte	0x50e
 1975 090d 0C       		.byte	0xc
 1976 090e 06       		.uleb128 0x6
 1977 090f 1D020000 		.4byte	.LASF123
 1978 0913 0D       		.byte	0xd
 1979 0914 8A       		.byte	0x8a
 1980 0915 19050000 		.4byte	0x519
 1981 0919 30       		.byte	0x30
 1982 091a 07       		.uleb128 0x7
 1983 091b 696200   		.ascii	"ib\000"
ARM GAS  C:\Users\danit\AppData\Local\Temp\ccBoNNmX.s 			page 36


 1984 091e 0D       		.byte	0xd
 1985 091f 8A       		.byte	0x8a
 1986 0920 F9090000 		.4byte	0x9f9
 1987 0924 54       		.byte	0x54
 1988 0925 07       		.uleb128 0x7
 1989 0926 6F6200   		.ascii	"ob\000"
 1990 0929 0D       		.byte	0xd
 1991 092a 8A       		.byte	0x8a
 1992 092b F9090000 		.4byte	0x9f9
 1993 092f 64       		.byte	0x64
 1994 0930 06       		.uleb128 0x6
 1995 0931 A4010000 		.4byte	.LASF124
 1996 0935 0D       		.byte	0xd
 1997 0936 8A       		.byte	0x8a
 1998 0937 090A0000 		.4byte	0xa09
 1999 093b 74       		.byte	0x74
 2000 093c 00       		.byte	0
 2001 093d 08       		.uleb128 0x8
 2002 093e 0C       		.byte	0xc
 2003 093f 0E       		.byte	0xe
 2004 0940 D7       		.byte	0xd7
 2005 0941 76090000 		.4byte	0x976
 2006 0945 06       		.uleb128 0x6
 2007 0946 7F020000 		.4byte	.LASF125
 2008 094a 0E       		.byte	0xe
 2009 094b DB       		.byte	0xdb
 2010 094c C3000000 		.4byte	0xc3
 2011 0950 00       		.byte	0
 2012 0951 07       		.uleb128 0x7
 2013 0952 63723100 		.ascii	"cr1\000"
 2014 0956 0E       		.byte	0xe
 2015 0957 E0       		.byte	0xe0
 2016 0958 AD000000 		.4byte	0xad
 2017 095c 04       		.byte	0x4
 2018 095d 07       		.uleb128 0x7
 2019 095e 63723200 		.ascii	"cr2\000"
 2020 0962 0E       		.byte	0xe
 2021 0963 E4       		.byte	0xe4
 2022 0964 AD000000 		.4byte	0xad
 2023 0968 06       		.byte	0x6
 2024 0969 07       		.uleb128 0x7
 2025 096a 63723300 		.ascii	"cr3\000"
 2026 096e 0E       		.byte	0xe
 2027 096f E8       		.byte	0xe8
 2028 0970 AD000000 		.4byte	0xad
 2029 0974 08       		.byte	0x8
 2030 0975 00       		.byte	0
 2031 0976 03       		.uleb128 0x3
 2032 0977 59030000 		.4byte	.LASF126
 2033 097b 0E       		.byte	0xe
 2034 097c E9       		.byte	0xe9
 2035 097d 3D090000 		.4byte	0x93d
 2036 0981 05       		.uleb128 0x5
 2037 0982 C0010000 		.4byte	.LASF127
 2038 0986 20       		.byte	0x20
 2039 0987 0D       		.byte	0xd
 2040 0988 7C       		.byte	0x7c
ARM GAS  C:\Users\danit\AppData\Local\Temp\ccBoNNmX.s 			page 37


 2041 0989 EE090000 		.4byte	0x9ee
 2042 098d 06       		.uleb128 0x6
 2043 098e AE020000 		.4byte	.LASF128
 2044 0992 0D       		.byte	0xd
 2045 0993 7D       		.byte	0x7d
 2046 0994 48050000 		.4byte	0x548
 2047 0998 00       		.byte	0
 2048 0999 06       		.uleb128 0x6
 2049 099a FC040000 		.4byte	.LASF129
 2050 099e 0D       		.byte	0xd
 2051 099f 7D       		.byte	0x7d
 2052 09a0 67050000 		.4byte	0x567
 2053 09a4 04       		.byte	0x4
 2054 09a5 07       		.uleb128 0x7
 2055 09a6 70757400 		.ascii	"put\000"
 2056 09aa 0D       		.byte	0xd
 2057 09ab 7D       		.byte	0x7d
 2058 09ac 81050000 		.4byte	0x581
 2059 09b0 08       		.byte	0x8
 2060 09b1 07       		.uleb128 0x7
 2061 09b2 67657400 		.ascii	"get\000"
 2062 09b6 0D       		.byte	0xd
 2063 09b7 7D       		.byte	0x7d
 2064 09b8 59040000 		.4byte	0x459
 2065 09bc 0C       		.byte	0xc
 2066 09bd 06       		.uleb128 0x6
 2067 09be B4020000 		.4byte	.LASF130
 2068 09c2 0D       		.byte	0xd
 2069 09c3 7D       		.byte	0x7d
 2070 09c4 39080000 		.4byte	0x839
 2071 09c8 10       		.byte	0x10
 2072 09c9 06       		.uleb128 0x6
 2073 09ca EE010000 		.4byte	.LASF131
 2074 09ce 0D       		.byte	0xd
 2075 09cf 7D       		.byte	0x7d
 2076 09d0 53080000 		.4byte	0x853
 2077 09d4 14       		.byte	0x14
 2078 09d5 06       		.uleb128 0x6
 2079 09d6 45020000 		.4byte	.LASF132
 2080 09da 0D       		.byte	0xd
 2081 09db 7D       		.byte	0x7d
 2082 09dc 77080000 		.4byte	0x877
 2083 09e0 18       		.byte	0x18
 2084 09e1 06       		.uleb128 0x6
 2085 09e2 83000000 		.4byte	.LASF133
 2086 09e6 0D       		.byte	0xd
 2087 09e7 7D       		.byte	0x7d
 2088 09e8 9B080000 		.4byte	0x89b
 2089 09ec 1C       		.byte	0x1c
 2090 09ed 00       		.byte	0
 2091 09ee 09       		.uleb128 0x9
 2092 09ef 04       		.byte	0x4
 2093 09f0 F4090000 		.4byte	0x9f4
 2094 09f4 10       		.uleb128 0x10
 2095 09f5 81090000 		.4byte	0x981
 2096 09f9 14       		.uleb128 0x14
 2097 09fa A2000000 		.4byte	0xa2
ARM GAS  C:\Users\danit\AppData\Local\Temp\ccBoNNmX.s 			page 38


 2098 09fe 090A0000 		.4byte	0xa09
 2099 0a02 15       		.uleb128 0x15
 2100 0a03 4C030000 		.4byte	0x34c
 2101 0a07 0F       		.byte	0xf
 2102 0a08 00       		.byte	0
 2103 0a09 09       		.uleb128 0x9
 2104 0a0a 04       		.byte	0x4
 2105 0a0b 14080000 		.4byte	0x814
 2106 0a0f 09       		.uleb128 0x9
 2107 0a10 04       		.byte	0x4
 2108 0a11 19050000 		.4byte	0x519
 2109 0a15 1B       		.uleb128 0x1b
 2110 0a16 B9020000 		.4byte	.LASF135
 2111 0a1a 01       		.byte	0x1
 2112 0a1b 5C       		.byte	0x5c
 2113 0a1c 01       		.byte	0x1
 2114 0a1d 410A0000 		.4byte	0xa41
 2115 0a21 1C       		.uleb128 0x1c
 2116 0a22 73647000 		.ascii	"sdp\000"
 2117 0a26 01       		.byte	0x1
 2118 0a27 5C       		.byte	0x5c
 2119 0a28 410A0000 		.4byte	0xa41
 2120 0a2c 1D       		.uleb128 0x1d
 2121 0a2d 16050000 		.4byte	.LASF134
 2122 0a31 01       		.byte	0x1
 2123 0a32 5C       		.byte	0x5c
 2124 0a33 470A0000 		.4byte	0xa47
 2125 0a37 1E       		.uleb128 0x1e
 2126 0a38 7500     		.ascii	"u\000"
 2127 0a3a 01       		.byte	0x1
 2128 0a3b 5D       		.byte	0x5d
 2129 0a3c 090A0000 		.4byte	0xa09
 2130 0a40 00       		.byte	0
 2131 0a41 09       		.uleb128 0x9
 2132 0a42 04       		.byte	0x4
 2133 0a43 C7080000 		.4byte	0x8c7
 2134 0a47 09       		.uleb128 0x9
 2135 0a48 04       		.byte	0x4
 2136 0a49 4D0A0000 		.4byte	0xa4d
 2137 0a4d 10       		.uleb128 0x10
 2138 0a4e 76090000 		.4byte	0x976
 2139 0a52 1B       		.uleb128 0x1b
 2140 0a53 8B010000 		.4byte	.LASF136
 2141 0a57 01       		.byte	0x1
 2142 0a58 7A       		.byte	0x7a
 2143 0a59 01       		.byte	0x1
 2144 0a5a 680A0000 		.4byte	0xa68
 2145 0a5e 1C       		.uleb128 0x1c
 2146 0a5f 7500     		.ascii	"u\000"
 2147 0a61 01       		.byte	0x1
 2148 0a62 7A       		.byte	0x7a
 2149 0a63 090A0000 		.4byte	0xa09
 2150 0a67 00       		.byte	0
 2151 0a68 1F       		.uleb128 0x1f
 2152 0a69 66030000 		.4byte	.LASF137
 2153 0a6d 01       		.byte	0x1
 2154 0a6e CC       		.byte	0xcc
ARM GAS  C:\Users\danit\AppData\Local\Temp\ccBoNNmX.s 			page 39


 2155 0a6f 00000000 		.4byte	.LFB122
 2156 0a73 14000000 		.4byte	.LFE122-.LFB122
 2157 0a77 01       		.uleb128 0x1
 2158 0a78 9C       		.byte	0x9c
 2159 0a79 8A0A0000 		.4byte	0xa8a
 2160 0a7d 20       		.uleb128 0x20
 2161 0a7e 717000   		.ascii	"qp\000"
 2162 0a81 01       		.byte	0x1
 2163 0a82 CC       		.byte	0xcc
 2164 0a83 02050000 		.4byte	0x502
 2165 0a87 01       		.uleb128 0x1
 2166 0a88 50       		.byte	0x50
 2167 0a89 00       		.byte	0
 2168 0a8a 1F       		.uleb128 0x1f
 2169 0a8b 6E030000 		.4byte	.LASF138
 2170 0a8f 01       		.byte	0x1
 2171 0a90 D4       		.byte	0xd4
 2172 0a91 00000000 		.4byte	.LFB123
 2173 0a95 14000000 		.4byte	.LFE123-.LFB123
 2174 0a99 01       		.uleb128 0x1
 2175 0a9a 9C       		.byte	0x9c
 2176 0a9b AC0A0000 		.4byte	0xaac
 2177 0a9f 20       		.uleb128 0x20
 2178 0aa0 717000   		.ascii	"qp\000"
 2179 0aa3 01       		.byte	0x1
 2180 0aa4 D4       		.byte	0xd4
 2181 0aa5 02050000 		.4byte	0x502
 2182 0aa9 01       		.uleb128 0x1
 2183 0aaa 50       		.byte	0x50
 2184 0aab 00       		.byte	0
 2185 0aac 1F       		.uleb128 0x1f
 2186 0aad 76030000 		.4byte	.LASF139
 2187 0ab1 01       		.byte	0x1
 2188 0ab2 DC       		.byte	0xdc
 2189 0ab3 00000000 		.4byte	.LFB124
 2190 0ab7 14000000 		.4byte	.LFE124-.LFB124
 2191 0abb 01       		.uleb128 0x1
 2192 0abc 9C       		.byte	0x9c
 2193 0abd CE0A0000 		.4byte	0xace
 2194 0ac1 20       		.uleb128 0x20
 2195 0ac2 717000   		.ascii	"qp\000"
 2196 0ac5 01       		.byte	0x1
 2197 0ac6 DC       		.byte	0xdc
 2198 0ac7 02050000 		.4byte	0x502
 2199 0acb 01       		.uleb128 0x1
 2200 0acc 50       		.byte	0x50
 2201 0acd 00       		.byte	0
 2202 0ace 1B       		.uleb128 0x1b
 2203 0acf 35000000 		.4byte	.LASF140
 2204 0ad3 01       		.byte	0x1
 2205 0ad4 87       		.byte	0x87
 2206 0ad5 01       		.byte	0x1
 2207 0ad6 FB0A0000 		.4byte	0xafb
 2208 0ada 1C       		.uleb128 0x1c
 2209 0adb 73647000 		.ascii	"sdp\000"
 2210 0adf 01       		.byte	0x1
 2211 0ae0 87       		.byte	0x87
ARM GAS  C:\Users\danit\AppData\Local\Temp\ccBoNNmX.s 			page 40


 2212 0ae1 410A0000 		.4byte	0xa41
 2213 0ae5 1C       		.uleb128 0x1c
 2214 0ae6 737200   		.ascii	"sr\000"
 2215 0ae9 01       		.byte	0x1
 2216 0aea 87       		.byte	0x87
 2217 0aeb AD000000 		.4byte	0xad
 2218 0aef 1E       		.uleb128 0x1e
 2219 0af0 73747300 		.ascii	"sts\000"
 2220 0af4 01       		.byte	0x1
 2221 0af5 88       		.byte	0x88
 2222 0af6 2D010000 		.4byte	0x12d
 2223 0afa 00       		.byte	0
 2224 0afb 1F       		.uleb128 0x1f
 2225 0afc 89040000 		.4byte	.LASF141
 2226 0b00 01       		.byte	0x1
 2227 0b01 9A       		.byte	0x9a
 2228 0b02 00000000 		.4byte	.LFB121
 2229 0b06 04010000 		.4byte	.LFE121-.LFB121
 2230 0b0a 01       		.uleb128 0x1
 2231 0b0b 9C       		.byte	0x9c
 2232 0b0c DF0C0000 		.4byte	0xcdf
 2233 0b10 21       		.uleb128 0x21
 2234 0b11 73647000 		.ascii	"sdp\000"
 2235 0b15 01       		.byte	0x1
 2236 0b16 9A       		.byte	0x9a
 2237 0b17 410A0000 		.4byte	0xa41
 2238 0b1b 00000000 		.4byte	.LLST0
 2239 0b1f 22       		.uleb128 0x22
 2240 0b20 7500     		.ascii	"u\000"
 2241 0b22 01       		.byte	0x1
 2242 0b23 9B       		.byte	0x9b
 2243 0b24 090A0000 		.4byte	0xa09
 2244 0b28 01       		.uleb128 0x1
 2245 0b29 55       		.byte	0x55
 2246 0b2a 22       		.uleb128 0x22
 2247 0b2b 63723100 		.ascii	"cr1\000"
 2248 0b2f 01       		.byte	0x1
 2249 0b30 9C       		.byte	0x9c
 2250 0b31 AD000000 		.4byte	0xad
 2251 0b35 01       		.uleb128 0x1
 2252 0b36 58       		.byte	0x58
 2253 0b37 23       		.uleb128 0x23
 2254 0b38 737200   		.ascii	"sr\000"
 2255 0b3b 01       		.byte	0x1
 2256 0b3c 9D       		.byte	0x9d
 2257 0b3d AD000000 		.4byte	0xad
 2258 0b41 34000000 		.4byte	.LLST1
 2259 0b45 24       		.uleb128 0x24
 2260 0b46 16000000 		.4byte	.LBB15
 2261 0b4a 06000000 		.4byte	.LBE15-.LBB15
 2262 0b4e 600B0000 		.4byte	0xb60
 2263 0b52 22       		.uleb128 0x22
 2264 0b53 746D7000 		.ascii	"tmp\000"
 2265 0b57 01       		.byte	0x1
 2266 0b58 A8       		.byte	0xa8
 2267 0b59 C3000000 		.4byte	0xc3
 2268 0b5d 01       		.uleb128 0x1
ARM GAS  C:\Users\danit\AppData\Local\Temp\ccBoNNmX.s 			page 41


 2269 0b5e 53       		.byte	0x53
 2270 0b5f 00       		.byte	0
 2271 0b60 25       		.uleb128 0x25
 2272 0b61 CE0A0000 		.4byte	0xace
 2273 0b65 20000000 		.4byte	.LBB16
 2274 0b69 00000000 		.4byte	.Ldebug_ranges0+0
 2275 0b6d 01       		.byte	0x1
 2276 0b6e AC       		.byte	0xac
 2277 0b6f A10B0000 		.4byte	0xba1
 2278 0b73 26       		.uleb128 0x26
 2279 0b74 E50A0000 		.4byte	0xae5
 2280 0b78 5D000000 		.4byte	.LLST2
 2281 0b7c 27       		.uleb128 0x27
 2282 0b7d DA0A0000 		.4byte	0xada
 2283 0b81 28       		.uleb128 0x28
 2284 0b82 00000000 		.4byte	.Ldebug_ranges0+0
 2285 0b86 29       		.uleb128 0x29
 2286 0b87 EF0A0000 		.4byte	0xaef
 2287 0b8b 70000000 		.4byte	.LLST3
 2288 0b8f 2A       		.uleb128 0x2a
 2289 0b90 64000000 		.4byte	.LVL16
 2290 0b94 810F0000 		.4byte	0xf81
 2291 0b98 2B       		.uleb128 0x2b
 2292 0b99 01       		.uleb128 0x1
 2293 0b9a 50       		.byte	0x50
 2294 0b9b 02       		.uleb128 0x2
 2295 0b9c 77       		.byte	0x77
 2296 0b9d 00       		.sleb128 0
 2297 0b9e 00       		.byte	0
 2298 0b9f 00       		.byte	0
 2299 0ba0 00       		.byte	0
 2300 0ba1 24       		.uleb128 0x24
 2301 0ba2 66000000 		.4byte	.LBB20
 2302 0ba6 06000000 		.4byte	.LBE20-.LBB20
 2303 0baa BC0B0000 		.4byte	0xbbc
 2304 0bae 22       		.uleb128 0x22
 2305 0baf 746D7000 		.ascii	"tmp\000"
 2306 0bb3 01       		.byte	0x1
 2307 0bb4 B0       		.byte	0xb0
 2308 0bb5 C3000000 		.4byte	0xc3
 2309 0bb9 01       		.uleb128 0x1
 2310 0bba 53       		.byte	0x53
 2311 0bbb 00       		.byte	0
 2312 0bbc 24       		.uleb128 0x24
 2313 0bbd 7A000000 		.4byte	.LBB21
 2314 0bc1 06000000 		.4byte	.LBE21-.LBB21
 2315 0bc5 D70B0000 		.4byte	0xbd7
 2316 0bc9 22       		.uleb128 0x22
 2317 0bca 746D7000 		.ascii	"tmp\000"
 2318 0bce 01       		.byte	0x1
 2319 0bcf C2       		.byte	0xc2
 2320 0bd0 C3000000 		.4byte	0xc3
 2321 0bd4 01       		.uleb128 0x1
 2322 0bd5 53       		.byte	0x53
 2323 0bd6 00       		.byte	0
 2324 0bd7 2C       		.uleb128 0x2c
 2325 0bd8 18000000 		.4byte	.Ldebug_ranges0+0x18
ARM GAS  C:\Users\danit\AppData\Local\Temp\ccBoNNmX.s 			page 42


 2326 0bdc EE0B0000 		.4byte	0xbee
 2327 0be0 22       		.uleb128 0x22
 2328 0be1 746D7000 		.ascii	"tmp\000"
 2329 0be5 01       		.byte	0x1
 2330 0be6 C7       		.byte	0xc7
 2331 0be7 C3000000 		.4byte	0xc3
 2332 0beb 01       		.uleb128 0x1
 2333 0bec 53       		.byte	0x53
 2334 0bed 00       		.byte	0
 2335 0bee 24       		.uleb128 0x24
 2336 0bef A4000000 		.4byte	.LBB24
 2337 0bf3 06000000 		.4byte	.LBE24-.LBB24
 2338 0bf7 090C0000 		.4byte	0xc09
 2339 0bfb 22       		.uleb128 0x22
 2340 0bfc 746D7000 		.ascii	"tmp\000"
 2341 0c00 01       		.byte	0x1
 2342 0c01 A1       		.byte	0xa1
 2343 0c02 C3000000 		.4byte	0xc3
 2344 0c06 01       		.uleb128 0x1
 2345 0c07 53       		.byte	0x53
 2346 0c08 00       		.byte	0
 2347 0c09 24       		.uleb128 0x24
 2348 0c0a B4000000 		.4byte	.LBB25
 2349 0c0e 06000000 		.4byte	.LBE25-.LBB25
 2350 0c12 240C0000 		.4byte	0xc24
 2351 0c16 22       		.uleb128 0x22
 2352 0c17 746D7000 		.ascii	"tmp\000"
 2353 0c1b 01       		.byte	0x1
 2354 0c1c A3       		.byte	0xa3
 2355 0c1d C3000000 		.4byte	0xc3
 2356 0c21 01       		.uleb128 0x1
 2357 0c22 53       		.byte	0x53
 2358 0c23 00       		.byte	0
 2359 0c24 2C       		.uleb128 0x2c
 2360 0c25 30000000 		.4byte	.Ldebug_ranges0+0x30
 2361 0c29 9A0C0000 		.4byte	0xc9a
 2362 0c2d 23       		.uleb128 0x23
 2363 0c2e 6200     		.ascii	"b\000"
 2364 0c30 01       		.byte	0x1
 2365 0c31 B4       		.byte	0xb4
 2366 0c32 17010000 		.4byte	0x117
 2367 0c36 8F000000 		.4byte	.LLST4
 2368 0c3a 24       		.uleb128 0x24
 2369 0c3b C2000000 		.4byte	.LBB27
 2370 0c3f 06000000 		.4byte	.LBE27-.LBB27
 2371 0c43 550C0000 		.4byte	0xc55
 2372 0c47 22       		.uleb128 0x22
 2373 0c48 746D7000 		.ascii	"tmp\000"
 2374 0c4c 01       		.byte	0x1
 2375 0c4d B5       		.byte	0xb5
 2376 0c4e C3000000 		.4byte	0xc3
 2377 0c52 01       		.uleb128 0x1
 2378 0c53 53       		.byte	0x53
 2379 0c54 00       		.byte	0
 2380 0c55 24       		.uleb128 0x24
 2381 0c56 D8000000 		.4byte	.LBB28
 2382 0c5a 08000000 		.4byte	.LBE28-.LBB28
ARM GAS  C:\Users\danit\AppData\Local\Temp\ccBoNNmX.s 			page 43


 2383 0c5e 700C0000 		.4byte	0xc70
 2384 0c62 22       		.uleb128 0x22
 2385 0c63 746D7000 		.ascii	"tmp\000"
 2386 0c67 01       		.byte	0x1
 2387 0c68 BD       		.byte	0xbd
 2388 0c69 C3000000 		.4byte	0xc3
 2389 0c6d 01       		.uleb128 0x1
 2390 0c6e 53       		.byte	0x53
 2391 0c6f 00       		.byte	0
 2392 0c70 2D       		.uleb128 0x2d
 2393 0c71 D0000000 		.4byte	.LVL22
 2394 0c75 9D0F0000 		.4byte	0xf9d
 2395 0c79 840C0000 		.4byte	0xc84
 2396 0c7d 2B       		.uleb128 0x2b
 2397 0c7e 01       		.uleb128 0x1
 2398 0c7f 50       		.byte	0x50
 2399 0c80 02       		.uleb128 0x2
 2400 0c81 76       		.byte	0x76
 2401 0c82 30       		.sleb128 48
 2402 0c83 00       		.byte	0
 2403 0c84 2A       		.uleb128 0x2a
 2404 0c85 F8000000 		.4byte	.LVL27
 2405 0c89 810F0000 		.4byte	0xf81
 2406 0c8d 2B       		.uleb128 0x2b
 2407 0c8e 01       		.uleb128 0x1
 2408 0c8f 51       		.byte	0x51
 2409 0c90 01       		.uleb128 0x1
 2410 0c91 38       		.byte	0x38
 2411 0c92 2B       		.uleb128 0x2b
 2412 0c93 01       		.uleb128 0x1
 2413 0c94 50       		.byte	0x50
 2414 0c95 02       		.uleb128 0x2
 2415 0c96 76       		.byte	0x76
 2416 0c97 04       		.sleb128 4
 2417 0c98 00       		.byte	0
 2418 0c99 00       		.byte	0
 2419 0c9a 2D       		.uleb128 0x2d
 2420 0c9b 2E000000 		.4byte	.LVL8
 2421 0c9f B30F0000 		.4byte	0xfb3
 2422 0ca3 AE0C0000 		.4byte	0xcae
 2423 0ca7 2B       		.uleb128 0x2b
 2424 0ca8 01       		.uleb128 0x1
 2425 0ca9 50       		.byte	0x50
 2426 0caa 02       		.uleb128 0x2
 2427 0cab 76       		.byte	0x76
 2428 0cac 00       		.sleb128 0
 2429 0cad 00       		.byte	0
 2430 0cae 2D       		.uleb128 0x2d
 2431 0caf B4000000 		.4byte	.LVL21
 2432 0cb3 810F0000 		.4byte	0xf81
 2433 0cb7 C90C0000 		.4byte	0xcc9
 2434 0cbb 2B       		.uleb128 0x2b
 2435 0cbc 01       		.uleb128 0x1
 2436 0cbd 51       		.byte	0x51
 2437 0cbe 03       		.uleb128 0x3
 2438 0cbf 0A       		.byte	0xa
 2439 0cc0 0002     		.2byte	0x200
ARM GAS  C:\Users\danit\AppData\Local\Temp\ccBoNNmX.s 			page 44


 2440 0cc2 2B       		.uleb128 0x2b
 2441 0cc3 01       		.uleb128 0x1
 2442 0cc4 50       		.byte	0x50
 2443 0cc5 02       		.uleb128 0x2
 2444 0cc6 76       		.byte	0x76
 2445 0cc7 04       		.sleb128 4
 2446 0cc8 00       		.byte	0
 2447 0cc9 2A       		.uleb128 0x2a
 2448 0cca EE000000 		.4byte	.LVL24
 2449 0cce 810F0000 		.4byte	0xf81
 2450 0cd2 2B       		.uleb128 0x2b
 2451 0cd3 01       		.uleb128 0x1
 2452 0cd4 51       		.byte	0x51
 2453 0cd5 01       		.uleb128 0x1
 2454 0cd6 40       		.byte	0x40
 2455 0cd7 2B       		.uleb128 0x2b
 2456 0cd8 01       		.uleb128 0x1
 2457 0cd9 50       		.byte	0x50
 2458 0cda 02       		.uleb128 0x2
 2459 0cdb 76       		.byte	0x76
 2460 0cdc 04       		.sleb128 4
 2461 0cdd 00       		.byte	0
 2462 0cde 00       		.byte	0
 2463 0cdf 2E       		.uleb128 0x2e
 2464 0ce0 76020000 		.4byte	.LASF142
 2465 0ce4 01       		.byte	0x1
 2466 0ce5 0801     		.2byte	0x108
 2467 0ce7 00000000 		.4byte	.LFB125
 2468 0ceb 14000000 		.4byte	.LFE125-.LFB125
 2469 0cef 01       		.uleb128 0x1
 2470 0cf0 9C       		.byte	0x9c
 2471 0cf1 160D0000 		.4byte	0xd16
 2472 0cf5 2D       		.uleb128 0x2d
 2473 0cf6 08000000 		.4byte	.LVL28
 2474 0cfa FB0A0000 		.4byte	0xafb
 2475 0cfe 0C0D0000 		.4byte	0xd0c
 2476 0d02 2B       		.uleb128 0x2b
 2477 0d03 01       		.uleb128 0x1
 2478 0d04 50       		.byte	0x50
 2479 0d05 05       		.uleb128 0x5
 2480 0d06 03       		.byte	0x3
 2481 0d07 00000000 		.4byte	.LANCHOR0
 2482 0d0b 00       		.byte	0
 2483 0d0c 2F       		.uleb128 0x2f
 2484 0d0d 10000000 		.4byte	.LVL29
 2485 0d11 CA0F0000 		.4byte	0xfca
 2486 0d15 00       		.byte	0
 2487 0d16 2E       		.uleb128 0x2e
 2488 0d17 85020000 		.4byte	.LASF143
 2489 0d1b 01       		.byte	0x1
 2490 0d1c 1B01     		.2byte	0x11b
 2491 0d1e 00000000 		.4byte	.LFB126
 2492 0d22 14000000 		.4byte	.LFE126-.LFB126
 2493 0d26 01       		.uleb128 0x1
 2494 0d27 9C       		.byte	0x9c
 2495 0d28 4D0D0000 		.4byte	0xd4d
 2496 0d2c 2D       		.uleb128 0x2d
ARM GAS  C:\Users\danit\AppData\Local\Temp\ccBoNNmX.s 			page 45


 2497 0d2d 08000000 		.4byte	.LVL30
 2498 0d31 FB0A0000 		.4byte	0xafb
 2499 0d35 430D0000 		.4byte	0xd43
 2500 0d39 2B       		.uleb128 0x2b
 2501 0d3a 01       		.uleb128 0x1
 2502 0d3b 50       		.byte	0x50
 2503 0d3c 05       		.uleb128 0x5
 2504 0d3d 03       		.byte	0x3
 2505 0d3e 00000000 		.4byte	.LANCHOR1
 2506 0d42 00       		.byte	0
 2507 0d43 2F       		.uleb128 0x2f
 2508 0d44 10000000 		.4byte	.LVL31
 2509 0d48 CA0F0000 		.4byte	0xfca
 2510 0d4c 00       		.byte	0
 2511 0d4d 2E       		.uleb128 0x2e
 2512 0d4e A5020000 		.4byte	.LASF144
 2513 0d52 01       		.byte	0x1
 2514 0d53 2E01     		.2byte	0x12e
 2515 0d55 00000000 		.4byte	.LFB127
 2516 0d59 14000000 		.4byte	.LFE127-.LFB127
 2517 0d5d 01       		.uleb128 0x1
 2518 0d5e 9C       		.byte	0x9c
 2519 0d5f 840D0000 		.4byte	0xd84
 2520 0d63 2D       		.uleb128 0x2d
 2521 0d64 08000000 		.4byte	.LVL32
 2522 0d68 FB0A0000 		.4byte	0xafb
 2523 0d6c 7A0D0000 		.4byte	0xd7a
 2524 0d70 2B       		.uleb128 0x2b
 2525 0d71 01       		.uleb128 0x1
 2526 0d72 50       		.byte	0x50
 2527 0d73 05       		.uleb128 0x5
 2528 0d74 03       		.byte	0x3
 2529 0d75 00000000 		.4byte	.LANCHOR2
 2530 0d79 00       		.byte	0
 2531 0d7a 2F       		.uleb128 0x2f
 2532 0d7b 10000000 		.4byte	.LVL33
 2533 0d7f CA0F0000 		.4byte	0xfca
 2534 0d83 00       		.byte	0
 2535 0d84 2E       		.uleb128 0x2e
 2536 0d85 E2010000 		.4byte	.LASF145
 2537 0d89 01       		.byte	0x1
 2538 0d8a 7A01     		.2byte	0x17a
 2539 0d8c 00000000 		.4byte	.LFB128
 2540 0d90 58000000 		.4byte	.LFE128-.LFB128
 2541 0d94 01       		.uleb128 0x1
 2542 0d95 9C       		.byte	0x9c
 2543 0d96 FD0D0000 		.4byte	0xdfd
 2544 0d9a 2D       		.uleb128 0x2d
 2545 0d9b 12000000 		.4byte	.LVL34
 2546 0d9f D20F0000 		.4byte	0xfd2
 2547 0da3 BC0D0000 		.4byte	0xdbc
 2548 0da7 2B       		.uleb128 0x2b
 2549 0da8 01       		.uleb128 0x1
 2550 0da9 52       		.byte	0x52
 2551 0daa 05       		.uleb128 0x5
 2552 0dab 03       		.byte	0x3
 2553 0dac 00000000 		.4byte	notify1
ARM GAS  C:\Users\danit\AppData\Local\Temp\ccBoNNmX.s 			page 46


 2554 0db0 2B       		.uleb128 0x2b
 2555 0db1 01       		.uleb128 0x1
 2556 0db2 51       		.byte	0x51
 2557 0db3 01       		.uleb128 0x1
 2558 0db4 30       		.byte	0x30
 2559 0db5 2B       		.uleb128 0x2b
 2560 0db6 01       		.uleb128 0x1
 2561 0db7 50       		.byte	0x50
 2562 0db8 02       		.uleb128 0x2
 2563 0db9 76       		.byte	0x76
 2564 0dba 00       		.sleb128 0
 2565 0dbb 00       		.byte	0
 2566 0dbc 2D       		.uleb128 0x2d
 2567 0dbd 20000000 		.4byte	.LVL35
 2568 0dc1 D20F0000 		.4byte	0xfd2
 2569 0dc5 DE0D0000 		.4byte	0xdde
 2570 0dc9 2B       		.uleb128 0x2b
 2571 0dca 01       		.uleb128 0x1
 2572 0dcb 52       		.byte	0x52
 2573 0dcc 05       		.uleb128 0x5
 2574 0dcd 03       		.byte	0x3
 2575 0dce 00000000 		.4byte	notify2
 2576 0dd2 2B       		.uleb128 0x2b
 2577 0dd3 01       		.uleb128 0x1
 2578 0dd4 51       		.byte	0x51
 2579 0dd5 01       		.uleb128 0x1
 2580 0dd6 30       		.byte	0x30
 2581 0dd7 2B       		.uleb128 0x2b
 2582 0dd8 01       		.uleb128 0x1
 2583 0dd9 50       		.byte	0x50
 2584 0dda 02       		.uleb128 0x2
 2585 0ddb 75       		.byte	0x75
 2586 0ddc 00       		.sleb128 0
 2587 0ddd 00       		.byte	0
 2588 0dde 2A       		.uleb128 0x2a
 2589 0ddf 2E000000 		.4byte	.LVL36
 2590 0de3 D20F0000 		.4byte	0xfd2
 2591 0de7 2B       		.uleb128 0x2b
 2592 0de8 01       		.uleb128 0x1
 2593 0de9 52       		.byte	0x52
 2594 0dea 05       		.uleb128 0x5
 2595 0deb 03       		.byte	0x3
 2596 0dec 00000000 		.4byte	notify3
 2597 0df0 2B       		.uleb128 0x2b
 2598 0df1 01       		.uleb128 0x1
 2599 0df2 51       		.byte	0x51
 2600 0df3 01       		.uleb128 0x1
 2601 0df4 30       		.byte	0x30
 2602 0df5 2B       		.uleb128 0x2b
 2603 0df6 01       		.uleb128 0x1
 2604 0df7 50       		.byte	0x50
 2605 0df8 02       		.uleb128 0x2
 2606 0df9 74       		.byte	0x74
 2607 0dfa 00       		.sleb128 0
 2608 0dfb 00       		.byte	0
 2609 0dfc 00       		.byte	0
 2610 0dfd 2E       		.uleb128 0x2e
ARM GAS  C:\Users\danit\AppData\Local\Temp\ccBoNNmX.s 			page 47


 2611 0dfe 00040000 		.4byte	.LASF146
 2612 0e02 01       		.byte	0x1
 2613 0e03 A501     		.2byte	0x1a5
 2614 0e05 00000000 		.4byte	.LFB129
 2615 0e09 D8000000 		.4byte	.LFE129-.LFB129
 2616 0e0d 01       		.uleb128 0x1
 2617 0e0e 9C       		.byte	0x9c
 2618 0e0f B40E0000 		.4byte	0xeb4
 2619 0e13 30       		.uleb128 0x30
 2620 0e14 73647000 		.ascii	"sdp\000"
 2621 0e18 01       		.byte	0x1
 2622 0e19 A501     		.2byte	0x1a5
 2623 0e1b 410A0000 		.4byte	0xa41
 2624 0e1f AD000000 		.4byte	.LLST5
 2625 0e23 31       		.uleb128 0x31
 2626 0e24 16050000 		.4byte	.LASF134
 2627 0e28 01       		.byte	0x1
 2628 0e29 A501     		.2byte	0x1a5
 2629 0e2b 470A0000 		.4byte	0xa47
 2630 0e2f 0D010000 		.4byte	.LLST6
 2631 0e33 32       		.uleb128 0x32
 2632 0e34 150A0000 		.4byte	0xa15
 2633 0e38 14000000 		.4byte	.LBB32
 2634 0e3c 48000000 		.4byte	.Ldebug_ranges0+0x48
 2635 0e40 01       		.byte	0x1
 2636 0e41 D601     		.2byte	0x1d6
 2637 0e43 690E0000 		.4byte	0xe69
 2638 0e47 26       		.uleb128 0x26
 2639 0e48 210A0000 		.4byte	0xa21
 2640 0e4c 53010000 		.4byte	.LLST7
 2641 0e50 26       		.uleb128 0x26
 2642 0e51 2C0A0000 		.4byte	0xa2c
 2643 0e55 71010000 		.4byte	.LLST8
 2644 0e59 28       		.uleb128 0x28
 2645 0e5a 48000000 		.4byte	.Ldebug_ranges0+0x48
 2646 0e5e 29       		.uleb128 0x29
 2647 0e5f 370A0000 		.4byte	0xa37
 2648 0e63 AC010000 		.4byte	.LLST9
 2649 0e67 00       		.byte	0
 2650 0e68 00       		.byte	0
 2651 0e69 2D       		.uleb128 0x2d
 2652 0e6a 7E000000 		.4byte	.LVL45
 2653 0e6e EE0F0000 		.4byte	0xfee
 2654 0e72 830E0000 		.4byte	0xe83
 2655 0e76 2B       		.uleb128 0x2b
 2656 0e77 01       		.uleb128 0x1
 2657 0e78 51       		.byte	0x51
 2658 0e79 02       		.uleb128 0x2
 2659 0e7a 08       		.byte	0x8
 2660 0e7b C0       		.byte	0xc0
 2661 0e7c 2B       		.uleb128 0x2b
 2662 0e7d 01       		.uleb128 0x1
 2663 0e7e 50       		.byte	0x50
 2664 0e7f 02       		.uleb128 0x2
 2665 0e80 08       		.byte	0x8
 2666 0e81 27       		.byte	0x27
 2667 0e82 00       		.byte	0
ARM GAS  C:\Users\danit\AppData\Local\Temp\ccBoNNmX.s 			page 48


 2668 0e83 2D       		.uleb128 0x2d
 2669 0e84 A0000000 		.4byte	.LVL49
 2670 0e88 EE0F0000 		.4byte	0xfee
 2671 0e8c 9D0E0000 		.4byte	0xe9d
 2672 0e90 2B       		.uleb128 0x2b
 2673 0e91 01       		.uleb128 0x1
 2674 0e92 51       		.byte	0x51
 2675 0e93 02       		.uleb128 0x2
 2676 0e94 08       		.byte	0x8
 2677 0e95 C0       		.byte	0xc0
 2678 0e96 2B       		.uleb128 0x2b
 2679 0e97 01       		.uleb128 0x1
 2680 0e98 50       		.byte	0x50
 2681 0e99 02       		.uleb128 0x2
 2682 0e9a 08       		.byte	0x8
 2683 0e9b 25       		.byte	0x25
 2684 0e9c 00       		.byte	0
 2685 0e9d 2A       		.uleb128 0x2a
 2686 0e9e B4000000 		.4byte	.LVL52
 2687 0ea2 EE0F0000 		.4byte	0xfee
 2688 0ea6 2B       		.uleb128 0x2b
 2689 0ea7 01       		.uleb128 0x1
 2690 0ea8 51       		.byte	0x51
 2691 0ea9 02       		.uleb128 0x2
 2692 0eaa 08       		.byte	0x8
 2693 0eab C0       		.byte	0xc0
 2694 0eac 2B       		.uleb128 0x2b
 2695 0ead 01       		.uleb128 0x1
 2696 0eae 50       		.byte	0x50
 2697 0eaf 02       		.uleb128 0x2
 2698 0eb0 08       		.byte	0x8
 2699 0eb1 26       		.byte	0x26
 2700 0eb2 00       		.byte	0
 2701 0eb3 00       		.byte	0
 2702 0eb4 2E       		.uleb128 0x2e
 2703 0eb5 D0060000 		.4byte	.LASF147
 2704 0eb9 01       		.byte	0x1
 2705 0eba E201     		.2byte	0x1e2
 2706 0ebc 00000000 		.4byte	.LFB130
 2707 0ec0 64000000 		.4byte	.LFE130-.LFB130
 2708 0ec4 01       		.uleb128 0x1
 2709 0ec5 9C       		.byte	0x9c
 2710 0ec6 310F0000 		.4byte	0xf31
 2711 0eca 30       		.uleb128 0x30
 2712 0ecb 73647000 		.ascii	"sdp\000"
 2713 0ecf 01       		.byte	0x1
 2714 0ed0 E201     		.2byte	0x1e2
 2715 0ed2 410A0000 		.4byte	0xa41
 2716 0ed6 D7010000 		.4byte	.LLST10
 2717 0eda 32       		.uleb128 0x32
 2718 0edb 520A0000 		.4byte	0xa52
 2719 0edf 0C000000 		.4byte	.LBB36
 2720 0ee3 60000000 		.4byte	.Ldebug_ranges0+0x60
 2721 0ee7 01       		.byte	0x1
 2722 0ee8 E501     		.2byte	0x1e5
 2723 0eea F80E0000 		.4byte	0xef8
 2724 0eee 26       		.uleb128 0x26
ARM GAS  C:\Users\danit\AppData\Local\Temp\ccBoNNmX.s 			page 49


 2725 0eef 5E0A0000 		.4byte	0xa5e
 2726 0ef3 2A020000 		.4byte	.LLST11
 2727 0ef7 00       		.byte	0
 2728 0ef8 33       		.uleb128 0x33
 2729 0ef9 34000000 		.4byte	.LVL57
 2730 0efd 05100000 		.4byte	0x1005
 2731 0f01 0C0F0000 		.4byte	0xf0c
 2732 0f05 2B       		.uleb128 0x2b
 2733 0f06 01       		.uleb128 0x1
 2734 0f07 50       		.byte	0x50
 2735 0f08 02       		.uleb128 0x2
 2736 0f09 08       		.byte	0x8
 2737 0f0a 27       		.byte	0x27
 2738 0f0b 00       		.byte	0
 2739 0f0c 33       		.uleb128 0x33
 2740 0f0d 44000000 		.4byte	.LVL60
 2741 0f11 05100000 		.4byte	0x1005
 2742 0f15 200F0000 		.4byte	0xf20
 2743 0f19 2B       		.uleb128 0x2b
 2744 0f1a 01       		.uleb128 0x1
 2745 0f1b 50       		.byte	0x50
 2746 0f1c 02       		.uleb128 0x2
 2747 0f1d 08       		.byte	0x8
 2748 0f1e 25       		.byte	0x25
 2749 0f1f 00       		.byte	0
 2750 0f20 34       		.uleb128 0x34
 2751 0f21 54000000 		.4byte	.LVL62
 2752 0f25 05100000 		.4byte	0x1005
 2753 0f29 2B       		.uleb128 0x2b
 2754 0f2a 01       		.uleb128 0x1
 2755 0f2b 50       		.byte	0x50
 2756 0f2c 02       		.uleb128 0x2
 2757 0f2d 08       		.byte	0x8
 2758 0f2e 26       		.byte	0x26
 2759 0f2f 00       		.byte	0
 2760 0f30 00       		.byte	0
 2761 0f31 35       		.uleb128 0x35
 2762 0f32 F0000000 		.4byte	.LASF148
 2763 0f36 01       		.byte	0x1
 2764 0f37 49       		.byte	0x49
 2765 0f38 4D0A0000 		.4byte	0xa4d
 2766 0f3c 05       		.uleb128 0x5
 2767 0f3d 03       		.byte	0x3
 2768 0f3e 00000000 		.4byte	default_config
 2769 0f42 36       		.uleb128 0x36
 2770 0f43 5F000000 		.4byte	.LASF149
 2771 0f47 10       		.byte	0x10
 2772 0f48 9806     		.2byte	0x698
 2773 0f4a 9C050000 		.4byte	0x59c
 2774 0f4e 37       		.uleb128 0x37
 2775 0f4f 53443100 		.ascii	"SD1\000"
 2776 0f53 01       		.byte	0x1
 2777 0f54 28       		.byte	0x28
 2778 0f55 C7080000 		.4byte	0x8c7
 2779 0f59 05       		.uleb128 0x5
 2780 0f5a 03       		.byte	0x3
 2781 0f5b 00000000 		.4byte	SD1
ARM GAS  C:\Users\danit\AppData\Local\Temp\ccBoNNmX.s 			page 50


 2782 0f5f 37       		.uleb128 0x37
 2783 0f60 53443200 		.ascii	"SD2\000"
 2784 0f64 01       		.byte	0x1
 2785 0f65 2D       		.byte	0x2d
 2786 0f66 C7080000 		.4byte	0x8c7
 2787 0f6a 05       		.uleb128 0x5
 2788 0f6b 03       		.byte	0x3
 2789 0f6c 00000000 		.4byte	SD2
 2790 0f70 37       		.uleb128 0x37
 2791 0f71 53443300 		.ascii	"SD3\000"
 2792 0f75 01       		.byte	0x1
 2793 0f76 32       		.byte	0x32
 2794 0f77 C7080000 		.4byte	0x8c7
 2795 0f7b 05       		.uleb128 0x5
 2796 0f7c 03       		.byte	0x3
 2797 0f7d 00000000 		.4byte	SD3
 2798 0f81 38       		.uleb128 0x38
 2799 0f82 52010000 		.4byte	.LASF150
 2800 0f86 0A       		.byte	0xa
 2801 0f87 BA       		.byte	0xba
 2802 0f88 970F0000 		.4byte	0xf97
 2803 0f8c 12       		.uleb128 0x12
 2804 0f8d 970F0000 		.4byte	0xf97
 2805 0f91 12       		.uleb128 0x12
 2806 0f92 2D010000 		.4byte	0x12d
 2807 0f96 00       		.byte	0
 2808 0f97 09       		.uleb128 0x9
 2809 0f98 04       		.byte	0x4
 2810 0f99 01040000 		.4byte	0x401
 2811 0f9d 39       		.uleb128 0x39
 2812 0f9e 2A010000 		.4byte	.LASF157
 2813 0fa2 0B       		.byte	0xb
 2814 0fa3 6E01     		.2byte	0x16e
 2815 0fa5 17010000 		.4byte	0x117
 2816 0fa9 B30F0000 		.4byte	0xfb3
 2817 0fad 12       		.uleb128 0x12
 2818 0fae 0F0A0000 		.4byte	0xa0f
 2819 0fb2 00       		.byte	0
 2820 0fb3 3A       		.uleb128 0x3a
 2821 0fb4 06050000 		.4byte	.LASF151
 2822 0fb8 0D       		.byte	0xd
 2823 0fb9 3901     		.2byte	0x139
 2824 0fbb CA0F0000 		.4byte	0xfca
 2825 0fbf 12       		.uleb128 0x12
 2826 0fc0 410A0000 		.4byte	0xa41
 2827 0fc4 12       		.uleb128 0x12
 2828 0fc5 A2000000 		.4byte	0xa2
 2829 0fc9 00       		.byte	0
 2830 0fca 3B       		.uleb128 0x3b
 2831 0fcb 24020000 		.4byte	.LASF158
 2832 0fcf 08       		.byte	0x8
 2833 0fd0 0302     		.2byte	0x203
 2834 0fd2 3A       		.uleb128 0x3a
 2835 0fd3 76000000 		.4byte	.LASF152
 2836 0fd7 0D       		.byte	0xd
 2837 0fd8 3601     		.2byte	0x136
 2838 0fda EE0F0000 		.4byte	0xfee
ARM GAS  C:\Users\danit\AppData\Local\Temp\ccBoNNmX.s 			page 51


 2839 0fde 12       		.uleb128 0x12
 2840 0fdf 410A0000 		.4byte	0xa41
 2841 0fe3 12       		.uleb128 0x12
 2842 0fe4 E6040000 		.4byte	0x4e6
 2843 0fe8 12       		.uleb128 0x12
 2844 0fe9 E6040000 		.4byte	0x4e6
 2845 0fed 00       		.byte	0
 2846 0fee 3A       		.uleb128 0x3a
 2847 0fef 00000000 		.4byte	.LASF153
 2848 0ff3 0F       		.byte	0xf
 2849 0ff4 2301     		.2byte	0x123
 2850 0ff6 05100000 		.4byte	0x1005
 2851 0ffa 12       		.uleb128 0x12
 2852 0ffb C3000000 		.4byte	0xc3
 2853 0fff 12       		.uleb128 0x12
 2854 1000 C3000000 		.4byte	0xc3
 2855 1004 00       		.byte	0
 2856 1005 3C       		.uleb128 0x3c
 2857 1006 D8040000 		.4byte	.LASF159
 2858 100a 0F       		.byte	0xf
 2859 100b 2401     		.2byte	0x124
 2860 100d 12       		.uleb128 0x12
 2861 100e C3000000 		.4byte	0xc3
 2862 1012 00       		.byte	0
 2863 1013 00       		.byte	0
 2864              		.section	.debug_abbrev,"",%progbits
 2865              	.Ldebug_abbrev0:
 2866 0000 01       		.uleb128 0x1
 2867 0001 11       		.uleb128 0x11
 2868 0002 01       		.byte	0x1
 2869 0003 25       		.uleb128 0x25
 2870 0004 0E       		.uleb128 0xe
 2871 0005 13       		.uleb128 0x13
 2872 0006 0B       		.uleb128 0xb
 2873 0007 03       		.uleb128 0x3
 2874 0008 0E       		.uleb128 0xe
 2875 0009 1B       		.uleb128 0x1b
 2876 000a 0E       		.uleb128 0xe
 2877 000b 55       		.uleb128 0x55
 2878 000c 17       		.uleb128 0x17
 2879 000d 11       		.uleb128 0x11
 2880 000e 01       		.uleb128 0x1
 2881 000f 10       		.uleb128 0x10
 2882 0010 17       		.uleb128 0x17
 2883 0011 00       		.byte	0
 2884 0012 00       		.byte	0
 2885 0013 02       		.uleb128 0x2
 2886 0014 24       		.uleb128 0x24
 2887 0015 00       		.byte	0
 2888 0016 0B       		.uleb128 0xb
 2889 0017 0B       		.uleb128 0xb
 2890 0018 3E       		.uleb128 0x3e
 2891 0019 0B       		.uleb128 0xb
 2892 001a 03       		.uleb128 0x3
 2893 001b 08       		.uleb128 0x8
 2894 001c 00       		.byte	0
 2895 001d 00       		.byte	0
ARM GAS  C:\Users\danit\AppData\Local\Temp\ccBoNNmX.s 			page 52


 2896 001e 03       		.uleb128 0x3
 2897 001f 16       		.uleb128 0x16
 2898 0020 00       		.byte	0
 2899 0021 03       		.uleb128 0x3
 2900 0022 0E       		.uleb128 0xe
 2901 0023 3A       		.uleb128 0x3a
 2902 0024 0B       		.uleb128 0xb
 2903 0025 3B       		.uleb128 0x3b
 2904 0026 0B       		.uleb128 0xb
 2905 0027 49       		.uleb128 0x49
 2906 0028 13       		.uleb128 0x13
 2907 0029 00       		.byte	0
 2908 002a 00       		.byte	0
 2909 002b 04       		.uleb128 0x4
 2910 002c 24       		.uleb128 0x24
 2911 002d 00       		.byte	0
 2912 002e 0B       		.uleb128 0xb
 2913 002f 0B       		.uleb128 0xb
 2914 0030 3E       		.uleb128 0x3e
 2915 0031 0B       		.uleb128 0xb
 2916 0032 03       		.uleb128 0x3
 2917 0033 0E       		.uleb128 0xe
 2918 0034 00       		.byte	0
 2919 0035 00       		.byte	0
 2920 0036 05       		.uleb128 0x5
 2921 0037 13       		.uleb128 0x13
 2922 0038 01       		.byte	0x1
 2923 0039 03       		.uleb128 0x3
 2924 003a 0E       		.uleb128 0xe
 2925 003b 0B       		.uleb128 0xb
 2926 003c 0B       		.uleb128 0xb
 2927 003d 3A       		.uleb128 0x3a
 2928 003e 0B       		.uleb128 0xb
 2929 003f 3B       		.uleb128 0x3b
 2930 0040 0B       		.uleb128 0xb
 2931 0041 01       		.uleb128 0x1
 2932 0042 13       		.uleb128 0x13
 2933 0043 00       		.byte	0
 2934 0044 00       		.byte	0
 2935 0045 06       		.uleb128 0x6
 2936 0046 0D       		.uleb128 0xd
 2937 0047 00       		.byte	0
 2938 0048 03       		.uleb128 0x3
 2939 0049 0E       		.uleb128 0xe
 2940 004a 3A       		.uleb128 0x3a
 2941 004b 0B       		.uleb128 0xb
 2942 004c 3B       		.uleb128 0x3b
 2943 004d 0B       		.uleb128 0xb
 2944 004e 49       		.uleb128 0x49
 2945 004f 13       		.uleb128 0x13
 2946 0050 38       		.uleb128 0x38
 2947 0051 0B       		.uleb128 0xb
 2948 0052 00       		.byte	0
 2949 0053 00       		.byte	0
 2950 0054 07       		.uleb128 0x7
 2951 0055 0D       		.uleb128 0xd
 2952 0056 00       		.byte	0
ARM GAS  C:\Users\danit\AppData\Local\Temp\ccBoNNmX.s 			page 53


 2953 0057 03       		.uleb128 0x3
 2954 0058 08       		.uleb128 0x8
 2955 0059 3A       		.uleb128 0x3a
 2956 005a 0B       		.uleb128 0xb
 2957 005b 3B       		.uleb128 0x3b
 2958 005c 0B       		.uleb128 0xb
 2959 005d 49       		.uleb128 0x49
 2960 005e 13       		.uleb128 0x13
 2961 005f 38       		.uleb128 0x38
 2962 0060 0B       		.uleb128 0xb
 2963 0061 00       		.byte	0
 2964 0062 00       		.byte	0
 2965 0063 08       		.uleb128 0x8
 2966 0064 13       		.uleb128 0x13
 2967 0065 01       		.byte	0x1
 2968 0066 0B       		.uleb128 0xb
 2969 0067 0B       		.uleb128 0xb
 2970 0068 3A       		.uleb128 0x3a
 2971 0069 0B       		.uleb128 0xb
 2972 006a 3B       		.uleb128 0x3b
 2973 006b 0B       		.uleb128 0xb
 2974 006c 01       		.uleb128 0x1
 2975 006d 13       		.uleb128 0x13
 2976 006e 00       		.byte	0
 2977 006f 00       		.byte	0
 2978 0070 09       		.uleb128 0x9
 2979 0071 0F       		.uleb128 0xf
 2980 0072 00       		.byte	0
 2981 0073 0B       		.uleb128 0xb
 2982 0074 0B       		.uleb128 0xb
 2983 0075 49       		.uleb128 0x49
 2984 0076 13       		.uleb128 0x13
 2985 0077 00       		.byte	0
 2986 0078 00       		.byte	0
 2987 0079 0A       		.uleb128 0xa
 2988 007a 0F       		.uleb128 0xf
 2989 007b 00       		.byte	0
 2990 007c 0B       		.uleb128 0xb
 2991 007d 0B       		.uleb128 0xb
 2992 007e 00       		.byte	0
 2993 007f 00       		.byte	0
 2994 0080 0B       		.uleb128 0xb
 2995 0081 13       		.uleb128 0x13
 2996 0082 01       		.byte	0x1
 2997 0083 03       		.uleb128 0x3
 2998 0084 0E       		.uleb128 0xe
 2999 0085 0B       		.uleb128 0xb
 3000 0086 0B       		.uleb128 0xb
 3001 0087 3A       		.uleb128 0x3a
 3002 0088 0B       		.uleb128 0xb
 3003 0089 3B       		.uleb128 0x3b
 3004 008a 05       		.uleb128 0x5
 3005 008b 01       		.uleb128 0x1
 3006 008c 13       		.uleb128 0x13
 3007 008d 00       		.byte	0
 3008 008e 00       		.byte	0
 3009 008f 0C       		.uleb128 0xc
ARM GAS  C:\Users\danit\AppData\Local\Temp\ccBoNNmX.s 			page 54


 3010 0090 0D       		.uleb128 0xd
 3011 0091 00       		.byte	0
 3012 0092 03       		.uleb128 0x3
 3013 0093 08       		.uleb128 0x8
 3014 0094 3A       		.uleb128 0x3a
 3015 0095 0B       		.uleb128 0xb
 3016 0096 3B       		.uleb128 0x3b
 3017 0097 05       		.uleb128 0x5
 3018 0098 49       		.uleb128 0x49
 3019 0099 13       		.uleb128 0x13
 3020 009a 38       		.uleb128 0x38
 3021 009b 0B       		.uleb128 0xb
 3022 009c 00       		.byte	0
 3023 009d 00       		.byte	0
 3024 009e 0D       		.uleb128 0xd
 3025 009f 35       		.uleb128 0x35
 3026 00a0 00       		.byte	0
 3027 00a1 49       		.uleb128 0x49
 3028 00a2 13       		.uleb128 0x13
 3029 00a3 00       		.byte	0
 3030 00a4 00       		.byte	0
 3031 00a5 0E       		.uleb128 0xe
 3032 00a6 17       		.uleb128 0x17
 3033 00a7 01       		.byte	0x1
 3034 00a8 0B       		.uleb128 0xb
 3035 00a9 0B       		.uleb128 0xb
 3036 00aa 3A       		.uleb128 0x3a
 3037 00ab 0B       		.uleb128 0xb
 3038 00ac 3B       		.uleb128 0x3b
 3039 00ad 0B       		.uleb128 0xb
 3040 00ae 01       		.uleb128 0x1
 3041 00af 13       		.uleb128 0x13
 3042 00b0 00       		.byte	0
 3043 00b1 00       		.byte	0
 3044 00b2 0F       		.uleb128 0xf
 3045 00b3 0D       		.uleb128 0xd
 3046 00b4 00       		.byte	0
 3047 00b5 03       		.uleb128 0x3
 3048 00b6 0E       		.uleb128 0xe
 3049 00b7 3A       		.uleb128 0x3a
 3050 00b8 0B       		.uleb128 0xb
 3051 00b9 3B       		.uleb128 0x3b
 3052 00ba 0B       		.uleb128 0xb
 3053 00bb 49       		.uleb128 0x49
 3054 00bc 13       		.uleb128 0x13
 3055 00bd 00       		.byte	0
 3056 00be 00       		.byte	0
 3057 00bf 10       		.uleb128 0x10
 3058 00c0 26       		.uleb128 0x26
 3059 00c1 00       		.byte	0
 3060 00c2 49       		.uleb128 0x49
 3061 00c3 13       		.uleb128 0x13
 3062 00c4 00       		.byte	0
 3063 00c5 00       		.byte	0
 3064 00c6 11       		.uleb128 0x11
 3065 00c7 15       		.uleb128 0x15
 3066 00c8 01       		.byte	0x1
ARM GAS  C:\Users\danit\AppData\Local\Temp\ccBoNNmX.s 			page 55


 3067 00c9 27       		.uleb128 0x27
 3068 00ca 19       		.uleb128 0x19
 3069 00cb 49       		.uleb128 0x49
 3070 00cc 13       		.uleb128 0x13
 3071 00cd 01       		.uleb128 0x1
 3072 00ce 13       		.uleb128 0x13
 3073 00cf 00       		.byte	0
 3074 00d0 00       		.byte	0
 3075 00d1 12       		.uleb128 0x12
 3076 00d2 05       		.uleb128 0x5
 3077 00d3 00       		.byte	0
 3078 00d4 49       		.uleb128 0x49
 3079 00d5 13       		.uleb128 0x13
 3080 00d6 00       		.byte	0
 3081 00d7 00       		.byte	0
 3082 00d8 13       		.uleb128 0x13
 3083 00d9 15       		.uleb128 0x15
 3084 00da 01       		.byte	0x1
 3085 00db 27       		.uleb128 0x27
 3086 00dc 19       		.uleb128 0x19
 3087 00dd 01       		.uleb128 0x1
 3088 00de 13       		.uleb128 0x13
 3089 00df 00       		.byte	0
 3090 00e0 00       		.byte	0
 3091 00e1 14       		.uleb128 0x14
 3092 00e2 01       		.uleb128 0x1
 3093 00e3 01       		.byte	0x1
 3094 00e4 49       		.uleb128 0x49
 3095 00e5 13       		.uleb128 0x13
 3096 00e6 01       		.uleb128 0x1
 3097 00e7 13       		.uleb128 0x13
 3098 00e8 00       		.byte	0
 3099 00e9 00       		.byte	0
 3100 00ea 15       		.uleb128 0x15
 3101 00eb 21       		.uleb128 0x21
 3102 00ec 00       		.byte	0
 3103 00ed 49       		.uleb128 0x49
 3104 00ee 13       		.uleb128 0x13
 3105 00ef 2F       		.uleb128 0x2f
 3106 00f0 0B       		.uleb128 0xb
 3107 00f1 00       		.byte	0
 3108 00f2 00       		.byte	0
 3109 00f3 16       		.uleb128 0x16
 3110 00f4 13       		.uleb128 0x13
 3111 00f5 01       		.byte	0x1
 3112 00f6 0B       		.uleb128 0xb
 3113 00f7 0B       		.uleb128 0xb
 3114 00f8 3A       		.uleb128 0x3a
 3115 00f9 0B       		.uleb128 0xb
 3116 00fa 3B       		.uleb128 0x3b
 3117 00fb 05       		.uleb128 0x5
 3118 00fc 01       		.uleb128 0x1
 3119 00fd 13       		.uleb128 0x13
 3120 00fe 00       		.byte	0
 3121 00ff 00       		.byte	0
 3122 0100 17       		.uleb128 0x17
 3123 0101 0D       		.uleb128 0xd
ARM GAS  C:\Users\danit\AppData\Local\Temp\ccBoNNmX.s 			page 56


 3124 0102 00       		.byte	0
 3125 0103 03       		.uleb128 0x3
 3126 0104 0E       		.uleb128 0xe
 3127 0105 3A       		.uleb128 0x3a
 3128 0106 0B       		.uleb128 0xb
 3129 0107 3B       		.uleb128 0x3b
 3130 0108 05       		.uleb128 0x5
 3131 0109 49       		.uleb128 0x49
 3132 010a 13       		.uleb128 0x13
 3133 010b 38       		.uleb128 0x38
 3134 010c 0B       		.uleb128 0xb
 3135 010d 00       		.byte	0
 3136 010e 00       		.byte	0
 3137 010f 18       		.uleb128 0x18
 3138 0110 16       		.uleb128 0x16
 3139 0111 00       		.byte	0
 3140 0112 03       		.uleb128 0x3
 3141 0113 0E       		.uleb128 0xe
 3142 0114 3A       		.uleb128 0x3a
 3143 0115 0B       		.uleb128 0xb
 3144 0116 3B       		.uleb128 0x3b
 3145 0117 05       		.uleb128 0x5
 3146 0118 49       		.uleb128 0x49
 3147 0119 13       		.uleb128 0x13
 3148 011a 00       		.byte	0
 3149 011b 00       		.byte	0
 3150 011c 19       		.uleb128 0x19
 3151 011d 04       		.uleb128 0x4
 3152 011e 01       		.byte	0x1
 3153 011f 0B       		.uleb128 0xb
 3154 0120 0B       		.uleb128 0xb
 3155 0121 3A       		.uleb128 0x3a
 3156 0122 0B       		.uleb128 0xb
 3157 0123 3B       		.uleb128 0x3b
 3158 0124 0B       		.uleb128 0xb
 3159 0125 01       		.uleb128 0x1
 3160 0126 13       		.uleb128 0x13
 3161 0127 00       		.byte	0
 3162 0128 00       		.byte	0
 3163 0129 1A       		.uleb128 0x1a
 3164 012a 28       		.uleb128 0x28
 3165 012b 00       		.byte	0
 3166 012c 03       		.uleb128 0x3
 3167 012d 0E       		.uleb128 0xe
 3168 012e 1C       		.uleb128 0x1c
 3169 012f 0D       		.uleb128 0xd
 3170 0130 00       		.byte	0
 3171 0131 00       		.byte	0
 3172 0132 1B       		.uleb128 0x1b
 3173 0133 2E       		.uleb128 0x2e
 3174 0134 01       		.byte	0x1
 3175 0135 03       		.uleb128 0x3
 3176 0136 0E       		.uleb128 0xe
 3177 0137 3A       		.uleb128 0x3a
 3178 0138 0B       		.uleb128 0xb
 3179 0139 3B       		.uleb128 0x3b
 3180 013a 0B       		.uleb128 0xb
ARM GAS  C:\Users\danit\AppData\Local\Temp\ccBoNNmX.s 			page 57


 3181 013b 27       		.uleb128 0x27
 3182 013c 19       		.uleb128 0x19
 3183 013d 20       		.uleb128 0x20
 3184 013e 0B       		.uleb128 0xb
 3185 013f 01       		.uleb128 0x1
 3186 0140 13       		.uleb128 0x13
 3187 0141 00       		.byte	0
 3188 0142 00       		.byte	0
 3189 0143 1C       		.uleb128 0x1c
 3190 0144 05       		.uleb128 0x5
 3191 0145 00       		.byte	0
 3192 0146 03       		.uleb128 0x3
 3193 0147 08       		.uleb128 0x8
 3194 0148 3A       		.uleb128 0x3a
 3195 0149 0B       		.uleb128 0xb
 3196 014a 3B       		.uleb128 0x3b
 3197 014b 0B       		.uleb128 0xb
 3198 014c 49       		.uleb128 0x49
 3199 014d 13       		.uleb128 0x13
 3200 014e 00       		.byte	0
 3201 014f 00       		.byte	0
 3202 0150 1D       		.uleb128 0x1d
 3203 0151 05       		.uleb128 0x5
 3204 0152 00       		.byte	0
 3205 0153 03       		.uleb128 0x3
 3206 0154 0E       		.uleb128 0xe
 3207 0155 3A       		.uleb128 0x3a
 3208 0156 0B       		.uleb128 0xb
 3209 0157 3B       		.uleb128 0x3b
 3210 0158 0B       		.uleb128 0xb
 3211 0159 49       		.uleb128 0x49
 3212 015a 13       		.uleb128 0x13
 3213 015b 00       		.byte	0
 3214 015c 00       		.byte	0
 3215 015d 1E       		.uleb128 0x1e
 3216 015e 34       		.uleb128 0x34
 3217 015f 00       		.byte	0
 3218 0160 03       		.uleb128 0x3
 3219 0161 08       		.uleb128 0x8
 3220 0162 3A       		.uleb128 0x3a
 3221 0163 0B       		.uleb128 0xb
 3222 0164 3B       		.uleb128 0x3b
 3223 0165 0B       		.uleb128 0xb
 3224 0166 49       		.uleb128 0x49
 3225 0167 13       		.uleb128 0x13
 3226 0168 00       		.byte	0
 3227 0169 00       		.byte	0
 3228 016a 1F       		.uleb128 0x1f
 3229 016b 2E       		.uleb128 0x2e
 3230 016c 01       		.byte	0x1
 3231 016d 03       		.uleb128 0x3
 3232 016e 0E       		.uleb128 0xe
 3233 016f 3A       		.uleb128 0x3a
 3234 0170 0B       		.uleb128 0xb
 3235 0171 3B       		.uleb128 0x3b
 3236 0172 0B       		.uleb128 0xb
 3237 0173 27       		.uleb128 0x27
ARM GAS  C:\Users\danit\AppData\Local\Temp\ccBoNNmX.s 			page 58


 3238 0174 19       		.uleb128 0x19
 3239 0175 11       		.uleb128 0x11
 3240 0176 01       		.uleb128 0x1
 3241 0177 12       		.uleb128 0x12
 3242 0178 06       		.uleb128 0x6
 3243 0179 40       		.uleb128 0x40
 3244 017a 18       		.uleb128 0x18
 3245 017b 9742     		.uleb128 0x2117
 3246 017d 19       		.uleb128 0x19
 3247 017e 01       		.uleb128 0x1
 3248 017f 13       		.uleb128 0x13
 3249 0180 00       		.byte	0
 3250 0181 00       		.byte	0
 3251 0182 20       		.uleb128 0x20
 3252 0183 05       		.uleb128 0x5
 3253 0184 00       		.byte	0
 3254 0185 03       		.uleb128 0x3
 3255 0186 08       		.uleb128 0x8
 3256 0187 3A       		.uleb128 0x3a
 3257 0188 0B       		.uleb128 0xb
 3258 0189 3B       		.uleb128 0x3b
 3259 018a 0B       		.uleb128 0xb
 3260 018b 49       		.uleb128 0x49
 3261 018c 13       		.uleb128 0x13
 3262 018d 02       		.uleb128 0x2
 3263 018e 18       		.uleb128 0x18
 3264 018f 00       		.byte	0
 3265 0190 00       		.byte	0
 3266 0191 21       		.uleb128 0x21
 3267 0192 05       		.uleb128 0x5
 3268 0193 00       		.byte	0
 3269 0194 03       		.uleb128 0x3
 3270 0195 08       		.uleb128 0x8
 3271 0196 3A       		.uleb128 0x3a
 3272 0197 0B       		.uleb128 0xb
 3273 0198 3B       		.uleb128 0x3b
 3274 0199 0B       		.uleb128 0xb
 3275 019a 49       		.uleb128 0x49
 3276 019b 13       		.uleb128 0x13
 3277 019c 02       		.uleb128 0x2
 3278 019d 17       		.uleb128 0x17
 3279 019e 00       		.byte	0
 3280 019f 00       		.byte	0
 3281 01a0 22       		.uleb128 0x22
 3282 01a1 34       		.uleb128 0x34
 3283 01a2 00       		.byte	0
 3284 01a3 03       		.uleb128 0x3
 3285 01a4 08       		.uleb128 0x8
 3286 01a5 3A       		.uleb128 0x3a
 3287 01a6 0B       		.uleb128 0xb
 3288 01a7 3B       		.uleb128 0x3b
 3289 01a8 0B       		.uleb128 0xb
 3290 01a9 49       		.uleb128 0x49
 3291 01aa 13       		.uleb128 0x13
 3292 01ab 02       		.uleb128 0x2
 3293 01ac 18       		.uleb128 0x18
 3294 01ad 00       		.byte	0
ARM GAS  C:\Users\danit\AppData\Local\Temp\ccBoNNmX.s 			page 59


 3295 01ae 00       		.byte	0
 3296 01af 23       		.uleb128 0x23
 3297 01b0 34       		.uleb128 0x34
 3298 01b1 00       		.byte	0
 3299 01b2 03       		.uleb128 0x3
 3300 01b3 08       		.uleb128 0x8
 3301 01b4 3A       		.uleb128 0x3a
 3302 01b5 0B       		.uleb128 0xb
 3303 01b6 3B       		.uleb128 0x3b
 3304 01b7 0B       		.uleb128 0xb
 3305 01b8 49       		.uleb128 0x49
 3306 01b9 13       		.uleb128 0x13
 3307 01ba 02       		.uleb128 0x2
 3308 01bb 17       		.uleb128 0x17
 3309 01bc 00       		.byte	0
 3310 01bd 00       		.byte	0
 3311 01be 24       		.uleb128 0x24
 3312 01bf 0B       		.uleb128 0xb
 3313 01c0 01       		.byte	0x1
 3314 01c1 11       		.uleb128 0x11
 3315 01c2 01       		.uleb128 0x1
 3316 01c3 12       		.uleb128 0x12
 3317 01c4 06       		.uleb128 0x6
 3318 01c5 01       		.uleb128 0x1
 3319 01c6 13       		.uleb128 0x13
 3320 01c7 00       		.byte	0
 3321 01c8 00       		.byte	0
 3322 01c9 25       		.uleb128 0x25
 3323 01ca 1D       		.uleb128 0x1d
 3324 01cb 01       		.byte	0x1
 3325 01cc 31       		.uleb128 0x31
 3326 01cd 13       		.uleb128 0x13
 3327 01ce 52       		.uleb128 0x52
 3328 01cf 01       		.uleb128 0x1
 3329 01d0 55       		.uleb128 0x55
 3330 01d1 17       		.uleb128 0x17
 3331 01d2 58       		.uleb128 0x58
 3332 01d3 0B       		.uleb128 0xb
 3333 01d4 59       		.uleb128 0x59
 3334 01d5 0B       		.uleb128 0xb
 3335 01d6 01       		.uleb128 0x1
 3336 01d7 13       		.uleb128 0x13
 3337 01d8 00       		.byte	0
 3338 01d9 00       		.byte	0
 3339 01da 26       		.uleb128 0x26
 3340 01db 05       		.uleb128 0x5
 3341 01dc 00       		.byte	0
 3342 01dd 31       		.uleb128 0x31
 3343 01de 13       		.uleb128 0x13
 3344 01df 02       		.uleb128 0x2
 3345 01e0 17       		.uleb128 0x17
 3346 01e1 00       		.byte	0
 3347 01e2 00       		.byte	0
 3348 01e3 27       		.uleb128 0x27
 3349 01e4 05       		.uleb128 0x5
 3350 01e5 00       		.byte	0
 3351 01e6 31       		.uleb128 0x31
ARM GAS  C:\Users\danit\AppData\Local\Temp\ccBoNNmX.s 			page 60


 3352 01e7 13       		.uleb128 0x13
 3353 01e8 00       		.byte	0
 3354 01e9 00       		.byte	0
 3355 01ea 28       		.uleb128 0x28
 3356 01eb 0B       		.uleb128 0xb
 3357 01ec 01       		.byte	0x1
 3358 01ed 55       		.uleb128 0x55
 3359 01ee 17       		.uleb128 0x17
 3360 01ef 00       		.byte	0
 3361 01f0 00       		.byte	0
 3362 01f1 29       		.uleb128 0x29
 3363 01f2 34       		.uleb128 0x34
 3364 01f3 00       		.byte	0
 3365 01f4 31       		.uleb128 0x31
 3366 01f5 13       		.uleb128 0x13
 3367 01f6 02       		.uleb128 0x2
 3368 01f7 17       		.uleb128 0x17
 3369 01f8 00       		.byte	0
 3370 01f9 00       		.byte	0
 3371 01fa 2A       		.uleb128 0x2a
 3372 01fb 898201   		.uleb128 0x4109
 3373 01fe 01       		.byte	0x1
 3374 01ff 11       		.uleb128 0x11
 3375 0200 01       		.uleb128 0x1
 3376 0201 31       		.uleb128 0x31
 3377 0202 13       		.uleb128 0x13
 3378 0203 00       		.byte	0
 3379 0204 00       		.byte	0
 3380 0205 2B       		.uleb128 0x2b
 3381 0206 8A8201   		.uleb128 0x410a
 3382 0209 00       		.byte	0
 3383 020a 02       		.uleb128 0x2
 3384 020b 18       		.uleb128 0x18
 3385 020c 9142     		.uleb128 0x2111
 3386 020e 18       		.uleb128 0x18
 3387 020f 00       		.byte	0
 3388 0210 00       		.byte	0
 3389 0211 2C       		.uleb128 0x2c
 3390 0212 0B       		.uleb128 0xb
 3391 0213 01       		.byte	0x1
 3392 0214 55       		.uleb128 0x55
 3393 0215 17       		.uleb128 0x17
 3394 0216 01       		.uleb128 0x1
 3395 0217 13       		.uleb128 0x13
 3396 0218 00       		.byte	0
 3397 0219 00       		.byte	0
 3398 021a 2D       		.uleb128 0x2d
 3399 021b 898201   		.uleb128 0x4109
 3400 021e 01       		.byte	0x1
 3401 021f 11       		.uleb128 0x11
 3402 0220 01       		.uleb128 0x1
 3403 0221 31       		.uleb128 0x31
 3404 0222 13       		.uleb128 0x13
 3405 0223 01       		.uleb128 0x1
 3406 0224 13       		.uleb128 0x13
 3407 0225 00       		.byte	0
 3408 0226 00       		.byte	0
ARM GAS  C:\Users\danit\AppData\Local\Temp\ccBoNNmX.s 			page 61


 3409 0227 2E       		.uleb128 0x2e
 3410 0228 2E       		.uleb128 0x2e
 3411 0229 01       		.byte	0x1
 3412 022a 3F       		.uleb128 0x3f
 3413 022b 19       		.uleb128 0x19
 3414 022c 03       		.uleb128 0x3
 3415 022d 0E       		.uleb128 0xe
 3416 022e 3A       		.uleb128 0x3a
 3417 022f 0B       		.uleb128 0xb
 3418 0230 3B       		.uleb128 0x3b
 3419 0231 05       		.uleb128 0x5
 3420 0232 27       		.uleb128 0x27
 3421 0233 19       		.uleb128 0x19
 3422 0234 11       		.uleb128 0x11
 3423 0235 01       		.uleb128 0x1
 3424 0236 12       		.uleb128 0x12
 3425 0237 06       		.uleb128 0x6
 3426 0238 40       		.uleb128 0x40
 3427 0239 18       		.uleb128 0x18
 3428 023a 9742     		.uleb128 0x2117
 3429 023c 19       		.uleb128 0x19
 3430 023d 01       		.uleb128 0x1
 3431 023e 13       		.uleb128 0x13
 3432 023f 00       		.byte	0
 3433 0240 00       		.byte	0
 3434 0241 2F       		.uleb128 0x2f
 3435 0242 898201   		.uleb128 0x4109
 3436 0245 00       		.byte	0
 3437 0246 11       		.uleb128 0x11
 3438 0247 01       		.uleb128 0x1
 3439 0248 9542     		.uleb128 0x2115
 3440 024a 19       		.uleb128 0x19
 3441 024b 31       		.uleb128 0x31
 3442 024c 13       		.uleb128 0x13
 3443 024d 00       		.byte	0
 3444 024e 00       		.byte	0
 3445 024f 30       		.uleb128 0x30
 3446 0250 05       		.uleb128 0x5
 3447 0251 00       		.byte	0
 3448 0252 03       		.uleb128 0x3
 3449 0253 08       		.uleb128 0x8
 3450 0254 3A       		.uleb128 0x3a
 3451 0255 0B       		.uleb128 0xb
 3452 0256 3B       		.uleb128 0x3b
 3453 0257 05       		.uleb128 0x5
 3454 0258 49       		.uleb128 0x49
 3455 0259 13       		.uleb128 0x13
 3456 025a 02       		.uleb128 0x2
 3457 025b 17       		.uleb128 0x17
 3458 025c 00       		.byte	0
 3459 025d 00       		.byte	0
 3460 025e 31       		.uleb128 0x31
 3461 025f 05       		.uleb128 0x5
 3462 0260 00       		.byte	0
 3463 0261 03       		.uleb128 0x3
 3464 0262 0E       		.uleb128 0xe
 3465 0263 3A       		.uleb128 0x3a
ARM GAS  C:\Users\danit\AppData\Local\Temp\ccBoNNmX.s 			page 62


 3466 0264 0B       		.uleb128 0xb
 3467 0265 3B       		.uleb128 0x3b
 3468 0266 05       		.uleb128 0x5
 3469 0267 49       		.uleb128 0x49
 3470 0268 13       		.uleb128 0x13
 3471 0269 02       		.uleb128 0x2
 3472 026a 17       		.uleb128 0x17
 3473 026b 00       		.byte	0
 3474 026c 00       		.byte	0
 3475 026d 32       		.uleb128 0x32
 3476 026e 1D       		.uleb128 0x1d
 3477 026f 01       		.byte	0x1
 3478 0270 31       		.uleb128 0x31
 3479 0271 13       		.uleb128 0x13
 3480 0272 52       		.uleb128 0x52
 3481 0273 01       		.uleb128 0x1
 3482 0274 55       		.uleb128 0x55
 3483 0275 17       		.uleb128 0x17
 3484 0276 58       		.uleb128 0x58
 3485 0277 0B       		.uleb128 0xb
 3486 0278 59       		.uleb128 0x59
 3487 0279 05       		.uleb128 0x5
 3488 027a 01       		.uleb128 0x1
 3489 027b 13       		.uleb128 0x13
 3490 027c 00       		.byte	0
 3491 027d 00       		.byte	0
 3492 027e 33       		.uleb128 0x33
 3493 027f 898201   		.uleb128 0x4109
 3494 0282 01       		.byte	0x1
 3495 0283 11       		.uleb128 0x11
 3496 0284 01       		.uleb128 0x1
 3497 0285 9542     		.uleb128 0x2115
 3498 0287 19       		.uleb128 0x19
 3499 0288 31       		.uleb128 0x31
 3500 0289 13       		.uleb128 0x13
 3501 028a 01       		.uleb128 0x1
 3502 028b 13       		.uleb128 0x13
 3503 028c 00       		.byte	0
 3504 028d 00       		.byte	0
 3505 028e 34       		.uleb128 0x34
 3506 028f 898201   		.uleb128 0x4109
 3507 0292 01       		.byte	0x1
 3508 0293 11       		.uleb128 0x11
 3509 0294 01       		.uleb128 0x1
 3510 0295 9542     		.uleb128 0x2115
 3511 0297 19       		.uleb128 0x19
 3512 0298 31       		.uleb128 0x31
 3513 0299 13       		.uleb128 0x13
 3514 029a 00       		.byte	0
 3515 029b 00       		.byte	0
 3516 029c 35       		.uleb128 0x35
 3517 029d 34       		.uleb128 0x34
 3518 029e 00       		.byte	0
 3519 029f 03       		.uleb128 0x3
 3520 02a0 0E       		.uleb128 0xe
 3521 02a1 3A       		.uleb128 0x3a
 3522 02a2 0B       		.uleb128 0xb
ARM GAS  C:\Users\danit\AppData\Local\Temp\ccBoNNmX.s 			page 63


 3523 02a3 3B       		.uleb128 0x3b
 3524 02a4 0B       		.uleb128 0xb
 3525 02a5 49       		.uleb128 0x49
 3526 02a6 13       		.uleb128 0x13
 3527 02a7 02       		.uleb128 0x2
 3528 02a8 18       		.uleb128 0x18
 3529 02a9 00       		.byte	0
 3530 02aa 00       		.byte	0
 3531 02ab 36       		.uleb128 0x36
 3532 02ac 34       		.uleb128 0x34
 3533 02ad 00       		.byte	0
 3534 02ae 03       		.uleb128 0x3
 3535 02af 0E       		.uleb128 0xe
 3536 02b0 3A       		.uleb128 0x3a
 3537 02b1 0B       		.uleb128 0xb
 3538 02b2 3B       		.uleb128 0x3b
 3539 02b3 05       		.uleb128 0x5
 3540 02b4 49       		.uleb128 0x49
 3541 02b5 13       		.uleb128 0x13
 3542 02b6 3F       		.uleb128 0x3f
 3543 02b7 19       		.uleb128 0x19
 3544 02b8 3C       		.uleb128 0x3c
 3545 02b9 19       		.uleb128 0x19
 3546 02ba 00       		.byte	0
 3547 02bb 00       		.byte	0
 3548 02bc 37       		.uleb128 0x37
 3549 02bd 34       		.uleb128 0x34
 3550 02be 00       		.byte	0
 3551 02bf 03       		.uleb128 0x3
 3552 02c0 08       		.uleb128 0x8
 3553 02c1 3A       		.uleb128 0x3a
 3554 02c2 0B       		.uleb128 0xb
 3555 02c3 3B       		.uleb128 0x3b
 3556 02c4 0B       		.uleb128 0xb
 3557 02c5 49       		.uleb128 0x49
 3558 02c6 13       		.uleb128 0x13
 3559 02c7 3F       		.uleb128 0x3f
 3560 02c8 19       		.uleb128 0x19
 3561 02c9 02       		.uleb128 0x2
 3562 02ca 18       		.uleb128 0x18
 3563 02cb 00       		.byte	0
 3564 02cc 00       		.byte	0
 3565 02cd 38       		.uleb128 0x38
 3566 02ce 2E       		.uleb128 0x2e
 3567 02cf 01       		.byte	0x1
 3568 02d0 3F       		.uleb128 0x3f
 3569 02d1 19       		.uleb128 0x19
 3570 02d2 03       		.uleb128 0x3
 3571 02d3 0E       		.uleb128 0xe
 3572 02d4 3A       		.uleb128 0x3a
 3573 02d5 0B       		.uleb128 0xb
 3574 02d6 3B       		.uleb128 0x3b
 3575 02d7 0B       		.uleb128 0xb
 3576 02d8 27       		.uleb128 0x27
 3577 02d9 19       		.uleb128 0x19
 3578 02da 3C       		.uleb128 0x3c
 3579 02db 19       		.uleb128 0x19
ARM GAS  C:\Users\danit\AppData\Local\Temp\ccBoNNmX.s 			page 64


 3580 02dc 01       		.uleb128 0x1
 3581 02dd 13       		.uleb128 0x13
 3582 02de 00       		.byte	0
 3583 02df 00       		.byte	0
 3584 02e0 39       		.uleb128 0x39
 3585 02e1 2E       		.uleb128 0x2e
 3586 02e2 01       		.byte	0x1
 3587 02e3 3F       		.uleb128 0x3f
 3588 02e4 19       		.uleb128 0x19
 3589 02e5 03       		.uleb128 0x3
 3590 02e6 0E       		.uleb128 0xe
 3591 02e7 3A       		.uleb128 0x3a
 3592 02e8 0B       		.uleb128 0xb
 3593 02e9 3B       		.uleb128 0x3b
 3594 02ea 05       		.uleb128 0x5
 3595 02eb 27       		.uleb128 0x27
 3596 02ec 19       		.uleb128 0x19
 3597 02ed 49       		.uleb128 0x49
 3598 02ee 13       		.uleb128 0x13
 3599 02ef 3C       		.uleb128 0x3c
 3600 02f0 19       		.uleb128 0x19
 3601 02f1 01       		.uleb128 0x1
 3602 02f2 13       		.uleb128 0x13
 3603 02f3 00       		.byte	0
 3604 02f4 00       		.byte	0
 3605 02f5 3A       		.uleb128 0x3a
 3606 02f6 2E       		.uleb128 0x2e
 3607 02f7 01       		.byte	0x1
 3608 02f8 3F       		.uleb128 0x3f
 3609 02f9 19       		.uleb128 0x19
 3610 02fa 03       		.uleb128 0x3
 3611 02fb 0E       		.uleb128 0xe
 3612 02fc 3A       		.uleb128 0x3a
 3613 02fd 0B       		.uleb128 0xb
 3614 02fe 3B       		.uleb128 0x3b
 3615 02ff 05       		.uleb128 0x5
 3616 0300 27       		.uleb128 0x27
 3617 0301 19       		.uleb128 0x19
 3618 0302 3C       		.uleb128 0x3c
 3619 0303 19       		.uleb128 0x19
 3620 0304 01       		.uleb128 0x1
 3621 0305 13       		.uleb128 0x13
 3622 0306 00       		.byte	0
 3623 0307 00       		.byte	0
 3624 0308 3B       		.uleb128 0x3b
 3625 0309 2E       		.uleb128 0x2e
 3626 030a 00       		.byte	0
 3627 030b 3F       		.uleb128 0x3f
 3628 030c 19       		.uleb128 0x19
 3629 030d 03       		.uleb128 0x3
 3630 030e 0E       		.uleb128 0xe
 3631 030f 3A       		.uleb128 0x3a
 3632 0310 0B       		.uleb128 0xb
 3633 0311 3B       		.uleb128 0x3b
 3634 0312 05       		.uleb128 0x5
 3635 0313 27       		.uleb128 0x27
 3636 0314 19       		.uleb128 0x19
ARM GAS  C:\Users\danit\AppData\Local\Temp\ccBoNNmX.s 			page 65


 3637 0315 3C       		.uleb128 0x3c
 3638 0316 19       		.uleb128 0x19
 3639 0317 00       		.byte	0
 3640 0318 00       		.byte	0
 3641 0319 3C       		.uleb128 0x3c
 3642 031a 2E       		.uleb128 0x2e
 3643 031b 01       		.byte	0x1
 3644 031c 3F       		.uleb128 0x3f
 3645 031d 19       		.uleb128 0x19
 3646 031e 03       		.uleb128 0x3
 3647 031f 0E       		.uleb128 0xe
 3648 0320 3A       		.uleb128 0x3a
 3649 0321 0B       		.uleb128 0xb
 3650 0322 3B       		.uleb128 0x3b
 3651 0323 05       		.uleb128 0x5
 3652 0324 27       		.uleb128 0x27
 3653 0325 19       		.uleb128 0x19
 3654 0326 3C       		.uleb128 0x3c
 3655 0327 19       		.uleb128 0x19
 3656 0328 00       		.byte	0
 3657 0329 00       		.byte	0
 3658 032a 00       		.byte	0
 3659              		.section	.debug_loc,"",%progbits
 3660              	.Ldebug_loc0:
 3661              	.LLST0:
 3662 0000 00000000 		.4byte	.LVL3
 3663 0004 16000000 		.4byte	.LVL6
 3664 0008 0100     		.2byte	0x1
 3665 000a 50       		.byte	0x50
 3666 000b 16000000 		.4byte	.LVL6
 3667 000f A4000000 		.4byte	.LVL19
 3668 0013 0100     		.2byte	0x1
 3669 0015 56       		.byte	0x56
 3670 0016 A4000000 		.4byte	.LVL19
 3671 001a B0000000 		.4byte	.LVL20
 3672 001e 0100     		.2byte	0x1
 3673 0020 50       		.byte	0x50
 3674 0021 B0000000 		.4byte	.LVL20
 3675 0025 04010000 		.4byte	.LFE121
 3676 0029 0100     		.2byte	0x1
 3677 002b 56       		.byte	0x56
 3678 002c 00000000 		.4byte	0
 3679 0030 00000000 		.4byte	0
 3680              	.LLST1:
 3681 0034 14000000 		.4byte	.LVL5
 3682 0038 24000000 		.4byte	.LVL7
 3683 003c 0100     		.2byte	0x1
 3684 003e 54       		.byte	0x54
 3685 003f 32000000 		.4byte	.LVL9
 3686 0043 58000000 		.4byte	.LVL14
 3687 0047 0100     		.2byte	0x1
 3688 0049 54       		.byte	0x54
 3689 004a 66000000 		.4byte	.LVL17
 3690 004e 04010000 		.4byte	.LFE121
 3691 0052 0100     		.2byte	0x1
 3692 0054 54       		.byte	0x54
 3693 0055 00000000 		.4byte	0
ARM GAS  C:\Users\danit\AppData\Local\Temp\ccBoNNmX.s 			page 66


 3694 0059 00000000 		.4byte	0
 3695              	.LLST2:
 3696 005d 3A000000 		.4byte	.LVL10
 3697 0061 58000000 		.4byte	.LVL14
 3698 0065 0100     		.2byte	0x1
 3699 0067 54       		.byte	0x54
 3700 0068 00000000 		.4byte	0
 3701 006c 00000000 		.4byte	0
 3702              	.LLST3:
 3703 0070 3A000000 		.4byte	.LVL10
 3704 0074 44000000 		.4byte	.LVL11
 3705 0078 0200     		.2byte	0x2
 3706 007a 30       		.byte	0x30
 3707 007b 9F       		.byte	0x9f
 3708 007c 44000000 		.4byte	.LVL11
 3709 0080 63000000 		.4byte	.LVL16-1
 3710 0084 0100     		.2byte	0x1
 3711 0086 51       		.byte	0x51
 3712 0087 00000000 		.4byte	0
 3713 008b 00000000 		.4byte	0
 3714              	.LLST4:
 3715 008f D0000000 		.4byte	.LVL22
 3716 0093 D6000000 		.4byte	.LVL23
 3717 0097 0100     		.2byte	0x1
 3718 0099 50       		.byte	0x50
 3719 009a F0000000 		.4byte	.LVL25
 3720 009e F2000000 		.4byte	.LVL26
 3721 00a2 0100     		.2byte	0x1
 3722 00a4 50       		.byte	0x50
 3723 00a5 00000000 		.4byte	0
 3724 00a9 00000000 		.4byte	0
 3725              	.LLST5:
 3726 00ad 00000000 		.4byte	.LVL37
 3727 00b1 12000000 		.4byte	.LVL39
 3728 00b5 0100     		.2byte	0x1
 3729 00b7 50       		.byte	0x50
 3730 00b8 12000000 		.4byte	.LVL39
 3731 00bc 5A000000 		.4byte	.LVL43
 3732 00c0 0100     		.2byte	0x1
 3733 00c2 55       		.byte	0x55
 3734 00c3 5A000000 		.4byte	.LVL43
 3735 00c7 78000000 		.4byte	.LVL44
 3736 00cb 0100     		.2byte	0x1
 3737 00cd 50       		.byte	0x50
 3738 00ce 78000000 		.4byte	.LVL44
 3739 00d2 8E000000 		.4byte	.LVL47
 3740 00d6 0100     		.2byte	0x1
 3741 00d8 55       		.byte	0x55
 3742 00d9 8E000000 		.4byte	.LVL47
 3743 00dd 9A000000 		.4byte	.LVL48
 3744 00e1 0100     		.2byte	0x1
 3745 00e3 50       		.byte	0x50
 3746 00e4 9A000000 		.4byte	.LVL48
 3747 00e8 A2000000 		.4byte	.LVL50
 3748 00ec 0100     		.2byte	0x1
 3749 00ee 55       		.byte	0x55
 3750 00ef A2000000 		.4byte	.LVL50
ARM GAS  C:\Users\danit\AppData\Local\Temp\ccBoNNmX.s 			page 67


 3751 00f3 AE000000 		.4byte	.LVL51
 3752 00f7 0100     		.2byte	0x1
 3753 00f9 50       		.byte	0x50
 3754 00fa AE000000 		.4byte	.LVL51
 3755 00fe D8000000 		.4byte	.LFE129
 3756 0102 0100     		.2byte	0x1
 3757 0104 55       		.byte	0x55
 3758 0105 00000000 		.4byte	0
 3759 0109 00000000 		.4byte	0
 3760              	.LLST6:
 3761 010d 00000000 		.4byte	.LVL37
 3762 0111 0C000000 		.4byte	.LVL38
 3763 0115 0100     		.2byte	0x1
 3764 0117 51       		.byte	0x51
 3765 0118 0C000000 		.4byte	.LVL38
 3766 011c 4C000000 		.4byte	.LVL41
 3767 0120 0100     		.2byte	0x1
 3768 0122 54       		.byte	0x54
 3769 0123 4C000000 		.4byte	.LVL41
 3770 0127 5A000000 		.4byte	.LVL43
 3771 012b 1300     		.2byte	0x13
 3772 012d F3       		.byte	0xf3
 3773 012e 01       		.uleb128 0x1
 3774 012f 51       		.byte	0x51
 3775 0130 03       		.byte	0x3
 3776 0131 00000000 		.4byte	.LANCHOR3
 3777 0135 F3       		.byte	0xf3
 3778 0136 01       		.uleb128 0x1
 3779 0137 51       		.byte	0x51
 3780 0138 30       		.byte	0x30
 3781 0139 2E       		.byte	0x2e
 3782 013a 28       		.byte	0x28
 3783 013b 0100     		.2byte	0x1
 3784 013d 16       		.byte	0x16
 3785 013e 13       		.byte	0x13
 3786 013f 9F       		.byte	0x9f
 3787 0140 5A000000 		.4byte	.LVL43
 3788 0144 D8000000 		.4byte	.LFE129
 3789 0148 0100     		.2byte	0x1
 3790 014a 54       		.byte	0x54
 3791 014b 00000000 		.4byte	0
 3792 014f 00000000 		.4byte	0
 3793              	.LLST7:
 3794 0153 14000000 		.4byte	.LVL40
 3795 0157 5A000000 		.4byte	.LVL43
 3796 015b 0100     		.2byte	0x1
 3797 015d 55       		.byte	0x55
 3798 015e 80000000 		.4byte	.LVL46
 3799 0162 8E000000 		.4byte	.LVL47
 3800 0166 0100     		.2byte	0x1
 3801 0168 55       		.byte	0x55
 3802 0169 00000000 		.4byte	0
 3803 016d 00000000 		.4byte	0
 3804              	.LLST8:
 3805 0171 14000000 		.4byte	.LVL40
 3806 0175 4C000000 		.4byte	.LVL41
 3807 0179 0100     		.2byte	0x1
ARM GAS  C:\Users\danit\AppData\Local\Temp\ccBoNNmX.s 			page 68


 3808 017b 54       		.byte	0x54
 3809 017c 4C000000 		.4byte	.LVL41
 3810 0180 5A000000 		.4byte	.LVL43
 3811 0184 1300     		.2byte	0x13
 3812 0186 F3       		.byte	0xf3
 3813 0187 01       		.uleb128 0x1
 3814 0188 51       		.byte	0x51
 3815 0189 03       		.byte	0x3
 3816 018a 00000000 		.4byte	.LANCHOR3
 3817 018e F3       		.byte	0xf3
 3818 018f 01       		.uleb128 0x1
 3819 0190 51       		.byte	0x51
 3820 0191 30       		.byte	0x30
 3821 0192 2E       		.byte	0x2e
 3822 0193 28       		.byte	0x28
 3823 0194 0100     		.2byte	0x1
 3824 0196 16       		.byte	0x16
 3825 0197 13       		.byte	0x13
 3826 0198 9F       		.byte	0x9f
 3827 0199 80000000 		.4byte	.LVL46
 3828 019d 8E000000 		.4byte	.LVL47
 3829 01a1 0100     		.2byte	0x1
 3830 01a3 54       		.byte	0x54
 3831 01a4 00000000 		.4byte	0
 3832 01a8 00000000 		.4byte	0
 3833              	.LLST9:
 3834 01ac 14000000 		.4byte	.LVL40
 3835 01b0 58000000 		.4byte	.LVL42
 3836 01b4 0100     		.2byte	0x1
 3837 01b6 53       		.byte	0x53
 3838 01b7 58000000 		.4byte	.LVL42
 3839 01bb 5A000000 		.4byte	.LVL43
 3840 01bf 0300     		.2byte	0x3
 3841 01c1 75       		.byte	0x75
 3842 01c2 F400     		.sleb128 116
 3843 01c4 80000000 		.4byte	.LVL46
 3844 01c8 8E000000 		.4byte	.LVL47
 3845 01cc 0100     		.2byte	0x1
 3846 01ce 53       		.byte	0x53
 3847 01cf 00000000 		.4byte	0
 3848 01d3 00000000 		.4byte	0
 3849              	.LLST10:
 3850 01d7 00000000 		.4byte	.LVL53
 3851 01db 30000000 		.4byte	.LVL56
 3852 01df 0100     		.2byte	0x1
 3853 01e1 50       		.byte	0x50
 3854 01e2 30000000 		.4byte	.LVL56
 3855 01e6 34000000 		.4byte	.LVL57
 3856 01ea 0400     		.2byte	0x4
 3857 01ec F3       		.byte	0xf3
 3858 01ed 01       		.uleb128 0x1
 3859 01ee 50       		.byte	0x50
 3860 01ef 9F       		.byte	0x9f
 3861 01f0 34000000 		.4byte	.LVL57
 3862 01f4 40000000 		.4byte	.LVL59
 3863 01f8 0100     		.2byte	0x1
 3864 01fa 50       		.byte	0x50
ARM GAS  C:\Users\danit\AppData\Local\Temp\ccBoNNmX.s 			page 69


 3865 01fb 40000000 		.4byte	.LVL59
 3866 01ff 44000000 		.4byte	.LVL60
 3867 0203 0400     		.2byte	0x4
 3868 0205 F3       		.byte	0xf3
 3869 0206 01       		.uleb128 0x1
 3870 0207 50       		.byte	0x50
 3871 0208 9F       		.byte	0x9f
 3872 0209 44000000 		.4byte	.LVL60
 3873 020d 50000000 		.4byte	.LVL61
 3874 0211 0100     		.2byte	0x1
 3875 0213 50       		.byte	0x50
 3876 0214 50000000 		.4byte	.LVL61
 3877 0218 64000000 		.4byte	.LFE130
 3878 021c 0400     		.2byte	0x4
 3879 021e F3       		.byte	0xf3
 3880 021f 01       		.uleb128 0x1
 3881 0220 50       		.byte	0x50
 3882 0221 9F       		.byte	0x9f
 3883 0222 00000000 		.4byte	0
 3884 0226 00000000 		.4byte	0
 3885              	.LLST11:
 3886 022a 0C000000 		.4byte	.LVL54
 3887 022e 1A000000 		.4byte	.LVL55
 3888 0232 0100     		.2byte	0x1
 3889 0234 53       		.byte	0x53
 3890 0235 1A000000 		.4byte	.LVL55
 3891 0239 30000000 		.4byte	.LVL56
 3892 023d 0300     		.2byte	0x3
 3893 023f 70       		.byte	0x70
 3894 0240 F400     		.sleb128 116
 3895 0242 30000000 		.4byte	.LVL56
 3896 0246 33000000 		.4byte	.LVL57-1
 3897 024a 0500     		.2byte	0x5
 3898 024c F3       		.byte	0xf3
 3899 024d 01       		.uleb128 0x1
 3900 024e 50       		.byte	0x50
 3901 024f 23       		.byte	0x23
 3902 0250 74       		.uleb128 0x74
 3903 0251 34000000 		.4byte	.LVL57
 3904 0255 38000000 		.4byte	.LVL58
 3905 0259 0100     		.2byte	0x1
 3906 025b 53       		.byte	0x53
 3907 025c 38000000 		.4byte	.LVL58
 3908 0260 40000000 		.4byte	.LVL59
 3909 0264 0300     		.2byte	0x3
 3910 0266 70       		.byte	0x70
 3911 0267 F400     		.sleb128 116
 3912 0269 40000000 		.4byte	.LVL59
 3913 026d 43000000 		.4byte	.LVL60-1
 3914 0271 0500     		.2byte	0x5
 3915 0273 F3       		.byte	0xf3
 3916 0274 01       		.uleb128 0x1
 3917 0275 50       		.byte	0x50
 3918 0276 23       		.byte	0x23
 3919 0277 74       		.uleb128 0x74
 3920 0278 44000000 		.4byte	.LVL60
 3921 027c 50000000 		.4byte	.LVL61
ARM GAS  C:\Users\danit\AppData\Local\Temp\ccBoNNmX.s 			page 70


 3922 0280 0300     		.2byte	0x3
 3923 0282 70       		.byte	0x70
 3924 0283 F400     		.sleb128 116
 3925 0285 50000000 		.4byte	.LVL61
 3926 0289 53000000 		.4byte	.LVL62-1
 3927 028d 0500     		.2byte	0x5
 3928 028f F3       		.byte	0xf3
 3929 0290 01       		.uleb128 0x1
 3930 0291 50       		.byte	0x50
 3931 0292 23       		.byte	0x23
 3932 0293 74       		.uleb128 0x74
 3933 0294 00000000 		.4byte	0
 3934 0298 00000000 		.4byte	0
 3935              		.section	.debug_aranges,"",%progbits
 3936 0000 64000000 		.4byte	0x64
 3937 0004 0200     		.2byte	0x2
 3938 0006 00000000 		.4byte	.Ldebug_info0
 3939 000a 04       		.byte	0x4
 3940 000b 00       		.byte	0
 3941 000c 0000     		.2byte	0
 3942 000e 0000     		.2byte	0
 3943 0010 00000000 		.4byte	.LFB122
 3944 0014 14000000 		.4byte	.LFE122-.LFB122
 3945 0018 00000000 		.4byte	.LFB123
 3946 001c 14000000 		.4byte	.LFE123-.LFB123
 3947 0020 00000000 		.4byte	.LFB124
 3948 0024 14000000 		.4byte	.LFE124-.LFB124
 3949 0028 00000000 		.4byte	.LFB121
 3950 002c 04010000 		.4byte	.LFE121-.LFB121
 3951 0030 00000000 		.4byte	.LFB125
 3952 0034 14000000 		.4byte	.LFE125-.LFB125
 3953 0038 00000000 		.4byte	.LFB126
 3954 003c 14000000 		.4byte	.LFE126-.LFB126
 3955 0040 00000000 		.4byte	.LFB127
 3956 0044 14000000 		.4byte	.LFE127-.LFB127
 3957 0048 00000000 		.4byte	.LFB128
 3958 004c 58000000 		.4byte	.LFE128-.LFB128
 3959 0050 00000000 		.4byte	.LFB129
 3960 0054 D8000000 		.4byte	.LFE129-.LFB129
 3961 0058 00000000 		.4byte	.LFB130
 3962 005c 64000000 		.4byte	.LFE130-.LFB130
 3963 0060 00000000 		.4byte	0
 3964 0064 00000000 		.4byte	0
 3965              		.section	.debug_ranges,"",%progbits
 3966              	.Ldebug_ranges0:
 3967 0000 20000000 		.4byte	.LBB16
 3968 0004 24000000 		.4byte	.LBE16
 3969 0008 3A000000 		.4byte	.LBB19
 3970 000c 66000000 		.4byte	.LBE19
 3971 0010 00000000 		.4byte	0
 3972 0014 00000000 		.4byte	0
 3973 0018 94000000 		.4byte	.LBB22
 3974 001c 96000000 		.4byte	.LBE22
 3975 0020 98000000 		.4byte	.LBB23
 3976 0024 A4000000 		.4byte	.LBE23
 3977 0028 00000000 		.4byte	0
 3978 002c 00000000 		.4byte	0
ARM GAS  C:\Users\danit\AppData\Local\Temp\ccBoNNmX.s 			page 71


 3979 0030 C2000000 		.4byte	.LBB26
 3980 0034 E0000000 		.4byte	.LBE26
 3981 0038 F0000000 		.4byte	.LBB29
 3982 003c 04010000 		.4byte	.LBE29
 3983 0040 00000000 		.4byte	0
 3984 0044 00000000 		.4byte	0
 3985 0048 14000000 		.4byte	.LBB32
 3986 004c 5A000000 		.4byte	.LBE32
 3987 0050 80000000 		.4byte	.LBB35
 3988 0054 8E000000 		.4byte	.LBE35
 3989 0058 00000000 		.4byte	0
 3990 005c 00000000 		.4byte	0
 3991 0060 0C000000 		.4byte	.LBB36
 3992 0064 0E000000 		.4byte	.LBE36
 3993 0068 10000000 		.4byte	.LBB39
 3994 006c 16000000 		.4byte	.LBE39
 3995 0070 00000000 		.4byte	0
 3996 0074 00000000 		.4byte	0
 3997 0078 00000000 		.4byte	.LFB122
 3998 007c 14000000 		.4byte	.LFE122
 3999 0080 00000000 		.4byte	.LFB123
 4000 0084 14000000 		.4byte	.LFE123
 4001 0088 00000000 		.4byte	.LFB124
 4002 008c 14000000 		.4byte	.LFE124
 4003 0090 00000000 		.4byte	.LFB121
 4004 0094 04010000 		.4byte	.LFE121
 4005 0098 00000000 		.4byte	.LFB125
 4006 009c 14000000 		.4byte	.LFE125
 4007 00a0 00000000 		.4byte	.LFB126
 4008 00a4 14000000 		.4byte	.LFE126
 4009 00a8 00000000 		.4byte	.LFB127
 4010 00ac 14000000 		.4byte	.LFE127
 4011 00b0 00000000 		.4byte	.LFB128
 4012 00b4 58000000 		.4byte	.LFE128
 4013 00b8 00000000 		.4byte	.LFB129
 4014 00bc D8000000 		.4byte	.LFE129
 4015 00c0 00000000 		.4byte	.LFB130
 4016 00c4 64000000 		.4byte	.LFE130
 4017 00c8 00000000 		.4byte	0
 4018 00cc 00000000 		.4byte	0
 4019              		.section	.debug_line,"",%progbits
 4020              	.Ldebug_line0:
 4021 0000 7A040000 		.section	.debug_str,"MS",%progbits,1
 4021      02001C03 
 4021      00000201 
 4021      FB0E0D00 
 4021      01010101 
 4022              	.LASF153:
 4023 0000 6E766963 		.ascii	"nvicEnableVector\000"
 4023      456E6162 
 4023      6C655665 
 4023      63746F72 
 4023      00
 4024              	.LASF2:
 4025 0011 73697A65 		.ascii	"size_t\000"
 4025      5F7400
 4026              	.LASF66:
ARM GAS  C:\Users\danit\AppData\Local\Temp\ccBoNNmX.s 			page 72


 4027 0018 7264796D 		.ascii	"rdymsg\000"
 4027      736700
 4028              	.LASF82:
 4029 001f 4F757470 		.ascii	"OutputQueue\000"
 4029      75745175 
 4029      65756500 
 4030              	.LASF3:
 4031 002b 5F5F7569 		.ascii	"__uint8_t\000"
 4031      6E74385F 
 4031      7400
 4032              	.LASF140:
 4033 0035 7365745F 		.ascii	"set_error\000"
 4033      6572726F 
 4033      7200
 4034              	.LASF13:
 4035 003f 6C6F6E67 		.ascii	"long long unsigned int\000"
 4035      206C6F6E 
 4035      6720756E 
 4035      7369676E 
 4035      65642069 
 4036              	.LASF67:
 4037 0056 65786974 		.ascii	"exitcode\000"
 4037      636F6465 
 4037      00
 4038              	.LASF149:
 4039 005f 49544D5F 		.ascii	"ITM_RxBuffer\000"
 4039      52784275 
 4039      66666572 
 4039      00
 4040              	.LASF99:
 4041 006c 41484231 		.ascii	"AHB1LPENR\000"
 4041      4C50454E 
 4041      5200
 4042              	.LASF152:
 4043 0076 73644F62 		.ascii	"sdObjectInit\000"
 4043      6A656374 
 4043      496E6974 
 4043      00
 4044              	.LASF133:
 4045 0083 72656164 		.ascii	"readt\000"
 4045      7400
 4046              	.LASF72:
 4047 0089 715F7761 		.ascii	"q_waiting\000"
 4047      6974696E 
 4047      6700
 4048              	.LASF111:
 4049 0093 44434B43 		.ascii	"DCKCFGR\000"
 4049      46475200 
 4050              	.LASF12:
 4051 009b 6C6F6E67 		.ascii	"long long int\000"
 4051      206C6F6E 
 4051      6720696E 
 4051      7400
 4052              	.LASF1:
 4053 00a9 7369676E 		.ascii	"signed char\000"
 4053      65642063 
 4053      68617200 
ARM GAS  C:\Users\danit\AppData\Local\Temp\ccBoNNmX.s 			page 73


 4054              	.LASF85:
 4055 00b5 41484231 		.ascii	"AHB1RSTR\000"
 4055      52535452 
 4055      00
 4056              	.LASF113:
 4057 00be 47545052 		.ascii	"GTPR\000"
 4057      00
 4058              	.LASF48:
 4059 00c3 705F6D70 		.ascii	"p_mpool\000"
 4059      6F6F6C00 
 4060              	.LASF18:
 4061 00cb 626F6F6C 		.ascii	"bool_t\000"
 4061      5F7400
 4062              	.LASF56:
 4063 00d2 6D5F7175 		.ascii	"m_queue\000"
 4063      65756500 
 4064              	.LASF23:
 4065 00da 74736C69 		.ascii	"tslices_t\000"
 4065      6365735F 
 4065      7400
 4066              	.LASF112:
 4067 00e4 5243435F 		.ascii	"RCC_TypeDef\000"
 4067      54797065 
 4067      44656600 
 4068              	.LASF148:
 4069 00f0 64656661 		.ascii	"default_config\000"
 4069      756C745F 
 4069      636F6E66 
 4069      696700
 4070              	.LASF121:
 4071 00ff 73746174 		.ascii	"state\000"
 4071      6500
 4072              	.LASF9:
 4073 0105 6C6F6E67 		.ascii	"long int\000"
 4073      20696E74 
 4073      00
 4074              	.LASF90:
 4075 010e 41504232 		.ascii	"APB2RSTR\000"
 4075      52535452 
 4075      00
 4076              	.LASF103:
 4077 0117 41504231 		.ascii	"APB1LPENR\000"
 4077      4C50454E 
 4077      5200
 4078              	.LASF21:
 4079 0121 74737461 		.ascii	"tstate_t\000"
 4079      74655F74 
 4079      00
 4080              	.LASF157:
 4081 012a 63684F51 		.ascii	"chOQGetI\000"
 4081      47657449 
 4081      00
 4082              	.LASF39:
 4083 0133 705F7265 		.ascii	"p_refs\000"
 4083      667300
 4084              	.LASF74:
 4085 013a 715F6275 		.ascii	"q_buffer\000"
ARM GAS  C:\Users\danit\AppData\Local\Temp\ccBoNNmX.s 			page 74


 4085      66666572 
 4085      00
 4086              	.LASF76:
 4087 0143 715F7772 		.ascii	"q_wrptr\000"
 4087      70747200 
 4088              	.LASF41:
 4089 014b 705F7469 		.ascii	"p_time\000"
 4089      6D6500
 4090              	.LASF150:
 4091 0152 63684576 		.ascii	"chEvtBroadcastFlagsI\000"
 4091      7442726F 
 4091      61646361 
 4091      7374466C 
 4091      61677349 
 4092              	.LASF34:
 4093 0167 705F6E65 		.ascii	"p_newer\000"
 4093      77657200 
 4094              	.LASF83:
 4095 016f 504C4C43 		.ascii	"PLLCFGR\000"
 4095      46475200 
 4096              	.LASF10:
 4097 0177 5F5F7569 		.ascii	"__uint32_t\000"
 4097      6E743332 
 4097      5F7400
 4098              	.LASF51:
 4099 0182 72656761 		.ascii	"regarm_t\000"
 4099      726D5F74 
 4099      00
 4100              	.LASF136:
 4101 018b 75736172 		.ascii	"usart_deinit\000"
 4101      745F6465 
 4101      696E6974 
 4101      00
 4102              	.LASF64:
 4103 0198 4576656E 		.ascii	"EventSource\000"
 4103      74536F75 
 4103      72636500 
 4104              	.LASF124:
 4105 01a4 75736172 		.ascii	"usart\000"
 4105      7400
 4106              	.LASF0:
 4107 01aa 756E7369 		.ascii	"unsigned int\000"
 4107      676E6564 
 4107      20696E74 
 4107      00
 4108              	.LASF15:
 4109 01b7 75696E74 		.ascii	"uint16_t\000"
 4109      31365F74 
 4109      00
 4110              	.LASF127:
 4111 01c0 53657269 		.ascii	"SerialDriverVMT\000"
 4111      616C4472 
 4111      69766572 
 4111      564D5400 
 4112              	.LASF122:
 4113 01d0 69717565 		.ascii	"iqueue\000"
 4113      756500
ARM GAS  C:\Users\danit\AppData\Local\Temp\ccBoNNmX.s 			page 75


 4114              	.LASF43:
 4115 01d7 705F6D73 		.ascii	"p_msgqueue\000"
 4115      67717565 
 4115      756500
 4116              	.LASF145:
 4117 01e2 73645F6C 		.ascii	"sd_lld_init\000"
 4117      6C645F69 
 4117      6E697400 
 4118              	.LASF131:
 4119 01ee 67657474 		.ascii	"gett\000"
 4119      00
 4120              	.LASF120:
 4121 01f3 6576656E 		.ascii	"event\000"
 4121      7400
 4122              	.LASF7:
 4123 01f9 73686F72 		.ascii	"short unsigned int\000"
 4123      7420756E 
 4123      7369676E 
 4123      65642069 
 4123      6E7400
 4124              	.LASF109:
 4125 020c 504C4C49 		.ascii	"PLLI2SCFGR\000"
 4125      32534346 
 4125      475200
 4126              	.LASF25:
 4127 0217 6D73675F 		.ascii	"msg_t\000"
 4127      7400
 4128              	.LASF123:
 4129 021d 6F717565 		.ascii	"oqueue\000"
 4129      756500
 4130              	.LASF158:
 4131 0224 5F706F72 		.ascii	"_port_irq_epilogue\000"
 4131      745F6972 
 4131      715F6570 
 4131      696C6F67 
 4131      756500
 4132              	.LASF114:
 4133 0237 55534152 		.ascii	"USART_TypeDef\000"
 4133      545F5479 
 4133      70654465 
 4133      6600
 4134              	.LASF132:
 4135 0245 77726974 		.ascii	"writet\000"
 4135      657400
 4136              	.LASF20:
 4137 024c 746D6F64 		.ascii	"tmode_t\000"
 4137      655F7400 
 4138              	.LASF104:
 4139 0254 41504232 		.ascii	"APB2LPENR\000"
 4139      4C50454E 
 4139      5200
 4140              	.LASF50:
 4141 025e 54687265 		.ascii	"ThreadsList\000"
 4141      6164734C 
 4141      69737400 
 4142              	.LASF26:
 4143 026a 6576656E 		.ascii	"eventmask_t\000"
ARM GAS  C:\Users\danit\AppData\Local\Temp\ccBoNNmX.s 			page 76


 4143      746D6173 
 4143      6B5F7400 
 4144              	.LASF142:
 4145 0276 56656374 		.ascii	"VectorD4\000"
 4145      6F724434 
 4145      00
 4146              	.LASF125:
 4147 027f 73706565 		.ascii	"speed\000"
 4147      6400
 4148              	.LASF143:
 4149 0285 56656374 		.ascii	"VectorD8\000"
 4149      6F724438 
 4149      00
 4150              	.LASF80:
 4151 028e 716E6F74 		.ascii	"qnotify_t\000"
 4151      6966795F 
 4151      7400
 4152              	.LASF71:
 4153 0298 47656E65 		.ascii	"GenericQueue\000"
 4153      72696351 
 4153      75657565 
 4153      00
 4154              	.LASF144:
 4155 02a5 56656374 		.ascii	"VectorDC\000"
 4155      6F724443 
 4155      00
 4156              	.LASF128:
 4157 02ae 77726974 		.ascii	"write\000"
 4157      6500
 4158              	.LASF130:
 4159 02b4 70757474 		.ascii	"putt\000"
 4159      00
 4160              	.LASF135:
 4161 02b9 75736172 		.ascii	"usart_init\000"
 4161      745F696E 
 4161      697400
 4162              	.LASF54:
 4163 02c4 73697A65 		.ascii	"sizetype\000"
 4163      74797065 
 4163      00
 4164              	.LASF73:
 4165 02cd 715F636F 		.ascii	"q_counter\000"
 4165      756E7465 
 4165      7200
 4166              	.LASF55:
 4167 02d7 4D757465 		.ascii	"Mutex\000"
 4167      7800
 4168              	.LASF30:
 4169 02dd 705F6E65 		.ascii	"p_next\000"
 4169      787400
 4170              	.LASF94:
 4171 02e4 41484233 		.ascii	"AHB3ENR\000"
 4171      454E5200 
 4172              	.LASF35:
 4173 02ec 705F6F6C 		.ascii	"p_older\000"
 4173      64657200 
 4174              	.LASF49:
ARM GAS  C:\Users\danit\AppData\Local\Temp\ccBoNNmX.s 			page 77


 4175 02f4 54687265 		.ascii	"ThreadsQueue\000"
 4175      61647351 
 4175      75657565 
 4175      00
 4176              	.LASF100:
 4177 0301 41484232 		.ascii	"AHB2LPENR\000"
 4177      4C50454E 
 4177      5200
 4178              	.LASF155:
 4179 030b 2E2E2F2E 		.ascii	"../../../ChibiOS/os/hal/platforms/STM32/USARTv1/ser"
 4179      2E2F2E2E 
 4179      2F436869 
 4179      62694F53 
 4179      2F6F732F 
 4180 033e 69616C5F 		.ascii	"ial_lld.c\000"
 4180      6C6C642E 
 4180      6300
 4181              	.LASF89:
 4182 0348 41504231 		.ascii	"APB1RSTR\000"
 4182      52535452 
 4182      00
 4183              	.LASF62:
 4184 0351 656C5F6D 		.ascii	"el_mask\000"
 4184      61736B00 
 4185              	.LASF126:
 4186 0359 53657269 		.ascii	"SerialConfig\000"
 4186      616C436F 
 4186      6E666967 
 4186      00
 4187              	.LASF137:
 4188 0366 6E6F7469 		.ascii	"notify1\000"
 4188      66793100 
 4189              	.LASF138:
 4190 036e 6E6F7469 		.ascii	"notify2\000"
 4190      66793200 
 4191              	.LASF139:
 4192 0376 6E6F7469 		.ascii	"notify3\000"
 4192      66793300 
 4193              	.LASF110:
 4194 037e 504C4C53 		.ascii	"PLLSAICFGR\000"
 4194      41494346 
 4194      475200
 4195              	.LASF22:
 4196 0389 74726566 		.ascii	"trefs_t\000"
 4196      735F7400 
 4197              	.LASF88:
 4198 0391 52455345 		.ascii	"RESERVED0\000"
 4198      52564544 
 4198      3000
 4199              	.LASF91:
 4200 039b 52455345 		.ascii	"RESERVED1\000"
 4200      52564544 
 4200      3100
 4201              	.LASF95:
 4202 03a5 52455345 		.ascii	"RESERVED2\000"
 4202      52564544 
 4202      3200
ARM GAS  C:\Users\danit\AppData\Local\Temp\ccBoNNmX.s 			page 78


 4203              	.LASF98:
 4204 03af 52455345 		.ascii	"RESERVED3\000"
 4204      52564544 
 4204      3300
 4205              	.LASF102:
 4206 03b9 52455345 		.ascii	"RESERVED4\000"
 4206      52564544 
 4206      3400
 4207              	.LASF31:
 4208 03c3 705F7072 		.ascii	"p_prev\000"
 4208      657600
 4209              	.LASF107:
 4210 03ca 52455345 		.ascii	"RESERVED6\000"
 4210      52564544 
 4210      3600
 4211              	.LASF24:
 4212 03d4 74707269 		.ascii	"tprio_t\000"
 4212      6F5F7400 
 4213              	.LASF77:
 4214 03dc 715F7264 		.ascii	"q_rdptr\000"
 4214      70747200 
 4215              	.LASF19:
 4216 03e4 5F426F6F 		.ascii	"_Bool\000"
 4216      6C00
 4217              	.LASF16:
 4218 03ea 696E7433 		.ascii	"int32_t\000"
 4218      325F7400 
 4219              	.LASF4:
 4220 03f2 756E7369 		.ascii	"unsigned char\000"
 4220      676E6564 
 4220      20636861 
 4220      7200
 4221              	.LASF146:
 4222 0400 73645F6C 		.ascii	"sd_lld_start\000"
 4222      6C645F73 
 4222      74617274 
 4222      00
 4223              	.LASF61:
 4224 040d 656C5F6C 		.ascii	"el_listener\000"
 4224      69737465 
 4224      6E657200 
 4225              	.LASF63:
 4226 0419 656C5F66 		.ascii	"el_flags\000"
 4226      6C616773 
 4226      00
 4227              	.LASF37:
 4228 0422 705F7374 		.ascii	"p_state\000"
 4228      61746500 
 4229              	.LASF46:
 4230 042a 705F6D74 		.ascii	"p_mtxlist\000"
 4230      786C6973 
 4230      7400
 4231              	.LASF5:
 4232 0434 73686F72 		.ascii	"short int\000"
 4232      7420696E 
 4232      7400
 4233              	.LASF40:
ARM GAS  C:\Users\danit\AppData\Local\Temp\ccBoNNmX.s 			page 79


 4234 043e 705F7072 		.ascii	"p_preempt\000"
 4234      65656D70 
 4234      7400
 4235              	.LASF101:
 4236 0448 41484233 		.ascii	"AHB3LPENR\000"
 4236      4C50454E 
 4236      5200
 4237              	.LASF69:
 4238 0452 65776D61 		.ascii	"ewmask\000"
 4238      736B00
 4239              	.LASF38:
 4240 0459 705F666C 		.ascii	"p_flags\000"
 4240      61677300 
 4241              	.LASF60:
 4242 0461 656C5F6E 		.ascii	"el_next\000"
 4242      65787400 
 4243              	.LASF116:
 4244 0469 53445F53 		.ascii	"SD_STOP\000"
 4244      544F5000 
 4245              	.LASF97:
 4246 0471 41504232 		.ascii	"APB2ENR\000"
 4246      454E5200 
 4247              	.LASF87:
 4248 0479 41484233 		.ascii	"AHB3RSTR\000"
 4248      52535452 
 4248      00
 4249              	.LASF29:
 4250 0482 54687265 		.ascii	"Thread\000"
 4250      616400
 4251              	.LASF141:
 4252 0489 73657276 		.ascii	"serve_interrupt\000"
 4252      655F696E 
 4252      74657272 
 4252      75707400 
 4253              	.LASF45:
 4254 0499 705F6570 		.ascii	"p_epending\000"
 4254      656E6469 
 4254      6E6700
 4255              	.LASF115:
 4256 04a4 53445F55 		.ascii	"SD_UNINIT\000"
 4256      4E494E49 
 4256      5400
 4257              	.LASF105:
 4258 04ae 52455345 		.ascii	"RESERVED5\000"
 4258      52564544 
 4258      3500
 4259              	.LASF17:
 4260 04b8 75696E74 		.ascii	"uint32_t\000"
 4260      33325F74 
 4260      00
 4261              	.LASF118:
 4262 04c1 73647374 		.ascii	"sdstate_t\000"
 4262      6174655F 
 4262      7400
 4263              	.LASF119:
 4264 04cb 53657269 		.ascii	"SerialDriver\000"
 4264      616C4472 
ARM GAS  C:\Users\danit\AppData\Local\Temp\ccBoNNmX.s 			page 80


 4264      69766572 
 4264      00
 4265              	.LASF159:
 4266 04d8 6E766963 		.ascii	"nvicDisableVector\000"
 4266      44697361 
 4266      626C6556 
 4266      6563746F 
 4266      7200
 4267              	.LASF11:
 4268 04ea 6C6F6E67 		.ascii	"long unsigned int\000"
 4268      20756E73 
 4268      69676E65 
 4268      6420696E 
 4268      7400
 4269              	.LASF129:
 4270 04fc 72656164 		.ascii	"read\000"
 4270      00
 4271              	.LASF70:
 4272 0501 63686172 		.ascii	"char\000"
 4272      00
 4273              	.LASF151:
 4274 0506 7364496E 		.ascii	"sdIncomingDataI\000"
 4274      636F6D69 
 4274      6E674461 
 4274      74614900 
 4275              	.LASF134:
 4276 0516 636F6E66 		.ascii	"config\000"
 4276      696700
 4277              	.LASF6:
 4278 051d 5F5F7569 		.ascii	"__uint16_t\000"
 4278      6E743136 
 4278      5F7400
 4279              	.LASF86:
 4280 0528 41484232 		.ascii	"AHB2RSTR\000"
 4280      52535452 
 4280      00
 4281              	.LASF58:
 4282 0531 6D5F6E65 		.ascii	"m_next\000"
 4282      787400
 4283              	.LASF28:
 4284 0538 73797374 		.ascii	"systime_t\000"
 4284      696D655F 
 4284      7400
 4285              	.LASF47:
 4286 0542 705F7265 		.ascii	"p_realprio\000"
 4286      616C7072 
 4286      696F00
 4287              	.LASF8:
 4288 054d 5F5F696E 		.ascii	"__int32_t\000"
 4288      7433325F 
 4288      7400
 4289              	.LASF96:
 4290 0557 41504231 		.ascii	"APB1ENR\000"
 4290      454E5200 
 4291              	.LASF93:
 4292 055f 41484232 		.ascii	"AHB2ENR\000"
 4292      454E5200 
ARM GAS  C:\Users\danit\AppData\Local\Temp\ccBoNNmX.s 			page 81


 4293              	.LASF53:
 4294 0567 636F6E74 		.ascii	"context\000"
 4294      65787400 
 4295              	.LASF52:
 4296 056f 696E7463 		.ascii	"intctx\000"
 4296      747800
 4297              	.LASF117:
 4298 0576 53445F52 		.ascii	"SD_READY\000"
 4298      45414459 
 4298      00
 4299              	.LASF27:
 4300 057f 666C6167 		.ascii	"flagsmask_t\000"
 4300      736D6173 
 4300      6B5F7400 
 4301              	.LASF108:
 4302 058b 53534347 		.ascii	"SSCGR\000"
 4302      5200
 4303              	.LASF75:
 4304 0591 715F746F 		.ascii	"q_top\000"
 4304      7000
 4305              	.LASF36:
 4306 0597 705F6E61 		.ascii	"p_name\000"
 4306      6D6500
 4307              	.LASF65:
 4308 059e 65735F6E 		.ascii	"es_next\000"
 4308      65787400 
 4309              	.LASF154:
 4310 05a6 474E5520 		.ascii	"GNU C 4.9.3 20150529 (release) [ARM/embedded-4_9-br"
 4310      4320342E 
 4310      392E3320 
 4310      32303135 
 4310      30353239 
 4311 05d9 616E6368 		.ascii	"anch revision 224288] -mcpu=cortex-m4 -mno-thumb-in"
 4311      20726576 
 4311      6973696F 
 4311      6E203232 
 4311      34323838 
 4312 060c 74657277 		.ascii	"terwork -mthumb -ggdb -O2 -fomit-frame-pointer -fal"
 4312      6F726B20 
 4312      2D6D7468 
 4312      756D6220 
 4312      2D676764 
 4313 063f 69676E2D 		.ascii	"ign-functions=16 -ffunction-sections -fdata-section"
 4313      66756E63 
 4313      74696F6E 
 4313      733D3136 
 4313      202D6666 
 4314 0672 73202D66 		.ascii	"s -fno-common\000"
 4314      6E6F2D63 
 4314      6F6D6D6F 
 4314      6E00
 4315              	.LASF106:
 4316 0680 42444352 		.ascii	"BDCR\000"
 4316      00
 4317              	.LASF78:
 4318 0685 715F6E6F 		.ascii	"q_notify\000"
 4318      74696679 
ARM GAS  C:\Users\danit\AppData\Local\Temp\ccBoNNmX.s 			page 82


 4318      00
 4319              	.LASF14:
 4320 068e 75696E74 		.ascii	"uint8_t\000"
 4320      385F7400 
 4321              	.LASF81:
 4322 0696 496E7075 		.ascii	"InputQueue\000"
 4322      74517565 
 4322      756500
 4323              	.LASF32:
 4324 06a1 705F7072 		.ascii	"p_prio\000"
 4324      696F00
 4325              	.LASF59:
 4326 06a8 4576656E 		.ascii	"EventListener\000"
 4326      744C6973 
 4326      74656E65 
 4326      7200
 4327              	.LASF68:
 4328 06b6 77746F62 		.ascii	"wtobjp\000"
 4328      6A7000
 4329              	.LASF92:
 4330 06bd 41484231 		.ascii	"AHB1ENR\000"
 4330      454E5200 
 4331              	.LASF84:
 4332 06c5 43464752 		.ascii	"CFGR\000"
 4332      00
 4333              	.LASF44:
 4334 06ca 705F6D73 		.ascii	"p_msg\000"
 4334      6700
 4335              	.LASF147:
 4336 06d0 73645F6C 		.ascii	"sd_lld_stop\000"
 4336      6C645F73 
 4336      746F7000 
 4337              	.LASF156:
 4338 06dc 443A5C44 		.ascii	"D:\\Dani\\MegaLux\\Repo\\Smarty\\Smarty\\smarty\\fi"
 4338      616E695C 
 4338      4D656761 
 4338      4C75785C 
 4338      5265706F 
 4339 0708 726D7761 		.ascii	"rmware\000"
 4339      726500
 4340              	.LASF79:
 4341 070f 715F6C69 		.ascii	"q_link\000"
 4341      6E6B00
 4342              	.LASF57:
 4343 0716 6D5F6F77 		.ascii	"m_owner\000"
 4343      6E657200 
 4344              	.LASF33:
 4345 071e 705F6374 		.ascii	"p_ctx\000"
 4345      7800
 4346              	.LASF42:
 4347 0724 705F7761 		.ascii	"p_waiting\000"
 4347      6974696E 
 4347      6700
 4348              		.ident	"GCC: (GNU Tools for ARM Embedded Processors) 4.9.3 20150529 (release) [ARM/embedded-4_9-br
ARM GAS  C:\Users\danit\AppData\Local\Temp\ccBoNNmX.s 			page 83


DEFINED SYMBOLS
                            *ABS*:00000000 serial_lld.c
C:\Users\danit\AppData\Local\Temp\ccBoNNmX.s:19     .text.notify1:00000000 $t
C:\Users\danit\AppData\Local\Temp\ccBoNNmX.s:24     .text.notify1:00000000 notify1
C:\Users\danit\AppData\Local\Temp\ccBoNNmX.s:43     .text.notify1:00000010 $d
C:\Users\danit\AppData\Local\Temp\ccBoNNmX.s:48     .text.notify2:00000000 $t
C:\Users\danit\AppData\Local\Temp\ccBoNNmX.s:53     .text.notify2:00000000 notify2
C:\Users\danit\AppData\Local\Temp\ccBoNNmX.s:71     .text.notify2:00000010 $d
C:\Users\danit\AppData\Local\Temp\ccBoNNmX.s:76     .text.notify3:00000000 $t
C:\Users\danit\AppData\Local\Temp\ccBoNNmX.s:81     .text.notify3:00000000 notify3
C:\Users\danit\AppData\Local\Temp\ccBoNNmX.s:99     .text.notify3:00000010 $d
C:\Users\danit\AppData\Local\Temp\ccBoNNmX.s:104    .text.serve_interrupt:00000000 $t
C:\Users\danit\AppData\Local\Temp\ccBoNNmX.s:109    .text.serve_interrupt:00000000 serve_interrupt
C:\Users\danit\AppData\Local\Temp\ccBoNNmX.s:364    .text.VectorD4:00000000 $t
C:\Users\danit\AppData\Local\Temp\ccBoNNmX.s:370    .text.VectorD4:00000000 VectorD4
C:\Users\danit\AppData\Local\Temp\ccBoNNmX.s:395    .text.VectorD4:00000010 $d
C:\Users\danit\AppData\Local\Temp\ccBoNNmX.s:400    .text.VectorD8:00000000 $t
C:\Users\danit\AppData\Local\Temp\ccBoNNmX.s:406    .text.VectorD8:00000000 VectorD8
C:\Users\danit\AppData\Local\Temp\ccBoNNmX.s:431    .text.VectorD8:00000010 $d
C:\Users\danit\AppData\Local\Temp\ccBoNNmX.s:436    .text.VectorDC:00000000 $t
C:\Users\danit\AppData\Local\Temp\ccBoNNmX.s:442    .text.VectorDC:00000000 VectorDC
C:\Users\danit\AppData\Local\Temp\ccBoNNmX.s:467    .text.VectorDC:00000010 $d
C:\Users\danit\AppData\Local\Temp\ccBoNNmX.s:472    .text.sd_lld_init:00000000 $t
C:\Users\danit\AppData\Local\Temp\ccBoNNmX.s:478    .text.sd_lld_init:00000000 sd_lld_init
C:\Users\danit\AppData\Local\Temp\ccBoNNmX.s:532    .text.sd_lld_init:00000034 $d
C:\Users\danit\AppData\Local\Temp\ccBoNNmX.s:545    .text.sd_lld_start:00000000 $t
C:\Users\danit\AppData\Local\Temp\ccBoNNmX.s:551    .text.sd_lld_start:00000000 sd_lld_start
C:\Users\danit\AppData\Local\Temp\ccBoNNmX.s:708    .text.sd_lld_start:000000b8 $d
C:\Users\danit\AppData\Local\Temp\ccBoNNmX.s:720    .text.sd_lld_stop:00000000 $t
C:\Users\danit\AppData\Local\Temp\ccBoNNmX.s:726    .text.sd_lld_stop:00000000 sd_lld_stop
C:\Users\danit\AppData\Local\Temp\ccBoNNmX.s:811    .text.sd_lld_stop:00000054 $d
C:\Users\danit\AppData\Local\Temp\ccBoNNmX.s:851    .bss.SD3:00000000 SD3
C:\Users\danit\AppData\Local\Temp\ccBoNNmX.s:844    .bss.SD2:00000000 SD2
C:\Users\danit\AppData\Local\Temp\ccBoNNmX.s:837    .bss.SD1:00000000 SD1
C:\Users\danit\AppData\Local\Temp\ccBoNNmX.s:822    .rodata.default_config:00000000 $d
C:\Users\danit\AppData\Local\Temp\ccBoNNmX.s:826    .rodata.default_config:00000000 default_config
C:\Users\danit\AppData\Local\Temp\ccBoNNmX.s:833    .bss.SD1:00000000 $d
C:\Users\danit\AppData\Local\Temp\ccBoNNmX.s:840    .bss.SD2:00000000 $d
C:\Users\danit\AppData\Local\Temp\ccBoNNmX.s:847    .bss.SD3:00000000 $d
                     .debug_frame:00000010 $d

UNDEFINED SYMBOLS
sdIncomingDataI
chEvtBroadcastFlagsI
chOQGetI
_port_irq_epilogue
sdObjectInit
nvicEnableVector
nvicDisableVector
