ARM GAS  C:\Users\danit\AppData\Local\Temp\ccBoNNmX.s 			page 1


   1              		.syntax unified
   2              		.cpu cortex-m4
   3              		.fpu softvfp
   4              		.eabi_attribute 20, 1
   5              		.eabi_attribute 21, 1
   6              		.eabi_attribute 23, 3
   7              		.eabi_attribute 24, 1
   8              		.eabi_attribute 25, 1
   9              		.eabi_attribute 26, 1
  10              		.eabi_attribute 30, 2
  11              		.eabi_attribute 34, 1
  12              		.eabi_attribute 18, 4
  13              		.thumb
  14              		.file	"serial_lld.c"
  15              		.text
  16              	.Ltext0:
  17              		.cfi_sections	.debug_frame
  18              		.section	.text.notify1,"ax",%progbits
  19              		.align	2
  20              		.p2align 4,,15
  21              		.thumb
  22              		.thumb_func
  23              		.type	notify1, %function
  24              	notify1:
  25              	.LFB122:
  26              		.file 1 "../../../ChibiOS/os/hal/platforms/STM32/USARTv1/serial_lld.c"
  27              		.loc 1 204 0
  28              		.cfi_startproc
  29              		@ args = 0, pretend = 0, frame = 0
  30              		@ frame_needed = 0, uses_anonymous_args = 0
  31              		@ link register save eliminated.
  32              	.LVL0:
  33              		.loc 1 207 0
  34 0000 034A     		ldr	r2, .L2
  35 0002 9389     		ldrh	r3, [r2, #12]
  36 0004 9BB2     		uxth	r3, r3
  37 0006 43F08003 		orr	r3, r3, #128
  38 000a 9381     		strh	r3, [r2, #12]	@ movhi
  39 000c 7047     		bx	lr
  40              	.L3:
  41 000e 00BF     		.align	2
  42              	.L2:
  43 0010 00100140 		.word	1073811456
  44              		.cfi_endproc
  45              	.LFE122:
  46              		.size	notify1, .-notify1
  47              		.section	.text.notify2,"ax",%progbits
  48              		.align	2
  49              		.p2align 4,,15
  50              		.thumb
  51              		.thumb_func
  52              		.type	notify2, %function
  53              	notify2:
  54              	.LFB123:
  55              		.loc 1 212 0
  56              		.cfi_startproc
  57              		@ args = 0, pretend = 0, frame = 0
ARM GAS  C:\Users\danit\AppData\Local\Temp\ccBoNNmX.s 			page 2


  58              		@ frame_needed = 0, uses_anonymous_args = 0
  59              		@ link register save eliminated.
  60              	.LVL1:
  61              		.loc 1 215 0
  62 0000 034A     		ldr	r2, .L5
  63 0002 9389     		ldrh	r3, [r2, #12]
  64 0004 9BB2     		uxth	r3, r3
  65 0006 43F08003 		orr	r3, r3, #128
  66 000a 9381     		strh	r3, [r2, #12]	@ movhi
  67 000c 7047     		bx	lr
  68              	.L6:
  69 000e 00BF     		.align	2
  70              	.L5:
  71 0010 00440040 		.word	1073759232
  72              		.cfi_endproc
  73              	.LFE123:
  74              		.size	notify2, .-notify2
  75              		.section	.text.notify3,"ax",%progbits
  76              		.align	2
  77              		.p2align 4,,15
  78              		.thumb
  79              		.thumb_func
  80              		.type	notify3, %function
  81              	notify3:
  82              	.LFB124:
  83              		.loc 1 220 0
  84              		.cfi_startproc
  85              		@ args = 0, pretend = 0, frame = 0
  86              		@ frame_needed = 0, uses_anonymous_args = 0
  87              		@ link register save eliminated.
  88              	.LVL2:
  89              		.loc 1 223 0
  90 0000 034A     		ldr	r2, .L8
  91 0002 9389     		ldrh	r3, [r2, #12]
  92 0004 9BB2     		uxth	r3, r3
  93 0006 43F08003 		orr	r3, r3, #128
  94 000a 9381     		strh	r3, [r2, #12]	@ movhi
  95 000c 7047     		bx	lr
  96              	.L9:
  97 000e 00BF     		.align	2
  98              	.L8:
  99 0010 00480040 		.word	1073760256
 100              		.cfi_endproc
 101              	.LFE124:
 102              		.size	notify3, .-notify3
 103              		.section	.text.serve_interrupt,"ax",%progbits
 104              		.align	2
 105              		.p2align 4,,15
 106              		.thumb
 107              		.thumb_func
 108              		.type	serve_interrupt, %function
 109              	serve_interrupt:
 110              	.LFB121:
 111              		.loc 1 154 0
 112              		.cfi_startproc
 113              		@ args = 0, pretend = 0, frame = 0
 114              		@ frame_needed = 0, uses_anonymous_args = 0
ARM GAS  C:\Users\danit\AppData\Local\Temp\ccBoNNmX.s 			page 3


 115              	.LVL3:
 116 0000 2DE9F041 		push	{r4, r5, r6, r7, r8, lr}
 117              		.cfi_def_cfa_offset 24
 118              		.cfi_offset 4, -24
 119              		.cfi_offset 5, -20
 120              		.cfi_offset 6, -16
 121              		.cfi_offset 7, -12
 122              		.cfi_offset 8, -8
 123              		.cfi_offset 14, -4
 124              		.loc 1 155 0
 125 0004 456F     		ldr	r5, [r0, #116]
 126              	.LVL4:
 127              		.loc 1 156 0
 128 0006 AB89     		ldrh	r3, [r5, #12]
 129              		.loc 1 157 0
 130 0008 2C88     		ldrh	r4, [r5]
 131 000a A4B2     		uxth	r4, r4
 132              		.loc 1 160 0
 133 000c E705     		lsls	r7, r4, #23
 134              		.loc 1 154 0
 135 000e 0646     		mov	r6, r0
 136              		.loc 1 156 0
 137 0010 1FFA83F8 		uxth	r8, r3
 138              	.LVL5:
 139              		.loc 1 160 0
 140 0014 46D4     		bmi	.L56
 141              	.LVL6:
 142              	.L11:
 143              	.LBB15:
 144              		.loc 1 168 0
 145 0016 2023     		movs	r3, #32
 146              	@ 168 "../../../ChibiOS/os/hal/platforms/STM32/USARTv1/serial_lld.c" 1
 147 0018 83F31188 		msr     BASEPRI, r3
 148              	@ 0 "" 2
 149              		.thumb
 150              	.LBE15:
 151              		.loc 1 169 0
 152 001c A006     		lsls	r0, r4, #26
 153 001e 22D5     		bpl	.L12
 154              	.LBB16:
 155              	.LBB17:
 156              		.loc 1 146 0
 157 0020 371D     		adds	r7, r6, #4
 158 0022 08E0     		b	.L18
 159              	.LVL7:
 160              	.L13:
 161              	.LBE17:
 162              	.LBE16:
 163              		.loc 1 173 0
 164 0024 A988     		ldrh	r1, [r5, #4]
 165 0026 3046     		mov	r0, r6
 166 0028 C9B2     		uxtb	r1, r1
 167 002a FFF7FEFF 		bl	sdIncomingDataI
 168              	.LVL8:
 169              		.loc 1 174 0
 170 002e 2C88     		ldrh	r4, [r5]
 171 0030 A4B2     		uxth	r4, r4
ARM GAS  C:\Users\danit\AppData\Local\Temp\ccBoNNmX.s 			page 4


 172              	.LVL9:
 173              		.loc 1 169 0
 174 0032 A106     		lsls	r1, r4, #26
 175 0034 17D5     		bpl	.L12
 176              	.L18:
 177              		.loc 1 171 0
 178 0036 2207     		lsls	r2, r4, #28
 179 0038 F4D0     		beq	.L13
 180              	.LVL10:
 181              	.LBB19:
 182              	.LBB18:
 183              		.loc 1 139 0
 184 003a 14F0080F 		tst	r4, #8
 185 003e 14BF     		ite	ne
 186 0040 8021     		movne	r1, #128
 187 0042 0021     		moveq	r1, #0
 188              	.LVL11:
 189              		.loc 1 140 0
 190 0044 14F0010F 		tst	r4, #1
 191              		.loc 1 141 0
 192 0048 18BF     		it	ne
 193 004a 41F02001 		orrne	r1, r1, #32
 194              	.LVL12:
 195              		.loc 1 142 0
 196 004e A307     		lsls	r3, r4, #30
 197              		.loc 1 143 0
 198 0050 48BF     		it	mi
 199 0052 41F04001 		orrmi	r1, r1, #64
 200              	.LVL13:
 201              		.loc 1 144 0
 202 0056 6407     		lsls	r4, r4, #29
 203              	.LVL14:
 204              		.loc 1 146 0
 205 0058 3846     		mov	r0, r7
 206              		.loc 1 145 0
 207 005a 48BF     		it	mi
 208 005c 41F48071 		orrmi	r1, r1, #256
 209              	.LVL15:
 210              		.loc 1 146 0
 211 0060 FFF7FEFF 		bl	chEvtBroadcastFlagsI
 212              	.LVL16:
 213 0064 DEE7     		b	.L13
 214              	.LVL17:
 215              	.L12:
 216              	.LBE18:
 217              	.LBE19:
 218              	.LBB20:
 219              		.loc 1 176 0
 220 0066 0023     		movs	r3, #0
 221              	@ 176 "../../../ChibiOS/os/hal/platforms/STM32/USARTv1/serial_lld.c" 1
 222 0068 83F31188 		msr     BASEPRI, r3
 223              	@ 0 "" 2
 224              		.thumb
 225              	.LBE20:
 226              		.loc 1 179 0
 227 006c 18F0800F 		tst	r8, #128
 228 0070 01D0     		beq	.L19
ARM GAS  C:\Users\danit\AppData\Local\Temp\ccBoNNmX.s 			page 5


 229              		.loc 1 179 0 is_stmt 0 discriminator 1
 230 0072 2206     		lsls	r2, r4, #24
 231 0074 25D4     		bmi	.L57
 232              	.L19:
 233              		.loc 1 193 0 is_stmt 1
 234 0076 6306     		lsls	r3, r4, #25
 235 0078 12D5     		bpl	.L10
 236              	.LBB21:
 237              		.loc 1 194 0
 238 007a 2023     		movs	r3, #32
 239              	@ 194 "../../../ChibiOS/os/hal/platforms/STM32/USARTv1/serial_lld.c" 1
 240 007c 83F31188 		msr     BASEPRI, r3
 241              	@ 0 "" 2
 242              		.thumb
 243              	.LBE21:
 244              		.loc 1 195 0
 245 0080 726C     		ldr	r2, [r6, #68]
 246 0082 B36C     		ldr	r3, [r6, #72]
 247 0084 9A42     		cmp	r2, r3
 248 0086 2BD0     		beq	.L58
 249              	.L23:
 250              		.loc 1 197 0
 251 0088 28F04003 		bic	r3, r8, #64
 252 008c 9BB2     		uxth	r3, r3
 253              		.loc 1 198 0
 254 008e 4FF6BF72 		movw	r2, #65471
 255              		.loc 1 197 0
 256 0092 AB81     		strh	r3, [r5, #12]	@ movhi
 257              	.LBB22:
 258              		.loc 1 199 0
 259 0094 0023     		movs	r3, #0
 260              	.LBE22:
 261              		.loc 1 198 0
 262 0096 2A80     		strh	r2, [r5]	@ movhi
 263              	.LBB23:
 264              		.loc 1 199 0
 265              	@ 199 "../../../ChibiOS/os/hal/platforms/STM32/USARTv1/serial_lld.c" 1
 266 0098 83F31188 		msr     BASEPRI, r3
 267              	@ 0 "" 2
 268              		.thumb
 269 009c BDE8F081 		pop	{r4, r5, r6, r7, r8, pc}
 270              	.LVL18:
 271              	.L10:
 272 00a0 BDE8F081 		pop	{r4, r5, r6, r7, r8, pc}
 273              	.LVL19:
 274              	.L56:
 275              	.LBE23:
 276              	.LBB24:
 277              		.loc 1 161 0
 278 00a4 2023     		movs	r3, #32
 279              	@ 161 "../../../ChibiOS/os/hal/platforms/STM32/USARTv1/serial_lld.c" 1
 280 00a6 83F31188 		msr     BASEPRI, r3
 281              	@ 0 "" 2
 282              		.thumb
 283              	.LBE24:
 284              		.loc 1 162 0
 285 00aa 4FF40071 		mov	r1, #512
ARM GAS  C:\Users\danit\AppData\Local\Temp\ccBoNNmX.s 			page 6


 286 00ae 0430     		adds	r0, r0, #4
 287              	.LVL20:
 288 00b0 FFF7FEFF 		bl	chEvtBroadcastFlagsI
 289              	.LVL21:
 290              	.LBB25:
 291              		.loc 1 163 0
 292 00b4 0023     		movs	r3, #0
 293              	@ 163 "../../../ChibiOS/os/hal/platforms/STM32/USARTv1/serial_lld.c" 1
 294 00b6 83F31188 		msr     BASEPRI, r3
 295              	@ 0 "" 2
 296              		.thumb
 297              	.LBE25:
 298              		.loc 1 164 0
 299 00ba 4FF6FF63 		movw	r3, #65279
 300 00be 2B80     		strh	r3, [r5]	@ movhi
 301 00c0 A9E7     		b	.L11
 302              	.L57:
 303              	.LBB26:
 304              	.LBB27:
 305              		.loc 1 181 0
 306 00c2 2023     		movs	r3, #32
 307              	@ 181 "../../../ChibiOS/os/hal/platforms/STM32/USARTv1/serial_lld.c" 1
 308 00c4 83F31188 		msr     BASEPRI, r3
 309              	@ 0 "" 2
 310              		.thumb
 311              	.LBE27:
 312              		.loc 1 182 0
 313 00c8 06F13000 		add	r0, r6, #48
 314 00cc FFF7FEFF 		bl	chOQGetI
 315              	.LVL22:
 316              		.loc 1 183 0
 317 00d0 0028     		cmp	r0, #0
 318 00d2 0DDB     		blt	.L59
 319              		.loc 1 188 0
 320 00d4 80B2     		uxth	r0, r0
 321              	.LVL23:
 322 00d6 A880     		strh	r0, [r5, #4]	@ movhi
 323              	.L21:
 324              	.LBB28:
 325              		.loc 1 189 0
 326 00d8 0023     		movs	r3, #0
 327              	@ 189 "../../../ChibiOS/os/hal/platforms/STM32/USARTv1/serial_lld.c" 1
 328 00da 83F31188 		msr     BASEPRI, r3
 329              	@ 0 "" 2
 330              		.thumb
 331 00de CAE7     		b	.L19
 332              	.L58:
 333              	.LBE28:
 334              	.LBE26:
 335              		.loc 1 195 0 discriminator 1
 336 00e0 B36B     		ldr	r3, [r6, #56]
 337 00e2 002B     		cmp	r3, #0
 338 00e4 D0D0     		beq	.L23
 339              		.loc 1 196 0
 340 00e6 301D     		adds	r0, r6, #4
 341 00e8 1021     		movs	r1, #16
 342 00ea FFF7FEFF 		bl	chEvtBroadcastFlagsI
ARM GAS  C:\Users\danit\AppData\Local\Temp\ccBoNNmX.s 			page 7


 343              	.LVL24:
 344 00ee CBE7     		b	.L23
 345              	.LVL25:
 346              	.L59:
 347              	.LBB29:
 348              		.loc 1 184 0
 349 00f0 301D     		adds	r0, r6, #4
 350              	.LVL26:
 351 00f2 0821     		movs	r1, #8
 352 00f4 FFF7FEFF 		bl	chEvtBroadcastFlagsI
 353              	.LVL27:
 354              		.loc 1 185 0
 355 00f8 28F0C003 		bic	r3, r8, #192
 356 00fc 43F04003 		orr	r3, r3, #64
 357 0100 AB81     		strh	r3, [r5, #12]	@ movhi
 358 0102 E9E7     		b	.L21
 359              	.LBE29:
 360              		.cfi_endproc
 361              	.LFE121:
 362              		.size	serve_interrupt, .-serve_interrupt
 363              		.section	.text.VectorD4,"ax",%progbits
 364              		.align	2
 365              		.p2align 4,,15
 366              		.global	VectorD4
 367              		.thumb
 368              		.thumb_func
 369              		.type	VectorD4, %function
 370              	VectorD4:
 371              	.LFB125:
 372              		.loc 1 264 0
 373              		.cfi_startproc
 374              		@ args = 0, pretend = 0, frame = 0
 375              		@ frame_needed = 0, uses_anonymous_args = 0
 376 0000 08B5     		push	{r3, lr}
 377              		.cfi_def_cfa_offset 8
 378              		.cfi_offset 3, -8
 379              		.cfi_offset 14, -4
 380              		.loc 1 268 0
 381 0002 0348     		ldr	r0, .L62
 382 0004 FFF7FEFF 		bl	serve_interrupt
 383              	.LVL28:
 384              		.loc 1 271 0
 385 0008 BDE80840 		pop	{r3, lr}
 386              		.cfi_restore 14
 387              		.cfi_restore 3
 388              		.cfi_def_cfa_offset 0
 389              		.loc 1 270 0
 390 000c FFF7FEBF 		b	_port_irq_epilogue
 391              	.LVL29:
 392              	.L63:
 393              		.align	2
 394              	.L62:
 395 0010 00000000 		.word	.LANCHOR0
 396              		.cfi_endproc
 397              	.LFE125:
 398              		.size	VectorD4, .-VectorD4
 399              		.section	.text.VectorD8,"ax",%progbits
ARM GAS  C:\Users\danit\AppData\Local\Temp\ccBoNNmX.s 			page 8


 400              		.align	2
 401              		.p2align 4,,15
 402              		.global	VectorD8
 403              		.thumb
 404              		.thumb_func
 405              		.type	VectorD8, %function
 406              	VectorD8:
 407              	.LFB126:
 408              		.loc 1 283 0
 409              		.cfi_startproc
 410              		@ args = 0, pretend = 0, frame = 0
 411              		@ frame_needed = 0, uses_anonymous_args = 0
 412 0000 08B5     		push	{r3, lr}
 413              		.cfi_def_cfa_offset 8
 414              		.cfi_offset 3, -8
 415              		.cfi_offset 14, -4
 416              		.loc 1 287 0
 417 0002 0348     		ldr	r0, .L66
 418 0004 FFF7FEFF 		bl	serve_interrupt
 419              	.LVL30:
 420              		.loc 1 290 0
 421 0008 BDE80840 		pop	{r3, lr}
 422              		.cfi_restore 14
 423              		.cfi_restore 3
 424              		.cfi_def_cfa_offset 0
 425              		.loc 1 289 0
 426 000c FFF7FEBF 		b	_port_irq_epilogue
 427              	.LVL31:
 428              	.L67:
 429              		.align	2
 430              	.L66:
 431 0010 00000000 		.word	.LANCHOR1
 432              		.cfi_endproc
 433              	.LFE126:
 434              		.size	VectorD8, .-VectorD8
 435              		.section	.text.VectorDC,"ax",%progbits
 436              		.align	2
 437              		.p2align 4,,15
 438              		.global	VectorDC
 439              		.thumb
 440              		.thumb_func
 441              		.type	VectorDC, %function
 442              	VectorDC:
 443              	.LFB127:
 444              		.loc 1 302 0
 445              		.cfi_startproc
 446              		@ args = 0, pretend = 0, frame = 0
 447              		@ frame_needed = 0, uses_anonymous_args = 0
 448 0000 08B5     		push	{r3, lr}
 449              		.cfi_def_cfa_offset 8
 450              		.cfi_offset 3, -8
 451              		.cfi_offset 14, -4
 452              		.loc 1 306 0
 453 0002 0348     		ldr	r0, .L70
 454 0004 FFF7FEFF 		bl	serve_interrupt
 455              	.LVL32:
 456              		.loc 1 309 0
ARM GAS  C:\Users\danit\AppData\Local\Temp\ccBoNNmX.s 			page 9


 457 0008 BDE80840 		pop	{r3, lr}
 458              		.cfi_restore 14
 459              		.cfi_restore 3
 460              		.cfi_def_cfa_offset 0
 461              		.loc 1 308 0
 462 000c FFF7FEBF 		b	_port_irq_epilogue
 463              	.LVL33:
 464              	.L71:
 465              		.align	2
 466              	.L70:
 467 0010 00000000 		.word	.LANCHOR2
 468              		.cfi_endproc
 469              	.LFE127:
 470              		.size	VectorDC, .-VectorDC
 471              		.section	.text.sd_lld_init,"ax",%progbits
 472              		.align	2
 473              		.p2align 4,,15
 474              		.global	sd_lld_init
 475              		.thumb
 476              		.thumb_func
 477              		.type	sd_lld_init, %function
 478              	sd_lld_init:
 479              	.LFB128:
 480              		.loc 1 378 0
 481              		.cfi_startproc
 482              		@ args = 0, pretend = 0, frame = 0
 483              		@ frame_needed = 0, uses_anonymous_args = 0
 484 0000 70B5     		push	{r4, r5, r6, lr}
 485              		.cfi_def_cfa_offset 16
 486              		.cfi_offset 4, -16
 487              		.cfi_offset 5, -12
 488              		.cfi_offset 6, -8
 489              		.cfi_offset 14, -4
 490              		.loc 1 381 0
 491 0002 0C4E     		ldr	r6, .L74
 492              		.loc 1 386 0
 493 0004 0C4D     		ldr	r5, .L74+4
 494              		.loc 1 381 0
 495 0006 0D4A     		ldr	r2, .L74+8
 496              		.loc 1 391 0
 497 0008 0D4C     		ldr	r4, .L74+12
 498              		.loc 1 381 0
 499 000a 3046     		mov	r0, r6
 500 000c 0021     		movs	r1, #0
 501 000e FFF7FEFF 		bl	sdObjectInit
 502              	.LVL34:
 503              		.loc 1 382 0
 504 0012 0C4B     		ldr	r3, .L74+16
 505              		.loc 1 386 0
 506 0014 0C4A     		ldr	r2, .L74+20
 507              		.loc 1 382 0
 508 0016 7367     		str	r3, [r6, #116]
 509              		.loc 1 386 0
 510 0018 2846     		mov	r0, r5
 511 001a 0021     		movs	r1, #0
 512 001c FFF7FEFF 		bl	sdObjectInit
 513              	.LVL35:
ARM GAS  C:\Users\danit\AppData\Local\Temp\ccBoNNmX.s 			page 10


 514              		.loc 1 387 0
 515 0020 0A4B     		ldr	r3, .L74+24
 516              		.loc 1 391 0
 517 0022 0B4A     		ldr	r2, .L74+28
 518              		.loc 1 387 0
 519 0024 6B67     		str	r3, [r5, #116]
 520              		.loc 1 391 0
 521 0026 2046     		mov	r0, r4
 522 0028 0021     		movs	r1, #0
 523 002a FFF7FEFF 		bl	sdObjectInit
 524              	.LVL36:
 525              		.loc 1 392 0
 526 002e 094B     		ldr	r3, .L74+32
 527 0030 6367     		str	r3, [r4, #116]
 528 0032 70BD     		pop	{r4, r5, r6, pc}
 529              	.L75:
 530              		.align	2
 531              	.L74:
 532 0034 00000000 		.word	.LANCHOR0
 533 0038 00000000 		.word	.LANCHOR1
 534 003c 00000000 		.word	notify1
 535 0040 00000000 		.word	.LANCHOR2
 536 0044 00100140 		.word	1073811456
 537 0048 00000000 		.word	notify2
 538 004c 00440040 		.word	1073759232
 539 0050 00000000 		.word	notify3
 540 0054 00480040 		.word	1073760256
 541              		.cfi_endproc
 542              	.LFE128:
 543              		.size	sd_lld_init, .-sd_lld_init
 544              		.section	.text.sd_lld_start,"ax",%progbits
 545              		.align	2
 546              		.p2align 4,,15
 547              		.global	sd_lld_start
 548              		.thumb
 549              		.thumb_func
 550              		.type	sd_lld_start, %function
 551              	sd_lld_start:
 552              	.LFB129:
 553              		.loc 1 421 0
 554              		.cfi_startproc
 555              		@ args = 0, pretend = 0, frame = 0
 556              		@ frame_needed = 0, uses_anonymous_args = 0
 557              	.LVL37:
 558 0000 38B5     		push	{r3, r4, r5, lr}
 559              		.cfi_def_cfa_offset 16
 560              		.cfi_offset 3, -16
 561              		.cfi_offset 4, -12
 562              		.cfi_offset 5, -8
 563              		.cfi_offset 14, -4
 564              		.loc 1 424 0
 565 0002 2D4C     		ldr	r4, .L88
 566              		.loc 1 426 0
 567 0004 037A     		ldrb	r3, [r0, #8]	@ zero_extendqisi2
 568              		.loc 1 424 0
 569 0006 0029     		cmp	r1, #0
 570 0008 18BF     		it	ne
ARM GAS  C:\Users\danit\AppData\Local\Temp\ccBoNNmX.s 			page 11


 571 000a 0C46     		movne	r4, r1
 572              	.LVL38:
 573              		.loc 1 426 0
 574 000c 012B     		cmp	r3, #1
 575              		.loc 1 421 0
 576 000e 0546     		mov	r5, r0
 577              		.loc 1 426 0
 578 0010 23D0     		beq	.L85
 579              	.LVL39:
 580              	.L78:
 581 0012 6B6F     		ldr	r3, [r5, #116]
 582              	.LVL40:
 583              	.LBB32:
 584              	.LBB33:
 585              		.loc 1 97 0
 586 0014 294A     		ldr	r2, .L88+4
 587 0016 9342     		cmp	r3, r2
 588 0018 32D0     		beq	.L81
 589 001a 02F58062 		add	r2, r2, #1024
 590 001e 9342     		cmp	r3, r2
 591 0020 2ED0     		beq	.L81
 592              		.loc 1 103 0
 593 0022 2168     		ldr	r1, [r4]
 594 0024 264A     		ldr	r2, .L88+8
 595 0026 B2FBF1F2 		udiv	r2, r2, r1
 596 002a 92B2     		uxth	r2, r2
 597 002c 1A81     		strh	r2, [r3, #8]	@ movhi
 598              	.L83:
 599              		.loc 1 108 0
 600 002e A288     		ldrh	r2, [r4, #4]
 601              		.loc 1 106 0
 602 0030 E088     		ldrh	r0, [r4, #6]
 603              		.loc 1 107 0
 604 0032 2189     		ldrh	r1, [r4, #8]
 605              		.loc 1 108 0
 606 0034 42F40452 		orr	r2, r2, #8448
 607              		.loc 1 106 0
 608 0038 40F04000 		orr	r0, r0, #64
 609              		.loc 1 108 0
 610 003c 42F02C02 		orr	r2, r2, #44
 611              		.loc 1 107 0
 612 0040 41F00101 		orr	r1, r1, #1
 613              		.loc 1 108 0
 614 0044 92B2     		uxth	r2, r2
 615              		.loc 1 106 0
 616 0046 80B2     		uxth	r0, r0
 617              		.loc 1 107 0
 618 0048 89B2     		uxth	r1, r1
 619              		.loc 1 111 0
 620 004a 0024     		movs	r4, #0
 621              	.LVL41:
 622              		.loc 1 106 0
 623 004c 1882     		strh	r0, [r3, #16]	@ movhi
 624              		.loc 1 107 0
 625 004e 9982     		strh	r1, [r3, #20]	@ movhi
 626              		.loc 1 108 0
 627 0050 9A81     		strh	r2, [r3, #12]	@ movhi
ARM GAS  C:\Users\danit\AppData\Local\Temp\ccBoNNmX.s 			page 12


 628              		.loc 1 111 0
 629 0052 1C80     		strh	r4, [r3]	@ movhi
 630              		.loc 1 112 0
 631 0054 1A88     		ldrh	r2, [r3]
 632              		.loc 1 113 0
 633 0056 9B88     		ldrh	r3, [r3, #4]
 634              	.LVL42:
 635 0058 38BD     		pop	{r3, r4, r5, pc}
 636              	.LVL43:
 637              	.L85:
 638              	.LBE33:
 639              	.LBE32:
 640              		.loc 1 428 0
 641 005a 1A4B     		ldr	r3, .L88+12
 642 005c 9842     		cmp	r0, r3
 643 005e 16D0     		beq	.L86
 644              		.loc 1 435 0
 645 0060 194B     		ldr	r3, .L88+16
 646 0062 9842     		cmp	r0, r3
 647 0064 1DD0     		beq	.L87
 648              		.loc 1 442 0
 649 0066 194B     		ldr	r3, .L88+20
 650 0068 9842     		cmp	r0, r3
 651 006a D2D1     		bne	.L78
 652              		.loc 1 443 0
 653 006c 184A     		ldr	r2, .L88+24
 654 006e 136C     		ldr	r3, [r2, #64]
 655 0070 43F48023 		orr	r3, r3, #262144
 656 0074 1364     		str	r3, [r2, #64]
 657              		.loc 1 444 0
 658 0076 2720     		movs	r0, #39
 659              	.LVL44:
 660 0078 C021     		movs	r1, #192
 661 007a FFF7FEFF 		bl	nvicEnableVector
 662              	.LVL45:
 663 007e C8E7     		b	.L78
 664              	.LVL46:
 665              	.L81:
 666              	.LBB35:
 667              	.LBB34:
 668              		.loc 1 101 0
 669 0080 2168     		ldr	r1, [r4]
 670 0082 144A     		ldr	r2, .L88+28
 671 0084 B2FBF1F2 		udiv	r2, r2, r1
 672 0088 92B2     		uxth	r2, r2
 673 008a 1A81     		strh	r2, [r3, #8]	@ movhi
 674 008c CFE7     		b	.L83
 675              	.LVL47:
 676              	.L86:
 677              	.LBE34:
 678              	.LBE35:
 679              		.loc 1 429 0
 680 008e 104A     		ldr	r2, .L88+24
 681 0090 536C     		ldr	r3, [r2, #68]
 682 0092 43F01003 		orr	r3, r3, #16
 683 0096 5364     		str	r3, [r2, #68]
 684              		.loc 1 430 0
ARM GAS  C:\Users\danit\AppData\Local\Temp\ccBoNNmX.s 			page 13


 685 0098 2520     		movs	r0, #37
 686              	.LVL48:
 687 009a C021     		movs	r1, #192
 688 009c FFF7FEFF 		bl	nvicEnableVector
 689              	.LVL49:
 690 00a0 B7E7     		b	.L78
 691              	.LVL50:
 692              	.L87:
 693              		.loc 1 436 0
 694 00a2 0B4A     		ldr	r2, .L88+24
 695 00a4 136C     		ldr	r3, [r2, #64]
 696 00a6 43F40033 		orr	r3, r3, #131072
 697 00aa 1364     		str	r3, [r2, #64]
 698              		.loc 1 437 0
 699 00ac 2620     		movs	r0, #38
 700              	.LVL51:
 701 00ae C021     		movs	r1, #192
 702 00b0 FFF7FEFF 		bl	nvicEnableVector
 703              	.LVL52:
 704 00b4 ADE7     		b	.L78
 705              	.L89:
 706 00b6 00BF     		.align	2
 707              	.L88:
 708 00b8 00000000 		.word	.LANCHOR3
 709 00bc 00100140 		.word	1073811456
 710 00c0 80DE8002 		.word	42000000
 711 00c4 00000000 		.word	.LANCHOR0
 712 00c8 00000000 		.word	.LANCHOR1
 713 00cc 00000000 		.word	.LANCHOR2
 714 00d0 00380240 		.word	1073887232
 715 00d4 00BD0105 		.word	84000000
 716              		.cfi_endproc
 717              	.LFE129:
 718              		.size	sd_lld_start, .-sd_lld_start
 719              		.section	.text.sd_lld_stop,"ax",%progbits
 720              		.align	2
 721              		.p2align 4,,15
 722              		.global	sd_lld_stop
 723              		.thumb
 724              		.thumb_func
 725              		.type	sd_lld_stop, %function
 726              	sd_lld_stop:
 727              	.LFB130:
 728              		.loc 1 482 0
 729              		.cfi_startproc
 730              		@ args = 0, pretend = 0, frame = 0
 731              		@ frame_needed = 0, uses_anonymous_args = 0
 732              		@ link register save eliminated.
 733              	.LVL53:
 734              		.loc 1 484 0
 735 0000 037A     		ldrb	r3, [r0, #8]	@ zero_extendqisi2
 736 0002 022B     		cmp	r3, #2
 737 0004 00D0     		beq	.L96
 738              	.L90:
 739 0006 7047     		bx	lr
 740              	.L96:
 741              		.loc 1 487 0
ARM GAS  C:\Users\danit\AppData\Local\Temp\ccBoNNmX.s 			page 14


 742 0008 1249     		ldr	r1, .L99
 743              		.loc 1 485 0
 744 000a 436F     		ldr	r3, [r0, #116]
 745              	.LVL54:
 746              	.LBB36:
 747              	.LBB37:
 748              		.loc 1 124 0
 749 000c 0022     		movs	r2, #0
 750              	.LBE37:
 751              	.LBE36:
 752              		.loc 1 487 0
 753 000e 8842     		cmp	r0, r1
 754              	.LBB39:
 755              	.LBB38:
 756              		.loc 1 124 0
 757 0010 9A81     		strh	r2, [r3, #12]	@ movhi
 758              		.loc 1 125 0
 759 0012 1A82     		strh	r2, [r3, #16]	@ movhi
 760              		.loc 1 126 0
 761 0014 9A82     		strh	r2, [r3, #20]	@ movhi
 762              	.LBE38:
 763              	.LBE39:
 764              		.loc 1 487 0
 765 0016 0DD0     		beq	.L97
 766              		.loc 1 494 0
 767 0018 0F4B     		ldr	r3, .L99+4
 768              	.LVL55:
 769 001a 9842     		cmp	r0, r3
 770 001c 12D0     		beq	.L98
 771              		.loc 1 501 0
 772 001e 0F4B     		ldr	r3, .L99+8
 773 0020 9842     		cmp	r0, r3
 774 0022 F0D1     		bne	.L90
 775              		.loc 1 502 0
 776 0024 0E4A     		ldr	r2, .L99+12
 777 0026 136C     		ldr	r3, [r2, #64]
 778 0028 23F48023 		bic	r3, r3, #262144
 779 002c 1364     		str	r3, [r2, #64]
 780              		.loc 1 503 0
 781 002e 2720     		movs	r0, #39
 782              	.LVL56:
 783 0030 FFF7FEBF 		b	nvicDisableVector
 784              	.LVL57:
 785              	.L97:
 786              		.loc 1 488 0
 787 0034 0A4A     		ldr	r2, .L99+12
 788 0036 536C     		ldr	r3, [r2, #68]
 789              	.LVL58:
 790 0038 23F01003 		bic	r3, r3, #16
 791 003c 5364     		str	r3, [r2, #68]
 792              		.loc 1 489 0
 793 003e 2520     		movs	r0, #37
 794              	.LVL59:
 795 0040 FFF7FEBF 		b	nvicDisableVector
 796              	.LVL60:
 797              	.L98:
 798              		.loc 1 495 0
ARM GAS  C:\Users\danit\AppData\Local\Temp\ccBoNNmX.s 			page 15


 799 0044 064A     		ldr	r2, .L99+12
 800 0046 136C     		ldr	r3, [r2, #64]
 801 0048 23F40033 		bic	r3, r3, #131072
 802 004c 1364     		str	r3, [r2, #64]
 803              		.loc 1 496 0
 804 004e 2620     		movs	r0, #38
 805              	.LVL61:
 806 0050 FFF7FEBF 		b	nvicDisableVector
 807              	.LVL62:
 808              	.L100:
 809              		.align	2
 810              	.L99:
 811 0054 00000000 		.word	.LANCHOR0
 812 0058 00000000 		.word	.LANCHOR1
 813 005c 00000000 		.word	.LANCHOR2
 814 0060 00380240 		.word	1073887232
 815              		.cfi_endproc
 816              	.LFE130:
 817              		.size	sd_lld_stop, .-sd_lld_stop
 818              		.global	SD3
 819              		.global	SD2
 820              		.global	SD1
 821              		.section	.rodata.default_config,"a",%progbits
 822              		.align	2
 823              		.set	.LANCHOR3,. + 0
 824              		.type	default_config, %object
 825              		.size	default_config, 12
 826              	default_config:
 827 0000 00960000 		.word	38400
 828 0004 0000     		.short	0
 829 0006 0040     		.short	16384
 830 0008 0000     		.short	0
 831 000a 0000     		.space	2
 832              		.section	.bss.SD1,"aw",%nobits
 833              		.align	2
 834              		.set	.LANCHOR0,. + 0
 835              		.type	SD1, %object
 836              		.size	SD1, 120
 837              	SD1:
 838 0000 00000000 		.space	120
 838      00000000 
 838      00000000 
 838      00000000 
 838      00000000 
 839              		.section	.bss.SD2,"aw",%nobits
 840              		.align	2
 841              		.set	.LANCHOR1,. + 0
 842              		.type	SD2, %object
 843              		.size	SD2, 120
 844              	SD2:
 845 0000 00000000 		.space	120
 845      00000000 
 845      00000000 
 845      00000000 
 845      00000000 
 846              		.section	.bss.SD3,"aw",%nobits
 847              		.align	2
ARM GAS  C:\Users\danit\AppData\Local\Temp\ccBoNNmX.s 			page 16


 848              		.set	.LANCHOR2,. + 0
 849              		.type	SD3, %object
 850              		.size	SD3, 120
 851              	SD3:
 852 0000 00000000 		.space	120
 852      00000000 
 852      00000000 
 852      00000000 
 852      00000000 
 853              		.text
 854              	.Letext0:
 855              		.file 2 "c:\\program files (x86)\\gnu tools arm embedded\\4.9 2015q2\\lib\\gcc\\arm-none-eabi\\4.9
 856              		.file 3 "c:\\program files (x86)\\gnu tools arm embedded\\4.9 2015q2\\arm-none-eabi\\include\\mach
 857              		.file 4 "c:\\program files (x86)\\gnu tools arm embedded\\4.9 2015q2\\arm-none-eabi\\include\\sys\
 858              		.file 5 "../../../ChibiOS/os/ports/GCC/ARMCMx/chtypes.h"
 859              		.file 6 "../../../ChibiOS/os/kernel/include/chlists.h"
 860              		.file 7 "../../../ChibiOS/os/kernel/include/chthreads.h"
 861              		.file 8 "../../../ChibiOS/os/ports/GCC/ARMCMx/chcore_v7m.h"
 862              		.file 9 "../../../ChibiOS/os/kernel/include/chmtx.h"
 863              		.file 10 "../../../ChibiOS/os/kernel/include/chevents.h"
 864              		.file 11 "../../../ChibiOS/os/kernel/include/chqueues.h"
 865              		.file 12 "../../../ChibiOS/os/hal/platforms/STM32F4xx/stm32f4xx.h"
 866              		.file 13 "../../../ChibiOS/os/hal/include/serial.h"
 867              		.file 14 "../../../ChibiOS/os/hal/platforms/STM32/USARTv1/serial_lld.h"
 868              		.file 15 "../../../ChibiOS/os/ports/common/ARMCMx/nvic.h"
 869              		.file 16 "../../../ChibiOS/os/ports/common/ARMCMx/CMSIS/include/core_cm4.h"