ARM GAS  C:\Users\DNIEL~1\AppData\Local\Temp\ccbk3KwG.s 			page 1


   1              		.syntax unified
   2              		.cpu cortex-m4
   3              		.fpu softvfp
   4              		.eabi_attribute 20, 1
   5              		.eabi_attribute 21, 1
   6              		.eabi_attribute 23, 3
   7              		.eabi_attribute 24, 1
   8              		.eabi_attribute 25, 1
   9              		.eabi_attribute 26, 1
  10              		.eabi_attribute 30, 2
  11              		.eabi_attribute 18, 4
  12              		.thumb
  13              		.file	"speed.c"
  14              		.section	.debug_abbrev,"",%progbits
  15              	.Ldebug_abbrev0:
  16              		.section	.debug_info,"",%progbits
  17              	.Ldebug_info0:
  18              		.section	.debug_line,"",%progbits
  19              	.Ldebug_line0:
  20 0000 70030000 		.text
  20      02008502 
  20      00000201 
  20      FB0E0D00 
  20      01010101 
  21              	.Ltext0:
  22              		.cfi_sections	.debug_frame
  23              		.section	.text.chprintf,"ax",%progbits
  24              		.align	2
  25              		.p2align 4,,15
  26              		.thumb
  27              		.thumb_func
  28              		.type	chprintf, %function
  29              	chprintf:
  30              	.LFB118:
  31              		.file 1 "../../../ChibiOS/os/various/chprintf.h"
  32              		.loc 1 69 0
  33              		.cfi_startproc
  34              		@ args = 4, pretend = 12, frame = 8
  35              		@ frame_needed = 0, uses_anonymous_args = 1
  36              	.LVL0:
  37 0000 0EB4     		push	{r1, r2, r3}
  38              	.LCFI0:
  39              		.cfi_def_cfa_offset 12
  40 0002 00B5     		push	{lr}
  41              	.LCFI1:
  42              		.cfi_def_cfa_offset 16
  43 0004 82B0     		sub	sp, sp, #8
  44              	.LCFI2:
  45              		.cfi_def_cfa_offset 24
  46              		.loc 1 69 0
  47 0006 03AB     		add	r3, sp, #12
  48              		.cfi_offset 14, -16
  49              		.cfi_offset 3, -4
  50              		.cfi_offset 2, -8
  51              		.cfi_offset 1, -12
  52 0008 53F8041B 		ldr	r1, [r3], #4
  53              		.loc 1 73 0
ARM GAS  C:\Users\DNIEL~1\AppData\Local\Temp\ccbk3KwG.s 			page 2


  54 000c 1A46     		mov	r2, r3
  55              		.loc 1 72 0
  56 000e 0193     		str	r3, [sp, #4]
  57              		.loc 1 73 0
  58 0010 FFF7FEFF 		bl	chvprintf
  59              	.LVL1:
  60              		.loc 1 75 0
  61 0014 02B0     		add	sp, sp, #8
  62 0016 5DF804EB 		pop	{lr}
  63 001a 03B0     		add	sp, sp, #12
  64 001c 7047     		bx	lr
  65              		.cfi_endproc
  66              	.LFE118:
  67              		.size	chprintf, .-chprintf
  68 001e 00BF     		.section	.text.speedInit,"ax",%progbits
  69              		.align	2
  70              		.p2align 4,,15
  71              		.global	speedInit
  72              		.thumb
  73              		.thumb_func
  74              		.type	speedInit, %function
  75              	speedInit:
  76              	.LFB121:
  77              		.file 2 "src/speed.c"
  78              		.loc 2 96 0
  79              		.cfi_startproc
  80              		@ args = 0, pretend = 0, frame = 0
  81              		@ frame_needed = 0, uses_anonymous_args = 0
  82              		@ link register save eliminated.
  83              		.loc 2 105 0
  84 0000 0449     		ldr	r1, .L3
  85 0002 0022     		movs	r2, #0
  86 0004 0023     		movs	r3, #0
  87 0006 C1E90023 		strd	r2, [r1]
  88              		.loc 2 104 0
  89 000a 034B     		ldr	r3, .L3+4
  90 000c 0022     		movs	r2, #0
  91 000e 1A60     		str	r2, [r3, #0]
  92              		.loc 2 106 0
  93 0010 7047     		bx	lr
  94              	.L4:
  95 0012 00BF     		.align	2
  96              	.L3:
  97 0014 00000000 		.word	.LANCHOR1
  98 0018 00000000 		.word	.LANCHOR0
  99              		.cfi_endproc
 100              	.LFE121:
 101              		.size	speedInit, .-speedInit
 102 001c AFF30080 		.section	.text.speedGetLastPeriod,"ax",%progbits
 103              		.align	2
 104              		.p2align 4,,15
 105              		.global	speedGetLastPeriod
 106              		.thumb
 107              		.thumb_func
 108              		.type	speedGetLastPeriod, %function
 109              	speedGetLastPeriod:
 110              	.LFB122:
ARM GAS  C:\Users\DNIEL~1\AppData\Local\Temp\ccbk3KwG.s 			page 3


 111              		.loc 2 154 0
 112              		.cfi_startproc
 113              		@ args = 0, pretend = 0, frame = 0
 114              		@ frame_needed = 0, uses_anonymous_args = 0
 115              		@ link register save eliminated.
 116              	.LBB2:
 117              		.loc 2 157 0
 118 0000 2023     		movs	r3, #32
 119              	.LVL2:
 120              	@ 157 "src/speed.c" 1
 121 0002 83F31188 		msr     BASEPRI, r3
 122              	@ 0 "" 2
 123              	.LVL3:
 124              		.thumb
 125              	.LBE2:
 126              	.LBB3:
 127              		.loc 2 159 0
 128 0006 0023     		movs	r3, #0
 129              	.LVL4:
 130              	@ 159 "src/speed.c" 1
 131 0008 83F31188 		msr     BASEPRI, r3
 132              	@ 0 "" 2
 133              	.LVL5:
 134              		.thumb
 135              	.LBE3:
 136              		.loc 2 161 0
 137 000c 1846     		mov	r0, r3
 138 000e 7047     		bx	lr
 139              		.cfi_endproc
 140              	.LFE122:
 141              		.size	speedGetLastPeriod, .-speedGetLastPeriod
 142              		.section	.text.speedGetPeriodNumber,"ax",%progbits
 143              		.align	2
 144              		.p2align 4,,15
 145              		.global	speedGetPeriodNumber
 146              		.thumb
 147              		.thumb_func
 148              		.type	speedGetPeriodNumber, %function
 149              	speedGetPeriodNumber:
 150              	.LFB123:
 151              		.loc 2 163 0
 152              		.cfi_startproc
 153              		@ args = 0, pretend = 0, frame = 0
 154              		@ frame_needed = 0, uses_anonymous_args = 0
 155              		@ link register save eliminated.
 156              	.LBB4:
 157              		.loc 2 166 0
 158 0000 2023     		movs	r3, #32
 159              	.LVL6:
 160              	@ 166 "src/speed.c" 1
 161 0002 83F31188 		msr     BASEPRI, r3
 162              	@ 0 "" 2
 163              	.LVL7:
 164              		.thumb
 165              	.LBE4:
 166              		.loc 2 167 0
 167 0006 034A     		ldr	r2, .L7
ARM GAS  C:\Users\DNIEL~1\AppData\Local\Temp\ccbk3KwG.s 			page 4


 168              	.LBB5:
 169              		.loc 2 168 0
 170 0008 0023     		movs	r3, #0
 171              	.LVL8:
 172              	.LBE5:
 173              		.loc 2 167 0
 174 000a 1068     		ldr	r0, [r2, #0]
 175              	.LVL9:
 176              	.LBB6:
 177              		.loc 2 168 0
 178              	@ 168 "src/speed.c" 1
 179 000c 83F31188 		msr     BASEPRI, r3
 180              	@ 0 "" 2
 181              	.LVL10:
 182              		.thumb
 183              	.LBE6:
 184              		.loc 2 170 0
 185 0010 7047     		bx	lr
 186              	.L8:
 187 0012 00BF     		.align	2
 188              	.L7:
 189 0014 00000000 		.word	.LANCHOR0
 190              		.cfi_endproc
 191              	.LFE123:
 192              		.size	speedGetPeriodNumber, .-speedGetPeriodNumber
 193 0018 AFF30080 		.section	.text.speedGetRpm,"ax",%progbits
 193      AFF30080 
 194              		.align	2
 195              		.p2align 4,,15
 196              		.global	speedGetRpm
 197              		.thumb
 198              		.thumb_func
 199              		.type	speedGetRpm, %function
 200              	speedGetRpm:
 201              	.LFB124:
 202              		.loc 2 172 0
 203              		.cfi_startproc
 204              		@ args = 0, pretend = 0, frame = 0
 205              		@ frame_needed = 0, uses_anonymous_args = 0
 206              		@ link register save eliminated.
 207              	.LBB7:
 208              		.loc 2 175 0
 209 0000 2023     		movs	r3, #32
 210              	.LVL11:
 211              	@ 175 "src/speed.c" 1
 212 0002 83F31188 		msr     BASEPRI, r3
 213              	@ 0 "" 2
 214              	.LVL12:
 215              		.thumb
 216              	.LBE7:
 217              	.LBB8:
 218              		.loc 2 177 0
 219 0006 0023     		movs	r3, #0
 220              	.LVL13:
 221              	@ 177 "src/speed.c" 1
 222 0008 83F31188 		msr     BASEPRI, r3
 223              	@ 0 "" 2
ARM GAS  C:\Users\DNIEL~1\AppData\Local\Temp\ccbk3KwG.s 			page 5


 224              	.LVL14:
 225              		.thumb
 226              	.LBE8:
 227              		.loc 2 179 0
 228 000c 1846     		mov	r0, r3
 229 000e 7047     		bx	lr
 230              		.cfi_endproc
 231              	.LFE124:
 232              		.size	speedGetRpm, .-speedGetRpm
 233              		.section	.text.speedGetSpeed,"ax",%progbits
 234              		.align	2
 235              		.p2align 4,,15
 236              		.global	speedGetSpeed
 237              		.thumb
 238              		.thumb_func
 239              		.type	speedGetSpeed, %function
 240              	speedGetSpeed:
 241              	.LFB125:
 242              		.loc 2 181 0
 243              		.cfi_startproc
 244              		@ args = 0, pretend = 0, frame = 0
 245              		@ frame_needed = 0, uses_anonymous_args = 0
 246              		@ link register save eliminated.
 247              	.LBB9:
 248              		.loc 2 184 0
 249 0000 2023     		movs	r3, #32
 250              	.LVL15:
 251              	@ 184 "src/speed.c" 1
 252 0002 83F31188 		msr     BASEPRI, r3
 253              	@ 0 "" 2
 254              	.LVL16:
 255              		.thumb
 256              	.LBE9:
 257              	.LBB10:
 258              		.loc 2 186 0
 259 0006 0023     		movs	r3, #0
 260              	.LVL17:
 261              	@ 186 "src/speed.c" 1
 262 0008 83F31188 		msr     BASEPRI, r3
 263              	@ 0 "" 2
 264              	.LVL18:
 265              		.thumb
 266              	.LBE10:
 267              		.loc 2 188 0
 268 000c 1846     		mov	r0, r3
 269 000e 7047     		bx	lr
 270              		.cfi_endproc
 271              	.LFE125:
 272              		.size	speedGetSpeed, .-speedGetSpeed
 273              		.global	__aeabi_dmul
 274              		.global	__aeabi_d2uiz
 275              		.section	.text.speedRPM_TO_KMPH,"ax",%progbits
 276              		.align	2
 277              		.p2align 4,,15
 278              		.global	speedRPM_TO_KMPH
 279              		.thumb
 280              		.thumb_func
ARM GAS  C:\Users\DNIEL~1\AppData\Local\Temp\ccbk3KwG.s 			page 6


 281              		.type	speedRPM_TO_KMPH, %function
 282              	speedRPM_TO_KMPH:
 283              	.LFB126:
 284              		.loc 2 190 0
 285              		.cfi_startproc
 286              		@ args = 0, pretend = 0, frame = 0
 287              		@ frame_needed = 0, uses_anonymous_args = 0
 288              	.LVL19:
 289 0000 08B5     		push	{r3, lr}
 290              	.LCFI3:
 291              		.cfi_def_cfa_offset 8
 292              		.loc 2 192 0
 293 0002 0DA3     		adr	r3, .L14
 294 0004 D3E90023 		ldrd	r2, [r3]
 295              		.cfi_offset 14, -4
 296              		.cfi_offset 3, -8
 297 0008 FFF7FEFF 		bl	__aeabi_dmul
 298              	.LVL20:
 299 000c FFF7FEFF 		bl	__aeabi_d2uiz
 300              	.LVL21:
 301              		.loc 2 194 0
 302 0010 0B4A     		ldr	r2, .L14+8
 303              		.loc 2 193 0
 304 0012 C0EB0010 		rsb	r0, r0, r0, lsl #4
 305              	.LVL22:
 306              		.loc 2 194 0
 307 0016 C0F3DA03 		ubfx	r3, r0, #3, #27
 308 001a A2FB0313 		umull	r1, r3, r2, r3
 309              		.loc 2 196 0
 310 001e 0948     		ldr	r0, .L14+12
 311              	.LVL23:
 312              		.loc 2 194 0
 313 0020 DB09     		lsrs	r3, r3, #7
 314              	.LVL24:
 315              		.loc 2 196 0
 316 0022 A0FB0320 		umull	r2, r0, r0, r3
 317 0026 C008     		lsrs	r0, r0, #3
 318 0028 00EB8002 		add	r2, r0, r0, lsl #2
 319 002c A3EB4203 		sub	r3, r3, r2, lsl #1
 320              	.LVL25:
 321 0030 052B     		cmp	r3, #5
 322              	.LVL26:
 323              		.loc 2 198 0
 324 0032 88BF     		it	hi
 325 0034 0130     		addhi	r0, r0, #1
 326              	.LVL27:
 327              		.loc 2 204 0
 328 0036 08BD     		pop	{r3, pc}
 329              	.L15:
 330              		.align	3
 331              	.L14:
 332 0038 00000000 		.word	0
 333 003c 00209C40 		.word	1083973632
 334 0040 C55A7C0A 		.word	175921861
 335 0044 CDCCCCCC 		.word	-858993459
 336              		.cfi_endproc
 337              	.LFE126:
ARM GAS  C:\Users\DNIEL~1\AppData\Local\Temp\ccbk3KwG.s 			page 7


 338              		.size	speedRPM_TO_KMPH, .-speedRPM_TO_KMPH
 339 0048 AFF30080 		.section	.text.speedKMPH_TO_RPM,"ax",%progbits
 339      AFF30080 
 340              		.align	2
 341              		.p2align 4,,15
 342              		.global	speedKMPH_TO_RPM
 343              		.thumb
 344              		.thumb_func
 345              		.type	speedKMPH_TO_RPM, %function
 346              	speedKMPH_TO_RPM:
 347              	.LFB127:
 348              		.loc 2 206 0
 349              		.cfi_startproc
 350              		@ args = 0, pretend = 0, frame = 0
 351              		@ frame_needed = 0, uses_anonymous_args = 0
 352              	.LVL28:
 353 0000 08B5     		push	{r3, lr}
 354              	.LCFI4:
 355              		.cfi_def_cfa_offset 8
 356              		.loc 2 208 0
 357 0002 0DA3     		adr	r3, .L19
 358 0004 D3E90023 		ldrd	r2, [r3]
 359              		.cfi_offset 14, -4
 360              		.cfi_offset 3, -8
 361 0008 FFF7FEFF 		bl	__aeabi_dmul
 362              	.LVL29:
 363 000c FFF7FEFF 		bl	__aeabi_d2uiz
 364              	.LVL30:
 365              		.loc 2 209 0
 366 0010 0B4B     		ldr	r3, .L19+8
 367              		.loc 2 210 0
 368 0012 0C4A     		ldr	r2, .L19+12
 369              		.loc 2 209 0
 370 0014 A3FB0013 		umull	r1, r3, r3, r0
 371              	.LVL31:
 372              		.loc 2 210 0
 373 0018 DB09     		lsrs	r3, r3, #7
 374 001a A2FB0313 		umull	r1, r3, r2, r3
 375              		.loc 2 212 0
 376 001e 0A48     		ldr	r0, .L19+16
 377              		.loc 2 210 0
 378 0020 9B08     		lsrs	r3, r3, #2
 379              	.LVL32:
 380              		.loc 2 212 0
 381 0022 A0FB0320 		umull	r2, r0, r0, r3
 382 0026 C008     		lsrs	r0, r0, #3
 383 0028 00EB8002 		add	r2, r0, r0, lsl #2
 384 002c A3EB4203 		sub	r3, r3, r2, lsl #1
 385              	.LVL33:
 386 0030 052B     		cmp	r3, #5
 387              	.LVL34:
 388              		.loc 2 214 0
 389 0032 88BF     		it	hi
 390 0034 0130     		addhi	r0, r0, #1
 391              	.LVL35:
 392              		.loc 2 220 0
 393 0036 08BD     		pop	{r3, pc}
ARM GAS  C:\Users\DNIEL~1\AppData\Local\Temp\ccbk3KwG.s 			page 8


 394              	.L20:
 395              		.align	3
 396              	.L19:
 397 0038 00000000 		.word	0
 398 003c 80842E41 		.word	1093567616
 399 0040 89888888 		.word	-2004318071
 400 0044 176CC116 		.word	381774871
 401 0048 CDCCCCCC 		.word	-858993459
 402              		.cfi_endproc
 403              	.LFE127:
 404              		.size	speedKMPH_TO_RPM, .-speedKMPH_TO_RPM
 405 004c AFF30080 		.section	.text.cmd_speedvalues,"ax",%progbits
 406              		.align	2
 407              		.p2align 4,,15
 408              		.global	cmd_speedvalues
 409              		.thumb
 410              		.thumb_func
 411              		.type	cmd_speedvalues, %function
 412              	cmd_speedvalues:
 413              	.LFB128:
 414              		.loc 2 222 0
 415              		.cfi_startproc
 416              		@ args = 0, pretend = 0, frame = 0
 417              		@ frame_needed = 0, uses_anonymous_args = 0
 418              	.LVL36:
 419 0000 38B5     		push	{r3, r4, r5, lr}
 420              	.LCFI5:
 421              		.cfi_def_cfa_offset 16
 422              		.loc 2 226 0
 423 0002 1C49     		ldr	r1, .L25
 424              	.LVL37:
 425              		.loc 2 232 0
 426 0004 1C4D     		ldr	r5, .L25+4
 427              		.cfi_offset 14, -4
 428              		.cfi_offset 5, -8
 429              		.cfi_offset 4, -12
 430              		.cfi_offset 3, -16
 431              		.loc 2 222 0
 432 0006 0446     		mov	r4, r0
 433              		.loc 2 226 0
 434 0008 FFF7FEFF 		bl	chprintf
 435              	.LVL38:
 436              		.loc 2 227 0
 437 000c 2046     		mov	r0, r4
 438 000e 1B49     		ldr	r1, .L25+8
 439 0010 FFF7FEFF 		bl	chprintf
 440              		.loc 2 228 0
 441 0014 25E0     		b	.L22
 442              	.L23:
 443              		.loc 2 229 0
 444 0016 0022     		movs	r2, #0
 445 0018 1346     		mov	r3, r2
 446 001a 1949     		ldr	r1, .L25+12
 447 001c 2046     		mov	r0, r4
 448 001e FFF7FEFF 		bl	chprintf
 449              		.loc 2 231 0
 450 0022 2046     		mov	r0, r4
ARM GAS  C:\Users\DNIEL~1\AppData\Local\Temp\ccbk3KwG.s 			page 9


 451 0024 1749     		ldr	r1, .L25+16
 452 0026 0022     		movs	r2, #0
 453 0028 FFF7FEFF 		bl	chprintf
 454              		.loc 2 232 0
 455 002c 2046     		mov	r0, r4
 456 002e 1649     		ldr	r1, .L25+20
 457 0030 2A68     		ldr	r2, [r5, #0]
 458 0032 FFF7FEFF 		bl	chprintf
 459              		.loc 2 233 0
 460 0036 2046     		mov	r0, r4
 461 0038 1449     		ldr	r1, .L25+24
 462 003a 0022     		movs	r2, #0
 463 003c 0023     		movs	r3, #0
 464 003e FFF7FEFF 		bl	chprintf
 465              		.loc 2 234 0
 466 0042 2046     		mov	r0, r4
 467 0044 1249     		ldr	r1, .L25+28
 468 0046 0022     		movs	r2, #0
 469 0048 0023     		movs	r3, #0
 470 004a FFF7FEFF 		bl	chprintf
 471              		.loc 2 235 0
 472 004e 2046     		mov	r0, r4
 473 0050 1049     		ldr	r1, .L25+32
 474 0052 0022     		movs	r2, #0
 475 0054 0023     		movs	r3, #0
 476 0056 FFF7FEFF 		bl	chprintf
 477              		.loc 2 236 0
 478 005a 4FF47A70 		mov	r0, #1000
 479 005e FFF7FEFF 		bl	chThdSleep
 480              	.L22:
 481              		.loc 2 228 0 discriminator 1
 482 0062 2168     		ldr	r1, [r4, #0]
 483 0064 2046     		mov	r0, r4
 484 0066 4B69     		ldr	r3, [r1, #20]
 485 0068 0021     		movs	r1, #0
 486 006a 9847     		blx	r3
 487 006c B0F1FF3F 		cmp	r0, #-1
 488 0070 D1D0     		beq	.L23
 489              		.loc 2 238 0
 490 0072 38BD     		pop	{r3, r4, r5, pc}
 491              	.L26:
 492              		.align	2
 493              	.L25:
 494 0074 00000000 		.word	.LC0
 495 0078 00000000 		.word	.LANCHOR0
 496 007c 04000000 		.word	.LC1
 497 0080 0C000000 		.word	.LC2
 498 0084 18000000 		.word	.LC3
 499 0088 34000000 		.word	.LC4
 500 008c 4C000000 		.word	.LC5
 501 0090 58000000 		.word	.LC6
 502 0094 68000000 		.word	.LC7
 503              		.cfi_endproc
 504              	.LFE128:
 505              		.size	cmd_speedvalues, .-cmd_speedvalues
 506 0098 AFF30080 		.section	.bss.old_rotation,"aw",%nobits
 506      AFF30080 
ARM GAS  C:\Users\DNIEL~1\AppData\Local\Temp\ccbk3KwG.s 			page 10


 507              		.align	3
 508              		.set	.LANCHOR1,. + 0
 509              		.type	old_rotation, %object
 510              		.size	old_rotation, 8
 511              	old_rotation:
 512 0000 00000000 		.space	8
 512      00000000 
 513              		.section	.rodata.str1.4,"aMS",%progbits,1
 514              		.align	2
 515              	.LC0:
 516 0000 1B6300   		.ascii	"\033c\000"
 517 0003 00       		.space	1
 518              	.LC1:
 519 0004 1B5B324A 		.ascii	"\033[2J\000"
 519      00
 520 0009 000000   		.space	3
 521              	.LC2:
 522 000c 1B5B2564 		.ascii	"\033[%d;%dH\000"
 522      3B256448 
 522      00
 523 0015 000000   		.space	3
 524              	.LC3:
 525 0018 73706565 		.ascii	"speed_last_period: %5d\015\012\000"
 525      645F6C61 
 525      73745F70 
 525      6572696F 
 525      643A2025 
 526 0031 000000   		.space	3
 527              	.LC4:
 528 0034 73706565 		.ascii	"speed_period_num: %5d\015\012\000"
 528      645F7065 
 528      72696F64 
 528      5F6E756D 
 528      3A202535 
 529              	.LC5:
 530 004c 72706D3A 		.ascii	"rpm: %5d\015\012\000"
 530      20253564 
 530      0D0A00
 531 0057 00       		.space	1
 532              	.LC6:
 533 0058 73706565 		.ascii	"speed: %5d\015\012\000"
 533      643A2025 
 533      35640D0A 
 533      00
 534 0065 000000   		.space	3
 535              	.LC7:
 536 0068 72706D61 		.ascii	"rpmasis: %5d\015\012\000"
 536      7369733A 
 536      20253564 
 536      0D0A00
 537 0077 00       		.section	.bss.speed_period_num,"aw",%nobits
 538              		.align	2
 539              		.set	.LANCHOR0,. + 0
 540              		.type	speed_period_num, %object
 541              		.size	speed_period_num, 4
 542              	speed_period_num:
 543 0000 00000000 		.space	4
ARM GAS  C:\Users\DNIEL~1\AppData\Local\Temp\ccbk3KwG.s 			page 11


 544              		.text
 545              	.Letext0:
 546              		.section	.debug_loc,"",%progbits
 547              	.Ldebug_loc0:
 548              	.LLST0:
 549 0000 00000000 		.4byte	.LFB118
 550 0004 02000000 		.4byte	.LCFI0
 551 0008 0200     		.2byte	0x2
 552 000a 7D       		.byte	0x7d
 553 000b 00       		.sleb128 0
 554 000c 02000000 		.4byte	.LCFI0
 555 0010 04000000 		.4byte	.LCFI1
 556 0014 0200     		.2byte	0x2
 557 0016 7D       		.byte	0x7d
 558 0017 0C       		.sleb128 12
 559 0018 04000000 		.4byte	.LCFI1
 560 001c 06000000 		.4byte	.LCFI2
 561 0020 0200     		.2byte	0x2
 562 0022 7D       		.byte	0x7d
 563 0023 10       		.sleb128 16
 564 0024 06000000 		.4byte	.LCFI2
 565 0028 1E000000 		.4byte	.LFE118
 566 002c 0200     		.2byte	0x2
 567 002e 7D       		.byte	0x7d
 568 002f 18       		.sleb128 24
 569 0030 00000000 		.4byte	0x0
 570 0034 00000000 		.4byte	0x0
 571              	.LLST1:
 572 0038 00000000 		.4byte	.LVL0
 573 003c 13000000 		.4byte	.LVL1-1
 574 0040 0100     		.2byte	0x1
 575 0042 50       		.byte	0x50
 576 0043 00000000 		.4byte	0x0
 577 0047 00000000 		.4byte	0x0
 578              	.LLST2:
 579 004b 06000000 		.4byte	.LVL3
 580 004f 08000000 		.4byte	.LVL4
 581 0053 0100     		.2byte	0x1
 582 0055 53       		.byte	0x53
 583 0056 00000000 		.4byte	0x0
 584 005a 00000000 		.4byte	0x0
 585              	.LLST3:
 586 005e 0C000000 		.4byte	.LVL5
 587 0062 10000000 		.4byte	.LFE122
 588 0066 0100     		.2byte	0x1
 589 0068 53       		.byte	0x53
 590 0069 00000000 		.4byte	0x0
 591 006d 00000000 		.4byte	0x0
 592              	.LLST4:
 593 0071 06000000 		.4byte	.LVL7
 594 0075 0A000000 		.4byte	.LVL8
 595 0079 0100     		.2byte	0x1
 596 007b 53       		.byte	0x53
 597 007c 00000000 		.4byte	0x0
 598 0080 00000000 		.4byte	0x0
 599              	.LLST5:
 600 0084 10000000 		.4byte	.LVL10
ARM GAS  C:\Users\DNIEL~1\AppData\Local\Temp\ccbk3KwG.s 			page 12


 601 0088 18000000 		.4byte	.LFE123
 602 008c 0100     		.2byte	0x1
 603 008e 53       		.byte	0x53
 604 008f 00000000 		.4byte	0x0
 605 0093 00000000 		.4byte	0x0
 606              	.LLST6:
 607 0097 06000000 		.4byte	.LVL12
 608 009b 08000000 		.4byte	.LVL13
 609 009f 0100     		.2byte	0x1
 610 00a1 53       		.byte	0x53
 611 00a2 00000000 		.4byte	0x0
 612 00a6 00000000 		.4byte	0x0
 613              	.LLST7:
 614 00aa 0C000000 		.4byte	.LVL14
 615 00ae 10000000 		.4byte	.LFE124
 616 00b2 0100     		.2byte	0x1
 617 00b4 53       		.byte	0x53
 618 00b5 00000000 		.4byte	0x0
 619 00b9 00000000 		.4byte	0x0
 620              	.LLST8:
 621 00bd 06000000 		.4byte	.LVL16
 622 00c1 08000000 		.4byte	.LVL17
 623 00c5 0100     		.2byte	0x1
 624 00c7 53       		.byte	0x53
 625 00c8 00000000 		.4byte	0x0
 626 00cc 00000000 		.4byte	0x0
 627              	.LLST9:
 628 00d0 0C000000 		.4byte	.LVL18
 629 00d4 10000000 		.4byte	.LFE125
 630 00d8 0100     		.2byte	0x1
 631 00da 53       		.byte	0x53
 632 00db 00000000 		.4byte	0x0
 633 00df 00000000 		.4byte	0x0
 634              	.LLST10:
 635 00e3 00000000 		.4byte	.LFB126
 636 00e7 02000000 		.4byte	.LCFI3
 637 00eb 0200     		.2byte	0x2
 638 00ed 7D       		.byte	0x7d
 639 00ee 00       		.sleb128 0
 640 00ef 02000000 		.4byte	.LCFI3
 641 00f3 48000000 		.4byte	.LFE126
 642 00f7 0200     		.2byte	0x2
 643 00f9 7D       		.byte	0x7d
 644 00fa 08       		.sleb128 8
 645 00fb 00000000 		.4byte	0x0
 646 00ff 00000000 		.4byte	0x0
 647              	.LLST11:
 648 0103 00000000 		.4byte	.LVL19
 649 0107 0B000000 		.4byte	.LVL20-1
 650 010b 0600     		.2byte	0x6
 651 010d 50       		.byte	0x50
 652 010e 93       		.byte	0x93
 653 010f 04       		.uleb128 0x4
 654 0110 51       		.byte	0x51
 655 0111 93       		.byte	0x93
 656 0112 04       		.uleb128 0x4
 657 0113 00000000 		.4byte	0x0
ARM GAS  C:\Users\DNIEL~1\AppData\Local\Temp\ccbk3KwG.s 			page 13


 658 0117 00000000 		.4byte	0x0
 659              	.LLST12:
 660 011b 10000000 		.4byte	.LVL21
 661 011f 16000000 		.4byte	.LVL22
 662 0123 0100     		.2byte	0x1
 663 0125 50       		.byte	0x50
 664 0126 16000000 		.4byte	.LVL22
 665 012a 20000000 		.4byte	.LVL23
 666 012e 0500     		.2byte	0x5
 667 0130 70       		.byte	0x70
 668 0131 00       		.sleb128 0
 669 0132 32       		.byte	0x32
 670 0133 24       		.byte	0x24
 671 0134 9F       		.byte	0x9f
 672 0135 22000000 		.4byte	.LVL24
 673 0139 30000000 		.4byte	.LVL25
 674 013d 0100     		.2byte	0x1
 675 013f 53       		.byte	0x53
 676 0140 32000000 		.4byte	.LVL26
 677 0144 36000000 		.4byte	.LVL27
 678 0148 0100     		.2byte	0x1
 679 014a 50       		.byte	0x50
 680 014b 36000000 		.4byte	.LVL27
 681 014f 48000000 		.4byte	.LFE126
 682 0153 0100     		.2byte	0x1
 683 0155 50       		.byte	0x50
 684 0156 00000000 		.4byte	0x0
 685 015a 00000000 		.4byte	0x0
 686              	.LLST13:
 687 015e 00000000 		.4byte	.LFB127
 688 0162 02000000 		.4byte	.LCFI4
 689 0166 0200     		.2byte	0x2
 690 0168 7D       		.byte	0x7d
 691 0169 00       		.sleb128 0
 692 016a 02000000 		.4byte	.LCFI4
 693 016e 4C000000 		.4byte	.LFE127
 694 0172 0200     		.2byte	0x2
 695 0174 7D       		.byte	0x7d
 696 0175 08       		.sleb128 8
 697 0176 00000000 		.4byte	0x0
 698 017a 00000000 		.4byte	0x0
 699              	.LLST14:
 700 017e 00000000 		.4byte	.LVL28
 701 0182 0B000000 		.4byte	.LVL29-1
 702 0186 0600     		.2byte	0x6
 703 0188 50       		.byte	0x50
 704 0189 93       		.byte	0x93
 705 018a 04       		.uleb128 0x4
 706 018b 51       		.byte	0x51
 707 018c 93       		.byte	0x93
 708 018d 04       		.uleb128 0x4
 709 018e 00000000 		.4byte	0x0
 710 0192 00000000 		.4byte	0x0
 711              	.LLST15:
 712 0196 10000000 		.4byte	.LVL30
 713 019a 18000000 		.4byte	.LVL31
 714 019e 0100     		.2byte	0x1
ARM GAS  C:\Users\DNIEL~1\AppData\Local\Temp\ccbk3KwG.s 			page 14


 715 01a0 50       		.byte	0x50
 716 01a1 22000000 		.4byte	.LVL32
 717 01a5 30000000 		.4byte	.LVL33
 718 01a9 0100     		.2byte	0x1
 719 01ab 53       		.byte	0x53
 720 01ac 32000000 		.4byte	.LVL34
 721 01b0 36000000 		.4byte	.LVL35
 722 01b4 0100     		.2byte	0x1
 723 01b6 50       		.byte	0x50
 724 01b7 36000000 		.4byte	.LVL35
 725 01bb 4C000000 		.4byte	.LFE127
 726 01bf 0100     		.2byte	0x1
 727 01c1 50       		.byte	0x50
 728 01c2 00000000 		.4byte	0x0
 729 01c6 00000000 		.4byte	0x0
 730              	.LLST16:
 731 01ca 00000000 		.4byte	.LFB128
 732 01ce 02000000 		.4byte	.LCFI5
 733 01d2 0200     		.2byte	0x2
 734 01d4 7D       		.byte	0x7d
 735 01d5 00       		.sleb128 0
 736 01d6 02000000 		.4byte	.LCFI5
 737 01da 98000000 		.4byte	.LFE128
 738 01de 0200     		.2byte	0x2
 739 01e0 7D       		.byte	0x7d
 740 01e1 10       		.sleb128 16
 741 01e2 00000000 		.4byte	0x0
 742 01e6 00000000 		.4byte	0x0
 743              	.LLST17:
 744 01ea 00000000 		.4byte	.LVL36
 745 01ee 0B000000 		.4byte	.LVL38-1
 746 01f2 0100     		.2byte	0x1
 747 01f4 50       		.byte	0x50
 748 01f5 0B000000 		.4byte	.LVL38-1
 749 01f9 98000000 		.4byte	.LFE128
 750 01fd 0100     		.2byte	0x1
 751 01ff 54       		.byte	0x54
 752 0200 00000000 		.4byte	0x0
 753 0204 00000000 		.4byte	0x0
 754              	.LLST18:
 755 0208 00000000 		.4byte	.LVL36
 756 020c 04000000 		.4byte	.LVL37
 757 0210 0100     		.2byte	0x1
 758 0212 51       		.byte	0x51
 759 0213 00000000 		.4byte	0x0
 760 0217 00000000 		.4byte	0x0
 761              	.LLST19:
 762 021b 00000000 		.4byte	.LVL36
 763 021f 0B000000 		.4byte	.LVL38-1
 764 0223 0100     		.2byte	0x1
 765 0225 52       		.byte	0x52
 766 0226 00000000 		.4byte	0x0
 767 022a 00000000 		.4byte	0x0
 768              		.file 3 "c:\\program files (x86)\\codesourcery\\sourcery g++ lite\\bin\\../lib/gcc/arm-none-eabi/4
 769              		.file 4 "c:\\program files (x86)\\codesourcery\\sourcery g++ lite\\bin\\../lib/gcc/arm-none-eabi/4
 770              		.file 5 "../../../ChibiOS/os/ports/GCC/ARMCMx/chtypes.h"
 771              		.file 6 "../../../ChibiOS/os/kernel/include/chstreams.h"
ARM GAS  C:\Users\DNIEL~1\AppData\Local\Temp\ccbk3KwG.s 			page 15


 772              		.file 7 "../../../ChibiOS/os/hal/include/io_channel.h"
 773              		.file 8 "../../../ChibiOS/os/hal/include/icu.h"
 774              		.file 9 "../../../ChibiOS/os/hal/platforms/STM32/TIMv1/icu_lld.h"
 775              		.file 10 "../../../ChibiOS/os/hal/platforms/STM32/TIMv1/stm32_tim.h"
 776              		.file 11 "c:\\program files (x86)\\codesourcery\\sourcery g++ lite\\bin\\../lib/gcc/arm-none-eabi/
 777              		.file 12 "<built-in>"
 778              		.file 13 "../../../ChibiOS/os/ports/common/ARMCMx/CMSIS/include/core_cm4.h"
 779              		.section	.debug_info
 780 0000 AB090000 		.4byte	0x9ab
 781 0004 0200     		.2byte	0x2
 782 0006 00000000 		.4byte	.Ldebug_abbrev0
 783 000a 04       		.byte	0x4
 784 000b 01       		.uleb128 0x1
 785 000c 8E030000 		.4byte	.LASF93
 786 0010 01       		.byte	0x1
 787 0011 6A000000 		.4byte	.LASF94
 788 0015 A1000000 		.4byte	.LASF95
 789 0019 00000000 		.4byte	0x0
 790 001d 00000000 		.4byte	0x0
 791 0021 18000000 		.4byte	.Ldebug_ranges0+0x18
 792 0025 00000000 		.4byte	.Ldebug_line0
 793 0029 02       		.uleb128 0x2
 794 002a 04       		.byte	0x4
 795 002b 05       		.byte	0x5
 796 002c 696E7400 		.ascii	"int\000"
 797 0030 03       		.uleb128 0x3
 798 0031 4F000000 		.4byte	.LASF2
 799 0035 03       		.byte	0x3
 800 0036 D3       		.byte	0xd3
 801 0037 3B000000 		.4byte	0x3b
 802 003b 04       		.uleb128 0x4
 803 003c 04       		.byte	0x4
 804 003d 07       		.byte	0x7
 805 003e 63020000 		.4byte	.LASF0
 806 0042 04       		.uleb128 0x4
 807 0043 01       		.byte	0x1
 808 0044 06       		.byte	0x6
 809 0045 22020000 		.4byte	.LASF1
 810 0049 03       		.uleb128 0x3
 811 004a 20010000 		.4byte	.LASF3
 812 004e 04       		.byte	0x4
 813 004f 2A       		.byte	0x2a
 814 0050 54000000 		.4byte	0x54
 815 0054 04       		.uleb128 0x4
 816 0055 01       		.byte	0x1
 817 0056 08       		.byte	0x8
 818 0057 05020000 		.4byte	.LASF4
 819 005b 04       		.uleb128 0x4
 820 005c 02       		.byte	0x2
 821 005d 05       		.byte	0x5
 822 005e E4000000 		.4byte	.LASF5
 823 0062 03       		.uleb128 0x3
 824 0063 75020000 		.4byte	.LASF6
 825 0067 04       		.byte	0x4
 826 0068 36       		.byte	0x36
 827 0069 6D000000 		.4byte	0x6d
 828 006d 04       		.uleb128 0x4
ARM GAS  C:\Users\DNIEL~1\AppData\Local\Temp\ccbk3KwG.s 			page 16


 829 006e 02       		.byte	0x2
 830 006f 07       		.byte	0x7
 831 0070 A7020000 		.4byte	.LASF7
 832 0074 03       		.uleb128 0x3
 833 0075 06030000 		.4byte	.LASF8
 834 0079 04       		.byte	0x4
 835 007a 4F       		.byte	0x4f
 836 007b 7F000000 		.4byte	0x7f
 837 007f 04       		.uleb128 0x4
 838 0080 04       		.byte	0x4
 839 0081 05       		.byte	0x5
 840 0082 A4010000 		.4byte	.LASF9
 841 0086 03       		.uleb128 0x3
 842 0087 5A020000 		.4byte	.LASF10
 843 008b 04       		.byte	0x4
 844 008c 50       		.byte	0x50
 845 008d 91000000 		.4byte	0x91
 846 0091 04       		.uleb128 0x4
 847 0092 04       		.byte	0x4
 848 0093 07       		.byte	0x7
 849 0094 64030000 		.4byte	.LASF11
 850 0098 04       		.uleb128 0x4
 851 0099 08       		.byte	0x8
 852 009a 05       		.byte	0x5
 853 009b 75010000 		.4byte	.LASF12
 854 009f 04       		.uleb128 0x4
 855 00a0 08       		.byte	0x8
 856 00a1 07       		.byte	0x7
 857 00a2 43020000 		.4byte	.LASF13
 858 00a6 04       		.uleb128 0x4
 859 00a7 01       		.byte	0x1
 860 00a8 02       		.byte	0x2
 861 00a9 A1020000 		.4byte	.LASF14
 862 00ad 03       		.uleb128 0x3
 863 00ae FE030000 		.4byte	.LASF15
 864 00b2 05       		.byte	0x5
 865 00b3 31       		.byte	0x31
 866 00b4 74000000 		.4byte	0x74
 867 00b8 03       		.uleb128 0x3
 868 00b9 C8020000 		.4byte	.LASF16
 869 00bd 05       		.byte	0x5
 870 00be 35       		.byte	0x35
 871 00bf 86000000 		.4byte	0x86
 872 00c3 05       		.uleb128 0x5
 873 00c4 04       		.byte	0x4
 874 00c5 06       		.uleb128 0x6
 875 00c6 86000000 		.4byte	0x86
 876 00ca 07       		.uleb128 0x7
 877 00cb 04       		.byte	0x4
 878 00cc D0000000 		.4byte	0xd0
 879 00d0 08       		.uleb128 0x8
 880 00d1 D5000000 		.4byte	0xd5
 881 00d5 04       		.uleb128 0x4
 882 00d6 01       		.byte	0x1
 883 00d7 08       		.byte	0x8
 884 00d8 D8020000 		.4byte	.LASF17
 885 00dc 07       		.uleb128 0x7
ARM GAS  C:\Users\DNIEL~1\AppData\Local\Temp\ccbk3KwG.s 			page 17


 886 00dd 04       		.byte	0x4
 887 00de E2000000 		.4byte	0xe2
 888 00e2 09       		.uleb128 0x9
 889 00e3 01       		.byte	0x1
 890 00e4 AD000000 		.4byte	0xad
 891 00e8 F2000000 		.4byte	0xf2
 892 00ec 0A       		.uleb128 0xa
 893 00ed C3000000 		.4byte	0xc3
 894 00f1 00       		.byte	0x0
 895 00f2 07       		.uleb128 0x7
 896 00f3 04       		.byte	0x4
 897 00f4 49000000 		.4byte	0x49
 898 00f8 0B       		.uleb128 0xb
 899 00f9 0F040000 		.4byte	.LASF21
 900 00fd 10       		.byte	0x10
 901 00fe 06       		.byte	0x6
 902 00ff 48       		.byte	0x48
 903 0100 3D010000 		.4byte	0x13d
 904 0104 0C       		.uleb128 0xc
 905 0105 05000000 		.4byte	.LASF18
 906 0109 06       		.byte	0x6
 907 010a 49       		.byte	0x49
 908 010b 62010000 		.4byte	0x162
 909 010f 02       		.byte	0x2
 910 0110 23       		.byte	0x23
 911 0111 00       		.uleb128 0x0
 912 0112 0C       		.uleb128 0xc
 913 0113 70010000 		.4byte	.LASF19
 914 0117 06       		.byte	0x6
 915 0118 49       		.byte	0x49
 916 0119 82010000 		.4byte	0x182
 917 011d 02       		.byte	0x2
 918 011e 23       		.byte	0x23
 919 011f 04       		.uleb128 0x4
 920 0120 0D       		.uleb128 0xd
 921 0121 70757400 		.ascii	"put\000"
 922 0125 06       		.byte	0x6
 923 0126 49       		.byte	0x49
 924 0127 9D010000 		.4byte	0x19d
 925 012b 02       		.byte	0x2
 926 012c 23       		.byte	0x23
 927 012d 08       		.uleb128 0x8
 928 012e 0D       		.uleb128 0xd
 929 012f 67657400 		.ascii	"get\000"
 930 0133 06       		.byte	0x6
 931 0134 49       		.byte	0x49
 932 0135 DC000000 		.4byte	0xdc
 933 0139 02       		.byte	0x2
 934 013a 23       		.byte	0x23
 935 013b 0C       		.uleb128 0xc
 936 013c 00       		.byte	0x0
 937 013d 09       		.uleb128 0x9
 938 013e 01       		.byte	0x1
 939 013f 30000000 		.4byte	0x30
 940 0143 57010000 		.4byte	0x157
 941 0147 0A       		.uleb128 0xa
 942 0148 C3000000 		.4byte	0xc3
ARM GAS  C:\Users\DNIEL~1\AppData\Local\Temp\ccbk3KwG.s 			page 18


 943 014c 0A       		.uleb128 0xa
 944 014d 57010000 		.4byte	0x157
 945 0151 0A       		.uleb128 0xa
 946 0152 30000000 		.4byte	0x30
 947 0156 00       		.byte	0x0
 948 0157 07       		.uleb128 0x7
 949 0158 04       		.byte	0x4
 950 0159 5D010000 		.4byte	0x15d
 951 015d 08       		.uleb128 0x8
 952 015e 49000000 		.4byte	0x49
 953 0162 07       		.uleb128 0x7
 954 0163 04       		.byte	0x4
 955 0164 3D010000 		.4byte	0x13d
 956 0168 09       		.uleb128 0x9
 957 0169 01       		.byte	0x1
 958 016a 30000000 		.4byte	0x30
 959 016e 82010000 		.4byte	0x182
 960 0172 0A       		.uleb128 0xa
 961 0173 C3000000 		.4byte	0xc3
 962 0177 0A       		.uleb128 0xa
 963 0178 F2000000 		.4byte	0xf2
 964 017c 0A       		.uleb128 0xa
 965 017d 30000000 		.4byte	0x30
 966 0181 00       		.byte	0x0
 967 0182 07       		.uleb128 0x7
 968 0183 04       		.byte	0x4
 969 0184 68010000 		.4byte	0x168
 970 0188 09       		.uleb128 0x9
 971 0189 01       		.byte	0x1
 972 018a AD000000 		.4byte	0xad
 973 018e 9D010000 		.4byte	0x19d
 974 0192 0A       		.uleb128 0xa
 975 0193 C3000000 		.4byte	0xc3
 976 0197 0A       		.uleb128 0xa
 977 0198 49000000 		.4byte	0x49
 978 019c 00       		.byte	0x0
 979 019d 07       		.uleb128 0x7
 980 019e 04       		.byte	0x4
 981 019f 88010000 		.4byte	0x188
 982 01a3 0E       		.uleb128 0xe
 983 01a4 04       		.byte	0x4
 984 01a5 06       		.byte	0x6
 985 01a6 51       		.byte	0x51
 986 01a7 BA010000 		.4byte	0x1ba
 987 01ab 0D       		.uleb128 0xd
 988 01ac 766D7400 		.ascii	"vmt\000"
 989 01b0 06       		.byte	0x6
 990 01b1 53       		.byte	0x53
 991 01b2 BA010000 		.4byte	0x1ba
 992 01b6 02       		.byte	0x2
 993 01b7 23       		.byte	0x23
 994 01b8 00       		.uleb128 0x0
 995 01b9 00       		.byte	0x0
 996 01ba 07       		.uleb128 0x7
 997 01bb 04       		.byte	0x4
 998 01bc C0010000 		.4byte	0x1c0
 999 01c0 08       		.uleb128 0x8
ARM GAS  C:\Users\DNIEL~1\AppData\Local\Temp\ccbk3KwG.s 			page 19


 1000 01c1 F8000000 		.4byte	0xf8
 1001 01c5 03       		.uleb128 0x3
 1002 01c6 87000000 		.4byte	.LASF20
 1003 01ca 06       		.byte	0x6
 1004 01cb 55       		.byte	0x55
 1005 01cc A3010000 		.4byte	0x1a3
 1006 01d0 0F       		.uleb128 0xf
 1007 01d1 86000000 		.4byte	0x86
 1008 01d5 E0010000 		.4byte	0x1e0
 1009 01d9 10       		.uleb128 0x10
 1010 01da 3B000000 		.4byte	0x3b
 1011 01de 03       		.byte	0x3
 1012 01df 00       		.byte	0x0
 1013 01e0 06       		.uleb128 0x6
 1014 01e1 74000000 		.4byte	0x74
 1015 01e5 08       		.uleb128 0x8
 1016 01e6 86000000 		.4byte	0x86
 1017 01ea 07       		.uleb128 0x7
 1018 01eb 04       		.byte	0x4
 1019 01ec C5000000 		.4byte	0xc5
 1020 01f0 0B       		.uleb128 0xb
 1021 01f1 44010000 		.4byte	.LASF22
 1022 01f5 20       		.byte	0x20
 1023 01f6 07       		.byte	0x7
 1024 01f7 4E       		.byte	0x4e
 1025 01f8 6D020000 		.4byte	0x26d
 1026 01fc 0C       		.uleb128 0xc
 1027 01fd 05000000 		.4byte	.LASF18
 1028 0201 07       		.byte	0x7
 1029 0202 4F       		.byte	0x4f
 1030 0203 62010000 		.4byte	0x162
 1031 0207 02       		.byte	0x2
 1032 0208 23       		.byte	0x23
 1033 0209 00       		.uleb128 0x0
 1034 020a 0C       		.uleb128 0xc
 1035 020b 70010000 		.4byte	.LASF19
 1036 020f 07       		.byte	0x7
 1037 0210 4F       		.byte	0x4f
 1038 0211 82010000 		.4byte	0x182
 1039 0215 02       		.byte	0x2
 1040 0216 23       		.byte	0x23
 1041 0217 04       		.uleb128 0x4
 1042 0218 0D       		.uleb128 0xd
 1043 0219 70757400 		.ascii	"put\000"
 1044 021d 07       		.byte	0x7
 1045 021e 4F       		.byte	0x4f
 1046 021f 9D010000 		.4byte	0x19d
 1047 0223 02       		.byte	0x2
 1048 0224 23       		.byte	0x23
 1049 0225 08       		.uleb128 0x8
 1050 0226 0D       		.uleb128 0xd
 1051 0227 67657400 		.ascii	"get\000"
 1052 022b 07       		.byte	0x7
 1053 022c 4F       		.byte	0x4f
 1054 022d DC000000 		.4byte	0xdc
 1055 0231 02       		.byte	0x2
 1056 0232 23       		.byte	0x23
ARM GAS  C:\Users\DNIEL~1\AppData\Local\Temp\ccbk3KwG.s 			page 20


 1057 0233 0C       		.uleb128 0xc
 1058 0234 0C       		.uleb128 0xc
 1059 0235 8D020000 		.4byte	.LASF23
 1060 0239 07       		.byte	0x7
 1061 023a 4F       		.byte	0x4f
 1062 023b 87020000 		.4byte	0x287
 1063 023f 02       		.byte	0x2
 1064 0240 23       		.byte	0x23
 1065 0241 10       		.uleb128 0x10
 1066 0242 0C       		.uleb128 0xc
 1067 0243 B7010000 		.4byte	.LASF24
 1068 0247 07       		.byte	0x7
 1069 0248 4F       		.byte	0x4f
 1070 0249 A2020000 		.4byte	0x2a2
 1071 024d 02       		.byte	0x2
 1072 024e 23       		.byte	0x23
 1073 024f 14       		.uleb128 0x14
 1074 0250 0C       		.uleb128 0xc
 1075 0251 DD000000 		.4byte	.LASF25
 1076 0255 07       		.byte	0x7
 1077 0256 4F       		.byte	0x4f
 1078 0257 C7020000 		.4byte	0x2c7
 1079 025b 02       		.byte	0x2
 1080 025c 23       		.byte	0x23
 1081 025d 18       		.uleb128 0x18
 1082 025e 0C       		.uleb128 0xc
 1083 025f D2020000 		.4byte	.LASF26
 1084 0263 07       		.byte	0x7
 1085 0264 4F       		.byte	0x4f
 1086 0265 EC020000 		.4byte	0x2ec
 1087 0269 02       		.byte	0x2
 1088 026a 23       		.byte	0x23
 1089 026b 1C       		.uleb128 0x1c
 1090 026c 00       		.byte	0x0
 1091 026d 09       		.uleb128 0x9
 1092 026e 01       		.byte	0x1
 1093 026f AD000000 		.4byte	0xad
 1094 0273 87020000 		.4byte	0x287
 1095 0277 0A       		.uleb128 0xa
 1096 0278 C3000000 		.4byte	0xc3
 1097 027c 0A       		.uleb128 0xa
 1098 027d 49000000 		.4byte	0x49
 1099 0281 0A       		.uleb128 0xa
 1100 0282 B8000000 		.4byte	0xb8
 1101 0286 00       		.byte	0x0
 1102 0287 07       		.uleb128 0x7
 1103 0288 04       		.byte	0x4
 1104 0289 6D020000 		.4byte	0x26d
 1105 028d 09       		.uleb128 0x9
 1106 028e 01       		.byte	0x1
 1107 028f AD000000 		.4byte	0xad
 1108 0293 A2020000 		.4byte	0x2a2
 1109 0297 0A       		.uleb128 0xa
 1110 0298 C3000000 		.4byte	0xc3
 1111 029c 0A       		.uleb128 0xa
 1112 029d B8000000 		.4byte	0xb8
 1113 02a1 00       		.byte	0x0
ARM GAS  C:\Users\DNIEL~1\AppData\Local\Temp\ccbk3KwG.s 			page 21


 1114 02a2 07       		.uleb128 0x7
 1115 02a3 04       		.byte	0x4
 1116 02a4 8D020000 		.4byte	0x28d
 1117 02a8 09       		.uleb128 0x9
 1118 02a9 01       		.byte	0x1
 1119 02aa 30000000 		.4byte	0x30
 1120 02ae C7020000 		.4byte	0x2c7
 1121 02b2 0A       		.uleb128 0xa
 1122 02b3 C3000000 		.4byte	0xc3
 1123 02b7 0A       		.uleb128 0xa
 1124 02b8 57010000 		.4byte	0x157
 1125 02bc 0A       		.uleb128 0xa
 1126 02bd 30000000 		.4byte	0x30
 1127 02c1 0A       		.uleb128 0xa
 1128 02c2 B8000000 		.4byte	0xb8
 1129 02c6 00       		.byte	0x0
 1130 02c7 07       		.uleb128 0x7
 1131 02c8 04       		.byte	0x4
 1132 02c9 A8020000 		.4byte	0x2a8
 1133 02cd 09       		.uleb128 0x9
 1134 02ce 01       		.byte	0x1
 1135 02cf 30000000 		.4byte	0x30
 1136 02d3 EC020000 		.4byte	0x2ec
 1137 02d7 0A       		.uleb128 0xa
 1138 02d8 C3000000 		.4byte	0xc3
 1139 02dc 0A       		.uleb128 0xa
 1140 02dd F2000000 		.4byte	0xf2
 1141 02e1 0A       		.uleb128 0xa
 1142 02e2 30000000 		.4byte	0x30
 1143 02e6 0A       		.uleb128 0xa
 1144 02e7 B8000000 		.4byte	0xb8
 1145 02eb 00       		.byte	0x0
 1146 02ec 07       		.uleb128 0x7
 1147 02ed 04       		.byte	0x4
 1148 02ee CD020000 		.4byte	0x2cd
 1149 02f2 0E       		.uleb128 0xe
 1150 02f3 04       		.byte	0x4
 1151 02f4 07       		.byte	0x7
 1152 02f5 59       		.byte	0x59
 1153 02f6 09030000 		.4byte	0x309
 1154 02fa 0D       		.uleb128 0xd
 1155 02fb 766D7400 		.ascii	"vmt\000"
 1156 02ff 07       		.byte	0x7
 1157 0300 5B       		.byte	0x5b
 1158 0301 09030000 		.4byte	0x309
 1159 0305 02       		.byte	0x2
 1160 0306 23       		.byte	0x23
 1161 0307 00       		.uleb128 0x0
 1162 0308 00       		.byte	0x0
 1163 0309 07       		.uleb128 0x7
 1164 030a 04       		.byte	0x4
 1165 030b 0F030000 		.4byte	0x30f
 1166 030f 08       		.uleb128 0x8
 1167 0310 F0010000 		.4byte	0x1f0
 1168 0314 03       		.uleb128 0x3
 1169 0315 E5030000 		.4byte	.LASF27
 1170 0319 07       		.byte	0x7
ARM GAS  C:\Users\DNIEL~1\AppData\Local\Temp\ccbk3KwG.s 			page 22


 1171 031a 5D       		.byte	0x5d
 1172 031b F2020000 		.4byte	0x2f2
 1173 031f 11       		.uleb128 0x11
 1174 0320 01       		.byte	0x1
 1175 0321 08       		.byte	0x8
 1176 0322 3C       		.byte	0x3c
 1177 0323 4C030000 		.4byte	0x34c
 1178 0327 12       		.uleb128 0x12
 1179 0328 34030000 		.4byte	.LASF28
 1180 032c 00       		.sleb128 0
 1181 032d 12       		.uleb128 0x12
 1182 032e 0B000000 		.4byte	.LASF29
 1183 0332 01       		.sleb128 1
 1184 0333 12       		.uleb128 0x12
 1185 0334 DB030000 		.4byte	.LASF30
 1186 0338 02       		.sleb128 2
 1187 0339 12       		.uleb128 0x12
 1188 033a 27040000 		.4byte	.LASF31
 1189 033e 03       		.sleb128 3
 1190 033f 12       		.uleb128 0x12
 1191 0340 83030000 		.4byte	.LASF32
 1192 0344 04       		.sleb128 4
 1193 0345 12       		.uleb128 0x12
 1194 0346 F7010000 		.4byte	.LASF33
 1195 034a 05       		.sleb128 5
 1196 034b 00       		.byte	0x0
 1197 034c 03       		.uleb128 0x3
 1198 034d 04040000 		.4byte	.LASF34
 1199 0351 08       		.byte	0x8
 1200 0352 43       		.byte	0x43
 1201 0353 1F030000 		.4byte	0x31f
 1202 0357 03       		.uleb128 0x3
 1203 0358 B8030000 		.4byte	.LASF35
 1204 035c 08       		.byte	0x8
 1205 035d 48       		.byte	0x48
 1206 035e 62030000 		.4byte	0x362
 1207 0362 13       		.uleb128 0x13
 1208 0363 B8030000 		.4byte	.LASF35
 1209 0367 18       		.byte	0x18
 1210 0368 09       		.byte	0x9
 1211 0369 3101     		.2byte	0x131
 1212 036b CA030000 		.4byte	0x3ca
 1213 036f 14       		.uleb128 0x14
 1214 0370 38000000 		.4byte	.LASF36
 1215 0374 09       		.byte	0x9
 1216 0375 3501     		.2byte	0x135
 1217 0377 4C030000 		.4byte	0x34c
 1218 037b 02       		.byte	0x2
 1219 037c 23       		.byte	0x23
 1220 037d 00       		.uleb128 0x0
 1221 037e 14       		.uleb128 0x14
 1222 037f EE000000 		.4byte	.LASF37
 1223 0383 09       		.byte	0x9
 1224 0384 3901     		.2byte	0x139
 1225 0386 0B060000 		.4byte	0x60b
 1226 038a 02       		.byte	0x2
 1227 038b 23       		.byte	0x23
ARM GAS  C:\Users\DNIEL~1\AppData\Local\Temp\ccbk3KwG.s 			page 23


 1228 038c 04       		.uleb128 0x4
 1229 038d 14       		.uleb128 0x14
 1230 038e 76030000 		.4byte	.LASF38
 1231 0392 09       		.byte	0x9
 1232 0393 4101     		.2byte	0x141
 1233 0395 86000000 		.4byte	0x86
 1234 0399 02       		.byte	0x2
 1235 039a 23       		.byte	0x23
 1236 039b 08       		.uleb128 0x8
 1237 039c 15       		.uleb128 0x15
 1238 039d 74696D00 		.ascii	"tim\000"
 1239 03a1 09       		.byte	0x9
 1240 03a2 4501     		.2byte	0x145
 1241 03a4 16060000 		.4byte	0x616
 1242 03a8 02       		.byte	0x2
 1243 03a9 23       		.byte	0x23
 1244 03aa 0C       		.uleb128 0xc
 1245 03ab 14       		.uleb128 0x14
 1246 03ac 9E010000 		.4byte	.LASF39
 1247 03b0 09       		.byte	0x9
 1248 03b1 4901     		.2byte	0x149
 1249 03b3 EA010000 		.4byte	0x1ea
 1250 03b7 02       		.byte	0x2
 1251 03b8 23       		.byte	0x23
 1252 03b9 10       		.uleb128 0x10
 1253 03ba 14       		.uleb128 0x14
 1254 03bb BC010000 		.4byte	.LASF40
 1255 03bf 09       		.byte	0x9
 1256 03c0 4D01     		.2byte	0x14d
 1257 03c2 EA010000 		.4byte	0x1ea
 1258 03c6 02       		.byte	0x2
 1259 03c7 23       		.byte	0x23
 1260 03c8 14       		.uleb128 0x14
 1261 03c9 00       		.byte	0x0
 1262 03ca 03       		.uleb128 0x3
 1263 03cb DD020000 		.4byte	.LASF41
 1264 03cf 08       		.byte	0x8
 1265 03d0 4F       		.byte	0x4f
 1266 03d1 D5030000 		.4byte	0x3d5
 1267 03d5 07       		.uleb128 0x7
 1268 03d6 04       		.byte	0x4
 1269 03d7 DB030000 		.4byte	0x3db
 1270 03db 16       		.uleb128 0x16
 1271 03dc 01       		.byte	0x1
 1272 03dd E7030000 		.4byte	0x3e7
 1273 03e1 0A       		.uleb128 0xa
 1274 03e2 E7030000 		.4byte	0x3e7
 1275 03e6 00       		.byte	0x0
 1276 03e7 07       		.uleb128 0x7
 1277 03e8 04       		.byte	0x4
 1278 03e9 57030000 		.4byte	0x357
 1279 03ed 17       		.uleb128 0x17
 1280 03ee 60       		.byte	0x60
 1281 03ef 0A       		.byte	0xa
 1282 03f0 9E01     		.2byte	0x19e
 1283 03f2 30050000 		.4byte	0x530
 1284 03f6 15       		.uleb128 0x15
ARM GAS  C:\Users\DNIEL~1\AppData\Local\Temp\ccbk3KwG.s 			page 24


 1285 03f7 43523100 		.ascii	"CR1\000"
 1286 03fb 0A       		.byte	0xa
 1287 03fc 9F01     		.2byte	0x19f
 1288 03fe C5000000 		.4byte	0xc5
 1289 0402 02       		.byte	0x2
 1290 0403 23       		.byte	0x23
 1291 0404 00       		.uleb128 0x0
 1292 0405 15       		.uleb128 0x15
 1293 0406 43523200 		.ascii	"CR2\000"
 1294 040a 0A       		.byte	0xa
 1295 040b A001     		.2byte	0x1a0
 1296 040d C5000000 		.4byte	0xc5
 1297 0411 02       		.byte	0x2
 1298 0412 23       		.byte	0x23
 1299 0413 04       		.uleb128 0x4
 1300 0414 14       		.uleb128 0x14
 1301 0415 00020000 		.4byte	.LASF42
 1302 0419 0A       		.byte	0xa
 1303 041a A101     		.2byte	0x1a1
 1304 041c C5000000 		.4byte	0xc5
 1305 0420 02       		.byte	0x2
 1306 0421 23       		.byte	0x23
 1307 0422 08       		.uleb128 0x8
 1308 0423 14       		.uleb128 0x14
 1309 0424 92020000 		.4byte	.LASF43
 1310 0428 0A       		.byte	0xa
 1311 0429 A201     		.2byte	0x1a2
 1312 042b C5000000 		.4byte	0xc5
 1313 042f 02       		.byte	0x2
 1314 0430 23       		.byte	0x23
 1315 0431 0C       		.uleb128 0xc
 1316 0432 15       		.uleb128 0x15
 1317 0433 535200   		.ascii	"SR\000"
 1318 0436 0A       		.byte	0xa
 1319 0437 A301     		.2byte	0x1a3
 1320 0439 C5000000 		.4byte	0xc5
 1321 043d 02       		.byte	0x2
 1322 043e 23       		.byte	0x23
 1323 043f 10       		.uleb128 0x10
 1324 0440 15       		.uleb128 0x15
 1325 0441 45475200 		.ascii	"EGR\000"
 1326 0445 0A       		.byte	0xa
 1327 0446 A401     		.2byte	0x1a4
 1328 0448 C5000000 		.4byte	0xc5
 1329 044c 02       		.byte	0x2
 1330 044d 23       		.byte	0x23
 1331 044e 14       		.uleb128 0x14
 1332 044f 14       		.uleb128 0x14
 1333 0450 D4010000 		.4byte	.LASF44
 1334 0454 0A       		.byte	0xa
 1335 0455 A501     		.2byte	0x1a5
 1336 0457 C5000000 		.4byte	0xc5
 1337 045b 02       		.byte	0x2
 1338 045c 23       		.byte	0x23
 1339 045d 18       		.uleb128 0x18
 1340 045e 14       		.uleb128 0x14
 1341 045f 3E000000 		.4byte	.LASF45
ARM GAS  C:\Users\DNIEL~1\AppData\Local\Temp\ccbk3KwG.s 			page 25


 1342 0463 0A       		.byte	0xa
 1343 0464 A601     		.2byte	0x1a6
 1344 0466 C5000000 		.4byte	0xc5
 1345 046a 02       		.byte	0x2
 1346 046b 23       		.byte	0x23
 1347 046c 1C       		.uleb128 0x1c
 1348 046d 14       		.uleb128 0x14
 1349 046e 00000000 		.4byte	.LASF46
 1350 0472 0A       		.byte	0xa
 1351 0473 A701     		.2byte	0x1a7
 1352 0475 C5000000 		.4byte	0xc5
 1353 0479 02       		.byte	0x2
 1354 047a 23       		.byte	0x23
 1355 047b 20       		.uleb128 0x20
 1356 047c 15       		.uleb128 0x15
 1357 047d 434E5400 		.ascii	"CNT\000"
 1358 0481 0A       		.byte	0xa
 1359 0482 A801     		.2byte	0x1a8
 1360 0484 C5000000 		.4byte	0xc5
 1361 0488 02       		.byte	0x2
 1362 0489 23       		.byte	0x23
 1363 048a 24       		.uleb128 0x24
 1364 048b 15       		.uleb128 0x15
 1365 048c 50534300 		.ascii	"PSC\000"
 1366 0490 0A       		.byte	0xa
 1367 0491 A901     		.2byte	0x1a9
 1368 0493 C5000000 		.4byte	0xc5
 1369 0497 02       		.byte	0x2
 1370 0498 23       		.byte	0x23
 1371 0499 28       		.uleb128 0x28
 1372 049a 15       		.uleb128 0x15
 1373 049b 41525200 		.ascii	"ARR\000"
 1374 049f 0A       		.byte	0xa
 1375 04a0 AA01     		.2byte	0x1aa
 1376 04a2 C5000000 		.4byte	0xc5
 1377 04a6 02       		.byte	0x2
 1378 04a7 23       		.byte	0x23
 1379 04a8 2C       		.uleb128 0x2c
 1380 04a9 15       		.uleb128 0x15
 1381 04aa 52435200 		.ascii	"RCR\000"
 1382 04ae 0A       		.byte	0xa
 1383 04af AB01     		.2byte	0x1ab
 1384 04b1 C5000000 		.4byte	0xc5
 1385 04b5 02       		.byte	0x2
 1386 04b6 23       		.byte	0x23
 1387 04b7 30       		.uleb128 0x30
 1388 04b8 15       		.uleb128 0x15
 1389 04b9 43435200 		.ascii	"CCR\000"
 1390 04bd 0A       		.byte	0xa
 1391 04be AC01     		.2byte	0x1ac
 1392 04c0 30050000 		.4byte	0x530
 1393 04c4 02       		.byte	0x2
 1394 04c5 23       		.byte	0x23
 1395 04c6 34       		.uleb128 0x34
 1396 04c7 14       		.uleb128 0x14
 1397 04c8 01030000 		.4byte	.LASF47
 1398 04cc 0A       		.byte	0xa
ARM GAS  C:\Users\DNIEL~1\AppData\Local\Temp\ccbk3KwG.s 			page 26


 1399 04cd AD01     		.2byte	0x1ad
 1400 04cf C5000000 		.4byte	0xc5
 1401 04d3 02       		.byte	0x2
 1402 04d4 23       		.byte	0x23
 1403 04d5 44       		.uleb128 0x44
 1404 04d6 15       		.uleb128 0x15
 1405 04d7 44435200 		.ascii	"DCR\000"
 1406 04db 0A       		.byte	0xa
 1407 04dc AE01     		.2byte	0x1ae
 1408 04de C5000000 		.4byte	0xc5
 1409 04e2 02       		.byte	0x2
 1410 04e3 23       		.byte	0x23
 1411 04e4 48       		.uleb128 0x48
 1412 04e5 14       		.uleb128 0x14
 1413 04e6 21000000 		.4byte	.LASF48
 1414 04ea 0A       		.byte	0xa
 1415 04eb AF01     		.2byte	0x1af
 1416 04ed C5000000 		.4byte	0xc5
 1417 04f1 02       		.byte	0x2
 1418 04f2 23       		.byte	0x23
 1419 04f3 4C       		.uleb128 0x4c
 1420 04f4 15       		.uleb128 0x15
 1421 04f5 4F5200   		.ascii	"OR\000"
 1422 04f8 0A       		.byte	0xa
 1423 04f9 B001     		.2byte	0x1b0
 1424 04fb C5000000 		.4byte	0xc5
 1425 04ff 02       		.byte	0x2
 1426 0500 23       		.byte	0x23
 1427 0501 50       		.uleb128 0x50
 1428 0502 14       		.uleb128 0x14
 1429 0503 44000000 		.4byte	.LASF49
 1430 0507 0A       		.byte	0xa
 1431 0508 B101     		.2byte	0x1b1
 1432 050a C5000000 		.4byte	0xc5
 1433 050e 02       		.byte	0x2
 1434 050f 23       		.byte	0x23
 1435 0510 54       		.uleb128 0x54
 1436 0511 14       		.uleb128 0x14
 1437 0512 AD010000 		.4byte	.LASF50
 1438 0516 0A       		.byte	0xa
 1439 0517 B201     		.2byte	0x1b2
 1440 0519 C5000000 		.4byte	0xc5
 1441 051d 02       		.byte	0x2
 1442 051e 23       		.byte	0x23
 1443 051f 58       		.uleb128 0x58
 1444 0520 14       		.uleb128 0x14
 1445 0521 B2010000 		.4byte	.LASF51
 1446 0525 0A       		.byte	0xa
 1447 0526 B301     		.2byte	0x1b3
 1448 0528 C5000000 		.4byte	0xc5
 1449 052c 02       		.byte	0x2
 1450 052d 23       		.byte	0x23
 1451 052e 5C       		.uleb128 0x5c
 1452 052f 00       		.byte	0x0
 1453 0530 06       		.uleb128 0x6
 1454 0531 D0010000 		.4byte	0x1d0
 1455 0535 18       		.uleb128 0x18
ARM GAS  C:\Users\DNIEL~1\AppData\Local\Temp\ccbk3KwG.s 			page 27


 1456 0536 EB020000 		.4byte	.LASF52
 1457 053a 0A       		.byte	0xa
 1458 053b B401     		.2byte	0x1b4
 1459 053d ED030000 		.4byte	0x3ed
 1460 0541 11       		.uleb128 0x11
 1461 0542 01       		.byte	0x1
 1462 0543 09       		.byte	0x9
 1463 0544 EE       		.byte	0xee
 1464 0545 56050000 		.4byte	0x556
 1465 0549 12       		.uleb128 0x12
 1466 054a 4E030000 		.4byte	.LASF53
 1467 054e 00       		.sleb128 0
 1468 054f 12       		.uleb128 0x12
 1469 0550 0E030000 		.4byte	.LASF54
 1470 0554 01       		.sleb128 1
 1471 0555 00       		.byte	0x0
 1472 0556 03       		.uleb128 0x3
 1473 0557 60000000 		.4byte	.LASF55
 1474 055b 09       		.byte	0x9
 1475 055c F1       		.byte	0xf1
 1476 055d 41050000 		.4byte	0x541
 1477 0561 03       		.uleb128 0x3
 1478 0562 97020000 		.4byte	.LASF56
 1479 0566 09       		.byte	0x9
 1480 0567 F6       		.byte	0xf6
 1481 0568 86000000 		.4byte	0x86
 1482 056c 11       		.uleb128 0x11
 1483 056d 01       		.byte	0x1
 1484 056e 09       		.byte	0x9
 1485 056f FB       		.byte	0xfb
 1486 0570 81050000 		.4byte	0x581
 1487 0574 12       		.uleb128 0x12
 1488 0575 28010000 		.4byte	.LASF57
 1489 0579 00       		.sleb128 0
 1490 057a 12       		.uleb128 0x12
 1491 057b 36010000 		.4byte	.LASF58
 1492 057f 01       		.sleb128 1
 1493 0580 00       		.byte	0x0
 1494 0581 03       		.uleb128 0x3
 1495 0582 14000000 		.4byte	.LASF59
 1496 0586 09       		.byte	0x9
 1497 0587 FE       		.byte	0xfe
 1498 0588 6C050000 		.4byte	0x56c
 1499 058c 17       		.uleb128 0x17
 1500 058d 1C       		.byte	0x1c
 1501 058e 09       		.byte	0x9
 1502 058f 0901     		.2byte	0x109
 1503 0591 FF050000 		.4byte	0x5ff
 1504 0595 14       		.uleb128 0x14
 1505 0596 9C000000 		.4byte	.LASF60
 1506 059a 09       		.byte	0x9
 1507 059b 0D01     		.2byte	0x10d
 1508 059d 56050000 		.4byte	0x556
 1509 05a1 02       		.byte	0x2
 1510 05a2 23       		.byte	0x23
 1511 05a3 00       		.uleb128 0x0
 1512 05a4 14       		.uleb128 0x14
ARM GAS  C:\Users\DNIEL~1\AppData\Local\Temp\ccbk3KwG.s 			page 28


 1513 05a5 3F030000 		.4byte	.LASF61
 1514 05a9 09       		.byte	0x9
 1515 05aa 1301     		.2byte	0x113
 1516 05ac 61050000 		.4byte	0x561
 1517 05b0 02       		.byte	0x2
 1518 05b1 23       		.byte	0x23
 1519 05b2 04       		.uleb128 0x4
 1520 05b3 14       		.uleb128 0x14
 1521 05b4 60010000 		.4byte	.LASF62
 1522 05b8 09       		.byte	0x9
 1523 05b9 1701     		.2byte	0x117
 1524 05bb CA030000 		.4byte	0x3ca
 1525 05bf 02       		.byte	0x2
 1526 05c0 23       		.byte	0x23
 1527 05c1 08       		.uleb128 0x8
 1528 05c2 14       		.uleb128 0x14
 1529 05c3 F7020000 		.4byte	.LASF63
 1530 05c7 09       		.byte	0x9
 1531 05c8 1B01     		.2byte	0x11b
 1532 05ca CA030000 		.4byte	0x3ca
 1533 05ce 02       		.byte	0x2
 1534 05cf 23       		.byte	0x23
 1535 05d0 0C       		.uleb128 0xc
 1536 05d1 14       		.uleb128 0x14
 1537 05d2 9A030000 		.4byte	.LASF64
 1538 05d6 09       		.byte	0x9
 1539 05d7 1F01     		.2byte	0x11f
 1540 05d9 CA030000 		.4byte	0x3ca
 1541 05dd 02       		.byte	0x2
 1542 05de 23       		.byte	0x23
 1543 05df 10       		.uleb128 0x10
 1544 05e0 14       		.uleb128 0x14
 1545 05e1 2C030000 		.4byte	.LASF65
 1546 05e5 09       		.byte	0x9
 1547 05e6 2501     		.2byte	0x125
 1548 05e8 81050000 		.4byte	0x581
 1549 05ec 02       		.byte	0x2
 1550 05ed 23       		.byte	0x23
 1551 05ee 14       		.uleb128 0x14
 1552 05ef 14       		.uleb128 0x14
 1553 05f0 B3030000 		.4byte	.LASF66
 1554 05f4 09       		.byte	0x9
 1555 05f5 2B01     		.2byte	0x12b
 1556 05f7 86000000 		.4byte	0x86
 1557 05fb 02       		.byte	0x2
 1558 05fc 23       		.byte	0x23
 1559 05fd 18       		.uleb128 0x18
 1560 05fe 00       		.byte	0x0
 1561 05ff 18       		.uleb128 0x18
 1562 0600 13020000 		.4byte	.LASF67
 1563 0604 09       		.byte	0x9
 1564 0605 2C01     		.2byte	0x12c
 1565 0607 8C050000 		.4byte	0x58c
 1566 060b 07       		.uleb128 0x7
 1567 060c 04       		.byte	0x4
 1568 060d 11060000 		.4byte	0x611
 1569 0611 08       		.uleb128 0x8
ARM GAS  C:\Users\DNIEL~1\AppData\Local\Temp\ccbk3KwG.s 			page 29


 1570 0612 FF050000 		.4byte	0x5ff
 1571 0616 07       		.uleb128 0x7
 1572 0617 04       		.byte	0x4
 1573 0618 35050000 		.4byte	0x535
 1574 061c 03       		.uleb128 0x3
 1575 061d C2030000 		.4byte	.LASF68
 1576 0621 0B       		.byte	0xb
 1577 0622 28       		.byte	0x28
 1578 0623 27060000 		.4byte	0x627
 1579 0627 0B       		.uleb128 0xb
 1580 0628 94010000 		.4byte	.LASF69
 1581 062c 04       		.byte	0x4
 1582 062d 0C       		.byte	0xc
 1583 062e 00       		.byte	0x0
 1584 062f 41060000 		.4byte	0x641
 1585 0633 19       		.uleb128 0x19
 1586 0634 70020000 		.4byte	.LASF96
 1587 0638 C3000000 		.4byte	0xc3
 1588 063c 02       		.byte	0x2
 1589 063d 23       		.byte	0x23
 1590 063e 00       		.uleb128 0x0
 1591 063f 01       		.byte	0x1
 1592 0640 00       		.byte	0x0
 1593 0641 03       		.uleb128 0x3
 1594 0642 08010000 		.4byte	.LASF70
 1595 0646 0B       		.byte	0xb
 1596 0647 66       		.byte	0x66
 1597 0648 1C060000 		.4byte	0x61c
 1598 064c 1A       		.uleb128 0x1a
 1599 064d 23030000 		.4byte	.LASF97
 1600 0651 01       		.byte	0x1
 1601 0652 45       		.byte	0x45
 1602 0653 01       		.byte	0x1
 1603 0654 00000000 		.4byte	.LFB118
 1604 0658 1E000000 		.4byte	.LFE118
 1605 065c 00000000 		.4byte	.LLST0
 1606 0660 90060000 		.4byte	0x690
 1607 0664 1B       		.uleb128 0x1b
 1608 0665 63687000 		.ascii	"chp\000"
 1609 0669 01       		.byte	0x1
 1610 066a 45       		.byte	0x45
 1611 066b 90060000 		.4byte	0x690
 1612 066f 38000000 		.4byte	.LLST1
 1613 0673 1C       		.uleb128 0x1c
 1614 0674 666D7400 		.ascii	"fmt\000"
 1615 0678 01       		.byte	0x1
 1616 0679 45       		.byte	0x45
 1617 067a CA000000 		.4byte	0xca
 1618 067e 02       		.byte	0x2
 1619 067f 91       		.byte	0x91
 1620 0680 74       		.sleb128 -12
 1621 0681 1D       		.uleb128 0x1d
 1622 0682 1E       		.uleb128 0x1e
 1623 0683 617000   		.ascii	"ap\000"
 1624 0686 01       		.byte	0x1
 1625 0687 46       		.byte	0x46
 1626 0688 41060000 		.4byte	0x641
ARM GAS  C:\Users\DNIEL~1\AppData\Local\Temp\ccbk3KwG.s 			page 30


 1627 068c 02       		.byte	0x2
 1628 068d 91       		.byte	0x91
 1629 068e 6C       		.sleb128 -20
 1630 068f 00       		.byte	0x0
 1631 0690 07       		.uleb128 0x7
 1632 0691 04       		.byte	0x4
 1633 0692 C5010000 		.4byte	0x1c5
 1634 0696 1F       		.uleb128 0x1f
 1635 0697 01       		.byte	0x1
 1636 0698 56000000 		.4byte	.LASF98
 1637 069c 02       		.byte	0x2
 1638 069d 60       		.byte	0x60
 1639 069e 01       		.byte	0x1
 1640 069f 00000000 		.4byte	.LFB121
 1641 06a3 1C000000 		.4byte	.LFE121
 1642 06a7 02       		.byte	0x2
 1643 06a8 7D       		.byte	0x7d
 1644 06a9 00       		.sleb128 0
 1645 06aa 20       		.uleb128 0x20
 1646 06ab 01       		.byte	0x1
 1647 06ac F5000000 		.4byte	.LASF71
 1648 06b0 02       		.byte	0x2
 1649 06b1 9A       		.byte	0x9a
 1650 06b2 01       		.byte	0x1
 1651 06b3 86000000 		.4byte	0x86
 1652 06b7 00000000 		.4byte	.LFB122
 1653 06bb 10000000 		.4byte	.LFE122
 1654 06bf 02       		.byte	0x2
 1655 06c0 7D       		.byte	0x7d
 1656 06c1 00       		.sleb128 0
 1657 06c2 09070000 		.4byte	0x709
 1658 06c6 21       		.uleb128 0x21
 1659 06c7 746D7000 		.ascii	"tmp\000"
 1660 06cb 02       		.byte	0x2
 1661 06cc 9B       		.byte	0x9b
 1662 06cd 86000000 		.4byte	0x86
 1663 06d1 00       		.byte	0x0
 1664 06d2 22       		.uleb128 0x22
 1665 06d3 00000000 		.4byte	.LBB2
 1666 06d7 06000000 		.4byte	.LBE2
 1667 06db EF060000 		.4byte	0x6ef
 1668 06df 23       		.uleb128 0x23
 1669 06e0 746D7000 		.ascii	"tmp\000"
 1670 06e4 02       		.byte	0x2
 1671 06e5 9D       		.byte	0x9d
 1672 06e6 86000000 		.4byte	0x86
 1673 06ea 4B000000 		.4byte	.LLST2
 1674 06ee 00       		.byte	0x0
 1675 06ef 24       		.uleb128 0x24
 1676 06f0 06000000 		.4byte	.LBB3
 1677 06f4 0C000000 		.4byte	.LBE3
 1678 06f8 23       		.uleb128 0x23
 1679 06f9 746D7000 		.ascii	"tmp\000"
 1680 06fd 02       		.byte	0x2
 1681 06fe 9F       		.byte	0x9f
 1682 06ff 86000000 		.4byte	0x86
 1683 0703 5E000000 		.4byte	.LLST3
ARM GAS  C:\Users\DNIEL~1\AppData\Local\Temp\ccbk3KwG.s 			page 31


 1684 0707 00       		.byte	0x0
 1685 0708 00       		.byte	0x0
 1686 0709 20       		.uleb128 0x20
 1687 070a 01       		.byte	0x1
 1688 070b 2E020000 		.4byte	.LASF72
 1689 070f 02       		.byte	0x2
 1690 0710 A3       		.byte	0xa3
 1691 0711 01       		.byte	0x1
 1692 0712 86000000 		.4byte	0x86
 1693 0716 00000000 		.4byte	.LFB123
 1694 071a 18000000 		.4byte	.LFE123
 1695 071e 02       		.byte	0x2
 1696 071f 7D       		.byte	0x7d
 1697 0720 00       		.sleb128 0
 1698 0721 69070000 		.4byte	0x769
 1699 0725 25       		.uleb128 0x25
 1700 0726 49030000 		.4byte	.LASF73
 1701 072a 02       		.byte	0x2
 1702 072b A4       		.byte	0xa4
 1703 072c 86000000 		.4byte	0x86
 1704 0730 05       		.byte	0x5
 1705 0731 03       		.byte	0x3
 1706 0732 00000000 		.4byte	speed_period_num
 1707 0736 22       		.uleb128 0x22
 1708 0737 00000000 		.4byte	.LBB4
 1709 073b 06000000 		.4byte	.LBE4
 1710 073f 53070000 		.4byte	0x753
 1711 0743 23       		.uleb128 0x23
 1712 0744 746D7000 		.ascii	"tmp\000"
 1713 0748 02       		.byte	0x2
 1714 0749 A6       		.byte	0xa6
 1715 074a 86000000 		.4byte	0x86
 1716 074e 71000000 		.4byte	.LLST4
 1717 0752 00       		.byte	0x0
 1718 0753 26       		.uleb128 0x26
 1719 0754 00000000 		.4byte	.Ldebug_ranges0+0x0
 1720 0758 23       		.uleb128 0x23
 1721 0759 746D7000 		.ascii	"tmp\000"
 1722 075d 02       		.byte	0x2
 1723 075e A8       		.byte	0xa8
 1724 075f 86000000 		.4byte	0x86
 1725 0763 84000000 		.4byte	.LLST5
 1726 0767 00       		.byte	0x0
 1727 0768 00       		.byte	0x0
 1728 0769 20       		.uleb128 0x20
 1729 076a 01       		.byte	0x1
 1730 076b EB010000 		.4byte	.LASF74
 1731 076f 02       		.byte	0x2
 1732 0770 AC       		.byte	0xac
 1733 0771 01       		.byte	0x1
 1734 0772 86000000 		.4byte	0x86
 1735 0776 00000000 		.4byte	.LFB124
 1736 077a 10000000 		.4byte	.LFE124
 1737 077e 02       		.byte	0x2
 1738 077f 7D       		.byte	0x7d
 1739 0780 00       		.sleb128 0
 1740 0781 C8070000 		.4byte	0x7c8
ARM GAS  C:\Users\DNIEL~1\AppData\Local\Temp\ccbk3KwG.s 			page 32


 1741 0785 21       		.uleb128 0x21
 1742 0786 746D7000 		.ascii	"tmp\000"
 1743 078a 02       		.byte	0x2
 1744 078b AD       		.byte	0xad
 1745 078c 86000000 		.4byte	0x86
 1746 0790 00       		.byte	0x0
 1747 0791 22       		.uleb128 0x22
 1748 0792 00000000 		.4byte	.LBB7
 1749 0796 06000000 		.4byte	.LBE7
 1750 079a AE070000 		.4byte	0x7ae
 1751 079e 23       		.uleb128 0x23
 1752 079f 746D7000 		.ascii	"tmp\000"
 1753 07a3 02       		.byte	0x2
 1754 07a4 AF       		.byte	0xaf
 1755 07a5 86000000 		.4byte	0x86
 1756 07a9 97000000 		.4byte	.LLST6
 1757 07ad 00       		.byte	0x0
 1758 07ae 24       		.uleb128 0x24
 1759 07af 06000000 		.4byte	.LBB8
 1760 07b3 0C000000 		.4byte	.LBE8
 1761 07b7 23       		.uleb128 0x23
 1762 07b8 746D7000 		.ascii	"tmp\000"
 1763 07bc 02       		.byte	0x2
 1764 07bd B1       		.byte	0xb1
 1765 07be 86000000 		.4byte	0x86
 1766 07c2 AA000000 		.4byte	.LLST7
 1767 07c6 00       		.byte	0x0
 1768 07c7 00       		.byte	0x0
 1769 07c8 20       		.uleb128 0x20
 1770 07c9 01       		.byte	0x1
 1771 07ca BA020000 		.4byte	.LASF75
 1772 07ce 02       		.byte	0x2
 1773 07cf B5       		.byte	0xb5
 1774 07d0 01       		.byte	0x1
 1775 07d1 86000000 		.4byte	0x86
 1776 07d5 00000000 		.4byte	.LFB125
 1777 07d9 10000000 		.4byte	.LFE125
 1778 07dd 02       		.byte	0x2
 1779 07de 7D       		.byte	0x7d
 1780 07df 00       		.sleb128 0
 1781 07e0 27080000 		.4byte	0x827
 1782 07e4 21       		.uleb128 0x21
 1783 07e5 746D7000 		.ascii	"tmp\000"
 1784 07e9 02       		.byte	0x2
 1785 07ea B6       		.byte	0xb6
 1786 07eb 86000000 		.4byte	0x86
 1787 07ef 00       		.byte	0x0
 1788 07f0 22       		.uleb128 0x22
 1789 07f1 00000000 		.4byte	.LBB9
 1790 07f5 06000000 		.4byte	.LBE9
 1791 07f9 0D080000 		.4byte	0x80d
 1792 07fd 23       		.uleb128 0x23
 1793 07fe 746D7000 		.ascii	"tmp\000"
 1794 0802 02       		.byte	0x2
 1795 0803 B8       		.byte	0xb8
 1796 0804 86000000 		.4byte	0x86
 1797 0808 BD000000 		.4byte	.LLST8
ARM GAS  C:\Users\DNIEL~1\AppData\Local\Temp\ccbk3KwG.s 			page 33


 1798 080c 00       		.byte	0x0
 1799 080d 24       		.uleb128 0x24
 1800 080e 06000000 		.4byte	.LBB10
 1801 0812 0C000000 		.4byte	.LBE10
 1802 0816 23       		.uleb128 0x23
 1803 0817 746D7000 		.ascii	"tmp\000"
 1804 081b 02       		.byte	0x2
 1805 081c BA       		.byte	0xba
 1806 081d 86000000 		.4byte	0x86
 1807 0821 D0000000 		.4byte	.LLST9
 1808 0825 00       		.byte	0x0
 1809 0826 00       		.byte	0x0
 1810 0827 27       		.uleb128 0x27
 1811 0828 01       		.byte	0x1
 1812 0829 83010000 		.4byte	.LASF76
 1813 082d 02       		.byte	0x2
 1814 082e BE       		.byte	0xbe
 1815 082f 01       		.byte	0x1
 1816 0830 86000000 		.4byte	0x86
 1817 0834 00000000 		.4byte	.LFB126
 1818 0838 48000000 		.4byte	.LFE126
 1819 083c E3000000 		.4byte	.LLST10
 1820 0840 63080000 		.4byte	0x863
 1821 0844 1B       		.uleb128 0x1b
 1822 0845 72706D00 		.ascii	"rpm\000"
 1823 0849 02       		.byte	0x2
 1824 084a BE       		.byte	0xbe
 1825 084b 63080000 		.4byte	0x863
 1826 084f 03010000 		.4byte	.LLST11
 1827 0853 23       		.uleb128 0x23
 1828 0854 746D7000 		.ascii	"tmp\000"
 1829 0858 02       		.byte	0x2
 1830 0859 BF       		.byte	0xbf
 1831 085a 86000000 		.4byte	0x86
 1832 085e 1B010000 		.4byte	.LLST12
 1833 0862 00       		.byte	0x0
 1834 0863 04       		.uleb128 0x4
 1835 0864 08       		.byte	0x8
 1836 0865 04       		.byte	0x4
 1837 0866 7C030000 		.4byte	.LASF77
 1838 086a 27       		.uleb128 0x27
 1839 086b 01       		.byte	0x1
 1840 086c DA010000 		.4byte	.LASF78
 1841 0870 02       		.byte	0x2
 1842 0871 CE       		.byte	0xce
 1843 0872 01       		.byte	0x1
 1844 0873 86000000 		.4byte	0x86
 1845 0877 00000000 		.4byte	.LFB127
 1846 087b 4C000000 		.4byte	.LFE127
 1847 087f 5E010000 		.4byte	.LLST13
 1848 0883 A6080000 		.4byte	0x8a6
 1849 0887 28       		.uleb128 0x28
 1850 0888 4A000000 		.4byte	.LASF79
 1851 088c 02       		.byte	0x2
 1852 088d CE       		.byte	0xce
 1853 088e 63080000 		.4byte	0x863
 1854 0892 7E010000 		.4byte	.LLST14
ARM GAS  C:\Users\DNIEL~1\AppData\Local\Temp\ccbk3KwG.s 			page 34


 1855 0896 23       		.uleb128 0x23
 1856 0897 746D7000 		.ascii	"tmp\000"
 1857 089b 02       		.byte	0x2
 1858 089c CF       		.byte	0xcf
 1859 089d 86000000 		.4byte	0x86
 1860 08a1 96010000 		.4byte	.LLST15
 1861 08a5 00       		.byte	0x0
 1862 08a6 29       		.uleb128 0x29
 1863 08a7 01       		.byte	0x1
 1864 08a8 10010000 		.4byte	.LASF99
 1865 08ac 02       		.byte	0x2
 1866 08ad DE       		.byte	0xde
 1867 08ae 01       		.byte	0x1
 1868 08af 00000000 		.4byte	.LFB128
 1869 08b3 98000000 		.4byte	.LFE128
 1870 08b7 CA010000 		.4byte	.LLST16
 1871 08bb ED080000 		.4byte	0x8ed
 1872 08bf 1B       		.uleb128 0x1b
 1873 08c0 63687000 		.ascii	"chp\000"
 1874 08c4 02       		.byte	0x2
 1875 08c5 DE       		.byte	0xde
 1876 08c6 90060000 		.4byte	0x690
 1877 08ca EA010000 		.4byte	.LLST17
 1878 08ce 28       		.uleb128 0x28
 1879 08cf 1D020000 		.4byte	.LASF80
 1880 08d3 02       		.byte	0x2
 1881 08d4 DE       		.byte	0xde
 1882 08d5 29000000 		.4byte	0x29
 1883 08d9 08020000 		.4byte	.LLST18
 1884 08dd 28       		.uleb128 0x28
 1885 08de 5B010000 		.4byte	.LASF81
 1886 08e2 02       		.byte	0x2
 1887 08e3 DE       		.byte	0xde
 1888 08e4 ED080000 		.4byte	0x8ed
 1889 08e8 1B020000 		.4byte	.LLST19
 1890 08ec 00       		.byte	0x0
 1891 08ed 07       		.uleb128 0x7
 1892 08ee 04       		.byte	0x4
 1893 08ef F3080000 		.4byte	0x8f3
 1894 08f3 07       		.uleb128 0x7
 1895 08f4 04       		.byte	0x4
 1896 08f5 D5000000 		.4byte	0xd5
 1897 08f9 2A       		.uleb128 0x2a
 1898 08fa F1030000 		.4byte	.LASF92
 1899 08fe 0D       		.byte	0xd
 1900 08ff 9806     		.2byte	0x698
 1901 0901 E0010000 		.4byte	0x1e0
 1902 0905 01       		.byte	0x1
 1903 0906 01       		.byte	0x1
 1904 0907 0F       		.uleb128 0xf
 1905 0908 63080000 		.4byte	0x863
 1906 090c 17090000 		.4byte	0x917
 1907 0910 10       		.uleb128 0x10
 1908 0911 3B000000 		.4byte	0x3b
 1909 0915 2F       		.byte	0x2f
 1910 0916 00       		.byte	0x0
 1911 0917 2B       		.uleb128 0x2b
ARM GAS  C:\Users\DNIEL~1\AppData\Local\Temp\ccbk3KwG.s 			page 35


 1912 0918 D4000000 		.4byte	.LASF82
 1913 091c 02       		.byte	0x2
 1914 091d 12       		.byte	0x12
 1915 091e 07090000 		.4byte	0x907
 1916 0922 2B       		.uleb128 0x2b
 1917 0923 D1030000 		.4byte	.LASF83
 1918 0927 02       		.byte	0x2
 1919 0928 14       		.byte	0x14
 1920 0929 62000000 		.4byte	0x62
 1921 092d 2B       		.uleb128 0x2b
 1922 092e 69010000 		.4byte	.LASF84
 1923 0932 02       		.byte	0x2
 1924 0933 19       		.byte	0x19
 1925 0934 FF050000 		.4byte	0x5ff
 1926 0938 2B       		.uleb128 0x2b
 1927 0939 26000000 		.4byte	.LASF85
 1928 093d 02       		.byte	0x2
 1929 093e 23       		.byte	0x23
 1930 093f E5010000 		.4byte	0x1e5
 1931 0943 25       		.uleb128 0x25
 1932 0944 76000000 		.4byte	.LASF86
 1933 0948 02       		.byte	0x2
 1934 0949 24       		.byte	0x24
 1935 094a 86000000 		.4byte	0x86
 1936 094e 05       		.byte	0x5
 1937 094f 03       		.byte	0x3
 1938 0950 00000000 		.4byte	speed_period_num
 1939 0954 2B       		.uleb128 0x2b
 1940 0955 C2010000 		.4byte	.LASF87
 1941 0959 02       		.byte	0x2
 1942 095a 25       		.byte	0x25
 1943 095b 86000000 		.4byte	0x86
 1944 095f 2B       		.uleb128 0x2b
 1945 0960 7E020000 		.4byte	.LASF88
 1946 0964 02       		.byte	0x2
 1947 0965 27       		.byte	0x27
 1948 0966 6A090000 		.4byte	0x96a
 1949 096a 08       		.uleb128 0x8
 1950 096b 63080000 		.4byte	0x863
 1951 096f 25       		.uleb128 0x25
 1952 0970 A6030000 		.4byte	.LASF89
 1953 0974 02       		.byte	0x2
 1954 0975 28       		.byte	0x28
 1955 0976 63080000 		.4byte	0x863
 1956 097a 05       		.byte	0x5
 1957 097b 03       		.byte	0x3
 1958 097c 00000000 		.4byte	old_rotation
 1959 0980 2B       		.uleb128 0x2b
 1960 0981 87020000 		.4byte	.LASF90
 1961 0985 02       		.byte	0x2
 1962 0986 29       		.byte	0x29
 1963 0987 8B090000 		.4byte	0x98b
 1964 098b 08       		.uleb128 0x8
 1965 098c 63080000 		.4byte	0x863
 1966 0990 2B       		.uleb128 0x2b
 1967 0991 53010000 		.4byte	.LASF91
 1968 0995 02       		.byte	0x2
ARM GAS  C:\Users\DNIEL~1\AppData\Local\Temp\ccbk3KwG.s 			page 36


 1969 0996 2A       		.byte	0x2a
 1970 0997 9B090000 		.4byte	0x99b
 1971 099b 08       		.uleb128 0x8
 1972 099c 63080000 		.4byte	0x863
 1973 09a0 2A       		.uleb128 0x2a
 1974 09a1 F1030000 		.4byte	.LASF92
 1975 09a5 0D       		.byte	0xd
 1976 09a6 9806     		.2byte	0x698
 1977 09a8 E0010000 		.4byte	0x1e0
 1978 09ac 01       		.byte	0x1
 1979 09ad 01       		.byte	0x1
 1980 09ae 00       		.byte	0x0
 1981              		.section	.debug_abbrev
 1982 0000 01       		.uleb128 0x1
 1983 0001 11       		.uleb128 0x11
 1984 0002 01       		.byte	0x1
 1985 0003 25       		.uleb128 0x25
 1986 0004 0E       		.uleb128 0xe
 1987 0005 13       		.uleb128 0x13
 1988 0006 0B       		.uleb128 0xb
 1989 0007 03       		.uleb128 0x3
 1990 0008 0E       		.uleb128 0xe
 1991 0009 1B       		.uleb128 0x1b
 1992 000a 0E       		.uleb128 0xe
 1993 000b 11       		.uleb128 0x11
 1994 000c 01       		.uleb128 0x1
 1995 000d 52       		.uleb128 0x52
 1996 000e 01       		.uleb128 0x1
 1997 000f 55       		.uleb128 0x55
 1998 0010 06       		.uleb128 0x6
 1999 0011 10       		.uleb128 0x10
 2000 0012 06       		.uleb128 0x6
 2001 0013 00       		.byte	0x0
 2002 0014 00       		.byte	0x0
 2003 0015 02       		.uleb128 0x2
 2004 0016 24       		.uleb128 0x24
 2005 0017 00       		.byte	0x0
 2006 0018 0B       		.uleb128 0xb
 2007 0019 0B       		.uleb128 0xb
 2008 001a 3E       		.uleb128 0x3e
 2009 001b 0B       		.uleb128 0xb
 2010 001c 03       		.uleb128 0x3
 2011 001d 08       		.uleb128 0x8
 2012 001e 00       		.byte	0x0
 2013 001f 00       		.byte	0x0
 2014 0020 03       		.uleb128 0x3
 2015 0021 16       		.uleb128 0x16
 2016 0022 00       		.byte	0x0
 2017 0023 03       		.uleb128 0x3
 2018 0024 0E       		.uleb128 0xe
 2019 0025 3A       		.uleb128 0x3a
 2020 0026 0B       		.uleb128 0xb
 2021 0027 3B       		.uleb128 0x3b
 2022 0028 0B       		.uleb128 0xb
 2023 0029 49       		.uleb128 0x49
 2024 002a 13       		.uleb128 0x13
 2025 002b 00       		.byte	0x0
ARM GAS  C:\Users\DNIEL~1\AppData\Local\Temp\ccbk3KwG.s 			page 37


 2026 002c 00       		.byte	0x0
 2027 002d 04       		.uleb128 0x4
 2028 002e 24       		.uleb128 0x24
 2029 002f 00       		.byte	0x0
 2030 0030 0B       		.uleb128 0xb
 2031 0031 0B       		.uleb128 0xb
 2032 0032 3E       		.uleb128 0x3e
 2033 0033 0B       		.uleb128 0xb
 2034 0034 03       		.uleb128 0x3
 2035 0035 0E       		.uleb128 0xe
 2036 0036 00       		.byte	0x0
 2037 0037 00       		.byte	0x0
 2038 0038 05       		.uleb128 0x5
 2039 0039 0F       		.uleb128 0xf
 2040 003a 00       		.byte	0x0
 2041 003b 0B       		.uleb128 0xb
 2042 003c 0B       		.uleb128 0xb
 2043 003d 00       		.byte	0x0
 2044 003e 00       		.byte	0x0
 2045 003f 06       		.uleb128 0x6
 2046 0040 35       		.uleb128 0x35
 2047 0041 00       		.byte	0x0
 2048 0042 49       		.uleb128 0x49
 2049 0043 13       		.uleb128 0x13
 2050 0044 00       		.byte	0x0
 2051 0045 00       		.byte	0x0
 2052 0046 07       		.uleb128 0x7
 2053 0047 0F       		.uleb128 0xf
 2054 0048 00       		.byte	0x0
 2055 0049 0B       		.uleb128 0xb
 2056 004a 0B       		.uleb128 0xb
 2057 004b 49       		.uleb128 0x49
 2058 004c 13       		.uleb128 0x13
 2059 004d 00       		.byte	0x0
 2060 004e 00       		.byte	0x0
 2061 004f 08       		.uleb128 0x8
 2062 0050 26       		.uleb128 0x26
 2063 0051 00       		.byte	0x0
 2064 0052 49       		.uleb128 0x49
 2065 0053 13       		.uleb128 0x13
 2066 0054 00       		.byte	0x0
 2067 0055 00       		.byte	0x0
 2068 0056 09       		.uleb128 0x9
 2069 0057 15       		.uleb128 0x15
 2070 0058 01       		.byte	0x1
 2071 0059 27       		.uleb128 0x27
 2072 005a 0C       		.uleb128 0xc
 2073 005b 49       		.uleb128 0x49
 2074 005c 13       		.uleb128 0x13
 2075 005d 01       		.uleb128 0x1
 2076 005e 13       		.uleb128 0x13
 2077 005f 00       		.byte	0x0
 2078 0060 00       		.byte	0x0
 2079 0061 0A       		.uleb128 0xa
 2080 0062 05       		.uleb128 0x5
 2081 0063 00       		.byte	0x0
 2082 0064 49       		.uleb128 0x49
ARM GAS  C:\Users\DNIEL~1\AppData\Local\Temp\ccbk3KwG.s 			page 38


 2083 0065 13       		.uleb128 0x13
 2084 0066 00       		.byte	0x0
 2085 0067 00       		.byte	0x0
 2086 0068 0B       		.uleb128 0xb
 2087 0069 13       		.uleb128 0x13
 2088 006a 01       		.byte	0x1
 2089 006b 03       		.uleb128 0x3
 2090 006c 0E       		.uleb128 0xe
 2091 006d 0B       		.uleb128 0xb
 2092 006e 0B       		.uleb128 0xb
 2093 006f 3A       		.uleb128 0x3a
 2094 0070 0B       		.uleb128 0xb
 2095 0071 3B       		.uleb128 0x3b
 2096 0072 0B       		.uleb128 0xb
 2097 0073 01       		.uleb128 0x1
 2098 0074 13       		.uleb128 0x13
 2099 0075 00       		.byte	0x0
 2100 0076 00       		.byte	0x0
 2101 0077 0C       		.uleb128 0xc
 2102 0078 0D       		.uleb128 0xd
 2103 0079 00       		.byte	0x0
 2104 007a 03       		.uleb128 0x3
 2105 007b 0E       		.uleb128 0xe
 2106 007c 3A       		.uleb128 0x3a
 2107 007d 0B       		.uleb128 0xb
 2108 007e 3B       		.uleb128 0x3b
 2109 007f 0B       		.uleb128 0xb
 2110 0080 49       		.uleb128 0x49
 2111 0081 13       		.uleb128 0x13
 2112 0082 38       		.uleb128 0x38
 2113 0083 0A       		.uleb128 0xa
 2114 0084 00       		.byte	0x0
 2115 0085 00       		.byte	0x0
 2116 0086 0D       		.uleb128 0xd
 2117 0087 0D       		.uleb128 0xd
 2118 0088 00       		.byte	0x0
 2119 0089 03       		.uleb128 0x3
 2120 008a 08       		.uleb128 0x8
 2121 008b 3A       		.uleb128 0x3a
 2122 008c 0B       		.uleb128 0xb
 2123 008d 3B       		.uleb128 0x3b
 2124 008e 0B       		.uleb128 0xb
 2125 008f 49       		.uleb128 0x49
 2126 0090 13       		.uleb128 0x13
 2127 0091 38       		.uleb128 0x38
 2128 0092 0A       		.uleb128 0xa
 2129 0093 00       		.byte	0x0
 2130 0094 00       		.byte	0x0
 2131 0095 0E       		.uleb128 0xe
 2132 0096 13       		.uleb128 0x13
 2133 0097 01       		.byte	0x1
 2134 0098 0B       		.uleb128 0xb
 2135 0099 0B       		.uleb128 0xb
 2136 009a 3A       		.uleb128 0x3a
 2137 009b 0B       		.uleb128 0xb
 2138 009c 3B       		.uleb128 0x3b
 2139 009d 0B       		.uleb128 0xb
ARM GAS  C:\Users\DNIEL~1\AppData\Local\Temp\ccbk3KwG.s 			page 39


 2140 009e 01       		.uleb128 0x1
 2141 009f 13       		.uleb128 0x13
 2142 00a0 00       		.byte	0x0
 2143 00a1 00       		.byte	0x0
 2144 00a2 0F       		.uleb128 0xf
 2145 00a3 01       		.uleb128 0x1
 2146 00a4 01       		.byte	0x1
 2147 00a5 49       		.uleb128 0x49
 2148 00a6 13       		.uleb128 0x13
 2149 00a7 01       		.uleb128 0x1
 2150 00a8 13       		.uleb128 0x13
 2151 00a9 00       		.byte	0x0
 2152 00aa 00       		.byte	0x0
 2153 00ab 10       		.uleb128 0x10
 2154 00ac 21       		.uleb128 0x21
 2155 00ad 00       		.byte	0x0
 2156 00ae 49       		.uleb128 0x49
 2157 00af 13       		.uleb128 0x13
 2158 00b0 2F       		.uleb128 0x2f
 2159 00b1 0B       		.uleb128 0xb
 2160 00b2 00       		.byte	0x0
 2161 00b3 00       		.byte	0x0
 2162 00b4 11       		.uleb128 0x11
 2163 00b5 04       		.uleb128 0x4
 2164 00b6 01       		.byte	0x1
 2165 00b7 0B       		.uleb128 0xb
 2166 00b8 0B       		.uleb128 0xb
 2167 00b9 3A       		.uleb128 0x3a
 2168 00ba 0B       		.uleb128 0xb
 2169 00bb 3B       		.uleb128 0x3b
 2170 00bc 0B       		.uleb128 0xb
 2171 00bd 01       		.uleb128 0x1
 2172 00be 13       		.uleb128 0x13
 2173 00bf 00       		.byte	0x0
 2174 00c0 00       		.byte	0x0
 2175 00c1 12       		.uleb128 0x12
 2176 00c2 28       		.uleb128 0x28
 2177 00c3 00       		.byte	0x0
 2178 00c4 03       		.uleb128 0x3
 2179 00c5 0E       		.uleb128 0xe
 2180 00c6 1C       		.uleb128 0x1c
 2181 00c7 0D       		.uleb128 0xd
 2182 00c8 00       		.byte	0x0
 2183 00c9 00       		.byte	0x0
 2184 00ca 13       		.uleb128 0x13
 2185 00cb 13       		.uleb128 0x13
 2186 00cc 01       		.byte	0x1
 2187 00cd 03       		.uleb128 0x3
 2188 00ce 0E       		.uleb128 0xe
 2189 00cf 0B       		.uleb128 0xb
 2190 00d0 0B       		.uleb128 0xb
 2191 00d1 3A       		.uleb128 0x3a
 2192 00d2 0B       		.uleb128 0xb
 2193 00d3 3B       		.uleb128 0x3b
 2194 00d4 05       		.uleb128 0x5
 2195 00d5 01       		.uleb128 0x1
 2196 00d6 13       		.uleb128 0x13
ARM GAS  C:\Users\DNIEL~1\AppData\Local\Temp\ccbk3KwG.s 			page 40


 2197 00d7 00       		.byte	0x0
 2198 00d8 00       		.byte	0x0
 2199 00d9 14       		.uleb128 0x14
 2200 00da 0D       		.uleb128 0xd
 2201 00db 00       		.byte	0x0
 2202 00dc 03       		.uleb128 0x3
 2203 00dd 0E       		.uleb128 0xe
 2204 00de 3A       		.uleb128 0x3a
 2205 00df 0B       		.uleb128 0xb
 2206 00e0 3B       		.uleb128 0x3b
 2207 00e1 05       		.uleb128 0x5
 2208 00e2 49       		.uleb128 0x49
 2209 00e3 13       		.uleb128 0x13
 2210 00e4 38       		.uleb128 0x38
 2211 00e5 0A       		.uleb128 0xa
 2212 00e6 00       		.byte	0x0
 2213 00e7 00       		.byte	0x0
 2214 00e8 15       		.uleb128 0x15
 2215 00e9 0D       		.uleb128 0xd
 2216 00ea 00       		.byte	0x0
 2217 00eb 03       		.uleb128 0x3
 2218 00ec 08       		.uleb128 0x8
 2219 00ed 3A       		.uleb128 0x3a
 2220 00ee 0B       		.uleb128 0xb
 2221 00ef 3B       		.uleb128 0x3b
 2222 00f0 05       		.uleb128 0x5
 2223 00f1 49       		.uleb128 0x49
 2224 00f2 13       		.uleb128 0x13
 2225 00f3 38       		.uleb128 0x38
 2226 00f4 0A       		.uleb128 0xa
 2227 00f5 00       		.byte	0x0
 2228 00f6 00       		.byte	0x0
 2229 00f7 16       		.uleb128 0x16
 2230 00f8 15       		.uleb128 0x15
 2231 00f9 01       		.byte	0x1
 2232 00fa 27       		.uleb128 0x27
 2233 00fb 0C       		.uleb128 0xc
 2234 00fc 01       		.uleb128 0x1
 2235 00fd 13       		.uleb128 0x13
 2236 00fe 00       		.byte	0x0
 2237 00ff 00       		.byte	0x0
 2238 0100 17       		.uleb128 0x17
 2239 0101 13       		.uleb128 0x13
 2240 0102 01       		.byte	0x1
 2241 0103 0B       		.uleb128 0xb
 2242 0104 0B       		.uleb128 0xb
 2243 0105 3A       		.uleb128 0x3a
 2244 0106 0B       		.uleb128 0xb
 2245 0107 3B       		.uleb128 0x3b
 2246 0108 05       		.uleb128 0x5
 2247 0109 01       		.uleb128 0x1
 2248 010a 13       		.uleb128 0x13
 2249 010b 00       		.byte	0x0
 2250 010c 00       		.byte	0x0
 2251 010d 18       		.uleb128 0x18
 2252 010e 16       		.uleb128 0x16
 2253 010f 00       		.byte	0x0
ARM GAS  C:\Users\DNIEL~1\AppData\Local\Temp\ccbk3KwG.s 			page 41


 2254 0110 03       		.uleb128 0x3
 2255 0111 0E       		.uleb128 0xe
 2256 0112 3A       		.uleb128 0x3a
 2257 0113 0B       		.uleb128 0xb
 2258 0114 3B       		.uleb128 0x3b
 2259 0115 05       		.uleb128 0x5
 2260 0116 49       		.uleb128 0x49
 2261 0117 13       		.uleb128 0x13
 2262 0118 00       		.byte	0x0
 2263 0119 00       		.byte	0x0
 2264 011a 19       		.uleb128 0x19
 2265 011b 0D       		.uleb128 0xd
 2266 011c 00       		.byte	0x0
 2267 011d 03       		.uleb128 0x3
 2268 011e 0E       		.uleb128 0xe
 2269 011f 49       		.uleb128 0x49
 2270 0120 13       		.uleb128 0x13
 2271 0121 38       		.uleb128 0x38
 2272 0122 0A       		.uleb128 0xa
 2273 0123 34       		.uleb128 0x34
 2274 0124 0C       		.uleb128 0xc
 2275 0125 00       		.byte	0x0
 2276 0126 00       		.byte	0x0
 2277 0127 1A       		.uleb128 0x1a
 2278 0128 2E       		.uleb128 0x2e
 2279 0129 01       		.byte	0x1
 2280 012a 03       		.uleb128 0x3
 2281 012b 0E       		.uleb128 0xe
 2282 012c 3A       		.uleb128 0x3a
 2283 012d 0B       		.uleb128 0xb
 2284 012e 3B       		.uleb128 0x3b
 2285 012f 0B       		.uleb128 0xb
 2286 0130 27       		.uleb128 0x27
 2287 0131 0C       		.uleb128 0xc
 2288 0132 11       		.uleb128 0x11
 2289 0133 01       		.uleb128 0x1
 2290 0134 12       		.uleb128 0x12
 2291 0135 01       		.uleb128 0x1
 2292 0136 40       		.uleb128 0x40
 2293 0137 06       		.uleb128 0x6
 2294 0138 01       		.uleb128 0x1
 2295 0139 13       		.uleb128 0x13
 2296 013a 00       		.byte	0x0
 2297 013b 00       		.byte	0x0
 2298 013c 1B       		.uleb128 0x1b
 2299 013d 05       		.uleb128 0x5
 2300 013e 00       		.byte	0x0
 2301 013f 03       		.uleb128 0x3
 2302 0140 08       		.uleb128 0x8
 2303 0141 3A       		.uleb128 0x3a
 2304 0142 0B       		.uleb128 0xb
 2305 0143 3B       		.uleb128 0x3b
 2306 0144 0B       		.uleb128 0xb
 2307 0145 49       		.uleb128 0x49
 2308 0146 13       		.uleb128 0x13
 2309 0147 02       		.uleb128 0x2
 2310 0148 06       		.uleb128 0x6
ARM GAS  C:\Users\DNIEL~1\AppData\Local\Temp\ccbk3KwG.s 			page 42


 2311 0149 00       		.byte	0x0
 2312 014a 00       		.byte	0x0
 2313 014b 1C       		.uleb128 0x1c
 2314 014c 05       		.uleb128 0x5
 2315 014d 00       		.byte	0x0
 2316 014e 03       		.uleb128 0x3
 2317 014f 08       		.uleb128 0x8
 2318 0150 3A       		.uleb128 0x3a
 2319 0151 0B       		.uleb128 0xb
 2320 0152 3B       		.uleb128 0x3b
 2321 0153 0B       		.uleb128 0xb
 2322 0154 49       		.uleb128 0x49
 2323 0155 13       		.uleb128 0x13
 2324 0156 02       		.uleb128 0x2
 2325 0157 0A       		.uleb128 0xa
 2326 0158 00       		.byte	0x0
 2327 0159 00       		.byte	0x0
 2328 015a 1D       		.uleb128 0x1d
 2329 015b 18       		.uleb128 0x18
 2330 015c 00       		.byte	0x0
 2331 015d 00       		.byte	0x0
 2332 015e 00       		.byte	0x0
 2333 015f 1E       		.uleb128 0x1e
 2334 0160 34       		.uleb128 0x34
 2335 0161 00       		.byte	0x0
 2336 0162 03       		.uleb128 0x3
 2337 0163 08       		.uleb128 0x8
 2338 0164 3A       		.uleb128 0x3a
 2339 0165 0B       		.uleb128 0xb
 2340 0166 3B       		.uleb128 0x3b
 2341 0167 0B       		.uleb128 0xb
 2342 0168 49       		.uleb128 0x49
 2343 0169 13       		.uleb128 0x13
 2344 016a 02       		.uleb128 0x2
 2345 016b 0A       		.uleb128 0xa
 2346 016c 00       		.byte	0x0
 2347 016d 00       		.byte	0x0
 2348 016e 1F       		.uleb128 0x1f
 2349 016f 2E       		.uleb128 0x2e
 2350 0170 00       		.byte	0x0
 2351 0171 3F       		.uleb128 0x3f
 2352 0172 0C       		.uleb128 0xc
 2353 0173 03       		.uleb128 0x3
 2354 0174 0E       		.uleb128 0xe
 2355 0175 3A       		.uleb128 0x3a
 2356 0176 0B       		.uleb128 0xb
 2357 0177 3B       		.uleb128 0x3b
 2358 0178 0B       		.uleb128 0xb
 2359 0179 27       		.uleb128 0x27
 2360 017a 0C       		.uleb128 0xc
 2361 017b 11       		.uleb128 0x11
 2362 017c 01       		.uleb128 0x1
 2363 017d 12       		.uleb128 0x12
 2364 017e 01       		.uleb128 0x1
 2365 017f 40       		.uleb128 0x40
 2366 0180 0A       		.uleb128 0xa
 2367 0181 00       		.byte	0x0
ARM GAS  C:\Users\DNIEL~1\AppData\Local\Temp\ccbk3KwG.s 			page 43


 2368 0182 00       		.byte	0x0
 2369 0183 20       		.uleb128 0x20
 2370 0184 2E       		.uleb128 0x2e
 2371 0185 01       		.byte	0x1
 2372 0186 3F       		.uleb128 0x3f
 2373 0187 0C       		.uleb128 0xc
 2374 0188 03       		.uleb128 0x3
 2375 0189 0E       		.uleb128 0xe
 2376 018a 3A       		.uleb128 0x3a
 2377 018b 0B       		.uleb128 0xb
 2378 018c 3B       		.uleb128 0x3b
 2379 018d 0B       		.uleb128 0xb
 2380 018e 27       		.uleb128 0x27
 2381 018f 0C       		.uleb128 0xc
 2382 0190 49       		.uleb128 0x49
 2383 0191 13       		.uleb128 0x13
 2384 0192 11       		.uleb128 0x11
 2385 0193 01       		.uleb128 0x1
 2386 0194 12       		.uleb128 0x12
 2387 0195 01       		.uleb128 0x1
 2388 0196 40       		.uleb128 0x40
 2389 0197 0A       		.uleb128 0xa
 2390 0198 01       		.uleb128 0x1
 2391 0199 13       		.uleb128 0x13
 2392 019a 00       		.byte	0x0
 2393 019b 00       		.byte	0x0
 2394 019c 21       		.uleb128 0x21
 2395 019d 34       		.uleb128 0x34
 2396 019e 00       		.byte	0x0
 2397 019f 03       		.uleb128 0x3
 2398 01a0 08       		.uleb128 0x8
 2399 01a1 3A       		.uleb128 0x3a
 2400 01a2 0B       		.uleb128 0xb
 2401 01a3 3B       		.uleb128 0x3b
 2402 01a4 0B       		.uleb128 0xb
 2403 01a5 49       		.uleb128 0x49
 2404 01a6 13       		.uleb128 0x13
 2405 01a7 1C       		.uleb128 0x1c
 2406 01a8 0B       		.uleb128 0xb
 2407 01a9 00       		.byte	0x0
 2408 01aa 00       		.byte	0x0
 2409 01ab 22       		.uleb128 0x22
 2410 01ac 0B       		.uleb128 0xb
 2411 01ad 01       		.byte	0x1
 2412 01ae 11       		.uleb128 0x11
 2413 01af 01       		.uleb128 0x1
 2414 01b0 12       		.uleb128 0x12
 2415 01b1 01       		.uleb128 0x1
 2416 01b2 01       		.uleb128 0x1
 2417 01b3 13       		.uleb128 0x13
 2418 01b4 00       		.byte	0x0
 2419 01b5 00       		.byte	0x0
 2420 01b6 23       		.uleb128 0x23
 2421 01b7 34       		.uleb128 0x34
 2422 01b8 00       		.byte	0x0
 2423 01b9 03       		.uleb128 0x3
 2424 01ba 08       		.uleb128 0x8
ARM GAS  C:\Users\DNIEL~1\AppData\Local\Temp\ccbk3KwG.s 			page 44


 2425 01bb 3A       		.uleb128 0x3a
 2426 01bc 0B       		.uleb128 0xb
 2427 01bd 3B       		.uleb128 0x3b
 2428 01be 0B       		.uleb128 0xb
 2429 01bf 49       		.uleb128 0x49
 2430 01c0 13       		.uleb128 0x13
 2431 01c1 02       		.uleb128 0x2
 2432 01c2 06       		.uleb128 0x6
 2433 01c3 00       		.byte	0x0
 2434 01c4 00       		.byte	0x0
 2435 01c5 24       		.uleb128 0x24
 2436 01c6 0B       		.uleb128 0xb
 2437 01c7 01       		.byte	0x1
 2438 01c8 11       		.uleb128 0x11
 2439 01c9 01       		.uleb128 0x1
 2440 01ca 12       		.uleb128 0x12
 2441 01cb 01       		.uleb128 0x1
 2442 01cc 00       		.byte	0x0
 2443 01cd 00       		.byte	0x0
 2444 01ce 25       		.uleb128 0x25
 2445 01cf 34       		.uleb128 0x34
 2446 01d0 00       		.byte	0x0
 2447 01d1 03       		.uleb128 0x3
 2448 01d2 0E       		.uleb128 0xe
 2449 01d3 3A       		.uleb128 0x3a
 2450 01d4 0B       		.uleb128 0xb
 2451 01d5 3B       		.uleb128 0x3b
 2452 01d6 0B       		.uleb128 0xb
 2453 01d7 49       		.uleb128 0x49
 2454 01d8 13       		.uleb128 0x13
 2455 01d9 02       		.uleb128 0x2
 2456 01da 0A       		.uleb128 0xa
 2457 01db 00       		.byte	0x0
 2458 01dc 00       		.byte	0x0
 2459 01dd 26       		.uleb128 0x26
 2460 01de 0B       		.uleb128 0xb
 2461 01df 01       		.byte	0x1
 2462 01e0 55       		.uleb128 0x55
 2463 01e1 06       		.uleb128 0x6
 2464 01e2 00       		.byte	0x0
 2465 01e3 00       		.byte	0x0
 2466 01e4 27       		.uleb128 0x27
 2467 01e5 2E       		.uleb128 0x2e
 2468 01e6 01       		.byte	0x1
 2469 01e7 3F       		.uleb128 0x3f
 2470 01e8 0C       		.uleb128 0xc
 2471 01e9 03       		.uleb128 0x3
 2472 01ea 0E       		.uleb128 0xe
 2473 01eb 3A       		.uleb128 0x3a
 2474 01ec 0B       		.uleb128 0xb
 2475 01ed 3B       		.uleb128 0x3b
 2476 01ee 0B       		.uleb128 0xb
 2477 01ef 27       		.uleb128 0x27
 2478 01f0 0C       		.uleb128 0xc
 2479 01f1 49       		.uleb128 0x49
 2480 01f2 13       		.uleb128 0x13
 2481 01f3 11       		.uleb128 0x11
ARM GAS  C:\Users\DNIEL~1\AppData\Local\Temp\ccbk3KwG.s 			page 45


 2482 01f4 01       		.uleb128 0x1
 2483 01f5 12       		.uleb128 0x12
 2484 01f6 01       		.uleb128 0x1
 2485 01f7 40       		.uleb128 0x40
 2486 01f8 06       		.uleb128 0x6
 2487 01f9 01       		.uleb128 0x1
 2488 01fa 13       		.uleb128 0x13
 2489 01fb 00       		.byte	0x0
 2490 01fc 00       		.byte	0x0
 2491 01fd 28       		.uleb128 0x28
 2492 01fe 05       		.uleb128 0x5
 2493 01ff 00       		.byte	0x0
 2494 0200 03       		.uleb128 0x3
 2495 0201 0E       		.uleb128 0xe
 2496 0202 3A       		.uleb128 0x3a
 2497 0203 0B       		.uleb128 0xb
 2498 0204 3B       		.uleb128 0x3b
 2499 0205 0B       		.uleb128 0xb
 2500 0206 49       		.uleb128 0x49
 2501 0207 13       		.uleb128 0x13
 2502 0208 02       		.uleb128 0x2
 2503 0209 06       		.uleb128 0x6
 2504 020a 00       		.byte	0x0
 2505 020b 00       		.byte	0x0
 2506 020c 29       		.uleb128 0x29
 2507 020d 2E       		.uleb128 0x2e
 2508 020e 01       		.byte	0x1
 2509 020f 3F       		.uleb128 0x3f
 2510 0210 0C       		.uleb128 0xc
 2511 0211 03       		.uleb128 0x3
 2512 0212 0E       		.uleb128 0xe
 2513 0213 3A       		.uleb128 0x3a
 2514 0214 0B       		.uleb128 0xb
 2515 0215 3B       		.uleb128 0x3b
 2516 0216 0B       		.uleb128 0xb
 2517 0217 27       		.uleb128 0x27
 2518 0218 0C       		.uleb128 0xc
 2519 0219 11       		.uleb128 0x11
 2520 021a 01       		.uleb128 0x1
 2521 021b 12       		.uleb128 0x12
 2522 021c 01       		.uleb128 0x1
 2523 021d 40       		.uleb128 0x40
 2524 021e 06       		.uleb128 0x6
 2525 021f 01       		.uleb128 0x1
 2526 0220 13       		.uleb128 0x13
 2527 0221 00       		.byte	0x0
 2528 0222 00       		.byte	0x0
 2529 0223 2A       		.uleb128 0x2a
 2530 0224 34       		.uleb128 0x34
 2531 0225 00       		.byte	0x0
 2532 0226 03       		.uleb128 0x3
 2533 0227 0E       		.uleb128 0xe
 2534 0228 3A       		.uleb128 0x3a
 2535 0229 0B       		.uleb128 0xb
 2536 022a 3B       		.uleb128 0x3b
 2537 022b 05       		.uleb128 0x5
 2538 022c 49       		.uleb128 0x49
ARM GAS  C:\Users\DNIEL~1\AppData\Local\Temp\ccbk3KwG.s 			page 46


 2539 022d 13       		.uleb128 0x13
 2540 022e 3F       		.uleb128 0x3f
 2541 022f 0C       		.uleb128 0xc
 2542 0230 3C       		.uleb128 0x3c
 2543 0231 0C       		.uleb128 0xc
 2544 0232 00       		.byte	0x0
 2545 0233 00       		.byte	0x0
 2546 0234 2B       		.uleb128 0x2b
 2547 0235 34       		.uleb128 0x34
 2548 0236 00       		.byte	0x0
 2549 0237 03       		.uleb128 0x3
 2550 0238 0E       		.uleb128 0xe
 2551 0239 3A       		.uleb128 0x3a
 2552 023a 0B       		.uleb128 0xb
 2553 023b 3B       		.uleb128 0x3b
 2554 023c 0B       		.uleb128 0xb
 2555 023d 49       		.uleb128 0x49
 2556 023e 13       		.uleb128 0x13
 2557 023f 00       		.byte	0x0
 2558 0240 00       		.byte	0x0
 2559 0241 00       		.byte	0x0
 2560              		.section	.debug_pubnames,"",%progbits
 2561 0000 AC000000 		.4byte	0xac
 2562 0004 0200     		.2byte	0x2
 2563 0006 00000000 		.4byte	.Ldebug_info0
 2564 000a AF090000 		.4byte	0x9af
 2565 000e 96060000 		.4byte	0x696
 2566 0012 73706565 		.ascii	"speedInit\000"
 2566      64496E69 
 2566      7400
 2567 001c AA060000 		.4byte	0x6aa
 2568 0020 73706565 		.ascii	"speedGetLastPeriod\000"
 2568      64476574 
 2568      4C617374 
 2568      50657269 
 2568      6F6400
 2569 0033 09070000 		.4byte	0x709
 2570 0037 73706565 		.ascii	"speedGetPeriodNumber\000"
 2570      64476574 
 2570      50657269 
 2570      6F644E75 
 2570      6D626572 
 2571 004c 69070000 		.4byte	0x769
 2572 0050 73706565 		.ascii	"speedGetRpm\000"
 2572      64476574 
 2572      52706D00 
 2573 005c C8070000 		.4byte	0x7c8
 2574 0060 73706565 		.ascii	"speedGetSpeed\000"
 2574      64476574 
 2574      53706565 
 2574      6400
 2575 006e 27080000 		.4byte	0x827
 2576 0072 73706565 		.ascii	"speedRPM_TO_KMPH\000"
 2576      6452504D 
 2576      5F544F5F 
 2576      4B4D5048 
 2576      00
ARM GAS  C:\Users\DNIEL~1\AppData\Local\Temp\ccbk3KwG.s 			page 47


 2577 0083 6A080000 		.4byte	0x86a
 2578 0087 73706565 		.ascii	"speedKMPH_TO_RPM\000"
 2578      644B4D50 
 2578      485F544F 
 2578      5F52504D 
 2578      00
 2579 0098 A6080000 		.4byte	0x8a6
 2580 009c 636D645F 		.ascii	"cmd_speedvalues\000"
 2580      73706565 
 2580      6476616C 
 2580      75657300 
 2581 00ac 00000000 		.4byte	0x0
 2582              		.section	.debug_pubtypes,"",%progbits
 2583 0000 70010000 		.4byte	0x170
 2584 0004 0200     		.2byte	0x2
 2585 0006 00000000 		.4byte	.Ldebug_info0
 2586 000a AF090000 		.4byte	0x9af
 2587 000e 30000000 		.4byte	0x30
 2588 0012 73697A65 		.ascii	"size_t\000"
 2588      5F7400
 2589 0019 49000000 		.4byte	0x49
 2590 001d 75696E74 		.ascii	"uint8_t\000"
 2590      385F7400 
 2591 0025 62000000 		.4byte	0x62
 2592 0029 75696E74 		.ascii	"uint16_t\000"
 2592      31365F74 
 2592      00
 2593 0032 74000000 		.4byte	0x74
 2594 0036 696E7433 		.ascii	"int32_t\000"
 2594      325F7400 
 2595 003e 86000000 		.4byte	0x86
 2596 0042 75696E74 		.ascii	"uint32_t\000"
 2596      33325F74 
 2596      00
 2597 004b AD000000 		.4byte	0xad
 2598 004f 6D73675F 		.ascii	"msg_t\000"
 2598      7400
 2599 0055 B8000000 		.4byte	0xb8
 2600 0059 73797374 		.ascii	"systime_t\000"
 2600      696D655F 
 2600      7400
 2601 0063 F8000000 		.4byte	0xf8
 2602 0067 42617365 		.ascii	"BaseSequentialStreamVMT\000"
 2602      53657175 
 2602      656E7469 
 2602      616C5374 
 2602      7265616D 
 2603 007f C5010000 		.4byte	0x1c5
 2604 0083 42617365 		.ascii	"BaseSequentialStream\000"
 2604      53657175 
 2604      656E7469 
 2604      616C5374 
 2604      7265616D 
 2605 0098 F0010000 		.4byte	0x1f0
 2606 009c 42617365 		.ascii	"BaseChannelVMT\000"
 2606      4368616E 
 2606      6E656C56 
ARM GAS  C:\Users\DNIEL~1\AppData\Local\Temp\ccbk3KwG.s 			page 48


 2606      4D5400
 2607 00ab 14030000 		.4byte	0x314
 2608 00af 42617365 		.ascii	"BaseChannel\000"
 2608      4368616E 
 2608      6E656C00 
 2609 00bb 4C030000 		.4byte	0x34c
 2610 00bf 69637573 		.ascii	"icustate_t\000"
 2610      74617465 
 2610      5F7400
 2611 00ca 57030000 		.4byte	0x357
 2612 00ce 49435544 		.ascii	"ICUDriver\000"
 2612      72697665 
 2612      7200
 2613 00d8 CA030000 		.4byte	0x3ca
 2614 00dc 69637563 		.ascii	"icucallback_t\000"
 2614      616C6C62 
 2614      61636B5F 
 2614      7400
 2615 00ea 35050000 		.4byte	0x535
 2616 00ee 73746D33 		.ascii	"stm32_tim_t\000"
 2616      325F7469 
 2616      6D5F7400 
 2617 00fa 56050000 		.4byte	0x556
 2618 00fe 6963756D 		.ascii	"icumode_t\000"
 2618      6F64655F 
 2618      7400
 2619 0108 61050000 		.4byte	0x561
 2620 010c 69637566 		.ascii	"icufreq_t\000"
 2620      7265715F 
 2620      7400
 2621 0116 81050000 		.4byte	0x581
 2622 011a 69637563 		.ascii	"icuchannel_t\000"
 2622      68616E6E 
 2622      656C5F74 
 2622      00
 2623 0127 FF050000 		.4byte	0x5ff
 2624 012b 49435543 		.ascii	"ICUConfig\000"
 2624      6F6E6669 
 2624      6700
 2625 0135 62030000 		.4byte	0x362
 2626 0139 49435544 		.ascii	"ICUDriver\000"
 2626      72697665 
 2626      7200
 2627 0143 27060000 		.4byte	0x627
 2628 0147 5F5F7661 		.ascii	"__va_list\000"
 2628      5F6C6973 
 2628      7400
 2629 0151 1C060000 		.4byte	0x61c
 2630 0155 5F5F676E 		.ascii	"__gnuc_va_list\000"
 2630      75635F76 
 2630      615F6C69 
 2630      737400
 2631 0164 41060000 		.4byte	0x641
 2632 0168 76615F6C 		.ascii	"va_list\000"
 2632      69737400 
 2633 0170 00000000 		.4byte	0x0
 2634              		.section	.debug_aranges,"",%progbits
ARM GAS  C:\Users\DNIEL~1\AppData\Local\Temp\ccbk3KwG.s 			page 49


 2635 0000 5C000000 		.4byte	0x5c
 2636 0004 0200     		.2byte	0x2
 2637 0006 00000000 		.4byte	.Ldebug_info0
 2638 000a 04       		.byte	0x4
 2639 000b 00       		.byte	0x0
 2640 000c 0000     		.2byte	0x0
 2641 000e 0000     		.2byte	0x0
 2642 0010 00000000 		.4byte	.LFB118
 2643 0014 1E000000 		.4byte	.LFE118-.LFB118
 2644 0018 00000000 		.4byte	.LFB121
 2645 001c 1C000000 		.4byte	.LFE121-.LFB121
 2646 0020 00000000 		.4byte	.LFB122
 2647 0024 10000000 		.4byte	.LFE122-.LFB122
 2648 0028 00000000 		.4byte	.LFB123
 2649 002c 18000000 		.4byte	.LFE123-.LFB123
 2650 0030 00000000 		.4byte	.LFB124
 2651 0034 10000000 		.4byte	.LFE124-.LFB124
 2652 0038 00000000 		.4byte	.LFB125
 2653 003c 10000000 		.4byte	.LFE125-.LFB125
 2654 0040 00000000 		.4byte	.LFB126
 2655 0044 48000000 		.4byte	.LFE126-.LFB126
 2656 0048 00000000 		.4byte	.LFB127
 2657 004c 4C000000 		.4byte	.LFE127-.LFB127
 2658 0050 00000000 		.4byte	.LFB128
 2659 0054 98000000 		.4byte	.LFE128-.LFB128
 2660 0058 00000000 		.4byte	0x0
 2661 005c 00000000 		.4byte	0x0
 2662              		.section	.debug_ranges,"",%progbits
 2663              	.Ldebug_ranges0:
 2664 0000 08000000 		.4byte	.LBB5
 2665 0004 0A000000 		.4byte	.LBE5
 2666 0008 0C000000 		.4byte	.LBB6
 2667 000c 10000000 		.4byte	.LBE6
 2668 0010 00000000 		.4byte	0x0
 2669 0014 00000000 		.4byte	0x0
 2670 0018 00000000 		.4byte	.LFB118
 2671 001c 1E000000 		.4byte	.LFE118
 2672 0020 00000000 		.4byte	.LFB121
 2673 0024 1C000000 		.4byte	.LFE121
 2674 0028 00000000 		.4byte	.LFB122
 2675 002c 10000000 		.4byte	.LFE122
 2676 0030 00000000 		.4byte	.LFB123
 2677 0034 18000000 		.4byte	.LFE123
 2678 0038 00000000 		.4byte	.LFB124
 2679 003c 10000000 		.4byte	.LFE124
 2680 0040 00000000 		.4byte	.LFB125
 2681 0044 10000000 		.4byte	.LFE125
 2682 0048 00000000 		.4byte	.LFB126
 2683 004c 48000000 		.4byte	.LFE126
 2684 0050 00000000 		.4byte	.LFB127
 2685 0054 4C000000 		.4byte	.LFE127
 2686 0058 00000000 		.4byte	.LFB128
 2687 005c 98000000 		.4byte	.LFE128
 2688 0060 00000000 		.4byte	0x0
 2689 0064 00000000 		.4byte	0x0
 2690              		.section	.debug_str,"MS",%progbits,1
 2691              	.LASF46:
ARM GAS  C:\Users\DNIEL~1\AppData\Local\Temp\ccbk3KwG.s 			page 50


 2692 0000 43434552 		.ascii	"CCER\000"
 2692      00
 2693              	.LASF18:
 2694 0005 77726974 		.ascii	"write\000"
 2694      6500
 2695              	.LASF29:
 2696 000b 4943555F 		.ascii	"ICU_STOP\000"
 2696      53544F50 
 2696      00
 2697              	.LASF59:
 2698 0014 69637563 		.ascii	"icuchannel_t\000"
 2698      68616E6E 
 2698      656C5F74 
 2698      00
 2699              	.LASF48:
 2700 0021 444D4152 		.ascii	"DMAR\000"
 2700      00
 2701              	.LASF85:
 2702 0026 73706565 		.ascii	"speed_last_period\000"
 2702      645F6C61 
 2702      73745F70 
 2702      6572696F 
 2702      6400
 2703              	.LASF36:
 2704 0038 73746174 		.ascii	"state\000"
 2704      6500
 2705              	.LASF45:
 2706 003e 43434D52 		.ascii	"CCMR2\000"
 2706      3200
 2707              	.LASF49:
 2708 0044 43434D52 		.ascii	"CCMR3\000"
 2708      3300
 2709              	.LASF79:
 2710 004a 6B6D7068 		.ascii	"kmph\000"
 2710      00
 2711              	.LASF2:
 2712 004f 73697A65 		.ascii	"size_t\000"
 2712      5F7400
 2713              	.LASF98:
 2714 0056 73706565 		.ascii	"speedInit\000"
 2714      64496E69 
 2714      7400
 2715              	.LASF55:
 2716 0060 6963756D 		.ascii	"icumode_t\000"
 2716      6F64655F 
 2716      7400
 2717              	.LASF94:
 2718 006a 7372632F 		.ascii	"src/speed.c\000"
 2718      73706565 
 2718      642E6300 
 2719              	.LASF86:
 2720 0076 73706565 		.ascii	"speed_period_num\000"
 2720      645F7065 
 2720      72696F64 
 2720      5F6E756D 
 2720      00
 2721              	.LASF20:
ARM GAS  C:\Users\DNIEL~1\AppData\Local\Temp\ccbk3KwG.s 			page 51


 2722 0087 42617365 		.ascii	"BaseSequentialStream\000"
 2722      53657175 
 2722      656E7469 
 2722      616C5374 
 2722      7265616D 
 2723              	.LASF60:
 2724 009c 6D6F6465 		.ascii	"mode\000"
 2724      00
 2725              	.LASF95:
 2726 00a1 433A5C44 		.ascii	"C:\\Dani\\MegaLux\\Repo\\Smarty\\Smarty\\smarty\\fi"
 2726      616E695C 
 2726      4D656761 
 2726      4C75785C 
 2726      5265706F 
 2727 00cd 726D7761 		.ascii	"rmware\000"
 2727      726500
 2728              	.LASF82:
 2729 00d4 72706D5F 		.ascii	"rpm_buff\000"
 2729      62756666 
 2729      00
 2730              	.LASF25:
 2731 00dd 77726974 		.ascii	"writet\000"
 2731      657400
 2732              	.LASF5:
 2733 00e4 73686F72 		.ascii	"short int\000"
 2733      7420696E 
 2733      7400
 2734              	.LASF37:
 2735 00ee 636F6E66 		.ascii	"config\000"
 2735      696700
 2736              	.LASF71:
 2737 00f5 73706565 		.ascii	"speedGetLastPeriod\000"
 2737      64476574 
 2737      4C617374 
 2737      50657269 
 2737      6F6400
 2738              	.LASF70:
 2739 0108 76615F6C 		.ascii	"va_list\000"
 2739      69737400 
 2740              	.LASF99:
 2741 0110 636D645F 		.ascii	"cmd_speedvalues\000"
 2741      73706565 
 2741      6476616C 
 2741      75657300 
 2742              	.LASF3:
 2743 0120 75696E74 		.ascii	"uint8_t\000"
 2743      385F7400 
 2744              	.LASF57:
 2745 0128 4943555F 		.ascii	"ICU_CHANNEL_1\000"
 2745      4348414E 
 2745      4E454C5F 
 2745      3100
 2746              	.LASF58:
 2747 0136 4943555F 		.ascii	"ICU_CHANNEL_2\000"
 2747      4348414E 
 2747      4E454C5F 
 2747      3200
ARM GAS  C:\Users\DNIEL~1\AppData\Local\Temp\ccbk3KwG.s 			page 52


 2748              	.LASF22:
 2749 0144 42617365 		.ascii	"BaseChannelVMT\000"
 2749      4368616E 
 2749      6E656C56 
 2749      4D5400
 2750              	.LASF91:
 2751 0153 72706D61 		.ascii	"rpmasis\000"
 2751      73697300 
 2752              	.LASF81:
 2753 015b 61726776 		.ascii	"argv\000"
 2753      00
 2754              	.LASF62:
 2755 0160 77696474 		.ascii	"width_cb\000"
 2755      685F6362 
 2755      00
 2756              	.LASF84:
 2757 0169 69637563 		.ascii	"icucfg\000"
 2757      666700
 2758              	.LASF19:
 2759 0170 72656164 		.ascii	"read\000"
 2759      00
 2760              	.LASF12:
 2761 0175 6C6F6E67 		.ascii	"long long int\000"
 2761      206C6F6E 
 2761      6720696E 
 2761      7400
 2762              	.LASF76:
 2763 0183 73706565 		.ascii	"speedRPM_TO_KMPH\000"
 2763      6452504D 
 2763      5F544F5F 
 2763      4B4D5048 
 2763      00
 2764              	.LASF69:
 2765 0194 5F5F7661 		.ascii	"__va_list\000"
 2765      5F6C6973 
 2765      7400
 2766              	.LASF39:
 2767 019e 77636372 		.ascii	"wccrp\000"
 2767      7000
 2768              	.LASF9:
 2769 01a4 6C6F6E67 		.ascii	"long int\000"
 2769      20696E74 
 2769      00
 2770              	.LASF50:
 2771 01ad 43435235 		.ascii	"CCR5\000"
 2771      00
 2772              	.LASF51:
 2773 01b2 43435236 		.ascii	"CCR6\000"
 2773      00
 2774              	.LASF24:
 2775 01b7 67657474 		.ascii	"gett\000"
 2775      00
 2776              	.LASF40:
 2777 01bc 70636372 		.ascii	"pccrp\000"
 2777      7000
 2778              	.LASF87:
 2779 01c2 73706565 		.ascii	"speed_zero_period\000"
ARM GAS  C:\Users\DNIEL~1\AppData\Local\Temp\ccbk3KwG.s 			page 53


 2779      645F7A65 
 2779      726F5F70 
 2779      6572696F 
 2779      6400
 2780              	.LASF44:
 2781 01d4 43434D52 		.ascii	"CCMR1\000"
 2781      3100
 2782              	.LASF78:
 2783 01da 73706565 		.ascii	"speedKMPH_TO_RPM\000"
 2783      644B4D50 
 2783      485F544F 
 2783      5F52504D 
 2783      00
 2784              	.LASF74:
 2785 01eb 73706565 		.ascii	"speedGetRpm\000"
 2785      64476574 
 2785      52706D00 
 2786              	.LASF33:
 2787 01f7 4943555F 		.ascii	"ICU_IDLE\000"
 2787      49444C45 
 2787      00
 2788              	.LASF42:
 2789 0200 534D4352 		.ascii	"SMCR\000"
 2789      00
 2790              	.LASF4:
 2791 0205 756E7369 		.ascii	"unsigned char\000"
 2791      676E6564 
 2791      20636861 
 2791      7200
 2792              	.LASF67:
 2793 0213 49435543 		.ascii	"ICUConfig\000"
 2793      6F6E6669 
 2793      6700
 2794              	.LASF80:
 2795 021d 61726763 		.ascii	"argc\000"
 2795      00
 2796              	.LASF1:
 2797 0222 7369676E 		.ascii	"signed char\000"
 2797      65642063 
 2797      68617200 
 2798              	.LASF72:
 2799 022e 73706565 		.ascii	"speedGetPeriodNumber\000"
 2799      64476574 
 2799      50657269 
 2799      6F644E75 
 2799      6D626572 
 2800              	.LASF13:
 2801 0243 6C6F6E67 		.ascii	"long long unsigned int\000"
 2801      206C6F6E 
 2801      6720756E 
 2801      7369676E 
 2801      65642069 
 2802              	.LASF10:
 2803 025a 75696E74 		.ascii	"uint32_t\000"
 2803      33325F74 
 2803      00
 2804              	.LASF0:
ARM GAS  C:\Users\DNIEL~1\AppData\Local\Temp\ccbk3KwG.s 			page 54


 2805 0263 756E7369 		.ascii	"unsigned int\000"
 2805      676E6564 
 2805      20696E74 
 2805      00
 2806              	.LASF96:
 2807 0270 5F5F6170 		.ascii	"__ap\000"
 2807      00
 2808              	.LASF6:
 2809 0275 75696E74 		.ascii	"uint16_t\000"
 2809      31365F74 
 2809      00
 2810              	.LASF88:
 2811 027e 726F7461 		.ascii	"rotation\000"
 2811      74696F6E 
 2811      00
 2812              	.LASF90:
 2813 0287 73706565 		.ascii	"speed\000"
 2813      6400
 2814              	.LASF23:
 2815 028d 70757474 		.ascii	"putt\000"
 2815      00
 2816              	.LASF43:
 2817 0292 44494552 		.ascii	"DIER\000"
 2817      00
 2818              	.LASF56:
 2819 0297 69637566 		.ascii	"icufreq_t\000"
 2819      7265715F 
 2819      7400
 2820              	.LASF14:
 2821 02a1 5F426F6F 		.ascii	"_Bool\000"
 2821      6C00
 2822              	.LASF7:
 2823 02a7 73686F72 		.ascii	"short unsigned int\000"
 2823      7420756E 
 2823      7369676E 
 2823      65642069 
 2823      6E7400
 2824              	.LASF75:
 2825 02ba 73706565 		.ascii	"speedGetSpeed\000"
 2825      64476574 
 2825      53706565 
 2825      6400
 2826              	.LASF16:
 2827 02c8 73797374 		.ascii	"systime_t\000"
 2827      696D655F 
 2827      7400
 2828              	.LASF26:
 2829 02d2 72656164 		.ascii	"readt\000"
 2829      7400
 2830              	.LASF17:
 2831 02d8 63686172 		.ascii	"char\000"
 2831      00
 2832              	.LASF41:
 2833 02dd 69637563 		.ascii	"icucallback_t\000"
 2833      616C6C62 
 2833      61636B5F 
 2833      7400
ARM GAS  C:\Users\DNIEL~1\AppData\Local\Temp\ccbk3KwG.s 			page 55


 2834              	.LASF52:
 2835 02eb 73746D33 		.ascii	"stm32_tim_t\000"
 2835      325F7469 
 2835      6D5F7400 
 2836              	.LASF63:
 2837 02f7 70657269 		.ascii	"period_cb\000"
 2837      6F645F63 
 2837      6200
 2838              	.LASF47:
 2839 0301 42445452 		.ascii	"BDTR\000"
 2839      00
 2840              	.LASF8:
 2841 0306 696E7433 		.ascii	"int32_t\000"
 2841      325F7400 
 2842              	.LASF54:
 2843 030e 4943555F 		.ascii	"ICU_INPUT_ACTIVE_LOW\000"
 2843      494E5055 
 2843      545F4143 
 2843      54495645 
 2843      5F4C4F57 
 2844              	.LASF97:
 2845 0323 63687072 		.ascii	"chprintf\000"
 2845      696E7466 
 2845      00
 2846              	.LASF65:
 2847 032c 6368616E 		.ascii	"channel\000"
 2847      6E656C00 
 2848              	.LASF28:
 2849 0334 4943555F 		.ascii	"ICU_UNINIT\000"
 2849      554E494E 
 2849      495400
 2850              	.LASF61:
 2851 033f 66726571 		.ascii	"frequency\000"
 2851      75656E63 
 2851      7900
 2852              	.LASF73:
 2853 0349 746D7032 		.ascii	"tmp2\000"
 2853      00
 2854              	.LASF53:
 2855 034e 4943555F 		.ascii	"ICU_INPUT_ACTIVE_HIGH\000"
 2855      494E5055 
 2855      545F4143 
 2855      54495645 
 2855      5F484947 
 2856              	.LASF11:
 2857 0364 6C6F6E67 		.ascii	"long unsigned int\000"
 2857      20756E73 
 2857      69676E65 
 2857      6420696E 
 2857      7400
 2858              	.LASF38:
 2859 0376 636C6F63 		.ascii	"clock\000"
 2859      6B00
 2860              	.LASF77:
 2861 037c 646F7562 		.ascii	"double\000"
 2861      6C6500
 2862              	.LASF32:
ARM GAS  C:\Users\DNIEL~1\AppData\Local\Temp\ccbk3KwG.s 			page 56


 2863 0383 4943555F 		.ascii	"ICU_ACTIVE\000"
 2863      41435449 
 2863      564500
 2864              	.LASF93:
 2865 038e 474E5520 		.ascii	"GNU C 4.5.2\000"
 2865      4320342E 
 2865      352E3200 
 2866              	.LASF64:
 2867 039a 6F766572 		.ascii	"overflow_cb\000"
 2867      666C6F77 
 2867      5F636200 
 2868              	.LASF89:
 2869 03a6 6F6C645F 		.ascii	"old_rotation\000"
 2869      726F7461 
 2869      74696F6E 
 2869      00
 2870              	.LASF66:
 2871 03b3 64696572 		.ascii	"dier\000"
 2871      00
 2872              	.LASF35:
 2873 03b8 49435544 		.ascii	"ICUDriver\000"
 2873      72697665 
 2873      7200
 2874              	.LASF68:
 2875 03c2 5F5F676E 		.ascii	"__gnuc_va_list\000"
 2875      75635F76 
 2875      615F6C69 
 2875      737400
 2876              	.LASF83:
 2877 03d1 72706D5F 		.ascii	"rpm_index\000"
 2877      696E6465 
 2877      7800
 2878              	.LASF30:
 2879 03db 4943555F 		.ascii	"ICU_READY\000"
 2879      52454144 
 2879      5900
 2880              	.LASF27:
 2881 03e5 42617365 		.ascii	"BaseChannel\000"
 2881      4368616E 
 2881      6E656C00 
 2882              	.LASF92:
 2883 03f1 49544D5F 		.ascii	"ITM_RxBuffer\000"
 2883      52784275 
 2883      66666572 
 2883      00
 2884              	.LASF15:
 2885 03fe 6D73675F 		.ascii	"msg_t\000"
 2885      7400
 2886              	.LASF34:
 2887 0404 69637573 		.ascii	"icustate_t\000"
 2887      74617465 
 2887      5F7400
 2888              	.LASF21:
 2889 040f 42617365 		.ascii	"BaseSequentialStreamVMT\000"
 2889      53657175 
 2889      656E7469 
 2889      616C5374 
ARM GAS  C:\Users\DNIEL~1\AppData\Local\Temp\ccbk3KwG.s 			page 57


 2889      7265616D 
 2890              	.LASF31:
 2891 0427 4943555F 		.ascii	"ICU_WAITING\000"
 2891      57414954 
 2891      494E4700 
 2892              		.ident	"GCC: (Sourcery G++ Lite 2011.03-42) 4.5.2"
ARM GAS  C:\Users\DNIEL~1\AppData\Local\Temp\ccbk3KwG.s 			page 58


DEFINED SYMBOLS
                            *ABS*:00000000 speed.c
C:\Users\DNIEL~1\AppData\Local\Temp\ccbk3KwG.s:24     .text.chprintf:00000000 $t
C:\Users\DNIEL~1\AppData\Local\Temp\ccbk3KwG.s:29     .text.chprintf:00000000 chprintf
C:\Users\DNIEL~1\AppData\Local\Temp\ccbk3KwG.s:69     .text.speedInit:00000000 $t
C:\Users\DNIEL~1\AppData\Local\Temp\ccbk3KwG.s:75     .text.speedInit:00000000 speedInit
C:\Users\DNIEL~1\AppData\Local\Temp\ccbk3KwG.s:97     .text.speedInit:00000014 $d
C:\Users\DNIEL~1\AppData\Local\Temp\ccbk3KwG.s:103    .text.speedGetLastPeriod:00000000 $t
C:\Users\DNIEL~1\AppData\Local\Temp\ccbk3KwG.s:109    .text.speedGetLastPeriod:00000000 speedGetLastPeriod
C:\Users\DNIEL~1\AppData\Local\Temp\ccbk3KwG.s:143    .text.speedGetPeriodNumber:00000000 $t
C:\Users\DNIEL~1\AppData\Local\Temp\ccbk3KwG.s:149    .text.speedGetPeriodNumber:00000000 speedGetPeriodNumber
C:\Users\DNIEL~1\AppData\Local\Temp\ccbk3KwG.s:189    .text.speedGetPeriodNumber:00000014 $d
C:\Users\DNIEL~1\AppData\Local\Temp\ccbk3KwG.s:194    .text.speedGetRpm:00000000 $t
C:\Users\DNIEL~1\AppData\Local\Temp\ccbk3KwG.s:200    .text.speedGetRpm:00000000 speedGetRpm
C:\Users\DNIEL~1\AppData\Local\Temp\ccbk3KwG.s:234    .text.speedGetSpeed:00000000 $t
C:\Users\DNIEL~1\AppData\Local\Temp\ccbk3KwG.s:240    .text.speedGetSpeed:00000000 speedGetSpeed
C:\Users\DNIEL~1\AppData\Local\Temp\ccbk3KwG.s:276    .text.speedRPM_TO_KMPH:00000000 $t
C:\Users\DNIEL~1\AppData\Local\Temp\ccbk3KwG.s:282    .text.speedRPM_TO_KMPH:00000000 speedRPM_TO_KMPH
C:\Users\DNIEL~1\AppData\Local\Temp\ccbk3KwG.s:332    .text.speedRPM_TO_KMPH:00000038 $d
C:\Users\DNIEL~1\AppData\Local\Temp\ccbk3KwG.s:340    .text.speedKMPH_TO_RPM:00000000 $t
C:\Users\DNIEL~1\AppData\Local\Temp\ccbk3KwG.s:346    .text.speedKMPH_TO_RPM:00000000 speedKMPH_TO_RPM
C:\Users\DNIEL~1\AppData\Local\Temp\ccbk3KwG.s:397    .text.speedKMPH_TO_RPM:00000038 $d
C:\Users\DNIEL~1\AppData\Local\Temp\ccbk3KwG.s:406    .text.cmd_speedvalues:00000000 $t
C:\Users\DNIEL~1\AppData\Local\Temp\ccbk3KwG.s:412    .text.cmd_speedvalues:00000000 cmd_speedvalues
C:\Users\DNIEL~1\AppData\Local\Temp\ccbk3KwG.s:494    .text.cmd_speedvalues:00000074 $d
C:\Users\DNIEL~1\AppData\Local\Temp\ccbk3KwG.s:507    .bss.old_rotation:00000000 $d
C:\Users\DNIEL~1\AppData\Local\Temp\ccbk3KwG.s:511    .bss.old_rotation:00000000 old_rotation
C:\Users\DNIEL~1\AppData\Local\Temp\ccbk3KwG.s:514    .rodata.str1.4:00000000 $d
C:\Users\DNIEL~1\AppData\Local\Temp\ccbk3KwG.s:538    .bss.speed_period_num:00000000 $d
C:\Users\DNIEL~1\AppData\Local\Temp\ccbk3KwG.s:542    .bss.speed_period_num:00000000 speed_period_num
                     .debug_frame:00000010 $d
C:\Users\DNIEL~1\AppData\Local\Temp\ccbk3KwG.s:102    .text.speedInit:0000001c $t
C:\Users\DNIEL~1\AppData\Local\Temp\ccbk3KwG.s:193    .text.speedGetPeriodNumber:00000018 $t
C:\Users\DNIEL~1\AppData\Local\Temp\ccbk3KwG.s:339    .text.speedRPM_TO_KMPH:00000048 $t
C:\Users\DNIEL~1\AppData\Local\Temp\ccbk3KwG.s:405    .text.speedKMPH_TO_RPM:0000004c $t
C:\Users\DNIEL~1\AppData\Local\Temp\ccbk3KwG.s:506    .text.cmd_speedvalues:00000098 $t

UNDEFINED SYMBOLS
chvprintf
__aeabi_dmul
__aeabi_d2uiz
chThdSleep
