ARM GAS  C:\Users\DNIEL~1\AppData\Local\Temp\cc7eP7WQ.s 			page 1


   1              		.syntax unified
   2              		.cpu cortex-m4
   3              		.fpu softvfp
   4              		.eabi_attribute 20, 1
   5              		.eabi_attribute 21, 1
   6              		.eabi_attribute 23, 3
   7              		.eabi_attribute 24, 1
   8              		.eabi_attribute 25, 1
   9              		.eabi_attribute 26, 1
  10              		.eabi_attribute 30, 2
  11              		.eabi_attribute 18, 4
  12              		.thumb
  13              		.file	"speed.c"
  14              		.section	.debug_abbrev,"",%progbits
  15              	.Ldebug_abbrev0:
  16              		.section	.debug_info,"",%progbits
  17              	.Ldebug_info0:
  18              		.section	.debug_line,"",%progbits
  19              	.Ldebug_line0:
  20 0000 06040000 		.text
  20      02008502 
  20      00000201 
  20      FB0E0D00 
  20      01010101 
  21              	.Ltext0:
  22              		.cfi_sections	.debug_frame
  23              		.section	.text.speedWheelPeriodNumber,"ax",%progbits
  24              		.align	2
  25              		.p2align 4,,15
  26              		.thumb
  27              		.thumb_func
  28              		.type	speedWheelPeriodNumber, %function
  29              	speedWheelPeriodNumber:
  30              	.LFB120:
  31              		.file 1 "src/speed.c"
  32              		.loc 1 90 0
  33              		.cfi_startproc
  34              		@ args = 0, pretend = 0, frame = 0
  35              		@ frame_needed = 0, uses_anonymous_args = 0
  36              		@ link register save eliminated.
  37              	.LVL0:
  38              		.loc 1 92 0
  39 0000 0349     		ldr	r1, .L2
  40              		.loc 1 93 0
  41 0002 044B     		ldr	r3, .L2+4
  42              		.loc 1 92 0
  43 0004 0A68     		ldr	r2, [r1, #0]
  44 0006 501C     		adds	r0, r2, #1
  45              	.LVL1:
  46              		.loc 1 93 0
  47 0008 0022     		movs	r2, #0
  48              		.loc 1 92 0
  49 000a 0860     		str	r0, [r1, #0]
  50              		.loc 1 93 0
  51 000c 1A60     		str	r2, [r3, #0]
  52              		.loc 1 94 0
  53 000e 7047     		bx	lr
ARM GAS  C:\Users\DNIEL~1\AppData\Local\Temp\cc7eP7WQ.s 			page 2


  54              	.L3:
  55              		.align	2
  56              	.L2:
  57 0010 00000000 		.word	.LANCHOR0
  58 0014 00000000 		.word	.LANCHOR1
  59              		.cfi_endproc
  60              	.LFE120:
  61              		.size	speedWheelPeriodNumber, .-speedWheelPeriodNumber
  62 0018 AFF30080 		.section	.text.chprintf,"ax",%progbits
  62      AFF30080 
  63              		.align	2
  64              		.p2align 4,,15
  65              		.thumb
  66              		.thumb_func
  67              		.type	chprintf, %function
  68              	chprintf:
  69              	.LFB118:
  70              		.file 2 "../../../ChibiOS/os/various/chprintf.h"
  71              		.loc 2 69 0
  72              		.cfi_startproc
  73              		@ args = 4, pretend = 12, frame = 8
  74              		@ frame_needed = 0, uses_anonymous_args = 1
  75              	.LVL2:
  76 0000 0EB4     		push	{r1, r2, r3}
  77              	.LCFI0:
  78              		.cfi_def_cfa_offset 12
  79 0002 00B5     		push	{lr}
  80              	.LCFI1:
  81              		.cfi_def_cfa_offset 16
  82 0004 82B0     		sub	sp, sp, #8
  83              	.LCFI2:
  84              		.cfi_def_cfa_offset 24
  85              		.loc 2 69 0
  86 0006 03AB     		add	r3, sp, #12
  87              		.cfi_offset 14, -16
  88              		.cfi_offset 3, -4
  89              		.cfi_offset 2, -8
  90              		.cfi_offset 1, -12
  91 0008 53F8041B 		ldr	r1, [r3], #4
  92              		.loc 2 73 0
  93 000c 1A46     		mov	r2, r3
  94              		.loc 2 72 0
  95 000e 0193     		str	r3, [sp, #4]
  96              		.loc 2 73 0
  97 0010 FFF7FEFF 		bl	chvprintf
  98              	.LVL3:
  99              		.loc 2 75 0
 100 0014 02B0     		add	sp, sp, #8
 101 0016 5DF804EB 		pop	{lr}
 102 001a 03B0     		add	sp, sp, #12
 103 001c 7047     		bx	lr
 104              		.cfi_endproc
 105              	.LFE118:
 106              		.size	chprintf, .-chprintf
 107 001e 00BF     		.section	.text.speedInit,"ax",%progbits
 108              		.align	2
 109              		.p2align 4,,15
ARM GAS  C:\Users\DNIEL~1\AppData\Local\Temp\cc7eP7WQ.s 			page 3


 110              		.global	speedInit
 111              		.thumb
 112              		.thumb_func
 113              		.type	speedInit, %function
 114              	speedInit:
 115              	.LFB121:
 116              		.loc 1 96 0
 117              		.cfi_startproc
 118              		@ args = 0, pretend = 0, frame = 0
 119              		@ frame_needed = 0, uses_anonymous_args = 0
 120 0000 10B5     		push	{r4, lr}
 121              	.LCFI3:
 122              		.cfi_def_cfa_offset 8
 123              		.loc 1 101 0
 124 0002 084C     		ldr	r4, .L6
 125              		.cfi_offset 14, -4
 126              		.cfi_offset 4, -8
 127 0004 0849     		ldr	r1, .L6+4
 128 0006 2046     		mov	r0, r4
 129 0008 FFF7FEFF 		bl	icuStart
 130              		.loc 1 102 0
 131 000c 2046     		mov	r0, r4
 132 000e FFF7FEFF 		bl	icuEnable
 133              		.loc 1 105 0
 134 0012 0649     		ldr	r1, .L6+8
 135 0014 0022     		movs	r2, #0
 136 0016 0023     		movs	r3, #0
 137 0018 C1E90023 		strd	r2, [r1]
 138              		.loc 1 104 0
 139 001c 044B     		ldr	r3, .L6+12
 140 001e 0022     		movs	r2, #0
 141 0020 1A60     		str	r2, [r3, #0]
 142              		.loc 1 106 0
 143 0022 10BD     		pop	{r4, pc}
 144              	.L7:
 145              		.align	2
 146              	.L6:
 147 0024 00000000 		.word	ICUD1
 148 0028 00000000 		.word	.LANCHOR2
 149 002c 00000000 		.word	.LANCHOR3
 150 0030 00000000 		.word	.LANCHOR0
 151              		.cfi_endproc
 152              	.LFE121:
 153              		.size	speedInit, .-speedInit
 154 0034 AFF30080 		.section	.text.speedCalc,"ax",%progbits
 154      AFF30080 
 154      AFF30080 
 155              		.align	2
 156              		.p2align 4,,15
 157              		.global	speedCalc
 158              		.thumb
 159              		.thumb_func
 160              		.type	speedCalc, %function
 161              	speedCalc:
 162              	.LFB122:
 163              		.loc 1 108 0
 164              		.cfi_startproc
ARM GAS  C:\Users\DNIEL~1\AppData\Local\Temp\cc7eP7WQ.s 			page 4


 165              		@ args = 0, pretend = 0, frame = 0
 166              		@ frame_needed = 0, uses_anonymous_args = 0
 167              		@ link register save eliminated.
 168              		.loc 1 151 0
 169 0000 7047     		bx	lr
 170              		.cfi_endproc
 171              	.LFE122:
 172              		.size	speedCalc, .-speedCalc
 173 0002 00BFAFF3 		.section	.text.speedGetLastPeriod,"ax",%progbits
 173      0080AFF3 
 173      0080AFF3 
 173      0080
 174              		.align	2
 175              		.p2align 4,,15
 176              		.global	speedGetLastPeriod
 177              		.thumb
 178              		.thumb_func
 179              		.type	speedGetLastPeriod, %function
 180              	speedGetLastPeriod:
 181              	.LFB123:
 182              		.loc 1 153 0
 183              		.cfi_startproc
 184              		@ args = 0, pretend = 0, frame = 0
 185              		@ frame_needed = 0, uses_anonymous_args = 0
 186              		@ link register save eliminated.
 187              	.LBB2:
 188              		.loc 1 156 0
 189 0000 2023     		movs	r3, #32
 190              	.LVL4:
 191              	@ 156 "src/speed.c" 1
 192 0002 83F31188 		msr     BASEPRI, r3
 193              	@ 0 "" 2
 194              	.LVL5:
 195              		.thumb
 196              	.LBE2:
 197              		.loc 1 157 0
 198 0006 034A     		ldr	r2, .L10
 199              	.LBB3:
 200              		.loc 1 158 0
 201 0008 0023     		movs	r3, #0
 202              	.LVL6:
 203              	.LBE3:
 204              		.loc 1 157 0
 205 000a 1068     		ldr	r0, [r2, #0]
 206              	.LVL7:
 207              	.LBB4:
 208              		.loc 1 158 0
 209              	@ 158 "src/speed.c" 1
 210 000c 83F31188 		msr     BASEPRI, r3
 211              	@ 0 "" 2
 212              	.LVL8:
 213              		.thumb
 214              	.LBE4:
 215              		.loc 1 160 0
 216 0010 7047     		bx	lr
 217              	.L11:
 218 0012 00BF     		.align	2
ARM GAS  C:\Users\DNIEL~1\AppData\Local\Temp\cc7eP7WQ.s 			page 5


 219              	.L10:
 220 0014 00000000 		.word	.LANCHOR4
 221              		.cfi_endproc
 222              	.LFE123:
 223              		.size	speedGetLastPeriod, .-speedGetLastPeriod
 224 0018 AFF30080 		.section	.text.speedGetPeriodNumber,"ax",%progbits
 224      AFF30080 
 225              		.align	2
 226              		.p2align 4,,15
 227              		.global	speedGetPeriodNumber
 228              		.thumb
 229              		.thumb_func
 230              		.type	speedGetPeriodNumber, %function
 231              	speedGetPeriodNumber:
 232              	.LFB124:
 233              		.loc 1 162 0
 234              		.cfi_startproc
 235              		@ args = 0, pretend = 0, frame = 0
 236              		@ frame_needed = 0, uses_anonymous_args = 0
 237              		@ link register save eliminated.
 238              	.LBB5:
 239              		.loc 1 165 0
 240 0000 2023     		movs	r3, #32
 241              	.LVL9:
 242              	@ 165 "src/speed.c" 1
 243 0002 83F31188 		msr     BASEPRI, r3
 244              	@ 0 "" 2
 245              	.LVL10:
 246              		.thumb
 247              	.LBE5:
 248              		.loc 1 166 0
 249 0006 034A     		ldr	r2, .L13
 250              	.LBB6:
 251              		.loc 1 167 0
 252 0008 0023     		movs	r3, #0
 253              	.LVL11:
 254              	.LBE6:
 255              		.loc 1 166 0
 256 000a 1068     		ldr	r0, [r2, #0]
 257              	.LVL12:
 258              	.LBB7:
 259              		.loc 1 167 0
 260              	@ 167 "src/speed.c" 1
 261 000c 83F31188 		msr     BASEPRI, r3
 262              	@ 0 "" 2
 263              	.LVL13:
 264              		.thumb
 265              	.LBE7:
 266              		.loc 1 169 0
 267 0010 7047     		bx	lr
 268              	.L14:
 269 0012 00BF     		.align	2
 270              	.L13:
 271 0014 00000000 		.word	.LANCHOR0
 272              		.cfi_endproc
 273              	.LFE124:
 274              		.size	speedGetPeriodNumber, .-speedGetPeriodNumber
ARM GAS  C:\Users\DNIEL~1\AppData\Local\Temp\cc7eP7WQ.s 			page 6


 275              		.global	__aeabi_d2uiz
 276 0018 AFF30080 		.section	.text.speedGetRpm,"ax",%progbits
 276      AFF30080 
 277              		.align	2
 278              		.p2align 4,,15
 279              		.global	speedGetRpm
 280              		.thumb
 281              		.thumb_func
 282              		.type	speedGetRpm, %function
 283              	speedGetRpm:
 284              	.LFB125:
 285              		.loc 1 171 0
 286              		.cfi_startproc
 287              		@ args = 0, pretend = 0, frame = 0
 288              		@ frame_needed = 0, uses_anonymous_args = 0
 289 0000 08B5     		push	{r3, lr}
 290              	.LCFI4:
 291              		.cfi_def_cfa_offset 8
 292              	.LBB8:
 293              		.loc 1 174 0
 294 0002 2023     		movs	r3, #32
 295              		.cfi_offset 14, -4
 296              		.cfi_offset 3, -8
 297              	.LVL14:
 298              	@ 174 "src/speed.c" 1
 299 0004 83F31188 		msr     BASEPRI, r3
 300              	@ 0 "" 2
 301              	.LVL15:
 302              		.thumb
 303              	.LBE8:
 304              		.loc 1 175 0
 305 0008 044B     		ldr	r3, .L16
 306              	.LVL16:
 307 000a D3E90001 		ldrd	r0, [r3]
 308 000e FFF7FEFF 		bl	__aeabi_d2uiz
 309              	.LBB9:
 310              		.loc 1 176 0
 311 0012 0023     		movs	r3, #0
 312              	.LVL17:
 313              	@ 176 "src/speed.c" 1
 314 0014 83F31188 		msr     BASEPRI, r3
 315              	@ 0 "" 2
 316              	.LVL18:
 317              		.thumb
 318              	.LBE9:
 319              		.loc 1 178 0
 320 0018 08BD     		pop	{r3, pc}
 321              	.L17:
 322 001a 00BF     		.align	2
 323              	.L16:
 324 001c 00000000 		.word	.LANCHOR5
 325              		.cfi_endproc
 326              	.LFE125:
 327              		.size	speedGetRpm, .-speedGetRpm
 328              		.section	.text.speedGetSpeed,"ax",%progbits
 329              		.align	2
 330              		.p2align 4,,15
ARM GAS  C:\Users\DNIEL~1\AppData\Local\Temp\cc7eP7WQ.s 			page 7


 331              		.global	speedGetSpeed
 332              		.thumb
 333              		.thumb_func
 334              		.type	speedGetSpeed, %function
 335              	speedGetSpeed:
 336              	.LFB126:
 337              		.loc 1 180 0
 338              		.cfi_startproc
 339              		@ args = 0, pretend = 0, frame = 0
 340              		@ frame_needed = 0, uses_anonymous_args = 0
 341 0000 08B5     		push	{r3, lr}
 342              	.LCFI5:
 343              		.cfi_def_cfa_offset 8
 344              	.LBB10:
 345              		.loc 1 183 0
 346 0002 2023     		movs	r3, #32
 347              		.cfi_offset 14, -4
 348              		.cfi_offset 3, -8
 349              	.LVL19:
 350              	@ 183 "src/speed.c" 1
 351 0004 83F31188 		msr     BASEPRI, r3
 352              	@ 0 "" 2
 353              	.LVL20:
 354              		.thumb
 355              	.LBE10:
 356              		.loc 1 184 0
 357 0008 044B     		ldr	r3, .L19
 358              	.LVL21:
 359 000a D3E90001 		ldrd	r0, [r3]
 360 000e FFF7FEFF 		bl	__aeabi_d2uiz
 361              	.LBB11:
 362              		.loc 1 185 0
 363 0012 0023     		movs	r3, #0
 364              	.LVL22:
 365              	@ 185 "src/speed.c" 1
 366 0014 83F31188 		msr     BASEPRI, r3
 367              	@ 0 "" 2
 368              	.LVL23:
 369              		.thumb
 370              	.LBE11:
 371              		.loc 1 187 0
 372 0018 08BD     		pop	{r3, pc}
 373              	.L20:
 374 001a 00BF     		.align	2
 375              	.L19:
 376 001c 00000000 		.word	.LANCHOR6
 377              		.cfi_endproc
 378              	.LFE126:
 379              		.size	speedGetSpeed, .-speedGetSpeed
 380              		.global	__aeabi_dmul
 381              		.section	.text.speedRPM_TO_KMPH,"ax",%progbits
 382              		.align	2
 383              		.p2align 4,,15
 384              		.global	speedRPM_TO_KMPH
 385              		.thumb
 386              		.thumb_func
 387              		.type	speedRPM_TO_KMPH, %function
ARM GAS  C:\Users\DNIEL~1\AppData\Local\Temp\cc7eP7WQ.s 			page 8


 388              	speedRPM_TO_KMPH:
 389              	.LFB127:
 390              		.loc 1 189 0
 391              		.cfi_startproc
 392              		@ args = 0, pretend = 0, frame = 0
 393              		@ frame_needed = 0, uses_anonymous_args = 0
 394              	.LVL24:
 395 0000 08B5     		push	{r3, lr}
 396              	.LCFI6:
 397              		.cfi_def_cfa_offset 8
 398              	.LBB12:
 399              		.loc 1 192 0
 400 0002 2023     		movs	r3, #32
 401              		.cfi_offset 14, -4
 402              		.cfi_offset 3, -8
 403              	.LVL25:
 404              	@ 192 "src/speed.c" 1
 405 0004 83F31188 		msr     BASEPRI, r3
 406              	@ 0 "" 2
 407              	.LVL26:
 408              		.thumb
 409              	.LBE12:
 410              		.loc 1 193 0
 411 0008 0FA3     		adr	r3, .L24
 412 000a D3E90023 		ldrd	r2, [r3]
 413 000e FFF7FEFF 		bl	__aeabi_dmul
 414              	.LVL27:
 415 0012 FFF7FEFF 		bl	__aeabi_d2uiz
 416              	.LVL28:
 417              		.loc 1 195 0
 418 0016 0E4A     		ldr	r2, .L24+8
 419              		.loc 1 194 0
 420 0018 C0EB0010 		rsb	r0, r0, r0, lsl #4
 421              	.LVL29:
 422              		.loc 1 195 0
 423 001c C0F3DA03 		ubfx	r3, r0, #3, #27
 424 0020 A2FB0313 		umull	r1, r3, r2, r3
 425              		.loc 1 197 0
 426 0024 0B48     		ldr	r0, .L24+12
 427              	.LVL30:
 428              		.loc 1 195 0
 429 0026 DB09     		lsrs	r3, r3, #7
 430              	.LVL31:
 431              		.loc 1 197 0
 432 0028 A0FB0320 		umull	r2, r0, r0, r3
 433 002c C008     		lsrs	r0, r0, #3
 434 002e 00EB8002 		add	r2, r0, r0, lsl #2
 435 0032 A3EB4203 		sub	r3, r3, r2, lsl #1
 436              	.LVL32:
 437 0036 052B     		cmp	r3, #5
 438              	.LVL33:
 439              		.loc 1 199 0
 440 0038 88BF     		it	hi
 441 003a 0130     		addhi	r0, r0, #1
 442              	.LVL34:
 443              	.LBB13:
 444              		.loc 1 203 0
ARM GAS  C:\Users\DNIEL~1\AppData\Local\Temp\cc7eP7WQ.s 			page 9


 445 003c 0023     		movs	r3, #0
 446              	.LVL35:
 447              	@ 203 "src/speed.c" 1
 448 003e 83F31188 		msr     BASEPRI, r3
 449              	@ 0 "" 2
 450              	.LVL36:
 451              		.thumb
 452              	.LBE13:
 453              		.loc 1 206 0
 454 0042 08BD     		pop	{r3, pc}
 455              	.L25:
 456 0044 AFF30080 		.align	3
 457              	.L24:
 458 0048 00000000 		.word	0
 459 004c 00209C40 		.word	1083973632
 460 0050 C55A7C0A 		.word	175921861
 461 0054 CDCCCCCC 		.word	-858993459
 462              		.cfi_endproc
 463              	.LFE127:
 464              		.size	speedRPM_TO_KMPH, .-speedRPM_TO_KMPH
 465              		.global	__aeabi_ui2d
 466              		.global	__aeabi_dadd
 467              		.global	__aeabi_ddiv
 468              		.global	__aeabi_dcmplt
 469              		.global	__aeabi_dcmpgt
 470              		.global	__aeabi_dsub
 471 0058 AFF30080 		.section	.text.speedWheelPeriodCb,"ax",%progbits
 471      AFF30080 
 472              		.align	2
 473              		.p2align 4,,15
 474              		.thumb
 475              		.thumb_func
 476              		.type	speedWheelPeriodCb, %function
 477              	speedWheelPeriodCb:
 478              	.LFB119:
 479              		.loc 1 44 0
 480              		.cfi_startproc
 481              		@ args = 0, pretend = 0, frame = 0
 482              		@ frame_needed = 0, uses_anonymous_args = 0
 483              	.LVL37:
 484              		.loc 1 48 0
 485 0000 4269     		ldr	r2, [r0, #20]
 486 0002 4949     		ldr	r1, .L44+8
 487              		.loc 1 50 0
 488 0004 4948     		ldr	r0, .L44+12
 489              	.LVL38:
 490              		.loc 1 44 0
 491 0006 2DE9F84F 		push	{r3, r4, r5, r6, r7, r8, r9, sl, fp, lr}
 492              	.LCFI7:
 493              		.cfi_def_cfa_offset 40
 494              		.loc 1 48 0
 495 000a 1768     		ldr	r7, [r2, #0]
 496              		.cfi_offset 14, -4
 497              		.cfi_offset 11, -8
 498              		.cfi_offset 10, -12
 499              		.cfi_offset 9, -16
 500              		.cfi_offset 8, -20
ARM GAS  C:\Users\DNIEL~1\AppData\Local\Temp\cc7eP7WQ.s 			page 10


 501              		.cfi_offset 7, -24
 502              		.cfi_offset 6, -28
 503              		.cfi_offset 5, -32
 504              		.cfi_offset 4, -36
 505              		.cfi_offset 3, -40
 506              		.loc 1 50 0
 507 000c DFF82C91 		ldr	r9, .L44+28
 508              		.loc 1 48 0
 509 0010 7B1C     		adds	r3, r7, #1
 510              		.loc 1 50 0
 511 0012 03EB4306 		add	r6, r3, r3, lsl #1
 512 0016 3501     		lsls	r5, r6, #4
 513              		.loc 1 48 0
 514 0018 0B60     		str	r3, [r1, #0]
 515              		.loc 1 50 0
 516 001a B0FBF5F0 		udiv	r0, r0, r5
 517 001e FFF7FEFF 		bl	__aeabi_ui2d
 518              		.loc 1 52 0
 519 0022 434B     		ldr	r3, .L44+16
 520 0024 1C88     		ldrh	r4, [r3, #0]
 521 0026 621C     		adds	r2, r4, #1
 522 0028 92B2     		uxth	r2, r2
 523              		.loc 1 54 0
 524 002a 2F2A     		cmp	r2, #47
 525              		.loc 1 50 0
 526 002c C9E90001 		strd	r0, [r9]
 527              		.loc 1 52 0
 528 0030 1A80     		strh	r2, [r3, #0]	@ movhi
 529              		.loc 1 54 0
 530 0032 02D9     		bls	.L28
 531              		.loc 1 55 0
 532 0034 0024     		movs	r4, #0
 533 0036 1C80     		strh	r4, [r3, #0]	@ movhi
 534 0038 0022     		movs	r2, #0
 535              	.L28:
 536              		.loc 1 59 0
 537 003a DFF814A1 		ldr	sl, .L44+48
 538              		.loc 1 58 0
 539 003e 3D4B     		ldr	r3, .L44+20
 540              		.loc 1 59 0
 541 0040 0024     		movs	r4, #0
 542 0042 0025     		movs	r5, #0
 543 0044 CAE90045 		strd	r4, [sl]
 544              	.LVL39:
 545              		.loc 1 58 0
 546 0048 03EBC208 		add	r8, r3, r2, lsl #3
 547 004c C8E90001 		strd	r0, [r8]
 548              		.loc 1 59 0
 549 0050 A3F10806 		sub	r6, r3, #8
 550              		.loc 1 44 0
 551 0054 03F5BC78 		add	r8, r3, #376
 552              	.LVL40:
 553              	.L29:
 554              		.loc 1 62 0 discriminator 2
 555 0058 D6E90223 		ldrd	r2, [r6, #8]
 556              		.loc 1 44 0 discriminator 2
 557 005c 06F10807 		add	r7, r6, #8
ARM GAS  C:\Users\DNIEL~1\AppData\Local\Temp\cc7eP7WQ.s 			page 11


 558              		.loc 1 62 0 discriminator 2
 559 0060 2046     		mov	r0, r4
 560 0062 2946     		mov	r1, r5
 561 0064 FFF7FEFF 		bl	__aeabi_dadd
 562 0068 D7E90223 		ldrd	r2, [r7, #8]
 563 006c FFF7FEFF 		bl	__aeabi_dadd
 564              		.loc 1 44 0 discriminator 2
 565 0070 1036     		adds	r6, r6, #16
 566              		.loc 1 61 0 discriminator 2
 567 0072 4645     		cmp	r6, r8
 568              		.loc 1 62 0 discriminator 2
 569 0074 0446     		mov	r4, r0
 570 0076 0D46     		mov	r5, r1
 571              		.loc 1 61 0 discriminator 2
 572 0078 EED1     		bne	.L29
 573              		.loc 1 61 0 is_stmt 0
 574 007a CAE90045 		strd	r4, [sl]
 575              		.loc 1 65 0 is_stmt 1
 576 007e 0022     		movs	r2, #0
 577 0080 2D4B     		ldr	r3, .L44+24
 578 0082 2E4E     		ldr	r6, .L44+28
 579 0084 FFF7FEFF 		bl	__aeabi_ddiv
 580              		.loc 1 67 0
 581 0088 0022     		movs	r2, #0
 582              		.loc 1 65 0
 583 008a 0446     		mov	r4, r0
 584 008c 0D46     		mov	r5, r1
 585              		.loc 1 67 0
 586 008e 0023     		movs	r3, #0
 587              		.loc 1 65 0
 588 0090 C9E90045 		strd	r4, [r9]
 589              		.loc 1 67 0
 590 0094 FFF7FEFF 		bl	__aeabi_dcmplt
 591 0098 0028     		cmp	r0, #0
 592 009a 2ED0     		beq	.L42
 593              		.loc 1 68 0
 594 009c 0022     		movs	r2, #0
 595 009e 0023     		movs	r3, #0
 596 00a0 C6E90023 		strd	r2, [r6]
 597 00a4 1446     		mov	r4, r2
 598 00a6 1D46     		mov	r5, r3
 599              	.L32:
 600              		.loc 1 75 0
 601 00a8 254E     		ldr	r6, .L44+32
 602 00aa D6E900AB 		ldrd	sl, [r6]
 603 00ae 2046     		mov	r0, r4
 604 00b0 5246     		mov	r2, sl
 605 00b2 5B46     		mov	r3, fp
 606 00b4 2946     		mov	r1, r5
 607 00b6 FFF7FEFF 		bl	__aeabi_dsub
 608 00ba 0022     		movs	r2, #0
 609 00bc 214B     		ldr	r3, .L44+36
 610 00be FFF7FEFF 		bl	__aeabi_dcmpgt
 611 00c2 18B1     		cbz	r0, .L34
 612              		.loc 1 77 0
 613 00c4 C9E900AB 		strd	sl, [r9]
 614 00c8 5446     		mov	r4, sl
ARM GAS  C:\Users\DNIEL~1\AppData\Local\Temp\cc7eP7WQ.s 			page 12


 615 00ca 5D46     		mov	r5, fp
 616              	.L34:
 617              		.loc 1 82 0
 618 00cc 2046     		mov	r0, r4
 619 00ce 2946     		mov	r1, r5
 620              		.loc 1 80 0
 621 00d0 C6E90045 		strd	r4, [r6]
 622              		.loc 1 82 0
 623 00d4 FFF7FEFF 		bl	speedRPM_TO_KMPH
 624 00d8 FFF7FEFF 		bl	__aeabi_ui2d
 625              		.loc 1 84 0
 626 00dc 1A4B     		ldr	r3, .L44+40
 627              		.loc 1 82 0
 628 00de 1B4C     		ldr	r4, .L44+44
 629              		.loc 1 84 0
 630 00e0 1A68     		ldr	r2, [r3, #0]
 631 00e2 322A     		cmp	r2, #50
 632              		.loc 1 82 0
 633 00e4 C4E90001 		strd	r0, [r4]
 634              		.loc 1 84 0
 635 00e8 05D9     		bls	.L26
 636              		.loc 1 85 0
 637 00ea 0022     		movs	r2, #0
 638 00ec 0023     		movs	r3, #0
 639 00ee C9E90023 		strd	r2, [r9]
 640              		.loc 1 86 0
 641 00f2 C4E90023 		strd	r2, [r4]
 642              	.L26:
 643 00f6 BDE8F88F 		pop	{r3, r4, r5, r6, r7, r8, r9, sl, fp, pc}
 644              	.L42:
 645              		.loc 1 71 0
 646 00fa 0FF2240B 		adr	fp, .L44
 647 00fe DBE900AB 		ldrd	sl, [fp]
 648 0102 2046     		mov	r0, r4
 649 0104 2946     		mov	r1, r5
 650 0106 5246     		mov	r2, sl
 651 0108 5B46     		mov	r3, fp
 652 010a FFF7FEFF 		bl	__aeabi_dcmpgt
 653 010e 0028     		cmp	r0, #0
 654 0110 CAD0     		beq	.L32
 655              		.loc 1 72 0
 656 0112 C6E900AB 		strd	sl, [r6]
 657 0116 5446     		mov	r4, sl
 658 0118 5D46     		mov	r5, fp
 659 011a C5E7     		b	.L32
 660              	.L45:
 661 011c AFF30080 		.align	3
 662              	.L44:
 663 0120 00000000 		.word	0
 664 0124 0070A740 		.word	1084715008
 665 0128 00000000 		.word	.LANCHOR4
 666 012c 00879303 		.word	60000000
 667 0130 00000000 		.word	.LANCHOR7
 668 0134 00000000 		.word	.LANCHOR8
 669 0138 00004840 		.word	1078460416
 670 013c 00000000 		.word	.LANCHOR5
 671 0140 00000000 		.word	.LANCHOR3
ARM GAS  C:\Users\DNIEL~1\AppData\Local\Temp\cc7eP7WQ.s 			page 13


 672 0144 00004940 		.word	1078525952
 673 0148 00000000 		.word	.LANCHOR1
 674 014c 00000000 		.word	.LANCHOR6
 675 0150 00000000 		.word	.LANCHOR9
 676              		.cfi_endproc
 677              	.LFE119:
 678              		.size	speedWheelPeriodCb, .-speedWheelPeriodCb
 679 0154 AFF30080 		.section	.text.speedKMPH_TO_RPM,"ax",%progbits
 679      AFF30080 
 679      AFF30080 
 680              		.align	2
 681              		.p2align 4,,15
 682              		.global	speedKMPH_TO_RPM
 683              		.thumb
 684              		.thumb_func
 685              		.type	speedKMPH_TO_RPM, %function
 686              	speedKMPH_TO_RPM:
 687              	.LFB128:
 688              		.loc 1 208 0
 689              		.cfi_startproc
 690              		@ args = 0, pretend = 0, frame = 0
 691              		@ frame_needed = 0, uses_anonymous_args = 0
 692              	.LVL41:
 693 0000 08B5     		push	{r3, lr}
 694              	.LCFI8:
 695              		.cfi_def_cfa_offset 8
 696              	.LBB14:
 697              		.loc 1 211 0
 698 0002 2023     		movs	r3, #32
 699              		.cfi_offset 14, -4
 700              		.cfi_offset 3, -8
 701              	.LVL42:
 702              	@ 211 "src/speed.c" 1
 703 0004 83F31188 		msr     BASEPRI, r3
 704              	@ 0 "" 2
 705              	.LVL43:
 706              		.thumb
 707              	.LBE14:
 708              		.loc 1 212 0
 709 0008 0FA3     		adr	r3, .L49
 710 000a D3E90023 		ldrd	r2, [r3]
 711 000e FFF7FEFF 		bl	__aeabi_dmul
 712              	.LVL44:
 713 0012 FFF7FEFF 		bl	__aeabi_d2uiz
 714              	.LVL45:
 715              		.loc 1 213 0
 716 0016 0E4B     		ldr	r3, .L49+8
 717              		.loc 1 214 0
 718 0018 0E4A     		ldr	r2, .L49+12
 719              		.loc 1 213 0
 720 001a A3FB0013 		umull	r1, r3, r3, r0
 721              	.LVL46:
 722              		.loc 1 214 0
 723 001e DB09     		lsrs	r3, r3, #7
 724 0020 A2FB0313 		umull	r1, r3, r2, r3
 725              		.loc 1 216 0
 726 0024 0C48     		ldr	r0, .L49+16
ARM GAS  C:\Users\DNIEL~1\AppData\Local\Temp\cc7eP7WQ.s 			page 14


 727              		.loc 1 214 0
 728 0026 9B08     		lsrs	r3, r3, #2
 729              	.LVL47:
 730              		.loc 1 216 0
 731 0028 A0FB0320 		umull	r2, r0, r0, r3
 732 002c C008     		lsrs	r0, r0, #3
 733 002e 00EB8002 		add	r2, r0, r0, lsl #2
 734 0032 A3EB4203 		sub	r3, r3, r2, lsl #1
 735              	.LVL48:
 736 0036 052B     		cmp	r3, #5
 737              	.LVL49:
 738              		.loc 1 218 0
 739 0038 88BF     		it	hi
 740 003a 0130     		addhi	r0, r0, #1
 741              	.LVL50:
 742              	.LBB15:
 743              		.loc 1 222 0
 744 003c 0023     		movs	r3, #0
 745              	.LVL51:
 746              	@ 222 "src/speed.c" 1
 747 003e 83F31188 		msr     BASEPRI, r3
 748              	@ 0 "" 2
 749              	.LVL52:
 750              		.thumb
 751              	.LBE15:
 752              		.loc 1 225 0
 753 0042 08BD     		pop	{r3, pc}
 754              	.L50:
 755 0044 AFF30080 		.align	3
 756              	.L49:
 757 0048 00000000 		.word	0
 758 004c 80842E41 		.word	1093567616
 759 0050 89888888 		.word	-2004318071
 760 0054 176CC116 		.word	381774871
 761 0058 CDCCCCCC 		.word	-858993459
 762              		.cfi_endproc
 763              	.LFE128:
 764              		.size	speedKMPH_TO_RPM, .-speedKMPH_TO_RPM
 765 005c AFF30080 		.section	.text.cmd_speedvalues,"ax",%progbits
 766              		.align	2
 767              		.p2align 4,,15
 768              		.global	cmd_speedvalues
 769              		.thumb
 770              		.thumb_func
 771              		.type	cmd_speedvalues, %function
 772              	cmd_speedvalues:
 773              	.LFB129:
 774              		.loc 1 227 0
 775              		.cfi_startproc
 776              		@ args = 0, pretend = 0, frame = 0
 777              		@ frame_needed = 0, uses_anonymous_args = 0
 778              	.LVL53:
 779 0000 F8B5     		push	{r3, r4, r5, r6, r7, lr}
 780              	.LCFI9:
 781              		.cfi_def_cfa_offset 24
 782              		.loc 1 231 0
 783 0002 1E49     		ldr	r1, .L54
ARM GAS  C:\Users\DNIEL~1\AppData\Local\Temp\cc7eP7WQ.s 			page 15


 784              	.LVL54:
 785              		.loc 1 236 0
 786 0004 1E4F     		ldr	r7, .L54+4
 787              		.cfi_offset 14, -4
 788              		.cfi_offset 7, -8
 789              		.cfi_offset 6, -12
 790              		.cfi_offset 5, -16
 791              		.cfi_offset 4, -20
 792              		.cfi_offset 3, -24
 793              		.loc 1 237 0
 794 0006 1F4E     		ldr	r6, .L54+8
 795              		.loc 1 238 0
 796 0008 1F4D     		ldr	r5, .L54+12
 797              		.loc 1 227 0
 798 000a 0446     		mov	r4, r0
 799              		.loc 1 231 0
 800 000c FFF7FEFF 		bl	chprintf
 801              	.LVL55:
 802              		.loc 1 232 0
 803 0010 2046     		mov	r0, r4
 804 0012 1E49     		ldr	r1, .L54+16
 805 0014 FFF7FEFF 		bl	chprintf
 806              		.loc 1 233 0
 807 0018 27E0     		b	.L52
 808              	.L53:
 809              		.loc 1 234 0
 810 001a 0022     		movs	r2, #0
 811 001c 1346     		mov	r3, r2
 812 001e 1C49     		ldr	r1, .L54+20
 813 0020 2046     		mov	r0, r4
 814 0022 FFF7FEFF 		bl	chprintf
 815              		.loc 1 236 0
 816 0026 2046     		mov	r0, r4
 817 0028 1A49     		ldr	r1, .L54+24
 818 002a 3A68     		ldr	r2, [r7, #0]
 819 002c FFF7FEFF 		bl	chprintf
 820              		.loc 1 237 0
 821 0030 2046     		mov	r0, r4
 822 0032 1949     		ldr	r1, .L54+28
 823 0034 3268     		ldr	r2, [r6, #0]
 824 0036 FFF7FEFF 		bl	chprintf
 825              		.loc 1 238 0
 826 003a D5E90023 		ldrd	r2, [r5]
 827 003e 2046     		mov	r0, r4
 828 0040 1649     		ldr	r1, .L54+32
 829 0042 FFF7FEFF 		bl	chprintf
 830              		.loc 1 239 0
 831 0046 164B     		ldr	r3, .L54+36
 832 0048 1649     		ldr	r1, .L54+40
 833 004a D3E90023 		ldrd	r2, [r3]
 834 004e 2046     		mov	r0, r4
 835 0050 FFF7FEFF 		bl	chprintf
 836              		.loc 1 240 0
 837 0054 144B     		ldr	r3, .L54+44
 838 0056 1549     		ldr	r1, .L54+48
 839 0058 2046     		mov	r0, r4
 840 005a D3E90023 		ldrd	r2, [r3]
ARM GAS  C:\Users\DNIEL~1\AppData\Local\Temp\cc7eP7WQ.s 			page 16


 841 005e FFF7FEFF 		bl	chprintf
 842              		.loc 1 241 0
 843 0062 4FF47A70 		mov	r0, #1000
 844 0066 FFF7FEFF 		bl	chThdSleep
 845              	.L52:
 846              		.loc 1 233 0 discriminator 1
 847 006a 2168     		ldr	r1, [r4, #0]
 848 006c 2046     		mov	r0, r4
 849 006e 4B69     		ldr	r3, [r1, #20]
 850 0070 0021     		movs	r1, #0
 851 0072 9847     		blx	r3
 852 0074 B0F1FF3F 		cmp	r0, #-1
 853 0078 CFD0     		beq	.L53
 854              		.loc 1 243 0
 855 007a F8BD     		pop	{r3, r4, r5, r6, r7, pc}
 856              	.L55:
 857              		.align	2
 858              	.L54:
 859 007c 00000000 		.word	.LC0
 860 0080 00000000 		.word	.LANCHOR4
 861 0084 00000000 		.word	.LANCHOR0
 862 0088 00000000 		.word	.LANCHOR5
 863 008c 04000000 		.word	.LC1
 864 0090 0C000000 		.word	.LC2
 865 0094 18000000 		.word	.LC3
 866 0098 34000000 		.word	.LC4
 867 009c 4C000000 		.word	.LC5
 868 00a0 00000000 		.word	.LANCHOR6
 869 00a4 58000000 		.word	.LC6
 870 00a8 00000000 		.word	.LANCHOR9
 871 00ac 68000000 		.word	.LC7
 872              		.cfi_endproc
 873              	.LFE129:
 874              		.size	cmd_speedvalues, .-cmd_speedvalues
 875              		.section	.bss.rpmasis,"aw",%nobits
 876              		.align	3
 877              		.set	.LANCHOR9,. + 0
 878              		.type	rpmasis, %object
 879              		.size	rpmasis, 8
 880              	rpmasis:
 881 0000 00000000 		.space	8
 881      00000000 
 882              		.section	.bss.old_rotation,"aw",%nobits
 883              		.align	3
 884              		.set	.LANCHOR3,. + 0
 885              		.type	old_rotation, %object
 886              		.size	old_rotation, 8
 887              	old_rotation:
 888 0000 00000000 		.space	8
 888      00000000 
 889              		.section	.bss.rotation,"aw",%nobits
 890              		.align	3
 891              		.set	.LANCHOR5,. + 0
 892              		.type	rotation, %object
 893              		.size	rotation, 8
 894              	rotation:
 895 0000 00000000 		.space	8
ARM GAS  C:\Users\DNIEL~1\AppData\Local\Temp\cc7eP7WQ.s 			page 17


 895      00000000 
 896              		.section	.rodata.str1.4,"aMS",%progbits,1
 897              		.align	2
 898              	.LC0:
 899 0000 1B6300   		.ascii	"\033c\000"
 900 0003 00       		.space	1
 901              	.LC1:
 902 0004 1B5B324A 		.ascii	"\033[2J\000"
 902      00
 903 0009 000000   		.space	3
 904              	.LC2:
 905 000c 1B5B2564 		.ascii	"\033[%d;%dH\000"
 905      3B256448 
 905      00
 906 0015 000000   		.space	3
 907              	.LC3:
 908 0018 73706565 		.ascii	"speed_last_period: %5d\015\012\000"
 908      645F6C61 
 908      73745F70 
 908      6572696F 
 908      643A2025 
 909 0031 000000   		.space	3
 910              	.LC4:
 911 0034 73706565 		.ascii	"speed_period_num: %5d\015\012\000"
 911      645F7065 
 911      72696F64 
 911      5F6E756D 
 911      3A202535 
 912              	.LC5:
 913 004c 72706D3A 		.ascii	"rpm: %5d\015\012\000"
 913      20253564 
 913      0D0A00
 914 0057 00       		.space	1
 915              	.LC6:
 916 0058 73706565 		.ascii	"speed: %5d\015\012\000"
 916      643A2025 
 916      35640D0A 
 916      00
 917 0065 000000   		.space	3
 918              	.LC7:
 919 0068 72706D61 		.ascii	"rpmasis: %5d\015\012\000"
 919      7369733A 
 919      20253564 
 919      0D0A00
 920 0077 00       		.section	.bss.rpm_index,"aw",%nobits
 921              		.align	1
 922              		.set	.LANCHOR7,. + 0
 923              		.type	rpm_index, %object
 924              		.size	rpm_index, 2
 925              	rpm_index:
 926 0000 0000     		.space	2
 927              		.section	.bss.rpm_buff,"aw",%nobits
 928              		.align	3
 929              		.set	.LANCHOR8,. + 0
 930              		.type	rpm_buff, %object
 931              		.size	rpm_buff, 384
 932              	rpm_buff:
ARM GAS  C:\Users\DNIEL~1\AppData\Local\Temp\cc7eP7WQ.s 			page 18


 933 0000 00000000 		.space	384
 933      00000000 
 933      00000000 
 933      00000000 
 933      00000000 
 934              		.section	.bss.speed,"aw",%nobits
 935              		.align	3
 936              		.set	.LANCHOR6,. + 0
 937              		.type	speed, %object
 938              		.size	speed, 8
 939              	speed:
 940 0000 00000000 		.space	8
 940      00000000 
 941              		.section	.bss.speed_last_period,"aw",%nobits
 942              		.align	2
 943              		.set	.LANCHOR4,. + 0
 944              		.type	speed_last_period, %object
 945              		.size	speed_last_period, 4
 946              	speed_last_period:
 947 0000 00000000 		.space	4
 948              		.section	.bss.speed_period_num,"aw",%nobits
 949              		.align	2
 950              		.set	.LANCHOR0,. + 0
 951              		.type	speed_period_num, %object
 952              		.size	speed_period_num, 4
 953              	speed_period_num:
 954 0000 00000000 		.space	4
 955              		.section	.data.icucfg,"aw",%progbits
 956              		.align	2
 957              		.set	.LANCHOR2,. + 0
 958              		.type	icucfg, %object
 959              		.size	icucfg, 28
 960              	icucfg:
 961 0000 00       		.byte	0
 962 0001 000000   		.space	3
 963 0004 40420F00 		.word	1000000
 964 0008 00000000 		.word	speedWheelPeriodNumber
 965 000c 00000000 		.word	speedWheelPeriodCb
 966 0010 00000000 		.word	0
 967 0014 00       		.byte	0
 968 0015 000000   		.space	3
 969 0018 00000000 		.word	0
 970              		.section	.bss.speed_zero_period,"aw",%nobits
 971              		.align	2
 972              		.set	.LANCHOR1,. + 0
 973              		.type	speed_zero_period, %object
 974              		.size	speed_zero_period, 4
 975              	speed_zero_period:
 976 0000 00000000 		.space	4
 977              		.text
 978              	.Letext0:
 979              		.section	.debug_loc,"",%progbits
 980              	.Ldebug_loc0:
 981              	.LLST0:
 982 0000 00000000 		.4byte	.LVL0
 983 0004 08000000 		.4byte	.LVL1
 984 0008 0100     		.2byte	0x1
ARM GAS  C:\Users\DNIEL~1\AppData\Local\Temp\cc7eP7WQ.s 			page 19


 985 000a 50       		.byte	0x50
 986 000b 00000000 		.4byte	0x0
 987 000f 00000000 		.4byte	0x0
 988              	.LLST1:
 989 0013 00000000 		.4byte	.LFB118
 990 0017 02000000 		.4byte	.LCFI0
 991 001b 0200     		.2byte	0x2
 992 001d 7D       		.byte	0x7d
 993 001e 00       		.sleb128 0
 994 001f 02000000 		.4byte	.LCFI0
 995 0023 04000000 		.4byte	.LCFI1
 996 0027 0200     		.2byte	0x2
 997 0029 7D       		.byte	0x7d
 998 002a 0C       		.sleb128 12
 999 002b 04000000 		.4byte	.LCFI1
 1000 002f 06000000 		.4byte	.LCFI2
 1001 0033 0200     		.2byte	0x2
 1002 0035 7D       		.byte	0x7d
 1003 0036 10       		.sleb128 16
 1004 0037 06000000 		.4byte	.LCFI2
 1005 003b 1E000000 		.4byte	.LFE118
 1006 003f 0200     		.2byte	0x2
 1007 0041 7D       		.byte	0x7d
 1008 0042 18       		.sleb128 24
 1009 0043 00000000 		.4byte	0x0
 1010 0047 00000000 		.4byte	0x0
 1011              	.LLST2:
 1012 004b 00000000 		.4byte	.LVL2
 1013 004f 13000000 		.4byte	.LVL3-1
 1014 0053 0100     		.2byte	0x1
 1015 0055 50       		.byte	0x50
 1016 0056 00000000 		.4byte	0x0
 1017 005a 00000000 		.4byte	0x0
 1018              	.LLST3:
 1019 005e 00000000 		.4byte	.LFB121
 1020 0062 02000000 		.4byte	.LCFI3
 1021 0066 0200     		.2byte	0x2
 1022 0068 7D       		.byte	0x7d
 1023 0069 00       		.sleb128 0
 1024 006a 02000000 		.4byte	.LCFI3
 1025 006e 34000000 		.4byte	.LFE121
 1026 0072 0200     		.2byte	0x2
 1027 0074 7D       		.byte	0x7d
 1028 0075 08       		.sleb128 8
 1029 0076 00000000 		.4byte	0x0
 1030 007a 00000000 		.4byte	0x0
 1031              	.LLST4:
 1032 007e 06000000 		.4byte	.LVL5
 1033 0082 0A000000 		.4byte	.LVL6
 1034 0086 0100     		.2byte	0x1
 1035 0088 53       		.byte	0x53
 1036 0089 00000000 		.4byte	0x0
 1037 008d 00000000 		.4byte	0x0
 1038              	.LLST5:
 1039 0091 10000000 		.4byte	.LVL8
 1040 0095 18000000 		.4byte	.LFE123
 1041 0099 0100     		.2byte	0x1
ARM GAS  C:\Users\DNIEL~1\AppData\Local\Temp\cc7eP7WQ.s 			page 20


 1042 009b 53       		.byte	0x53
 1043 009c 00000000 		.4byte	0x0
 1044 00a0 00000000 		.4byte	0x0
 1045              	.LLST6:
 1046 00a4 06000000 		.4byte	.LVL10
 1047 00a8 0A000000 		.4byte	.LVL11
 1048 00ac 0100     		.2byte	0x1
 1049 00ae 53       		.byte	0x53
 1050 00af 00000000 		.4byte	0x0
 1051 00b3 00000000 		.4byte	0x0
 1052              	.LLST7:
 1053 00b7 10000000 		.4byte	.LVL13
 1054 00bb 18000000 		.4byte	.LFE124
 1055 00bf 0100     		.2byte	0x1
 1056 00c1 53       		.byte	0x53
 1057 00c2 00000000 		.4byte	0x0
 1058 00c6 00000000 		.4byte	0x0
 1059              	.LLST8:
 1060 00ca 00000000 		.4byte	.LFB125
 1061 00ce 02000000 		.4byte	.LCFI4
 1062 00d2 0200     		.2byte	0x2
 1063 00d4 7D       		.byte	0x7d
 1064 00d5 00       		.sleb128 0
 1065 00d6 02000000 		.4byte	.LCFI4
 1066 00da 20000000 		.4byte	.LFE125
 1067 00de 0200     		.2byte	0x2
 1068 00e0 7D       		.byte	0x7d
 1069 00e1 08       		.sleb128 8
 1070 00e2 00000000 		.4byte	0x0
 1071 00e6 00000000 		.4byte	0x0
 1072              	.LLST9:
 1073 00ea 08000000 		.4byte	.LVL15
 1074 00ee 0A000000 		.4byte	.LVL16
 1075 00f2 0100     		.2byte	0x1
 1076 00f4 53       		.byte	0x53
 1077 00f5 00000000 		.4byte	0x0
 1078 00f9 00000000 		.4byte	0x0
 1079              	.LLST10:
 1080 00fd 18000000 		.4byte	.LVL18
 1081 0101 20000000 		.4byte	.LFE125
 1082 0105 0100     		.2byte	0x1
 1083 0107 53       		.byte	0x53
 1084 0108 00000000 		.4byte	0x0
 1085 010c 00000000 		.4byte	0x0
 1086              	.LLST11:
 1087 0110 00000000 		.4byte	.LFB126
 1088 0114 02000000 		.4byte	.LCFI5
 1089 0118 0200     		.2byte	0x2
 1090 011a 7D       		.byte	0x7d
 1091 011b 00       		.sleb128 0
 1092 011c 02000000 		.4byte	.LCFI5
 1093 0120 20000000 		.4byte	.LFE126
 1094 0124 0200     		.2byte	0x2
 1095 0126 7D       		.byte	0x7d
 1096 0127 08       		.sleb128 8
 1097 0128 00000000 		.4byte	0x0
 1098 012c 00000000 		.4byte	0x0
ARM GAS  C:\Users\DNIEL~1\AppData\Local\Temp\cc7eP7WQ.s 			page 21


 1099              	.LLST12:
 1100 0130 08000000 		.4byte	.LVL20
 1101 0134 0A000000 		.4byte	.LVL21
 1102 0138 0100     		.2byte	0x1
 1103 013a 53       		.byte	0x53
 1104 013b 00000000 		.4byte	0x0
 1105 013f 00000000 		.4byte	0x0
 1106              	.LLST13:
 1107 0143 18000000 		.4byte	.LVL23
 1108 0147 20000000 		.4byte	.LFE126
 1109 014b 0100     		.2byte	0x1
 1110 014d 53       		.byte	0x53
 1111 014e 00000000 		.4byte	0x0
 1112 0152 00000000 		.4byte	0x0
 1113              	.LLST14:
 1114 0156 00000000 		.4byte	.LFB127
 1115 015a 02000000 		.4byte	.LCFI6
 1116 015e 0200     		.2byte	0x2
 1117 0160 7D       		.byte	0x7d
 1118 0161 00       		.sleb128 0
 1119 0162 02000000 		.4byte	.LCFI6
 1120 0166 58000000 		.4byte	.LFE127
 1121 016a 0200     		.2byte	0x2
 1122 016c 7D       		.byte	0x7d
 1123 016d 08       		.sleb128 8
 1124 016e 00000000 		.4byte	0x0
 1125 0172 00000000 		.4byte	0x0
 1126              	.LLST15:
 1127 0176 00000000 		.4byte	.LVL24
 1128 017a 11000000 		.4byte	.LVL27-1
 1129 017e 0600     		.2byte	0x6
 1130 0180 50       		.byte	0x50
 1131 0181 93       		.byte	0x93
 1132 0182 04       		.uleb128 0x4
 1133 0183 51       		.byte	0x51
 1134 0184 93       		.byte	0x93
 1135 0185 04       		.uleb128 0x4
 1136 0186 00000000 		.4byte	0x0
 1137 018a 00000000 		.4byte	0x0
 1138              	.LLST16:
 1139 018e 16000000 		.4byte	.LVL28
 1140 0192 1C000000 		.4byte	.LVL29
 1141 0196 0100     		.2byte	0x1
 1142 0198 50       		.byte	0x50
 1143 0199 1C000000 		.4byte	.LVL29
 1144 019d 26000000 		.4byte	.LVL30
 1145 01a1 0500     		.2byte	0x5
 1146 01a3 70       		.byte	0x70
 1147 01a4 00       		.sleb128 0
 1148 01a5 32       		.byte	0x32
 1149 01a6 24       		.byte	0x24
 1150 01a7 9F       		.byte	0x9f
 1151 01a8 28000000 		.4byte	.LVL31
 1152 01ac 36000000 		.4byte	.LVL32
 1153 01b0 0100     		.2byte	0x1
 1154 01b2 53       		.byte	0x53
 1155 01b3 38000000 		.4byte	.LVL33
ARM GAS  C:\Users\DNIEL~1\AppData\Local\Temp\cc7eP7WQ.s 			page 22


 1156 01b7 3C000000 		.4byte	.LVL34
 1157 01bb 0100     		.2byte	0x1
 1158 01bd 50       		.byte	0x50
 1159 01be 3C000000 		.4byte	.LVL34
 1160 01c2 58000000 		.4byte	.LFE127
 1161 01c6 0100     		.2byte	0x1
 1162 01c8 50       		.byte	0x50
 1163 01c9 00000000 		.4byte	0x0
 1164 01cd 00000000 		.4byte	0x0
 1165              	.LLST17:
 1166 01d1 08000000 		.4byte	.LVL26
 1167 01d5 11000000 		.4byte	.LVL27-1
 1168 01d9 0100     		.2byte	0x1
 1169 01db 53       		.byte	0x53
 1170 01dc 00000000 		.4byte	0x0
 1171 01e0 00000000 		.4byte	0x0
 1172              	.LLST18:
 1173 01e4 42000000 		.4byte	.LVL36
 1174 01e8 58000000 		.4byte	.LFE127
 1175 01ec 0100     		.2byte	0x1
 1176 01ee 53       		.byte	0x53
 1177 01ef 00000000 		.4byte	0x0
 1178 01f3 00000000 		.4byte	0x0
 1179              	.LLST19:
 1180 01f7 00000000 		.4byte	.LFB119
 1181 01fb 0A000000 		.4byte	.LCFI7
 1182 01ff 0200     		.2byte	0x2
 1183 0201 7D       		.byte	0x7d
 1184 0202 00       		.sleb128 0
 1185 0203 0A000000 		.4byte	.LCFI7
 1186 0207 54010000 		.4byte	.LFE119
 1187 020b 0200     		.2byte	0x2
 1188 020d 7D       		.byte	0x7d
 1189 020e 28       		.sleb128 40
 1190 020f 00000000 		.4byte	0x0
 1191 0213 00000000 		.4byte	0x0
 1192              	.LLST20:
 1193 0217 00000000 		.4byte	.LVL37
 1194 021b 06000000 		.4byte	.LVL38
 1195 021f 0100     		.2byte	0x1
 1196 0221 50       		.byte	0x50
 1197 0222 00000000 		.4byte	0x0
 1198 0226 00000000 		.4byte	0x0
 1199              	.LLST21:
 1200 022a 48000000 		.4byte	.LVL39
 1201 022e 58000000 		.4byte	.LVL40
 1202 0232 0200     		.2byte	0x2
 1203 0234 30       		.byte	0x30
 1204 0235 9F       		.byte	0x9f
 1205 0236 00000000 		.4byte	0x0
 1206 023a 00000000 		.4byte	0x0
 1207              	.LLST22:
 1208 023e 00000000 		.4byte	.LFB128
 1209 0242 02000000 		.4byte	.LCFI8
 1210 0246 0200     		.2byte	0x2
 1211 0248 7D       		.byte	0x7d
 1212 0249 00       		.sleb128 0
ARM GAS  C:\Users\DNIEL~1\AppData\Local\Temp\cc7eP7WQ.s 			page 23


 1213 024a 02000000 		.4byte	.LCFI8
 1214 024e 5C000000 		.4byte	.LFE128
 1215 0252 0200     		.2byte	0x2
 1216 0254 7D       		.byte	0x7d
 1217 0255 08       		.sleb128 8
 1218 0256 00000000 		.4byte	0x0
 1219 025a 00000000 		.4byte	0x0
 1220              	.LLST23:
 1221 025e 00000000 		.4byte	.LVL41
 1222 0262 11000000 		.4byte	.LVL44-1
 1223 0266 0600     		.2byte	0x6
 1224 0268 50       		.byte	0x50
 1225 0269 93       		.byte	0x93
 1226 026a 04       		.uleb128 0x4
 1227 026b 51       		.byte	0x51
 1228 026c 93       		.byte	0x93
 1229 026d 04       		.uleb128 0x4
 1230 026e 00000000 		.4byte	0x0
 1231 0272 00000000 		.4byte	0x0
 1232              	.LLST24:
 1233 0276 16000000 		.4byte	.LVL45
 1234 027a 1E000000 		.4byte	.LVL46
 1235 027e 0100     		.2byte	0x1
 1236 0280 50       		.byte	0x50
 1237 0281 28000000 		.4byte	.LVL47
 1238 0285 36000000 		.4byte	.LVL48
 1239 0289 0100     		.2byte	0x1
 1240 028b 53       		.byte	0x53
 1241 028c 38000000 		.4byte	.LVL49
 1242 0290 3C000000 		.4byte	.LVL50
 1243 0294 0100     		.2byte	0x1
 1244 0296 50       		.byte	0x50
 1245 0297 3C000000 		.4byte	.LVL50
 1246 029b 5C000000 		.4byte	.LFE128
 1247 029f 0100     		.2byte	0x1
 1248 02a1 50       		.byte	0x50
 1249 02a2 00000000 		.4byte	0x0
 1250 02a6 00000000 		.4byte	0x0
 1251              	.LLST25:
 1252 02aa 08000000 		.4byte	.LVL43
 1253 02ae 11000000 		.4byte	.LVL44-1
 1254 02b2 0100     		.2byte	0x1
 1255 02b4 53       		.byte	0x53
 1256 02b5 00000000 		.4byte	0x0
 1257 02b9 00000000 		.4byte	0x0
 1258              	.LLST26:
 1259 02bd 42000000 		.4byte	.LVL52
 1260 02c1 5C000000 		.4byte	.LFE128
 1261 02c5 0100     		.2byte	0x1
 1262 02c7 53       		.byte	0x53
 1263 02c8 00000000 		.4byte	0x0
 1264 02cc 00000000 		.4byte	0x0
 1265              	.LLST27:
 1266 02d0 00000000 		.4byte	.LFB129
 1267 02d4 02000000 		.4byte	.LCFI9
 1268 02d8 0200     		.2byte	0x2
 1269 02da 7D       		.byte	0x7d
ARM GAS  C:\Users\DNIEL~1\AppData\Local\Temp\cc7eP7WQ.s 			page 24


 1270 02db 00       		.sleb128 0
 1271 02dc 02000000 		.4byte	.LCFI9
 1272 02e0 B0000000 		.4byte	.LFE129
 1273 02e4 0200     		.2byte	0x2
 1274 02e6 7D       		.byte	0x7d
 1275 02e7 18       		.sleb128 24
 1276 02e8 00000000 		.4byte	0x0
 1277 02ec 00000000 		.4byte	0x0
 1278              	.LLST28:
 1279 02f0 00000000 		.4byte	.LVL53
 1280 02f4 0F000000 		.4byte	.LVL55-1
 1281 02f8 0100     		.2byte	0x1
 1282 02fa 50       		.byte	0x50
 1283 02fb 0F000000 		.4byte	.LVL55-1
 1284 02ff B0000000 		.4byte	.LFE129
 1285 0303 0100     		.2byte	0x1
 1286 0305 54       		.byte	0x54
 1287 0306 00000000 		.4byte	0x0
 1288 030a 00000000 		.4byte	0x0
 1289              	.LLST29:
 1290 030e 00000000 		.4byte	.LVL53
 1291 0312 04000000 		.4byte	.LVL54
 1292 0316 0100     		.2byte	0x1
 1293 0318 51       		.byte	0x51
 1294 0319 00000000 		.4byte	0x0
 1295 031d 00000000 		.4byte	0x0
 1296              	.LLST30:
 1297 0321 00000000 		.4byte	.LVL53
 1298 0325 0F000000 		.4byte	.LVL55-1
 1299 0329 0100     		.2byte	0x1
 1300 032b 52       		.byte	0x52
 1301 032c 00000000 		.4byte	0x0
 1302 0330 00000000 		.4byte	0x0
 1303              		.file 3 "c:\\program files (x86)\\codesourcery\\sourcery g++ lite\\bin\\../lib/gcc/arm-none-eabi/4
 1304              		.file 4 "c:\\program files (x86)\\codesourcery\\sourcery g++ lite\\bin\\../lib/gcc/arm-none-eabi/4
 1305              		.file 5 "../../../ChibiOS/os/ports/GCC/ARMCMx/chtypes.h"
 1306              		.file 6 "../../../ChibiOS/os/kernel/include/chstreams.h"
 1307              		.file 7 "../../../ChibiOS/os/hal/include/io_channel.h"
 1308              		.file 8 "../../../ChibiOS/os/hal/platforms/STM32/TIMv1/stm32_tim.h"
 1309              		.file 9 "../../../ChibiOS/os/hal/include/icu.h"
 1310              		.file 10 "../../../ChibiOS/os/hal/platforms/STM32/TIMv1/icu_lld.h"
 1311              		.file 11 "c:\\program files (x86)\\codesourcery\\sourcery g++ lite\\bin\\../lib/gcc/arm-none-eabi/
 1312              		.file 12 "<built-in>"
 1313              		.file 13 "../../../ChibiOS/os/ports/common/ARMCMx/CMSIS/include/core_cm4.h"
 1314              		.section	.debug_info
 1315 0000 C10A0000 		.4byte	0xac1
 1316 0004 0200     		.2byte	0x2
 1317 0006 00000000 		.4byte	.Ldebug_abbrev0
 1318 000a 04       		.byte	0x4
 1319 000b 01       		.uleb128 0x1
 1320 000c 20010000 		.4byte	.LASF100
 1321 0010 01       		.byte	0x1
 1322 0011 86020000 		.4byte	.LASF101
 1323 0015 2C010000 		.4byte	.LASF102
 1324 0019 00000000 		.4byte	0x0
 1325 001d 00000000 		.4byte	0x0
 1326 0021 30000000 		.4byte	.Ldebug_ranges0+0x30
ARM GAS  C:\Users\DNIEL~1\AppData\Local\Temp\cc7eP7WQ.s 			page 25


 1327 0025 00000000 		.4byte	.Ldebug_line0
 1328 0029 02       		.uleb128 0x2
 1329 002a 04       		.byte	0x4
 1330 002b 05       		.byte	0x5
 1331 002c 696E7400 		.ascii	"int\000"
 1332 0030 03       		.uleb128 0x3
 1333 0031 32000000 		.4byte	.LASF2
 1334 0035 03       		.byte	0x3
 1335 0036 D3       		.byte	0xd3
 1336 0037 3B000000 		.4byte	0x3b
 1337 003b 04       		.uleb128 0x4
 1338 003c 04       		.byte	0x4
 1339 003d 07       		.byte	0x7
 1340 003e C0010000 		.4byte	.LASF0
 1341 0042 04       		.uleb128 0x4
 1342 0043 01       		.byte	0x1
 1343 0044 06       		.byte	0x6
 1344 0045 DA000000 		.4byte	.LASF1
 1345 0049 03       		.uleb128 0x3
 1346 004a F2030000 		.4byte	.LASF3
 1347 004e 04       		.byte	0x4
 1348 004f 2A       		.byte	0x2a
 1349 0050 54000000 		.4byte	0x54
 1350 0054 04       		.uleb128 0x4
 1351 0055 01       		.byte	0x1
 1352 0056 08       		.byte	0x8
 1353 0057 ED020000 		.4byte	.LASF4
 1354 005b 04       		.uleb128 0x4
 1355 005c 02       		.byte	0x2
 1356 005d 05       		.byte	0x5
 1357 005e FB020000 		.4byte	.LASF5
 1358 0062 03       		.uleb128 0x3
 1359 0063 38020000 		.4byte	.LASF6
 1360 0067 04       		.byte	0x4
 1361 0068 36       		.byte	0x36
 1362 0069 6D000000 		.4byte	0x6d
 1363 006d 04       		.uleb128 0x4
 1364 006e 02       		.byte	0x2
 1365 006f 07       		.byte	0x7
 1366 0070 73030000 		.4byte	.LASF7
 1367 0074 03       		.uleb128 0x3
 1368 0075 E5020000 		.4byte	.LASF8
 1369 0079 04       		.byte	0x4
 1370 007a 4F       		.byte	0x4f
 1371 007b 7F000000 		.4byte	0x7f
 1372 007f 04       		.uleb128 0x4
 1373 0080 04       		.byte	0x4
 1374 0081 05       		.byte	0x5
 1375 0082 65010000 		.4byte	.LASF9
 1376 0086 03       		.uleb128 0x3
 1377 0087 3C030000 		.4byte	.LASF10
 1378 008b 04       		.byte	0x4
 1379 008c 50       		.byte	0x50
 1380 008d 91000000 		.4byte	0x91
 1381 0091 04       		.uleb128 0x4
 1382 0092 04       		.byte	0x4
 1383 0093 07       		.byte	0x7
ARM GAS  C:\Users\DNIEL~1\AppData\Local\Temp\cc7eP7WQ.s 			page 26


 1384 0094 D3010000 		.4byte	.LASF11
 1385 0098 04       		.uleb128 0x4
 1386 0099 08       		.byte	0x8
 1387 009a 05       		.byte	0x5
 1388 009b 7D010000 		.4byte	.LASF12
 1389 009f 04       		.uleb128 0x4
 1390 00a0 08       		.byte	0x8
 1391 00a1 07       		.byte	0x7
 1392 00a2 63000000 		.4byte	.LASF13
 1393 00a6 04       		.uleb128 0x4
 1394 00a7 01       		.byte	0x1
 1395 00a8 02       		.byte	0x2
 1396 00a9 DF020000 		.4byte	.LASF14
 1397 00ad 03       		.uleb128 0x3
 1398 00ae 15020000 		.4byte	.LASF15
 1399 00b2 05       		.byte	0x5
 1400 00b3 31       		.byte	0x31
 1401 00b4 74000000 		.4byte	0x74
 1402 00b8 03       		.uleb128 0x3
 1403 00b9 5B030000 		.4byte	.LASF16
 1404 00bd 05       		.byte	0x5
 1405 00be 35       		.byte	0x35
 1406 00bf 86000000 		.4byte	0x86
 1407 00c3 05       		.uleb128 0x5
 1408 00c4 04       		.byte	0x4
 1409 00c5 06       		.uleb128 0x6
 1410 00c6 86000000 		.4byte	0x86
 1411 00ca 07       		.uleb128 0x7
 1412 00cb 04       		.byte	0x4
 1413 00cc D0000000 		.4byte	0xd0
 1414 00d0 08       		.uleb128 0x8
 1415 00d1 D5000000 		.4byte	0xd5
 1416 00d5 04       		.uleb128 0x4
 1417 00d6 01       		.byte	0x1
 1418 00d7 08       		.byte	0x8
 1419 00d8 45030000 		.4byte	.LASF17
 1420 00dc 07       		.uleb128 0x7
 1421 00dd 04       		.byte	0x4
 1422 00de E2000000 		.4byte	0xe2
 1423 00e2 09       		.uleb128 0x9
 1424 00e3 01       		.byte	0x1
 1425 00e4 AD000000 		.4byte	0xad
 1426 00e8 F2000000 		.4byte	0xf2
 1427 00ec 0A       		.uleb128 0xa
 1428 00ed C3000000 		.4byte	0xc3
 1429 00f1 00       		.byte	0x0
 1430 00f2 07       		.uleb128 0x7
 1431 00f3 04       		.byte	0x4
 1432 00f4 49000000 		.4byte	0x49
 1433 00f8 0B       		.uleb128 0xb
 1434 00f9 0F030000 		.4byte	.LASF21
 1435 00fd 10       		.byte	0x10
 1436 00fe 06       		.byte	0x6
 1437 00ff 48       		.byte	0x48
 1438 0100 3D010000 		.4byte	0x13d
 1439 0104 0C       		.uleb128 0xc
 1440 0105 51020000 		.4byte	.LASF18
ARM GAS  C:\Users\DNIEL~1\AppData\Local\Temp\cc7eP7WQ.s 			page 27


 1441 0109 06       		.byte	0x6
 1442 010a 49       		.byte	0x49
 1443 010b 62010000 		.4byte	0x162
 1444 010f 02       		.byte	0x2
 1445 0110 23       		.byte	0x23
 1446 0111 00       		.uleb128 0x0
 1447 0112 0C       		.uleb128 0xc
 1448 0113 24040000 		.4byte	.LASF19
 1449 0117 06       		.byte	0x6
 1450 0118 49       		.byte	0x49
 1451 0119 82010000 		.4byte	0x182
 1452 011d 02       		.byte	0x2
 1453 011e 23       		.byte	0x23
 1454 011f 04       		.uleb128 0x4
 1455 0120 0D       		.uleb128 0xd
 1456 0121 70757400 		.ascii	"put\000"
 1457 0125 06       		.byte	0x6
 1458 0126 49       		.byte	0x49
 1459 0127 9D010000 		.4byte	0x19d
 1460 012b 02       		.byte	0x2
 1461 012c 23       		.byte	0x23
 1462 012d 08       		.uleb128 0x8
 1463 012e 0D       		.uleb128 0xd
 1464 012f 67657400 		.ascii	"get\000"
 1465 0133 06       		.byte	0x6
 1466 0134 49       		.byte	0x49
 1467 0135 DC000000 		.4byte	0xdc
 1468 0139 02       		.byte	0x2
 1469 013a 23       		.byte	0x23
 1470 013b 0C       		.uleb128 0xc
 1471 013c 00       		.byte	0x0
 1472 013d 09       		.uleb128 0x9
 1473 013e 01       		.byte	0x1
 1474 013f 30000000 		.4byte	0x30
 1475 0143 57010000 		.4byte	0x157
 1476 0147 0A       		.uleb128 0xa
 1477 0148 C3000000 		.4byte	0xc3
 1478 014c 0A       		.uleb128 0xa
 1479 014d 57010000 		.4byte	0x157
 1480 0151 0A       		.uleb128 0xa
 1481 0152 30000000 		.4byte	0x30
 1482 0156 00       		.byte	0x0
 1483 0157 07       		.uleb128 0x7
 1484 0158 04       		.byte	0x4
 1485 0159 5D010000 		.4byte	0x15d
 1486 015d 08       		.uleb128 0x8
 1487 015e 49000000 		.4byte	0x49
 1488 0162 07       		.uleb128 0x7
 1489 0163 04       		.byte	0x4
 1490 0164 3D010000 		.4byte	0x13d
 1491 0168 09       		.uleb128 0x9
 1492 0169 01       		.byte	0x1
 1493 016a 30000000 		.4byte	0x30
 1494 016e 82010000 		.4byte	0x182
 1495 0172 0A       		.uleb128 0xa
 1496 0173 C3000000 		.4byte	0xc3
 1497 0177 0A       		.uleb128 0xa
ARM GAS  C:\Users\DNIEL~1\AppData\Local\Temp\cc7eP7WQ.s 			page 28


 1498 0178 F2000000 		.4byte	0xf2
 1499 017c 0A       		.uleb128 0xa
 1500 017d 30000000 		.4byte	0x30
 1501 0181 00       		.byte	0x0
 1502 0182 07       		.uleb128 0x7
 1503 0183 04       		.byte	0x4
 1504 0184 68010000 		.4byte	0x168
 1505 0188 09       		.uleb128 0x9
 1506 0189 01       		.byte	0x1
 1507 018a AD000000 		.4byte	0xad
 1508 018e 9D010000 		.4byte	0x19d
 1509 0192 0A       		.uleb128 0xa
 1510 0193 C3000000 		.4byte	0xc3
 1511 0197 0A       		.uleb128 0xa
 1512 0198 49000000 		.4byte	0x49
 1513 019c 00       		.byte	0x0
 1514 019d 07       		.uleb128 0x7
 1515 019e 04       		.byte	0x4
 1516 019f 88010000 		.4byte	0x188
 1517 01a3 0E       		.uleb128 0xe
 1518 01a4 04       		.byte	0x4
 1519 01a5 06       		.byte	0x6
 1520 01a6 51       		.byte	0x51
 1521 01a7 BA010000 		.4byte	0x1ba
 1522 01ab 0D       		.uleb128 0xd
 1523 01ac 766D7400 		.ascii	"vmt\000"
 1524 01b0 06       		.byte	0x6
 1525 01b1 53       		.byte	0x53
 1526 01b2 BA010000 		.4byte	0x1ba
 1527 01b6 02       		.byte	0x2
 1528 01b7 23       		.byte	0x23
 1529 01b8 00       		.uleb128 0x0
 1530 01b9 00       		.byte	0x0
 1531 01ba 07       		.uleb128 0x7
 1532 01bb 04       		.byte	0x4
 1533 01bc C0010000 		.4byte	0x1c0
 1534 01c0 08       		.uleb128 0x8
 1535 01c1 F8000000 		.4byte	0xf8
 1536 01c5 03       		.uleb128 0x3
 1537 01c6 AB010000 		.4byte	.LASF20
 1538 01ca 06       		.byte	0x6
 1539 01cb 55       		.byte	0x55
 1540 01cc A3010000 		.4byte	0x1a3
 1541 01d0 0F       		.uleb128 0xf
 1542 01d1 86000000 		.4byte	0x86
 1543 01d5 E0010000 		.4byte	0x1e0
 1544 01d9 10       		.uleb128 0x10
 1545 01da 3B000000 		.4byte	0x3b
 1546 01de 03       		.byte	0x3
 1547 01df 00       		.byte	0x0
 1548 01e0 06       		.uleb128 0x6
 1549 01e1 74000000 		.4byte	0x74
 1550 01e5 07       		.uleb128 0x7
 1551 01e6 04       		.byte	0x4
 1552 01e7 C5000000 		.4byte	0xc5
 1553 01eb 0B       		.uleb128 0xb
 1554 01ec 90030000 		.4byte	.LASF22
ARM GAS  C:\Users\DNIEL~1\AppData\Local\Temp\cc7eP7WQ.s 			page 29


 1555 01f0 20       		.byte	0x20
 1556 01f1 07       		.byte	0x7
 1557 01f2 4E       		.byte	0x4e
 1558 01f3 68020000 		.4byte	0x268
 1559 01f7 0C       		.uleb128 0xc
 1560 01f8 51020000 		.4byte	.LASF18
 1561 01fc 07       		.byte	0x7
 1562 01fd 4F       		.byte	0x4f
 1563 01fe 62010000 		.4byte	0x162
 1564 0202 02       		.byte	0x2
 1565 0203 23       		.byte	0x23
 1566 0204 00       		.uleb128 0x0
 1567 0205 0C       		.uleb128 0xc
 1568 0206 24040000 		.4byte	.LASF19
 1569 020a 07       		.byte	0x7
 1570 020b 4F       		.byte	0x4f
 1571 020c 82010000 		.4byte	0x182
 1572 0210 02       		.byte	0x2
 1573 0211 23       		.byte	0x23
 1574 0212 04       		.uleb128 0x4
 1575 0213 0D       		.uleb128 0xd
 1576 0214 70757400 		.ascii	"put\000"
 1577 0218 07       		.byte	0x7
 1578 0219 4F       		.byte	0x4f
 1579 021a 9D010000 		.4byte	0x19d
 1580 021e 02       		.byte	0x2
 1581 021f 23       		.byte	0x23
 1582 0220 08       		.uleb128 0x8
 1583 0221 0D       		.uleb128 0xd
 1584 0222 67657400 		.ascii	"get\000"
 1585 0226 07       		.byte	0x7
 1586 0227 4F       		.byte	0x4f
 1587 0228 DC000000 		.4byte	0xdc
 1588 022c 02       		.byte	0x2
 1589 022d 23       		.byte	0x23
 1590 022e 0C       		.uleb128 0xc
 1591 022f 0C       		.uleb128 0xc
 1592 0230 57020000 		.4byte	.LASF23
 1593 0234 07       		.byte	0x7
 1594 0235 4F       		.byte	0x4f
 1595 0236 82020000 		.4byte	0x282
 1596 023a 02       		.byte	0x2
 1597 023b 23       		.byte	0x23
 1598 023c 10       		.uleb128 0x10
 1599 023d 0C       		.uleb128 0xc
 1600 023e 0B020000 		.4byte	.LASF24
 1601 0242 07       		.byte	0x7
 1602 0243 4F       		.byte	0x4f
 1603 0244 9D020000 		.4byte	0x29d
 1604 0248 02       		.byte	0x2
 1605 0249 23       		.byte	0x23
 1606 024a 14       		.uleb128 0x14
 1607 024b 0C       		.uleb128 0xc
 1608 024c 25020000 		.4byte	.LASF25
 1609 0250 07       		.byte	0x7
 1610 0251 4F       		.byte	0x4f
 1611 0252 C2020000 		.4byte	0x2c2
ARM GAS  C:\Users\DNIEL~1\AppData\Local\Temp\cc7eP7WQ.s 			page 30


 1612 0256 02       		.byte	0x2
 1613 0257 23       		.byte	0x23
 1614 0258 18       		.uleb128 0x18
 1615 0259 0C       		.uleb128 0xc
 1616 025a BD000000 		.4byte	.LASF26
 1617 025e 07       		.byte	0x7
 1618 025f 4F       		.byte	0x4f
 1619 0260 E7020000 		.4byte	0x2e7
 1620 0264 02       		.byte	0x2
 1621 0265 23       		.byte	0x23
 1622 0266 1C       		.uleb128 0x1c
 1623 0267 00       		.byte	0x0
 1624 0268 09       		.uleb128 0x9
 1625 0269 01       		.byte	0x1
 1626 026a AD000000 		.4byte	0xad
 1627 026e 82020000 		.4byte	0x282
 1628 0272 0A       		.uleb128 0xa
 1629 0273 C3000000 		.4byte	0xc3
 1630 0277 0A       		.uleb128 0xa
 1631 0278 49000000 		.4byte	0x49
 1632 027c 0A       		.uleb128 0xa
 1633 027d B8000000 		.4byte	0xb8
 1634 0281 00       		.byte	0x0
 1635 0282 07       		.uleb128 0x7
 1636 0283 04       		.byte	0x4
 1637 0284 68020000 		.4byte	0x268
 1638 0288 09       		.uleb128 0x9
 1639 0289 01       		.byte	0x1
 1640 028a AD000000 		.4byte	0xad
 1641 028e 9D020000 		.4byte	0x29d
 1642 0292 0A       		.uleb128 0xa
 1643 0293 C3000000 		.4byte	0xc3
 1644 0297 0A       		.uleb128 0xa
 1645 0298 B8000000 		.4byte	0xb8
 1646 029c 00       		.byte	0x0
 1647 029d 07       		.uleb128 0x7
 1648 029e 04       		.byte	0x4
 1649 029f 88020000 		.4byte	0x288
 1650 02a3 09       		.uleb128 0x9
 1651 02a4 01       		.byte	0x1
 1652 02a5 30000000 		.4byte	0x30
 1653 02a9 C2020000 		.4byte	0x2c2
 1654 02ad 0A       		.uleb128 0xa
 1655 02ae C3000000 		.4byte	0xc3
 1656 02b2 0A       		.uleb128 0xa
 1657 02b3 57010000 		.4byte	0x157
 1658 02b7 0A       		.uleb128 0xa
 1659 02b8 30000000 		.4byte	0x30
 1660 02bc 0A       		.uleb128 0xa
 1661 02bd B8000000 		.4byte	0xb8
 1662 02c1 00       		.byte	0x0
 1663 02c2 07       		.uleb128 0x7
 1664 02c3 04       		.byte	0x4
 1665 02c4 A3020000 		.4byte	0x2a3
 1666 02c8 09       		.uleb128 0x9
 1667 02c9 01       		.byte	0x1
 1668 02ca 30000000 		.4byte	0x30
ARM GAS  C:\Users\DNIEL~1\AppData\Local\Temp\cc7eP7WQ.s 			page 31


 1669 02ce E7020000 		.4byte	0x2e7
 1670 02d2 0A       		.uleb128 0xa
 1671 02d3 C3000000 		.4byte	0xc3
 1672 02d7 0A       		.uleb128 0xa
 1673 02d8 F2000000 		.4byte	0xf2
 1674 02dc 0A       		.uleb128 0xa
 1675 02dd 30000000 		.4byte	0x30
 1676 02e1 0A       		.uleb128 0xa
 1677 02e2 B8000000 		.4byte	0xb8
 1678 02e6 00       		.byte	0x0
 1679 02e7 07       		.uleb128 0x7
 1680 02e8 04       		.byte	0x4
 1681 02e9 C8020000 		.4byte	0x2c8
 1682 02ed 0E       		.uleb128 0xe
 1683 02ee 04       		.byte	0x4
 1684 02ef 07       		.byte	0x7
 1685 02f0 59       		.byte	0x59
 1686 02f1 04030000 		.4byte	0x304
 1687 02f5 0D       		.uleb128 0xd
 1688 02f6 766D7400 		.ascii	"vmt\000"
 1689 02fa 07       		.byte	0x7
 1690 02fb 5B       		.byte	0x5b
 1691 02fc 04030000 		.4byte	0x304
 1692 0300 02       		.byte	0x2
 1693 0301 23       		.byte	0x23
 1694 0302 00       		.uleb128 0x0
 1695 0303 00       		.byte	0x0
 1696 0304 07       		.uleb128 0x7
 1697 0305 04       		.byte	0x4
 1698 0306 0A030000 		.4byte	0x30a
 1699 030a 08       		.uleb128 0x8
 1700 030b EB010000 		.4byte	0x1eb
 1701 030f 03       		.uleb128 0x3
 1702 0310 FA030000 		.4byte	.LASF27
 1703 0314 07       		.byte	0x7
 1704 0315 5D       		.byte	0x5d
 1705 0316 ED020000 		.4byte	0x2ed
 1706 031a 11       		.uleb128 0x11
 1707 031b 60       		.byte	0x60
 1708 031c 08       		.byte	0x8
 1709 031d 9E01     		.2byte	0x19e
 1710 031f 5D040000 		.4byte	0x45d
 1711 0323 12       		.uleb128 0x12
 1712 0324 43523100 		.ascii	"CR1\000"
 1713 0328 08       		.byte	0x8
 1714 0329 9F01     		.2byte	0x19f
 1715 032b C5000000 		.4byte	0xc5
 1716 032f 02       		.byte	0x2
 1717 0330 23       		.byte	0x23
 1718 0331 00       		.uleb128 0x0
 1719 0332 12       		.uleb128 0x12
 1720 0333 43523200 		.ascii	"CR2\000"
 1721 0337 08       		.byte	0x8
 1722 0338 A001     		.2byte	0x1a0
 1723 033a C5000000 		.4byte	0xc5
 1724 033e 02       		.byte	0x2
 1725 033f 23       		.byte	0x23
ARM GAS  C:\Users\DNIEL~1\AppData\Local\Temp\cc7eP7WQ.s 			page 32


 1726 0340 04       		.uleb128 0x4
 1727 0341 13       		.uleb128 0x13
 1728 0342 10020000 		.4byte	.LASF28
 1729 0346 08       		.byte	0x8
 1730 0347 A101     		.2byte	0x1a1
 1731 0349 C5000000 		.4byte	0xc5
 1732 034d 02       		.byte	0x2
 1733 034e 23       		.byte	0x23
 1734 034f 08       		.uleb128 0x8
 1735 0350 13       		.uleb128 0x13
 1736 0351 2D000000 		.4byte	.LASF29
 1737 0355 08       		.byte	0x8
 1738 0356 A201     		.2byte	0x1a2
 1739 0358 C5000000 		.4byte	0xc5
 1740 035c 02       		.byte	0x2
 1741 035d 23       		.byte	0x23
 1742 035e 0C       		.uleb128 0xc
 1743 035f 12       		.uleb128 0x12
 1744 0360 535200   		.ascii	"SR\000"
 1745 0363 08       		.byte	0x8
 1746 0364 A301     		.2byte	0x1a3
 1747 0366 C5000000 		.4byte	0xc5
 1748 036a 02       		.byte	0x2
 1749 036b 23       		.byte	0x23
 1750 036c 10       		.uleb128 0x10
 1751 036d 12       		.uleb128 0x12
 1752 036e 45475200 		.ascii	"EGR\000"
 1753 0372 08       		.byte	0x8
 1754 0373 A401     		.2byte	0x1a4
 1755 0375 C5000000 		.4byte	0xc5
 1756 0379 02       		.byte	0x2
 1757 037a 23       		.byte	0x23
 1758 037b 14       		.uleb128 0x14
 1759 037c 13       		.uleb128 0x13
 1760 037d C8000000 		.4byte	.LASF30
 1761 0381 08       		.byte	0x8
 1762 0382 A501     		.2byte	0x1a5
 1763 0384 C5000000 		.4byte	0xc5
 1764 0388 02       		.byte	0x2
 1765 0389 23       		.byte	0x23
 1766 038a 18       		.uleb128 0x18
 1767 038b 13       		.uleb128 0x13
 1768 038c CE000000 		.4byte	.LASF31
 1769 0390 08       		.byte	0x8
 1770 0391 A601     		.2byte	0x1a6
 1771 0393 C5000000 		.4byte	0xc5
 1772 0397 02       		.byte	0x2
 1773 0398 23       		.byte	0x23
 1774 0399 1C       		.uleb128 0x1c
 1775 039a 13       		.uleb128 0x13
 1776 039b 78010000 		.4byte	.LASF32
 1777 039f 08       		.byte	0x8
 1778 03a0 A701     		.2byte	0x1a7
 1779 03a2 C5000000 		.4byte	0xc5
 1780 03a6 02       		.byte	0x2
 1781 03a7 23       		.byte	0x23
 1782 03a8 20       		.uleb128 0x20
ARM GAS  C:\Users\DNIEL~1\AppData\Local\Temp\cc7eP7WQ.s 			page 33


 1783 03a9 12       		.uleb128 0x12
 1784 03aa 434E5400 		.ascii	"CNT\000"
 1785 03ae 08       		.byte	0x8
 1786 03af A801     		.2byte	0x1a8
 1787 03b1 C5000000 		.4byte	0xc5
 1788 03b5 02       		.byte	0x2
 1789 03b6 23       		.byte	0x23
 1790 03b7 24       		.uleb128 0x24
 1791 03b8 12       		.uleb128 0x12
 1792 03b9 50534300 		.ascii	"PSC\000"
 1793 03bd 08       		.byte	0x8
 1794 03be A901     		.2byte	0x1a9
 1795 03c0 C5000000 		.4byte	0xc5
 1796 03c4 02       		.byte	0x2
 1797 03c5 23       		.byte	0x23
 1798 03c6 28       		.uleb128 0x28
 1799 03c7 12       		.uleb128 0x12
 1800 03c8 41525200 		.ascii	"ARR\000"
 1801 03cc 08       		.byte	0x8
 1802 03cd AA01     		.2byte	0x1aa
 1803 03cf C5000000 		.4byte	0xc5
 1804 03d3 02       		.byte	0x2
 1805 03d4 23       		.byte	0x23
 1806 03d5 2C       		.uleb128 0x2c
 1807 03d6 12       		.uleb128 0x12
 1808 03d7 52435200 		.ascii	"RCR\000"
 1809 03db 08       		.byte	0x8
 1810 03dc AB01     		.2byte	0x1ab
 1811 03de C5000000 		.4byte	0xc5
 1812 03e2 02       		.byte	0x2
 1813 03e3 23       		.byte	0x23
 1814 03e4 30       		.uleb128 0x30
 1815 03e5 12       		.uleb128 0x12
 1816 03e6 43435200 		.ascii	"CCR\000"
 1817 03ea 08       		.byte	0x8
 1818 03eb AC01     		.2byte	0x1ac
 1819 03ed 5D040000 		.4byte	0x45d
 1820 03f1 02       		.byte	0x2
 1821 03f2 23       		.byte	0x23
 1822 03f3 34       		.uleb128 0x34
 1823 03f4 13       		.uleb128 0x13
 1824 03f5 A5000000 		.4byte	.LASF33
 1825 03f9 08       		.byte	0x8
 1826 03fa AD01     		.2byte	0x1ad
 1827 03fc C5000000 		.4byte	0xc5
 1828 0400 02       		.byte	0x2
 1829 0401 23       		.byte	0x23
 1830 0402 44       		.uleb128 0x44
 1831 0403 12       		.uleb128 0x12
 1832 0404 44435200 		.ascii	"DCR\000"
 1833 0408 08       		.byte	0x8
 1834 0409 AE01     		.2byte	0x1ae
 1835 040b C5000000 		.4byte	0xc5
 1836 040f 02       		.byte	0x2
 1837 0410 23       		.byte	0x23
 1838 0411 48       		.uleb128 0x48
 1839 0412 13       		.uleb128 0x13
ARM GAS  C:\Users\DNIEL~1\AppData\Local\Temp\cc7eP7WQ.s 			page 34


 1840 0413 56030000 		.4byte	.LASF34
 1841 0417 08       		.byte	0x8
 1842 0418 AF01     		.2byte	0x1af
 1843 041a C5000000 		.4byte	0xc5
 1844 041e 02       		.byte	0x2
 1845 041f 23       		.byte	0x23
 1846 0420 4C       		.uleb128 0x4c
 1847 0421 12       		.uleb128 0x12
 1848 0422 4F5200   		.ascii	"OR\000"
 1849 0425 08       		.byte	0x8
 1850 0426 B001     		.2byte	0x1b0
 1851 0428 C5000000 		.4byte	0xc5
 1852 042c 02       		.byte	0x2
 1853 042d 23       		.byte	0x23
 1854 042e 50       		.uleb128 0x50
 1855 042f 13       		.uleb128 0x13
 1856 0430 D4000000 		.4byte	.LASF35
 1857 0434 08       		.byte	0x8
 1858 0435 B101     		.2byte	0x1b1
 1859 0437 C5000000 		.4byte	0xc5
 1860 043b 02       		.byte	0x2
 1861 043c 23       		.byte	0x23
 1862 043d 54       		.uleb128 0x54
 1863 043e 13       		.uleb128 0x13
 1864 043f B2030000 		.4byte	.LASF36
 1865 0443 08       		.byte	0x8
 1866 0444 B201     		.2byte	0x1b2
 1867 0446 C5000000 		.4byte	0xc5
 1868 044a 02       		.byte	0x2
 1869 044b 23       		.byte	0x23
 1870 044c 58       		.uleb128 0x58
 1871 044d 13       		.uleb128 0x13
 1872 044e B7030000 		.4byte	.LASF37
 1873 0452 08       		.byte	0x8
 1874 0453 B301     		.2byte	0x1b3
 1875 0455 C5000000 		.4byte	0xc5
 1876 0459 02       		.byte	0x2
 1877 045a 23       		.byte	0x23
 1878 045b 5C       		.uleb128 0x5c
 1879 045c 00       		.byte	0x0
 1880 045d 06       		.uleb128 0x6
 1881 045e D0010000 		.4byte	0x1d0
 1882 0462 14       		.uleb128 0x14
 1883 0463 2C020000 		.4byte	.LASF38
 1884 0467 08       		.byte	0x8
 1885 0468 B401     		.2byte	0x1b4
 1886 046a 1A030000 		.4byte	0x31a
 1887 046e 07       		.uleb128 0x7
 1888 046f 04       		.byte	0x4
 1889 0470 62040000 		.4byte	0x462
 1890 0474 15       		.uleb128 0x15
 1891 0475 01       		.byte	0x1
 1892 0476 09       		.byte	0x9
 1893 0477 3C       		.byte	0x3c
 1894 0478 A1040000 		.4byte	0x4a1
 1895 047c 16       		.uleb128 0x16
 1896 047d 22000000 		.4byte	.LASF39
ARM GAS  C:\Users\DNIEL~1\AppData\Local\Temp\cc7eP7WQ.s 			page 35


 1897 0481 00       		.sleb128 0
 1898 0482 16       		.uleb128 0x16
 1899 0483 92020000 		.4byte	.LASF40
 1900 0487 01       		.sleb128 1
 1901 0488 16       		.uleb128 0x16
 1902 0489 47020000 		.4byte	.LASF41
 1903 048d 02       		.sleb128 2
 1904 048e 16       		.uleb128 0x16
 1905 048f 39000000 		.4byte	.LASF42
 1906 0493 03       		.sleb128 3
 1907 0494 16       		.uleb128 0x16
 1908 0495 45000000 		.4byte	.LASF43
 1909 0499 04       		.sleb128 4
 1910 049a 16       		.uleb128 0x16
 1911 049b B4000000 		.4byte	.LASF44
 1912 049f 05       		.sleb128 5
 1913 04a0 00       		.byte	0x0
 1914 04a1 03       		.uleb128 0x3
 1915 04a2 58000000 		.4byte	.LASF45
 1916 04a6 09       		.byte	0x9
 1917 04a7 43       		.byte	0x43
 1918 04a8 74040000 		.4byte	0x474
 1919 04ac 03       		.uleb128 0x3
 1920 04ad 1B020000 		.4byte	.LASF46
 1921 04b1 09       		.byte	0x9
 1922 04b2 48       		.byte	0x48
 1923 04b3 B7040000 		.4byte	0x4b7
 1924 04b7 17       		.uleb128 0x17
 1925 04b8 1B020000 		.4byte	.LASF46
 1926 04bc 18       		.byte	0x18
 1927 04bd 0A       		.byte	0xa
 1928 04be 3101     		.2byte	0x131
 1929 04c0 1F050000 		.4byte	0x51f
 1930 04c4 13       		.uleb128 0x13
 1931 04c5 5F010000 		.4byte	.LASF47
 1932 04c9 0A       		.byte	0xa
 1933 04ca 3501     		.2byte	0x135
 1934 04cc A1040000 		.4byte	0x4a1
 1935 04d0 02       		.byte	0x2
 1936 04d1 23       		.byte	0x23
 1937 04d2 00       		.uleb128 0x0
 1938 04d3 13       		.uleb128 0x13
 1939 04d4 4F030000 		.4byte	.LASF48
 1940 04d8 0A       		.byte	0xa
 1941 04d9 3901     		.2byte	0x139
 1942 04db 0C060000 		.4byte	0x60c
 1943 04df 02       		.byte	0x2
 1944 04e0 23       		.byte	0x23
 1945 04e1 04       		.uleb128 0x4
 1946 04e2 13       		.uleb128 0x13
 1947 04e3 47040000 		.4byte	.LASF49
 1948 04e7 0A       		.byte	0xa
 1949 04e8 4101     		.2byte	0x141
 1950 04ea 86000000 		.4byte	0x86
 1951 04ee 02       		.byte	0x2
 1952 04ef 23       		.byte	0x23
 1953 04f0 08       		.uleb128 0x8
ARM GAS  C:\Users\DNIEL~1\AppData\Local\Temp\cc7eP7WQ.s 			page 36


 1954 04f1 12       		.uleb128 0x12
 1955 04f2 74696D00 		.ascii	"tim\000"
 1956 04f6 0A       		.byte	0xa
 1957 04f7 4501     		.2byte	0x145
 1958 04f9 6E040000 		.4byte	0x46e
 1959 04fd 02       		.byte	0x2
 1960 04fe 23       		.byte	0x23
 1961 04ff 0C       		.uleb128 0xc
 1962 0500 13       		.uleb128 0x13
 1963 0501 52040000 		.4byte	.LASF50
 1964 0505 0A       		.byte	0xa
 1965 0506 4901     		.2byte	0x149
 1966 0508 E5010000 		.4byte	0x1e5
 1967 050c 02       		.byte	0x2
 1968 050d 23       		.byte	0x23
 1969 050e 10       		.uleb128 0x10
 1970 050f 13       		.uleb128 0x13
 1971 0510 A5010000 		.4byte	.LASF51
 1972 0514 0A       		.byte	0xa
 1973 0515 4D01     		.2byte	0x14d
 1974 0517 E5010000 		.4byte	0x1e5
 1975 051b 02       		.byte	0x2
 1976 051c 23       		.byte	0x23
 1977 051d 14       		.uleb128 0x14
 1978 051e 00       		.byte	0x0
 1979 051f 03       		.uleb128 0x3
 1980 0520 E5010000 		.4byte	.LASF52
 1981 0524 09       		.byte	0x9
 1982 0525 4F       		.byte	0x4f
 1983 0526 2A050000 		.4byte	0x52a
 1984 052a 07       		.uleb128 0x7
 1985 052b 04       		.byte	0x4
 1986 052c 30050000 		.4byte	0x530
 1987 0530 18       		.uleb128 0x18
 1988 0531 01       		.byte	0x1
 1989 0532 3C050000 		.4byte	0x53c
 1990 0536 0A       		.uleb128 0xa
 1991 0537 3C050000 		.4byte	0x53c
 1992 053b 00       		.byte	0x0
 1993 053c 07       		.uleb128 0x7
 1994 053d 04       		.byte	0x4
 1995 053e AC040000 		.4byte	0x4ac
 1996 0542 15       		.uleb128 0x15
 1997 0543 01       		.byte	0x1
 1998 0544 0A       		.byte	0xa
 1999 0545 EE       		.byte	0xee
 2000 0546 57050000 		.4byte	0x557
 2001 054a 16       		.uleb128 0x16
 2002 054b 00000000 		.4byte	.LASF53
 2003 054f 00       		.sleb128 0
 2004 0550 16       		.uleb128 0x16
 2005 0551 9B020000 		.4byte	.LASF54
 2006 0555 01       		.sleb128 1
 2007 0556 00       		.byte	0x0
 2008 0557 03       		.uleb128 0x3
 2009 0558 05030000 		.4byte	.LASF55
 2010 055c 0A       		.byte	0xa
ARM GAS  C:\Users\DNIEL~1\AppData\Local\Temp\cc7eP7WQ.s 			page 37


 2011 055d F1       		.byte	0xf1
 2012 055e 42050000 		.4byte	0x542
 2013 0562 03       		.uleb128 0x3
 2014 0563 86030000 		.4byte	.LASF56
 2015 0567 0A       		.byte	0xa
 2016 0568 F6       		.byte	0xf6
 2017 0569 86000000 		.4byte	0x86
 2018 056d 15       		.uleb128 0x15
 2019 056e 01       		.byte	0x1
 2020 056f 0A       		.byte	0xa
 2021 0570 FB       		.byte	0xfb
 2022 0571 82050000 		.4byte	0x582
 2023 0575 16       		.uleb128 0x16
 2024 0576 D6030000 		.4byte	.LASF57
 2025 057a 00       		.sleb128 0
 2026 057b 16       		.uleb128 0x16
 2027 057c E4030000 		.4byte	.LASF58
 2028 0580 01       		.sleb128 1
 2029 0581 00       		.byte	0x0
 2030 0582 03       		.uleb128 0x3
 2031 0583 27030000 		.4byte	.LASF59
 2032 0587 0A       		.byte	0xa
 2033 0588 FE       		.byte	0xfe
 2034 0589 6D050000 		.4byte	0x56d
 2035 058d 11       		.uleb128 0x11
 2036 058e 1C       		.byte	0x1c
 2037 058f 0A       		.byte	0xa
 2038 0590 0901     		.2byte	0x109
 2039 0592 00060000 		.4byte	0x600
 2040 0596 13       		.uleb128 0x13
 2041 0597 4A030000 		.4byte	.LASF60
 2042 059b 0A       		.byte	0xa
 2043 059c 0D01     		.2byte	0x10d
 2044 059e 57050000 		.4byte	0x557
 2045 05a2 02       		.byte	0x2
 2046 05a3 23       		.byte	0x23
 2047 05a4 00       		.uleb128 0x0
 2048 05a5 13       		.uleb128 0x13
 2049 05a6 AA000000 		.4byte	.LASF61
 2050 05aa 0A       		.byte	0xa
 2051 05ab 1301     		.2byte	0x113
 2052 05ad 62050000 		.4byte	0x562
 2053 05b1 02       		.byte	0x2
 2054 05b2 23       		.byte	0x23
 2055 05b3 04       		.uleb128 0x4
 2056 05b4 13       		.uleb128 0x13
 2057 05b5 7D020000 		.4byte	.LASF62
 2058 05b9 0A       		.byte	0xa
 2059 05ba 1701     		.2byte	0x117
 2060 05bc 1F050000 		.4byte	0x51f
 2061 05c0 02       		.byte	0x2
 2062 05c1 23       		.byte	0x23
 2063 05c2 08       		.uleb128 0x8
 2064 05c3 13       		.uleb128 0x13
 2065 05c4 01020000 		.4byte	.LASF63
 2066 05c8 0A       		.byte	0xa
 2067 05c9 1B01     		.2byte	0x11b
ARM GAS  C:\Users\DNIEL~1\AppData\Local\Temp\cc7eP7WQ.s 			page 38


 2068 05cb 1F050000 		.4byte	0x51f
 2069 05cf 02       		.byte	0x2
 2070 05d0 23       		.byte	0x23
 2071 05d1 0C       		.uleb128 0xc
 2072 05d2 13       		.uleb128 0x13
 2073 05d3 16000000 		.4byte	.LASF64
 2074 05d7 0A       		.byte	0xa
 2075 05d8 1F01     		.2byte	0x11f
 2076 05da 1F050000 		.4byte	0x51f
 2077 05de 02       		.byte	0x2
 2078 05df 23       		.byte	0x23
 2079 05e0 10       		.uleb128 0x10
 2080 05e1 13       		.uleb128 0x13
 2081 05e2 34030000 		.4byte	.LASF65
 2082 05e6 0A       		.byte	0xa
 2083 05e7 2501     		.2byte	0x125
 2084 05e9 82050000 		.4byte	0x582
 2085 05ed 02       		.byte	0x2
 2086 05ee 23       		.byte	0x23
 2087 05ef 14       		.uleb128 0x14
 2088 05f0 13       		.uleb128 0x13
 2089 05f1 64040000 		.4byte	.LASF66
 2090 05f5 0A       		.byte	0xa
 2091 05f6 2B01     		.2byte	0x12b
 2092 05f8 86000000 		.4byte	0x86
 2093 05fc 02       		.byte	0x2
 2094 05fd 23       		.byte	0x23
 2095 05fe 18       		.uleb128 0x18
 2096 05ff 00       		.byte	0x0
 2097 0600 14       		.uleb128 0x14
 2098 0601 9B010000 		.4byte	.LASF67
 2099 0605 0A       		.byte	0xa
 2100 0606 2C01     		.2byte	0x12c
 2101 0608 8D050000 		.4byte	0x58d
 2102 060c 07       		.uleb128 0x7
 2103 060d 04       		.byte	0x4
 2104 060e 12060000 		.4byte	0x612
 2105 0612 08       		.uleb128 0x8
 2106 0613 00060000 		.4byte	0x600
 2107 0617 03       		.uleb128 0x3
 2108 0618 6E020000 		.4byte	.LASF68
 2109 061c 0B       		.byte	0xb
 2110 061d 28       		.byte	0x28
 2111 061e 22060000 		.4byte	0x622
 2112 0622 0B       		.uleb128 0xb
 2113 0623 6E010000 		.4byte	.LASF69
 2114 0627 04       		.byte	0x4
 2115 0628 0C       		.byte	0xc
 2116 0629 00       		.byte	0x0
 2117 062a 3C060000 		.4byte	0x63c
 2118 062e 19       		.uleb128 0x19
 2119 062f 6E030000 		.4byte	.LASF103
 2120 0633 C3000000 		.4byte	0xc3
 2121 0637 02       		.byte	0x2
 2122 0638 23       		.byte	0x23
 2123 0639 00       		.uleb128 0x0
 2124 063a 01       		.byte	0x1
ARM GAS  C:\Users\DNIEL~1\AppData\Local\Temp\cc7eP7WQ.s 			page 39


 2125 063b 00       		.byte	0x0
 2126 063c 03       		.uleb128 0x3
 2127 063d 50000000 		.4byte	.LASF70
 2128 0641 0B       		.byte	0xb
 2129 0642 66       		.byte	0x66
 2130 0643 17060000 		.4byte	0x617
 2131 0647 1A       		.uleb128 0x1a
 2132 0648 B0020000 		.4byte	.LASF71
 2133 064c 01       		.byte	0x1
 2134 064d 5A       		.byte	0x5a
 2135 064e 01       		.byte	0x1
 2136 064f 00000000 		.4byte	.LFB120
 2137 0653 18000000 		.4byte	.LFE120
 2138 0657 02       		.byte	0x2
 2139 0658 7D       		.byte	0x7d
 2140 0659 00       		.sleb128 0
 2141 065a 6E060000 		.4byte	0x66e
 2142 065e 1B       		.uleb128 0x1b
 2143 065f DA020000 		.4byte	.LASF73
 2144 0663 01       		.byte	0x1
 2145 0664 5A       		.byte	0x5a
 2146 0665 3C050000 		.4byte	0x53c
 2147 0669 00000000 		.4byte	.LLST0
 2148 066d 00       		.byte	0x0
 2149 066e 1C       		.uleb128 0x1c
 2150 066f 69040000 		.4byte	.LASF72
 2151 0673 02       		.byte	0x2
 2152 0674 45       		.byte	0x45
 2153 0675 01       		.byte	0x1
 2154 0676 00000000 		.4byte	.LFB118
 2155 067a 1E000000 		.4byte	.LFE118
 2156 067e 13000000 		.4byte	.LLST1
 2157 0682 B2060000 		.4byte	0x6b2
 2158 0686 1D       		.uleb128 0x1d
 2159 0687 63687000 		.ascii	"chp\000"
 2160 068b 02       		.byte	0x2
 2161 068c 45       		.byte	0x45
 2162 068d B2060000 		.4byte	0x6b2
 2163 0691 4B000000 		.4byte	.LLST2
 2164 0695 1E       		.uleb128 0x1e
 2165 0696 666D7400 		.ascii	"fmt\000"
 2166 069a 02       		.byte	0x2
 2167 069b 45       		.byte	0x45
 2168 069c CA000000 		.4byte	0xca
 2169 06a0 02       		.byte	0x2
 2170 06a1 91       		.byte	0x91
 2171 06a2 74       		.sleb128 -12
 2172 06a3 1F       		.uleb128 0x1f
 2173 06a4 20       		.uleb128 0x20
 2174 06a5 617000   		.ascii	"ap\000"
 2175 06a8 02       		.byte	0x2
 2176 06a9 46       		.byte	0x46
 2177 06aa 3C060000 		.4byte	0x63c
 2178 06ae 02       		.byte	0x2
 2179 06af 91       		.byte	0x91
 2180 06b0 6C       		.sleb128 -20
 2181 06b1 00       		.byte	0x0
ARM GAS  C:\Users\DNIEL~1\AppData\Local\Temp\cc7eP7WQ.s 			page 40


 2182 06b2 07       		.uleb128 0x7
 2183 06b3 04       		.byte	0x4
 2184 06b4 C5010000 		.4byte	0x1c5
 2185 06b8 21       		.uleb128 0x21
 2186 06b9 01       		.byte	0x1
 2187 06ba 01010000 		.4byte	.LASF74
 2188 06be 01       		.byte	0x1
 2189 06bf 60       		.byte	0x60
 2190 06c0 01       		.byte	0x1
 2191 06c1 00000000 		.4byte	.LFB121
 2192 06c5 34000000 		.4byte	.LFE121
 2193 06c9 5E000000 		.4byte	.LLST3
 2194 06cd 22       		.uleb128 0x22
 2195 06ce 01       		.byte	0x1
 2196 06cf BC030000 		.4byte	.LASF75
 2197 06d3 01       		.byte	0x1
 2198 06d4 6C       		.byte	0x6c
 2199 06d5 01       		.byte	0x1
 2200 06d6 00000000 		.4byte	.LFB122
 2201 06da 02000000 		.4byte	.LFE122
 2202 06de 02       		.byte	0x2
 2203 06df 7D       		.byte	0x7d
 2204 06e0 00       		.sleb128 0
 2205 06e1 23       		.uleb128 0x23
 2206 06e2 01       		.byte	0x1
 2207 06e3 C7020000 		.4byte	.LASF76
 2208 06e7 01       		.byte	0x1
 2209 06e8 99       		.byte	0x99
 2210 06e9 01       		.byte	0x1
 2211 06ea 86000000 		.4byte	0x86
 2212 06ee 00000000 		.4byte	.LFB123
 2213 06f2 18000000 		.4byte	.LFE123
 2214 06f6 02       		.byte	0x2
 2215 06f7 7D       		.byte	0x7d
 2216 06f8 00       		.sleb128 0
 2217 06f9 41070000 		.4byte	0x741
 2218 06fd 20       		.uleb128 0x20
 2219 06fe 746D7000 		.ascii	"tmp\000"
 2220 0702 01       		.byte	0x1
 2221 0703 9A       		.byte	0x9a
 2222 0704 86000000 		.4byte	0x86
 2223 0708 05       		.byte	0x5
 2224 0709 03       		.byte	0x3
 2225 070a 00000000 		.4byte	speed_last_period
 2226 070e 24       		.uleb128 0x24
 2227 070f 00000000 		.4byte	.LBB2
 2228 0713 06000000 		.4byte	.LBE2
 2229 0717 2B070000 		.4byte	0x72b
 2230 071b 25       		.uleb128 0x25
 2231 071c 746D7000 		.ascii	"tmp\000"
 2232 0720 01       		.byte	0x1
 2233 0721 9C       		.byte	0x9c
 2234 0722 86000000 		.4byte	0x86
 2235 0726 7E000000 		.4byte	.LLST4
 2236 072a 00       		.byte	0x0
 2237 072b 26       		.uleb128 0x26
 2238 072c 00000000 		.4byte	.Ldebug_ranges0+0x0
ARM GAS  C:\Users\DNIEL~1\AppData\Local\Temp\cc7eP7WQ.s 			page 41


 2239 0730 25       		.uleb128 0x25
 2240 0731 746D7000 		.ascii	"tmp\000"
 2241 0735 01       		.byte	0x1
 2242 0736 9E       		.byte	0x9e
 2243 0737 86000000 		.4byte	0x86
 2244 073b 91000000 		.4byte	.LLST5
 2245 073f 00       		.byte	0x0
 2246 0740 00       		.byte	0x0
 2247 0741 23       		.uleb128 0x23
 2248 0742 01       		.byte	0x1
 2249 0743 0B010000 		.4byte	.LASF77
 2250 0747 01       		.byte	0x1
 2251 0748 A2       		.byte	0xa2
 2252 0749 01       		.byte	0x1
 2253 074a 86000000 		.4byte	0x86
 2254 074e 00000000 		.4byte	.LFB124
 2255 0752 18000000 		.4byte	.LFE124
 2256 0756 02       		.byte	0x2
 2257 0757 7D       		.byte	0x7d
 2258 0758 00       		.sleb128 0
 2259 0759 A1070000 		.4byte	0x7a1
 2260 075d 27       		.uleb128 0x27
 2261 075e C3000000 		.4byte	.LASF78
 2262 0762 01       		.byte	0x1
 2263 0763 A3       		.byte	0xa3
 2264 0764 86000000 		.4byte	0x86
 2265 0768 05       		.byte	0x5
 2266 0769 03       		.byte	0x3
 2267 076a 00000000 		.4byte	speed_period_num
 2268 076e 24       		.uleb128 0x24
 2269 076f 00000000 		.4byte	.LBB5
 2270 0773 06000000 		.4byte	.LBE5
 2271 0777 8B070000 		.4byte	0x78b
 2272 077b 25       		.uleb128 0x25
 2273 077c 746D7000 		.ascii	"tmp\000"
 2274 0780 01       		.byte	0x1
 2275 0781 A5       		.byte	0xa5
 2276 0782 86000000 		.4byte	0x86
 2277 0786 A4000000 		.4byte	.LLST6
 2278 078a 00       		.byte	0x0
 2279 078b 26       		.uleb128 0x26
 2280 078c 18000000 		.4byte	.Ldebug_ranges0+0x18
 2281 0790 25       		.uleb128 0x25
 2282 0791 746D7000 		.ascii	"tmp\000"
 2283 0795 01       		.byte	0x1
 2284 0796 A7       		.byte	0xa7
 2285 0797 86000000 		.4byte	0x86
 2286 079b B7000000 		.4byte	.LLST7
 2287 079f 00       		.byte	0x0
 2288 07a0 00       		.byte	0x0
 2289 07a1 28       		.uleb128 0x28
 2290 07a2 01       		.byte	0x1
 2291 07a3 58040000 		.4byte	.LASF79
 2292 07a7 01       		.byte	0x1
 2293 07a8 AB       		.byte	0xab
 2294 07a9 01       		.byte	0x1
 2295 07aa 86000000 		.4byte	0x86
ARM GAS  C:\Users\DNIEL~1\AppData\Local\Temp\cc7eP7WQ.s 			page 42


 2296 07ae 00000000 		.4byte	.LFB125
 2297 07b2 20000000 		.4byte	.LFE125
 2298 07b6 CA000000 		.4byte	.LLST8
 2299 07ba 00080000 		.4byte	0x800
 2300 07be 29       		.uleb128 0x29
 2301 07bf 746D7000 		.ascii	"tmp\000"
 2302 07c3 01       		.byte	0x1
 2303 07c4 AC       		.byte	0xac
 2304 07c5 86000000 		.4byte	0x86
 2305 07c9 24       		.uleb128 0x24
 2306 07ca 02000000 		.4byte	.LBB8
 2307 07ce 08000000 		.4byte	.LBE8
 2308 07d2 E6070000 		.4byte	0x7e6
 2309 07d6 25       		.uleb128 0x25
 2310 07d7 746D7000 		.ascii	"tmp\000"
 2311 07db 01       		.byte	0x1
 2312 07dc AE       		.byte	0xae
 2313 07dd 86000000 		.4byte	0x86
 2314 07e1 EA000000 		.4byte	.LLST9
 2315 07e5 00       		.byte	0x0
 2316 07e6 2A       		.uleb128 0x2a
 2317 07e7 12000000 		.4byte	.LBB9
 2318 07eb 18000000 		.4byte	.LBE9
 2319 07ef 25       		.uleb128 0x25
 2320 07f0 746D7000 		.ascii	"tmp\000"
 2321 07f4 01       		.byte	0x1
 2322 07f5 B0       		.byte	0xb0
 2323 07f6 86000000 		.4byte	0x86
 2324 07fa FD000000 		.4byte	.LLST10
 2325 07fe 00       		.byte	0x0
 2326 07ff 00       		.byte	0x0
 2327 0800 28       		.uleb128 0x28
 2328 0801 01       		.byte	0x1
 2329 0802 F3010000 		.4byte	.LASF80
 2330 0806 01       		.byte	0x1
 2331 0807 B4       		.byte	0xb4
 2332 0808 01       		.byte	0x1
 2333 0809 86000000 		.4byte	0x86
 2334 080d 00000000 		.4byte	.LFB126
 2335 0811 20000000 		.4byte	.LFE126
 2336 0815 10010000 		.4byte	.LLST11
 2337 0819 5F080000 		.4byte	0x85f
 2338 081d 29       		.uleb128 0x29
 2339 081e 746D7000 		.ascii	"tmp\000"
 2340 0822 01       		.byte	0x1
 2341 0823 B5       		.byte	0xb5
 2342 0824 86000000 		.4byte	0x86
 2343 0828 24       		.uleb128 0x24
 2344 0829 02000000 		.4byte	.LBB10
 2345 082d 08000000 		.4byte	.LBE10
 2346 0831 45080000 		.4byte	0x845
 2347 0835 25       		.uleb128 0x25
 2348 0836 746D7000 		.ascii	"tmp\000"
 2349 083a 01       		.byte	0x1
 2350 083b B7       		.byte	0xb7
 2351 083c 86000000 		.4byte	0x86
 2352 0840 30010000 		.4byte	.LLST12
ARM GAS  C:\Users\DNIEL~1\AppData\Local\Temp\cc7eP7WQ.s 			page 43


 2353 0844 00       		.byte	0x0
 2354 0845 2A       		.uleb128 0x2a
 2355 0846 12000000 		.4byte	.LBB11
 2356 084a 18000000 		.4byte	.LBE11
 2357 084e 25       		.uleb128 0x25
 2358 084f 746D7000 		.ascii	"tmp\000"
 2359 0853 01       		.byte	0x1
 2360 0854 B9       		.byte	0xb9
 2361 0855 86000000 		.4byte	0x86
 2362 0859 43010000 		.4byte	.LLST13
 2363 085d 00       		.byte	0x0
 2364 085e 00       		.byte	0x0
 2365 085f 28       		.uleb128 0x28
 2366 0860 01       		.byte	0x1
 2367 0861 E6000000 		.4byte	.LASF81
 2368 0865 01       		.byte	0x1
 2369 0866 BD       		.byte	0xbd
 2370 0867 01       		.byte	0x1
 2371 0868 86000000 		.4byte	0x86
 2372 086c 00000000 		.4byte	.LFB127
 2373 0870 58000000 		.4byte	.LFE127
 2374 0874 56010000 		.4byte	.LLST14
 2375 0878 D1080000 		.4byte	0x8d1
 2376 087c 1D       		.uleb128 0x1d
 2377 087d 72706D00 		.ascii	"rpm\000"
 2378 0881 01       		.byte	0x1
 2379 0882 BD       		.byte	0xbd
 2380 0883 D1080000 		.4byte	0x8d1
 2381 0887 76010000 		.4byte	.LLST15
 2382 088b 25       		.uleb128 0x25
 2383 088c 746D7000 		.ascii	"tmp\000"
 2384 0890 01       		.byte	0x1
 2385 0891 BE       		.byte	0xbe
 2386 0892 86000000 		.4byte	0x86
 2387 0896 8E010000 		.4byte	.LLST16
 2388 089a 24       		.uleb128 0x24
 2389 089b 02000000 		.4byte	.LBB12
 2390 089f 08000000 		.4byte	.LBE12
 2391 08a3 B7080000 		.4byte	0x8b7
 2392 08a7 25       		.uleb128 0x25
 2393 08a8 746D7000 		.ascii	"tmp\000"
 2394 08ac 01       		.byte	0x1
 2395 08ad C0       		.byte	0xc0
 2396 08ae 86000000 		.4byte	0x86
 2397 08b2 D1010000 		.4byte	.LLST17
 2398 08b6 00       		.byte	0x0
 2399 08b7 2A       		.uleb128 0x2a
 2400 08b8 3C000000 		.4byte	.LBB13
 2401 08bc 42000000 		.4byte	.LBE13
 2402 08c0 25       		.uleb128 0x25
 2403 08c1 746D7000 		.ascii	"tmp\000"
 2404 08c5 01       		.byte	0x1
 2405 08c6 CB       		.byte	0xcb
 2406 08c7 86000000 		.4byte	0x86
 2407 08cb E4010000 		.4byte	.LLST18
 2408 08cf 00       		.byte	0x0
 2409 08d0 00       		.byte	0x0
ARM GAS  C:\Users\DNIEL~1\AppData\Local\Temp\cc7eP7WQ.s 			page 44


 2410 08d1 04       		.uleb128 0x4
 2411 08d2 08       		.byte	0x8
 2412 08d3 04       		.byte	0x4
 2413 08d4 94010000 		.4byte	.LASF82
 2414 08d8 1C       		.uleb128 0x1c
 2415 08d9 9F030000 		.4byte	.LASF83
 2416 08dd 01       		.byte	0x1
 2417 08de 2C       		.byte	0x2c
 2418 08df 01       		.byte	0x1
 2419 08e0 00000000 		.4byte	.LFB119
 2420 08e4 54010000 		.4byte	.LFE119
 2421 08e8 F7010000 		.4byte	.LLST19
 2422 08ec 0D090000 		.4byte	0x90d
 2423 08f0 1B       		.uleb128 0x1b
 2424 08f1 DA020000 		.4byte	.LASF73
 2425 08f5 01       		.byte	0x1
 2426 08f6 2C       		.byte	0x2c
 2427 08f7 3C050000 		.4byte	0x53c
 2428 08fb 17020000 		.4byte	.LLST20
 2429 08ff 25       		.uleb128 0x25
 2430 0900 6900     		.ascii	"i\000"
 2431 0902 01       		.byte	0x1
 2432 0903 2D       		.byte	0x2d
 2433 0904 29000000 		.4byte	0x29
 2434 0908 2A020000 		.4byte	.LLST21
 2435 090c 00       		.byte	0x0
 2436 090d 28       		.uleb128 0x28
 2437 090e 01       		.byte	0x1
 2438 090f 06040000 		.4byte	.LASF84
 2439 0913 01       		.byte	0x1
 2440 0914 D0       		.byte	0xd0
 2441 0915 01       		.byte	0x1
 2442 0916 86000000 		.4byte	0x86
 2443 091a 00000000 		.4byte	.LFB128
 2444 091e 5C000000 		.4byte	.LFE128
 2445 0922 3E020000 		.4byte	.LLST22
 2446 0926 7F090000 		.4byte	0x97f
 2447 092a 1B       		.uleb128 0x1b
 2448 092b 17040000 		.4byte	.LASF85
 2449 092f 01       		.byte	0x1
 2450 0930 D0       		.byte	0xd0
 2451 0931 D1080000 		.4byte	0x8d1
 2452 0935 5E020000 		.4byte	.LLST23
 2453 0939 25       		.uleb128 0x25
 2454 093a 746D7000 		.ascii	"tmp\000"
 2455 093e 01       		.byte	0x1
 2456 093f D1       		.byte	0xd1
 2457 0940 86000000 		.4byte	0x86
 2458 0944 76020000 		.4byte	.LLST24
 2459 0948 24       		.uleb128 0x24
 2460 0949 02000000 		.4byte	.LBB14
 2461 094d 08000000 		.4byte	.LBE14
 2462 0951 65090000 		.4byte	0x965
 2463 0955 25       		.uleb128 0x25
 2464 0956 746D7000 		.ascii	"tmp\000"
 2465 095a 01       		.byte	0x1
 2466 095b D3       		.byte	0xd3
ARM GAS  C:\Users\DNIEL~1\AppData\Local\Temp\cc7eP7WQ.s 			page 45


 2467 095c 86000000 		.4byte	0x86
 2468 0960 AA020000 		.4byte	.LLST25
 2469 0964 00       		.byte	0x0
 2470 0965 2A       		.uleb128 0x2a
 2471 0966 3C000000 		.4byte	.LBB15
 2472 096a 42000000 		.4byte	.LBE15
 2473 096e 25       		.uleb128 0x25
 2474 096f 746D7000 		.ascii	"tmp\000"
 2475 0973 01       		.byte	0x1
 2476 0974 DE       		.byte	0xde
 2477 0975 86000000 		.4byte	0x86
 2478 0979 BD020000 		.4byte	.LLST26
 2479 097d 00       		.byte	0x0
 2480 097e 00       		.byte	0x0
 2481 097f 2B       		.uleb128 0x2b
 2482 0980 01       		.byte	0x1
 2483 0981 C6030000 		.4byte	.LASF104
 2484 0985 01       		.byte	0x1
 2485 0986 E3       		.byte	0xe3
 2486 0987 01       		.byte	0x1
 2487 0988 00000000 		.4byte	.LFB129
 2488 098c B0000000 		.4byte	.LFE129
 2489 0990 D0020000 		.4byte	.LLST27
 2490 0994 C6090000 		.4byte	0x9c6
 2491 0998 1D       		.uleb128 0x1d
 2492 0999 63687000 		.ascii	"chp\000"
 2493 099d 01       		.byte	0x1
 2494 099e E3       		.byte	0xe3
 2495 099f B2060000 		.4byte	0x6b2
 2496 09a3 F0020000 		.4byte	.LLST28
 2497 09a7 1B       		.uleb128 0x1b
 2498 09a8 29040000 		.4byte	.LASF86
 2499 09ac 01       		.byte	0x1
 2500 09ad E3       		.byte	0xe3
 2501 09ae 29000000 		.4byte	0x29
 2502 09b2 0E030000 		.4byte	.LLST29
 2503 09b6 1B       		.uleb128 0x1b
 2504 09b7 4D040000 		.4byte	.LASF87
 2505 09bb 01       		.byte	0x1
 2506 09bc E3       		.byte	0xe3
 2507 09bd C6090000 		.4byte	0x9c6
 2508 09c1 21030000 		.4byte	.LLST30
 2509 09c5 00       		.byte	0x0
 2510 09c6 07       		.uleb128 0x7
 2511 09c7 04       		.byte	0x4
 2512 09c8 CC090000 		.4byte	0x9cc
 2513 09cc 07       		.uleb128 0x7
 2514 09cd 04       		.byte	0x4
 2515 09ce D5000000 		.4byte	0xd5
 2516 09d2 2C       		.uleb128 0x2c
 2517 09d3 98000000 		.4byte	.LASF88
 2518 09d7 0D       		.byte	0xd
 2519 09d8 9806     		.2byte	0x698
 2520 09da E0010000 		.4byte	0x1e0
 2521 09de 01       		.byte	0x1
 2522 09df 01       		.byte	0x1
 2523 09e0 2C       		.uleb128 0x2c
ARM GAS  C:\Users\DNIEL~1\AppData\Local\Temp\cc7eP7WQ.s 			page 46


 2524 09e1 CD010000 		.4byte	.LASF89
 2525 09e5 0A       		.byte	0xa
 2526 09e6 7101     		.2byte	0x171
 2527 09e8 AC040000 		.4byte	0x4ac
 2528 09ec 01       		.byte	0x1
 2529 09ed 01       		.byte	0x1
 2530 09ee 0F       		.uleb128 0xf
 2531 09ef D1080000 		.4byte	0x8d1
 2532 09f3 FE090000 		.4byte	0x9fe
 2533 09f7 10       		.uleb128 0x10
 2534 09f8 3B000000 		.4byte	0x3b
 2535 09fc 2F       		.byte	0x2f
 2536 09fd 00       		.byte	0x0
 2537 09fe 27       		.uleb128 0x27
 2538 09ff 8B010000 		.4byte	.LASF90
 2539 0a03 01       		.byte	0x1
 2540 0a04 12       		.byte	0x12
 2541 0a05 EE090000 		.4byte	0x9ee
 2542 0a09 05       		.byte	0x5
 2543 0a0a 03       		.byte	0x3
 2544 0a0b 00000000 		.4byte	rpm_buff
 2545 0a0f 27       		.uleb128 0x27
 2546 0a10 F7000000 		.4byte	.LASF91
 2547 0a14 01       		.byte	0x1
 2548 0a15 14       		.byte	0x14
 2549 0a16 62000000 		.4byte	0x62
 2550 0a1a 05       		.byte	0x5
 2551 0a1b 03       		.byte	0x3
 2552 0a1c 00000000 		.4byte	rpm_index
 2553 0a20 27       		.uleb128 0x27
 2554 0a21 40040000 		.4byte	.LASF92
 2555 0a25 01       		.byte	0x1
 2556 0a26 19       		.byte	0x19
 2557 0a27 00060000 		.4byte	0x600
 2558 0a2b 05       		.byte	0x5
 2559 0a2c 03       		.byte	0x3
 2560 0a2d 00000000 		.4byte	icucfg
 2561 0a31 27       		.uleb128 0x27
 2562 0a32 2E040000 		.4byte	.LASF93
 2563 0a36 01       		.byte	0x1
 2564 0a37 23       		.byte	0x23
 2565 0a38 86000000 		.4byte	0x86
 2566 0a3c 05       		.byte	0x5
 2567 0a3d 03       		.byte	0x3
 2568 0a3e 00000000 		.4byte	speed_last_period
 2569 0a42 27       		.uleb128 0x27
 2570 0a43 7A000000 		.4byte	.LASF94
 2571 0a47 01       		.byte	0x1
 2572 0a48 24       		.byte	0x24
 2573 0a49 86000000 		.4byte	0x86
 2574 0a4d 05       		.byte	0x5
 2575 0a4e 03       		.byte	0x3
 2576 0a4f 00000000 		.4byte	speed_period_num
 2577 0a53 27       		.uleb128 0x27
 2578 0a54 5C020000 		.4byte	.LASF95
 2579 0a58 01       		.byte	0x1
 2580 0a59 25       		.byte	0x25
ARM GAS  C:\Users\DNIEL~1\AppData\Local\Temp\cc7eP7WQ.s 			page 47


 2581 0a5a 86000000 		.4byte	0x86
 2582 0a5e 05       		.byte	0x5
 2583 0a5f 03       		.byte	0x3
 2584 0a60 00000000 		.4byte	speed_zero_period
 2585 0a64 27       		.uleb128 0x27
 2586 0a65 65030000 		.4byte	.LASF96
 2587 0a69 01       		.byte	0x1
 2588 0a6a 27       		.byte	0x27
 2589 0a6b D1080000 		.4byte	0x8d1
 2590 0a6f 05       		.byte	0x5
 2591 0a70 03       		.byte	0x3
 2592 0a71 00000000 		.4byte	rotation
 2593 0a75 27       		.uleb128 0x27
 2594 0a76 8B000000 		.4byte	.LASF97
 2595 0a7a 01       		.byte	0x1
 2596 0a7b 28       		.byte	0x28
 2597 0a7c D1080000 		.4byte	0x8d1
 2598 0a80 05       		.byte	0x5
 2599 0a81 03       		.byte	0x3
 2600 0a82 00000000 		.4byte	old_rotation
 2601 0a86 27       		.uleb128 0x27
 2602 0a87 41020000 		.4byte	.LASF98
 2603 0a8b 01       		.byte	0x1
 2604 0a8c 29       		.byte	0x29
 2605 0a8d D1080000 		.4byte	0x8d1
 2606 0a91 05       		.byte	0x5
 2607 0a92 03       		.byte	0x3
 2608 0a93 00000000 		.4byte	speed
 2609 0a97 27       		.uleb128 0x27
 2610 0a98 1C040000 		.4byte	.LASF99
 2611 0a9c 01       		.byte	0x1
 2612 0a9d 2A       		.byte	0x2a
 2613 0a9e D1080000 		.4byte	0x8d1
 2614 0aa2 05       		.byte	0x5
 2615 0aa3 03       		.byte	0x3
 2616 0aa4 00000000 		.4byte	rpmasis
 2617 0aa8 2C       		.uleb128 0x2c
 2618 0aa9 98000000 		.4byte	.LASF88
 2619 0aad 0D       		.byte	0xd
 2620 0aae 9806     		.2byte	0x698
 2621 0ab0 E0010000 		.4byte	0x1e0
 2622 0ab4 01       		.byte	0x1
 2623 0ab5 01       		.byte	0x1
 2624 0ab6 2C       		.uleb128 0x2c
 2625 0ab7 CD010000 		.4byte	.LASF89
 2626 0abb 0A       		.byte	0xa
 2627 0abc 7101     		.2byte	0x171
 2628 0abe AC040000 		.4byte	0x4ac
 2629 0ac2 01       		.byte	0x1
 2630 0ac3 01       		.byte	0x1
 2631 0ac4 00       		.byte	0x0
 2632              		.section	.debug_abbrev
 2633 0000 01       		.uleb128 0x1
 2634 0001 11       		.uleb128 0x11
 2635 0002 01       		.byte	0x1
 2636 0003 25       		.uleb128 0x25
 2637 0004 0E       		.uleb128 0xe
ARM GAS  C:\Users\DNIEL~1\AppData\Local\Temp\cc7eP7WQ.s 			page 48


 2638 0005 13       		.uleb128 0x13
 2639 0006 0B       		.uleb128 0xb
 2640 0007 03       		.uleb128 0x3
 2641 0008 0E       		.uleb128 0xe
 2642 0009 1B       		.uleb128 0x1b
 2643 000a 0E       		.uleb128 0xe
 2644 000b 11       		.uleb128 0x11
 2645 000c 01       		.uleb128 0x1
 2646 000d 52       		.uleb128 0x52
 2647 000e 01       		.uleb128 0x1
 2648 000f 55       		.uleb128 0x55
 2649 0010 06       		.uleb128 0x6
 2650 0011 10       		.uleb128 0x10
 2651 0012 06       		.uleb128 0x6
 2652 0013 00       		.byte	0x0
 2653 0014 00       		.byte	0x0
 2654 0015 02       		.uleb128 0x2
 2655 0016 24       		.uleb128 0x24
 2656 0017 00       		.byte	0x0
 2657 0018 0B       		.uleb128 0xb
 2658 0019 0B       		.uleb128 0xb
 2659 001a 3E       		.uleb128 0x3e
 2660 001b 0B       		.uleb128 0xb
 2661 001c 03       		.uleb128 0x3
 2662 001d 08       		.uleb128 0x8
 2663 001e 00       		.byte	0x0
 2664 001f 00       		.byte	0x0
 2665 0020 03       		.uleb128 0x3
 2666 0021 16       		.uleb128 0x16
 2667 0022 00       		.byte	0x0
 2668 0023 03       		.uleb128 0x3
 2669 0024 0E       		.uleb128 0xe
 2670 0025 3A       		.uleb128 0x3a
 2671 0026 0B       		.uleb128 0xb
 2672 0027 3B       		.uleb128 0x3b
 2673 0028 0B       		.uleb128 0xb
 2674 0029 49       		.uleb128 0x49
 2675 002a 13       		.uleb128 0x13
 2676 002b 00       		.byte	0x0
 2677 002c 00       		.byte	0x0
 2678 002d 04       		.uleb128 0x4
 2679 002e 24       		.uleb128 0x24
 2680 002f 00       		.byte	0x0
 2681 0030 0B       		.uleb128 0xb
 2682 0031 0B       		.uleb128 0xb
 2683 0032 3E       		.uleb128 0x3e
 2684 0033 0B       		.uleb128 0xb
 2685 0034 03       		.uleb128 0x3
 2686 0035 0E       		.uleb128 0xe
 2687 0036 00       		.byte	0x0
 2688 0037 00       		.byte	0x0
 2689 0038 05       		.uleb128 0x5
 2690 0039 0F       		.uleb128 0xf
 2691 003a 00       		.byte	0x0
 2692 003b 0B       		.uleb128 0xb
 2693 003c 0B       		.uleb128 0xb
 2694 003d 00       		.byte	0x0
ARM GAS  C:\Users\DNIEL~1\AppData\Local\Temp\cc7eP7WQ.s 			page 49


 2695 003e 00       		.byte	0x0
 2696 003f 06       		.uleb128 0x6
 2697 0040 35       		.uleb128 0x35
 2698 0041 00       		.byte	0x0
 2699 0042 49       		.uleb128 0x49
 2700 0043 13       		.uleb128 0x13
 2701 0044 00       		.byte	0x0
 2702 0045 00       		.byte	0x0
 2703 0046 07       		.uleb128 0x7
 2704 0047 0F       		.uleb128 0xf
 2705 0048 00       		.byte	0x0
 2706 0049 0B       		.uleb128 0xb
 2707 004a 0B       		.uleb128 0xb
 2708 004b 49       		.uleb128 0x49
 2709 004c 13       		.uleb128 0x13
 2710 004d 00       		.byte	0x0
 2711 004e 00       		.byte	0x0
 2712 004f 08       		.uleb128 0x8
 2713 0050 26       		.uleb128 0x26
 2714 0051 00       		.byte	0x0
 2715 0052 49       		.uleb128 0x49
 2716 0053 13       		.uleb128 0x13
 2717 0054 00       		.byte	0x0
 2718 0055 00       		.byte	0x0
 2719 0056 09       		.uleb128 0x9
 2720 0057 15       		.uleb128 0x15
 2721 0058 01       		.byte	0x1
 2722 0059 27       		.uleb128 0x27
 2723 005a 0C       		.uleb128 0xc
 2724 005b 49       		.uleb128 0x49
 2725 005c 13       		.uleb128 0x13
 2726 005d 01       		.uleb128 0x1
 2727 005e 13       		.uleb128 0x13
 2728 005f 00       		.byte	0x0
 2729 0060 00       		.byte	0x0
 2730 0061 0A       		.uleb128 0xa
 2731 0062 05       		.uleb128 0x5
 2732 0063 00       		.byte	0x0
 2733 0064 49       		.uleb128 0x49
 2734 0065 13       		.uleb128 0x13
 2735 0066 00       		.byte	0x0
 2736 0067 00       		.byte	0x0
 2737 0068 0B       		.uleb128 0xb
 2738 0069 13       		.uleb128 0x13
 2739 006a 01       		.byte	0x1
 2740 006b 03       		.uleb128 0x3
 2741 006c 0E       		.uleb128 0xe
 2742 006d 0B       		.uleb128 0xb
 2743 006e 0B       		.uleb128 0xb
 2744 006f 3A       		.uleb128 0x3a
 2745 0070 0B       		.uleb128 0xb
 2746 0071 3B       		.uleb128 0x3b
 2747 0072 0B       		.uleb128 0xb
 2748 0073 01       		.uleb128 0x1
 2749 0074 13       		.uleb128 0x13
 2750 0075 00       		.byte	0x0
 2751 0076 00       		.byte	0x0
ARM GAS  C:\Users\DNIEL~1\AppData\Local\Temp\cc7eP7WQ.s 			page 50


 2752 0077 0C       		.uleb128 0xc
 2753 0078 0D       		.uleb128 0xd
 2754 0079 00       		.byte	0x0
 2755 007a 03       		.uleb128 0x3
 2756 007b 0E       		.uleb128 0xe
 2757 007c 3A       		.uleb128 0x3a
 2758 007d 0B       		.uleb128 0xb
 2759 007e 3B       		.uleb128 0x3b
 2760 007f 0B       		.uleb128 0xb
 2761 0080 49       		.uleb128 0x49
 2762 0081 13       		.uleb128 0x13
 2763 0082 38       		.uleb128 0x38
 2764 0083 0A       		.uleb128 0xa
 2765 0084 00       		.byte	0x0
 2766 0085 00       		.byte	0x0
 2767 0086 0D       		.uleb128 0xd
 2768 0087 0D       		.uleb128 0xd
 2769 0088 00       		.byte	0x0
 2770 0089 03       		.uleb128 0x3
 2771 008a 08       		.uleb128 0x8
 2772 008b 3A       		.uleb128 0x3a
 2773 008c 0B       		.uleb128 0xb
 2774 008d 3B       		.uleb128 0x3b
 2775 008e 0B       		.uleb128 0xb
 2776 008f 49       		.uleb128 0x49
 2777 0090 13       		.uleb128 0x13
 2778 0091 38       		.uleb128 0x38
 2779 0092 0A       		.uleb128 0xa
 2780 0093 00       		.byte	0x0
 2781 0094 00       		.byte	0x0
 2782 0095 0E       		.uleb128 0xe
 2783 0096 13       		.uleb128 0x13
 2784 0097 01       		.byte	0x1
 2785 0098 0B       		.uleb128 0xb
 2786 0099 0B       		.uleb128 0xb
 2787 009a 3A       		.uleb128 0x3a
 2788 009b 0B       		.uleb128 0xb
 2789 009c 3B       		.uleb128 0x3b
 2790 009d 0B       		.uleb128 0xb
 2791 009e 01       		.uleb128 0x1
 2792 009f 13       		.uleb128 0x13
 2793 00a0 00       		.byte	0x0
 2794 00a1 00       		.byte	0x0
 2795 00a2 0F       		.uleb128 0xf
 2796 00a3 01       		.uleb128 0x1
 2797 00a4 01       		.byte	0x1
 2798 00a5 49       		.uleb128 0x49
 2799 00a6 13       		.uleb128 0x13
 2800 00a7 01       		.uleb128 0x1
 2801 00a8 13       		.uleb128 0x13
 2802 00a9 00       		.byte	0x0
 2803 00aa 00       		.byte	0x0
 2804 00ab 10       		.uleb128 0x10
 2805 00ac 21       		.uleb128 0x21
 2806 00ad 00       		.byte	0x0
 2807 00ae 49       		.uleb128 0x49
 2808 00af 13       		.uleb128 0x13
ARM GAS  C:\Users\DNIEL~1\AppData\Local\Temp\cc7eP7WQ.s 			page 51


 2809 00b0 2F       		.uleb128 0x2f
 2810 00b1 0B       		.uleb128 0xb
 2811 00b2 00       		.byte	0x0
 2812 00b3 00       		.byte	0x0
 2813 00b4 11       		.uleb128 0x11
 2814 00b5 13       		.uleb128 0x13
 2815 00b6 01       		.byte	0x1
 2816 00b7 0B       		.uleb128 0xb
 2817 00b8 0B       		.uleb128 0xb
 2818 00b9 3A       		.uleb128 0x3a
 2819 00ba 0B       		.uleb128 0xb
 2820 00bb 3B       		.uleb128 0x3b
 2821 00bc 05       		.uleb128 0x5
 2822 00bd 01       		.uleb128 0x1
 2823 00be 13       		.uleb128 0x13
 2824 00bf 00       		.byte	0x0
 2825 00c0 00       		.byte	0x0
 2826 00c1 12       		.uleb128 0x12
 2827 00c2 0D       		.uleb128 0xd
 2828 00c3 00       		.byte	0x0
 2829 00c4 03       		.uleb128 0x3
 2830 00c5 08       		.uleb128 0x8
 2831 00c6 3A       		.uleb128 0x3a
 2832 00c7 0B       		.uleb128 0xb
 2833 00c8 3B       		.uleb128 0x3b
 2834 00c9 05       		.uleb128 0x5
 2835 00ca 49       		.uleb128 0x49
 2836 00cb 13       		.uleb128 0x13
 2837 00cc 38       		.uleb128 0x38
 2838 00cd 0A       		.uleb128 0xa
 2839 00ce 00       		.byte	0x0
 2840 00cf 00       		.byte	0x0
 2841 00d0 13       		.uleb128 0x13
 2842 00d1 0D       		.uleb128 0xd
 2843 00d2 00       		.byte	0x0
 2844 00d3 03       		.uleb128 0x3
 2845 00d4 0E       		.uleb128 0xe
 2846 00d5 3A       		.uleb128 0x3a
 2847 00d6 0B       		.uleb128 0xb
 2848 00d7 3B       		.uleb128 0x3b
 2849 00d8 05       		.uleb128 0x5
 2850 00d9 49       		.uleb128 0x49
 2851 00da 13       		.uleb128 0x13
 2852 00db 38       		.uleb128 0x38
 2853 00dc 0A       		.uleb128 0xa
 2854 00dd 00       		.byte	0x0
 2855 00de 00       		.byte	0x0
 2856 00df 14       		.uleb128 0x14
 2857 00e0 16       		.uleb128 0x16
 2858 00e1 00       		.byte	0x0
 2859 00e2 03       		.uleb128 0x3
 2860 00e3 0E       		.uleb128 0xe
 2861 00e4 3A       		.uleb128 0x3a
 2862 00e5 0B       		.uleb128 0xb
 2863 00e6 3B       		.uleb128 0x3b
 2864 00e7 05       		.uleb128 0x5
 2865 00e8 49       		.uleb128 0x49
ARM GAS  C:\Users\DNIEL~1\AppData\Local\Temp\cc7eP7WQ.s 			page 52


 2866 00e9 13       		.uleb128 0x13
 2867 00ea 00       		.byte	0x0
 2868 00eb 00       		.byte	0x0
 2869 00ec 15       		.uleb128 0x15
 2870 00ed 04       		.uleb128 0x4
 2871 00ee 01       		.byte	0x1
 2872 00ef 0B       		.uleb128 0xb
 2873 00f0 0B       		.uleb128 0xb
 2874 00f1 3A       		.uleb128 0x3a
 2875 00f2 0B       		.uleb128 0xb
 2876 00f3 3B       		.uleb128 0x3b
 2877 00f4 0B       		.uleb128 0xb
 2878 00f5 01       		.uleb128 0x1
 2879 00f6 13       		.uleb128 0x13
 2880 00f7 00       		.byte	0x0
 2881 00f8 00       		.byte	0x0
 2882 00f9 16       		.uleb128 0x16
 2883 00fa 28       		.uleb128 0x28
 2884 00fb 00       		.byte	0x0
 2885 00fc 03       		.uleb128 0x3
 2886 00fd 0E       		.uleb128 0xe
 2887 00fe 1C       		.uleb128 0x1c
 2888 00ff 0D       		.uleb128 0xd
 2889 0100 00       		.byte	0x0
 2890 0101 00       		.byte	0x0
 2891 0102 17       		.uleb128 0x17
 2892 0103 13       		.uleb128 0x13
 2893 0104 01       		.byte	0x1
 2894 0105 03       		.uleb128 0x3
 2895 0106 0E       		.uleb128 0xe
 2896 0107 0B       		.uleb128 0xb
 2897 0108 0B       		.uleb128 0xb
 2898 0109 3A       		.uleb128 0x3a
 2899 010a 0B       		.uleb128 0xb
 2900 010b 3B       		.uleb128 0x3b
 2901 010c 05       		.uleb128 0x5
 2902 010d 01       		.uleb128 0x1
 2903 010e 13       		.uleb128 0x13
 2904 010f 00       		.byte	0x0
 2905 0110 00       		.byte	0x0
 2906 0111 18       		.uleb128 0x18
 2907 0112 15       		.uleb128 0x15
 2908 0113 01       		.byte	0x1
 2909 0114 27       		.uleb128 0x27
 2910 0115 0C       		.uleb128 0xc
 2911 0116 01       		.uleb128 0x1
 2912 0117 13       		.uleb128 0x13
 2913 0118 00       		.byte	0x0
 2914 0119 00       		.byte	0x0
 2915 011a 19       		.uleb128 0x19
 2916 011b 0D       		.uleb128 0xd
 2917 011c 00       		.byte	0x0
 2918 011d 03       		.uleb128 0x3
 2919 011e 0E       		.uleb128 0xe
 2920 011f 49       		.uleb128 0x49
 2921 0120 13       		.uleb128 0x13
 2922 0121 38       		.uleb128 0x38
ARM GAS  C:\Users\DNIEL~1\AppData\Local\Temp\cc7eP7WQ.s 			page 53


 2923 0122 0A       		.uleb128 0xa
 2924 0123 34       		.uleb128 0x34
 2925 0124 0C       		.uleb128 0xc
 2926 0125 00       		.byte	0x0
 2927 0126 00       		.byte	0x0
 2928 0127 1A       		.uleb128 0x1a
 2929 0128 2E       		.uleb128 0x2e
 2930 0129 01       		.byte	0x1
 2931 012a 03       		.uleb128 0x3
 2932 012b 0E       		.uleb128 0xe
 2933 012c 3A       		.uleb128 0x3a
 2934 012d 0B       		.uleb128 0xb
 2935 012e 3B       		.uleb128 0x3b
 2936 012f 0B       		.uleb128 0xb
 2937 0130 27       		.uleb128 0x27
 2938 0131 0C       		.uleb128 0xc
 2939 0132 11       		.uleb128 0x11
 2940 0133 01       		.uleb128 0x1
 2941 0134 12       		.uleb128 0x12
 2942 0135 01       		.uleb128 0x1
 2943 0136 40       		.uleb128 0x40
 2944 0137 0A       		.uleb128 0xa
 2945 0138 01       		.uleb128 0x1
 2946 0139 13       		.uleb128 0x13
 2947 013a 00       		.byte	0x0
 2948 013b 00       		.byte	0x0
 2949 013c 1B       		.uleb128 0x1b
 2950 013d 05       		.uleb128 0x5
 2951 013e 00       		.byte	0x0
 2952 013f 03       		.uleb128 0x3
 2953 0140 0E       		.uleb128 0xe
 2954 0141 3A       		.uleb128 0x3a
 2955 0142 0B       		.uleb128 0xb
 2956 0143 3B       		.uleb128 0x3b
 2957 0144 0B       		.uleb128 0xb
 2958 0145 49       		.uleb128 0x49
 2959 0146 13       		.uleb128 0x13
 2960 0147 02       		.uleb128 0x2
 2961 0148 06       		.uleb128 0x6
 2962 0149 00       		.byte	0x0
 2963 014a 00       		.byte	0x0
 2964 014b 1C       		.uleb128 0x1c
 2965 014c 2E       		.uleb128 0x2e
 2966 014d 01       		.byte	0x1
 2967 014e 03       		.uleb128 0x3
 2968 014f 0E       		.uleb128 0xe
 2969 0150 3A       		.uleb128 0x3a
 2970 0151 0B       		.uleb128 0xb
 2971 0152 3B       		.uleb128 0x3b
 2972 0153 0B       		.uleb128 0xb
 2973 0154 27       		.uleb128 0x27
 2974 0155 0C       		.uleb128 0xc
 2975 0156 11       		.uleb128 0x11
 2976 0157 01       		.uleb128 0x1
 2977 0158 12       		.uleb128 0x12
 2978 0159 01       		.uleb128 0x1
 2979 015a 40       		.uleb128 0x40
ARM GAS  C:\Users\DNIEL~1\AppData\Local\Temp\cc7eP7WQ.s 			page 54


 2980 015b 06       		.uleb128 0x6
 2981 015c 01       		.uleb128 0x1
 2982 015d 13       		.uleb128 0x13
 2983 015e 00       		.byte	0x0
 2984 015f 00       		.byte	0x0
 2985 0160 1D       		.uleb128 0x1d
 2986 0161 05       		.uleb128 0x5
 2987 0162 00       		.byte	0x0
 2988 0163 03       		.uleb128 0x3
 2989 0164 08       		.uleb128 0x8
 2990 0165 3A       		.uleb128 0x3a
 2991 0166 0B       		.uleb128 0xb
 2992 0167 3B       		.uleb128 0x3b
 2993 0168 0B       		.uleb128 0xb
 2994 0169 49       		.uleb128 0x49
 2995 016a 13       		.uleb128 0x13
 2996 016b 02       		.uleb128 0x2
 2997 016c 06       		.uleb128 0x6
 2998 016d 00       		.byte	0x0
 2999 016e 00       		.byte	0x0
 3000 016f 1E       		.uleb128 0x1e
 3001 0170 05       		.uleb128 0x5
 3002 0171 00       		.byte	0x0
 3003 0172 03       		.uleb128 0x3
 3004 0173 08       		.uleb128 0x8
 3005 0174 3A       		.uleb128 0x3a
 3006 0175 0B       		.uleb128 0xb
 3007 0176 3B       		.uleb128 0x3b
 3008 0177 0B       		.uleb128 0xb
 3009 0178 49       		.uleb128 0x49
 3010 0179 13       		.uleb128 0x13
 3011 017a 02       		.uleb128 0x2
 3012 017b 0A       		.uleb128 0xa
 3013 017c 00       		.byte	0x0
 3014 017d 00       		.byte	0x0
 3015 017e 1F       		.uleb128 0x1f
 3016 017f 18       		.uleb128 0x18
 3017 0180 00       		.byte	0x0
 3018 0181 00       		.byte	0x0
 3019 0182 00       		.byte	0x0
 3020 0183 20       		.uleb128 0x20
 3021 0184 34       		.uleb128 0x34
 3022 0185 00       		.byte	0x0
 3023 0186 03       		.uleb128 0x3
 3024 0187 08       		.uleb128 0x8
 3025 0188 3A       		.uleb128 0x3a
 3026 0189 0B       		.uleb128 0xb
 3027 018a 3B       		.uleb128 0x3b
 3028 018b 0B       		.uleb128 0xb
 3029 018c 49       		.uleb128 0x49
 3030 018d 13       		.uleb128 0x13
 3031 018e 02       		.uleb128 0x2
 3032 018f 0A       		.uleb128 0xa
 3033 0190 00       		.byte	0x0
 3034 0191 00       		.byte	0x0
 3035 0192 21       		.uleb128 0x21
 3036 0193 2E       		.uleb128 0x2e
ARM GAS  C:\Users\DNIEL~1\AppData\Local\Temp\cc7eP7WQ.s 			page 55


 3037 0194 00       		.byte	0x0
 3038 0195 3F       		.uleb128 0x3f
 3039 0196 0C       		.uleb128 0xc
 3040 0197 03       		.uleb128 0x3
 3041 0198 0E       		.uleb128 0xe
 3042 0199 3A       		.uleb128 0x3a
 3043 019a 0B       		.uleb128 0xb
 3044 019b 3B       		.uleb128 0x3b
 3045 019c 0B       		.uleb128 0xb
 3046 019d 27       		.uleb128 0x27
 3047 019e 0C       		.uleb128 0xc
 3048 019f 11       		.uleb128 0x11
 3049 01a0 01       		.uleb128 0x1
 3050 01a1 12       		.uleb128 0x12
 3051 01a2 01       		.uleb128 0x1
 3052 01a3 40       		.uleb128 0x40
 3053 01a4 06       		.uleb128 0x6
 3054 01a5 00       		.byte	0x0
 3055 01a6 00       		.byte	0x0
 3056 01a7 22       		.uleb128 0x22
 3057 01a8 2E       		.uleb128 0x2e
 3058 01a9 00       		.byte	0x0
 3059 01aa 3F       		.uleb128 0x3f
 3060 01ab 0C       		.uleb128 0xc
 3061 01ac 03       		.uleb128 0x3
 3062 01ad 0E       		.uleb128 0xe
 3063 01ae 3A       		.uleb128 0x3a
 3064 01af 0B       		.uleb128 0xb
 3065 01b0 3B       		.uleb128 0x3b
 3066 01b1 0B       		.uleb128 0xb
 3067 01b2 27       		.uleb128 0x27
 3068 01b3 0C       		.uleb128 0xc
 3069 01b4 11       		.uleb128 0x11
 3070 01b5 01       		.uleb128 0x1
 3071 01b6 12       		.uleb128 0x12
 3072 01b7 01       		.uleb128 0x1
 3073 01b8 40       		.uleb128 0x40
 3074 01b9 0A       		.uleb128 0xa
 3075 01ba 00       		.byte	0x0
 3076 01bb 00       		.byte	0x0
 3077 01bc 23       		.uleb128 0x23
 3078 01bd 2E       		.uleb128 0x2e
 3079 01be 01       		.byte	0x1
 3080 01bf 3F       		.uleb128 0x3f
 3081 01c0 0C       		.uleb128 0xc
 3082 01c1 03       		.uleb128 0x3
 3083 01c2 0E       		.uleb128 0xe
 3084 01c3 3A       		.uleb128 0x3a
 3085 01c4 0B       		.uleb128 0xb
 3086 01c5 3B       		.uleb128 0x3b
 3087 01c6 0B       		.uleb128 0xb
 3088 01c7 27       		.uleb128 0x27
 3089 01c8 0C       		.uleb128 0xc
 3090 01c9 49       		.uleb128 0x49
 3091 01ca 13       		.uleb128 0x13
 3092 01cb 11       		.uleb128 0x11
 3093 01cc 01       		.uleb128 0x1
ARM GAS  C:\Users\DNIEL~1\AppData\Local\Temp\cc7eP7WQ.s 			page 56


 3094 01cd 12       		.uleb128 0x12
 3095 01ce 01       		.uleb128 0x1
 3096 01cf 40       		.uleb128 0x40
 3097 01d0 0A       		.uleb128 0xa
 3098 01d1 01       		.uleb128 0x1
 3099 01d2 13       		.uleb128 0x13
 3100 01d3 00       		.byte	0x0
 3101 01d4 00       		.byte	0x0
 3102 01d5 24       		.uleb128 0x24
 3103 01d6 0B       		.uleb128 0xb
 3104 01d7 01       		.byte	0x1
 3105 01d8 11       		.uleb128 0x11
 3106 01d9 01       		.uleb128 0x1
 3107 01da 12       		.uleb128 0x12
 3108 01db 01       		.uleb128 0x1
 3109 01dc 01       		.uleb128 0x1
 3110 01dd 13       		.uleb128 0x13
 3111 01de 00       		.byte	0x0
 3112 01df 00       		.byte	0x0
 3113 01e0 25       		.uleb128 0x25
 3114 01e1 34       		.uleb128 0x34
 3115 01e2 00       		.byte	0x0
 3116 01e3 03       		.uleb128 0x3
 3117 01e4 08       		.uleb128 0x8
 3118 01e5 3A       		.uleb128 0x3a
 3119 01e6 0B       		.uleb128 0xb
 3120 01e7 3B       		.uleb128 0x3b
 3121 01e8 0B       		.uleb128 0xb
 3122 01e9 49       		.uleb128 0x49
 3123 01ea 13       		.uleb128 0x13
 3124 01eb 02       		.uleb128 0x2
 3125 01ec 06       		.uleb128 0x6
 3126 01ed 00       		.byte	0x0
 3127 01ee 00       		.byte	0x0
 3128 01ef 26       		.uleb128 0x26
 3129 01f0 0B       		.uleb128 0xb
 3130 01f1 01       		.byte	0x1
 3131 01f2 55       		.uleb128 0x55
 3132 01f3 06       		.uleb128 0x6
 3133 01f4 00       		.byte	0x0
 3134 01f5 00       		.byte	0x0
 3135 01f6 27       		.uleb128 0x27
 3136 01f7 34       		.uleb128 0x34
 3137 01f8 00       		.byte	0x0
 3138 01f9 03       		.uleb128 0x3
 3139 01fa 0E       		.uleb128 0xe
 3140 01fb 3A       		.uleb128 0x3a
 3141 01fc 0B       		.uleb128 0xb
 3142 01fd 3B       		.uleb128 0x3b
 3143 01fe 0B       		.uleb128 0xb
 3144 01ff 49       		.uleb128 0x49
 3145 0200 13       		.uleb128 0x13
 3146 0201 02       		.uleb128 0x2
 3147 0202 0A       		.uleb128 0xa
 3148 0203 00       		.byte	0x0
 3149 0204 00       		.byte	0x0
 3150 0205 28       		.uleb128 0x28
ARM GAS  C:\Users\DNIEL~1\AppData\Local\Temp\cc7eP7WQ.s 			page 57


 3151 0206 2E       		.uleb128 0x2e
 3152 0207 01       		.byte	0x1
 3153 0208 3F       		.uleb128 0x3f
 3154 0209 0C       		.uleb128 0xc
 3155 020a 03       		.uleb128 0x3
 3156 020b 0E       		.uleb128 0xe
 3157 020c 3A       		.uleb128 0x3a
 3158 020d 0B       		.uleb128 0xb
 3159 020e 3B       		.uleb128 0x3b
 3160 020f 0B       		.uleb128 0xb
 3161 0210 27       		.uleb128 0x27
 3162 0211 0C       		.uleb128 0xc
 3163 0212 49       		.uleb128 0x49
 3164 0213 13       		.uleb128 0x13
 3165 0214 11       		.uleb128 0x11
 3166 0215 01       		.uleb128 0x1
 3167 0216 12       		.uleb128 0x12
 3168 0217 01       		.uleb128 0x1
 3169 0218 40       		.uleb128 0x40
 3170 0219 06       		.uleb128 0x6
 3171 021a 01       		.uleb128 0x1
 3172 021b 13       		.uleb128 0x13
 3173 021c 00       		.byte	0x0
 3174 021d 00       		.byte	0x0
 3175 021e 29       		.uleb128 0x29
 3176 021f 34       		.uleb128 0x34
 3177 0220 00       		.byte	0x0
 3178 0221 03       		.uleb128 0x3
 3179 0222 08       		.uleb128 0x8
 3180 0223 3A       		.uleb128 0x3a
 3181 0224 0B       		.uleb128 0xb
 3182 0225 3B       		.uleb128 0x3b
 3183 0226 0B       		.uleb128 0xb
 3184 0227 49       		.uleb128 0x49
 3185 0228 13       		.uleb128 0x13
 3186 0229 00       		.byte	0x0
 3187 022a 00       		.byte	0x0
 3188 022b 2A       		.uleb128 0x2a
 3189 022c 0B       		.uleb128 0xb
 3190 022d 01       		.byte	0x1
 3191 022e 11       		.uleb128 0x11
 3192 022f 01       		.uleb128 0x1
 3193 0230 12       		.uleb128 0x12
 3194 0231 01       		.uleb128 0x1
 3195 0232 00       		.byte	0x0
 3196 0233 00       		.byte	0x0
 3197 0234 2B       		.uleb128 0x2b
 3198 0235 2E       		.uleb128 0x2e
 3199 0236 01       		.byte	0x1
 3200 0237 3F       		.uleb128 0x3f
 3201 0238 0C       		.uleb128 0xc
 3202 0239 03       		.uleb128 0x3
 3203 023a 0E       		.uleb128 0xe
 3204 023b 3A       		.uleb128 0x3a
 3205 023c 0B       		.uleb128 0xb
 3206 023d 3B       		.uleb128 0x3b
 3207 023e 0B       		.uleb128 0xb
ARM GAS  C:\Users\DNIEL~1\AppData\Local\Temp\cc7eP7WQ.s 			page 58


 3208 023f 27       		.uleb128 0x27
 3209 0240 0C       		.uleb128 0xc
 3210 0241 11       		.uleb128 0x11
 3211 0242 01       		.uleb128 0x1
 3212 0243 12       		.uleb128 0x12
 3213 0244 01       		.uleb128 0x1
 3214 0245 40       		.uleb128 0x40
 3215 0246 06       		.uleb128 0x6
 3216 0247 01       		.uleb128 0x1
 3217 0248 13       		.uleb128 0x13
 3218 0249 00       		.byte	0x0
 3219 024a 00       		.byte	0x0
 3220 024b 2C       		.uleb128 0x2c
 3221 024c 34       		.uleb128 0x34
 3222 024d 00       		.byte	0x0
 3223 024e 03       		.uleb128 0x3
 3224 024f 0E       		.uleb128 0xe
 3225 0250 3A       		.uleb128 0x3a
 3226 0251 0B       		.uleb128 0xb
 3227 0252 3B       		.uleb128 0x3b
 3228 0253 05       		.uleb128 0x5
 3229 0254 49       		.uleb128 0x49
 3230 0255 13       		.uleb128 0x13
 3231 0256 3F       		.uleb128 0x3f
 3232 0257 0C       		.uleb128 0xc
 3233 0258 3C       		.uleb128 0x3c
 3234 0259 0C       		.uleb128 0xc
 3235 025a 00       		.byte	0x0
 3236 025b 00       		.byte	0x0
 3237 025c 00       		.byte	0x0
 3238              		.section	.debug_pubnames,"",%progbits
 3239 0000 BA000000 		.4byte	0xba
 3240 0004 0200     		.2byte	0x2
 3241 0006 00000000 		.4byte	.Ldebug_info0
 3242 000a C50A0000 		.4byte	0xac5
 3243 000e B8060000 		.4byte	0x6b8
 3244 0012 73706565 		.ascii	"speedInit\000"
 3244      64496E69 
 3244      7400
 3245 001c CD060000 		.4byte	0x6cd
 3246 0020 73706565 		.ascii	"speedCalc\000"
 3246      6443616C 
 3246      6300
 3247 002a E1060000 		.4byte	0x6e1
 3248 002e 73706565 		.ascii	"speedGetLastPeriod\000"
 3248      64476574 
 3248      4C617374 
 3248      50657269 
 3248      6F6400
 3249 0041 41070000 		.4byte	0x741
 3250 0045 73706565 		.ascii	"speedGetPeriodNumber\000"
 3250      64476574 
 3250      50657269 
 3250      6F644E75 
 3250      6D626572 
 3251 005a A1070000 		.4byte	0x7a1
 3252 005e 73706565 		.ascii	"speedGetRpm\000"
ARM GAS  C:\Users\DNIEL~1\AppData\Local\Temp\cc7eP7WQ.s 			page 59


 3252      64476574 
 3252      52706D00 
 3253 006a 00080000 		.4byte	0x800
 3254 006e 73706565 		.ascii	"speedGetSpeed\000"
 3254      64476574 
 3254      53706565 
 3254      6400
 3255 007c 5F080000 		.4byte	0x85f
 3256 0080 73706565 		.ascii	"speedRPM_TO_KMPH\000"
 3256      6452504D 
 3256      5F544F5F 
 3256      4B4D5048 
 3256      00
 3257 0091 0D090000 		.4byte	0x90d
 3258 0095 73706565 		.ascii	"speedKMPH_TO_RPM\000"
 3258      644B4D50 
 3258      485F544F 
 3258      5F52504D 
 3258      00
 3259 00a6 7F090000 		.4byte	0x97f
 3260 00aa 636D645F 		.ascii	"cmd_speedvalues\000"
 3260      73706565 
 3260      6476616C 
 3260      75657300 
 3261 00ba 00000000 		.4byte	0x0
 3262              		.section	.debug_pubtypes,"",%progbits
 3263 0000 70010000 		.4byte	0x170
 3264 0004 0200     		.2byte	0x2
 3265 0006 00000000 		.4byte	.Ldebug_info0
 3266 000a C50A0000 		.4byte	0xac5
 3267 000e 30000000 		.4byte	0x30
 3268 0012 73697A65 		.ascii	"size_t\000"
 3268      5F7400
 3269 0019 49000000 		.4byte	0x49
 3270 001d 75696E74 		.ascii	"uint8_t\000"
 3270      385F7400 
 3271 0025 62000000 		.4byte	0x62
 3272 0029 75696E74 		.ascii	"uint16_t\000"
 3272      31365F74 
 3272      00
 3273 0032 74000000 		.4byte	0x74
 3274 0036 696E7433 		.ascii	"int32_t\000"
 3274      325F7400 
 3275 003e 86000000 		.4byte	0x86
 3276 0042 75696E74 		.ascii	"uint32_t\000"
 3276      33325F74 
 3276      00
 3277 004b AD000000 		.4byte	0xad
 3278 004f 6D73675F 		.ascii	"msg_t\000"
 3278      7400
 3279 0055 B8000000 		.4byte	0xb8
 3280 0059 73797374 		.ascii	"systime_t\000"
 3280      696D655F 
 3280      7400
 3281 0063 F8000000 		.4byte	0xf8
 3282 0067 42617365 		.ascii	"BaseSequentialStreamVMT\000"
 3282      53657175 
ARM GAS  C:\Users\DNIEL~1\AppData\Local\Temp\cc7eP7WQ.s 			page 60


 3282      656E7469 
 3282      616C5374 
 3282      7265616D 
 3283 007f C5010000 		.4byte	0x1c5
 3284 0083 42617365 		.ascii	"BaseSequentialStream\000"
 3284      53657175 
 3284      656E7469 
 3284      616C5374 
 3284      7265616D 
 3285 0098 EB010000 		.4byte	0x1eb
 3286 009c 42617365 		.ascii	"BaseChannelVMT\000"
 3286      4368616E 
 3286      6E656C56 
 3286      4D5400
 3287 00ab 0F030000 		.4byte	0x30f
 3288 00af 42617365 		.ascii	"BaseChannel\000"
 3288      4368616E 
 3288      6E656C00 
 3289 00bb 62040000 		.4byte	0x462
 3290 00bf 73746D33 		.ascii	"stm32_tim_t\000"
 3290      325F7469 
 3290      6D5F7400 
 3291 00cb A1040000 		.4byte	0x4a1
 3292 00cf 69637573 		.ascii	"icustate_t\000"
 3292      74617465 
 3292      5F7400
 3293 00da AC040000 		.4byte	0x4ac
 3294 00de 49435544 		.ascii	"ICUDriver\000"
 3294      72697665 
 3294      7200
 3295 00e8 1F050000 		.4byte	0x51f
 3296 00ec 69637563 		.ascii	"icucallback_t\000"
 3296      616C6C62 
 3296      61636B5F 
 3296      7400
 3297 00fa 57050000 		.4byte	0x557
 3298 00fe 6963756D 		.ascii	"icumode_t\000"
 3298      6F64655F 
 3298      7400
 3299 0108 62050000 		.4byte	0x562
 3300 010c 69637566 		.ascii	"icufreq_t\000"
 3300      7265715F 
 3300      7400
 3301 0116 82050000 		.4byte	0x582
 3302 011a 69637563 		.ascii	"icuchannel_t\000"
 3302      68616E6E 
 3302      656C5F74 
 3302      00
 3303 0127 00060000 		.4byte	0x600
 3304 012b 49435543 		.ascii	"ICUConfig\000"
 3304      6F6E6669 
 3304      6700
 3305 0135 B7040000 		.4byte	0x4b7
 3306 0139 49435544 		.ascii	"ICUDriver\000"
 3306      72697665 
 3306      7200
 3307 0143 22060000 		.4byte	0x622
ARM GAS  C:\Users\DNIEL~1\AppData\Local\Temp\cc7eP7WQ.s 			page 61


 3308 0147 5F5F7661 		.ascii	"__va_list\000"
 3308      5F6C6973 
 3308      7400
 3309 0151 17060000 		.4byte	0x617
 3310 0155 5F5F676E 		.ascii	"__gnuc_va_list\000"
 3310      75635F76 
 3310      615F6C69 
 3310      737400
 3311 0164 3C060000 		.4byte	0x63c
 3312 0168 76615F6C 		.ascii	"va_list\000"
 3312      69737400 
 3313 0170 00000000 		.4byte	0x0
 3314              		.section	.debug_aranges,"",%progbits
 3315 0000 74000000 		.4byte	0x74
 3316 0004 0200     		.2byte	0x2
 3317 0006 00000000 		.4byte	.Ldebug_info0
 3318 000a 04       		.byte	0x4
 3319 000b 00       		.byte	0x0
 3320 000c 0000     		.2byte	0x0
 3321 000e 0000     		.2byte	0x0
 3322 0010 00000000 		.4byte	.LFB120
 3323 0014 18000000 		.4byte	.LFE120-.LFB120
 3324 0018 00000000 		.4byte	.LFB118
 3325 001c 1E000000 		.4byte	.LFE118-.LFB118
 3326 0020 00000000 		.4byte	.LFB121
 3327 0024 34000000 		.4byte	.LFE121-.LFB121
 3328 0028 00000000 		.4byte	.LFB122
 3329 002c 02000000 		.4byte	.LFE122-.LFB122
 3330 0030 00000000 		.4byte	.LFB123
 3331 0034 18000000 		.4byte	.LFE123-.LFB123
 3332 0038 00000000 		.4byte	.LFB124
 3333 003c 18000000 		.4byte	.LFE124-.LFB124
 3334 0040 00000000 		.4byte	.LFB125
 3335 0044 20000000 		.4byte	.LFE125-.LFB125
 3336 0048 00000000 		.4byte	.LFB126
 3337 004c 20000000 		.4byte	.LFE126-.LFB126
 3338 0050 00000000 		.4byte	.LFB127
 3339 0054 58000000 		.4byte	.LFE127-.LFB127
 3340 0058 00000000 		.4byte	.LFB119
 3341 005c 54010000 		.4byte	.LFE119-.LFB119
 3342 0060 00000000 		.4byte	.LFB128
 3343 0064 5C000000 		.4byte	.LFE128-.LFB128
 3344 0068 00000000 		.4byte	.LFB129
 3345 006c B0000000 		.4byte	.LFE129-.LFB129
 3346 0070 00000000 		.4byte	0x0
 3347 0074 00000000 		.4byte	0x0
 3348              		.section	.debug_ranges,"",%progbits
 3349              	.Ldebug_ranges0:
 3350 0000 08000000 		.4byte	.LBB3
 3351 0004 0A000000 		.4byte	.LBE3
 3352 0008 0C000000 		.4byte	.LBB4
 3353 000c 10000000 		.4byte	.LBE4
 3354 0010 00000000 		.4byte	0x0
 3355 0014 00000000 		.4byte	0x0
 3356 0018 08000000 		.4byte	.LBB6
 3357 001c 0A000000 		.4byte	.LBE6
 3358 0020 0C000000 		.4byte	.LBB7
ARM GAS  C:\Users\DNIEL~1\AppData\Local\Temp\cc7eP7WQ.s 			page 62


 3359 0024 10000000 		.4byte	.LBE7
 3360 0028 00000000 		.4byte	0x0
 3361 002c 00000000 		.4byte	0x0
 3362 0030 00000000 		.4byte	.LFB120
 3363 0034 18000000 		.4byte	.LFE120
 3364 0038 00000000 		.4byte	.LFB118
 3365 003c 1E000000 		.4byte	.LFE118
 3366 0040 00000000 		.4byte	.LFB121
 3367 0044 34000000 		.4byte	.LFE121
 3368 0048 00000000 		.4byte	.LFB122
 3369 004c 02000000 		.4byte	.LFE122
 3370 0050 00000000 		.4byte	.LFB123
 3371 0054 18000000 		.4byte	.LFE123
 3372 0058 00000000 		.4byte	.LFB124
 3373 005c 18000000 		.4byte	.LFE124
 3374 0060 00000000 		.4byte	.LFB125
 3375 0064 20000000 		.4byte	.LFE125
 3376 0068 00000000 		.4byte	.LFB126
 3377 006c 20000000 		.4byte	.LFE126
 3378 0070 00000000 		.4byte	.LFB127
 3379 0074 58000000 		.4byte	.LFE127
 3380 0078 00000000 		.4byte	.LFB119
 3381 007c 54010000 		.4byte	.LFE119
 3382 0080 00000000 		.4byte	.LFB128
 3383 0084 5C000000 		.4byte	.LFE128
 3384 0088 00000000 		.4byte	.LFB129
 3385 008c B0000000 		.4byte	.LFE129
 3386 0090 00000000 		.4byte	0x0
 3387 0094 00000000 		.4byte	0x0
 3388              		.section	.debug_str,"MS",%progbits,1
 3389              	.LASF53:
 3390 0000 4943555F 		.ascii	"ICU_INPUT_ACTIVE_HIGH\000"
 3390      494E5055 
 3390      545F4143 
 3390      54495645 
 3390      5F484947 
 3391              	.LASF64:
 3392 0016 6F766572 		.ascii	"overflow_cb\000"
 3392      666C6F77 
 3392      5F636200 
 3393              	.LASF39:
 3394 0022 4943555F 		.ascii	"ICU_UNINIT\000"
 3394      554E494E 
 3394      495400
 3395              	.LASF29:
 3396 002d 44494552 		.ascii	"DIER\000"
 3396      00
 3397              	.LASF2:
 3398 0032 73697A65 		.ascii	"size_t\000"
 3398      5F7400
 3399              	.LASF42:
 3400 0039 4943555F 		.ascii	"ICU_WAITING\000"
 3400      57414954 
 3400      494E4700 
 3401              	.LASF43:
 3402 0045 4943555F 		.ascii	"ICU_ACTIVE\000"
 3402      41435449 
ARM GAS  C:\Users\DNIEL~1\AppData\Local\Temp\cc7eP7WQ.s 			page 63


 3402      564500
 3403              	.LASF70:
 3404 0050 76615F6C 		.ascii	"va_list\000"
 3404      69737400 
 3405              	.LASF45:
 3406 0058 69637573 		.ascii	"icustate_t\000"
 3406      74617465 
 3406      5F7400
 3407              	.LASF13:
 3408 0063 6C6F6E67 		.ascii	"long long unsigned int\000"
 3408      206C6F6E 
 3408      6720756E 
 3408      7369676E 
 3408      65642069 
 3409              	.LASF94:
 3410 007a 73706565 		.ascii	"speed_period_num\000"
 3410      645F7065 
 3410      72696F64 
 3410      5F6E756D 
 3410      00
 3411              	.LASF97:
 3412 008b 6F6C645F 		.ascii	"old_rotation\000"
 3412      726F7461 
 3412      74696F6E 
 3412      00
 3413              	.LASF88:
 3414 0098 49544D5F 		.ascii	"ITM_RxBuffer\000"
 3414      52784275 
 3414      66666572 
 3414      00
 3415              	.LASF33:
 3416 00a5 42445452 		.ascii	"BDTR\000"
 3416      00
 3417              	.LASF61:
 3418 00aa 66726571 		.ascii	"frequency\000"
 3418      75656E63 
 3418      7900
 3419              	.LASF44:
 3420 00b4 4943555F 		.ascii	"ICU_IDLE\000"
 3420      49444C45 
 3420      00
 3421              	.LASF26:
 3422 00bd 72656164 		.ascii	"readt\000"
 3422      7400
 3423              	.LASF78:
 3424 00c3 746D7032 		.ascii	"tmp2\000"
 3424      00
 3425              	.LASF30:
 3426 00c8 43434D52 		.ascii	"CCMR1\000"
 3426      3100
 3427              	.LASF31:
 3428 00ce 43434D52 		.ascii	"CCMR2\000"
 3428      3200
 3429              	.LASF35:
 3430 00d4 43434D52 		.ascii	"CCMR3\000"
 3430      3300
 3431              	.LASF1:
ARM GAS  C:\Users\DNIEL~1\AppData\Local\Temp\cc7eP7WQ.s 			page 64


 3432 00da 7369676E 		.ascii	"signed char\000"
 3432      65642063 
 3432      68617200 
 3433              	.LASF81:
 3434 00e6 73706565 		.ascii	"speedRPM_TO_KMPH\000"
 3434      6452504D 
 3434      5F544F5F 
 3434      4B4D5048 
 3434      00
 3435              	.LASF91:
 3436 00f7 72706D5F 		.ascii	"rpm_index\000"
 3436      696E6465 
 3436      7800
 3437              	.LASF74:
 3438 0101 73706565 		.ascii	"speedInit\000"
 3438      64496E69 
 3438      7400
 3439              	.LASF77:
 3440 010b 73706565 		.ascii	"speedGetPeriodNumber\000"
 3440      64476574 
 3440      50657269 
 3440      6F644E75 
 3440      6D626572 
 3441              	.LASF100:
 3442 0120 474E5520 		.ascii	"GNU C 4.5.2\000"
 3442      4320342E 
 3442      352E3200 
 3443              	.LASF102:
 3444 012c 433A5C44 		.ascii	"C:\\Dani\\MegaLux\\Repo\\Smarty\\Smarty\\smarty\\fi"
 3444      616E695C 
 3444      4D656761 
 3444      4C75785C 
 3444      5265706F 
 3445 0158 726D7761 		.ascii	"rmware\000"
 3445      726500
 3446              	.LASF47:
 3447 015f 73746174 		.ascii	"state\000"
 3447      6500
 3448              	.LASF9:
 3449 0165 6C6F6E67 		.ascii	"long int\000"
 3449      20696E74 
 3449      00
 3450              	.LASF69:
 3451 016e 5F5F7661 		.ascii	"__va_list\000"
 3451      5F6C6973 
 3451      7400
 3452              	.LASF32:
 3453 0178 43434552 		.ascii	"CCER\000"
 3453      00
 3454              	.LASF12:
 3455 017d 6C6F6E67 		.ascii	"long long int\000"
 3455      206C6F6E 
 3455      6720696E 
 3455      7400
 3456              	.LASF90:
 3457 018b 72706D5F 		.ascii	"rpm_buff\000"
 3457      62756666 
ARM GAS  C:\Users\DNIEL~1\AppData\Local\Temp\cc7eP7WQ.s 			page 65


 3457      00
 3458              	.LASF82:
 3459 0194 646F7562 		.ascii	"double\000"
 3459      6C6500
 3460              	.LASF67:
 3461 019b 49435543 		.ascii	"ICUConfig\000"
 3461      6F6E6669 
 3461      6700
 3462              	.LASF51:
 3463 01a5 70636372 		.ascii	"pccrp\000"
 3463      7000
 3464              	.LASF20:
 3465 01ab 42617365 		.ascii	"BaseSequentialStream\000"
 3465      53657175 
 3465      656E7469 
 3465      616C5374 
 3465      7265616D 
 3466              	.LASF0:
 3467 01c0 756E7369 		.ascii	"unsigned int\000"
 3467      676E6564 
 3467      20696E74 
 3467      00
 3468              	.LASF89:
 3469 01cd 49435544 		.ascii	"ICUD1\000"
 3469      3100
 3470              	.LASF11:
 3471 01d3 6C6F6E67 		.ascii	"long unsigned int\000"
 3471      20756E73 
 3471      69676E65 
 3471      6420696E 
 3471      7400
 3472              	.LASF52:
 3473 01e5 69637563 		.ascii	"icucallback_t\000"
 3473      616C6C62 
 3473      61636B5F 
 3473      7400
 3474              	.LASF80:
 3475 01f3 73706565 		.ascii	"speedGetSpeed\000"
 3475      64476574 
 3475      53706565 
 3475      6400
 3476              	.LASF63:
 3477 0201 70657269 		.ascii	"period_cb\000"
 3477      6F645F63 
 3477      6200
 3478              	.LASF24:
 3479 020b 67657474 		.ascii	"gett\000"
 3479      00
 3480              	.LASF28:
 3481 0210 534D4352 		.ascii	"SMCR\000"
 3481      00
 3482              	.LASF15:
 3483 0215 6D73675F 		.ascii	"msg_t\000"
 3483      7400
 3484              	.LASF46:
 3485 021b 49435544 		.ascii	"ICUDriver\000"
 3485      72697665 
ARM GAS  C:\Users\DNIEL~1\AppData\Local\Temp\cc7eP7WQ.s 			page 66


 3485      7200
 3486              	.LASF25:
 3487 0225 77726974 		.ascii	"writet\000"
 3487      657400
 3488              	.LASF38:
 3489 022c 73746D33 		.ascii	"stm32_tim_t\000"
 3489      325F7469 
 3489      6D5F7400 
 3490              	.LASF6:
 3491 0238 75696E74 		.ascii	"uint16_t\000"
 3491      31365F74 
 3491      00
 3492              	.LASF98:
 3493 0241 73706565 		.ascii	"speed\000"
 3493      6400
 3494              	.LASF41:
 3495 0247 4943555F 		.ascii	"ICU_READY\000"
 3495      52454144 
 3495      5900
 3496              	.LASF18:
 3497 0251 77726974 		.ascii	"write\000"
 3497      6500
 3498              	.LASF23:
 3499 0257 70757474 		.ascii	"putt\000"
 3499      00
 3500              	.LASF95:
 3501 025c 73706565 		.ascii	"speed_zero_period\000"
 3501      645F7A65 
 3501      726F5F70 
 3501      6572696F 
 3501      6400
 3502              	.LASF68:
 3503 026e 5F5F676E 		.ascii	"__gnuc_va_list\000"
 3503      75635F76 
 3503      615F6C69 
 3503      737400
 3504              	.LASF62:
 3505 027d 77696474 		.ascii	"width_cb\000"
 3505      685F6362 
 3505      00
 3506              	.LASF101:
 3507 0286 7372632F 		.ascii	"src/speed.c\000"
 3507      73706565 
 3507      642E6300 
 3508              	.LASF40:
 3509 0292 4943555F 		.ascii	"ICU_STOP\000"
 3509      53544F50 
 3509      00
 3510              	.LASF54:
 3511 029b 4943555F 		.ascii	"ICU_INPUT_ACTIVE_LOW\000"
 3511      494E5055 
 3511      545F4143 
 3511      54495645 
 3511      5F4C4F57 
 3512              	.LASF71:
 3513 02b0 73706565 		.ascii	"speedWheelPeriodNumber\000"
 3513      64576865 
ARM GAS  C:\Users\DNIEL~1\AppData\Local\Temp\cc7eP7WQ.s 			page 67


 3513      656C5065 
 3513      72696F64 
 3513      4E756D62 
 3514              	.LASF76:
 3515 02c7 73706565 		.ascii	"speedGetLastPeriod\000"
 3515      64476574 
 3515      4C617374 
 3515      50657269 
 3515      6F6400
 3516              	.LASF73:
 3517 02da 69637570 		.ascii	"icup\000"
 3517      00
 3518              	.LASF14:
 3519 02df 5F426F6F 		.ascii	"_Bool\000"
 3519      6C00
 3520              	.LASF8:
 3521 02e5 696E7433 		.ascii	"int32_t\000"
 3521      325F7400 
 3522              	.LASF4:
 3523 02ed 756E7369 		.ascii	"unsigned char\000"
 3523      676E6564 
 3523      20636861 
 3523      7200
 3524              	.LASF5:
 3525 02fb 73686F72 		.ascii	"short int\000"
 3525      7420696E 
 3525      7400
 3526              	.LASF55:
 3527 0305 6963756D 		.ascii	"icumode_t\000"
 3527      6F64655F 
 3527      7400
 3528              	.LASF21:
 3529 030f 42617365 		.ascii	"BaseSequentialStreamVMT\000"
 3529      53657175 
 3529      656E7469 
 3529      616C5374 
 3529      7265616D 
 3530              	.LASF59:
 3531 0327 69637563 		.ascii	"icuchannel_t\000"
 3531      68616E6E 
 3531      656C5F74 
 3531      00
 3532              	.LASF65:
 3533 0334 6368616E 		.ascii	"channel\000"
 3533      6E656C00 
 3534              	.LASF10:
 3535 033c 75696E74 		.ascii	"uint32_t\000"
 3535      33325F74 
 3535      00
 3536              	.LASF17:
 3537 0345 63686172 		.ascii	"char\000"
 3537      00
 3538              	.LASF60:
 3539 034a 6D6F6465 		.ascii	"mode\000"
 3539      00
 3540              	.LASF48:
 3541 034f 636F6E66 		.ascii	"config\000"
ARM GAS  C:\Users\DNIEL~1\AppData\Local\Temp\cc7eP7WQ.s 			page 68


 3541      696700
 3542              	.LASF34:
 3543 0356 444D4152 		.ascii	"DMAR\000"
 3543      00
 3544              	.LASF16:
 3545 035b 73797374 		.ascii	"systime_t\000"
 3545      696D655F 
 3545      7400
 3546              	.LASF96:
 3547 0365 726F7461 		.ascii	"rotation\000"
 3547      74696F6E 
 3547      00
 3548              	.LASF103:
 3549 036e 5F5F6170 		.ascii	"__ap\000"
 3549      00
 3550              	.LASF7:
 3551 0373 73686F72 		.ascii	"short unsigned int\000"
 3551      7420756E 
 3551      7369676E 
 3551      65642069 
 3551      6E7400
 3552              	.LASF56:
 3553 0386 69637566 		.ascii	"icufreq_t\000"
 3553      7265715F 
 3553      7400
 3554              	.LASF22:
 3555 0390 42617365 		.ascii	"BaseChannelVMT\000"
 3555      4368616E 
 3555      6E656C56 
 3555      4D5400
 3556              	.LASF83:
 3557 039f 73706565 		.ascii	"speedWheelPeriodCb\000"
 3557      64576865 
 3557      656C5065 
 3557      72696F64 
 3557      436200
 3558              	.LASF36:
 3559 03b2 43435235 		.ascii	"CCR5\000"
 3559      00
 3560              	.LASF37:
 3561 03b7 43435236 		.ascii	"CCR6\000"
 3561      00
 3562              	.LASF75:
 3563 03bc 73706565 		.ascii	"speedCalc\000"
 3563      6443616C 
 3563      6300
 3564              	.LASF104:
 3565 03c6 636D645F 		.ascii	"cmd_speedvalues\000"
 3565      73706565 
 3565      6476616C 
 3565      75657300 
 3566              	.LASF57:
 3567 03d6 4943555F 		.ascii	"ICU_CHANNEL_1\000"
 3567      4348414E 
 3567      4E454C5F 
 3567      3100
 3568              	.LASF58:
ARM GAS  C:\Users\DNIEL~1\AppData\Local\Temp\cc7eP7WQ.s 			page 69


 3569 03e4 4943555F 		.ascii	"ICU_CHANNEL_2\000"
 3569      4348414E 
 3569      4E454C5F 
 3569      3200
 3570              	.LASF3:
 3571 03f2 75696E74 		.ascii	"uint8_t\000"
 3571      385F7400 
 3572              	.LASF27:
 3573 03fa 42617365 		.ascii	"BaseChannel\000"
 3573      4368616E 
 3573      6E656C00 
 3574              	.LASF84:
 3575 0406 73706565 		.ascii	"speedKMPH_TO_RPM\000"
 3575      644B4D50 
 3575      485F544F 
 3575      5F52504D 
 3575      00
 3576              	.LASF85:
 3577 0417 6B6D7068 		.ascii	"kmph\000"
 3577      00
 3578              	.LASF99:
 3579 041c 72706D61 		.ascii	"rpmasis\000"
 3579      73697300 
 3580              	.LASF19:
 3581 0424 72656164 		.ascii	"read\000"
 3581      00
 3582              	.LASF86:
 3583 0429 61726763 		.ascii	"argc\000"
 3583      00
 3584              	.LASF93:
 3585 042e 73706565 		.ascii	"speed_last_period\000"
 3585      645F6C61 
 3585      73745F70 
 3585      6572696F 
 3585      6400
 3586              	.LASF92:
 3587 0440 69637563 		.ascii	"icucfg\000"
 3587      666700
 3588              	.LASF49:
 3589 0447 636C6F63 		.ascii	"clock\000"
 3589      6B00
 3590              	.LASF87:
 3591 044d 61726776 		.ascii	"argv\000"
 3591      00
 3592              	.LASF50:
 3593 0452 77636372 		.ascii	"wccrp\000"
 3593      7000
 3594              	.LASF79:
 3595 0458 73706565 		.ascii	"speedGetRpm\000"
 3595      64476574 
 3595      52706D00 
 3596              	.LASF66:
 3597 0464 64696572 		.ascii	"dier\000"
 3597      00
 3598              	.LASF72:
 3599 0469 63687072 		.ascii	"chprintf\000"
 3599      696E7466 
ARM GAS  C:\Users\DNIEL~1\AppData\Local\Temp\cc7eP7WQ.s 			page 70


 3599      00
 3600              		.ident	"GCC: (Sourcery G++ Lite 2011.03-42) 4.5.2"
ARM GAS  C:\Users\DNIEL~1\AppData\Local\Temp\cc7eP7WQ.s 			page 71


DEFINED SYMBOLS
                            *ABS*:00000000 speed.c
C:\Users\DNIEL~1\AppData\Local\Temp\cc7eP7WQ.s:24     .text.speedWheelPeriodNumber:00000000 $t
C:\Users\DNIEL~1\AppData\Local\Temp\cc7eP7WQ.s:29     .text.speedWheelPeriodNumber:00000000 speedWheelPeriodNumber
C:\Users\DNIEL~1\AppData\Local\Temp\cc7eP7WQ.s:57     .text.speedWheelPeriodNumber:00000010 $d
C:\Users\DNIEL~1\AppData\Local\Temp\cc7eP7WQ.s:63     .text.chprintf:00000000 $t
C:\Users\DNIEL~1\AppData\Local\Temp\cc7eP7WQ.s:68     .text.chprintf:00000000 chprintf
C:\Users\DNIEL~1\AppData\Local\Temp\cc7eP7WQ.s:108    .text.speedInit:00000000 $t
C:\Users\DNIEL~1\AppData\Local\Temp\cc7eP7WQ.s:114    .text.speedInit:00000000 speedInit
C:\Users\DNIEL~1\AppData\Local\Temp\cc7eP7WQ.s:147    .text.speedInit:00000024 $d
C:\Users\DNIEL~1\AppData\Local\Temp\cc7eP7WQ.s:155    .text.speedCalc:00000000 $t
C:\Users\DNIEL~1\AppData\Local\Temp\cc7eP7WQ.s:161    .text.speedCalc:00000000 speedCalc
C:\Users\DNIEL~1\AppData\Local\Temp\cc7eP7WQ.s:174    .text.speedGetLastPeriod:00000000 $t
C:\Users\DNIEL~1\AppData\Local\Temp\cc7eP7WQ.s:180    .text.speedGetLastPeriod:00000000 speedGetLastPeriod
C:\Users\DNIEL~1\AppData\Local\Temp\cc7eP7WQ.s:220    .text.speedGetLastPeriod:00000014 $d
C:\Users\DNIEL~1\AppData\Local\Temp\cc7eP7WQ.s:225    .text.speedGetPeriodNumber:00000000 $t
C:\Users\DNIEL~1\AppData\Local\Temp\cc7eP7WQ.s:231    .text.speedGetPeriodNumber:00000000 speedGetPeriodNumber
C:\Users\DNIEL~1\AppData\Local\Temp\cc7eP7WQ.s:271    .text.speedGetPeriodNumber:00000014 $d
C:\Users\DNIEL~1\AppData\Local\Temp\cc7eP7WQ.s:277    .text.speedGetRpm:00000000 $t
C:\Users\DNIEL~1\AppData\Local\Temp\cc7eP7WQ.s:283    .text.speedGetRpm:00000000 speedGetRpm
C:\Users\DNIEL~1\AppData\Local\Temp\cc7eP7WQ.s:324    .text.speedGetRpm:0000001c $d
C:\Users\DNIEL~1\AppData\Local\Temp\cc7eP7WQ.s:329    .text.speedGetSpeed:00000000 $t
C:\Users\DNIEL~1\AppData\Local\Temp\cc7eP7WQ.s:335    .text.speedGetSpeed:00000000 speedGetSpeed
C:\Users\DNIEL~1\AppData\Local\Temp\cc7eP7WQ.s:376    .text.speedGetSpeed:0000001c $d
C:\Users\DNIEL~1\AppData\Local\Temp\cc7eP7WQ.s:382    .text.speedRPM_TO_KMPH:00000000 $t
C:\Users\DNIEL~1\AppData\Local\Temp\cc7eP7WQ.s:388    .text.speedRPM_TO_KMPH:00000000 speedRPM_TO_KMPH
C:\Users\DNIEL~1\AppData\Local\Temp\cc7eP7WQ.s:458    .text.speedRPM_TO_KMPH:00000048 $d
C:\Users\DNIEL~1\AppData\Local\Temp\cc7eP7WQ.s:472    .text.speedWheelPeriodCb:00000000 $t
C:\Users\DNIEL~1\AppData\Local\Temp\cc7eP7WQ.s:477    .text.speedWheelPeriodCb:00000000 speedWheelPeriodCb
C:\Users\DNIEL~1\AppData\Local\Temp\cc7eP7WQ.s:663    .text.speedWheelPeriodCb:00000120 $d
C:\Users\DNIEL~1\AppData\Local\Temp\cc7eP7WQ.s:680    .text.speedKMPH_TO_RPM:00000000 $t
C:\Users\DNIEL~1\AppData\Local\Temp\cc7eP7WQ.s:686    .text.speedKMPH_TO_RPM:00000000 speedKMPH_TO_RPM
C:\Users\DNIEL~1\AppData\Local\Temp\cc7eP7WQ.s:757    .text.speedKMPH_TO_RPM:00000048 $d
C:\Users\DNIEL~1\AppData\Local\Temp\cc7eP7WQ.s:766    .text.cmd_speedvalues:00000000 $t
C:\Users\DNIEL~1\AppData\Local\Temp\cc7eP7WQ.s:772    .text.cmd_speedvalues:00000000 cmd_speedvalues
C:\Users\DNIEL~1\AppData\Local\Temp\cc7eP7WQ.s:859    .text.cmd_speedvalues:0000007c $d
C:\Users\DNIEL~1\AppData\Local\Temp\cc7eP7WQ.s:876    .bss.rpmasis:00000000 $d
C:\Users\DNIEL~1\AppData\Local\Temp\cc7eP7WQ.s:880    .bss.rpmasis:00000000 rpmasis
C:\Users\DNIEL~1\AppData\Local\Temp\cc7eP7WQ.s:883    .bss.old_rotation:00000000 $d
C:\Users\DNIEL~1\AppData\Local\Temp\cc7eP7WQ.s:887    .bss.old_rotation:00000000 old_rotation
C:\Users\DNIEL~1\AppData\Local\Temp\cc7eP7WQ.s:890    .bss.rotation:00000000 $d
C:\Users\DNIEL~1\AppData\Local\Temp\cc7eP7WQ.s:894    .bss.rotation:00000000 rotation
C:\Users\DNIEL~1\AppData\Local\Temp\cc7eP7WQ.s:897    .rodata.str1.4:00000000 $d
C:\Users\DNIEL~1\AppData\Local\Temp\cc7eP7WQ.s:921    .bss.rpm_index:00000000 $d
C:\Users\DNIEL~1\AppData\Local\Temp\cc7eP7WQ.s:925    .bss.rpm_index:00000000 rpm_index
C:\Users\DNIEL~1\AppData\Local\Temp\cc7eP7WQ.s:928    .bss.rpm_buff:00000000 $d
C:\Users\DNIEL~1\AppData\Local\Temp\cc7eP7WQ.s:932    .bss.rpm_buff:00000000 rpm_buff
C:\Users\DNIEL~1\AppData\Local\Temp\cc7eP7WQ.s:935    .bss.speed:00000000 $d
C:\Users\DNIEL~1\AppData\Local\Temp\cc7eP7WQ.s:939    .bss.speed:00000000 speed
C:\Users\DNIEL~1\AppData\Local\Temp\cc7eP7WQ.s:942    .bss.speed_last_period:00000000 $d
C:\Users\DNIEL~1\AppData\Local\Temp\cc7eP7WQ.s:946    .bss.speed_last_period:00000000 speed_last_period
C:\Users\DNIEL~1\AppData\Local\Temp\cc7eP7WQ.s:949    .bss.speed_period_num:00000000 $d
C:\Users\DNIEL~1\AppData\Local\Temp\cc7eP7WQ.s:953    .bss.speed_period_num:00000000 speed_period_num
C:\Users\DNIEL~1\AppData\Local\Temp\cc7eP7WQ.s:956    .data.icucfg:00000000 $d
C:\Users\DNIEL~1\AppData\Local\Temp\cc7eP7WQ.s:960    .data.icucfg:00000000 icucfg
C:\Users\DNIEL~1\AppData\Local\Temp\cc7eP7WQ.s:971    .bss.speed_zero_period:00000000 $d
C:\Users\DNIEL~1\AppData\Local\Temp\cc7eP7WQ.s:975    .bss.speed_zero_period:00000000 speed_zero_period
ARM GAS  C:\Users\DNIEL~1\AppData\Local\Temp\cc7eP7WQ.s 			page 72


                     .debug_frame:00000010 $d
C:\Users\DNIEL~1\AppData\Local\Temp\cc7eP7WQ.s:62     .text.speedWheelPeriodNumber:00000018 $t
C:\Users\DNIEL~1\AppData\Local\Temp\cc7eP7WQ.s:154    .text.speedInit:00000034 $t
C:\Users\DNIEL~1\AppData\Local\Temp\cc7eP7WQ.s:224    .text.speedGetLastPeriod:00000018 $t
C:\Users\DNIEL~1\AppData\Local\Temp\cc7eP7WQ.s:276    .text.speedGetPeriodNumber:00000018 $t
C:\Users\DNIEL~1\AppData\Local\Temp\cc7eP7WQ.s:471    .text.speedRPM_TO_KMPH:00000058 $t
C:\Users\DNIEL~1\AppData\Local\Temp\cc7eP7WQ.s:679    .text.speedWheelPeriodCb:00000154 $t
C:\Users\DNIEL~1\AppData\Local\Temp\cc7eP7WQ.s:765    .text.speedKMPH_TO_RPM:0000005c $t

UNDEFINED SYMBOLS
chvprintf
icuStart
icuEnable
ICUD1
__aeabi_d2uiz
__aeabi_dmul
__aeabi_ui2d
__aeabi_dadd
__aeabi_ddiv
__aeabi_dcmplt
__aeabi_dcmpgt
__aeabi_dsub
chThdSleep
