ARM GAS  C:\Users\DNIEL~1\AppData\Local\Temp\ccGMwGnC.s 			page 1


   1              		.syntax unified
   2              		.cpu cortex-m4
   3              		.fpu softvfp
   4              		.eabi_attribute 20, 1
   5              		.eabi_attribute 21, 1
   6              		.eabi_attribute 23, 3
   7              		.eabi_attribute 24, 1
   8              		.eabi_attribute 25, 1
   9              		.eabi_attribute 26, 1
  10              		.eabi_attribute 30, 2
  11              		.eabi_attribute 18, 4
  12              		.thumb
  13              		.file	"speed.c"
  20 0000 F3030000 		.text
  20      02008502 
  20      00000201 
  20      FB0E0D00 
  20      01010101 
  21              	.Ltext0:
  22              		.cfi_sections	.debug_frame
  23              		.section	.text.speedWheelPeriodNumber,"ax",%progbits
  24              		.align	2
  25              		.p2align 4,,15
  26              		.thumb
  27              		.thumb_func
  28              		.type	speedWheelPeriodNumber, %function
  29              	speedWheelPeriodNumber:
  30              	.LFB120:
  31              		.file 1 "src/speed.c"
  32              		.loc 1 90 0
  33              		.cfi_startproc
  34              		@ args = 0, pretend = 0, frame = 0
  35              		@ frame_needed = 0, uses_anonymous_args = 0
  36              		@ link register save eliminated.
  37              	.LVL0:
  38              		.loc 1 92 0
  39 0000 0349     		ldr	r1, .L2
  40              		.loc 1 93 0
  41 0002 044B     		ldr	r3, .L2+4
  42              		.loc 1 92 0
  43 0004 0A68     		ldr	r2, [r1, #0]
  44 0006 501C     		adds	r0, r2, #1
  45              	.LVL1:
  46              		.loc 1 93 0
  47 0008 0022     		movs	r2, #0
  48              		.loc 1 92 0
  49 000a 0860     		str	r0, [r1, #0]
  50              		.loc 1 93 0
  51 000c 1A60     		str	r2, [r3, #0]
  52              		.loc 1 94 0
  53 000e 7047     		bx	lr
ARM GAS  C:\Users\DNIEL~1\AppData\Local\Temp\ccGMwGnC.s 			page 2


  54              	.L3:
  55              		.align	2
  56              	.L2:
  57 0010 00000000 		.word	.LANCHOR0
  58 0014 00000000 		.word	.LANCHOR1
  59              		.cfi_endproc
  60              	.LFE120:
  61              		.size	speedWheelPeriodNumber, .-speedWheelPeriodNumber
  62 0018 AFF30080 		.section	.text.chprintf,"ax",%progbits
  62      AFF30080 
  63              		.align	2
  64              		.p2align 4,,15
  65              		.thumb
  66              		.thumb_func
  67              		.type	chprintf, %function
  68              	chprintf:
  69              	.LFB118:
  70              		.file 2 "../../../ChibiOS/os/various/chprintf.h"
  71              		.loc 2 69 0
  72              		.cfi_startproc
  73              		@ args = 4, pretend = 12, frame = 8
  74              		@ frame_needed = 0, uses_anonymous_args = 1
  75              	.LVL2:
  76 0000 0EB4     		push	{r1, r2, r3}
  77              	.LCFI0:
  78              		.cfi_def_cfa_offset 12
  79 0002 00B5     		push	{lr}
  80              	.LCFI1:
  81              		.cfi_def_cfa_offset 16
  82 0004 82B0     		sub	sp, sp, #8
  83              	.LCFI2:
  84              		.cfi_def_cfa_offset 24
  85              		.loc 2 69 0
  86 0006 03AB     		add	r3, sp, #12
  87              		.cfi_offset 14, -16
  88              		.cfi_offset 3, -4
  89              		.cfi_offset 2, -8
  90              		.cfi_offset 1, -12
  91 0008 53F8041B 		ldr	r1, [r3], #4
  92              		.loc 2 73 0
  93 000c 1A46     		mov	r2, r3
  94              		.loc 2 72 0
  95 000e 0193     		str	r3, [sp, #4]
  96              		.loc 2 73 0
  97 0010 FFF7FEFF 		bl	chvprintf
  98              	.LVL3:
  99              		.loc 2 75 0
 100 0014 02B0     		add	sp, sp, #8
 101 0016 5DF804EB 		pop	{lr}
 102 001a 03B0     		add	sp, sp, #12
 103 001c 7047     		bx	lr
 104              		.cfi_endproc
 105              	.LFE118:
 106              		.size	chprintf, .-chprintf
 107 001e 00BF     		.section	.text.speedInit,"ax",%progbits
 108              		.align	2
 109              		.p2align 4,,15
ARM GAS  C:\Users\DNIEL~1\AppData\Local\Temp\ccGMwGnC.s 			page 3


 110              		.global	speedInit
 111              		.thumb
 112              		.thumb_func
 113              		.type	speedInit, %function
 114              	speedInit:
 115              	.LFB121:
 116              		.loc 1 96 0
 117              		.cfi_startproc
 118              		@ args = 0, pretend = 0, frame = 0
 119              		@ frame_needed = 0, uses_anonymous_args = 0
 120 0000 10B5     		push	{r4, lr}
 121              	.LCFI3:
 122              		.cfi_def_cfa_offset 8
 123              		.loc 1 101 0
 124 0002 084C     		ldr	r4, .L6
 125              		.cfi_offset 14, -4
 126              		.cfi_offset 4, -8
 127 0004 0849     		ldr	r1, .L6+4
 128 0006 2046     		mov	r0, r4
 129 0008 FFF7FEFF 		bl	icuStart
 130              		.loc 1 102 0
 131 000c 2046     		mov	r0, r4
 132 000e FFF7FEFF 		bl	icuEnable
 133              		.loc 1 105 0
 134 0012 0649     		ldr	r1, .L6+8
 135 0014 0022     		movs	r2, #0
 136 0016 0023     		movs	r3, #0
 137 0018 C1E90023 		strd	r2, [r1]
 138              		.loc 1 104 0
 139 001c 044B     		ldr	r3, .L6+12
 140 001e 0022     		movs	r2, #0
 141 0020 1A60     		str	r2, [r3, #0]
 142              		.loc 1 106 0
 143 0022 10BD     		pop	{r4, pc}
 144              	.L7:
 145              		.align	2
 146              	.L6:
 147 0024 00000000 		.word	ICUD1
 148 0028 00000000 		.word	.LANCHOR2
 149 002c 00000000 		.word	.LANCHOR3
 150 0030 00000000 		.word	.LANCHOR0
 151              		.cfi_endproc
 152              	.LFE121:
 153              		.size	speedInit, .-speedInit
 154 0034 AFF30080 		.section	.text.speedGetLastPeriod,"ax",%progbits
 154      AFF30080 
 154      AFF30080 
 155              		.align	2
 156              		.p2align 4,,15
 157              		.global	speedGetLastPeriod
 158              		.thumb
 159              		.thumb_func
 160              		.type	speedGetLastPeriod, %function
 161              	speedGetLastPeriod:
 162              	.LFB122:
 163              		.loc 1 154 0
 164              		.cfi_startproc
ARM GAS  C:\Users\DNIEL~1\AppData\Local\Temp\ccGMwGnC.s 			page 4


 165              		@ args = 0, pretend = 0, frame = 0
 166              		@ frame_needed = 0, uses_anonymous_args = 0
 167              		@ link register save eliminated.
 168              	.LBB2:
 169              		.loc 1 157 0
 170 0000 2023     		movs	r3, #32
 171              	.LVL4:
 172              	@ 157 "src/speed.c" 1
 173 0002 83F31188 		msr     BASEPRI, r3
 174              	@ 0 "" 2
 175              	.LVL5:
 176              		.thumb
 177              	.LBE2:
 178              		.loc 1 158 0
 179 0006 034A     		ldr	r2, .L9
 180              	.LBB3:
 181              		.loc 1 159 0
 182 0008 0023     		movs	r3, #0
 183              	.LVL6:
 184              	.LBE3:
 185              		.loc 1 158 0
 186 000a 1068     		ldr	r0, [r2, #0]
 187              	.LVL7:
 188              	.LBB4:
 189              		.loc 1 159 0
 190              	@ 159 "src/speed.c" 1
 191 000c 83F31188 		msr     BASEPRI, r3
 192              	@ 0 "" 2
 193              	.LVL8:
 194              		.thumb
 195              	.LBE4:
 196              		.loc 1 161 0
 197 0010 7047     		bx	lr
 198              	.L10:
 199 0012 00BF     		.align	2
 200              	.L9:
 201 0014 00000000 		.word	.LANCHOR4
 202              		.cfi_endproc
 203              	.LFE122:
 204              		.size	speedGetLastPeriod, .-speedGetLastPeriod
 205 0018 AFF30080 		.section	.text.speedGetPeriodNumber,"ax",%progbits
 205      AFF30080 
 206              		.align	2
 207              		.p2align 4,,15
 208              		.global	speedGetPeriodNumber
 209              		.thumb
 210              		.thumb_func
 211              		.type	speedGetPeriodNumber, %function
 212              	speedGetPeriodNumber:
 213              	.LFB123:
 214              		.loc 1 163 0
 215              		.cfi_startproc
 216              		@ args = 0, pretend = 0, frame = 0
 217              		@ frame_needed = 0, uses_anonymous_args = 0
 218              		@ link register save eliminated.
 219              	.LBB5:
 220              		.loc 1 166 0
ARM GAS  C:\Users\DNIEL~1\AppData\Local\Temp\ccGMwGnC.s 			page 5


 221 0000 2023     		movs	r3, #32
 222              	.LVL9:
 223              	@ 166 "src/speed.c" 1
 224 0002 83F31188 		msr     BASEPRI, r3
 225              	@ 0 "" 2
 226              	.LVL10:
 227              		.thumb
 228              	.LBE5:
 229              		.loc 1 167 0
 230 0006 034A     		ldr	r2, .L12
 231              	.LBB6:
 232              		.loc 1 168 0
 233 0008 0023     		movs	r3, #0
 234              	.LVL11:
 235              	.LBE6:
 236              		.loc 1 167 0
 237 000a 1068     		ldr	r0, [r2, #0]
 238              	.LVL12:
 239              	.LBB7:
 240              		.loc 1 168 0
 241              	@ 168 "src/speed.c" 1
 242 000c 83F31188 		msr     BASEPRI, r3
 243              	@ 0 "" 2
 244              	.LVL13:
 245              		.thumb
 246              	.LBE7:
 247              		.loc 1 170 0
 248 0010 7047     		bx	lr
 249              	.L13:
 250 0012 00BF     		.align	2
 251              	.L12:
 252 0014 00000000 		.word	.LANCHOR0
 253              		.cfi_endproc
 254              	.LFE123:
 255              		.size	speedGetPeriodNumber, .-speedGetPeriodNumber
 256              		.global	__aeabi_d2uiz
 257 0018 AFF30080 		.section	.text.speedGetRpm,"ax",%progbits
 257      AFF30080 
 258              		.align	2
 259              		.p2align 4,,15
 260              		.global	speedGetRpm
 261              		.thumb
 262              		.thumb_func
 263              		.type	speedGetRpm, %function
 264              	speedGetRpm:
 265              	.LFB124:
 266              		.loc 1 172 0
 267              		.cfi_startproc
 268              		@ args = 0, pretend = 0, frame = 0
 269              		@ frame_needed = 0, uses_anonymous_args = 0
 270 0000 08B5     		push	{r3, lr}
 271              	.LCFI4:
 272              		.cfi_def_cfa_offset 8
 273              	.LBB8:
 274              		.loc 1 175 0
 275 0002 2023     		movs	r3, #32
 276              		.cfi_offset 14, -4
ARM GAS  C:\Users\DNIEL~1\AppData\Local\Temp\ccGMwGnC.s 			page 6


 277              		.cfi_offset 3, -8
 278              	.LVL14:
 279              	@ 175 "src/speed.c" 1
 280 0004 83F31188 		msr     BASEPRI, r3
 281              	@ 0 "" 2
 282              	.LVL15:
 283              		.thumb
 284              	.LBE8:
 285              		.loc 1 176 0
 286 0008 044B     		ldr	r3, .L15
 287              	.LVL16:
 288 000a D3E90001 		ldrd	r0, [r3]
 289 000e FFF7FEFF 		bl	__aeabi_d2uiz
 290              	.LBB9:
 291              		.loc 1 177 0
 292 0012 0023     		movs	r3, #0
 293              	.LVL17:
 294              	@ 177 "src/speed.c" 1
 295 0014 83F31188 		msr     BASEPRI, r3
 296              	@ 0 "" 2
 297              	.LVL18:
 298              		.thumb
 299              	.LBE9:
 300              		.loc 1 179 0
 301 0018 08BD     		pop	{r3, pc}
 302              	.L16:
 303 001a 00BF     		.align	2
 304              	.L15:
 305 001c 00000000 		.word	.LANCHOR5
 306              		.cfi_endproc
 307              	.LFE124:
 308              		.size	speedGetRpm, .-speedGetRpm
 309              		.section	.text.speedGetSpeed,"ax",%progbits
 310              		.align	2
 311              		.p2align 4,,15
 312              		.global	speedGetSpeed
 313              		.thumb
 314              		.thumb_func
 315              		.type	speedGetSpeed, %function
 316              	speedGetSpeed:
 317              	.LFB125:
 318              		.loc 1 181 0
 319              		.cfi_startproc
 320              		@ args = 0, pretend = 0, frame = 0
 321              		@ frame_needed = 0, uses_anonymous_args = 0
 322 0000 08B5     		push	{r3, lr}
 323              	.LCFI5:
 324              		.cfi_def_cfa_offset 8
 325              	.LBB10:
 326              		.loc 1 184 0
 327 0002 2023     		movs	r3, #32
 328              		.cfi_offset 14, -4
 329              		.cfi_offset 3, -8
 330              	.LVL19:
 331              	@ 184 "src/speed.c" 1
 332 0004 83F31188 		msr     BASEPRI, r3
 333              	@ 0 "" 2
ARM GAS  C:\Users\DNIEL~1\AppData\Local\Temp\ccGMwGnC.s 			page 7


 334              	.LVL20:
 335              		.thumb
 336              	.LBE10:
 337              		.loc 1 185 0
 338 0008 044B     		ldr	r3, .L18
 339              	.LVL21:
 340 000a D3E90001 		ldrd	r0, [r3]
 341 000e FFF7FEFF 		bl	__aeabi_d2uiz
 342              	.LBB11:
 343              		.loc 1 186 0
 344 0012 0023     		movs	r3, #0
 345              	.LVL22:
 346              	@ 186 "src/speed.c" 1
 347 0014 83F31188 		msr     BASEPRI, r3
 348              	@ 0 "" 2
 349              	.LVL23:
 350              		.thumb
 351              	.LBE11:
 352              		.loc 1 188 0
 353 0018 08BD     		pop	{r3, pc}
 354              	.L19:
 355 001a 00BF     		.align	2
 356              	.L18:
 357 001c 00000000 		.word	.LANCHOR6
 358              		.cfi_endproc
 359              	.LFE125:
 360              		.size	speedGetSpeed, .-speedGetSpeed
 361              		.global	__aeabi_dmul
 362              		.section	.text.speedRPM_TO_KMPH,"ax",%progbits
 363              		.align	2
 364              		.p2align 4,,15
 365              		.global	speedRPM_TO_KMPH
 366              		.thumb
 367              		.thumb_func
 368              		.type	speedRPM_TO_KMPH, %function
 369              	speedRPM_TO_KMPH:
 370              	.LFB126:
 371              		.loc 1 190 0
 372              		.cfi_startproc
 373              		@ args = 0, pretend = 0, frame = 0
 374              		@ frame_needed = 0, uses_anonymous_args = 0
 375              	.LVL24:
 376 0000 08B5     		push	{r3, lr}
 377              	.LCFI6:
 378              		.cfi_def_cfa_offset 8
 379              	.LBB12:
 380              		.loc 1 193 0
 381 0002 2023     		movs	r3, #32
 382              		.cfi_offset 14, -4
 383              		.cfi_offset 3, -8
 384              	.LVL25:
 385              	@ 193 "src/speed.c" 1
 386 0004 83F31188 		msr     BASEPRI, r3
 387              	@ 0 "" 2
 388              	.LVL26:
 389              		.thumb
 390              	.LBE12:
ARM GAS  C:\Users\DNIEL~1\AppData\Local\Temp\ccGMwGnC.s 			page 8


 391              		.loc 1 194 0
 392 0008 0FA3     		adr	r3, .L23
 393 000a D3E90023 		ldrd	r2, [r3]
 394 000e FFF7FEFF 		bl	__aeabi_dmul
 395              	.LVL27:
 396 0012 FFF7FEFF 		bl	__aeabi_d2uiz
 397              	.LVL28:
 398              		.loc 1 196 0
 399 0016 0E4A     		ldr	r2, .L23+8
 400              		.loc 1 195 0
 401 0018 C0EB0010 		rsb	r0, r0, r0, lsl #4
 402              	.LVL29:
 403              		.loc 1 196 0
 404 001c C0F3DA03 		ubfx	r3, r0, #3, #27
 405 0020 A2FB0313 		umull	r1, r3, r2, r3
 406              		.loc 1 198 0
 407 0024 0B48     		ldr	r0, .L23+12
 408              	.LVL30:
 409              		.loc 1 196 0
 410 0026 DB09     		lsrs	r3, r3, #7
 411              	.LVL31:
 412              		.loc 1 198 0
 413 0028 A0FB0320 		umull	r2, r0, r0, r3
 414 002c C008     		lsrs	r0, r0, #3
 415 002e 00EB8002 		add	r2, r0, r0, lsl #2
 416 0032 A3EB4203 		sub	r3, r3, r2, lsl #1
 417              	.LVL32:
 418 0036 052B     		cmp	r3, #5
 419              	.LVL33:
 420              		.loc 1 200 0
 421 0038 88BF     		it	hi
 422 003a 0130     		addhi	r0, r0, #1
 423              	.LVL34:
 424              	.LBB13:
 425              		.loc 1 204 0
 426 003c 0023     		movs	r3, #0
 427              	.LVL35:
 428              	@ 204 "src/speed.c" 1
 429 003e 83F31188 		msr     BASEPRI, r3
 430              	@ 0 "" 2
 431              	.LVL36:
 432              		.thumb
 433              	.LBE13:
 434              		.loc 1 207 0
 435 0042 08BD     		pop	{r3, pc}
 436              	.L24:
 437 0044 AFF30080 		.align	3
 438              	.L23:
 439 0048 00000000 		.word	0
 440 004c 00209C40 		.word	1083973632
 441 0050 C55A7C0A 		.word	175921861
 442 0054 CDCCCCCC 		.word	-858993459
 443              		.cfi_endproc
 444              	.LFE126:
 445              		.size	speedRPM_TO_KMPH, .-speedRPM_TO_KMPH
 446              		.global	__aeabi_ui2d
 447              		.global	__aeabi_dadd
ARM GAS  C:\Users\DNIEL~1\AppData\Local\Temp\ccGMwGnC.s 			page 9


 448              		.global	__aeabi_ddiv
 449              		.global	__aeabi_dcmplt
 450              		.global	__aeabi_dcmpgt
 451              		.global	__aeabi_dsub
 452 0058 AFF30080 		.section	.text.speedWheelPeriodCb,"ax",%progbits
 452      AFF30080 
 453              		.align	2
 454              		.p2align 4,,15
 455              		.thumb
 456              		.thumb_func
 457              		.type	speedWheelPeriodCb, %function
 458              	speedWheelPeriodCb:
 459              	.LFB119:
 460              		.loc 1 44 0
 461              		.cfi_startproc
 462              		@ args = 0, pretend = 0, frame = 0
 463              		@ frame_needed = 0, uses_anonymous_args = 0
 464              	.LVL37:
 465              		.loc 1 48 0
 466 0000 4269     		ldr	r2, [r0, #20]
 467 0002 4949     		ldr	r1, .L43+8
 468              		.loc 1 50 0
 469 0004 4948     		ldr	r0, .L43+12
 470              	.LVL38:
 471              		.loc 1 44 0
 472 0006 2DE9F84F 		push	{r3, r4, r5, r6, r7, r8, r9, sl, fp, lr}
 473              	.LCFI7:
 474              		.cfi_def_cfa_offset 40
 475              		.loc 1 48 0
 476 000a 1768     		ldr	r7, [r2, #0]
 477              		.cfi_offset 14, -4
 478              		.cfi_offset 11, -8
 479              		.cfi_offset 10, -12
 480              		.cfi_offset 9, -16
 481              		.cfi_offset 8, -20
 482              		.cfi_offset 7, -24
 483              		.cfi_offset 6, -28
 484              		.cfi_offset 5, -32
 485              		.cfi_offset 4, -36
 486              		.cfi_offset 3, -40
 487              		.loc 1 50 0
 488 000c DFF82C91 		ldr	r9, .L43+28
 489              		.loc 1 48 0
 490 0010 7B1C     		adds	r3, r7, #1
 491              		.loc 1 50 0
 492 0012 03EB4306 		add	r6, r3, r3, lsl #1
 493 0016 3501     		lsls	r5, r6, #4
 494              		.loc 1 48 0
 495 0018 0B60     		str	r3, [r1, #0]
 496              		.loc 1 50 0
 497 001a B0FBF5F0 		udiv	r0, r0, r5
 498 001e FFF7FEFF 		bl	__aeabi_ui2d
 499              		.loc 1 52 0
 500 0022 434B     		ldr	r3, .L43+16
 501 0024 1C88     		ldrh	r4, [r3, #0]
 502 0026 621C     		adds	r2, r4, #1
 503 0028 92B2     		uxth	r2, r2
ARM GAS  C:\Users\DNIEL~1\AppData\Local\Temp\ccGMwGnC.s 			page 10


 504              		.loc 1 54 0
 505 002a 2F2A     		cmp	r2, #47
 506              		.loc 1 50 0
 507 002c C9E90001 		strd	r0, [r9]
 508              		.loc 1 52 0
 509 0030 1A80     		strh	r2, [r3, #0]	@ movhi
 510              		.loc 1 54 0
 511 0032 02D9     		bls	.L27
 512              		.loc 1 55 0
 513 0034 0024     		movs	r4, #0
 514 0036 1C80     		strh	r4, [r3, #0]	@ movhi
 515 0038 0022     		movs	r2, #0
 516              	.L27:
 517              		.loc 1 59 0
 518 003a DFF814A1 		ldr	sl, .L43+48
 519              		.loc 1 58 0
 520 003e 3D4B     		ldr	r3, .L43+20
 521              		.loc 1 59 0
 522 0040 0024     		movs	r4, #0
 523 0042 0025     		movs	r5, #0
 524 0044 CAE90045 		strd	r4, [sl]
 525              	.LVL39:
 526              		.loc 1 58 0
 527 0048 03EBC208 		add	r8, r3, r2, lsl #3
 528 004c C8E90001 		strd	r0, [r8]
 529              		.loc 1 59 0
 530 0050 A3F10806 		sub	r6, r3, #8
 531              		.loc 1 44 0
 532 0054 03F5BC78 		add	r8, r3, #376
 533              	.LVL40:
 534              	.L28:
 535              		.loc 1 62 0 discriminator 2
 536 0058 D6E90223 		ldrd	r2, [r6, #8]
 537              		.loc 1 44 0 discriminator 2
 538 005c 06F10807 		add	r7, r6, #8
 539              		.loc 1 62 0 discriminator 2
 540 0060 2046     		mov	r0, r4
 541 0062 2946     		mov	r1, r5
 542 0064 FFF7FEFF 		bl	__aeabi_dadd
 543 0068 D7E90223 		ldrd	r2, [r7, #8]
 544 006c FFF7FEFF 		bl	__aeabi_dadd
 545              		.loc 1 44 0 discriminator 2
 546 0070 1036     		adds	r6, r6, #16
 547              		.loc 1 61 0 discriminator 2
 548 0072 4645     		cmp	r6, r8
 549              		.loc 1 62 0 discriminator 2
 550 0074 0446     		mov	r4, r0
 551 0076 0D46     		mov	r5, r1
 552              		.loc 1 61 0 discriminator 2
 553 0078 EED1     		bne	.L28
 554              		.loc 1 61 0 is_stmt 0
 555 007a CAE90045 		strd	r4, [sl]
 556              		.loc 1 65 0 is_stmt 1
 557 007e 0022     		movs	r2, #0
 558 0080 2D4B     		ldr	r3, .L43+24
 559 0082 2E4E     		ldr	r6, .L43+28
 560 0084 FFF7FEFF 		bl	__aeabi_ddiv
ARM GAS  C:\Users\DNIEL~1\AppData\Local\Temp\ccGMwGnC.s 			page 11


 561              		.loc 1 67 0
 562 0088 0022     		movs	r2, #0
 563              		.loc 1 65 0
 564 008a 0446     		mov	r4, r0
 565 008c 0D46     		mov	r5, r1
 566              		.loc 1 67 0
 567 008e 0023     		movs	r3, #0
 568              		.loc 1 65 0
 569 0090 C9E90045 		strd	r4, [r9]
 570              		.loc 1 67 0
 571 0094 FFF7FEFF 		bl	__aeabi_dcmplt
 572 0098 0028     		cmp	r0, #0
 573 009a 2ED0     		beq	.L41
 574              		.loc 1 68 0
 575 009c 0022     		movs	r2, #0
 576 009e 0023     		movs	r3, #0
 577 00a0 C6E90023 		strd	r2, [r6]
 578 00a4 1446     		mov	r4, r2
 579 00a6 1D46     		mov	r5, r3
 580              	.L31:
 581              		.loc 1 75 0
 582 00a8 254E     		ldr	r6, .L43+32
 583 00aa D6E900AB 		ldrd	sl, [r6]
 584 00ae 2046     		mov	r0, r4
 585 00b0 5246     		mov	r2, sl
 586 00b2 5B46     		mov	r3, fp
 587 00b4 2946     		mov	r1, r5
 588 00b6 FFF7FEFF 		bl	__aeabi_dsub
 589 00ba 0022     		movs	r2, #0
 590 00bc 214B     		ldr	r3, .L43+36
 591 00be FFF7FEFF 		bl	__aeabi_dcmpgt
 592 00c2 18B1     		cbz	r0, .L33
 593              		.loc 1 77 0
 594 00c4 C9E900AB 		strd	sl, [r9]
 595 00c8 5446     		mov	r4, sl
 596 00ca 5D46     		mov	r5, fp
 597              	.L33:
 598              		.loc 1 82 0
 599 00cc 2046     		mov	r0, r4
 600 00ce 2946     		mov	r1, r5
 601              		.loc 1 80 0
 602 00d0 C6E90045 		strd	r4, [r6]
 603              		.loc 1 82 0
 604 00d4 FFF7FEFF 		bl	speedRPM_TO_KMPH
 605 00d8 FFF7FEFF 		bl	__aeabi_ui2d
 606              		.loc 1 84 0
 607 00dc 1A4B     		ldr	r3, .L43+40
 608              		.loc 1 82 0
 609 00de 1B4C     		ldr	r4, .L43+44
 610              		.loc 1 84 0
 611 00e0 1A68     		ldr	r2, [r3, #0]
 612 00e2 322A     		cmp	r2, #50
 613              		.loc 1 82 0
 614 00e4 C4E90001 		strd	r0, [r4]
 615              		.loc 1 84 0
 616 00e8 05D9     		bls	.L25
 617              		.loc 1 85 0
ARM GAS  C:\Users\DNIEL~1\AppData\Local\Temp\ccGMwGnC.s 			page 12


 618 00ea 0022     		movs	r2, #0
 619 00ec 0023     		movs	r3, #0
 620 00ee C9E90023 		strd	r2, [r9]
 621              		.loc 1 86 0
 622 00f2 C4E90023 		strd	r2, [r4]
 623              	.L25:
 624 00f6 BDE8F88F 		pop	{r3, r4, r5, r6, r7, r8, r9, sl, fp, pc}
 625              	.L41:
 626              		.loc 1 71 0
 627 00fa 0FF2240B 		adr	fp, .L43
 628 00fe DBE900AB 		ldrd	sl, [fp]
 629 0102 2046     		mov	r0, r4
 630 0104 2946     		mov	r1, r5
 631 0106 5246     		mov	r2, sl
 632 0108 5B46     		mov	r3, fp
 633 010a FFF7FEFF 		bl	__aeabi_dcmpgt
 634 010e 0028     		cmp	r0, #0
 635 0110 CAD0     		beq	.L31
 636              		.loc 1 72 0
 637 0112 C6E900AB 		strd	sl, [r6]
 638 0116 5446     		mov	r4, sl
 639 0118 5D46     		mov	r5, fp
 640 011a C5E7     		b	.L31
 641              	.L44:
 642 011c AFF30080 		.align	3
 643              	.L43:
 644 0120 00000000 		.word	0
 645 0124 0070A740 		.word	1084715008
 646 0128 00000000 		.word	.LANCHOR4
 647 012c 00879303 		.word	60000000
 648 0130 00000000 		.word	.LANCHOR7
 649 0134 00000000 		.word	.LANCHOR8
 650 0138 00004840 		.word	1078460416
 651 013c 00000000 		.word	.LANCHOR5
 652 0140 00000000 		.word	.LANCHOR3
 653 0144 00004940 		.word	1078525952
 654 0148 00000000 		.word	.LANCHOR1
 655 014c 00000000 		.word	.LANCHOR6
 656 0150 00000000 		.word	.LANCHOR9
 657              		.cfi_endproc
 658              	.LFE119:
 659              		.size	speedWheelPeriodCb, .-speedWheelPeriodCb
 660 0154 AFF30080 		.section	.text.speedKMPH_TO_RPM,"ax",%progbits
 660      AFF30080 
 660      AFF30080 
 661              		.align	2
 662              		.p2align 4,,15
 663              		.global	speedKMPH_TO_RPM
 664              		.thumb
 665              		.thumb_func
 666              		.type	speedKMPH_TO_RPM, %function
 667              	speedKMPH_TO_RPM:
 668              	.LFB127:
 669              		.loc 1 209 0
 670              		.cfi_startproc
 671              		@ args = 0, pretend = 0, frame = 0
 672              		@ frame_needed = 0, uses_anonymous_args = 0
ARM GAS  C:\Users\DNIEL~1\AppData\Local\Temp\ccGMwGnC.s 			page 13


 673              	.LVL41:
 674 0000 08B5     		push	{r3, lr}
 675              	.LCFI8:
 676              		.cfi_def_cfa_offset 8
 677              	.LBB14:
 678              		.loc 1 212 0
 679 0002 2023     		movs	r3, #32
 680              		.cfi_offset 14, -4
 681              		.cfi_offset 3, -8
 682              	.LVL42:
 683              	@ 212 "src/speed.c" 1
 684 0004 83F31188 		msr     BASEPRI, r3
 685              	@ 0 "" 2
 686              	.LVL43:
 687              		.thumb
 688              	.LBE14:
 689              		.loc 1 213 0
 690 0008 0FA3     		adr	r3, .L48
 691 000a D3E90023 		ldrd	r2, [r3]
 692 000e FFF7FEFF 		bl	__aeabi_dmul
 693              	.LVL44:
 694 0012 FFF7FEFF 		bl	__aeabi_d2uiz
 695              	.LVL45:
 696              		.loc 1 214 0
 697 0016 0E4B     		ldr	r3, .L48+8
 698              		.loc 1 215 0
 699 0018 0E4A     		ldr	r2, .L48+12
 700              		.loc 1 214 0
 701 001a A3FB0013 		umull	r1, r3, r3, r0
 702              	.LVL46:
 703              		.loc 1 215 0
 704 001e DB09     		lsrs	r3, r3, #7
 705 0020 A2FB0313 		umull	r1, r3, r2, r3
 706              		.loc 1 217 0
 707 0024 0C48     		ldr	r0, .L48+16
 708              		.loc 1 215 0
 709 0026 9B08     		lsrs	r3, r3, #2
 710              	.LVL47:
 711              		.loc 1 217 0
 712 0028 A0FB0320 		umull	r2, r0, r0, r3
 713 002c C008     		lsrs	r0, r0, #3
 714 002e 00EB8002 		add	r2, r0, r0, lsl #2
 715 0032 A3EB4203 		sub	r3, r3, r2, lsl #1
 716              	.LVL48:
 717 0036 052B     		cmp	r3, #5
 718              	.LVL49:
 719              		.loc 1 219 0
 720 0038 88BF     		it	hi
 721 003a 0130     		addhi	r0, r0, #1
 722              	.LVL50:
 723              	.LBB15:
 724              		.loc 1 223 0
 725 003c 0023     		movs	r3, #0
 726              	.LVL51:
 727              	@ 223 "src/speed.c" 1
 728 003e 83F31188 		msr     BASEPRI, r3
 729              	@ 0 "" 2
ARM GAS  C:\Users\DNIEL~1\AppData\Local\Temp\ccGMwGnC.s 			page 14


 730              	.LVL52:
 731              		.thumb
 732              	.LBE15:
 733              		.loc 1 226 0
 734 0042 08BD     		pop	{r3, pc}
 735              	.L49:
 736 0044 AFF30080 		.align	3
 737              	.L48:
 738 0048 00000000 		.word	0
 739 004c 80842E41 		.word	1093567616
 740 0050 89888888 		.word	-2004318071
 741 0054 176CC116 		.word	381774871
 742 0058 CDCCCCCC 		.word	-858993459
 743              		.cfi_endproc
 744              	.LFE127:
 745              		.size	speedKMPH_TO_RPM, .-speedKMPH_TO_RPM
 746 005c AFF30080 		.section	.text.cmd_speedvalues,"ax",%progbits
 747              		.align	2
 748              		.p2align 4,,15
 749              		.global	cmd_speedvalues
 750              		.thumb
 751              		.thumb_func
 752              		.type	cmd_speedvalues, %function
 753              	cmd_speedvalues:
 754              	.LFB128:
 755              		.loc 1 228 0
 756              		.cfi_startproc
 757              		@ args = 0, pretend = 0, frame = 0
 758              		@ frame_needed = 0, uses_anonymous_args = 0
 759              	.LVL53:
 760 0000 F8B5     		push	{r3, r4, r5, r6, r7, lr}
 761              	.LCFI9:
 762              		.cfi_def_cfa_offset 24
 763              		.loc 1 232 0
 764 0002 1E49     		ldr	r1, .L53
 765              	.LVL54:
 766              		.loc 1 237 0
 767 0004 1E4F     		ldr	r7, .L53+4
 768              		.cfi_offset 14, -4
 769              		.cfi_offset 7, -8
 770              		.cfi_offset 6, -12
 771              		.cfi_offset 5, -16
 772              		.cfi_offset 4, -20
 773              		.cfi_offset 3, -24
 774              		.loc 1 238 0
 775 0006 1F4E     		ldr	r6, .L53+8
 776              		.loc 1 239 0
 777 0008 1F4D     		ldr	r5, .L53+12
 778              		.loc 1 228 0
 779 000a 0446     		mov	r4, r0
 780              		.loc 1 232 0
 781 000c FFF7FEFF 		bl	chprintf
 782              	.LVL55:
 783              		.loc 1 233 0
 784 0010 2046     		mov	r0, r4
 785 0012 1E49     		ldr	r1, .L53+16
 786 0014 FFF7FEFF 		bl	chprintf
ARM GAS  C:\Users\DNIEL~1\AppData\Local\Temp\ccGMwGnC.s 			page 15


 787              		.loc 1 234 0
 788 0018 27E0     		b	.L51
 789              	.L52:
 790              		.loc 1 235 0
 791 001a 0022     		movs	r2, #0
 792 001c 1346     		mov	r3, r2
 793 001e 1C49     		ldr	r1, .L53+20
 794 0020 2046     		mov	r0, r4
 795 0022 FFF7FEFF 		bl	chprintf
 796              		.loc 1 237 0
 797 0026 2046     		mov	r0, r4
 798 0028 1A49     		ldr	r1, .L53+24
 799 002a 3A68     		ldr	r2, [r7, #0]
 800 002c FFF7FEFF 		bl	chprintf
 801              		.loc 1 238 0
 802 0030 2046     		mov	r0, r4
 803 0032 1949     		ldr	r1, .L53+28
 804 0034 3268     		ldr	r2, [r6, #0]
 805 0036 FFF7FEFF 		bl	chprintf
 806              		.loc 1 239 0
 807 003a D5E90023 		ldrd	r2, [r5]
 808 003e 2046     		mov	r0, r4
 809 0040 1649     		ldr	r1, .L53+32
 810 0042 FFF7FEFF 		bl	chprintf
 811              		.loc 1 240 0
 812 0046 164B     		ldr	r3, .L53+36
 813 0048 1649     		ldr	r1, .L53+40
 814 004a D3E90023 		ldrd	r2, [r3]
 815 004e 2046     		mov	r0, r4
 816 0050 FFF7FEFF 		bl	chprintf
 817              		.loc 1 241 0
 818 0054 144B     		ldr	r3, .L53+44
 819 0056 1549     		ldr	r1, .L53+48
 820 0058 2046     		mov	r0, r4
 821 005a D3E90023 		ldrd	r2, [r3]
 822 005e FFF7FEFF 		bl	chprintf
 823              		.loc 1 242 0
 824 0062 4FF47A70 		mov	r0, #1000
 825 0066 FFF7FEFF 		bl	chThdSleep
 826              	.L51:
 827              		.loc 1 234 0 discriminator 1
 828 006a 2168     		ldr	r1, [r4, #0]
 829 006c 2046     		mov	r0, r4
 830 006e 4B69     		ldr	r3, [r1, #20]
 831 0070 0021     		movs	r1, #0
 832 0072 9847     		blx	r3
 833 0074 B0F1FF3F 		cmp	r0, #-1
 834 0078 CFD0     		beq	.L52
 835              		.loc 1 244 0
 836 007a F8BD     		pop	{r3, r4, r5, r6, r7, pc}
 837              	.L54:
 838              		.align	2
 839              	.L53:
 840 007c 00000000 		.word	.LC0
 841 0080 00000000 		.word	.LANCHOR4
 842 0084 00000000 		.word	.LANCHOR0
 843 0088 00000000 		.word	.LANCHOR5
ARM GAS  C:\Users\DNIEL~1\AppData\Local\Temp\ccGMwGnC.s 			page 16


 844 008c 04000000 		.word	.LC1
 845 0090 0C000000 		.word	.LC2
 846 0094 18000000 		.word	.LC3
 847 0098 34000000 		.word	.LC4
 848 009c 4C000000 		.word	.LC5
 849 00a0 00000000 		.word	.LANCHOR6
 850 00a4 58000000 		.word	.LC6
 851 00a8 00000000 		.word	.LANCHOR9
 852 00ac 68000000 		.word	.LC7
 853              		.cfi_endproc
 854              	.LFE128:
 855              		.size	cmd_speedvalues, .-cmd_speedvalues
 856              		.section	.bss.rpmasis,"aw",%nobits
 857              		.align	3
 858              		.set	.LANCHOR9,. + 0
 859              		.type	rpmasis, %object
 860              		.size	rpmasis, 8
 861              	rpmasis:
 862 0000 00000000 		.space	8
 862      00000000 
 863              		.section	.bss.old_rotation,"aw",%nobits
 864              		.align	3
 865              		.set	.LANCHOR3,. + 0
 866              		.type	old_rotation, %object
 867              		.size	old_rotation, 8
 868              	old_rotation:
 869 0000 00000000 		.space	8
 869      00000000 
 870              		.section	.bss.rotation,"aw",%nobits
 871              		.align	3
 872              		.set	.LANCHOR5,. + 0
 873              		.type	rotation, %object
 874              		.size	rotation, 8
 875              	rotation:
 876 0000 00000000 		.space	8
 876      00000000 
 877              		.section	.rodata.str1.4,"aMS",%progbits,1
 878              		.align	2
 879              	.LC0:
 880 0000 1B6300   		.ascii	"\033c\000"
 881 0003 00       		.space	1
 882              	.LC1:
 883 0004 1B5B324A 		.ascii	"\033[2J\000"
 883      00
 884 0009 000000   		.space	3
 885              	.LC2:
 886 000c 1B5B2564 		.ascii	"\033[%d;%dH\000"
 886      3B256448 
 886      00
 887 0015 000000   		.space	3
 888              	.LC3:
 889 0018 73706565 		.ascii	"speed_last_period: %5d\015\012\000"
 889      645F6C61 
 889      73745F70 
 889      6572696F 
 889      643A2025 
 890 0031 000000   		.space	3
ARM GAS  C:\Users\DNIEL~1\AppData\Local\Temp\ccGMwGnC.s 			page 17


 891              	.LC4:
 892 0034 73706565 		.ascii	"speed_period_num: %5d\015\012\000"
 892      645F7065 
 892      72696F64 
 892      5F6E756D 
 892      3A202535 
 893              	.LC5:
 894 004c 72706D3A 		.ascii	"rpm: %5d\015\012\000"
 894      20253564 
 894      0D0A00
 895 0057 00       		.space	1
 896              	.LC6:
 897 0058 73706565 		.ascii	"speed: %5d\015\012\000"
 897      643A2025 
 897      35640D0A 
 897      00
 898 0065 000000   		.space	3
 899              	.LC7:
 900 0068 72706D61 		.ascii	"rpmasis: %5d\015\012\000"
 900      7369733A 
 900      20253564 
 900      0D0A00
 901 0077 00       		.section	.bss.rpm_index,"aw",%nobits
 902              		.align	1
 903              		.set	.LANCHOR7,. + 0
 904              		.type	rpm_index, %object
 905              		.size	rpm_index, 2
 906              	rpm_index:
 907 0000 0000     		.space	2
 908              		.section	.bss.rpm_buff,"aw",%nobits
 909              		.align	3
 910              		.set	.LANCHOR8,. + 0
 911              		.type	rpm_buff, %object
 912              		.size	rpm_buff, 384
 913              	rpm_buff:
 914 0000 00000000 		.space	384
 914      00000000 
 914      00000000 
 914      00000000 
 914      00000000 
 915              		.section	.bss.speed,"aw",%nobits
 916              		.align	3
 917              		.set	.LANCHOR6,. + 0
 918              		.type	speed, %object
 919              		.size	speed, 8
 920              	speed:
 921 0000 00000000 		.space	8
 921      00000000 
 922              		.section	.bss.speed_last_period,"aw",%nobits
 923              		.align	2
 924              		.set	.LANCHOR4,. + 0
 925              		.type	speed_last_period, %object
 926              		.size	speed_last_period, 4
 927              	speed_last_period:
 928 0000 00000000 		.space	4
 929              		.section	.bss.speed_period_num,"aw",%nobits
 930              		.align	2
ARM GAS  C:\Users\DNIEL~1\AppData\Local\Temp\ccGMwGnC.s 			page 18


 931              		.set	.LANCHOR0,. + 0
 932              		.type	speed_period_num, %object
 933              		.size	speed_period_num, 4
 934              	speed_period_num:
 935 0000 00000000 		.space	4
 936              		.section	.data.icucfg,"aw",%progbits
 937              		.align	2
 938              		.set	.LANCHOR2,. + 0
 939              		.type	icucfg, %object
 940              		.size	icucfg, 28
 941              	icucfg:
 942 0000 00       		.byte	0
 943 0001 000000   		.space	3
 944 0004 40420F00 		.word	1000000
 945 0008 00000000 		.word	speedWheelPeriodNumber
 946 000c 00000000 		.word	speedWheelPeriodCb
 947 0010 00000000 		.word	0
 948 0014 00       		.byte	0
 949 0015 000000   		.space	3
 950 0018 00000000 		.word	0
 951              		.section	.bss.speed_zero_period,"aw",%nobits
 952              		.align	2
 953              		.set	.LANCHOR1,. + 0
 954              		.type	speed_zero_period, %object
 955              		.size	speed_zero_period, 4
 956              	speed_zero_period:
 957 0000 00000000 		.space	4
 958              		.text
 959              	.Letext0: