ARM GAS  C:\Users\danit\AppData\Local\Temp\ccE8SfmD.s 			page 1


   1              		.syntax unified
   2              		.cpu cortex-m4
   3              		.fpu softvfp
   4              		.eabi_attribute 20, 1
   5              		.eabi_attribute 21, 1
   6              		.eabi_attribute 23, 3
   7              		.eabi_attribute 24, 1
   8              		.eabi_attribute 25, 1
   9              		.eabi_attribute 26, 1
  10              		.eabi_attribute 30, 2
  11              		.eabi_attribute 34, 1
  12              		.eabi_attribute 18, 4
  13              		.thumb
  14              		.file	"spi_lld.c"
  15              		.text
  16              	.Ltext0:
  17              		.cfi_sections	.debug_frame
  18              		.section	.text.spi_lld_serve_tx_interrupt,"ax",%progbits
  19              		.align	2
  20              		.p2align 4,,15
  21              		.thumb
  22              		.thumb_func
  23              		.type	spi_lld_serve_tx_interrupt, %function
  24              	spi_lld_serve_tx_interrupt:
  25              	.LFB119:
  26              		.file 1 "../../../ChibiOS/os/hal/platforms/STM32/SPIv1/spi_lld.c"
  27              		.loc 1 159 0
  28              		.cfi_startproc
  29              		@ args = 0, pretend = 0, frame = 0
  30              		@ frame_needed = 0, uses_anonymous_args = 0
  31              		@ link register save eliminated.
  32              	.LVL0:
  33              		.loc 1 164 0
  34 0000 11F00C0F 		tst	r1, #12
  35 0004 00D1     		bne	.L4
  36 0006 7047     		bx	lr
  37              	.L4:
  38              		.loc 1 165 0
  39 0008 FFF7FEBF 		b	port_halt
  40              	.LVL1:
  41              		.cfi_endproc
  42              	.LFE119:
  43              		.size	spi_lld_serve_tx_interrupt, .-spi_lld_serve_tx_interrupt
  44              		.section	.text.spi_lld_serve_rx_interrupt,"ax",%progbits
  45              		.align	2
  46              		.p2align 4,,15
  47              		.thumb
  48              		.thumb_func
  49              		.type	spi_lld_serve_rx_interrupt, %function
  50              	spi_lld_serve_rx_interrupt:
  51              	.LFB118:
  52              		.loc 1 133 0
  53              		.cfi_startproc
  54              		@ args = 0, pretend = 0, frame = 0
  55              		@ frame_needed = 0, uses_anonymous_args = 0
  56              	.LVL2:
  57              		.loc 1 137 0
ARM GAS  C:\Users\danit\AppData\Local\Temp\ccE8SfmD.s 			page 2


  58 0000 11F00C0F 		tst	r1, #12
  59              		.loc 1 133 0
  60 0004 38B5     		push	{r3, r4, r5, lr}
  61              		.cfi_def_cfa_offset 16
  62              		.cfi_offset 3, -16
  63              		.cfi_offset 4, -12
  64              		.cfi_offset 5, -8
  65              		.cfi_offset 14, -4
  66              		.loc 1 133 0
  67 0006 0446     		mov	r4, r0
  68              		.loc 1 137 0
  69 0008 37D1     		bne	.L24
  70              	.LVL3:
  71              	.L6:
  72              		.loc 1 145 0
  73 000a 606A     		ldr	r0, [r4, #36]
  74 000c 0268     		ldr	r2, [r0]
  75 000e 1368     		ldr	r3, [r2]
  76 0010 23F01F03 		bic	r3, r3, #31
  77 0014 1360     		str	r3, [r2]
  78              	.L7:
  79              		.loc 1 145 0 is_stmt 0 discriminator 2
  80 0016 1368     		ldr	r3, [r2]
  81 0018 D907     		lsls	r1, r3, #31
  82 001a FCD4     		bmi	.L7
  83              		.loc 1 145 0 discriminator 3
  84 001c 057A     		ldrb	r5, [r0, #8]	@ zero_extendqisi2
  85              		.loc 1 146 0 is_stmt 1 discriminator 3
  86 001e 216A     		ldr	r1, [r4, #32]
  87              		.loc 1 145 0 discriminator 3
  88 0020 4068     		ldr	r0, [r0, #4]
  89              		.loc 1 146 0 discriminator 3
  90 0022 0A68     		ldr	r2, [r1]
  91              		.loc 1 145 0 discriminator 3
  92 0024 3D23     		movs	r3, #61
  93 0026 AB40     		lsls	r3, r3, r5
  94 0028 0360     		str	r3, [r0]
  95              		.loc 1 146 0 discriminator 3
  96 002a 1368     		ldr	r3, [r2]
  97 002c 23F01F03 		bic	r3, r3, #31
  98 0030 1360     		str	r3, [r2]
  99              	.L8:
 100              		.loc 1 146 0 is_stmt 0 discriminator 2
 101 0032 1368     		ldr	r3, [r2]
 102 0034 DB07     		lsls	r3, r3, #31
 103 0036 FCD4     		bmi	.L8
 104              		.loc 1 150 0 is_stmt 1 discriminator 3
 105 0038 6368     		ldr	r3, [r4, #4]
 106              		.loc 1 146 0 discriminator 3
 107 003a 087A     		ldrb	r0, [r1, #8]	@ zero_extendqisi2
 108              		.loc 1 150 0 discriminator 3
 109 003c 1A68     		ldr	r2, [r3]
 110              		.loc 1 146 0 discriminator 3
 111 003e 4968     		ldr	r1, [r1, #4]
 112 0040 3D23     		movs	r3, #61
 113 0042 8340     		lsls	r3, r3, r0
 114 0044 0B60     		str	r3, [r1]
ARM GAS  C:\Users\danit\AppData\Local\Temp\ccE8SfmD.s 			page 3


 115              		.loc 1 150 0 discriminator 3
 116 0046 AAB1     		cbz	r2, .L9
 117              		.loc 1 150 0 is_stmt 0 discriminator 1
 118 0048 0423     		movs	r3, #4
 119 004a 2370     		strb	r3, [r4]
 120 004c 2046     		mov	r0, r4
 121 004e 9047     		blx	r2
 122              	.LVL4:
 123 0050 2378     		ldrb	r3, [r4]	@ zero_extendqisi2
 124 0052 042B     		cmp	r3, #4
 125 0054 0ED0     		beq	.L9
 126              	.L10:
 127              	.LBB2:
 128              		.loc 1 150 0 discriminator 4
 129 0056 2023     		movs	r3, #32
 130              	@ 150 "../../../ChibiOS/os/hal/platforms/STM32/SPIv1/spi_lld.c" 1
 131 0058 83F31188 		msr     BASEPRI, r3
 132              	@ 0 "" 2
 133              		.thumb
 134              	.LBE2:
 135 005c A368     		ldr	r3, [r4, #8]
 136 005e 2BB1     		cbz	r3, .L11
 137              	.LVL5:
 138              	.LBB3:
 139              		.loc 1 150 0 discriminator 5
 140 0060 0022     		movs	r2, #0
 141 0062 A260     		str	r2, [r4, #8]
 142 0064 1846     		mov	r0, r3
 143 0066 5A62     		str	r2, [r3, #36]
 144 0068 FFF7FEFF 		bl	chSchReadyI
 145              	.LVL6:
 146              	.L11:
 147              	.LBE3:
 148              	.LBB4:
 149              		.loc 1 150 0 discriminator 7
 150 006c 0023     		movs	r3, #0
 151              	@ 150 "../../../ChibiOS/os/hal/platforms/STM32/SPIv1/spi_lld.c" 1
 152 006e 83F31188 		msr     BASEPRI, r3
 153              	@ 0 "" 2
 154              		.thumb
 155 0072 38BD     		pop	{r3, r4, r5, pc}
 156              	.LVL7:
 157              	.L9:
 158              	.LBE4:
 159              		.loc 1 150 0 discriminator 3
 160 0074 0223     		movs	r3, #2
 161 0076 2370     		strb	r3, [r4]
 162 0078 EDE7     		b	.L10
 163              	.LVL8:
 164              	.L24:
 165              		.loc 1 138 0 is_stmt 1
 166 007a FFF7FEFF 		bl	port_halt
 167              	.LVL9:
 168 007e C4E7     		b	.L6
 169              		.cfi_endproc
 170              	.LFE118:
 171              		.size	spi_lld_serve_rx_interrupt, .-spi_lld_serve_rx_interrupt
ARM GAS  C:\Users\danit\AppData\Local\Temp\ccE8SfmD.s 			page 4


 172              		.section	.text.spi_lld_init,"ax",%progbits
 173              		.align	2
 174              		.p2align 4,,15
 175              		.global	spi_lld_init
 176              		.thumb
 177              		.thumb_func
 178              		.type	spi_lld_init, %function
 179              	spi_lld_init:
 180              	.LFB120:
 181              		.loc 1 186 0
 182              		.cfi_startproc
 183              		@ args = 0, pretend = 0, frame = 0
 184              		@ frame_needed = 0, uses_anonymous_args = 0
 185 0000 10B5     		push	{r4, lr}
 186              		.cfi_def_cfa_offset 8
 187              		.cfi_offset 4, -8
 188              		.cfi_offset 14, -4
 189              		.loc 1 209 0
 190 0002 0A4C     		ldr	r4, .L27
 191              		.loc 1 188 0
 192 0004 0A4B     		ldr	r3, .L27+4
 193 0006 4FF6FF72 		movw	r2, #65535
 194              		.loc 1 209 0
 195 000a 2046     		mov	r0, r4
 196              		.loc 1 188 0
 197 000c 1A80     		strh	r2, [r3]	@ movhi
 198              		.loc 1 209 0
 199 000e FFF7FEFF 		bl	spiObjectInit
 200              	.LVL10:
 201              		.loc 1 211 0
 202 0012 084B     		ldr	r3, .L27+8
 203              		.loc 1 210 0
 204 0014 0848     		ldr	r0, .L27+12
 205              		.loc 1 213 0
 206 0016 0949     		ldr	r1, .L27+16
 207              		.loc 1 219 0
 208 0018 094A     		ldr	r2, .L27+20
 209              		.loc 1 210 0
 210 001a E061     		str	r0, [r4, #28]
 211              		.loc 1 212 0
 212 001c 03F10C00 		add	r0, r3, #12
 213              		.loc 1 211 0
 214 0020 2362     		str	r3, [r4, #32]
 215              		.loc 1 212 0
 216 0022 6062     		str	r0, [r4, #36]
 217              		.loc 1 213 0
 218 0024 A162     		str	r1, [r4, #40]
 219              		.loc 1 219 0
 220 0026 E262     		str	r2, [r4, #44]
 221 0028 10BD     		pop	{r4, pc}
 222              	.L28:
 223 002a 00BF     		.align	2
 224              	.L27:
 225 002c 00000000 		.word	.LANCHOR1
 226 0030 00000000 		.word	.LANCHOR0
 227 0034 24000000 		.word	_stm32_dma_streams+36
 228 0038 00380040 		.word	1073756160
ARM GAS  C:\Users\danit\AppData\Local\Temp\ccE8SfmD.s 			page 5


 229 003c 16000100 		.word	65558
 230 0040 46000100 		.word	65606
 231              		.cfi_endproc
 232              	.LFE120:
 233              		.size	spi_lld_init, .-spi_lld_init
 234              		.section	.text.spi_lld_start,"ax",%progbits
 235              		.align	2
 236              		.p2align 4,,15
 237              		.global	spi_lld_start
 238              		.thumb
 239              		.thumb_func
 240              		.type	spi_lld_start, %function
 241              	spi_lld_start:
 242              	.LFB121:
 243              		.loc 1 306 0
 244              		.cfi_startproc
 245              		@ args = 0, pretend = 0, frame = 0
 246              		@ frame_needed = 0, uses_anonymous_args = 0
 247              	.LVL11:
 248              		.loc 1 309 0
 249 0000 0378     		ldrb	r3, [r0]	@ zero_extendqisi2
 250 0002 012B     		cmp	r3, #1
 251              		.loc 1 306 0
 252 0004 10B5     		push	{r4, lr}
 253              		.cfi_def_cfa_offset 8
 254              		.cfi_offset 4, -8
 255              		.cfi_offset 14, -4
 256              		.loc 1 306 0
 257 0006 0446     		mov	r4, r0
 258              		.loc 1 309 0
 259 0008 1ED0     		beq	.L35
 260 000a C369     		ldr	r3, [r0, #28]
 261              	.LVL12:
 262              	.L30:
 263              		.loc 1 413 0
 264 000c 6268     		ldr	r2, [r4, #4]
 265              		.loc 1 416 0
 266 000e A06A     		ldr	r0, [r4, #40]
 267              		.loc 1 413 0
 268 0010 5289     		ldrh	r2, [r2, #10]
 269              		.loc 1 418 0
 270 0012 E16A     		ldr	r1, [r4, #44]
 271              		.loc 1 416 0
 272 0014 20F4F040 		bic	r0, r0, #30720
 273              		.loc 1 418 0
 274 0018 21F4F041 		bic	r1, r1, #30720
 275              		.loc 1 413 0
 276 001c 12F4006F 		tst	r2, #2048
 277              		.loc 1 423 0
 278 0020 1CBF     		itt	ne
 279 0022 40F42050 		orrne	r0, r0, #10240
 280              		.loc 1 425 0
 281 0026 41F42051 		orrne	r1, r1, #10240
 282              		.loc 1 422 0
 283 002a A062     		str	r0, [r4, #40]
 284              		.loc 1 424 0
 285 002c E162     		str	r1, [r4, #44]
ARM GAS  C:\Users\danit\AppData\Local\Temp\ccE8SfmD.s 			page 6


 286              		.loc 1 429 0
 287 002e 42F44172 		orr	r2, r2, #772
 288              		.loc 1 428 0
 289 0032 0020     		movs	r0, #0
 290              		.loc 1 431 0
 291 0034 0721     		movs	r1, #7
 292              		.loc 1 428 0
 293 0036 1880     		strh	r0, [r3]	@ movhi
 294              		.loc 1 429 0
 295 0038 1A80     		strh	r2, [r3]	@ movhi
 296              		.loc 1 431 0
 297 003a 9980     		strh	r1, [r3, #4]	@ movhi
 298              		.loc 1 432 0
 299 003c 1A88     		ldrh	r2, [r3]
 300 003e 92B2     		uxth	r2, r2
 301 0040 42F04002 		orr	r2, r2, #64
 302 0044 1A80     		strh	r2, [r3]	@ movhi
 303 0046 10BD     		pop	{r4, pc}
 304              	.LVL13:
 305              	.L35:
 306              		.loc 1 327 0
 307 0048 0F4B     		ldr	r3, .L39
 308 004a 9842     		cmp	r0, r3
 309 004c 09D0     		beq	.L38
 310              	.LVL14:
 311              	.L31:
 312              		.loc 1 408 0
 313 004e 216A     		ldr	r1, [r4, #32]
 314              		.loc 1 409 0
 315 0050 626A     		ldr	r2, [r4, #36]
 316              		.loc 1 408 0
 317 0052 E369     		ldr	r3, [r4, #28]
 318 0054 0868     		ldr	r0, [r1]
 319              		.loc 1 409 0
 320 0056 1168     		ldr	r1, [r2]
 321              		.loc 1 408 0
 322 0058 03F10C02 		add	r2, r3, #12
 323 005c 8260     		str	r2, [r0, #8]
 324              		.loc 1 409 0
 325 005e 8A60     		str	r2, [r1, #8]
 326 0060 D4E7     		b	.L30
 327              	.LVL15:
 328              	.L38:
 329              	.LBB5:
 330              		.loc 1 329 0
 331 0062 0A4A     		ldr	r2, .L39+4
 332 0064 006A     		ldr	r0, [r0, #32]
 333              	.LVL16:
 334 0066 0A21     		movs	r1, #10
 335 0068 2346     		mov	r3, r4
 336 006a FFF7FEFF 		bl	dmaStreamAllocate
 337              	.LVL17:
 338              		.loc 1 334 0
 339 006e 084A     		ldr	r2, .L39+8
 340 0070 606A     		ldr	r0, [r4, #36]
 341 0072 2346     		mov	r3, r4
 342 0074 0A21     		movs	r1, #10
ARM GAS  C:\Users\danit\AppData\Local\Temp\ccE8SfmD.s 			page 7


 343 0076 FFF7FEFF 		bl	dmaStreamAllocate
 344              	.LVL18:
 345              		.loc 1 339 0
 346 007a 064A     		ldr	r2, .L39+12
 347 007c 136C     		ldr	r3, [r2, #64]
 348 007e 43F48043 		orr	r3, r3, #16384
 349 0082 1364     		str	r3, [r2, #64]
 350 0084 E3E7     		b	.L31
 351              	.L40:
 352 0086 00BF     		.align	2
 353              	.L39:
 354 0088 00000000 		.word	.LANCHOR1
 355 008c 00000000 		.word	spi_lld_serve_rx_interrupt
 356 0090 00000000 		.word	spi_lld_serve_tx_interrupt
 357 0094 00380240 		.word	1073887232
 358              	.LBE5:
 359              		.cfi_endproc
 360              	.LFE121:
 361              		.size	spi_lld_start, .-spi_lld_start
 362              		.section	.text.spi_lld_stop,"ax",%progbits
 363              		.align	2
 364              		.p2align 4,,15
 365              		.global	spi_lld_stop
 366              		.thumb
 367              		.thumb_func
 368              		.type	spi_lld_stop, %function
 369              	spi_lld_stop:
 370              	.LFB122:
 371              		.loc 1 442 0
 372              		.cfi_startproc
 373              		@ args = 0, pretend = 0, frame = 0
 374              		@ frame_needed = 0, uses_anonymous_args = 0
 375              	.LVL19:
 376              		.loc 1 445 0
 377 0000 0378     		ldrb	r3, [r0]	@ zero_extendqisi2
 378 0002 022B     		cmp	r3, #2
 379 0004 00D0     		beq	.L47
 380 0006 7047     		bx	lr
 381              	.L47:
 382              		.loc 1 448 0
 383 0008 C369     		ldr	r3, [r0, #28]
 384              		.loc 1 442 0
 385 000a 10B5     		push	{r4, lr}
 386              		.cfi_def_cfa_offset 8
 387              		.cfi_offset 4, -8
 388              		.cfi_offset 14, -4
 389              		.loc 1 448 0
 390 000c 0022     		movs	r2, #0
 391 000e 0446     		mov	r4, r0
 392              		.loc 1 450 0
 393 0010 006A     		ldr	r0, [r0, #32]
 394              	.LVL20:
 395              		.loc 1 448 0
 396 0012 1A80     		strh	r2, [r3]	@ movhi
 397              		.loc 1 449 0
 398 0014 9A80     		strh	r2, [r3, #4]	@ movhi
 399              		.loc 1 450 0
ARM GAS  C:\Users\danit\AppData\Local\Temp\ccE8SfmD.s 			page 8


 400 0016 FFF7FEFF 		bl	dmaStreamRelease
 401              	.LVL21:
 402              		.loc 1 451 0
 403 001a 606A     		ldr	r0, [r4, #36]
 404 001c FFF7FEFF 		bl	dmaStreamRelease
 405              	.LVL22:
 406              		.loc 1 458 0
 407 0020 044B     		ldr	r3, .L49
 408 0022 9C42     		cmp	r4, r3
 409 0024 00D0     		beq	.L48
 410              	.L41:
 411 0026 10BD     		pop	{r4, pc}
 412              	.LVL23:
 413              	.L48:
 414              		.loc 1 459 0
 415 0028 034A     		ldr	r2, .L49+4
 416 002a 136C     		ldr	r3, [r2, #64]
 417 002c 23F48043 		bic	r3, r3, #16384
 418 0030 1364     		str	r3, [r2, #64]
 419 0032 F8E7     		b	.L41
 420              	.L50:
 421              		.align	2
 422              	.L49:
 423 0034 00000000 		.word	.LANCHOR1
 424 0038 00380240 		.word	1073887232
 425              		.cfi_endproc
 426              	.LFE122:
 427              		.size	spi_lld_stop, .-spi_lld_stop
 428              		.section	.text.spi_lld_select,"ax",%progbits
 429              		.align	2
 430              		.p2align 4,,15
 431              		.global	spi_lld_select
 432              		.thumb
 433              		.thumb_func
 434              		.type	spi_lld_select, %function
 435              	spi_lld_select:
 436              	.LFB123:
 437              		.loc 1 487 0
 438              		.cfi_startproc
 439              		@ args = 0, pretend = 0, frame = 0
 440              		@ frame_needed = 0, uses_anonymous_args = 0
 441              		@ link register save eliminated.
 442              	.LVL24:
 443              		.loc 1 489 0
 444 0000 4368     		ldr	r3, [r0, #4]
 445 0002 1989     		ldrh	r1, [r3, #8]
 446 0004 5A68     		ldr	r2, [r3, #4]
 447 0006 0123     		movs	r3, #1
 448 0008 8B40     		lsls	r3, r3, r1
 449 000a 9BB2     		uxth	r3, r3
 450 000c 5383     		strh	r3, [r2, #26]	@ movhi
 451 000e 7047     		bx	lr
 452              		.cfi_endproc
 453              	.LFE123:
 454              		.size	spi_lld_select, .-spi_lld_select
 455              		.section	.text.spi_lld_unselect,"ax",%progbits
 456              		.align	2
ARM GAS  C:\Users\danit\AppData\Local\Temp\ccE8SfmD.s 			page 9


 457              		.p2align 4,,15
 458              		.global	spi_lld_unselect
 459              		.thumb
 460              		.thumb_func
 461              		.type	spi_lld_unselect, %function
 462              	spi_lld_unselect:
 463              	.LFB124:
 464              		.loc 1 500 0
 465              		.cfi_startproc
 466              		@ args = 0, pretend = 0, frame = 0
 467              		@ frame_needed = 0, uses_anonymous_args = 0
 468              		@ link register save eliminated.
 469              	.LVL25:
 470              		.loc 1 502 0
 471 0000 4368     		ldr	r3, [r0, #4]
 472 0002 1989     		ldrh	r1, [r3, #8]
 473 0004 5A68     		ldr	r2, [r3, #4]
 474 0006 0123     		movs	r3, #1
 475 0008 8B40     		lsls	r3, r3, r1
 476 000a 9BB2     		uxth	r3, r3
 477 000c 1383     		strh	r3, [r2, #24]	@ movhi
 478 000e 7047     		bx	lr
 479              		.cfi_endproc
 480              	.LFE124:
 481              		.size	spi_lld_unselect, .-spi_lld_unselect
 482              		.section	.text.spi_lld_ignore,"ax",%progbits
 483              		.align	2
 484              		.p2align 4,,15
 485              		.global	spi_lld_ignore
 486              		.thumb
 487              		.thumb_func
 488              		.type	spi_lld_ignore, %function
 489              	spi_lld_ignore:
 490              	.LFB125:
 491              		.loc 1 516 0
 492              		.cfi_startproc
 493              		@ args = 0, pretend = 0, frame = 0
 494              		@ frame_needed = 0, uses_anonymous_args = 0
 495              		@ link register save eliminated.
 496              	.LVL26:
 497              		.loc 1 518 0
 498 0000 026A     		ldr	r2, [r0, #32]
 499              		.loc 1 522 0
 500 0002 436A     		ldr	r3, [r0, #36]
 501              		.loc 1 518 0
 502 0004 1268     		ldr	r2, [r2]
 503              		.loc 1 522 0
 504 0006 1B68     		ldr	r3, [r3]
 505              		.loc 1 516 0
 506 0008 70B4     		push	{r4, r5, r6}
 507              		.cfi_def_cfa_offset 12
 508              		.cfi_offset 4, -12
 509              		.cfi_offset 5, -8
 510              		.cfi_offset 6, -4
 511              		.loc 1 520 0
 512 000a 856A     		ldr	r5, [r0, #40]
 513              		.loc 1 518 0
ARM GAS  C:\Users\danit\AppData\Local\Temp\ccE8SfmD.s 			page 10


 514 000c 094E     		ldr	r6, .L55
 515              		.loc 1 524 0
 516 000e C06A     		ldr	r0, [r0, #44]
 517              	.LVL27:
 518              		.loc 1 522 0
 519 0010 094C     		ldr	r4, .L55+4
 520              		.loc 1 518 0
 521 0012 D660     		str	r6, [r2, #12]
 522              		.loc 1 519 0
 523 0014 5160     		str	r1, [r2, #4]
 524              		.loc 1 520 0
 525 0016 1560     		str	r5, [r2]
 526              		.loc 1 522 0
 527 0018 DC60     		str	r4, [r3, #12]
 528              		.loc 1 523 0
 529 001a 5960     		str	r1, [r3, #4]
 530              		.loc 1 524 0
 531 001c 1860     		str	r0, [r3]
 532              		.loc 1 526 0
 533 001e 1168     		ldr	r1, [r2]
 534              	.LVL28:
 535 0020 41F00101 		orr	r1, r1, #1
 536 0024 1160     		str	r1, [r2]
 537              		.loc 1 527 0
 538 0026 1A68     		ldr	r2, [r3]
 539 0028 42F00102 		orr	r2, r2, #1
 540 002c 1A60     		str	r2, [r3]
 541              		.loc 1 528 0
 542 002e 70BC     		pop	{r4, r5, r6}
 543              		.cfi_restore 6
 544              		.cfi_restore 5
 545              		.cfi_restore 4
 546              		.cfi_def_cfa_offset 0
 547 0030 7047     		bx	lr
 548              	.L56:
 549 0032 00BF     		.align	2
 550              	.L55:
 551 0034 00000000 		.word	.LANCHOR2
 552 0038 00000000 		.word	.LANCHOR0
 553              		.cfi_endproc
 554              	.LFE125:
 555              		.size	spi_lld_ignore, .-spi_lld_ignore
 556              		.section	.text.spi_lld_exchange,"ax",%progbits
 557              		.align	2
 558              		.p2align 4,,15
 559              		.global	spi_lld_exchange
 560              		.thumb
 561              		.thumb_func
 562              		.type	spi_lld_exchange, %function
 563              	spi_lld_exchange:
 564              	.LFB126:
 565              		.loc 1 546 0
 566              		.cfi_startproc
 567              		@ args = 0, pretend = 0, frame = 0
 568              		@ frame_needed = 0, uses_anonymous_args = 0
 569              		@ link register save eliminated.
 570              	.LVL29:
ARM GAS  C:\Users\danit\AppData\Local\Temp\ccE8SfmD.s 			page 11


 571 0000 F0B4     		push	{r4, r5, r6, r7}
 572              		.cfi_def_cfa_offset 16
 573              		.cfi_offset 4, -16
 574              		.cfi_offset 5, -12
 575              		.cfi_offset 6, -8
 576              		.cfi_offset 7, -4
 577              		.loc 1 548 0
 578 0002 046A     		ldr	r4, [r0, #32]
 579              		.loc 1 552 0
 580 0004 476A     		ldr	r7, [r0, #36]
 581              		.loc 1 550 0
 582 0006 866A     		ldr	r6, [r0, #40]
 583              		.loc 1 554 0
 584 0008 C56A     		ldr	r5, [r0, #44]
 585              		.loc 1 548 0
 586 000a 2468     		ldr	r4, [r4]
 587              		.loc 1 552 0
 588 000c 3868     		ldr	r0, [r7]
 589              	.LVL30:
 590              		.loc 1 548 0
 591 000e E360     		str	r3, [r4, #12]
 592              		.loc 1 550 0
 593 0010 46F48066 		orr	r6, r6, #1024
 594              		.loc 1 554 0
 595 0014 45F48065 		orr	r5, r5, #1024
 596              		.loc 1 549 0
 597 0018 6160     		str	r1, [r4, #4]
 598              		.loc 1 550 0
 599 001a 2660     		str	r6, [r4]
 600              		.loc 1 552 0
 601 001c C260     		str	r2, [r0, #12]
 602              		.loc 1 553 0
 603 001e 4160     		str	r1, [r0, #4]
 604              		.loc 1 554 0
 605 0020 0560     		str	r5, [r0]
 606              		.loc 1 556 0
 607 0022 2368     		ldr	r3, [r4]
 608              	.LVL31:
 609 0024 43F00103 		orr	r3, r3, #1
 610 0028 2360     		str	r3, [r4]
 611              		.loc 1 557 0
 612 002a 0368     		ldr	r3, [r0]
 613 002c 43F00103 		orr	r3, r3, #1
 614 0030 0360     		str	r3, [r0]
 615              		.loc 1 558 0
 616 0032 F0BC     		pop	{r4, r5, r6, r7}
 617              		.cfi_restore 7
 618              		.cfi_restore 6
 619              		.cfi_restore 5
 620              		.cfi_restore 4
 621              		.cfi_def_cfa_offset 0
 622 0034 7047     		bx	lr
 623              		.cfi_endproc
 624              	.LFE126:
 625              		.size	spi_lld_exchange, .-spi_lld_exchange
 626 0036 00BF     		.section	.text.spi_lld_send,"ax",%progbits
 627              		.align	2
ARM GAS  C:\Users\danit\AppData\Local\Temp\ccE8SfmD.s 			page 12


 628              		.p2align 4,,15
 629              		.global	spi_lld_send
 630              		.thumb
 631              		.thumb_func
 632              		.type	spi_lld_send, %function
 633              	spi_lld_send:
 634              	.LFB127:
 635              		.loc 1 573 0
 636              		.cfi_startproc
 637              		@ args = 0, pretend = 0, frame = 0
 638              		@ frame_needed = 0, uses_anonymous_args = 0
 639              		@ link register save eliminated.
 640              	.LVL32:
 641 0000 70B4     		push	{r4, r5, r6}
 642              		.cfi_def_cfa_offset 12
 643              		.cfi_offset 4, -12
 644              		.cfi_offset 5, -8
 645              		.cfi_offset 6, -4
 646              		.loc 1 579 0
 647 0002 436A     		ldr	r3, [r0, #36]
 648              		.loc 1 575 0
 649 0004 046A     		ldr	r4, [r0, #32]
 650              		.loc 1 581 0
 651 0006 C56A     		ldr	r5, [r0, #44]
 652              		.loc 1 575 0
 653 0008 2468     		ldr	r4, [r4]
 654              		.loc 1 579 0
 655 000a 1B68     		ldr	r3, [r3]
 656              		.loc 1 577 0
 657 000c 806A     		ldr	r0, [r0, #40]
 658              	.LVL33:
 659              		.loc 1 575 0
 660 000e 094E     		ldr	r6, .L61
 661 0010 E660     		str	r6, [r4, #12]
 662              		.loc 1 581 0
 663 0012 45F48065 		orr	r5, r5, #1024
 664              		.loc 1 576 0
 665 0016 6160     		str	r1, [r4, #4]
 666              		.loc 1 577 0
 667 0018 2060     		str	r0, [r4]
 668              		.loc 1 579 0
 669 001a DA60     		str	r2, [r3, #12]
 670              		.loc 1 580 0
 671 001c 5960     		str	r1, [r3, #4]
 672              		.loc 1 581 0
 673 001e 1D60     		str	r5, [r3]
 674              		.loc 1 583 0
 675 0020 2268     		ldr	r2, [r4]
 676              	.LVL34:
 677 0022 42F00102 		orr	r2, r2, #1
 678 0026 2260     		str	r2, [r4]
 679              		.loc 1 584 0
 680 0028 1A68     		ldr	r2, [r3]
 681 002a 42F00102 		orr	r2, r2, #1
 682 002e 1A60     		str	r2, [r3]
 683              		.loc 1 585 0
 684 0030 70BC     		pop	{r4, r5, r6}
ARM GAS  C:\Users\danit\AppData\Local\Temp\ccE8SfmD.s 			page 13


 685              		.cfi_restore 6
 686              		.cfi_restore 5
 687              		.cfi_restore 4
 688              		.cfi_def_cfa_offset 0
 689 0032 7047     		bx	lr
 690              	.L62:
 691              		.align	2
 692              	.L61:
 693 0034 00000000 		.word	.LANCHOR2
 694              		.cfi_endproc
 695              	.LFE127:
 696              		.size	spi_lld_send, .-spi_lld_send
 697              		.section	.text.spi_lld_receive,"ax",%progbits
 698              		.align	2
 699              		.p2align 4,,15
 700              		.global	spi_lld_receive
 701              		.thumb
 702              		.thumb_func
 703              		.type	spi_lld_receive, %function
 704              	spi_lld_receive:
 705              	.LFB128:
 706              		.loc 1 600 0
 707              		.cfi_startproc
 708              		@ args = 0, pretend = 0, frame = 0
 709              		@ frame_needed = 0, uses_anonymous_args = 0
 710              		@ link register save eliminated.
 711              	.LVL35:
 712 0000 70B4     		push	{r4, r5, r6}
 713              		.cfi_def_cfa_offset 12
 714              		.cfi_offset 4, -12
 715              		.cfi_offset 5, -8
 716              		.cfi_offset 6, -4
 717              		.loc 1 606 0
 718 0002 436A     		ldr	r3, [r0, #36]
 719              		.loc 1 602 0
 720 0004 046A     		ldr	r4, [r0, #32]
 721              		.loc 1 604 0
 722 0006 856A     		ldr	r5, [r0, #40]
 723              		.loc 1 602 0
 724 0008 2468     		ldr	r4, [r4]
 725              		.loc 1 606 0
 726 000a 1B68     		ldr	r3, [r3]
 727              		.loc 1 608 0
 728 000c C06A     		ldr	r0, [r0, #44]
 729              	.LVL36:
 730              		.loc 1 606 0
 731 000e 094E     		ldr	r6, .L65
 732              		.loc 1 602 0
 733 0010 E260     		str	r2, [r4, #12]
 734              		.loc 1 604 0
 735 0012 45F48065 		orr	r5, r5, #1024
 736              		.loc 1 603 0
 737 0016 6160     		str	r1, [r4, #4]
 738              		.loc 1 604 0
 739 0018 2560     		str	r5, [r4]
 740              		.loc 1 606 0
 741 001a DE60     		str	r6, [r3, #12]
ARM GAS  C:\Users\danit\AppData\Local\Temp\ccE8SfmD.s 			page 14


 742              		.loc 1 607 0
 743 001c 5960     		str	r1, [r3, #4]
 744              		.loc 1 608 0
 745 001e 1860     		str	r0, [r3]
 746              		.loc 1 610 0
 747 0020 2268     		ldr	r2, [r4]
 748              	.LVL37:
 749 0022 42F00102 		orr	r2, r2, #1
 750 0026 2260     		str	r2, [r4]
 751              		.loc 1 611 0
 752 0028 1A68     		ldr	r2, [r3]
 753 002a 42F00102 		orr	r2, r2, #1
 754 002e 1A60     		str	r2, [r3]
 755              		.loc 1 612 0
 756 0030 70BC     		pop	{r4, r5, r6}
 757              		.cfi_restore 6
 758              		.cfi_restore 5
 759              		.cfi_restore 4
 760              		.cfi_def_cfa_offset 0
 761 0032 7047     		bx	lr
 762              	.L66:
 763              		.align	2
 764              	.L65:
 765 0034 00000000 		.word	.LANCHOR0
 766              		.cfi_endproc
 767              	.LFE128:
 768              		.size	spi_lld_receive, .-spi_lld_receive
 769              		.section	.text.spi_lld_polled_exchange,"ax",%progbits
 770              		.align	2
 771              		.p2align 4,,15
 772              		.global	spi_lld_polled_exchange
 773              		.thumb
 774              		.thumb_func
 775              		.type	spi_lld_polled_exchange, %function
 776              	spi_lld_polled_exchange:
 777              	.LFB129:
 778              		.loc 1 626 0
 779              		.cfi_startproc
 780              		@ args = 0, pretend = 0, frame = 0
 781              		@ frame_needed = 0, uses_anonymous_args = 0
 782              		@ link register save eliminated.
 783              	.LVL38:
 784              		.loc 1 628 0
 785 0000 C269     		ldr	r2, [r0, #28]
 786 0002 9181     		strh	r1, [r2, #12]	@ movhi
 787              	.L68:
 788              		.loc 1 629 0 discriminator 1
 789 0004 1389     		ldrh	r3, [r2, #8]
 790 0006 DB07     		lsls	r3, r3, #31
 791 0008 FCD5     		bpl	.L68
 792              		.loc 1 631 0
 793 000a 9089     		ldrh	r0, [r2, #12]
 794              	.LVL39:
 795              		.loc 1 632 0
 796 000c 80B2     		uxth	r0, r0
 797 000e 7047     		bx	lr
 798              		.cfi_endproc
ARM GAS  C:\Users\danit\AppData\Local\Temp\ccE8SfmD.s 			page 15


 799              	.LFE129:
 800              		.size	spi_lld_polled_exchange, .-spi_lld_polled_exchange
 801              		.global	SPID2
 802              		.section	.bss.dummytx,"aw",%nobits
 803              		.align	1
 804              		.set	.LANCHOR0,. + 0
 805              		.type	dummytx, %object
 806              		.size	dummytx, 2
 807              	dummytx:
 808 0000 0000     		.space	2
 809              		.section	.bss.SPID2,"aw",%nobits
 810              		.align	2
 811              		.set	.LANCHOR1,. + 0
 812              		.type	SPID2, %object
 813              		.size	SPID2, 48
 814              	SPID2:
 815 0000 00000000 		.space	48
 815      00000000 
 815      00000000 
 815      00000000 
 815      00000000 
 816              		.section	.bss.dummyrx,"aw",%nobits
 817              		.align	1
 818              		.set	.LANCHOR2,. + 0
 819              		.type	dummyrx, %object
 820              		.size	dummyrx, 2
 821              	dummyrx:
 822 0000 0000     		.space	2
 823              		.text
 824              	.Letext0:
 825              		.file 2 "c:\\program files (x86)\\gnu tools arm embedded\\4.9 2015q2\\lib\\gcc\\arm-none-eabi\\4.9
 826              		.file 3 "c:\\program files (x86)\\gnu tools arm embedded\\4.9 2015q2\\arm-none-eabi\\include\\mach
 827              		.file 4 "c:\\program files (x86)\\gnu tools arm embedded\\4.9 2015q2\\arm-none-eabi\\include\\sys\
 828              		.file 5 "../../../ChibiOS/os/ports/GCC/ARMCMx/chtypes.h"
 829              		.file 6 "../../../ChibiOS/os/kernel/include/chlists.h"
 830              		.file 7 "../../../ChibiOS/os/kernel/include/chthreads.h"
 831              		.file 8 "../../../ChibiOS/os/ports/GCC/ARMCMx/chcore_v7m.h"
 832              		.file 9 "../../../ChibiOS/os/kernel/include/chmtx.h"
 833              		.file 10 "../../../ChibiOS/os/hal/platforms/STM32F4xx/stm32f4xx.h"
 834              		.file 11 "../../../ChibiOS/os/hal/platforms/STM32F4xx/stm32_dma.h"
 835              		.file 12 "../../../ChibiOS/os/hal/platforms/STM32/GPIOv2/pal_lld.h"
 836              		.file 13 "../../../ChibiOS/os/hal/include/spi.h"
 837              		.file 14 "../../../ChibiOS/os/hal/platforms/STM32/SPIv1/spi_lld.h"
 838              		.file 15 "../../../ChibiOS/os/ports/common/ARMCMx/CMSIS/include/core_cm4.h"
 839              		.file 16 "../../../ChibiOS/os/kernel/include/chschd.h"
 840              		.section	.debug_info,"",%progbits
 841              	.Ldebug_info0:
 842 0000 D00D0000 		.4byte	0xdd0
 843 0004 0400     		.2byte	0x4
 844 0006 00000000 		.4byte	.Ldebug_abbrev0
 845 000a 04       		.byte	0x4
 846 000b 01       		.uleb128 0x1
 847 000c E2050000 		.4byte	.LASF167
 848 0010 01       		.byte	0x1
 849 0011 1A070000 		.4byte	.LASF168
 850 0015 62070000 		.4byte	.LASF169
 851 0019 00000000 		.4byte	.Ldebug_ranges0+0
ARM GAS  C:\Users\danit\AppData\Local\Temp\ccE8SfmD.s 			page 16


 852 001d 00000000 		.4byte	0
 853 0021 00000000 		.4byte	.Ldebug_line0
 854 0025 02       		.uleb128 0x2
 855 0026 04       		.byte	0x4
 856 0027 05       		.byte	0x5
 857 0028 696E7400 		.ascii	"int\000"
 858 002c 03       		.uleb128 0x3
 859 002d 0D000000 		.4byte	.LASF2
 860 0031 02       		.byte	0x2
 861 0032 D4       		.byte	0xd4
 862 0033 37000000 		.4byte	0x37
 863 0037 04       		.uleb128 0x4
 864 0038 04       		.byte	0x4
 865 0039 07       		.byte	0x7
 866 003a 3A020000 		.4byte	.LASF0
 867 003e 04       		.uleb128 0x4
 868 003f 01       		.byte	0x1
 869 0040 06       		.byte	0x6
 870 0041 03010000 		.4byte	.LASF1
 871 0045 03       		.uleb128 0x3
 872 0046 22000000 		.4byte	.LASF3
 873 004a 03       		.byte	0x3
 874 004b 1D       		.byte	0x1d
 875 004c 50000000 		.4byte	0x50
 876 0050 04       		.uleb128 0x4
 877 0051 01       		.byte	0x1
 878 0052 08       		.byte	0x8
 879 0053 13040000 		.4byte	.LASF4
 880 0057 04       		.uleb128 0x4
 881 0058 02       		.byte	0x2
 882 0059 05       		.byte	0x5
 883 005a 54040000 		.4byte	.LASF5
 884 005e 03       		.uleb128 0x3
 885 005f 30050000 		.4byte	.LASF6
 886 0063 03       		.byte	0x3
 887 0064 2B       		.byte	0x2b
 888 0065 69000000 		.4byte	0x69
 889 0069 04       		.uleb128 0x4
 890 006a 02       		.byte	0x2
 891 006b 07       		.byte	0x7
 892 006c A5020000 		.4byte	.LASF7
 893 0070 03       		.uleb128 0x3
 894 0071 6B050000 		.4byte	.LASF8
 895 0075 03       		.byte	0x3
 896 0076 3F       		.byte	0x3f
 897 0077 7B000000 		.4byte	0x7b
 898 007b 04       		.uleb128 0x4
 899 007c 04       		.byte	0x4
 900 007d 05       		.byte	0x5
 901 007e 53010000 		.4byte	.LASF9
 902 0082 03       		.uleb128 0x3
 903 0083 EF010000 		.4byte	.LASF10
 904 0087 03       		.byte	0x3
 905 0088 41       		.byte	0x41
 906 0089 8D000000 		.4byte	0x8d
 907 008d 04       		.uleb128 0x4
 908 008e 04       		.byte	0x4
ARM GAS  C:\Users\danit\AppData\Local\Temp\ccE8SfmD.s 			page 17


 909 008f 07       		.byte	0x7
 910 0090 DE040000 		.4byte	.LASF11
 911 0094 04       		.uleb128 0x4
 912 0095 08       		.byte	0x8
 913 0096 05       		.byte	0x5
 914 0097 F5000000 		.4byte	.LASF12
 915 009b 04       		.uleb128 0x4
 916 009c 08       		.byte	0x8
 917 009d 07       		.byte	0x7
 918 009e 62000000 		.4byte	.LASF13
 919 00a2 03       		.uleb128 0x3
 920 00a3 D6060000 		.4byte	.LASF14
 921 00a7 04       		.byte	0x4
 922 00a8 14       		.byte	0x14
 923 00a9 45000000 		.4byte	0x45
 924 00ad 03       		.uleb128 0x3
 925 00ae AB010000 		.4byte	.LASF15
 926 00b2 04       		.byte	0x4
 927 00b3 1A       		.byte	0x1a
 928 00b4 5E000000 		.4byte	0x5e
 929 00b8 03       		.uleb128 0x3
 930 00b9 0B040000 		.4byte	.LASF16
 931 00bd 04       		.byte	0x4
 932 00be 1F       		.byte	0x1f
 933 00bf 70000000 		.4byte	0x70
 934 00c3 03       		.uleb128 0x3
 935 00c4 C1040000 		.4byte	.LASF17
 936 00c8 04       		.byte	0x4
 937 00c9 20       		.byte	0x20
 938 00ca 82000000 		.4byte	0x82
 939 00ce 03       		.uleb128 0x3
 940 00cf 2E010000 		.4byte	.LASF18
 941 00d3 05       		.byte	0x5
 942 00d4 2B       		.byte	0x2b
 943 00d5 D9000000 		.4byte	0xd9
 944 00d9 04       		.uleb128 0x4
 945 00da 01       		.byte	0x1
 946 00db 02       		.byte	0x2
 947 00dc 05040000 		.4byte	.LASF19
 948 00e0 03       		.uleb128 0x3
 949 00e1 D9020000 		.4byte	.LASF20
 950 00e5 05       		.byte	0x5
 951 00e6 2C       		.byte	0x2c
 952 00e7 A2000000 		.4byte	0xa2
 953 00eb 03       		.uleb128 0x3
 954 00ec 8A010000 		.4byte	.LASF21
 955 00f0 05       		.byte	0x5
 956 00f1 2D       		.byte	0x2d
 957 00f2 A2000000 		.4byte	0xa2
 958 00f6 03       		.uleb128 0x3
 959 00f7 00000000 		.4byte	.LASF22
 960 00fb 05       		.byte	0x5
 961 00fc 2E       		.byte	0x2e
 962 00fd A2000000 		.4byte	0xa2
 963 0101 03       		.uleb128 0x3
 964 0102 3D010000 		.4byte	.LASF23
 965 0106 05       		.byte	0x5
ARM GAS  C:\Users\danit\AppData\Local\Temp\ccE8SfmD.s 			page 18


 966 0107 2F       		.byte	0x2f
 967 0108 A2000000 		.4byte	0xa2
 968 010c 03       		.uleb128 0x3
 969 010d F7030000 		.4byte	.LASF24
 970 0111 05       		.byte	0x5
 971 0112 30       		.byte	0x30
 972 0113 C3000000 		.4byte	0xc3
 973 0117 03       		.uleb128 0x3
 974 0118 C3020000 		.4byte	.LASF25
 975 011c 05       		.byte	0x5
 976 011d 31       		.byte	0x31
 977 011e B8000000 		.4byte	0xb8
 978 0122 03       		.uleb128 0x3
 979 0123 F7020000 		.4byte	.LASF26
 980 0127 05       		.byte	0x5
 981 0128 33       		.byte	0x33
 982 0129 C3000000 		.4byte	0xc3
 983 012d 03       		.uleb128 0x3
 984 012e 56050000 		.4byte	.LASF27
 985 0132 05       		.byte	0x5
 986 0133 35       		.byte	0x35
 987 0134 C3000000 		.4byte	0xc3
 988 0138 03       		.uleb128 0x3
 989 0139 A0040000 		.4byte	.LASF28
 990 013d 06       		.byte	0x6
 991 013e 2A       		.byte	0x2a
 992 013f 43010000 		.4byte	0x143
 993 0143 05       		.uleb128 0x5
 994 0144 A0040000 		.4byte	.LASF28
 995 0148 48       		.byte	0x48
 996 0149 07       		.byte	0x7
 997 014a 5E       		.byte	0x5e
 998 014b 40020000 		.4byte	0x240
 999 014f 06       		.uleb128 0x6
 1000 0150 3B030000 		.4byte	.LASF29
 1001 0154 07       		.byte	0x7
 1002 0155 5F       		.byte	0x5f
 1003 0156 61020000 		.4byte	0x261
 1004 015a 00       		.byte	0
 1005 015b 06       		.uleb128 0x6
 1006 015c D2030000 		.4byte	.LASF30
 1007 0160 07       		.byte	0x7
 1008 0161 61       		.byte	0x61
 1009 0162 61020000 		.4byte	0x261
 1010 0166 04       		.byte	0x4
 1011 0167 06       		.uleb128 0x6
 1012 0168 E0000000 		.4byte	.LASF31
 1013 016c 07       		.byte	0x7
 1014 016d 63       		.byte	0x63
 1015 016e 0C010000 		.4byte	0x10c
 1016 0172 08       		.byte	0x8
 1017 0173 06       		.uleb128 0x6
 1018 0174 AF070000 		.4byte	.LASF32
 1019 0178 07       		.byte	0x7
 1020 0179 64       		.byte	0x64
 1021 017a 1B030000 		.4byte	0x31b
 1022 017e 0C       		.byte	0xc
ARM GAS  C:\Users\danit\AppData\Local\Temp\ccE8SfmD.s 			page 19


 1023 017f 06       		.uleb128 0x6
 1024 0180 BB010000 		.4byte	.LASF33
 1025 0184 07       		.byte	0x7
 1026 0185 66       		.byte	0x66
 1027 0186 61020000 		.4byte	0x261
 1028 018a 10       		.byte	0x10
 1029 018b 06       		.uleb128 0x6
 1030 018c 5C030000 		.4byte	.LASF34
 1031 0190 07       		.byte	0x7
 1032 0191 67       		.byte	0x67
 1033 0192 61020000 		.4byte	0x261
 1034 0196 14       		.byte	0x14
 1035 0197 06       		.uleb128 0x6
 1036 0198 0B070000 		.4byte	.LASF35
 1037 019c 07       		.byte	0x7
 1038 019d 6E       		.byte	0x6e
 1039 019e C4030000 		.4byte	0x3c4
 1040 01a2 18       		.byte	0x18
 1041 01a3 06       		.uleb128 0x6
 1042 01a4 42040000 		.4byte	.LASF36
 1043 01a8 07       		.byte	0x7
 1044 01a9 79       		.byte	0x79
 1045 01aa EB000000 		.4byte	0xeb
 1046 01ae 1C       		.byte	0x1c
 1047 01af 06       		.uleb128 0x6
 1048 01b0 87040000 		.4byte	.LASF37
 1049 01b4 07       		.byte	0x7
 1050 01b5 7D       		.byte	0x7d
 1051 01b6 E0000000 		.4byte	0xe0
 1052 01ba 1D       		.byte	0x1d
 1053 01bb 06       		.uleb128 0x6
 1054 01bc A4010000 		.4byte	.LASF38
 1055 01c0 07       		.byte	0x7
 1056 01c1 82       		.byte	0x82
 1057 01c2 F6000000 		.4byte	0xf6
 1058 01c6 1E       		.byte	0x1e
 1059 01c7 06       		.uleb128 0x6
 1060 01c8 5E040000 		.4byte	.LASF39
 1061 01cc 07       		.byte	0x7
 1062 01cd 88       		.byte	0x88
 1063 01ce 01010000 		.4byte	0x101
 1064 01d2 1F       		.byte	0x1f
 1065 01d3 06       		.uleb128 0x6
 1066 01d4 B4010000 		.4byte	.LASF40
 1067 01d8 07       		.byte	0x7
 1068 01d9 8F       		.byte	0x8f
 1069 01da 48030000 		.4byte	0x348
 1070 01de 20       		.byte	0x20
 1071 01df 07       		.uleb128 0x7
 1072 01e0 705F7500 		.ascii	"p_u\000"
 1073 01e4 07       		.byte	0x7
 1074 01e5 B4       		.byte	0xb4
 1075 01e6 8F030000 		.4byte	0x38f
 1076 01ea 24       		.byte	0x24
 1077 01eb 06       		.uleb128 0x6
 1078 01ec B5070000 		.4byte	.LASF41
 1079 01f0 07       		.byte	0x7
ARM GAS  C:\Users\danit\AppData\Local\Temp\ccE8SfmD.s 			page 20


 1080 01f1 B9       		.byte	0xb9
 1081 01f2 87020000 		.4byte	0x287
 1082 01f6 28       		.byte	0x28
 1083 01f7 06       		.uleb128 0x6
 1084 01f8 72020000 		.4byte	.LASF42
 1085 01fc 07       		.byte	0x7
 1086 01fd BF       		.byte	0xbf
 1087 01fe 67020000 		.4byte	0x267
 1088 0202 2C       		.byte	0x2c
 1089 0203 06       		.uleb128 0x6
 1090 0204 5C070000 		.4byte	.LASF43
 1091 0208 07       		.byte	0x7
 1092 0209 C3       		.byte	0xc3
 1093 020a 17010000 		.4byte	0x117
 1094 020e 34       		.byte	0x34
 1095 020f 06       		.uleb128 0x6
 1096 0210 A7040000 		.4byte	.LASF44
 1097 0214 07       		.byte	0x7
 1098 0215 C9       		.byte	0xc9
 1099 0216 22010000 		.4byte	0x122
 1100 021a 38       		.byte	0x38
 1101 021b 06       		.uleb128 0x6
 1102 021c 4A040000 		.4byte	.LASF45
 1103 0220 07       		.byte	0x7
 1104 0221 D0       		.byte	0xd0
 1105 0222 D6030000 		.4byte	0x3d6
 1106 0226 3C       		.byte	0x3c
 1107 0227 06       		.uleb128 0x6
 1108 0228 60050000 		.4byte	.LASF46
 1109 022c 07       		.byte	0x7
 1110 022d D4       		.byte	0xd4
 1111 022e 0C010000 		.4byte	0x10c
 1112 0232 40       		.byte	0x40
 1113 0233 06       		.uleb128 0x6
 1114 0234 FA010000 		.4byte	.LASF47
 1115 0238 07       		.byte	0x7
 1116 0239 DA       		.byte	0xda
 1117 023a 9D020000 		.4byte	0x29d
 1118 023e 44       		.byte	0x44
 1119 023f 00       		.byte	0
 1120 0240 08       		.uleb128 0x8
 1121 0241 08       		.byte	0x8
 1122 0242 06       		.byte	0x6
 1123 0243 61       		.byte	0x61
 1124 0244 61020000 		.4byte	0x261
 1125 0248 06       		.uleb128 0x6
 1126 0249 3B030000 		.4byte	.LASF29
 1127 024d 06       		.byte	0x6
 1128 024e 62       		.byte	0x62
 1129 024f 61020000 		.4byte	0x261
 1130 0253 00       		.byte	0
 1131 0254 06       		.uleb128 0x6
 1132 0255 D2030000 		.4byte	.LASF30
 1133 0259 06       		.byte	0x6
 1134 025a 64       		.byte	0x64
 1135 025b 61020000 		.4byte	0x261
 1136 025f 04       		.byte	0x4
ARM GAS  C:\Users\danit\AppData\Local\Temp\ccE8SfmD.s 			page 21


 1137 0260 00       		.byte	0
 1138 0261 09       		.uleb128 0x9
 1139 0262 04       		.byte	0x4
 1140 0263 38010000 		.4byte	0x138
 1141 0267 03       		.uleb128 0x3
 1142 0268 64030000 		.4byte	.LASF48
 1143 026c 06       		.byte	0x6
 1144 026d 66       		.byte	0x66
 1145 026e 40020000 		.4byte	0x240
 1146 0272 08       		.uleb128 0x8
 1147 0273 04       		.byte	0x4
 1148 0274 06       		.byte	0x6
 1149 0275 6B       		.byte	0x6b
 1150 0276 87020000 		.4byte	0x287
 1151 027a 06       		.uleb128 0x6
 1152 027b 3B030000 		.4byte	.LASF29
 1153 027f 06       		.byte	0x6
 1154 0280 6D       		.byte	0x6d
 1155 0281 61020000 		.4byte	0x261
 1156 0285 00       		.byte	0
 1157 0286 00       		.byte	0
 1158 0287 03       		.uleb128 0x3
 1159 0288 EB020000 		.4byte	.LASF49
 1160 028c 06       		.byte	0x6
 1161 028d 70       		.byte	0x70
 1162 028e 72020000 		.4byte	0x272
 1163 0292 03       		.uleb128 0x3
 1164 0293 02020000 		.4byte	.LASF50
 1165 0297 08       		.byte	0x8
 1166 0298 E5       		.byte	0xe5
 1167 0299 9D020000 		.4byte	0x29d
 1168 029d 0A       		.uleb128 0xa
 1169 029e 04       		.byte	0x4
 1170 029f 0B       		.uleb128 0xb
 1171 02a0 B6050000 		.4byte	.LASF51
 1172 02a4 24       		.byte	0x24
 1173 02a5 08       		.byte	0x8
 1174 02a6 0C01     		.2byte	0x10c
 1175 02a8 1B030000 		.4byte	0x31b
 1176 02ac 0C       		.uleb128 0xc
 1177 02ad 723400   		.ascii	"r4\000"
 1178 02b0 08       		.byte	0x8
 1179 02b1 1F01     		.2byte	0x11f
 1180 02b3 92020000 		.4byte	0x292
 1181 02b7 00       		.byte	0
 1182 02b8 0C       		.uleb128 0xc
 1183 02b9 723500   		.ascii	"r5\000"
 1184 02bc 08       		.byte	0x8
 1185 02bd 2001     		.2byte	0x120
 1186 02bf 92020000 		.4byte	0x292
 1187 02c3 04       		.byte	0x4
 1188 02c4 0C       		.uleb128 0xc
 1189 02c5 723600   		.ascii	"r6\000"
 1190 02c8 08       		.byte	0x8
 1191 02c9 2101     		.2byte	0x121
 1192 02cb 92020000 		.4byte	0x292
 1193 02cf 08       		.byte	0x8
ARM GAS  C:\Users\danit\AppData\Local\Temp\ccE8SfmD.s 			page 22


 1194 02d0 0C       		.uleb128 0xc
 1195 02d1 723700   		.ascii	"r7\000"
 1196 02d4 08       		.byte	0x8
 1197 02d5 2201     		.2byte	0x122
 1198 02d7 92020000 		.4byte	0x292
 1199 02db 0C       		.byte	0xc
 1200 02dc 0C       		.uleb128 0xc
 1201 02dd 723800   		.ascii	"r8\000"
 1202 02e0 08       		.byte	0x8
 1203 02e1 2301     		.2byte	0x123
 1204 02e3 92020000 		.4byte	0x292
 1205 02e7 10       		.byte	0x10
 1206 02e8 0C       		.uleb128 0xc
 1207 02e9 723900   		.ascii	"r9\000"
 1208 02ec 08       		.byte	0x8
 1209 02ed 2401     		.2byte	0x124
 1210 02ef 92020000 		.4byte	0x292
 1211 02f3 14       		.byte	0x14
 1212 02f4 0C       		.uleb128 0xc
 1213 02f5 72313000 		.ascii	"r10\000"
 1214 02f9 08       		.byte	0x8
 1215 02fa 2501     		.2byte	0x125
 1216 02fc 92020000 		.4byte	0x292
 1217 0300 18       		.byte	0x18
 1218 0301 0C       		.uleb128 0xc
 1219 0302 72313100 		.ascii	"r11\000"
 1220 0306 08       		.byte	0x8
 1221 0307 2601     		.2byte	0x126
 1222 0309 92020000 		.4byte	0x292
 1223 030d 1C       		.byte	0x1c
 1224 030e 0C       		.uleb128 0xc
 1225 030f 6C7200   		.ascii	"lr\000"
 1226 0312 08       		.byte	0x8
 1227 0313 2701     		.2byte	0x127
 1228 0315 92020000 		.4byte	0x292
 1229 0319 20       		.byte	0x20
 1230 031a 00       		.byte	0
 1231 031b 0B       		.uleb128 0xb
 1232 031c 9D020000 		.4byte	.LASF52
 1233 0320 04       		.byte	0x4
 1234 0321 08       		.byte	0x8
 1235 0322 3101     		.2byte	0x131
 1236 0324 36030000 		.4byte	0x336
 1237 0328 0C       		.uleb128 0xc
 1238 0329 72313300 		.ascii	"r13\000"
 1239 032d 08       		.byte	0x8
 1240 032e 3201     		.2byte	0x132
 1241 0330 36030000 		.4byte	0x336
 1242 0334 00       		.byte	0
 1243 0335 00       		.byte	0
 1244 0336 09       		.uleb128 0x9
 1245 0337 04       		.byte	0x4
 1246 0338 9F020000 		.4byte	0x29f
 1247 033c 0D       		.uleb128 0xd
 1248 033d C3000000 		.4byte	0xc3
 1249 0341 04       		.uleb128 0x4
 1250 0342 04       		.byte	0x4
ARM GAS  C:\Users\danit\AppData\Local\Temp\ccE8SfmD.s 			page 23


 1251 0343 07       		.byte	0x7
 1252 0344 26030000 		.4byte	.LASF53
 1253 0348 0D       		.uleb128 0xd
 1254 0349 2D010000 		.4byte	0x12d
 1255 034d 05       		.uleb128 0x5
 1256 034e 35030000 		.4byte	.LASF54
 1257 0352 10       		.byte	0x10
 1258 0353 09       		.byte	0x9
 1259 0354 2C       		.byte	0x2c
 1260 0355 7E030000 		.4byte	0x37e
 1261 0359 06       		.uleb128 0x6
 1262 035a 35010000 		.4byte	.LASF55
 1263 035e 09       		.byte	0x9
 1264 035f 2D       		.byte	0x2d
 1265 0360 67020000 		.4byte	0x267
 1266 0364 00       		.byte	0
 1267 0365 06       		.uleb128 0x6
 1268 0366 95070000 		.4byte	.LASF56
 1269 036a 09       		.byte	0x9
 1270 036b 2F       		.byte	0x2f
 1271 036c 61020000 		.4byte	0x261
 1272 0370 08       		.byte	0x8
 1273 0371 06       		.uleb128 0x6
 1274 0372 4F050000 		.4byte	.LASF57
 1275 0376 09       		.byte	0x9
 1276 0377 31       		.byte	0x31
 1277 0378 7E030000 		.4byte	0x37e
 1278 037c 0C       		.byte	0xc
 1279 037d 00       		.byte	0
 1280 037e 09       		.uleb128 0x9
 1281 037f 04       		.byte	0x4
 1282 0380 4D030000 		.4byte	0x34d
 1283 0384 03       		.uleb128 0x3
 1284 0385 35030000 		.4byte	.LASF54
 1285 0389 09       		.byte	0x9
 1286 038a 33       		.byte	0x33
 1287 038b 4D030000 		.4byte	0x34d
 1288 038f 0E       		.uleb128 0xe
 1289 0390 04       		.byte	0x4
 1290 0391 07       		.byte	0x7
 1291 0392 96       		.byte	0x96
 1292 0393 C4030000 		.4byte	0x3c4
 1293 0397 0F       		.uleb128 0xf
 1294 0398 14000000 		.4byte	.LASF58
 1295 039c 07       		.byte	0x7
 1296 039d 9D       		.byte	0x9d
 1297 039e 17010000 		.4byte	0x117
 1298 03a2 0F       		.uleb128 0xf
 1299 03a3 8F000000 		.4byte	.LASF59
 1300 03a7 07       		.byte	0x7
 1301 03a8 A4       		.byte	0xa4
 1302 03a9 17010000 		.4byte	0x117
 1303 03ad 0F       		.uleb128 0xf
 1304 03ae E9060000 		.4byte	.LASF60
 1305 03b2 07       		.byte	0x7
 1306 03b3 AB       		.byte	0xab
 1307 03b4 9D020000 		.4byte	0x29d
ARM GAS  C:\Users\danit\AppData\Local\Temp\ccE8SfmD.s 			page 24


 1308 03b8 0F       		.uleb128 0xf
 1309 03b9 80040000 		.4byte	.LASF61
 1310 03bd 07       		.byte	0x7
 1311 03be B2       		.byte	0xb2
 1312 03bf 22010000 		.4byte	0x122
 1313 03c3 00       		.byte	0
 1314 03c4 09       		.uleb128 0x9
 1315 03c5 04       		.byte	0x4
 1316 03c6 CA030000 		.4byte	0x3ca
 1317 03ca 10       		.uleb128 0x10
 1318 03cb CF030000 		.4byte	0x3cf
 1319 03cf 04       		.uleb128 0x4
 1320 03d0 01       		.byte	0x1
 1321 03d1 08       		.byte	0x8
 1322 03d2 FC040000 		.4byte	.LASF62
 1323 03d6 09       		.uleb128 0x9
 1324 03d7 04       		.byte	0x4
 1325 03d8 84030000 		.4byte	0x384
 1326 03dc 11       		.uleb128 0x11
 1327 03dd C3000000 		.4byte	0xc3
 1328 03e1 EC030000 		.4byte	0x3ec
 1329 03e5 12       		.uleb128 0x12
 1330 03e6 41030000 		.4byte	0x341
 1331 03ea 01       		.byte	0x1
 1332 03eb 00       		.byte	0
 1333 03ec 0D       		.uleb128 0xd
 1334 03ed AD000000 		.4byte	0xad
 1335 03f1 0D       		.uleb128 0xd
 1336 03f2 B8000000 		.4byte	0xb8
 1337 03f6 13       		.uleb128 0x13
 1338 03f7 18       		.byte	0x18
 1339 03f8 0A       		.byte	0xa
 1340 03f9 B102     		.2byte	0x2b1
 1341 03fb 4D040000 		.4byte	0x44d
 1342 03ff 0C       		.uleb128 0xc
 1343 0400 435200   		.ascii	"CR\000"
 1344 0403 0A       		.byte	0xa
 1345 0404 B302     		.2byte	0x2b3
 1346 0406 3C030000 		.4byte	0x33c
 1347 040a 00       		.byte	0
 1348 040b 14       		.uleb128 0x14
 1349 040c 7C050000 		.4byte	.LASF63
 1350 0410 0A       		.byte	0xa
 1351 0411 B402     		.2byte	0x2b4
 1352 0413 3C030000 		.4byte	0x33c
 1353 0417 04       		.byte	0x4
 1354 0418 0C       		.uleb128 0xc
 1355 0419 50415200 		.ascii	"PAR\000"
 1356 041d 0A       		.byte	0xa
 1357 041e B502     		.2byte	0x2b5
 1358 0420 3C030000 		.4byte	0x33c
 1359 0424 08       		.byte	0x8
 1360 0425 14       		.uleb128 0x14
 1361 0426 08000000 		.4byte	.LASF64
 1362 042a 0A       		.byte	0xa
 1363 042b B602     		.2byte	0x2b6
 1364 042d 3C030000 		.4byte	0x33c
ARM GAS  C:\Users\danit\AppData\Local\Temp\ccE8SfmD.s 			page 25


 1365 0431 0C       		.byte	0xc
 1366 0432 14       		.uleb128 0x14
 1367 0433 BD050000 		.4byte	.LASF65
 1368 0437 0A       		.byte	0xa
 1369 0438 B702     		.2byte	0x2b7
 1370 043a 3C030000 		.4byte	0x33c
 1371 043e 10       		.byte	0x10
 1372 043f 0C       		.uleb128 0xc
 1373 0440 46435200 		.ascii	"FCR\000"
 1374 0444 0A       		.byte	0xa
 1375 0445 B802     		.2byte	0x2b8
 1376 0447 3C030000 		.4byte	0x33c
 1377 044b 14       		.byte	0x14
 1378 044c 00       		.byte	0
 1379 044d 15       		.uleb128 0x15
 1380 044e 81050000 		.4byte	.LASF66
 1381 0452 0A       		.byte	0xa
 1382 0453 B902     		.2byte	0x2b9
 1383 0455 F6030000 		.4byte	0x3f6
 1384 0459 13       		.uleb128 0x13
 1385 045a 90       		.byte	0x90
 1386 045b 0A       		.byte	0xa
 1387 045c 5804     		.2byte	0x458
 1388 045e 02060000 		.4byte	0x602
 1389 0462 0C       		.uleb128 0xc
 1390 0463 435200   		.ascii	"CR\000"
 1391 0466 0A       		.byte	0xa
 1392 0467 5A04     		.2byte	0x45a
 1393 0469 3C030000 		.4byte	0x33c
 1394 046d 00       		.byte	0
 1395 046e 14       		.uleb128 0x14
 1396 046f C9020000 		.4byte	.LASF67
 1397 0473 0A       		.byte	0xa
 1398 0474 5B04     		.2byte	0x45b
 1399 0476 3C030000 		.4byte	0x33c
 1400 047a 04       		.byte	0x4
 1401 047b 14       		.uleb128 0x14
 1402 047c 5E020000 		.4byte	.LASF68
 1403 0480 0A       		.byte	0xa
 1404 0481 5C04     		.2byte	0x45c
 1405 0483 3C030000 		.4byte	0x33c
 1406 0487 08       		.byte	0x8
 1407 0488 0C       		.uleb128 0xc
 1408 0489 43495200 		.ascii	"CIR\000"
 1409 048d 0A       		.byte	0xa
 1410 048e 5D04     		.2byte	0x45d
 1411 0490 3C030000 		.4byte	0x33c
 1412 0494 0C       		.byte	0xc
 1413 0495 14       		.uleb128 0x14
 1414 0496 14010000 		.4byte	.LASF69
 1415 049a 0A       		.byte	0xa
 1416 049b 5E04     		.2byte	0x45e
 1417 049d 3C030000 		.4byte	0x33c
 1418 04a1 10       		.byte	0x10
 1419 04a2 14       		.uleb128 0x14
 1420 04a3 3B050000 		.4byte	.LASF70
 1421 04a7 0A       		.byte	0xa
ARM GAS  C:\Users\danit\AppData\Local\Temp\ccE8SfmD.s 			page 26


 1422 04a8 5F04     		.2byte	0x45f
 1423 04aa 3C030000 		.4byte	0x33c
 1424 04ae 14       		.byte	0x14
 1425 04af 14       		.uleb128 0x14
 1426 04b0 97040000 		.4byte	.LASF71
 1427 04b4 0A       		.byte	0xa
 1428 04b5 6004     		.2byte	0x460
 1429 04b7 3C030000 		.4byte	0x33c
 1430 04bb 18       		.byte	0x18
 1431 04bc 14       		.uleb128 0x14
 1432 04bd A0030000 		.4byte	.LASF72
 1433 04c1 0A       		.byte	0xa
 1434 04c2 6104     		.2byte	0x461
 1435 04c4 C3000000 		.4byte	0xc3
 1436 04c8 1C       		.byte	0x1c
 1437 04c9 14       		.uleb128 0x14
 1438 04ca 7B030000 		.4byte	.LASF73
 1439 04ce 0A       		.byte	0xa
 1440 04cf 6204     		.2byte	0x462
 1441 04d1 3C030000 		.4byte	0x33c
 1442 04d5 20       		.byte	0x20
 1443 04d6 14       		.uleb128 0x14
 1444 04d7 77010000 		.4byte	.LASF74
 1445 04db 0A       		.byte	0xa
 1446 04dc 6304     		.2byte	0x463
 1447 04de 3C030000 		.4byte	0x33c
 1448 04e2 24       		.byte	0x24
 1449 04e3 14       		.uleb128 0x14
 1450 04e4 AA030000 		.4byte	.LASF75
 1451 04e8 0A       		.byte	0xa
 1452 04e9 6404     		.2byte	0x464
 1453 04eb DC030000 		.4byte	0x3dc
 1454 04ef 28       		.byte	0x28
 1455 04f0 14       		.uleb128 0x14
 1456 04f1 12070000 		.4byte	.LASF76
 1457 04f5 0A       		.byte	0xa
 1458 04f6 6504     		.2byte	0x465
 1459 04f8 3C030000 		.4byte	0x33c
 1460 04fc 30       		.byte	0x30
 1461 04fd 14       		.uleb128 0x14
 1462 04fe 9F050000 		.4byte	.LASF77
 1463 0502 0A       		.byte	0xa
 1464 0503 6604     		.2byte	0x466
 1465 0505 3C030000 		.4byte	0x33c
 1466 0509 34       		.byte	0x34
 1467 050a 14       		.uleb128 0x14
 1468 050b 7D020000 		.4byte	.LASF78
 1469 050f 0A       		.byte	0xa
 1470 0510 6704     		.2byte	0x467
 1471 0512 3C030000 		.4byte	0x33c
 1472 0516 38       		.byte	0x38
 1473 0517 14       		.uleb128 0x14
 1474 0518 B4030000 		.4byte	.LASF79
 1475 051c 0A       		.byte	0xa
 1476 051d 6804     		.2byte	0x468
 1477 051f C3000000 		.4byte	0xc3
 1478 0523 3C       		.byte	0x3c
ARM GAS  C:\Users\danit\AppData\Local\Temp\ccE8SfmD.s 			page 27


 1479 0524 14       		.uleb128 0x14
 1480 0525 D6040000 		.4byte	.LASF80
 1481 0529 0A       		.byte	0xa
 1482 052a 6904     		.2byte	0x469
 1483 052c 3C030000 		.4byte	0x33c
 1484 0530 40       		.byte	0x40
 1485 0531 14       		.uleb128 0x14
 1486 0532 8F040000 		.4byte	.LASF81
 1487 0536 0A       		.byte	0xa
 1488 0537 6A04     		.2byte	0x46a
 1489 0539 3C030000 		.4byte	0x33c
 1490 053d 44       		.byte	0x44
 1491 053e 14       		.uleb128 0x14
 1492 053f BE030000 		.4byte	.LASF82
 1493 0543 0A       		.byte	0xa
 1494 0544 6B04     		.2byte	0x46b
 1495 0546 DC030000 		.4byte	0x3dc
 1496 054a 48       		.byte	0x48
 1497 054b 14       		.uleb128 0x14
 1498 054c D6000000 		.4byte	.LASF83
 1499 0550 0A       		.byte	0xa
 1500 0551 6C04     		.2byte	0x46c
 1501 0553 3C030000 		.4byte	0x33c
 1502 0557 50       		.byte	0x50
 1503 0558 14       		.uleb128 0x14
 1504 0559 71030000 		.4byte	.LASF84
 1505 055d 0A       		.byte	0xa
 1506 055e 6D04     		.2byte	0x46d
 1507 0560 3C030000 		.4byte	0x33c
 1508 0564 54       		.byte	0x54
 1509 0565 14       		.uleb128 0x14
 1510 0566 68040000 		.4byte	.LASF85
 1511 056a 0A       		.byte	0xa
 1512 056b 6E04     		.2byte	0x46e
 1513 056d 3C030000 		.4byte	0x33c
 1514 0571 58       		.byte	0x58
 1515 0572 14       		.uleb128 0x14
 1516 0573 C8030000 		.4byte	.LASF86
 1517 0577 0A       		.byte	0xa
 1518 0578 6F04     		.2byte	0x46f
 1519 057a C3000000 		.4byte	0xc3
 1520 057e 5C       		.byte	0x5c
 1521 057f 14       		.uleb128 0x14
 1522 0580 80010000 		.4byte	.LASF87
 1523 0584 0A       		.byte	0xa
 1524 0585 7004     		.2byte	0x470
 1525 0587 3C030000 		.4byte	0x33c
 1526 058b 60       		.byte	0x60
 1527 058c 14       		.uleb128 0x14
 1528 058d E1020000 		.4byte	.LASF88
 1529 0591 0A       		.byte	0xa
 1530 0592 7104     		.2byte	0x471
 1531 0594 3C030000 		.4byte	0x33c
 1532 0598 64       		.byte	0x64
 1533 0599 14       		.uleb128 0x14
 1534 059a B7040000 		.4byte	.LASF89
 1535 059e 0A       		.byte	0xa
ARM GAS  C:\Users\danit\AppData\Local\Temp\ccE8SfmD.s 			page 28


 1536 059f 7204     		.2byte	0x472
 1537 05a1 DC030000 		.4byte	0x3dc
 1538 05a5 68       		.byte	0x68
 1539 05a6 14       		.uleb128 0x14
 1540 05a7 BC060000 		.4byte	.LASF90
 1541 05ab 0A       		.byte	0xa
 1542 05ac 7304     		.2byte	0x473
 1543 05ae 3C030000 		.4byte	0x33c
 1544 05b2 70       		.byte	0x70
 1545 05b3 0C       		.uleb128 0xc
 1546 05b4 43535200 		.ascii	"CSR\000"
 1547 05b8 0A       		.byte	0xa
 1548 05b9 7404     		.2byte	0x474
 1549 05bb 3C030000 		.4byte	0x33c
 1550 05bf 74       		.byte	0x74
 1551 05c0 14       		.uleb128 0x14
 1552 05c1 D9030000 		.4byte	.LASF91
 1553 05c5 0A       		.byte	0xa
 1554 05c6 7504     		.2byte	0x475
 1555 05c8 DC030000 		.4byte	0x3dc
 1556 05cc 78       		.byte	0x78
 1557 05cd 14       		.uleb128 0x14
 1558 05ce CD050000 		.4byte	.LASF92
 1559 05d2 0A       		.byte	0xa
 1560 05d3 7604     		.2byte	0x476
 1561 05d5 3C030000 		.4byte	0x33c
 1562 05d9 80       		.byte	0x80
 1563 05da 14       		.uleb128 0x14
 1564 05db B8020000 		.4byte	.LASF93
 1565 05df 0A       		.byte	0xa
 1566 05e0 7704     		.2byte	0x477
 1567 05e2 3C030000 		.4byte	0x33c
 1568 05e6 84       		.byte	0x84
 1569 05e7 14       		.uleb128 0x14
 1570 05e8 8E030000 		.4byte	.LASF94
 1571 05ec 0A       		.byte	0xa
 1572 05ed 7804     		.2byte	0x478
 1573 05ef 3C030000 		.4byte	0x33c
 1574 05f3 88       		.byte	0x88
 1575 05f4 14       		.uleb128 0x14
 1576 05f5 ED000000 		.4byte	.LASF95
 1577 05f9 0A       		.byte	0xa
 1578 05fa 7904     		.2byte	0x479
 1579 05fc 3C030000 		.4byte	0x33c
 1580 0600 8C       		.byte	0x8c
 1581 0601 00       		.byte	0
 1582 0602 15       		.uleb128 0x15
 1583 0603 85020000 		.4byte	.LASF96
 1584 0607 0A       		.byte	0xa
 1585 0608 7B04     		.2byte	0x47b
 1586 060a 59040000 		.4byte	0x459
 1587 060e 13       		.uleb128 0x13
 1588 060f 24       		.byte	0x24
 1589 0610 0A       		.byte	0xa
 1590 0611 E304     		.2byte	0x4e3
 1591 0613 00070000 		.4byte	0x700
 1592 0617 0C       		.uleb128 0xc
ARM GAS  C:\Users\danit\AppData\Local\Temp\ccE8SfmD.s 			page 29


 1593 0618 43523100 		.ascii	"CR1\000"
 1594 061c 0A       		.byte	0xa
 1595 061d E504     		.2byte	0x4e5
 1596 061f EC030000 		.4byte	0x3ec
 1597 0623 00       		.byte	0
 1598 0624 14       		.uleb128 0x14
 1599 0625 A0030000 		.4byte	.LASF72
 1600 0629 0A       		.byte	0xa
 1601 062a E604     		.2byte	0x4e6
 1602 062c AD000000 		.4byte	0xad
 1603 0630 02       		.byte	0x2
 1604 0631 0C       		.uleb128 0xc
 1605 0632 43523200 		.ascii	"CR2\000"
 1606 0636 0A       		.byte	0xa
 1607 0637 E704     		.2byte	0x4e7
 1608 0639 EC030000 		.4byte	0x3ec
 1609 063d 04       		.byte	0x4
 1610 063e 14       		.uleb128 0x14
 1611 063f AA030000 		.4byte	.LASF75
 1612 0643 0A       		.byte	0xa
 1613 0644 E804     		.2byte	0x4e8
 1614 0646 AD000000 		.4byte	0xad
 1615 064a 06       		.byte	0x6
 1616 064b 0C       		.uleb128 0xc
 1617 064c 535200   		.ascii	"SR\000"
 1618 064f 0A       		.byte	0xa
 1619 0650 E904     		.2byte	0x4e9
 1620 0652 EC030000 		.4byte	0x3ec
 1621 0656 08       		.byte	0x8
 1622 0657 14       		.uleb128 0x14
 1623 0658 B4030000 		.4byte	.LASF79
 1624 065c 0A       		.byte	0xa
 1625 065d EA04     		.2byte	0x4ea
 1626 065f AD000000 		.4byte	0xad
 1627 0663 0A       		.byte	0xa
 1628 0664 0C       		.uleb128 0xc
 1629 0665 445200   		.ascii	"DR\000"
 1630 0668 0A       		.byte	0xa
 1631 0669 EB04     		.2byte	0x4eb
 1632 066b EC030000 		.4byte	0x3ec
 1633 066f 0C       		.byte	0xc
 1634 0670 14       		.uleb128 0x14
 1635 0671 BE030000 		.4byte	.LASF82
 1636 0675 0A       		.byte	0xa
 1637 0676 EC04     		.2byte	0x4ec
 1638 0678 AD000000 		.4byte	0xad
 1639 067c 0E       		.byte	0xe
 1640 067d 14       		.uleb128 0x14
 1641 067e 83000000 		.4byte	.LASF97
 1642 0682 0A       		.byte	0xa
 1643 0683 ED04     		.2byte	0x4ed
 1644 0685 EC030000 		.4byte	0x3ec
 1645 0689 10       		.byte	0x10
 1646 068a 14       		.uleb128 0x14
 1647 068b C8030000 		.4byte	.LASF86
 1648 068f 0A       		.byte	0xa
 1649 0690 EE04     		.2byte	0x4ee
ARM GAS  C:\Users\danit\AppData\Local\Temp\ccE8SfmD.s 			page 30


 1650 0692 AD000000 		.4byte	0xad
 1651 0696 12       		.byte	0x12
 1652 0697 14       		.uleb128 0x14
 1653 0698 C1060000 		.4byte	.LASF98
 1654 069c 0A       		.byte	0xa
 1655 069d EF04     		.2byte	0x4ef
 1656 069f EC030000 		.4byte	0x3ec
 1657 06a3 14       		.byte	0x14
 1658 06a4 14       		.uleb128 0x14
 1659 06a5 B7040000 		.4byte	.LASF89
 1660 06a9 0A       		.byte	0xa
 1661 06aa F004     		.2byte	0x4f0
 1662 06ac AD000000 		.4byte	0xad
 1663 06b0 16       		.byte	0x16
 1664 06b1 14       		.uleb128 0x14
 1665 06b2 99030000 		.4byte	.LASF99
 1666 06b6 0A       		.byte	0xa
 1667 06b7 F104     		.2byte	0x4f1
 1668 06b9 EC030000 		.4byte	0x3ec
 1669 06bd 18       		.byte	0x18
 1670 06be 14       		.uleb128 0x14
 1671 06bf D9030000 		.4byte	.LASF91
 1672 06c3 0A       		.byte	0xa
 1673 06c4 F204     		.2byte	0x4f2
 1674 06c6 AD000000 		.4byte	0xad
 1675 06ca 1A       		.byte	0x1a
 1676 06cb 14       		.uleb128 0x14
 1677 06cc 26010000 		.4byte	.LASF100
 1678 06d0 0A       		.byte	0xa
 1679 06d1 F304     		.2byte	0x4f3
 1680 06d3 EC030000 		.4byte	0x3ec
 1681 06d7 1C       		.byte	0x1c
 1682 06d8 14       		.uleb128 0x14
 1683 06d9 E3030000 		.4byte	.LASF101
 1684 06dd 0A       		.byte	0xa
 1685 06de F404     		.2byte	0x4f4
 1686 06e0 AD000000 		.4byte	0xad
 1687 06e4 1E       		.byte	0x1e
 1688 06e5 14       		.uleb128 0x14
 1689 06e6 20030000 		.4byte	.LASF102
 1690 06ea 0A       		.byte	0xa
 1691 06eb F504     		.2byte	0x4f5
 1692 06ed EC030000 		.4byte	0x3ec
 1693 06f1 20       		.byte	0x20
 1694 06f2 14       		.uleb128 0x14
 1695 06f3 ED030000 		.4byte	.LASF103
 1696 06f7 0A       		.byte	0xa
 1697 06f8 F604     		.2byte	0x4f6
 1698 06fa AD000000 		.4byte	0xad
 1699 06fe 22       		.byte	0x22
 1700 06ff 00       		.byte	0
 1701 0700 15       		.uleb128 0x15
 1702 0701 F0040000 		.4byte	.LASF104
 1703 0705 0A       		.byte	0xa
 1704 0706 F704     		.2byte	0x4f7
 1705 0708 0E060000 		.4byte	0x60e
 1706 070c 08       		.uleb128 0x8
ARM GAS  C:\Users\danit\AppData\Local\Temp\ccE8SfmD.s 			page 31


 1707 070d 0C       		.byte	0xc
 1708 070e 0B       		.byte	0xb
 1709 070f DA       		.byte	0xda
 1710 0710 51070000 		.4byte	0x751
 1711 0714 06       		.uleb128 0x6
 1712 0715 4F000000 		.4byte	.LASF105
 1713 0719 0B       		.byte	0xb
 1714 071a DB       		.byte	0xdb
 1715 071b 51070000 		.4byte	0x751
 1716 071f 00       		.byte	0
 1717 0720 06       		.uleb128 0x6
 1718 0721 B2040000 		.4byte	.LASF106
 1719 0725 0B       		.byte	0xb
 1720 0726 DC       		.byte	0xdc
 1721 0727 57070000 		.4byte	0x757
 1722 072b 04       		.byte	0x4
 1723 072c 06       		.uleb128 0x6
 1724 072d 96020000 		.4byte	.LASF107
 1725 0731 0B       		.byte	0xb
 1726 0732 DD       		.byte	0xdd
 1727 0733 A2000000 		.4byte	0xa2
 1728 0737 08       		.byte	0x8
 1729 0738 06       		.uleb128 0x6
 1730 0739 0B020000 		.4byte	.LASF108
 1731 073d 0B       		.byte	0xb
 1732 073e DF       		.byte	0xdf
 1733 073f A2000000 		.4byte	0xa2
 1734 0743 09       		.byte	0x9
 1735 0744 06       		.uleb128 0x6
 1736 0745 98000000 		.4byte	.LASF109
 1737 0749 0B       		.byte	0xb
 1738 074a E0       		.byte	0xe0
 1739 074b A2000000 		.4byte	0xa2
 1740 074f 0A       		.byte	0xa
 1741 0750 00       		.byte	0
 1742 0751 09       		.uleb128 0x9
 1743 0752 04       		.byte	0x4
 1744 0753 4D040000 		.4byte	0x44d
 1745 0757 09       		.uleb128 0x9
 1746 0758 04       		.byte	0x4
 1747 0759 3C030000 		.4byte	0x33c
 1748 075d 03       		.uleb128 0x3
 1749 075e 21040000 		.4byte	.LASF110
 1750 0762 0B       		.byte	0xb
 1751 0763 E1       		.byte	0xe1
 1752 0764 0C070000 		.4byte	0x70c
 1753 0768 03       		.uleb128 0x3
 1754 0769 63020000 		.4byte	.LASF111
 1755 076d 0B       		.byte	0xb
 1756 076e EA       		.byte	0xea
 1757 076f 73070000 		.4byte	0x773
 1758 0773 09       		.uleb128 0x9
 1759 0774 04       		.byte	0x4
 1760 0775 79070000 		.4byte	0x779
 1761 0779 16       		.uleb128 0x16
 1762 077a 89070000 		.4byte	0x789
 1763 077e 17       		.uleb128 0x17
ARM GAS  C:\Users\danit\AppData\Local\Temp\ccE8SfmD.s 			page 32


 1764 077f 9D020000 		.4byte	0x29d
 1765 0783 17       		.uleb128 0x17
 1766 0784 C3000000 		.4byte	0xc3
 1767 0788 00       		.byte	0
 1768 0789 08       		.uleb128 0x8
 1769 078a 04       		.byte	0x4
 1770 078b 0C       		.byte	0xc
 1771 078c 96       		.byte	0x96
 1772 078d AA070000 		.4byte	0x7aa
 1773 0791 07       		.uleb128 0x7
 1774 0792 73657400 		.ascii	"set\000"
 1775 0796 0C       		.byte	0xc
 1776 0797 97       		.byte	0x97
 1777 0798 AD000000 		.4byte	0xad
 1778 079c 00       		.byte	0
 1779 079d 06       		.uleb128 0x6
 1780 079e 2F030000 		.4byte	.LASF112
 1781 07a2 0C       		.byte	0xc
 1782 07a3 98       		.byte	0x98
 1783 07a4 AD000000 		.4byte	0xad
 1784 07a8 02       		.byte	0x2
 1785 07a9 00       		.byte	0
 1786 07aa 0E       		.uleb128 0xe
 1787 07ab 04       		.byte	0x4
 1788 07ac 0C       		.byte	0xc
 1789 07ad 94       		.byte	0x94
 1790 07ae C5070000 		.4byte	0x7c5
 1791 07b2 18       		.uleb128 0x18
 1792 07b3 5700     		.ascii	"W\000"
 1793 07b5 0C       		.byte	0xc
 1794 07b6 95       		.byte	0x95
 1795 07b7 C3000000 		.4byte	0xc3
 1796 07bb 18       		.uleb128 0x18
 1797 07bc 4800     		.ascii	"H\000"
 1798 07be 0C       		.byte	0xc
 1799 07bf 99       		.byte	0x99
 1800 07c0 89070000 		.4byte	0x789
 1801 07c4 00       		.byte	0
 1802 07c5 08       		.uleb128 0x8
 1803 07c6 28       		.byte	0x28
 1804 07c7 0C       		.byte	0xc
 1805 07c8 8C       		.byte	0x8c
 1806 07c9 46080000 		.4byte	0x846
 1807 07cd 06       		.uleb128 0x6
 1808 07ce 5C000000 		.4byte	.LASF113
 1809 07d2 0C       		.byte	0xc
 1810 07d3 8E       		.byte	0x8e
 1811 07d4 3C030000 		.4byte	0x33c
 1812 07d8 00       		.byte	0
 1813 07d9 06       		.uleb128 0x6
 1814 07da 1B000000 		.4byte	.LASF114
 1815 07de 0C       		.byte	0xc
 1816 07df 8F       		.byte	0x8f
 1817 07e0 3C030000 		.4byte	0x33c
 1818 07e4 04       		.byte	0x4
 1819 07e5 06       		.uleb128 0x6
 1820 07e6 E7010000 		.4byte	.LASF115
ARM GAS  C:\Users\danit\AppData\Local\Temp\ccE8SfmD.s 			page 33


 1821 07ea 0C       		.byte	0xc
 1822 07eb 90       		.byte	0x90
 1823 07ec 3C030000 		.4byte	0x33c
 1824 07f0 08       		.byte	0x8
 1825 07f1 06       		.uleb128 0x6
 1826 07f2 89000000 		.4byte	.LASF116
 1827 07f6 0C       		.byte	0xc
 1828 07f7 91       		.byte	0x91
 1829 07f8 3C030000 		.4byte	0x33c
 1830 07fc 0C       		.byte	0xc
 1831 07fd 07       		.uleb128 0x7
 1832 07fe 49445200 		.ascii	"IDR\000"
 1833 0802 0C       		.byte	0xc
 1834 0803 92       		.byte	0x92
 1835 0804 3C030000 		.4byte	0x33c
 1836 0808 10       		.byte	0x10
 1837 0809 07       		.uleb128 0x7
 1838 080a 4F445200 		.ascii	"ODR\000"
 1839 080e 0C       		.byte	0xc
 1840 080f 93       		.byte	0x93
 1841 0810 3C030000 		.4byte	0x33c
 1842 0814 14       		.byte	0x14
 1843 0815 06       		.uleb128 0x6
 1844 0816 0F010000 		.4byte	.LASF117
 1845 081a 0C       		.byte	0xc
 1846 081b 9A       		.byte	0x9a
 1847 081c 46080000 		.4byte	0x846
 1848 0820 18       		.byte	0x18
 1849 0821 06       		.uleb128 0x6
 1850 0822 91020000 		.4byte	.LASF118
 1851 0826 0C       		.byte	0xc
 1852 0827 9B       		.byte	0x9b
 1853 0828 3C030000 		.4byte	0x33c
 1854 082c 1C       		.byte	0x1c
 1855 082d 06       		.uleb128 0x6
 1856 082e 89030000 		.4byte	.LASF119
 1857 0832 0C       		.byte	0xc
 1858 0833 9C       		.byte	0x9c
 1859 0834 3C030000 		.4byte	0x33c
 1860 0838 20       		.byte	0x20
 1861 0839 06       		.uleb128 0x6
 1862 083a 84030000 		.4byte	.LASF120
 1863 083e 0C       		.byte	0xc
 1864 083f 9D       		.byte	0x9d
 1865 0840 3C030000 		.4byte	0x33c
 1866 0844 24       		.byte	0x24
 1867 0845 00       		.byte	0
 1868 0846 0D       		.uleb128 0xd
 1869 0847 AA070000 		.4byte	0x7aa
 1870 084b 03       		.uleb128 0x3
 1871 084c D4010000 		.4byte	.LASF121
 1872 0850 0C       		.byte	0xc
 1873 0851 9E       		.byte	0x9e
 1874 0852 C5070000 		.4byte	0x7c5
 1875 0856 03       		.uleb128 0x3
 1876 0857 4F030000 		.4byte	.LASF122
 1877 085b 0C       		.byte	0xc
ARM GAS  C:\Users\danit\AppData\Local\Temp\ccE8SfmD.s 			page 34


 1878 085c F0       		.byte	0xf0
 1879 085d C3000000 		.4byte	0xc3
 1880 0861 03       		.uleb128 0x3
 1881 0862 94050000 		.4byte	.LASF123
 1882 0866 0C       		.byte	0xc
 1883 0867 FD       		.byte	0xfd
 1884 0868 6C080000 		.4byte	0x86c
 1885 086c 09       		.uleb128 0x9
 1886 086d 04       		.byte	0x4
 1887 086e 4B080000 		.4byte	0x84b
 1888 0872 09       		.uleb128 0x9
 1889 0873 04       		.byte	0x4
 1890 0874 78080000 		.4byte	0x878
 1891 0878 10       		.uleb128 0x10
 1892 0879 5D070000 		.4byte	0x75d
 1893 087d 19       		.uleb128 0x19
 1894 087e 01       		.byte	0x1
 1895 087f 0D       		.byte	0xd
 1896 0880 55       		.byte	0x55
 1897 0881 A4080000 		.4byte	0x8a4
 1898 0885 1A       		.uleb128 0x1a
 1899 0886 C2050000 		.4byte	.LASF124
 1900 088a 00       		.sleb128 0
 1901 088b 1A       		.uleb128 0x1a
 1902 088c 1D010000 		.4byte	.LASF125
 1903 0890 01       		.sleb128 1
 1904 0891 1A       		.uleb128 0x1a
 1905 0892 79000000 		.4byte	.LASF126
 1906 0896 02       		.sleb128 2
 1907 0897 1A       		.uleb128 0x1a
 1908 0898 2C000000 		.4byte	.LASF127
 1909 089c 03       		.sleb128 3
 1910 089d 1A       		.uleb128 0x1a
 1911 089e 12050000 		.4byte	.LASF128
 1912 08a2 04       		.sleb128 4
 1913 08a3 00       		.byte	0
 1914 08a4 03       		.uleb128 0x3
 1915 08a5 44050000 		.4byte	.LASF129
 1916 08a9 0D       		.byte	0xd
 1917 08aa 5B       		.byte	0x5b
 1918 08ab 7D080000 		.4byte	0x87d
 1919 08af 15       		.uleb128 0x15
 1920 08b0 B2000000 		.4byte	.LASF130
 1921 08b4 0E       		.byte	0xe
 1922 08b5 E701     		.2byte	0x1e7
 1923 08b7 BB080000 		.4byte	0x8bb
 1924 08bb 0B       		.uleb128 0xb
 1925 08bc B2000000 		.4byte	.LASF130
 1926 08c0 30       		.byte	0x30
 1927 08c1 0E       		.byte	0xe
 1928 08c2 0B02     		.2byte	0x20b
 1929 08c4 3E090000 		.4byte	0x93e
 1930 08c8 14       		.uleb128 0x14
 1931 08c9 4D010000 		.4byte	.LASF131
 1932 08cd 0E       		.byte	0xe
 1933 08ce 0F02     		.2byte	0x20f
 1934 08d0 A4080000 		.4byte	0x8a4
ARM GAS  C:\Users\danit\AppData\Local\Temp\ccE8SfmD.s 			page 35


 1935 08d4 00       		.byte	0
 1936 08d5 14       		.uleb128 0x14
 1937 08d6 1F050000 		.4byte	.LASF132
 1938 08da 0E       		.byte	0xe
 1939 08db 1302     		.2byte	0x213
 1940 08dd AB090000 		.4byte	0x9ab
 1941 08e1 04       		.byte	0x4
 1942 08e2 14       		.uleb128 0x14
 1943 08e3 75050000 		.4byte	.LASF133
 1944 08e7 0E       		.byte	0xe
 1945 08e8 1802     		.2byte	0x218
 1946 08ea 61020000 		.4byte	0x261
 1947 08ee 08       		.byte	0x8
 1948 08ef 14       		.uleb128 0x14
 1949 08f0 FF030000 		.4byte	.LASF134
 1950 08f4 0E       		.byte	0xe
 1951 08f5 1F02     		.2byte	0x21f
 1952 08f7 84030000 		.4byte	0x384
 1953 08fb 0C       		.byte	0xc
 1954 08fc 0C       		.uleb128 0xc
 1955 08fd 73706900 		.ascii	"spi\000"
 1956 0901 0E       		.byte	0xe
 1957 0902 2B02     		.2byte	0x22b
 1958 0904 B6090000 		.4byte	0x9b6
 1959 0908 1C       		.byte	0x1c
 1960 0909 14       		.uleb128 0x14
 1961 090a 56000000 		.4byte	.LASF135
 1962 090e 0E       		.byte	0xe
 1963 090f 2F02     		.2byte	0x22f
 1964 0911 72080000 		.4byte	0x872
 1965 0915 20       		.byte	0x20
 1966 0916 14       		.uleb128 0x14
 1967 0917 E1010000 		.4byte	.LASF136
 1968 091b 0E       		.byte	0xe
 1969 091c 3302     		.2byte	0x233
 1970 091e 72080000 		.4byte	0x872
 1971 0922 24       		.byte	0x24
 1972 0923 14       		.uleb128 0x14
 1973 0924 CA010000 		.4byte	.LASF137
 1974 0928 0E       		.byte	0xe
 1975 0929 3702     		.2byte	0x237
 1976 092b C3000000 		.4byte	0xc3
 1977 092f 28       		.byte	0x28
 1978 0930 14       		.uleb128 0x14
 1979 0931 23020000 		.4byte	.LASF138
 1980 0935 0E       		.byte	0xe
 1981 0936 3B02     		.2byte	0x23b
 1982 0938 C3000000 		.4byte	0xc3
 1983 093c 2C       		.byte	0x2c
 1984 093d 00       		.byte	0
 1985 093e 15       		.uleb128 0x15
 1986 093f 15020000 		.4byte	.LASF139
 1987 0943 0E       		.byte	0xe
 1988 0944 EF01     		.2byte	0x1ef
 1989 0946 4A090000 		.4byte	0x94a
 1990 094a 09       		.uleb128 0x9
 1991 094b 04       		.byte	0x4
ARM GAS  C:\Users\danit\AppData\Local\Temp\ccE8SfmD.s 			page 36


 1992 094c 50090000 		.4byte	0x950
 1993 0950 16       		.uleb128 0x16
 1994 0951 5B090000 		.4byte	0x95b
 1995 0955 17       		.uleb128 0x17
 1996 0956 5B090000 		.4byte	0x95b
 1997 095a 00       		.byte	0
 1998 095b 09       		.uleb128 0x9
 1999 095c 04       		.byte	0x4
 2000 095d AF080000 		.4byte	0x8af
 2001 0961 13       		.uleb128 0x13
 2002 0962 0C       		.byte	0xc
 2003 0963 0E       		.byte	0xe
 2004 0964 F401     		.2byte	0x1f4
 2005 0966 9F090000 		.4byte	0x99f
 2006 096a 14       		.uleb128 0x14
 2007 096b C3010000 		.4byte	.LASF140
 2008 096f 0E       		.byte	0xe
 2009 0970 F801     		.2byte	0x1f8
 2010 0972 3E090000 		.4byte	0x93e
 2011 0976 00       		.byte	0
 2012 0977 14       		.uleb128 0x14
 2013 0978 BC000000 		.4byte	.LASF141
 2014 097c 0E       		.byte	0xe
 2015 097d FD01     		.2byte	0x1fd
 2016 097f 61080000 		.4byte	0x861
 2017 0983 04       		.byte	0x4
 2018 0984 14       		.uleb128 0x14
 2019 0985 E7000000 		.4byte	.LASF142
 2020 0989 0E       		.byte	0xe
 2021 098a 0102     		.2byte	0x201
 2022 098c AD000000 		.4byte	0xad
 2023 0990 08       		.byte	0x8
 2024 0991 0C       		.uleb128 0xc
 2025 0992 63723100 		.ascii	"cr1\000"
 2026 0996 0E       		.byte	0xe
 2027 0997 0502     		.2byte	0x205
 2028 0999 AD000000 		.4byte	0xad
 2029 099d 0A       		.byte	0xa
 2030 099e 00       		.byte	0
 2031 099f 15       		.uleb128 0x15
 2032 09a0 52070000 		.4byte	.LASF143
 2033 09a4 0E       		.byte	0xe
 2034 09a5 0602     		.2byte	0x206
 2035 09a7 61090000 		.4byte	0x961
 2036 09ab 09       		.uleb128 0x9
 2037 09ac 04       		.byte	0x4
 2038 09ad B1090000 		.4byte	0x9b1
 2039 09b1 10       		.uleb128 0x10
 2040 09b2 9F090000 		.4byte	0x99f
 2041 09b6 09       		.uleb128 0x9
 2042 09b7 04       		.byte	0x4
 2043 09b8 00070000 		.4byte	0x700
 2044 09bc 1B       		.uleb128 0x1b
 2045 09bd F0060000 		.4byte	.LASF146
 2046 09c1 01       		.byte	0x1
 2047 09c2 9F       		.byte	0x9f
 2048 09c3 00000000 		.4byte	.LFB119
ARM GAS  C:\Users\danit\AppData\Local\Temp\ccE8SfmD.s 			page 37


 2049 09c7 0C000000 		.4byte	.LFE119-.LFB119
 2050 09cb 01       		.uleb128 0x1
 2051 09cc 9C       		.byte	0x9c
 2052 09cd F9090000 		.4byte	0x9f9
 2053 09d1 1C       		.uleb128 0x1c
 2054 09d2 DE060000 		.4byte	.LASF144
 2055 09d6 01       		.byte	0x1
 2056 09d7 9F       		.byte	0x9f
 2057 09d8 5B090000 		.4byte	0x95b
 2058 09dc 00000000 		.4byte	.LLST0
 2059 09e0 1C       		.uleb128 0x1c
 2060 09e1 E3060000 		.4byte	.LASF145
 2061 09e5 01       		.byte	0x1
 2062 09e6 9F       		.byte	0x9f
 2063 09e7 C3000000 		.4byte	0xc3
 2064 09eb 21000000 		.4byte	.LLST1
 2065 09ef 1D       		.uleb128 0x1d
 2066 09f0 0C000000 		.4byte	.LVL1
 2067 09f4 710D0000 		.4byte	0xd71
 2068 09f8 00       		.byte	0
 2069 09f9 1B       		.uleb128 0x1b
 2070 09fa 5C010000 		.4byte	.LASF147
 2071 09fe 01       		.byte	0x1
 2072 09ff 85       		.byte	0x85
 2073 0a00 00000000 		.4byte	.LFB118
 2074 0a04 80000000 		.4byte	.LFE118-.LFB118
 2075 0a08 01       		.uleb128 0x1
 2076 0a09 9C       		.byte	0x9c
 2077 0a0a A10A0000 		.4byte	0xaa1
 2078 0a0e 1C       		.uleb128 0x1c
 2079 0a0f DE060000 		.4byte	.LASF144
 2080 0a13 01       		.byte	0x1
 2081 0a14 85       		.byte	0x85
 2082 0a15 5B090000 		.4byte	0x95b
 2083 0a19 42000000 		.4byte	.LLST2
 2084 0a1d 1C       		.uleb128 0x1c
 2085 0a1e E3060000 		.4byte	.LASF145
 2086 0a22 01       		.byte	0x1
 2087 0a23 85       		.byte	0x85
 2088 0a24 C3000000 		.4byte	0xc3
 2089 0a28 76000000 		.4byte	.LLST3
 2090 0a2c 1E       		.uleb128 0x1e
 2091 0a2d 56000000 		.4byte	.LBB2
 2092 0a31 06000000 		.4byte	.LBE2-.LBB2
 2093 0a35 470A0000 		.4byte	0xa47
 2094 0a39 1F       		.uleb128 0x1f
 2095 0a3a 746D7000 		.ascii	"tmp\000"
 2096 0a3e 01       		.byte	0x1
 2097 0a3f 96       		.byte	0x96
 2098 0a40 C3000000 		.4byte	0xc3
 2099 0a44 01       		.uleb128 0x1
 2100 0a45 53       		.byte	0x53
 2101 0a46 00       		.byte	0
 2102 0a47 1E       		.uleb128 0x1e
 2103 0a48 60000000 		.4byte	.LBB3
 2104 0a4c 0C000000 		.4byte	.LBE3-.LBB3
 2105 0a50 6C0A0000 		.4byte	0xa6c
ARM GAS  C:\Users\danit\AppData\Local\Temp\ccE8SfmD.s 			page 38


 2106 0a54 20       		.uleb128 0x20
 2107 0a55 747000   		.ascii	"tp\000"
 2108 0a58 01       		.byte	0x1
 2109 0a59 96       		.byte	0x96
 2110 0a5a 61020000 		.4byte	0x261
 2111 0a5e B0000000 		.4byte	.LLST4
 2112 0a62 21       		.uleb128 0x21
 2113 0a63 6C000000 		.4byte	.LVL6
 2114 0a67 790D0000 		.4byte	0xd79
 2115 0a6b 00       		.byte	0
 2116 0a6c 1E       		.uleb128 0x1e
 2117 0a6d 6C000000 		.4byte	.LBB4
 2118 0a71 08000000 		.4byte	.LBE4-.LBB4
 2119 0a75 870A0000 		.4byte	0xa87
 2120 0a79 1F       		.uleb128 0x1f
 2121 0a7a 746D7000 		.ascii	"tmp\000"
 2122 0a7e 01       		.byte	0x1
 2123 0a7f 96       		.byte	0x96
 2124 0a80 C3000000 		.4byte	0xc3
 2125 0a84 01       		.uleb128 0x1
 2126 0a85 53       		.byte	0x53
 2127 0a86 00       		.byte	0
 2128 0a87 22       		.uleb128 0x22
 2129 0a88 50000000 		.4byte	.LVL4
 2130 0a8c 970A0000 		.4byte	0xa97
 2131 0a90 23       		.uleb128 0x23
 2132 0a91 01       		.uleb128 0x1
 2133 0a92 50       		.byte	0x50
 2134 0a93 02       		.uleb128 0x2
 2135 0a94 74       		.byte	0x74
 2136 0a95 00       		.sleb128 0
 2137 0a96 00       		.byte	0
 2138 0a97 21       		.uleb128 0x21
 2139 0a98 7E000000 		.4byte	.LVL9
 2140 0a9c 710D0000 		.4byte	0xd71
 2141 0aa0 00       		.byte	0
 2142 0aa1 24       		.uleb128 0x24
 2143 0aa2 03030000 		.4byte	.LASF148
 2144 0aa6 01       		.byte	0x1
 2145 0aa7 BA       		.byte	0xba
 2146 0aa8 00000000 		.4byte	.LFB120
 2147 0aac 44000000 		.4byte	.LFE120-.LFB120
 2148 0ab0 01       		.uleb128 0x1
 2149 0ab1 9C       		.byte	0x9c
 2150 0ab2 C70A0000 		.4byte	0xac7
 2151 0ab6 25       		.uleb128 0x25
 2152 0ab7 12000000 		.4byte	.LVL10
 2153 0abb 8E0D0000 		.4byte	0xd8e
 2154 0abf 23       		.uleb128 0x23
 2155 0ac0 01       		.uleb128 0x1
 2156 0ac1 50       		.byte	0x50
 2157 0ac2 02       		.uleb128 0x2
 2158 0ac3 74       		.byte	0x74
 2159 0ac4 00       		.sleb128 0
 2160 0ac5 00       		.byte	0
 2161 0ac6 00       		.byte	0
 2162 0ac7 26       		.uleb128 0x26
ARM GAS  C:\Users\danit\AppData\Local\Temp\ccE8SfmD.s 			page 39


 2163 0ac8 C8060000 		.4byte	.LASF149
 2164 0acc 01       		.byte	0x1
 2165 0acd 3201     		.2byte	0x132
 2166 0acf 00000000 		.4byte	.LFB121
 2167 0ad3 98000000 		.4byte	.LFE121-.LFB121
 2168 0ad7 01       		.uleb128 0x1
 2169 0ad8 9C       		.byte	0x9c
 2170 0ad9 420B0000 		.4byte	0xb42
 2171 0add 27       		.uleb128 0x27
 2172 0ade DE060000 		.4byte	.LASF144
 2173 0ae2 01       		.byte	0x1
 2174 0ae3 3201     		.2byte	0x132
 2175 0ae5 5B090000 		.4byte	0x95b
 2176 0ae9 C3000000 		.4byte	.LLST5
 2177 0aed 28       		.uleb128 0x28
 2178 0aee 62000000 		.4byte	.LBB5
 2179 0af2 36000000 		.4byte	.LBE5-.LBB5
 2180 0af6 29       		.uleb128 0x29
 2181 0af7 6200     		.ascii	"b\000"
 2182 0af9 01       		.byte	0x1
 2183 0afa 4801     		.2byte	0x148
 2184 0afc CE000000 		.4byte	0xce
 2185 0b00 2A       		.uleb128 0x2a
 2186 0b01 6E000000 		.4byte	.LVL17
 2187 0b05 A00D0000 		.4byte	0xda0
 2188 0b09 220B0000 		.4byte	0xb22
 2189 0b0d 23       		.uleb128 0x23
 2190 0b0e 01       		.uleb128 0x1
 2191 0b0f 53       		.byte	0x53
 2192 0b10 02       		.uleb128 0x2
 2193 0b11 74       		.byte	0x74
 2194 0b12 00       		.sleb128 0
 2195 0b13 23       		.uleb128 0x23
 2196 0b14 01       		.uleb128 0x1
 2197 0b15 52       		.byte	0x52
 2198 0b16 05       		.uleb128 0x5
 2199 0b17 03       		.byte	0x3
 2200 0b18 00000000 		.4byte	spi_lld_serve_rx_interrupt
 2201 0b1c 23       		.uleb128 0x23
 2202 0b1d 01       		.uleb128 0x1
 2203 0b1e 51       		.byte	0x51
 2204 0b1f 01       		.uleb128 0x1
 2205 0b20 3A       		.byte	0x3a
 2206 0b21 00       		.byte	0
 2207 0b22 25       		.uleb128 0x25
 2208 0b23 7A000000 		.4byte	.LVL18
 2209 0b27 A00D0000 		.4byte	0xda0
 2210 0b2b 23       		.uleb128 0x23
 2211 0b2c 01       		.uleb128 0x1
 2212 0b2d 53       		.byte	0x53
 2213 0b2e 02       		.uleb128 0x2
 2214 0b2f 74       		.byte	0x74
 2215 0b30 00       		.sleb128 0
 2216 0b31 23       		.uleb128 0x23
 2217 0b32 01       		.uleb128 0x1
 2218 0b33 52       		.byte	0x52
 2219 0b34 05       		.uleb128 0x5
ARM GAS  C:\Users\danit\AppData\Local\Temp\ccE8SfmD.s 			page 40


 2220 0b35 03       		.byte	0x3
 2221 0b36 00000000 		.4byte	spi_lld_serve_tx_interrupt
 2222 0b3a 23       		.uleb128 0x23
 2223 0b3b 01       		.uleb128 0x1
 2224 0b3c 51       		.byte	0x51
 2225 0b3d 01       		.uleb128 0x1
 2226 0b3e 3A       		.byte	0x3a
 2227 0b3f 00       		.byte	0
 2228 0b40 00       		.byte	0
 2229 0b41 00       		.byte	0
 2230 0b42 26       		.uleb128 0x26
 2231 0b43 42030000 		.4byte	.LASF150
 2232 0b47 01       		.byte	0x1
 2233 0b48 BA01     		.2byte	0x1ba
 2234 0b4a 00000000 		.4byte	.LFB122
 2235 0b4e 3C000000 		.4byte	.LFE122-.LFB122
 2236 0b52 01       		.uleb128 0x1
 2237 0b53 9C       		.byte	0x9c
 2238 0b54 7B0B0000 		.4byte	0xb7b
 2239 0b58 27       		.uleb128 0x27
 2240 0b59 DE060000 		.4byte	.LASF144
 2241 0b5d 01       		.byte	0x1
 2242 0b5e BA01     		.2byte	0x1ba
 2243 0b60 5B090000 		.4byte	0x95b
 2244 0b64 0D010000 		.4byte	.LLST6
 2245 0b68 21       		.uleb128 0x21
 2246 0b69 1A000000 		.4byte	.LVL21
 2247 0b6d C50D0000 		.4byte	0xdc5
 2248 0b71 21       		.uleb128 0x21
 2249 0b72 20000000 		.4byte	.LVL22
 2250 0b76 C50D0000 		.4byte	0xdc5
 2251 0b7a 00       		.byte	0
 2252 0b7b 26       		.uleb128 0x26
 2253 0b7c A7050000 		.4byte	.LASF151
 2254 0b80 01       		.byte	0x1
 2255 0b81 E701     		.2byte	0x1e7
 2256 0b83 00000000 		.4byte	.LFB123
 2257 0b87 10000000 		.4byte	.LFE123-.LFB123
 2258 0b8b 01       		.uleb128 0x1
 2259 0b8c 9C       		.byte	0x9c
 2260 0b8d A00B0000 		.4byte	0xba0
 2261 0b91 2B       		.uleb128 0x2b
 2262 0b92 DE060000 		.4byte	.LASF144
 2263 0b96 01       		.byte	0x1
 2264 0b97 E701     		.2byte	0x1e7
 2265 0b99 5B090000 		.4byte	0x95b
 2266 0b9d 01       		.uleb128 0x1
 2267 0b9e 50       		.byte	0x50
 2268 0b9f 00       		.byte	0
 2269 0ba0 26       		.uleb128 0x26
 2270 0ba1 47020000 		.4byte	.LASF152
 2271 0ba5 01       		.byte	0x1
 2272 0ba6 F401     		.2byte	0x1f4
 2273 0ba8 00000000 		.4byte	.LFB124
 2274 0bac 10000000 		.4byte	.LFE124-.LFB124
 2275 0bb0 01       		.uleb128 0x1
 2276 0bb1 9C       		.byte	0x9c
ARM GAS  C:\Users\danit\AppData\Local\Temp\ccE8SfmD.s 			page 41


 2277 0bb2 C50B0000 		.4byte	0xbc5
 2278 0bb6 2B       		.uleb128 0x2b
 2279 0bb7 DE060000 		.4byte	.LASF144
 2280 0bbb 01       		.byte	0x1
 2281 0bbc F401     		.2byte	0x1f4
 2282 0bbe 5B090000 		.4byte	0x95b
 2283 0bc2 01       		.uleb128 0x1
 2284 0bc3 50       		.byte	0x50
 2285 0bc4 00       		.byte	0
 2286 0bc5 26       		.uleb128 0x26
 2287 0bc6 D3050000 		.4byte	.LASF153
 2288 0bca 01       		.byte	0x1
 2289 0bcb 0402     		.2byte	0x204
 2290 0bcd 00000000 		.4byte	.LFB125
 2291 0bd1 3C000000 		.4byte	.LFE125-.LFB125
 2292 0bd5 01       		.uleb128 0x1
 2293 0bd6 9C       		.byte	0x9c
 2294 0bd7 FA0B0000 		.4byte	0xbfa
 2295 0bdb 27       		.uleb128 0x27
 2296 0bdc DE060000 		.4byte	.LASF144
 2297 0be0 01       		.byte	0x1
 2298 0be1 0402     		.2byte	0x204
 2299 0be3 5B090000 		.4byte	0x95b
 2300 0be7 2B010000 		.4byte	.LLST7
 2301 0beb 2C       		.uleb128 0x2c
 2302 0bec 6E00     		.ascii	"n\000"
 2303 0bee 01       		.byte	0x1
 2304 0bef 0402     		.2byte	0x204
 2305 0bf1 2C000000 		.4byte	0x2c
 2306 0bf5 4C010000 		.4byte	.LLST8
 2307 0bf9 00       		.byte	0
 2308 0bfa 26       		.uleb128 0x26
 2309 0bfb 93010000 		.4byte	.LASF154
 2310 0bff 01       		.byte	0x1
 2311 0c00 2102     		.2byte	0x221
 2312 0c02 00000000 		.4byte	.LFB126
 2313 0c06 36000000 		.4byte	.LFE126-.LFB126
 2314 0c0a 01       		.uleb128 0x1
 2315 0c0b 9C       		.byte	0x9c
 2316 0c0c 4B0C0000 		.4byte	0xc4b
 2317 0c10 27       		.uleb128 0x27
 2318 0c11 DE060000 		.4byte	.LASF144
 2319 0c15 01       		.byte	0x1
 2320 0c16 2102     		.2byte	0x221
 2321 0c18 5B090000 		.4byte	0x95b
 2322 0c1c 6D010000 		.4byte	.LLST9
 2323 0c20 2D       		.uleb128 0x2d
 2324 0c21 6E00     		.ascii	"n\000"
 2325 0c23 01       		.byte	0x1
 2326 0c24 2102     		.2byte	0x221
 2327 0c26 2C000000 		.4byte	0x2c
 2328 0c2a 01       		.uleb128 0x1
 2329 0c2b 51       		.byte	0x51
 2330 0c2c 2B       		.uleb128 0x2b
 2331 0c2d 58020000 		.4byte	.LASF155
 2332 0c31 01       		.byte	0x1
 2333 0c32 2202     		.2byte	0x222
ARM GAS  C:\Users\danit\AppData\Local\Temp\ccE8SfmD.s 			page 42


 2334 0c34 4B0C0000 		.4byte	0xc4b
 2335 0c38 01       		.uleb128 0x1
 2336 0c39 52       		.byte	0x52
 2337 0c3a 27       		.uleb128 0x27
 2338 0c3b D0000000 		.4byte	.LASF156
 2339 0c3f 01       		.byte	0x1
 2340 0c40 2202     		.2byte	0x222
 2341 0c42 9D020000 		.4byte	0x29d
 2342 0c46 8E010000 		.4byte	.LLST10
 2343 0c4a 00       		.byte	0
 2344 0c4b 09       		.uleb128 0x9
 2345 0c4c 04       		.byte	0x4
 2346 0c4d 510C0000 		.4byte	0xc51
 2347 0c51 2E       		.uleb128 0x2e
 2348 0c52 26       		.uleb128 0x26
 2349 0c53 2D020000 		.4byte	.LASF157
 2350 0c57 01       		.byte	0x1
 2351 0c58 3D02     		.2byte	0x23d
 2352 0c5a 00000000 		.4byte	.LFB127
 2353 0c5e 38000000 		.4byte	.LFE127-.LFB127
 2354 0c62 01       		.uleb128 0x1
 2355 0c63 9C       		.byte	0x9c
 2356 0c64 950C0000 		.4byte	0xc95
 2357 0c68 27       		.uleb128 0x27
 2358 0c69 DE060000 		.4byte	.LASF144
 2359 0c6d 01       		.byte	0x1
 2360 0c6e 3D02     		.2byte	0x23d
 2361 0c70 5B090000 		.4byte	0x95b
 2362 0c74 AF010000 		.4byte	.LLST11
 2363 0c78 2D       		.uleb128 0x2d
 2364 0c79 6E00     		.ascii	"n\000"
 2365 0c7b 01       		.byte	0x1
 2366 0c7c 3D02     		.2byte	0x23d
 2367 0c7e 2C000000 		.4byte	0x2c
 2368 0c82 01       		.uleb128 0x1
 2369 0c83 51       		.byte	0x51
 2370 0c84 27       		.uleb128 0x27
 2371 0c85 58020000 		.4byte	.LASF155
 2372 0c89 01       		.byte	0x1
 2373 0c8a 3D02     		.2byte	0x23d
 2374 0c8c 4B0C0000 		.4byte	0xc4b
 2375 0c90 D0010000 		.4byte	.LLST12
 2376 0c94 00       		.byte	0
 2377 0c95 26       		.uleb128 0x26
 2378 0c96 10030000 		.4byte	.LASF158
 2379 0c9a 01       		.byte	0x1
 2380 0c9b 5802     		.2byte	0x258
 2381 0c9d 00000000 		.4byte	.LFB128
 2382 0ca1 38000000 		.4byte	.LFE128-.LFB128
 2383 0ca5 01       		.uleb128 0x1
 2384 0ca6 9C       		.byte	0x9c
 2385 0ca7 D80C0000 		.4byte	0xcd8
 2386 0cab 27       		.uleb128 0x27
 2387 0cac DE060000 		.4byte	.LASF144
 2388 0cb0 01       		.byte	0x1
 2389 0cb1 5802     		.2byte	0x258
 2390 0cb3 5B090000 		.4byte	0x95b
ARM GAS  C:\Users\danit\AppData\Local\Temp\ccE8SfmD.s 			page 43


 2391 0cb7 F1010000 		.4byte	.LLST13
 2392 0cbb 2D       		.uleb128 0x2d
 2393 0cbc 6E00     		.ascii	"n\000"
 2394 0cbe 01       		.byte	0x1
 2395 0cbf 5802     		.2byte	0x258
 2396 0cc1 2C000000 		.4byte	0x2c
 2397 0cc5 01       		.uleb128 0x1
 2398 0cc6 51       		.byte	0x51
 2399 0cc7 27       		.uleb128 0x27
 2400 0cc8 D0000000 		.4byte	.LASF156
 2401 0ccc 01       		.byte	0x1
 2402 0ccd 5802     		.2byte	0x258
 2403 0ccf 9D020000 		.4byte	0x29d
 2404 0cd3 12020000 		.4byte	.LLST14
 2405 0cd7 00       		.byte	0
 2406 0cd8 2F       		.uleb128 0x2f
 2407 0cd9 37000000 		.4byte	.LASF170
 2408 0cdd 01       		.byte	0x1
 2409 0cde 7202     		.2byte	0x272
 2410 0ce0 AD000000 		.4byte	0xad
 2411 0ce4 00000000 		.4byte	.LFB129
 2412 0ce8 10000000 		.4byte	.LFE129-.LFB129
 2413 0cec 01       		.uleb128 0x1
 2414 0ced 9C       		.byte	0x9c
 2415 0cee 110D0000 		.4byte	0xd11
 2416 0cf2 27       		.uleb128 0x27
 2417 0cf3 DE060000 		.4byte	.LASF144
 2418 0cf7 01       		.byte	0x1
 2419 0cf8 7202     		.2byte	0x272
 2420 0cfa 5B090000 		.4byte	0x95b
 2421 0cfe 33020000 		.4byte	.LLST15
 2422 0d02 2B       		.uleb128 0x2b
 2423 0d03 47010000 		.4byte	.LASF159
 2424 0d07 01       		.byte	0x1
 2425 0d08 7202     		.2byte	0x272
 2426 0d0a AD000000 		.4byte	0xad
 2427 0d0e 01       		.uleb128 0x1
 2428 0d0f 51       		.byte	0x51
 2429 0d10 00       		.byte	0
 2430 0d11 30       		.uleb128 0x30
 2431 0d12 3A040000 		.4byte	.LASF160
 2432 0d16 01       		.byte	0x1
 2433 0d17 78       		.byte	0x78
 2434 0d18 AD000000 		.4byte	0xad
 2435 0d1c 05       		.uleb128 0x5
 2436 0d1d 03       		.byte	0x3
 2437 0d1e 00000000 		.4byte	dummytx
 2438 0d22 30       		.uleb128 0x30
 2439 0d23 D1020000 		.4byte	.LASF161
 2440 0d27 01       		.byte	0x1
 2441 0d28 79       		.byte	0x79
 2442 0d29 AD000000 		.4byte	0xad
 2443 0d2d 05       		.uleb128 0x5
 2444 0d2e 03       		.byte	0x3
 2445 0d2f 00000000 		.4byte	dummyrx
 2446 0d33 31       		.uleb128 0x31
 2447 0d34 C3000000 		.4byte	.LASF162
ARM GAS  C:\Users\danit\AppData\Local\Temp\ccE8SfmD.s 			page 44


 2448 0d38 0F       		.byte	0xf
 2449 0d39 9806     		.2byte	0x698
 2450 0d3b F1030000 		.4byte	0x3f1
 2451 0d3f 11       		.uleb128 0x11
 2452 0d40 5D070000 		.4byte	0x75d
 2453 0d44 4F0D0000 		.4byte	0xd4f
 2454 0d48 12       		.uleb128 0x12
 2455 0d49 41030000 		.4byte	0x341
 2456 0d4d 0F       		.byte	0xf
 2457 0d4e 00       		.byte	0
 2458 0d4f 31       		.uleb128 0x31
 2459 0d50 9F000000 		.4byte	.LASF163
 2460 0d54 0B       		.byte	0xb
 2461 0d55 BB01     		.2byte	0x1bb
 2462 0d57 5B0D0000 		.4byte	0xd5b
 2463 0d5b 10       		.uleb128 0x10
 2464 0d5c 3F0D0000 		.4byte	0xd3f
 2465 0d60 32       		.uleb128 0x32
 2466 0d61 34040000 		.4byte	.LASF164
 2467 0d65 01       		.byte	0x1
 2468 0d66 5D       		.byte	0x5d
 2469 0d67 AF080000 		.4byte	0x8af
 2470 0d6b 05       		.uleb128 0x5
 2471 0d6c 03       		.byte	0x3
 2472 0d6d 00000000 		.4byte	SPID2
 2473 0d71 33       		.uleb128 0x33
 2474 0d72 26050000 		.4byte	.LASF171
 2475 0d76 08       		.byte	0x8
 2476 0d77 0102     		.2byte	0x201
 2477 0d79 34       		.uleb128 0x34
 2478 0d7a CA040000 		.4byte	.LASF165
 2479 0d7e 10       		.byte	0x10
 2480 0d7f 90       		.byte	0x90
 2481 0d80 61020000 		.4byte	0x261
 2482 0d84 8E0D0000 		.4byte	0xd8e
 2483 0d88 17       		.uleb128 0x17
 2484 0d89 61020000 		.4byte	0x261
 2485 0d8d 00       		.byte	0
 2486 0d8e 35       		.uleb128 0x35
 2487 0d8f 72040000 		.4byte	.LASF172
 2488 0d93 0D       		.byte	0xd
 2489 0d94 2F01     		.2byte	0x12f
 2490 0d96 A00D0000 		.4byte	0xda0
 2491 0d9a 17       		.uleb128 0x17
 2492 0d9b 5B090000 		.4byte	0x95b
 2493 0d9f 00       		.byte	0
 2494 0da0 36       		.uleb128 0x36
 2495 0da1 9D070000 		.4byte	.LASF166
 2496 0da5 0B       		.byte	0xb
 2497 0da6 C201     		.2byte	0x1c2
 2498 0da8 CE000000 		.4byte	0xce
 2499 0dac C50D0000 		.4byte	0xdc5
 2500 0db0 17       		.uleb128 0x17
 2501 0db1 72080000 		.4byte	0x872
 2502 0db5 17       		.uleb128 0x17
 2503 0db6 C3000000 		.4byte	0xc3
 2504 0dba 17       		.uleb128 0x17
ARM GAS  C:\Users\danit\AppData\Local\Temp\ccE8SfmD.s 			page 45


 2505 0dbb 68070000 		.4byte	0x768
 2506 0dbf 17       		.uleb128 0x17
 2507 0dc0 9D020000 		.4byte	0x29d
 2508 0dc4 00       		.byte	0
 2509 0dc5 37       		.uleb128 0x37
 2510 0dc6 01050000 		.4byte	.LASF173
 2511 0dca 0B       		.byte	0xb
 2512 0dcb C601     		.2byte	0x1c6
 2513 0dcd 17       		.uleb128 0x17
 2514 0dce 72080000 		.4byte	0x872
 2515 0dd2 00       		.byte	0
 2516 0dd3 00       		.byte	0
 2517              		.section	.debug_abbrev,"",%progbits
 2518              	.Ldebug_abbrev0:
 2519 0000 01       		.uleb128 0x1
 2520 0001 11       		.uleb128 0x11
 2521 0002 01       		.byte	0x1
 2522 0003 25       		.uleb128 0x25
 2523 0004 0E       		.uleb128 0xe
 2524 0005 13       		.uleb128 0x13
 2525 0006 0B       		.uleb128 0xb
 2526 0007 03       		.uleb128 0x3
 2527 0008 0E       		.uleb128 0xe
 2528 0009 1B       		.uleb128 0x1b
 2529 000a 0E       		.uleb128 0xe
 2530 000b 55       		.uleb128 0x55
 2531 000c 17       		.uleb128 0x17
 2532 000d 11       		.uleb128 0x11
 2533 000e 01       		.uleb128 0x1
 2534 000f 10       		.uleb128 0x10
 2535 0010 17       		.uleb128 0x17
 2536 0011 00       		.byte	0
 2537 0012 00       		.byte	0
 2538 0013 02       		.uleb128 0x2
 2539 0014 24       		.uleb128 0x24
 2540 0015 00       		.byte	0
 2541 0016 0B       		.uleb128 0xb
 2542 0017 0B       		.uleb128 0xb
 2543 0018 3E       		.uleb128 0x3e
 2544 0019 0B       		.uleb128 0xb
 2545 001a 03       		.uleb128 0x3
 2546 001b 08       		.uleb128 0x8
 2547 001c 00       		.byte	0
 2548 001d 00       		.byte	0
 2549 001e 03       		.uleb128 0x3
 2550 001f 16       		.uleb128 0x16
 2551 0020 00       		.byte	0
 2552 0021 03       		.uleb128 0x3
 2553 0022 0E       		.uleb128 0xe
 2554 0023 3A       		.uleb128 0x3a
 2555 0024 0B       		.uleb128 0xb
 2556 0025 3B       		.uleb128 0x3b
 2557 0026 0B       		.uleb128 0xb
 2558 0027 49       		.uleb128 0x49
 2559 0028 13       		.uleb128 0x13
 2560 0029 00       		.byte	0
 2561 002a 00       		.byte	0
ARM GAS  C:\Users\danit\AppData\Local\Temp\ccE8SfmD.s 			page 46


 2562 002b 04       		.uleb128 0x4
 2563 002c 24       		.uleb128 0x24
 2564 002d 00       		.byte	0
 2565 002e 0B       		.uleb128 0xb
 2566 002f 0B       		.uleb128 0xb
 2567 0030 3E       		.uleb128 0x3e
 2568 0031 0B       		.uleb128 0xb
 2569 0032 03       		.uleb128 0x3
 2570 0033 0E       		.uleb128 0xe
 2571 0034 00       		.byte	0
 2572 0035 00       		.byte	0
 2573 0036 05       		.uleb128 0x5
 2574 0037 13       		.uleb128 0x13
 2575 0038 01       		.byte	0x1
 2576 0039 03       		.uleb128 0x3
 2577 003a 0E       		.uleb128 0xe
 2578 003b 0B       		.uleb128 0xb
 2579 003c 0B       		.uleb128 0xb
 2580 003d 3A       		.uleb128 0x3a
 2581 003e 0B       		.uleb128 0xb
 2582 003f 3B       		.uleb128 0x3b
 2583 0040 0B       		.uleb128 0xb
 2584 0041 01       		.uleb128 0x1
 2585 0042 13       		.uleb128 0x13
 2586 0043 00       		.byte	0
 2587 0044 00       		.byte	0
 2588 0045 06       		.uleb128 0x6
 2589 0046 0D       		.uleb128 0xd
 2590 0047 00       		.byte	0
 2591 0048 03       		.uleb128 0x3
 2592 0049 0E       		.uleb128 0xe
 2593 004a 3A       		.uleb128 0x3a
 2594 004b 0B       		.uleb128 0xb
 2595 004c 3B       		.uleb128 0x3b
 2596 004d 0B       		.uleb128 0xb
 2597 004e 49       		.uleb128 0x49
 2598 004f 13       		.uleb128 0x13
 2599 0050 38       		.uleb128 0x38
 2600 0051 0B       		.uleb128 0xb
 2601 0052 00       		.byte	0
 2602 0053 00       		.byte	0
 2603 0054 07       		.uleb128 0x7
 2604 0055 0D       		.uleb128 0xd
 2605 0056 00       		.byte	0
 2606 0057 03       		.uleb128 0x3
 2607 0058 08       		.uleb128 0x8
 2608 0059 3A       		.uleb128 0x3a
 2609 005a 0B       		.uleb128 0xb
 2610 005b 3B       		.uleb128 0x3b
 2611 005c 0B       		.uleb128 0xb
 2612 005d 49       		.uleb128 0x49
 2613 005e 13       		.uleb128 0x13
 2614 005f 38       		.uleb128 0x38
 2615 0060 0B       		.uleb128 0xb
 2616 0061 00       		.byte	0
 2617 0062 00       		.byte	0
 2618 0063 08       		.uleb128 0x8
ARM GAS  C:\Users\danit\AppData\Local\Temp\ccE8SfmD.s 			page 47


 2619 0064 13       		.uleb128 0x13
 2620 0065 01       		.byte	0x1
 2621 0066 0B       		.uleb128 0xb
 2622 0067 0B       		.uleb128 0xb
 2623 0068 3A       		.uleb128 0x3a
 2624 0069 0B       		.uleb128 0xb
 2625 006a 3B       		.uleb128 0x3b
 2626 006b 0B       		.uleb128 0xb
 2627 006c 01       		.uleb128 0x1
 2628 006d 13       		.uleb128 0x13
 2629 006e 00       		.byte	0
 2630 006f 00       		.byte	0
 2631 0070 09       		.uleb128 0x9
 2632 0071 0F       		.uleb128 0xf
 2633 0072 00       		.byte	0
 2634 0073 0B       		.uleb128 0xb
 2635 0074 0B       		.uleb128 0xb
 2636 0075 49       		.uleb128 0x49
 2637 0076 13       		.uleb128 0x13
 2638 0077 00       		.byte	0
 2639 0078 00       		.byte	0
 2640 0079 0A       		.uleb128 0xa
 2641 007a 0F       		.uleb128 0xf
 2642 007b 00       		.byte	0
 2643 007c 0B       		.uleb128 0xb
 2644 007d 0B       		.uleb128 0xb
 2645 007e 00       		.byte	0
 2646 007f 00       		.byte	0
 2647 0080 0B       		.uleb128 0xb
 2648 0081 13       		.uleb128 0x13
 2649 0082 01       		.byte	0x1
 2650 0083 03       		.uleb128 0x3
 2651 0084 0E       		.uleb128 0xe
 2652 0085 0B       		.uleb128 0xb
 2653 0086 0B       		.uleb128 0xb
 2654 0087 3A       		.uleb128 0x3a
 2655 0088 0B       		.uleb128 0xb
 2656 0089 3B       		.uleb128 0x3b
 2657 008a 05       		.uleb128 0x5
 2658 008b 01       		.uleb128 0x1
 2659 008c 13       		.uleb128 0x13
 2660 008d 00       		.byte	0
 2661 008e 00       		.byte	0
 2662 008f 0C       		.uleb128 0xc
 2663 0090 0D       		.uleb128 0xd
 2664 0091 00       		.byte	0
 2665 0092 03       		.uleb128 0x3
 2666 0093 08       		.uleb128 0x8
 2667 0094 3A       		.uleb128 0x3a
 2668 0095 0B       		.uleb128 0xb
 2669 0096 3B       		.uleb128 0x3b
 2670 0097 05       		.uleb128 0x5
 2671 0098 49       		.uleb128 0x49
 2672 0099 13       		.uleb128 0x13
 2673 009a 38       		.uleb128 0x38
 2674 009b 0B       		.uleb128 0xb
 2675 009c 00       		.byte	0
ARM GAS  C:\Users\danit\AppData\Local\Temp\ccE8SfmD.s 			page 48


 2676 009d 00       		.byte	0
 2677 009e 0D       		.uleb128 0xd
 2678 009f 35       		.uleb128 0x35
 2679 00a0 00       		.byte	0
 2680 00a1 49       		.uleb128 0x49
 2681 00a2 13       		.uleb128 0x13
 2682 00a3 00       		.byte	0
 2683 00a4 00       		.byte	0
 2684 00a5 0E       		.uleb128 0xe
 2685 00a6 17       		.uleb128 0x17
 2686 00a7 01       		.byte	0x1
 2687 00a8 0B       		.uleb128 0xb
 2688 00a9 0B       		.uleb128 0xb
 2689 00aa 3A       		.uleb128 0x3a
 2690 00ab 0B       		.uleb128 0xb
 2691 00ac 3B       		.uleb128 0x3b
 2692 00ad 0B       		.uleb128 0xb
 2693 00ae 01       		.uleb128 0x1
 2694 00af 13       		.uleb128 0x13
 2695 00b0 00       		.byte	0
 2696 00b1 00       		.byte	0
 2697 00b2 0F       		.uleb128 0xf
 2698 00b3 0D       		.uleb128 0xd
 2699 00b4 00       		.byte	0
 2700 00b5 03       		.uleb128 0x3
 2701 00b6 0E       		.uleb128 0xe
 2702 00b7 3A       		.uleb128 0x3a
 2703 00b8 0B       		.uleb128 0xb
 2704 00b9 3B       		.uleb128 0x3b
 2705 00ba 0B       		.uleb128 0xb
 2706 00bb 49       		.uleb128 0x49
 2707 00bc 13       		.uleb128 0x13
 2708 00bd 00       		.byte	0
 2709 00be 00       		.byte	0
 2710 00bf 10       		.uleb128 0x10
 2711 00c0 26       		.uleb128 0x26
 2712 00c1 00       		.byte	0
 2713 00c2 49       		.uleb128 0x49
 2714 00c3 13       		.uleb128 0x13
 2715 00c4 00       		.byte	0
 2716 00c5 00       		.byte	0
 2717 00c6 11       		.uleb128 0x11
 2718 00c7 01       		.uleb128 0x1
 2719 00c8 01       		.byte	0x1
 2720 00c9 49       		.uleb128 0x49
 2721 00ca 13       		.uleb128 0x13
 2722 00cb 01       		.uleb128 0x1
 2723 00cc 13       		.uleb128 0x13
 2724 00cd 00       		.byte	0
 2725 00ce 00       		.byte	0
 2726 00cf 12       		.uleb128 0x12
 2727 00d0 21       		.uleb128 0x21
 2728 00d1 00       		.byte	0
 2729 00d2 49       		.uleb128 0x49
 2730 00d3 13       		.uleb128 0x13
 2731 00d4 2F       		.uleb128 0x2f
 2732 00d5 0B       		.uleb128 0xb
ARM GAS  C:\Users\danit\AppData\Local\Temp\ccE8SfmD.s 			page 49


 2733 00d6 00       		.byte	0
 2734 00d7 00       		.byte	0
 2735 00d8 13       		.uleb128 0x13
 2736 00d9 13       		.uleb128 0x13
 2737 00da 01       		.byte	0x1
 2738 00db 0B       		.uleb128 0xb
 2739 00dc 0B       		.uleb128 0xb
 2740 00dd 3A       		.uleb128 0x3a
 2741 00de 0B       		.uleb128 0xb
 2742 00df 3B       		.uleb128 0x3b
 2743 00e0 05       		.uleb128 0x5
 2744 00e1 01       		.uleb128 0x1
 2745 00e2 13       		.uleb128 0x13
 2746 00e3 00       		.byte	0
 2747 00e4 00       		.byte	0
 2748 00e5 14       		.uleb128 0x14
 2749 00e6 0D       		.uleb128 0xd
 2750 00e7 00       		.byte	0
 2751 00e8 03       		.uleb128 0x3
 2752 00e9 0E       		.uleb128 0xe
 2753 00ea 3A       		.uleb128 0x3a
 2754 00eb 0B       		.uleb128 0xb
 2755 00ec 3B       		.uleb128 0x3b
 2756 00ed 05       		.uleb128 0x5
 2757 00ee 49       		.uleb128 0x49
 2758 00ef 13       		.uleb128 0x13
 2759 00f0 38       		.uleb128 0x38
 2760 00f1 0B       		.uleb128 0xb
 2761 00f2 00       		.byte	0
 2762 00f3 00       		.byte	0
 2763 00f4 15       		.uleb128 0x15
 2764 00f5 16       		.uleb128 0x16
 2765 00f6 00       		.byte	0
 2766 00f7 03       		.uleb128 0x3
 2767 00f8 0E       		.uleb128 0xe
 2768 00f9 3A       		.uleb128 0x3a
 2769 00fa 0B       		.uleb128 0xb
 2770 00fb 3B       		.uleb128 0x3b
 2771 00fc 05       		.uleb128 0x5
 2772 00fd 49       		.uleb128 0x49
 2773 00fe 13       		.uleb128 0x13
 2774 00ff 00       		.byte	0
 2775 0100 00       		.byte	0
 2776 0101 16       		.uleb128 0x16
 2777 0102 15       		.uleb128 0x15
 2778 0103 01       		.byte	0x1
 2779 0104 27       		.uleb128 0x27
 2780 0105 19       		.uleb128 0x19
 2781 0106 01       		.uleb128 0x1
 2782 0107 13       		.uleb128 0x13
 2783 0108 00       		.byte	0
 2784 0109 00       		.byte	0
 2785 010a 17       		.uleb128 0x17
 2786 010b 05       		.uleb128 0x5
 2787 010c 00       		.byte	0
 2788 010d 49       		.uleb128 0x49
 2789 010e 13       		.uleb128 0x13
ARM GAS  C:\Users\danit\AppData\Local\Temp\ccE8SfmD.s 			page 50


 2790 010f 00       		.byte	0
 2791 0110 00       		.byte	0
 2792 0111 18       		.uleb128 0x18
 2793 0112 0D       		.uleb128 0xd
 2794 0113 00       		.byte	0
 2795 0114 03       		.uleb128 0x3
 2796 0115 08       		.uleb128 0x8
 2797 0116 3A       		.uleb128 0x3a
 2798 0117 0B       		.uleb128 0xb
 2799 0118 3B       		.uleb128 0x3b
 2800 0119 0B       		.uleb128 0xb
 2801 011a 49       		.uleb128 0x49
 2802 011b 13       		.uleb128 0x13
 2803 011c 00       		.byte	0
 2804 011d 00       		.byte	0
 2805 011e 19       		.uleb128 0x19
 2806 011f 04       		.uleb128 0x4
 2807 0120 01       		.byte	0x1
 2808 0121 0B       		.uleb128 0xb
 2809 0122 0B       		.uleb128 0xb
 2810 0123 3A       		.uleb128 0x3a
 2811 0124 0B       		.uleb128 0xb
 2812 0125 3B       		.uleb128 0x3b
 2813 0126 0B       		.uleb128 0xb
 2814 0127 01       		.uleb128 0x1
 2815 0128 13       		.uleb128 0x13
 2816 0129 00       		.byte	0
 2817 012a 00       		.byte	0
 2818 012b 1A       		.uleb128 0x1a
 2819 012c 28       		.uleb128 0x28
 2820 012d 00       		.byte	0
 2821 012e 03       		.uleb128 0x3
 2822 012f 0E       		.uleb128 0xe
 2823 0130 1C       		.uleb128 0x1c
 2824 0131 0D       		.uleb128 0xd
 2825 0132 00       		.byte	0
 2826 0133 00       		.byte	0
 2827 0134 1B       		.uleb128 0x1b
 2828 0135 2E       		.uleb128 0x2e
 2829 0136 01       		.byte	0x1
 2830 0137 03       		.uleb128 0x3
 2831 0138 0E       		.uleb128 0xe
 2832 0139 3A       		.uleb128 0x3a
 2833 013a 0B       		.uleb128 0xb
 2834 013b 3B       		.uleb128 0x3b
 2835 013c 0B       		.uleb128 0xb
 2836 013d 27       		.uleb128 0x27
 2837 013e 19       		.uleb128 0x19
 2838 013f 11       		.uleb128 0x11
 2839 0140 01       		.uleb128 0x1
 2840 0141 12       		.uleb128 0x12
 2841 0142 06       		.uleb128 0x6
 2842 0143 40       		.uleb128 0x40
 2843 0144 18       		.uleb128 0x18
 2844 0145 9742     		.uleb128 0x2117
 2845 0147 19       		.uleb128 0x19
 2846 0148 01       		.uleb128 0x1
ARM GAS  C:\Users\danit\AppData\Local\Temp\ccE8SfmD.s 			page 51


 2847 0149 13       		.uleb128 0x13
 2848 014a 00       		.byte	0
 2849 014b 00       		.byte	0
 2850 014c 1C       		.uleb128 0x1c
 2851 014d 05       		.uleb128 0x5
 2852 014e 00       		.byte	0
 2853 014f 03       		.uleb128 0x3
 2854 0150 0E       		.uleb128 0xe
 2855 0151 3A       		.uleb128 0x3a
 2856 0152 0B       		.uleb128 0xb
 2857 0153 3B       		.uleb128 0x3b
 2858 0154 0B       		.uleb128 0xb
 2859 0155 49       		.uleb128 0x49
 2860 0156 13       		.uleb128 0x13
 2861 0157 02       		.uleb128 0x2
 2862 0158 17       		.uleb128 0x17
 2863 0159 00       		.byte	0
 2864 015a 00       		.byte	0
 2865 015b 1D       		.uleb128 0x1d
 2866 015c 898201   		.uleb128 0x4109
 2867 015f 00       		.byte	0
 2868 0160 11       		.uleb128 0x11
 2869 0161 01       		.uleb128 0x1
 2870 0162 9542     		.uleb128 0x2115
 2871 0164 19       		.uleb128 0x19
 2872 0165 31       		.uleb128 0x31
 2873 0166 13       		.uleb128 0x13
 2874 0167 00       		.byte	0
 2875 0168 00       		.byte	0
 2876 0169 1E       		.uleb128 0x1e
 2877 016a 0B       		.uleb128 0xb
 2878 016b 01       		.byte	0x1
 2879 016c 11       		.uleb128 0x11
 2880 016d 01       		.uleb128 0x1
 2881 016e 12       		.uleb128 0x12
 2882 016f 06       		.uleb128 0x6
 2883 0170 01       		.uleb128 0x1
 2884 0171 13       		.uleb128 0x13
 2885 0172 00       		.byte	0
 2886 0173 00       		.byte	0
 2887 0174 1F       		.uleb128 0x1f
 2888 0175 34       		.uleb128 0x34
 2889 0176 00       		.byte	0
 2890 0177 03       		.uleb128 0x3
 2891 0178 08       		.uleb128 0x8
 2892 0179 3A       		.uleb128 0x3a
 2893 017a 0B       		.uleb128 0xb
 2894 017b 3B       		.uleb128 0x3b
 2895 017c 0B       		.uleb128 0xb
 2896 017d 49       		.uleb128 0x49
 2897 017e 13       		.uleb128 0x13
 2898 017f 02       		.uleb128 0x2
 2899 0180 18       		.uleb128 0x18
 2900 0181 00       		.byte	0
 2901 0182 00       		.byte	0
 2902 0183 20       		.uleb128 0x20
 2903 0184 34       		.uleb128 0x34
ARM GAS  C:\Users\danit\AppData\Local\Temp\ccE8SfmD.s 			page 52


 2904 0185 00       		.byte	0
 2905 0186 03       		.uleb128 0x3
 2906 0187 08       		.uleb128 0x8
 2907 0188 3A       		.uleb128 0x3a
 2908 0189 0B       		.uleb128 0xb
 2909 018a 3B       		.uleb128 0x3b
 2910 018b 0B       		.uleb128 0xb
 2911 018c 49       		.uleb128 0x49
 2912 018d 13       		.uleb128 0x13
 2913 018e 02       		.uleb128 0x2
 2914 018f 17       		.uleb128 0x17
 2915 0190 00       		.byte	0
 2916 0191 00       		.byte	0
 2917 0192 21       		.uleb128 0x21
 2918 0193 898201   		.uleb128 0x4109
 2919 0196 00       		.byte	0
 2920 0197 11       		.uleb128 0x11
 2921 0198 01       		.uleb128 0x1
 2922 0199 31       		.uleb128 0x31
 2923 019a 13       		.uleb128 0x13
 2924 019b 00       		.byte	0
 2925 019c 00       		.byte	0
 2926 019d 22       		.uleb128 0x22
 2927 019e 898201   		.uleb128 0x4109
 2928 01a1 01       		.byte	0x1
 2929 01a2 11       		.uleb128 0x11
 2930 01a3 01       		.uleb128 0x1
 2931 01a4 01       		.uleb128 0x1
 2932 01a5 13       		.uleb128 0x13
 2933 01a6 00       		.byte	0
 2934 01a7 00       		.byte	0
 2935 01a8 23       		.uleb128 0x23
 2936 01a9 8A8201   		.uleb128 0x410a
 2937 01ac 00       		.byte	0
 2938 01ad 02       		.uleb128 0x2
 2939 01ae 18       		.uleb128 0x18
 2940 01af 9142     		.uleb128 0x2111
 2941 01b1 18       		.uleb128 0x18
 2942 01b2 00       		.byte	0
 2943 01b3 00       		.byte	0
 2944 01b4 24       		.uleb128 0x24
 2945 01b5 2E       		.uleb128 0x2e
 2946 01b6 01       		.byte	0x1
 2947 01b7 3F       		.uleb128 0x3f
 2948 01b8 19       		.uleb128 0x19
 2949 01b9 03       		.uleb128 0x3
 2950 01ba 0E       		.uleb128 0xe
 2951 01bb 3A       		.uleb128 0x3a
 2952 01bc 0B       		.uleb128 0xb
 2953 01bd 3B       		.uleb128 0x3b
 2954 01be 0B       		.uleb128 0xb
 2955 01bf 27       		.uleb128 0x27
 2956 01c0 19       		.uleb128 0x19
 2957 01c1 11       		.uleb128 0x11
 2958 01c2 01       		.uleb128 0x1
 2959 01c3 12       		.uleb128 0x12
 2960 01c4 06       		.uleb128 0x6
ARM GAS  C:\Users\danit\AppData\Local\Temp\ccE8SfmD.s 			page 53


 2961 01c5 40       		.uleb128 0x40
 2962 01c6 18       		.uleb128 0x18
 2963 01c7 9742     		.uleb128 0x2117
 2964 01c9 19       		.uleb128 0x19
 2965 01ca 01       		.uleb128 0x1
 2966 01cb 13       		.uleb128 0x13
 2967 01cc 00       		.byte	0
 2968 01cd 00       		.byte	0
 2969 01ce 25       		.uleb128 0x25
 2970 01cf 898201   		.uleb128 0x4109
 2971 01d2 01       		.byte	0x1
 2972 01d3 11       		.uleb128 0x11
 2973 01d4 01       		.uleb128 0x1
 2974 01d5 31       		.uleb128 0x31
 2975 01d6 13       		.uleb128 0x13
 2976 01d7 00       		.byte	0
 2977 01d8 00       		.byte	0
 2978 01d9 26       		.uleb128 0x26
 2979 01da 2E       		.uleb128 0x2e
 2980 01db 01       		.byte	0x1
 2981 01dc 3F       		.uleb128 0x3f
 2982 01dd 19       		.uleb128 0x19
 2983 01de 03       		.uleb128 0x3
 2984 01df 0E       		.uleb128 0xe
 2985 01e0 3A       		.uleb128 0x3a
 2986 01e1 0B       		.uleb128 0xb
 2987 01e2 3B       		.uleb128 0x3b
 2988 01e3 05       		.uleb128 0x5
 2989 01e4 27       		.uleb128 0x27
 2990 01e5 19       		.uleb128 0x19
 2991 01e6 11       		.uleb128 0x11
 2992 01e7 01       		.uleb128 0x1
 2993 01e8 12       		.uleb128 0x12
 2994 01e9 06       		.uleb128 0x6
 2995 01ea 40       		.uleb128 0x40
 2996 01eb 18       		.uleb128 0x18
 2997 01ec 9742     		.uleb128 0x2117
 2998 01ee 19       		.uleb128 0x19
 2999 01ef 01       		.uleb128 0x1
 3000 01f0 13       		.uleb128 0x13
 3001 01f1 00       		.byte	0
 3002 01f2 00       		.byte	0
 3003 01f3 27       		.uleb128 0x27
 3004 01f4 05       		.uleb128 0x5
 3005 01f5 00       		.byte	0
 3006 01f6 03       		.uleb128 0x3
 3007 01f7 0E       		.uleb128 0xe
 3008 01f8 3A       		.uleb128 0x3a
 3009 01f9 0B       		.uleb128 0xb
 3010 01fa 3B       		.uleb128 0x3b
 3011 01fb 05       		.uleb128 0x5
 3012 01fc 49       		.uleb128 0x49
 3013 01fd 13       		.uleb128 0x13
 3014 01fe 02       		.uleb128 0x2
 3015 01ff 17       		.uleb128 0x17
 3016 0200 00       		.byte	0
 3017 0201 00       		.byte	0
ARM GAS  C:\Users\danit\AppData\Local\Temp\ccE8SfmD.s 			page 54


 3018 0202 28       		.uleb128 0x28
 3019 0203 0B       		.uleb128 0xb
 3020 0204 01       		.byte	0x1
 3021 0205 11       		.uleb128 0x11
 3022 0206 01       		.uleb128 0x1
 3023 0207 12       		.uleb128 0x12
 3024 0208 06       		.uleb128 0x6
 3025 0209 00       		.byte	0
 3026 020a 00       		.byte	0
 3027 020b 29       		.uleb128 0x29
 3028 020c 34       		.uleb128 0x34
 3029 020d 00       		.byte	0
 3030 020e 03       		.uleb128 0x3
 3031 020f 08       		.uleb128 0x8
 3032 0210 3A       		.uleb128 0x3a
 3033 0211 0B       		.uleb128 0xb
 3034 0212 3B       		.uleb128 0x3b
 3035 0213 05       		.uleb128 0x5
 3036 0214 49       		.uleb128 0x49
 3037 0215 13       		.uleb128 0x13
 3038 0216 00       		.byte	0
 3039 0217 00       		.byte	0
 3040 0218 2A       		.uleb128 0x2a
 3041 0219 898201   		.uleb128 0x4109
 3042 021c 01       		.byte	0x1
 3043 021d 11       		.uleb128 0x11
 3044 021e 01       		.uleb128 0x1
 3045 021f 31       		.uleb128 0x31
 3046 0220 13       		.uleb128 0x13
 3047 0221 01       		.uleb128 0x1
 3048 0222 13       		.uleb128 0x13
 3049 0223 00       		.byte	0
 3050 0224 00       		.byte	0
 3051 0225 2B       		.uleb128 0x2b
 3052 0226 05       		.uleb128 0x5
 3053 0227 00       		.byte	0
 3054 0228 03       		.uleb128 0x3
 3055 0229 0E       		.uleb128 0xe
 3056 022a 3A       		.uleb128 0x3a
 3057 022b 0B       		.uleb128 0xb
 3058 022c 3B       		.uleb128 0x3b
 3059 022d 05       		.uleb128 0x5
 3060 022e 49       		.uleb128 0x49
 3061 022f 13       		.uleb128 0x13
 3062 0230 02       		.uleb128 0x2
 3063 0231 18       		.uleb128 0x18
 3064 0232 00       		.byte	0
 3065 0233 00       		.byte	0
 3066 0234 2C       		.uleb128 0x2c
 3067 0235 05       		.uleb128 0x5
 3068 0236 00       		.byte	0
 3069 0237 03       		.uleb128 0x3
 3070 0238 08       		.uleb128 0x8
 3071 0239 3A       		.uleb128 0x3a
 3072 023a 0B       		.uleb128 0xb
 3073 023b 3B       		.uleb128 0x3b
 3074 023c 05       		.uleb128 0x5
ARM GAS  C:\Users\danit\AppData\Local\Temp\ccE8SfmD.s 			page 55


 3075 023d 49       		.uleb128 0x49
 3076 023e 13       		.uleb128 0x13
 3077 023f 02       		.uleb128 0x2
 3078 0240 17       		.uleb128 0x17
 3079 0241 00       		.byte	0
 3080 0242 00       		.byte	0
 3081 0243 2D       		.uleb128 0x2d
 3082 0244 05       		.uleb128 0x5
 3083 0245 00       		.byte	0
 3084 0246 03       		.uleb128 0x3
 3085 0247 08       		.uleb128 0x8
 3086 0248 3A       		.uleb128 0x3a
 3087 0249 0B       		.uleb128 0xb
 3088 024a 3B       		.uleb128 0x3b
 3089 024b 05       		.uleb128 0x5
 3090 024c 49       		.uleb128 0x49
 3091 024d 13       		.uleb128 0x13
 3092 024e 02       		.uleb128 0x2
 3093 024f 18       		.uleb128 0x18
 3094 0250 00       		.byte	0
 3095 0251 00       		.byte	0
 3096 0252 2E       		.uleb128 0x2e
 3097 0253 26       		.uleb128 0x26
 3098 0254 00       		.byte	0
 3099 0255 00       		.byte	0
 3100 0256 00       		.byte	0
 3101 0257 2F       		.uleb128 0x2f
 3102 0258 2E       		.uleb128 0x2e
 3103 0259 01       		.byte	0x1
 3104 025a 3F       		.uleb128 0x3f
 3105 025b 19       		.uleb128 0x19
 3106 025c 03       		.uleb128 0x3
 3107 025d 0E       		.uleb128 0xe
 3108 025e 3A       		.uleb128 0x3a
 3109 025f 0B       		.uleb128 0xb
 3110 0260 3B       		.uleb128 0x3b
 3111 0261 05       		.uleb128 0x5
 3112 0262 27       		.uleb128 0x27
 3113 0263 19       		.uleb128 0x19
 3114 0264 49       		.uleb128 0x49
 3115 0265 13       		.uleb128 0x13
 3116 0266 11       		.uleb128 0x11
 3117 0267 01       		.uleb128 0x1
 3118 0268 12       		.uleb128 0x12
 3119 0269 06       		.uleb128 0x6
 3120 026a 40       		.uleb128 0x40
 3121 026b 18       		.uleb128 0x18
 3122 026c 9742     		.uleb128 0x2117
 3123 026e 19       		.uleb128 0x19
 3124 026f 01       		.uleb128 0x1
 3125 0270 13       		.uleb128 0x13
 3126 0271 00       		.byte	0
 3127 0272 00       		.byte	0
 3128 0273 30       		.uleb128 0x30
 3129 0274 34       		.uleb128 0x34
 3130 0275 00       		.byte	0
 3131 0276 03       		.uleb128 0x3
ARM GAS  C:\Users\danit\AppData\Local\Temp\ccE8SfmD.s 			page 56


 3132 0277 0E       		.uleb128 0xe
 3133 0278 3A       		.uleb128 0x3a
 3134 0279 0B       		.uleb128 0xb
 3135 027a 3B       		.uleb128 0x3b
 3136 027b 0B       		.uleb128 0xb
 3137 027c 49       		.uleb128 0x49
 3138 027d 13       		.uleb128 0x13
 3139 027e 02       		.uleb128 0x2
 3140 027f 18       		.uleb128 0x18
 3141 0280 00       		.byte	0
 3142 0281 00       		.byte	0
 3143 0282 31       		.uleb128 0x31
 3144 0283 34       		.uleb128 0x34
 3145 0284 00       		.byte	0
 3146 0285 03       		.uleb128 0x3
 3147 0286 0E       		.uleb128 0xe
 3148 0287 3A       		.uleb128 0x3a
 3149 0288 0B       		.uleb128 0xb
 3150 0289 3B       		.uleb128 0x3b
 3151 028a 05       		.uleb128 0x5
 3152 028b 49       		.uleb128 0x49
 3153 028c 13       		.uleb128 0x13
 3154 028d 3F       		.uleb128 0x3f
 3155 028e 19       		.uleb128 0x19
 3156 028f 3C       		.uleb128 0x3c
 3157 0290 19       		.uleb128 0x19
 3158 0291 00       		.byte	0
 3159 0292 00       		.byte	0
 3160 0293 32       		.uleb128 0x32
 3161 0294 34       		.uleb128 0x34
 3162 0295 00       		.byte	0
 3163 0296 03       		.uleb128 0x3
 3164 0297 0E       		.uleb128 0xe
 3165 0298 3A       		.uleb128 0x3a
 3166 0299 0B       		.uleb128 0xb
 3167 029a 3B       		.uleb128 0x3b
 3168 029b 0B       		.uleb128 0xb
 3169 029c 49       		.uleb128 0x49
 3170 029d 13       		.uleb128 0x13
 3171 029e 3F       		.uleb128 0x3f
 3172 029f 19       		.uleb128 0x19
 3173 02a0 02       		.uleb128 0x2
 3174 02a1 18       		.uleb128 0x18
 3175 02a2 00       		.byte	0
 3176 02a3 00       		.byte	0
 3177 02a4 33       		.uleb128 0x33
 3178 02a5 2E       		.uleb128 0x2e
 3179 02a6 00       		.byte	0
 3180 02a7 3F       		.uleb128 0x3f
 3181 02a8 19       		.uleb128 0x19
 3182 02a9 03       		.uleb128 0x3
 3183 02aa 0E       		.uleb128 0xe
 3184 02ab 3A       		.uleb128 0x3a
 3185 02ac 0B       		.uleb128 0xb
 3186 02ad 3B       		.uleb128 0x3b
 3187 02ae 05       		.uleb128 0x5
 3188 02af 27       		.uleb128 0x27
ARM GAS  C:\Users\danit\AppData\Local\Temp\ccE8SfmD.s 			page 57


 3189 02b0 19       		.uleb128 0x19
 3190 02b1 3C       		.uleb128 0x3c
 3191 02b2 19       		.uleb128 0x19
 3192 02b3 00       		.byte	0
 3193 02b4 00       		.byte	0
 3194 02b5 34       		.uleb128 0x34
 3195 02b6 2E       		.uleb128 0x2e
 3196 02b7 01       		.byte	0x1
 3197 02b8 3F       		.uleb128 0x3f
 3198 02b9 19       		.uleb128 0x19
 3199 02ba 03       		.uleb128 0x3
 3200 02bb 0E       		.uleb128 0xe
 3201 02bc 3A       		.uleb128 0x3a
 3202 02bd 0B       		.uleb128 0xb
 3203 02be 3B       		.uleb128 0x3b
 3204 02bf 0B       		.uleb128 0xb
 3205 02c0 27       		.uleb128 0x27
 3206 02c1 19       		.uleb128 0x19
 3207 02c2 49       		.uleb128 0x49
 3208 02c3 13       		.uleb128 0x13
 3209 02c4 3C       		.uleb128 0x3c
 3210 02c5 19       		.uleb128 0x19
 3211 02c6 01       		.uleb128 0x1
 3212 02c7 13       		.uleb128 0x13
 3213 02c8 00       		.byte	0
 3214 02c9 00       		.byte	0
 3215 02ca 35       		.uleb128 0x35
 3216 02cb 2E       		.uleb128 0x2e
 3217 02cc 01       		.byte	0x1
 3218 02cd 3F       		.uleb128 0x3f
 3219 02ce 19       		.uleb128 0x19
 3220 02cf 03       		.uleb128 0x3
 3221 02d0 0E       		.uleb128 0xe
 3222 02d1 3A       		.uleb128 0x3a
 3223 02d2 0B       		.uleb128 0xb
 3224 02d3 3B       		.uleb128 0x3b
 3225 02d4 05       		.uleb128 0x5
 3226 02d5 27       		.uleb128 0x27
 3227 02d6 19       		.uleb128 0x19
 3228 02d7 3C       		.uleb128 0x3c
 3229 02d8 19       		.uleb128 0x19
 3230 02d9 01       		.uleb128 0x1
 3231 02da 13       		.uleb128 0x13
 3232 02db 00       		.byte	0
 3233 02dc 00       		.byte	0
 3234 02dd 36       		.uleb128 0x36
 3235 02de 2E       		.uleb128 0x2e
 3236 02df 01       		.byte	0x1
 3237 02e0 3F       		.uleb128 0x3f
 3238 02e1 19       		.uleb128 0x19
 3239 02e2 03       		.uleb128 0x3
 3240 02e3 0E       		.uleb128 0xe
 3241 02e4 3A       		.uleb128 0x3a
 3242 02e5 0B       		.uleb128 0xb
 3243 02e6 3B       		.uleb128 0x3b
 3244 02e7 05       		.uleb128 0x5
 3245 02e8 27       		.uleb128 0x27
ARM GAS  C:\Users\danit\AppData\Local\Temp\ccE8SfmD.s 			page 58


 3246 02e9 19       		.uleb128 0x19
 3247 02ea 49       		.uleb128 0x49
 3248 02eb 13       		.uleb128 0x13
 3249 02ec 3C       		.uleb128 0x3c
 3250 02ed 19       		.uleb128 0x19
 3251 02ee 01       		.uleb128 0x1
 3252 02ef 13       		.uleb128 0x13
 3253 02f0 00       		.byte	0
 3254 02f1 00       		.byte	0
 3255 02f2 37       		.uleb128 0x37
 3256 02f3 2E       		.uleb128 0x2e
 3257 02f4 01       		.byte	0x1
 3258 02f5 3F       		.uleb128 0x3f
 3259 02f6 19       		.uleb128 0x19
 3260 02f7 03       		.uleb128 0x3
 3261 02f8 0E       		.uleb128 0xe
 3262 02f9 3A       		.uleb128 0x3a
 3263 02fa 0B       		.uleb128 0xb
 3264 02fb 3B       		.uleb128 0x3b
 3265 02fc 05       		.uleb128 0x5
 3266 02fd 27       		.uleb128 0x27
 3267 02fe 19       		.uleb128 0x19
 3268 02ff 3C       		.uleb128 0x3c
 3269 0300 19       		.uleb128 0x19
 3270 0301 00       		.byte	0
 3271 0302 00       		.byte	0
 3272 0303 00       		.byte	0
 3273              		.section	.debug_loc,"",%progbits
 3274              	.Ldebug_loc0:
 3275              	.LLST0:
 3276 0000 00000000 		.4byte	.LVL0
 3277 0004 0B000000 		.4byte	.LVL1-1
 3278 0008 0100     		.2byte	0x1
 3279 000a 50       		.byte	0x50
 3280 000b 0B000000 		.4byte	.LVL1-1
 3281 000f 0C000000 		.4byte	.LFE119
 3282 0013 0400     		.2byte	0x4
 3283 0015 F3       		.byte	0xf3
 3284 0016 01       		.uleb128 0x1
 3285 0017 50       		.byte	0x50
 3286 0018 9F       		.byte	0x9f
 3287 0019 00000000 		.4byte	0
 3288 001d 00000000 		.4byte	0
 3289              	.LLST1:
 3290 0021 00000000 		.4byte	.LVL0
 3291 0025 0B000000 		.4byte	.LVL1-1
 3292 0029 0100     		.2byte	0x1
 3293 002b 51       		.byte	0x51
 3294 002c 0B000000 		.4byte	.LVL1-1
 3295 0030 0C000000 		.4byte	.LFE119
 3296 0034 0400     		.2byte	0x4
 3297 0036 F3       		.byte	0xf3
 3298 0037 01       		.uleb128 0x1
 3299 0038 51       		.byte	0x51
 3300 0039 9F       		.byte	0x9f
 3301 003a 00000000 		.4byte	0
 3302 003e 00000000 		.4byte	0
ARM GAS  C:\Users\danit\AppData\Local\Temp\ccE8SfmD.s 			page 59


 3303              	.LLST2:
 3304 0042 00000000 		.4byte	.LVL2
 3305 0046 0A000000 		.4byte	.LVL3
 3306 004a 0100     		.2byte	0x1
 3307 004c 50       		.byte	0x50
 3308 004d 0A000000 		.4byte	.LVL3
 3309 0051 7A000000 		.4byte	.LVL8
 3310 0055 0100     		.2byte	0x1
 3311 0057 54       		.byte	0x54
 3312 0058 7A000000 		.4byte	.LVL8
 3313 005c 7D000000 		.4byte	.LVL9-1
 3314 0060 0100     		.2byte	0x1
 3315 0062 50       		.byte	0x50
 3316 0063 7D000000 		.4byte	.LVL9-1
 3317 0067 80000000 		.4byte	.LFE118
 3318 006b 0100     		.2byte	0x1
 3319 006d 54       		.byte	0x54
 3320 006e 00000000 		.4byte	0
 3321 0072 00000000 		.4byte	0
 3322              	.LLST3:
 3323 0076 00000000 		.4byte	.LVL2
 3324 007a 0A000000 		.4byte	.LVL3
 3325 007e 0100     		.2byte	0x1
 3326 0080 51       		.byte	0x51
 3327 0081 0A000000 		.4byte	.LVL3
 3328 0085 7A000000 		.4byte	.LVL8
 3329 0089 0400     		.2byte	0x4
 3330 008b F3       		.byte	0xf3
 3331 008c 01       		.uleb128 0x1
 3332 008d 51       		.byte	0x51
 3333 008e 9F       		.byte	0x9f
 3334 008f 7A000000 		.4byte	.LVL8
 3335 0093 7D000000 		.4byte	.LVL9-1
 3336 0097 0100     		.2byte	0x1
 3337 0099 51       		.byte	0x51
 3338 009a 7D000000 		.4byte	.LVL9-1
 3339 009e 80000000 		.4byte	.LFE118
 3340 00a2 0400     		.2byte	0x4
 3341 00a4 F3       		.byte	0xf3
 3342 00a5 01       		.uleb128 0x1
 3343 00a6 51       		.byte	0x51
 3344 00a7 9F       		.byte	0x9f
 3345 00a8 00000000 		.4byte	0
 3346 00ac 00000000 		.4byte	0
 3347              	.LLST4:
 3348 00b0 60000000 		.4byte	.LVL5
 3349 00b4 6B000000 		.4byte	.LVL6-1
 3350 00b8 0100     		.2byte	0x1
 3351 00ba 53       		.byte	0x53
 3352 00bb 00000000 		.4byte	0
 3353 00bf 00000000 		.4byte	0
 3354              	.LLST5:
 3355 00c3 00000000 		.4byte	.LVL11
 3356 00c7 0C000000 		.4byte	.LVL12
 3357 00cb 0100     		.2byte	0x1
 3358 00cd 50       		.byte	0x50
 3359 00ce 0C000000 		.4byte	.LVL12
ARM GAS  C:\Users\danit\AppData\Local\Temp\ccE8SfmD.s 			page 60


 3360 00d2 48000000 		.4byte	.LVL13
 3361 00d6 0100     		.2byte	0x1
 3362 00d8 54       		.byte	0x54
 3363 00d9 48000000 		.4byte	.LVL13
 3364 00dd 4E000000 		.4byte	.LVL14
 3365 00e1 0100     		.2byte	0x1
 3366 00e3 50       		.byte	0x50
 3367 00e4 4E000000 		.4byte	.LVL14
 3368 00e8 62000000 		.4byte	.LVL15
 3369 00ec 0100     		.2byte	0x1
 3370 00ee 54       		.byte	0x54
 3371 00ef 62000000 		.4byte	.LVL15
 3372 00f3 66000000 		.4byte	.LVL16
 3373 00f7 0100     		.2byte	0x1
 3374 00f9 50       		.byte	0x50
 3375 00fa 66000000 		.4byte	.LVL16
 3376 00fe 98000000 		.4byte	.LFE121
 3377 0102 0100     		.2byte	0x1
 3378 0104 54       		.byte	0x54
 3379 0105 00000000 		.4byte	0
 3380 0109 00000000 		.4byte	0
 3381              	.LLST6:
 3382 010d 00000000 		.4byte	.LVL19
 3383 0111 12000000 		.4byte	.LVL20
 3384 0115 0100     		.2byte	0x1
 3385 0117 50       		.byte	0x50
 3386 0118 12000000 		.4byte	.LVL20
 3387 011c 3C000000 		.4byte	.LFE122
 3388 0120 0100     		.2byte	0x1
 3389 0122 54       		.byte	0x54
 3390 0123 00000000 		.4byte	0
 3391 0127 00000000 		.4byte	0
 3392              	.LLST7:
 3393 012b 00000000 		.4byte	.LVL26
 3394 012f 10000000 		.4byte	.LVL27
 3395 0133 0100     		.2byte	0x1
 3396 0135 50       		.byte	0x50
 3397 0136 10000000 		.4byte	.LVL27
 3398 013a 3C000000 		.4byte	.LFE125
 3399 013e 0400     		.2byte	0x4
 3400 0140 F3       		.byte	0xf3
 3401 0141 01       		.uleb128 0x1
 3402 0142 50       		.byte	0x50
 3403 0143 9F       		.byte	0x9f
 3404 0144 00000000 		.4byte	0
 3405 0148 00000000 		.4byte	0
 3406              	.LLST8:
 3407 014c 00000000 		.4byte	.LVL26
 3408 0150 20000000 		.4byte	.LVL28
 3409 0154 0100     		.2byte	0x1
 3410 0156 51       		.byte	0x51
 3411 0157 20000000 		.4byte	.LVL28
 3412 015b 3C000000 		.4byte	.LFE125
 3413 015f 0400     		.2byte	0x4
 3414 0161 F3       		.byte	0xf3
 3415 0162 01       		.uleb128 0x1
 3416 0163 51       		.byte	0x51
ARM GAS  C:\Users\danit\AppData\Local\Temp\ccE8SfmD.s 			page 61


 3417 0164 9F       		.byte	0x9f
 3418 0165 00000000 		.4byte	0
 3419 0169 00000000 		.4byte	0
 3420              	.LLST9:
 3421 016d 00000000 		.4byte	.LVL29
 3422 0171 0E000000 		.4byte	.LVL30
 3423 0175 0100     		.2byte	0x1
 3424 0177 50       		.byte	0x50
 3425 0178 0E000000 		.4byte	.LVL30
 3426 017c 36000000 		.4byte	.LFE126
 3427 0180 0400     		.2byte	0x4
 3428 0182 F3       		.byte	0xf3
 3429 0183 01       		.uleb128 0x1
 3430 0184 50       		.byte	0x50
 3431 0185 9F       		.byte	0x9f
 3432 0186 00000000 		.4byte	0
 3433 018a 00000000 		.4byte	0
 3434              	.LLST10:
 3435 018e 00000000 		.4byte	.LVL29
 3436 0192 24000000 		.4byte	.LVL31
 3437 0196 0100     		.2byte	0x1
 3438 0198 53       		.byte	0x53
 3439 0199 24000000 		.4byte	.LVL31
 3440 019d 36000000 		.4byte	.LFE126
 3441 01a1 0400     		.2byte	0x4
 3442 01a3 F3       		.byte	0xf3
 3443 01a4 01       		.uleb128 0x1
 3444 01a5 53       		.byte	0x53
 3445 01a6 9F       		.byte	0x9f
 3446 01a7 00000000 		.4byte	0
 3447 01ab 00000000 		.4byte	0
 3448              	.LLST11:
 3449 01af 00000000 		.4byte	.LVL32
 3450 01b3 0E000000 		.4byte	.LVL33
 3451 01b7 0100     		.2byte	0x1
 3452 01b9 50       		.byte	0x50
 3453 01ba 0E000000 		.4byte	.LVL33
 3454 01be 38000000 		.4byte	.LFE127
 3455 01c2 0400     		.2byte	0x4
 3456 01c4 F3       		.byte	0xf3
 3457 01c5 01       		.uleb128 0x1
 3458 01c6 50       		.byte	0x50
 3459 01c7 9F       		.byte	0x9f
 3460 01c8 00000000 		.4byte	0
 3461 01cc 00000000 		.4byte	0
 3462              	.LLST12:
 3463 01d0 00000000 		.4byte	.LVL32
 3464 01d4 22000000 		.4byte	.LVL34
 3465 01d8 0100     		.2byte	0x1
 3466 01da 52       		.byte	0x52
 3467 01db 22000000 		.4byte	.LVL34
 3468 01df 38000000 		.4byte	.LFE127
 3469 01e3 0400     		.2byte	0x4
 3470 01e5 F3       		.byte	0xf3
 3471 01e6 01       		.uleb128 0x1
 3472 01e7 52       		.byte	0x52
 3473 01e8 9F       		.byte	0x9f
ARM GAS  C:\Users\danit\AppData\Local\Temp\ccE8SfmD.s 			page 62


 3474 01e9 00000000 		.4byte	0
 3475 01ed 00000000 		.4byte	0
 3476              	.LLST13:
 3477 01f1 00000000 		.4byte	.LVL35
 3478 01f5 0E000000 		.4byte	.LVL36
 3479 01f9 0100     		.2byte	0x1
 3480 01fb 50       		.byte	0x50
 3481 01fc 0E000000 		.4byte	.LVL36
 3482 0200 38000000 		.4byte	.LFE128
 3483 0204 0400     		.2byte	0x4
 3484 0206 F3       		.byte	0xf3
 3485 0207 01       		.uleb128 0x1
 3486 0208 50       		.byte	0x50
 3487 0209 9F       		.byte	0x9f
 3488 020a 00000000 		.4byte	0
 3489 020e 00000000 		.4byte	0
 3490              	.LLST14:
 3491 0212 00000000 		.4byte	.LVL35
 3492 0216 22000000 		.4byte	.LVL37
 3493 021a 0100     		.2byte	0x1
 3494 021c 52       		.byte	0x52
 3495 021d 22000000 		.4byte	.LVL37
 3496 0221 38000000 		.4byte	.LFE128
 3497 0225 0400     		.2byte	0x4
 3498 0227 F3       		.byte	0xf3
 3499 0228 01       		.uleb128 0x1
 3500 0229 52       		.byte	0x52
 3501 022a 9F       		.byte	0x9f
 3502 022b 00000000 		.4byte	0
 3503 022f 00000000 		.4byte	0
 3504              	.LLST15:
 3505 0233 00000000 		.4byte	.LVL38
 3506 0237 0C000000 		.4byte	.LVL39
 3507 023b 0100     		.2byte	0x1
 3508 023d 50       		.byte	0x50
 3509 023e 0C000000 		.4byte	.LVL39
 3510 0242 10000000 		.4byte	.LFE129
 3511 0246 0400     		.2byte	0x4
 3512 0248 F3       		.byte	0xf3
 3513 0249 01       		.uleb128 0x1
 3514 024a 50       		.byte	0x50
 3515 024b 9F       		.byte	0x9f
 3516 024c 00000000 		.4byte	0
 3517 0250 00000000 		.4byte	0
 3518              		.section	.debug_aranges,"",%progbits
 3519 0000 74000000 		.4byte	0x74
 3520 0004 0200     		.2byte	0x2
 3521 0006 00000000 		.4byte	.Ldebug_info0
 3522 000a 04       		.byte	0x4
 3523 000b 00       		.byte	0
 3524 000c 0000     		.2byte	0
 3525 000e 0000     		.2byte	0
 3526 0010 00000000 		.4byte	.LFB119
 3527 0014 0C000000 		.4byte	.LFE119-.LFB119
 3528 0018 00000000 		.4byte	.LFB118
 3529 001c 80000000 		.4byte	.LFE118-.LFB118
 3530 0020 00000000 		.4byte	.LFB120
ARM GAS  C:\Users\danit\AppData\Local\Temp\ccE8SfmD.s 			page 63


 3531 0024 44000000 		.4byte	.LFE120-.LFB120
 3532 0028 00000000 		.4byte	.LFB121
 3533 002c 98000000 		.4byte	.LFE121-.LFB121
 3534 0030 00000000 		.4byte	.LFB122
 3535 0034 3C000000 		.4byte	.LFE122-.LFB122
 3536 0038 00000000 		.4byte	.LFB123
 3537 003c 10000000 		.4byte	.LFE123-.LFB123
 3538 0040 00000000 		.4byte	.LFB124
 3539 0044 10000000 		.4byte	.LFE124-.LFB124
 3540 0048 00000000 		.4byte	.LFB125
 3541 004c 3C000000 		.4byte	.LFE125-.LFB125
 3542 0050 00000000 		.4byte	.LFB126
 3543 0054 36000000 		.4byte	.LFE126-.LFB126
 3544 0058 00000000 		.4byte	.LFB127
 3545 005c 38000000 		.4byte	.LFE127-.LFB127
 3546 0060 00000000 		.4byte	.LFB128
 3547 0064 38000000 		.4byte	.LFE128-.LFB128
 3548 0068 00000000 		.4byte	.LFB129
 3549 006c 10000000 		.4byte	.LFE129-.LFB129
 3550 0070 00000000 		.4byte	0
 3551 0074 00000000 		.4byte	0
 3552              		.section	.debug_ranges,"",%progbits
 3553              	.Ldebug_ranges0:
 3554 0000 00000000 		.4byte	.LFB119
 3555 0004 0C000000 		.4byte	.LFE119
 3556 0008 00000000 		.4byte	.LFB118
 3557 000c 80000000 		.4byte	.LFE118
 3558 0010 00000000 		.4byte	.LFB120
 3559 0014 44000000 		.4byte	.LFE120
 3560 0018 00000000 		.4byte	.LFB121
 3561 001c 98000000 		.4byte	.LFE121
 3562 0020 00000000 		.4byte	.LFB122
 3563 0024 3C000000 		.4byte	.LFE122
 3564 0028 00000000 		.4byte	.LFB123
 3565 002c 10000000 		.4byte	.LFE123
 3566 0030 00000000 		.4byte	.LFB124
 3567 0034 10000000 		.4byte	.LFE124
 3568 0038 00000000 		.4byte	.LFB125
 3569 003c 3C000000 		.4byte	.LFE125
 3570 0040 00000000 		.4byte	.LFB126
 3571 0044 36000000 		.4byte	.LFE126
 3572 0048 00000000 		.4byte	.LFB127
 3573 004c 38000000 		.4byte	.LFE127
 3574 0050 00000000 		.4byte	.LFB128
 3575 0054 38000000 		.4byte	.LFE128
 3576 0058 00000000 		.4byte	.LFB129
 3577 005c 10000000 		.4byte	.LFE129
 3578 0060 00000000 		.4byte	0
 3579 0064 00000000 		.4byte	0
 3580              		.section	.debug_line,"",%progbits
 3581              	.Ldebug_line0:
 3582 0000 F4040000 		.section	.debug_str,"MS",%progbits,1
 3582      02001A03 
 3582      00000201 
 3582      FB0E0D00 
 3582      01010101 
 3583              	.LASF22:
ARM GAS  C:\Users\danit\AppData\Local\Temp\ccE8SfmD.s 			page 64


 3584 0000 74726566 		.ascii	"trefs_t\000"
 3584      735F7400 
 3585              	.LASF64:
 3586 0008 4D304152 		.ascii	"M0AR\000"
 3586      00
 3587              	.LASF2:
 3588 000d 73697A65 		.ascii	"size_t\000"
 3588      5F7400
 3589              	.LASF58:
 3590 0014 7264796D 		.ascii	"rdymsg\000"
 3590      736700
 3591              	.LASF114:
 3592 001b 4F545950 		.ascii	"OTYPER\000"
 3592      455200
 3593              	.LASF3:
 3594 0022 5F5F7569 		.ascii	"__uint8_t\000"
 3594      6E74385F 
 3594      7400
 3595              	.LASF127:
 3596 002c 5350495F 		.ascii	"SPI_ACTIVE\000"
 3596      41435449 
 3596      564500
 3597              	.LASF170:
 3598 0037 7370695F 		.ascii	"spi_lld_polled_exchange\000"
 3598      6C6C645F 
 3598      706F6C6C 
 3598      65645F65 
 3598      78636861 
 3599              	.LASF105:
 3600 004f 73747265 		.ascii	"stream\000"
 3600      616D00
 3601              	.LASF135:
 3602 0056 646D6172 		.ascii	"dmarx\000"
 3602      7800
 3603              	.LASF113:
 3604 005c 4D4F4445 		.ascii	"MODER\000"
 3604      5200
 3605              	.LASF13:
 3606 0062 6C6F6E67 		.ascii	"long long unsigned int\000"
 3606      206C6F6E 
 3606      6720756E 
 3606      7369676E 
 3606      65642069 
 3607              	.LASF126:
 3608 0079 5350495F 		.ascii	"SPI_READY\000"
 3608      52454144 
 3608      5900
 3609              	.LASF97:
 3610 0083 43524350 		.ascii	"CRCPR\000"
 3610      5200
 3611              	.LASF116:
 3612 0089 50555044 		.ascii	"PUPDR\000"
 3612      5200
 3613              	.LASF59:
 3614 008f 65786974 		.ascii	"exitcode\000"
 3614      636F6465 
 3614      00
ARM GAS  C:\Users\danit\AppData\Local\Temp\ccE8SfmD.s 			page 65


 3615              	.LASF109:
 3616 0098 76656374 		.ascii	"vector\000"
 3616      6F7200
 3617              	.LASF163:
 3618 009f 5F73746D 		.ascii	"_stm32_dma_streams\000"
 3618      33325F64 
 3618      6D615F73 
 3618      74726561 
 3618      6D7300
 3619              	.LASF130:
 3620 00b2 53504944 		.ascii	"SPIDriver\000"
 3620      72697665 
 3620      7200
 3621              	.LASF141:
 3622 00bc 7373706F 		.ascii	"ssport\000"
 3622      727400
 3623              	.LASF162:
 3624 00c3 49544D5F 		.ascii	"ITM_RxBuffer\000"
 3624      52784275 
 3624      66666572 
 3624      00
 3625              	.LASF156:
 3626 00d0 72786275 		.ascii	"rxbuf\000"
 3626      6600
 3627              	.LASF83:
 3628 00d6 41484231 		.ascii	"AHB1LPENR\000"
 3628      4C50454E 
 3628      5200
 3629              	.LASF31:
 3630 00e0 705F7072 		.ascii	"p_prio\000"
 3630      696F00
 3631              	.LASF142:
 3632 00e7 73737061 		.ascii	"sspad\000"
 3632      6400
 3633              	.LASF95:
 3634 00ed 44434B43 		.ascii	"DCKCFGR\000"
 3634      46475200 
 3635              	.LASF12:
 3636 00f5 6C6F6E67 		.ascii	"long long int\000"
 3636      206C6F6E 
 3636      6720696E 
 3636      7400
 3637              	.LASF1:
 3638 0103 7369676E 		.ascii	"signed char\000"
 3638      65642063 
 3638      68617200 
 3639              	.LASF117:
 3640 010f 42535252 		.ascii	"BSRR\000"
 3640      00
 3641              	.LASF69:
 3642 0114 41484231 		.ascii	"AHB1RSTR\000"
 3642      52535452 
 3642      00
 3643              	.LASF125:
 3644 011d 5350495F 		.ascii	"SPI_STOP\000"
 3644      53544F50 
 3644      00
ARM GAS  C:\Users\danit\AppData\Local\Temp\ccE8SfmD.s 			page 66


 3645              	.LASF100:
 3646 0126 49325343 		.ascii	"I2SCFGR\000"
 3646      46475200 
 3647              	.LASF18:
 3648 012e 626F6F6C 		.ascii	"bool_t\000"
 3648      5F7400
 3649              	.LASF55:
 3650 0135 6D5F7175 		.ascii	"m_queue\000"
 3650      65756500 
 3651              	.LASF23:
 3652 013d 74736C69 		.ascii	"tslices_t\000"
 3652      6365735F 
 3652      7400
 3653              	.LASF159:
 3654 0147 6672616D 		.ascii	"frame\000"
 3654      6500
 3655              	.LASF131:
 3656 014d 73746174 		.ascii	"state\000"
 3656      6500
 3657              	.LASF9:
 3658 0153 6C6F6E67 		.ascii	"long int\000"
 3658      20696E74 
 3658      00
 3659              	.LASF147:
 3660 015c 7370695F 		.ascii	"spi_lld_serve_rx_interrupt\000"
 3660      6C6C645F 
 3660      73657276 
 3660      655F7278 
 3660      5F696E74 
 3661              	.LASF74:
 3662 0177 41504232 		.ascii	"APB2RSTR\000"
 3662      52535452 
 3662      00
 3663              	.LASF87:
 3664 0180 41504231 		.ascii	"APB1LPENR\000"
 3664      4C50454E 
 3664      5200
 3665              	.LASF21:
 3666 018a 74737461 		.ascii	"tstate_t\000"
 3666      74655F74 
 3666      00
 3667              	.LASF154:
 3668 0193 7370695F 		.ascii	"spi_lld_exchange\000"
 3668      6C6C645F 
 3668      65786368 
 3668      616E6765 
 3668      00
 3669              	.LASF38:
 3670 01a4 705F7265 		.ascii	"p_refs\000"
 3670      667300
 3671              	.LASF15:
 3672 01ab 75696E74 		.ascii	"uint16_t\000"
 3672      31365F74 
 3672      00
 3673              	.LASF40:
 3674 01b4 705F7469 		.ascii	"p_time\000"
 3674      6D6500
ARM GAS  C:\Users\danit\AppData\Local\Temp\ccE8SfmD.s 			page 67


 3675              	.LASF33:
 3676 01bb 705F6E65 		.ascii	"p_newer\000"
 3676      77657200 
 3677              	.LASF140:
 3678 01c3 656E645F 		.ascii	"end_cb\000"
 3678      636200
 3679              	.LASF137:
 3680 01ca 7278646D 		.ascii	"rxdmamode\000"
 3680      616D6F64 
 3680      6500
 3681              	.LASF121:
 3682 01d4 4750494F 		.ascii	"GPIO_TypeDef\000"
 3682      5F547970 
 3682      65446566 
 3682      00
 3683              	.LASF136:
 3684 01e1 646D6174 		.ascii	"dmatx\000"
 3684      7800
 3685              	.LASF115:
 3686 01e7 4F535045 		.ascii	"OSPEEDR\000"
 3686      45445200 
 3687              	.LASF10:
 3688 01ef 5F5F7569 		.ascii	"__uint32_t\000"
 3688      6E743332 
 3688      5F7400
 3689              	.LASF47:
 3690 01fa 705F6D70 		.ascii	"p_mpool\000"
 3690      6F6F6C00 
 3691              	.LASF50:
 3692 0202 72656761 		.ascii	"regarm_t\000"
 3692      726D5F74 
 3692      00
 3693              	.LASF108:
 3694 020b 73656C66 		.ascii	"selfindex\000"
 3694      696E6465 
 3694      7800
 3695              	.LASF139:
 3696 0215 73706963 		.ascii	"spicallback_t\000"
 3696      616C6C62 
 3696      61636B5F 
 3696      7400
 3697              	.LASF138:
 3698 0223 7478646D 		.ascii	"txdmamode\000"
 3698      616D6F64 
 3698      6500
 3699              	.LASF157:
 3700 022d 7370695F 		.ascii	"spi_lld_send\000"
 3700      6C6C645F 
 3700      73656E64 
 3700      00
 3701              	.LASF0:
 3702 023a 756E7369 		.ascii	"unsigned int\000"
 3702      676E6564 
 3702      20696E74 
 3702      00
 3703              	.LASF152:
 3704 0247 7370695F 		.ascii	"spi_lld_unselect\000"
ARM GAS  C:\Users\danit\AppData\Local\Temp\ccE8SfmD.s 			page 68


 3704      6C6C645F 
 3704      756E7365 
 3704      6C656374 
 3704      00
 3705              	.LASF155:
 3706 0258 74786275 		.ascii	"txbuf\000"
 3706      6600
 3707              	.LASF68:
 3708 025e 43464752 		.ascii	"CFGR\000"
 3708      00
 3709              	.LASF111:
 3710 0263 73746D33 		.ascii	"stm32_dmaisr_t\000"
 3710      325F646D 
 3710      61697372 
 3710      5F7400
 3711              	.LASF42:
 3712 0272 705F6D73 		.ascii	"p_msgqueue\000"
 3712      67717565 
 3712      756500
 3713              	.LASF78:
 3714 027d 41484233 		.ascii	"AHB3ENR\000"
 3714      454E5200 
 3715              	.LASF96:
 3716 0285 5243435F 		.ascii	"RCC_TypeDef\000"
 3716      54797065 
 3716      44656600 
 3717              	.LASF118:
 3718 0291 4C434B52 		.ascii	"LCKR\000"
 3718      00
 3719              	.LASF107:
 3720 0296 69736869 		.ascii	"ishift\000"
 3720      667400
 3721              	.LASF52:
 3722 029d 636F6E74 		.ascii	"context\000"
 3722      65787400 
 3723              	.LASF7:
 3724 02a5 73686F72 		.ascii	"short unsigned int\000"
 3724      7420756E 
 3724      7369676E 
 3724      65642069 
 3724      6E7400
 3725              	.LASF93:
 3726 02b8 504C4C49 		.ascii	"PLLI2SCFGR\000"
 3726      32534346 
 3726      475200
 3727              	.LASF25:
 3728 02c3 6D73675F 		.ascii	"msg_t\000"
 3728      7400
 3729              	.LASF67:
 3730 02c9 504C4C43 		.ascii	"PLLCFGR\000"
 3730      46475200 
 3731              	.LASF161:
 3732 02d1 64756D6D 		.ascii	"dummyrx\000"
 3732      79727800 
 3733              	.LASF20:
 3734 02d9 746D6F64 		.ascii	"tmode_t\000"
 3734      655F7400 
ARM GAS  C:\Users\danit\AppData\Local\Temp\ccE8SfmD.s 			page 69


 3735              	.LASF88:
 3736 02e1 41504232 		.ascii	"APB2LPENR\000"
 3736      4C50454E 
 3736      5200
 3737              	.LASF49:
 3738 02eb 54687265 		.ascii	"ThreadsList\000"
 3738      6164734C 
 3738      69737400 
 3739              	.LASF26:
 3740 02f7 6576656E 		.ascii	"eventmask_t\000"
 3740      746D6173 
 3740      6B5F7400 
 3741              	.LASF148:
 3742 0303 7370695F 		.ascii	"spi_lld_init\000"
 3742      6C6C645F 
 3742      696E6974 
 3742      00
 3743              	.LASF158:
 3744 0310 7370695F 		.ascii	"spi_lld_receive\000"
 3744      6C6C645F 
 3744      72656365 
 3744      69766500 
 3745              	.LASF102:
 3746 0320 49325350 		.ascii	"I2SPR\000"
 3746      5200
 3747              	.LASF53:
 3748 0326 73697A65 		.ascii	"sizetype\000"
 3748      74797065 
 3748      00
 3749              	.LASF112:
 3750 032f 636C6561 		.ascii	"clear\000"
 3750      7200
 3751              	.LASF54:
 3752 0335 4D757465 		.ascii	"Mutex\000"
 3752      7800
 3753              	.LASF29:
 3754 033b 705F6E65 		.ascii	"p_next\000"
 3754      787400
 3755              	.LASF150:
 3756 0342 7370695F 		.ascii	"spi_lld_stop\000"
 3756      6C6C645F 
 3756      73746F70 
 3756      00
 3757              	.LASF122:
 3758 034f 696F706F 		.ascii	"ioportmask_t\000"
 3758      72746D61 
 3758      736B5F74 
 3758      00
 3759              	.LASF34:
 3760 035c 705F6F6C 		.ascii	"p_older\000"
 3760      64657200 
 3761              	.LASF48:
 3762 0364 54687265 		.ascii	"ThreadsQueue\000"
 3762      61647351 
 3762      75657565 
 3762      00
 3763              	.LASF84:
ARM GAS  C:\Users\danit\AppData\Local\Temp\ccE8SfmD.s 			page 70


 3764 0371 41484232 		.ascii	"AHB2LPENR\000"
 3764      4C50454E 
 3764      5200
 3765              	.LASF73:
 3766 037b 41504231 		.ascii	"APB1RSTR\000"
 3766      52535452 
 3766      00
 3767              	.LASF120:
 3768 0384 41465248 		.ascii	"AFRH\000"
 3768      00
 3769              	.LASF119:
 3770 0389 4146524C 		.ascii	"AFRL\000"
 3770      00
 3771              	.LASF94:
 3772 038e 504C4C53 		.ascii	"PLLSAICFGR\000"
 3772      41494346 
 3772      475200
 3773              	.LASF99:
 3774 0399 54584352 		.ascii	"TXCRCR\000"
 3774      435200
 3775              	.LASF72:
 3776 03a0 52455345 		.ascii	"RESERVED0\000"
 3776      52564544 
 3776      3000
 3777              	.LASF75:
 3778 03aa 52455345 		.ascii	"RESERVED1\000"
 3778      52564544 
 3778      3100
 3779              	.LASF79:
 3780 03b4 52455345 		.ascii	"RESERVED2\000"
 3780      52564544 
 3780      3200
 3781              	.LASF82:
 3782 03be 52455345 		.ascii	"RESERVED3\000"
 3782      52564544 
 3782      3300
 3783              	.LASF86:
 3784 03c8 52455345 		.ascii	"RESERVED4\000"
 3784      52564544 
 3784      3400
 3785              	.LASF30:
 3786 03d2 705F7072 		.ascii	"p_prev\000"
 3786      657600
 3787              	.LASF91:
 3788 03d9 52455345 		.ascii	"RESERVED6\000"
 3788      52564544 
 3788      3600
 3789              	.LASF101:
 3790 03e3 52455345 		.ascii	"RESERVED7\000"
 3790      52564544 
 3790      3700
 3791              	.LASF103:
 3792 03ed 52455345 		.ascii	"RESERVED8\000"
 3792      52564544 
 3792      3800
 3793              	.LASF24:
 3794 03f7 74707269 		.ascii	"tprio_t\000"
ARM GAS  C:\Users\danit\AppData\Local\Temp\ccE8SfmD.s 			page 71


 3794      6F5F7400 
 3795              	.LASF134:
 3796 03ff 6D757465 		.ascii	"mutex\000"
 3796      7800
 3797              	.LASF19:
 3798 0405 5F426F6F 		.ascii	"_Bool\000"
 3798      6C00
 3799              	.LASF16:
 3800 040b 696E7433 		.ascii	"int32_t\000"
 3800      325F7400 
 3801              	.LASF4:
 3802 0413 756E7369 		.ascii	"unsigned char\000"
 3802      676E6564 
 3802      20636861 
 3802      7200
 3803              	.LASF110:
 3804 0421 73746D33 		.ascii	"stm32_dma_stream_t\000"
 3804      325F646D 
 3804      615F7374 
 3804      7265616D 
 3804      5F7400
 3805              	.LASF164:
 3806 0434 53504944 		.ascii	"SPID2\000"
 3806      3200
 3807              	.LASF160:
 3808 043a 64756D6D 		.ascii	"dummytx\000"
 3808      79747800 
 3809              	.LASF36:
 3810 0442 705F7374 		.ascii	"p_state\000"
 3810      61746500 
 3811              	.LASF45:
 3812 044a 705F6D74 		.ascii	"p_mtxlist\000"
 3812      786C6973 
 3812      7400
 3813              	.LASF5:
 3814 0454 73686F72 		.ascii	"short int\000"
 3814      7420696E 
 3814      7400
 3815              	.LASF39:
 3816 045e 705F7072 		.ascii	"p_preempt\000"
 3816      65656D70 
 3816      7400
 3817              	.LASF85:
 3818 0468 41484233 		.ascii	"AHB3LPENR\000"
 3818      4C50454E 
 3818      5200
 3819              	.LASF172:
 3820 0472 7370694F 		.ascii	"spiObjectInit\000"
 3820      626A6563 
 3820      74496E69 
 3820      7400
 3821              	.LASF61:
 3822 0480 65776D61 		.ascii	"ewmask\000"
 3822      736B00
 3823              	.LASF37:
 3824 0487 705F666C 		.ascii	"p_flags\000"
 3824      61677300 
ARM GAS  C:\Users\danit\AppData\Local\Temp\ccE8SfmD.s 			page 72


 3825              	.LASF81:
 3826 048f 41504232 		.ascii	"APB2ENR\000"
 3826      454E5200 
 3827              	.LASF71:
 3828 0497 41484233 		.ascii	"AHB3RSTR\000"
 3828      52535452 
 3828      00
 3829              	.LASF28:
 3830 04a0 54687265 		.ascii	"Thread\000"
 3830      616400
 3831              	.LASF44:
 3832 04a7 705F6570 		.ascii	"p_epending\000"
 3832      656E6469 
 3832      6E6700
 3833              	.LASF106:
 3834 04b2 69666372 		.ascii	"ifcr\000"
 3834      00
 3835              	.LASF89:
 3836 04b7 52455345 		.ascii	"RESERVED5\000"
 3836      52564544 
 3836      3500
 3837              	.LASF17:
 3838 04c1 75696E74 		.ascii	"uint32_t\000"
 3838      33325F74 
 3838      00
 3839              	.LASF165:
 3840 04ca 63685363 		.ascii	"chSchReadyI\000"
 3840      68526561 
 3840      64794900 
 3841              	.LASF80:
 3842 04d6 41504231 		.ascii	"APB1ENR\000"
 3842      454E5200 
 3843              	.LASF11:
 3844 04de 6C6F6E67 		.ascii	"long unsigned int\000"
 3844      20756E73 
 3844      69676E65 
 3844      6420696E 
 3844      7400
 3845              	.LASF104:
 3846 04f0 5350495F 		.ascii	"SPI_TypeDef\000"
 3846      54797065 
 3846      44656600 
 3847              	.LASF62:
 3848 04fc 63686172 		.ascii	"char\000"
 3848      00
 3849              	.LASF173:
 3850 0501 646D6153 		.ascii	"dmaStreamRelease\000"
 3850      74726561 
 3850      6D52656C 
 3850      65617365 
 3850      00
 3851              	.LASF128:
 3852 0512 5350495F 		.ascii	"SPI_COMPLETE\000"
 3852      434F4D50 
 3852      4C455445 
 3852      00
 3853              	.LASF132:
ARM GAS  C:\Users\danit\AppData\Local\Temp\ccE8SfmD.s 			page 73


 3854 051f 636F6E66 		.ascii	"config\000"
 3854      696700
 3855              	.LASF171:
 3856 0526 706F7274 		.ascii	"port_halt\000"
 3856      5F68616C 
 3856      7400
 3857              	.LASF6:
 3858 0530 5F5F7569 		.ascii	"__uint16_t\000"
 3858      6E743136 
 3858      5F7400
 3859              	.LASF70:
 3860 053b 41484232 		.ascii	"AHB2RSTR\000"
 3860      52535452 
 3860      00
 3861              	.LASF129:
 3862 0544 73706973 		.ascii	"spistate_t\000"
 3862      74617465 
 3862      5F7400
 3863              	.LASF57:
 3864 054f 6D5F6E65 		.ascii	"m_next\000"
 3864      787400
 3865              	.LASF27:
 3866 0556 73797374 		.ascii	"systime_t\000"
 3866      696D655F 
 3866      7400
 3867              	.LASF46:
 3868 0560 705F7265 		.ascii	"p_realprio\000"
 3868      616C7072 
 3868      696F00
 3869              	.LASF8:
 3870 056b 5F5F696E 		.ascii	"__int32_t\000"
 3870      7433325F 
 3870      7400
 3871              	.LASF133:
 3872 0575 74687265 		.ascii	"thread\000"
 3872      616400
 3873              	.LASF63:
 3874 057c 4E445452 		.ascii	"NDTR\000"
 3874      00
 3875              	.LASF66:
 3876 0581 444D415F 		.ascii	"DMA_Stream_TypeDef\000"
 3876      53747265 
 3876      616D5F54 
 3876      79706544 
 3876      656600
 3877              	.LASF123:
 3878 0594 696F706F 		.ascii	"ioportid_t\000"
 3878      72746964 
 3878      5F7400
 3879              	.LASF77:
 3880 059f 41484232 		.ascii	"AHB2ENR\000"
 3880      454E5200 
 3881              	.LASF151:
 3882 05a7 7370695F 		.ascii	"spi_lld_select\000"
 3882      6C6C645F 
 3882      73656C65 
 3882      637400
ARM GAS  C:\Users\danit\AppData\Local\Temp\ccE8SfmD.s 			page 74


 3883              	.LASF51:
 3884 05b6 696E7463 		.ascii	"intctx\000"
 3884      747800
 3885              	.LASF65:
 3886 05bd 4D314152 		.ascii	"M1AR\000"
 3886      00
 3887              	.LASF124:
 3888 05c2 5350495F 		.ascii	"SPI_UNINIT\000"
 3888      554E494E 
 3888      495400
 3889              	.LASF92:
 3890 05cd 53534347 		.ascii	"SSCGR\000"
 3890      5200
 3891              	.LASF153:
 3892 05d3 7370695F 		.ascii	"spi_lld_ignore\000"
 3892      6C6C645F 
 3892      69676E6F 
 3892      726500
 3893              	.LASF167:
 3894 05e2 474E5520 		.ascii	"GNU C 4.9.3 20150529 (release) [ARM/embedded-4_9-br"
 3894      4320342E 
 3894      392E3320 
 3894      32303135 
 3894      30353239 
 3895 0615 616E6368 		.ascii	"anch revision 224288] -mcpu=cortex-m4 -mno-thumb-in"
 3895      20726576 
 3895      6973696F 
 3895      6E203232 
 3895      34323838 
 3896 0648 74657277 		.ascii	"terwork -mthumb -ggdb -O2 -fomit-frame-pointer -fal"
 3896      6F726B20 
 3896      2D6D7468 
 3896      756D6220 
 3896      2D676764 
 3897 067b 69676E2D 		.ascii	"ign-functions=16 -ffunction-sections -fdata-section"
 3897      66756E63 
 3897      74696F6E 
 3897      733D3136 
 3897      202D6666 
 3898 06ae 73202D66 		.ascii	"s -fno-common\000"
 3898      6E6F2D63 
 3898      6F6D6D6F 
 3898      6E00
 3899              	.LASF90:
 3900 06bc 42444352 		.ascii	"BDCR\000"
 3900      00
 3901              	.LASF98:
 3902 06c1 52584352 		.ascii	"RXCRCR\000"
 3902      435200
 3903              	.LASF149:
 3904 06c8 7370695F 		.ascii	"spi_lld_start\000"
 3904      6C6C645F 
 3904      73746172 
 3904      7400
 3905              	.LASF14:
 3906 06d6 75696E74 		.ascii	"uint8_t\000"
 3906      385F7400 
ARM GAS  C:\Users\danit\AppData\Local\Temp\ccE8SfmD.s 			page 75


 3907              	.LASF144:
 3908 06de 73706970 		.ascii	"spip\000"
 3908      00
 3909              	.LASF145:
 3910 06e3 666C6167 		.ascii	"flags\000"
 3910      7300
 3911              	.LASF60:
 3912 06e9 77746F62 		.ascii	"wtobjp\000"
 3912      6A7000
 3913              	.LASF146:
 3914 06f0 7370695F 		.ascii	"spi_lld_serve_tx_interrupt\000"
 3914      6C6C645F 
 3914      73657276 
 3914      655F7478 
 3914      5F696E74 
 3915              	.LASF35:
 3916 070b 705F6E61 		.ascii	"p_name\000"
 3916      6D6500
 3917              	.LASF76:
 3918 0712 41484231 		.ascii	"AHB1ENR\000"
 3918      454E5200 
 3919              	.LASF168:
 3920 071a 2E2E2F2E 		.ascii	"../../../ChibiOS/os/hal/platforms/STM32/SPIv1/spi_l"
 3920      2E2F2E2E 
 3920      2F436869 
 3920      62694F53 
 3920      2F6F732F 
 3921 074d 6C642E63 		.ascii	"ld.c\000"
 3921      00
 3922              	.LASF143:
 3923 0752 53504943 		.ascii	"SPIConfig\000"
 3923      6F6E6669 
 3923      6700
 3924              	.LASF43:
 3925 075c 705F6D73 		.ascii	"p_msg\000"
 3925      6700
 3926              	.LASF169:
 3927 0762 443A5C44 		.ascii	"D:\\Dani\\MegaLux\\Repo\\Smarty\\Smarty\\smarty\\fi"
 3927      616E695C 
 3927      4D656761 
 3927      4C75785C 
 3927      5265706F 
 3928 078e 726D7761 		.ascii	"rmware\000"
 3928      726500
 3929              	.LASF56:
 3930 0795 6D5F6F77 		.ascii	"m_owner\000"
 3930      6E657200 
 3931              	.LASF166:
 3932 079d 646D6153 		.ascii	"dmaStreamAllocate\000"
 3932      74726561 
 3932      6D416C6C 
 3932      6F636174 
 3932      6500
 3933              	.LASF32:
 3934 07af 705F6374 		.ascii	"p_ctx\000"
 3934      7800
 3935              	.LASF41:
ARM GAS  C:\Users\danit\AppData\Local\Temp\ccE8SfmD.s 			page 76


 3936 07b5 705F7761 		.ascii	"p_waiting\000"
 3936      6974696E 
 3936      6700
 3937              		.ident	"GCC: (GNU Tools for ARM Embedded Processors) 4.9.3 20150529 (release) [ARM/embedded-4_9-br
ARM GAS  C:\Users\danit\AppData\Local\Temp\ccE8SfmD.s 			page 77


DEFINED SYMBOLS
                            *ABS*:00000000 spi_lld.c
C:\Users\danit\AppData\Local\Temp\ccE8SfmD.s:19     .text.spi_lld_serve_tx_interrupt:00000000 $t
C:\Users\danit\AppData\Local\Temp\ccE8SfmD.s:24     .text.spi_lld_serve_tx_interrupt:00000000 spi_lld_serve_tx_interrupt
C:\Users\danit\AppData\Local\Temp\ccE8SfmD.s:45     .text.spi_lld_serve_rx_interrupt:00000000 $t
C:\Users\danit\AppData\Local\Temp\ccE8SfmD.s:50     .text.spi_lld_serve_rx_interrupt:00000000 spi_lld_serve_rx_interrupt
C:\Users\danit\AppData\Local\Temp\ccE8SfmD.s:173    .text.spi_lld_init:00000000 $t
C:\Users\danit\AppData\Local\Temp\ccE8SfmD.s:179    .text.spi_lld_init:00000000 spi_lld_init
C:\Users\danit\AppData\Local\Temp\ccE8SfmD.s:225    .text.spi_lld_init:0000002c $d
C:\Users\danit\AppData\Local\Temp\ccE8SfmD.s:235    .text.spi_lld_start:00000000 $t
C:\Users\danit\AppData\Local\Temp\ccE8SfmD.s:241    .text.spi_lld_start:00000000 spi_lld_start
C:\Users\danit\AppData\Local\Temp\ccE8SfmD.s:354    .text.spi_lld_start:00000088 $d
C:\Users\danit\AppData\Local\Temp\ccE8SfmD.s:363    .text.spi_lld_stop:00000000 $t
C:\Users\danit\AppData\Local\Temp\ccE8SfmD.s:369    .text.spi_lld_stop:00000000 spi_lld_stop
C:\Users\danit\AppData\Local\Temp\ccE8SfmD.s:423    .text.spi_lld_stop:00000034 $d
C:\Users\danit\AppData\Local\Temp\ccE8SfmD.s:429    .text.spi_lld_select:00000000 $t
C:\Users\danit\AppData\Local\Temp\ccE8SfmD.s:435    .text.spi_lld_select:00000000 spi_lld_select
C:\Users\danit\AppData\Local\Temp\ccE8SfmD.s:456    .text.spi_lld_unselect:00000000 $t
C:\Users\danit\AppData\Local\Temp\ccE8SfmD.s:462    .text.spi_lld_unselect:00000000 spi_lld_unselect
C:\Users\danit\AppData\Local\Temp\ccE8SfmD.s:483    .text.spi_lld_ignore:00000000 $t
C:\Users\danit\AppData\Local\Temp\ccE8SfmD.s:489    .text.spi_lld_ignore:00000000 spi_lld_ignore
C:\Users\danit\AppData\Local\Temp\ccE8SfmD.s:551    .text.spi_lld_ignore:00000034 $d
C:\Users\danit\AppData\Local\Temp\ccE8SfmD.s:557    .text.spi_lld_exchange:00000000 $t
C:\Users\danit\AppData\Local\Temp\ccE8SfmD.s:563    .text.spi_lld_exchange:00000000 spi_lld_exchange
C:\Users\danit\AppData\Local\Temp\ccE8SfmD.s:627    .text.spi_lld_send:00000000 $t
C:\Users\danit\AppData\Local\Temp\ccE8SfmD.s:633    .text.spi_lld_send:00000000 spi_lld_send
C:\Users\danit\AppData\Local\Temp\ccE8SfmD.s:693    .text.spi_lld_send:00000034 $d
C:\Users\danit\AppData\Local\Temp\ccE8SfmD.s:698    .text.spi_lld_receive:00000000 $t
C:\Users\danit\AppData\Local\Temp\ccE8SfmD.s:704    .text.spi_lld_receive:00000000 spi_lld_receive
C:\Users\danit\AppData\Local\Temp\ccE8SfmD.s:765    .text.spi_lld_receive:00000034 $d
C:\Users\danit\AppData\Local\Temp\ccE8SfmD.s:770    .text.spi_lld_polled_exchange:00000000 $t
C:\Users\danit\AppData\Local\Temp\ccE8SfmD.s:776    .text.spi_lld_polled_exchange:00000000 spi_lld_polled_exchange
C:\Users\danit\AppData\Local\Temp\ccE8SfmD.s:814    .bss.SPID2:00000000 SPID2
C:\Users\danit\AppData\Local\Temp\ccE8SfmD.s:803    .bss.dummytx:00000000 $d
C:\Users\danit\AppData\Local\Temp\ccE8SfmD.s:807    .bss.dummytx:00000000 dummytx
C:\Users\danit\AppData\Local\Temp\ccE8SfmD.s:810    .bss.SPID2:00000000 $d
C:\Users\danit\AppData\Local\Temp\ccE8SfmD.s:817    .bss.dummyrx:00000000 $d
C:\Users\danit\AppData\Local\Temp\ccE8SfmD.s:821    .bss.dummyrx:00000000 dummyrx
                     .debug_frame:00000010 $d

UNDEFINED SYMBOLS
port_halt
chSchReadyI
spiObjectInit
_stm32_dma_streams
dmaStreamAllocate
dmaStreamRelease
