ARM GAS  C:\Users\srich\AppData\Local\Temp\ccGsFjJ7.s 			page 1


   1              		.syntax unified
   2              		.cpu cortex-m4
   3              		.fpu softvfp
   4              		.eabi_attribute 20, 1
   5              		.eabi_attribute 21, 1
   6              		.eabi_attribute 23, 3
   7              		.eabi_attribute 24, 1
   8              		.eabi_attribute 25, 1
   9              		.eabi_attribute 26, 1
  10              		.eabi_attribute 30, 2
  11              		.eabi_attribute 34, 1
  12              		.eabi_attribute 18, 4
  13              		.thumb
  14              		.file	"syscalls.c"
  15              		.text
  16              	.Ltext0:
  17              		.cfi_sections	.debug_frame
  18              		.section	.text._read_r,"ax",%progbits
  19              		.align	2
  20              		.p2align 4,,15
  21              		.global	_read_r
  22              		.thumb
  23              		.thumb_func
  24              		.type	_read_r, %function
  25              	_read_r:
  26              	.LFB118:
  27              		.file 1 "../../../ChibiOS/os/various/syscalls.c"
  28              		.loc 1 76 0
  29              		.cfi_startproc
  30              		@ args = 0, pretend = 0, frame = 0
  31              		@ frame_needed = 0, uses_anonymous_args = 0
  32              		@ link register save eliminated.
  33              	.LVL0:
  34              		.loc 1 79 0
  35 0000 3BB1     		cbz	r3, .L2
  36              		.loc 1 79 0 is_stmt 0 discriminator 1
  37 0002 31B9     		cbnz	r1, .L2
  38              		.loc 1 83 0 is_stmt 1
  39 0004 1146     		mov	r1, r2
  40              	.LVL1:
  41 0006 0548     		ldr	r0, .L10
  42              	.LVL2:
  43 0008 1A46     		mov	r2, r3
  44              	.LVL3:
  45 000a 4FF0FF33 		mov	r3, #-1
  46              	.LVL4:
  47 000e FFF7FEBF 		b	chIQReadTimeout
  48              	.LVL5:
  49              	.L2:
  50              		.loc 1 80 0
  51 0012 1623     		movs	r3, #22
  52              	.LVL6:
  53 0014 0360     		str	r3, [r0]
  54              		.loc 1 92 0
  55 0016 4FF0FF30 		mov	r0, #-1
  56              	.LVL7:
  57 001a 7047     		bx	lr
ARM GAS  C:\Users\srich\AppData\Local\Temp\ccGsFjJ7.s 			page 2


  58              	.L11:
  59              		.align	2
  60              	.L10:
  61 001c 0C000000 		.word	SD1+12
  62              		.cfi_endproc
  63              	.LFE118:
  64              		.size	_read_r, .-_read_r
  65              		.section	.text._lseek_r,"ax",%progbits
  66              		.align	2
  67              		.p2align 4,,15
  68              		.global	_lseek_r
  69              		.thumb
  70              		.thumb_func
  71              		.type	_lseek_r, %function
  72              	_lseek_r:
  73              	.LFB119:
  74              		.loc 1 97 0
  75              		.cfi_startproc
  76              		@ args = 0, pretend = 0, frame = 0
  77              		@ frame_needed = 0, uses_anonymous_args = 0
  78              		@ link register save eliminated.
  79              	.LVL8:
  80              		.loc 1 104 0
  81 0000 0020     		movs	r0, #0
  82              	.LVL9:
  83 0002 7047     		bx	lr
  84              		.cfi_endproc
  85              	.LFE119:
  86              		.size	_lseek_r, .-_lseek_r
  87              		.section	.text._write_r,"ax",%progbits
  88              		.align	2
  89              		.p2align 4,,15
  90              		.global	_write_r
  91              		.thumb
  92              		.thumb_func
  93              		.type	_write_r, %function
  94              	_write_r:
  95              	.LFB120:
  96              		.loc 1 109 0
  97              		.cfi_startproc
  98              		@ args = 0, pretend = 0, frame = 0
  99              		@ frame_needed = 0, uses_anonymous_args = 0
 100              	.LVL10:
 101              		.loc 1 114 0
 102 0000 0129     		cmp	r1, #1
 103 0002 0AD1     		bne	.L17
 104              		.loc 1 109 0
 105 0004 10B5     		push	{r4, lr}
 106              		.cfi_def_cfa_offset 8
 107              		.cfi_offset 4, -8
 108              		.cfi_offset 14, -4
 109 0006 1146     		mov	r1, r2
 110              	.LVL11:
 111 0008 1C46     		mov	r4, r3
 112              		.loc 1 118 0
 113 000a 1A46     		mov	r2, r3
 114              	.LVL12:
ARM GAS  C:\Users\srich\AppData\Local\Temp\ccGsFjJ7.s 			page 3


 115 000c 0548     		ldr	r0, .L18
 116              	.LVL13:
 117 000e 4FF0FF33 		mov	r3, #-1
 118              	.LVL14:
 119 0012 FFF7FEFF 		bl	chOQWriteTimeout
 120              	.LVL15:
 121              		.loc 1 120 0
 122 0016 2046     		mov	r0, r4
 123              		.loc 1 121 0
 124 0018 10BD     		pop	{r4, pc}
 125              	.LVL16:
 126              	.L17:
 127              		.cfi_def_cfa_offset 0
 128              		.cfi_restore 4
 129              		.cfi_restore 14
 130              		.loc 1 115 0
 131 001a 1623     		movs	r3, #22
 132              	.LVL17:
 133 001c 0360     		str	r3, [r0]
 134              		.loc 1 116 0
 135 001e 4FF0FF30 		mov	r0, #-1
 136              	.LVL18:
 137              		.loc 1 121 0
 138 0022 7047     		bx	lr
 139              	.L19:
 140              		.align	2
 141              	.L18:
 142 0024 30000000 		.word	SD1+48
 143              		.cfi_endproc
 144              	.LFE120:
 145              		.size	_write_r, .-_write_r
 146              		.section	.text._close_r,"ax",%progbits
 147              		.align	2
 148              		.p2align 4,,15
 149              		.global	_close_r
 150              		.thumb
 151              		.thumb_func
 152              		.type	_close_r, %function
 153              	_close_r:
 154              	.LFB121:
 155              		.loc 1 126 0
 156              		.cfi_startproc
 157              		@ args = 0, pretend = 0, frame = 0
 158              		@ frame_needed = 0, uses_anonymous_args = 0
 159              		@ link register save eliminated.
 160              	.LVL19:
 161              		.loc 1 131 0
 162 0000 0020     		movs	r0, #0
 163              	.LVL20:
 164 0002 7047     		bx	lr
 165              		.cfi_endproc
 166              	.LFE121:
 167              		.size	_close_r, .-_close_r
 168              		.section	.text._sbrk_r,"ax",%progbits
 169              		.align	2
 170              		.p2align 4,,15
 171              		.global	_sbrk_r
ARM GAS  C:\Users\srich\AppData\Local\Temp\ccGsFjJ7.s 			page 4


 172              		.thumb
 173              		.thumb_func
 174              		.type	_sbrk_r, %function
 175              	_sbrk_r:
 176              	.LFB122:
 177              		.loc 1 136 0
 178              		.cfi_startproc
 179              		@ args = 0, pretend = 0, frame = 0
 180              		@ frame_needed = 0, uses_anonymous_args = 0
 181              	.LVL21:
 182 0000 10B5     		push	{r4, lr}
 183              		.cfi_def_cfa_offset 8
 184              		.cfi_offset 4, -8
 185              		.cfi_offset 14, -4
 186              		.loc 1 136 0
 187 0002 0446     		mov	r4, r0
 188              		.loc 1 142 0
 189 0004 0846     		mov	r0, r1
 190              	.LVL22:
 191 0006 FFF7FEFF 		bl	chCoreAlloc
 192              	.LVL23:
 193              		.loc 1 143 0
 194 000a 00B1     		cbz	r0, .L25
 195              		.loc 1 153 0
 196 000c 10BD     		pop	{r4, pc}
 197              	.LVL24:
 198              	.L25:
 199              		.loc 1 144 0
 200 000e 0C23     		movs	r3, #12
 201 0010 2360     		str	r3, [r4]
 202              		.loc 1 145 0
 203 0012 4FF0FF30 		mov	r0, #-1
 204              	.LVL25:
 205              		.loc 1 153 0
 206 0016 10BD     		pop	{r4, pc}
 207              		.cfi_endproc
 208              	.LFE122:
 209              		.size	_sbrk_r, .-_sbrk_r
 210              		.section	.text._fstat_r,"ax",%progbits
 211              		.align	2
 212              		.p2align 4,,15
 213              		.global	_fstat_r
 214              		.thumb
 215              		.thumb_func
 216              		.type	_fstat_r, %function
 217              	_fstat_r:
 218              	.LFB123:
 219              		.loc 1 158 0
 220              		.cfi_startproc
 221              		@ args = 0, pretend = 0, frame = 0
 222              		@ frame_needed = 0, uses_anonymous_args = 0
 223              	.LVL26:
 224 0000 10B5     		push	{r4, lr}
 225              		.cfi_def_cfa_offset 8
 226              		.cfi_offset 4, -8
 227              		.cfi_offset 14, -4
 228              		.loc 1 162 0
ARM GAS  C:\Users\srich\AppData\Local\Temp\ccGsFjJ7.s 			page 5


 229 0002 1046     		mov	r0, r2
 230              	.LVL27:
 231              		.loc 1 158 0
 232 0004 1446     		mov	r4, r2
 233              		.loc 1 162 0
 234 0006 0021     		movs	r1, #0
 235              	.LVL28:
 236 0008 3C22     		movs	r2, #60
 237              	.LVL29:
 238 000a FFF7FEFF 		bl	memset
 239              	.LVL30:
 240              		.loc 1 163 0
 241 000e 4FF40053 		mov	r3, #8192
 242 0012 6360     		str	r3, [r4, #4]
 243              		.loc 1 165 0
 244 0014 0020     		movs	r0, #0
 245 0016 10BD     		pop	{r4, pc}
 246              		.cfi_endproc
 247              	.LFE123:
 248              		.size	_fstat_r, .-_fstat_r
 249              		.section	.text._isatty_r,"ax",%progbits
 250              		.align	2
 251              		.p2align 4,,15
 252              		.global	_isatty_r
 253              		.thumb
 254              		.thumb_func
 255              		.type	_isatty_r, %function
 256              	_isatty_r:
 257              	.LFB124:
 258              		.loc 1 170 0
 259              		.cfi_startproc
 260              		@ args = 0, pretend = 0, frame = 0
 261              		@ frame_needed = 0, uses_anonymous_args = 0
 262              		@ link register save eliminated.
 263              	.LVL31:
 264              		.loc 1 175 0
 265 0000 0120     		movs	r0, #1
 266              	.LVL32:
 267 0002 7047     		bx	lr
 268              		.cfi_endproc
 269              	.LFE124:
 270              		.size	_isatty_r, .-_isatty_r
 271              		.text
 272              	.Letext0:
 273              		.file 2 "c:\\chibistudio\\tools\\gnu tools arm embedded\\4.9 2015q3\\lib\\gcc\\arm-none-eabi\\4.9.
 274              		.file 3 "c:\\chibistudio\\tools\\gnu tools arm embedded\\4.9 2015q3\\arm-none-eabi\\include\\machi
 275              		.file 4 "c:\\chibistudio\\tools\\gnu tools arm embedded\\4.9 2015q3\\arm-none-eabi\\include\\sys\\
 276              		.file 5 "c:\\chibistudio\\tools\\gnu tools arm embedded\\4.9 2015q3\\arm-none-eabi\\include\\sys\\
 277              		.file 6 "c:\\chibistudio\\tools\\gnu tools arm embedded\\4.9 2015q3\\arm-none-eabi\\include\\sys\\
 278              		.file 7 "c:\\chibistudio\\tools\\gnu tools arm embedded\\4.9 2015q3\\arm-none-eabi\\include\\sys\\
 279              		.file 8 "c:\\chibistudio\\tools\\gnu tools arm embedded\\4.9 2015q3\\arm-none-eabi\\include\\sys\\
 280              		.file 9 "c:\\chibistudio\\tools\\gnu tools arm embedded\\4.9 2015q3\\arm-none-eabi\\include\\sys\\
 281              		.file 10 "../../../ChibiOS/os/ports/GCC/ARMCMx/chtypes.h"
 282              		.file 11 "../../../ChibiOS/os/kernel/include/chlists.h"
 283              		.file 12 "../../../ChibiOS/os/kernel/include/chthreads.h"
 284              		.file 13 "../../../ChibiOS/os/ports/GCC/ARMCMx/chcore_v7m.h"
 285              		.file 14 "../../../ChibiOS/os/kernel/include/chmtx.h"
ARM GAS  C:\Users\srich\AppData\Local\Temp\ccGsFjJ7.s 			page 6


 286              		.file 15 "../../../ChibiOS/os/kernel/include/chevents.h"
 287              		.file 16 "../../../ChibiOS/os/kernel/include/chqueues.h"
 288              		.file 17 "../../../ChibiOS/os/hal/platforms/STM32F4xx/stm32f4xx.h"
 289              		.file 18 "../../../ChibiOS/os/hal/include/serial.h"
 290              		.file 19 "../../../ChibiOS/os/kernel/include/chmemcore.h"
 291              		.file 20 "../../../ChibiOS/os/ports/common/ARMCMx/CMSIS/include/core_cm4.h"
 292              		.file 21 "../../../ChibiOS/os/hal/platforms/STM32/USARTv1/serial_lld.h"
 293              		.section	.debug_info,"",%progbits
 294              	.Ldebug_info0:
 295 0000 28140000 		.4byte	0x1428
 296 0004 0400     		.2byte	0x4
 297 0006 00000000 		.4byte	.Ldebug_abbrev0
 298 000a 04       		.byte	0x4
 299 000b 01       		.uleb128 0x1
 300 000c 12050000 		.4byte	.LASF257
 301 0010 01       		.byte	0x1
 302 0011 19000000 		.4byte	.LASF258
 303 0015 3C020000 		.4byte	.LASF259
 304 0019 00000000 		.4byte	.Ldebug_ranges0+0
 305 001d 00000000 		.4byte	0
 306 0021 00000000 		.4byte	.Ldebug_line0
 307 0025 02       		.uleb128 0x2
 308 0026 F0020000 		.4byte	.LASF2
 309 002a 02       		.byte	0x2
 310 002b D4       		.byte	0xd4
 311 002c 30000000 		.4byte	0x30
 312 0030 03       		.uleb128 0x3
 313 0031 04       		.byte	0x4
 314 0032 07       		.byte	0x7
 315 0033 AA000000 		.4byte	.LASF0
 316 0037 04       		.uleb128 0x4
 317 0038 04       		.byte	0x4
 318 0039 05       		.byte	0x5
 319 003a 696E7400 		.ascii	"int\000"
 320 003e 03       		.uleb128 0x3
 321 003f 01       		.byte	0x1
 322 0040 06       		.byte	0x6
 323 0041 6E090000 		.4byte	.LASF1
 324 0045 02       		.uleb128 0x2
 325 0046 DC070000 		.4byte	.LASF3
 326 004a 03       		.byte	0x3
 327 004b 1D       		.byte	0x1d
 328 004c 50000000 		.4byte	0x50
 329 0050 03       		.uleb128 0x3
 330 0051 01       		.byte	0x1
 331 0052 08       		.byte	0x8
 332 0053 B6080000 		.4byte	.LASF4
 333 0057 03       		.uleb128 0x3
 334 0058 02       		.byte	0x2
 335 0059 05       		.byte	0x5
 336 005a 34070000 		.4byte	.LASF5
 337 005e 02       		.uleb128 0x2
 338 005f 7F020000 		.4byte	.LASF6
 339 0063 03       		.byte	0x3
 340 0064 2B       		.byte	0x2b
 341 0065 69000000 		.4byte	0x69
 342 0069 03       		.uleb128 0x3
ARM GAS  C:\Users\srich\AppData\Local\Temp\ccGsFjJ7.s 			page 7


 343 006a 02       		.byte	0x2
 344 006b 07       		.byte	0x7
 345 006c 88060000 		.4byte	.LASF7
 346 0070 02       		.uleb128 0x2
 347 0071 E4000000 		.4byte	.LASF8
 348 0075 03       		.byte	0x3
 349 0076 3F       		.byte	0x3f
 350 0077 7B000000 		.4byte	0x7b
 351 007b 03       		.uleb128 0x3
 352 007c 04       		.byte	0x4
 353 007d 05       		.byte	0x5
 354 007e 51070000 		.4byte	.LASF9
 355 0082 02       		.uleb128 0x2
 356 0083 C4080000 		.4byte	.LASF10
 357 0087 03       		.byte	0x3
 358 0088 41       		.byte	0x41
 359 0089 8D000000 		.4byte	0x8d
 360 008d 03       		.uleb128 0x3
 361 008e 04       		.byte	0x4
 362 008f 07       		.byte	0x7
 363 0090 69080000 		.4byte	.LASF11
 364 0094 03       		.uleb128 0x3
 365 0095 08       		.byte	0x8
 366 0096 05       		.byte	0x5
 367 0097 9F040000 		.4byte	.LASF12
 368 009b 03       		.uleb128 0x3
 369 009c 08       		.byte	0x8
 370 009d 07       		.byte	0x7
 371 009e 01020000 		.4byte	.LASF13
 372 00a2 02       		.uleb128 0x2
 373 00a3 D6080000 		.4byte	.LASF14
 374 00a7 04       		.byte	0x4
 375 00a8 07       		.byte	0x7
 376 00a9 37000000 		.4byte	0x37
 377 00ad 02       		.uleb128 0x2
 378 00ae B7090000 		.4byte	.LASF15
 379 00b2 05       		.byte	0x5
 380 00b3 10       		.byte	0x10
 381 00b4 7B000000 		.4byte	0x7b
 382 00b8 02       		.uleb128 0x2
 383 00b9 CC040000 		.4byte	.LASF16
 384 00bd 05       		.byte	0x5
 385 00be 14       		.byte	0x14
 386 00bf 57000000 		.4byte	0x57
 387 00c3 02       		.uleb128 0x2
 388 00c4 12090000 		.4byte	.LASF17
 389 00c8 05       		.byte	0x5
 390 00c9 18       		.byte	0x18
 391 00ca 69000000 		.4byte	0x69
 392 00ce 02       		.uleb128 0x2
 393 00cf A2060000 		.4byte	.LASF18
 394 00d3 05       		.byte	0x5
 395 00d4 1B       		.byte	0x1b
 396 00d5 69000000 		.4byte	0x69
 397 00d9 02       		.uleb128 0x2
 398 00da 42010000 		.4byte	.LASF19
 399 00de 05       		.byte	0x5
ARM GAS  C:\Users\srich\AppData\Local\Temp\ccGsFjJ7.s 			page 8


 400 00df 27       		.byte	0x27
 401 00e0 7B000000 		.4byte	0x7b
 402 00e4 05       		.uleb128 0x5
 403 00e5 82080000 		.4byte	.LASF20
 404 00e9 02       		.byte	0x2
 405 00ea 6101     		.2byte	0x161
 406 00ec 30000000 		.4byte	0x30
 407 00f0 06       		.uleb128 0x6
 408 00f1 04       		.byte	0x4
 409 00f2 05       		.byte	0x5
 410 00f3 4A       		.byte	0x4a
 411 00f4 0F010000 		.4byte	0x10f
 412 00f8 07       		.uleb128 0x7
 413 00f9 37040000 		.4byte	.LASF21
 414 00fd 05       		.byte	0x5
 415 00fe 4C       		.byte	0x4c
 416 00ff E4000000 		.4byte	0xe4
 417 0103 07       		.uleb128 0x7
 418 0104 A1070000 		.4byte	.LASF22
 419 0108 05       		.byte	0x5
 420 0109 4D       		.byte	0x4d
 421 010a 0F010000 		.4byte	0x10f
 422 010e 00       		.byte	0
 423 010f 08       		.uleb128 0x8
 424 0110 50000000 		.4byte	0x50
 425 0114 1F010000 		.4byte	0x11f
 426 0118 09       		.uleb128 0x9
 427 0119 1F010000 		.4byte	0x11f
 428 011d 03       		.byte	0x3
 429 011e 00       		.byte	0
 430 011f 03       		.uleb128 0x3
 431 0120 04       		.byte	0x4
 432 0121 07       		.byte	0x7
 433 0122 4A080000 		.4byte	.LASF23
 434 0126 0A       		.uleb128 0xa
 435 0127 08       		.byte	0x8
 436 0128 05       		.byte	0x5
 437 0129 47       		.byte	0x47
 438 012a 47010000 		.4byte	0x147
 439 012e 0B       		.uleb128 0xb
 440 012f B6010000 		.4byte	.LASF24
 441 0133 05       		.byte	0x5
 442 0134 49       		.byte	0x49
 443 0135 37000000 		.4byte	0x37
 444 0139 00       		.byte	0
 445 013a 0B       		.uleb128 0xb
 446 013b 80030000 		.4byte	.LASF25
 447 013f 05       		.byte	0x5
 448 0140 4E       		.byte	0x4e
 449 0141 F0000000 		.4byte	0xf0
 450 0145 04       		.byte	0x4
 451 0146 00       		.byte	0
 452 0147 02       		.uleb128 0x2
 453 0148 EC050000 		.4byte	.LASF26
 454 014c 05       		.byte	0x5
 455 014d 4F       		.byte	0x4f
 456 014e 26010000 		.4byte	0x126
ARM GAS  C:\Users\srich\AppData\Local\Temp\ccGsFjJ7.s 			page 9


 457 0152 02       		.uleb128 0x2
 458 0153 0C060000 		.4byte	.LASF27
 459 0157 05       		.byte	0x5
 460 0158 53       		.byte	0x53
 461 0159 A2000000 		.4byte	0xa2
 462 015d 0C       		.uleb128 0xc
 463 015e 04       		.byte	0x4
 464 015f 02       		.uleb128 0x2
 465 0160 24010000 		.4byte	.LASF28
 466 0164 06       		.byte	0x6
 467 0165 16       		.byte	0x16
 468 0166 8D000000 		.4byte	0x8d
 469 016a 0D       		.uleb128 0xd
 470 016b 77010000 		.4byte	.LASF33
 471 016f 18       		.byte	0x18
 472 0170 06       		.byte	0x6
 473 0171 2D       		.byte	0x2d
 474 0172 BD010000 		.4byte	0x1bd
 475 0176 0B       		.uleb128 0xb
 476 0177 38030000 		.4byte	.LASF29
 477 017b 06       		.byte	0x6
 478 017c 2F       		.byte	0x2f
 479 017d BD010000 		.4byte	0x1bd
 480 0181 00       		.byte	0
 481 0182 0E       		.uleb128 0xe
 482 0183 5F6B00   		.ascii	"_k\000"
 483 0186 06       		.byte	0x6
 484 0187 30       		.byte	0x30
 485 0188 37000000 		.4byte	0x37
 486 018c 04       		.byte	0x4
 487 018d 0B       		.uleb128 0xb
 488 018e D0020000 		.4byte	.LASF30
 489 0192 06       		.byte	0x6
 490 0193 30       		.byte	0x30
 491 0194 37000000 		.4byte	0x37
 492 0198 08       		.byte	0x8
 493 0199 0B       		.uleb128 0xb
 494 019a 6C070000 		.4byte	.LASF31
 495 019e 06       		.byte	0x6
 496 019f 30       		.byte	0x30
 497 01a0 37000000 		.4byte	0x37
 498 01a4 0C       		.byte	0xc
 499 01a5 0B       		.uleb128 0xb
 500 01a6 37020000 		.4byte	.LASF32
 501 01aa 06       		.byte	0x6
 502 01ab 30       		.byte	0x30
 503 01ac 37000000 		.4byte	0x37
 504 01b0 10       		.byte	0x10
 505 01b1 0E       		.uleb128 0xe
 506 01b2 5F7800   		.ascii	"_x\000"
 507 01b5 06       		.byte	0x6
 508 01b6 31       		.byte	0x31
 509 01b7 C3010000 		.4byte	0x1c3
 510 01bb 14       		.byte	0x14
 511 01bc 00       		.byte	0
 512 01bd 0F       		.uleb128 0xf
 513 01be 04       		.byte	0x4
ARM GAS  C:\Users\srich\AppData\Local\Temp\ccGsFjJ7.s 			page 10


 514 01bf 6A010000 		.4byte	0x16a
 515 01c3 08       		.uleb128 0x8
 516 01c4 5F010000 		.4byte	0x15f
 517 01c8 D3010000 		.4byte	0x1d3
 518 01cc 09       		.uleb128 0x9
 519 01cd 1F010000 		.4byte	0x11f
 520 01d1 00       		.byte	0
 521 01d2 00       		.byte	0
 522 01d3 0D       		.uleb128 0xd
 523 01d4 33080000 		.4byte	.LASF34
 524 01d8 24       		.byte	0x24
 525 01d9 06       		.byte	0x6
 526 01da 35       		.byte	0x35
 527 01db 4C020000 		.4byte	0x24c
 528 01df 0B       		.uleb128 0xb
 529 01e0 FE020000 		.4byte	.LASF35
 530 01e4 06       		.byte	0x6
 531 01e5 37       		.byte	0x37
 532 01e6 37000000 		.4byte	0x37
 533 01ea 00       		.byte	0
 534 01eb 0B       		.uleb128 0xb
 535 01ec 91080000 		.4byte	.LASF36
 536 01f0 06       		.byte	0x6
 537 01f1 38       		.byte	0x38
 538 01f2 37000000 		.4byte	0x37
 539 01f6 04       		.byte	0x4
 540 01f7 0B       		.uleb128 0xb
 541 01f8 96010000 		.4byte	.LASF37
 542 01fc 06       		.byte	0x6
 543 01fd 39       		.byte	0x39
 544 01fe 37000000 		.4byte	0x37
 545 0202 08       		.byte	0x8
 546 0203 0B       		.uleb128 0xb
 547 0204 C4030000 		.4byte	.LASF38
 548 0208 06       		.byte	0x6
 549 0209 3A       		.byte	0x3a
 550 020a 37000000 		.4byte	0x37
 551 020e 0C       		.byte	0xc
 552 020f 0B       		.uleb128 0xb
 553 0210 76060000 		.4byte	.LASF39
 554 0214 06       		.byte	0x6
 555 0215 3B       		.byte	0x3b
 556 0216 37000000 		.4byte	0x37
 557 021a 10       		.byte	0x10
 558 021b 0B       		.uleb128 0xb
 559 021c AE070000 		.4byte	.LASF40
 560 0220 06       		.byte	0x6
 561 0221 3C       		.byte	0x3c
 562 0222 37000000 		.4byte	0x37
 563 0226 14       		.byte	0x14
 564 0227 0B       		.uleb128 0xb
 565 0228 63010000 		.4byte	.LASF41
 566 022c 06       		.byte	0x6
 567 022d 3D       		.byte	0x3d
 568 022e 37000000 		.4byte	0x37
 569 0232 18       		.byte	0x18
 570 0233 0B       		.uleb128 0xb
ARM GAS  C:\Users\srich\AppData\Local\Temp\ccGsFjJ7.s 			page 11


 571 0234 14030000 		.4byte	.LASF42
 572 0238 06       		.byte	0x6
 573 0239 3E       		.byte	0x3e
 574 023a 37000000 		.4byte	0x37
 575 023e 1C       		.byte	0x1c
 576 023f 0B       		.uleb128 0xb
 577 0240 15060000 		.4byte	.LASF43
 578 0244 06       		.byte	0x6
 579 0245 3F       		.byte	0x3f
 580 0246 37000000 		.4byte	0x37
 581 024a 20       		.byte	0x20
 582 024b 00       		.byte	0
 583 024c 10       		.uleb128 0x10
 584 024d 57000000 		.4byte	.LASF44
 585 0251 0801     		.2byte	0x108
 586 0253 06       		.byte	0x6
 587 0254 48       		.byte	0x48
 588 0255 8C020000 		.4byte	0x28c
 589 0259 0B       		.uleb128 0xb
 590 025a 66090000 		.4byte	.LASF45
 591 025e 06       		.byte	0x6
 592 025f 49       		.byte	0x49
 593 0260 8C020000 		.4byte	0x28c
 594 0264 00       		.byte	0
 595 0265 0B       		.uleb128 0xb
 596 0266 9A080000 		.4byte	.LASF46
 597 026a 06       		.byte	0x6
 598 026b 4A       		.byte	0x4a
 599 026c 8C020000 		.4byte	0x28c
 600 0270 80       		.byte	0x80
 601 0271 11       		.uleb128 0x11
 602 0272 9E090000 		.4byte	.LASF47
 603 0276 06       		.byte	0x6
 604 0277 4C       		.byte	0x4c
 605 0278 5F010000 		.4byte	0x15f
 606 027c 0001     		.2byte	0x100
 607 027e 11       		.uleb128 0x11
 608 027f E1090000 		.4byte	.LASF48
 609 0283 06       		.byte	0x6
 610 0284 4F       		.byte	0x4f
 611 0285 5F010000 		.4byte	0x15f
 612 0289 0401     		.2byte	0x104
 613 028b 00       		.byte	0
 614 028c 08       		.uleb128 0x8
 615 028d 5D010000 		.4byte	0x15d
 616 0291 9C020000 		.4byte	0x29c
 617 0295 09       		.uleb128 0x9
 618 0296 1F010000 		.4byte	0x11f
 619 029a 1F       		.byte	0x1f
 620 029b 00       		.byte	0
 621 029c 10       		.uleb128 0x10
 622 029d DF060000 		.4byte	.LASF49
 623 02a1 9001     		.2byte	0x190
 624 02a3 06       		.byte	0x6
 625 02a4 5B       		.byte	0x5b
 626 02a5 DA020000 		.4byte	0x2da
 627 02a9 0B       		.uleb128 0xb
ARM GAS  C:\Users\srich\AppData\Local\Temp\ccGsFjJ7.s 			page 12


 628 02aa 38030000 		.4byte	.LASF29
 629 02ae 06       		.byte	0x6
 630 02af 5C       		.byte	0x5c
 631 02b0 DA020000 		.4byte	0x2da
 632 02b4 00       		.byte	0
 633 02b5 0B       		.uleb128 0xb
 634 02b6 2A060000 		.4byte	.LASF50
 635 02ba 06       		.byte	0x6
 636 02bb 5D       		.byte	0x5d
 637 02bc 37000000 		.4byte	0x37
 638 02c0 04       		.byte	0x4
 639 02c1 0B       		.uleb128 0xb
 640 02c2 4A010000 		.4byte	.LASF51
 641 02c6 06       		.byte	0x6
 642 02c7 5F       		.byte	0x5f
 643 02c8 E0020000 		.4byte	0x2e0
 644 02cc 08       		.byte	0x8
 645 02cd 0B       		.uleb128 0xb
 646 02ce 57000000 		.4byte	.LASF44
 647 02d2 06       		.byte	0x6
 648 02d3 60       		.byte	0x60
 649 02d4 4C020000 		.4byte	0x24c
 650 02d8 88       		.byte	0x88
 651 02d9 00       		.byte	0
 652 02da 0F       		.uleb128 0xf
 653 02db 04       		.byte	0x4
 654 02dc 9C020000 		.4byte	0x29c
 655 02e0 08       		.uleb128 0x8
 656 02e1 F0020000 		.4byte	0x2f0
 657 02e5 F0020000 		.4byte	0x2f0
 658 02e9 09       		.uleb128 0x9
 659 02ea 1F010000 		.4byte	0x11f
 660 02ee 1F       		.byte	0x1f
 661 02ef 00       		.byte	0
 662 02f0 0F       		.uleb128 0xf
 663 02f1 04       		.byte	0x4
 664 02f2 F6020000 		.4byte	0x2f6
 665 02f6 12       		.uleb128 0x12
 666 02f7 0D       		.uleb128 0xd
 667 02f8 B3060000 		.4byte	.LASF52
 668 02fc 08       		.byte	0x8
 669 02fd 06       		.byte	0x6
 670 02fe 73       		.byte	0x73
 671 02ff 1C030000 		.4byte	0x31c
 672 0303 0B       		.uleb128 0xb
 673 0304 BC040000 		.4byte	.LASF53
 674 0308 06       		.byte	0x6
 675 0309 74       		.byte	0x74
 676 030a 1C030000 		.4byte	0x31c
 677 030e 00       		.byte	0
 678 030f 0B       		.uleb128 0xb
 679 0310 A7090000 		.4byte	.LASF54
 680 0314 06       		.byte	0x6
 681 0315 75       		.byte	0x75
 682 0316 37000000 		.4byte	0x37
 683 031a 04       		.byte	0x4
 684 031b 00       		.byte	0
ARM GAS  C:\Users\srich\AppData\Local\Temp\ccGsFjJ7.s 			page 13


 685 031c 0F       		.uleb128 0xf
 686 031d 04       		.byte	0x4
 687 031e 50000000 		.4byte	0x50
 688 0322 0D       		.uleb128 0xd
 689 0323 2F020000 		.4byte	.LASF55
 690 0327 68       		.byte	0x68
 691 0328 06       		.byte	0x6
 692 0329 B3       		.byte	0xb3
 693 032a 4C040000 		.4byte	0x44c
 694 032e 0E       		.uleb128 0xe
 695 032f 5F7000   		.ascii	"_p\000"
 696 0332 06       		.byte	0x6
 697 0333 B4       		.byte	0xb4
 698 0334 1C030000 		.4byte	0x31c
 699 0338 00       		.byte	0
 700 0339 0E       		.uleb128 0xe
 701 033a 5F7200   		.ascii	"_r\000"
 702 033d 06       		.byte	0x6
 703 033e B5       		.byte	0xb5
 704 033f 37000000 		.4byte	0x37
 705 0343 04       		.byte	0x4
 706 0344 0E       		.uleb128 0xe
 707 0345 5F7700   		.ascii	"_w\000"
 708 0348 06       		.byte	0x6
 709 0349 B6       		.byte	0xb6
 710 034a 37000000 		.4byte	0x37
 711 034e 08       		.byte	0x8
 712 034f 0B       		.uleb128 0xb
 713 0350 CB000000 		.4byte	.LASF56
 714 0354 06       		.byte	0x6
 715 0355 B7       		.byte	0xb7
 716 0356 57000000 		.4byte	0x57
 717 035a 0C       		.byte	0xc
 718 035b 0B       		.uleb128 0xb
 719 035c FD040000 		.4byte	.LASF57
 720 0360 06       		.byte	0x6
 721 0361 B8       		.byte	0xb8
 722 0362 57000000 		.4byte	0x57
 723 0366 0E       		.byte	0xe
 724 0367 0E       		.uleb128 0xe
 725 0368 5F626600 		.ascii	"_bf\000"
 726 036c 06       		.byte	0x6
 727 036d B9       		.byte	0xb9
 728 036e F7020000 		.4byte	0x2f7
 729 0372 10       		.byte	0x10
 730 0373 0B       		.uleb128 0xb
 731 0374 C2000000 		.4byte	.LASF58
 732 0378 06       		.byte	0x6
 733 0379 BA       		.byte	0xba
 734 037a 37000000 		.4byte	0x37
 735 037e 18       		.byte	0x18
 736 037f 0B       		.uleb128 0xb
 737 0380 4F010000 		.4byte	.LASF59
 738 0384 06       		.byte	0x6
 739 0385 C1       		.byte	0xc1
 740 0386 5D010000 		.4byte	0x15d
 741 038a 1C       		.byte	0x1c
ARM GAS  C:\Users\srich\AppData\Local\Temp\ccGsFjJ7.s 			page 14


 742 038b 0B       		.uleb128 0xb
 743 038c ED080000 		.4byte	.LASF60
 744 0390 06       		.byte	0x6
 745 0391 C3       		.byte	0xc3
 746 0392 AF050000 		.4byte	0x5af
 747 0396 20       		.byte	0x20
 748 0397 0B       		.uleb128 0xb
 749 0398 C1060000 		.4byte	.LASF61
 750 039c 06       		.byte	0x6
 751 039d C5       		.byte	0xc5
 752 039e DE050000 		.4byte	0x5de
 753 03a2 24       		.byte	0x24
 754 03a3 0B       		.uleb128 0xb
 755 03a4 150A0000 		.4byte	.LASF62
 756 03a8 06       		.byte	0x6
 757 03a9 C8       		.byte	0xc8
 758 03aa 02060000 		.4byte	0x602
 759 03ae 28       		.byte	0x28
 760 03af 0B       		.uleb128 0xb
 761 03b0 58040000 		.4byte	.LASF63
 762 03b4 06       		.byte	0x6
 763 03b5 C9       		.byte	0xc9
 764 03b6 1C060000 		.4byte	0x61c
 765 03ba 2C       		.byte	0x2c
 766 03bb 0E       		.uleb128 0xe
 767 03bc 5F756200 		.ascii	"_ub\000"
 768 03c0 06       		.byte	0x6
 769 03c1 CC       		.byte	0xcc
 770 03c2 F7020000 		.4byte	0x2f7
 771 03c6 30       		.byte	0x30
 772 03c7 0E       		.uleb128 0xe
 773 03c8 5F757000 		.ascii	"_up\000"
 774 03cc 06       		.byte	0x6
 775 03cd CD       		.byte	0xcd
 776 03ce 1C030000 		.4byte	0x31c
 777 03d2 38       		.byte	0x38
 778 03d3 0E       		.uleb128 0xe
 779 03d4 5F757200 		.ascii	"_ur\000"
 780 03d8 06       		.byte	0x6
 781 03d9 CE       		.byte	0xce
 782 03da 37000000 		.4byte	0x37
 783 03de 3C       		.byte	0x3c
 784 03df 0B       		.uleb128 0xb
 785 03e0 A2020000 		.4byte	.LASF64
 786 03e4 06       		.byte	0x6
 787 03e5 D1       		.byte	0xd1
 788 03e6 22060000 		.4byte	0x622
 789 03ea 40       		.byte	0x40
 790 03eb 0B       		.uleb128 0xb
 791 03ec BE090000 		.4byte	.LASF65
 792 03f0 06       		.byte	0x6
 793 03f1 D2       		.byte	0xd2
 794 03f2 32060000 		.4byte	0x632
 795 03f6 43       		.byte	0x43
 796 03f7 0E       		.uleb128 0xe
 797 03f8 5F6C6200 		.ascii	"_lb\000"
 798 03fc 06       		.byte	0x6
ARM GAS  C:\Users\srich\AppData\Local\Temp\ccGsFjJ7.s 			page 15


 799 03fd D5       		.byte	0xd5
 800 03fe F7020000 		.4byte	0x2f7
 801 0402 44       		.byte	0x44
 802 0403 0B       		.uleb128 0xb
 803 0404 20080000 		.4byte	.LASF66
 804 0408 06       		.byte	0x6
 805 0409 D8       		.byte	0xd8
 806 040a 37000000 		.4byte	0x37
 807 040e 4C       		.byte	0x4c
 808 040f 0B       		.uleb128 0xb
 809 0410 9A020000 		.4byte	.LASF67
 810 0414 06       		.byte	0x6
 811 0415 D9       		.byte	0xd9
 812 0416 AD000000 		.4byte	0xad
 813 041a 50       		.byte	0x50
 814 041b 0B       		.uleb128 0xb
 815 041c 89070000 		.4byte	.LASF68
 816 0420 06       		.byte	0x6
 817 0421 DC       		.byte	0xdc
 818 0422 6A040000 		.4byte	0x46a
 819 0426 54       		.byte	0x54
 820 0427 0B       		.uleb128 0xb
 821 0428 3D080000 		.4byte	.LASF69
 822 042c 06       		.byte	0x6
 823 042d E0       		.byte	0xe0
 824 042e 52010000 		.4byte	0x152
 825 0432 58       		.byte	0x58
 826 0433 0B       		.uleb128 0xb
 827 0434 1B010000 		.4byte	.LASF70
 828 0438 06       		.byte	0x6
 829 0439 E2       		.byte	0xe2
 830 043a 47010000 		.4byte	0x147
 831 043e 5C       		.byte	0x5c
 832 043f 0B       		.uleb128 0xb
 833 0440 D9090000 		.4byte	.LASF71
 834 0444 06       		.byte	0x6
 835 0445 E3       		.byte	0xe3
 836 0446 37000000 		.4byte	0x37
 837 044a 64       		.byte	0x64
 838 044b 00       		.byte	0
 839 044c 13       		.uleb128 0x13
 840 044d 37000000 		.4byte	0x37
 841 0451 6A040000 		.4byte	0x46a
 842 0455 14       		.uleb128 0x14
 843 0456 6A040000 		.4byte	0x46a
 844 045a 14       		.uleb128 0x14
 845 045b 5D010000 		.4byte	0x15d
 846 045f 14       		.uleb128 0x14
 847 0460 A2050000 		.4byte	0x5a2
 848 0464 14       		.uleb128 0x14
 849 0465 37000000 		.4byte	0x37
 850 0469 00       		.byte	0
 851 046a 0F       		.uleb128 0xf
 852 046b 04       		.byte	0x4
 853 046c 70040000 		.4byte	0x470
 854 0470 15       		.uleb128 0x15
 855 0471 81090000 		.4byte	.LASF72
ARM GAS  C:\Users\srich\AppData\Local\Temp\ccGsFjJ7.s 			page 16


 856 0475 2804     		.2byte	0x428
 857 0477 06       		.byte	0x6
 858 0478 3902     		.2byte	0x239
 859 047a A2050000 		.4byte	0x5a2
 860 047e 16       		.uleb128 0x16
 861 047f EE000000 		.4byte	.LASF73
 862 0483 06       		.byte	0x6
 863 0484 3B02     		.2byte	0x23b
 864 0486 37000000 		.4byte	0x37
 865 048a 00       		.byte	0
 866 048b 16       		.uleb128 0x16
 867 048c 89040000 		.4byte	.LASF74
 868 0490 06       		.byte	0x6
 869 0491 4002     		.2byte	0x240
 870 0493 89060000 		.4byte	0x689
 871 0497 04       		.byte	0x4
 872 0498 16       		.uleb128 0x16
 873 0499 3A010000 		.4byte	.LASF75
 874 049d 06       		.byte	0x6
 875 049e 4002     		.2byte	0x240
 876 04a0 89060000 		.4byte	0x689
 877 04a4 08       		.byte	0x8
 878 04a5 16       		.uleb128 0x16
 879 04a6 1B0A0000 		.4byte	.LASF76
 880 04aa 06       		.byte	0x6
 881 04ab 4002     		.2byte	0x240
 882 04ad 89060000 		.4byte	0x689
 883 04b1 0C       		.byte	0xc
 884 04b2 16       		.uleb128 0x16
 885 04b3 1E030000 		.4byte	.LASF77
 886 04b7 06       		.byte	0x6
 887 04b8 4202     		.2byte	0x242
 888 04ba 37000000 		.4byte	0x37
 889 04be 10       		.byte	0x10
 890 04bf 16       		.uleb128 0x16
 891 04c0 C5020000 		.4byte	.LASF78
 892 04c4 06       		.byte	0x6
 893 04c5 4302     		.2byte	0x243
 894 04c7 6B080000 		.4byte	0x86b
 895 04cb 14       		.byte	0x14
 896 04cc 16       		.uleb128 0x16
 897 04cd 8F070000 		.4byte	.LASF79
 898 04d1 06       		.byte	0x6
 899 04d2 4502     		.2byte	0x245
 900 04d4 37000000 		.4byte	0x37
 901 04d8 30       		.byte	0x30
 902 04d9 16       		.uleb128 0x16
 903 04da 72070000 		.4byte	.LASF80
 904 04de 06       		.byte	0x6
 905 04df 4602     		.2byte	0x246
 906 04e1 D3050000 		.4byte	0x5d3
 907 04e5 34       		.byte	0x34
 908 04e6 16       		.uleb128 0x16
 909 04e7 71040000 		.4byte	.LASF81
 910 04eb 06       		.byte	0x6
 911 04ec 4802     		.2byte	0x248
 912 04ee 37000000 		.4byte	0x37
ARM GAS  C:\Users\srich\AppData\Local\Temp\ccGsFjJ7.s 			page 17


 913 04f2 38       		.byte	0x38
 914 04f3 16       		.uleb128 0x16
 915 04f4 6D010000 		.4byte	.LASF82
 916 04f8 06       		.byte	0x6
 917 04f9 4A02     		.2byte	0x24a
 918 04fb 86080000 		.4byte	0x886
 919 04ff 3C       		.byte	0x3c
 920 0500 16       		.uleb128 0x16
 921 0501 7F010000 		.4byte	.LASF83
 922 0505 06       		.byte	0x6
 923 0506 4D02     		.2byte	0x24d
 924 0508 BD010000 		.4byte	0x1bd
 925 050c 40       		.byte	0x40
 926 050d 16       		.uleb128 0x16
 927 050e 08040000 		.4byte	.LASF84
 928 0512 06       		.byte	0x6
 929 0513 4E02     		.2byte	0x24e
 930 0515 37000000 		.4byte	0x37
 931 0519 44       		.byte	0x44
 932 051a 16       		.uleb128 0x16
 933 051b 88030000 		.4byte	.LASF85
 934 051f 06       		.byte	0x6
 935 0520 4F02     		.2byte	0x24f
 936 0522 BD010000 		.4byte	0x1bd
 937 0526 48       		.byte	0x48
 938 0527 16       		.uleb128 0x16
 939 0528 C2040000 		.4byte	.LASF86
 940 052c 06       		.byte	0x6
 941 052d 5002     		.2byte	0x250
 942 052f 8C080000 		.4byte	0x88c
 943 0533 4C       		.byte	0x4c
 944 0534 16       		.uleb128 0x16
 945 0535 EB070000 		.4byte	.LASF87
 946 0539 06       		.byte	0x6
 947 053a 5302     		.2byte	0x253
 948 053c 37000000 		.4byte	0x37
 949 0540 50       		.byte	0x50
 950 0541 16       		.uleb128 0x16
 951 0542 AE080000 		.4byte	.LASF88
 952 0546 06       		.byte	0x6
 953 0547 5402     		.2byte	0x254
 954 0549 A2050000 		.4byte	0x5a2
 955 054d 54       		.byte	0x54
 956 054e 16       		.uleb128 0x16
 957 054f E6070000 		.4byte	.LASF89
 958 0553 06       		.byte	0x6
 959 0554 7702     		.2byte	0x277
 960 0556 49080000 		.4byte	0x849
 961 055a 58       		.byte	0x58
 962 055b 17       		.uleb128 0x17
 963 055c DF060000 		.4byte	.LASF49
 964 0560 06       		.byte	0x6
 965 0561 7B02     		.2byte	0x27b
 966 0563 DA020000 		.4byte	0x2da
 967 0567 4801     		.2byte	0x148
 968 0569 17       		.uleb128 0x17
 969 056a E7030000 		.4byte	.LASF90
ARM GAS  C:\Users\srich\AppData\Local\Temp\ccGsFjJ7.s 			page 18


 970 056e 06       		.byte	0x6
 971 056f 7C02     		.2byte	0x27c
 972 0571 9C020000 		.4byte	0x29c
 973 0575 4C01     		.2byte	0x14c
 974 0577 17       		.uleb128 0x17
 975 0578 CE030000 		.4byte	.LASF91
 976 057c 06       		.byte	0x6
 977 057d 8002     		.2byte	0x280
 978 057f 9D080000 		.4byte	0x89d
 979 0583 DC02     		.2byte	0x2dc
 980 0585 17       		.uleb128 0x17
 981 0586 28090000 		.4byte	.LASF92
 982 058a 06       		.byte	0x6
 983 058b 8502     		.2byte	0x285
 984 058d 4E060000 		.4byte	0x64e
 985 0591 E002     		.2byte	0x2e0
 986 0593 17       		.uleb128 0x17
 987 0594 67070000 		.4byte	.LASF93
 988 0598 06       		.byte	0x6
 989 0599 8602     		.2byte	0x286
 990 059b A9080000 		.4byte	0x8a9
 991 059f EC02     		.2byte	0x2ec
 992 05a1 00       		.byte	0
 993 05a2 0F       		.uleb128 0xf
 994 05a3 04       		.byte	0x4
 995 05a4 A8050000 		.4byte	0x5a8
 996 05a8 03       		.uleb128 0x3
 997 05a9 01       		.byte	0x1
 998 05aa 08       		.byte	0x8
 999 05ab BF030000 		.4byte	.LASF94
 1000 05af 0F       		.uleb128 0xf
 1001 05b0 04       		.byte	0x4
 1002 05b1 4C040000 		.4byte	0x44c
 1003 05b5 13       		.uleb128 0x13
 1004 05b6 37000000 		.4byte	0x37
 1005 05ba D3050000 		.4byte	0x5d3
 1006 05be 14       		.uleb128 0x14
 1007 05bf 6A040000 		.4byte	0x46a
 1008 05c3 14       		.uleb128 0x14
 1009 05c4 5D010000 		.4byte	0x15d
 1010 05c8 14       		.uleb128 0x14
 1011 05c9 D3050000 		.4byte	0x5d3
 1012 05cd 14       		.uleb128 0x14
 1013 05ce 37000000 		.4byte	0x37
 1014 05d2 00       		.byte	0
 1015 05d3 0F       		.uleb128 0xf
 1016 05d4 04       		.byte	0x4
 1017 05d5 D9050000 		.4byte	0x5d9
 1018 05d9 18       		.uleb128 0x18
 1019 05da A8050000 		.4byte	0x5a8
 1020 05de 0F       		.uleb128 0xf
 1021 05df 04       		.byte	0x4
 1022 05e0 B5050000 		.4byte	0x5b5
 1023 05e4 13       		.uleb128 0x13
 1024 05e5 D9000000 		.4byte	0xd9
 1025 05e9 02060000 		.4byte	0x602
 1026 05ed 14       		.uleb128 0x14
ARM GAS  C:\Users\srich\AppData\Local\Temp\ccGsFjJ7.s 			page 19


 1027 05ee 6A040000 		.4byte	0x46a
 1028 05f2 14       		.uleb128 0x14
 1029 05f3 5D010000 		.4byte	0x15d
 1030 05f7 14       		.uleb128 0x14
 1031 05f8 D9000000 		.4byte	0xd9
 1032 05fc 14       		.uleb128 0x14
 1033 05fd 37000000 		.4byte	0x37
 1034 0601 00       		.byte	0
 1035 0602 0F       		.uleb128 0xf
 1036 0603 04       		.byte	0x4
 1037 0604 E4050000 		.4byte	0x5e4
 1038 0608 13       		.uleb128 0x13
 1039 0609 37000000 		.4byte	0x37
 1040 060d 1C060000 		.4byte	0x61c
 1041 0611 14       		.uleb128 0x14
 1042 0612 6A040000 		.4byte	0x46a
 1043 0616 14       		.uleb128 0x14
 1044 0617 5D010000 		.4byte	0x15d
 1045 061b 00       		.byte	0
 1046 061c 0F       		.uleb128 0xf
 1047 061d 04       		.byte	0x4
 1048 061e 08060000 		.4byte	0x608
 1049 0622 08       		.uleb128 0x8
 1050 0623 50000000 		.4byte	0x50
 1051 0627 32060000 		.4byte	0x632
 1052 062b 09       		.uleb128 0x9
 1053 062c 1F010000 		.4byte	0x11f
 1054 0630 02       		.byte	0x2
 1055 0631 00       		.byte	0
 1056 0632 08       		.uleb128 0x8
 1057 0633 50000000 		.4byte	0x50
 1058 0637 42060000 		.4byte	0x642
 1059 063b 09       		.uleb128 0x9
 1060 063c 1F010000 		.4byte	0x11f
 1061 0640 00       		.byte	0
 1062 0641 00       		.byte	0
 1063 0642 05       		.uleb128 0x5
 1064 0643 8A020000 		.4byte	.LASF95
 1065 0647 06       		.byte	0x6
 1066 0648 1D01     		.2byte	0x11d
 1067 064a 22030000 		.4byte	0x322
 1068 064e 19       		.uleb128 0x19
 1069 064f 22090000 		.4byte	.LASF96
 1070 0653 0C       		.byte	0xc
 1071 0654 06       		.byte	0x6
 1072 0655 2101     		.2byte	0x121
 1073 0657 83060000 		.4byte	0x683
 1074 065b 16       		.uleb128 0x16
 1075 065c 38030000 		.4byte	.LASF29
 1076 0660 06       		.byte	0x6
 1077 0661 2301     		.2byte	0x123
 1078 0663 83060000 		.4byte	0x683
 1079 0667 00       		.byte	0
 1080 0668 16       		.uleb128 0x16
 1081 0669 7B080000 		.4byte	.LASF97
 1082 066d 06       		.byte	0x6
 1083 066e 2401     		.2byte	0x124
ARM GAS  C:\Users\srich\AppData\Local\Temp\ccGsFjJ7.s 			page 20


 1084 0670 37000000 		.4byte	0x37
 1085 0674 04       		.byte	0x4
 1086 0675 16       		.uleb128 0x16
 1087 0676 2C0A0000 		.4byte	.LASF98
 1088 067a 06       		.byte	0x6
 1089 067b 2501     		.2byte	0x125
 1090 067d 89060000 		.4byte	0x689
 1091 0681 08       		.byte	0x8
 1092 0682 00       		.byte	0
 1093 0683 0F       		.uleb128 0xf
 1094 0684 04       		.byte	0x4
 1095 0685 4E060000 		.4byte	0x64e
 1096 0689 0F       		.uleb128 0xf
 1097 068a 04       		.byte	0x4
 1098 068b 42060000 		.4byte	0x642
 1099 068f 19       		.uleb128 0x19
 1100 0690 27020000 		.4byte	.LASF99
 1101 0694 0E       		.byte	0xe
 1102 0695 06       		.byte	0x6
 1103 0696 3D01     		.2byte	0x13d
 1104 0698 C4060000 		.4byte	0x6c4
 1105 069c 16       		.uleb128 0x16
 1106 069d F2090000 		.4byte	.LASF100
 1107 06a1 06       		.byte	0x6
 1108 06a2 3E01     		.2byte	0x13e
 1109 06a4 C4060000 		.4byte	0x6c4
 1110 06a8 00       		.byte	0
 1111 06a9 16       		.uleb128 0x16
 1112 06aa D4040000 		.4byte	.LASF101
 1113 06ae 06       		.byte	0x6
 1114 06af 3F01     		.2byte	0x13f
 1115 06b1 C4060000 		.4byte	0x6c4
 1116 06b5 06       		.byte	0x6
 1117 06b6 16       		.uleb128 0x16
 1118 06b7 E8080000 		.4byte	.LASF102
 1119 06bb 06       		.byte	0x6
 1120 06bc 4001     		.2byte	0x140
 1121 06be 69000000 		.4byte	0x69
 1122 06c2 0C       		.byte	0xc
 1123 06c3 00       		.byte	0
 1124 06c4 08       		.uleb128 0x8
 1125 06c5 69000000 		.4byte	0x69
 1126 06c9 D4060000 		.4byte	0x6d4
 1127 06cd 09       		.uleb128 0x9
 1128 06ce 1F010000 		.4byte	0x11f
 1129 06d2 02       		.byte	0x2
 1130 06d3 00       		.byte	0
 1131 06d4 1A       		.uleb128 0x1a
 1132 06d5 D0       		.byte	0xd0
 1133 06d6 06       		.byte	0x6
 1134 06d7 5802     		.2byte	0x258
 1135 06d9 D5070000 		.4byte	0x7d5
 1136 06dd 16       		.uleb128 0x16
 1137 06de C4090000 		.4byte	.LASF103
 1138 06e2 06       		.byte	0x6
 1139 06e3 5A02     		.2byte	0x25a
 1140 06e5 30000000 		.4byte	0x30
ARM GAS  C:\Users\srich\AppData\Local\Temp\ccGsFjJ7.s 			page 21


 1141 06e9 00       		.byte	0
 1142 06ea 16       		.uleb128 0x16
 1143 06eb B8070000 		.4byte	.LASF104
 1144 06ef 06       		.byte	0x6
 1145 06f0 5B02     		.2byte	0x25b
 1146 06f2 A2050000 		.4byte	0x5a2
 1147 06f6 04       		.byte	0x4
 1148 06f7 16       		.uleb128 0x16
 1149 06f8 07030000 		.4byte	.LASF105
 1150 06fc 06       		.byte	0x6
 1151 06fd 5C02     		.2byte	0x25c
 1152 06ff D5070000 		.4byte	0x7d5
 1153 0703 08       		.byte	0x8
 1154 0704 16       		.uleb128 0x16
 1155 0705 C5070000 		.4byte	.LASF106
 1156 0709 06       		.byte	0x6
 1157 070a 5D02     		.2byte	0x25d
 1158 070c D3010000 		.4byte	0x1d3
 1159 0710 24       		.byte	0x24
 1160 0711 16       		.uleb128 0x16
 1161 0712 90040000 		.4byte	.LASF107
 1162 0716 06       		.byte	0x6
 1163 0717 5E02     		.2byte	0x25e
 1164 0719 37000000 		.4byte	0x37
 1165 071d 48       		.byte	0x48
 1166 071e 16       		.uleb128 0x16
 1167 071f F8090000 		.4byte	.LASF108
 1168 0723 06       		.byte	0x6
 1169 0724 5F02     		.2byte	0x25f
 1170 0726 9B000000 		.4byte	0x9b
 1171 072a 50       		.byte	0x50
 1172 072b 16       		.uleb128 0x16
 1173 072c 7D000000 		.4byte	.LASF109
 1174 0730 06       		.byte	0x6
 1175 0731 6002     		.2byte	0x260
 1176 0733 8F060000 		.4byte	0x68f
 1177 0737 58       		.byte	0x58
 1178 0738 16       		.uleb128 0x16
 1179 0739 A5030000 		.4byte	.LASF110
 1180 073d 06       		.byte	0x6
 1181 073e 6102     		.2byte	0x261
 1182 0740 47010000 		.4byte	0x147
 1183 0744 68       		.byte	0x68
 1184 0745 16       		.uleb128 0x16
 1185 0746 51090000 		.4byte	.LASF111
 1186 074a 06       		.byte	0x6
 1187 074b 6202     		.2byte	0x262
 1188 074d 47010000 		.4byte	0x147
 1189 0751 70       		.byte	0x70
 1190 0752 16       		.uleb128 0x16
 1191 0753 65000000 		.4byte	.LASF112
 1192 0757 06       		.byte	0x6
 1193 0758 6302     		.2byte	0x263
 1194 075a 47010000 		.4byte	0x147
 1195 075e 78       		.byte	0x78
 1196 075f 16       		.uleb128 0x16
 1197 0760 F8070000 		.4byte	.LASF113
ARM GAS  C:\Users\srich\AppData\Local\Temp\ccGsFjJ7.s 			page 22


 1198 0764 06       		.byte	0x6
 1199 0765 6402     		.2byte	0x264
 1200 0767 E5070000 		.4byte	0x7e5
 1201 076b 80       		.byte	0x80
 1202 076c 16       		.uleb128 0x16
 1203 076d 9E000000 		.4byte	.LASF114
 1204 0771 06       		.byte	0x6
 1205 0772 6502     		.2byte	0x265
 1206 0774 F5070000 		.4byte	0x7f5
 1207 0778 88       		.byte	0x88
 1208 0779 16       		.uleb128 0x16
 1209 077a 30090000 		.4byte	.LASF115
 1210 077e 06       		.byte	0x6
 1211 077f 6602     		.2byte	0x266
 1212 0781 37000000 		.4byte	0x37
 1213 0785 A0       		.byte	0xa0
 1214 0786 16       		.uleb128 0x16
 1215 0787 2C010000 		.4byte	.LASF116
 1216 078b 06       		.byte	0x6
 1217 078c 6702     		.2byte	0x267
 1218 078e 47010000 		.4byte	0x147
 1219 0792 A4       		.byte	0xa4
 1220 0793 16       		.uleb128 0x16
 1221 0794 D8030000 		.4byte	.LASF117
 1222 0798 06       		.byte	0x6
 1223 0799 6802     		.2byte	0x268
 1224 079b 47010000 		.4byte	0x147
 1225 079f AC       		.byte	0xac
 1226 07a0 16       		.uleb128 0x16
 1227 07a1 F0010000 		.4byte	.LASF118
 1228 07a5 06       		.byte	0x6
 1229 07a6 6902     		.2byte	0x269
 1230 07a8 47010000 		.4byte	0x147
 1231 07ac B4       		.byte	0xb4
 1232 07ad 16       		.uleb128 0x16
 1233 07ae E8040000 		.4byte	.LASF119
 1234 07b2 06       		.byte	0x6
 1235 07b3 6A02     		.2byte	0x26a
 1236 07b5 47010000 		.4byte	0x147
 1237 07b9 BC       		.byte	0xbc
 1238 07ba 16       		.uleb128 0x16
 1239 07bb 94030000 		.4byte	.LASF120
 1240 07bf 06       		.byte	0x6
 1241 07c0 6B02     		.2byte	0x26b
 1242 07c2 47010000 		.4byte	0x147
 1243 07c6 C4       		.byte	0xc4
 1244 07c7 16       		.uleb128 0x16
 1245 07c8 91020000 		.4byte	.LASF121
 1246 07cc 06       		.byte	0x6
 1247 07cd 6C02     		.2byte	0x26c
 1248 07cf 37000000 		.4byte	0x37
 1249 07d3 CC       		.byte	0xcc
 1250 07d4 00       		.byte	0
 1251 07d5 08       		.uleb128 0x8
 1252 07d6 A8050000 		.4byte	0x5a8
 1253 07da E5070000 		.4byte	0x7e5
 1254 07de 09       		.uleb128 0x9
ARM GAS  C:\Users\srich\AppData\Local\Temp\ccGsFjJ7.s 			page 23


 1255 07df 1F010000 		.4byte	0x11f
 1256 07e3 19       		.byte	0x19
 1257 07e4 00       		.byte	0
 1258 07e5 08       		.uleb128 0x8
 1259 07e6 A8050000 		.4byte	0x5a8
 1260 07ea F5070000 		.4byte	0x7f5
 1261 07ee 09       		.uleb128 0x9
 1262 07ef 1F010000 		.4byte	0x11f
 1263 07f3 07       		.byte	0x7
 1264 07f4 00       		.byte	0
 1265 07f5 08       		.uleb128 0x8
 1266 07f6 A8050000 		.4byte	0x5a8
 1267 07fa 05080000 		.4byte	0x805
 1268 07fe 09       		.uleb128 0x9
 1269 07ff 1F010000 		.4byte	0x11f
 1270 0803 17       		.byte	0x17
 1271 0804 00       		.byte	0
 1272 0805 1A       		.uleb128 0x1a
 1273 0806 F0       		.byte	0xf0
 1274 0807 06       		.byte	0x6
 1275 0808 7102     		.2byte	0x271
 1276 080a 29080000 		.4byte	0x829
 1277 080e 16       		.uleb128 0x16
 1278 080f DF010000 		.4byte	.LASF122
 1279 0813 06       		.byte	0x6
 1280 0814 7402     		.2byte	0x274
 1281 0816 29080000 		.4byte	0x829
 1282 081a 00       		.byte	0
 1283 081b 16       		.uleb128 0x16
 1284 081c 230A0000 		.4byte	.LASF123
 1285 0820 06       		.byte	0x6
 1286 0821 7502     		.2byte	0x275
 1287 0823 39080000 		.4byte	0x839
 1288 0827 78       		.byte	0x78
 1289 0828 00       		.byte	0
 1290 0829 08       		.uleb128 0x8
 1291 082a 1C030000 		.4byte	0x31c
 1292 082e 39080000 		.4byte	0x839
 1293 0832 09       		.uleb128 0x9
 1294 0833 1F010000 		.4byte	0x11f
 1295 0837 1D       		.byte	0x1d
 1296 0838 00       		.byte	0
 1297 0839 08       		.uleb128 0x8
 1298 083a 30000000 		.4byte	0x30
 1299 083e 49080000 		.4byte	0x849
 1300 0842 09       		.uleb128 0x9
 1301 0843 1F010000 		.4byte	0x11f
 1302 0847 1D       		.byte	0x1d
 1303 0848 00       		.byte	0
 1304 0849 1B       		.uleb128 0x1b
 1305 084a F0       		.byte	0xf0
 1306 084b 06       		.byte	0x6
 1307 084c 5602     		.2byte	0x256
 1308 084e 6B080000 		.4byte	0x86b
 1309 0852 1C       		.uleb128 0x1c
 1310 0853 81090000 		.4byte	.LASF72
 1311 0857 06       		.byte	0x6
ARM GAS  C:\Users\srich\AppData\Local\Temp\ccGsFjJ7.s 			page 24


 1312 0858 6D02     		.2byte	0x26d
 1313 085a D4060000 		.4byte	0x6d4
 1314 085e 1C       		.uleb128 0x1c
 1315 085f D4070000 		.4byte	.LASF124
 1316 0863 06       		.byte	0x6
 1317 0864 7602     		.2byte	0x276
 1318 0866 05080000 		.4byte	0x805
 1319 086a 00       		.byte	0
 1320 086b 08       		.uleb128 0x8
 1321 086c A8050000 		.4byte	0x5a8
 1322 0870 7B080000 		.4byte	0x87b
 1323 0874 09       		.uleb128 0x9
 1324 0875 1F010000 		.4byte	0x11f
 1325 0879 18       		.byte	0x18
 1326 087a 00       		.byte	0
 1327 087b 1D       		.uleb128 0x1d
 1328 087c 86080000 		.4byte	0x886
 1329 0880 14       		.uleb128 0x14
 1330 0881 6A040000 		.4byte	0x46a
 1331 0885 00       		.byte	0
 1332 0886 0F       		.uleb128 0xf
 1333 0887 04       		.byte	0x4
 1334 0888 7B080000 		.4byte	0x87b
 1335 088c 0F       		.uleb128 0xf
 1336 088d 04       		.byte	0x4
 1337 088e BD010000 		.4byte	0x1bd
 1338 0892 1D       		.uleb128 0x1d
 1339 0893 9D080000 		.4byte	0x89d
 1340 0897 14       		.uleb128 0x14
 1341 0898 37000000 		.4byte	0x37
 1342 089c 00       		.byte	0
 1343 089d 0F       		.uleb128 0xf
 1344 089e 04       		.byte	0x4
 1345 089f A3080000 		.4byte	0x8a3
 1346 08a3 0F       		.uleb128 0xf
 1347 08a4 04       		.byte	0x4
 1348 08a5 92080000 		.4byte	0x892
 1349 08a9 08       		.uleb128 0x8
 1350 08aa 42060000 		.4byte	0x642
 1351 08ae B9080000 		.4byte	0x8b9
 1352 08b2 09       		.uleb128 0x9
 1353 08b3 1F010000 		.4byte	0x11f
 1354 08b7 02       		.byte	0x2
 1355 08b8 00       		.byte	0
 1356 08b9 02       		.uleb128 0x2
 1357 08ba 3D040000 		.4byte	.LASF125
 1358 08be 07       		.byte	0x7
 1359 08bf 14       		.byte	0x14
 1360 08c0 45000000 		.4byte	0x45
 1361 08c4 02       		.uleb128 0x2
 1362 08c5 AA060000 		.4byte	.LASF126
 1363 08c9 07       		.byte	0x7
 1364 08ca 1A       		.byte	0x1a
 1365 08cb 5E000000 		.4byte	0x5e
 1366 08cf 02       		.uleb128 0x2
 1367 08d0 89080000 		.4byte	.LASF127
 1368 08d4 07       		.byte	0x7
ARM GAS  C:\Users\srich\AppData\Local\Temp\ccGsFjJ7.s 			page 25


 1369 08d5 1F       		.byte	0x1f
 1370 08d6 70000000 		.4byte	0x70
 1371 08da 02       		.uleb128 0x2
 1372 08db 8D010000 		.4byte	.LASF128
 1373 08df 07       		.byte	0x7
 1374 08e0 20       		.byte	0x20
 1375 08e1 82000000 		.4byte	0x82
 1376 08e5 02       		.uleb128 0x2
 1377 08e6 51040000 		.4byte	.LASF129
 1378 08ea 08       		.byte	0x8
 1379 08eb 7C       		.byte	0x7c
 1380 08ec 7B000000 		.4byte	0x7b
 1381 08f0 02       		.uleb128 0x2
 1382 08f1 18080000 		.4byte	.LASF130
 1383 08f5 08       		.byte	0x8
 1384 08f6 85       		.byte	0x85
 1385 08f7 A2050000 		.4byte	0x5a2
 1386 08fb 02       		.uleb128 0x2
 1387 08fc 87010000 		.4byte	.LASF131
 1388 0900 08       		.byte	0x8
 1389 0901 8E       		.byte	0x8e
 1390 0902 69000000 		.4byte	0x69
 1391 0906 02       		.uleb128 0x2
 1392 0907 88090000 		.4byte	.LASF132
 1393 090b 08       		.byte	0x8
 1394 090c AB       		.byte	0xab
 1395 090d AD000000 		.4byte	0xad
 1396 0911 02       		.uleb128 0x2
 1397 0912 F7040000 		.4byte	.LASF133
 1398 0916 08       		.byte	0x8
 1399 0917 AC       		.byte	0xac
 1400 0918 B8000000 		.4byte	0xb8
 1401 091c 02       		.uleb128 0x2
 1402 091d E7060000 		.4byte	.LASF134
 1403 0921 08       		.byte	0x8
 1404 0922 AD       		.byte	0xad
 1405 0923 C3000000 		.4byte	0xc3
 1406 0927 02       		.uleb128 0x2
 1407 0928 D0060000 		.4byte	.LASF135
 1408 092c 08       		.byte	0x8
 1409 092d AE       		.byte	0xae
 1410 092e CE000000 		.4byte	0xce
 1411 0932 02       		.uleb128 0x2
 1412 0933 7A090000 		.4byte	.LASF136
 1413 0937 08       		.byte	0x8
 1414 0938 CC       		.byte	0xcc
 1415 0939 30000000 		.4byte	0x30
 1416 093d 02       		.uleb128 0x2
 1417 093e A6080000 		.4byte	.LASF137
 1418 0942 08       		.byte	0x8
 1419 0943 D1       		.byte	0xd1
 1420 0944 69000000 		.4byte	0x69
 1421 0948 0D       		.uleb128 0xd
 1422 0949 C0020000 		.4byte	.LASF138
 1423 094d 3C       		.byte	0x3c
 1424 094e 09       		.byte	0x9
 1425 094f 1B       		.byte	0x1b
ARM GAS  C:\Users\srich\AppData\Local\Temp\ccGsFjJ7.s 			page 26


 1426 0950 210A0000 		.4byte	0xa21
 1427 0954 0B       		.uleb128 0xb
 1428 0955 D8020000 		.4byte	.LASF139
 1429 0959 09       		.byte	0x9
 1430 095a 1D       		.byte	0x1d
 1431 095b 11090000 		.4byte	0x911
 1432 095f 00       		.byte	0
 1433 0960 0B       		.uleb128 0xb
 1434 0961 7C040000 		.4byte	.LASF140
 1435 0965 09       		.byte	0x9
 1436 0966 1E       		.byte	0x1e
 1437 0967 FB080000 		.4byte	0x8fb
 1438 096b 02       		.byte	0x2
 1439 096c 0B       		.uleb128 0xb
 1440 096d 04060000 		.4byte	.LASF141
 1441 0971 09       		.byte	0x9
 1442 0972 1F       		.byte	0x1f
 1443 0973 32090000 		.4byte	0x932
 1444 0977 04       		.byte	0x4
 1445 0978 0B       		.uleb128 0xb
 1446 0979 3E030000 		.4byte	.LASF142
 1447 097d 09       		.byte	0x9
 1448 097e 20       		.byte	0x20
 1449 097f 3D090000 		.4byte	0x93d
 1450 0983 08       		.byte	0x8
 1451 0984 0B       		.uleb128 0xb
 1452 0985 4A090000 		.4byte	.LASF143
 1453 0989 09       		.byte	0x9
 1454 098a 21       		.byte	0x21
 1455 098b 1C090000 		.4byte	0x91c
 1456 098f 0A       		.byte	0xa
 1457 0990 0B       		.uleb128 0xb
 1458 0991 31030000 		.4byte	.LASF144
 1459 0995 09       		.byte	0x9
 1460 0996 22       		.byte	0x22
 1461 0997 27090000 		.4byte	0x927
 1462 099b 0C       		.byte	0xc
 1463 099c 0B       		.uleb128 0xb
 1464 099d D1090000 		.4byte	.LASF145
 1465 09a1 09       		.byte	0x9
 1466 09a2 23       		.byte	0x23
 1467 09a3 11090000 		.4byte	0x911
 1468 09a7 0E       		.byte	0xe
 1469 09a8 0B       		.uleb128 0xb
 1470 09a9 1A090000 		.4byte	.LASF146
 1471 09ad 09       		.byte	0x9
 1472 09ae 24       		.byte	0x24
 1473 09af 06090000 		.4byte	0x906
 1474 09b3 10       		.byte	0x10
 1475 09b4 0B       		.uleb128 0xb
 1476 09b5 12040000 		.4byte	.LASF147
 1477 09b9 09       		.byte	0x9
 1478 09ba 32       		.byte	0x32
 1479 09bb E5080000 		.4byte	0x8e5
 1480 09bf 14       		.byte	0x14
 1481 09c0 0B       		.uleb128 0xb
 1482 09c1 2F060000 		.4byte	.LASF148
ARM GAS  C:\Users\srich\AppData\Local\Temp\ccGsFjJ7.s 			page 27


 1483 09c5 09       		.byte	0x9
 1484 09c6 33       		.byte	0x33
 1485 09c7 7B000000 		.4byte	0x7b
 1486 09cb 18       		.byte	0x18
 1487 09cc 0B       		.uleb128 0xb
 1488 09cd 76020000 		.4byte	.LASF149
 1489 09d1 09       		.byte	0x9
 1490 09d2 34       		.byte	0x34
 1491 09d3 E5080000 		.4byte	0x8e5
 1492 09d7 1C       		.byte	0x1c
 1493 09d8 0B       		.uleb128 0xb
 1494 09d9 39060000 		.4byte	.LASF150
 1495 09dd 09       		.byte	0x9
 1496 09de 35       		.byte	0x35
 1497 09df 7B000000 		.4byte	0x7b
 1498 09e3 20       		.byte	0x20
 1499 09e4 0B       		.uleb128 0xb
 1500 09e5 CE010000 		.4byte	.LASF151
 1501 09e9 09       		.byte	0x9
 1502 09ea 36       		.byte	0x36
 1503 09eb E5080000 		.4byte	0x8e5
 1504 09ef 24       		.byte	0x24
 1505 09f0 0B       		.uleb128 0xb
 1506 09f1 43060000 		.4byte	.LASF152
 1507 09f5 09       		.byte	0x9
 1508 09f6 37       		.byte	0x37
 1509 09f7 7B000000 		.4byte	0x7b
 1510 09fb 28       		.byte	0x28
 1511 09fc 0B       		.uleb128 0xb
 1512 09fd B7000000 		.4byte	.LASF153
 1513 0a01 09       		.byte	0x9
 1514 0a02 38       		.byte	0x38
 1515 0a03 7B000000 		.4byte	0x7b
 1516 0a07 2C       		.byte	0x2c
 1517 0a08 0B       		.uleb128 0xb
 1518 0a09 18020000 		.4byte	.LASF154
 1519 0a0d 09       		.byte	0x9
 1520 0a0e 39       		.byte	0x39
 1521 0a0f 7B000000 		.4byte	0x7b
 1522 0a13 30       		.byte	0x30
 1523 0a14 0B       		.uleb128 0xb
 1524 0a15 4D060000 		.4byte	.LASF155
 1525 0a19 09       		.byte	0x9
 1526 0a1a 3A       		.byte	0x3a
 1527 0a1b 210A0000 		.4byte	0xa21
 1528 0a1f 34       		.byte	0x34
 1529 0a20 00       		.byte	0
 1530 0a21 08       		.uleb128 0x8
 1531 0a22 7B000000 		.4byte	0x7b
 1532 0a26 310A0000 		.4byte	0xa31
 1533 0a2a 09       		.uleb128 0x9
 1534 0a2b 1F010000 		.4byte	0x11f
 1535 0a2f 01       		.byte	0x1
 1536 0a30 00       		.byte	0
 1537 0a31 03       		.uleb128 0x3
 1538 0a32 01       		.byte	0x1
 1539 0a33 02       		.byte	0x2
ARM GAS  C:\Users\srich\AppData\Local\Temp\ccGsFjJ7.s 			page 28


 1540 0a34 23030000 		.4byte	.LASF156
 1541 0a38 02       		.uleb128 0x2
 1542 0a39 6E060000 		.4byte	.LASF157
 1543 0a3d 0A       		.byte	0xa
 1544 0a3e 2C       		.byte	0x2c
 1545 0a3f B9080000 		.4byte	0x8b9
 1546 0a43 02       		.uleb128 0x2
 1547 0a44 FF030000 		.4byte	.LASF158
 1548 0a48 0A       		.byte	0xa
 1549 0a49 2D       		.byte	0x2d
 1550 0a4a B9080000 		.4byte	0x8b9
 1551 0a4e 02       		.uleb128 0x2
 1552 0a4f 53080000 		.4byte	.LASF159
 1553 0a53 0A       		.byte	0xa
 1554 0a54 2E       		.byte	0x2e
 1555 0a55 B9080000 		.4byte	0x8b9
 1556 0a59 02       		.uleb128 0x2
 1557 0a5a 20060000 		.4byte	.LASF160
 1558 0a5e 0A       		.byte	0xa
 1559 0a5f 2F       		.byte	0x2f
 1560 0a60 B9080000 		.4byte	0x8b9
 1561 0a64 02       		.uleb128 0x2
 1562 0a65 D7010000 		.4byte	.LASF161
 1563 0a69 0A       		.byte	0xa
 1564 0a6a 30       		.byte	0x30
 1565 0a6b DA080000 		.4byte	0x8da
 1566 0a6f 02       		.uleb128 0x2
 1567 0a70 DA040000 		.4byte	.LASF162
 1568 0a74 0A       		.byte	0xa
 1569 0a75 31       		.byte	0x31
 1570 0a76 CF080000 		.4byte	0x8cf
 1571 0a7a 02       		.uleb128 0x2
 1572 0a7b AA010000 		.4byte	.LASF163
 1573 0a7f 0A       		.byte	0xa
 1574 0a80 33       		.byte	0x33
 1575 0a81 DA080000 		.4byte	0x8da
 1576 0a85 02       		.uleb128 0x2
 1577 0a86 45040000 		.4byte	.LASF164
 1578 0a8a 0A       		.byte	0xa
 1579 0a8b 34       		.byte	0x34
 1580 0a8c DA080000 		.4byte	0x8da
 1581 0a90 02       		.uleb128 0x2
 1582 0a91 73000000 		.4byte	.LASF165
 1583 0a95 0A       		.byte	0xa
 1584 0a96 35       		.byte	0x35
 1585 0a97 DA080000 		.4byte	0x8da
 1586 0a9b 02       		.uleb128 0x2
 1587 0a9c F8030000 		.4byte	.LASF166
 1588 0aa0 0B       		.byte	0xb
 1589 0aa1 2A       		.byte	0x2a
 1590 0aa2 A60A0000 		.4byte	0xaa6
 1591 0aa6 0D       		.uleb128 0xd
 1592 0aa7 F8030000 		.4byte	.LASF166
 1593 0aab 48       		.byte	0x48
 1594 0aac 0C       		.byte	0xc
 1595 0aad 5E       		.byte	0x5e
 1596 0aae A30B0000 		.4byte	0xba3
ARM GAS  C:\Users\srich\AppData\Local\Temp\ccGsFjJ7.s 			page 29


 1597 0ab2 0B       		.uleb128 0xb
 1598 0ab3 82070000 		.4byte	.LASF167
 1599 0ab7 0C       		.byte	0xc
 1600 0ab8 5F       		.byte	0x5f
 1601 0ab9 C40B0000 		.4byte	0xbc4
 1602 0abd 00       		.byte	0
 1603 0abe 0B       		.uleb128 0xb
 1604 0abf 43080000 		.4byte	.LASF168
 1605 0ac3 0C       		.byte	0xc
 1606 0ac4 61       		.byte	0x61
 1607 0ac5 C40B0000 		.4byte	0xbc4
 1608 0ac9 04       		.byte	0x4
 1609 0aca 0B       		.uleb128 0xb
 1610 0acb 50000000 		.4byte	.LASF169
 1611 0acf 0C       		.byte	0xc
 1612 0ad0 63       		.byte	0x63
 1613 0ad1 640A0000 		.4byte	0xa64
 1614 0ad5 08       		.byte	0x8
 1615 0ad6 0B       		.uleb128 0xb
 1616 0ad7 A8070000 		.4byte	.LASF170
 1617 0adb 0C       		.byte	0xc
 1618 0adc 64       		.byte	0x64
 1619 0add 7C0C0000 		.4byte	0xc7c
 1620 0ae1 0C       		.byte	0xc
 1621 0ae2 0B       		.uleb128 0xb
 1622 0ae3 A8020000 		.4byte	.LASF171
 1623 0ae7 0C       		.byte	0xc
 1624 0ae8 66       		.byte	0x66
 1625 0ae9 C40B0000 		.4byte	0xbc4
 1626 0aed 10       		.byte	0x10
 1627 0aee 0B       		.uleb128 0xb
 1628 0aef 1B040000 		.4byte	.LASF172
 1629 0af3 0C       		.byte	0xc
 1630 0af4 67       		.byte	0x67
 1631 0af5 C40B0000 		.4byte	0xbc4
 1632 0af9 14       		.byte	0x14
 1633 0afa 0B       		.uleb128 0xb
 1634 0afb 8D030000 		.4byte	.LASF173
 1635 0aff 0C       		.byte	0xc
 1636 0b00 6E       		.byte	0x6e
 1637 0b01 D3050000 		.4byte	0x5d3
 1638 0b05 18       		.byte	0x18
 1639 0b06 0B       		.uleb128 0xb
 1640 0b07 23040000 		.4byte	.LASF174
 1641 0b0b 0C       		.byte	0xc
 1642 0b0c 79       		.byte	0x79
 1643 0b0d 430A0000 		.4byte	0xa43
 1644 0b11 1C       		.byte	0x1c
 1645 0b12 0B       		.uleb128 0xb
 1646 0b13 03050000 		.4byte	.LASF175
 1647 0b17 0C       		.byte	0xc
 1648 0b18 7D       		.byte	0x7d
 1649 0b19 380A0000 		.4byte	0xa38
 1650 0b1d 1D       		.byte	0x1d
 1651 0b1e 0B       		.uleb128 0xb
 1652 0b1f CF080000 		.4byte	.LASF176
 1653 0b23 0C       		.byte	0xc
ARM GAS  C:\Users\srich\AppData\Local\Temp\ccGsFjJ7.s 			page 30


 1654 0b24 82       		.byte	0x82
 1655 0b25 4E0A0000 		.4byte	0xa4e
 1656 0b29 1E       		.byte	0x1e
 1657 0b2a 0B       		.uleb128 0xb
 1658 0b2b F3080000 		.4byte	.LASF177
 1659 0b2f 0C       		.byte	0xc
 1660 0b30 88       		.byte	0x88
 1661 0b31 590A0000 		.4byte	0xa59
 1662 0b35 1F       		.byte	0x1f
 1663 0b36 0B       		.uleb128 0xb
 1664 0b37 40000000 		.4byte	.LASF178
 1665 0b3b 0C       		.byte	0xc
 1666 0b3c 8F       		.byte	0x8f
 1667 0b3d 9D0C0000 		.4byte	0xc9d
 1668 0b41 20       		.byte	0x20
 1669 0b42 0E       		.uleb128 0xe
 1670 0b43 705F7500 		.ascii	"p_u\000"
 1671 0b47 0C       		.byte	0xc
 1672 0b48 B4       		.byte	0xb4
 1673 0b49 560D0000 		.4byte	0xd56
 1674 0b4d 24       		.byte	0x24
 1675 0b4e 0B       		.uleb128 0xb
 1676 0b4f D2000000 		.4byte	.LASF179
 1677 0b53 0C       		.byte	0xc
 1678 0b54 B9       		.byte	0xb9
 1679 0b55 EA0B0000 		.4byte	0xbea
 1680 0b59 28       		.byte	0x28
 1681 0b5a 0B       		.uleb128 0xb
 1682 0b5b 93000000 		.4byte	.LASF180
 1683 0b5f 0C       		.byte	0xc
 1684 0b60 BF       		.byte	0xbf
 1685 0b61 CA0B0000 		.4byte	0xbca
 1686 0b65 2C       		.byte	0x2c
 1687 0b66 0B       		.uleb128 0xb
 1688 0b67 68060000 		.4byte	.LASF181
 1689 0b6b 0C       		.byte	0xc
 1690 0b6c C3       		.byte	0xc3
 1691 0b6d 6F0A0000 		.4byte	0xa6f
 1692 0b71 34       		.byte	0x34
 1693 0b72 0B       		.uleb128 0xb
 1694 0b73 3E070000 		.4byte	.LASF182
 1695 0b77 0C       		.byte	0xc
 1696 0b78 C9       		.byte	0xc9
 1697 0b79 7A0A0000 		.4byte	0xa7a
 1698 0b7d 38       		.byte	0x38
 1699 0b7e 0B       		.uleb128 0xb
 1700 0b7f 67040000 		.4byte	.LASF183
 1701 0b83 0C       		.byte	0xc
 1702 0b84 D0       		.byte	0xd0
 1703 0b85 8B0D0000 		.4byte	0xd8b
 1704 0b89 3C       		.byte	0x3c
 1705 0b8a 0B       		.uleb128 0xb
 1706 0b8b ED060000 		.4byte	.LASF184
 1707 0b8f 0C       		.byte	0xc
 1708 0b90 D4       		.byte	0xd4
 1709 0b91 640A0000 		.4byte	0xa64
 1710 0b95 40       		.byte	0x40
ARM GAS  C:\Users\srich\AppData\Local\Temp\ccGsFjJ7.s 			page 31


 1711 0b96 0B       		.uleb128 0xb
 1712 0b97 5F040000 		.4byte	.LASF185
 1713 0b9b 0C       		.byte	0xc
 1714 0b9c DA       		.byte	0xda
 1715 0b9d 5D010000 		.4byte	0x15d
 1716 0ba1 44       		.byte	0x44
 1717 0ba2 00       		.byte	0
 1718 0ba3 0A       		.uleb128 0xa
 1719 0ba4 08       		.byte	0x8
 1720 0ba5 0B       		.byte	0xb
 1721 0ba6 61       		.byte	0x61
 1722 0ba7 C40B0000 		.4byte	0xbc4
 1723 0bab 0B       		.uleb128 0xb
 1724 0bac 82070000 		.4byte	.LASF167
 1725 0bb0 0B       		.byte	0xb
 1726 0bb1 62       		.byte	0x62
 1727 0bb2 C40B0000 		.4byte	0xbc4
 1728 0bb6 00       		.byte	0
 1729 0bb7 0B       		.uleb128 0xb
 1730 0bb8 43080000 		.4byte	.LASF168
 1731 0bbc 0B       		.byte	0xb
 1732 0bbd 64       		.byte	0x64
 1733 0bbe C40B0000 		.4byte	0xbc4
 1734 0bc2 04       		.byte	0x4
 1735 0bc3 00       		.byte	0
 1736 0bc4 0F       		.uleb128 0xf
 1737 0bc5 04       		.byte	0x4
 1738 0bc6 9B0A0000 		.4byte	0xa9b
 1739 0bca 02       		.uleb128 0x2
 1740 0bcb B2030000 		.4byte	.LASF186
 1741 0bcf 0B       		.byte	0xb
 1742 0bd0 66       		.byte	0x66
 1743 0bd1 A30B0000 		.4byte	0xba3
 1744 0bd5 0A       		.uleb128 0xa
 1745 0bd6 04       		.byte	0x4
 1746 0bd7 0B       		.byte	0xb
 1747 0bd8 6B       		.byte	0x6b
 1748 0bd9 EA0B0000 		.4byte	0xbea
 1749 0bdd 0B       		.uleb128 0xb
 1750 0bde 82070000 		.4byte	.LASF167
 1751 0be2 0B       		.byte	0xb
 1752 0be3 6D       		.byte	0x6d
 1753 0be4 C40B0000 		.4byte	0xbc4
 1754 0be8 00       		.byte	0
 1755 0be9 00       		.byte	0
 1756 0bea 02       		.uleb128 0x2
 1757 0beb 00000000 		.4byte	.LASF187
 1758 0bef 0B       		.byte	0xb
 1759 0bf0 70       		.byte	0x70
 1760 0bf1 D50B0000 		.4byte	0xbd5
 1761 0bf5 02       		.uleb128 0x2
 1762 0bf6 47000000 		.4byte	.LASF188
 1763 0bfa 0D       		.byte	0xd
 1764 0bfb E5       		.byte	0xe5
 1765 0bfc 5D010000 		.4byte	0x15d
 1766 0c00 19       		.uleb128 0x19
 1767 0c01 BA060000 		.4byte	.LASF189
ARM GAS  C:\Users\srich\AppData\Local\Temp\ccGsFjJ7.s 			page 32


 1768 0c05 24       		.byte	0x24
 1769 0c06 0D       		.byte	0xd
 1770 0c07 0C01     		.2byte	0x10c
 1771 0c09 7C0C0000 		.4byte	0xc7c
 1772 0c0d 1E       		.uleb128 0x1e
 1773 0c0e 723400   		.ascii	"r4\000"
 1774 0c11 0D       		.byte	0xd
 1775 0c12 1F01     		.2byte	0x11f
 1776 0c14 F50B0000 		.4byte	0xbf5
 1777 0c18 00       		.byte	0
 1778 0c19 1E       		.uleb128 0x1e
 1779 0c1a 723500   		.ascii	"r5\000"
 1780 0c1d 0D       		.byte	0xd
 1781 0c1e 2001     		.2byte	0x120
 1782 0c20 F50B0000 		.4byte	0xbf5
 1783 0c24 04       		.byte	0x4
 1784 0c25 1E       		.uleb128 0x1e
 1785 0c26 723600   		.ascii	"r6\000"
 1786 0c29 0D       		.byte	0xd
 1787 0c2a 2101     		.2byte	0x121
 1788 0c2c F50B0000 		.4byte	0xbf5
 1789 0c30 08       		.byte	0x8
 1790 0c31 1E       		.uleb128 0x1e
 1791 0c32 723700   		.ascii	"r7\000"
 1792 0c35 0D       		.byte	0xd
 1793 0c36 2201     		.2byte	0x122
 1794 0c38 F50B0000 		.4byte	0xbf5
 1795 0c3c 0C       		.byte	0xc
 1796 0c3d 1E       		.uleb128 0x1e
 1797 0c3e 723800   		.ascii	"r8\000"
 1798 0c41 0D       		.byte	0xd
 1799 0c42 2301     		.2byte	0x123
 1800 0c44 F50B0000 		.4byte	0xbf5
 1801 0c48 10       		.byte	0x10
 1802 0c49 1E       		.uleb128 0x1e
 1803 0c4a 723900   		.ascii	"r9\000"
 1804 0c4d 0D       		.byte	0xd
 1805 0c4e 2401     		.2byte	0x124
 1806 0c50 F50B0000 		.4byte	0xbf5
 1807 0c54 14       		.byte	0x14
 1808 0c55 1E       		.uleb128 0x1e
 1809 0c56 72313000 		.ascii	"r10\000"
 1810 0c5a 0D       		.byte	0xd
 1811 0c5b 2501     		.2byte	0x125
 1812 0c5d F50B0000 		.4byte	0xbf5
 1813 0c61 18       		.byte	0x18
 1814 0c62 1E       		.uleb128 0x1e
 1815 0c63 72313100 		.ascii	"r11\000"
 1816 0c67 0D       		.byte	0xd
 1817 0c68 2601     		.2byte	0x126
 1818 0c6a F50B0000 		.4byte	0xbf5
 1819 0c6e 1C       		.byte	0x1c
 1820 0c6f 1E       		.uleb128 0x1e
 1821 0c70 6C7200   		.ascii	"lr\000"
 1822 0c73 0D       		.byte	0xd
 1823 0c74 2701     		.2byte	0x127
 1824 0c76 F50B0000 		.4byte	0xbf5
ARM GAS  C:\Users\srich\AppData\Local\Temp\ccGsFjJ7.s 			page 33


 1825 0c7a 20       		.byte	0x20
 1826 0c7b 00       		.byte	0
 1827 0c7c 19       		.uleb128 0x19
 1828 0c7d E0040000 		.4byte	.LASF190
 1829 0c81 04       		.byte	0x4
 1830 0c82 0D       		.byte	0xd
 1831 0c83 3101     		.2byte	0x131
 1832 0c85 970C0000 		.4byte	0xc97
 1833 0c89 1E       		.uleb128 0x1e
 1834 0c8a 72313300 		.ascii	"r13\000"
 1835 0c8e 0D       		.byte	0xd
 1836 0c8f 3201     		.2byte	0x132
 1837 0c91 970C0000 		.4byte	0xc97
 1838 0c95 00       		.byte	0
 1839 0c96 00       		.byte	0
 1840 0c97 0F       		.uleb128 0xf
 1841 0c98 04       		.byte	0x4
 1842 0c99 000C0000 		.4byte	0xc00
 1843 0c9d 1F       		.uleb128 0x1f
 1844 0c9e 900A0000 		.4byte	0xa90
 1845 0ca2 0D       		.uleb128 0xd
 1846 0ca3 5E030000 		.4byte	.LASF191
 1847 0ca7 10       		.byte	0x10
 1848 0ca8 0E       		.byte	0xe
 1849 0ca9 2C       		.byte	0x2c
 1850 0caa D30C0000 		.4byte	0xcd3
 1851 0cae 0B       		.uleb128 0xb
 1852 0caf 49070000 		.4byte	.LASF192
 1853 0cb3 0E       		.byte	0xe
 1854 0cb4 2D       		.byte	0x2d
 1855 0cb5 CA0B0000 		.4byte	0xbca
 1856 0cb9 00       		.byte	0
 1857 0cba 0B       		.uleb128 0xb
 1858 0cbb 8B000000 		.4byte	.LASF193
 1859 0cbf 0E       		.byte	0xe
 1860 0cc0 2F       		.byte	0x2f
 1861 0cc1 C40B0000 		.4byte	0xbc4
 1862 0cc5 08       		.byte	0x8
 1863 0cc6 0B       		.uleb128 0xb
 1864 0cc7 5F090000 		.4byte	.LASF194
 1865 0ccb 0E       		.byte	0xe
 1866 0ccc 31       		.byte	0x31
 1867 0ccd D30C0000 		.4byte	0xcd3
 1868 0cd1 0C       		.byte	0xc
 1869 0cd2 00       		.byte	0
 1870 0cd3 0F       		.uleb128 0xf
 1871 0cd4 04       		.byte	0x4
 1872 0cd5 A20C0000 		.4byte	0xca2
 1873 0cd9 02       		.uleb128 0x2
 1874 0cda 5E030000 		.4byte	.LASF191
 1875 0cde 0E       		.byte	0xe
 1876 0cdf 33       		.byte	0x33
 1877 0ce0 A20C0000 		.4byte	0xca2
 1878 0ce4 02       		.uleb128 0x2
 1879 0ce5 5B080000 		.4byte	.LASF195
 1880 0ce9 0F       		.byte	0xf
 1881 0cea 2C       		.byte	0x2c
ARM GAS  C:\Users\srich\AppData\Local\Temp\ccGsFjJ7.s 			page 34


 1882 0ceb EF0C0000 		.4byte	0xcef
 1883 0cef 0D       		.uleb128 0xd
 1884 0cf0 5B080000 		.4byte	.LASF195
 1885 0cf4 10       		.byte	0x10
 1886 0cf5 0F       		.byte	0xf
 1887 0cf6 31       		.byte	0x31
 1888 0cf7 2C0D0000 		.4byte	0xd2c
 1889 0cfb 0B       		.uleb128 0xb
 1890 0cfc 60060000 		.4byte	.LASF196
 1891 0d00 0F       		.byte	0xf
 1892 0d01 32       		.byte	0x32
 1893 0d02 2C0D0000 		.4byte	0xd2c
 1894 0d06 00       		.byte	0
 1895 0d07 0B       		.uleb128 0xb
 1896 0d08 02080000 		.4byte	.LASF197
 1897 0d0c 0F       		.byte	0xf
 1898 0d0d 35       		.byte	0x35
 1899 0d0e C40B0000 		.4byte	0xbc4
 1900 0d12 04       		.byte	0x4
 1901 0d13 0B       		.uleb128 0xb
 1902 0d14 FF000000 		.4byte	.LASF198
 1903 0d18 0F       		.byte	0xf
 1904 0d19 37       		.byte	0x37
 1905 0d1a 7A0A0000 		.4byte	0xa7a
 1906 0d1e 08       		.byte	0x8
 1907 0d1f 0B       		.uleb128 0xb
 1908 0d20 030A0000 		.4byte	.LASF199
 1909 0d24 0F       		.byte	0xf
 1910 0d25 3A       		.byte	0x3a
 1911 0d26 850A0000 		.4byte	0xa85
 1912 0d2a 0C       		.byte	0xc
 1913 0d2b 00       		.byte	0
 1914 0d2c 0F       		.uleb128 0xf
 1915 0d2d 04       		.byte	0x4
 1916 0d2e E40C0000 		.4byte	0xce4
 1917 0d32 0D       		.uleb128 0xd
 1918 0d33 E4020000 		.4byte	.LASF200
 1919 0d37 04       		.byte	0x4
 1920 0d38 0F       		.byte	0xf
 1921 0d39 41       		.byte	0x41
 1922 0d3a 4B0D0000 		.4byte	0xd4b
 1923 0d3e 0B       		.uleb128 0xb
 1924 0d3f FD080000 		.4byte	.LASF201
 1925 0d43 0F       		.byte	0xf
 1926 0d44 42       		.byte	0x42
 1927 0d45 2C0D0000 		.4byte	0xd2c
 1928 0d49 00       		.byte	0
 1929 0d4a 00       		.byte	0
 1930 0d4b 02       		.uleb128 0x2
 1931 0d4c E4020000 		.4byte	.LASF200
 1932 0d50 0F       		.byte	0xf
 1933 0d51 45       		.byte	0x45
 1934 0d52 320D0000 		.4byte	0xd32
 1935 0d56 06       		.uleb128 0x6
 1936 0d57 04       		.byte	0x4
 1937 0d58 0C       		.byte	0xc
 1938 0d59 96       		.byte	0x96
ARM GAS  C:\Users\srich\AppData\Local\Temp\ccGsFjJ7.s 			page 35


 1939 0d5a 8B0D0000 		.4byte	0xd8b
 1940 0d5e 07       		.uleb128 0x7
 1941 0d5f F7020000 		.4byte	.LASF202
 1942 0d63 0C       		.byte	0xc
 1943 0d64 9D       		.byte	0x9d
 1944 0d65 6F0A0000 		.4byte	0xa6f
 1945 0d69 07       		.uleb128 0x7
 1946 0d6a 0C0A0000 		.4byte	.LASF203
 1947 0d6e 0C       		.byte	0xc
 1948 0d6f A4       		.byte	0xa4
 1949 0d70 6F0A0000 		.4byte	0xa6f
 1950 0d74 07       		.uleb128 0x7
 1951 0d75 0D010000 		.4byte	.LASF204
 1952 0d79 0C       		.byte	0xc
 1953 0d7a AB       		.byte	0xab
 1954 0d7b 5D010000 		.4byte	0x15d
 1955 0d7f 07       		.uleb128 0x7
 1956 0d80 0B090000 		.4byte	.LASF205
 1957 0d84 0C       		.byte	0xc
 1958 0d85 B2       		.byte	0xb2
 1959 0d86 7A0A0000 		.4byte	0xa7a
 1960 0d8a 00       		.byte	0
 1961 0d8b 0F       		.uleb128 0xf
 1962 0d8c 04       		.byte	0x4
 1963 0d8d D90C0000 		.4byte	0xcd9
 1964 0d91 0F       		.uleb128 0xf
 1965 0d92 04       		.byte	0x4
 1966 0d93 970D0000 		.4byte	0xd97
 1967 0d97 13       		.uleb128 0x13
 1968 0d98 6F0A0000 		.4byte	0xa6f
 1969 0d9c A60D0000 		.4byte	0xda6
 1970 0da0 14       		.uleb128 0x14
 1971 0da1 5D010000 		.4byte	0x15d
 1972 0da5 00       		.byte	0
 1973 0da6 02       		.uleb128 0x2
 1974 0da7 3D090000 		.4byte	.LASF206
 1975 0dab 10       		.byte	0x10
 1976 0dac 37       		.byte	0x37
 1977 0dad B10D0000 		.4byte	0xdb1
 1978 0db1 0D       		.uleb128 0xd
 1979 0db2 3D090000 		.4byte	.LASF206
 1980 0db6 24       		.byte	0x24
 1981 0db7 10       		.byte	0x10
 1982 0db8 45       		.byte	0x45
 1983 0db9 1E0E0000 		.4byte	0xe1e
 1984 0dbd 0B       		.uleb128 0xb
 1985 0dbe A0010000 		.4byte	.LASF207
 1986 0dc2 10       		.byte	0x10
 1987 0dc3 46       		.byte	0x46
 1988 0dc4 CA0B0000 		.4byte	0xbca
 1989 0dc8 00       		.byte	0
 1990 0dc9 0B       		.uleb128 0xb
 1991 0dca 29080000 		.4byte	.LASF208
 1992 0dce 10       		.byte	0x10
 1993 0dcf 47       		.byte	0x47
 1994 0dd0 25000000 		.4byte	0x25
 1995 0dd4 08       		.byte	0x8
ARM GAS  C:\Users\srich\AppData\Local\Temp\ccGsFjJ7.s 			page 36


 1996 0dd5 0B       		.uleb128 0xb
 1997 0dd6 B3040000 		.4byte	.LASF209
 1998 0dda 10       		.byte	0x10
 1999 0ddb 48       		.byte	0x48
 2000 0ddc 400E0000 		.4byte	0xe40
 2001 0de0 0C       		.byte	0xc
 2002 0de1 0B       		.uleb128 0xb
 2003 0de2 FE050000 		.4byte	.LASF210
 2004 0de6 10       		.byte	0x10
 2005 0de7 49       		.byte	0x49
 2006 0de8 400E0000 		.4byte	0xe40
 2007 0dec 10       		.byte	0x10
 2008 0ded 0B       		.uleb128 0xb
 2009 0dee F0030000 		.4byte	.LASF211
 2010 0df2 10       		.byte	0x10
 2011 0df3 4B       		.byte	0x4b
 2012 0df4 400E0000 		.4byte	0xe40
 2013 0df8 14       		.byte	0x14
 2014 0df9 0B       		.uleb128 0xb
 2015 0dfa DC000000 		.4byte	.LASF212
 2016 0dfe 10       		.byte	0x10
 2017 0dff 4C       		.byte	0x4c
 2018 0e00 400E0000 		.4byte	0xe40
 2019 0e04 18       		.byte	0x18
 2020 0e05 0B       		.uleb128 0xb
 2021 0e06 E9090000 		.4byte	.LASF213
 2022 0e0a 10       		.byte	0x10
 2023 0e0b 4D       		.byte	0x4d
 2024 0e0c 1E0E0000 		.4byte	0xe1e
 2025 0e10 1C       		.byte	0x1c
 2026 0e11 0B       		.uleb128 0xb
 2027 0e12 14010000 		.4byte	.LASF214
 2028 0e16 10       		.byte	0x10
 2029 0e17 4E       		.byte	0x4e
 2030 0e18 5D010000 		.4byte	0x15d
 2031 0e1c 20       		.byte	0x20
 2032 0e1d 00       		.byte	0
 2033 0e1e 02       		.uleb128 0x2
 2034 0e1f F5000000 		.4byte	.LASF215
 2035 0e23 10       		.byte	0x10
 2036 0e24 3A       		.byte	0x3a
 2037 0e25 290E0000 		.4byte	0xe29
 2038 0e29 0F       		.uleb128 0xf
 2039 0e2a 04       		.byte	0x4
 2040 0e2b 2F0E0000 		.4byte	0xe2f
 2041 0e2f 1D       		.uleb128 0x1d
 2042 0e30 3A0E0000 		.4byte	0xe3a
 2043 0e34 14       		.uleb128 0x14
 2044 0e35 3A0E0000 		.4byte	0xe3a
 2045 0e39 00       		.byte	0
 2046 0e3a 0F       		.uleb128 0xf
 2047 0e3b 04       		.byte	0x4
 2048 0e3c A60D0000 		.4byte	0xda6
 2049 0e40 0F       		.uleb128 0xf
 2050 0e41 04       		.byte	0x4
 2051 0e42 B9080000 		.4byte	0x8b9
 2052 0e46 02       		.uleb128 0x2
ARM GAS  C:\Users\srich\AppData\Local\Temp\ccGsFjJ7.s 			page 37


 2053 0e47 70030000 		.4byte	.LASF216
 2054 0e4b 10       		.byte	0x10
 2055 0e4c 82       		.byte	0x82
 2056 0e4d A60D0000 		.4byte	0xda6
 2057 0e51 02       		.uleb128 0x2
 2058 0e52 64030000 		.4byte	.LASF217
 2059 0e56 10       		.byte	0x10
 2060 0e57 F5       		.byte	0xf5
 2061 0e58 A60D0000 		.4byte	0xda6
 2062 0e5c 13       		.uleb128 0x13
 2063 0e5d 25000000 		.4byte	0x25
 2064 0e61 750E0000 		.4byte	0xe75
 2065 0e65 14       		.uleb128 0x14
 2066 0e66 5D010000 		.4byte	0x15d
 2067 0e6a 14       		.uleb128 0x14
 2068 0e6b 750E0000 		.4byte	0xe75
 2069 0e6f 14       		.uleb128 0x14
 2070 0e70 25000000 		.4byte	0x25
 2071 0e74 00       		.byte	0
 2072 0e75 0F       		.uleb128 0xf
 2073 0e76 04       		.byte	0x4
 2074 0e77 7B0E0000 		.4byte	0xe7b
 2075 0e7b 18       		.uleb128 0x18
 2076 0e7c B9080000 		.4byte	0x8b9
 2077 0e80 0F       		.uleb128 0xf
 2078 0e81 04       		.byte	0x4
 2079 0e82 5C0E0000 		.4byte	0xe5c
 2080 0e86 13       		.uleb128 0x13
 2081 0e87 25000000 		.4byte	0x25
 2082 0e8b 9F0E0000 		.4byte	0xe9f
 2083 0e8f 14       		.uleb128 0x14
 2084 0e90 5D010000 		.4byte	0x15d
 2085 0e94 14       		.uleb128 0x14
 2086 0e95 400E0000 		.4byte	0xe40
 2087 0e99 14       		.uleb128 0x14
 2088 0e9a 25000000 		.4byte	0x25
 2089 0e9e 00       		.byte	0
 2090 0e9f 0F       		.uleb128 0xf
 2091 0ea0 04       		.byte	0x4
 2092 0ea1 860E0000 		.4byte	0xe86
 2093 0ea5 13       		.uleb128 0x13
 2094 0ea6 6F0A0000 		.4byte	0xa6f
 2095 0eaa B90E0000 		.4byte	0xeb9
 2096 0eae 14       		.uleb128 0x14
 2097 0eaf 5D010000 		.4byte	0x15d
 2098 0eb3 14       		.uleb128 0x14
 2099 0eb4 B9080000 		.4byte	0x8b9
 2100 0eb8 00       		.byte	0
 2101 0eb9 0F       		.uleb128 0xf
 2102 0eba 04       		.byte	0x4
 2103 0ebb A50E0000 		.4byte	0xea5
 2104 0ebf 1F       		.uleb128 0x1f
 2105 0ec0 C4080000 		.4byte	0x8c4
 2106 0ec4 1F       		.uleb128 0x1f
 2107 0ec5 CF080000 		.4byte	0x8cf
 2108 0ec9 1A       		.uleb128 0x1a
 2109 0eca 1C       		.byte	0x1c
ARM GAS  C:\Users\srich\AppData\Local\Temp\ccGsFjJ7.s 			page 38


 2110 0ecb 11       		.byte	0x11
 2111 0ecc 2905     		.2byte	0x529
 2112 0ece 870F0000 		.4byte	0xf87
 2113 0ed2 1E       		.uleb128 0x1e
 2114 0ed3 535200   		.ascii	"SR\000"
 2115 0ed6 11       		.byte	0x11
 2116 0ed7 2B05     		.2byte	0x52b
 2117 0ed9 BF0E0000 		.4byte	0xebf
 2118 0edd 00       		.byte	0
 2119 0ede 16       		.uleb128 0x16
 2120 0edf AD090000 		.4byte	.LASF218
 2121 0ee3 11       		.byte	0x11
 2122 0ee4 2C05     		.2byte	0x52c
 2123 0ee6 C4080000 		.4byte	0x8c4
 2124 0eea 02       		.byte	0x2
 2125 0eeb 1E       		.uleb128 0x1e
 2126 0eec 445200   		.ascii	"DR\000"
 2127 0eef 11       		.byte	0x11
 2128 0ef0 2D05     		.2byte	0x52d
 2129 0ef2 BF0E0000 		.4byte	0xebf
 2130 0ef6 04       		.byte	0x4
 2131 0ef7 16       		.uleb128 0x16
 2132 0ef8 F8060000 		.4byte	.LASF219
 2133 0efc 11       		.byte	0x11
 2134 0efd 2E05     		.2byte	0x52e
 2135 0eff C4080000 		.4byte	0x8c4
 2136 0f03 06       		.byte	0x6
 2137 0f04 1E       		.uleb128 0x1e
 2138 0f05 42525200 		.ascii	"BRR\000"
 2139 0f09 11       		.byte	0x11
 2140 0f0a 2F05     		.2byte	0x52f
 2141 0f0c BF0E0000 		.4byte	0xebf
 2142 0f10 08       		.byte	0x8
 2143 0f11 16       		.uleb128 0x16
 2144 0f12 02070000 		.4byte	.LASF220
 2145 0f16 11       		.byte	0x11
 2146 0f17 3005     		.2byte	0x530
 2147 0f19 C4080000 		.4byte	0x8c4
 2148 0f1d 0A       		.byte	0xa
 2149 0f1e 1E       		.uleb128 0x1e
 2150 0f1f 43523100 		.ascii	"CR1\000"
 2151 0f23 11       		.byte	0x11
 2152 0f24 3105     		.2byte	0x531
 2153 0f26 BF0E0000 		.4byte	0xebf
 2154 0f2a 0C       		.byte	0xc
 2155 0f2b 16       		.uleb128 0x16
 2156 0f2c 0C070000 		.4byte	.LASF221
 2157 0f30 11       		.byte	0x11
 2158 0f31 3205     		.2byte	0x532
 2159 0f33 C4080000 		.4byte	0x8c4
 2160 0f37 0E       		.byte	0xe
 2161 0f38 1E       		.uleb128 0x1e
 2162 0f39 43523200 		.ascii	"CR2\000"
 2163 0f3d 11       		.byte	0x11
 2164 0f3e 3305     		.2byte	0x533
 2165 0f40 BF0E0000 		.4byte	0xebf
 2166 0f44 10       		.byte	0x10
ARM GAS  C:\Users\srich\AppData\Local\Temp\ccGsFjJ7.s 			page 39


 2167 0f45 16       		.uleb128 0x16
 2168 0f46 16070000 		.4byte	.LASF222
 2169 0f4a 11       		.byte	0x11
 2170 0f4b 3405     		.2byte	0x534
 2171 0f4d C4080000 		.4byte	0x8c4
 2172 0f51 12       		.byte	0x12
 2173 0f52 1E       		.uleb128 0x1e
 2174 0f53 43523300 		.ascii	"CR3\000"
 2175 0f57 11       		.byte	0x11
 2176 0f58 3505     		.2byte	0x535
 2177 0f5a BF0E0000 		.4byte	0xebf
 2178 0f5e 14       		.byte	0x14
 2179 0f5f 16       		.uleb128 0x16
 2180 0f60 20070000 		.4byte	.LASF223
 2181 0f64 11       		.byte	0x11
 2182 0f65 3605     		.2byte	0x536
 2183 0f67 C4080000 		.4byte	0x8c4
 2184 0f6b 16       		.byte	0x16
 2185 0f6c 16       		.uleb128 0x16
 2186 0f6d 5E010000 		.4byte	.LASF224
 2187 0f71 11       		.byte	0x11
 2188 0f72 3705     		.2byte	0x537
 2189 0f74 BF0E0000 		.4byte	0xebf
 2190 0f78 18       		.byte	0x18
 2191 0f79 16       		.uleb128 0x16
 2192 0f7a 2A070000 		.4byte	.LASF225
 2193 0f7e 11       		.byte	0x11
 2194 0f7f 3805     		.2byte	0x538
 2195 0f81 C4080000 		.4byte	0x8c4
 2196 0f85 1A       		.byte	0x1a
 2197 0f86 00       		.byte	0
 2198 0f87 05       		.uleb128 0x5
 2199 0f88 50030000 		.4byte	.LASF226
 2200 0f8c 11       		.byte	0x11
 2201 0f8d 3905     		.2byte	0x539
 2202 0f8f C90E0000 		.4byte	0xec9
 2203 0f93 13       		.uleb128 0x13
 2204 0f94 6F0A0000 		.4byte	0xa6f
 2205 0f98 AC0F0000 		.4byte	0xfac
 2206 0f9c 14       		.uleb128 0x14
 2207 0f9d 5D010000 		.4byte	0x15d
 2208 0fa1 14       		.uleb128 0x14
 2209 0fa2 B9080000 		.4byte	0x8b9
 2210 0fa6 14       		.uleb128 0x14
 2211 0fa7 900A0000 		.4byte	0xa90
 2212 0fab 00       		.byte	0
 2213 0fac 0F       		.uleb128 0xf
 2214 0fad 04       		.byte	0x4
 2215 0fae 930F0000 		.4byte	0xf93
 2216 0fb2 13       		.uleb128 0x13
 2217 0fb3 6F0A0000 		.4byte	0xa6f
 2218 0fb7 C60F0000 		.4byte	0xfc6
 2219 0fbb 14       		.uleb128 0x14
 2220 0fbc 5D010000 		.4byte	0x15d
 2221 0fc0 14       		.uleb128 0x14
 2222 0fc1 900A0000 		.4byte	0xa90
 2223 0fc5 00       		.byte	0
ARM GAS  C:\Users\srich\AppData\Local\Temp\ccGsFjJ7.s 			page 40


 2224 0fc6 0F       		.uleb128 0xf
 2225 0fc7 04       		.byte	0x4
 2226 0fc8 B20F0000 		.4byte	0xfb2
 2227 0fcc 13       		.uleb128 0x13
 2228 0fcd 25000000 		.4byte	0x25
 2229 0fd1 EA0F0000 		.4byte	0xfea
 2230 0fd5 14       		.uleb128 0x14
 2231 0fd6 5D010000 		.4byte	0x15d
 2232 0fda 14       		.uleb128 0x14
 2233 0fdb 750E0000 		.4byte	0xe75
 2234 0fdf 14       		.uleb128 0x14
 2235 0fe0 25000000 		.4byte	0x25
 2236 0fe4 14       		.uleb128 0x14
 2237 0fe5 900A0000 		.4byte	0xa90
 2238 0fe9 00       		.byte	0
 2239 0fea 0F       		.uleb128 0xf
 2240 0feb 04       		.byte	0x4
 2241 0fec CC0F0000 		.4byte	0xfcc
 2242 0ff0 13       		.uleb128 0x13
 2243 0ff1 25000000 		.4byte	0x25
 2244 0ff5 0E100000 		.4byte	0x100e
 2245 0ff9 14       		.uleb128 0x14
 2246 0ffa 5D010000 		.4byte	0x15d
 2247 0ffe 14       		.uleb128 0x14
 2248 0fff 400E0000 		.4byte	0xe40
 2249 1003 14       		.uleb128 0x14
 2250 1004 25000000 		.4byte	0x25
 2251 1008 14       		.uleb128 0x14
 2252 1009 900A0000 		.4byte	0xa90
 2253 100d 00       		.byte	0
 2254 100e 0F       		.uleb128 0xf
 2255 100f 04       		.byte	0x4
 2256 1010 F00F0000 		.4byte	0xff0
 2257 1014 20       		.uleb128 0x20
 2258 1015 01       		.byte	0x1
 2259 1016 12       		.byte	0x12
 2260 1017 64       		.byte	0x64
 2261 1018 2F100000 		.4byte	0x102f
 2262 101c 21       		.uleb128 0x21
 2263 101d 0E080000 		.4byte	.LASF227
 2264 1021 00       		.sleb128 0
 2265 1022 21       		.uleb128 0x21
 2266 1023 29030000 		.4byte	.LASF228
 2267 1027 01       		.sleb128 1
 2268 1028 21       		.uleb128 0x21
 2269 1029 D6060000 		.4byte	.LASF229
 2270 102d 02       		.sleb128 2
 2271 102e 00       		.byte	0
 2272 102f 02       		.uleb128 0x2
 2273 1030 BE010000 		.4byte	.LASF230
 2274 1034 12       		.byte	0x12
 2275 1035 68       		.byte	0x68
 2276 1036 14100000 		.4byte	0x1014
 2277 103a 02       		.uleb128 0x2
 2278 103b 0C000000 		.4byte	.LASF231
 2279 103f 12       		.byte	0x12
 2280 1040 6D       		.byte	0x6d
ARM GAS  C:\Users\srich\AppData\Local\Temp\ccGsFjJ7.s 			page 41


 2281 1041 45100000 		.4byte	0x1045
 2282 1045 0D       		.uleb128 0xd
 2283 1046 0C000000 		.4byte	.LASF231
 2284 104a 78       		.byte	0x78
 2285 104b 12       		.byte	0x12
 2286 104c 87       		.byte	0x87
 2287 104d B0100000 		.4byte	0x10b0
 2288 1051 0E       		.uleb128 0xe
 2289 1052 766D7400 		.ascii	"vmt\000"
 2290 1056 12       		.byte	0x12
 2291 1057 89       		.byte	0x89
 2292 1058 1D110000 		.4byte	0x111d
 2293 105c 00       		.byte	0
 2294 105d 0B       		.uleb128 0xb
 2295 105e C8010000 		.4byte	.LASF232
 2296 1062 12       		.byte	0x12
 2297 1063 8A       		.byte	0x8a
 2298 1064 4B0D0000 		.4byte	0xd4b
 2299 1068 04       		.byte	0x4
 2300 1069 0B       		.uleb128 0xb
 2301 106a 05090000 		.4byte	.LASF233
 2302 106e 12       		.byte	0x12
 2303 106f 8A       		.byte	0x8a
 2304 1070 2F100000 		.4byte	0x102f
 2305 1074 08       		.byte	0x8
 2306 1075 0B       		.uleb128 0xb
 2307 1076 F7050000 		.4byte	.LASF234
 2308 107a 12       		.byte	0x12
 2309 107b 8A       		.byte	0x8a
 2310 107c 460E0000 		.4byte	0xe46
 2311 1080 0C       		.byte	0xc
 2312 1081 0B       		.uleb128 0xb
 2313 1082 9B060000 		.4byte	.LASF235
 2314 1086 12       		.byte	0x12
 2315 1087 8A       		.byte	0x8a
 2316 1088 510E0000 		.4byte	0xe51
 2317 108c 30       		.byte	0x30
 2318 108d 0E       		.uleb128 0xe
 2319 108e 696200   		.ascii	"ib\000"
 2320 1091 12       		.byte	0x12
 2321 1092 8A       		.byte	0x8a
 2322 1093 28110000 		.4byte	0x1128
 2323 1097 54       		.byte	0x54
 2324 1098 0E       		.uleb128 0xe
 2325 1099 6F6200   		.ascii	"ob\000"
 2326 109c 12       		.byte	0x12
 2327 109d 8A       		.byte	0x8a
 2328 109e 28110000 		.4byte	0x1128
 2329 10a2 64       		.byte	0x64
 2330 10a3 0B       		.uleb128 0xb
 2331 10a4 83040000 		.4byte	.LASF236
 2332 10a8 12       		.byte	0x12
 2333 10a9 8A       		.byte	0x8a
 2334 10aa 38110000 		.4byte	0x1138
 2335 10ae 74       		.byte	0x74
 2336 10af 00       		.byte	0
 2337 10b0 0D       		.uleb128 0xd
ARM GAS  C:\Users\srich\AppData\Local\Temp\ccGsFjJ7.s 			page 42


 2338 10b1 8E090000 		.4byte	.LASF237
 2339 10b5 20       		.byte	0x20
 2340 10b6 12       		.byte	0x12
 2341 10b7 7C       		.byte	0x7c
 2342 10b8 1D110000 		.4byte	0x111d
 2343 10bc 0B       		.uleb128 0xb
 2344 10bd AD040000 		.4byte	.LASF238
 2345 10c1 12       		.byte	0x12
 2346 10c2 7D       		.byte	0x7d
 2347 10c3 800E0000 		.4byte	0xe80
 2348 10c7 00       		.byte	0
 2349 10c8 0B       		.uleb128 0xb
 2350 10c9 F3070000 		.4byte	.LASF239
 2351 10cd 12       		.byte	0x12
 2352 10ce 7D       		.byte	0x7d
 2353 10cf 9F0E0000 		.4byte	0xe9f
 2354 10d3 04       		.byte	0x4
 2355 10d4 0E       		.uleb128 0xe
 2356 10d5 70757400 		.ascii	"put\000"
 2357 10d9 12       		.byte	0x12
 2358 10da 7D       		.byte	0x7d
 2359 10db B90E0000 		.4byte	0xeb9
 2360 10df 08       		.byte	0x8
 2361 10e0 0E       		.uleb128 0xe
 2362 10e1 67657400 		.ascii	"get\000"
 2363 10e5 12       		.byte	0x12
 2364 10e6 7D       		.byte	0x7d
 2365 10e7 910D0000 		.4byte	0xd91
 2366 10eb 0C       		.byte	0xc
 2367 10ec 0B       		.uleb128 0xb
 2368 10ed DF020000 		.4byte	.LASF240
 2369 10f1 12       		.byte	0x12
 2370 10f2 7D       		.byte	0x7d
 2371 10f3 AC0F0000 		.4byte	0xfac
 2372 10f7 10       		.byte	0x10
 2373 10f8 0B       		.uleb128 0xb
 2374 10f9 38080000 		.4byte	.LASF241
 2375 10fd 12       		.byte	0x12
 2376 10fe 7D       		.byte	0x7d
 2377 10ff C60F0000 		.4byte	0xfc6
 2378 1103 14       		.byte	0x14
 2379 1104 0B       		.uleb128 0xb
 2380 1105 57010000 		.4byte	.LASF242
 2381 1109 12       		.byte	0x12
 2382 110a 7D       		.byte	0x7d
 2383 110b EA0F0000 		.4byte	0xfea
 2384 110f 18       		.byte	0x18
 2385 1110 0B       		.uleb128 0xb
 2386 1111 07010000 		.4byte	.LASF243
 2387 1115 12       		.byte	0x12
 2388 1116 7D       		.byte	0x7d
 2389 1117 0E100000 		.4byte	0x100e
 2390 111b 1C       		.byte	0x1c
 2391 111c 00       		.byte	0
 2392 111d 0F       		.uleb128 0xf
 2393 111e 04       		.byte	0x4
 2394 111f 23110000 		.4byte	0x1123
ARM GAS  C:\Users\srich\AppData\Local\Temp\ccGsFjJ7.s 			page 43


 2395 1123 18       		.uleb128 0x18
 2396 1124 B0100000 		.4byte	0x10b0
 2397 1128 08       		.uleb128 0x8
 2398 1129 B9080000 		.4byte	0x8b9
 2399 112d 38110000 		.4byte	0x1138
 2400 1131 09       		.uleb128 0x9
 2401 1132 1F010000 		.4byte	0x11f
 2402 1136 0F       		.byte	0xf
 2403 1137 00       		.byte	0
 2404 1138 0F       		.uleb128 0xf
 2405 1139 04       		.byte	0x4
 2406 113a 870F0000 		.4byte	0xf87
 2407 113e 0F       		.uleb128 0xf
 2408 113f 04       		.byte	0x4
 2409 1140 510E0000 		.4byte	0xe51
 2410 1144 0F       		.uleb128 0xf
 2411 1145 04       		.byte	0x4
 2412 1146 460E0000 		.4byte	0xe46
 2413 114a 22       		.uleb128 0x22
 2414 114b C8060000 		.4byte	.LASF245
 2415 114f 01       		.byte	0x1
 2416 1150 4B       		.byte	0x4b
 2417 1151 37000000 		.4byte	0x37
 2418 1155 00000000 		.4byte	.LFB118
 2419 1159 20000000 		.4byte	.LFE118-.LFB118
 2420 115d 01       		.uleb128 0x1
 2421 115e 9C       		.byte	0x9c
 2422 115f BC110000 		.4byte	0x11bc
 2423 1163 23       		.uleb128 0x23
 2424 1164 7200     		.ascii	"r\000"
 2425 1166 01       		.byte	0x1
 2426 1167 4B       		.byte	0x4b
 2427 1168 6A040000 		.4byte	0x46a
 2428 116c 00000000 		.4byte	.LLST0
 2429 1170 24       		.uleb128 0x24
 2430 1171 22020000 		.4byte	.LASF244
 2431 1175 01       		.byte	0x1
 2432 1176 4B       		.byte	0x4b
 2433 1177 37000000 		.4byte	0x37
 2434 117b 3A000000 		.4byte	.LLST1
 2435 117f 23       		.uleb128 0x23
 2436 1180 70747200 		.ascii	"ptr\000"
 2437 1184 01       		.byte	0x1
 2438 1185 4B       		.byte	0x4b
 2439 1186 A2050000 		.4byte	0x5a2
 2440 118a 66000000 		.4byte	.LLST2
 2441 118e 23       		.uleb128 0x23
 2442 118f 6C656E00 		.ascii	"len\000"
 2443 1193 01       		.byte	0x1
 2444 1194 4B       		.byte	0x4b
 2445 1195 37000000 		.4byte	0x37
 2446 1199 9D000000 		.4byte	.LLST3
 2447 119d 25       		.uleb128 0x25
 2448 119e 12000000 		.4byte	.LVL5
 2449 11a2 B3130000 		.4byte	0x13b3
 2450 11a6 26       		.uleb128 0x26
 2451 11a7 01       		.uleb128 0x1
ARM GAS  C:\Users\srich\AppData\Local\Temp\ccGsFjJ7.s 			page 44


 2452 11a8 53       		.byte	0x53
 2453 11a9 02       		.uleb128 0x2
 2454 11aa 09       		.byte	0x9
 2455 11ab FF       		.byte	0xff
 2456 11ac 26       		.uleb128 0x26
 2457 11ad 01       		.uleb128 0x1
 2458 11ae 52       		.byte	0x52
 2459 11af 03       		.uleb128 0x3
 2460 11b0 F3       		.byte	0xf3
 2461 11b1 01       		.uleb128 0x1
 2462 11b2 53       		.byte	0x53
 2463 11b3 26       		.uleb128 0x26
 2464 11b4 01       		.uleb128 0x1
 2465 11b5 51       		.byte	0x51
 2466 11b6 03       		.uleb128 0x3
 2467 11b7 F3       		.byte	0xf3
 2468 11b8 01       		.uleb128 0x1
 2469 11b9 52       		.byte	0x52
 2470 11ba 00       		.byte	0
 2471 11bb 00       		.byte	0
 2472 11bc 22       		.uleb128 0x22
 2473 11bd 7F060000 		.4byte	.LASF246
 2474 11c1 01       		.byte	0x1
 2475 11c2 60       		.byte	0x60
 2476 11c3 37000000 		.4byte	0x37
 2477 11c7 00000000 		.4byte	.LFB119
 2478 11cb 04000000 		.4byte	.LFE119-.LFB119
 2479 11cf 01       		.uleb128 0x1
 2480 11d0 9C       		.byte	0x9c
 2481 11d1 0A120000 		.4byte	0x120a
 2482 11d5 23       		.uleb128 0x23
 2483 11d6 7200     		.ascii	"r\000"
 2484 11d8 01       		.byte	0x1
 2485 11d9 60       		.byte	0x60
 2486 11da 6A040000 		.4byte	0x46a
 2487 11de E2000000 		.4byte	.LLST4
 2488 11e2 27       		.uleb128 0x27
 2489 11e3 22020000 		.4byte	.LASF244
 2490 11e7 01       		.byte	0x1
 2491 11e8 60       		.byte	0x60
 2492 11e9 37000000 		.4byte	0x37
 2493 11ed 01       		.uleb128 0x1
 2494 11ee 51       		.byte	0x51
 2495 11ef 28       		.uleb128 0x28
 2496 11f0 70747200 		.ascii	"ptr\000"
 2497 11f4 01       		.byte	0x1
 2498 11f5 60       		.byte	0x60
 2499 11f6 37000000 		.4byte	0x37
 2500 11fa 01       		.uleb128 0x1
 2501 11fb 52       		.byte	0x52
 2502 11fc 28       		.uleb128 0x28
 2503 11fd 64697200 		.ascii	"dir\000"
 2504 1201 01       		.byte	0x1
 2505 1202 60       		.byte	0x60
 2506 1203 37000000 		.4byte	0x37
 2507 1207 01       		.uleb128 0x1
 2508 1208 53       		.byte	0x53
ARM GAS  C:\Users\srich\AppData\Local\Temp\ccGsFjJ7.s 			page 45


 2509 1209 00       		.byte	0
 2510 120a 22       		.uleb128 0x22
 2511 120b 82000000 		.4byte	.LASF247
 2512 120f 01       		.byte	0x1
 2513 1210 6C       		.byte	0x6c
 2514 1211 37000000 		.4byte	0x37
 2515 1215 00000000 		.4byte	.LFB120
 2516 1219 28000000 		.4byte	.LFE120-.LFB120
 2517 121d 01       		.uleb128 0x1
 2518 121e 9C       		.byte	0x9c
 2519 121f 7B120000 		.4byte	0x127b
 2520 1223 23       		.uleb128 0x23
 2521 1224 7200     		.ascii	"r\000"
 2522 1226 01       		.byte	0x1
 2523 1227 6C       		.byte	0x6c
 2524 1228 6A040000 		.4byte	0x46a
 2525 122c 03010000 		.4byte	.LLST5
 2526 1230 24       		.uleb128 0x24
 2527 1231 22020000 		.4byte	.LASF244
 2528 1235 01       		.byte	0x1
 2529 1236 6C       		.byte	0x6c
 2530 1237 37000000 		.4byte	0x37
 2531 123b 3D010000 		.4byte	.LLST6
 2532 123f 23       		.uleb128 0x23
 2533 1240 70747200 		.ascii	"ptr\000"
 2534 1244 01       		.byte	0x1
 2535 1245 6C       		.byte	0x6c
 2536 1246 A2050000 		.4byte	0x5a2
 2537 124a 69010000 		.4byte	.LLST7
 2538 124e 23       		.uleb128 0x23
 2539 124f 6C656E00 		.ascii	"len\000"
 2540 1253 01       		.byte	0x1
 2541 1254 6C       		.byte	0x6c
 2542 1255 37000000 		.4byte	0x37
 2543 1259 A0010000 		.4byte	.LLST8
 2544 125d 29       		.uleb128 0x29
 2545 125e 16000000 		.4byte	.LVL15
 2546 1262 D8130000 		.4byte	0x13d8
 2547 1266 26       		.uleb128 0x26
 2548 1267 01       		.uleb128 0x1
 2549 1268 53       		.byte	0x53
 2550 1269 02       		.uleb128 0x2
 2551 126a 09       		.byte	0x9
 2552 126b FF       		.byte	0xff
 2553 126c 26       		.uleb128 0x26
 2554 126d 01       		.uleb128 0x1
 2555 126e 52       		.byte	0x52
 2556 126f 02       		.uleb128 0x2
 2557 1270 74       		.byte	0x74
 2558 1271 00       		.sleb128 0
 2559 1272 26       		.uleb128 0x26
 2560 1273 01       		.uleb128 0x1
 2561 1274 51       		.byte	0x51
 2562 1275 03       		.uleb128 0x3
 2563 1276 F3       		.byte	0xf3
 2564 1277 01       		.uleb128 0x1
 2565 1278 52       		.byte	0x52
ARM GAS  C:\Users\srich\AppData\Local\Temp\ccGsFjJ7.s 			page 46


 2566 1279 00       		.byte	0
 2567 127a 00       		.byte	0
 2568 127b 22       		.uleb128 0x22
 2569 127c 57060000 		.4byte	.LASF248
 2570 1280 01       		.byte	0x1
 2571 1281 7D       		.byte	0x7d
 2572 1282 37000000 		.4byte	0x37
 2573 1286 00000000 		.4byte	.LFB121
 2574 128a 04000000 		.4byte	.LFE121-.LFB121
 2575 128e 01       		.uleb128 0x1
 2576 128f 9C       		.byte	0x9c
 2577 1290 AF120000 		.4byte	0x12af
 2578 1294 23       		.uleb128 0x23
 2579 1295 7200     		.ascii	"r\000"
 2580 1297 01       		.byte	0x1
 2581 1298 7D       		.byte	0x7d
 2582 1299 6A040000 		.4byte	0x46a
 2583 129d E2010000 		.4byte	.LLST9
 2584 12a1 27       		.uleb128 0x27
 2585 12a2 22020000 		.4byte	.LASF244
 2586 12a6 01       		.byte	0x1
 2587 12a7 7D       		.byte	0x7d
 2588 12a8 37000000 		.4byte	0x37
 2589 12ac 01       		.uleb128 0x1
 2590 12ad 51       		.byte	0x51
 2591 12ae 00       		.byte	0
 2592 12af 22       		.uleb128 0x22
 2593 12b0 5D020000 		.4byte	.LASF249
 2594 12b4 01       		.byte	0x1
 2595 12b5 87       		.byte	0x87
 2596 12b6 F0080000 		.4byte	0x8f0
 2597 12ba 00000000 		.4byte	.LFB122
 2598 12be 18000000 		.4byte	.LFE122-.LFB122
 2599 12c2 01       		.uleb128 0x1
 2600 12c3 9C       		.byte	0x9c
 2601 12c4 03130000 		.4byte	0x1303
 2602 12c8 23       		.uleb128 0x23
 2603 12c9 7200     		.ascii	"r\000"
 2604 12cb 01       		.byte	0x1
 2605 12cc 87       		.byte	0x87
 2606 12cd 6A040000 		.4byte	0x46a
 2607 12d1 03020000 		.4byte	.LLST10
 2608 12d5 24       		.uleb128 0x24
 2609 12d6 7B030000 		.4byte	.LASF250
 2610 12da 01       		.byte	0x1
 2611 12db 87       		.byte	0x87
 2612 12dc 37000000 		.4byte	0x37
 2613 12e0 21020000 		.4byte	.LLST11
 2614 12e4 2A       		.uleb128 0x2a
 2615 12e5 7000     		.ascii	"p\000"
 2616 12e7 01       		.byte	0x1
 2617 12e8 8A       		.byte	0x8a
 2618 12e9 5D010000 		.4byte	0x15d
 2619 12ed 42020000 		.4byte	.LLST12
 2620 12f1 29       		.uleb128 0x29
 2621 12f2 0A000000 		.4byte	.LVL23
 2622 12f6 FD130000 		.4byte	0x13fd
ARM GAS  C:\Users\srich\AppData\Local\Temp\ccGsFjJ7.s 			page 47


 2623 12fa 26       		.uleb128 0x26
 2624 12fb 01       		.uleb128 0x1
 2625 12fc 50       		.byte	0x50
 2626 12fd 03       		.uleb128 0x3
 2627 12fe F3       		.byte	0xf3
 2628 12ff 01       		.uleb128 0x1
 2629 1300 51       		.byte	0x51
 2630 1301 00       		.byte	0
 2631 1302 00       		.byte	0
 2632 1303 22       		.uleb128 0x22
 2633 1304 47030000 		.4byte	.LASF251
 2634 1308 01       		.byte	0x1
 2635 1309 9D       		.byte	0x9d
 2636 130a 37000000 		.4byte	0x37
 2637 130e 00000000 		.4byte	.LFB123
 2638 1312 18000000 		.4byte	.LFE123-.LFB123
 2639 1316 01       		.uleb128 0x1
 2640 1317 9C       		.byte	0x9c
 2641 1318 62130000 		.4byte	0x1362
 2642 131c 23       		.uleb128 0x23
 2643 131d 7200     		.ascii	"r\000"
 2644 131f 01       		.byte	0x1
 2645 1320 9D       		.byte	0x9d
 2646 1321 6A040000 		.4byte	0x46a
 2647 1325 55020000 		.4byte	.LLST13
 2648 1329 24       		.uleb128 0x24
 2649 132a 22020000 		.4byte	.LASF244
 2650 132e 01       		.byte	0x1
 2651 132f 9D       		.byte	0x9d
 2652 1330 37000000 		.4byte	0x37
 2653 1334 76020000 		.4byte	.LLST14
 2654 1338 23       		.uleb128 0x23
 2655 1339 737400   		.ascii	"st\000"
 2656 133c 01       		.byte	0x1
 2657 133d 9D       		.byte	0x9d
 2658 133e 62130000 		.4byte	0x1362
 2659 1342 97020000 		.4byte	.LLST15
 2660 1346 29       		.uleb128 0x29
 2661 1347 0E000000 		.4byte	.LVL30
 2662 134b 12140000 		.4byte	0x1412
 2663 134f 26       		.uleb128 0x26
 2664 1350 01       		.uleb128 0x1
 2665 1351 52       		.byte	0x52
 2666 1352 02       		.uleb128 0x2
 2667 1353 08       		.byte	0x8
 2668 1354 3C       		.byte	0x3c
 2669 1355 26       		.uleb128 0x26
 2670 1356 01       		.uleb128 0x1
 2671 1357 51       		.byte	0x51
 2672 1358 01       		.uleb128 0x1
 2673 1359 30       		.byte	0x30
 2674 135a 26       		.uleb128 0x26
 2675 135b 01       		.uleb128 0x1
 2676 135c 50       		.byte	0x50
 2677 135d 02       		.uleb128 0x2
 2678 135e 74       		.byte	0x74
 2679 135f 00       		.sleb128 0
ARM GAS  C:\Users\srich\AppData\Local\Temp\ccGsFjJ7.s 			page 48


 2680 1360 00       		.byte	0
 2681 1361 00       		.byte	0
 2682 1362 0F       		.uleb128 0xf
 2683 1363 04       		.byte	0x4
 2684 1364 48090000 		.4byte	0x948
 2685 1368 22       		.uleb128 0x22
 2686 1369 E6010000 		.4byte	.LASF252
 2687 136d 01       		.byte	0x1
 2688 136e A9       		.byte	0xa9
 2689 136f 37000000 		.4byte	0x37
 2690 1373 00000000 		.4byte	.LFB124
 2691 1377 04000000 		.4byte	.LFE124-.LFB124
 2692 137b 01       		.uleb128 0x1
 2693 137c 9C       		.byte	0x9c
 2694 137d 9B130000 		.4byte	0x139b
 2695 1381 23       		.uleb128 0x23
 2696 1382 7200     		.ascii	"r\000"
 2697 1384 01       		.byte	0x1
 2698 1385 A9       		.byte	0xa9
 2699 1386 6A040000 		.4byte	0x46a
 2700 138a C0020000 		.4byte	.LLST16
 2701 138e 28       		.uleb128 0x28
 2702 138f 666400   		.ascii	"fd\000"
 2703 1392 01       		.byte	0x1
 2704 1393 A9       		.byte	0xa9
 2705 1394 37000000 		.4byte	0x37
 2706 1398 01       		.uleb128 0x1
 2707 1399 51       		.byte	0x51
 2708 139a 00       		.byte	0
 2709 139b 2B       		.uleb128 0x2b
 2710 139c 5A070000 		.4byte	.LASF253
 2711 13a0 14       		.byte	0x14
 2712 13a1 9806     		.2byte	0x698
 2713 13a3 C40E0000 		.4byte	0xec4
 2714 13a7 2C       		.uleb128 0x2c
 2715 13a8 53443100 		.ascii	"SD1\000"
 2716 13ac 15       		.byte	0x15
 2717 13ad 0F01     		.2byte	0x10f
 2718 13af 3A100000 		.4byte	0x103a
 2719 13b3 2D       		.uleb128 0x2d
 2720 13b4 B0020000 		.4byte	.LASF254
 2721 13b8 10       		.byte	0x10
 2722 13b9 6701     		.2byte	0x167
 2723 13bb 25000000 		.4byte	0x25
 2724 13bf D8130000 		.4byte	0x13d8
 2725 13c3 14       		.uleb128 0x14
 2726 13c4 44110000 		.4byte	0x1144
 2727 13c8 14       		.uleb128 0x14
 2728 13c9 400E0000 		.4byte	0xe40
 2729 13cd 14       		.uleb128 0x14
 2730 13ce 25000000 		.4byte	0x25
 2731 13d2 14       		.uleb128 0x14
 2732 13d3 900A0000 		.4byte	0xa90
 2733 13d7 00       		.byte	0
 2734 13d8 2D       		.uleb128 0x2d
 2735 13d9 65020000 		.4byte	.LASF255
 2736 13dd 10       		.byte	0x10
ARM GAS  C:\Users\srich\AppData\Local\Temp\ccGsFjJ7.s 			page 49


 2737 13de 6F01     		.2byte	0x16f
 2738 13e0 25000000 		.4byte	0x25
 2739 13e4 FD130000 		.4byte	0x13fd
 2740 13e8 14       		.uleb128 0x14
 2741 13e9 3E110000 		.4byte	0x113e
 2742 13ed 14       		.uleb128 0x14
 2743 13ee 750E0000 		.4byte	0xe75
 2744 13f2 14       		.uleb128 0x14
 2745 13f3 25000000 		.4byte	0x25
 2746 13f7 14       		.uleb128 0x14
 2747 13f8 900A0000 		.4byte	0xa90
 2748 13fc 00       		.byte	0
 2749 13fd 2E       		.uleb128 0x2e
 2750 13fe 2B040000 		.4byte	.LASF256
 2751 1402 13       		.byte	0x13
 2752 1403 52       		.byte	0x52
 2753 1404 5D010000 		.4byte	0x15d
 2754 1408 12140000 		.4byte	0x1412
 2755 140c 14       		.uleb128 0x14
 2756 140d 25000000 		.4byte	0x25
 2757 1411 00       		.byte	0
 2758 1412 2F       		.uleb128 0x2f
 2759 1413 0B050000 		.4byte	.LASF260
 2760 1417 5D010000 		.4byte	0x15d
 2761 141b 14       		.uleb128 0x14
 2762 141c 5D010000 		.4byte	0x15d
 2763 1420 14       		.uleb128 0x14
 2764 1421 37000000 		.4byte	0x37
 2765 1425 14       		.uleb128 0x14
 2766 1426 1F010000 		.4byte	0x11f
 2767 142a 00       		.byte	0
 2768 142b 00       		.byte	0
 2769              		.section	.debug_abbrev,"",%progbits
 2770              	.Ldebug_abbrev0:
 2771 0000 01       		.uleb128 0x1
 2772 0001 11       		.uleb128 0x11
 2773 0002 01       		.byte	0x1
 2774 0003 25       		.uleb128 0x25
 2775 0004 0E       		.uleb128 0xe
 2776 0005 13       		.uleb128 0x13
 2777 0006 0B       		.uleb128 0xb
 2778 0007 03       		.uleb128 0x3
 2779 0008 0E       		.uleb128 0xe
 2780 0009 1B       		.uleb128 0x1b
 2781 000a 0E       		.uleb128 0xe
 2782 000b 55       		.uleb128 0x55
 2783 000c 17       		.uleb128 0x17
 2784 000d 11       		.uleb128 0x11
 2785 000e 01       		.uleb128 0x1
 2786 000f 10       		.uleb128 0x10
 2787 0010 17       		.uleb128 0x17
 2788 0011 00       		.byte	0
 2789 0012 00       		.byte	0
 2790 0013 02       		.uleb128 0x2
 2791 0014 16       		.uleb128 0x16
 2792 0015 00       		.byte	0
 2793 0016 03       		.uleb128 0x3
ARM GAS  C:\Users\srich\AppData\Local\Temp\ccGsFjJ7.s 			page 50


 2794 0017 0E       		.uleb128 0xe
 2795 0018 3A       		.uleb128 0x3a
 2796 0019 0B       		.uleb128 0xb
 2797 001a 3B       		.uleb128 0x3b
 2798 001b 0B       		.uleb128 0xb
 2799 001c 49       		.uleb128 0x49
 2800 001d 13       		.uleb128 0x13
 2801 001e 00       		.byte	0
 2802 001f 00       		.byte	0
 2803 0020 03       		.uleb128 0x3
 2804 0021 24       		.uleb128 0x24
 2805 0022 00       		.byte	0
 2806 0023 0B       		.uleb128 0xb
 2807 0024 0B       		.uleb128 0xb
 2808 0025 3E       		.uleb128 0x3e
 2809 0026 0B       		.uleb128 0xb
 2810 0027 03       		.uleb128 0x3
 2811 0028 0E       		.uleb128 0xe
 2812 0029 00       		.byte	0
 2813 002a 00       		.byte	0
 2814 002b 04       		.uleb128 0x4
 2815 002c 24       		.uleb128 0x24
 2816 002d 00       		.byte	0
 2817 002e 0B       		.uleb128 0xb
 2818 002f 0B       		.uleb128 0xb
 2819 0030 3E       		.uleb128 0x3e
 2820 0031 0B       		.uleb128 0xb
 2821 0032 03       		.uleb128 0x3
 2822 0033 08       		.uleb128 0x8
 2823 0034 00       		.byte	0
 2824 0035 00       		.byte	0
 2825 0036 05       		.uleb128 0x5
 2826 0037 16       		.uleb128 0x16
 2827 0038 00       		.byte	0
 2828 0039 03       		.uleb128 0x3
 2829 003a 0E       		.uleb128 0xe
 2830 003b 3A       		.uleb128 0x3a
 2831 003c 0B       		.uleb128 0xb
 2832 003d 3B       		.uleb128 0x3b
 2833 003e 05       		.uleb128 0x5
 2834 003f 49       		.uleb128 0x49
 2835 0040 13       		.uleb128 0x13
 2836 0041 00       		.byte	0
 2837 0042 00       		.byte	0
 2838 0043 06       		.uleb128 0x6
 2839 0044 17       		.uleb128 0x17
 2840 0045 01       		.byte	0x1
 2841 0046 0B       		.uleb128 0xb
 2842 0047 0B       		.uleb128 0xb
 2843 0048 3A       		.uleb128 0x3a
 2844 0049 0B       		.uleb128 0xb
 2845 004a 3B       		.uleb128 0x3b
 2846 004b 0B       		.uleb128 0xb
 2847 004c 01       		.uleb128 0x1
 2848 004d 13       		.uleb128 0x13
 2849 004e 00       		.byte	0
 2850 004f 00       		.byte	0
ARM GAS  C:\Users\srich\AppData\Local\Temp\ccGsFjJ7.s 			page 51


 2851 0050 07       		.uleb128 0x7
 2852 0051 0D       		.uleb128 0xd
 2853 0052 00       		.byte	0
 2854 0053 03       		.uleb128 0x3
 2855 0054 0E       		.uleb128 0xe
 2856 0055 3A       		.uleb128 0x3a
 2857 0056 0B       		.uleb128 0xb
 2858 0057 3B       		.uleb128 0x3b
 2859 0058 0B       		.uleb128 0xb
 2860 0059 49       		.uleb128 0x49
 2861 005a 13       		.uleb128 0x13
 2862 005b 00       		.byte	0
 2863 005c 00       		.byte	0
 2864 005d 08       		.uleb128 0x8
 2865 005e 01       		.uleb128 0x1
 2866 005f 01       		.byte	0x1
 2867 0060 49       		.uleb128 0x49
 2868 0061 13       		.uleb128 0x13
 2869 0062 01       		.uleb128 0x1
 2870 0063 13       		.uleb128 0x13
 2871 0064 00       		.byte	0
 2872 0065 00       		.byte	0
 2873 0066 09       		.uleb128 0x9
 2874 0067 21       		.uleb128 0x21
 2875 0068 00       		.byte	0
 2876 0069 49       		.uleb128 0x49
 2877 006a 13       		.uleb128 0x13
 2878 006b 2F       		.uleb128 0x2f
 2879 006c 0B       		.uleb128 0xb
 2880 006d 00       		.byte	0
 2881 006e 00       		.byte	0
 2882 006f 0A       		.uleb128 0xa
 2883 0070 13       		.uleb128 0x13
 2884 0071 01       		.byte	0x1
 2885 0072 0B       		.uleb128 0xb
 2886 0073 0B       		.uleb128 0xb
 2887 0074 3A       		.uleb128 0x3a
 2888 0075 0B       		.uleb128 0xb
 2889 0076 3B       		.uleb128 0x3b
 2890 0077 0B       		.uleb128 0xb
 2891 0078 01       		.uleb128 0x1
 2892 0079 13       		.uleb128 0x13
 2893 007a 00       		.byte	0
 2894 007b 00       		.byte	0
 2895 007c 0B       		.uleb128 0xb
 2896 007d 0D       		.uleb128 0xd
 2897 007e 00       		.byte	0
 2898 007f 03       		.uleb128 0x3
 2899 0080 0E       		.uleb128 0xe
 2900 0081 3A       		.uleb128 0x3a
 2901 0082 0B       		.uleb128 0xb
 2902 0083 3B       		.uleb128 0x3b
 2903 0084 0B       		.uleb128 0xb
 2904 0085 49       		.uleb128 0x49
 2905 0086 13       		.uleb128 0x13
 2906 0087 38       		.uleb128 0x38
 2907 0088 0B       		.uleb128 0xb
ARM GAS  C:\Users\srich\AppData\Local\Temp\ccGsFjJ7.s 			page 52


 2908 0089 00       		.byte	0
 2909 008a 00       		.byte	0
 2910 008b 0C       		.uleb128 0xc
 2911 008c 0F       		.uleb128 0xf
 2912 008d 00       		.byte	0
 2913 008e 0B       		.uleb128 0xb
 2914 008f 0B       		.uleb128 0xb
 2915 0090 00       		.byte	0
 2916 0091 00       		.byte	0
 2917 0092 0D       		.uleb128 0xd
 2918 0093 13       		.uleb128 0x13
 2919 0094 01       		.byte	0x1
 2920 0095 03       		.uleb128 0x3
 2921 0096 0E       		.uleb128 0xe
 2922 0097 0B       		.uleb128 0xb
 2923 0098 0B       		.uleb128 0xb
 2924 0099 3A       		.uleb128 0x3a
 2925 009a 0B       		.uleb128 0xb
 2926 009b 3B       		.uleb128 0x3b
 2927 009c 0B       		.uleb128 0xb
 2928 009d 01       		.uleb128 0x1
 2929 009e 13       		.uleb128 0x13
 2930 009f 00       		.byte	0
 2931 00a0 00       		.byte	0
 2932 00a1 0E       		.uleb128 0xe
 2933 00a2 0D       		.uleb128 0xd
 2934 00a3 00       		.byte	0
 2935 00a4 03       		.uleb128 0x3
 2936 00a5 08       		.uleb128 0x8
 2937 00a6 3A       		.uleb128 0x3a
 2938 00a7 0B       		.uleb128 0xb
 2939 00a8 3B       		.uleb128 0x3b
 2940 00a9 0B       		.uleb128 0xb
 2941 00aa 49       		.uleb128 0x49
 2942 00ab 13       		.uleb128 0x13
 2943 00ac 38       		.uleb128 0x38
 2944 00ad 0B       		.uleb128 0xb
 2945 00ae 00       		.byte	0
 2946 00af 00       		.byte	0
 2947 00b0 0F       		.uleb128 0xf
 2948 00b1 0F       		.uleb128 0xf
 2949 00b2 00       		.byte	0
 2950 00b3 0B       		.uleb128 0xb
 2951 00b4 0B       		.uleb128 0xb
 2952 00b5 49       		.uleb128 0x49
 2953 00b6 13       		.uleb128 0x13
 2954 00b7 00       		.byte	0
 2955 00b8 00       		.byte	0
 2956 00b9 10       		.uleb128 0x10
 2957 00ba 13       		.uleb128 0x13
 2958 00bb 01       		.byte	0x1
 2959 00bc 03       		.uleb128 0x3
 2960 00bd 0E       		.uleb128 0xe
 2961 00be 0B       		.uleb128 0xb
 2962 00bf 05       		.uleb128 0x5
 2963 00c0 3A       		.uleb128 0x3a
 2964 00c1 0B       		.uleb128 0xb
ARM GAS  C:\Users\srich\AppData\Local\Temp\ccGsFjJ7.s 			page 53


 2965 00c2 3B       		.uleb128 0x3b
 2966 00c3 0B       		.uleb128 0xb
 2967 00c4 01       		.uleb128 0x1
 2968 00c5 13       		.uleb128 0x13
 2969 00c6 00       		.byte	0
 2970 00c7 00       		.byte	0
 2971 00c8 11       		.uleb128 0x11
 2972 00c9 0D       		.uleb128 0xd
 2973 00ca 00       		.byte	0
 2974 00cb 03       		.uleb128 0x3
 2975 00cc 0E       		.uleb128 0xe
 2976 00cd 3A       		.uleb128 0x3a
 2977 00ce 0B       		.uleb128 0xb
 2978 00cf 3B       		.uleb128 0x3b
 2979 00d0 0B       		.uleb128 0xb
 2980 00d1 49       		.uleb128 0x49
 2981 00d2 13       		.uleb128 0x13
 2982 00d3 38       		.uleb128 0x38
 2983 00d4 05       		.uleb128 0x5
 2984 00d5 00       		.byte	0
 2985 00d6 00       		.byte	0
 2986 00d7 12       		.uleb128 0x12
 2987 00d8 15       		.uleb128 0x15
 2988 00d9 00       		.byte	0
 2989 00da 27       		.uleb128 0x27
 2990 00db 19       		.uleb128 0x19
 2991 00dc 00       		.byte	0
 2992 00dd 00       		.byte	0
 2993 00de 13       		.uleb128 0x13
 2994 00df 15       		.uleb128 0x15
 2995 00e0 01       		.byte	0x1
 2996 00e1 27       		.uleb128 0x27
 2997 00e2 19       		.uleb128 0x19
 2998 00e3 49       		.uleb128 0x49
 2999 00e4 13       		.uleb128 0x13
 3000 00e5 01       		.uleb128 0x1
 3001 00e6 13       		.uleb128 0x13
 3002 00e7 00       		.byte	0
 3003 00e8 00       		.byte	0
 3004 00e9 14       		.uleb128 0x14
 3005 00ea 05       		.uleb128 0x5
 3006 00eb 00       		.byte	0
 3007 00ec 49       		.uleb128 0x49
 3008 00ed 13       		.uleb128 0x13
 3009 00ee 00       		.byte	0
 3010 00ef 00       		.byte	0
 3011 00f0 15       		.uleb128 0x15
 3012 00f1 13       		.uleb128 0x13
 3013 00f2 01       		.byte	0x1
 3014 00f3 03       		.uleb128 0x3
 3015 00f4 0E       		.uleb128 0xe
 3016 00f5 0B       		.uleb128 0xb
 3017 00f6 05       		.uleb128 0x5
 3018 00f7 3A       		.uleb128 0x3a
 3019 00f8 0B       		.uleb128 0xb
 3020 00f9 3B       		.uleb128 0x3b
 3021 00fa 05       		.uleb128 0x5
ARM GAS  C:\Users\srich\AppData\Local\Temp\ccGsFjJ7.s 			page 54


 3022 00fb 01       		.uleb128 0x1
 3023 00fc 13       		.uleb128 0x13
 3024 00fd 00       		.byte	0
 3025 00fe 00       		.byte	0
 3026 00ff 16       		.uleb128 0x16
 3027 0100 0D       		.uleb128 0xd
 3028 0101 00       		.byte	0
 3029 0102 03       		.uleb128 0x3
 3030 0103 0E       		.uleb128 0xe
 3031 0104 3A       		.uleb128 0x3a
 3032 0105 0B       		.uleb128 0xb
 3033 0106 3B       		.uleb128 0x3b
 3034 0107 05       		.uleb128 0x5
 3035 0108 49       		.uleb128 0x49
 3036 0109 13       		.uleb128 0x13
 3037 010a 38       		.uleb128 0x38
 3038 010b 0B       		.uleb128 0xb
 3039 010c 00       		.byte	0
 3040 010d 00       		.byte	0
 3041 010e 17       		.uleb128 0x17
 3042 010f 0D       		.uleb128 0xd
 3043 0110 00       		.byte	0
 3044 0111 03       		.uleb128 0x3
 3045 0112 0E       		.uleb128 0xe
 3046 0113 3A       		.uleb128 0x3a
 3047 0114 0B       		.uleb128 0xb
 3048 0115 3B       		.uleb128 0x3b
 3049 0116 05       		.uleb128 0x5
 3050 0117 49       		.uleb128 0x49
 3051 0118 13       		.uleb128 0x13
 3052 0119 38       		.uleb128 0x38
 3053 011a 05       		.uleb128 0x5
 3054 011b 00       		.byte	0
 3055 011c 00       		.byte	0
 3056 011d 18       		.uleb128 0x18
 3057 011e 26       		.uleb128 0x26
 3058 011f 00       		.byte	0
 3059 0120 49       		.uleb128 0x49
 3060 0121 13       		.uleb128 0x13
 3061 0122 00       		.byte	0
 3062 0123 00       		.byte	0
 3063 0124 19       		.uleb128 0x19
 3064 0125 13       		.uleb128 0x13
 3065 0126 01       		.byte	0x1
 3066 0127 03       		.uleb128 0x3
 3067 0128 0E       		.uleb128 0xe
 3068 0129 0B       		.uleb128 0xb
 3069 012a 0B       		.uleb128 0xb
 3070 012b 3A       		.uleb128 0x3a
 3071 012c 0B       		.uleb128 0xb
 3072 012d 3B       		.uleb128 0x3b
 3073 012e 05       		.uleb128 0x5
 3074 012f 01       		.uleb128 0x1
 3075 0130 13       		.uleb128 0x13
 3076 0131 00       		.byte	0
 3077 0132 00       		.byte	0
 3078 0133 1A       		.uleb128 0x1a
ARM GAS  C:\Users\srich\AppData\Local\Temp\ccGsFjJ7.s 			page 55


 3079 0134 13       		.uleb128 0x13
 3080 0135 01       		.byte	0x1
 3081 0136 0B       		.uleb128 0xb
 3082 0137 0B       		.uleb128 0xb
 3083 0138 3A       		.uleb128 0x3a
 3084 0139 0B       		.uleb128 0xb
 3085 013a 3B       		.uleb128 0x3b
 3086 013b 05       		.uleb128 0x5
 3087 013c 01       		.uleb128 0x1
 3088 013d 13       		.uleb128 0x13
 3089 013e 00       		.byte	0
 3090 013f 00       		.byte	0
 3091 0140 1B       		.uleb128 0x1b
 3092 0141 17       		.uleb128 0x17
 3093 0142 01       		.byte	0x1
 3094 0143 0B       		.uleb128 0xb
 3095 0144 0B       		.uleb128 0xb
 3096 0145 3A       		.uleb128 0x3a
 3097 0146 0B       		.uleb128 0xb
 3098 0147 3B       		.uleb128 0x3b
 3099 0148 05       		.uleb128 0x5
 3100 0149 01       		.uleb128 0x1
 3101 014a 13       		.uleb128 0x13
 3102 014b 00       		.byte	0
 3103 014c 00       		.byte	0
 3104 014d 1C       		.uleb128 0x1c
 3105 014e 0D       		.uleb128 0xd
 3106 014f 00       		.byte	0
 3107 0150 03       		.uleb128 0x3
 3108 0151 0E       		.uleb128 0xe
 3109 0152 3A       		.uleb128 0x3a
 3110 0153 0B       		.uleb128 0xb
 3111 0154 3B       		.uleb128 0x3b
 3112 0155 05       		.uleb128 0x5
 3113 0156 49       		.uleb128 0x49
 3114 0157 13       		.uleb128 0x13
 3115 0158 00       		.byte	0
 3116 0159 00       		.byte	0
 3117 015a 1D       		.uleb128 0x1d
 3118 015b 15       		.uleb128 0x15
 3119 015c 01       		.byte	0x1
 3120 015d 27       		.uleb128 0x27
 3121 015e 19       		.uleb128 0x19
 3122 015f 01       		.uleb128 0x1
 3123 0160 13       		.uleb128 0x13
 3124 0161 00       		.byte	0
 3125 0162 00       		.byte	0
 3126 0163 1E       		.uleb128 0x1e
 3127 0164 0D       		.uleb128 0xd
 3128 0165 00       		.byte	0
 3129 0166 03       		.uleb128 0x3
 3130 0167 08       		.uleb128 0x8
 3131 0168 3A       		.uleb128 0x3a
 3132 0169 0B       		.uleb128 0xb
 3133 016a 3B       		.uleb128 0x3b
 3134 016b 05       		.uleb128 0x5
 3135 016c 49       		.uleb128 0x49
ARM GAS  C:\Users\srich\AppData\Local\Temp\ccGsFjJ7.s 			page 56


 3136 016d 13       		.uleb128 0x13
 3137 016e 38       		.uleb128 0x38
 3138 016f 0B       		.uleb128 0xb
 3139 0170 00       		.byte	0
 3140 0171 00       		.byte	0
 3141 0172 1F       		.uleb128 0x1f
 3142 0173 35       		.uleb128 0x35
 3143 0174 00       		.byte	0
 3144 0175 49       		.uleb128 0x49
 3145 0176 13       		.uleb128 0x13
 3146 0177 00       		.byte	0
 3147 0178 00       		.byte	0
 3148 0179 20       		.uleb128 0x20
 3149 017a 04       		.uleb128 0x4
 3150 017b 01       		.byte	0x1
 3151 017c 0B       		.uleb128 0xb
 3152 017d 0B       		.uleb128 0xb
 3153 017e 3A       		.uleb128 0x3a
 3154 017f 0B       		.uleb128 0xb
 3155 0180 3B       		.uleb128 0x3b
 3156 0181 0B       		.uleb128 0xb
 3157 0182 01       		.uleb128 0x1
 3158 0183 13       		.uleb128 0x13
 3159 0184 00       		.byte	0
 3160 0185 00       		.byte	0
 3161 0186 21       		.uleb128 0x21
 3162 0187 28       		.uleb128 0x28
 3163 0188 00       		.byte	0
 3164 0189 03       		.uleb128 0x3
 3165 018a 0E       		.uleb128 0xe
 3166 018b 1C       		.uleb128 0x1c
 3167 018c 0D       		.uleb128 0xd
 3168 018d 00       		.byte	0
 3169 018e 00       		.byte	0
 3170 018f 22       		.uleb128 0x22
 3171 0190 2E       		.uleb128 0x2e
 3172 0191 01       		.byte	0x1
 3173 0192 3F       		.uleb128 0x3f
 3174 0193 19       		.uleb128 0x19
 3175 0194 03       		.uleb128 0x3
 3176 0195 0E       		.uleb128 0xe
 3177 0196 3A       		.uleb128 0x3a
 3178 0197 0B       		.uleb128 0xb
 3179 0198 3B       		.uleb128 0x3b
 3180 0199 0B       		.uleb128 0xb
 3181 019a 27       		.uleb128 0x27
 3182 019b 19       		.uleb128 0x19
 3183 019c 49       		.uleb128 0x49
 3184 019d 13       		.uleb128 0x13
 3185 019e 11       		.uleb128 0x11
 3186 019f 01       		.uleb128 0x1
 3187 01a0 12       		.uleb128 0x12
 3188 01a1 06       		.uleb128 0x6
 3189 01a2 40       		.uleb128 0x40
 3190 01a3 18       		.uleb128 0x18
 3191 01a4 9742     		.uleb128 0x2117
 3192 01a6 19       		.uleb128 0x19
ARM GAS  C:\Users\srich\AppData\Local\Temp\ccGsFjJ7.s 			page 57


 3193 01a7 01       		.uleb128 0x1
 3194 01a8 13       		.uleb128 0x13
 3195 01a9 00       		.byte	0
 3196 01aa 00       		.byte	0
 3197 01ab 23       		.uleb128 0x23
 3198 01ac 05       		.uleb128 0x5
 3199 01ad 00       		.byte	0
 3200 01ae 03       		.uleb128 0x3
 3201 01af 08       		.uleb128 0x8
 3202 01b0 3A       		.uleb128 0x3a
 3203 01b1 0B       		.uleb128 0xb
 3204 01b2 3B       		.uleb128 0x3b
 3205 01b3 0B       		.uleb128 0xb
 3206 01b4 49       		.uleb128 0x49
 3207 01b5 13       		.uleb128 0x13
 3208 01b6 02       		.uleb128 0x2
 3209 01b7 17       		.uleb128 0x17
 3210 01b8 00       		.byte	0
 3211 01b9 00       		.byte	0
 3212 01ba 24       		.uleb128 0x24
 3213 01bb 05       		.uleb128 0x5
 3214 01bc 00       		.byte	0
 3215 01bd 03       		.uleb128 0x3
 3216 01be 0E       		.uleb128 0xe
 3217 01bf 3A       		.uleb128 0x3a
 3218 01c0 0B       		.uleb128 0xb
 3219 01c1 3B       		.uleb128 0x3b
 3220 01c2 0B       		.uleb128 0xb
 3221 01c3 49       		.uleb128 0x49
 3222 01c4 13       		.uleb128 0x13
 3223 01c5 02       		.uleb128 0x2
 3224 01c6 17       		.uleb128 0x17
 3225 01c7 00       		.byte	0
 3226 01c8 00       		.byte	0
 3227 01c9 25       		.uleb128 0x25
 3228 01ca 898201   		.uleb128 0x4109
 3229 01cd 01       		.byte	0x1
 3230 01ce 11       		.uleb128 0x11
 3231 01cf 01       		.uleb128 0x1
 3232 01d0 9542     		.uleb128 0x2115
 3233 01d2 19       		.uleb128 0x19
 3234 01d3 31       		.uleb128 0x31
 3235 01d4 13       		.uleb128 0x13
 3236 01d5 00       		.byte	0
 3237 01d6 00       		.byte	0
 3238 01d7 26       		.uleb128 0x26
 3239 01d8 8A8201   		.uleb128 0x410a
 3240 01db 00       		.byte	0
 3241 01dc 02       		.uleb128 0x2
 3242 01dd 18       		.uleb128 0x18
 3243 01de 9142     		.uleb128 0x2111
 3244 01e0 18       		.uleb128 0x18
 3245 01e1 00       		.byte	0
 3246 01e2 00       		.byte	0
 3247 01e3 27       		.uleb128 0x27
 3248 01e4 05       		.uleb128 0x5
 3249 01e5 00       		.byte	0
ARM GAS  C:\Users\srich\AppData\Local\Temp\ccGsFjJ7.s 			page 58


 3250 01e6 03       		.uleb128 0x3
 3251 01e7 0E       		.uleb128 0xe
 3252 01e8 3A       		.uleb128 0x3a
 3253 01e9 0B       		.uleb128 0xb
 3254 01ea 3B       		.uleb128 0x3b
 3255 01eb 0B       		.uleb128 0xb
 3256 01ec 49       		.uleb128 0x49
 3257 01ed 13       		.uleb128 0x13
 3258 01ee 02       		.uleb128 0x2
 3259 01ef 18       		.uleb128 0x18
 3260 01f0 00       		.byte	0
 3261 01f1 00       		.byte	0
 3262 01f2 28       		.uleb128 0x28
 3263 01f3 05       		.uleb128 0x5
 3264 01f4 00       		.byte	0
 3265 01f5 03       		.uleb128 0x3
 3266 01f6 08       		.uleb128 0x8
 3267 01f7 3A       		.uleb128 0x3a
 3268 01f8 0B       		.uleb128 0xb
 3269 01f9 3B       		.uleb128 0x3b
 3270 01fa 0B       		.uleb128 0xb
 3271 01fb 49       		.uleb128 0x49
 3272 01fc 13       		.uleb128 0x13
 3273 01fd 02       		.uleb128 0x2
 3274 01fe 18       		.uleb128 0x18
 3275 01ff 00       		.byte	0
 3276 0200 00       		.byte	0
 3277 0201 29       		.uleb128 0x29
 3278 0202 898201   		.uleb128 0x4109
 3279 0205 01       		.byte	0x1
 3280 0206 11       		.uleb128 0x11
 3281 0207 01       		.uleb128 0x1
 3282 0208 31       		.uleb128 0x31
 3283 0209 13       		.uleb128 0x13
 3284 020a 00       		.byte	0
 3285 020b 00       		.byte	0
 3286 020c 2A       		.uleb128 0x2a
 3287 020d 34       		.uleb128 0x34
 3288 020e 00       		.byte	0
 3289 020f 03       		.uleb128 0x3
 3290 0210 08       		.uleb128 0x8
 3291 0211 3A       		.uleb128 0x3a
 3292 0212 0B       		.uleb128 0xb
 3293 0213 3B       		.uleb128 0x3b
 3294 0214 0B       		.uleb128 0xb
 3295 0215 49       		.uleb128 0x49
 3296 0216 13       		.uleb128 0x13
 3297 0217 02       		.uleb128 0x2
 3298 0218 17       		.uleb128 0x17
 3299 0219 00       		.byte	0
 3300 021a 00       		.byte	0
 3301 021b 2B       		.uleb128 0x2b
 3302 021c 34       		.uleb128 0x34
 3303 021d 00       		.byte	0
 3304 021e 03       		.uleb128 0x3
 3305 021f 0E       		.uleb128 0xe
 3306 0220 3A       		.uleb128 0x3a
ARM GAS  C:\Users\srich\AppData\Local\Temp\ccGsFjJ7.s 			page 59


 3307 0221 0B       		.uleb128 0xb
 3308 0222 3B       		.uleb128 0x3b
 3309 0223 05       		.uleb128 0x5
 3310 0224 49       		.uleb128 0x49
 3311 0225 13       		.uleb128 0x13
 3312 0226 3F       		.uleb128 0x3f
 3313 0227 19       		.uleb128 0x19
 3314 0228 3C       		.uleb128 0x3c
 3315 0229 19       		.uleb128 0x19
 3316 022a 00       		.byte	0
 3317 022b 00       		.byte	0
 3318 022c 2C       		.uleb128 0x2c
 3319 022d 34       		.uleb128 0x34
 3320 022e 00       		.byte	0
 3321 022f 03       		.uleb128 0x3
 3322 0230 08       		.uleb128 0x8
 3323 0231 3A       		.uleb128 0x3a
 3324 0232 0B       		.uleb128 0xb
 3325 0233 3B       		.uleb128 0x3b
 3326 0234 05       		.uleb128 0x5
 3327 0235 49       		.uleb128 0x49
 3328 0236 13       		.uleb128 0x13
 3329 0237 3F       		.uleb128 0x3f
 3330 0238 19       		.uleb128 0x19
 3331 0239 3C       		.uleb128 0x3c
 3332 023a 19       		.uleb128 0x19
 3333 023b 00       		.byte	0
 3334 023c 00       		.byte	0
 3335 023d 2D       		.uleb128 0x2d
 3336 023e 2E       		.uleb128 0x2e
 3337 023f 01       		.byte	0x1
 3338 0240 3F       		.uleb128 0x3f
 3339 0241 19       		.uleb128 0x19
 3340 0242 03       		.uleb128 0x3
 3341 0243 0E       		.uleb128 0xe
 3342 0244 3A       		.uleb128 0x3a
 3343 0245 0B       		.uleb128 0xb
 3344 0246 3B       		.uleb128 0x3b
 3345 0247 05       		.uleb128 0x5
 3346 0248 27       		.uleb128 0x27
 3347 0249 19       		.uleb128 0x19
 3348 024a 49       		.uleb128 0x49
 3349 024b 13       		.uleb128 0x13
 3350 024c 3C       		.uleb128 0x3c
 3351 024d 19       		.uleb128 0x19
 3352 024e 01       		.uleb128 0x1
 3353 024f 13       		.uleb128 0x13
 3354 0250 00       		.byte	0
 3355 0251 00       		.byte	0
 3356 0252 2E       		.uleb128 0x2e
 3357 0253 2E       		.uleb128 0x2e
 3358 0254 01       		.byte	0x1
 3359 0255 3F       		.uleb128 0x3f
 3360 0256 19       		.uleb128 0x19
 3361 0257 03       		.uleb128 0x3
 3362 0258 0E       		.uleb128 0xe
 3363 0259 3A       		.uleb128 0x3a
ARM GAS  C:\Users\srich\AppData\Local\Temp\ccGsFjJ7.s 			page 60


 3364 025a 0B       		.uleb128 0xb
 3365 025b 3B       		.uleb128 0x3b
 3366 025c 0B       		.uleb128 0xb
 3367 025d 27       		.uleb128 0x27
 3368 025e 19       		.uleb128 0x19
 3369 025f 49       		.uleb128 0x49
 3370 0260 13       		.uleb128 0x13
 3371 0261 3C       		.uleb128 0x3c
 3372 0262 19       		.uleb128 0x19
 3373 0263 01       		.uleb128 0x1
 3374 0264 13       		.uleb128 0x13
 3375 0265 00       		.byte	0
 3376 0266 00       		.byte	0
 3377 0267 2F       		.uleb128 0x2f
 3378 0268 2E       		.uleb128 0x2e
 3379 0269 01       		.byte	0x1
 3380 026a 3F       		.uleb128 0x3f
 3381 026b 19       		.uleb128 0x19
 3382 026c 03       		.uleb128 0x3
 3383 026d 0E       		.uleb128 0xe
 3384 026e 27       		.uleb128 0x27
 3385 026f 19       		.uleb128 0x19
 3386 0270 49       		.uleb128 0x49
 3387 0271 13       		.uleb128 0x13
 3388 0272 34       		.uleb128 0x34
 3389 0273 19       		.uleb128 0x19
 3390 0274 3C       		.uleb128 0x3c
 3391 0275 19       		.uleb128 0x19
 3392 0276 00       		.byte	0
 3393 0277 00       		.byte	0
 3394 0278 00       		.byte	0
 3395              		.section	.debug_loc,"",%progbits
 3396              	.Ldebug_loc0:
 3397              	.LLST0:
 3398 0000 00000000 		.4byte	.LVL0
 3399 0004 08000000 		.4byte	.LVL2
 3400 0008 0100     		.2byte	0x1
 3401 000a 50       		.byte	0x50
 3402 000b 08000000 		.4byte	.LVL2
 3403 000f 12000000 		.4byte	.LVL5
 3404 0013 0400     		.2byte	0x4
 3405 0015 F3       		.byte	0xf3
 3406 0016 01       		.uleb128 0x1
 3407 0017 50       		.byte	0x50
 3408 0018 9F       		.byte	0x9f
 3409 0019 12000000 		.4byte	.LVL5
 3410 001d 1A000000 		.4byte	.LVL7
 3411 0021 0100     		.2byte	0x1
 3412 0023 50       		.byte	0x50
 3413 0024 1A000000 		.4byte	.LVL7
 3414 0028 20000000 		.4byte	.LFE118
 3415 002c 0400     		.2byte	0x4
 3416 002e F3       		.byte	0xf3
 3417 002f 01       		.uleb128 0x1
 3418 0030 50       		.byte	0x50
 3419 0031 9F       		.byte	0x9f
 3420 0032 00000000 		.4byte	0
ARM GAS  C:\Users\srich\AppData\Local\Temp\ccGsFjJ7.s 			page 61


 3421 0036 00000000 		.4byte	0
 3422              	.LLST1:
 3423 003a 00000000 		.4byte	.LVL0
 3424 003e 06000000 		.4byte	.LVL1
 3425 0042 0100     		.2byte	0x1
 3426 0044 51       		.byte	0x51
 3427 0045 06000000 		.4byte	.LVL1
 3428 0049 12000000 		.4byte	.LVL5
 3429 004d 0400     		.2byte	0x4
 3430 004f F3       		.byte	0xf3
 3431 0050 01       		.uleb128 0x1
 3432 0051 51       		.byte	0x51
 3433 0052 9F       		.byte	0x9f
 3434 0053 12000000 		.4byte	.LVL5
 3435 0057 20000000 		.4byte	.LFE118
 3436 005b 0100     		.2byte	0x1
 3437 005d 51       		.byte	0x51
 3438 005e 00000000 		.4byte	0
 3439 0062 00000000 		.4byte	0
 3440              	.LLST2:
 3441 0066 00000000 		.4byte	.LVL0
 3442 006a 0A000000 		.4byte	.LVL3
 3443 006e 0100     		.2byte	0x1
 3444 0070 52       		.byte	0x52
 3445 0071 0A000000 		.4byte	.LVL3
 3446 0075 11000000 		.4byte	.LVL5-1
 3447 0079 0100     		.2byte	0x1
 3448 007b 51       		.byte	0x51
 3449 007c 11000000 		.4byte	.LVL5-1
 3450 0080 12000000 		.4byte	.LVL5
 3451 0084 0400     		.2byte	0x4
 3452 0086 F3       		.byte	0xf3
 3453 0087 01       		.uleb128 0x1
 3454 0088 52       		.byte	0x52
 3455 0089 9F       		.byte	0x9f
 3456 008a 12000000 		.4byte	.LVL5
 3457 008e 20000000 		.4byte	.LFE118
 3458 0092 0100     		.2byte	0x1
 3459 0094 52       		.byte	0x52
 3460 0095 00000000 		.4byte	0
 3461 0099 00000000 		.4byte	0
 3462              	.LLST3:
 3463 009d 00000000 		.4byte	.LVL0
 3464 00a1 0E000000 		.4byte	.LVL4
 3465 00a5 0100     		.2byte	0x1
 3466 00a7 53       		.byte	0x53
 3467 00a8 0E000000 		.4byte	.LVL4
 3468 00ac 11000000 		.4byte	.LVL5-1
 3469 00b0 0100     		.2byte	0x1
 3470 00b2 52       		.byte	0x52
 3471 00b3 11000000 		.4byte	.LVL5-1
 3472 00b7 12000000 		.4byte	.LVL5
 3473 00bb 0400     		.2byte	0x4
 3474 00bd F3       		.byte	0xf3
 3475 00be 01       		.uleb128 0x1
 3476 00bf 53       		.byte	0x53
 3477 00c0 9F       		.byte	0x9f
ARM GAS  C:\Users\srich\AppData\Local\Temp\ccGsFjJ7.s 			page 62


 3478 00c1 12000000 		.4byte	.LVL5
 3479 00c5 14000000 		.4byte	.LVL6
 3480 00c9 0100     		.2byte	0x1
 3481 00cb 53       		.byte	0x53
 3482 00cc 14000000 		.4byte	.LVL6
 3483 00d0 20000000 		.4byte	.LFE118
 3484 00d4 0400     		.2byte	0x4
 3485 00d6 F3       		.byte	0xf3
 3486 00d7 01       		.uleb128 0x1
 3487 00d8 53       		.byte	0x53
 3488 00d9 9F       		.byte	0x9f
 3489 00da 00000000 		.4byte	0
 3490 00de 00000000 		.4byte	0
 3491              	.LLST4:
 3492 00e2 00000000 		.4byte	.LVL8
 3493 00e6 02000000 		.4byte	.LVL9
 3494 00ea 0100     		.2byte	0x1
 3495 00ec 50       		.byte	0x50
 3496 00ed 02000000 		.4byte	.LVL9
 3497 00f1 04000000 		.4byte	.LFE119
 3498 00f5 0400     		.2byte	0x4
 3499 00f7 F3       		.byte	0xf3
 3500 00f8 01       		.uleb128 0x1
 3501 00f9 50       		.byte	0x50
 3502 00fa 9F       		.byte	0x9f
 3503 00fb 00000000 		.4byte	0
 3504 00ff 00000000 		.4byte	0
 3505              	.LLST5:
 3506 0103 00000000 		.4byte	.LVL10
 3507 0107 0E000000 		.4byte	.LVL13
 3508 010b 0100     		.2byte	0x1
 3509 010d 50       		.byte	0x50
 3510 010e 0E000000 		.4byte	.LVL13
 3511 0112 1A000000 		.4byte	.LVL16
 3512 0116 0400     		.2byte	0x4
 3513 0118 F3       		.byte	0xf3
 3514 0119 01       		.uleb128 0x1
 3515 011a 50       		.byte	0x50
 3516 011b 9F       		.byte	0x9f
 3517 011c 1A000000 		.4byte	.LVL16
 3518 0120 22000000 		.4byte	.LVL18
 3519 0124 0100     		.2byte	0x1
 3520 0126 50       		.byte	0x50
 3521 0127 22000000 		.4byte	.LVL18
 3522 012b 28000000 		.4byte	.LFE120
 3523 012f 0400     		.2byte	0x4
 3524 0131 F3       		.byte	0xf3
 3525 0132 01       		.uleb128 0x1
 3526 0133 50       		.byte	0x50
 3527 0134 9F       		.byte	0x9f
 3528 0135 00000000 		.4byte	0
 3529 0139 00000000 		.4byte	0
 3530              	.LLST6:
 3531 013d 00000000 		.4byte	.LVL10
 3532 0141 08000000 		.4byte	.LVL11
 3533 0145 0100     		.2byte	0x1
 3534 0147 51       		.byte	0x51
ARM GAS  C:\Users\srich\AppData\Local\Temp\ccGsFjJ7.s 			page 63


 3535 0148 08000000 		.4byte	.LVL11
 3536 014c 1A000000 		.4byte	.LVL16
 3537 0150 0400     		.2byte	0x4
 3538 0152 F3       		.byte	0xf3
 3539 0153 01       		.uleb128 0x1
 3540 0154 51       		.byte	0x51
 3541 0155 9F       		.byte	0x9f
 3542 0156 1A000000 		.4byte	.LVL16
 3543 015a 28000000 		.4byte	.LFE120
 3544 015e 0100     		.2byte	0x1
 3545 0160 51       		.byte	0x51
 3546 0161 00000000 		.4byte	0
 3547 0165 00000000 		.4byte	0
 3548              	.LLST7:
 3549 0169 00000000 		.4byte	.LVL10
 3550 016d 0C000000 		.4byte	.LVL12
 3551 0171 0100     		.2byte	0x1
 3552 0173 52       		.byte	0x52
 3553 0174 0C000000 		.4byte	.LVL12
 3554 0178 15000000 		.4byte	.LVL15-1
 3555 017c 0100     		.2byte	0x1
 3556 017e 51       		.byte	0x51
 3557 017f 15000000 		.4byte	.LVL15-1
 3558 0183 1A000000 		.4byte	.LVL16
 3559 0187 0400     		.2byte	0x4
 3560 0189 F3       		.byte	0xf3
 3561 018a 01       		.uleb128 0x1
 3562 018b 52       		.byte	0x52
 3563 018c 9F       		.byte	0x9f
 3564 018d 1A000000 		.4byte	.LVL16
 3565 0191 28000000 		.4byte	.LFE120
 3566 0195 0100     		.2byte	0x1
 3567 0197 52       		.byte	0x52
 3568 0198 00000000 		.4byte	0
 3569 019c 00000000 		.4byte	0
 3570              	.LLST8:
 3571 01a0 00000000 		.4byte	.LVL10
 3572 01a4 12000000 		.4byte	.LVL14
 3573 01a8 0100     		.2byte	0x1
 3574 01aa 53       		.byte	0x53
 3575 01ab 12000000 		.4byte	.LVL14
 3576 01af 15000000 		.4byte	.LVL15-1
 3577 01b3 0100     		.2byte	0x1
 3578 01b5 52       		.byte	0x52
 3579 01b6 15000000 		.4byte	.LVL15-1
 3580 01ba 1A000000 		.4byte	.LVL16
 3581 01be 0100     		.2byte	0x1
 3582 01c0 54       		.byte	0x54
 3583 01c1 1A000000 		.4byte	.LVL16
 3584 01c5 1C000000 		.4byte	.LVL17
 3585 01c9 0100     		.2byte	0x1
 3586 01cb 53       		.byte	0x53
 3587 01cc 1C000000 		.4byte	.LVL17
 3588 01d0 28000000 		.4byte	.LFE120
 3589 01d4 0400     		.2byte	0x4
 3590 01d6 F3       		.byte	0xf3
 3591 01d7 01       		.uleb128 0x1
ARM GAS  C:\Users\srich\AppData\Local\Temp\ccGsFjJ7.s 			page 64


 3592 01d8 53       		.byte	0x53
 3593 01d9 9F       		.byte	0x9f
 3594 01da 00000000 		.4byte	0
 3595 01de 00000000 		.4byte	0
 3596              	.LLST9:
 3597 01e2 00000000 		.4byte	.LVL19
 3598 01e6 02000000 		.4byte	.LVL20
 3599 01ea 0100     		.2byte	0x1
 3600 01ec 50       		.byte	0x50
 3601 01ed 02000000 		.4byte	.LVL20
 3602 01f1 04000000 		.4byte	.LFE121
 3603 01f5 0400     		.2byte	0x4
 3604 01f7 F3       		.byte	0xf3
 3605 01f8 01       		.uleb128 0x1
 3606 01f9 50       		.byte	0x50
 3607 01fa 9F       		.byte	0x9f
 3608 01fb 00000000 		.4byte	0
 3609 01ff 00000000 		.4byte	0
 3610              	.LLST10:
 3611 0203 00000000 		.4byte	.LVL21
 3612 0207 06000000 		.4byte	.LVL22
 3613 020b 0100     		.2byte	0x1
 3614 020d 50       		.byte	0x50
 3615 020e 06000000 		.4byte	.LVL22
 3616 0212 18000000 		.4byte	.LFE122
 3617 0216 0100     		.2byte	0x1
 3618 0218 54       		.byte	0x54
 3619 0219 00000000 		.4byte	0
 3620 021d 00000000 		.4byte	0
 3621              	.LLST11:
 3622 0221 00000000 		.4byte	.LVL21
 3623 0225 09000000 		.4byte	.LVL23-1
 3624 0229 0100     		.2byte	0x1
 3625 022b 51       		.byte	0x51
 3626 022c 09000000 		.4byte	.LVL23-1
 3627 0230 18000000 		.4byte	.LFE122
 3628 0234 0400     		.2byte	0x4
 3629 0236 F3       		.byte	0xf3
 3630 0237 01       		.uleb128 0x1
 3631 0238 51       		.byte	0x51
 3632 0239 9F       		.byte	0x9f
 3633 023a 00000000 		.4byte	0
 3634 023e 00000000 		.4byte	0
 3635              	.LLST12:
 3636 0242 0A000000 		.4byte	.LVL23
 3637 0246 16000000 		.4byte	.LVL25
 3638 024a 0100     		.2byte	0x1
 3639 024c 50       		.byte	0x50
 3640 024d 00000000 		.4byte	0
 3641 0251 00000000 		.4byte	0
 3642              	.LLST13:
 3643 0255 00000000 		.4byte	.LVL26
 3644 0259 04000000 		.4byte	.LVL27
 3645 025d 0100     		.2byte	0x1
 3646 025f 50       		.byte	0x50
 3647 0260 04000000 		.4byte	.LVL27
 3648 0264 18000000 		.4byte	.LFE123
ARM GAS  C:\Users\srich\AppData\Local\Temp\ccGsFjJ7.s 			page 65


 3649 0268 0400     		.2byte	0x4
 3650 026a F3       		.byte	0xf3
 3651 026b 01       		.uleb128 0x1
 3652 026c 50       		.byte	0x50
 3653 026d 9F       		.byte	0x9f
 3654 026e 00000000 		.4byte	0
 3655 0272 00000000 		.4byte	0
 3656              	.LLST14:
 3657 0276 00000000 		.4byte	.LVL26
 3658 027a 08000000 		.4byte	.LVL28
 3659 027e 0100     		.2byte	0x1
 3660 0280 51       		.byte	0x51
 3661 0281 08000000 		.4byte	.LVL28
 3662 0285 18000000 		.4byte	.LFE123
 3663 0289 0400     		.2byte	0x4
 3664 028b F3       		.byte	0xf3
 3665 028c 01       		.uleb128 0x1
 3666 028d 51       		.byte	0x51
 3667 028e 9F       		.byte	0x9f
 3668 028f 00000000 		.4byte	0
 3669 0293 00000000 		.4byte	0
 3670              	.LLST15:
 3671 0297 00000000 		.4byte	.LVL26
 3672 029b 0A000000 		.4byte	.LVL29
 3673 029f 0100     		.2byte	0x1
 3674 02a1 52       		.byte	0x52
 3675 02a2 0A000000 		.4byte	.LVL29
 3676 02a6 0D000000 		.4byte	.LVL30-1
 3677 02aa 0100     		.2byte	0x1
 3678 02ac 50       		.byte	0x50
 3679 02ad 0D000000 		.4byte	.LVL30-1
 3680 02b1 18000000 		.4byte	.LFE123
 3681 02b5 0100     		.2byte	0x1
 3682 02b7 54       		.byte	0x54
 3683 02b8 00000000 		.4byte	0
 3684 02bc 00000000 		.4byte	0
 3685              	.LLST16:
 3686 02c0 00000000 		.4byte	.LVL31
 3687 02c4 02000000 		.4byte	.LVL32
 3688 02c8 0100     		.2byte	0x1
 3689 02ca 50       		.byte	0x50
 3690 02cb 02000000 		.4byte	.LVL32
 3691 02cf 04000000 		.4byte	.LFE124
 3692 02d3 0400     		.2byte	0x4
 3693 02d5 F3       		.byte	0xf3
 3694 02d6 01       		.uleb128 0x1
 3695 02d7 50       		.byte	0x50
 3696 02d8 9F       		.byte	0x9f
 3697 02d9 00000000 		.4byte	0
 3698 02dd 00000000 		.4byte	0
 3699              		.section	.debug_aranges,"",%progbits
 3700 0000 4C000000 		.4byte	0x4c
 3701 0004 0200     		.2byte	0x2
 3702 0006 00000000 		.4byte	.Ldebug_info0
 3703 000a 04       		.byte	0x4
 3704 000b 00       		.byte	0
 3705 000c 0000     		.2byte	0
ARM GAS  C:\Users\srich\AppData\Local\Temp\ccGsFjJ7.s 			page 66


 3706 000e 0000     		.2byte	0
 3707 0010 00000000 		.4byte	.LFB118
 3708 0014 20000000 		.4byte	.LFE118-.LFB118
 3709 0018 00000000 		.4byte	.LFB119
 3710 001c 04000000 		.4byte	.LFE119-.LFB119
 3711 0020 00000000 		.4byte	.LFB120
 3712 0024 28000000 		.4byte	.LFE120-.LFB120
 3713 0028 00000000 		.4byte	.LFB121
 3714 002c 04000000 		.4byte	.LFE121-.LFB121
 3715 0030 00000000 		.4byte	.LFB122
 3716 0034 18000000 		.4byte	.LFE122-.LFB122
 3717 0038 00000000 		.4byte	.LFB123
 3718 003c 18000000 		.4byte	.LFE123-.LFB123
 3719 0040 00000000 		.4byte	.LFB124
 3720 0044 04000000 		.4byte	.LFE124-.LFB124
 3721 0048 00000000 		.4byte	0
 3722 004c 00000000 		.4byte	0
 3723              		.section	.debug_ranges,"",%progbits
 3724              	.Ldebug_ranges0:
 3725 0000 00000000 		.4byte	.LFB118
 3726 0004 20000000 		.4byte	.LFE118
 3727 0008 00000000 		.4byte	.LFB119
 3728 000c 04000000 		.4byte	.LFE119
 3729 0010 00000000 		.4byte	.LFB120
 3730 0014 28000000 		.4byte	.LFE120
 3731 0018 00000000 		.4byte	.LFB121
 3732 001c 04000000 		.4byte	.LFE121
 3733 0020 00000000 		.4byte	.LFB122
 3734 0024 18000000 		.4byte	.LFE122
 3735 0028 00000000 		.4byte	.LFB123
 3736 002c 18000000 		.4byte	.LFE123
 3737 0030 00000000 		.4byte	.LFB124
 3738 0034 04000000 		.4byte	.LFE124
 3739 0038 00000000 		.4byte	0
 3740 003c 00000000 		.4byte	0
 3741              		.section	.debug_line,"",%progbits
 3742              	.Ldebug_line0:
 3743 0000 E5030000 		.section	.debug_str,"MS",%progbits,1
 3743      02004303 
 3743      00000201 
 3743      FB0E0D00 
 3743      01010101 
 3744              	.LASF187:
 3745 0000 54687265 		.ascii	"ThreadsList\000"
 3745      6164734C 
 3745      69737400 
 3746              	.LASF231:
 3747 000c 53657269 		.ascii	"SerialDriver\000"
 3747      616C4472 
 3747      69766572 
 3747      00
 3748              	.LASF258:
 3749 0019 2E2E2F2E 		.ascii	"../../../ChibiOS/os/various/syscalls.c\000"
 3749      2E2F2E2E 
 3749      2F436869 
 3749      62694F53 
 3749      2F6F732F 
ARM GAS  C:\Users\srich\AppData\Local\Temp\ccGsFjJ7.s 			page 67


 3750              	.LASF178:
 3751 0040 705F7469 		.ascii	"p_time\000"
 3751      6D6500
 3752              	.LASF188:
 3753 0047 72656761 		.ascii	"regarm_t\000"
 3753      726D5F74 
 3753      00
 3754              	.LASF169:
 3755 0050 705F7072 		.ascii	"p_prio\000"
 3755      696F00
 3756              	.LASF44:
 3757 0057 5F6F6E5F 		.ascii	"_on_exit_args\000"
 3757      65786974 
 3757      5F617267 
 3757      7300
 3758              	.LASF112:
 3759 0065 5F776374 		.ascii	"_wctomb_state\000"
 3759      6F6D625F 
 3759      73746174 
 3759      6500
 3760              	.LASF165:
 3761 0073 73797374 		.ascii	"systime_t\000"
 3761      696D655F 
 3761      7400
 3762              	.LASF109:
 3763 007d 5F723438 		.ascii	"_r48\000"
 3763      00
 3764              	.LASF247:
 3765 0082 5F777269 		.ascii	"_write_r\000"
 3765      74655F72 
 3765      00
 3766              	.LASF193:
 3767 008b 6D5F6F77 		.ascii	"m_owner\000"
 3767      6E657200 
 3768              	.LASF180:
 3769 0093 705F6D73 		.ascii	"p_msgqueue\000"
 3769      67717565 
 3769      756500
 3770              	.LASF114:
 3771 009e 5F736967 		.ascii	"_signal_buf\000"
 3771      6E616C5F 
 3771      62756600 
 3772              	.LASF0:
 3773 00aa 756E7369 		.ascii	"unsigned int\000"
 3773      676E6564 
 3773      20696E74 
 3773      00
 3774              	.LASF153:
 3775 00b7 73745F62 		.ascii	"st_blksize\000"
 3775      6C6B7369 
 3775      7A6500
 3776              	.LASF58:
 3777 00c2 5F6C6266 		.ascii	"_lbfsize\000"
 3777      73697A65 
 3777      00
 3778              	.LASF56:
 3779 00cb 5F666C61 		.ascii	"_flags\000"
ARM GAS  C:\Users\srich\AppData\Local\Temp\ccGsFjJ7.s 			page 68


 3779      677300
 3780              	.LASF179:
 3781 00d2 705F7761 		.ascii	"p_waiting\000"
 3781      6974696E 
 3781      6700
 3782              	.LASF212:
 3783 00dc 715F7264 		.ascii	"q_rdptr\000"
 3783      70747200 
 3784              	.LASF8:
 3785 00e4 5F5F696E 		.ascii	"__int32_t\000"
 3785      7433325F 
 3785      7400
 3786              	.LASF73:
 3787 00ee 5F657272 		.ascii	"_errno\000"
 3787      6E6F00
 3788              	.LASF215:
 3789 00f5 716E6F74 		.ascii	"qnotify_t\000"
 3789      6966795F 
 3789      7400
 3790              	.LASF198:
 3791 00ff 656C5F6D 		.ascii	"el_mask\000"
 3791      61736B00 
 3792              	.LASF243:
 3793 0107 72656164 		.ascii	"readt\000"
 3793      7400
 3794              	.LASF204:
 3795 010d 77746F62 		.ascii	"wtobjp\000"
 3795      6A7000
 3796              	.LASF214:
 3797 0114 715F6C69 		.ascii	"q_link\000"
 3797      6E6B00
 3798              	.LASF70:
 3799 011b 5F6D6273 		.ascii	"_mbstate\000"
 3799      74617465 
 3799      00
 3800              	.LASF28:
 3801 0124 5F5F554C 		.ascii	"__ULong\000"
 3801      6F6E6700 
 3802              	.LASF116:
 3803 012c 5F6D6272 		.ascii	"_mbrlen_state\000"
 3803      6C656E5F 
 3803      73746174 
 3803      6500
 3804              	.LASF75:
 3805 013a 5F737464 		.ascii	"_stdout\000"
 3805      6F757400 
 3806              	.LASF19:
 3807 0142 5F66706F 		.ascii	"_fpos_t\000"
 3807      735F7400 
 3808              	.LASF51:
 3809 014a 5F666E73 		.ascii	"_fns\000"
 3809      00
 3810              	.LASF59:
 3811 014f 5F636F6F 		.ascii	"_cookie\000"
 3811      6B696500 
 3812              	.LASF242:
 3813 0157 77726974 		.ascii	"writet\000"
ARM GAS  C:\Users\srich\AppData\Local\Temp\ccGsFjJ7.s 			page 69


 3813      657400
 3814              	.LASF224:
 3815 015e 47545052 		.ascii	"GTPR\000"
 3815      00
 3816              	.LASF41:
 3817 0163 5F5F746D 		.ascii	"__tm_wday\000"
 3817      5F776461 
 3817      7900
 3818              	.LASF82:
 3819 016d 5F5F636C 		.ascii	"__cleanup\000"
 3819      65616E75 
 3819      7000
 3820              	.LASF33:
 3821 0177 5F426967 		.ascii	"_Bigint\000"
 3821      696E7400 
 3822              	.LASF83:
 3823 017f 5F726573 		.ascii	"_result\000"
 3823      756C7400 
 3824              	.LASF131:
 3825 0187 696E6F5F 		.ascii	"ino_t\000"
 3825      7400
 3826              	.LASF128:
 3827 018d 75696E74 		.ascii	"uint32_t\000"
 3827      33325F74 
 3827      00
 3828              	.LASF37:
 3829 0196 5F5F746D 		.ascii	"__tm_hour\000"
 3829      5F686F75 
 3829      7200
 3830              	.LASF207:
 3831 01a0 715F7761 		.ascii	"q_waiting\000"
 3831      6974696E 
 3831      6700
 3832              	.LASF163:
 3833 01aa 6576656E 		.ascii	"eventmask_t\000"
 3833      746D6173 
 3833      6B5F7400 
 3834              	.LASF24:
 3835 01b6 5F5F636F 		.ascii	"__count\000"
 3835      756E7400 
 3836              	.LASF230:
 3837 01be 73647374 		.ascii	"sdstate_t\000"
 3837      6174655F 
 3837      7400
 3838              	.LASF232:
 3839 01c8 6576656E 		.ascii	"event\000"
 3839      7400
 3840              	.LASF151:
 3841 01ce 73745F63 		.ascii	"st_ctime\000"
 3841      74696D65 
 3841      00
 3842              	.LASF161:
 3843 01d7 74707269 		.ascii	"tprio_t\000"
 3843      6F5F7400 
 3844              	.LASF122:
 3845 01df 5F6E6578 		.ascii	"_nextf\000"
 3845      746600
ARM GAS  C:\Users\srich\AppData\Local\Temp\ccGsFjJ7.s 			page 70


 3846              	.LASF252:
 3847 01e6 5F697361 		.ascii	"_isatty_r\000"
 3847      7474795F 
 3847      7200
 3848              	.LASF118:
 3849 01f0 5F6D6273 		.ascii	"_mbsrtowcs_state\000"
 3849      72746F77 
 3849      63735F73 
 3849      74617465 
 3849      00
 3850              	.LASF13:
 3851 0201 6C6F6E67 		.ascii	"long long unsigned int\000"
 3851      206C6F6E 
 3851      6720756E 
 3851      7369676E 
 3851      65642069 
 3852              	.LASF154:
 3853 0218 73745F62 		.ascii	"st_blocks\000"
 3853      6C6F636B 
 3853      7300
 3854              	.LASF244:
 3855 0222 66696C65 		.ascii	"file\000"
 3855      00
 3856              	.LASF99:
 3857 0227 5F72616E 		.ascii	"_rand48\000"
 3857      64343800 
 3858              	.LASF55:
 3859 022f 5F5F7346 		.ascii	"__sFILE\000"
 3859      494C4500 
 3860              	.LASF32:
 3861 0237 5F776473 		.ascii	"_wds\000"
 3861      00
 3862              	.LASF259:
 3863 023c 443A5C47 		.ascii	"D:\\GitHub\\Smarty\\smarty\\firmware\000"
 3863      69744875 
 3863      625C536D 
 3863      61727479 
 3863      5C736D61 
 3864              	.LASF249:
 3865 025d 5F736272 		.ascii	"_sbrk_r\000"
 3865      6B5F7200 
 3866              	.LASF255:
 3867 0265 63684F51 		.ascii	"chOQWriteTimeout\000"
 3867      57726974 
 3867      6554696D 
 3867      656F7574 
 3867      00
 3868              	.LASF149:
 3869 0276 73745F6D 		.ascii	"st_mtime\000"
 3869      74696D65 
 3869      00
 3870              	.LASF6:
 3871 027f 5F5F7569 		.ascii	"__uint16_t\000"
 3871      6E743136 
 3871      5F7400
 3872              	.LASF95:
 3873 028a 5F5F4649 		.ascii	"__FILE\000"
ARM GAS  C:\Users\srich\AppData\Local\Temp\ccGsFjJ7.s 			page 71


 3873      4C4500
 3874              	.LASF121:
 3875 0291 5F685F65 		.ascii	"_h_errno\000"
 3875      72726E6F 
 3875      00
 3876              	.LASF67:
 3877 029a 5F6F6666 		.ascii	"_offset\000"
 3877      73657400 
 3878              	.LASF64:
 3879 02a2 5F756275 		.ascii	"_ubuf\000"
 3879      6600
 3880              	.LASF171:
 3881 02a8 705F6E65 		.ascii	"p_newer\000"
 3881      77657200 
 3882              	.LASF254:
 3883 02b0 63684951 		.ascii	"chIQReadTimeout\000"
 3883      52656164 
 3883      54696D65 
 3883      6F757400 
 3884              	.LASF138:
 3885 02c0 73746174 		.ascii	"stat\000"
 3885      00
 3886              	.LASF78:
 3887 02c5 5F656D65 		.ascii	"_emergency\000"
 3887      7267656E 
 3887      637900
 3888              	.LASF30:
 3889 02d0 5F6D6178 		.ascii	"_maxwds\000"
 3889      77647300 
 3890              	.LASF139:
 3891 02d8 73745F64 		.ascii	"st_dev\000"
 3891      657600
 3892              	.LASF240:
 3893 02df 70757474 		.ascii	"putt\000"
 3893      00
 3894              	.LASF200:
 3895 02e4 4576656E 		.ascii	"EventSource\000"
 3895      74536F75 
 3895      72636500 
 3896              	.LASF2:
 3897 02f0 73697A65 		.ascii	"size_t\000"
 3897      5F7400
 3898              	.LASF202:
 3899 02f7 7264796D 		.ascii	"rdymsg\000"
 3899      736700
 3900              	.LASF35:
 3901 02fe 5F5F746D 		.ascii	"__tm_sec\000"
 3901      5F736563 
 3901      00
 3902              	.LASF105:
 3903 0307 5F617363 		.ascii	"_asctime_buf\000"
 3903      74696D65 
 3903      5F627566 
 3903      00
 3904              	.LASF42:
 3905 0314 5F5F746D 		.ascii	"__tm_yday\000"
 3905      5F796461 
ARM GAS  C:\Users\srich\AppData\Local\Temp\ccGsFjJ7.s 			page 72


 3905      7900
 3906              	.LASF77:
 3907 031e 5F696E63 		.ascii	"_inc\000"
 3907      00
 3908              	.LASF156:
 3909 0323 5F426F6F 		.ascii	"_Bool\000"
 3909      6C00
 3910              	.LASF228:
 3911 0329 53445F53 		.ascii	"SD_STOP\000"
 3911      544F5000 
 3912              	.LASF144:
 3913 0331 73745F67 		.ascii	"st_gid\000"
 3913      696400
 3914              	.LASF29:
 3915 0338 5F6E6578 		.ascii	"_next\000"
 3915      7400
 3916              	.LASF142:
 3917 033e 73745F6E 		.ascii	"st_nlink\000"
 3917      6C696E6B 
 3917      00
 3918              	.LASF251:
 3919 0347 5F667374 		.ascii	"_fstat_r\000"
 3919      61745F72 
 3919      00
 3920              	.LASF226:
 3921 0350 55534152 		.ascii	"USART_TypeDef\000"
 3921      545F5479 
 3921      70654465 
 3921      6600
 3922              	.LASF191:
 3923 035e 4D757465 		.ascii	"Mutex\000"
 3923      7800
 3924              	.LASF217:
 3925 0364 4F757470 		.ascii	"OutputQueue\000"
 3925      75745175 
 3925      65756500 
 3926              	.LASF216:
 3927 0370 496E7075 		.ascii	"InputQueue\000"
 3927      74517565 
 3927      756500
 3928              	.LASF250:
 3929 037b 696E6372 		.ascii	"incr\000"
 3929      00
 3930              	.LASF25:
 3931 0380 5F5F7661 		.ascii	"__value\000"
 3931      6C756500 
 3932              	.LASF85:
 3933 0388 5F703573 		.ascii	"_p5s\000"
 3933      00
 3934              	.LASF173:
 3935 038d 705F6E61 		.ascii	"p_name\000"
 3935      6D6500
 3936              	.LASF120:
 3937 0394 5F776373 		.ascii	"_wcsrtombs_state\000"
 3937      72746F6D 
 3937      62735F73 
 3937      74617465 
ARM GAS  C:\Users\srich\AppData\Local\Temp\ccGsFjJ7.s 			page 73


 3937      00
 3938              	.LASF110:
 3939 03a5 5F6D626C 		.ascii	"_mblen_state\000"
 3939      656E5F73 
 3939      74617465 
 3939      00
 3940              	.LASF186:
 3941 03b2 54687265 		.ascii	"ThreadsQueue\000"
 3941      61647351 
 3941      75657565 
 3941      00
 3942              	.LASF94:
 3943 03bf 63686172 		.ascii	"char\000"
 3943      00
 3944              	.LASF38:
 3945 03c4 5F5F746D 		.ascii	"__tm_mday\000"
 3945      5F6D6461 
 3945      7900
 3946              	.LASF91:
 3947 03ce 5F736967 		.ascii	"_sig_func\000"
 3947      5F66756E 
 3947      6300
 3948              	.LASF117:
 3949 03d8 5F6D6272 		.ascii	"_mbrtowc_state\000"
 3949      746F7763 
 3949      5F737461 
 3949      746500
 3950              	.LASF90:
 3951 03e7 5F617465 		.ascii	"_atexit0\000"
 3951      78697430 
 3951      00
 3952              	.LASF211:
 3953 03f0 715F7772 		.ascii	"q_wrptr\000"
 3953      70747200 
 3954              	.LASF166:
 3955 03f8 54687265 		.ascii	"Thread\000"
 3955      616400
 3956              	.LASF158:
 3957 03ff 74737461 		.ascii	"tstate_t\000"
 3957      74655F74 
 3957      00
 3958              	.LASF84:
 3959 0408 5F726573 		.ascii	"_result_k\000"
 3959      756C745F 
 3959      6B00
 3960              	.LASF147:
 3961 0412 73745F61 		.ascii	"st_atime\000"
 3961      74696D65 
 3961      00
 3962              	.LASF172:
 3963 041b 705F6F6C 		.ascii	"p_older\000"
 3963      64657200 
 3964              	.LASF174:
 3965 0423 705F7374 		.ascii	"p_state\000"
 3965      61746500 
 3966              	.LASF256:
 3967 042b 6368436F 		.ascii	"chCoreAlloc\000"
ARM GAS  C:\Users\srich\AppData\Local\Temp\ccGsFjJ7.s 			page 74


 3967      7265416C 
 3967      6C6F6300 
 3968              	.LASF21:
 3969 0437 5F5F7763 		.ascii	"__wch\000"
 3969      6800
 3970              	.LASF125:
 3971 043d 75696E74 		.ascii	"uint8_t\000"
 3971      385F7400 
 3972              	.LASF164:
 3973 0445 666C6167 		.ascii	"flagsmask_t\000"
 3973      736D6173 
 3973      6B5F7400 
 3974              	.LASF129:
 3975 0451 74696D65 		.ascii	"time_t\000"
 3975      5F7400
 3976              	.LASF63:
 3977 0458 5F636C6F 		.ascii	"_close\000"
 3977      736500
 3978              	.LASF185:
 3979 045f 705F6D70 		.ascii	"p_mpool\000"
 3979      6F6F6C00 
 3980              	.LASF183:
 3981 0467 705F6D74 		.ascii	"p_mtxlist\000"
 3981      786C6973 
 3981      7400
 3982              	.LASF81:
 3983 0471 5F5F7364 		.ascii	"__sdidinit\000"
 3983      6964696E 
 3983      697400
 3984              	.LASF140:
 3985 047c 73745F69 		.ascii	"st_ino\000"
 3985      6E6F00
 3986              	.LASF236:
 3987 0483 75736172 		.ascii	"usart\000"
 3987      7400
 3988              	.LASF74:
 3989 0489 5F737464 		.ascii	"_stdin\000"
 3989      696E00
 3990              	.LASF107:
 3991 0490 5F67616D 		.ascii	"_gamma_signgam\000"
 3991      6D615F73 
 3991      69676E67 
 3991      616D00
 3992              	.LASF12:
 3993 049f 6C6F6E67 		.ascii	"long long int\000"
 3993      206C6F6E 
 3993      6720696E 
 3993      7400
 3994              	.LASF238:
 3995 04ad 77726974 		.ascii	"write\000"
 3995      6500
 3996              	.LASF209:
 3997 04b3 715F6275 		.ascii	"q_buffer\000"
 3997      66666572 
 3997      00
 3998              	.LASF53:
 3999 04bc 5F626173 		.ascii	"_base\000"
ARM GAS  C:\Users\srich\AppData\Local\Temp\ccGsFjJ7.s 			page 75


 3999      6500
 4000              	.LASF86:
 4001 04c2 5F667265 		.ascii	"_freelist\000"
 4001      656C6973 
 4001      7400
 4002              	.LASF16:
 4003 04cc 5F5F6465 		.ascii	"__dev_t\000"
 4003      765F7400 
 4004              	.LASF101:
 4005 04d4 5F6D756C 		.ascii	"_mult\000"
 4005      7400
 4006              	.LASF162:
 4007 04da 6D73675F 		.ascii	"msg_t\000"
 4007      7400
 4008              	.LASF190:
 4009 04e0 636F6E74 		.ascii	"context\000"
 4009      65787400 
 4010              	.LASF119:
 4011 04e8 5F776372 		.ascii	"_wcrtomb_state\000"
 4011      746F6D62 
 4011      5F737461 
 4011      746500
 4012              	.LASF133:
 4013 04f7 6465765F 		.ascii	"dev_t\000"
 4013      7400
 4014              	.LASF57:
 4015 04fd 5F66696C 		.ascii	"_file\000"
 4015      6500
 4016              	.LASF175:
 4017 0503 705F666C 		.ascii	"p_flags\000"
 4017      61677300 
 4018              	.LASF260:
 4019 050b 6D656D73 		.ascii	"memset\000"
 4019      657400
 4020              	.LASF257:
 4021 0512 474E5520 		.ascii	"GNU C 4.9.3 20150529 (release) [ARM/embedded-4_9-br"
 4021      4320342E 
 4021      392E3320 
 4021      32303135 
 4021      30353239 
 4022 0545 616E6368 		.ascii	"anch revision 227977] -mcpu=cortex-m4 -mno-thumb-in"
 4022      20726576 
 4022      6973696F 
 4022      6E203232 
 4022      37393737 
 4023 0578 74657277 		.ascii	"terwork -mthumb -ggdb -O2 -fomit-frame-pointer -fal"
 4023      6F726B20 
 4023      2D6D7468 
 4023      756D6220 
 4023      2D676764 
 4024 05ab 69676E2D 		.ascii	"ign-functions=16 -ffunction-sections -fdata-section"
 4024      66756E63 
 4024      74696F6E 
 4024      733D3136 
 4024      202D6666 
 4025 05de 73202D66 		.ascii	"s -fno-common\000"
 4025      6E6F2D63 
ARM GAS  C:\Users\srich\AppData\Local\Temp\ccGsFjJ7.s 			page 76


 4025      6F6D6D6F 
 4025      6E00
 4026              	.LASF26:
 4027 05ec 5F6D6273 		.ascii	"_mbstate_t\000"
 4027      74617465 
 4027      5F7400
 4028              	.LASF234:
 4029 05f7 69717565 		.ascii	"iqueue\000"
 4029      756500
 4030              	.LASF210:
 4031 05fe 715F746F 		.ascii	"q_top\000"
 4031      7000
 4032              	.LASF141:
 4033 0604 73745F6D 		.ascii	"st_mode\000"
 4033      6F646500 
 4034              	.LASF27:
 4035 060c 5F666C6F 		.ascii	"_flock_t\000"
 4035      636B5F74 
 4035      00
 4036              	.LASF43:
 4037 0615 5F5F746D 		.ascii	"__tm_isdst\000"
 4037      5F697364 
 4037      737400
 4038              	.LASF160:
 4039 0620 74736C69 		.ascii	"tslices_t\000"
 4039      6365735F 
 4039      7400
 4040              	.LASF50:
 4041 062a 5F696E64 		.ascii	"_ind\000"
 4041      00
 4042              	.LASF148:
 4043 062f 73745F73 		.ascii	"st_spare1\000"
 4043      70617265 
 4043      3100
 4044              	.LASF150:
 4045 0639 73745F73 		.ascii	"st_spare2\000"
 4045      70617265 
 4045      3200
 4046              	.LASF152:
 4047 0643 73745F73 		.ascii	"st_spare3\000"
 4047      70617265 
 4047      3300
 4048              	.LASF155:
 4049 064d 73745F73 		.ascii	"st_spare4\000"
 4049      70617265 
 4049      3400
 4050              	.LASF248:
 4051 0657 5F636C6F 		.ascii	"_close_r\000"
 4051      73655F72 
 4051      00
 4052              	.LASF196:
 4053 0660 656C5F6E 		.ascii	"el_next\000"
 4053      65787400 
 4054              	.LASF181:
 4055 0668 705F6D73 		.ascii	"p_msg\000"
 4055      6700
 4056              	.LASF157:
ARM GAS  C:\Users\srich\AppData\Local\Temp\ccGsFjJ7.s 			page 77


 4057 066e 746D6F64 		.ascii	"tmode_t\000"
 4057      655F7400 
 4058              	.LASF39:
 4059 0676 5F5F746D 		.ascii	"__tm_mon\000"
 4059      5F6D6F6E 
 4059      00
 4060              	.LASF246:
 4061 067f 5F6C7365 		.ascii	"_lseek_r\000"
 4061      656B5F72 
 4061      00
 4062              	.LASF7:
 4063 0688 73686F72 		.ascii	"short unsigned int\000"
 4063      7420756E 
 4063      7369676E 
 4063      65642069 
 4063      6E7400
 4064              	.LASF235:
 4065 069b 6F717565 		.ascii	"oqueue\000"
 4065      756500
 4066              	.LASF18:
 4067 06a2 5F5F6769 		.ascii	"__gid_t\000"
 4067      645F7400 
 4068              	.LASF126:
 4069 06aa 75696E74 		.ascii	"uint16_t\000"
 4069      31365F74 
 4069      00
 4070              	.LASF52:
 4071 06b3 5F5F7362 		.ascii	"__sbuf\000"
 4071      756600
 4072              	.LASF189:
 4073 06ba 696E7463 		.ascii	"intctx\000"
 4073      747800
 4074              	.LASF61:
 4075 06c1 5F777269 		.ascii	"_write\000"
 4075      746500
 4076              	.LASF245:
 4077 06c8 5F726561 		.ascii	"_read_r\000"
 4077      645F7200 
 4078              	.LASF135:
 4079 06d0 6769645F 		.ascii	"gid_t\000"
 4079      7400
 4080              	.LASF229:
 4081 06d6 53445F52 		.ascii	"SD_READY\000"
 4081      45414459 
 4081      00
 4082              	.LASF49:
 4083 06df 5F617465 		.ascii	"_atexit\000"
 4083      78697400 
 4084              	.LASF134:
 4085 06e7 7569645F 		.ascii	"uid_t\000"
 4085      7400
 4086              	.LASF184:
 4087 06ed 705F7265 		.ascii	"p_realprio\000"
 4087      616C7072 
 4087      696F00
 4088              	.LASF219:
 4089 06f8 52455345 		.ascii	"RESERVED1\000"
ARM GAS  C:\Users\srich\AppData\Local\Temp\ccGsFjJ7.s 			page 78


 4089      52564544 
 4089      3100
 4090              	.LASF220:
 4091 0702 52455345 		.ascii	"RESERVED2\000"
 4091      52564544 
 4091      3200
 4092              	.LASF221:
 4093 070c 52455345 		.ascii	"RESERVED3\000"
 4093      52564544 
 4093      3300
 4094              	.LASF222:
 4095 0716 52455345 		.ascii	"RESERVED4\000"
 4095      52564544 
 4095      3400
 4096              	.LASF223:
 4097 0720 52455345 		.ascii	"RESERVED5\000"
 4097      52564544 
 4097      3500
 4098              	.LASF225:
 4099 072a 52455345 		.ascii	"RESERVED6\000"
 4099      52564544 
 4099      3600
 4100              	.LASF5:
 4101 0734 73686F72 		.ascii	"short int\000"
 4101      7420696E 
 4101      7400
 4102              	.LASF182:
 4103 073e 705F6570 		.ascii	"p_epending\000"
 4103      656E6469 
 4103      6E6700
 4104              	.LASF192:
 4105 0749 6D5F7175 		.ascii	"m_queue\000"
 4105      65756500 
 4106              	.LASF9:
 4107 0751 6C6F6E67 		.ascii	"long int\000"
 4107      20696E74 
 4107      00
 4108              	.LASF253:
 4109 075a 49544D5F 		.ascii	"ITM_RxBuffer\000"
 4109      52784275 
 4109      66666572 
 4109      00
 4110              	.LASF93:
 4111 0767 5F5F7366 		.ascii	"__sf\000"
 4111      00
 4112              	.LASF31:
 4113 076c 5F736967 		.ascii	"_sign\000"
 4113      6E00
 4114              	.LASF80:
 4115 0772 5F637572 		.ascii	"_current_locale\000"
 4115      72656E74 
 4115      5F6C6F63 
 4115      616C6500 
 4116              	.LASF167:
 4117 0782 705F6E65 		.ascii	"p_next\000"
 4117      787400
 4118              	.LASF68:
ARM GAS  C:\Users\srich\AppData\Local\Temp\ccGsFjJ7.s 			page 79


 4119 0789 5F646174 		.ascii	"_data\000"
 4119      6100
 4120              	.LASF79:
 4121 078f 5F637572 		.ascii	"_current_category\000"
 4121      72656E74 
 4121      5F636174 
 4121      65676F72 
 4121      7900
 4122              	.LASF22:
 4123 07a1 5F5F7763 		.ascii	"__wchb\000"
 4123      686200
 4124              	.LASF170:
 4125 07a8 705F6374 		.ascii	"p_ctx\000"
 4125      7800
 4126              	.LASF40:
 4127 07ae 5F5F746D 		.ascii	"__tm_year\000"
 4127      5F796561 
 4127      7200
 4128              	.LASF104:
 4129 07b8 5F737472 		.ascii	"_strtok_last\000"
 4129      746F6B5F 
 4129      6C617374 
 4129      00
 4130              	.LASF106:
 4131 07c5 5F6C6F63 		.ascii	"_localtime_buf\000"
 4131      616C7469 
 4131      6D655F62 
 4131      756600
 4132              	.LASF124:
 4133 07d4 5F756E75 		.ascii	"_unused\000"
 4133      73656400 
 4134              	.LASF3:
 4135 07dc 5F5F7569 		.ascii	"__uint8_t\000"
 4135      6E74385F 
 4135      7400
 4136              	.LASF89:
 4137 07e6 5F6E6577 		.ascii	"_new\000"
 4137      00
 4138              	.LASF87:
 4139 07eb 5F637674 		.ascii	"_cvtlen\000"
 4139      6C656E00 
 4140              	.LASF239:
 4141 07f3 72656164 		.ascii	"read\000"
 4141      00
 4142              	.LASF113:
 4143 07f8 5F6C3634 		.ascii	"_l64a_buf\000"
 4143      615F6275 
 4143      6600
 4144              	.LASF197:
 4145 0802 656C5F6C 		.ascii	"el_listener\000"
 4145      69737465 
 4145      6E657200 
 4146              	.LASF227:
 4147 080e 53445F55 		.ascii	"SD_UNINIT\000"
 4147      4E494E49 
 4147      5400
 4148              	.LASF130:
ARM GAS  C:\Users\srich\AppData\Local\Temp\ccGsFjJ7.s 			page 80


 4149 0818 63616464 		.ascii	"caddr_t\000"
 4149      725F7400 
 4150              	.LASF66:
 4151 0820 5F626C6B 		.ascii	"_blksize\000"
 4151      73697A65 
 4151      00
 4152              	.LASF208:
 4153 0829 715F636F 		.ascii	"q_counter\000"
 4153      756E7465 
 4153      7200
 4154              	.LASF34:
 4155 0833 5F5F746D 		.ascii	"__tm\000"
 4155      00
 4156              	.LASF241:
 4157 0838 67657474 		.ascii	"gett\000"
 4157      00
 4158              	.LASF69:
 4159 083d 5F6C6F63 		.ascii	"_lock\000"
 4159      6B00
 4160              	.LASF168:
 4161 0843 705F7072 		.ascii	"p_prev\000"
 4161      657600
 4162              	.LASF23:
 4163 084a 73697A65 		.ascii	"sizetype\000"
 4163      74797065 
 4163      00
 4164              	.LASF159:
 4165 0853 74726566 		.ascii	"trefs_t\000"
 4165      735F7400 
 4166              	.LASF195:
 4167 085b 4576656E 		.ascii	"EventListener\000"
 4167      744C6973 
 4167      74656E65 
 4167      7200
 4168              	.LASF11:
 4169 0869 6C6F6E67 		.ascii	"long unsigned int\000"
 4169      20756E73 
 4169      69676E65 
 4169      6420696E 
 4169      7400
 4170              	.LASF97:
 4171 087b 5F6E696F 		.ascii	"_niobs\000"
 4171      627300
 4172              	.LASF20:
 4173 0882 77696E74 		.ascii	"wint_t\000"
 4173      5F7400
 4174              	.LASF127:
 4175 0889 696E7433 		.ascii	"int32_t\000"
 4175      325F7400 
 4176              	.LASF36:
 4177 0891 5F5F746D 		.ascii	"__tm_min\000"
 4177      5F6D696E 
 4177      00
 4178              	.LASF46:
 4179 089a 5F64736F 		.ascii	"_dso_handle\000"
 4179      5F68616E 
 4179      646C6500 
ARM GAS  C:\Users\srich\AppData\Local\Temp\ccGsFjJ7.s 			page 81


 4180              	.LASF137:
 4181 08a6 6E6C696E 		.ascii	"nlink_t\000"
 4181      6B5F7400 
 4182              	.LASF88:
 4183 08ae 5F637674 		.ascii	"_cvtbuf\000"
 4183      62756600 
 4184              	.LASF4:
 4185 08b6 756E7369 		.ascii	"unsigned char\000"
 4185      676E6564 
 4185      20636861 
 4185      7200
 4186              	.LASF10:
 4187 08c4 5F5F7569 		.ascii	"__uint32_t\000"
 4187      6E743332 
 4187      5F7400
 4188              	.LASF176:
 4189 08cf 705F7265 		.ascii	"p_refs\000"
 4189      667300
 4190              	.LASF14:
 4191 08d6 5F4C4F43 		.ascii	"_LOCK_RECURSIVE_T\000"
 4191      4B5F5245 
 4191      43555253 
 4191      4956455F 
 4191      5400
 4192              	.LASF102:
 4193 08e8 5F616464 		.ascii	"_add\000"
 4193      00
 4194              	.LASF60:
 4195 08ed 5F726561 		.ascii	"_read\000"
 4195      6400
 4196              	.LASF177:
 4197 08f3 705F7072 		.ascii	"p_preempt\000"
 4197      65656D70 
 4197      7400
 4198              	.LASF201:
 4199 08fd 65735F6E 		.ascii	"es_next\000"
 4199      65787400 
 4200              	.LASF233:
 4201 0905 73746174 		.ascii	"state\000"
 4201      6500
 4202              	.LASF205:
 4203 090b 65776D61 		.ascii	"ewmask\000"
 4203      736B00
 4204              	.LASF17:
 4205 0912 5F5F7569 		.ascii	"__uid_t\000"
 4205      645F7400 
 4206              	.LASF146:
 4207 091a 73745F73 		.ascii	"st_size\000"
 4207      697A6500 
 4208              	.LASF96:
 4209 0922 5F676C75 		.ascii	"_glue\000"
 4209      6500
 4210              	.LASF92:
 4211 0928 5F5F7367 		.ascii	"__sglue\000"
 4211      6C756500 
 4212              	.LASF115:
 4213 0930 5F676574 		.ascii	"_getdate_err\000"
ARM GAS  C:\Users\srich\AppData\Local\Temp\ccGsFjJ7.s 			page 82


 4213      64617465 
 4213      5F657272 
 4213      00
 4214              	.LASF206:
 4215 093d 47656E65 		.ascii	"GenericQueue\000"
 4215      72696351 
 4215      75657565 
 4215      00
 4216              	.LASF143:
 4217 094a 73745F75 		.ascii	"st_uid\000"
 4217      696400
 4218              	.LASF111:
 4219 0951 5F6D6274 		.ascii	"_mbtowc_state\000"
 4219      6F77635F 
 4219      73746174 
 4219      6500
 4220              	.LASF194:
 4221 095f 6D5F6E65 		.ascii	"m_next\000"
 4221      787400
 4222              	.LASF45:
 4223 0966 5F666E61 		.ascii	"_fnargs\000"
 4223      72677300 
 4224              	.LASF1:
 4225 096e 7369676E 		.ascii	"signed char\000"
 4225      65642063 
 4225      68617200 
 4226              	.LASF136:
 4227 097a 6D6F6465 		.ascii	"mode_t\000"
 4227      5F7400
 4228              	.LASF72:
 4229 0981 5F726565 		.ascii	"_reent\000"
 4229      6E7400
 4230              	.LASF132:
 4231 0988 6F66665F 		.ascii	"off_t\000"
 4231      7400
 4232              	.LASF237:
 4233 098e 53657269 		.ascii	"SerialDriverVMT\000"
 4233      616C4472 
 4233      69766572 
 4233      564D5400 
 4234              	.LASF47:
 4235 099e 5F666E74 		.ascii	"_fntypes\000"
 4235      79706573 
 4235      00
 4236              	.LASF54:
 4237 09a7 5F73697A 		.ascii	"_size\000"
 4237      6500
 4238              	.LASF218:
 4239 09ad 52455345 		.ascii	"RESERVED0\000"
 4239      52564544 
 4239      3000
 4240              	.LASF15:
 4241 09b7 5F6F6666 		.ascii	"_off_t\000"
 4241      5F7400
 4242              	.LASF65:
 4243 09be 5F6E6275 		.ascii	"_nbuf\000"
 4243      6600
ARM GAS  C:\Users\srich\AppData\Local\Temp\ccGsFjJ7.s 			page 83


 4244              	.LASF103:
 4245 09c4 5F756E75 		.ascii	"_unused_rand\000"
 4245      7365645F 
 4245      72616E64 
 4245      00
 4246              	.LASF145:
 4247 09d1 73745F72 		.ascii	"st_rdev\000"
 4247      64657600 
 4248              	.LASF71:
 4249 09d9 5F666C61 		.ascii	"_flags2\000"
 4249      67733200 
 4250              	.LASF48:
 4251 09e1 5F69735F 		.ascii	"_is_cxa\000"
 4251      63786100 
 4252              	.LASF213:
 4253 09e9 715F6E6F 		.ascii	"q_notify\000"
 4253      74696679 
 4253      00
 4254              	.LASF100:
 4255 09f2 5F736565 		.ascii	"_seed\000"
 4255      6400
 4256              	.LASF108:
 4257 09f8 5F72616E 		.ascii	"_rand_next\000"
 4257      645F6E65 
 4257      787400
 4258              	.LASF199:
 4259 0a03 656C5F66 		.ascii	"el_flags\000"
 4259      6C616773 
 4259      00
 4260              	.LASF203:
 4261 0a0c 65786974 		.ascii	"exitcode\000"
 4261      636F6465 
 4261      00
 4262              	.LASF62:
 4263 0a15 5F736565 		.ascii	"_seek\000"
 4263      6B00
 4264              	.LASF76:
 4265 0a1b 5F737464 		.ascii	"_stderr\000"
 4265      65727200 
 4266              	.LASF123:
 4267 0a23 5F6E6D61 		.ascii	"_nmalloc\000"
 4267      6C6C6F63 
 4267      00
 4268              	.LASF98:
 4269 0a2c 5F696F62 		.ascii	"_iobs\000"
 4269      7300
 4270              		.ident	"GCC: (GNU Tools for ARM Embedded Processors) 4.9.3 20150529 (release) [ARM/embedded-4_9-br
ARM GAS  C:\Users\srich\AppData\Local\Temp\ccGsFjJ7.s 			page 84


DEFINED SYMBOLS
                            *ABS*:00000000 syscalls.c
C:\Users\srich\AppData\Local\Temp\ccGsFjJ7.s:19     .text._read_r:00000000 $t
C:\Users\srich\AppData\Local\Temp\ccGsFjJ7.s:25     .text._read_r:00000000 _read_r
C:\Users\srich\AppData\Local\Temp\ccGsFjJ7.s:61     .text._read_r:0000001c $d
C:\Users\srich\AppData\Local\Temp\ccGsFjJ7.s:66     .text._lseek_r:00000000 $t
C:\Users\srich\AppData\Local\Temp\ccGsFjJ7.s:72     .text._lseek_r:00000000 _lseek_r
C:\Users\srich\AppData\Local\Temp\ccGsFjJ7.s:88     .text._write_r:00000000 $t
C:\Users\srich\AppData\Local\Temp\ccGsFjJ7.s:94     .text._write_r:00000000 _write_r
C:\Users\srich\AppData\Local\Temp\ccGsFjJ7.s:142    .text._write_r:00000024 $d
C:\Users\srich\AppData\Local\Temp\ccGsFjJ7.s:147    .text._close_r:00000000 $t
C:\Users\srich\AppData\Local\Temp\ccGsFjJ7.s:153    .text._close_r:00000000 _close_r
C:\Users\srich\AppData\Local\Temp\ccGsFjJ7.s:169    .text._sbrk_r:00000000 $t
C:\Users\srich\AppData\Local\Temp\ccGsFjJ7.s:175    .text._sbrk_r:00000000 _sbrk_r
C:\Users\srich\AppData\Local\Temp\ccGsFjJ7.s:211    .text._fstat_r:00000000 $t
C:\Users\srich\AppData\Local\Temp\ccGsFjJ7.s:217    .text._fstat_r:00000000 _fstat_r
C:\Users\srich\AppData\Local\Temp\ccGsFjJ7.s:250    .text._isatty_r:00000000 $t
C:\Users\srich\AppData\Local\Temp\ccGsFjJ7.s:256    .text._isatty_r:00000000 _isatty_r
                     .debug_frame:00000010 $d

UNDEFINED SYMBOLS
chIQReadTimeout
SD1
chOQWriteTimeout
chCoreAlloc
memset
