ARM GAS  C:\Users\srich\AppData\Local\Temp\ccGsFjJ7.s 			page 1


   1              		.syntax unified
   2              		.cpu cortex-m4
   3              		.fpu softvfp
   4              		.eabi_attribute 20, 1
   5              		.eabi_attribute 21, 1
   6              		.eabi_attribute 23, 3
   7              		.eabi_attribute 24, 1
   8              		.eabi_attribute 25, 1
   9              		.eabi_attribute 26, 1
  10              		.eabi_attribute 30, 2
  11              		.eabi_attribute 34, 1
  12              		.eabi_attribute 18, 4
  13              		.thumb
  14              		.file	"syscalls.c"
  15              		.text
  16              	.Ltext0:
  17              		.cfi_sections	.debug_frame
  18              		.section	.text._read_r,"ax",%progbits
  19              		.align	2
  20              		.p2align 4,,15
  21              		.global	_read_r
  22              		.thumb
  23              		.thumb_func
  24              		.type	_read_r, %function
  25              	_read_r:
  26              	.LFB118:
  27              		.file 1 "../../../ChibiOS/os/various/syscalls.c"
  28              		.loc 1 76 0
  29              		.cfi_startproc
  30              		@ args = 0, pretend = 0, frame = 0
  31              		@ frame_needed = 0, uses_anonymous_args = 0
  32              		@ link register save eliminated.
  33              	.LVL0:
  34              		.loc 1 79 0
  35 0000 3BB1     		cbz	r3, .L2
  36              		.loc 1 79 0 is_stmt 0 discriminator 1
  37 0002 31B9     		cbnz	r1, .L2
  38              		.loc 1 83 0 is_stmt 1
  39 0004 1146     		mov	r1, r2
  40              	.LVL1:
  41 0006 0548     		ldr	r0, .L10
  42              	.LVL2:
  43 0008 1A46     		mov	r2, r3
  44              	.LVL3:
  45 000a 4FF0FF33 		mov	r3, #-1
  46              	.LVL4:
  47 000e FFF7FEBF 		b	chIQReadTimeout
  48              	.LVL5:
  49              	.L2:
  50              		.loc 1 80 0
  51 0012 1623     		movs	r3, #22
  52              	.LVL6:
  53 0014 0360     		str	r3, [r0]
  54              		.loc 1 92 0
  55 0016 4FF0FF30 		mov	r0, #-1
  56              	.LVL7:
  57 001a 7047     		bx	lr
ARM GAS  C:\Users\srich\AppData\Local\Temp\ccGsFjJ7.s 			page 2


  58              	.L11:
  59              		.align	2
  60              	.L10:
  61 001c 0C000000 		.word	SD1+12
  62              		.cfi_endproc
  63              	.LFE118:
  64              		.size	_read_r, .-_read_r
  65              		.section	.text._lseek_r,"ax",%progbits
  66              		.align	2
  67              		.p2align 4,,15
  68              		.global	_lseek_r
  69              		.thumb
  70              		.thumb_func
  71              		.type	_lseek_r, %function
  72              	_lseek_r:
  73              	.LFB119:
  74              		.loc 1 97 0
  75              		.cfi_startproc
  76              		@ args = 0, pretend = 0, frame = 0
  77              		@ frame_needed = 0, uses_anonymous_args = 0
  78              		@ link register save eliminated.
  79              	.LVL8:
  80              		.loc 1 104 0
  81 0000 0020     		movs	r0, #0
  82              	.LVL9:
  83 0002 7047     		bx	lr
  84              		.cfi_endproc
  85              	.LFE119:
  86              		.size	_lseek_r, .-_lseek_r
  87              		.section	.text._write_r,"ax",%progbits
  88              		.align	2
  89              		.p2align 4,,15
  90              		.global	_write_r
  91              		.thumb
  92              		.thumb_func
  93              		.type	_write_r, %function
  94              	_write_r:
  95              	.LFB120:
  96              		.loc 1 109 0
  97              		.cfi_startproc
  98              		@ args = 0, pretend = 0, frame = 0
  99              		@ frame_needed = 0, uses_anonymous_args = 0
 100              	.LVL10:
 101              		.loc 1 114 0
 102 0000 0129     		cmp	r1, #1
 103 0002 0AD1     		bne	.L17
 104              		.loc 1 109 0
 105 0004 10B5     		push	{r4, lr}
 106              		.cfi_def_cfa_offset 8
 107              		.cfi_offset 4, -8
 108              		.cfi_offset 14, -4
 109 0006 1146     		mov	r1, r2
 110              	.LVL11:
 111 0008 1C46     		mov	r4, r3
 112              		.loc 1 118 0
 113 000a 1A46     		mov	r2, r3
 114              	.LVL12:
ARM GAS  C:\Users\srich\AppData\Local\Temp\ccGsFjJ7.s 			page 3


 115 000c 0548     		ldr	r0, .L18
 116              	.LVL13:
 117 000e 4FF0FF33 		mov	r3, #-1
 118              	.LVL14:
 119 0012 FFF7FEFF 		bl	chOQWriteTimeout
 120              	.LVL15:
 121              		.loc 1 120 0
 122 0016 2046     		mov	r0, r4
 123              		.loc 1 121 0
 124 0018 10BD     		pop	{r4, pc}
 125              	.LVL16:
 126              	.L17:
 127              		.cfi_def_cfa_offset 0
 128              		.cfi_restore 4
 129              		.cfi_restore 14
 130              		.loc 1 115 0
 131 001a 1623     		movs	r3, #22
 132              	.LVL17:
 133 001c 0360     		str	r3, [r0]
 134              		.loc 1 116 0
 135 001e 4FF0FF30 		mov	r0, #-1
 136              	.LVL18:
 137              		.loc 1 121 0
 138 0022 7047     		bx	lr
 139              	.L19:
 140              		.align	2
 141              	.L18:
 142 0024 30000000 		.word	SD1+48
 143              		.cfi_endproc
 144              	.LFE120:
 145              		.size	_write_r, .-_write_r
 146              		.section	.text._close_r,"ax",%progbits
 147              		.align	2
 148              		.p2align 4,,15
 149              		.global	_close_r
 150              		.thumb
 151              		.thumb_func
 152              		.type	_close_r, %function
 153              	_close_r:
 154              	.LFB121:
 155              		.loc 1 126 0
 156              		.cfi_startproc
 157              		@ args = 0, pretend = 0, frame = 0
 158              		@ frame_needed = 0, uses_anonymous_args = 0
 159              		@ link register save eliminated.
 160              	.LVL19:
 161              		.loc 1 131 0
 162 0000 0020     		movs	r0, #0
 163              	.LVL20:
 164 0002 7047     		bx	lr
 165              		.cfi_endproc
 166              	.LFE121:
 167              		.size	_close_r, .-_close_r
 168              		.section	.text._sbrk_r,"ax",%progbits
 169              		.align	2
 170              		.p2align 4,,15
 171              		.global	_sbrk_r
ARM GAS  C:\Users\srich\AppData\Local\Temp\ccGsFjJ7.s 			page 4


 172              		.thumb
 173              		.thumb_func
 174              		.type	_sbrk_r, %function
 175              	_sbrk_r:
 176              	.LFB122:
 177              		.loc 1 136 0
 178              		.cfi_startproc
 179              		@ args = 0, pretend = 0, frame = 0
 180              		@ frame_needed = 0, uses_anonymous_args = 0
 181              	.LVL21:
 182 0000 10B5     		push	{r4, lr}
 183              		.cfi_def_cfa_offset 8
 184              		.cfi_offset 4, -8
 185              		.cfi_offset 14, -4
 186              		.loc 1 136 0
 187 0002 0446     		mov	r4, r0
 188              		.loc 1 142 0
 189 0004 0846     		mov	r0, r1
 190              	.LVL22:
 191 0006 FFF7FEFF 		bl	chCoreAlloc
 192              	.LVL23:
 193              		.loc 1 143 0
 194 000a 00B1     		cbz	r0, .L25
 195              		.loc 1 153 0
 196 000c 10BD     		pop	{r4, pc}
 197              	.LVL24:
 198              	.L25:
 199              		.loc 1 144 0
 200 000e 0C23     		movs	r3, #12
 201 0010 2360     		str	r3, [r4]
 202              		.loc 1 145 0
 203 0012 4FF0FF30 		mov	r0, #-1
 204              	.LVL25:
 205              		.loc 1 153 0
 206 0016 10BD     		pop	{r4, pc}
 207              		.cfi_endproc
 208              	.LFE122:
 209              		.size	_sbrk_r, .-_sbrk_r
 210              		.section	.text._fstat_r,"ax",%progbits
 211              		.align	2
 212              		.p2align 4,,15
 213              		.global	_fstat_r
 214              		.thumb
 215              		.thumb_func
 216              		.type	_fstat_r, %function
 217              	_fstat_r:
 218              	.LFB123:
 219              		.loc 1 158 0
 220              		.cfi_startproc
 221              		@ args = 0, pretend = 0, frame = 0
 222              		@ frame_needed = 0, uses_anonymous_args = 0
 223              	.LVL26:
 224 0000 10B5     		push	{r4, lr}
 225              		.cfi_def_cfa_offset 8
 226              		.cfi_offset 4, -8
 227              		.cfi_offset 14, -4
 228              		.loc 1 162 0
ARM GAS  C:\Users\srich\AppData\Local\Temp\ccGsFjJ7.s 			page 5


 229 0002 1046     		mov	r0, r2
 230              	.LVL27:
 231              		.loc 1 158 0
 232 0004 1446     		mov	r4, r2
 233              		.loc 1 162 0
 234 0006 0021     		movs	r1, #0
 235              	.LVL28:
 236 0008 3C22     		movs	r2, #60
 237              	.LVL29:
 238 000a FFF7FEFF 		bl	memset
 239              	.LVL30:
 240              		.loc 1 163 0
 241 000e 4FF40053 		mov	r3, #8192
 242 0012 6360     		str	r3, [r4, #4]
 243              		.loc 1 165 0
 244 0014 0020     		movs	r0, #0
 245 0016 10BD     		pop	{r4, pc}
 246              		.cfi_endproc
 247              	.LFE123:
 248              		.size	_fstat_r, .-_fstat_r
 249              		.section	.text._isatty_r,"ax",%progbits
 250              		.align	2
 251              		.p2align 4,,15
 252              		.global	_isatty_r
 253              		.thumb
 254              		.thumb_func
 255              		.type	_isatty_r, %function
 256              	_isatty_r:
 257              	.LFB124:
 258              		.loc 1 170 0
 259              		.cfi_startproc
 260              		@ args = 0, pretend = 0, frame = 0
 261              		@ frame_needed = 0, uses_anonymous_args = 0
 262              		@ link register save eliminated.
 263              	.LVL31:
 264              		.loc 1 175 0
 265 0000 0120     		movs	r0, #1
 266              	.LVL32:
 267 0002 7047     		bx	lr
 268              		.cfi_endproc
 269              	.LFE124:
 270              		.size	_isatty_r, .-_isatty_r
 271              		.text
 272              	.Letext0:
 273              		.file 2 "c:\\chibistudio\\tools\\gnu tools arm embedded\\4.9 2015q3\\lib\\gcc\\arm-none-eabi\\4.9.
 274              		.file 3 "c:\\chibistudio\\tools\\gnu tools arm embedded\\4.9 2015q3\\arm-none-eabi\\include\\machi
 275              		.file 4 "c:\\chibistudio\\tools\\gnu tools arm embedded\\4.9 2015q3\\arm-none-eabi\\include\\sys\\
 276              		.file 5 "c:\\chibistudio\\tools\\gnu tools arm embedded\\4.9 2015q3\\arm-none-eabi\\include\\sys\\
 277              		.file 6 "c:\\chibistudio\\tools\\gnu tools arm embedded\\4.9 2015q3\\arm-none-eabi\\include\\sys\\
 278              		.file 7 "c:\\chibistudio\\tools\\gnu tools arm embedded\\4.9 2015q3\\arm-none-eabi\\include\\sys\\
 279              		.file 8 "c:\\chibistudio\\tools\\gnu tools arm embedded\\4.9 2015q3\\arm-none-eabi\\include\\sys\\
 280              		.file 9 "c:\\chibistudio\\tools\\gnu tools arm embedded\\4.9 2015q3\\arm-none-eabi\\include\\sys\\
 281              		.file 10 "../../../ChibiOS/os/ports/GCC/ARMCMx/chtypes.h"
 282              		.file 11 "../../../ChibiOS/os/kernel/include/chlists.h"
 283              		.file 12 "../../../ChibiOS/os/kernel/include/chthreads.h"
 284              		.file 13 "../../../ChibiOS/os/ports/GCC/ARMCMx/chcore_v7m.h"
 285              		.file 14 "../../../ChibiOS/os/kernel/include/chmtx.h"
ARM GAS  C:\Users\srich\AppData\Local\Temp\ccGsFjJ7.s 			page 6


 286              		.file 15 "../../../ChibiOS/os/kernel/include/chevents.h"
 287              		.file 16 "../../../ChibiOS/os/kernel/include/chqueues.h"
 288              		.file 17 "../../../ChibiOS/os/hal/platforms/STM32F4xx/stm32f4xx.h"
 289              		.file 18 "../../../ChibiOS/os/hal/include/serial.h"
 290              		.file 19 "../../../ChibiOS/os/kernel/include/chmemcore.h"
 291              		.file 20 "../../../ChibiOS/os/ports/common/ARMCMx/CMSIS/include/core_cm4.h"
 292              		.file 21 "../../../ChibiOS/os/hal/platforms/STM32/USARTv1/serial_lld.h"