ARM GAS  C:\Users\DNIEL~1\AppData\Local\Temp\ccVgcZUn.s 			page 1


   1              		.syntax unified
   2              		.cpu cortex-m4
   3              		.fpu softvfp
   4              		.eabi_attribute 20, 1
   5              		.eabi_attribute 21, 1
   6              		.eabi_attribute 23, 3
   7              		.eabi_attribute 24, 1
   8              		.eabi_attribute 25, 1
   9              		.eabi_attribute 26, 1
  10              		.eabi_attribute 30, 2
  11              		.eabi_attribute 18, 4
  12              		.thumb
  13              		.file	"testpools.c"
  20 0000 39010000 		.text
  20      0200F100 
  20      00000201 
  20      FB0E0D00 
  20      01010101 
  21              	.Ltext0:
  22              		.cfi_sections	.debug_frame
  23              		.section	.text.null_provider,"ax",%progbits
  24              		.align	2
  25              		.p2align 4,,15
  26              		.thumb
  27              		.thumb_func
  28              		.type	null_provider, %function
  29              	null_provider:
  30              	.LFB7:
  31              		.file 1 "../../../ChibiOS/test/testpools.c"
  32              		.loc 1 60 0
  33              		.cfi_startproc
  34              		@ args = 0, pretend = 0, frame = 0
  35              		@ frame_needed = 0, uses_anonymous_args = 0
  36              		@ link register save eliminated.
  37              	.LVL0:
  38              		.loc 1 64 0
  39 0000 0020     		movs	r0, #0
  40              	.LVL1:
  41 0002 7047     		bx	lr
  42              		.cfi_endproc
  43              	.LFE7:
  44              		.size	null_provider, .-null_provider
  45 0004 AFF30080 		.section	.text.pools1_execute,"ax",%progbits
  45      AFF30080 
  45      AFF30080 
  46              		.align	2
  47              		.p2align 4,,15
  48              		.thumb
  49              		.thumb_func
  50              		.type	pools1_execute, %function
  51              	pools1_execute:
ARM GAS  C:\Users\DNIEL~1\AppData\Local\Temp\ccVgcZUn.s 			page 2


  52              	.LFB9:
  53              		.loc 1 71 0
  54              		.cfi_startproc
  55              		@ args = 0, pretend = 0, frame = 0
  56              		@ frame_needed = 0, uses_anonymous_args = 0
  57 0000 70B5     		push	{r4, r5, r6, lr}
  58              	.LCFI0:
  59              		.cfi_def_cfa_offset 16
  60              		.loc 1 75 0
  61 0002 574C     		ldr	r4, .L6
  62              		.cfi_offset 14, -4
  63              		.cfi_offset 6, -8
  64              		.cfi_offset 5, -12
  65              		.cfi_offset 4, -16
  66 0004 5748     		ldr	r0, .L6+4
  67 0006 2568     		ldr	r5, [r4, #0]
  68 0008 0522     		movs	r2, #5
  69 000a 2946     		mov	r1, r5
  70 000c FFF7FEFF 		bl	chPoolLoadArray
  71              	.LVL2:
  72              		.loc 1 79 0
  73 0010 5448     		ldr	r0, .L6+4
  74 0012 FFF7FEFF 		bl	chPoolAlloc
  75 0016 011E     		subs	r1, r0, #0
  76 0018 18BF     		it	ne
  77 001a 0121     		movne	r1, #1
  78 001c 0120     		movs	r0, #1
  79 001e FFF7FEFF 		bl	_test_assert
  80 0022 0028     		cmp	r0, #0
  81 0024 40F08A80 		bne	.L2
  82              	.LVL3:
  83 0028 4E48     		ldr	r0, .L6+4
  84 002a FFF7FEFF 		bl	chPoolAlloc
  85 002e 011E     		subs	r1, r0, #0
  86 0030 18BF     		it	ne
  87 0032 0121     		movne	r1, #1
  88 0034 0120     		movs	r0, #1
  89 0036 FFF7FEFF 		bl	_test_assert
  90 003a 0028     		cmp	r0, #0
  91 003c 7ED1     		bne	.L2
  92              	.LVL4:
  93 003e 4948     		ldr	r0, .L6+4
  94 0040 FFF7FEFF 		bl	chPoolAlloc
  95 0044 011E     		subs	r1, r0, #0
  96 0046 18BF     		it	ne
  97 0048 0121     		movne	r1, #1
  98 004a 0120     		movs	r0, #1
  99 004c FFF7FEFF 		bl	_test_assert
 100 0050 0028     		cmp	r0, #0
 101 0052 73D1     		bne	.L2
 102              	.LVL5:
 103 0054 4348     		ldr	r0, .L6+4
 104 0056 FFF7FEFF 		bl	chPoolAlloc
 105 005a 011E     		subs	r1, r0, #0
 106 005c 18BF     		it	ne
 107 005e 0121     		movne	r1, #1
 108 0060 0120     		movs	r0, #1
ARM GAS  C:\Users\DNIEL~1\AppData\Local\Temp\ccVgcZUn.s 			page 3


 109 0062 FFF7FEFF 		bl	_test_assert
 110 0066 0028     		cmp	r0, #0
 111 0068 68D1     		bne	.L2
 112              	.LVL6:
 113 006a 3E48     		ldr	r0, .L6+4
 114 006c FFF7FEFF 		bl	chPoolAlloc
 115 0070 011E     		subs	r1, r0, #0
 116 0072 18BF     		it	ne
 117 0074 0121     		movne	r1, #1
 118 0076 0120     		movs	r0, #1
 119 0078 FFF7FEFF 		bl	_test_assert
 120 007c 0028     		cmp	r0, #0
 121 007e 5DD1     		bne	.L2
 122              	.LVL7:
 123              		.loc 1 82 0
 124 0080 3848     		ldr	r0, .L6+4
 125 0082 FFF7FEFF 		bl	chPoolAlloc
 126 0086 D0F10101 		rsbs	r1, r0, #1
 127 008a 38BF     		it	cc
 128 008c 0021     		movcc	r1, #0
 129 008e 0220     		movs	r0, #2
 130 0090 FFF7FEFF 		bl	_test_assert
 131 0094 0028     		cmp	r0, #0
 132 0096 51D1     		bne	.L2
 133              		.loc 1 86 0
 134 0098 3248     		ldr	r0, .L6+4
 135 009a 2946     		mov	r1, r5
 136 009c FFF7FEFF 		bl	chPoolFree
 137              	.LVL8:
 138 00a0 3048     		ldr	r0, .L6+4
 139 00a2 6168     		ldr	r1, [r4, #4]
 140 00a4 FFF7FEFF 		bl	chPoolFree
 141              	.LVL9:
 142 00a8 2E48     		ldr	r0, .L6+4
 143 00aa A168     		ldr	r1, [r4, #8]
 144 00ac FFF7FEFF 		bl	chPoolFree
 145              	.LVL10:
 146 00b0 2C48     		ldr	r0, .L6+4
 147 00b2 E168     		ldr	r1, [r4, #12]
 148 00b4 FFF7FEFF 		bl	chPoolFree
 149              	.LVL11:
 150 00b8 2169     		ldr	r1, [r4, #16]
 151 00ba 2A48     		ldr	r0, .L6+4
 152 00bc FFF7FEFF 		bl	chPoolFree
 153              	.LVL12:
 154              		.loc 1 90 0
 155 00c0 2848     		ldr	r0, .L6+4
 156 00c2 FFF7FEFF 		bl	chPoolAlloc
 157 00c6 011E     		subs	r1, r0, #0
 158 00c8 18BF     		it	ne
 159 00ca 0121     		movne	r1, #1
 160 00cc 0320     		movs	r0, #3
 161 00ce FFF7FEFF 		bl	_test_assert
 162 00d2 0028     		cmp	r0, #0
 163 00d4 32D1     		bne	.L2
 164              	.LVL13:
 165 00d6 2348     		ldr	r0, .L6+4
ARM GAS  C:\Users\DNIEL~1\AppData\Local\Temp\ccVgcZUn.s 			page 4


 166 00d8 FFF7FEFF 		bl	chPoolAlloc
 167 00dc 011E     		subs	r1, r0, #0
 168 00de 18BF     		it	ne
 169 00e0 0121     		movne	r1, #1
 170 00e2 0320     		movs	r0, #3
 171 00e4 FFF7FEFF 		bl	_test_assert
 172 00e8 40BB     		cbnz	r0, .L2
 173              	.LVL14:
 174 00ea 1E48     		ldr	r0, .L6+4
 175 00ec FFF7FEFF 		bl	chPoolAlloc
 176 00f0 011E     		subs	r1, r0, #0
 177 00f2 18BF     		it	ne
 178 00f4 0121     		movne	r1, #1
 179 00f6 0320     		movs	r0, #3
 180 00f8 FFF7FEFF 		bl	_test_assert
 181 00fc F0B9     		cbnz	r0, .L2
 182              	.LVL15:
 183 00fe 1948     		ldr	r0, .L6+4
 184 0100 FFF7FEFF 		bl	chPoolAlloc
 185 0104 011E     		subs	r1, r0, #0
 186 0106 18BF     		it	ne
 187 0108 0121     		movne	r1, #1
 188 010a 0320     		movs	r0, #3
 189 010c FFF7FEFF 		bl	_test_assert
 190 0110 A0B9     		cbnz	r0, .L2
 191              	.LVL16:
 192 0112 1448     		ldr	r0, .L6+4
 193 0114 FFF7FEFF 		bl	chPoolAlloc
 194 0118 011E     		subs	r1, r0, #0
 195 011a 18BF     		it	ne
 196 011c 0121     		movne	r1, #1
 197 011e 0320     		movs	r0, #3
 198 0120 FFF7FEFF 		bl	_test_assert
 199 0124 50B9     		cbnz	r0, .L2
 200              	.LVL17:
 201              		.loc 1 93 0
 202 0126 0F48     		ldr	r0, .L6+4
 203 0128 FFF7FEFF 		bl	chPoolAlloc
 204 012c D0F10101 		rsbs	r1, r0, #1
 205 0130 38BF     		it	cc
 206 0132 0021     		movcc	r1, #0
 207 0134 0420     		movs	r0, #4
 208 0136 FFF7FEFF 		bl	_test_assert
 209 013a 00B1     		cbz	r0, .L5
 210              	.LVL18:
 211              	.L2:
 212 013c 70BD     		pop	{r4, r5, r6, pc}
 213              	.LVL19:
 214              	.L5:
 215              		.loc 1 96 0
 216 013e 1021     		movs	r1, #16
 217 0140 094A     		ldr	r2, .L6+8
 218 0142 0848     		ldr	r0, .L6+4
 219 0144 FFF7FEFF 		bl	chPoolInit
 220              		.loc 1 97 0
 221 0148 0648     		ldr	r0, .L6+4
 222 014a FFF7FEFF 		bl	chPoolAlloc
ARM GAS  C:\Users\DNIEL~1\AppData\Local\Temp\ccVgcZUn.s 			page 5


 223 014e D0F10101 		rsbs	r1, r0, #1
 224 0152 38BF     		it	cc
 225 0154 0021     		movcc	r1, #0
 226 0156 0520     		movs	r0, #5
 227              		.loc 1 98 0
 228 0158 BDE87040 		pop	{r4, r5, r6, lr}
 229              		.loc 1 97 0
 230 015c FFF7FEBF 		b	_test_assert
 231              	.L7:
 232              		.align	2
 233              	.L6:
 234 0160 00000000 		.word	wa
 235 0164 00000000 		.word	.LANCHOR0
 236 0168 00000000 		.word	null_provider
 237              		.cfi_endproc
 238              	.LFE9:
 239              		.size	pools1_execute, .-pools1_execute
 240 016c AFF30080 		.section	.text.pools1_setup,"ax",%progbits
 241              		.align	2
 242              		.p2align 4,,15
 243              		.thumb
 244              		.thumb_func
 245              		.type	pools1_setup, %function
 246              	pools1_setup:
 247              	.LFB8:
 248              		.loc 1 66 0
 249              		.cfi_startproc
 250              		@ args = 0, pretend = 0, frame = 0
 251              		@ frame_needed = 0, uses_anonymous_args = 0
 252              		@ link register save eliminated.
 253              		.loc 1 68 0
 254 0000 0248     		ldr	r0, .L9
 255 0002 4FF4A871 		mov	r1, #336
 256 0006 0022     		movs	r2, #0
 257              		.loc 1 69 0
 258              		.loc 1 68 0
 259 0008 FFF7FEBF 		b	chPoolInit
 260              	.L10:
 261              		.align	2
 262              	.L9:
 263 000c 00000000 		.word	.LANCHOR0
 264              		.cfi_endproc
 265              	.LFE8:
 266              		.size	pools1_setup, .-pools1_setup
 267              		.global	testpools1
 268              		.global	patternpools
 269              		.section	.rodata.str1.4,"aMS",%progbits,1
 270              		.align	2
 271              	.LC0:
 272 0000 4D656D6F 		.ascii	"Memory Pools, queue/dequeue\000"
 272      72792050 
 272      6F6F6C73 
 272      2C207175 
 272      6575652F 
 273              		.section	.rodata.patternpools,"a",%progbits
 274              		.align	2
 275              		.type	patternpools, %object
ARM GAS  C:\Users\DNIEL~1\AppData\Local\Temp\ccVgcZUn.s 			page 6


 276              		.size	patternpools, 8
 277              	patternpools:
 278 0000 00000000 		.word	testpools1
 279 0004 00000000 		.word	0
 280              		.section	.data.mp1,"aw",%progbits
 281              		.align	2
 282              		.set	.LANCHOR0,. + 0
 283              		.type	mp1, %object
 284              		.size	mp1, 12
 285              	mp1:
 286 0000 00000000 		.word	0
 287 0004 50010000 		.word	336
 288 0008 00000000 		.word	0
 289              		.section	.rodata.testpools1,"a",%progbits
 290              		.align	2
 291              		.type	testpools1, %object
 292              		.size	testpools1, 16
 293              	testpools1:
 294 0000 00000000 		.word	.LC0
 295 0004 00000000 		.word	pools1_setup
 296 0008 00000000 		.word	0
 297 000c 00000000 		.word	pools1_execute
 298              		.text
 299              	.Letext0: