ARM GAS  C:\Users\DNIEL~1\AppData\Local\Temp\ccvTaqFU.s 			page 1


   1              		.syntax unified
   2              		.cpu cortex-m4
   3              		.fpu softvfp
   4              		.eabi_attribute 20, 1
   5              		.eabi_attribute 21, 1
   6              		.eabi_attribute 23, 3
   7              		.eabi_attribute 24, 1
   8              		.eabi_attribute 25, 1
   9              		.eabi_attribute 26, 1
  10              		.eabi_attribute 30, 2
  11              		.eabi_attribute 18, 4
  12              		.thumb
  13              		.file	"testsem.c"
  20 0000 07030000 		.text
  20      02008001 
  20      00000201 
  20      FB0E0D00 
  20      01010101 
  21              	.Ltext0:
  22              		.cfi_sections	.debug_frame
  23              		.section	.text.sem3_setup,"ax",%progbits
  24              		.align	2
  25              		.p2align 4,,15
  26              		.thumb
  27              		.thumb_func
  28              		.type	sem3_setup, %function
  29              	sem3_setup:
  30              	.LFB13:
  31              		.file 1 "../../../ChibiOS/test/testsem.c"
  32              		.loc 1 205 0
  33              		.cfi_startproc
  34              		@ args = 0, pretend = 0, frame = 0
  35              		@ frame_needed = 0, uses_anonymous_args = 0
  36              		@ link register save eliminated.
  37              		.loc 1 207 0
  38 0000 0148     		ldr	r0, .L2
  39 0002 0021     		movs	r1, #0
  40              		.loc 1 208 0
  41              		.loc 1 207 0
  42 0004 FFF7FEBF 		b	chSemInit
  43              	.L3:
  44              		.align	2
  45              	.L2:
  46 0008 00000000 		.word	.LANCHOR0
  47              		.cfi_endproc
  48              	.LFE13:
  49              		.size	sem3_setup, .-sem3_setup
  50 000c AFF30080 		.section	.text.sem2_setup,"ax",%progbits
  51              		.align	2
  52              		.p2align 4,,15
  53              		.thumb
ARM GAS  C:\Users\DNIEL~1\AppData\Local\Temp\ccvTaqFU.s 			page 2


  54              		.thumb_func
  55              		.type	sem2_setup, %function
  56              	sem2_setup:
  57              	.LFB10:
  58              		.loc 1 129 0
  59              		.cfi_startproc
  60              		@ args = 0, pretend = 0, frame = 0
  61              		@ frame_needed = 0, uses_anonymous_args = 0
  62              		@ link register save eliminated.
  63              		.loc 1 131 0
  64 0000 0148     		ldr	r0, .L5
  65 0002 0021     		movs	r1, #0
  66              		.loc 1 132 0
  67              		.loc 1 131 0
  68 0004 FFF7FEBF 		b	chSemInit
  69              	.L6:
  70              		.align	2
  71              	.L5:
  72 0008 00000000 		.word	.LANCHOR0
  73              		.cfi_endproc
  74              	.LFE10:
  75              		.size	sem2_setup, .-sem2_setup
  76 000c AFF30080 		.section	.text.sem1_setup,"ax",%progbits
  77              		.align	2
  78              		.p2align 4,,15
  79              		.thumb
  80              		.thumb_func
  81              		.type	sem1_setup, %function
  82              	sem1_setup:
  83              	.LFB7:
  84              		.loc 1 72 0
  85              		.cfi_startproc
  86              		@ args = 0, pretend = 0, frame = 0
  87              		@ frame_needed = 0, uses_anonymous_args = 0
  88              		@ link register save eliminated.
  89              		.loc 1 74 0
  90 0000 0148     		ldr	r0, .L8
  91 0002 0021     		movs	r1, #0
  92              		.loc 1 75 0
  93              		.loc 1 74 0
  94 0004 FFF7FEBF 		b	chSemInit
  95              	.L9:
  96              		.align	2
  97              	.L8:
  98 0008 00000000 		.word	.LANCHOR0
  99              		.cfi_endproc
 100              	.LFE7:
 101              		.size	sem1_setup, .-sem1_setup
 102 000c AFF30080 		.section	.text.sem4_execute,"ax",%progbits
 103              		.align	2
 104              		.p2align 4,,15
 105              		.thumb
 106              		.thumb_func
 107              		.type	sem4_execute, %function
 108              	sem4_execute:
 109              	.LFB17:
 110              		.loc 1 252 0
ARM GAS  C:\Users\DNIEL~1\AppData\Local\Temp\ccvTaqFU.s 			page 3


 111              		.cfi_startproc
 112              		@ args = 0, pretend = 0, frame = 16
 113              		@ frame_needed = 0, uses_anonymous_args = 0
 114 0000 00B5     		push	{lr}
 115              	.LCFI0:
 116              		.cfi_def_cfa_offset 4
 117 0002 87B0     		sub	sp, sp, #28
 118              	.LCFI1:
 119              		.cfi_def_cfa_offset 32
 120              		.loc 1 256 0
 121 0004 0021     		movs	r1, #0
 122 0006 03A8     		add	r0, sp, #12
 123              		.cfi_offset 14, -4
 124 0008 FFF7FEFF 		bl	chSemInit
 125              		.loc 1 257 0
 126 000c 0021     		movs	r1, #0
 127 000e 03A8     		add	r0, sp, #12
 128 0010 FFF7FEFF 		bl	chSemReset
 129              		.loc 1 258 0
 130 0014 0599     		ldr	r1, [sp, #20]
 131 0016 0120     		movs	r0, #1
 132 0018 0029     		cmp	r1, #0
 133 001a CCBF     		ite	gt
 134 001c 0021     		movgt	r1, #0
 135 001e 0121     		movle	r1, #1
 136 0020 FFF7FEFF 		bl	_test_assert
 137 0024 08B1     		cbz	r0, .L15
 138              	.L10:
 139              		.loc 1 280 0
 140 0026 07B0     		add	sp, sp, #28
 141 0028 00BD     		pop	{pc}
 142              	.L15:
 143              		.loc 1 262 0
 144 002a 3248     		ldr	r0, .L18
 145 002c 8369     		ldr	r3, [r0, #24]
 146              		.loc 1 261 0
 147 002e 3248     		ldr	r0, .L18+4
 148 0030 9A68     		ldr	r2, [r3, #8]
 149 0032 0068     		ldr	r0, [r0, #0]
 150 0034 314B     		ldr	r3, .L18+8
 151 0036 03A9     		add	r1, sp, #12
 152 0038 013A     		subs	r2, r2, #1
 153 003a 0091     		str	r1, [sp, #0]
 154 003c 4FF4A871 		mov	r1, #336
 155 0040 FFF7FEFF 		bl	chThdCreateStatic
 156 0044 2E4B     		ldr	r3, .L18+12
 157 0046 1860     		str	r0, [r3, #0]
 158              		.loc 1 265 0
 159 0048 03A8     		add	r0, sp, #12
 160 004a FFF7FEFF 		bl	chSemWait
 161              		.loc 1 268 0
 162 004e 0599     		ldr	r1, [sp, #20]
 163 0050 0220     		movs	r0, #2
 164 0052 0029     		cmp	r1, #0
 165 0054 CCBF     		ite	gt
 166 0056 0021     		movgt	r1, #0
 167 0058 0121     		movle	r1, #1
ARM GAS  C:\Users\DNIEL~1\AppData\Local\Temp\ccvTaqFU.s 			page 4


 168 005a FFF7FEFF 		bl	_test_assert
 169 005e 0028     		cmp	r0, #0
 170 0060 E1D1     		bne	.L10
 171              	.LBB2:
 172              		.loc 1 272 0
 173 0062 2023     		movs	r3, #32
 174              	.LVL0:
 175              	@ 272 "../../../ChibiOS/test/testsem.c" 1
 176 0064 83F31188 		msr     BASEPRI, r3
 177              	@ 0 "" 2
 178              	.LVL1:
 179              		.thumb
 180              	.LBE2:
 181 0068 059A     		ldr	r2, [sp, #20]
 182 006a 002A     		cmp	r2, #0
 183 006c 3EDD     		ble	.L16
 184              	.L12:
 185              		.loc 1 272 0 is_stmt 0 discriminator 2
 186 006e FFF7FEFF 		bl	chSchRescheduleS
 187              	.LVL2:
 188              	.LBB3:
 189 0072 0023     		movs	r3, #0
 190              	.LVL3:
 191              	@ 272 "../../../ChibiOS/test/testsem.c" 1
 192 0074 83F31188 		msr     BASEPRI, r3
 193              	@ 0 "" 2
 194              	.LVL4:
 195              		.thumb
 196              	.LBE3:
 197              		.loc 1 273 0 is_stmt 1 discriminator 2
 198 0078 0599     		ldr	r1, [sp, #20]
 199 007a 0320     		movs	r0, #3
 200 007c 9942     		cmp	r1, r3
 201              	.LVL5:
 202 007e D4BF     		ite	le
 203 0080 0021     		movle	r1, #0
 204 0082 0121     		movgt	r1, #1
 205 0084 FFF7FEFF 		bl	_test_assert
 206 0088 0028     		cmp	r0, #0
 207 008a CCD1     		bne	.L10
 208              		.loc 1 274 0
 209 008c 0599     		ldr	r1, [sp, #20]
 210 008e A1F1010E 		sub	lr, r1, #1
 211 0092 0420     		movs	r0, #4
 212 0094 DEF1000C 		rsbs	ip, lr, #0
 213 0098 4CEB0E01 		adc	r1, ip, lr
 214 009c FFF7FEFF 		bl	_test_assert
 215 00a0 0028     		cmp	r0, #0
 216 00a2 C0D1     		bne	.L10
 217              	.LBB4:
 218              		.loc 1 277 0
 219 00a4 2023     		movs	r3, #32
 220              	.LVL6:
 221              	@ 277 "../../../ChibiOS/test/testsem.c" 1
 222 00a6 83F31188 		msr     BASEPRI, r3
 223              	@ 0 "" 2
 224              	.LVL7:
ARM GAS  C:\Users\DNIEL~1\AppData\Local\Temp\ccvTaqFU.s 			page 5


 225              		.thumb
 226              	.LBE4:
 227 00aa 059B     		ldr	r3, [sp, #20]
 228              	.LVL8:
 229 00ac 002B     		cmp	r3, #0
 230 00ae 19DD     		ble	.L17
 231              	.L13:
 232              		.loc 1 277 0 is_stmt 0 discriminator 2
 233 00b0 FFF7FEFF 		bl	chSchRescheduleS
 234              	.LBB5:
 235 00b4 0023     		movs	r3, #0
 236              	.LVL9:
 237              	@ 277 "../../../ChibiOS/test/testsem.c" 1
 238 00b6 83F31188 		msr     BASEPRI, r3
 239              	@ 0 "" 2
 240              	.LVL10:
 241              		.thumb
 242              	.LBE5:
 243              		.loc 1 278 0 is_stmt 1 discriminator 2
 244 00ba 0599     		ldr	r1, [sp, #20]
 245 00bc 0320     		movs	r0, #3
 246 00be 9942     		cmp	r1, r3
 247              	.LVL11:
 248 00c0 D4BF     		ite	le
 249 00c2 0021     		movle	r1, #0
 250 00c4 0121     		movgt	r1, #1
 251 00c6 FFF7FEFF 		bl	_test_assert
 252 00ca 0028     		cmp	r0, #0
 253 00cc ABD1     		bne	.L10
 254              		.loc 1 279 0
 255 00ce 0599     		ldr	r1, [sp, #20]
 256 00d0 A1F1010C 		sub	ip, r1, #1
 257 00d4 0520     		movs	r0, #5
 258 00d6 DCF10002 		rsbs	r2, ip, #0
 259 00da 42EB0C01 		adc	r1, r2, ip
 260 00de FFF7FEFF 		bl	_test_assert
 261 00e2 A0E7     		b	.L10
 262              	.L17:
 263              		.loc 1 277 0 discriminator 1
 264 00e4 03A8     		add	r0, sp, #12
 265 00e6 FFF7FEFF 		bl	chSemSignalI
 266 00ea E1E7     		b	.L13
 267              	.LVL12:
 268              	.L16:
 269              		.loc 1 272 0 discriminator 1
 270 00ec 03A8     		add	r0, sp, #12
 271 00ee FFF7FEFF 		bl	chSemSignalI
 272              	.LVL13:
 273 00f2 BCE7     		b	.L12
 274              	.L19:
 275              		.align	2
 276              	.L18:
 277 00f4 00000000 		.word	rlist
 278 00f8 00000000 		.word	wa
 279 00fc 00000000 		.word	thread4
 280 0100 00000000 		.word	threads
 281              		.cfi_endproc
ARM GAS  C:\Users\DNIEL~1\AppData\Local\Temp\ccvTaqFU.s 			page 6


 282              	.LFE17:
 283              		.size	sem4_execute, .-sem4_execute
 284 0104 AFF30080 		.section	.text.thread4,"ax",%progbits
 284      AFF30080 
 284      AFF30080 
 285              		.align	2
 286              		.p2align 4,,15
 287              		.thumb
 288              		.thumb_func
 289              		.type	thread4, %function
 290              	thread4:
 291              	.LFB16:
 292              		.loc 1 246 0
 293              		.cfi_startproc
 294              		@ args = 0, pretend = 0, frame = 0
 295              		@ frame_needed = 0, uses_anonymous_args = 0
 296              	.LVL14:
 297 0000 08B5     		push	{r3, lr}
 298              	.LCFI2:
 299              		.cfi_def_cfa_offset 8
 300              	.LBB6:
 301              		.loc 1 248 0
 302 0002 2023     		movs	r3, #32
 303              		.cfi_offset 14, -4
 304              		.cfi_offset 3, -8
 305              	.LVL15:
 306              	@ 248 "../../../ChibiOS/test/testsem.c" 1
 307 0004 83F31188 		msr     BASEPRI, r3
 308              	@ 0 "" 2
 309              	.LVL16:
 310              		.thumb
 311              	.LBE6:
 312 0008 8368     		ldr	r3, [r0, #8]
 313              	.LVL17:
 314 000a 002B     		cmp	r3, #0
 315 000c 06DD     		ble	.L22
 316              		.loc 1 248 0 is_stmt 0 discriminator 2
 317 000e FFF7FEFF 		bl	chSchRescheduleS
 318              	.LVL18:
 319              	.LBB7:
 320 0012 0023     		movs	r3, #0
 321              	.LVL19:
 322              	@ 248 "../../../ChibiOS/test/testsem.c" 1
 323 0014 83F31188 		msr     BASEPRI, r3
 324              	@ 0 "" 2
 325              	.LVL20:
 326              		.thumb
 327              	.LBE7:
 328              		.loc 1 250 0 is_stmt 1 discriminator 2
 329 0018 1846     		mov	r0, r3
 330 001a 08BD     		pop	{r3, pc}
 331              	.LVL21:
 332              	.L22:
 333              		.loc 1 248 0 discriminator 1
 334 001c FFF7FEFF 		bl	chSemSignalI
 335              	.LVL22:
 336 0020 FFF7FEFF 		bl	chSchRescheduleS
ARM GAS  C:\Users\DNIEL~1\AppData\Local\Temp\ccvTaqFU.s 			page 7


 337              	.LBB8:
 338 0024 0023     		movs	r3, #0
 339              	@ 248 "../../../ChibiOS/test/testsem.c" 1
 340 0026 83F31188 		msr     BASEPRI, r3
 341              	@ 0 "" 2
 342              	.LVL23:
 343              		.thumb
 344              	.LBE8:
 345              		.loc 1 250 0 discriminator 1
 346 002a 1846     		mov	r0, r3
 347 002c 08BD     		pop	{r3, pc}
 348              		.cfi_endproc
 349              	.LFE16:
 350              		.size	thread4, .-thread4
 351 002e 00BF     		.section	.text.sem3_execute,"ax",%progbits
 352              		.align	2
 353              		.p2align 4,,15
 354              		.thumb
 355              		.thumb_func
 356              		.type	sem3_execute, %function
 357              	sem3_execute:
 358              	.LFB15:
 359              		.loc 1 218 0
 360              		.cfi_startproc
 361              		@ args = 0, pretend = 0, frame = 0
 362              		@ frame_needed = 0, uses_anonymous_args = 0
 363 0000 30B5     		push	{r4, r5, lr}
 364              	.LCFI3:
 365              		.cfi_def_cfa_offset 12
 366              		.loc 1 220 0
 367 0002 2449     		ldr	r1, .L26
 368 0004 2448     		ldr	r0, .L26+4
 369 0006 8C69     		ldr	r4, [r1, #24]
 370              		.cfi_offset 14, -4
 371              		.cfi_offset 5, -8
 372              		.cfi_offset 4, -12
 373 0008 244B     		ldr	r3, .L26+8
 374 000a A568     		ldr	r5, [r4, #8]
 375 000c 0068     		ldr	r0, [r0, #0]
 376              		.loc 1 221 0
 377 000e 244C     		ldr	r4, .L26+12
 378              		.loc 1 218 0
 379 0010 83B0     		sub	sp, sp, #12
 380              	.LCFI4:
 381              		.cfi_def_cfa_offset 24
 382              		.loc 1 220 0
 383 0012 6A1C     		adds	r2, r5, #1
 384 0014 4FF4A871 		mov	r1, #336
 385 0018 0025     		movs	r5, #0
 386 001a 0095     		str	r5, [sp, #0]
 387 001c FFF7FEFF 		bl	chThdCreateStatic
 388 0020 204B     		ldr	r3, .L26+16
 389              		.loc 1 221 0
 390 0022 2146     		mov	r1, r4
 391              		.loc 1 220 0
 392 0024 1860     		str	r0, [r3, #0]
 393              		.loc 1 221 0
ARM GAS  C:\Users\DNIEL~1\AppData\Local\Temp\ccvTaqFU.s 			page 8


 394 0026 2046     		mov	r0, r4
 395 0028 FFF7FEFF 		bl	chSemSignalWait
 396              		.loc 1 222 0
 397 002c 2268     		ldr	r2, [r4, #0]
 398 002e C4EB020E 		rsb	lr, r4, r2
 399 0032 0120     		movs	r0, #1
 400 0034 DEF10001 		rsbs	r1, lr, #0
 401 0038 41EB0E01 		adc	r1, r1, lr
 402 003c FFF7FEFF 		bl	_test_assert
 403 0040 08B1     		cbz	r0, .L25
 404              	.L23:
 405              		.loc 1 228 0
 406 0042 03B0     		add	sp, sp, #12
 407 0044 30BD     		pop	{r4, r5, pc}
 408              	.L25:
 409              		.loc 1 223 0
 410 0046 A268     		ldr	r2, [r4, #8]
 411 0048 C5EB020E 		rsb	lr, r5, r2
 412 004c 0220     		movs	r0, #2
 413 004e DEF1000C 		rsbs	ip, lr, #0
 414 0052 4CEB0E01 		adc	r1, ip, lr
 415 0056 FFF7FEFF 		bl	_test_assert
 416 005a 0028     		cmp	r0, #0
 417 005c F1D1     		bne	.L23
 418              		.loc 1 225 0
 419 005e 2146     		mov	r1, r4
 420 0060 2046     		mov	r0, r4
 421 0062 FFF7FEFF 		bl	chSemSignalWait
 422              		.loc 1 226 0
 423 0066 2268     		ldr	r2, [r4, #0]
 424 0068 A31A     		subs	r3, r4, r2
 425 006a 0320     		movs	r0, #3
 426 006c 5942     		rsbs	r1, r3, #0
 427 006e 41EB0301 		adc	r1, r1, r3
 428 0072 FFF7FEFF 		bl	_test_assert
 429 0076 0028     		cmp	r0, #0
 430 0078 E3D1     		bne	.L23
 431              		.loc 1 227 0
 432 007a A168     		ldr	r1, [r4, #8]
 433 007c C5EB010C 		rsb	ip, r5, r1
 434 0080 0420     		movs	r0, #4
 435 0082 DCF1000E 		rsbs	lr, ip, #0
 436 0086 4EEB0C01 		adc	r1, lr, ip
 437              		.loc 1 228 0
 438 008a 03B0     		add	sp, sp, #12
 439 008c BDE83040 		pop	{r4, r5, lr}
 440              		.loc 1 227 0
 441 0090 FFF7FEBF 		b	_test_assert
 442              	.L27:
 443              		.align	2
 444              	.L26:
 445 0094 00000000 		.word	rlist
 446 0098 00000000 		.word	wa
 447 009c 00000000 		.word	thread3
 448 00a0 00000000 		.word	.LANCHOR0
 449 00a4 00000000 		.word	threads
 450              		.cfi_endproc
ARM GAS  C:\Users\DNIEL~1\AppData\Local\Temp\ccvTaqFU.s 			page 9


 451              	.LFE15:
 452              		.size	sem3_execute, .-sem3_execute
 453 00a8 AFF30080 		.section	.text.thread3,"ax",%progbits
 453      AFF30080 
 454              		.align	2
 455              		.p2align 4,,15
 456              		.thumb
 457              		.thumb_func
 458              		.type	thread3, %function
 459              	thread3:
 460              	.LFB14:
 461              		.loc 1 210 0
 462              		.cfi_startproc
 463              		@ args = 0, pretend = 0, frame = 0
 464              		@ frame_needed = 0, uses_anonymous_args = 0
 465              	.LVL24:
 466 0000 10B5     		push	{r4, lr}
 467              	.LCFI5:
 468              		.cfi_def_cfa_offset 8
 469              		.loc 1 213 0
 470 0002 044C     		ldr	r4, .L29
 471              		.cfi_offset 14, -4
 472              		.cfi_offset 4, -8
 473 0004 2046     		mov	r0, r4
 474              	.LVL25:
 475 0006 FFF7FEFF 		bl	chSemWait
 476              		.loc 1 214 0
 477 000a 2046     		mov	r0, r4
 478 000c FFF7FEFF 		bl	chSemSignal
 479              		.loc 1 216 0
 480 0010 0020     		movs	r0, #0
 481 0012 10BD     		pop	{r4, pc}
 482              	.L30:
 483              		.align	2
 484              	.L29:
 485 0014 00000000 		.word	.LANCHOR0
 486              		.cfi_endproc
 487              	.LFE14:
 488              		.size	thread3, .-thread3
 489 0018 AFF30080 		.section	.text.thread1,"ax",%progbits
 489      AFF30080 
 490              		.align	2
 491              		.p2align 4,,15
 492              		.thumb
 493              		.thumb_func
 494              		.type	thread1, %function
 495              	thread1:
 496              	.LFB8:
 497              		.loc 1 77 0
 498              		.cfi_startproc
 499              		@ args = 0, pretend = 0, frame = 0
 500              		@ frame_needed = 0, uses_anonymous_args = 0
 501              	.LVL26:
 502 0000 10B5     		push	{r4, lr}
 503              	.LCFI6:
 504              		.cfi_def_cfa_offset 8
 505              		.loc 1 77 0
ARM GAS  C:\Users\DNIEL~1\AppData\Local\Temp\ccvTaqFU.s 			page 10


 506 0002 0446     		mov	r4, r0
 507              		.cfi_offset 14, -4
 508              		.cfi_offset 4, -8
 509              		.loc 1 79 0
 510 0004 0348     		ldr	r0, .L32
 511              	.LVL27:
 512 0006 FFF7FEFF 		bl	chSemWait
 513              		.loc 1 80 0
 514 000a 2078     		ldrb	r0, [r4, #0]	@ zero_extendqisi2
 515 000c FFF7FEFF 		bl	test_emit_token
 516              		.loc 1 82 0
 517 0010 0020     		movs	r0, #0
 518 0012 10BD     		pop	{r4, pc}
 519              	.L33:
 520              		.align	2
 521              	.L32:
 522 0014 00000000 		.word	.LANCHOR0
 523              		.cfi_endproc
 524              	.LFE8:
 525              		.size	thread1, .-thread1
 526 0018 AFF30080 		.section	.text.sem2_execute,"ax",%progbits
 526      AFF30080 
 527              		.align	2
 528              		.p2align 4,,15
 529              		.thumb
 530              		.thumb_func
 531              		.type	sem2_execute, %function
 532              	sem2_execute:
 533              	.LFB12:
 534              		.loc 1 145 0
 535              		.cfi_startproc
 536              		@ args = 0, pretend = 0, frame = 0
 537              		@ frame_needed = 0, uses_anonymous_args = 0
 538 0000 F0B5     		push	{r4, r5, r6, r7, lr}
 539              	.LCFI7:
 540              		.cfi_def_cfa_offset 20
 541              		.loc 1 153 0
 542 0002 A14C     		ldr	r4, .L37
 543              		.cfi_offset 14, -4
 544              		.cfi_offset 7, -8
 545              		.cfi_offset 6, -12
 546              		.cfi_offset 5, -16
 547              		.cfi_offset 4, -20
 548 0004 0021     		movs	r1, #0
 549              		.loc 1 145 0
 550 0006 83B0     		sub	sp, sp, #12
 551              	.LCFI8:
 552              		.cfi_def_cfa_offset 32
 553              		.loc 1 153 0
 554 0008 2046     		mov	r0, r4
 555 000a FFF7FEFF 		bl	chSemWaitTimeout
 556              	.LVL28:
 557              		.loc 1 154 0
 558 000e A0F1FF30 		sub	r0, r0, #-1
 559              	.LVL29:
 560 0012 4142     		rsbs	r1, r0, #0
 561 0014 41EB0001 		adc	r1, r1, r0
ARM GAS  C:\Users\DNIEL~1\AppData\Local\Temp\ccvTaqFU.s 			page 11


 562 0018 0120     		movs	r0, #1
 563              	.LVL30:
 564 001a FFF7FEFF 		bl	_test_assert
 565 001e 08B1     		cbz	r0, .L36
 566              	.L34:
 567              		.loc 1 183 0
 568 0020 03B0     		add	sp, sp, #12
 569 0022 F0BD     		pop	{r4, r5, r6, r7, pc}
 570              	.L36:
 571              		.loc 1 155 0
 572 0024 2168     		ldr	r1, [r4, #0]
 573 0026 0A1B     		subs	r2, r1, r4
 574 0028 0220     		movs	r0, #2
 575 002a 5342     		rsbs	r3, r2, #0
 576 002c 43EB0201 		adc	r1, r3, r2
 577 0030 FFF7FEFF 		bl	_test_assert
 578 0034 0028     		cmp	r0, #0
 579 0036 F3D1     		bne	.L34
 580              		.loc 1 156 0
 581 0038 A368     		ldr	r3, [r4, #8]
 582 003a 0320     		movs	r0, #3
 583 003c D3F10101 		rsbs	r1, r3, #1
 584 0040 38BF     		it	cc
 585 0042 0021     		movcc	r1, #0
 586 0044 FFF7FEFF 		bl	_test_assert
 587 0048 0028     		cmp	r0, #0
 588 004a E9D1     		bne	.L34
 589              		.loc 1 161 0
 590 004c 8F4B     		ldr	r3, .L37+4
 591 004e 904E     		ldr	r6, .L37+8
 592 0050 9969     		ldr	r1, [r3, #24]
 593 0052 904B     		ldr	r3, .L37+12
 594 0054 8A68     		ldr	r2, [r1, #8]
 595 0056 0090     		str	r0, [sp, #0]
 596 0058 8F48     		ldr	r0, .L37+16
 597 005a 013A     		subs	r2, r2, #1
 598 005c 4FF4A871 		mov	r1, #336
 599 0060 0068     		ldr	r0, [r0, #0]
 600 0062 FFF7FEFF 		bl	chThdCreateStatic
 601              		.loc 1 163 0
 602 0066 4FF4FA71 		mov	r1, #500
 603              		.loc 1 161 0
 604 006a 3060     		str	r0, [r6, #0]
 605              		.loc 1 163 0
 606 006c 2046     		mov	r0, r4
 607 006e FFF7FEFF 		bl	chSemWaitTimeout
 608 0072 0646     		mov	r6, r0
 609              	.LVL31:
 610              		.loc 1 164 0
 611 0074 FFF7FEFF 		bl	test_wait_threads
 612              	.LVL32:
 613              		.loc 1 165 0
 614 0078 0420     		movs	r0, #4
 615 007a D6F10101 		rsbs	r1, r6, #1
 616 007e 38BF     		it	cc
 617 0080 0021     		movcc	r1, #0
 618 0082 FFF7FEFF 		bl	_test_assert
ARM GAS  C:\Users\DNIEL~1\AppData\Local\Temp\ccvTaqFU.s 			page 12


 619 0086 0028     		cmp	r0, #0
 620 0088 CAD1     		bne	.L34
 621              		.loc 1 166 0
 622 008a 2268     		ldr	r2, [r4, #0]
 623 008c C2EB040E 		rsb	lr, r2, r4
 624 0090 0520     		movs	r0, #5
 625 0092 DEF1000C 		rsbs	ip, lr, #0
 626 0096 4CEB0E01 		adc	r1, ip, lr
 627 009a FFF7FEFF 		bl	_test_assert
 628 009e 0028     		cmp	r0, #0
 629 00a0 BED1     		bne	.L34
 630              		.loc 1 167 0
 631 00a2 A168     		ldr	r1, [r4, #8]
 632 00a4 0620     		movs	r0, #6
 633 00a6 D1F10101 		rsbs	r1, r1, #1
 634 00aa 38BF     		it	cc
 635 00ac 0021     		movcc	r1, #0
 636 00ae FFF7FEFF 		bl	_test_assert
 637 00b2 0028     		cmp	r0, #0
 638 00b4 B4D1     		bne	.L34
 639              		.loc 1 173 0
 640 00b6 794F     		ldr	r7, .L37+20
 641              		.loc 1 172 0
 642 00b8 FFF7FEFF 		bl	test_wait_tick
 643              		.loc 1 175 0
 644 00bc 4120     		movs	r0, #65
 645              		.loc 1 173 0
 646 00be FF68     		ldr	r7, [r7, #12]
 647              	.LVL33:
 648              		.loc 1 175 0
 649 00c0 FFF7FEFF 		bl	test_emit_token
 650              		.loc 1 176 0
 651 00c4 4FF4FA71 		mov	r1, #500
 652 00c8 2046     		mov	r0, r4
 653 00ca FFF7FEFF 		bl	chSemWaitTimeout
 654              	.LVL34:
 655              		.loc 1 177 0
 656 00ce A0F1FF33 		sub	r3, r0, #-1
 657 00d2 5842     		rsbs	r0, r3, #0
 658              	.LVL35:
 659 00d4 40EB0301 		adc	r1, r0, r3
 660 00d8 0720     		movs	r0, #7
 661 00da FFF7FEFF 		bl	_test_assert
 662              	.LVL36:
 663 00de 0028     		cmp	r0, #0
 664 00e0 9ED1     		bne	.L34
 665              		.loc 1 178 0
 666 00e2 2268     		ldr	r2, [r4, #0]
 667 00e4 C2EB040E 		rsb	lr, r2, r4
 668 00e8 0820     		movs	r0, #8
 669 00ea DEF1000C 		rsbs	ip, lr, #0
 670 00ee 4CEB0E01 		adc	r1, ip, lr
 671 00f2 FFF7FEFF 		bl	_test_assert
 672 00f6 0028     		cmp	r0, #0
 673 00f8 92D1     		bne	.L34
 674              		.loc 1 179 0
 675 00fa A168     		ldr	r1, [r4, #8]
ARM GAS  C:\Users\DNIEL~1\AppData\Local\Temp\ccvTaqFU.s 			page 13


 676 00fc 0920     		movs	r0, #9
 677 00fe D1F10101 		rsbs	r1, r1, #1
 678 0102 38BF     		it	cc
 679 0104 0021     		movcc	r1, #0
 680 0106 FFF7FEFF 		bl	_test_assert
 681 010a 0028     		cmp	r0, #0
 682 010c 88D1     		bne	.L34
 683              	.LVL37:
 684              		.loc 1 175 0
 685 010e 4220     		movs	r0, #66
 686 0110 FFF7FEFF 		bl	test_emit_token
 687              		.loc 1 176 0
 688 0114 4FF4FA71 		mov	r1, #500
 689 0118 2046     		mov	r0, r4
 690 011a FFF7FEFF 		bl	chSemWaitTimeout
 691              	.LVL38:
 692              		.loc 1 177 0
 693 011e A0F1FF33 		sub	r3, r0, #-1
 694 0122 5842     		rsbs	r0, r3, #0
 695              	.LVL39:
 696 0124 40EB0301 		adc	r1, r0, r3
 697 0128 0720     		movs	r0, #7
 698 012a FFF7FEFF 		bl	_test_assert
 699              	.LVL40:
 700 012e 0028     		cmp	r0, #0
 701 0130 7FF476AF 		bne	.L34
 702              		.loc 1 178 0
 703 0134 2268     		ldr	r2, [r4, #0]
 704 0136 C2EB040E 		rsb	lr, r2, r4
 705 013a 0820     		movs	r0, #8
 706 013c DEF1000C 		rsbs	ip, lr, #0
 707 0140 4CEB0E01 		adc	r1, ip, lr
 708 0144 FFF7FEFF 		bl	_test_assert
 709 0148 0028     		cmp	r0, #0
 710 014a 7FF469AF 		bne	.L34
 711              		.loc 1 179 0
 712 014e A168     		ldr	r1, [r4, #8]
 713 0150 0920     		movs	r0, #9
 714 0152 D1F10101 		rsbs	r1, r1, #1
 715 0156 38BF     		it	cc
 716 0158 0021     		movcc	r1, #0
 717 015a FFF7FEFF 		bl	_test_assert
 718 015e 0028     		cmp	r0, #0
 719 0160 7FF45EAF 		bne	.L34
 720              	.LVL41:
 721              		.loc 1 175 0
 722 0164 4320     		movs	r0, #67
 723 0166 FFF7FEFF 		bl	test_emit_token
 724              		.loc 1 176 0
 725 016a 4FF4FA71 		mov	r1, #500
 726 016e 2046     		mov	r0, r4
 727 0170 FFF7FEFF 		bl	chSemWaitTimeout
 728              	.LVL42:
 729              		.loc 1 177 0
 730 0174 A0F1FF33 		sub	r3, r0, #-1
 731 0178 5842     		rsbs	r0, r3, #0
 732              	.LVL43:
ARM GAS  C:\Users\DNIEL~1\AppData\Local\Temp\ccvTaqFU.s 			page 14


 733 017a 40EB0301 		adc	r1, r0, r3
 734 017e 0720     		movs	r0, #7
 735 0180 FFF7FEFF 		bl	_test_assert
 736              	.LVL44:
 737 0184 0028     		cmp	r0, #0
 738 0186 7FF44BAF 		bne	.L34
 739              		.loc 1 178 0
 740 018a 2268     		ldr	r2, [r4, #0]
 741 018c C2EB040E 		rsb	lr, r2, r4
 742 0190 0820     		movs	r0, #8
 743 0192 DEF1000C 		rsbs	ip, lr, #0
 744 0196 4CEB0E01 		adc	r1, ip, lr
 745 019a FFF7FEFF 		bl	_test_assert
 746 019e 0028     		cmp	r0, #0
 747 01a0 7FF43EAF 		bne	.L34
 748              		.loc 1 179 0
 749 01a4 A168     		ldr	r1, [r4, #8]
 750 01a6 0920     		movs	r0, #9
 751 01a8 D1F10101 		rsbs	r1, r1, #1
 752 01ac 38BF     		it	cc
 753 01ae 0021     		movcc	r1, #0
 754 01b0 FFF7FEFF 		bl	_test_assert
 755 01b4 0028     		cmp	r0, #0
 756 01b6 7FF433AF 		bne	.L34
 757              	.LVL45:
 758              		.loc 1 175 0
 759 01ba 4420     		movs	r0, #68
 760 01bc FFF7FEFF 		bl	test_emit_token
 761              		.loc 1 176 0
 762 01c0 4FF4FA71 		mov	r1, #500
 763 01c4 2046     		mov	r0, r4
 764 01c6 FFF7FEFF 		bl	chSemWaitTimeout
 765              	.LVL46:
 766              		.loc 1 177 0
 767 01ca A0F1FF30 		sub	r0, r0, #-1
 768              	.LVL47:
 769 01ce 4342     		rsbs	r3, r0, #0
 770 01d0 43EB0001 		adc	r1, r3, r0
 771 01d4 0720     		movs	r0, #7
 772              	.LVL48:
 773 01d6 FFF7FEFF 		bl	_test_assert
 774 01da 0028     		cmp	r0, #0
 775 01dc 7FF420AF 		bne	.L34
 776              		.loc 1 178 0
 777 01e0 2268     		ldr	r2, [r4, #0]
 778 01e2 C2EB040E 		rsb	lr, r2, r4
 779 01e6 0820     		movs	r0, #8
 780 01e8 DEF1000C 		rsbs	ip, lr, #0
 781 01ec 4CEB0E01 		adc	r1, ip, lr
 782 01f0 FFF7FEFF 		bl	_test_assert
 783 01f4 0028     		cmp	r0, #0
 784 01f6 7FF413AF 		bne	.L34
 785              		.loc 1 179 0
 786 01fa A168     		ldr	r1, [r4, #8]
 787 01fc 0920     		movs	r0, #9
 788 01fe D1F10101 		rsbs	r1, r1, #1
 789 0202 38BF     		it	cc
ARM GAS  C:\Users\DNIEL~1\AppData\Local\Temp\ccvTaqFU.s 			page 15


 790 0204 0021     		movcc	r1, #0
 791 0206 FFF7FEFF 		bl	_test_assert
 792 020a 0028     		cmp	r0, #0
 793 020c 7FF408AF 		bne	.L34
 794              	.LVL49:
 795              		.loc 1 175 0
 796 0210 4520     		movs	r0, #69
 797 0212 FFF7FEFF 		bl	test_emit_token
 798              		.loc 1 176 0
 799 0216 4FF4FA71 		mov	r1, #500
 800 021a 2046     		mov	r0, r4
 801 021c FFF7FEFF 		bl	chSemWaitTimeout
 802              	.LVL50:
 803              		.loc 1 177 0
 804 0220 A0F1FF33 		sub	r3, r0, #-1
 805 0224 5842     		rsbs	r0, r3, #0
 806              	.LVL51:
 807 0226 40EB0301 		adc	r1, r0, r3
 808 022a 0720     		movs	r0, #7
 809 022c FFF7FEFF 		bl	_test_assert
 810              	.LVL52:
 811 0230 0028     		cmp	r0, #0
 812 0232 7FF4F5AE 		bne	.L34
 813              		.loc 1 178 0
 814 0236 2268     		ldr	r2, [r4, #0]
 815 0238 C2EB040C 		rsb	ip, r2, r4
 816 023c 0820     		movs	r0, #8
 817 023e DCF1000E 		rsbs	lr, ip, #0
 818 0242 4EEB0C01 		adc	r1, lr, ip
 819 0246 FFF7FEFF 		bl	_test_assert
 820 024a 0028     		cmp	r0, #0
 821 024c 7FF4E8AE 		bne	.L34
 822              		.loc 1 179 0
 823 0250 A168     		ldr	r1, [r4, #8]
 824 0252 0920     		movs	r0, #9
 825 0254 D1F10101 		rsbs	r1, r1, #1
 826 0258 38BF     		it	cc
 827 025a 0021     		movcc	r1, #0
 828 025c FFF7FEFF 		bl	_test_assert
 829 0260 0028     		cmp	r0, #0
 830 0262 7FF4DDAE 		bne	.L34
 831              	.LVL53:
 832              		.loc 1 181 0
 833 0266 0A20     		movs	r0, #10
 834 0268 0D49     		ldr	r1, .L37+24
 835 026a FFF7FEFF 		bl	_test_assert_sequence
 836 026e 0028     		cmp	r0, #0
 837 0270 7FF4D6AE 		bne	.L34
 838              		.loc 1 173 0
 839 0274 07F51C62 		add	r2, r7, #2496
 840              		.loc 1 182 0
 841 0278 111D     		adds	r1, r2, #4
 842 027a 0B20     		movs	r0, #11
 843 027c 0932     		adds	r2, r2, #9
 844              		.loc 1 183 0
 845 027e 03B0     		add	sp, sp, #12
 846 0280 BDE8F040 		pop	{r4, r5, r6, r7, lr}
ARM GAS  C:\Users\DNIEL~1\AppData\Local\Temp\ccvTaqFU.s 			page 16


 847              		.loc 1 182 0
 848 0284 FFF7FEBF 		b	_test_assert_time_window
 849              	.L38:
 850              		.align	2
 851              	.L37:
 852 0288 00000000 		.word	.LANCHOR0
 853 028c 00000000 		.word	rlist
 854 0290 00000000 		.word	threads
 855 0294 00000000 		.word	thread2
 856 0298 00000000 		.word	wa
 857 029c 00000000 		.word	vtlist
 858 02a0 00000000 		.word	.LC0
 859              		.cfi_endproc
 860              	.LFE12:
 861              		.size	sem2_execute, .-sem2_execute
 862 02a4 AFF30080 		.section	.text.thread2,"ax",%progbits
 862      AFF30080 
 862      AFF30080 
 863              		.align	2
 864              		.p2align 4,,15
 865              		.thumb
 866              		.thumb_func
 867              		.type	thread2, %function
 868              	thread2:
 869              	.LFB11:
 870              		.loc 1 134 0
 871              		.cfi_startproc
 872              		@ args = 0, pretend = 0, frame = 0
 873              		@ frame_needed = 0, uses_anonymous_args = 0
 874              	.LVL54:
 875 0000 08B5     		push	{r3, lr}
 876              	.LCFI9:
 877              		.cfi_def_cfa_offset 8
 878              		.loc 1 137 0
 879 0002 3220     		movs	r0, #50
 880              	.LVL55:
 881              		.cfi_offset 14, -4
 882              		.cfi_offset 3, -8
 883 0004 FFF7FEFF 		bl	chThdSleep
 884              	.LBB9:
 885              		.loc 1 138 0
 886 0008 2023     		movs	r3, #32
 887              	.LVL56:
 888              	@ 138 "../../../ChibiOS/test/testsem.c" 1
 889 000a 83F31188 		msr     BASEPRI, r3
 890              	@ 0 "" 2
 891              	.LVL57:
 892              		.thumb
 893              	.LBE9:
 894              		.loc 1 139 0
 895 000e 0548     		ldr	r0, .L40
 896 0010 FFF7FEFF 		bl	chSemSignalI
 897              	.LVL58:
 898              		.loc 1 140 0
 899 0014 FFF7FEFF 		bl	chSchRescheduleS
 900              	.LBB10:
 901              		.loc 1 141 0
ARM GAS  C:\Users\DNIEL~1\AppData\Local\Temp\ccvTaqFU.s 			page 17


 902 0018 0023     		movs	r3, #0
 903              	.LVL59:
 904              	@ 141 "../../../ChibiOS/test/testsem.c" 1
 905 001a 83F31188 		msr     BASEPRI, r3
 906              	@ 0 "" 2
 907              	.LVL60:
 908              		.thumb
 909              	.LBE10:
 910              		.loc 1 143 0
 911 001e 1846     		mov	r0, r3
 912 0020 08BD     		pop	{r3, pc}
 913              	.L41:
 914 0022 00BF     		.align	2
 915              	.L40:
 916 0024 00000000 		.word	.LANCHOR0
 917              		.cfi_endproc
 918              	.LFE11:
 919              		.size	thread2, .-thread2
 920 0028 AFF30080 		.section	.text.sem1_execute,"ax",%progbits
 920      AFF30080 
 921              		.align	2
 922              		.p2align 4,,15
 923              		.thumb
 924              		.thumb_func
 925              		.type	sem1_execute, %function
 926              	sem1_execute:
 927              	.LFB9:
 928              		.loc 1 84 0
 929              		.cfi_startproc
 930              		@ args = 0, pretend = 0, frame = 0
 931              		@ frame_needed = 0, uses_anonymous_args = 0
 932 0000 2DE9F043 		push	{r4, r5, r6, r7, r8, r9, lr}
 933              	.LCFI10:
 934              		.cfi_def_cfa_offset 28
 935              		.loc 1 86 0
 936 0004 444E     		ldr	r6, .L45
 937              		.cfi_offset 14, -4
 938              		.cfi_offset 9, -8
 939              		.cfi_offset 8, -12
 940              		.cfi_offset 7, -16
 941              		.cfi_offset 6, -20
 942              		.cfi_offset 5, -24
 943              		.cfi_offset 4, -28
 944 0006 454C     		ldr	r4, .L45+4
 945 0008 B769     		ldr	r7, [r6, #24]
 946 000a D4F80090 		ldr	r9, [r4, #0]
 947 000e BD68     		ldr	r5, [r7, #8]
 948 0010 434F     		ldr	r7, .L45+8
 949 0012 444B     		ldr	r3, .L45+12
 950              		.loc 1 84 0
 951 0014 83B0     		sub	sp, sp, #12
 952              	.LCFI11:
 953              		.cfi_def_cfa_offset 40
 954              		.loc 1 86 0
 955 0016 6A1D     		adds	r2, r5, #5
 956 0018 4FF4A871 		mov	r1, #336
 957 001c 4846     		mov	r0, r9
ARM GAS  C:\Users\DNIEL~1\AppData\Local\Temp\ccvTaqFU.s 			page 18


 958 001e 0097     		str	r7, [sp, #0]
 959 0020 FFF7FEFF 		bl	chThdCreateStatic
 960 0024 404D     		ldr	r5, .L45+16
 961              		.loc 1 87 0
 962 0026 B169     		ldr	r1, [r6, #24]
 963 0028 D4F804C0 		ldr	ip, [r4, #4]
 964 002c 8B68     		ldr	r3, [r1, #8]
 965              		.loc 1 86 0
 966 002e 2860     		str	r0, [r5, #0]
 967              		.loc 1 87 0
 968 0030 3E48     		ldr	r0, .L45+20
 969 0032 5A1C     		adds	r2, r3, #1
 970 0034 4FF4A871 		mov	r1, #336
 971 0038 3A4B     		ldr	r3, .L45+12
 972 003a 0090     		str	r0, [sp, #0]
 973 003c 6046     		mov	r0, ip
 974 003e FFF7FEFF 		bl	chThdCreateStatic
 975              		.loc 1 88 0
 976 0042 B269     		ldr	r2, [r6, #24]
 977 0044 D4F80880 		ldr	r8, [r4, #8]
 978 0048 9368     		ldr	r3, [r2, #8]
 979              		.loc 1 87 0
 980 004a 6860     		str	r0, [r5, #4]
 981              		.loc 1 88 0
 982 004c 3848     		ldr	r0, .L45+24
 983 004e DA1C     		adds	r2, r3, #3
 984 0050 4FF4A871 		mov	r1, #336
 985 0054 334B     		ldr	r3, .L45+12
 986 0056 0090     		str	r0, [sp, #0]
 987 0058 4046     		mov	r0, r8
 988 005a FFF7FEFF 		bl	chThdCreateStatic
 989              		.loc 1 89 0
 990 005e B169     		ldr	r1, [r6, #24]
 991 0060 D4F80CE0 		ldr	lr, [r4, #12]
 992 0064 8A68     		ldr	r2, [r1, #8]
 993              		.loc 1 88 0
 994 0066 A860     		str	r0, [r5, #8]
 995              		.loc 1 89 0
 996 0068 3248     		ldr	r0, .L45+28
 997 006a 2E4B     		ldr	r3, .L45+12
 998 006c 0090     		str	r0, [sp, #0]
 999 006e 4FF4A871 		mov	r1, #336
 1000 0072 7046     		mov	r0, lr
 1001 0074 0432     		adds	r2, r2, #4
 1002 0076 FFF7FEFF 		bl	chThdCreateStatic
 1003              		.loc 1 90 0
 1004 007a B369     		ldr	r3, [r6, #24]
 1005 007c 2469     		ldr	r4, [r4, #16]
 1006 007e 9A68     		ldr	r2, [r3, #8]
 1007              		.loc 1 89 0
 1008 0080 E860     		str	r0, [r5, #12]
 1009              		.loc 1 90 0
 1010 0082 2046     		mov	r0, r4
 1011 0084 2C4C     		ldr	r4, .L45+32
 1012 0086 274B     		ldr	r3, .L45+12
 1013 0088 0094     		str	r4, [sp, #0]
 1014 008a 4FF4A871 		mov	r1, #336
ARM GAS  C:\Users\DNIEL~1\AppData\Local\Temp\ccvTaqFU.s 			page 19


 1015 008e 0232     		adds	r2, r2, #2
 1016 0090 FFF7FEFF 		bl	chThdCreateStatic
 1017              		.loc 1 91 0
 1018 0094 294C     		ldr	r4, .L45+36
 1019              		.loc 1 90 0
 1020 0096 2861     		str	r0, [r5, #16]
 1021              		.loc 1 91 0
 1022 0098 2046     		mov	r0, r4
 1023 009a FFF7FEFF 		bl	chSemSignal
 1024              		.loc 1 92 0
 1025 009e 2046     		mov	r0, r4
 1026 00a0 FFF7FEFF 		bl	chSemSignal
 1027              		.loc 1 93 0
 1028 00a4 2046     		mov	r0, r4
 1029 00a6 FFF7FEFF 		bl	chSemSignal
 1030              		.loc 1 94 0
 1031 00aa 2046     		mov	r0, r4
 1032 00ac FFF7FEFF 		bl	chSemSignal
 1033              		.loc 1 95 0
 1034 00b0 2046     		mov	r0, r4
 1035 00b2 FFF7FEFF 		bl	chSemSignal
 1036              		.loc 1 96 0
 1037 00b6 FFF7FEFF 		bl	test_wait_threads
 1038              		.loc 1 100 0
 1039 00ba 0120     		movs	r0, #1
 1040 00bc 2049     		ldr	r1, .L45+40
 1041 00be FFF7FEFF 		bl	_test_assert_sequence
 1042 00c2 8046     		mov	r8, r0
 1043 00c4 10B1     		cbz	r0, .L44
 1044              		.loc 1 109 0
 1045 00c6 03B0     		add	sp, sp, #12
 1046 00c8 BDE8F083 		pop	{r4, r5, r6, r7, r8, r9, pc}
 1047              	.L44:
 1048              		.loc 1 102 0
 1049 00cc B069     		ldr	r0, [r6, #24]
 1050 00ce 154B     		ldr	r3, .L45+12
 1051 00d0 8268     		ldr	r2, [r0, #8]
 1052 00d2 0097     		str	r7, [sp, #0]
 1053 00d4 4846     		mov	r0, r9
 1054 00d6 4FF4A871 		mov	r1, #336
 1055 00da 0532     		adds	r2, r2, #5
 1056 00dc FFF7FEFF 		bl	chThdCreateStatic
 1057              	.LBB11:
 1058              		.loc 1 103 0
 1059 00e0 2023     		movs	r3, #32
 1060              	.LVL61:
 1061              	.LBE11:
 1062              		.loc 1 102 0
 1063 00e2 2860     		str	r0, [r5, #0]
 1064              	.LBB12:
 1065              		.loc 1 103 0
 1066              	@ 103 "../../../ChibiOS/test/testsem.c" 1
 1067 00e4 83F31188 		msr     BASEPRI, r3
 1068              	@ 0 "" 2
 1069              	.LVL62:
 1070              		.thumb
 1071              	.LBE12:
ARM GAS  C:\Users\DNIEL~1\AppData\Local\Temp\ccvTaqFU.s 			page 20


 1072              		.loc 1 104 0
 1073 00e8 0221     		movs	r1, #2
 1074 00ea 2046     		mov	r0, r4
 1075 00ec FFF7FEFF 		bl	chSemAddCounterI
 1076              	.LVL63:
 1077              		.loc 1 105 0
 1078 00f0 FFF7FEFF 		bl	chSchRescheduleS
 1079              	.LBB13:
 1080              		.loc 1 106 0
 1081 00f4 4346     		mov	r3, r8
 1082              	.LVL64:
 1083              	@ 106 "../../../ChibiOS/test/testsem.c" 1
 1084 00f6 83F31188 		msr     BASEPRI, r3
 1085              	@ 0 "" 2
 1086              	.LVL65:
 1087              		.thumb
 1088              	.LBE13:
 1089              		.loc 1 107 0
 1090 00fa FFF7FEFF 		bl	test_wait_threads
 1091              	.LVL66:
 1092              		.loc 1 108 0
 1093 00fe A368     		ldr	r3, [r4, #8]
 1094 0100 A3F1010C 		sub	ip, r3, #1
 1095 0104 0220     		movs	r0, #2
 1096 0106 DCF10002 		rsbs	r2, ip, #0
 1097 010a 42EB0C01 		adc	r1, r2, ip
 1098              		.loc 1 109 0
 1099 010e 03B0     		add	sp, sp, #12
 1100 0110 BDE8F043 		pop	{r4, r5, r6, r7, r8, r9, lr}
 1101              		.loc 1 108 0
 1102 0114 FFF7FEBF 		b	_test_assert
 1103              	.L46:
 1104              		.align	2
 1105              	.L45:
 1106 0118 00000000 		.word	rlist
 1107 011c 00000000 		.word	wa
 1108 0120 08000000 		.word	.LC1
 1109 0124 00000000 		.word	thread1
 1110 0128 00000000 		.word	threads
 1111 012c 0C000000 		.word	.LC2
 1112 0130 10000000 		.word	.LC3
 1113 0134 14000000 		.word	.LC4
 1114 0138 18000000 		.word	.LC5
 1115 013c 00000000 		.word	.LANCHOR0
 1116 0140 00000000 		.word	.LC0
 1117              		.cfi_endproc
 1118              	.LFE9:
 1119              		.size	sem1_execute, .-sem1_execute
 1120              		.global	testsem1
 1121              		.global	testsem2
 1122              		.global	testsem3
 1123              		.global	testsem4
 1124              		.global	patternsem
 1125 0144 AFF30080 		.section	.rodata.testsem1,"a",%progbits
 1125      AFF30080 
 1125      AFF30080 
 1126              		.align	2
ARM GAS  C:\Users\DNIEL~1\AppData\Local\Temp\ccvTaqFU.s 			page 21


 1127              		.type	testsem1, %object
 1128              		.size	testsem1, 16
 1129              	testsem1:
 1130 0000 1C000000 		.word	.LC6
 1131 0004 00000000 		.word	sem1_setup
 1132 0008 00000000 		.word	0
 1133 000c 00000000 		.word	sem1_execute
 1134              		.section	.rodata.testsem2,"a",%progbits
 1135              		.align	2
 1136              		.type	testsem2, %object
 1137              		.size	testsem2, 16
 1138              	testsem2:
 1139 0000 34000000 		.word	.LC7
 1140 0004 00000000 		.word	sem2_setup
 1141 0008 00000000 		.word	0
 1142 000c 00000000 		.word	sem2_execute
 1143              		.section	.rodata.testsem3,"a",%progbits
 1144              		.align	2
 1145              		.type	testsem3, %object
 1146              		.size	testsem3, 16
 1147              	testsem3:
 1148 0000 48000000 		.word	.LC8
 1149 0004 00000000 		.word	sem3_setup
 1150 0008 00000000 		.word	0
 1151 000c 00000000 		.word	sem3_execute
 1152              		.section	.rodata.testsem4,"a",%progbits
 1153              		.align	2
 1154              		.type	testsem4, %object
 1155              		.size	testsem4, 16
 1156              	testsem4:
 1157 0000 68000000 		.word	.LC9
 1158 0004 00000000 		.word	0
 1159 0008 00000000 		.word	0
 1160 000c 00000000 		.word	sem4_execute
 1161              		.section	.data.sem1,"aw",%progbits
 1162              		.align	2
 1163              		.set	.LANCHOR0,. + 0
 1164              		.type	sem1, %object
 1165              		.size	sem1, 12
 1166              	sem1:
 1167 0000 00000000 		.word	sem1
 1168 0004 00000000 		.word	sem1
 1169 0008 00000000 		.word	0
 1170              		.section	.rodata.patternsem,"a",%progbits
 1171              		.align	2
 1172              		.type	patternsem, %object
 1173              		.size	patternsem, 20
 1174              	patternsem:
 1175 0000 00000000 		.word	testsem1
 1176 0004 00000000 		.word	testsem2
 1177 0008 00000000 		.word	testsem3
 1178 000c 00000000 		.word	testsem4
 1179 0010 00000000 		.word	0
 1180              		.section	.rodata.str1.4,"aMS",%progbits,1
 1181              		.align	2
 1182              	.LC0:
 1183 0000 41424344 		.ascii	"ABCDE\000"
ARM GAS  C:\Users\DNIEL~1\AppData\Local\Temp\ccvTaqFU.s 			page 22


 1183      4500
 1184 0006 0000     		.space	2
 1185              	.LC1:
 1186 0008 4100     		.ascii	"A\000"
 1187 000a 0000     		.space	2
 1188              	.LC2:
 1189 000c 4200     		.ascii	"B\000"
 1190 000e 0000     		.space	2
 1191              	.LC3:
 1192 0010 4300     		.ascii	"C\000"
 1193 0012 0000     		.space	2
 1194              	.LC4:
 1195 0014 4400     		.ascii	"D\000"
 1196 0016 0000     		.space	2
 1197              	.LC5:
 1198 0018 4500     		.ascii	"E\000"
 1199 001a 0000     		.space	2
 1200              	.LC6:
 1201 001c 53656D61 		.ascii	"Semaphores, enqueuing\000"
 1201      70686F72 
 1201      65732C20 
 1201      656E7175 
 1201      6575696E 
 1202 0032 0000     		.space	2
 1203              	.LC7:
 1204 0034 53656D61 		.ascii	"Semaphores, timeout\000"
 1204      70686F72 
 1204      65732C20 
 1204      74696D65 
 1204      6F757400 
 1205              	.LC8:
 1206 0048 53656D61 		.ascii	"Semaphores, atomic signal-wait\000"
 1206      70686F72 
 1206      65732C20 
 1206      61746F6D 
 1206      69632073 
 1207 0067 00       		.space	1
 1208              	.LC9:
 1209 0068 42696E61 		.ascii	"Binary Semaphores, functionality\000"
 1209      72792053 
 1209      656D6170 
 1209      686F7265 
 1209      732C2066 
 1210 0089 000000   		.text
 1211              	.Letext0: