ARM GAS  C:\Users\DNIEL~1\AppData\Local\Temp\ccXA0XlR.s 			page 1


   1              		.syntax unified
   2              		.cpu cortex-m4
   3              		.fpu softvfp
   4              		.eabi_attribute 20, 1
   5              		.eabi_attribute 21, 1
   6              		.eabi_attribute 23, 3
   7              		.eabi_attribute 24, 1
   8              		.eabi_attribute 25, 1
   9              		.eabi_attribute 26, 1
  10              		.eabi_attribute 30, 2
  11              		.eabi_attribute 18, 4
  12              		.thumb
  13              		.file	"testmbox.c"
  20 0000 E9020000 		.text
  20      02006D01 
  20      00000201 
  20      FB0E0D00 
  20      01010101 
  21              	.Ltext0:
  22              		.cfi_sections	.debug_frame
  23              		.section	.text.mbox1_execute,"ax",%progbits
  24              		.align	2
  25              		.p2align 4,,15
  26              		.thumb
  27              		.thumb_func
  28              		.type	mbox1_execute, %function
  29              	mbox1_execute:
  30              	.LFB8:
  31              		.file 1 "../../../ChibiOS/test/testmbox.c"
  32              		.loc 1 76 0
  33              		.cfi_startproc
  34              		@ args = 0, pretend = 0, frame = 8
  35              		@ frame_needed = 0, uses_anonymous_args = 0
  36 0000 F0B5     		push	{r4, r5, r6, r7, lr}
  37              	.LCFI0:
  38              		.cfi_def_cfa_offset 20
  39              		.loc 1 83 0
  40 0002 BB4C     		ldr	r4, .L26
  41              		.cfi_offset 14, -4
  42              		.cfi_offset 7, -8
  43              		.cfi_offset 6, -12
  44              		.cfi_offset 5, -16
  45              		.cfi_offset 4, -20
  46 0004 626A     		ldr	r2, [r4, #36]
  47 0006 A2F10503 		sub	r3, r2, #5
  48 000a 0120     		movs	r0, #1
  49 000c 5942     		rsbs	r1, r3, #0
  50 000e 41EB0301 		adc	r1, r1, r3
  51              		.loc 1 76 0
  52 0012 83B0     		sub	sp, sp, #12
  53              	.LCFI1:
ARM GAS  C:\Users\DNIEL~1\AppData\Local\Temp\ccXA0XlR.s 			page 2


  54              		.cfi_def_cfa_offset 32
  55              		.loc 1 83 0
  56 0014 FFF7FEFF 		bl	_test_assert
  57 0018 0028     		cmp	r0, #0
  58 001a 45D1     		bne	.L1
  59              		.loc 1 89 0
  60 001c 4221     		movs	r1, #66
  61 001e 2046     		mov	r0, r4
  62 0020 4FF0FF32 		mov	r2, #-1
  63 0024 FFF7FEFF 		bl	chMBPost
  64              	.LVL0:
  65              		.loc 1 90 0
  66 0028 D0F10101 		rsbs	r1, r0, #1
  67 002c 38BF     		it	cc
  68 002e 0021     		movcc	r1, #0
  69 0030 0220     		movs	r0, #2
  70              	.LVL1:
  71 0032 FFF7FEFF 		bl	_test_assert
  72 0036 B8BB     		cbnz	r0, .L1
  73              	.LVL2:
  74              		.loc 1 89 0
  75 0038 4321     		movs	r1, #67
  76 003a 2046     		mov	r0, r4
  77 003c 4FF0FF32 		mov	r2, #-1
  78 0040 FFF7FEFF 		bl	chMBPost
  79              	.LVL3:
  80              		.loc 1 90 0
  81 0044 D0F10101 		rsbs	r1, r0, #1
  82 0048 38BF     		it	cc
  83 004a 0021     		movcc	r1, #0
  84 004c 0220     		movs	r0, #2
  85              	.LVL4:
  86 004e FFF7FEFF 		bl	_test_assert
  87 0052 48BB     		cbnz	r0, .L1
  88              	.LVL5:
  89              		.loc 1 89 0
  90 0054 4421     		movs	r1, #68
  91 0056 2046     		mov	r0, r4
  92 0058 4FF0FF32 		mov	r2, #-1
  93 005c FFF7FEFF 		bl	chMBPost
  94              	.LVL6:
  95              		.loc 1 90 0
  96 0060 D0F10101 		rsbs	r1, r0, #1
  97 0064 38BF     		it	cc
  98 0066 0021     		movcc	r1, #0
  99 0068 0220     		movs	r0, #2
 100              	.LVL7:
 101 006a FFF7FEFF 		bl	_test_assert
 102 006e D8B9     		cbnz	r0, .L1
 103              	.LVL8:
 104              		.loc 1 89 0
 105 0070 4521     		movs	r1, #69
 106 0072 2046     		mov	r0, r4
 107 0074 4FF0FF32 		mov	r2, #-1
 108 0078 FFF7FEFF 		bl	chMBPost
 109              	.LVL9:
 110              		.loc 1 90 0
ARM GAS  C:\Users\DNIEL~1\AppData\Local\Temp\ccXA0XlR.s 			page 3


 111 007c D0F10101 		rsbs	r1, r0, #1
 112 0080 38BF     		it	cc
 113 0082 0021     		movcc	r1, #0
 114 0084 0220     		movs	r0, #2
 115              	.LVL10:
 116 0086 FFF7FEFF 		bl	_test_assert
 117 008a 68B9     		cbnz	r0, .L1
 118              	.LVL11:
 119              		.loc 1 92 0
 120 008c 4121     		movs	r1, #65
 121 008e 2046     		mov	r0, r4
 122 0090 4FF0FF32 		mov	r2, #-1
 123 0094 FFF7FEFF 		bl	chMBPostAhead
 124              	.LVL12:
 125              		.loc 1 93 0
 126 0098 D0F10101 		rsbs	r1, r0, #1
 127 009c 38BF     		it	cc
 128 009e 0021     		movcc	r1, #0
 129 00a0 0320     		movs	r0, #3
 130              	.LVL13:
 131 00a2 FFF7FEFF 		bl	_test_assert
 132 00a6 08B1     		cbz	r0, .L24
 133              	.LVL14:
 134              	.L1:
 135              		.loc 1 220 0
 136 00a8 03B0     		add	sp, sp, #12
 137 00aa F0BD     		pop	{r4, r5, r6, r7, pc}
 138              	.LVL15:
 139              	.L24:
 140              		.loc 1 98 0
 141 00ac 5821     		movs	r1, #88
 142 00ae 0122     		movs	r2, #1
 143 00b0 2046     		mov	r0, r4
 144 00b2 FFF7FEFF 		bl	chMBPost
 145              	.LVL16:
 146              		.loc 1 99 0
 147 00b6 A0F1FF3C 		sub	ip, r0, #-1
 148 00ba DCF10000 		rsbs	r0, ip, #0
 149              	.LVL17:
 150 00be 40EB0C01 		adc	r1, r0, ip
 151 00c2 0420     		movs	r0, #4
 152 00c4 FFF7FEFF 		bl	_test_assert
 153              	.LVL18:
 154 00c8 0546     		mov	r5, r0
 155 00ca 0028     		cmp	r0, #0
 156 00cc ECD1     		bne	.L1
 157              	.LBB2:
 158              		.loc 1 100 0
 159 00ce 2023     		movs	r3, #32
 160              	.LVL19:
 161              	@ 100 "../../../ChibiOS/test/testmbox.c" 1
 162 00d0 83F31188 		msr     BASEPRI, r3
 163              	@ 0 "" 2
 164              	.LVL20:
 165              		.thumb
 166              	.LBE2:
 167              		.loc 1 101 0
ARM GAS  C:\Users\DNIEL~1\AppData\Local\Temp\ccXA0XlR.s 			page 4


 168 00d4 5821     		movs	r1, #88
 169 00d6 2046     		mov	r0, r4
 170 00d8 FFF7FEFF 		bl	chMBPostI
 171              	.LVL21:
 172              	.LBB3:
 173              		.loc 1 102 0
 174 00dc 2B46     		mov	r3, r5
 175              	.LVL22:
 176              	.LBE3:
 177              		.loc 1 101 0
 178 00de 0246     		mov	r2, r0
 179              	.LVL23:
 180              	.LBB4:
 181              		.loc 1 102 0
 182              	@ 102 "../../../ChibiOS/test/testmbox.c" 1
 183 00e0 83F31188 		msr     BASEPRI, r3
 184              	@ 0 "" 2
 185              	.LVL24:
 186              		.thumb
 187              	.LBE4:
 188              		.loc 1 103 0
 189 00e4 A2F1FF3E 		sub	lr, r2, #-1
 190 00e8 0520     		movs	r0, #5
 191              	.LVL25:
 192 00ea DEF10001 		rsbs	r1, lr, #0
 193 00ee 41EB0E01 		adc	r1, r1, lr
 194 00f2 FFF7FEFF 		bl	_test_assert
 195              	.LVL26:
 196 00f6 0028     		cmp	r0, #0
 197 00f8 D6D1     		bne	.L1
 198              		.loc 1 104 0
 199 00fa 5821     		movs	r1, #88
 200 00fc 0122     		movs	r2, #1
 201 00fe 2046     		mov	r0, r4
 202 0100 FFF7FEFF 		bl	chMBPostAhead
 203              	.LVL27:
 204              		.loc 1 105 0
 205 0104 A0F1FF33 		sub	r3, r0, #-1
 206 0108 5D42     		rsbs	r5, r3, #0
 207 010a 45EB0301 		adc	r1, r5, r3
 208 010e 0620     		movs	r0, #6
 209              	.LVL28:
 210 0110 FFF7FEFF 		bl	_test_assert
 211              	.LVL29:
 212 0114 0546     		mov	r5, r0
 213 0116 0028     		cmp	r0, #0
 214 0118 C6D1     		bne	.L1
 215              	.LBB5:
 216              		.loc 1 106 0
 217 011a 2023     		movs	r3, #32
 218              	.LVL30:
 219              	@ 106 "../../../ChibiOS/test/testmbox.c" 1
 220 011c 83F31188 		msr     BASEPRI, r3
 221              	@ 0 "" 2
 222              	.LVL31:
 223              		.thumb
 224              	.LBE5:
ARM GAS  C:\Users\DNIEL~1\AppData\Local\Temp\ccXA0XlR.s 			page 5


 225              		.loc 1 107 0
 226 0120 5821     		movs	r1, #88
 227 0122 2046     		mov	r0, r4
 228 0124 FFF7FEFF 		bl	chMBPostAheadI
 229              	.LVL32:
 230              	.LBB6:
 231              		.loc 1 108 0
 232 0128 2B46     		mov	r3, r5
 233              	.LVL33:
 234              	.LBE6:
 235              		.loc 1 107 0
 236 012a 0246     		mov	r2, r0
 237              	.LVL34:
 238              	.LBB7:
 239              		.loc 1 108 0
 240              	@ 108 "../../../ChibiOS/test/testmbox.c" 1
 241 012c 83F31188 		msr     BASEPRI, r3
 242              	@ 0 "" 2
 243              	.LVL35:
 244              		.thumb
 245              	.LBE7:
 246              		.loc 1 109 0
 247 0130 A2F1FF31 		sub	r1, r2, #-1
 248 0134 0720     		movs	r0, #7
 249              	.LVL36:
 250 0136 D1F1000C 		rsbs	ip, r1, #0
 251 013a 4CEB0101 		adc	r1, ip, r1
 252 013e FFF7FEFF 		bl	_test_assert
 253              	.LVL37:
 254 0142 0028     		cmp	r0, #0
 255 0144 B0D1     		bne	.L1
 256              	.LBB8:
 257              		.loc 1 114 0
 258 0146 2023     		movs	r3, #32
 259              	.LVL38:
 260              	@ 114 "../../../ChibiOS/test/testmbox.c" 1
 261 0148 83F31188 		msr     BASEPRI, r3
 262              	@ 0 "" 2
 263              	.LVL39:
 264              		.thumb
 265              	.LBE8:
 266 014c 676A     		ldr	r7, [r4, #36]
 267 014e 0820     		movs	r0, #8
 268 0150 D7F10101 		rsbs	r1, r7, #1
 269 0154 38BF     		it	cc
 270 0156 0021     		movcc	r1, #0
 271 0158 FFF7FEFF 		bl	_test_assert
 272              	.LVL40:
 273 015c 0746     		mov	r7, r0
 274 015e 18B1     		cbz	r0, .L3
 275              	.LBB9:
 276              		.loc 1 114 0 is_stmt 0 discriminator 1
 277 0160 0023     		movs	r3, #0
 278              	@ 114 "../../../ChibiOS/test/testmbox.c" 1
 279 0162 83F31188 		msr     BASEPRI, r3
 280              	@ 0 "" 2
 281              	.LVL41:
ARM GAS  C:\Users\DNIEL~1\AppData\Local\Temp\ccXA0XlR.s 			page 6


 282              		.thumb
 283              	.LBE9:
 284 0166 9FE7     		b	.L1
 285              	.LVL42:
 286              	.L3:
 287              	.LBB10:
 288              		.loc 1 114 0 discriminator 2
 289 0168 0346     		mov	r3, r0
 290              	.LVL43:
 291              	@ 114 "../../../ChibiOS/test/testmbox.c" 1
 292 016a 83F31188 		msr     BASEPRI, r3
 293              	@ 0 "" 2
 294              	.LVL44:
 295              		.thumb
 296              	.LBE10:
 297              	.LBB11:
 298              		.loc 1 115 0 is_stmt 1 discriminator 2
 299 016e 2023     		movs	r3, #32
 300              	.LVL45:
 301              	@ 115 "../../../ChibiOS/test/testmbox.c" 1
 302 0170 83F31188 		msr     BASEPRI, r3
 303              	@ 0 "" 2
 304              	.LVL46:
 305              		.thumb
 306              	.LBE11:
 307 0174 A369     		ldr	r3, [r4, #24]
 308              	.LVL47:
 309 0176 A3F10505 		sub	r5, r3, #5
 310 017a 0920     		movs	r0, #9
 311 017c D5F1000E 		rsbs	lr, r5, #0
 312 0180 4EEB0501 		adc	r1, lr, r5
 313 0184 FFF7FEFF 		bl	_test_assert
 314 0188 0546     		mov	r5, r0
 315 018a 18B1     		cbz	r0, .L4
 316              	.LBB12:
 317              		.loc 1 115 0 is_stmt 0 discriminator 1
 318 018c 3B46     		mov	r3, r7
 319              	@ 115 "../../../ChibiOS/test/testmbox.c" 1
 320 018e 83F31188 		msr     BASEPRI, r3
 321              	@ 0 "" 2
 322              	.LVL48:
 323              		.thumb
 324              	.LBE12:
 325 0192 89E7     		b	.L1
 326              	.LVL49:
 327              	.L4:
 328              	.LBB13:
 329              		.loc 1 115 0 discriminator 2
 330 0194 0346     		mov	r3, r0
 331              	.LVL50:
 332              	@ 115 "../../../ChibiOS/test/testmbox.c" 1
 333 0196 83F31188 		msr     BASEPRI, r3
 334              	@ 0 "" 2
 335              	.LVL51:
 336              		.thumb
 337              	.LBE13:
 338              	.LBB14:
ARM GAS  C:\Users\DNIEL~1\AppData\Local\Temp\ccXA0XlR.s 			page 7


 339              		.loc 1 116 0 is_stmt 1 discriminator 2
 340 019a 2023     		movs	r3, #32
 341              	.LVL52:
 342              	@ 116 "../../../ChibiOS/test/testmbox.c" 1
 343 019c 83F31188 		msr     BASEPRI, r3
 344              	@ 0 "" 2
 345              	.LVL53:
 346              		.thumb
 347              	.LBE14:
 348 01a0 A368     		ldr	r3, [r4, #8]
 349              	.LVL54:
 350 01a2 E268     		ldr	r2, [r4, #12]
 351 01a4 D11A     		subs	r1, r2, r3
 352 01a6 0A20     		movs	r0, #10
 353 01a8 D1F1000C 		rsbs	ip, r1, #0
 354 01ac 4CEB0101 		adc	r1, ip, r1
 355 01b0 FFF7FEFF 		bl	_test_assert
 356 01b4 0346     		mov	r3, r0
 357 01b6 0028     		cmp	r0, #0
 358 01b8 40F09680 		bne	.L25
 359              	.LBB15:
 360              	@ 116 "../../../ChibiOS/test/testmbox.c" 1
 361 01bc 83F31188 		msr     BASEPRI, r3
 362              	@ 0 "" 2
 363              	.LVL55:
 364              		.loc 1 121 0 discriminator 2
 365              		.thumb
 366 01c0 0646     		mov	r6, r0
 367              	.LVL56:
 368              	.L6:
 369              	.LBE15:
 370              		.loc 1 122 0
 371 01c2 4B4D     		ldr	r5, .L26
 372 01c4 01A9     		add	r1, sp, #4
 373 01c6 2846     		mov	r0, r5
 374 01c8 4FF0FF32 		mov	r2, #-1
 375 01cc FFF7FEFF 		bl	chMBFetch
 376              	.LVL57:
 377              		.loc 1 123 0
 378 01d0 D0F10101 		rsbs	r1, r0, #1
 379 01d4 38BF     		it	cc
 380 01d6 0021     		movcc	r1, #0
 381 01d8 0B20     		movs	r0, #11
 382              	.LVL58:
 383 01da FFF7FEFF 		bl	_test_assert
 384 01de 0028     		cmp	r0, #0
 385 01e0 7FF462AF 		bne	.L1
 386              		.loc 1 124 0
 387 01e4 9DF80400 		ldrb	r0, [sp, #4]	@ zero_extendqisi2
 388              		.loc 1 121 0
 389 01e8 0136     		adds	r6, r6, #1
 390              		.loc 1 124 0
 391 01ea FFF7FEFF 		bl	test_emit_token
 392              	.LVL59:
 393              		.loc 1 121 0
 394 01ee 052E     		cmp	r6, #5
 395 01f0 E7D1     		bne	.L6
ARM GAS  C:\Users\DNIEL~1\AppData\Local\Temp\ccXA0XlR.s 			page 8


 396              		.loc 1 126 0
 397 01f2 0C20     		movs	r0, #12
 398 01f4 3F49     		ldr	r1, .L26+4
 399 01f6 FFF7FEFF 		bl	_test_assert_sequence
 400 01fa 0028     		cmp	r0, #0
 401 01fc 7FF454AF 		bne	.L1
 402              		.loc 1 131 0
 403 0200 4721     		movs	r1, #71
 404 0202 2846     		mov	r0, r5
 405 0204 4FF0FF32 		mov	r2, #-1
 406 0208 FFF7FEFF 		bl	chMBPost
 407              	.LVL60:
 408              		.loc 1 132 0
 409 020c D0F10101 		rsbs	r1, r0, #1
 410 0210 38BF     		it	cc
 411 0212 0021     		movcc	r1, #0
 412 0214 0D20     		movs	r0, #13
 413              	.LVL61:
 414 0216 FFF7FEFF 		bl	_test_assert
 415 021a 0028     		cmp	r0, #0
 416 021c 7FF444AF 		bne	.L1
 417              		.loc 1 133 0
 418 0220 01A9     		add	r1, sp, #4
 419 0222 2846     		mov	r0, r5
 420 0224 4FF0FF32 		mov	r2, #-1
 421 0228 FFF7FEFF 		bl	chMBFetch
 422              	.LVL62:
 423              		.loc 1 134 0
 424 022c D0F10101 		rsbs	r1, r0, #1
 425 0230 38BF     		it	cc
 426 0232 0021     		movcc	r1, #0
 427 0234 0E20     		movs	r0, #14
 428              	.LVL63:
 429 0236 FFF7FEFF 		bl	_test_assert
 430 023a 0028     		cmp	r0, #0
 431 023c 7FF434AF 		bne	.L1
 432              		.loc 1 135 0
 433 0240 2968     		ldr	r1, [r5, #0]
 434 0242 AA68     		ldr	r2, [r5, #8]
 435 0244 C2EB010C 		rsb	ip, r2, r1
 436 0248 0F30     		adds	r0, r0, #15
 437 024a DCF1000E 		rsbs	lr, ip, #0
 438 024e 4EEB0C01 		adc	r1, lr, ip
 439 0252 FFF7FEFF 		bl	_test_assert
 440 0256 0028     		cmp	r0, #0
 441 0258 7FF426AF 		bne	.L1
 442              		.loc 1 136 0
 443 025c 2968     		ldr	r1, [r5, #0]
 444 025e EA68     		ldr	r2, [r5, #12]
 445 0260 8B1A     		subs	r3, r1, r2
 446 0262 1030     		adds	r0, r0, #16
 447 0264 D3F1000E 		rsbs	lr, r3, #0
 448 0268 4EEB0301 		adc	r1, lr, r3
 449 026c FFF7FEFF 		bl	_test_assert
 450 0270 0028     		cmp	r0, #0
 451 0272 7FF419AF 		bne	.L1
 452              		.loc 1 141 0
ARM GAS  C:\Users\DNIEL~1\AppData\Local\Temp\ccXA0XlR.s 			page 9


 453 0276 0122     		movs	r2, #1
 454 0278 01A9     		add	r1, sp, #4
 455 027a 2846     		mov	r0, r5
 456 027c FFF7FEFF 		bl	chMBFetch
 457              	.LVL64:
 458              		.loc 1 142 0
 459 0280 A0F1FF30 		sub	r0, r0, #-1
 460              	.LVL65:
 461 0284 4642     		rsbs	r6, r0, #0
 462              	.LVL66:
 463 0286 46EB0001 		adc	r1, r6, r0
 464 028a 1120     		movs	r0, #17
 465              	.LVL67:
 466 028c FFF7FEFF 		bl	_test_assert
 467 0290 0646     		mov	r6, r0
 468 0292 0028     		cmp	r0, #0
 469 0294 7FF408AF 		bne	.L1
 470              	.LBB16:
 471              		.loc 1 143 0
 472 0298 2023     		movs	r3, #32
 473              	.LVL68:
 474              	@ 143 "../../../ChibiOS/test/testmbox.c" 1
 475 029a 83F31188 		msr     BASEPRI, r3
 476              	@ 0 "" 2
 477              	.LVL69:
 478              		.thumb
 479              	.LBE16:
 480              		.loc 1 144 0
 481 029e 2846     		mov	r0, r5
 482 02a0 01A9     		add	r1, sp, #4
 483 02a2 FFF7FEFF 		bl	chMBFetchI
 484              	.LVL70:
 485              	.LBB17:
 486              		.loc 1 145 0
 487 02a6 3346     		mov	r3, r6
 488              	.LVL71:
 489              	.LBE17:
 490              		.loc 1 144 0
 491 02a8 0246     		mov	r2, r0
 492              	.LVL72:
 493              	.LBB18:
 494              		.loc 1 145 0
 495              	@ 145 "../../../ChibiOS/test/testmbox.c" 1
 496 02aa 83F31188 		msr     BASEPRI, r3
 497              	@ 0 "" 2
 498              	.LVL73:
 499              		.thumb
 500              	.LBE18:
 501              		.loc 1 146 0
 502 02ae A2F1FF3E 		sub	lr, r2, #-1
 503 02b2 1220     		movs	r0, #18
 504              	.LVL74:
 505 02b4 DEF1000C 		rsbs	ip, lr, #0
 506 02b8 4CEB0E01 		adc	r1, ip, lr
 507 02bc FFF7FEFF 		bl	_test_assert
 508              	.LVL75:
 509 02c0 0028     		cmp	r0, #0
ARM GAS  C:\Users\DNIEL~1\AppData\Local\Temp\ccXA0XlR.s 			page 10


 510 02c2 7FF4F1AE 		bne	.L1
 511              	.LBB19:
 512              		.loc 1 151 0
 513 02c6 2023     		movs	r3, #32
 514              	.LVL76:
 515              	@ 151 "../../../ChibiOS/test/testmbox.c" 1
 516 02c8 83F31188 		msr     BASEPRI, r3
 517              	@ 0 "" 2
 518              	.LVL77:
 519              		.thumb
 520              	.LBE19:
 521 02cc 6A6A     		ldr	r2, [r5, #36]
 522 02ce A2F10501 		sub	r1, r2, #5
 523 02d2 1330     		adds	r0, r0, #19
 524 02d4 4B42     		rsbs	r3, r1, #0
 525              	.LVL78:
 526 02d6 43EB0101 		adc	r1, r3, r1
 527 02da FFF7FEFF 		bl	_test_assert
 528 02de 58B1     		cbz	r0, .L7
 529              	.LBB20:
 530              		.loc 1 151 0 is_stmt 0 discriminator 1
 531 02e0 0023     		movs	r3, #0
 532              	@ 151 "../../../ChibiOS/test/testmbox.c" 1
 533 02e2 83F31188 		msr     BASEPRI, r3
 534              	@ 0 "" 2
 535              	.LVL79:
 536              		.thumb
 537              	.LBE20:
 538 02e6 DFE6     		b	.L1
 539              	.LVL80:
 540              	.L25:
 541              	.LBB21:
 542              		.loc 1 116 0 is_stmt 1 discriminator 1
 543 02e8 2B46     		mov	r3, r5
 544              	@ 116 "../../../ChibiOS/test/testmbox.c" 1
 545 02ea 83F31188 		msr     BASEPRI, r3
 546              	@ 0 "" 2
 547              	.LVL81:
 548              		.thumb
 549              	.LBE21:
 550 02ee DBE6     		b	.L1
 551              	.L27:
 552              		.align	2
 553              	.L26:
 554 02f0 00000000 		.word	.LANCHOR0
 555 02f4 00000000 		.word	.LC0
 556              	.LVL82:
 557              	.L7:
 558              	.LBB22:
 559              		.loc 1 151 0 discriminator 2
 560 02f8 0023     		movs	r3, #0
 561              	.LVL83:
 562              	@ 151 "../../../ChibiOS/test/testmbox.c" 1
 563 02fa 83F31188 		msr     BASEPRI, r3
 564              	@ 0 "" 2
 565              	.LVL84:
 566              		.thumb
ARM GAS  C:\Users\DNIEL~1\AppData\Local\Temp\ccXA0XlR.s 			page 11


 567              	.LBE22:
 568              	.LBB23:
 569              		.loc 1 152 0 discriminator 2
 570 02fe 2033     		adds	r3, r3, #32
 571              	.LVL85:
 572              	@ 152 "../../../ChibiOS/test/testmbox.c" 1
 573 0300 83F31188 		msr     BASEPRI, r3
 574              	@ 0 "" 2
 575              		.thumb
 576              	.LBE23:
 577 0304 A569     		ldr	r5, [r4, #24]
 578 0306 C34C     		ldr	r4, .L28
 579 0308 1420     		movs	r0, #20
 580 030a D5F10101 		rsbs	r1, r5, #1
 581 030e 38BF     		it	cc
 582 0310 0021     		movcc	r1, #0
 583 0312 FFF7FEFF 		bl	_test_assert
 584              	.LVL86:
 585 0316 0546     		mov	r5, r0
 586 0318 18B1     		cbz	r0, .L8
 587              	.LBB24:
 588              		.loc 1 152 0 is_stmt 0 discriminator 1
 589 031a 0023     		movs	r3, #0
 590              	@ 152 "../../../ChibiOS/test/testmbox.c" 1
 591 031c 83F31188 		msr     BASEPRI, r3
 592              	@ 0 "" 2
 593              	.LVL87:
 594              		.thumb
 595              	.LBE24:
 596 0320 C2E6     		b	.L1
 597              	.LVL88:
 598              	.L8:
 599              	.LBB25:
 600              		.loc 1 152 0 discriminator 2
 601 0322 0346     		mov	r3, r0
 602              	.LVL89:
 603              	@ 152 "../../../ChibiOS/test/testmbox.c" 1
 604 0324 83F31188 		msr     BASEPRI, r3
 605              	@ 0 "" 2
 606              	.LVL90:
 607              		.thumb
 608              	.LBE25:
 609              	.LBB26:
 610              		.loc 1 153 0 is_stmt 1 discriminator 2
 611 0328 2023     		movs	r3, #32
 612              	.LVL91:
 613              	@ 153 "../../../ChibiOS/test/testmbox.c" 1
 614 032a 83F31188 		msr     BASEPRI, r3
 615              	@ 0 "" 2
 616              	.LVL92:
 617              		.thumb
 618              	.LBE26:
 619 032e E168     		ldr	r1, [r4, #12]
 620 0330 A368     		ldr	r3, [r4, #8]
 621              	.LVL93:
 622 0332 C3EB010E 		rsb	lr, r3, r1
 623 0336 1520     		movs	r0, #21
ARM GAS  C:\Users\DNIEL~1\AppData\Local\Temp\ccXA0XlR.s 			page 12


 624 0338 DEF1000C 		rsbs	ip, lr, #0
 625 033c 4CEB0E01 		adc	r1, ip, lr
 626 0340 FFF7FEFF 		bl	_test_assert
 627 0344 0346     		mov	r3, r0
 628 0346 18B1     		cbz	r0, .L9
 629              	.LBB27:
 630              		.loc 1 153 0 is_stmt 0 discriminator 1
 631 0348 2B46     		mov	r3, r5
 632              	@ 153 "../../../ChibiOS/test/testmbox.c" 1
 633 034a 83F31188 		msr     BASEPRI, r3
 634              	@ 0 "" 2
 635              	.LVL94:
 636              		.thumb
 637              	.LBE27:
 638 034e ABE6     		b	.L1
 639              	.LVL95:
 640              	.L9:
 641              	.LBB28:
 642              		.loc 1 153 0 discriminator 2
 643              	@ 153 "../../../ChibiOS/test/testmbox.c" 1
 644 0350 83F31188 		msr     BASEPRI, r3
 645              	@ 0 "" 2
 646              	.LVL96:
 647              		.thumb
 648              	.LBE28:
 649              	.LBB29:
 650              		.loc 1 158 0 is_stmt 1 discriminator 2
 651 0354 2023     		movs	r3, #32
 652              	.LVL97:
 653              	@ 158 "../../../ChibiOS/test/testmbox.c" 1
 654 0356 83F31188 		msr     BASEPRI, r3
 655              	@ 0 "" 2
 656              	.LVL98:
 657              		.thumb
 658              	.LBE29:
 659              		.loc 1 159 0 discriminator 2
 660 035a 4121     		movs	r1, #65
 661 035c 2046     		mov	r0, r4
 662 035e FFF7FEFF 		bl	chMBPostI
 663              	.LVL99:
 664              		.loc 1 160 0 discriminator 2
 665 0362 D0F10101 		rsbs	r1, r0, #1
 666 0366 38BF     		it	cc
 667 0368 0021     		movcc	r1, #0
 668 036a 1620     		movs	r0, #22
 669              	.LVL100:
 670 036c FFF7FEFF 		bl	_test_assert
 671 0370 0028     		cmp	r0, #0
 672 0372 7FF499AE 		bne	.L1
 673              		.loc 1 161 0
 674 0376 4221     		movs	r1, #66
 675 0378 2046     		mov	r0, r4
 676 037a FFF7FEFF 		bl	chMBPostI
 677              	.LVL101:
 678              		.loc 1 162 0
 679 037e D0F10101 		rsbs	r1, r0, #1
 680 0382 38BF     		it	cc
ARM GAS  C:\Users\DNIEL~1\AppData\Local\Temp\ccXA0XlR.s 			page 13


 681 0384 0021     		movcc	r1, #0
 682 0386 1720     		movs	r0, #23
 683              	.LVL102:
 684 0388 FFF7FEFF 		bl	_test_assert
 685 038c 0028     		cmp	r0, #0
 686 038e 7FF48BAE 		bne	.L1
 687              		.loc 1 163 0
 688 0392 4321     		movs	r1, #67
 689 0394 2046     		mov	r0, r4
 690 0396 FFF7FEFF 		bl	chMBPostI
 691              	.LVL103:
 692              		.loc 1 164 0
 693 039a D0F10101 		rsbs	r1, r0, #1
 694 039e 38BF     		it	cc
 695 03a0 0021     		movcc	r1, #0
 696 03a2 1820     		movs	r0, #24
 697              	.LVL104:
 698 03a4 FFF7FEFF 		bl	_test_assert
 699 03a8 0028     		cmp	r0, #0
 700 03aa 7FF47DAE 		bne	.L1
 701              		.loc 1 165 0
 702 03ae 4421     		movs	r1, #68
 703 03b0 2046     		mov	r0, r4
 704 03b2 FFF7FEFF 		bl	chMBPostI
 705              	.LVL105:
 706              		.loc 1 166 0
 707 03b6 D0F10101 		rsbs	r1, r0, #1
 708 03ba 38BF     		it	cc
 709 03bc 0021     		movcc	r1, #0
 710 03be 1920     		movs	r0, #25
 711              	.LVL106:
 712 03c0 FFF7FEFF 		bl	_test_assert
 713 03c4 0546     		mov	r5, r0
 714 03c6 0028     		cmp	r0, #0
 715 03c8 7FF46EAE 		bne	.L1
 716              		.loc 1 167 0
 717 03cc 2046     		mov	r0, r4
 718 03ce 4521     		movs	r1, #69
 719 03d0 FFF7FEFF 		bl	chMBPostI
 720              	.LBB30:
 721              		.loc 1 168 0
 722 03d4 2B46     		mov	r3, r5
 723              	.LVL107:
 724              	.LBE30:
 725              		.loc 1 167 0
 726 03d6 0246     		mov	r2, r0
 727              	.LVL108:
 728              	.LBB31:
 729              		.loc 1 168 0
 730              	@ 168 "../../../ChibiOS/test/testmbox.c" 1
 731 03d8 83F31188 		msr     BASEPRI, r3
 732              	@ 0 "" 2
 733              	.LVL109:
 734              		.thumb
 735              	.LBE31:
 736              		.loc 1 169 0
 737 03dc 1A20     		movs	r0, #26
ARM GAS  C:\Users\DNIEL~1\AppData\Local\Temp\ccXA0XlR.s 			page 14


 738              	.LVL110:
 739 03de D2F10101 		rsbs	r1, r2, #1
 740 03e2 38BF     		it	cc
 741 03e4 0021     		movcc	r1, #0
 742 03e6 FFF7FEFF 		bl	_test_assert
 743              	.LVL111:
 744 03ea 0028     		cmp	r0, #0
 745 03ec 7FF45CAE 		bne	.L1
 746              		.loc 1 170 0
 747 03f0 E168     		ldr	r1, [r4, #12]
 748 03f2 A368     		ldr	r3, [r4, #8]
 749 03f4 C3EB010C 		rsb	ip, r3, r1
 750 03f8 1B30     		adds	r0, r0, #27
 751 03fa DCF1000E 		rsbs	lr, ip, #0
 752 03fe 4EEB0C01 		adc	r1, lr, ip
 753 0402 FFF7FEFF 		bl	_test_assert
 754 0406 0028     		cmp	r0, #0
 755 0408 7FF44EAE 		bne	.L1
 756 040c 0535     		adds	r5, r5, #5
 757              	.L10:
 758              	.LBB32:
 759              		.loc 1 172 0
 760 040e 2023     		movs	r3, #32
 761              	.LVL112:
 762              	@ 172 "../../../ChibiOS/test/testmbox.c" 1
 763 0410 83F31188 		msr     BASEPRI, r3
 764              	@ 0 "" 2
 765              	.LVL113:
 766              		.thumb
 767              	.LBE32:
 768              		.loc 1 173 0
 769 0414 7F4C     		ldr	r4, .L28
 770 0416 01A9     		add	r1, sp, #4
 771 0418 2046     		mov	r0, r4
 772 041a FFF7FEFF 		bl	chMBFetchI
 773              	.LVL114:
 774              	.LBB33:
 775              		.loc 1 174 0
 776 041e 0023     		movs	r3, #0
 777              	.LVL115:
 778              	.LBE33:
 779              		.loc 1 173 0
 780 0420 8446     		mov	ip, r0
 781              	.LVL116:
 782              	.LBB34:
 783              		.loc 1 174 0
 784              	@ 174 "../../../ChibiOS/test/testmbox.c" 1
 785 0422 83F31188 		msr     BASEPRI, r3
 786              	@ 0 "" 2
 787              	.LVL117:
 788              		.thumb
 789              	.LBE34:
 790              		.loc 1 175 0
 791 0426 C3EB0C0E 		rsb	lr, r3, ip
 792              	.LVL118:
 793 042a 1C20     		movs	r0, #28
 794              	.LVL119:
ARM GAS  C:\Users\DNIEL~1\AppData\Local\Temp\ccXA0XlR.s 			page 15


 795 042c DEF10002 		rsbs	r2, lr, #0
 796 0430 42EB0E01 		adc	r1, r2, lr
 797 0434 FFF7FEFF 		bl	_test_assert
 798              	.LVL120:
 799 0438 0028     		cmp	r0, #0
 800 043a 7FF435AE 		bne	.L1
 801              		.loc 1 176 0
 802 043e 9DF80400 		ldrb	r0, [sp, #4]	@ zero_extendqisi2
 803 0442 FFF7FEFF 		bl	test_emit_token
 804              		.loc 1 171 0
 805 0446 013D     		subs	r5, r5, #1
 806 0448 E1D1     		bne	.L10
 807              		.loc 1 178 0
 808 044a 1D20     		movs	r0, #29
 809 044c 7249     		ldr	r1, .L28+4
 810 044e FFF7FEFF 		bl	_test_assert_sequence
 811 0452 0028     		cmp	r0, #0
 812 0454 7FF428AE 		bne	.L1
 813              	.LBB35:
 814              		.loc 1 179 0
 815 0458 2023     		movs	r3, #32
 816              	.LVL121:
 817              	@ 179 "../../../ChibiOS/test/testmbox.c" 1
 818 045a 83F31188 		msr     BASEPRI, r3
 819              	@ 0 "" 2
 820              	.LVL122:
 821              		.thumb
 822              	.LBE35:
 823 045e 626A     		ldr	r2, [r4, #36]
 824 0460 A2F10503 		sub	r3, r2, #5
 825              	.LVL123:
 826 0464 1E30     		adds	r0, r0, #30
 827 0466 5942     		rsbs	r1, r3, #0
 828 0468 41EB0301 		adc	r1, r1, r3
 829 046c FFF7FEFF 		bl	_test_assert
 830 0470 18B1     		cbz	r0, .L11
 831              	.LBB36:
 832              		.loc 1 179 0 is_stmt 0 discriminator 1
 833 0472 2B46     		mov	r3, r5
 834              	@ 179 "../../../ChibiOS/test/testmbox.c" 1
 835 0474 83F31188 		msr     BASEPRI, r3
 836              	@ 0 "" 2
 837              	.LVL124:
 838              		.thumb
 839              	.LBE36:
 840 0478 16E6     		b	.L1
 841              	.LVL125:
 842              	.L11:
 843              	.LBB37:
 844              		.loc 1 179 0 discriminator 2
 845 047a 2B46     		mov	r3, r5
 846              	.LVL126:
 847              	@ 179 "../../../ChibiOS/test/testmbox.c" 1
 848 047c 83F31188 		msr     BASEPRI, r3
 849              	@ 0 "" 2
 850              	.LVL127:
 851              		.thumb
ARM GAS  C:\Users\DNIEL~1\AppData\Local\Temp\ccXA0XlR.s 			page 16


 852              	.LBE37:
 853              	.LBB38:
 854              		.loc 1 180 0 is_stmt 1 discriminator 2
 855 0480 2023     		movs	r3, #32
 856              	.LVL128:
 857              	@ 180 "../../../ChibiOS/test/testmbox.c" 1
 858 0482 83F31188 		msr     BASEPRI, r3
 859              	@ 0 "" 2
 860              	.LVL129:
 861              		.thumb
 862              	.LBE38:
 863 0486 A169     		ldr	r1, [r4, #24]
 864 0488 1F20     		movs	r0, #31
 865 048a D1F10101 		rsbs	r1, r1, #1
 866 048e 38BF     		it	cc
 867 0490 0021     		movcc	r1, #0
 868 0492 FFF7FEFF 		bl	_test_assert
 869              	.LVL130:
 870 0496 18B1     		cbz	r0, .L12
 871              	.LBB39:
 872              		.loc 1 180 0 is_stmt 0 discriminator 1
 873 0498 2B46     		mov	r3, r5
 874              	@ 180 "../../../ChibiOS/test/testmbox.c" 1
 875 049a 83F31188 		msr     BASEPRI, r3
 876              	@ 0 "" 2
 877              	.LVL131:
 878              		.thumb
 879              	.LBE39:
 880 049e 03E6     		b	.L1
 881              	.LVL132:
 882              	.L12:
 883              	.LBB40:
 884              		.loc 1 180 0 discriminator 2
 885 04a0 2B46     		mov	r3, r5
 886              	.LVL133:
 887              	@ 180 "../../../ChibiOS/test/testmbox.c" 1
 888 04a2 83F31188 		msr     BASEPRI, r3
 889              	@ 0 "" 2
 890              	.LVL134:
 891              		.thumb
 892              	.LBE40:
 893              		.loc 1 181 0 is_stmt 1 discriminator 2
 894 04a6 E268     		ldr	r2, [r4, #12]
 895 04a8 A368     		ldr	r3, [r4, #8]
 896              	.LVL135:
 897 04aa C3EB020C 		rsb	ip, r3, r2
 898 04ae 2020     		movs	r0, #32
 899 04b0 DCF1000E 		rsbs	lr, ip, #0
 900 04b4 4EEB0C01 		adc	r1, lr, ip
 901 04b8 FFF7FEFF 		bl	_test_assert
 902 04bc 0028     		cmp	r0, #0
 903 04be 7FF4F3AD 		bne	.L1
 904              	.LBB41:
 905              		.loc 1 183 0
 906 04c2 2023     		movs	r3, #32
 907              	.LVL136:
 908              	@ 183 "../../../ChibiOS/test/testmbox.c" 1
ARM GAS  C:\Users\DNIEL~1\AppData\Local\Temp\ccXA0XlR.s 			page 17


 909 04c4 83F31188 		msr     BASEPRI, r3
 910              	@ 0 "" 2
 911              	.LVL137:
 912              		.thumb
 913              	.LBE41:
 914              		.loc 1 184 0
 915 04c8 4521     		movs	r1, #69
 916 04ca 2046     		mov	r0, r4
 917 04cc FFF7FEFF 		bl	chMBPostAheadI
 918              	.LVL138:
 919              		.loc 1 185 0
 920 04d0 D0F10101 		rsbs	r1, r0, #1
 921 04d4 38BF     		it	cc
 922 04d6 0021     		movcc	r1, #0
 923 04d8 2120     		movs	r0, #33
 924              	.LVL139:
 925 04da FFF7FEFF 		bl	_test_assert
 926 04de 0028     		cmp	r0, #0
 927 04e0 7FF4E2AD 		bne	.L1
 928              		.loc 1 186 0
 929 04e4 4421     		movs	r1, #68
 930 04e6 2046     		mov	r0, r4
 931 04e8 FFF7FEFF 		bl	chMBPostAheadI
 932              	.LVL140:
 933              		.loc 1 187 0
 934 04ec D0F10101 		rsbs	r1, r0, #1
 935 04f0 38BF     		it	cc
 936 04f2 0021     		movcc	r1, #0
 937 04f4 2220     		movs	r0, #34
 938              	.LVL141:
 939 04f6 FFF7FEFF 		bl	_test_assert
 940 04fa 0028     		cmp	r0, #0
 941 04fc 7FF4D4AD 		bne	.L1
 942              		.loc 1 188 0
 943 0500 4321     		movs	r1, #67
 944 0502 2046     		mov	r0, r4
 945 0504 FFF7FEFF 		bl	chMBPostAheadI
 946              	.LVL142:
 947              		.loc 1 189 0
 948 0508 D0F10101 		rsbs	r1, r0, #1
 949 050c 38BF     		it	cc
 950 050e 0021     		movcc	r1, #0
 951 0510 2320     		movs	r0, #35
 952              	.LVL143:
 953 0512 FFF7FEFF 		bl	_test_assert
 954 0516 0028     		cmp	r0, #0
 955 0518 7FF4C6AD 		bne	.L1
 956              		.loc 1 190 0
 957 051c 4221     		movs	r1, #66
 958 051e 2046     		mov	r0, r4
 959 0520 FFF7FEFF 		bl	chMBPostAheadI
 960              	.LVL144:
 961              		.loc 1 191 0
 962 0524 D0F10101 		rsbs	r1, r0, #1
 963 0528 38BF     		it	cc
 964 052a 0021     		movcc	r1, #0
 965 052c 2420     		movs	r0, #36
ARM GAS  C:\Users\DNIEL~1\AppData\Local\Temp\ccXA0XlR.s 			page 18


 966              	.LVL145:
 967 052e FFF7FEFF 		bl	_test_assert
 968 0532 0028     		cmp	r0, #0
 969 0534 7FF4B8AD 		bne	.L1
 970              		.loc 1 192 0
 971 0538 364C     		ldr	r4, .L28
 972 053a 4121     		movs	r1, #65
 973 053c 2046     		mov	r0, r4
 974 053e FFF7FEFF 		bl	chMBPostAheadI
 975              	.LBB42:
 976              		.loc 1 193 0
 977 0542 0023     		movs	r3, #0
 978              	.LVL146:
 979              	.LBE42:
 980              		.loc 1 192 0
 981 0544 0246     		mov	r2, r0
 982              	.LVL147:
 983              	.LBB43:
 984              		.loc 1 193 0
 985              	@ 193 "../../../ChibiOS/test/testmbox.c" 1
 986 0546 83F31188 		msr     BASEPRI, r3
 987              	@ 0 "" 2
 988              	.LVL148:
 989              		.thumb
 990              	.LBE43:
 991              		.loc 1 194 0
 992 054a C3EB020C 		rsb	ip, r3, r2
 993              	.LVL149:
 994 054e 2520     		movs	r0, #37
 995              	.LVL150:
 996 0550 DCF10001 		rsbs	r1, ip, #0
 997 0554 41EB0C01 		adc	r1, r1, ip
 998 0558 FFF7FEFF 		bl	_test_assert
 999              	.LVL151:
 1000 055c 0028     		cmp	r0, #0
 1001 055e 7FF4A3AD 		bne	.L1
 1002              		.loc 1 195 0
 1003 0562 E168     		ldr	r1, [r4, #12]
 1004 0564 A268     		ldr	r2, [r4, #8]
 1005 0566 C2EB010E 		rsb	lr, r2, r1
 1006 056a 2630     		adds	r0, r0, #38
 1007 056c DEF10003 		rsbs	r3, lr, #0
 1008 0570 43EB0E01 		adc	r1, r3, lr
 1009 0574 FFF7FEFF 		bl	_test_assert
 1010 0578 0028     		cmp	r0, #0
 1011 057a 7FF495AD 		bne	.L1
 1012 057e 0524     		movs	r4, #5
 1013              	.L13:
 1014              	.LBB44:
 1015              		.loc 1 197 0
 1016 0580 2023     		movs	r3, #32
 1017              	.LVL152:
 1018              	@ 197 "../../../ChibiOS/test/testmbox.c" 1
 1019 0582 83F31188 		msr     BASEPRI, r3
 1020              	@ 0 "" 2
 1021              	.LVL153:
 1022              		.thumb
ARM GAS  C:\Users\DNIEL~1\AppData\Local\Temp\ccXA0XlR.s 			page 19


 1023              	.LBE44:
 1024              		.loc 1 198 0
 1025 0586 234D     		ldr	r5, .L28
 1026 0588 01A9     		add	r1, sp, #4
 1027 058a 2846     		mov	r0, r5
 1028 058c FFF7FEFF 		bl	chMBFetchI
 1029              	.LVL154:
 1030              	.LBB45:
 1031              		.loc 1 199 0
 1032 0590 0023     		movs	r3, #0
 1033              	.LVL155:
 1034              	.LBE45:
 1035              		.loc 1 198 0
 1036 0592 0146     		mov	r1, r0
 1037              	.LVL156:
 1038              	.LBB46:
 1039              		.loc 1 199 0
 1040              	@ 199 "../../../ChibiOS/test/testmbox.c" 1
 1041 0594 83F31188 		msr     BASEPRI, r3
 1042              	@ 0 "" 2
 1043              	.LVL157:
 1044              		.thumb
 1045              	.LBE46:
 1046              		.loc 1 200 0
 1047 0598 CB1A     		subs	r3, r1, r3
 1048              	.LVL158:
 1049 059a 2720     		movs	r0, #39
 1050              	.LVL159:
 1051 059c D3F1000C 		rsbs	ip, r3, #0
 1052 05a0 4CEB0301 		adc	r1, ip, r3
 1053              	.LVL160:
 1054 05a4 FFF7FEFF 		bl	_test_assert
 1055              	.LVL161:
 1056 05a8 0028     		cmp	r0, #0
 1057 05aa 7FF47DAD 		bne	.L1
 1058              		.loc 1 201 0
 1059 05ae 9DF80400 		ldrb	r0, [sp, #4]	@ zero_extendqisi2
 1060 05b2 FFF7FEFF 		bl	test_emit_token
 1061              		.loc 1 196 0
 1062 05b6 013C     		subs	r4, r4, #1
 1063 05b8 E2D1     		bne	.L13
 1064              		.loc 1 203 0
 1065 05ba 2820     		movs	r0, #40
 1066 05bc 1649     		ldr	r1, .L28+4
 1067 05be FFF7FEFF 		bl	_test_assert_sequence
 1068 05c2 0028     		cmp	r0, #0
 1069 05c4 7FF470AD 		bne	.L1
 1070              	.LBB47:
 1071              		.loc 1 204 0
 1072 05c8 2023     		movs	r3, #32
 1073              	.LVL162:
 1074              	@ 204 "../../../ChibiOS/test/testmbox.c" 1
 1075 05ca 83F31188 		msr     BASEPRI, r3
 1076              	@ 0 "" 2
 1077              	.LVL163:
 1078              		.thumb
 1079              	.LBE47:
ARM GAS  C:\Users\DNIEL~1\AppData\Local\Temp\ccXA0XlR.s 			page 20


 1080 05ce 6B6A     		ldr	r3, [r5, #36]
 1081              	.LVL164:
 1082 05d0 A3F10502 		sub	r2, r3, #5
 1083 05d4 2930     		adds	r0, r0, #41
 1084 05d6 D2F1000E 		rsbs	lr, r2, #0
 1085 05da 4EEB0201 		adc	r1, lr, r2
 1086 05de FFF7FEFF 		bl	_test_assert
 1087 05e2 18B1     		cbz	r0, .L14
 1088              	.LBB48:
 1089              		.loc 1 204 0 is_stmt 0 discriminator 1
 1090 05e4 2346     		mov	r3, r4
 1091              	@ 204 "../../../ChibiOS/test/testmbox.c" 1
 1092 05e6 83F31188 		msr     BASEPRI, r3
 1093              	@ 0 "" 2
 1094              	.LVL165:
 1095              		.thumb
 1096              	.LBE48:
 1097 05ea 5DE5     		b	.L1
 1098              	.LVL166:
 1099              	.L14:
 1100              	.LBB49:
 1101              		.loc 1 204 0 discriminator 2
 1102 05ec 2346     		mov	r3, r4
 1103              	.LVL167:
 1104              	@ 204 "../../../ChibiOS/test/testmbox.c" 1
 1105 05ee 83F31188 		msr     BASEPRI, r3
 1106              	@ 0 "" 2
 1107              	.LVL168:
 1108              		.thumb
 1109              	.LBE49:
 1110              	.LBB50:
 1111              		.loc 1 205 0 is_stmt 1 discriminator 2
 1112 05f2 2023     		movs	r3, #32
 1113              	.LVL169:
 1114              	@ 205 "../../../ChibiOS/test/testmbox.c" 1
 1115 05f4 83F31188 		msr     BASEPRI, r3
 1116              	@ 0 "" 2
 1117              	.LVL170:
 1118              		.thumb
 1119              	.LBE50:
 1120 05f8 A969     		ldr	r1, [r5, #24]
 1121 05fa 2A20     		movs	r0, #42
 1122 05fc D1F10101 		rsbs	r1, r1, #1
 1123 0600 38BF     		it	cc
 1124 0602 0021     		movcc	r1, #0
 1125 0604 FFF7FEFF 		bl	_test_assert
 1126              	.LVL171:
 1127 0608 40B1     		cbz	r0, .L15
 1128              	.LBB51:
 1129              		.loc 1 205 0 is_stmt 0 discriminator 1
 1130 060a 2346     		mov	r3, r4
 1131              	@ 205 "../../../ChibiOS/test/testmbox.c" 1
 1132 060c 83F31188 		msr     BASEPRI, r3
 1133              	@ 0 "" 2
 1134              	.LVL172:
 1135              		.thumb
 1136              	.LBE51:
ARM GAS  C:\Users\DNIEL~1\AppData\Local\Temp\ccXA0XlR.s 			page 21


 1137 0610 4AE5     		b	.L1
 1138              	.L29:
 1139 0612 00BF     		.align	2
 1140              	.L28:
 1141 0614 00000000 		.word	.LANCHOR0
 1142 0618 00000000 		.word	.LC0
 1143              	.LVL173:
 1144              	.L15:
 1145              	.LBB52:
 1146              		.loc 1 205 0 discriminator 2
 1147 061c 2346     		mov	r3, r4
 1148              	.LVL174:
 1149              	@ 205 "../../../ChibiOS/test/testmbox.c" 1
 1150 061e 83F31188 		msr     BASEPRI, r3
 1151              	@ 0 "" 2
 1152              	.LVL175:
 1153              		.thumb
 1154              	.LBE52:
 1155              		.loc 1 206 0 is_stmt 1 discriminator 2
 1156 0622 EA68     		ldr	r2, [r5, #12]
 1157 0624 AB68     		ldr	r3, [r5, #8]
 1158              	.LVL176:
 1159 0626 C3EB020C 		rsb	ip, r3, r2
 1160 062a 2B20     		movs	r0, #43
 1161 062c DCF1000E 		rsbs	lr, ip, #0
 1162 0630 4EEB0C01 		adc	r1, lr, ip
 1163 0634 FFF7FEFF 		bl	_test_assert
 1164 0638 0028     		cmp	r0, #0
 1165 063a 7FF435AD 		bne	.L1
 1166              		.loc 1 211 0
 1167 063e 2846     		mov	r0, r5
 1168 0640 FFF7FEFF 		bl	chMBReset
 1169              	.LBB53:
 1170              		.loc 1 216 0
 1171 0644 2023     		movs	r3, #32
 1172              	.LVL177:
 1173              	@ 216 "../../../ChibiOS/test/testmbox.c" 1
 1174 0646 83F31188 		msr     BASEPRI, r3
 1175              	@ 0 "" 2
 1176              	.LVL178:
 1177              		.thumb
 1178              	.LBE53:
 1179 064a 6A6A     		ldr	r2, [r5, #36]
 1180 064c A2F1050E 		sub	lr, r2, #5
 1181 0650 2C20     		movs	r0, #44
 1182 0652 DEF10001 		rsbs	r1, lr, #0
 1183 0656 41EB0E01 		adc	r1, r1, lr
 1184 065a FFF7FEFF 		bl	_test_assert
 1185              	.LVL179:
 1186 065e 18B1     		cbz	r0, .L16
 1187              	.LBB54:
 1188              		.loc 1 216 0 is_stmt 0 discriminator 1
 1189 0660 2346     		mov	r3, r4
 1190              	@ 216 "../../../ChibiOS/test/testmbox.c" 1
 1191 0662 83F31188 		msr     BASEPRI, r3
 1192              	@ 0 "" 2
 1193              	.LVL180:
ARM GAS  C:\Users\DNIEL~1\AppData\Local\Temp\ccXA0XlR.s 			page 22


 1194              		.thumb
 1195              	.LBE54:
 1196 0666 1FE5     		b	.L1
 1197              	.LVL181:
 1198              	.L16:
 1199              	.LBB55:
 1200              		.loc 1 216 0 discriminator 2
 1201 0668 2346     		mov	r3, r4
 1202              	.LVL182:
 1203              	@ 216 "../../../ChibiOS/test/testmbox.c" 1
 1204 066a 83F31188 		msr     BASEPRI, r3
 1205              	@ 0 "" 2
 1206              	.LVL183:
 1207              		.thumb
 1208              	.LBE55:
 1209              	.LBB56:
 1210              		.loc 1 217 0 is_stmt 1 discriminator 2
 1211 066e 2023     		movs	r3, #32
 1212              	.LVL184:
 1213              	@ 217 "../../../ChibiOS/test/testmbox.c" 1
 1214 0670 83F31188 		msr     BASEPRI, r3
 1215              	@ 0 "" 2
 1216              	.LVL185:
 1217              		.thumb
 1218              	.LBE56:
 1219 0674 AB69     		ldr	r3, [r5, #24]
 1220              	.LVL186:
 1221 0676 2D20     		movs	r0, #45
 1222 0678 D3F10101 		rsbs	r1, r3, #1
 1223 067c 38BF     		it	cc
 1224 067e 0021     		movcc	r1, #0
 1225 0680 FFF7FEFF 		bl	_test_assert
 1226 0684 18B1     		cbz	r0, .L17
 1227              	.LBB57:
 1228              		.loc 1 217 0 is_stmt 0 discriminator 1
 1229 0686 2346     		mov	r3, r4
 1230              	@ 217 "../../../ChibiOS/test/testmbox.c" 1
 1231 0688 83F31188 		msr     BASEPRI, r3
 1232              	@ 0 "" 2
 1233              	.LVL187:
 1234              		.thumb
 1235              	.LBE57:
 1236 068c 0CE5     		b	.L1
 1237              	.LVL188:
 1238              	.L17:
 1239              	.LBB58:
 1240              		.loc 1 217 0 discriminator 2
 1241 068e 2346     		mov	r3, r4
 1242              	.LVL189:
 1243              	@ 217 "../../../ChibiOS/test/testmbox.c" 1
 1244 0690 83F31188 		msr     BASEPRI, r3
 1245              	@ 0 "" 2
 1246              	.LVL190:
 1247              		.thumb
 1248              	.LBE58:
 1249              	.LBB59:
 1250              		.loc 1 218 0 is_stmt 1 discriminator 2
ARM GAS  C:\Users\DNIEL~1\AppData\Local\Temp\ccXA0XlR.s 			page 23


 1251 0694 2023     		movs	r3, #32
 1252              	.LVL191:
 1253              	@ 218 "../../../ChibiOS/test/testmbox.c" 1
 1254 0696 83F31188 		msr     BASEPRI, r3
 1255              	@ 0 "" 2
 1256              	.LVL192:
 1257              		.thumb
 1258              	.LBE59:
 1259 069a 2A68     		ldr	r2, [r5, #0]
 1260 069c AB68     		ldr	r3, [r5, #8]
 1261              	.LVL193:
 1262 069e D11A     		subs	r1, r2, r3
 1263 06a0 2E20     		movs	r0, #46
 1264 06a2 D1F1000C 		rsbs	ip, r1, #0
 1265 06a6 4CEB0101 		adc	r1, ip, r1
 1266 06aa FFF7FEFF 		bl	_test_assert
 1267 06ae 18B1     		cbz	r0, .L18
 1268              	.LBB60:
 1269              		.loc 1 218 0 is_stmt 0 discriminator 1
 1270 06b0 2346     		mov	r3, r4
 1271              	@ 218 "../../../ChibiOS/test/testmbox.c" 1
 1272 06b2 83F31188 		msr     BASEPRI, r3
 1273              	@ 0 "" 2
 1274              	.LVL194:
 1275              		.thumb
 1276              	.LBE60:
 1277 06b6 F7E4     		b	.L1
 1278              	.LVL195:
 1279              	.L18:
 1280              	.LBB61:
 1281              		.loc 1 218 0 discriminator 2
 1282 06b8 2346     		mov	r3, r4
 1283              	.LVL196:
 1284              	@ 218 "../../../ChibiOS/test/testmbox.c" 1
 1285 06ba 83F31188 		msr     BASEPRI, r3
 1286              	@ 0 "" 2
 1287              	.LVL197:
 1288              		.thumb
 1289              	.LBE61:
 1290              	.LBB62:
 1291              		.loc 1 219 0 is_stmt 1 discriminator 2
 1292 06be 2023     		movs	r3, #32
 1293              	.LVL198:
 1294              	@ 219 "../../../ChibiOS/test/testmbox.c" 1
 1295 06c0 83F31188 		msr     BASEPRI, r3
 1296              	@ 0 "" 2
 1297              	.LVL199:
 1298              		.thumb
 1299              	.LBE62:
 1300 06c4 2968     		ldr	r1, [r5, #0]
 1301 06c6 EA68     		ldr	r2, [r5, #12]
 1302 06c8 C2EB010C 		rsb	ip, r2, r1
 1303 06cc 2F20     		movs	r0, #47
 1304 06ce DCF1000E 		rsbs	lr, ip, #0
 1305 06d2 4EEB0C01 		adc	r1, lr, ip
 1306 06d6 FFF7FEFF 		bl	_test_assert
 1307              	.LVL200:
ARM GAS  C:\Users\DNIEL~1\AppData\Local\Temp\ccXA0XlR.s 			page 24


 1308              	.LBB63:
 1309 06da 0023     		movs	r3, #0
 1310              	@ 219 "../../../ChibiOS/test/testmbox.c" 1
 1311 06dc 83F31188 		msr     BASEPRI, r3
 1312              	@ 0 "" 2
 1313              	.LVL201:
 1314              		.thumb
 1315 06e0 E2E4     		b	.L1
 1316              	.LBE63:
 1317              		.cfi_endproc
 1318              	.LFE8:
 1319              		.size	mbox1_execute, .-mbox1_execute
 1320 06e2 00BFAFF3 		.section	.text.mbox1_setup,"ax",%progbits
 1320      0080AFF3 
 1320      0080AFF3 
 1320      0080
 1321              		.align	2
 1322              		.p2align 4,,15
 1323              		.thumb
 1324              		.thumb_func
 1325              		.type	mbox1_setup, %function
 1326              	mbox1_setup:
 1327              	.LFB7:
 1328              		.loc 1 71 0
 1329              		.cfi_startproc
 1330              		@ args = 0, pretend = 0, frame = 0
 1331              		@ frame_needed = 0, uses_anonymous_args = 0
 1332              		@ link register save eliminated.
 1333              		.loc 1 73 0
 1334 0000 0248     		ldr	r0, .L31
 1335 0002 0349     		ldr	r1, .L31+4
 1336 0004 0522     		movs	r2, #5
 1337              		.loc 1 74 0
 1338              		.loc 1 73 0
 1339 0006 FFF7FEBF 		b	chMBInit
 1340              	.L32:
 1341 000a 00BF     		.align	2
 1342              	.L31:
 1343 000c 00000000 		.word	.LANCHOR0
 1344 0010 00000000 		.word	test
 1345              		.cfi_endproc
 1346              	.LFE7:
 1347              		.size	mbox1_setup, .-mbox1_setup
 1348              		.global	testmbox1
 1349              		.global	patternmbox
 1350 0014 AFF30080 		.section	.data.mb1,"aw",%progbits
 1350      AFF30080 
 1350      AFF30080 
 1351              		.align	2
 1352              		.set	.LANCHOR0,. + 0
 1353              		.type	mb1, %object
 1354              		.size	mb1, 40
 1355              	mb1:
 1356 0000 00000000 		.word	test
 1357 0004 14000000 		.word	test+20
 1358 0008 00000000 		.word	test
 1359 000c 00000000 		.word	test
ARM GAS  C:\Users\DNIEL~1\AppData\Local\Temp\ccXA0XlR.s 			page 25


 1360 0010 10000000 		.word	mb1+16
 1361 0014 10000000 		.word	mb1+16
 1362 0018 00000000 		.word	0
 1363 001c 1C000000 		.word	mb1+28
 1364 0020 1C000000 		.word	mb1+28
 1365 0024 05000000 		.word	5
 1366              		.section	.rodata.patternmbox,"a",%progbits
 1367              		.align	2
 1368              		.type	patternmbox, %object
 1369              		.size	patternmbox, 8
 1370              	patternmbox:
 1371 0000 00000000 		.word	testmbox1
 1372 0004 00000000 		.word	0
 1373              		.section	.rodata.str1.4,"aMS",%progbits,1
 1374              		.align	2
 1375              	.LC0:
 1376 0000 41424344 		.ascii	"ABCDE\000"
 1376      4500
 1377 0006 0000     		.space	2
 1378              	.LC1:
 1379 0008 4D61696C 		.ascii	"Mailboxes, queuing and timeouts\000"
 1379      626F7865 
 1379      732C2071 
 1379      75657569 
 1379      6E672061 
 1380              		.section	.rodata.testmbox1,"a",%progbits
 1381              		.align	2
 1382              		.type	testmbox1, %object
 1383              		.size	testmbox1, 16
 1384              	testmbox1:
 1385 0000 08000000 		.word	.LC1
 1386 0004 00000000 		.word	mbox1_setup
 1387 0008 00000000 		.word	0
 1388 000c 00000000 		.word	mbox1_execute
 1389              		.text
 1390              	.Letext0: