ARM GAS  C:\Users\DNIEL~1\AppData\Local\Temp\cc05uJ3i.s 			page 1


   1              		.syntax unified
   2              		.cpu cortex-m4
   3              		.fpu softvfp
   4              		.eabi_attribute 20, 1
   5              		.eabi_attribute 21, 1
   6              		.eabi_attribute 23, 3
   7              		.eabi_attribute 24, 1
   8              		.eabi_attribute 25, 1
   9              		.eabi_attribute 26, 1
  10              		.eabi_attribute 30, 2
  11              		.eabi_attribute 18, 4
  12              		.thumb
  13              		.file	"test.c"
  20 0000 F1040000 		.text
  20      0200BC02 
  20      00000201 
  20      FB0E0D00 
  20      01010101 
  21              	.Ltext0:
  22              		.cfi_sections	.debug_frame
  23              		.section	.text.tmr,"ax",%progbits
  24              		.align	2
  25              		.p2align 4,,15
  26              		.thumb
  27              		.thumb_func
  28              		.type	tmr, %function
  29              	tmr:
  30              	.LFB132:
  31              		.file 1 "../../../ChibiOS/test/test.c"
  32              		.loc 1 261 0
  33              		.cfi_startproc
  34              		@ args = 0, pretend = 0, frame = 0
  35              		@ frame_needed = 0, uses_anonymous_args = 0
  36              		@ link register save eliminated.
  37              	.LVL0:
  38              		.loc 1 264 0
  39 0000 014B     		ldr	r3, .L2
  40 0002 0122     		movs	r2, #1
  41 0004 1A70     		strb	r2, [r3, #0]
  42              		.loc 1 265 0
  43 0006 7047     		bx	lr
  44              	.L3:
  45              		.align	2
  46              	.L2:
  47 0008 00000000 		.word	.LANCHOR0
  48              		.cfi_endproc
  49              	.LFE132:
  50              		.size	tmr, .-tmr
  51 000c AFF30080 		.section	.text.print_line,"ax",%progbits
  52              		.align	2
  53              		.p2align 4,,15
ARM GAS  C:\Users\DNIEL~1\AppData\Local\Temp\cc05uJ3i.s 			page 2


  54              		.thumb
  55              		.thumb_func
  56              		.type	print_line, %function
  57              	print_line:
  58              	.LFB135:
  59              		.loc 1 300 0
  60              		.cfi_startproc
  61              		@ args = 0, pretend = 0, frame = 0
  62              		@ frame_needed = 0, uses_anonymous_args = 0
  63              	.LVL1:
  64 0000 38B5     		push	{r3, r4, r5, lr}
  65              	.LCFI0:
  66              		.cfi_def_cfa_offset 16
  67 0002 0B4D     		ldr	r5, .L9
  68              		.cfi_offset 14, -4
  69              		.cfi_offset 5, -8
  70              		.cfi_offset 4, -12
  71              		.cfi_offset 3, -16
  72              		.loc 1 300 0
  73 0004 4C24     		movs	r4, #76
  74              	.LVL2:
  75              	.L5:
  76              		.loc 1 304 0 discriminator 2
  77 0006 2868     		ldr	r0, [r5, #0]
  78 0008 0368     		ldr	r3, [r0, #0]
  79 000a 2D21     		movs	r1, #45
  80 000c 9A68     		ldr	r2, [r3, #8]
  81 000e 9047     		blx	r2
  82 0010 2868     		ldr	r0, [r5, #0]
  83 0012 0168     		ldr	r1, [r0, #0]
  84 0014 013C     		subs	r4, r4, #1
  85 0016 8B68     		ldr	r3, [r1, #8]
  86 0018 2D21     		movs	r1, #45
  87 001a 9847     		blx	r3
  88              		.loc 1 303 0 discriminator 2
  89 001c 013C     		subs	r4, r4, #1
  90 001e F2D1     		bne	.L5
  91              		.loc 1 305 0
  92 0020 0348     		ldr	r0, .L9
  93 0022 0449     		ldr	r1, .L9+4
  94 0024 0068     		ldr	r0, [r0, #0]
  95 0026 0268     		ldr	r2, [r0, #0]
  96 0028 1368     		ldr	r3, [r2, #0]
  97 002a 0222     		movs	r2, #2
  98 002c 9847     		blx	r3
  99              		.loc 1 306 0
 100 002e 38BD     		pop	{r3, r4, r5, pc}
 101              	.L10:
 102              		.align	2
 103              	.L9:
 104 0030 00000000 		.word	.LANCHOR1
 105 0034 00000000 		.word	.LC0
 106              		.cfi_endproc
 107              	.LFE135:
 108              		.size	print_line, .-print_line
 109 0038 AFF30080 		.section	.text.test_printn,"ax",%progbits
 109      AFF30080 
ARM GAS  C:\Users\DNIEL~1\AppData\Local\Temp\cc05uJ3i.s 			page 3


 110              		.align	2
 111              		.p2align 4,,15
 112              		.global	test_printn
 113              		.thumb
 114              		.thumb_func
 115              		.type	test_printn, %function
 116              	test_printn:
 117              	.LFB118:
 118              		.loc 1 91 0
 119              		.cfi_startproc
 120              		@ args = 0, pretend = 0, frame = 16
 121              		@ frame_needed = 0, uses_anonymous_args = 0
 122              	.LVL3:
 123 0000 F0B5     		push	{r4, r5, r6, r7, lr}
 124              	.LCFI1:
 125              		.cfi_def_cfa_offset 20
 126 0002 85B0     		sub	sp, sp, #20
 127              	.LCFI2:
 128              		.cfi_def_cfa_offset 40
 129              		.loc 1 94 0
 130 0004 0028     		cmp	r0, #0
 131 0006 31D0     		beq	.L24
 132              		.cfi_offset 14, -4
 133              		.cfi_offset 7, -8
 134              		.cfi_offset 6, -12
 135              		.cfi_offset 5, -16
 136              		.cfi_offset 4, -20
 137              		.loc 1 99 0
 138 0008 1C49     		ldr	r1, .L25
 139              		.loc 1 97 0
 140 000a 6E46     		mov	r6, sp
 141 000c 6F46     		mov	r7, sp
 142              	.LVL4:
 143              	.L14:
 144              		.loc 1 99 0
 145 000e A1FB0023 		umull	r2, r3, r1, r0
 146 0012 DB08     		lsrs	r3, r3, #3
 147 0014 03EB8302 		add	r2, r3, r3, lsl #2
 148 0018 A0EB420C 		sub	ip, r0, r2, lsl #1
 149 001c 0CF13002 		add	r2, ip, #48
 150              		.loc 1 98 0
 151 0020 1846     		mov	r0, r3
 152              		.loc 1 99 0
 153 0022 07F8012B 		strb	r2, [r7], #1
 154              	.LVL5:
 155              		.loc 1 98 0
 156 0026 002B     		cmp	r3, #0
 157 0028 F1D1     		bne	.L14
 158              		.loc 1 100 0
 159 002a B742     		cmp	r7, r6
 160 002c 1CD9     		bls	.L11
 161 002e 144D     		ldr	r5, .L25+4
 162              		.loc 1 101 0
 163 0030 2868     		ldr	r0, [r5, #0]
 164              	.LVL6:
 165 0032 3C46     		mov	r4, r7
 166 0034 0268     		ldr	r2, [r0, #0]
ARM GAS  C:\Users\DNIEL~1\AppData\Local\Temp\cc05uJ3i.s 			page 4


 167 0036 14F8011D 		ldrb	r1, [r4, #-1]!	@ zero_extendqisi2
 168 003a 9268     		ldr	r2, [r2, #8]
 169 003c F31B     		subs	r3, r6, r7
 170 003e DF43     		mvns	r7, r3
 171 0040 9047     		blx	r2
 172              		.loc 1 100 0
 173 0042 B442     		cmp	r4, r6
 174 0044 07F00107 		and	r7, r7, #1
 175 0048 0ED0     		beq	.L11
 176 004a 2FB9     		cbnz	r7, .L23
 177              	.L15:
 178              		.loc 1 101 0
 179 004c 2868     		ldr	r0, [r5, #0]
 180 004e 14F8011D 		ldrb	r1, [r4, #-1]!	@ zero_extendqisi2
 181 0052 0268     		ldr	r2, [r0, #0]
 182 0054 9368     		ldr	r3, [r2, #8]
 183 0056 9847     		blx	r3
 184              	.L23:
 185 0058 2868     		ldr	r0, [r5, #0]
 186 005a 14F8011D 		ldrb	r1, [r4, #-1]!	@ zero_extendqisi2
 187 005e 0268     		ldr	r2, [r0, #0]
 188 0060 9368     		ldr	r3, [r2, #8]
 189 0062 9847     		blx	r3
 190              		.loc 1 100 0
 191 0064 B442     		cmp	r4, r6
 192 0066 F1D1     		bne	.L15
 193              	.L11:
 194              		.loc 1 103 0
 195 0068 05B0     		add	sp, sp, #20
 196 006a F0BD     		pop	{r4, r5, r6, r7, pc}
 197              	.LVL7:
 198              	.L24:
 199              		.loc 1 95 0
 200 006c 0448     		ldr	r0, .L25+4
 201              	.LVL8:
 202 006e 0068     		ldr	r0, [r0, #0]
 203 0070 0168     		ldr	r1, [r0, #0]
 204 0072 8B68     		ldr	r3, [r1, #8]
 205 0074 3021     		movs	r1, #48
 206 0076 9847     		blx	r3
 207 0078 F6E7     		b	.L11
 208              	.L26:
 209 007a 00BF     		.align	2
 210              	.L25:
 211 007c CDCCCCCC 		.word	-858993459
 212 0080 00000000 		.word	.LANCHOR1
 213              		.cfi_endproc
 214              	.LFE118:
 215              		.size	test_printn, .-test_printn
 216 0084 AFF30080 		.section	.text.test_print,"ax",%progbits
 216      AFF30080 
 216      AFF30080 
 217              		.align	2
 218              		.p2align 4,,15
 219              		.global	test_print
 220              		.thumb
 221              		.thumb_func
ARM GAS  C:\Users\DNIEL~1\AppData\Local\Temp\cc05uJ3i.s 			page 5


 222              		.type	test_print, %function
 223              	test_print:
 224              	.LFB119:
 225              		.loc 1 110 0
 226              		.cfi_startproc
 227              		@ args = 0, pretend = 0, frame = 0
 228              		@ frame_needed = 0, uses_anonymous_args = 0
 229              	.LVL9:
 230 0000 38B5     		push	{r3, r4, r5, lr}
 231              	.LCFI3:
 232              		.cfi_def_cfa_offset 16
 233              		.loc 1 112 0
 234 0002 0178     		ldrb	r1, [r0, #0]	@ zero_extendqisi2
 235 0004 49B1     		cbz	r1, .L27
 236              		.cfi_offset 14, -4
 237              		.cfi_offset 5, -8
 238              		.cfi_offset 4, -12
 239              		.cfi_offset 3, -16
 240 0006 054D     		ldr	r5, .L31
 241 0008 0446     		mov	r4, r0
 242              	.LVL10:
 243              	.L29:
 244              		.loc 1 113 0
 245 000a 2868     		ldr	r0, [r5, #0]
 246 000c 0268     		ldr	r2, [r0, #0]
 247 000e 9368     		ldr	r3, [r2, #8]
 248 0010 9847     		blx	r3
 249              		.loc 1 112 0
 250 0012 14F8011F 		ldrb	r1, [r4, #1]!	@ zero_extendqisi2
 251 0016 0029     		cmp	r1, #0
 252 0018 F7D1     		bne	.L29
 253              	.L27:
 254 001a 38BD     		pop	{r3, r4, r5, pc}
 255              	.L32:
 256              		.align	2
 257              	.L31:
 258 001c 00000000 		.word	.LANCHOR1
 259              		.cfi_endproc
 260              	.LFE119:
 261              		.size	test_print, .-test_print
 262              		.section	.text.test_println,"ax",%progbits
 263              		.align	2
 264              		.p2align 4,,15
 265              		.global	test_println
 266              		.thumb
 267              		.thumb_func
 268              		.type	test_println, %function
 269              	test_println:
 270              	.LFB120:
 271              		.loc 1 121 0
 272              		.cfi_startproc
 273              		@ args = 0, pretend = 0, frame = 0
 274              		@ frame_needed = 0, uses_anonymous_args = 0
 275              	.LVL11:
 276 0000 08B5     		push	{r3, lr}
 277              	.LCFI4:
 278              		.cfi_def_cfa_offset 8
ARM GAS  C:\Users\DNIEL~1\AppData\Local\Temp\cc05uJ3i.s 			page 6


 279              		.loc 1 123 0
 280              		.cfi_offset 14, -4
 281              		.cfi_offset 3, -8
 282 0002 FFF7FEFF 		bl	test_print
 283              	.LVL12:
 284              		.loc 1 124 0
 285 0006 0448     		ldr	r0, .L34
 286 0008 0449     		ldr	r1, .L34+4
 287 000a 0068     		ldr	r0, [r0, #0]
 288 000c 0268     		ldr	r2, [r0, #0]
 289 000e 1368     		ldr	r3, [r2, #0]
 290 0010 0222     		movs	r2, #2
 291 0012 9847     		blx	r3
 292              		.loc 1 125 0
 293 0014 08BD     		pop	{r3, pc}
 294              	.L35:
 295 0016 00BF     		.align	2
 296              	.L34:
 297 0018 00000000 		.word	.LANCHOR1
 298 001c 00000000 		.word	.LC0
 299              		.cfi_endproc
 300              	.LFE120:
 301              		.size	test_println, .-test_println
 302              		.section	.text.test_emit_token,"ax",%progbits
 303              		.align	2
 304              		.p2align 4,,15
 305              		.global	test_emit_token
 306              		.thumb
 307              		.thumb_func
 308              		.type	test_emit_token, %function
 309              	test_emit_token:
 310              	.LFB123:
 311              		.loc 1 147 0
 312              		.cfi_startproc
 313              		@ args = 0, pretend = 0, frame = 0
 314              		@ frame_needed = 0, uses_anonymous_args = 0
 315              		@ link register save eliminated.
 316              	.LVL13:
 317              	.LBB22:
 318              		.loc 1 149 0
 319 0000 2023     		movs	r3, #32
 320              	.LVL14:
 321              	@ 149 "../../../ChibiOS/test/test.c" 1
 322 0002 83F31188 		msr     BASEPRI, r3
 323              	@ 0 "" 2
 324              	.LVL15:
 325              		.thumb
 326              	.LBE22:
 327              		.loc 1 150 0
 328 0006 0449     		ldr	r1, .L37
 329 0008 0A68     		ldr	r2, [r1, #0]
 330 000a 02F8010B 		strb	r0, [r2], #1
 331              	.LBB23:
 332              		.loc 1 151 0
 333 000e 0023     		movs	r3, #0
 334              	.LVL16:
 335              	.LBE23:
ARM GAS  C:\Users\DNIEL~1\AppData\Local\Temp\cc05uJ3i.s 			page 7


 336              		.loc 1 150 0
 337 0010 0A60     		str	r2, [r1, #0]
 338              	.LBB24:
 339              		.loc 1 151 0
 340              	@ 151 "../../../ChibiOS/test/test.c" 1
 341 0012 83F31188 		msr     BASEPRI, r3
 342              	@ 0 "" 2
 343              	.LVL17:
 344              		.thumb
 345              	.LBE24:
 346              		.loc 1 152 0
 347 0016 7047     		bx	lr
 348              	.L38:
 349              		.align	2
 350              	.L37:
 351 0018 00000000 		.word	.LANCHOR2
 352              		.cfi_endproc
 353              	.LFE123:
 354              		.size	test_emit_token, .-test_emit_token
 355 001c AFF30080 		.section	.text._test_fail,"ax",%progbits
 356              		.align	2
 357              		.p2align 4,,15
 358              		.global	_test_fail
 359              		.thumb
 360              		.thumb_func
 361              		.type	_test_fail, %function
 362              	_test_fail:
 363              	.LFB124:
 364              		.loc 1 157 0
 365              		.cfi_startproc
 366              		@ args = 0, pretend = 0, frame = 0
 367              		@ frame_needed = 0, uses_anonymous_args = 0
 368              		@ link register save eliminated.
 369              	.LVL18:
 370              		.loc 1 161 0
 371 0000 0449     		ldr	r1, .L40
 372              		.loc 1 160 0
 373 0002 054A     		ldr	r2, .L40+4
 374              		.loc 1 161 0
 375 0004 0860     		str	r0, [r1, #0]
 376              		.loc 1 159 0
 377 0006 0548     		ldr	r0, .L40+8
 378              	.LVL19:
 379 0008 0123     		movs	r3, #1
 380 000a 0370     		strb	r3, [r0, #0]
 381              		.loc 1 160 0
 382 000c 1370     		strb	r3, [r2, #0]
 383              		.loc 1 163 0
 384 000e 1846     		mov	r0, r3
 385 0010 7047     		bx	lr
 386              	.L41:
 387 0012 00BF     		.align	2
 388              	.L40:
 389 0014 00000000 		.word	.LANCHOR5
 390 0018 00000000 		.word	.LANCHOR4
 391 001c 00000000 		.word	.LANCHOR3
 392              		.cfi_endproc
ARM GAS  C:\Users\DNIEL~1\AppData\Local\Temp\cc05uJ3i.s 			page 8


 393              	.LFE124:
 394              		.size	_test_fail, .-_test_fail
 395              		.section	.text._test_assert,"ax",%progbits
 396              		.align	2
 397              		.p2align 4,,15
 398              		.global	_test_assert
 399              		.thumb
 400              		.thumb_func
 401              		.type	_test_assert, %function
 402              	_test_assert:
 403              	.LFB125:
 404              		.loc 1 165 0
 405              		.cfi_startproc
 406              		@ args = 0, pretend = 0, frame = 0
 407              		@ frame_needed = 0, uses_anonymous_args = 0
 408              		@ link register save eliminated.
 409              	.LVL20:
 410              		.loc 1 167 0
 411 0000 41B9     		cbnz	r1, .L44
 412              	.LVL21:
 413              	.LBB25:
 414              	.LBB26:
 415              		.loc 1 159 0
 416 0002 054A     		ldr	r2, .L45
 417              		.loc 1 160 0
 418 0004 0549     		ldr	r1, .L45+4
 419              	.LVL22:
 420              		.loc 1 159 0
 421 0006 0123     		movs	r3, #1
 422 0008 1370     		strb	r3, [r2, #0]
 423              		.loc 1 161 0
 424 000a 054A     		ldr	r2, .L45+8
 425              		.loc 1 160 0
 426 000c 0B70     		strb	r3, [r1, #0]
 427              		.loc 1 161 0
 428 000e 1060     		str	r0, [r2, #0]
 429              	.LBE26:
 430              	.LBE25:
 431              		.loc 1 168 0
 432 0010 1846     		mov	r0, r3
 433              	.LVL23:
 434 0012 7047     		bx	lr
 435              	.LVL24:
 436              	.L44:
 437              		.loc 1 169 0
 438 0014 0020     		movs	r0, #0
 439              	.LVL25:
 440              		.loc 1 170 0
 441 0016 7047     		bx	lr
 442              	.L46:
 443              		.align	2
 444              	.L45:
 445 0018 00000000 		.word	.LANCHOR3
 446 001c 00000000 		.word	.LANCHOR4
 447 0020 00000000 		.word	.LANCHOR5
 448              		.cfi_endproc
 449              	.LFE125:
ARM GAS  C:\Users\DNIEL~1\AppData\Local\Temp\cc05uJ3i.s 			page 9


 450              		.size	_test_assert, .-_test_assert
 451 0024 AFF30080 		.section	.text._test_assert_sequence,"ax",%progbits
 451      AFF30080 
 451      AFF30080 
 452              		.align	2
 453              		.p2align 4,,15
 454              		.global	_test_assert_sequence
 455              		.thumb
 456              		.thumb_func
 457              		.type	_test_assert_sequence, %function
 458              	_test_assert_sequence:
 459              	.LFB126:
 460              		.loc 1 172 0
 461              		.cfi_startproc
 462              		@ args = 0, pretend = 0, frame = 0
 463              		@ frame_needed = 0, uses_anonymous_args = 0
 464              		@ link register save eliminated.
 465              	.LVL26:
 466 0000 2DE9F001 		push	{r4, r5, r6, r7, r8}
 467              	.LCFI5:
 468              		.cfi_def_cfa_offset 20
 469              		.loc 1 181 0
 470 0004 194C     		ldr	r4, .L63
 471              		.cfi_offset 8, -4
 472              		.cfi_offset 7, -8
 473              		.cfi_offset 6, -12
 474              		.cfi_offset 5, -16
 475              		.cfi_offset 4, -20
 476              		.loc 1 173 0
 477 0006 1A4A     		ldr	r2, .L63+4
 478              		.loc 1 181 0
 479 0008 2368     		ldr	r3, [r4, #0]
 480 000a 9D1A     		subs	r5, r3, r2
 481 000c 15F0010F 		tst	r5, #1
 482              		.loc 1 173 0
 483 0010 1646     		mov	r6, r2
 484 0012 19D0     		beq	.L48
 485              	.LVL27:
 486              		.loc 1 174 0
 487 0014 9342     		cmp	r3, r2
 488 0016 19D9     		bls	.L60
 489              		.loc 1 175 0
 490 0018 1646     		mov	r6, r2
 491 001a 11F8015B 		ldrb	r5, [r1], #1	@ zero_extendqisi2
 492              	.LVL28:
 493 001e 16F8017B 		ldrb	r7, [r6], #1	@ zero_extendqisi2
 494 0022 AF42     		cmp	r7, r5
 495 0024 10D0     		beq	.L48
 496 0026 16E0     		b	.L62
 497              	.LVL29:
 498              	.L50:
 499 0028 3746     		mov	r7, r6
 500 002a 0D46     		mov	r5, r1
 501 002c 17F8018B 		ldrb	r8, [r7], #1	@ zero_extendqisi2
 502 0030 15F801CB 		ldrb	ip, [r5], #1	@ zero_extendqisi2
 503              	.LVL30:
 504 0034 E045     		cmp	r8, ip
ARM GAS  C:\Users\DNIEL~1\AppData\Local\Temp\cc05uJ3i.s 			page 10


 505 0036 0ED1     		bne	.L62
 506 0038 96F80180 		ldrb	r8, [r6, #1]	@ zero_extendqisi2
 507 003c 91F801C0 		ldrb	ip, [r1, #1]	@ zero_extendqisi2
 508 0040 7E1C     		adds	r6, r7, #1
 509 0042 691C     		adds	r1, r5, #1
 510 0044 E045     		cmp	r8, ip
 511 0046 06D1     		bne	.L62
 512              	.L48:
 513              	.LVL31:
 514              		.loc 1 174 0 discriminator 1
 515 0048 B342     		cmp	r3, r6
 516 004a EDD8     		bhi	.L50
 517              	.L60:
 518              		.loc 1 178 0
 519 004c 0B78     		ldrb	r3, [r1, #0]	@ zero_extendqisi2
 520 004e 13B9     		cbnz	r3, .L62
 521              	.LBB27:
 522              	.LBB28:
 523              		.loc 1 132 0
 524 0050 2260     		str	r2, [r4, #0]
 525              	.LBE28:
 526              	.LBE27:
 527              		.loc 1 181 0
 528 0052 1846     		mov	r0, r3
 529              	.LVL32:
 530 0054 07E0     		b	.L49
 531              	.LVL33:
 532              	.L62:
 533              	.LBB29:
 534              	.LBB30:
 535              		.loc 1 159 0
 536 0056 074A     		ldr	r2, .L63+8
 537              		.loc 1 160 0
 538 0058 0749     		ldr	r1, .L63+12
 539              		.loc 1 159 0
 540 005a 0123     		movs	r3, #1
 541 005c 1370     		strb	r3, [r2, #0]
 542              		.loc 1 161 0
 543 005e 074A     		ldr	r2, .L63+16
 544              		.loc 1 160 0
 545 0060 0B70     		strb	r3, [r1, #0]
 546              		.loc 1 161 0
 547 0062 1060     		str	r0, [r2, #0]
 548              	.LBE30:
 549              	.LBE29:
 550              		.loc 1 179 0
 551 0064 1846     		mov	r0, r3
 552              	.LVL34:
 553              	.L49:
 554              		.loc 1 182 0
 555 0066 BDE8F001 		pop	{r4, r5, r6, r7, r8}
 556 006a 7047     		bx	lr
 557              	.L64:
 558              		.align	2
 559              	.L63:
 560 006c 00000000 		.word	.LANCHOR2
 561 0070 00000000 		.word	.LANCHOR6
ARM GAS  C:\Users\DNIEL~1\AppData\Local\Temp\cc05uJ3i.s 			page 11


 562 0074 00000000 		.word	.LANCHOR3
 563 0078 00000000 		.word	.LANCHOR4
 564 007c 00000000 		.word	.LANCHOR5
 565              		.cfi_endproc
 566              	.LFE126:
 567              		.size	_test_assert_sequence, .-_test_assert_sequence
 568              		.section	.text._test_assert_time_window,"ax",%progbits
 569              		.align	2
 570              		.p2align 4,,15
 571              		.global	_test_assert_time_window
 572              		.thumb
 573              		.thumb_func
 574              		.type	_test_assert_time_window, %function
 575              	_test_assert_time_window:
 576              	.LFB127:
 577              		.loc 1 184 0
 578              		.cfi_startproc
 579              		@ args = 0, pretend = 0, frame = 0
 580              		@ frame_needed = 0, uses_anonymous_args = 0
 581              		@ link register save eliminated.
 582              	.LVL35:
 583              		.loc 1 186 0
 584 0000 084B     		ldr	r3, .L68
 585 0002 DB68     		ldr	r3, [r3, #12]
 586 0004 521A     		subs	r2, r2, r1
 587              	.LVL36:
 588 0006 5B1A     		subs	r3, r3, r1
 589              	.LBB31:
 590              	.LBB32:
 591              		.loc 1 167 0
 592 0008 9342     		cmp	r3, r2
 593 000a 08D3     		bcc	.L67
 594              	.LVL37:
 595              	.LBB33:
 596              	.LBB34:
 597              		.loc 1 159 0
 598 000c 064A     		ldr	r2, .L68+4
 599              		.loc 1 160 0
 600 000e 074B     		ldr	r3, .L68+8
 601              		.loc 1 159 0
 602 0010 0121     		movs	r1, #1
 603              	.LVL38:
 604 0012 1170     		strb	r1, [r2, #0]
 605              		.loc 1 161 0
 606 0014 064A     		ldr	r2, .L68+12
 607              		.loc 1 160 0
 608 0016 1970     		strb	r1, [r3, #0]
 609              		.loc 1 161 0
 610 0018 1060     		str	r0, [r2, #0]
 611              		.loc 1 168 0
 612 001a 0846     		mov	r0, r1
 613              	.LVL39:
 614 001c 7047     		bx	lr
 615              	.LVL40:
 616              	.L67:
 617              	.LBE34:
 618              	.LBE33:
ARM GAS  C:\Users\DNIEL~1\AppData\Local\Temp\cc05uJ3i.s 			page 12


 619              		.loc 1 169 0
 620 001e 0020     		movs	r0, #0
 621              	.LVL41:
 622              	.LBE32:
 623              	.LBE31:
 624              		.loc 1 187 0
 625 0020 7047     		bx	lr
 626              	.L69:
 627 0022 00BF     		.align	2
 628              	.L68:
 629 0024 00000000 		.word	vtlist
 630 0028 00000000 		.word	.LANCHOR3
 631 002c 00000000 		.word	.LANCHOR4
 632 0030 00000000 		.word	.LANCHOR5
 633              		.cfi_endproc
 634              	.LFE127:
 635              		.size	_test_assert_time_window, .-_test_assert_time_window
 636 0034 AFF30080 		.section	.text.test_terminate_threads,"ax",%progbits
 636      AFF30080 
 636      AFF30080 
 637              		.align	2
 638              		.p2align 4,,15
 639              		.global	test_terminate_threads
 640              		.thumb
 641              		.thumb_func
 642              		.type	test_terminate_threads, %function
 643              	test_terminate_threads:
 644              	.LFB128:
 645              		.loc 1 196 0
 646              		.cfi_startproc
 647              		@ args = 0, pretend = 0, frame = 0
 648              		@ frame_needed = 0, uses_anonymous_args = 0
 649              	.LVL42:
 650 0000 10B5     		push	{r4, lr}
 651              	.LCFI6:
 652              		.cfi_def_cfa_offset 8
 653              		.loc 1 200 0
 654 0002 0C4C     		ldr	r4, .L76
 655              		.cfi_offset 14, -4
 656              		.cfi_offset 4, -8
 657 0004 2068     		ldr	r0, [r4, #0]
 658 0006 08B1     		cbz	r0, .L71
 659              		.loc 1 201 0
 660 0008 FFF7FEFF 		bl	chThdTerminate
 661              	.L71:
 662              	.LVL43:
 663              		.loc 1 200 0
 664 000c 6068     		ldr	r0, [r4, #4]
 665 000e 08B1     		cbz	r0, .L72
 666              		.loc 1 201 0
 667 0010 FFF7FEFF 		bl	chThdTerminate
 668              	.L72:
 669              	.LVL44:
 670              		.loc 1 200 0
 671 0014 A068     		ldr	r0, [r4, #8]
 672 0016 08B1     		cbz	r0, .L73
 673              		.loc 1 201 0
ARM GAS  C:\Users\DNIEL~1\AppData\Local\Temp\cc05uJ3i.s 			page 13


 674 0018 FFF7FEFF 		bl	chThdTerminate
 675              	.L73:
 676              	.LVL45:
 677              		.loc 1 200 0
 678 001c E068     		ldr	r0, [r4, #12]
 679 001e 08B1     		cbz	r0, .L74
 680              		.loc 1 201 0
 681 0020 FFF7FEFF 		bl	chThdTerminate
 682              	.L74:
 683              	.LVL46:
 684              		.loc 1 200 0
 685 0024 2069     		ldr	r0, [r4, #16]
 686 0026 18B1     		cbz	r0, .L70
 687              		.loc 1 202 0
 688 0028 BDE81040 		pop	{r4, lr}
 689              		.loc 1 201 0
 690 002c FFF7FEBF 		b	chThdTerminate
 691              	.L70:
 692 0030 10BD     		pop	{r4, pc}
 693              	.L77:
 694 0032 00BF     		.align	2
 695              	.L76:
 696 0034 00000000 		.word	.LANCHOR7
 697              		.cfi_endproc
 698              	.LFE128:
 699              		.size	test_terminate_threads, .-test_terminate_threads
 700 0038 AFF30080 		.section	.text.test_wait_threads,"ax",%progbits
 700      AFF30080 
 701              		.align	2
 702              		.p2align 4,,15
 703              		.global	test_wait_threads
 704              		.thumb
 705              		.thumb_func
 706              		.type	test_wait_threads, %function
 707              	test_wait_threads:
 708              	.LFB129:
 709              		.loc 1 207 0
 710              		.cfi_startproc
 711              		@ args = 0, pretend = 0, frame = 0
 712              		@ frame_needed = 0, uses_anonymous_args = 0
 713              	.LVL47:
 714 0000 10B5     		push	{r4, lr}
 715              	.LCFI7:
 716              		.cfi_def_cfa_offset 8
 717              		.loc 1 211 0
 718 0002 124C     		ldr	r4, .L84
 719              		.cfi_offset 14, -4
 720              		.cfi_offset 4, -8
 721 0004 2068     		ldr	r0, [r4, #0]
 722 0006 18B1     		cbz	r0, .L79
 723              		.loc 1 212 0
 724 0008 FFF7FEFF 		bl	chThdWait
 725              		.loc 1 213 0
 726 000c 0023     		movs	r3, #0
 727 000e 2360     		str	r3, [r4, #0]
 728              	.L79:
 729              	.LVL48:
ARM GAS  C:\Users\DNIEL~1\AppData\Local\Temp\cc05uJ3i.s 			page 14


 730              		.loc 1 211 0
 731 0010 6068     		ldr	r0, [r4, #4]
 732 0012 20B1     		cbz	r0, .L80
 733              		.loc 1 212 0
 734 0014 FFF7FEFF 		bl	chThdWait
 735              		.loc 1 213 0
 736 0018 0C48     		ldr	r0, .L84
 737 001a 0022     		movs	r2, #0
 738 001c 4260     		str	r2, [r0, #4]
 739              	.L80:
 740              	.LVL49:
 741              		.loc 1 211 0
 742 001e A068     		ldr	r0, [r4, #8]
 743 0020 20B1     		cbz	r0, .L81
 744              		.loc 1 212 0
 745 0022 FFF7FEFF 		bl	chThdWait
 746              		.loc 1 213 0
 747 0026 094B     		ldr	r3, .L84
 748 0028 0021     		movs	r1, #0
 749 002a 9960     		str	r1, [r3, #8]
 750              	.L81:
 751              	.LVL50:
 752              		.loc 1 211 0
 753 002c E068     		ldr	r0, [r4, #12]
 754 002e 20B1     		cbz	r0, .L82
 755              		.loc 1 212 0
 756 0030 FFF7FEFF 		bl	chThdWait
 757              		.loc 1 213 0
 758 0034 0548     		ldr	r0, .L84
 759 0036 0022     		movs	r2, #0
 760 0038 C260     		str	r2, [r0, #12]
 761              	.L82:
 762              	.LVL51:
 763              		.loc 1 211 0
 764 003a 2069     		ldr	r0, [r4, #16]
 765 003c 20B1     		cbz	r0, .L78
 766              		.loc 1 212 0
 767 003e FFF7FEFF 		bl	chThdWait
 768              		.loc 1 213 0
 769 0042 024B     		ldr	r3, .L84
 770 0044 0021     		movs	r1, #0
 771 0046 1961     		str	r1, [r3, #16]
 772              	.LVL52:
 773              	.L78:
 774 0048 10BD     		pop	{r4, pc}
 775              	.L85:
 776 004a 00BF     		.align	2
 777              	.L84:
 778 004c 00000000 		.word	.LANCHOR7
 779              		.cfi_endproc
 780              	.LFE129:
 781              		.size	test_wait_threads, .-test_wait_threads
 782              		.section	.text.test_cpu_pulse,"ax",%progbits
 783              		.align	2
 784              		.p2align 4,,15
 785              		.global	test_cpu_pulse
 786              		.thumb
ARM GAS  C:\Users\DNIEL~1\AppData\Local\Temp\cc05uJ3i.s 			page 15


 787              		.thumb_func
 788              		.type	test_cpu_pulse, %function
 789              	test_cpu_pulse:
 790              	.LFB130:
 791              		.loc 1 224 0
 792              		.cfi_startproc
 793              		@ args = 0, pretend = 0, frame = 0
 794              		@ frame_needed = 0, uses_anonymous_args = 0
 795              		@ link register save eliminated.
 796              	.LVL53:
 797              		.loc 1 227 0
 798 0000 0F4B     		ldr	r3, .L98
 799 0002 9A69     		ldr	r2, [r3, #24]
 800              		.loc 1 224 0
 801 0004 30B4     		push	{r4, r5}
 802              	.LCFI8:
 803              		.cfi_def_cfa_offset 8
 804              		.loc 1 228 0
 805 0006 4FF47A75 		mov	r5, #1000
 806              		.cfi_offset 5, -4
 807              		.cfi_offset 4, -8
 808 000a 05FB00F4 		mul	r4, r5, r0
 809              		.loc 1 227 0
 810 000e 136A     		ldr	r3, [r2, #32]
 811              	.LVL54:
 812              		.loc 1 228 0
 813 0010 0C4D     		ldr	r5, .L98+4
 814 0012 611E     		subs	r1, r4, #1
 815 0014 A5FB0110 		umull	r1, r0, r5, r1
 816              	.LVL55:
 817 0018 5C1C     		adds	r4, r3, #1
 818 001a 04EB9010 		add	r0, r4, r0, lsr #6
 819              	.LVL56:
 820              	.L96:
 821              		.loc 1 235 0
 822 001e 8342     		cmp	r3, r0
 823              		.loc 1 230 0
 824 0020 116A     		ldr	r1, [r2, #32]
 825              	.LVL57:
 826              		.loc 1 235 0
 827 0022 03D2     		bcs	.L87
 828              		.loc 1 235 0 is_stmt 0 discriminator 1
 829 0024 8B42     		cmp	r3, r1
 830 0026 03D9     		bls	.L97
 831              	.LVL58:
 832              	.L95:
 833              		.loc 1 237 0 is_stmt 1
 834 0028 30BC     		pop	{r4, r5}
 835 002a 7047     		bx	lr
 836              	.LVL59:
 837              	.L87:
 838              		.loc 1 235 0 discriminator 2
 839 002c 8B42     		cmp	r3, r1
 840 002e F6D9     		bls	.L96
 841              	.L97:
 842              		.loc 1 235 0 is_stmt 0
 843 0030 8842     		cmp	r0, r1
ARM GAS  C:\Users\DNIEL~1\AppData\Local\Temp\cc05uJ3i.s 			page 16


 844 0032 94BF     		ite	ls
 845 0034 0021     		movls	r1, #0
 846              	.LVL60:
 847 0036 0121     		movhi	r1, #1
 848              		.loc 1 236 0 is_stmt 1
 849 0038 0029     		cmp	r1, #0
 850 003a F0D1     		bne	.L96
 851 003c F4E7     		b	.L95
 852              	.L99:
 853 003e 00BF     		.align	2
 854              	.L98:
 855 0040 00000000 		.word	rlist
 856 0044 D34D6210 		.word	274877907
 857              		.cfi_endproc
 858              	.LFE130:
 859              		.size	test_cpu_pulse, .-test_cpu_pulse
 860 0048 AFF30080 		.section	.text.test_wait_tick,"ax",%progbits
 860      AFF30080 
 861              		.align	2
 862              		.p2align 4,,15
 863              		.global	test_wait_tick
 864              		.thumb
 865              		.thumb_func
 866              		.type	test_wait_tick, %function
 867              	test_wait_tick:
 868              	.LFB131:
 869              		.loc 1 245 0
 870              		.cfi_startproc
 871              		@ args = 0, pretend = 0, frame = 0
 872              		@ frame_needed = 0, uses_anonymous_args = 0
 873 0000 08B5     		push	{r3, lr}
 874              	.LCFI9:
 875              		.cfi_def_cfa_offset 8
 876              		.loc 1 247 0
 877 0002 0120     		movs	r0, #1
 878              		.cfi_offset 14, -4
 879              		.cfi_offset 3, -8
 880 0004 FFF7FEFF 		bl	chThdSleep
 881              		.loc 1 248 0
 882 0008 014B     		ldr	r3, .L101
 883 000a D868     		ldr	r0, [r3, #12]
 884              		.loc 1 249 0
 885 000c 08BD     		pop	{r3, pc}
 886              	.L102:
 887 000e 00BF     		.align	2
 888              	.L101:
 889 0010 00000000 		.word	vtlist
 890              		.cfi_endproc
 891              	.LFE131:
 892              		.size	test_wait_tick, .-test_wait_tick
 893 0014 AFF30080 		.section	.text.test_start_timer,"ax",%progbits
 893      AFF30080 
 893      AFF30080 
 894              		.align	2
 895              		.p2align 4,,15
 896              		.global	test_start_timer
 897              		.thumb
ARM GAS  C:\Users\DNIEL~1\AppData\Local\Temp\cc05uJ3i.s 			page 17


 898              		.thumb_func
 899              		.type	test_start_timer, %function
 900              	test_start_timer:
 901              	.LFB133:
 902              		.loc 1 272 0
 903              		.cfi_startproc
 904              		@ args = 0, pretend = 0, frame = 0
 905              		@ frame_needed = 0, uses_anonymous_args = 0
 906              	.LVL61:
 907 0000 38B5     		push	{r3, r4, r5, lr}
 908              	.LCFI10:
 909              		.cfi_def_cfa_offset 16
 910              		.loc 1 275 0
 911 0002 0C4D     		ldr	r5, .L104
 912              		.cfi_offset 14, -4
 913              		.cfi_offset 5, -8
 914              		.cfi_offset 4, -12
 915              		.cfi_offset 3, -16
 916 0004 0024     		movs	r4, #0
 917 0006 2C70     		strb	r4, [r5, #0]
 918              	.LVL62:
 919              	.LBB35:
 920              		.loc 1 276 0
 921 0008 2023     		movs	r3, #32
 922              	.LVL63:
 923              	@ 276 "../../../ChibiOS/test/test.c" 1
 924 000a 83F31188 		msr     BASEPRI, r3
 925              	@ 0 "" 2
 926              	.LVL64:
 927              		.thumb
 928              	.LBE35:
 929              		.loc 1 274 0
 930 000e 4FF47A72 		mov	r2, #1000
 931 0012 02FB00F3 		mul	r3, r2, r0
 932              	.LVL65:
 933 0016 0849     		ldr	r1, .L104+4
 934              		.loc 1 276 0
 935 0018 0848     		ldr	r0, .L104+8
 936              	.LVL66:
 937 001a 094A     		ldr	r2, .L104+12
 938              		.loc 1 274 0
 939 001c 5D1E     		subs	r5, r3, #1
 940 001e A1FB0553 		umull	r5, r3, r1, r5
 941 0022 9909     		lsrs	r1, r3, #6
 942              		.loc 1 276 0
 943 0024 0131     		adds	r1, r1, #1
 944 0026 2346     		mov	r3, r4
 945 0028 FFF7FEFF 		bl	chVTSetI
 946              	.LBB36:
 947 002c 2346     		mov	r3, r4
 948              	.LVL67:
 949              	@ 276 "../../../ChibiOS/test/test.c" 1
 950 002e 83F31188 		msr     BASEPRI, r3
 951              	@ 0 "" 2
 952              	.LVL68:
 953              		.thumb
 954              	.LBE36:
ARM GAS  C:\Users\DNIEL~1\AppData\Local\Temp\cc05uJ3i.s 			page 18


 955              		.loc 1 277 0
 956 0032 38BD     		pop	{r3, r4, r5, pc}
 957              	.L105:
 958              		.align	2
 959              	.L104:
 960 0034 00000000 		.word	.LANCHOR0
 961 0038 D34D6210 		.word	274877907
 962 003c 00000000 		.word	.LANCHOR8
 963 0040 00000000 		.word	tmr
 964              		.cfi_endproc
 965              	.LFE133:
 966              		.size	test_start_timer, .-test_start_timer
 967 0044 AFF30080 		.section	.text.TestThread,"ax",%progbits
 967      AFF30080 
 967      AFF30080 
 968              		.align	2
 969              		.p2align 4,,15
 970              		.global	TestThread
 971              		.thumb
 972              		.thumb_func
 973              		.type	TestThread, %function
 974              	TestThread:
 975              	.LFB136:
 976              		.loc 1 314 0
 977              		.cfi_startproc
 978              		@ args = 0, pretend = 0, frame = 8
 979              		@ frame_needed = 0, uses_anonymous_args = 0
 980              	.LVL69:
 981 0000 2DE9F04F 		push	{r4, r5, r6, r7, r8, r9, sl, fp, lr}
 982              	.LCFI11:
 983              		.cfi_def_cfa_offset 36
 984              		.loc 1 317 0
 985 0004 6A4F     		ldr	r7, .L123
 986              		.cfi_offset 14, -4
 987              		.cfi_offset 11, -8
 988              		.cfi_offset 10, -12
 989              		.cfi_offset 9, -16
 990              		.cfi_offset 8, -20
 991              		.cfi_offset 7, -24
 992              		.cfi_offset 6, -28
 993              		.cfi_offset 5, -32
 994              		.cfi_offset 4, -36
 995              		.loc 1 349 0
 996 0006 6B4C     		ldr	r4, .L123+4
 997              		.loc 1 317 0
 998 0008 3860     		str	r0, [r7, #0]
 999              		.loc 1 314 0
 1000 000a 83B0     		sub	sp, sp, #12
 1001              	.LCFI12:
 1002              		.cfi_def_cfa_offset 48
 1003              		.loc 1 318 0
 1004 000c 6A48     		ldr	r0, .L123+8
 1005              	.LVL70:
 1006              		.loc 1 349 0
 1007 000e DFF830B2 		ldr	fp, .L123+144
 1008              	.LBB37:
 1009              	.LBB38:
ARM GAS  C:\Users\DNIEL~1\AppData\Local\Temp\cc05uJ3i.s 			page 19


 1010              	.LBB39:
 1011              	.LBB40:
 1012              		.loc 1 132 0
 1013 0012 6A4D     		ldr	r5, .L123+12
 1014 0014 DFF810A2 		ldr	sl, .L123+120
 1015              	.LBE40:
 1016              	.LBE39:
 1017              		.loc 1 287 0
 1018 0018 DFF82892 		ldr	r9, .L123+148
 1019              		.loc 1 289 0
 1020 001c DFF82882 		ldr	r8, .L123+152
 1021              	.LBE38:
 1022              	.LBE37:
 1023              		.loc 1 318 0
 1024 0020 FFF7FEFF 		bl	test_println
 1025              	.LVL71:
 1026              		.loc 1 319 0
 1027 0024 6648     		ldr	r0, .L123+16
 1028 0026 FFF7FEFF 		bl	test_println
 1029              		.loc 1 320 0
 1030 002a 6648     		ldr	r0, .L123+20
 1031 002c FFF7FEFF 		bl	test_println
 1032              		.loc 1 321 0
 1033 0030 6548     		ldr	r0, .L123+24
 1034 0032 FFF7FEFF 		bl	test_print
 1035              		.loc 1 322 0
 1036 0036 6548     		ldr	r0, .L123+28
 1037 0038 FFF7FEFF 		bl	test_println
 1038              		.loc 1 323 0
 1039 003c 6448     		ldr	r0, .L123+32
 1040 003e FFF7FEFF 		bl	test_print
 1041              		.loc 1 324 0
 1042 0042 6448     		ldr	r0, .L123+36
 1043 0044 FFF7FEFF 		bl	test_println
 1044              		.loc 1 326 0
 1045 0048 6348     		ldr	r0, .L123+40
 1046 004a FFF7FEFF 		bl	test_print
 1047              		.loc 1 327 0
 1048 004e 6348     		ldr	r0, .L123+44
 1049 0050 FFF7FEFF 		bl	test_println
 1050              		.loc 1 329 0
 1051 0054 6248     		ldr	r0, .L123+48
 1052 0056 FFF7FEFF 		bl	test_print
 1053              		.loc 1 330 0
 1054 005a 6248     		ldr	r0, .L123+52
 1055 005c FFF7FEFF 		bl	test_println
 1056              		.loc 1 332 0
 1057 0060 6148     		ldr	r0, .L123+56
 1058 0062 FFF7FEFF 		bl	test_print
 1059              		.loc 1 333 0
 1060 0066 6148     		ldr	r0, .L123+60
 1061 0068 FFF7FEFF 		bl	test_println
 1062              		.loc 1 336 0
 1063 006c 6048     		ldr	r0, .L123+64
 1064 006e FFF7FEFF 		bl	test_print
 1065              		.loc 1 337 0
 1066 0072 6048     		ldr	r0, .L123+68
ARM GAS  C:\Users\DNIEL~1\AppData\Local\Temp\cc05uJ3i.s 			page 20


 1067 0074 FFF7FEFF 		bl	test_println
 1068              		.loc 1 340 0
 1069 0078 5F48     		ldr	r0, .L123+72
 1070 007a FFF7FEFF 		bl	test_print
 1071              		.loc 1 341 0
 1072 007e 5F48     		ldr	r0, .L123+76
 1073 0080 FFF7FEFF 		bl	test_println
 1074              		.loc 1 344 0
 1075 0084 5E48     		ldr	r0, .L123+80
 1076 0086 FFF7FEFF 		bl	test_print
 1077              		.loc 1 345 0
 1078 008a 5E48     		ldr	r0, .L123+84
 1079 008c FFF7FEFF 		bl	test_println
 1080              		.loc 1 347 0
 1081 0090 4948     		ldr	r0, .L123+8
 1082 0092 FFF7FEFF 		bl	test_println
 1083              		.loc 1 349 0
 1084 0096 5C4A     		ldr	r2, .L123+88
 1085 0098 0023     		movs	r3, #0
 1086 009a 1370     		strb	r3, [r2, #0]
 1087              	.LVL72:
 1088              		.loc 1 350 0
 1089 009c 0193     		str	r3, [sp, #4]
 1090              	.LVL73:
 1091              	.L107:
 1092              		.loc 1 351 0 discriminator 1
 1093 009e 0199     		ldr	r1, [sp, #4]
 1094 00a0 4E1C     		adds	r6, r1, #1
 1095 00a2 0196     		str	r6, [sp, #4]
 1096              		.loc 1 314 0 discriminator 1
 1097 00a4 0026     		movs	r6, #0
 1098              	.LVL74:
 1099              		.loc 1 353 0 discriminator 1
 1100 00a6 B300     		lsls	r3, r6, #2
 1101 00a8 54F82600 		ldr	r0, [r4, r6, lsl #2]
 1102 00ac 0028     		cmp	r0, #0
 1103 00ae 5DD0     		beq	.L120
 1104              	.LVL75:
 1105              	.L114:
 1106              		.loc 1 354 0
 1107 00b0 0093     		str	r3, [sp, #0]
 1108 00b2 FFF7FEFF 		bl	print_line
 1109              		.loc 1 355 0
 1110 00b6 5548     		ldr	r0, .L123+92
 1111 00b8 FFF7FEFF 		bl	test_print
 1112              		.loc 1 356 0
 1113 00bc 0198     		ldr	r0, [sp, #4]
 1114 00be FFF7FEFF 		bl	test_printn
 1115              		.loc 1 358 0
 1116 00c2 0136     		adds	r6, r6, #1
 1117              	.LVL76:
 1118              		.loc 1 357 0
 1119 00c4 5248     		ldr	r0, .L123+96
 1120 00c6 FFF7FEFF 		bl	test_print
 1121              		.loc 1 358 0
 1122 00ca 3046     		mov	r0, r6
 1123 00cc FFF7FEFF 		bl	test_printn
ARM GAS  C:\Users\DNIEL~1\AppData\Local\Temp\cc05uJ3i.s 			page 21


 1124              		.loc 1 359 0
 1125 00d0 5048     		ldr	r0, .L123+100
 1126 00d2 FFF7FEFF 		bl	test_print
 1127              		.loc 1 360 0
 1128 00d6 009A     		ldr	r2, [sp, #0]
 1129 00d8 A358     		ldr	r3, [r4, r2]
 1130 00da 1868     		ldr	r0, [r3, #0]
 1131 00dc FFF7FEFF 		bl	test_print
 1132              		.loc 1 361 0
 1133 00e0 4D48     		ldr	r0, .L123+104
 1134 00e2 FFF7FEFF 		bl	test_println
 1135              		.loc 1 363 0
 1136 00e6 C820     		movs	r0, #200
 1137 00e8 FFF7FEFF 		bl	chThdSleep
 1138              		.loc 1 365 0
 1139 00ec 0099     		ldr	r1, [sp, #0]
 1140 00ee 6458     		ldr	r4, [r4, r1]
 1141              	.LVL77:
 1142              	.LBB44:
 1143              	.LBB43:
 1144              	.LBB42:
 1145              	.LBB41:
 1146              		.loc 1 132 0
 1147 00f0 C5F800A0 		str	sl, [r5, #0]
 1148              	.LBE41:
 1149              	.LBE42:
 1150              		.loc 1 291 0
 1151 00f4 6368     		ldr	r3, [r4, #4]
 1152              		.loc 1 287 0
 1153 00f6 0020     		movs	r0, #0
 1154 00f8 89F80000 		strb	r0, [r9, #0]
 1155              	.LVL78:
 1156              		.loc 1 289 0
 1157 00fc C8F80000 		str	r0, [r8, #0]
 1158              	.LVL79:
 1159 0100 C8F80400 		str	r0, [r8, #4]
 1160              	.LVL80:
 1161 0104 C8F80800 		str	r0, [r8, #8]
 1162              	.LVL81:
 1163 0108 C8F80C00 		str	r0, [r8, #12]
 1164              	.LVL82:
 1165 010c C8F81000 		str	r0, [r8, #16]
 1166              	.LVL83:
 1167              		.loc 1 291 0
 1168 0110 03B1     		cbz	r3, .L108
 1169              		.loc 1 292 0
 1170 0112 9847     		blx	r3
 1171              	.L108:
 1172              		.loc 1 293 0
 1173 0114 E068     		ldr	r0, [r4, #12]
 1174 0116 8047     		blx	r0
 1175              		.loc 1 294 0
 1176 0118 A368     		ldr	r3, [r4, #8]
 1177 011a 03B1     		cbz	r3, .L109
 1178              		.loc 1 295 0
 1179 011c 9847     		blx	r3
 1180              	.L109:
ARM GAS  C:\Users\DNIEL~1\AppData\Local\Temp\cc05uJ3i.s 			page 22


 1181              		.loc 1 297 0
 1182 011e FFF7FEFF 		bl	test_wait_threads
 1183              	.LBE43:
 1184              	.LBE44:
 1185              		.loc 1 366 0
 1186 0122 99F80040 		ldrb	r4, [r9, #0]	@ zero_extendqisi2
 1187              	.LVL84:
 1188 0126 002C     		cmp	r4, #0
 1189 0128 37D0     		beq	.L110
 1190              		.loc 1 367 0
 1191 012a 3C48     		ldr	r0, .L123+108
 1192 012c FFF7FEFF 		bl	test_print
 1193              		.loc 1 368 0
 1194 0130 3B4B     		ldr	r3, .L123+112
 1195 0132 1868     		ldr	r0, [r3, #0]
 1196 0134 FFF7FEFF 		bl	test_printn
 1197              		.loc 1 369 0
 1198 0138 3A48     		ldr	r0, .L123+116
 1199 013a FFF7FEFF 		bl	test_print
 1200              	.LVL85:
 1201              	.LBB45:
 1202              	.LBB46:
 1203              		.loc 1 138 0
 1204 013e 2968     		ldr	r1, [r5, #0]
 1205 0140 5145     		cmp	r1, sl
 1206 0142 09D9     		bls	.L111
 1207 0144 384C     		ldr	r4, .L123+120
 1208              	.LVL86:
 1209              	.L112:
 1210              		.loc 1 139 0
 1211 0146 3868     		ldr	r0, [r7, #0]
 1212 0148 14F8011B 		ldrb	r1, [r4], #1	@ zero_extendqisi2
 1213              	.LVL87:
 1214 014c 0268     		ldr	r2, [r0, #0]
 1215 014e 9368     		ldr	r3, [r2, #8]
 1216 0150 9847     		blx	r3
 1217              	.LVL88:
 1218              		.loc 1 138 0
 1219 0152 2A68     		ldr	r2, [r5, #0]
 1220 0154 A242     		cmp	r2, r4
 1221 0156 F6D8     		bhi	.L112
 1222              	.LVL89:
 1223              	.L111:
 1224              	.LBE46:
 1225              	.LBE45:
 1226              		.loc 1 371 0
 1227 0158 3448     		ldr	r0, .L123+124
 1228 015a FFF7FEFF 		bl	test_println
 1229              	.LVL90:
 1230              		.loc 1 374 0
 1231 015e 5BF8044C 		ldr	r4, [fp, #-4]
 1232              	.L122:
 1233              		.loc 1 353 0
 1234 0162 54F82600 		ldr	r0, [r4, r6, lsl #2]
 1235 0166 B300     		lsls	r3, r6, #2
 1236 0168 0028     		cmp	r0, #0
 1237 016a A1D1     		bne	.L114
ARM GAS  C:\Users\DNIEL~1\AppData\Local\Temp\cc05uJ3i.s 			page 23


 1238              	.LVL91:
 1239              	.L120:
 1240              		.loc 1 351 0
 1241 016c 5BF8044B 		ldr	r4, [fp], #4
 1242 0170 002C     		cmp	r4, #0
 1243 0172 94D1     		bne	.L107
 1244              		.loc 1 379 0
 1245 0174 FFF7FEFF 		bl	print_line
 1246              		.loc 1 380 0
 1247 0178 0F48     		ldr	r0, .L123+8
 1248 017a FFF7FEFF 		bl	test_println
 1249              		.loc 1 381 0
 1250 017e 2C48     		ldr	r0, .L123+128
 1251 0180 FFF7FEFF 		bl	test_print
 1252              		.loc 1 382 0
 1253 0184 204A     		ldr	r2, .L123+88
 1254 0186 1378     		ldrb	r3, [r2, #0]	@ zero_extendqisi2
 1255 0188 6BB9     		cbnz	r3, .L121
 1256              		.loc 1 385 0
 1257 018a 2A48     		ldr	r0, .L123+132
 1258 018c FFF7FEFF 		bl	test_println
 1259              	.L118:
 1260              		.loc 1 388 0
 1261 0190 1D48     		ldr	r0, .L123+88
 1262 0192 0078     		ldrb	r0, [r0, #0]	@ zero_extendqisi2
 1263 0194 03B0     		add	sp, sp, #12
 1264 0196 BDE8F08F 		pop	{r4, r5, r6, r7, r8, r9, sl, fp, pc}
 1265              	.LVL92:
 1266              	.L110:
 1267              		.loc 1 374 0
 1268 019a 2748     		ldr	r0, .L123+136
 1269 019c FFF7FEFF 		bl	test_println
 1270              	.LVL93:
 1271 01a0 5BF8044C 		ldr	r4, [fp, #-4]
 1272 01a4 DDE7     		b	.L122
 1273              	.LVL94:
 1274              	.L121:
 1275              		.loc 1 383 0
 1276 01a6 2548     		ldr	r0, .L123+140
 1277 01a8 FFF7FEFF 		bl	test_println
 1278 01ac F0E7     		b	.L118
 1279              	.L124:
 1280 01ae 00BF     		.align	2
 1281              	.L123:
 1282 01b0 00000000 		.word	.LANCHOR1
 1283 01b4 00000000 		.word	patternthd
 1284 01b8 04000000 		.word	.LC1
 1285 01bc 00000000 		.word	.LANCHOR2
 1286 01c0 08000000 		.word	.LC2
 1287 01c4 24000000 		.word	.LC3
 1288 01c8 28000000 		.word	.LC4
 1289 01cc 3C000000 		.word	.LC5
 1290 01d0 44000000 		.word	.LC6
 1291 01d4 58000000 		.word	.LC7
 1292 01d8 70000000 		.word	.LC8
 1293 01dc 84000000 		.word	.LC9
 1294 01e0 90000000 		.word	.LC10
ARM GAS  C:\Users\DNIEL~1\AppData\Local\Temp\cc05uJ3i.s 			page 24


 1295 01e4 A4000000 		.word	.LC11
 1296 01e8 B0000000 		.word	.LC12
 1297 01ec C4000000 		.word	.LC13
 1298 01f0 D0000000 		.word	.LC14
 1299 01f4 E4000000 		.word	.LC15
 1300 01f8 FC000000 		.word	.LC16
 1301 01fc 10010000 		.word	.LC17
 1302 0200 44010000 		.word	.LC18
 1303 0204 58010000 		.word	.LC19
 1304 0208 00000000 		.word	.LANCHOR4
 1305 020c 60010000 		.word	.LC20
 1306 0210 70010000 		.word	.LC21
 1307 0214 74010000 		.word	.LC22
 1308 0218 78010000 		.word	.LC23
 1309 021c 7C010000 		.word	.LC24
 1310 0220 00000000 		.word	.LANCHOR5
 1311 0224 94010000 		.word	.LC25
 1312 0228 00000000 		.word	.LANCHOR6
 1313 022c 98010000 		.word	.LC26
 1314 0230 B0010000 		.word	.LC28
 1315 0234 C8010000 		.word	.LC30
 1316 0238 9C010000 		.word	.LC27
 1317 023c C0010000 		.word	.LC29
 1318 0240 04000000 		.word	.LANCHOR9+4
 1319 0244 00000000 		.word	.LANCHOR3
 1320 0248 00000000 		.word	.LANCHOR7
 1321              		.cfi_endproc
 1322              	.LFE136:
 1323              		.size	TestThread, .-TestThread
 1324              		.global	wa
 1325              		.global	threads
 1326              		.global	test
 1327              		.global	test_timer_done
 1328 024c AFF30080 		.section	.bss.test,"aw",%nobits
 1329              		.align	3
 1330              		.type	test, %object
 1331              		.size	test, 1680
 1332              	test:
 1333 0000 00000000 		.space	1680
 1333      00000000 
 1333      00000000 
 1333      00000000 
 1333      00000000 
 1334              		.section	.bss.failpoint,"aw",%nobits
 1335              		.align	2
 1336              		.set	.LANCHOR5,. + 0
 1337              		.type	failpoint, %object
 1338              		.size	failpoint, 4
 1339              	failpoint:
 1340 0000 00000000 		.space	4
 1341              		.section	.bss.local_fail,"aw",%nobits
 1342              		.set	.LANCHOR3,. + 0
 1343              		.type	local_fail, %object
 1344              		.size	local_fail, 1
 1345              	local_fail:
 1346 0000 00       		.space	1
 1347              		.section	.bss.test_timer_done,"aw",%nobits
ARM GAS  C:\Users\DNIEL~1\AppData\Local\Temp\cc05uJ3i.s 			page 25


 1348              		.set	.LANCHOR0,. + 0
 1349              		.type	test_timer_done, %object
 1350              		.size	test_timer_done, 1
 1351              	test_timer_done:
 1352 0000 00       		.space	1
 1353              		.section	.rodata.wa,"a",%progbits
 1354              		.align	2
 1355              		.type	wa, %object
 1356              		.size	wa, 20
 1357              	wa:
 1358 0000 00000000 		.word	test
 1359 0004 50010000 		.word	test+336
 1360 0008 A0020000 		.word	test+672
 1361 000c F0030000 		.word	test+1008
 1362 0010 40050000 		.word	test+1344
 1363              		.section	.bss.tokp,"aw",%nobits
 1364              		.align	2
 1365              		.set	.LANCHOR2,. + 0
 1366              		.type	tokp, %object
 1367              		.size	tokp, 4
 1368              	tokp:
 1369 0000 00000000 		.space	4
 1370              		.section	.bss.global_fail,"aw",%nobits
 1371              		.set	.LANCHOR4,. + 0
 1372              		.type	global_fail, %object
 1373              		.size	global_fail, 1
 1374              	global_fail:
 1375 0000 00       		.space	1
 1376              		.section	.rodata.str1.4,"aMS",%progbits,1
 1377              		.align	2
 1378              	.LC0:
 1379 0000 0D0A00   		.ascii	"\015\012\000"
 1380 0003 00       		.space	1
 1381              	.LC1:
 1382 0004 00       		.ascii	"\000"
 1383 0005 000000   		.space	3
 1384              	.LC2:
 1385 0008 2A2A2A20 		.ascii	"*** ChibiOS/RT test suite\000"
 1385      43686962 
 1385      694F532F 
 1385      52542074 
 1385      65737420 
 1386 0022 0000     		.space	2
 1387              	.LC3:
 1388 0024 2A2A2A00 		.ascii	"***\000"
 1389              	.LC4:
 1390 0028 2A2A2A20 		.ascii	"*** Kernel:       \000"
 1390      4B65726E 
 1390      656C3A20 
 1390      20202020 
 1390      202000
 1391 003b 00       		.space	1
 1392              	.LC5:
 1393 003c 322E362E 		.ascii	"2.6.7\000"
 1393      3700
 1394 0042 0000     		.space	2
 1395              	.LC6:
ARM GAS  C:\Users\DNIEL~1\AppData\Local\Temp\cc05uJ3i.s 			page 26


 1396 0044 2A2A2A20 		.ascii	"*** Compiled:     \000"
 1396      436F6D70 
 1396      696C6564 
 1396      3A202020 
 1396      202000
 1397 0057 00       		.space	1
 1398              	.LC7:
 1399 0058 53657020 		.ascii	"Sep  2 2015 - 14:16:07\000"
 1399      20322032 
 1399      30313520 
 1399      2D203134 
 1399      3A31363A 
 1400 006f 00       		.space	1
 1401              	.LC8:
 1402 0070 2A2A2A20 		.ascii	"*** Compiler:     \000"
 1402      436F6D70 
 1402      696C6572 
 1402      3A202020 
 1402      202000
 1403 0083 00       		.space	1
 1404              	.LC9:
 1405 0084 47434320 		.ascii	"GCC 4.5.2\000"
 1405      342E352E 
 1405      3200
 1406 008e 0000     		.space	2
 1407              	.LC10:
 1408 0090 2A2A2A20 		.ascii	"*** Architecture: \000"
 1408      41726368 
 1408      69746563 
 1408      74757265 
 1408      3A2000
 1409 00a3 00       		.space	1
 1410              	.LC11:
 1411 00a4 41524D76 		.ascii	"ARMv7-ME\000"
 1411      372D4D45 
 1411      00
 1412 00ad 000000   		.space	3
 1413              	.LC12:
 1414 00b0 2A2A2A20 		.ascii	"*** Core Variant: \000"
 1414      436F7265 
 1414      20566172 
 1414      69616E74 
 1414      3A2000
 1415 00c3 00       		.space	1
 1416              	.LC13:
 1417 00c4 436F7274 		.ascii	"Cortex-M4\000"
 1417      65782D4D 
 1417      3400
 1418 00ce 0000     		.space	2
 1419              	.LC14:
 1420 00d0 2A2A2A20 		.ascii	"*** Port Info:    \000"
 1420      506F7274 
 1420      20496E66 
 1420      6F3A2020 
 1420      202000
 1421 00e3 00       		.space	1
 1422              	.LC15:
ARM GAS  C:\Users\DNIEL~1\AppData\Local\Temp\cc05uJ3i.s 			page 27


 1423 00e4 41647661 		.ascii	"Advanced kernel mode\000"
 1423      6E636564 
 1423      206B6572 
 1423      6E656C20 
 1423      6D6F6465 
 1424 00f9 000000   		.space	3
 1425              	.LC16:
 1426 00fc 2A2A2A20 		.ascii	"*** Platform:     \000"
 1426      506C6174 
 1426      666F726D 
 1426      3A202020 
 1426      202000
 1427 010f 00       		.space	1
 1428              	.LC17:
 1429 0110 53544D33 		.ascii	"STM32F407/F417 High Performance with DSP and FPU\000"
 1429      32463430 
 1429      372F4634 
 1429      31372048 
 1429      69676820 
 1430 0141 000000   		.space	3
 1431              	.LC18:
 1432 0144 2A2A2A20 		.ascii	"*** Test Board:   \000"
 1432      54657374 
 1432      20426F61 
 1432      72643A20 
 1432      202000
 1433 0157 00       		.space	1
 1434              	.LC19:
 1435 0158 536D6172 		.ascii	"Smarty\000"
 1435      747900
 1436 015f 00       		.space	1
 1437              	.LC20:
 1438 0160 2D2D2D20 		.ascii	"--- Test Case \000"
 1438      54657374 
 1438      20436173 
 1438      652000
 1439 016f 00       		.space	1
 1440              	.LC21:
 1441 0170 2E00     		.ascii	".\000"
 1442 0172 0000     		.space	2
 1443              	.LC22:
 1444 0174 202800   		.ascii	" (\000"
 1445 0177 00       		.space	1
 1446              	.LC23:
 1447 0178 2900     		.ascii	")\000"
 1448 017a 0000     		.space	2
 1449              	.LC24:
 1450 017c 2D2D2D20 		.ascii	"--- Result: FAILURE (#\000"
 1450      52657375 
 1450      6C743A20 
 1450      4641494C 
 1450      55524520 
 1451 0193 00       		.space	1
 1452              	.LC25:
 1453 0194 205B00   		.ascii	" [\000"
 1454 0197 00       		.space	1
 1455              	.LC26:
ARM GAS  C:\Users\DNIEL~1\AppData\Local\Temp\cc05uJ3i.s 			page 28


 1456 0198 5D2900   		.ascii	"])\000"
 1457 019b 00       		.space	1
 1458              	.LC27:
 1459 019c 2D2D2D20 		.ascii	"--- Result: SUCCESS\000"
 1459      52657375 
 1459      6C743A20 
 1459      53554343 
 1459      45535300 
 1460              	.LC28:
 1461 01b0 46696E61 		.ascii	"Final result: \000"
 1461      6C207265 
 1461      73756C74 
 1461      3A2000
 1462 01bf 00       		.space	1
 1463              	.LC29:
 1464 01c0 4641494C 		.ascii	"FAILURE\000"
 1464      55524500 
 1465              	.LC30:
 1466 01c8 53554343 		.ascii	"SUCCESS\000"
 1466      45535300 
 1467              		.section	.bss.vt,"aw",%nobits
 1468              		.align	2
 1469              		.set	.LANCHOR8,. + 0
 1470              		.type	vt, %object
 1471              		.size	vt, 20
 1472              	vt:
 1473 0000 00000000 		.space	20
 1473      00000000 
 1473      00000000 
 1473      00000000 
 1473      00000000 
 1474              		.section	.bss.threads,"aw",%nobits
 1475              		.align	2
 1476              		.set	.LANCHOR7,. + 0
 1477              		.type	threads, %object
 1478              		.size	threads, 20
 1479              	threads:
 1480 0000 00000000 		.space	20
 1480      00000000 
 1480      00000000 
 1480      00000000 
 1480      00000000 
 1481              		.section	.rodata.patterns,"a",%progbits
 1482              		.align	2
 1483              		.set	.LANCHOR9,. + 0
 1484              		.type	patterns, %object
 1485              		.size	patterns, 48
 1486              	patterns:
 1487 0000 00000000 		.word	patternthd
 1488 0004 00000000 		.word	patternsem
 1489 0008 00000000 		.word	patternmtx
 1490 000c 00000000 		.word	patternmsg
 1491 0010 00000000 		.word	patternmbox
 1492 0014 00000000 		.word	patternevt
 1493 0018 00000000 		.word	patternheap
 1494 001c 00000000 		.word	patternpools
 1495 0020 00000000 		.word	patterndyn
ARM GAS  C:\Users\DNIEL~1\AppData\Local\Temp\cc05uJ3i.s 			page 29


 1496 0024 00000000 		.word	patternqueues
 1497 0028 00000000 		.word	patternbmk
 1498 002c 00000000 		.word	0
 1499              		.section	.bss.chp,"aw",%nobits
 1500              		.align	2
 1501              		.set	.LANCHOR1,. + 0
 1502              		.type	chp, %object
 1503              		.size	chp, 4
 1504              	chp:
 1505 0000 00000000 		.space	4
 1506              		.section	.bss.tokens_buffer,"aw",%nobits
 1507              		.align	2
 1508              		.set	.LANCHOR6,. + 0
 1509              		.type	tokens_buffer, %object
 1510              		.size	tokens_buffer, 16
 1511              	tokens_buffer:
 1512 0000 00000000 		.space	16
 1512      00000000 
 1512      00000000 
 1512      00000000 
 1513              		.text
 1514              	.Letext0: