ARM GAS  C:\Users\DNIEL~1\AppData\Local\Temp\ccNEANeW.s 			page 1


   1              		.syntax unified
   2              		.cpu cortex-m4
   3              		.fpu softvfp
   4              		.eabi_attribute 20, 1
   5              		.eabi_attribute 21, 1
   6              		.eabi_attribute 23, 3
   7              		.eabi_attribute 24, 1
   8              		.eabi_attribute 25, 1
   9              		.eabi_attribute 26, 1
  10              		.eabi_attribute 30, 2
  11              		.eabi_attribute 18, 4
  12              		.thumb
  13              		.file	"testthd.c"
  20 0000 14020000 		.text
  20      02006901 
  20      00000201 
  20      FB0E0D00 
  20      01010101 
  21              	.Ltext0:
  22              		.cfi_sections	.debug_frame
  23              		.section	.text.thd4_execute,"ax",%progbits
  24              		.align	2
  25              		.p2align 4,,15
  26              		.thumb
  27              		.thumb_func
  28              		.type	thd4_execute, %function
  29              	thd4_execute:
  30              	.LFB11:
  31              		.file 1 "../../../ChibiOS/test/testthd.c"
  32              		.loc 1 189 0
  33              		.cfi_startproc
  34              		@ args = 0, pretend = 0, frame = 0
  35              		@ frame_needed = 0, uses_anonymous_args = 0
  36 0000 70B5     		push	{r4, r5, r6, lr}
  37              	.LCFI0:
  38              		.cfi_def_cfa_offset 16
  39              		.loc 1 195 0
  40 0002 1C4C     		ldr	r4, .L5
  41              		.cfi_offset 14, -4
  42              		.cfi_offset 6, -8
  43              		.cfi_offset 5, -12
  44              		.cfi_offset 4, -16
  45              		.loc 1 192 0
  46 0004 FFF7FEFF 		bl	test_wait_tick
  47              		.loc 1 195 0
  48 0008 E568     		ldr	r5, [r4, #12]
  49              	.LVL0:
  50              		.loc 1 196 0
  51 000a 6420     		movs	r0, #100
  52 000c FFF7FEFF 		bl	chThdSleep
  53              		.loc 1 197 0
ARM GAS  C:\Users\DNIEL~1\AppData\Local\Temp\ccNEANeW.s 			page 2


  54 0010 0120     		movs	r0, #1
  55 0012 05F16401 		add	r1, r5, #100
  56 0016 05F16502 		add	r2, r5, #101
  57 001a FFF7FEFF 		bl	_test_assert_time_window
  58 001e 00B1     		cbz	r0, .L4
  59              	.L1:
  60 0020 70BD     		pop	{r4, r5, r6, pc}
  61              	.L4:
  62              		.loc 1 200 0
  63 0022 E568     		ldr	r5, [r4, #12]
  64              	.LVL1:
  65              		.loc 1 201 0
  66 0024 6420     		movs	r0, #100
  67 0026 FFF7FEFF 		bl	chThdSleep
  68              		.loc 1 202 0
  69 002a 0220     		movs	r0, #2
  70 002c 05F16401 		add	r1, r5, #100
  71 0030 05F16502 		add	r2, r5, #101
  72 0034 FFF7FEFF 		bl	_test_assert_time_window
  73 0038 0028     		cmp	r0, #0
  74 003a F1D1     		bne	.L1
  75              		.loc 1 205 0
  76 003c E568     		ldr	r5, [r4, #12]
  77              	.LVL2:
  78              		.loc 1 206 0
  79 003e 4FF47A70 		mov	r0, #1000
  80 0042 FFF7FEFF 		bl	chThdSleep
  81              		.loc 1 207 0
  82 0046 05F57A71 		add	r1, r5, #1000
  83 004a 0320     		movs	r0, #3
  84 004c 4A1C     		adds	r2, r1, #1
  85 004e FFF7FEFF 		bl	_test_assert_time_window
  86 0052 0028     		cmp	r0, #0
  87 0054 E4D1     		bne	.L1
  88              		.loc 1 210 0
  89 0056 E468     		ldr	r4, [r4, #12]
  90 0058 04F16405 		add	r5, r4, #100
  91              	.LVL3:
  92              		.loc 1 211 0
  93 005c 2846     		mov	r0, r5
  94 005e FFF7FEFF 		bl	chThdSleepUntil
  95              		.loc 1 212 0
  96 0062 0420     		movs	r0, #4
  97 0064 2946     		mov	r1, r5
  98 0066 04F16502 		add	r2, r4, #101
  99              		.loc 1 213 0
 100 006a BDE87040 		pop	{r4, r5, r6, lr}
 101              		.loc 1 212 0
 102 006e FFF7FEBF 		b	_test_assert_time_window
 103              	.L6:
 104 0072 00BF     		.align	2
 105              	.L5:
 106 0074 00000000 		.word	vtlist
 107              		.cfi_endproc
 108              	.LFE11:
 109              		.size	thd4_execute, .-thd4_execute
 110 0078 AFF30080 		.section	.text.thd3_execute,"ax",%progbits
ARM GAS  C:\Users\DNIEL~1\AppData\Local\Temp\ccNEANeW.s 			page 3


 110      AFF30080 
 111              		.align	2
 112              		.p2align 4,,15
 113              		.thumb
 114              		.thumb_func
 115              		.type	thd3_execute, %function
 116              	thd3_execute:
 117              	.LFB10:
 118              		.loc 1 126 0
 119              		.cfi_startproc
 120              		@ args = 0, pretend = 0, frame = 0
 121              		@ frame_needed = 0, uses_anonymous_args = 0
 122 0000 F8B5     		push	{r3, r4, r5, r6, r7, lr}
 123              	.LCFI1:
 124              		.cfi_def_cfa_offset 24
 125              		.loc 1 129 0
 126 0002 524E     		ldr	r6, .L10
 127              		.cfi_offset 14, -4
 128              		.cfi_offset 7, -8
 129              		.cfi_offset 6, -12
 130              		.cfi_offset 5, -16
 131              		.cfi_offset 4, -20
 132              		.cfi_offset 3, -24
 133 0004 B369     		ldr	r3, [r6, #24]
 134 0006 9C68     		ldr	r4, [r3, #8]
 135              	.LVL4:
 136              		.loc 1 130 0
 137 0008 651C     		adds	r5, r4, #1
 138 000a 2846     		mov	r0, r5
 139 000c FFF7FEFF 		bl	chThdSetPriority
 140              	.LVL5:
 141              		.loc 1 131 0
 142 0010 021B     		subs	r2, r0, r4
 143 0012 5142     		rsbs	r1, r2, #0
 144 0014 41EB0201 		adc	r1, r1, r2
 145              		.loc 1 130 0
 146 0018 0746     		mov	r7, r0
 147              	.LVL6:
 148              		.loc 1 131 0
 149 001a 0120     		movs	r0, #1
 150              	.LVL7:
 151 001c FFF7FEFF 		bl	_test_assert
 152 0020 00B1     		cbz	r0, .L9
 153              	.LVL8:
 154              	.L7:
 155 0022 F8BD     		pop	{r3, r4, r5, r6, r7, pc}
 156              	.LVL9:
 157              	.L9:
 158              		.loc 1 133 0
 159 0024 B069     		ldr	r0, [r6, #24]
 160 0026 8168     		ldr	r1, [r0, #8]
 161 0028 C1EB050E 		rsb	lr, r1, r5
 162 002c 0220     		movs	r0, #2
 163 002e DEF1000C 		rsbs	ip, lr, #0
 164 0032 4CEB0E01 		adc	r1, ip, lr
 165 0036 FFF7FEFF 		bl	_test_assert
 166 003a 0028     		cmp	r0, #0
ARM GAS  C:\Users\DNIEL~1\AppData\Local\Temp\ccNEANeW.s 			page 4


 167 003c F1D1     		bne	.L7
 168              		.loc 1 135 0
 169 003e 3846     		mov	r0, r7
 170 0040 FFF7FEFF 		bl	chThdSetPriority
 171              	.LVL10:
 172              		.loc 1 136 0
 173 0044 2B1A     		subs	r3, r5, r0
 174 0046 5A42     		rsbs	r2, r3, #0
 175 0048 42EB0301 		adc	r1, r2, r3
 176 004c 0320     		movs	r0, #3
 177              	.LVL11:
 178 004e FFF7FEFF 		bl	_test_assert
 179 0052 0028     		cmp	r0, #0
 180 0054 E5D1     		bne	.L7
 181              		.loc 1 138 0
 182 0056 B069     		ldr	r0, [r6, #24]
 183 0058 8168     		ldr	r1, [r0, #8]
 184 005a C4EB010E 		rsb	lr, r4, r1
 185 005e 0420     		movs	r0, #4
 186 0060 DEF1000C 		rsbs	ip, lr, #0
 187 0064 4CEB0E01 		adc	r1, ip, lr
 188 0068 FFF7FEFF 		bl	_test_assert
 189 006c 0028     		cmp	r0, #0
 190 006e D8D1     		bne	.L7
 191              	.LBB2:
 192              		.loc 1 143 0
 193 0070 2023     		movs	r3, #32
 194              	.LVL12:
 195              	@ 143 "../../../ChibiOS/test/testthd.c" 1
 196 0072 83F31188 		msr     BASEPRI, r3
 197              	@ 0 "" 2
 198              	.LVL13:
 199              		.thumb
 200              	.LBE2:
 201              		.loc 1 144 0
 202 0076 B369     		ldr	r3, [r6, #24]
 203              	.LVL14:
 204 0078 9968     		ldr	r1, [r3, #8]
 205 007a 8A1C     		adds	r2, r1, #2
 206 007c 9A60     		str	r2, [r3, #8]
 207              	.LBB3:
 208              		.loc 1 145 0
 209 007e 0346     		mov	r3, r0
 210              	.LVL15:
 211              	@ 145 "../../../ChibiOS/test/testthd.c" 1
 212 0080 83F31188 		msr     BASEPRI, r3
 213              	@ 0 "" 2
 214              	.LVL16:
 215              		.thumb
 216              	.LBE3:
 217              		.loc 1 146 0
 218 0084 B769     		ldr	r7, [r6, #24]
 219 0086 B968     		ldr	r1, [r7, #8]
 220 0088 A71C     		adds	r7, r4, #2
 221 008a CA1B     		subs	r2, r1, r7
 222 008c 0520     		movs	r0, #5
 223 008e 5342     		rsbs	r3, r2, #0
ARM GAS  C:\Users\DNIEL~1\AppData\Local\Temp\ccNEANeW.s 			page 5


 224              	.LVL17:
 225 0090 43EB0201 		adc	r1, r3, r2
 226 0094 FFF7FEFF 		bl	_test_assert
 227 0098 0028     		cmp	r0, #0
 228 009a C2D1     		bne	.L7
 229              		.loc 1 150 0
 230 009c 2846     		mov	r0, r5
 231 009e FFF7FEFF 		bl	chThdSetPriority
 232              	.LVL18:
 233              		.loc 1 151 0
 234 00a2 001B     		subs	r0, r0, r4
 235              	.LVL19:
 236 00a4 D0F1000C 		rsbs	ip, r0, #0
 237 00a8 4CEB0001 		adc	r1, ip, r0
 238 00ac 0620     		movs	r0, #6
 239 00ae FFF7FEFF 		bl	_test_assert
 240 00b2 0028     		cmp	r0, #0
 241 00b4 B5D1     		bne	.L7
 242              		.loc 1 153 0
 243 00b6 B169     		ldr	r1, [r6, #24]
 244 00b8 8B68     		ldr	r3, [r1, #8]
 245 00ba FA1A     		subs	r2, r7, r3
 246 00bc 0720     		movs	r0, #7
 247 00be D2F1000E 		rsbs	lr, r2, #0
 248 00c2 4EEB0201 		adc	r1, lr, r2
 249 00c6 FFF7FEFF 		bl	_test_assert
 250 00ca 0028     		cmp	r0, #0
 251 00cc A9D1     		bne	.L7
 252              		.loc 1 155 0
 253 00ce B069     		ldr	r0, [r6, #24]
 254 00d0 026C     		ldr	r2, [r0, #64]
 255 00d2 C2EB050E 		rsb	lr, r2, r5
 256 00d6 0820     		movs	r0, #8
 257 00d8 DEF1000C 		rsbs	ip, lr, #0
 258 00dc 4CEB0E01 		adc	r1, ip, lr
 259 00e0 FFF7FEFF 		bl	_test_assert
 260 00e4 0028     		cmp	r0, #0
 261 00e6 9CD1     		bne	.L7
 262              		.loc 1 159 0
 263 00e8 E71C     		adds	r7, r4, #3
 264 00ea 3846     		mov	r0, r7
 265 00ec FFF7FEFF 		bl	chThdSetPriority
 266              	.LVL20:
 267              		.loc 1 160 0
 268 00f0 291A     		subs	r1, r5, r0
 269 00f2 4B42     		rsbs	r3, r1, #0
 270 00f4 43EB0101 		adc	r1, r3, r1
 271 00f8 0920     		movs	r0, #9
 272              	.LVL21:
 273 00fa FFF7FEFF 		bl	_test_assert
 274 00fe 0028     		cmp	r0, #0
 275 0100 8FD1     		bne	.L7
 276              		.loc 1 162 0
 277 0102 B369     		ldr	r3, [r6, #24]
 278 0104 9A68     		ldr	r2, [r3, #8]
 279 0106 C2EB070E 		rsb	lr, r2, r7
 280 010a 0A30     		adds	r0, r0, #10
ARM GAS  C:\Users\DNIEL~1\AppData\Local\Temp\ccNEANeW.s 			page 6


 281 010c DEF1000C 		rsbs	ip, lr, #0
 282 0110 4CEB0E01 		adc	r1, ip, lr
 283 0114 FFF7FEFF 		bl	_test_assert
 284 0118 0028     		cmp	r0, #0
 285 011a 82D1     		bne	.L7
 286              		.loc 1 164 0
 287 011c B369     		ldr	r3, [r6, #24]
 288 011e 1A6C     		ldr	r2, [r3, #64]
 289 0120 C2EB070C 		rsb	ip, r2, r7
 290 0124 0B30     		adds	r0, r0, #11
 291 0126 DCF10001 		rsbs	r1, ip, #0
 292 012a 41EB0C01 		adc	r1, r1, ip
 293 012e FFF7FEFF 		bl	_test_assert
 294 0132 0028     		cmp	r0, #0
 295 0134 7FF475AF 		bne	.L7
 296              	.LBB4:
 297              		.loc 1 167 0
 298 0138 2023     		movs	r3, #32
 299              	.LVL22:
 300              	@ 167 "../../../ChibiOS/test/testthd.c" 1
 301 013a 83F31188 		msr     BASEPRI, r3
 302              	@ 0 "" 2
 303              	.LVL23:
 304              		.thumb
 305              	.LBE4:
 306              		.loc 1 168 0
 307 013e B169     		ldr	r1, [r6, #24]
 308              	.LBB5:
 309              		.loc 1 170 0
 310 0140 0346     		mov	r3, r0
 311              	.LVL24:
 312              	.LBE5:
 313              		.loc 1 168 0
 314 0142 8C60     		str	r4, [r1, #8]
 315              		.loc 1 169 0
 316 0144 0C64     		str	r4, [r1, #64]
 317              	.LBB6:
 318              		.loc 1 170 0
 319              	@ 170 "../../../ChibiOS/test/testthd.c" 1
 320 0146 83F31188 		msr     BASEPRI, r3
 321              	@ 0 "" 2
 322              	.LVL25:
 323              		.thumb
 324 014a 6AE7     		b	.L7
 325              	.L11:
 326              		.align	2
 327              	.L10:
 328 014c 00000000 		.word	rlist
 329              	.LBE6:
 330              		.cfi_endproc
 331              	.LFE10:
 332              		.size	thd3_execute, .-thd3_execute
 333              		.section	.text.thd2_execute,"ax",%progbits
 334              		.align	2
 335              		.p2align 4,,15
 336              		.thumb
 337              		.thumb_func
ARM GAS  C:\Users\DNIEL~1\AppData\Local\Temp\ccNEANeW.s 			page 7


 338              		.type	thd2_execute, %function
 339              	thd2_execute:
 340              	.LFB9:
 341              		.loc 1 94 0
 342              		.cfi_startproc
 343              		@ args = 0, pretend = 0, frame = 0
 344              		@ frame_needed = 0, uses_anonymous_args = 0
 345 0000 F0B5     		push	{r4, r5, r6, r7, lr}
 346              	.LCFI2:
 347              		.cfi_def_cfa_offset 20
 348              		.loc 1 96 0
 349 0002 2E4F     		ldr	r7, .L13
 350              		.cfi_offset 14, -4
 351              		.cfi_offset 7, -8
 352              		.cfi_offset 6, -12
 353              		.cfi_offset 5, -16
 354              		.cfi_offset 4, -20
 355 0004 2E4E     		ldr	r6, .L13+4
 356 0006 B869     		ldr	r0, [r7, #24]
 357 0008 2E4D     		ldr	r5, .L13+8
 358 000a 8168     		ldr	r1, [r0, #8]
 359 000c 2E4A     		ldr	r2, .L13+12
 360 000e 7068     		ldr	r0, [r6, #4]
 361 0010 2E4C     		ldr	r4, .L13+16
 362              		.loc 1 94 0
 363 0012 83B0     		sub	sp, sp, #12
 364              	.LCFI3:
 365              		.cfi_def_cfa_offset 32
 366              		.loc 1 96 0
 367 0014 2B46     		mov	r3, r5
 368 0016 0092     		str	r2, [sp, #0]
 369 0018 0A1F     		subs	r2, r1, #4
 370 001a 4FF4A871 		mov	r1, #336
 371 001e FFF7FEFF 		bl	chThdCreateStatic
 372              		.loc 1 97 0
 373 0022 BB69     		ldr	r3, [r7, #24]
 374 0024 3168     		ldr	r1, [r6, #0]
 375 0026 9A68     		ldr	r2, [r3, #8]
 376 0028 DFF8ACE0 		ldr	lr, .L13+28
 377              		.loc 1 96 0
 378 002c 6060     		str	r0, [r4, #4]
 379              		.loc 1 97 0
 380 002e 053A     		subs	r2, r2, #5
 381 0030 2B46     		mov	r3, r5
 382 0032 0846     		mov	r0, r1
 383 0034 4FF4A871 		mov	r1, #336
 384 0038 CDF800E0 		str	lr, [sp, #0]
 385 003c FFF7FEFF 		bl	chThdCreateStatic
 386              		.loc 1 98 0
 387 0040 BB69     		ldr	r3, [r7, #24]
 388 0042 3169     		ldr	r1, [r6, #16]
 389 0044 9A68     		ldr	r2, [r3, #8]
 390 0046 DFF894C0 		ldr	ip, .L13+32
 391              		.loc 1 97 0
 392 004a 2060     		str	r0, [r4, #0]
 393              		.loc 1 98 0
 394 004c 013A     		subs	r2, r2, #1
ARM GAS  C:\Users\DNIEL~1\AppData\Local\Temp\ccNEANeW.s 			page 8


 395 004e 2B46     		mov	r3, r5
 396 0050 0846     		mov	r0, r1
 397 0052 4FF4A871 		mov	r1, #336
 398 0056 CDF800C0 		str	ip, [sp, #0]
 399 005a FFF7FEFF 		bl	chThdCreateStatic
 400              		.loc 1 99 0
 401 005e BB69     		ldr	r3, [r7, #24]
 402 0060 F168     		ldr	r1, [r6, #12]
 403 0062 9A68     		ldr	r2, [r3, #8]
 404 0064 DFF878E0 		ldr	lr, .L13+36
 405              		.loc 1 98 0
 406 0068 2061     		str	r0, [r4, #16]
 407              		.loc 1 99 0
 408 006a 2B46     		mov	r3, r5
 409 006c 0846     		mov	r0, r1
 410 006e 023A     		subs	r2, r2, #2
 411 0070 4FF4A871 		mov	r1, #336
 412 0074 CDF800E0 		str	lr, [sp, #0]
 413 0078 FFF7FEFF 		bl	chThdCreateStatic
 414              	.LBB7:
 415              		.loc 1 101 0
 416 007c 2023     		movs	r3, #32
 417              	.LVL26:
 418              	.LBE7:
 419              		.loc 1 99 0
 420 007e E060     		str	r0, [r4, #12]
 421              	.LBB8:
 422              		.loc 1 101 0
 423              	@ 101 "../../../ChibiOS/test/testthd.c" 1
 424 0080 83F31188 		msr     BASEPRI, r3
 425              	@ 0 "" 2
 426              	.LVL27:
 427              		.thumb
 428              	.LBE8:
 429              		.loc 1 102 0
 430 0084 BB69     		ldr	r3, [r7, #24]
 431              	.LVL28:
 432 0086 B068     		ldr	r0, [r6, #8]
 433 0088 9A68     		ldr	r2, [r3, #8]
 434 008a 2B46     		mov	r3, r5
 435 008c 104D     		ldr	r5, .L13+20
 436 008e 4FF4A871 		mov	r1, #336
 437 0092 033A     		subs	r2, r2, #3
 438 0094 0095     		str	r5, [sp, #0]
 439 0096 FFF7FEFF 		bl	chThdCreateI
 440 009a A060     		str	r0, [r4, #8]
 441              	.LBB9:
 442              		.loc 1 103 0
 443 009c 0023     		movs	r3, #0
 444              	.LVL29:
 445              	@ 103 "../../../ChibiOS/test/testthd.c" 1
 446 009e 83F31188 		msr     BASEPRI, r3
 447              	@ 0 "" 2
 448              	.LVL30:
 449              		.thumb
 450              	.LBE9:
 451              		.loc 1 104 0
ARM GAS  C:\Users\DNIEL~1\AppData\Local\Temp\ccNEANeW.s 			page 9


 452 00a2 A068     		ldr	r0, [r4, #8]
 453 00a4 FFF7FEFF 		bl	chThdResume
 454              	.LVL31:
 455              		.loc 1 105 0
 456 00a8 FFF7FEFF 		bl	test_wait_threads
 457              		.loc 1 106 0
 458 00ac 0949     		ldr	r1, .L13+24
 459 00ae 0120     		movs	r0, #1
 460              		.loc 1 107 0
 461 00b0 03B0     		add	sp, sp, #12
 462 00b2 BDE8F040 		pop	{r4, r5, r6, r7, lr}
 463              		.loc 1 106 0
 464 00b6 FFF7FEBF 		b	_test_assert_sequence
 465              	.L14:
 466 00ba 00BF     		.align	2
 467              	.L13:
 468 00bc 00000000 		.word	rlist
 469 00c0 00000000 		.word	wa
 470 00c4 00000000 		.word	thread
 471 00c8 00000000 		.word	.LC0
 472 00cc 00000000 		.word	threads
 473 00d0 10000000 		.word	.LC4
 474 00d4 14000000 		.word	.LC5
 475 00d8 04000000 		.word	.LC1
 476 00dc 08000000 		.word	.LC2
 477 00e0 0C000000 		.word	.LC3
 478              		.cfi_endproc
 479              	.LFE9:
 480              		.size	thd2_execute, .-thd2_execute
 481 00e4 AFF30080 		.section	.text.thd1_execute,"ax",%progbits
 481      AFF30080 
 481      AFF30080 
 482              		.align	2
 483              		.p2align 4,,15
 484              		.thumb
 485              		.thumb_func
 486              		.type	thd1_execute, %function
 487              	thd1_execute:
 488              	.LFB8:
 489              		.loc 1 66 0
 490              		.cfi_startproc
 491              		@ args = 0, pretend = 0, frame = 0
 492              		@ frame_needed = 0, uses_anonymous_args = 0
 493 0000 F0B5     		push	{r4, r5, r6, r7, lr}
 494              	.LCFI4:
 495              		.cfi_def_cfa_offset 20
 496              		.loc 1 68 0
 497 0002 2B4F     		ldr	r7, .L16
 498              		.cfi_offset 14, -4
 499              		.cfi_offset 7, -8
 500              		.cfi_offset 6, -12
 501              		.cfi_offset 5, -16
 502              		.cfi_offset 4, -20
 503 0004 2B4D     		ldr	r5, .L16+4
 504 0006 B869     		ldr	r0, [r7, #24]
 505 0008 2B4E     		ldr	r6, .L16+8
 506 000a 8268     		ldr	r2, [r0, #8]
ARM GAS  C:\Users\DNIEL~1\AppData\Local\Temp\ccNEANeW.s 			page 10


 507 000c 2B4B     		ldr	r3, .L16+12
 508 000e 3068     		ldr	r0, [r6, #0]
 509 0010 2B4C     		ldr	r4, .L16+16
 510              		.loc 1 66 0
 511 0012 83B0     		sub	sp, sp, #12
 512              	.LCFI5:
 513              		.cfi_def_cfa_offset 32
 514              		.loc 1 68 0
 515 0014 053A     		subs	r2, r2, #5
 516 0016 0093     		str	r3, [sp, #0]
 517 0018 4FF4A871 		mov	r1, #336
 518 001c 2B46     		mov	r3, r5
 519 001e FFF7FEFF 		bl	chThdCreateStatic
 520              		.loc 1 69 0
 521 0022 B969     		ldr	r1, [r7, #24]
 522 0024 D6F804C0 		ldr	ip, [r6, #4]
 523 0028 8B68     		ldr	r3, [r1, #8]
 524 002a DFF8A0E0 		ldr	lr, .L16+28
 525              		.loc 1 68 0
 526 002e 2060     		str	r0, [r4, #0]
 527              		.loc 1 69 0
 528 0030 1A1F     		subs	r2, r3, #4
 529 0032 4FF4A871 		mov	r1, #336
 530 0036 2B46     		mov	r3, r5
 531 0038 6046     		mov	r0, ip
 532 003a CDF800E0 		str	lr, [sp, #0]
 533 003e FFF7FEFF 		bl	chThdCreateStatic
 534              		.loc 1 70 0
 535 0042 BA69     		ldr	r2, [r7, #24]
 536 0044 D6F808C0 		ldr	ip, [r6, #8]
 537 0048 9368     		ldr	r3, [r2, #8]
 538 004a DFF884E0 		ldr	lr, .L16+32
 539              		.loc 1 69 0
 540 004e 6060     		str	r0, [r4, #4]
 541              		.loc 1 70 0
 542 0050 DA1E     		subs	r2, r3, #3
 543 0052 4FF4A871 		mov	r1, #336
 544 0056 2B46     		mov	r3, r5
 545 0058 6046     		mov	r0, ip
 546 005a CDF800E0 		str	lr, [sp, #0]
 547 005e FFF7FEFF 		bl	chThdCreateStatic
 548              		.loc 1 71 0
 549 0062 B969     		ldr	r1, [r7, #24]
 550 0064 D6F80CC0 		ldr	ip, [r6, #12]
 551 0068 8A68     		ldr	r2, [r1, #8]
 552 006a DFF868E0 		ldr	lr, .L16+36
 553              		.loc 1 70 0
 554 006e A060     		str	r0, [r4, #8]
 555              		.loc 1 71 0
 556 0070 023A     		subs	r2, r2, #2
 557 0072 6046     		mov	r0, ip
 558 0074 2B46     		mov	r3, r5
 559 0076 4FF4A871 		mov	r1, #336
 560 007a CDF800E0 		str	lr, [sp, #0]
 561 007e FFF7FEFF 		bl	chThdCreateStatic
 562              		.loc 1 72 0
 563 0082 BB69     		ldr	r3, [r7, #24]
ARM GAS  C:\Users\DNIEL~1\AppData\Local\Temp\ccNEANeW.s 			page 11


 564 0084 3669     		ldr	r6, [r6, #16]
 565 0086 9A68     		ldr	r2, [r3, #8]
 566              		.loc 1 71 0
 567 0088 E060     		str	r0, [r4, #12]
 568              		.loc 1 72 0
 569 008a 2B46     		mov	r3, r5
 570 008c 0D4D     		ldr	r5, .L16+20
 571 008e 4FF4A871 		mov	r1, #336
 572 0092 013A     		subs	r2, r2, #1
 573 0094 3046     		mov	r0, r6
 574 0096 0095     		str	r5, [sp, #0]
 575 0098 FFF7FEFF 		bl	chThdCreateStatic
 576 009c 2061     		str	r0, [r4, #16]
 577              		.loc 1 73 0
 578 009e FFF7FEFF 		bl	test_wait_threads
 579              		.loc 1 74 0
 580 00a2 0949     		ldr	r1, .L16+24
 581 00a4 0120     		movs	r0, #1
 582              		.loc 1 75 0
 583 00a6 03B0     		add	sp, sp, #12
 584 00a8 BDE8F040 		pop	{r4, r5, r6, r7, lr}
 585              		.loc 1 74 0
 586 00ac FFF7FEBF 		b	_test_assert_sequence
 587              	.L17:
 588              		.align	2
 589              	.L16:
 590 00b0 00000000 		.word	rlist
 591 00b4 00000000 		.word	thread
 592 00b8 00000000 		.word	wa
 593 00bc 04000000 		.word	.LC1
 594 00c0 00000000 		.word	threads
 595 00c4 08000000 		.word	.LC2
 596 00c8 14000000 		.word	.LC5
 597 00cc 00000000 		.word	.LC0
 598 00d0 10000000 		.word	.LC4
 599 00d4 0C000000 		.word	.LC3
 600              		.cfi_endproc
 601              	.LFE8:
 602              		.size	thd1_execute, .-thd1_execute
 603 00d8 AFF30080 		.section	.text.thread,"ax",%progbits
 603      AFF30080 
 604              		.align	2
 605              		.p2align 4,,15
 606              		.thumb
 607              		.thumb_func
 608              		.type	thread, %function
 609              	thread:
 610              	.LFB7:
 611              		.loc 1 60 0
 612              		.cfi_startproc
 613              		@ args = 0, pretend = 0, frame = 0
 614              		@ frame_needed = 0, uses_anonymous_args = 0
 615              	.LVL32:
 616 0000 08B5     		push	{r3, lr}
 617              	.LCFI6:
 618              		.cfi_def_cfa_offset 8
 619              		.loc 1 62 0
ARM GAS  C:\Users\DNIEL~1\AppData\Local\Temp\ccNEANeW.s 			page 12


 620 0002 0078     		ldrb	r0, [r0, #0]	@ zero_extendqisi2
 621              	.LVL33:
 622              		.cfi_offset 14, -4
 623              		.cfi_offset 3, -8
 624 0004 FFF7FEFF 		bl	test_emit_token
 625              		.loc 1 64 0
 626 0008 0020     		movs	r0, #0
 627 000a 08BD     		pop	{r3, pc}
 628              		.cfi_endproc
 629              	.LFE7:
 630              		.size	thread, .-thread
 631              		.global	testthd1
 632              		.global	testthd2
 633              		.global	testthd3
 634              		.global	testthd4
 635              		.global	patternthd
 636 000c AFF30080 		.section	.rodata.testthd1,"a",%progbits
 637              		.align	2
 638              		.type	testthd1, %object
 639              		.size	testthd1, 16
 640              	testthd1:
 641 0000 1C000000 		.word	.LC6
 642 0004 00000000 		.word	0
 643 0008 00000000 		.word	0
 644 000c 00000000 		.word	thd1_execute
 645              		.section	.rodata.testthd2,"a",%progbits
 646              		.align	2
 647              		.type	testthd2, %object
 648              		.size	testthd2, 16
 649              	testthd2:
 650 0000 38000000 		.word	.LC7
 651 0004 00000000 		.word	0
 652 0008 00000000 		.word	0
 653 000c 00000000 		.word	thd2_execute
 654              		.section	.rodata.testthd3,"a",%progbits
 655              		.align	2
 656              		.type	testthd3, %object
 657              		.size	testthd3, 16
 658              	testthd3:
 659 0000 54000000 		.word	.LC8
 660 0004 00000000 		.word	0
 661 0008 00000000 		.word	0
 662 000c 00000000 		.word	thd3_execute
 663              		.section	.rodata.testthd4,"a",%progbits
 664              		.align	2
 665              		.type	testthd4, %object
 666              		.size	testthd4, 16
 667              	testthd4:
 668 0000 70000000 		.word	.LC9
 669 0004 00000000 		.word	0
 670 0008 00000000 		.word	0
 671 000c 00000000 		.word	thd4_execute
 672              		.section	.rodata.patternthd,"a",%progbits
 673              		.align	2
 674              		.type	patternthd, %object
 675              		.size	patternthd, 20
 676              	patternthd:
ARM GAS  C:\Users\DNIEL~1\AppData\Local\Temp\ccNEANeW.s 			page 13


 677 0000 00000000 		.word	testthd1
 678 0004 00000000 		.word	testthd2
 679 0008 00000000 		.word	testthd3
 680 000c 00000000 		.word	testthd4
 681 0010 00000000 		.word	0
 682              		.section	.rodata.str1.4,"aMS",%progbits,1
 683              		.align	2
 684              	.LC0:
 685 0000 4400     		.ascii	"D\000"
 686 0002 0000     		.space	2
 687              	.LC1:
 688 0004 4500     		.ascii	"E\000"
 689 0006 0000     		.space	2
 690              	.LC2:
 691 0008 4100     		.ascii	"A\000"
 692 000a 0000     		.space	2
 693              	.LC3:
 694 000c 4200     		.ascii	"B\000"
 695 000e 0000     		.space	2
 696              	.LC4:
 697 0010 4300     		.ascii	"C\000"
 698 0012 0000     		.space	2
 699              	.LC5:
 700 0014 41424344 		.ascii	"ABCDE\000"
 700      4500
 701 001a 0000     		.space	2
 702              	.LC6:
 703 001c 54687265 		.ascii	"Threads, enqueuing test #1\000"
 703      6164732C 
 703      20656E71 
 703      75657569 
 703      6E672074 
 704 0037 00       		.space	1
 705              	.LC7:
 706 0038 54687265 		.ascii	"Threads, enqueuing test #2\000"
 706      6164732C 
 706      20656E71 
 706      75657569 
 706      6E672074 
 707 0053 00       		.space	1
 708              	.LC8:
 709 0054 54687265 		.ascii	"Threads, priority change\000"
 709      6164732C 
 709      20707269 
 709      6F726974 
 709      79206368 
 710 006d 000000   		.space	3
 711              	.LC9:
 712 0070 54687265 		.ascii	"Threads, delays\000"
 712      6164732C 
 712      2064656C 
 712      61797300 
 713              		.text
 714              	.Letext0: