ARM GAS  C:\Users\DNIEL~1\AppData\Local\Temp\ccXA0XlR.s 			page 1


   1              		.syntax unified
   2              		.cpu cortex-m4
   3              		.fpu softvfp
   4              		.eabi_attribute 20, 1
   5              		.eabi_attribute 21, 1
   6              		.eabi_attribute 23, 3
   7              		.eabi_attribute 24, 1
   8              		.eabi_attribute 25, 1
   9              		.eabi_attribute 26, 1
  10              		.eabi_attribute 30, 2
  11              		.eabi_attribute 18, 4
  12              		.thumb
  13              		.file	"testmbox.c"
  14              		.section	.debug_abbrev,"",%progbits
  15              	.Ldebug_abbrev0:
  16              		.section	.debug_info,"",%progbits
  17              	.Ldebug_info0:
  18              		.section	.debug_line,"",%progbits
  19              	.Ldebug_line0:
  20 0000 E9020000 		.text
  20      02006D01 
  20      00000201 
  20      FB0E0D00 
  20      01010101 
  21              	.Ltext0:
  22              		.cfi_sections	.debug_frame
  23              		.section	.text.mbox1_execute,"ax",%progbits
  24              		.align	2
  25              		.p2align 4,,15
  26              		.thumb
  27              		.thumb_func
  28              		.type	mbox1_execute, %function
  29              	mbox1_execute:
  30              	.LFB8:
  31              		.file 1 "../../../ChibiOS/test/testmbox.c"
  32              		.loc 1 76 0
  33              		.cfi_startproc
  34              		@ args = 0, pretend = 0, frame = 8
  35              		@ frame_needed = 0, uses_anonymous_args = 0
  36 0000 F0B5     		push	{r4, r5, r6, r7, lr}
  37              	.LCFI0:
  38              		.cfi_def_cfa_offset 20
  39              		.loc 1 83 0
  40 0002 BB4C     		ldr	r4, .L26
  41              		.cfi_offset 14, -4
  42              		.cfi_offset 7, -8
  43              		.cfi_offset 6, -12
  44              		.cfi_offset 5, -16
  45              		.cfi_offset 4, -20
  46 0004 626A     		ldr	r2, [r4, #36]
  47 0006 A2F10503 		sub	r3, r2, #5
  48 000a 0120     		movs	r0, #1
  49 000c 5942     		rsbs	r1, r3, #0
  50 000e 41EB0301 		adc	r1, r1, r3
  51              		.loc 1 76 0
  52 0012 83B0     		sub	sp, sp, #12
  53              	.LCFI1:
ARM GAS  C:\Users\DNIEL~1\AppData\Local\Temp\ccXA0XlR.s 			page 2


  54              		.cfi_def_cfa_offset 32
  55              		.loc 1 83 0
  56 0014 FFF7FEFF 		bl	_test_assert
  57 0018 0028     		cmp	r0, #0
  58 001a 45D1     		bne	.L1
  59              		.loc 1 89 0
  60 001c 4221     		movs	r1, #66
  61 001e 2046     		mov	r0, r4
  62 0020 4FF0FF32 		mov	r2, #-1
  63 0024 FFF7FEFF 		bl	chMBPost
  64              	.LVL0:
  65              		.loc 1 90 0
  66 0028 D0F10101 		rsbs	r1, r0, #1
  67 002c 38BF     		it	cc
  68 002e 0021     		movcc	r1, #0
  69 0030 0220     		movs	r0, #2
  70              	.LVL1:
  71 0032 FFF7FEFF 		bl	_test_assert
  72 0036 B8BB     		cbnz	r0, .L1
  73              	.LVL2:
  74              		.loc 1 89 0
  75 0038 4321     		movs	r1, #67
  76 003a 2046     		mov	r0, r4
  77 003c 4FF0FF32 		mov	r2, #-1
  78 0040 FFF7FEFF 		bl	chMBPost
  79              	.LVL3:
  80              		.loc 1 90 0
  81 0044 D0F10101 		rsbs	r1, r0, #1
  82 0048 38BF     		it	cc
  83 004a 0021     		movcc	r1, #0
  84 004c 0220     		movs	r0, #2
  85              	.LVL4:
  86 004e FFF7FEFF 		bl	_test_assert
  87 0052 48BB     		cbnz	r0, .L1
  88              	.LVL5:
  89              		.loc 1 89 0
  90 0054 4421     		movs	r1, #68
  91 0056 2046     		mov	r0, r4
  92 0058 4FF0FF32 		mov	r2, #-1
  93 005c FFF7FEFF 		bl	chMBPost
  94              	.LVL6:
  95              		.loc 1 90 0
  96 0060 D0F10101 		rsbs	r1, r0, #1
  97 0064 38BF     		it	cc
  98 0066 0021     		movcc	r1, #0
  99 0068 0220     		movs	r0, #2
 100              	.LVL7:
 101 006a FFF7FEFF 		bl	_test_assert
 102 006e D8B9     		cbnz	r0, .L1
 103              	.LVL8:
 104              		.loc 1 89 0
 105 0070 4521     		movs	r1, #69
 106 0072 2046     		mov	r0, r4
 107 0074 4FF0FF32 		mov	r2, #-1
 108 0078 FFF7FEFF 		bl	chMBPost
 109              	.LVL9:
 110              		.loc 1 90 0
ARM GAS  C:\Users\DNIEL~1\AppData\Local\Temp\ccXA0XlR.s 			page 3


 111 007c D0F10101 		rsbs	r1, r0, #1
 112 0080 38BF     		it	cc
 113 0082 0021     		movcc	r1, #0
 114 0084 0220     		movs	r0, #2
 115              	.LVL10:
 116 0086 FFF7FEFF 		bl	_test_assert
 117 008a 68B9     		cbnz	r0, .L1
 118              	.LVL11:
 119              		.loc 1 92 0
 120 008c 4121     		movs	r1, #65
 121 008e 2046     		mov	r0, r4
 122 0090 4FF0FF32 		mov	r2, #-1
 123 0094 FFF7FEFF 		bl	chMBPostAhead
 124              	.LVL12:
 125              		.loc 1 93 0
 126 0098 D0F10101 		rsbs	r1, r0, #1
 127 009c 38BF     		it	cc
 128 009e 0021     		movcc	r1, #0
 129 00a0 0320     		movs	r0, #3
 130              	.LVL13:
 131 00a2 FFF7FEFF 		bl	_test_assert
 132 00a6 08B1     		cbz	r0, .L24
 133              	.LVL14:
 134              	.L1:
 135              		.loc 1 220 0
 136 00a8 03B0     		add	sp, sp, #12
 137 00aa F0BD     		pop	{r4, r5, r6, r7, pc}
 138              	.LVL15:
 139              	.L24:
 140              		.loc 1 98 0
 141 00ac 5821     		movs	r1, #88
 142 00ae 0122     		movs	r2, #1
 143 00b0 2046     		mov	r0, r4
 144 00b2 FFF7FEFF 		bl	chMBPost
 145              	.LVL16:
 146              		.loc 1 99 0
 147 00b6 A0F1FF3C 		sub	ip, r0, #-1
 148 00ba DCF10000 		rsbs	r0, ip, #0
 149              	.LVL17:
 150 00be 40EB0C01 		adc	r1, r0, ip
 151 00c2 0420     		movs	r0, #4
 152 00c4 FFF7FEFF 		bl	_test_assert
 153              	.LVL18:
 154 00c8 0546     		mov	r5, r0
 155 00ca 0028     		cmp	r0, #0
 156 00cc ECD1     		bne	.L1
 157              	.LBB2:
 158              		.loc 1 100 0
 159 00ce 2023     		movs	r3, #32
 160              	.LVL19:
 161              	@ 100 "../../../ChibiOS/test/testmbox.c" 1
 162 00d0 83F31188 		msr     BASEPRI, r3
 163              	@ 0 "" 2
 164              	.LVL20:
 165              		.thumb
 166              	.LBE2:
 167              		.loc 1 101 0
ARM GAS  C:\Users\DNIEL~1\AppData\Local\Temp\ccXA0XlR.s 			page 4


 168 00d4 5821     		movs	r1, #88
 169 00d6 2046     		mov	r0, r4
 170 00d8 FFF7FEFF 		bl	chMBPostI
 171              	.LVL21:
 172              	.LBB3:
 173              		.loc 1 102 0
 174 00dc 2B46     		mov	r3, r5
 175              	.LVL22:
 176              	.LBE3:
 177              		.loc 1 101 0
 178 00de 0246     		mov	r2, r0
 179              	.LVL23:
 180              	.LBB4:
 181              		.loc 1 102 0
 182              	@ 102 "../../../ChibiOS/test/testmbox.c" 1
 183 00e0 83F31188 		msr     BASEPRI, r3
 184              	@ 0 "" 2
 185              	.LVL24:
 186              		.thumb
 187              	.LBE4:
 188              		.loc 1 103 0
 189 00e4 A2F1FF3E 		sub	lr, r2, #-1
 190 00e8 0520     		movs	r0, #5
 191              	.LVL25:
 192 00ea DEF10001 		rsbs	r1, lr, #0
 193 00ee 41EB0E01 		adc	r1, r1, lr
 194 00f2 FFF7FEFF 		bl	_test_assert
 195              	.LVL26:
 196 00f6 0028     		cmp	r0, #0
 197 00f8 D6D1     		bne	.L1
 198              		.loc 1 104 0
 199 00fa 5821     		movs	r1, #88
 200 00fc 0122     		movs	r2, #1
 201 00fe 2046     		mov	r0, r4
 202 0100 FFF7FEFF 		bl	chMBPostAhead
 203              	.LVL27:
 204              		.loc 1 105 0
 205 0104 A0F1FF33 		sub	r3, r0, #-1
 206 0108 5D42     		rsbs	r5, r3, #0
 207 010a 45EB0301 		adc	r1, r5, r3
 208 010e 0620     		movs	r0, #6
 209              	.LVL28:
 210 0110 FFF7FEFF 		bl	_test_assert
 211              	.LVL29:
 212 0114 0546     		mov	r5, r0
 213 0116 0028     		cmp	r0, #0
 214 0118 C6D1     		bne	.L1
 215              	.LBB5:
 216              		.loc 1 106 0
 217 011a 2023     		movs	r3, #32
 218              	.LVL30:
 219              	@ 106 "../../../ChibiOS/test/testmbox.c" 1
 220 011c 83F31188 		msr     BASEPRI, r3
 221              	@ 0 "" 2
 222              	.LVL31:
 223              		.thumb
 224              	.LBE5:
ARM GAS  C:\Users\DNIEL~1\AppData\Local\Temp\ccXA0XlR.s 			page 5


 225              		.loc 1 107 0
 226 0120 5821     		movs	r1, #88
 227 0122 2046     		mov	r0, r4
 228 0124 FFF7FEFF 		bl	chMBPostAheadI
 229              	.LVL32:
 230              	.LBB6:
 231              		.loc 1 108 0
 232 0128 2B46     		mov	r3, r5
 233              	.LVL33:
 234              	.LBE6:
 235              		.loc 1 107 0
 236 012a 0246     		mov	r2, r0
 237              	.LVL34:
 238              	.LBB7:
 239              		.loc 1 108 0
 240              	@ 108 "../../../ChibiOS/test/testmbox.c" 1
 241 012c 83F31188 		msr     BASEPRI, r3
 242              	@ 0 "" 2
 243              	.LVL35:
 244              		.thumb
 245              	.LBE7:
 246              		.loc 1 109 0
 247 0130 A2F1FF31 		sub	r1, r2, #-1
 248 0134 0720     		movs	r0, #7
 249              	.LVL36:
 250 0136 D1F1000C 		rsbs	ip, r1, #0
 251 013a 4CEB0101 		adc	r1, ip, r1
 252 013e FFF7FEFF 		bl	_test_assert
 253              	.LVL37:
 254 0142 0028     		cmp	r0, #0
 255 0144 B0D1     		bne	.L1
 256              	.LBB8:
 257              		.loc 1 114 0
 258 0146 2023     		movs	r3, #32
 259              	.LVL38:
 260              	@ 114 "../../../ChibiOS/test/testmbox.c" 1
 261 0148 83F31188 		msr     BASEPRI, r3
 262              	@ 0 "" 2
 263              	.LVL39:
 264              		.thumb
 265              	.LBE8:
 266 014c 676A     		ldr	r7, [r4, #36]
 267 014e 0820     		movs	r0, #8
 268 0150 D7F10101 		rsbs	r1, r7, #1
 269 0154 38BF     		it	cc
 270 0156 0021     		movcc	r1, #0
 271 0158 FFF7FEFF 		bl	_test_assert
 272              	.LVL40:
 273 015c 0746     		mov	r7, r0
 274 015e 18B1     		cbz	r0, .L3
 275              	.LBB9:
 276              		.loc 1 114 0 is_stmt 0 discriminator 1
 277 0160 0023     		movs	r3, #0
 278              	@ 114 "../../../ChibiOS/test/testmbox.c" 1
 279 0162 83F31188 		msr     BASEPRI, r3
 280              	@ 0 "" 2
 281              	.LVL41:
ARM GAS  C:\Users\DNIEL~1\AppData\Local\Temp\ccXA0XlR.s 			page 6


 282              		.thumb
 283              	.LBE9:
 284 0166 9FE7     		b	.L1
 285              	.LVL42:
 286              	.L3:
 287              	.LBB10:
 288              		.loc 1 114 0 discriminator 2
 289 0168 0346     		mov	r3, r0
 290              	.LVL43:
 291              	@ 114 "../../../ChibiOS/test/testmbox.c" 1
 292 016a 83F31188 		msr     BASEPRI, r3
 293              	@ 0 "" 2
 294              	.LVL44:
 295              		.thumb
 296              	.LBE10:
 297              	.LBB11:
 298              		.loc 1 115 0 is_stmt 1 discriminator 2
 299 016e 2023     		movs	r3, #32
 300              	.LVL45:
 301              	@ 115 "../../../ChibiOS/test/testmbox.c" 1
 302 0170 83F31188 		msr     BASEPRI, r3
 303              	@ 0 "" 2
 304              	.LVL46:
 305              		.thumb
 306              	.LBE11:
 307 0174 A369     		ldr	r3, [r4, #24]
 308              	.LVL47:
 309 0176 A3F10505 		sub	r5, r3, #5
 310 017a 0920     		movs	r0, #9
 311 017c D5F1000E 		rsbs	lr, r5, #0
 312 0180 4EEB0501 		adc	r1, lr, r5
 313 0184 FFF7FEFF 		bl	_test_assert
 314 0188 0546     		mov	r5, r0
 315 018a 18B1     		cbz	r0, .L4
 316              	.LBB12:
 317              		.loc 1 115 0 is_stmt 0 discriminator 1
 318 018c 3B46     		mov	r3, r7
 319              	@ 115 "../../../ChibiOS/test/testmbox.c" 1
 320 018e 83F31188 		msr     BASEPRI, r3
 321              	@ 0 "" 2
 322              	.LVL48:
 323              		.thumb
 324              	.LBE12:
 325 0192 89E7     		b	.L1
 326              	.LVL49:
 327              	.L4:
 328              	.LBB13:
 329              		.loc 1 115 0 discriminator 2
 330 0194 0346     		mov	r3, r0
 331              	.LVL50:
 332              	@ 115 "../../../ChibiOS/test/testmbox.c" 1
 333 0196 83F31188 		msr     BASEPRI, r3
 334              	@ 0 "" 2
 335              	.LVL51:
 336              		.thumb
 337              	.LBE13:
 338              	.LBB14:
ARM GAS  C:\Users\DNIEL~1\AppData\Local\Temp\ccXA0XlR.s 			page 7


 339              		.loc 1 116 0 is_stmt 1 discriminator 2
 340 019a 2023     		movs	r3, #32
 341              	.LVL52:
 342              	@ 116 "../../../ChibiOS/test/testmbox.c" 1
 343 019c 83F31188 		msr     BASEPRI, r3
 344              	@ 0 "" 2
 345              	.LVL53:
 346              		.thumb
 347              	.LBE14:
 348 01a0 A368     		ldr	r3, [r4, #8]
 349              	.LVL54:
 350 01a2 E268     		ldr	r2, [r4, #12]
 351 01a4 D11A     		subs	r1, r2, r3
 352 01a6 0A20     		movs	r0, #10
 353 01a8 D1F1000C 		rsbs	ip, r1, #0
 354 01ac 4CEB0101 		adc	r1, ip, r1
 355 01b0 FFF7FEFF 		bl	_test_assert
 356 01b4 0346     		mov	r3, r0
 357 01b6 0028     		cmp	r0, #0
 358 01b8 40F09680 		bne	.L25
 359              	.LBB15:
 360              	@ 116 "../../../ChibiOS/test/testmbox.c" 1
 361 01bc 83F31188 		msr     BASEPRI, r3
 362              	@ 0 "" 2
 363              	.LVL55:
 364              		.loc 1 121 0 discriminator 2
 365              		.thumb
 366 01c0 0646     		mov	r6, r0
 367              	.LVL56:
 368              	.L6:
 369              	.LBE15:
 370              		.loc 1 122 0
 371 01c2 4B4D     		ldr	r5, .L26
 372 01c4 01A9     		add	r1, sp, #4
 373 01c6 2846     		mov	r0, r5
 374 01c8 4FF0FF32 		mov	r2, #-1
 375 01cc FFF7FEFF 		bl	chMBFetch
 376              	.LVL57:
 377              		.loc 1 123 0
 378 01d0 D0F10101 		rsbs	r1, r0, #1
 379 01d4 38BF     		it	cc
 380 01d6 0021     		movcc	r1, #0
 381 01d8 0B20     		movs	r0, #11
 382              	.LVL58:
 383 01da FFF7FEFF 		bl	_test_assert
 384 01de 0028     		cmp	r0, #0
 385 01e0 7FF462AF 		bne	.L1
 386              		.loc 1 124 0
 387 01e4 9DF80400 		ldrb	r0, [sp, #4]	@ zero_extendqisi2
 388              		.loc 1 121 0
 389 01e8 0136     		adds	r6, r6, #1
 390              		.loc 1 124 0
 391 01ea FFF7FEFF 		bl	test_emit_token
 392              	.LVL59:
 393              		.loc 1 121 0
 394 01ee 052E     		cmp	r6, #5
 395 01f0 E7D1     		bne	.L6
ARM GAS  C:\Users\DNIEL~1\AppData\Local\Temp\ccXA0XlR.s 			page 8


 396              		.loc 1 126 0
 397 01f2 0C20     		movs	r0, #12
 398 01f4 3F49     		ldr	r1, .L26+4
 399 01f6 FFF7FEFF 		bl	_test_assert_sequence
 400 01fa 0028     		cmp	r0, #0
 401 01fc 7FF454AF 		bne	.L1
 402              		.loc 1 131 0
 403 0200 4721     		movs	r1, #71
 404 0202 2846     		mov	r0, r5
 405 0204 4FF0FF32 		mov	r2, #-1
 406 0208 FFF7FEFF 		bl	chMBPost
 407              	.LVL60:
 408              		.loc 1 132 0
 409 020c D0F10101 		rsbs	r1, r0, #1
 410 0210 38BF     		it	cc
 411 0212 0021     		movcc	r1, #0
 412 0214 0D20     		movs	r0, #13
 413              	.LVL61:
 414 0216 FFF7FEFF 		bl	_test_assert
 415 021a 0028     		cmp	r0, #0
 416 021c 7FF444AF 		bne	.L1
 417              		.loc 1 133 0
 418 0220 01A9     		add	r1, sp, #4
 419 0222 2846     		mov	r0, r5
 420 0224 4FF0FF32 		mov	r2, #-1
 421 0228 FFF7FEFF 		bl	chMBFetch
 422              	.LVL62:
 423              		.loc 1 134 0
 424 022c D0F10101 		rsbs	r1, r0, #1
 425 0230 38BF     		it	cc
 426 0232 0021     		movcc	r1, #0
 427 0234 0E20     		movs	r0, #14
 428              	.LVL63:
 429 0236 FFF7FEFF 		bl	_test_assert
 430 023a 0028     		cmp	r0, #0
 431 023c 7FF434AF 		bne	.L1
 432              		.loc 1 135 0
 433 0240 2968     		ldr	r1, [r5, #0]
 434 0242 AA68     		ldr	r2, [r5, #8]
 435 0244 C2EB010C 		rsb	ip, r2, r1
 436 0248 0F30     		adds	r0, r0, #15
 437 024a DCF1000E 		rsbs	lr, ip, #0
 438 024e 4EEB0C01 		adc	r1, lr, ip
 439 0252 FFF7FEFF 		bl	_test_assert
 440 0256 0028     		cmp	r0, #0
 441 0258 7FF426AF 		bne	.L1
 442              		.loc 1 136 0
 443 025c 2968     		ldr	r1, [r5, #0]
 444 025e EA68     		ldr	r2, [r5, #12]
 445 0260 8B1A     		subs	r3, r1, r2
 446 0262 1030     		adds	r0, r0, #16
 447 0264 D3F1000E 		rsbs	lr, r3, #0
 448 0268 4EEB0301 		adc	r1, lr, r3
 449 026c FFF7FEFF 		bl	_test_assert
 450 0270 0028     		cmp	r0, #0
 451 0272 7FF419AF 		bne	.L1
 452              		.loc 1 141 0
ARM GAS  C:\Users\DNIEL~1\AppData\Local\Temp\ccXA0XlR.s 			page 9


 453 0276 0122     		movs	r2, #1
 454 0278 01A9     		add	r1, sp, #4
 455 027a 2846     		mov	r0, r5
 456 027c FFF7FEFF 		bl	chMBFetch
 457              	.LVL64:
 458              		.loc 1 142 0
 459 0280 A0F1FF30 		sub	r0, r0, #-1
 460              	.LVL65:
 461 0284 4642     		rsbs	r6, r0, #0
 462              	.LVL66:
 463 0286 46EB0001 		adc	r1, r6, r0
 464 028a 1120     		movs	r0, #17
 465              	.LVL67:
 466 028c FFF7FEFF 		bl	_test_assert
 467 0290 0646     		mov	r6, r0
 468 0292 0028     		cmp	r0, #0
 469 0294 7FF408AF 		bne	.L1
 470              	.LBB16:
 471              		.loc 1 143 0
 472 0298 2023     		movs	r3, #32
 473              	.LVL68:
 474              	@ 143 "../../../ChibiOS/test/testmbox.c" 1
 475 029a 83F31188 		msr     BASEPRI, r3
 476              	@ 0 "" 2
 477              	.LVL69:
 478              		.thumb
 479              	.LBE16:
 480              		.loc 1 144 0
 481 029e 2846     		mov	r0, r5
 482 02a0 01A9     		add	r1, sp, #4
 483 02a2 FFF7FEFF 		bl	chMBFetchI
 484              	.LVL70:
 485              	.LBB17:
 486              		.loc 1 145 0
 487 02a6 3346     		mov	r3, r6
 488              	.LVL71:
 489              	.LBE17:
 490              		.loc 1 144 0
 491 02a8 0246     		mov	r2, r0
 492              	.LVL72:
 493              	.LBB18:
 494              		.loc 1 145 0
 495              	@ 145 "../../../ChibiOS/test/testmbox.c" 1
 496 02aa 83F31188 		msr     BASEPRI, r3
 497              	@ 0 "" 2
 498              	.LVL73:
 499              		.thumb
 500              	.LBE18:
 501              		.loc 1 146 0
 502 02ae A2F1FF3E 		sub	lr, r2, #-1
 503 02b2 1220     		movs	r0, #18
 504              	.LVL74:
 505 02b4 DEF1000C 		rsbs	ip, lr, #0
 506 02b8 4CEB0E01 		adc	r1, ip, lr
 507 02bc FFF7FEFF 		bl	_test_assert
 508              	.LVL75:
 509 02c0 0028     		cmp	r0, #0
ARM GAS  C:\Users\DNIEL~1\AppData\Local\Temp\ccXA0XlR.s 			page 10


 510 02c2 7FF4F1AE 		bne	.L1
 511              	.LBB19:
 512              		.loc 1 151 0
 513 02c6 2023     		movs	r3, #32
 514              	.LVL76:
 515              	@ 151 "../../../ChibiOS/test/testmbox.c" 1
 516 02c8 83F31188 		msr     BASEPRI, r3
 517              	@ 0 "" 2
 518              	.LVL77:
 519              		.thumb
 520              	.LBE19:
 521 02cc 6A6A     		ldr	r2, [r5, #36]
 522 02ce A2F10501 		sub	r1, r2, #5
 523 02d2 1330     		adds	r0, r0, #19
 524 02d4 4B42     		rsbs	r3, r1, #0
 525              	.LVL78:
 526 02d6 43EB0101 		adc	r1, r3, r1
 527 02da FFF7FEFF 		bl	_test_assert
 528 02de 58B1     		cbz	r0, .L7
 529              	.LBB20:
 530              		.loc 1 151 0 is_stmt 0 discriminator 1
 531 02e0 0023     		movs	r3, #0
 532              	@ 151 "../../../ChibiOS/test/testmbox.c" 1
 533 02e2 83F31188 		msr     BASEPRI, r3
 534              	@ 0 "" 2
 535              	.LVL79:
 536              		.thumb
 537              	.LBE20:
 538 02e6 DFE6     		b	.L1
 539              	.LVL80:
 540              	.L25:
 541              	.LBB21:
 542              		.loc 1 116 0 is_stmt 1 discriminator 1
 543 02e8 2B46     		mov	r3, r5
 544              	@ 116 "../../../ChibiOS/test/testmbox.c" 1
 545 02ea 83F31188 		msr     BASEPRI, r3
 546              	@ 0 "" 2
 547              	.LVL81:
 548              		.thumb
 549              	.LBE21:
 550 02ee DBE6     		b	.L1
 551              	.L27:
 552              		.align	2
 553              	.L26:
 554 02f0 00000000 		.word	.LANCHOR0
 555 02f4 00000000 		.word	.LC0
 556              	.LVL82:
 557              	.L7:
 558              	.LBB22:
 559              		.loc 1 151 0 discriminator 2
 560 02f8 0023     		movs	r3, #0
 561              	.LVL83:
 562              	@ 151 "../../../ChibiOS/test/testmbox.c" 1
 563 02fa 83F31188 		msr     BASEPRI, r3
 564              	@ 0 "" 2
 565              	.LVL84:
 566              		.thumb
ARM GAS  C:\Users\DNIEL~1\AppData\Local\Temp\ccXA0XlR.s 			page 11


 567              	.LBE22:
 568              	.LBB23:
 569              		.loc 1 152 0 discriminator 2
 570 02fe 2033     		adds	r3, r3, #32
 571              	.LVL85:
 572              	@ 152 "../../../ChibiOS/test/testmbox.c" 1
 573 0300 83F31188 		msr     BASEPRI, r3
 574              	@ 0 "" 2
 575              		.thumb
 576              	.LBE23:
 577 0304 A569     		ldr	r5, [r4, #24]
 578 0306 C34C     		ldr	r4, .L28
 579 0308 1420     		movs	r0, #20
 580 030a D5F10101 		rsbs	r1, r5, #1
 581 030e 38BF     		it	cc
 582 0310 0021     		movcc	r1, #0
 583 0312 FFF7FEFF 		bl	_test_assert
 584              	.LVL86:
 585 0316 0546     		mov	r5, r0
 586 0318 18B1     		cbz	r0, .L8
 587              	.LBB24:
 588              		.loc 1 152 0 is_stmt 0 discriminator 1
 589 031a 0023     		movs	r3, #0
 590              	@ 152 "../../../ChibiOS/test/testmbox.c" 1
 591 031c 83F31188 		msr     BASEPRI, r3
 592              	@ 0 "" 2
 593              	.LVL87:
 594              		.thumb
 595              	.LBE24:
 596 0320 C2E6     		b	.L1
 597              	.LVL88:
 598              	.L8:
 599              	.LBB25:
 600              		.loc 1 152 0 discriminator 2
 601 0322 0346     		mov	r3, r0
 602              	.LVL89:
 603              	@ 152 "../../../ChibiOS/test/testmbox.c" 1
 604 0324 83F31188 		msr     BASEPRI, r3
 605              	@ 0 "" 2
 606              	.LVL90:
 607              		.thumb
 608              	.LBE25:
 609              	.LBB26:
 610              		.loc 1 153 0 is_stmt 1 discriminator 2
 611 0328 2023     		movs	r3, #32
 612              	.LVL91:
 613              	@ 153 "../../../ChibiOS/test/testmbox.c" 1
 614 032a 83F31188 		msr     BASEPRI, r3
 615              	@ 0 "" 2
 616              	.LVL92:
 617              		.thumb
 618              	.LBE26:
 619 032e E168     		ldr	r1, [r4, #12]
 620 0330 A368     		ldr	r3, [r4, #8]
 621              	.LVL93:
 622 0332 C3EB010E 		rsb	lr, r3, r1
 623 0336 1520     		movs	r0, #21
ARM GAS  C:\Users\DNIEL~1\AppData\Local\Temp\ccXA0XlR.s 			page 12


 624 0338 DEF1000C 		rsbs	ip, lr, #0
 625 033c 4CEB0E01 		adc	r1, ip, lr
 626 0340 FFF7FEFF 		bl	_test_assert
 627 0344 0346     		mov	r3, r0
 628 0346 18B1     		cbz	r0, .L9
 629              	.LBB27:
 630              		.loc 1 153 0 is_stmt 0 discriminator 1
 631 0348 2B46     		mov	r3, r5
 632              	@ 153 "../../../ChibiOS/test/testmbox.c" 1
 633 034a 83F31188 		msr     BASEPRI, r3
 634              	@ 0 "" 2
 635              	.LVL94:
 636              		.thumb
 637              	.LBE27:
 638 034e ABE6     		b	.L1
 639              	.LVL95:
 640              	.L9:
 641              	.LBB28:
 642              		.loc 1 153 0 discriminator 2
 643              	@ 153 "../../../ChibiOS/test/testmbox.c" 1
 644 0350 83F31188 		msr     BASEPRI, r3
 645              	@ 0 "" 2
 646              	.LVL96:
 647              		.thumb
 648              	.LBE28:
 649              	.LBB29:
 650              		.loc 1 158 0 is_stmt 1 discriminator 2
 651 0354 2023     		movs	r3, #32
 652              	.LVL97:
 653              	@ 158 "../../../ChibiOS/test/testmbox.c" 1
 654 0356 83F31188 		msr     BASEPRI, r3
 655              	@ 0 "" 2
 656              	.LVL98:
 657              		.thumb
 658              	.LBE29:
 659              		.loc 1 159 0 discriminator 2
 660 035a 4121     		movs	r1, #65
 661 035c 2046     		mov	r0, r4
 662 035e FFF7FEFF 		bl	chMBPostI
 663              	.LVL99:
 664              		.loc 1 160 0 discriminator 2
 665 0362 D0F10101 		rsbs	r1, r0, #1
 666 0366 38BF     		it	cc
 667 0368 0021     		movcc	r1, #0
 668 036a 1620     		movs	r0, #22
 669              	.LVL100:
 670 036c FFF7FEFF 		bl	_test_assert
 671 0370 0028     		cmp	r0, #0
 672 0372 7FF499AE 		bne	.L1
 673              		.loc 1 161 0
 674 0376 4221     		movs	r1, #66
 675 0378 2046     		mov	r0, r4
 676 037a FFF7FEFF 		bl	chMBPostI
 677              	.LVL101:
 678              		.loc 1 162 0
 679 037e D0F10101 		rsbs	r1, r0, #1
 680 0382 38BF     		it	cc
ARM GAS  C:\Users\DNIEL~1\AppData\Local\Temp\ccXA0XlR.s 			page 13


 681 0384 0021     		movcc	r1, #0
 682 0386 1720     		movs	r0, #23
 683              	.LVL102:
 684 0388 FFF7FEFF 		bl	_test_assert
 685 038c 0028     		cmp	r0, #0
 686 038e 7FF48BAE 		bne	.L1
 687              		.loc 1 163 0
 688 0392 4321     		movs	r1, #67
 689 0394 2046     		mov	r0, r4
 690 0396 FFF7FEFF 		bl	chMBPostI
 691              	.LVL103:
 692              		.loc 1 164 0
 693 039a D0F10101 		rsbs	r1, r0, #1
 694 039e 38BF     		it	cc
 695 03a0 0021     		movcc	r1, #0
 696 03a2 1820     		movs	r0, #24
 697              	.LVL104:
 698 03a4 FFF7FEFF 		bl	_test_assert
 699 03a8 0028     		cmp	r0, #0
 700 03aa 7FF47DAE 		bne	.L1
 701              		.loc 1 165 0
 702 03ae 4421     		movs	r1, #68
 703 03b0 2046     		mov	r0, r4
 704 03b2 FFF7FEFF 		bl	chMBPostI
 705              	.LVL105:
 706              		.loc 1 166 0
 707 03b6 D0F10101 		rsbs	r1, r0, #1
 708 03ba 38BF     		it	cc
 709 03bc 0021     		movcc	r1, #0
 710 03be 1920     		movs	r0, #25
 711              	.LVL106:
 712 03c0 FFF7FEFF 		bl	_test_assert
 713 03c4 0546     		mov	r5, r0
 714 03c6 0028     		cmp	r0, #0
 715 03c8 7FF46EAE 		bne	.L1
 716              		.loc 1 167 0
 717 03cc 2046     		mov	r0, r4
 718 03ce 4521     		movs	r1, #69
 719 03d0 FFF7FEFF 		bl	chMBPostI
 720              	.LBB30:
 721              		.loc 1 168 0
 722 03d4 2B46     		mov	r3, r5
 723              	.LVL107:
 724              	.LBE30:
 725              		.loc 1 167 0
 726 03d6 0246     		mov	r2, r0
 727              	.LVL108:
 728              	.LBB31:
 729              		.loc 1 168 0
 730              	@ 168 "../../../ChibiOS/test/testmbox.c" 1
 731 03d8 83F31188 		msr     BASEPRI, r3
 732              	@ 0 "" 2
 733              	.LVL109:
 734              		.thumb
 735              	.LBE31:
 736              		.loc 1 169 0
 737 03dc 1A20     		movs	r0, #26
ARM GAS  C:\Users\DNIEL~1\AppData\Local\Temp\ccXA0XlR.s 			page 14


 738              	.LVL110:
 739 03de D2F10101 		rsbs	r1, r2, #1
 740 03e2 38BF     		it	cc
 741 03e4 0021     		movcc	r1, #0
 742 03e6 FFF7FEFF 		bl	_test_assert
 743              	.LVL111:
 744 03ea 0028     		cmp	r0, #0
 745 03ec 7FF45CAE 		bne	.L1
 746              		.loc 1 170 0
 747 03f0 E168     		ldr	r1, [r4, #12]
 748 03f2 A368     		ldr	r3, [r4, #8]
 749 03f4 C3EB010C 		rsb	ip, r3, r1
 750 03f8 1B30     		adds	r0, r0, #27
 751 03fa DCF1000E 		rsbs	lr, ip, #0
 752 03fe 4EEB0C01 		adc	r1, lr, ip
 753 0402 FFF7FEFF 		bl	_test_assert
 754 0406 0028     		cmp	r0, #0
 755 0408 7FF44EAE 		bne	.L1
 756 040c 0535     		adds	r5, r5, #5
 757              	.L10:
 758              	.LBB32:
 759              		.loc 1 172 0
 760 040e 2023     		movs	r3, #32
 761              	.LVL112:
 762              	@ 172 "../../../ChibiOS/test/testmbox.c" 1
 763 0410 83F31188 		msr     BASEPRI, r3
 764              	@ 0 "" 2
 765              	.LVL113:
 766              		.thumb
 767              	.LBE32:
 768              		.loc 1 173 0
 769 0414 7F4C     		ldr	r4, .L28
 770 0416 01A9     		add	r1, sp, #4
 771 0418 2046     		mov	r0, r4
 772 041a FFF7FEFF 		bl	chMBFetchI
 773              	.LVL114:
 774              	.LBB33:
 775              		.loc 1 174 0
 776 041e 0023     		movs	r3, #0
 777              	.LVL115:
 778              	.LBE33:
 779              		.loc 1 173 0
 780 0420 8446     		mov	ip, r0
 781              	.LVL116:
 782              	.LBB34:
 783              		.loc 1 174 0
 784              	@ 174 "../../../ChibiOS/test/testmbox.c" 1
 785 0422 83F31188 		msr     BASEPRI, r3
 786              	@ 0 "" 2
 787              	.LVL117:
 788              		.thumb
 789              	.LBE34:
 790              		.loc 1 175 0
 791 0426 C3EB0C0E 		rsb	lr, r3, ip
 792              	.LVL118:
 793 042a 1C20     		movs	r0, #28
 794              	.LVL119:
ARM GAS  C:\Users\DNIEL~1\AppData\Local\Temp\ccXA0XlR.s 			page 15


 795 042c DEF10002 		rsbs	r2, lr, #0
 796 0430 42EB0E01 		adc	r1, r2, lr
 797 0434 FFF7FEFF 		bl	_test_assert
 798              	.LVL120:
 799 0438 0028     		cmp	r0, #0
 800 043a 7FF435AE 		bne	.L1
 801              		.loc 1 176 0
 802 043e 9DF80400 		ldrb	r0, [sp, #4]	@ zero_extendqisi2
 803 0442 FFF7FEFF 		bl	test_emit_token
 804              		.loc 1 171 0
 805 0446 013D     		subs	r5, r5, #1
 806 0448 E1D1     		bne	.L10
 807              		.loc 1 178 0
 808 044a 1D20     		movs	r0, #29
 809 044c 7249     		ldr	r1, .L28+4
 810 044e FFF7FEFF 		bl	_test_assert_sequence
 811 0452 0028     		cmp	r0, #0
 812 0454 7FF428AE 		bne	.L1
 813              	.LBB35:
 814              		.loc 1 179 0
 815 0458 2023     		movs	r3, #32
 816              	.LVL121:
 817              	@ 179 "../../../ChibiOS/test/testmbox.c" 1
 818 045a 83F31188 		msr     BASEPRI, r3
 819              	@ 0 "" 2
 820              	.LVL122:
 821              		.thumb
 822              	.LBE35:
 823 045e 626A     		ldr	r2, [r4, #36]
 824 0460 A2F10503 		sub	r3, r2, #5
 825              	.LVL123:
 826 0464 1E30     		adds	r0, r0, #30
 827 0466 5942     		rsbs	r1, r3, #0
 828 0468 41EB0301 		adc	r1, r1, r3
 829 046c FFF7FEFF 		bl	_test_assert
 830 0470 18B1     		cbz	r0, .L11
 831              	.LBB36:
 832              		.loc 1 179 0 is_stmt 0 discriminator 1
 833 0472 2B46     		mov	r3, r5
 834              	@ 179 "../../../ChibiOS/test/testmbox.c" 1
 835 0474 83F31188 		msr     BASEPRI, r3
 836              	@ 0 "" 2
 837              	.LVL124:
 838              		.thumb
 839              	.LBE36:
 840 0478 16E6     		b	.L1
 841              	.LVL125:
 842              	.L11:
 843              	.LBB37:
 844              		.loc 1 179 0 discriminator 2
 845 047a 2B46     		mov	r3, r5
 846              	.LVL126:
 847              	@ 179 "../../../ChibiOS/test/testmbox.c" 1
 848 047c 83F31188 		msr     BASEPRI, r3
 849              	@ 0 "" 2
 850              	.LVL127:
 851              		.thumb
ARM GAS  C:\Users\DNIEL~1\AppData\Local\Temp\ccXA0XlR.s 			page 16


 852              	.LBE37:
 853              	.LBB38:
 854              		.loc 1 180 0 is_stmt 1 discriminator 2
 855 0480 2023     		movs	r3, #32
 856              	.LVL128:
 857              	@ 180 "../../../ChibiOS/test/testmbox.c" 1
 858 0482 83F31188 		msr     BASEPRI, r3
 859              	@ 0 "" 2
 860              	.LVL129:
 861              		.thumb
 862              	.LBE38:
 863 0486 A169     		ldr	r1, [r4, #24]
 864 0488 1F20     		movs	r0, #31
 865 048a D1F10101 		rsbs	r1, r1, #1
 866 048e 38BF     		it	cc
 867 0490 0021     		movcc	r1, #0
 868 0492 FFF7FEFF 		bl	_test_assert
 869              	.LVL130:
 870 0496 18B1     		cbz	r0, .L12
 871              	.LBB39:
 872              		.loc 1 180 0 is_stmt 0 discriminator 1
 873 0498 2B46     		mov	r3, r5
 874              	@ 180 "../../../ChibiOS/test/testmbox.c" 1
 875 049a 83F31188 		msr     BASEPRI, r3
 876              	@ 0 "" 2
 877              	.LVL131:
 878              		.thumb
 879              	.LBE39:
 880 049e 03E6     		b	.L1
 881              	.LVL132:
 882              	.L12:
 883              	.LBB40:
 884              		.loc 1 180 0 discriminator 2
 885 04a0 2B46     		mov	r3, r5
 886              	.LVL133:
 887              	@ 180 "../../../ChibiOS/test/testmbox.c" 1
 888 04a2 83F31188 		msr     BASEPRI, r3
 889              	@ 0 "" 2
 890              	.LVL134:
 891              		.thumb
 892              	.LBE40:
 893              		.loc 1 181 0 is_stmt 1 discriminator 2
 894 04a6 E268     		ldr	r2, [r4, #12]
 895 04a8 A368     		ldr	r3, [r4, #8]
 896              	.LVL135:
 897 04aa C3EB020C 		rsb	ip, r3, r2
 898 04ae 2020     		movs	r0, #32
 899 04b0 DCF1000E 		rsbs	lr, ip, #0
 900 04b4 4EEB0C01 		adc	r1, lr, ip
 901 04b8 FFF7FEFF 		bl	_test_assert
 902 04bc 0028     		cmp	r0, #0
 903 04be 7FF4F3AD 		bne	.L1
 904              	.LBB41:
 905              		.loc 1 183 0
 906 04c2 2023     		movs	r3, #32
 907              	.LVL136:
 908              	@ 183 "../../../ChibiOS/test/testmbox.c" 1
ARM GAS  C:\Users\DNIEL~1\AppData\Local\Temp\ccXA0XlR.s 			page 17


 909 04c4 83F31188 		msr     BASEPRI, r3
 910              	@ 0 "" 2
 911              	.LVL137:
 912              		.thumb
 913              	.LBE41:
 914              		.loc 1 184 0
 915 04c8 4521     		movs	r1, #69
 916 04ca 2046     		mov	r0, r4
 917 04cc FFF7FEFF 		bl	chMBPostAheadI
 918              	.LVL138:
 919              		.loc 1 185 0
 920 04d0 D0F10101 		rsbs	r1, r0, #1
 921 04d4 38BF     		it	cc
 922 04d6 0021     		movcc	r1, #0
 923 04d8 2120     		movs	r0, #33
 924              	.LVL139:
 925 04da FFF7FEFF 		bl	_test_assert
 926 04de 0028     		cmp	r0, #0
 927 04e0 7FF4E2AD 		bne	.L1
 928              		.loc 1 186 0
 929 04e4 4421     		movs	r1, #68
 930 04e6 2046     		mov	r0, r4
 931 04e8 FFF7FEFF 		bl	chMBPostAheadI
 932              	.LVL140:
 933              		.loc 1 187 0
 934 04ec D0F10101 		rsbs	r1, r0, #1
 935 04f0 38BF     		it	cc
 936 04f2 0021     		movcc	r1, #0
 937 04f4 2220     		movs	r0, #34
 938              	.LVL141:
 939 04f6 FFF7FEFF 		bl	_test_assert
 940 04fa 0028     		cmp	r0, #0
 941 04fc 7FF4D4AD 		bne	.L1
 942              		.loc 1 188 0
 943 0500 4321     		movs	r1, #67
 944 0502 2046     		mov	r0, r4
 945 0504 FFF7FEFF 		bl	chMBPostAheadI
 946              	.LVL142:
 947              		.loc 1 189 0
 948 0508 D0F10101 		rsbs	r1, r0, #1
 949 050c 38BF     		it	cc
 950 050e 0021     		movcc	r1, #0
 951 0510 2320     		movs	r0, #35
 952              	.LVL143:
 953 0512 FFF7FEFF 		bl	_test_assert
 954 0516 0028     		cmp	r0, #0
 955 0518 7FF4C6AD 		bne	.L1
 956              		.loc 1 190 0
 957 051c 4221     		movs	r1, #66
 958 051e 2046     		mov	r0, r4
 959 0520 FFF7FEFF 		bl	chMBPostAheadI
 960              	.LVL144:
 961              		.loc 1 191 0
 962 0524 D0F10101 		rsbs	r1, r0, #1
 963 0528 38BF     		it	cc
 964 052a 0021     		movcc	r1, #0
 965 052c 2420     		movs	r0, #36
ARM GAS  C:\Users\DNIEL~1\AppData\Local\Temp\ccXA0XlR.s 			page 18


 966              	.LVL145:
 967 052e FFF7FEFF 		bl	_test_assert
 968 0532 0028     		cmp	r0, #0
 969 0534 7FF4B8AD 		bne	.L1
 970              		.loc 1 192 0
 971 0538 364C     		ldr	r4, .L28
 972 053a 4121     		movs	r1, #65
 973 053c 2046     		mov	r0, r4
 974 053e FFF7FEFF 		bl	chMBPostAheadI
 975              	.LBB42:
 976              		.loc 1 193 0
 977 0542 0023     		movs	r3, #0
 978              	.LVL146:
 979              	.LBE42:
 980              		.loc 1 192 0
 981 0544 0246     		mov	r2, r0
 982              	.LVL147:
 983              	.LBB43:
 984              		.loc 1 193 0
 985              	@ 193 "../../../ChibiOS/test/testmbox.c" 1
 986 0546 83F31188 		msr     BASEPRI, r3
 987              	@ 0 "" 2
 988              	.LVL148:
 989              		.thumb
 990              	.LBE43:
 991              		.loc 1 194 0
 992 054a C3EB020C 		rsb	ip, r3, r2
 993              	.LVL149:
 994 054e 2520     		movs	r0, #37
 995              	.LVL150:
 996 0550 DCF10001 		rsbs	r1, ip, #0
 997 0554 41EB0C01 		adc	r1, r1, ip
 998 0558 FFF7FEFF 		bl	_test_assert
 999              	.LVL151:
 1000 055c 0028     		cmp	r0, #0
 1001 055e 7FF4A3AD 		bne	.L1
 1002              		.loc 1 195 0
 1003 0562 E168     		ldr	r1, [r4, #12]
 1004 0564 A268     		ldr	r2, [r4, #8]
 1005 0566 C2EB010E 		rsb	lr, r2, r1
 1006 056a 2630     		adds	r0, r0, #38
 1007 056c DEF10003 		rsbs	r3, lr, #0
 1008 0570 43EB0E01 		adc	r1, r3, lr
 1009 0574 FFF7FEFF 		bl	_test_assert
 1010 0578 0028     		cmp	r0, #0
 1011 057a 7FF495AD 		bne	.L1
 1012 057e 0524     		movs	r4, #5
 1013              	.L13:
 1014              	.LBB44:
 1015              		.loc 1 197 0
 1016 0580 2023     		movs	r3, #32
 1017              	.LVL152:
 1018              	@ 197 "../../../ChibiOS/test/testmbox.c" 1
 1019 0582 83F31188 		msr     BASEPRI, r3
 1020              	@ 0 "" 2
 1021              	.LVL153:
 1022              		.thumb
ARM GAS  C:\Users\DNIEL~1\AppData\Local\Temp\ccXA0XlR.s 			page 19


 1023              	.LBE44:
 1024              		.loc 1 198 0
 1025 0586 234D     		ldr	r5, .L28
 1026 0588 01A9     		add	r1, sp, #4
 1027 058a 2846     		mov	r0, r5
 1028 058c FFF7FEFF 		bl	chMBFetchI
 1029              	.LVL154:
 1030              	.LBB45:
 1031              		.loc 1 199 0
 1032 0590 0023     		movs	r3, #0
 1033              	.LVL155:
 1034              	.LBE45:
 1035              		.loc 1 198 0
 1036 0592 0146     		mov	r1, r0
 1037              	.LVL156:
 1038              	.LBB46:
 1039              		.loc 1 199 0
 1040              	@ 199 "../../../ChibiOS/test/testmbox.c" 1
 1041 0594 83F31188 		msr     BASEPRI, r3
 1042              	@ 0 "" 2
 1043              	.LVL157:
 1044              		.thumb
 1045              	.LBE46:
 1046              		.loc 1 200 0
 1047 0598 CB1A     		subs	r3, r1, r3
 1048              	.LVL158:
 1049 059a 2720     		movs	r0, #39
 1050              	.LVL159:
 1051 059c D3F1000C 		rsbs	ip, r3, #0
 1052 05a0 4CEB0301 		adc	r1, ip, r3
 1053              	.LVL160:
 1054 05a4 FFF7FEFF 		bl	_test_assert
 1055              	.LVL161:
 1056 05a8 0028     		cmp	r0, #0
 1057 05aa 7FF47DAD 		bne	.L1
 1058              		.loc 1 201 0
 1059 05ae 9DF80400 		ldrb	r0, [sp, #4]	@ zero_extendqisi2
 1060 05b2 FFF7FEFF 		bl	test_emit_token
 1061              		.loc 1 196 0
 1062 05b6 013C     		subs	r4, r4, #1
 1063 05b8 E2D1     		bne	.L13
 1064              		.loc 1 203 0
 1065 05ba 2820     		movs	r0, #40
 1066 05bc 1649     		ldr	r1, .L28+4
 1067 05be FFF7FEFF 		bl	_test_assert_sequence
 1068 05c2 0028     		cmp	r0, #0
 1069 05c4 7FF470AD 		bne	.L1
 1070              	.LBB47:
 1071              		.loc 1 204 0
 1072 05c8 2023     		movs	r3, #32
 1073              	.LVL162:
 1074              	@ 204 "../../../ChibiOS/test/testmbox.c" 1
 1075 05ca 83F31188 		msr     BASEPRI, r3
 1076              	@ 0 "" 2
 1077              	.LVL163:
 1078              		.thumb
 1079              	.LBE47:
ARM GAS  C:\Users\DNIEL~1\AppData\Local\Temp\ccXA0XlR.s 			page 20


 1080 05ce 6B6A     		ldr	r3, [r5, #36]
 1081              	.LVL164:
 1082 05d0 A3F10502 		sub	r2, r3, #5
 1083 05d4 2930     		adds	r0, r0, #41
 1084 05d6 D2F1000E 		rsbs	lr, r2, #0
 1085 05da 4EEB0201 		adc	r1, lr, r2
 1086 05de FFF7FEFF 		bl	_test_assert
 1087 05e2 18B1     		cbz	r0, .L14
 1088              	.LBB48:
 1089              		.loc 1 204 0 is_stmt 0 discriminator 1
 1090 05e4 2346     		mov	r3, r4
 1091              	@ 204 "../../../ChibiOS/test/testmbox.c" 1
 1092 05e6 83F31188 		msr     BASEPRI, r3
 1093              	@ 0 "" 2
 1094              	.LVL165:
 1095              		.thumb
 1096              	.LBE48:
 1097 05ea 5DE5     		b	.L1
 1098              	.LVL166:
 1099              	.L14:
 1100              	.LBB49:
 1101              		.loc 1 204 0 discriminator 2
 1102 05ec 2346     		mov	r3, r4
 1103              	.LVL167:
 1104              	@ 204 "../../../ChibiOS/test/testmbox.c" 1
 1105 05ee 83F31188 		msr     BASEPRI, r3
 1106              	@ 0 "" 2
 1107              	.LVL168:
 1108              		.thumb
 1109              	.LBE49:
 1110              	.LBB50:
 1111              		.loc 1 205 0 is_stmt 1 discriminator 2
 1112 05f2 2023     		movs	r3, #32
 1113              	.LVL169:
 1114              	@ 205 "../../../ChibiOS/test/testmbox.c" 1
 1115 05f4 83F31188 		msr     BASEPRI, r3
 1116              	@ 0 "" 2
 1117              	.LVL170:
 1118              		.thumb
 1119              	.LBE50:
 1120 05f8 A969     		ldr	r1, [r5, #24]
 1121 05fa 2A20     		movs	r0, #42
 1122 05fc D1F10101 		rsbs	r1, r1, #1
 1123 0600 38BF     		it	cc
 1124 0602 0021     		movcc	r1, #0
 1125 0604 FFF7FEFF 		bl	_test_assert
 1126              	.LVL171:
 1127 0608 40B1     		cbz	r0, .L15
 1128              	.LBB51:
 1129              		.loc 1 205 0 is_stmt 0 discriminator 1
 1130 060a 2346     		mov	r3, r4
 1131              	@ 205 "../../../ChibiOS/test/testmbox.c" 1
 1132 060c 83F31188 		msr     BASEPRI, r3
 1133              	@ 0 "" 2
 1134              	.LVL172:
 1135              		.thumb
 1136              	.LBE51:
ARM GAS  C:\Users\DNIEL~1\AppData\Local\Temp\ccXA0XlR.s 			page 21


 1137 0610 4AE5     		b	.L1
 1138              	.L29:
 1139 0612 00BF     		.align	2
 1140              	.L28:
 1141 0614 00000000 		.word	.LANCHOR0
 1142 0618 00000000 		.word	.LC0
 1143              	.LVL173:
 1144              	.L15:
 1145              	.LBB52:
 1146              		.loc 1 205 0 discriminator 2
 1147 061c 2346     		mov	r3, r4
 1148              	.LVL174:
 1149              	@ 205 "../../../ChibiOS/test/testmbox.c" 1
 1150 061e 83F31188 		msr     BASEPRI, r3
 1151              	@ 0 "" 2
 1152              	.LVL175:
 1153              		.thumb
 1154              	.LBE52:
 1155              		.loc 1 206 0 is_stmt 1 discriminator 2
 1156 0622 EA68     		ldr	r2, [r5, #12]
 1157 0624 AB68     		ldr	r3, [r5, #8]
 1158              	.LVL176:
 1159 0626 C3EB020C 		rsb	ip, r3, r2
 1160 062a 2B20     		movs	r0, #43
 1161 062c DCF1000E 		rsbs	lr, ip, #0
 1162 0630 4EEB0C01 		adc	r1, lr, ip
 1163 0634 FFF7FEFF 		bl	_test_assert
 1164 0638 0028     		cmp	r0, #0
 1165 063a 7FF435AD 		bne	.L1
 1166              		.loc 1 211 0
 1167 063e 2846     		mov	r0, r5
 1168 0640 FFF7FEFF 		bl	chMBReset
 1169              	.LBB53:
 1170              		.loc 1 216 0
 1171 0644 2023     		movs	r3, #32
 1172              	.LVL177:
 1173              	@ 216 "../../../ChibiOS/test/testmbox.c" 1
 1174 0646 83F31188 		msr     BASEPRI, r3
 1175              	@ 0 "" 2
 1176              	.LVL178:
 1177              		.thumb
 1178              	.LBE53:
 1179 064a 6A6A     		ldr	r2, [r5, #36]
 1180 064c A2F1050E 		sub	lr, r2, #5
 1181 0650 2C20     		movs	r0, #44
 1182 0652 DEF10001 		rsbs	r1, lr, #0
 1183 0656 41EB0E01 		adc	r1, r1, lr
 1184 065a FFF7FEFF 		bl	_test_assert
 1185              	.LVL179:
 1186 065e 18B1     		cbz	r0, .L16
 1187              	.LBB54:
 1188              		.loc 1 216 0 is_stmt 0 discriminator 1
 1189 0660 2346     		mov	r3, r4
 1190              	@ 216 "../../../ChibiOS/test/testmbox.c" 1
 1191 0662 83F31188 		msr     BASEPRI, r3
 1192              	@ 0 "" 2
 1193              	.LVL180:
ARM GAS  C:\Users\DNIEL~1\AppData\Local\Temp\ccXA0XlR.s 			page 22


 1194              		.thumb
 1195              	.LBE54:
 1196 0666 1FE5     		b	.L1
 1197              	.LVL181:
 1198              	.L16:
 1199              	.LBB55:
 1200              		.loc 1 216 0 discriminator 2
 1201 0668 2346     		mov	r3, r4
 1202              	.LVL182:
 1203              	@ 216 "../../../ChibiOS/test/testmbox.c" 1
 1204 066a 83F31188 		msr     BASEPRI, r3
 1205              	@ 0 "" 2
 1206              	.LVL183:
 1207              		.thumb
 1208              	.LBE55:
 1209              	.LBB56:
 1210              		.loc 1 217 0 is_stmt 1 discriminator 2
 1211 066e 2023     		movs	r3, #32
 1212              	.LVL184:
 1213              	@ 217 "../../../ChibiOS/test/testmbox.c" 1
 1214 0670 83F31188 		msr     BASEPRI, r3
 1215              	@ 0 "" 2
 1216              	.LVL185:
 1217              		.thumb
 1218              	.LBE56:
 1219 0674 AB69     		ldr	r3, [r5, #24]
 1220              	.LVL186:
 1221 0676 2D20     		movs	r0, #45
 1222 0678 D3F10101 		rsbs	r1, r3, #1
 1223 067c 38BF     		it	cc
 1224 067e 0021     		movcc	r1, #0
 1225 0680 FFF7FEFF 		bl	_test_assert
 1226 0684 18B1     		cbz	r0, .L17
 1227              	.LBB57:
 1228              		.loc 1 217 0 is_stmt 0 discriminator 1
 1229 0686 2346     		mov	r3, r4
 1230              	@ 217 "../../../ChibiOS/test/testmbox.c" 1
 1231 0688 83F31188 		msr     BASEPRI, r3
 1232              	@ 0 "" 2
 1233              	.LVL187:
 1234              		.thumb
 1235              	.LBE57:
 1236 068c 0CE5     		b	.L1
 1237              	.LVL188:
 1238              	.L17:
 1239              	.LBB58:
 1240              		.loc 1 217 0 discriminator 2
 1241 068e 2346     		mov	r3, r4
 1242              	.LVL189:
 1243              	@ 217 "../../../ChibiOS/test/testmbox.c" 1
 1244 0690 83F31188 		msr     BASEPRI, r3
 1245              	@ 0 "" 2
 1246              	.LVL190:
 1247              		.thumb
 1248              	.LBE58:
 1249              	.LBB59:
 1250              		.loc 1 218 0 is_stmt 1 discriminator 2
ARM GAS  C:\Users\DNIEL~1\AppData\Local\Temp\ccXA0XlR.s 			page 23


 1251 0694 2023     		movs	r3, #32
 1252              	.LVL191:
 1253              	@ 218 "../../../ChibiOS/test/testmbox.c" 1
 1254 0696 83F31188 		msr     BASEPRI, r3
 1255              	@ 0 "" 2
 1256              	.LVL192:
 1257              		.thumb
 1258              	.LBE59:
 1259 069a 2A68     		ldr	r2, [r5, #0]
 1260 069c AB68     		ldr	r3, [r5, #8]
 1261              	.LVL193:
 1262 069e D11A     		subs	r1, r2, r3
 1263 06a0 2E20     		movs	r0, #46
 1264 06a2 D1F1000C 		rsbs	ip, r1, #0
 1265 06a6 4CEB0101 		adc	r1, ip, r1
 1266 06aa FFF7FEFF 		bl	_test_assert
 1267 06ae 18B1     		cbz	r0, .L18
 1268              	.LBB60:
 1269              		.loc 1 218 0 is_stmt 0 discriminator 1
 1270 06b0 2346     		mov	r3, r4
 1271              	@ 218 "../../../ChibiOS/test/testmbox.c" 1
 1272 06b2 83F31188 		msr     BASEPRI, r3
 1273              	@ 0 "" 2
 1274              	.LVL194:
 1275              		.thumb
 1276              	.LBE60:
 1277 06b6 F7E4     		b	.L1
 1278              	.LVL195:
 1279              	.L18:
 1280              	.LBB61:
 1281              		.loc 1 218 0 discriminator 2
 1282 06b8 2346     		mov	r3, r4
 1283              	.LVL196:
 1284              	@ 218 "../../../ChibiOS/test/testmbox.c" 1
 1285 06ba 83F31188 		msr     BASEPRI, r3
 1286              	@ 0 "" 2
 1287              	.LVL197:
 1288              		.thumb
 1289              	.LBE61:
 1290              	.LBB62:
 1291              		.loc 1 219 0 is_stmt 1 discriminator 2
 1292 06be 2023     		movs	r3, #32
 1293              	.LVL198:
 1294              	@ 219 "../../../ChibiOS/test/testmbox.c" 1
 1295 06c0 83F31188 		msr     BASEPRI, r3
 1296              	@ 0 "" 2
 1297              	.LVL199:
 1298              		.thumb
 1299              	.LBE62:
 1300 06c4 2968     		ldr	r1, [r5, #0]
 1301 06c6 EA68     		ldr	r2, [r5, #12]
 1302 06c8 C2EB010C 		rsb	ip, r2, r1
 1303 06cc 2F20     		movs	r0, #47
 1304 06ce DCF1000E 		rsbs	lr, ip, #0
 1305 06d2 4EEB0C01 		adc	r1, lr, ip
 1306 06d6 FFF7FEFF 		bl	_test_assert
 1307              	.LVL200:
ARM GAS  C:\Users\DNIEL~1\AppData\Local\Temp\ccXA0XlR.s 			page 24


 1308              	.LBB63:
 1309 06da 0023     		movs	r3, #0
 1310              	@ 219 "../../../ChibiOS/test/testmbox.c" 1
 1311 06dc 83F31188 		msr     BASEPRI, r3
 1312              	@ 0 "" 2
 1313              	.LVL201:
 1314              		.thumb
 1315 06e0 E2E4     		b	.L1
 1316              	.LBE63:
 1317              		.cfi_endproc
 1318              	.LFE8:
 1319              		.size	mbox1_execute, .-mbox1_execute
 1320 06e2 00BFAFF3 		.section	.text.mbox1_setup,"ax",%progbits
 1320      0080AFF3 
 1320      0080AFF3 
 1320      0080
 1321              		.align	2
 1322              		.p2align 4,,15
 1323              		.thumb
 1324              		.thumb_func
 1325              		.type	mbox1_setup, %function
 1326              	mbox1_setup:
 1327              	.LFB7:
 1328              		.loc 1 71 0
 1329              		.cfi_startproc
 1330              		@ args = 0, pretend = 0, frame = 0
 1331              		@ frame_needed = 0, uses_anonymous_args = 0
 1332              		@ link register save eliminated.
 1333              		.loc 1 73 0
 1334 0000 0248     		ldr	r0, .L31
 1335 0002 0349     		ldr	r1, .L31+4
 1336 0004 0522     		movs	r2, #5
 1337              		.loc 1 74 0
 1338              		.loc 1 73 0
 1339 0006 FFF7FEBF 		b	chMBInit
 1340              	.L32:
 1341 000a 00BF     		.align	2
 1342              	.L31:
 1343 000c 00000000 		.word	.LANCHOR0
 1344 0010 00000000 		.word	test
 1345              		.cfi_endproc
 1346              	.LFE7:
 1347              		.size	mbox1_setup, .-mbox1_setup
 1348              		.global	testmbox1
 1349              		.global	patternmbox
 1350 0014 AFF30080 		.section	.data.mb1,"aw",%progbits
 1350      AFF30080 
 1350      AFF30080 
 1351              		.align	2
 1352              		.set	.LANCHOR0,. + 0
 1353              		.type	mb1, %object
 1354              		.size	mb1, 40
 1355              	mb1:
 1356 0000 00000000 		.word	test
 1357 0004 14000000 		.word	test+20
 1358 0008 00000000 		.word	test
 1359 000c 00000000 		.word	test
ARM GAS  C:\Users\DNIEL~1\AppData\Local\Temp\ccXA0XlR.s 			page 25


 1360 0010 10000000 		.word	mb1+16
 1361 0014 10000000 		.word	mb1+16
 1362 0018 00000000 		.word	0
 1363 001c 1C000000 		.word	mb1+28
 1364 0020 1C000000 		.word	mb1+28
 1365 0024 05000000 		.word	5
 1366              		.section	.rodata.patternmbox,"a",%progbits
 1367              		.align	2
 1368              		.type	patternmbox, %object
 1369              		.size	patternmbox, 8
 1370              	patternmbox:
 1371 0000 00000000 		.word	testmbox1
 1372 0004 00000000 		.word	0
 1373              		.section	.rodata.str1.4,"aMS",%progbits,1
 1374              		.align	2
 1375              	.LC0:
 1376 0000 41424344 		.ascii	"ABCDE\000"
 1376      4500
 1377 0006 0000     		.space	2
 1378              	.LC1:
 1379 0008 4D61696C 		.ascii	"Mailboxes, queuing and timeouts\000"
 1379      626F7865 
 1379      732C2071 
 1379      75657569 
 1379      6E672061 
 1380              		.section	.rodata.testmbox1,"a",%progbits
 1381              		.align	2
 1382              		.type	testmbox1, %object
 1383              		.size	testmbox1, 16
 1384              	testmbox1:
 1385 0000 08000000 		.word	.LC1
 1386 0004 00000000 		.word	mbox1_setup
 1387 0008 00000000 		.word	0
 1388 000c 00000000 		.word	mbox1_execute
 1389              		.text
 1390              	.Letext0:
 1391              		.section	.debug_loc,"",%progbits
 1392              	.Ldebug_loc0:
 1393              	.LLST0:
 1394 0000 00000000 		.4byte	.LFB8
 1395 0004 02000000 		.4byte	.LCFI0
 1396 0008 0200     		.2byte	0x2
 1397 000a 7D       		.byte	0x7d
 1398 000b 00       		.sleb128 0
 1399 000c 02000000 		.4byte	.LCFI0
 1400 0010 14000000 		.4byte	.LCFI1
 1401 0014 0200     		.2byte	0x2
 1402 0016 7D       		.byte	0x7d
 1403 0017 14       		.sleb128 20
 1404 0018 14000000 		.4byte	.LCFI1
 1405 001c E2060000 		.4byte	.LFE8
 1406 0020 0200     		.2byte	0x2
 1407 0022 7D       		.byte	0x7d
 1408 0023 20       		.sleb128 32
 1409 0024 00000000 		.4byte	0x0
 1410 0028 00000000 		.4byte	0x0
 1411              	.LLST1:
ARM GAS  C:\Users\DNIEL~1\AppData\Local\Temp\ccXA0XlR.s 			page 26


 1412 002c 28000000 		.4byte	.LVL0
 1413 0030 32000000 		.4byte	.LVL1
 1414 0034 0100     		.2byte	0x1
 1415 0036 50       		.byte	0x50
 1416 0037 44000000 		.4byte	.LVL3
 1417 003b 4E000000 		.4byte	.LVL4
 1418 003f 0100     		.2byte	0x1
 1419 0041 50       		.byte	0x50
 1420 0042 60000000 		.4byte	.LVL6
 1421 0046 6A000000 		.4byte	.LVL7
 1422 004a 0100     		.2byte	0x1
 1423 004c 50       		.byte	0x50
 1424 004d 7C000000 		.4byte	.LVL9
 1425 0051 86000000 		.4byte	.LVL10
 1426 0055 0100     		.2byte	0x1
 1427 0057 50       		.byte	0x50
 1428 0058 98000000 		.4byte	.LVL12
 1429 005c A2000000 		.4byte	.LVL13
 1430 0060 0100     		.2byte	0x1
 1431 0062 50       		.byte	0x50
 1432 0063 B6000000 		.4byte	.LVL16
 1433 0067 BE000000 		.4byte	.LVL17
 1434 006b 0100     		.2byte	0x1
 1435 006d 50       		.byte	0x50
 1436 006e BE000000 		.4byte	.LVL17
 1437 0072 C7000000 		.4byte	.LVL18-1
 1438 0076 0300     		.2byte	0x3
 1439 0078 7C       		.byte	0x7c
 1440 0079 7F       		.sleb128 -1
 1441 007a 9F       		.byte	0x9f
 1442 007b E0000000 		.4byte	.LVL23
 1443 007f EA000000 		.4byte	.LVL25
 1444 0083 0100     		.2byte	0x1
 1445 0085 50       		.byte	0x50
 1446 0086 EA000000 		.4byte	.LVL25
 1447 008a F5000000 		.4byte	.LVL26-1
 1448 008e 0100     		.2byte	0x1
 1449 0090 52       		.byte	0x52
 1450 0091 04010000 		.4byte	.LVL27
 1451 0095 10010000 		.4byte	.LVL28
 1452 0099 0100     		.2byte	0x1
 1453 009b 50       		.byte	0x50
 1454 009c 10010000 		.4byte	.LVL28
 1455 00a0 13010000 		.4byte	.LVL29-1
 1456 00a4 0300     		.2byte	0x3
 1457 00a6 73       		.byte	0x73
 1458 00a7 7F       		.sleb128 -1
 1459 00a8 9F       		.byte	0x9f
 1460 00a9 2C010000 		.4byte	.LVL34
 1461 00ad 36010000 		.4byte	.LVL36
 1462 00b1 0100     		.2byte	0x1
 1463 00b3 50       		.byte	0x50
 1464 00b4 36010000 		.4byte	.LVL36
 1465 00b8 41010000 		.4byte	.LVL37-1
 1466 00bc 0100     		.2byte	0x1
 1467 00be 52       		.byte	0x52
 1468 00bf D0010000 		.4byte	.LVL57
ARM GAS  C:\Users\DNIEL~1\AppData\Local\Temp\ccXA0XlR.s 			page 27


 1469 00c3 DA010000 		.4byte	.LVL58
 1470 00c7 0100     		.2byte	0x1
 1471 00c9 50       		.byte	0x50
 1472 00ca 0C020000 		.4byte	.LVL60
 1473 00ce 16020000 		.4byte	.LVL61
 1474 00d2 0100     		.2byte	0x1
 1475 00d4 50       		.byte	0x50
 1476 00d5 2C020000 		.4byte	.LVL62
 1477 00d9 36020000 		.4byte	.LVL63
 1478 00dd 0100     		.2byte	0x1
 1479 00df 50       		.byte	0x50
 1480 00e0 80020000 		.4byte	.LVL64
 1481 00e4 84020000 		.4byte	.LVL65
 1482 00e8 0100     		.2byte	0x1
 1483 00ea 50       		.byte	0x50
 1484 00eb 84020000 		.4byte	.LVL65
 1485 00ef 8C020000 		.4byte	.LVL67
 1486 00f3 0300     		.2byte	0x3
 1487 00f5 70       		.byte	0x70
 1488 00f6 7F       		.sleb128 -1
 1489 00f7 9F       		.byte	0x9f
 1490 00f8 AA020000 		.4byte	.LVL72
 1491 00fc B4020000 		.4byte	.LVL74
 1492 0100 0100     		.2byte	0x1
 1493 0102 50       		.byte	0x50
 1494 0103 B4020000 		.4byte	.LVL74
 1495 0107 BF020000 		.4byte	.LVL75-1
 1496 010b 0100     		.2byte	0x1
 1497 010d 52       		.byte	0x52
 1498 010e 62030000 		.4byte	.LVL99
 1499 0112 6C030000 		.4byte	.LVL100
 1500 0116 0100     		.2byte	0x1
 1501 0118 50       		.byte	0x50
 1502 0119 7E030000 		.4byte	.LVL101
 1503 011d 88030000 		.4byte	.LVL102
 1504 0121 0100     		.2byte	0x1
 1505 0123 50       		.byte	0x50
 1506 0124 9A030000 		.4byte	.LVL103
 1507 0128 A4030000 		.4byte	.LVL104
 1508 012c 0100     		.2byte	0x1
 1509 012e 50       		.byte	0x50
 1510 012f B6030000 		.4byte	.LVL105
 1511 0133 C0030000 		.4byte	.LVL106
 1512 0137 0100     		.2byte	0x1
 1513 0139 50       		.byte	0x50
 1514 013a D8030000 		.4byte	.LVL108
 1515 013e DE030000 		.4byte	.LVL110
 1516 0142 0100     		.2byte	0x1
 1517 0144 50       		.byte	0x50
 1518 0145 DE030000 		.4byte	.LVL110
 1519 0149 E9030000 		.4byte	.LVL111-1
 1520 014d 0100     		.2byte	0x1
 1521 014f 52       		.byte	0x52
 1522 0150 22040000 		.4byte	.LVL116
 1523 0154 2C040000 		.4byte	.LVL119
 1524 0158 0100     		.2byte	0x1
 1525 015a 50       		.byte	0x50
ARM GAS  C:\Users\DNIEL~1\AppData\Local\Temp\ccXA0XlR.s 			page 28


 1526 015b 2C040000 		.4byte	.LVL119
 1527 015f 37040000 		.4byte	.LVL120-1
 1528 0163 0100     		.2byte	0x1
 1529 0165 5C       		.byte	0x5c
 1530 0166 D0040000 		.4byte	.LVL138
 1531 016a DA040000 		.4byte	.LVL139
 1532 016e 0100     		.2byte	0x1
 1533 0170 50       		.byte	0x50
 1534 0171 EC040000 		.4byte	.LVL140
 1535 0175 F6040000 		.4byte	.LVL141
 1536 0179 0100     		.2byte	0x1
 1537 017b 50       		.byte	0x50
 1538 017c 08050000 		.4byte	.LVL142
 1539 0180 12050000 		.4byte	.LVL143
 1540 0184 0100     		.2byte	0x1
 1541 0186 50       		.byte	0x50
 1542 0187 24050000 		.4byte	.LVL144
 1543 018b 2E050000 		.4byte	.LVL145
 1544 018f 0100     		.2byte	0x1
 1545 0191 50       		.byte	0x50
 1546 0192 46050000 		.4byte	.LVL147
 1547 0196 50050000 		.4byte	.LVL150
 1548 019a 0100     		.2byte	0x1
 1549 019c 50       		.byte	0x50
 1550 019d 50050000 		.4byte	.LVL150
 1551 01a1 5B050000 		.4byte	.LVL151-1
 1552 01a5 0100     		.2byte	0x1
 1553 01a7 52       		.byte	0x52
 1554 01a8 94050000 		.4byte	.LVL156
 1555 01ac 9C050000 		.4byte	.LVL159
 1556 01b0 0100     		.2byte	0x1
 1557 01b2 50       		.byte	0x50
 1558 01b3 9C050000 		.4byte	.LVL159
 1559 01b7 A4050000 		.4byte	.LVL160
 1560 01bb 0100     		.2byte	0x1
 1561 01bd 51       		.byte	0x51
 1562 01be A4050000 		.4byte	.LVL160
 1563 01c2 A7050000 		.4byte	.LVL161-1
 1564 01c6 0100     		.2byte	0x1
 1565 01c8 53       		.byte	0x53
 1566 01c9 00000000 		.4byte	0x0
 1567 01cd 00000000 		.4byte	0x0
 1568              	.LLST2:
 1569 01d1 38000000 		.4byte	.LVL2
 1570 01d5 54000000 		.4byte	.LVL5
 1571 01d9 0200     		.2byte	0x2
 1572 01db 31       		.byte	0x31
 1573 01dc 9F       		.byte	0x9f
 1574 01dd 54000000 		.4byte	.LVL5
 1575 01e1 70000000 		.4byte	.LVL8
 1576 01e5 0200     		.2byte	0x2
 1577 01e7 32       		.byte	0x32
 1578 01e8 9F       		.byte	0x9f
 1579 01e9 70000000 		.4byte	.LVL8
 1580 01ed 8C000000 		.4byte	.LVL11
 1581 01f1 0200     		.2byte	0x2
 1582 01f3 33       		.byte	0x33
ARM GAS  C:\Users\DNIEL~1\AppData\Local\Temp\ccXA0XlR.s 			page 29


 1583 01f4 9F       		.byte	0x9f
 1584 01f5 8C000000 		.4byte	.LVL11
 1585 01f9 A8000000 		.4byte	.LVL14
 1586 01fd 0200     		.2byte	0x2
 1587 01ff 34       		.byte	0x34
 1588 0200 9F       		.byte	0x9f
 1589 0201 AC000000 		.4byte	.LVL15
 1590 0205 C0010000 		.4byte	.LVL55
 1591 0209 0200     		.2byte	0x2
 1592 020b 34       		.byte	0x34
 1593 020c 9F       		.byte	0x9f
 1594 020d C0010000 		.4byte	.LVL55
 1595 0211 C2010000 		.4byte	.LVL56
 1596 0215 0200     		.2byte	0x2
 1597 0217 30       		.byte	0x30
 1598 0218 9F       		.byte	0x9f
 1599 0219 EE010000 		.4byte	.LVL59
 1600 021d 86020000 		.4byte	.LVL66
 1601 0221 0100     		.2byte	0x1
 1602 0223 56       		.byte	0x56
 1603 0224 E8020000 		.4byte	.LVL80
 1604 0228 F8020000 		.4byte	.LVL82
 1605 022c 0200     		.2byte	0x2
 1606 022e 34       		.byte	0x34
 1607 022f 9F       		.byte	0x9f
 1608 0230 00000000 		.4byte	0x0
 1609 0234 00000000 		.4byte	0x0
 1610              	.LLST3:
 1611 0238 D4000000 		.4byte	.LVL20
 1612 023c DB000000 		.4byte	.LVL21-1
 1613 0240 0100     		.2byte	0x1
 1614 0242 53       		.byte	0x53
 1615 0243 00000000 		.4byte	0x0
 1616 0247 00000000 		.4byte	0x0
 1617              	.LLST4:
 1618 024b E4000000 		.4byte	.LVL24
 1619 024f F5000000 		.4byte	.LVL26-1
 1620 0253 0100     		.2byte	0x1
 1621 0255 53       		.byte	0x53
 1622 0256 00000000 		.4byte	0x0
 1623 025a 00000000 		.4byte	0x0
 1624              	.LLST5:
 1625 025e 20010000 		.4byte	.LVL31
 1626 0262 27010000 		.4byte	.LVL32-1
 1627 0266 0100     		.2byte	0x1
 1628 0268 53       		.byte	0x53
 1629 0269 00000000 		.4byte	0x0
 1630 026d 00000000 		.4byte	0x0
 1631              	.LLST6:
 1632 0271 30010000 		.4byte	.LVL35
 1633 0275 41010000 		.4byte	.LVL37-1
 1634 0279 0100     		.2byte	0x1
 1635 027b 53       		.byte	0x53
 1636 027c 00000000 		.4byte	0x0
 1637 0280 00000000 		.4byte	0x0
 1638              	.LLST7:
 1639 0284 4C010000 		.4byte	.LVL39
ARM GAS  C:\Users\DNIEL~1\AppData\Local\Temp\ccXA0XlR.s 			page 30


 1640 0288 5B010000 		.4byte	.LVL40-1
 1641 028c 0100     		.2byte	0x1
 1642 028e 53       		.byte	0x53
 1643 028f 00000000 		.4byte	0x0
 1644 0293 00000000 		.4byte	0x0
 1645              	.LLST8:
 1646 0297 A8000000 		.4byte	.LVL14
 1647 029b AC000000 		.4byte	.LVL15
 1648 029f 0100     		.2byte	0x1
 1649 02a1 53       		.byte	0x53
 1650 02a2 66010000 		.4byte	.LVL41
 1651 02a6 68010000 		.4byte	.LVL42
 1652 02aa 0100     		.2byte	0x1
 1653 02ac 53       		.byte	0x53
 1654 02ad 00000000 		.4byte	0x0
 1655 02b1 00000000 		.4byte	0x0
 1656              	.LLST9:
 1657 02b5 6E010000 		.4byte	.LVL44
 1658 02b9 70010000 		.4byte	.LVL45
 1659 02bd 0100     		.2byte	0x1
 1660 02bf 53       		.byte	0x53
 1661 02c0 00000000 		.4byte	0x0
 1662 02c4 00000000 		.4byte	0x0
 1663              	.LLST10:
 1664 02c8 74010000 		.4byte	.LVL46
 1665 02cc 76010000 		.4byte	.LVL47
 1666 02d0 0100     		.2byte	0x1
 1667 02d2 53       		.byte	0x53
 1668 02d3 00000000 		.4byte	0x0
 1669 02d7 00000000 		.4byte	0x0
 1670              	.LLST11:
 1671 02db A8000000 		.4byte	.LVL14
 1672 02df AC000000 		.4byte	.LVL15
 1673 02e3 0100     		.2byte	0x1
 1674 02e5 53       		.byte	0x53
 1675 02e6 92010000 		.4byte	.LVL48
 1676 02ea 94010000 		.4byte	.LVL49
 1677 02ee 0100     		.2byte	0x1
 1678 02f0 53       		.byte	0x53
 1679 02f1 00000000 		.4byte	0x0
 1680 02f5 00000000 		.4byte	0x0
 1681              	.LLST12:
 1682 02f9 9A010000 		.4byte	.LVL51
 1683 02fd 9C010000 		.4byte	.LVL52
 1684 0301 0100     		.2byte	0x1
 1685 0303 53       		.byte	0x53
 1686 0304 00000000 		.4byte	0x0
 1687 0308 00000000 		.4byte	0x0
 1688              	.LLST13:
 1689 030c A0010000 		.4byte	.LVL53
 1690 0310 A2010000 		.4byte	.LVL54
 1691 0314 0100     		.2byte	0x1
 1692 0316 53       		.byte	0x53
 1693 0317 00000000 		.4byte	0x0
 1694 031b 00000000 		.4byte	0x0
 1695              	.LLST14:
 1696 031f C0010000 		.4byte	.LVL55
ARM GAS  C:\Users\DNIEL~1\AppData\Local\Temp\ccXA0XlR.s 			page 31


 1697 0323 CF010000 		.4byte	.LVL57-1
 1698 0327 0100     		.2byte	0x1
 1699 0329 53       		.byte	0x53
 1700 032a 00000000 		.4byte	0x0
 1701 032e 00000000 		.4byte	0x0
 1702              	.LLST15:
 1703 0332 9E020000 		.4byte	.LVL69
 1704 0336 A5020000 		.4byte	.LVL70-1
 1705 033a 0100     		.2byte	0x1
 1706 033c 53       		.byte	0x53
 1707 033d 00000000 		.4byte	0x0
 1708 0341 00000000 		.4byte	0x0
 1709              	.LLST16:
 1710 0345 AE020000 		.4byte	.LVL73
 1711 0349 BF020000 		.4byte	.LVL75-1
 1712 034d 0100     		.2byte	0x1
 1713 034f 53       		.byte	0x53
 1714 0350 00000000 		.4byte	0x0
 1715 0354 00000000 		.4byte	0x0
 1716              	.LLST17:
 1717 0358 CC020000 		.4byte	.LVL77
 1718 035c D6020000 		.4byte	.LVL78
 1719 0360 0100     		.2byte	0x1
 1720 0362 53       		.byte	0x53
 1721 0363 00000000 		.4byte	0x0
 1722 0367 00000000 		.4byte	0x0
 1723              	.LLST18:
 1724 036b A8000000 		.4byte	.LVL14
 1725 036f AC000000 		.4byte	.LVL15
 1726 0373 0100     		.2byte	0x1
 1727 0375 53       		.byte	0x53
 1728 0376 E6020000 		.4byte	.LVL79
 1729 037a E8020000 		.4byte	.LVL80
 1730 037e 0100     		.2byte	0x1
 1731 0380 53       		.byte	0x53
 1732 0381 00000000 		.4byte	0x0
 1733 0385 00000000 		.4byte	0x0
 1734              	.LLST19:
 1735 0389 A8000000 		.4byte	.LVL14
 1736 038d AC000000 		.4byte	.LVL15
 1737 0391 0100     		.2byte	0x1
 1738 0393 53       		.byte	0x53
 1739 0394 EE020000 		.4byte	.LVL81
 1740 0398 F8020000 		.4byte	.LVL82
 1741 039c 0100     		.2byte	0x1
 1742 039e 53       		.byte	0x53
 1743 039f 00000000 		.4byte	0x0
 1744 03a3 00000000 		.4byte	0x0
 1745              	.LLST20:
 1746 03a7 FE020000 		.4byte	.LVL84
 1747 03ab 00030000 		.4byte	.LVL85
 1748 03af 0100     		.2byte	0x1
 1749 03b1 53       		.byte	0x53
 1750 03b2 00000000 		.4byte	0x0
 1751 03b6 00000000 		.4byte	0x0
 1752              	.LLST21:
 1753 03ba 00030000 		.4byte	.LVL85
ARM GAS  C:\Users\DNIEL~1\AppData\Local\Temp\ccXA0XlR.s 			page 32


 1754 03be 15030000 		.4byte	.LVL86-1
 1755 03c2 0100     		.2byte	0x1
 1756 03c4 53       		.byte	0x53
 1757 03c5 00000000 		.4byte	0x0
 1758 03c9 00000000 		.4byte	0x0
 1759              	.LLST22:
 1760 03cd A8000000 		.4byte	.LVL14
 1761 03d1 AC000000 		.4byte	.LVL15
 1762 03d5 0100     		.2byte	0x1
 1763 03d7 53       		.byte	0x53
 1764 03d8 20030000 		.4byte	.LVL87
 1765 03dc 22030000 		.4byte	.LVL88
 1766 03e0 0100     		.2byte	0x1
 1767 03e2 53       		.byte	0x53
 1768 03e3 00000000 		.4byte	0x0
 1769 03e7 00000000 		.4byte	0x0
 1770              	.LLST23:
 1771 03eb 28030000 		.4byte	.LVL90
 1772 03ef 2A030000 		.4byte	.LVL91
 1773 03f3 0100     		.2byte	0x1
 1774 03f5 53       		.byte	0x53
 1775 03f6 00000000 		.4byte	0x0
 1776 03fa 00000000 		.4byte	0x0
 1777              	.LLST24:
 1778 03fe 2E030000 		.4byte	.LVL92
 1779 0402 32030000 		.4byte	.LVL93
 1780 0406 0100     		.2byte	0x1
 1781 0408 53       		.byte	0x53
 1782 0409 00000000 		.4byte	0x0
 1783 040d 00000000 		.4byte	0x0
 1784              	.LLST25:
 1785 0411 A8000000 		.4byte	.LVL14
 1786 0415 AC000000 		.4byte	.LVL15
 1787 0419 0100     		.2byte	0x1
 1788 041b 53       		.byte	0x53
 1789 041c 4E030000 		.4byte	.LVL94
 1790 0420 50030000 		.4byte	.LVL95
 1791 0424 0100     		.2byte	0x1
 1792 0426 53       		.byte	0x53
 1793 0427 00000000 		.4byte	0x0
 1794 042b 00000000 		.4byte	0x0
 1795              	.LLST26:
 1796 042f 54030000 		.4byte	.LVL96
 1797 0433 56030000 		.4byte	.LVL97
 1798 0437 0100     		.2byte	0x1
 1799 0439 53       		.byte	0x53
 1800 043a 00000000 		.4byte	0x0
 1801 043e 00000000 		.4byte	0x0
 1802              	.LLST27:
 1803 0442 5A030000 		.4byte	.LVL98
 1804 0446 61030000 		.4byte	.LVL99-1
 1805 044a 0100     		.2byte	0x1
 1806 044c 53       		.byte	0x53
 1807 044d 00000000 		.4byte	0x0
 1808 0451 00000000 		.4byte	0x0
 1809              	.LLST28:
 1810 0455 DC030000 		.4byte	.LVL109
ARM GAS  C:\Users\DNIEL~1\AppData\Local\Temp\ccXA0XlR.s 			page 33


 1811 0459 E9030000 		.4byte	.LVL111-1
 1812 045d 0100     		.2byte	0x1
 1813 045f 53       		.byte	0x53
 1814 0460 00000000 		.4byte	0x0
 1815 0464 00000000 		.4byte	0x0
 1816              	.LLST29:
 1817 0468 14040000 		.4byte	.LVL113
 1818 046c 1D040000 		.4byte	.LVL114-1
 1819 0470 0100     		.2byte	0x1
 1820 0472 53       		.byte	0x53
 1821 0473 00000000 		.4byte	0x0
 1822 0477 00000000 		.4byte	0x0
 1823              	.LLST30:
 1824 047b 26040000 		.4byte	.LVL117
 1825 047f 2A040000 		.4byte	.LVL118
 1826 0483 0100     		.2byte	0x1
 1827 0485 53       		.byte	0x53
 1828 0486 00000000 		.4byte	0x0
 1829 048a 00000000 		.4byte	0x0
 1830              	.LLST31:
 1831 048e 5E040000 		.4byte	.LVL122
 1832 0492 64040000 		.4byte	.LVL123
 1833 0496 0100     		.2byte	0x1
 1834 0498 53       		.byte	0x53
 1835 0499 00000000 		.4byte	0x0
 1836 049d 00000000 		.4byte	0x0
 1837              	.LLST32:
 1838 04a1 A8000000 		.4byte	.LVL14
 1839 04a5 AC000000 		.4byte	.LVL15
 1840 04a9 0100     		.2byte	0x1
 1841 04ab 53       		.byte	0x53
 1842 04ac 78040000 		.4byte	.LVL124
 1843 04b0 7A040000 		.4byte	.LVL125
 1844 04b4 0100     		.2byte	0x1
 1845 04b6 53       		.byte	0x53
 1846 04b7 00000000 		.4byte	0x0
 1847 04bb 00000000 		.4byte	0x0
 1848              	.LLST33:
 1849 04bf 80040000 		.4byte	.LVL127
 1850 04c3 82040000 		.4byte	.LVL128
 1851 04c7 0100     		.2byte	0x1
 1852 04c9 53       		.byte	0x53
 1853 04ca 00000000 		.4byte	0x0
 1854 04ce 00000000 		.4byte	0x0
 1855              	.LLST34:
 1856 04d2 86040000 		.4byte	.LVL129
 1857 04d6 95040000 		.4byte	.LVL130-1
 1858 04da 0100     		.2byte	0x1
 1859 04dc 53       		.byte	0x53
 1860 04dd 00000000 		.4byte	0x0
 1861 04e1 00000000 		.4byte	0x0
 1862              	.LLST35:
 1863 04e5 A8000000 		.4byte	.LVL14
 1864 04e9 AC000000 		.4byte	.LVL15
 1865 04ed 0100     		.2byte	0x1
 1866 04ef 53       		.byte	0x53
 1867 04f0 9E040000 		.4byte	.LVL131
ARM GAS  C:\Users\DNIEL~1\AppData\Local\Temp\ccXA0XlR.s 			page 34


 1868 04f4 A0040000 		.4byte	.LVL132
 1869 04f8 0100     		.2byte	0x1
 1870 04fa 53       		.byte	0x53
 1871 04fb 00000000 		.4byte	0x0
 1872 04ff 00000000 		.4byte	0x0
 1873              	.LLST36:
 1874 0503 A6040000 		.4byte	.LVL134
 1875 0507 AA040000 		.4byte	.LVL135
 1876 050b 0100     		.2byte	0x1
 1877 050d 53       		.byte	0x53
 1878 050e 00000000 		.4byte	0x0
 1879 0512 00000000 		.4byte	0x0
 1880              	.LLST37:
 1881 0516 C8040000 		.4byte	.LVL137
 1882 051a CF040000 		.4byte	.LVL138-1
 1883 051e 0100     		.2byte	0x1
 1884 0520 53       		.byte	0x53
 1885 0521 00000000 		.4byte	0x0
 1886 0525 00000000 		.4byte	0x0
 1887              	.LLST38:
 1888 0529 4A050000 		.4byte	.LVL148
 1889 052d 4E050000 		.4byte	.LVL149
 1890 0531 0100     		.2byte	0x1
 1891 0533 53       		.byte	0x53
 1892 0534 00000000 		.4byte	0x0
 1893 0538 00000000 		.4byte	0x0
 1894              	.LLST39:
 1895 053c 86050000 		.4byte	.LVL153
 1896 0540 8F050000 		.4byte	.LVL154-1
 1897 0544 0100     		.2byte	0x1
 1898 0546 53       		.byte	0x53
 1899 0547 00000000 		.4byte	0x0
 1900 054b 00000000 		.4byte	0x0
 1901              	.LLST40:
 1902 054f 98050000 		.4byte	.LVL157
 1903 0553 9A050000 		.4byte	.LVL158
 1904 0557 0100     		.2byte	0x1
 1905 0559 53       		.byte	0x53
 1906 055a 00000000 		.4byte	0x0
 1907 055e 00000000 		.4byte	0x0
 1908              	.LLST41:
 1909 0562 CE050000 		.4byte	.LVL163
 1910 0566 D0050000 		.4byte	.LVL164
 1911 056a 0100     		.2byte	0x1
 1912 056c 53       		.byte	0x53
 1913 056d 00000000 		.4byte	0x0
 1914 0571 00000000 		.4byte	0x0
 1915              	.LLST42:
 1916 0575 A8000000 		.4byte	.LVL14
 1917 0579 AC000000 		.4byte	.LVL15
 1918 057d 0100     		.2byte	0x1
 1919 057f 53       		.byte	0x53
 1920 0580 EA050000 		.4byte	.LVL165
 1921 0584 EC050000 		.4byte	.LVL166
 1922 0588 0100     		.2byte	0x1
 1923 058a 53       		.byte	0x53
 1924 058b 00000000 		.4byte	0x0
ARM GAS  C:\Users\DNIEL~1\AppData\Local\Temp\ccXA0XlR.s 			page 35


 1925 058f 00000000 		.4byte	0x0
 1926              	.LLST43:
 1927 0593 F2050000 		.4byte	.LVL168
 1928 0597 F4050000 		.4byte	.LVL169
 1929 059b 0100     		.2byte	0x1
 1930 059d 53       		.byte	0x53
 1931 059e 00000000 		.4byte	0x0
 1932 05a2 00000000 		.4byte	0x0
 1933              	.LLST44:
 1934 05a6 F8050000 		.4byte	.LVL170
 1935 05aa 07060000 		.4byte	.LVL171-1
 1936 05ae 0100     		.2byte	0x1
 1937 05b0 53       		.byte	0x53
 1938 05b1 00000000 		.4byte	0x0
 1939 05b5 00000000 		.4byte	0x0
 1940              	.LLST45:
 1941 05b9 A8000000 		.4byte	.LVL14
 1942 05bd AC000000 		.4byte	.LVL15
 1943 05c1 0100     		.2byte	0x1
 1944 05c3 53       		.byte	0x53
 1945 05c4 10060000 		.4byte	.LVL172
 1946 05c8 1C060000 		.4byte	.LVL173
 1947 05cc 0100     		.2byte	0x1
 1948 05ce 53       		.byte	0x53
 1949 05cf 00000000 		.4byte	0x0
 1950 05d3 00000000 		.4byte	0x0
 1951              	.LLST46:
 1952 05d7 22060000 		.4byte	.LVL175
 1953 05db 26060000 		.4byte	.LVL176
 1954 05df 0100     		.2byte	0x1
 1955 05e1 53       		.byte	0x53
 1956 05e2 00000000 		.4byte	0x0
 1957 05e6 00000000 		.4byte	0x0
 1958              	.LLST47:
 1959 05ea 4A060000 		.4byte	.LVL178
 1960 05ee 5D060000 		.4byte	.LVL179-1
 1961 05f2 0100     		.2byte	0x1
 1962 05f4 53       		.byte	0x53
 1963 05f5 00000000 		.4byte	0x0
 1964 05f9 00000000 		.4byte	0x0
 1965              	.LLST48:
 1966 05fd A8000000 		.4byte	.LVL14
 1967 0601 AC000000 		.4byte	.LVL15
 1968 0605 0100     		.2byte	0x1
 1969 0607 53       		.byte	0x53
 1970 0608 66060000 		.4byte	.LVL180
 1971 060c 68060000 		.4byte	.LVL181
 1972 0610 0100     		.2byte	0x1
 1973 0612 53       		.byte	0x53
 1974 0613 00000000 		.4byte	0x0
 1975 0617 00000000 		.4byte	0x0
 1976              	.LLST49:
 1977 061b 6E060000 		.4byte	.LVL183
 1978 061f 70060000 		.4byte	.LVL184
 1979 0623 0100     		.2byte	0x1
 1980 0625 53       		.byte	0x53
 1981 0626 00000000 		.4byte	0x0
ARM GAS  C:\Users\DNIEL~1\AppData\Local\Temp\ccXA0XlR.s 			page 36


 1982 062a 00000000 		.4byte	0x0
 1983              	.LLST50:
 1984 062e 74060000 		.4byte	.LVL185
 1985 0632 76060000 		.4byte	.LVL186
 1986 0636 0100     		.2byte	0x1
 1987 0638 53       		.byte	0x53
 1988 0639 00000000 		.4byte	0x0
 1989 063d 00000000 		.4byte	0x0
 1990              	.LLST51:
 1991 0641 A8000000 		.4byte	.LVL14
 1992 0645 AC000000 		.4byte	.LVL15
 1993 0649 0100     		.2byte	0x1
 1994 064b 53       		.byte	0x53
 1995 064c 8C060000 		.4byte	.LVL187
 1996 0650 8E060000 		.4byte	.LVL188
 1997 0654 0100     		.2byte	0x1
 1998 0656 53       		.byte	0x53
 1999 0657 00000000 		.4byte	0x0
 2000 065b 00000000 		.4byte	0x0
 2001              	.LLST52:
 2002 065f 94060000 		.4byte	.LVL190
 2003 0663 96060000 		.4byte	.LVL191
 2004 0667 0100     		.2byte	0x1
 2005 0669 53       		.byte	0x53
 2006 066a 00000000 		.4byte	0x0
 2007 066e 00000000 		.4byte	0x0
 2008              	.LLST53:
 2009 0672 9A060000 		.4byte	.LVL192
 2010 0676 9E060000 		.4byte	.LVL193
 2011 067a 0100     		.2byte	0x1
 2012 067c 53       		.byte	0x53
 2013 067d 00000000 		.4byte	0x0
 2014 0681 00000000 		.4byte	0x0
 2015              	.LLST54:
 2016 0685 A8000000 		.4byte	.LVL14
 2017 0689 AC000000 		.4byte	.LVL15
 2018 068d 0100     		.2byte	0x1
 2019 068f 53       		.byte	0x53
 2020 0690 B6060000 		.4byte	.LVL194
 2021 0694 B8060000 		.4byte	.LVL195
 2022 0698 0100     		.2byte	0x1
 2023 069a 53       		.byte	0x53
 2024 069b 00000000 		.4byte	0x0
 2025 069f 00000000 		.4byte	0x0
 2026              	.LLST55:
 2027 06a3 BE060000 		.4byte	.LVL197
 2028 06a7 C0060000 		.4byte	.LVL198
 2029 06ab 0100     		.2byte	0x1
 2030 06ad 53       		.byte	0x53
 2031 06ae 00000000 		.4byte	0x0
 2032 06b2 00000000 		.4byte	0x0
 2033              	.LLST56:
 2034 06b6 C4060000 		.4byte	.LVL199
 2035 06ba D9060000 		.4byte	.LVL200-1
 2036 06be 0100     		.2byte	0x1
 2037 06c0 53       		.byte	0x53
 2038 06c1 00000000 		.4byte	0x0
ARM GAS  C:\Users\DNIEL~1\AppData\Local\Temp\ccXA0XlR.s 			page 37


 2039 06c5 00000000 		.4byte	0x0
 2040              	.LLST57:
 2041 06c9 A8000000 		.4byte	.LVL14
 2042 06cd AC000000 		.4byte	.LVL15
 2043 06d1 0100     		.2byte	0x1
 2044 06d3 53       		.byte	0x53
 2045 06d4 E0060000 		.4byte	.LVL201
 2046 06d8 E2060000 		.4byte	.LFE8
 2047 06dc 0100     		.2byte	0x1
 2048 06de 53       		.byte	0x53
 2049 06df 00000000 		.4byte	0x0
 2050 06e3 00000000 		.4byte	0x0
 2051              		.file 2 "c:\\program files (x86)\\codesourcery\\sourcery g++ lite\\bin\\../lib/gcc/arm-none-eabi/4
 2052              		.file 3 "../../../ChibiOS/os/ports/GCC/ARMCMx/chtypes.h"
 2053              		.file 4 "../../../ChibiOS/os/kernel/include/chlists.h"
 2054              		.file 5 "../../../ChibiOS/os/kernel/include/chthreads.h"
 2055              		.file 6 "../../../ChibiOS/os/ports/GCC/ARMCMx/chcore_v7m.h"
 2056              		.file 7 "../../../ChibiOS/os/kernel/include/chsem.h"
 2057              		.file 8 "../../../ChibiOS/os/kernel/include/chmtx.h"
 2058              		.file 9 "../../../ChibiOS/os/kernel/include/chmboxes.h"
 2059              		.file 10 "../../../ChibiOS/test/test.h"
 2060              		.section	.debug_info
 2061 0000 590C0000 		.4byte	0xc59
 2062 0004 0200     		.2byte	0x2
 2063 0006 00000000 		.4byte	.Ldebug_abbrev0
 2064 000a 04       		.byte	0x4
 2065 000b 01       		.uleb128 0x1
 2066 000c 20030000 		.4byte	.LASF78
 2067 0010 01       		.byte	0x1
 2068 0011 F9010000 		.4byte	.LASF79
 2069 0015 89000000 		.4byte	.LASF80
 2070 0019 00000000 		.4byte	0x0
 2071 001d 00000000 		.4byte	0x0
 2072 0021 A8000000 		.4byte	.Ldebug_ranges0+0xa8
 2073 0025 00000000 		.4byte	.Ldebug_line0
 2074 0029 02       		.uleb128 0x2
 2075 002a 04       		.byte	0x4
 2076 002b 05       		.byte	0x5
 2077 002c 696E7400 		.ascii	"int\000"
 2078 0030 03       		.uleb128 0x3
 2079 0031 04       		.byte	0x4
 2080 0032 07       		.byte	0x7
 2081 0033 ED000000 		.4byte	.LASF0
 2082 0037 03       		.uleb128 0x3
 2083 0038 01       		.byte	0x1
 2084 0039 06       		.byte	0x6
 2085 003a 6D000000 		.4byte	.LASF1
 2086 003e 04       		.uleb128 0x4
 2087 003f 11030000 		.4byte	.LASF5
 2088 0043 02       		.byte	0x2
 2089 0044 2A       		.byte	0x2a
 2090 0045 49000000 		.4byte	0x49
 2091 0049 03       		.uleb128 0x3
 2092 004a 01       		.byte	0x1
 2093 004b 08       		.byte	0x8
 2094 004c 28020000 		.4byte	.LASF2
 2095 0050 03       		.uleb128 0x3
ARM GAS  C:\Users\DNIEL~1\AppData\Local\Temp\ccXA0XlR.s 			page 38


 2096 0051 02       		.byte	0x2
 2097 0052 05       		.byte	0x5
 2098 0053 47020000 		.4byte	.LASF3
 2099 0057 03       		.uleb128 0x3
 2100 0058 02       		.byte	0x2
 2101 0059 07       		.byte	0x7
 2102 005a 3E010000 		.4byte	.LASF4
 2103 005e 04       		.uleb128 0x4
 2104 005f 20020000 		.4byte	.LASF6
 2105 0063 02       		.byte	0x2
 2106 0064 4F       		.byte	0x4f
 2107 0065 69000000 		.4byte	0x69
 2108 0069 03       		.uleb128 0x3
 2109 006a 04       		.byte	0x4
 2110 006b 05       		.byte	0x5
 2111 006c BC000000 		.4byte	.LASF7
 2112 0070 04       		.uleb128 0x4
 2113 0071 94020000 		.4byte	.LASF8
 2114 0075 02       		.byte	0x2
 2115 0076 50       		.byte	0x50
 2116 0077 7B000000 		.4byte	0x7b
 2117 007b 03       		.uleb128 0x3
 2118 007c 04       		.byte	0x4
 2119 007d 07       		.byte	0x7
 2120 007e 04010000 		.4byte	.LASF9
 2121 0082 03       		.uleb128 0x3
 2122 0083 08       		.byte	0x8
 2123 0084 05       		.byte	0x5
 2124 0085 5F000000 		.4byte	.LASF10
 2125 0089 04       		.uleb128 0x4
 2126 008a 0D000000 		.4byte	.LASF11
 2127 008e 02       		.byte	0x2
 2128 008f 78       		.byte	0x78
 2129 0090 94000000 		.4byte	0x94
 2130 0094 03       		.uleb128 0x3
 2131 0095 08       		.byte	0x8
 2132 0096 07       		.byte	0x7
 2133 0097 1E000000 		.4byte	.LASF12
 2134 009b 03       		.uleb128 0x3
 2135 009c 01       		.byte	0x1
 2136 009d 02       		.byte	0x2
 2137 009e 1A020000 		.4byte	.LASF13
 2138 00a2 04       		.uleb128 0x4
 2139 00a3 57010000 		.4byte	.LASF14
 2140 00a7 03       		.byte	0x3
 2141 00a8 2C       		.byte	0x2c
 2142 00a9 3E000000 		.4byte	0x3e
 2143 00ad 04       		.uleb128 0x4
 2144 00ae C5000000 		.4byte	.LASF15
 2145 00b2 03       		.byte	0x3
 2146 00b3 2D       		.byte	0x2d
 2147 00b4 3E000000 		.4byte	0x3e
 2148 00b8 04       		.uleb128 0x4
 2149 00b9 DA010000 		.4byte	.LASF16
 2150 00bd 03       		.byte	0x3
 2151 00be 2E       		.byte	0x2e
 2152 00bf 3E000000 		.4byte	0x3e
ARM GAS  C:\Users\DNIEL~1\AppData\Local\Temp\ccXA0XlR.s 			page 39


 2153 00c3 04       		.uleb128 0x4
 2154 00c4 9D020000 		.4byte	.LASF17
 2155 00c8 03       		.byte	0x3
 2156 00c9 2F       		.byte	0x2f
 2157 00ca 3E000000 		.4byte	0x3e
 2158 00ce 04       		.uleb128 0x4
 2159 00cf F1010000 		.4byte	.LASF18
 2160 00d3 03       		.byte	0x3
 2161 00d4 30       		.byte	0x30
 2162 00d5 70000000 		.4byte	0x70
 2163 00d9 04       		.uleb128 0x4
 2164 00da 51010000 		.4byte	.LASF19
 2165 00de 03       		.byte	0x3
 2166 00df 31       		.byte	0x31
 2167 00e0 5E000000 		.4byte	0x5e
 2168 00e4 04       		.uleb128 0x4
 2169 00e5 77010000 		.4byte	.LASF20
 2170 00e9 03       		.byte	0x3
 2171 00ea 33       		.byte	0x33
 2172 00eb 70000000 		.4byte	0x70
 2173 00ef 04       		.uleb128 0x4
 2174 00f0 B3020000 		.4byte	.LASF21
 2175 00f4 03       		.byte	0x3
 2176 00f5 35       		.byte	0x35
 2177 00f6 70000000 		.4byte	0x70
 2178 00fa 04       		.uleb128 0x4
 2179 00fb E7000000 		.4byte	.LASF22
 2180 00ff 03       		.byte	0x3
 2181 0100 36       		.byte	0x36
 2182 0101 5E000000 		.4byte	0x5e
 2183 0105 04       		.uleb128 0x4
 2184 0106 79020000 		.4byte	.LASF23
 2185 010a 04       		.byte	0x4
 2186 010b 2A       		.byte	0x2a
 2187 010c 10010000 		.4byte	0x110
 2188 0110 05       		.uleb128 0x5
 2189 0111 79020000 		.4byte	.LASF23
 2190 0115 48       		.byte	0x48
 2191 0116 05       		.byte	0x5
 2192 0117 5E       		.byte	0x5e
 2193 0118 35020000 		.4byte	0x235
 2194 011c 06       		.uleb128 0x6
 2195 011d 6A020000 		.4byte	.LASF24
 2196 0121 05       		.byte	0x5
 2197 0122 5F       		.byte	0x5f
 2198 0123 5A020000 		.4byte	0x25a
 2199 0127 02       		.byte	0x2
 2200 0128 23       		.byte	0x23
 2201 0129 00       		.uleb128 0x0
 2202 012a 06       		.uleb128 0x6
 2203 012b E2010000 		.4byte	.LASF25
 2204 012f 05       		.byte	0x5
 2205 0130 61       		.byte	0x61
 2206 0131 5A020000 		.4byte	0x25a
 2207 0135 02       		.byte	0x2
 2208 0136 23       		.byte	0x23
 2209 0137 04       		.uleb128 0x4
ARM GAS  C:\Users\DNIEL~1\AppData\Local\Temp\ccXA0XlR.s 			page 40


 2210 0138 06       		.uleb128 0x6
 2211 0139 58000000 		.4byte	.LASF26
 2212 013d 05       		.byte	0x5
 2213 013e 63       		.byte	0x63
 2214 013f CE000000 		.4byte	0xce
 2215 0143 02       		.byte	0x2
 2216 0144 23       		.byte	0x23
 2217 0145 08       		.uleb128 0x8
 2218 0146 06       		.uleb128 0x6
 2219 0147 3B030000 		.4byte	.LASF27
 2220 014b 05       		.byte	0x5
 2221 014c 64       		.byte	0x64
 2222 014d 33030000 		.4byte	0x333
 2223 0151 02       		.byte	0x2
 2224 0152 23       		.byte	0x23
 2225 0153 0C       		.uleb128 0xc
 2226 0154 06       		.uleb128 0x6
 2227 0155 CE000000 		.4byte	.LASF28
 2228 0159 05       		.byte	0x5
 2229 015a 66       		.byte	0x66
 2230 015b 5A020000 		.4byte	0x25a
 2231 015f 02       		.byte	0x2
 2232 0160 23       		.byte	0x23
 2233 0161 10       		.uleb128 0x10
 2234 0162 06       		.uleb128 0x6
 2235 0163 A7010000 		.4byte	.LASF29
 2236 0167 05       		.byte	0x5
 2237 0168 67       		.byte	0x67
 2238 0169 5A020000 		.4byte	0x25a
 2239 016d 02       		.byte	0x2
 2240 016e 23       		.byte	0x23
 2241 016f 14       		.uleb128 0x14
 2242 0170 06       		.uleb128 0x6
 2243 0171 2C030000 		.4byte	.LASF30
 2244 0175 05       		.byte	0x5
 2245 0176 6E       		.byte	0x6e
 2246 0177 7A040000 		.4byte	0x47a
 2247 017b 02       		.byte	0x2
 2248 017c 23       		.byte	0x23
 2249 017d 18       		.uleb128 0x18
 2250 017e 06       		.uleb128 0x6
 2251 017f 51020000 		.4byte	.LASF31
 2252 0183 05       		.byte	0x5
 2253 0184 79       		.byte	0x79
 2254 0185 AD000000 		.4byte	0xad
 2255 0189 02       		.byte	0x2
 2256 018a 23       		.byte	0x23
 2257 018b 1C       		.uleb128 0x1c
 2258 018c 06       		.uleb128 0x6
 2259 018d 71020000 		.4byte	.LASF32
 2260 0191 05       		.byte	0x5
 2261 0192 7D       		.byte	0x7d
 2262 0193 A2000000 		.4byte	0xa2
 2263 0197 02       		.byte	0x2
 2264 0198 23       		.byte	0x23
 2265 0199 1D       		.uleb128 0x1d
 2266 019a 06       		.uleb128 0x6
ARM GAS  C:\Users\DNIEL~1\AppData\Local\Temp\ccXA0XlR.s 			page 41


 2267 019b 0A030000 		.4byte	.LASF33
 2268 019f 05       		.byte	0x5
 2269 01a0 82       		.byte	0x82
 2270 01a1 B8000000 		.4byte	0xb8
 2271 01a5 02       		.byte	0x2
 2272 01a6 23       		.byte	0x23
 2273 01a7 1E       		.uleb128 0x1e
 2274 01a8 06       		.uleb128 0x6
 2275 01a9 59020000 		.4byte	.LASF34
 2276 01ad 05       		.byte	0x5
 2277 01ae 88       		.byte	0x88
 2278 01af C3000000 		.4byte	0xc3
 2279 01b3 02       		.byte	0x2
 2280 01b4 23       		.byte	0x23
 2281 01b5 1F       		.uleb128 0x1f
 2282 01b6 06       		.uleb128 0x6
 2283 01b7 CF020000 		.4byte	.LASF35
 2284 01bb 05       		.byte	0x5
 2285 01bc 8F       		.byte	0x8f
 2286 01bd 56030000 		.4byte	0x356
 2287 01c1 02       		.byte	0x2
 2288 01c2 23       		.byte	0x23
 2289 01c3 20       		.uleb128 0x20
 2290 01c4 07       		.uleb128 0x7
 2291 01c5 705F7500 		.ascii	"p_u\000"
 2292 01c9 05       		.byte	0x5
 2293 01ca B4       		.byte	0xb4
 2294 01cb 45040000 		.4byte	0x445
 2295 01cf 02       		.byte	0x2
 2296 01d0 23       		.byte	0x23
 2297 01d1 24       		.uleb128 0x24
 2298 01d2 06       		.uleb128 0x6
 2299 01d3 41030000 		.4byte	.LASF36
 2300 01d7 05       		.byte	0x5
 2301 01d8 B9       		.byte	0xb9
 2302 01d9 82020000 		.4byte	0x282
 2303 01dd 02       		.byte	0x2
 2304 01de 23       		.byte	0x23
 2305 01df 28       		.uleb128 0x28
 2306 01e0 06       		.uleb128 0x6
 2307 01e1 DD020000 		.4byte	.LASF37
 2308 01e5 05       		.byte	0x5
 2309 01e6 BF       		.byte	0xbf
 2310 01e7 60020000 		.4byte	0x260
 2311 01eb 02       		.byte	0x2
 2312 01ec 23       		.byte	0x23
 2313 01ed 2C       		.uleb128 0x2c
 2314 01ee 06       		.uleb128 0x6
 2315 01ef 00000000 		.4byte	.LASF38
 2316 01f3 05       		.byte	0x5
 2317 01f4 C3       		.byte	0xc3
 2318 01f5 D9000000 		.4byte	0xd9
 2319 01f9 02       		.byte	0x2
 2320 01fa 23       		.byte	0x23
 2321 01fb 34       		.uleb128 0x34
 2322 01fc 06       		.uleb128 0x6
 2323 01fd 89020000 		.4byte	.LASF39
ARM GAS  C:\Users\DNIEL~1\AppData\Local\Temp\ccXA0XlR.s 			page 42


 2324 0201 05       		.byte	0x5
 2325 0202 C9       		.byte	0xc9
 2326 0203 E4000000 		.4byte	0xe4
 2327 0207 02       		.byte	0x2
 2328 0208 23       		.byte	0x23
 2329 0209 38       		.uleb128 0x38
 2330 020a 06       		.uleb128 0x6
 2331 020b 3D020000 		.4byte	.LASF40
 2332 020f 05       		.byte	0x5
 2333 0210 D0       		.byte	0xd0
 2334 0211 8C040000 		.4byte	0x48c
 2335 0215 02       		.byte	0x2
 2336 0216 23       		.byte	0x23
 2337 0217 3C       		.uleb128 0x3c
 2338 0218 06       		.uleb128 0x6
 2339 0219 BD020000 		.4byte	.LASF41
 2340 021d 05       		.byte	0x5
 2341 021e D4       		.byte	0xd4
 2342 021f CE000000 		.4byte	0xce
 2343 0223 02       		.byte	0x2
 2344 0224 23       		.byte	0x23
 2345 0225 40       		.uleb128 0x40
 2346 0226 06       		.uleb128 0x6
 2347 0227 79000000 		.4byte	.LASF42
 2348 022b 05       		.byte	0x5
 2349 022c DA       		.byte	0xda
 2350 022d 98020000 		.4byte	0x298
 2351 0231 02       		.byte	0x2
 2352 0232 23       		.byte	0x23
 2353 0233 44       		.uleb128 0x44
 2354 0234 00       		.byte	0x0
 2355 0235 08       		.uleb128 0x8
 2356 0236 08       		.byte	0x8
 2357 0237 04       		.byte	0x4
 2358 0238 61       		.byte	0x61
 2359 0239 5A020000 		.4byte	0x25a
 2360 023d 06       		.uleb128 0x6
 2361 023e 6A020000 		.4byte	.LASF24
 2362 0242 04       		.byte	0x4
 2363 0243 62       		.byte	0x62
 2364 0244 5A020000 		.4byte	0x25a
 2365 0248 02       		.byte	0x2
 2366 0249 23       		.byte	0x23
 2367 024a 00       		.uleb128 0x0
 2368 024b 06       		.uleb128 0x6
 2369 024c E2010000 		.4byte	.LASF25
 2370 0250 04       		.byte	0x4
 2371 0251 64       		.byte	0x64
 2372 0252 5A020000 		.4byte	0x25a
 2373 0256 02       		.byte	0x2
 2374 0257 23       		.byte	0x23
 2375 0258 04       		.uleb128 0x4
 2376 0259 00       		.byte	0x0
 2377 025a 09       		.uleb128 0x9
 2378 025b 04       		.byte	0x4
 2379 025c 05010000 		.4byte	0x105
 2380 0260 04       		.uleb128 0x4
ARM GAS  C:\Users\DNIEL~1\AppData\Local\Temp\ccXA0XlR.s 			page 43


 2381 0261 AF010000 		.4byte	.LASF43
 2382 0265 04       		.byte	0x4
 2383 0266 66       		.byte	0x66
 2384 0267 35020000 		.4byte	0x235
 2385 026b 08       		.uleb128 0x8
 2386 026c 04       		.byte	0x4
 2387 026d 04       		.byte	0x4
 2388 026e 6B       		.byte	0x6b
 2389 026f 82020000 		.4byte	0x282
 2390 0273 06       		.uleb128 0x6
 2391 0274 6A020000 		.4byte	.LASF24
 2392 0278 04       		.byte	0x4
 2393 0279 6D       		.byte	0x6d
 2394 027a 5A020000 		.4byte	0x25a
 2395 027e 02       		.byte	0x2
 2396 027f 23       		.byte	0x23
 2397 0280 00       		.uleb128 0x0
 2398 0281 00       		.byte	0x0
 2399 0282 04       		.uleb128 0x4
 2400 0283 6B010000 		.4byte	.LASF44
 2401 0287 04       		.byte	0x4
 2402 0288 70       		.byte	0x70
 2403 0289 6B020000 		.4byte	0x26b
 2404 028d 04       		.uleb128 0x4
 2405 028e DE000000 		.4byte	.LASF45
 2406 0292 06       		.byte	0x6
 2407 0293 E5       		.byte	0xe5
 2408 0294 98020000 		.4byte	0x298
 2409 0298 0A       		.uleb128 0xa
 2410 0299 04       		.byte	0x4
 2411 029a 04       		.uleb128 0x4
 2412 029b 93010000 		.4byte	.LASF46
 2413 029f 06       		.byte	0x6
 2414 02a0 EB       		.byte	0xeb
 2415 02a1 89000000 		.4byte	0x89
 2416 02a5 0B       		.uleb128 0xb
 2417 02a6 D6020000 		.4byte	.LASF47
 2418 02aa 24       		.byte	0x24
 2419 02ab 06       		.byte	0x6
 2420 02ac 0C01     		.2byte	0x10c
 2421 02ae 33030000 		.4byte	0x333
 2422 02b2 0C       		.uleb128 0xc
 2423 02b3 723400   		.ascii	"r4\000"
 2424 02b6 06       		.byte	0x6
 2425 02b7 1F01     		.2byte	0x11f
 2426 02b9 8D020000 		.4byte	0x28d
 2427 02bd 02       		.byte	0x2
 2428 02be 23       		.byte	0x23
 2429 02bf 00       		.uleb128 0x0
 2430 02c0 0C       		.uleb128 0xc
 2431 02c1 723500   		.ascii	"r5\000"
 2432 02c4 06       		.byte	0x6
 2433 02c5 2001     		.2byte	0x120
 2434 02c7 8D020000 		.4byte	0x28d
 2435 02cb 02       		.byte	0x2
 2436 02cc 23       		.byte	0x23
 2437 02cd 04       		.uleb128 0x4
ARM GAS  C:\Users\DNIEL~1\AppData\Local\Temp\ccXA0XlR.s 			page 44


 2438 02ce 0C       		.uleb128 0xc
 2439 02cf 723600   		.ascii	"r6\000"
 2440 02d2 06       		.byte	0x6
 2441 02d3 2101     		.2byte	0x121
 2442 02d5 8D020000 		.4byte	0x28d
 2443 02d9 02       		.byte	0x2
 2444 02da 23       		.byte	0x23
 2445 02db 08       		.uleb128 0x8
 2446 02dc 0C       		.uleb128 0xc
 2447 02dd 723700   		.ascii	"r7\000"
 2448 02e0 06       		.byte	0x6
 2449 02e1 2201     		.2byte	0x122
 2450 02e3 8D020000 		.4byte	0x28d
 2451 02e7 02       		.byte	0x2
 2452 02e8 23       		.byte	0x23
 2453 02e9 0C       		.uleb128 0xc
 2454 02ea 0C       		.uleb128 0xc
 2455 02eb 723800   		.ascii	"r8\000"
 2456 02ee 06       		.byte	0x6
 2457 02ef 2301     		.2byte	0x123
 2458 02f1 8D020000 		.4byte	0x28d
 2459 02f5 02       		.byte	0x2
 2460 02f6 23       		.byte	0x23
 2461 02f7 10       		.uleb128 0x10
 2462 02f8 0C       		.uleb128 0xc
 2463 02f9 723900   		.ascii	"r9\000"
 2464 02fc 06       		.byte	0x6
 2465 02fd 2401     		.2byte	0x124
 2466 02ff 8D020000 		.4byte	0x28d
 2467 0303 02       		.byte	0x2
 2468 0304 23       		.byte	0x23
 2469 0305 14       		.uleb128 0x14
 2470 0306 0C       		.uleb128 0xc
 2471 0307 72313000 		.ascii	"r10\000"
 2472 030b 06       		.byte	0x6
 2473 030c 2501     		.2byte	0x125
 2474 030e 8D020000 		.4byte	0x28d
 2475 0312 02       		.byte	0x2
 2476 0313 23       		.byte	0x23
 2477 0314 18       		.uleb128 0x18
 2478 0315 0C       		.uleb128 0xc
 2479 0316 72313100 		.ascii	"r11\000"
 2480 031a 06       		.byte	0x6
 2481 031b 2601     		.2byte	0x126
 2482 031d 8D020000 		.4byte	0x28d
 2483 0321 02       		.byte	0x2
 2484 0322 23       		.byte	0x23
 2485 0323 1C       		.uleb128 0x1c
 2486 0324 0C       		.uleb128 0xc
 2487 0325 6C7200   		.ascii	"lr\000"
 2488 0328 06       		.byte	0x6
 2489 0329 2701     		.2byte	0x127
 2490 032b 8D020000 		.4byte	0x28d
 2491 032f 02       		.byte	0x2
 2492 0330 23       		.byte	0x23
 2493 0331 20       		.uleb128 0x20
 2494 0332 00       		.byte	0x0
ARM GAS  C:\Users\DNIEL~1\AppData\Local\Temp\ccXA0XlR.s 			page 45


 2495 0333 0B       		.uleb128 0xb
 2496 0334 36010000 		.4byte	.LASF48
 2497 0338 04       		.byte	0x4
 2498 0339 06       		.byte	0x6
 2499 033a 3101     		.2byte	0x131
 2500 033c 50030000 		.4byte	0x350
 2501 0340 0C       		.uleb128 0xc
 2502 0341 72313300 		.ascii	"r13\000"
 2503 0345 06       		.byte	0x6
 2504 0346 3201     		.2byte	0x132
 2505 0348 50030000 		.4byte	0x350
 2506 034c 02       		.byte	0x2
 2507 034d 23       		.byte	0x23
 2508 034e 00       		.uleb128 0x0
 2509 034f 00       		.byte	0x0
 2510 0350 09       		.uleb128 0x9
 2511 0351 04       		.byte	0x4
 2512 0352 A5020000 		.4byte	0x2a5
 2513 0356 0D       		.uleb128 0xd
 2514 0357 EF000000 		.4byte	0xef
 2515 035b 05       		.uleb128 0x5
 2516 035c E8020000 		.4byte	.LASF49
 2517 0360 0C       		.byte	0xc
 2518 0361 07       		.byte	0x7
 2519 0362 2C       		.byte	0x2c
 2520 0363 84030000 		.4byte	0x384
 2521 0367 06       		.uleb128 0x6
 2522 0368 D6000000 		.4byte	.LASF50
 2523 036c 07       		.byte	0x7
 2524 036d 2D       		.byte	0x2d
 2525 036e 60020000 		.4byte	0x260
 2526 0372 02       		.byte	0x2
 2527 0373 23       		.byte	0x23
 2528 0374 00       		.uleb128 0x0
 2529 0375 06       		.uleb128 0x6
 2530 0376 30010000 		.4byte	.LASF51
 2531 037a 07       		.byte	0x7
 2532 037b 2F       		.byte	0x2f
 2533 037c FA000000 		.4byte	0xfa
 2534 0380 02       		.byte	0x2
 2535 0381 23       		.byte	0x23
 2536 0382 08       		.uleb128 0x8
 2537 0383 00       		.byte	0x0
 2538 0384 04       		.uleb128 0x4
 2539 0385 E8020000 		.4byte	.LASF49
 2540 0389 07       		.byte	0x7
 2541 038a 30       		.byte	0x30
 2542 038b 5B030000 		.4byte	0x35b
 2543 038f 05       		.uleb128 0x5
 2544 0390 83010000 		.4byte	.LASF52
 2545 0394 10       		.byte	0x10
 2546 0395 08       		.byte	0x8
 2547 0396 2C       		.byte	0x2c
 2548 0397 C6030000 		.4byte	0x3c6
 2549 039b 06       		.uleb128 0x6
 2550 039c 81000000 		.4byte	.LASF53
 2551 03a0 08       		.byte	0x8
ARM GAS  C:\Users\DNIEL~1\AppData\Local\Temp\ccXA0XlR.s 			page 46


 2552 03a1 2D       		.byte	0x2d
 2553 03a2 60020000 		.4byte	0x260
 2554 03a6 02       		.byte	0x2
 2555 03a7 23       		.byte	0x23
 2556 03a8 00       		.uleb128 0x0
 2557 03a9 06       		.uleb128 0x6
 2558 03aa 33030000 		.4byte	.LASF54
 2559 03ae 08       		.byte	0x8
 2560 03af 2F       		.byte	0x2f
 2561 03b0 5A020000 		.4byte	0x25a
 2562 03b4 02       		.byte	0x2
 2563 03b5 23       		.byte	0x23
 2564 03b6 08       		.uleb128 0x8
 2565 03b7 06       		.uleb128 0x6
 2566 03b8 AC020000 		.4byte	.LASF55
 2567 03bc 08       		.byte	0x8
 2568 03bd 31       		.byte	0x31
 2569 03be C6030000 		.4byte	0x3c6
 2570 03c2 02       		.byte	0x2
 2571 03c3 23       		.byte	0x23
 2572 03c4 0C       		.uleb128 0xc
 2573 03c5 00       		.byte	0x0
 2574 03c6 09       		.uleb128 0x9
 2575 03c7 04       		.byte	0x4
 2576 03c8 8F030000 		.4byte	0x38f
 2577 03cc 04       		.uleb128 0x4
 2578 03cd 83010000 		.4byte	.LASF52
 2579 03d1 08       		.byte	0x8
 2580 03d2 33       		.byte	0x33
 2581 03d3 8F030000 		.4byte	0x38f
 2582 03d7 08       		.uleb128 0x8
 2583 03d8 28       		.byte	0x28
 2584 03d9 09       		.byte	0x9
 2585 03da 33       		.byte	0x33
 2586 03db 34040000 		.4byte	0x434
 2587 03df 06       		.uleb128 0x6
 2588 03e0 C2010000 		.4byte	.LASF56
 2589 03e4 09       		.byte	0x9
 2590 03e5 34       		.byte	0x34
 2591 03e6 34040000 		.4byte	0x434
 2592 03ea 02       		.byte	0x2
 2593 03eb 23       		.byte	0x23
 2594 03ec 00       		.uleb128 0x0
 2595 03ed 06       		.uleb128 0x6
 2596 03ee 36020000 		.4byte	.LASF57
 2597 03f2 09       		.byte	0x9
 2598 03f3 36       		.byte	0x36
 2599 03f4 34040000 		.4byte	0x434
 2600 03f8 02       		.byte	0x2
 2601 03f9 23       		.byte	0x23
 2602 03fa 04       		.uleb128 0x4
 2603 03fb 06       		.uleb128 0x6
 2604 03fc 4F000000 		.4byte	.LASF58
 2605 0400 09       		.byte	0x9
 2606 0401 38       		.byte	0x38
 2607 0402 34040000 		.4byte	0x434
 2608 0406 02       		.byte	0x2
ARM GAS  C:\Users\DNIEL~1\AppData\Local\Temp\ccXA0XlR.s 			page 47


 2609 0407 23       		.byte	0x23
 2610 0408 08       		.uleb128 0x8
 2611 0409 06       		.uleb128 0x6
 2612 040a 9E010000 		.4byte	.LASF59
 2613 040e 09       		.byte	0x9
 2614 040f 39       		.byte	0x39
 2615 0410 34040000 		.4byte	0x434
 2616 0414 02       		.byte	0x2
 2617 0415 23       		.byte	0x23
 2618 0416 0C       		.uleb128 0xc
 2619 0417 06       		.uleb128 0x6
 2620 0418 F2020000 		.4byte	.LASF60
 2621 041c 09       		.byte	0x9
 2622 041d 3A       		.byte	0x3a
 2623 041e 84030000 		.4byte	0x384
 2624 0422 02       		.byte	0x2
 2625 0423 23       		.byte	0x23
 2626 0424 10       		.uleb128 0x10
 2627 0425 06       		.uleb128 0x6
 2628 0426 1F010000 		.4byte	.LASF61
 2629 042a 09       		.byte	0x9
 2630 042b 3C       		.byte	0x3c
 2631 042c 84030000 		.4byte	0x384
 2632 0430 02       		.byte	0x2
 2633 0431 23       		.byte	0x23
 2634 0432 1C       		.uleb128 0x1c
 2635 0433 00       		.byte	0x0
 2636 0434 09       		.uleb128 0x9
 2637 0435 04       		.byte	0x4
 2638 0436 D9000000 		.4byte	0xd9
 2639 043a 04       		.uleb128 0x4
 2640 043b 16000000 		.4byte	.LASF62
 2641 043f 09       		.byte	0x9
 2642 0440 3E       		.byte	0x3e
 2643 0441 D7030000 		.4byte	0x3d7
 2644 0445 0E       		.uleb128 0xe
 2645 0446 04       		.byte	0x4
 2646 0447 05       		.byte	0x5
 2647 0448 96       		.byte	0x96
 2648 0449 7A040000 		.4byte	0x47a
 2649 044d 0F       		.uleb128 0xf
 2650 044e 06000000 		.4byte	.LASF63
 2651 0452 05       		.byte	0x5
 2652 0453 9D       		.byte	0x9d
 2653 0454 D9000000 		.4byte	0xd9
 2654 0458 0F       		.uleb128 0xf
 2655 0459 41000000 		.4byte	.LASF64
 2656 045d 05       		.byte	0x5
 2657 045e A4       		.byte	0xa4
 2658 045f D9000000 		.4byte	0xd9
 2659 0463 0F       		.uleb128 0xf
 2660 0464 19030000 		.4byte	.LASF65
 2661 0468 05       		.byte	0x5
 2662 0469 AB       		.byte	0xab
 2663 046a 98020000 		.4byte	0x298
 2664 046e 0F       		.uleb128 0xf
 2665 046f 63020000 		.4byte	.LASF66
ARM GAS  C:\Users\DNIEL~1\AppData\Local\Temp\ccXA0XlR.s 			page 48


 2666 0473 05       		.byte	0x5
 2667 0474 B2       		.byte	0xb2
 2668 0475 E4000000 		.4byte	0xe4
 2669 0479 00       		.byte	0x0
 2670 047a 09       		.uleb128 0x9
 2671 047b 04       		.byte	0x4
 2672 047c 80040000 		.4byte	0x480
 2673 0480 10       		.uleb128 0x10
 2674 0481 85040000 		.4byte	0x485
 2675 0485 03       		.uleb128 0x3
 2676 0486 01       		.byte	0x1
 2677 0487 08       		.byte	0x8
 2678 0488 A7020000 		.4byte	.LASF67
 2679 048c 09       		.uleb128 0x9
 2680 048d 04       		.byte	0x4
 2681 048e CC030000 		.4byte	0x3cc
 2682 0492 05       		.uleb128 0x5
 2683 0493 80020000 		.4byte	.LASF68
 2684 0497 10       		.byte	0x10
 2685 0498 0A       		.byte	0xa
 2686 0499 3B       		.byte	0x3b
 2687 049a D7040000 		.4byte	0x4d7
 2688 049e 06       		.uleb128 0x6
 2689 049f 2B010000 		.4byte	.LASF69
 2690 04a3 0A       		.byte	0xa
 2691 04a4 3C       		.byte	0x3c
 2692 04a5 7A040000 		.4byte	0x47a
 2693 04a9 02       		.byte	0x2
 2694 04aa 23       		.byte	0x23
 2695 04ab 00       		.uleb128 0x0
 2696 04ac 06       		.uleb128 0x6
 2697 04ad BC010000 		.4byte	.LASF70
 2698 04b1 0A       		.byte	0xa
 2699 04b2 3D       		.byte	0x3d
 2700 04b3 D9040000 		.4byte	0x4d9
 2701 04b7 02       		.byte	0x2
 2702 04b8 23       		.byte	0x23
 2703 04b9 04       		.uleb128 0x4
 2704 04ba 06       		.uleb128 0x6
 2705 04bb 16010000 		.4byte	.LASF71
 2706 04bf 0A       		.byte	0xa
 2707 04c0 3E       		.byte	0x3e
 2708 04c1 D9040000 		.4byte	0x4d9
 2709 04c5 02       		.byte	0x2
 2710 04c6 23       		.byte	0x23
 2711 04c7 08       		.uleb128 0x8
 2712 04c8 06       		.uleb128 0x6
 2713 04c9 E9010000 		.4byte	.LASF72
 2714 04cd 0A       		.byte	0xa
 2715 04ce 3F       		.byte	0x3f
 2716 04cf D9040000 		.4byte	0x4d9
 2717 04d3 02       		.byte	0x2
 2718 04d4 23       		.byte	0x23
 2719 04d5 0C       		.uleb128 0xc
 2720 04d6 00       		.byte	0x0
 2721 04d7 11       		.uleb128 0x11
 2722 04d8 01       		.byte	0x1
ARM GAS  C:\Users\DNIEL~1\AppData\Local\Temp\ccXA0XlR.s 			page 49


 2723 04d9 09       		.uleb128 0x9
 2724 04da 04       		.byte	0x4
 2725 04db D7040000 		.4byte	0x4d7
 2726 04df 12       		.uleb128 0x12
 2727 04e0 9006     		.2byte	0x690
 2728 04e2 0A       		.byte	0xa
 2729 04e3 44       		.byte	0x44
 2730 04e4 2E050000 		.4byte	0x52e
 2731 04e8 07       		.uleb128 0x7
 2732 04e9 543000   		.ascii	"T0\000"
 2733 04ec 0A       		.byte	0xa
 2734 04ed 45       		.byte	0x45
 2735 04ee 2E050000 		.4byte	0x52e
 2736 04f2 02       		.byte	0x2
 2737 04f3 23       		.byte	0x23
 2738 04f4 00       		.uleb128 0x0
 2739 04f5 07       		.uleb128 0x7
 2740 04f6 543100   		.ascii	"T1\000"
 2741 04f9 0A       		.byte	0xa
 2742 04fa 46       		.byte	0x46
 2743 04fb 2E050000 		.4byte	0x52e
 2744 04ff 03       		.byte	0x3
 2745 0500 23       		.byte	0x23
 2746 0501 D002     		.uleb128 0x150
 2747 0503 07       		.uleb128 0x7
 2748 0504 543200   		.ascii	"T2\000"
 2749 0507 0A       		.byte	0xa
 2750 0508 47       		.byte	0x47
 2751 0509 2E050000 		.4byte	0x52e
 2752 050d 03       		.byte	0x3
 2753 050e 23       		.byte	0x23
 2754 050f A005     		.uleb128 0x2a0
 2755 0511 07       		.uleb128 0x7
 2756 0512 543300   		.ascii	"T3\000"
 2757 0515 0A       		.byte	0xa
 2758 0516 48       		.byte	0x48
 2759 0517 2E050000 		.4byte	0x52e
 2760 051b 03       		.byte	0x3
 2761 051c 23       		.byte	0x23
 2762 051d F007     		.uleb128 0x3f0
 2763 051f 07       		.uleb128 0x7
 2764 0520 543400   		.ascii	"T4\000"
 2765 0523 0A       		.byte	0xa
 2766 0524 49       		.byte	0x49
 2767 0525 2E050000 		.4byte	0x52e
 2768 0529 03       		.byte	0x3
 2769 052a 23       		.byte	0x23
 2770 052b C00A     		.uleb128 0x540
 2771 052d 00       		.byte	0x0
 2772 052e 13       		.uleb128 0x13
 2773 052f 9A020000 		.4byte	0x29a
 2774 0533 3E050000 		.4byte	0x53e
 2775 0537 14       		.uleb128 0x14
 2776 0538 30000000 		.4byte	0x30
 2777 053c 29       		.byte	0x29
 2778 053d 00       		.byte	0x0
 2779 053e 15       		.uleb128 0x15
ARM GAS  C:\Users\DNIEL~1\AppData\Local\Temp\ccXA0XlR.s 			page 50


 2780 053f FD020000 		.4byte	.LASF81
 2781 0543 9006     		.2byte	0x690
 2782 0545 0A       		.byte	0xa
 2783 0546 43       		.byte	0x43
 2784 0547 61050000 		.4byte	0x561
 2785 054b 16       		.uleb128 0x16
 2786 054c 776100   		.ascii	"wa\000"
 2787 054f 0A       		.byte	0xa
 2788 0550 4A       		.byte	0x4a
 2789 0551 DF040000 		.4byte	0x4df
 2790 0555 0F       		.uleb128 0xf
 2791 0556 C8020000 		.4byte	.LASF73
 2792 055a 0A       		.byte	0xa
 2793 055b 4B       		.byte	0x4b
 2794 055c 61050000 		.4byte	0x561
 2795 0560 00       		.byte	0x0
 2796 0561 13       		.uleb128 0x13
 2797 0562 3E000000 		.4byte	0x3e
 2798 0566 72050000 		.4byte	0x572
 2799 056a 17       		.uleb128 0x17
 2800 056b 30000000 		.4byte	0x30
 2801 056f 8F06     		.2byte	0x68f
 2802 0571 00       		.byte	0x0
 2803 0572 18       		.uleb128 0x18
 2804 0573 CC010000 		.4byte	.LASF82
 2805 0577 01       		.byte	0x1
 2806 0578 4C       		.byte	0x4c
 2807 0579 01       		.byte	0x1
 2808 057a 00000000 		.4byte	.LFB8
 2809 057e E2060000 		.4byte	.LFE8
 2810 0582 00000000 		.4byte	.LLST0
 2811 0586 CD0B0000 		.4byte	0xbcd
 2812 058a 19       		.uleb128 0x19
 2813 058b FA000000 		.4byte	.LASF74
 2814 058f 01       		.byte	0x1
 2815 0590 4D       		.byte	0x4d
 2816 0591 D9000000 		.4byte	0xd9
 2817 0595 2C000000 		.4byte	.LLST1
 2818 0599 1A       		.uleb128 0x1a
 2819 059a FF000000 		.4byte	.LASF83
 2820 059e 01       		.byte	0x1
 2821 059f 4D       		.byte	0x4d
 2822 05a0 D9000000 		.4byte	0xd9
 2823 05a4 1B       		.uleb128 0x1b
 2824 05a5 6900     		.ascii	"i\000"
 2825 05a7 01       		.byte	0x1
 2826 05a8 4E       		.byte	0x4e
 2827 05a9 30000000 		.4byte	0x30
 2828 05ad D1010000 		.4byte	.LLST2
 2829 05b1 1C       		.uleb128 0x1c
 2830 05b2 CE000000 		.4byte	.LBB2
 2831 05b6 D4000000 		.4byte	.LBE2
 2832 05ba CE050000 		.4byte	0x5ce
 2833 05be 1B       		.uleb128 0x1b
 2834 05bf 746D7000 		.ascii	"tmp\000"
 2835 05c3 01       		.byte	0x1
 2836 05c4 64       		.byte	0x64
ARM GAS  C:\Users\DNIEL~1\AppData\Local\Temp\ccXA0XlR.s 			page 51


 2837 05c5 70000000 		.4byte	0x70
 2838 05c9 38020000 		.4byte	.LLST3
 2839 05cd 00       		.byte	0x0
 2840 05ce 1D       		.uleb128 0x1d
 2841 05cf 00000000 		.4byte	.Ldebug_ranges0+0x0
 2842 05d3 E7050000 		.4byte	0x5e7
 2843 05d7 1B       		.uleb128 0x1b
 2844 05d8 746D7000 		.ascii	"tmp\000"
 2845 05dc 01       		.byte	0x1
 2846 05dd 66       		.byte	0x66
 2847 05de 70000000 		.4byte	0x70
 2848 05e2 4B020000 		.4byte	.LLST4
 2849 05e6 00       		.byte	0x0
 2850 05e7 1C       		.uleb128 0x1c
 2851 05e8 1A010000 		.4byte	.LBB5
 2852 05ec 20010000 		.4byte	.LBE5
 2853 05f0 04060000 		.4byte	0x604
 2854 05f4 1B       		.uleb128 0x1b
 2855 05f5 746D7000 		.ascii	"tmp\000"
 2856 05f9 01       		.byte	0x1
 2857 05fa 6A       		.byte	0x6a
 2858 05fb 70000000 		.4byte	0x70
 2859 05ff 5E020000 		.4byte	.LLST5
 2860 0603 00       		.byte	0x0
 2861 0604 1D       		.uleb128 0x1d
 2862 0605 18000000 		.4byte	.Ldebug_ranges0+0x18
 2863 0609 1D060000 		.4byte	0x61d
 2864 060d 1B       		.uleb128 0x1b
 2865 060e 746D7000 		.ascii	"tmp\000"
 2866 0612 01       		.byte	0x1
 2867 0613 6C       		.byte	0x6c
 2868 0614 70000000 		.4byte	0x70
 2869 0618 71020000 		.4byte	.LLST6
 2870 061c 00       		.byte	0x0
 2871 061d 1C       		.uleb128 0x1c
 2872 061e 46010000 		.4byte	.LBB8
 2873 0622 4C010000 		.4byte	.LBE8
 2874 0626 3A060000 		.4byte	0x63a
 2875 062a 1B       		.uleb128 0x1b
 2876 062b 746D7000 		.ascii	"tmp\000"
 2877 062f 01       		.byte	0x1
 2878 0630 72       		.byte	0x72
 2879 0631 70000000 		.4byte	0x70
 2880 0635 84020000 		.4byte	.LLST7
 2881 0639 00       		.byte	0x0
 2882 063a 1C       		.uleb128 0x1c
 2883 063b 60010000 		.4byte	.LBB9
 2884 063f 66010000 		.4byte	.LBE9
 2885 0643 57060000 		.4byte	0x657
 2886 0647 1B       		.uleb128 0x1b
 2887 0648 746D7000 		.ascii	"tmp\000"
 2888 064c 01       		.byte	0x1
 2889 064d 72       		.byte	0x72
 2890 064e 70000000 		.4byte	0x70
 2891 0652 97020000 		.4byte	.LLST8
 2892 0656 00       		.byte	0x0
 2893 0657 1C       		.uleb128 0x1c
ARM GAS  C:\Users\DNIEL~1\AppData\Local\Temp\ccXA0XlR.s 			page 52


 2894 0658 68010000 		.4byte	.LBB10
 2895 065c 6E010000 		.4byte	.LBE10
 2896 0660 74060000 		.4byte	0x674
 2897 0664 1B       		.uleb128 0x1b
 2898 0665 746D7000 		.ascii	"tmp\000"
 2899 0669 01       		.byte	0x1
 2900 066a 72       		.byte	0x72
 2901 066b 70000000 		.4byte	0x70
 2902 066f B5020000 		.4byte	.LLST9
 2903 0673 00       		.byte	0x0
 2904 0674 1C       		.uleb128 0x1c
 2905 0675 6E010000 		.4byte	.LBB11
 2906 0679 74010000 		.4byte	.LBE11
 2907 067d 91060000 		.4byte	0x691
 2908 0681 1B       		.uleb128 0x1b
 2909 0682 746D7000 		.ascii	"tmp\000"
 2910 0686 01       		.byte	0x1
 2911 0687 73       		.byte	0x73
 2912 0688 70000000 		.4byte	0x70
 2913 068c C8020000 		.4byte	.LLST10
 2914 0690 00       		.byte	0x0
 2915 0691 1C       		.uleb128 0x1c
 2916 0692 8C010000 		.4byte	.LBB12
 2917 0696 92010000 		.4byte	.LBE12
 2918 069a AE060000 		.4byte	0x6ae
 2919 069e 1B       		.uleb128 0x1b
 2920 069f 746D7000 		.ascii	"tmp\000"
 2921 06a3 01       		.byte	0x1
 2922 06a4 73       		.byte	0x73
 2923 06a5 70000000 		.4byte	0x70
 2924 06a9 DB020000 		.4byte	.LLST11
 2925 06ad 00       		.byte	0x0
 2926 06ae 1C       		.uleb128 0x1c
 2927 06af 94010000 		.4byte	.LBB13
 2928 06b3 9A010000 		.4byte	.LBE13
 2929 06b7 CB060000 		.4byte	0x6cb
 2930 06bb 1B       		.uleb128 0x1b
 2931 06bc 746D7000 		.ascii	"tmp\000"
 2932 06c0 01       		.byte	0x1
 2933 06c1 73       		.byte	0x73
 2934 06c2 70000000 		.4byte	0x70
 2935 06c6 F9020000 		.4byte	.LLST12
 2936 06ca 00       		.byte	0x0
 2937 06cb 1C       		.uleb128 0x1c
 2938 06cc 9A010000 		.4byte	.LBB14
 2939 06d0 A0010000 		.4byte	.LBE14
 2940 06d4 E8060000 		.4byte	0x6e8
 2941 06d8 1B       		.uleb128 0x1b
 2942 06d9 746D7000 		.ascii	"tmp\000"
 2943 06dd 01       		.byte	0x1
 2944 06de 74       		.byte	0x74
 2945 06df 70000000 		.4byte	0x70
 2946 06e3 0C030000 		.4byte	.LLST13
 2947 06e7 00       		.byte	0x0
 2948 06e8 1C       		.uleb128 0x1c
 2949 06e9 BC010000 		.4byte	.LBB15
 2950 06ed C2010000 		.4byte	.LBE15
ARM GAS  C:\Users\DNIEL~1\AppData\Local\Temp\ccXA0XlR.s 			page 53


 2951 06f1 05070000 		.4byte	0x705
 2952 06f5 1B       		.uleb128 0x1b
 2953 06f6 746D7000 		.ascii	"tmp\000"
 2954 06fa 01       		.byte	0x1
 2955 06fb 74       		.byte	0x74
 2956 06fc 70000000 		.4byte	0x70
 2957 0700 1F030000 		.4byte	.LLST14
 2958 0704 00       		.byte	0x0
 2959 0705 1C       		.uleb128 0x1c
 2960 0706 98020000 		.4byte	.LBB16
 2961 070a 9E020000 		.4byte	.LBE16
 2962 070e 22070000 		.4byte	0x722
 2963 0712 1B       		.uleb128 0x1b
 2964 0713 746D7000 		.ascii	"tmp\000"
 2965 0717 01       		.byte	0x1
 2966 0718 8F       		.byte	0x8f
 2967 0719 70000000 		.4byte	0x70
 2968 071d 32030000 		.4byte	.LLST15
 2969 0721 00       		.byte	0x0
 2970 0722 1D       		.uleb128 0x1d
 2971 0723 30000000 		.4byte	.Ldebug_ranges0+0x30
 2972 0727 3B070000 		.4byte	0x73b
 2973 072b 1B       		.uleb128 0x1b
 2974 072c 746D7000 		.ascii	"tmp\000"
 2975 0730 01       		.byte	0x1
 2976 0731 91       		.byte	0x91
 2977 0732 70000000 		.4byte	0x70
 2978 0736 45030000 		.4byte	.LLST16
 2979 073a 00       		.byte	0x0
 2980 073b 1C       		.uleb128 0x1c
 2981 073c C6020000 		.4byte	.LBB19
 2982 0740 CC020000 		.4byte	.LBE19
 2983 0744 58070000 		.4byte	0x758
 2984 0748 1B       		.uleb128 0x1b
 2985 0749 746D7000 		.ascii	"tmp\000"
 2986 074d 01       		.byte	0x1
 2987 074e 97       		.byte	0x97
 2988 074f 70000000 		.4byte	0x70
 2989 0753 58030000 		.4byte	.LLST17
 2990 0757 00       		.byte	0x0
 2991 0758 1C       		.uleb128 0x1c
 2992 0759 E0020000 		.4byte	.LBB20
 2993 075d E6020000 		.4byte	.LBE20
 2994 0761 75070000 		.4byte	0x775
 2995 0765 1B       		.uleb128 0x1b
 2996 0766 746D7000 		.ascii	"tmp\000"
 2997 076a 01       		.byte	0x1
 2998 076b 97       		.byte	0x97
 2999 076c 70000000 		.4byte	0x70
 3000 0770 6B030000 		.4byte	.LLST18
 3001 0774 00       		.byte	0x0
 3002 0775 1C       		.uleb128 0x1c
 3003 0776 E8020000 		.4byte	.LBB21
 3004 077a EE020000 		.4byte	.LBE21
 3005 077e 92070000 		.4byte	0x792
 3006 0782 1B       		.uleb128 0x1b
 3007 0783 746D7000 		.ascii	"tmp\000"
ARM GAS  C:\Users\DNIEL~1\AppData\Local\Temp\ccXA0XlR.s 			page 54


 3008 0787 01       		.byte	0x1
 3009 0788 74       		.byte	0x74
 3010 0789 70000000 		.4byte	0x70
 3011 078d 89030000 		.4byte	.LLST19
 3012 0791 00       		.byte	0x0
 3013 0792 1C       		.uleb128 0x1c
 3014 0793 F8020000 		.4byte	.LBB22
 3015 0797 FE020000 		.4byte	.LBE22
 3016 079b AF070000 		.4byte	0x7af
 3017 079f 1B       		.uleb128 0x1b
 3018 07a0 746D7000 		.ascii	"tmp\000"
 3019 07a4 01       		.byte	0x1
 3020 07a5 97       		.byte	0x97
 3021 07a6 70000000 		.4byte	0x70
 3022 07aa A7030000 		.4byte	.LLST20
 3023 07ae 00       		.byte	0x0
 3024 07af 1C       		.uleb128 0x1c
 3025 07b0 FE020000 		.4byte	.LBB23
 3026 07b4 04030000 		.4byte	.LBE23
 3027 07b8 CC070000 		.4byte	0x7cc
 3028 07bc 1B       		.uleb128 0x1b
 3029 07bd 746D7000 		.ascii	"tmp\000"
 3030 07c1 01       		.byte	0x1
 3031 07c2 98       		.byte	0x98
 3032 07c3 70000000 		.4byte	0x70
 3033 07c7 BA030000 		.4byte	.LLST21
 3034 07cb 00       		.byte	0x0
 3035 07cc 1C       		.uleb128 0x1c
 3036 07cd 1A030000 		.4byte	.LBB24
 3037 07d1 20030000 		.4byte	.LBE24
 3038 07d5 E9070000 		.4byte	0x7e9
 3039 07d9 1B       		.uleb128 0x1b
 3040 07da 746D7000 		.ascii	"tmp\000"
 3041 07de 01       		.byte	0x1
 3042 07df 98       		.byte	0x98
 3043 07e0 70000000 		.4byte	0x70
 3044 07e4 CD030000 		.4byte	.LLST22
 3045 07e8 00       		.byte	0x0
 3046 07e9 1C       		.uleb128 0x1c
 3047 07ea 22030000 		.4byte	.LBB25
 3048 07ee 28030000 		.4byte	.LBE25
 3049 07f2 06080000 		.4byte	0x806
 3050 07f6 1B       		.uleb128 0x1b
 3051 07f7 746D7000 		.ascii	"tmp\000"
 3052 07fb 01       		.byte	0x1
 3053 07fc 98       		.byte	0x98
 3054 07fd 70000000 		.4byte	0x70
 3055 0801 EB030000 		.4byte	.LLST23
 3056 0805 00       		.byte	0x0
 3057 0806 1C       		.uleb128 0x1c
 3058 0807 28030000 		.4byte	.LBB26
 3059 080b 2E030000 		.4byte	.LBE26
 3060 080f 23080000 		.4byte	0x823
 3061 0813 1B       		.uleb128 0x1b
 3062 0814 746D7000 		.ascii	"tmp\000"
 3063 0818 01       		.byte	0x1
 3064 0819 99       		.byte	0x99
ARM GAS  C:\Users\DNIEL~1\AppData\Local\Temp\ccXA0XlR.s 			page 55


 3065 081a 70000000 		.4byte	0x70
 3066 081e FE030000 		.4byte	.LLST24
 3067 0822 00       		.byte	0x0
 3068 0823 1C       		.uleb128 0x1c
 3069 0824 48030000 		.4byte	.LBB27
 3070 0828 4E030000 		.4byte	.LBE27
 3071 082c 40080000 		.4byte	0x840
 3072 0830 1B       		.uleb128 0x1b
 3073 0831 746D7000 		.ascii	"tmp\000"
 3074 0835 01       		.byte	0x1
 3075 0836 99       		.byte	0x99
 3076 0837 70000000 		.4byte	0x70
 3077 083b 11040000 		.4byte	.LLST25
 3078 083f 00       		.byte	0x0
 3079 0840 1C       		.uleb128 0x1c
 3080 0841 50030000 		.4byte	.LBB28
 3081 0845 54030000 		.4byte	.LBE28
 3082 0849 5D080000 		.4byte	0x85d
 3083 084d 1B       		.uleb128 0x1b
 3084 084e 746D7000 		.ascii	"tmp\000"
 3085 0852 01       		.byte	0x1
 3086 0853 99       		.byte	0x99
 3087 0854 70000000 		.4byte	0x70
 3088 0858 2F040000 		.4byte	.LLST26
 3089 085c 00       		.byte	0x0
 3090 085d 1C       		.uleb128 0x1c
 3091 085e 54030000 		.4byte	.LBB29
 3092 0862 5A030000 		.4byte	.LBE29
 3093 0866 7A080000 		.4byte	0x87a
 3094 086a 1B       		.uleb128 0x1b
 3095 086b 746D7000 		.ascii	"tmp\000"
 3096 086f 01       		.byte	0x1
 3097 0870 9E       		.byte	0x9e
 3098 0871 70000000 		.4byte	0x70
 3099 0875 42040000 		.4byte	.LLST27
 3100 0879 00       		.byte	0x0
 3101 087a 1D       		.uleb128 0x1d
 3102 087b 48000000 		.4byte	.Ldebug_ranges0+0x48
 3103 087f 93080000 		.4byte	0x893
 3104 0883 1B       		.uleb128 0x1b
 3105 0884 746D7000 		.ascii	"tmp\000"
 3106 0888 01       		.byte	0x1
 3107 0889 A8       		.byte	0xa8
 3108 088a 70000000 		.4byte	0x70
 3109 088e 55040000 		.4byte	.LLST28
 3110 0892 00       		.byte	0x0
 3111 0893 1C       		.uleb128 0x1c
 3112 0894 0E040000 		.4byte	.LBB32
 3113 0898 14040000 		.4byte	.LBE32
 3114 089c B0080000 		.4byte	0x8b0
 3115 08a0 1B       		.uleb128 0x1b
 3116 08a1 746D7000 		.ascii	"tmp\000"
 3117 08a5 01       		.byte	0x1
 3118 08a6 AC       		.byte	0xac
 3119 08a7 70000000 		.4byte	0x70
 3120 08ab 68040000 		.4byte	.LLST29
 3121 08af 00       		.byte	0x0
ARM GAS  C:\Users\DNIEL~1\AppData\Local\Temp\ccXA0XlR.s 			page 56


 3122 08b0 1D       		.uleb128 0x1d
 3123 08b1 60000000 		.4byte	.Ldebug_ranges0+0x60
 3124 08b5 C9080000 		.4byte	0x8c9
 3125 08b9 1B       		.uleb128 0x1b
 3126 08ba 746D7000 		.ascii	"tmp\000"
 3127 08be 01       		.byte	0x1
 3128 08bf AE       		.byte	0xae
 3129 08c0 70000000 		.4byte	0x70
 3130 08c4 7B040000 		.4byte	.LLST30
 3131 08c8 00       		.byte	0x0
 3132 08c9 1C       		.uleb128 0x1c
 3133 08ca 58040000 		.4byte	.LBB35
 3134 08ce 5E040000 		.4byte	.LBE35
 3135 08d2 E6080000 		.4byte	0x8e6
 3136 08d6 1B       		.uleb128 0x1b
 3137 08d7 746D7000 		.ascii	"tmp\000"
 3138 08db 01       		.byte	0x1
 3139 08dc B3       		.byte	0xb3
 3140 08dd 70000000 		.4byte	0x70
 3141 08e1 8E040000 		.4byte	.LLST31
 3142 08e5 00       		.byte	0x0
 3143 08e6 1C       		.uleb128 0x1c
 3144 08e7 72040000 		.4byte	.LBB36
 3145 08eb 78040000 		.4byte	.LBE36
 3146 08ef 03090000 		.4byte	0x903
 3147 08f3 1B       		.uleb128 0x1b
 3148 08f4 746D7000 		.ascii	"tmp\000"
 3149 08f8 01       		.byte	0x1
 3150 08f9 B3       		.byte	0xb3
 3151 08fa 70000000 		.4byte	0x70
 3152 08fe A1040000 		.4byte	.LLST32
 3153 0902 00       		.byte	0x0
 3154 0903 1C       		.uleb128 0x1c
 3155 0904 7A040000 		.4byte	.LBB37
 3156 0908 80040000 		.4byte	.LBE37
 3157 090c 20090000 		.4byte	0x920
 3158 0910 1B       		.uleb128 0x1b
 3159 0911 746D7000 		.ascii	"tmp\000"
 3160 0915 01       		.byte	0x1
 3161 0916 B3       		.byte	0xb3
 3162 0917 70000000 		.4byte	0x70
 3163 091b BF040000 		.4byte	.LLST33
 3164 091f 00       		.byte	0x0
 3165 0920 1C       		.uleb128 0x1c
 3166 0921 80040000 		.4byte	.LBB38
 3167 0925 86040000 		.4byte	.LBE38
 3168 0929 3D090000 		.4byte	0x93d
 3169 092d 1B       		.uleb128 0x1b
 3170 092e 746D7000 		.ascii	"tmp\000"
 3171 0932 01       		.byte	0x1
 3172 0933 B4       		.byte	0xb4
 3173 0934 70000000 		.4byte	0x70
 3174 0938 D2040000 		.4byte	.LLST34
 3175 093c 00       		.byte	0x0
 3176 093d 1C       		.uleb128 0x1c
 3177 093e 98040000 		.4byte	.LBB39
 3178 0942 9E040000 		.4byte	.LBE39
ARM GAS  C:\Users\DNIEL~1\AppData\Local\Temp\ccXA0XlR.s 			page 57


 3179 0946 5A090000 		.4byte	0x95a
 3180 094a 1B       		.uleb128 0x1b
 3181 094b 746D7000 		.ascii	"tmp\000"
 3182 094f 01       		.byte	0x1
 3183 0950 B4       		.byte	0xb4
 3184 0951 70000000 		.4byte	0x70
 3185 0955 E5040000 		.4byte	.LLST35
 3186 0959 00       		.byte	0x0
 3187 095a 1C       		.uleb128 0x1c
 3188 095b A0040000 		.4byte	.LBB40
 3189 095f A6040000 		.4byte	.LBE40
 3190 0963 77090000 		.4byte	0x977
 3191 0967 1B       		.uleb128 0x1b
 3192 0968 746D7000 		.ascii	"tmp\000"
 3193 096c 01       		.byte	0x1
 3194 096d B4       		.byte	0xb4
 3195 096e 70000000 		.4byte	0x70
 3196 0972 03050000 		.4byte	.LLST36
 3197 0976 00       		.byte	0x0
 3198 0977 1C       		.uleb128 0x1c
 3199 0978 C2040000 		.4byte	.LBB41
 3200 097c C8040000 		.4byte	.LBE41
 3201 0980 94090000 		.4byte	0x994
 3202 0984 1B       		.uleb128 0x1b
 3203 0985 746D7000 		.ascii	"tmp\000"
 3204 0989 01       		.byte	0x1
 3205 098a B7       		.byte	0xb7
 3206 098b 70000000 		.4byte	0x70
 3207 098f 16050000 		.4byte	.LLST37
 3208 0993 00       		.byte	0x0
 3209 0994 1D       		.uleb128 0x1d
 3210 0995 78000000 		.4byte	.Ldebug_ranges0+0x78
 3211 0999 AD090000 		.4byte	0x9ad
 3212 099d 1B       		.uleb128 0x1b
 3213 099e 746D7000 		.ascii	"tmp\000"
 3214 09a2 01       		.byte	0x1
 3215 09a3 C1       		.byte	0xc1
 3216 09a4 70000000 		.4byte	0x70
 3217 09a8 29050000 		.4byte	.LLST38
 3218 09ac 00       		.byte	0x0
 3219 09ad 1C       		.uleb128 0x1c
 3220 09ae 80050000 		.4byte	.LBB44
 3221 09b2 86050000 		.4byte	.LBE44
 3222 09b6 CA090000 		.4byte	0x9ca
 3223 09ba 1B       		.uleb128 0x1b
 3224 09bb 746D7000 		.ascii	"tmp\000"
 3225 09bf 01       		.byte	0x1
 3226 09c0 C5       		.byte	0xc5
 3227 09c1 70000000 		.4byte	0x70
 3228 09c5 3C050000 		.4byte	.LLST39
 3229 09c9 00       		.byte	0x0
 3230 09ca 1D       		.uleb128 0x1d
 3231 09cb 90000000 		.4byte	.Ldebug_ranges0+0x90
 3232 09cf E3090000 		.4byte	0x9e3
 3233 09d3 1B       		.uleb128 0x1b
 3234 09d4 746D7000 		.ascii	"tmp\000"
 3235 09d8 01       		.byte	0x1
ARM GAS  C:\Users\DNIEL~1\AppData\Local\Temp\ccXA0XlR.s 			page 58


 3236 09d9 C7       		.byte	0xc7
 3237 09da 70000000 		.4byte	0x70
 3238 09de 4F050000 		.4byte	.LLST40
 3239 09e2 00       		.byte	0x0
 3240 09e3 1C       		.uleb128 0x1c
 3241 09e4 C8050000 		.4byte	.LBB47
 3242 09e8 CE050000 		.4byte	.LBE47
 3243 09ec 000A0000 		.4byte	0xa00
 3244 09f0 1B       		.uleb128 0x1b
 3245 09f1 746D7000 		.ascii	"tmp\000"
 3246 09f5 01       		.byte	0x1
 3247 09f6 CC       		.byte	0xcc
 3248 09f7 70000000 		.4byte	0x70
 3249 09fb 62050000 		.4byte	.LLST41
 3250 09ff 00       		.byte	0x0
 3251 0a00 1C       		.uleb128 0x1c
 3252 0a01 E4050000 		.4byte	.LBB48
 3253 0a05 EA050000 		.4byte	.LBE48
 3254 0a09 1D0A0000 		.4byte	0xa1d
 3255 0a0d 1B       		.uleb128 0x1b
 3256 0a0e 746D7000 		.ascii	"tmp\000"
 3257 0a12 01       		.byte	0x1
 3258 0a13 CC       		.byte	0xcc
 3259 0a14 70000000 		.4byte	0x70
 3260 0a18 75050000 		.4byte	.LLST42
 3261 0a1c 00       		.byte	0x0
 3262 0a1d 1C       		.uleb128 0x1c
 3263 0a1e EC050000 		.4byte	.LBB49
 3264 0a22 F2050000 		.4byte	.LBE49
 3265 0a26 3A0A0000 		.4byte	0xa3a
 3266 0a2a 1B       		.uleb128 0x1b
 3267 0a2b 746D7000 		.ascii	"tmp\000"
 3268 0a2f 01       		.byte	0x1
 3269 0a30 CC       		.byte	0xcc
 3270 0a31 70000000 		.4byte	0x70
 3271 0a35 93050000 		.4byte	.LLST43
 3272 0a39 00       		.byte	0x0
 3273 0a3a 1C       		.uleb128 0x1c
 3274 0a3b F2050000 		.4byte	.LBB50
 3275 0a3f F8050000 		.4byte	.LBE50
 3276 0a43 570A0000 		.4byte	0xa57
 3277 0a47 1B       		.uleb128 0x1b
 3278 0a48 746D7000 		.ascii	"tmp\000"
 3279 0a4c 01       		.byte	0x1
 3280 0a4d CD       		.byte	0xcd
 3281 0a4e 70000000 		.4byte	0x70
 3282 0a52 A6050000 		.4byte	.LLST44
 3283 0a56 00       		.byte	0x0
 3284 0a57 1C       		.uleb128 0x1c
 3285 0a58 0A060000 		.4byte	.LBB51
 3286 0a5c 10060000 		.4byte	.LBE51
 3287 0a60 740A0000 		.4byte	0xa74
 3288 0a64 1B       		.uleb128 0x1b
 3289 0a65 746D7000 		.ascii	"tmp\000"
 3290 0a69 01       		.byte	0x1
 3291 0a6a CD       		.byte	0xcd
 3292 0a6b 70000000 		.4byte	0x70
ARM GAS  C:\Users\DNIEL~1\AppData\Local\Temp\ccXA0XlR.s 			page 59


 3293 0a6f B9050000 		.4byte	.LLST45
 3294 0a73 00       		.byte	0x0
 3295 0a74 1C       		.uleb128 0x1c
 3296 0a75 1C060000 		.4byte	.LBB52
 3297 0a79 22060000 		.4byte	.LBE52
 3298 0a7d 910A0000 		.4byte	0xa91
 3299 0a81 1B       		.uleb128 0x1b
 3300 0a82 746D7000 		.ascii	"tmp\000"
 3301 0a86 01       		.byte	0x1
 3302 0a87 CD       		.byte	0xcd
 3303 0a88 70000000 		.4byte	0x70
 3304 0a8c D7050000 		.4byte	.LLST46
 3305 0a90 00       		.byte	0x0
 3306 0a91 1C       		.uleb128 0x1c
 3307 0a92 44060000 		.4byte	.LBB53
 3308 0a96 4A060000 		.4byte	.LBE53
 3309 0a9a AE0A0000 		.4byte	0xaae
 3310 0a9e 1B       		.uleb128 0x1b
 3311 0a9f 746D7000 		.ascii	"tmp\000"
 3312 0aa3 01       		.byte	0x1
 3313 0aa4 D8       		.byte	0xd8
 3314 0aa5 70000000 		.4byte	0x70
 3315 0aa9 EA050000 		.4byte	.LLST47
 3316 0aad 00       		.byte	0x0
 3317 0aae 1C       		.uleb128 0x1c
 3318 0aaf 60060000 		.4byte	.LBB54
 3319 0ab3 66060000 		.4byte	.LBE54
 3320 0ab7 CB0A0000 		.4byte	0xacb
 3321 0abb 1B       		.uleb128 0x1b
 3322 0abc 746D7000 		.ascii	"tmp\000"
 3323 0ac0 01       		.byte	0x1
 3324 0ac1 D8       		.byte	0xd8
 3325 0ac2 70000000 		.4byte	0x70
 3326 0ac6 FD050000 		.4byte	.LLST48
 3327 0aca 00       		.byte	0x0
 3328 0acb 1C       		.uleb128 0x1c
 3329 0acc 68060000 		.4byte	.LBB55
 3330 0ad0 6E060000 		.4byte	.LBE55
 3331 0ad4 E80A0000 		.4byte	0xae8
 3332 0ad8 1B       		.uleb128 0x1b
 3333 0ad9 746D7000 		.ascii	"tmp\000"
 3334 0add 01       		.byte	0x1
 3335 0ade D8       		.byte	0xd8
 3336 0adf 70000000 		.4byte	0x70
 3337 0ae3 1B060000 		.4byte	.LLST49
 3338 0ae7 00       		.byte	0x0
 3339 0ae8 1C       		.uleb128 0x1c
 3340 0ae9 6E060000 		.4byte	.LBB56
 3341 0aed 74060000 		.4byte	.LBE56
 3342 0af1 050B0000 		.4byte	0xb05
 3343 0af5 1B       		.uleb128 0x1b
 3344 0af6 746D7000 		.ascii	"tmp\000"
 3345 0afa 01       		.byte	0x1
 3346 0afb D9       		.byte	0xd9
 3347 0afc 70000000 		.4byte	0x70
 3348 0b00 2E060000 		.4byte	.LLST50
 3349 0b04 00       		.byte	0x0
ARM GAS  C:\Users\DNIEL~1\AppData\Local\Temp\ccXA0XlR.s 			page 60


 3350 0b05 1C       		.uleb128 0x1c
 3351 0b06 86060000 		.4byte	.LBB57
 3352 0b0a 8C060000 		.4byte	.LBE57
 3353 0b0e 220B0000 		.4byte	0xb22
 3354 0b12 1B       		.uleb128 0x1b
 3355 0b13 746D7000 		.ascii	"tmp\000"
 3356 0b17 01       		.byte	0x1
 3357 0b18 D9       		.byte	0xd9
 3358 0b19 70000000 		.4byte	0x70
 3359 0b1d 41060000 		.4byte	.LLST51
 3360 0b21 00       		.byte	0x0
 3361 0b22 1C       		.uleb128 0x1c
 3362 0b23 8E060000 		.4byte	.LBB58
 3363 0b27 94060000 		.4byte	.LBE58
 3364 0b2b 3F0B0000 		.4byte	0xb3f
 3365 0b2f 1B       		.uleb128 0x1b
 3366 0b30 746D7000 		.ascii	"tmp\000"
 3367 0b34 01       		.byte	0x1
 3368 0b35 D9       		.byte	0xd9
 3369 0b36 70000000 		.4byte	0x70
 3370 0b3a 5F060000 		.4byte	.LLST52
 3371 0b3e 00       		.byte	0x0
 3372 0b3f 1C       		.uleb128 0x1c
 3373 0b40 94060000 		.4byte	.LBB59
 3374 0b44 9A060000 		.4byte	.LBE59
 3375 0b48 5C0B0000 		.4byte	0xb5c
 3376 0b4c 1B       		.uleb128 0x1b
 3377 0b4d 746D7000 		.ascii	"tmp\000"
 3378 0b51 01       		.byte	0x1
 3379 0b52 DA       		.byte	0xda
 3380 0b53 70000000 		.4byte	0x70
 3381 0b57 72060000 		.4byte	.LLST53
 3382 0b5b 00       		.byte	0x0
 3383 0b5c 1C       		.uleb128 0x1c
 3384 0b5d B0060000 		.4byte	.LBB60
 3385 0b61 B6060000 		.4byte	.LBE60
 3386 0b65 790B0000 		.4byte	0xb79
 3387 0b69 1B       		.uleb128 0x1b
 3388 0b6a 746D7000 		.ascii	"tmp\000"
 3389 0b6e 01       		.byte	0x1
 3390 0b6f DA       		.byte	0xda
 3391 0b70 70000000 		.4byte	0x70
 3392 0b74 85060000 		.4byte	.LLST54
 3393 0b78 00       		.byte	0x0
 3394 0b79 1C       		.uleb128 0x1c
 3395 0b7a B8060000 		.4byte	.LBB61
 3396 0b7e BE060000 		.4byte	.LBE61
 3397 0b82 960B0000 		.4byte	0xb96
 3398 0b86 1B       		.uleb128 0x1b
 3399 0b87 746D7000 		.ascii	"tmp\000"
 3400 0b8b 01       		.byte	0x1
 3401 0b8c DA       		.byte	0xda
 3402 0b8d 70000000 		.4byte	0x70
 3403 0b91 A3060000 		.4byte	.LLST55
 3404 0b95 00       		.byte	0x0
 3405 0b96 1C       		.uleb128 0x1c
 3406 0b97 BE060000 		.4byte	.LBB62
ARM GAS  C:\Users\DNIEL~1\AppData\Local\Temp\ccXA0XlR.s 			page 61


 3407 0b9b C4060000 		.4byte	.LBE62
 3408 0b9f B30B0000 		.4byte	0xbb3
 3409 0ba3 1B       		.uleb128 0x1b
 3410 0ba4 746D7000 		.ascii	"tmp\000"
 3411 0ba8 01       		.byte	0x1
 3412 0ba9 DB       		.byte	0xdb
 3413 0baa 70000000 		.4byte	0x70
 3414 0bae B6060000 		.4byte	.LLST56
 3415 0bb2 00       		.byte	0x0
 3416 0bb3 1E       		.uleb128 0x1e
 3417 0bb4 DA060000 		.4byte	.LBB63
 3418 0bb8 E2060000 		.4byte	.LBE63
 3419 0bbc 1B       		.uleb128 0x1b
 3420 0bbd 746D7000 		.ascii	"tmp\000"
 3421 0bc1 01       		.byte	0x1
 3422 0bc2 DB       		.byte	0xdb
 3423 0bc3 70000000 		.4byte	0x70
 3424 0bc7 C9060000 		.4byte	.LLST57
 3425 0bcb 00       		.byte	0x0
 3426 0bcc 00       		.byte	0x0
 3427 0bcd 1F       		.uleb128 0x1f
 3428 0bce 5F010000 		.4byte	.LASF84
 3429 0bd2 01       		.byte	0x1
 3430 0bd3 47       		.byte	0x47
 3431 0bd4 01       		.byte	0x1
 3432 0bd5 00000000 		.4byte	.LFB7
 3433 0bd9 14000000 		.4byte	.LFE7
 3434 0bdd 02       		.byte	0x2
 3435 0bde 7D       		.byte	0x7d
 3436 0bdf 00       		.sleb128 0
 3437 0be0 20       		.uleb128 0x20
 3438 0be1 4A000000 		.4byte	.LASF75
 3439 0be5 0A       		.byte	0xa
 3440 0be6 A6       		.byte	0xa6
 3441 0be7 3E050000 		.4byte	0x53e
 3442 0beb 01       		.byte	0x1
 3443 0bec 01       		.byte	0x1
 3444 0bed 21       		.uleb128 0x21
 3445 0bee 6D623100 		.ascii	"mb1\000"
 3446 0bf2 01       		.byte	0x1
 3447 0bf3 3C       		.byte	0x3c
 3448 0bf4 3A040000 		.4byte	0x43a
 3449 0bf8 05       		.byte	0x5
 3450 0bf9 03       		.byte	0x3
 3451 0bfa 00000000 		.4byte	mb1
 3452 0bfe 20       		.uleb128 0x20
 3453 0bff 89010000 		.4byte	.LASF76
 3454 0c03 01       		.byte	0x1
 3455 0c04 DE       		.byte	0xde
 3456 0c05 0B0C0000 		.4byte	0xc0b
 3457 0c09 01       		.byte	0x1
 3458 0c0a 01       		.byte	0x1
 3459 0c0b 10       		.uleb128 0x10
 3460 0c0c 92040000 		.4byte	0x492
 3461 0c10 20       		.uleb128 0x20
 3462 0c11 4A000000 		.4byte	.LASF75
 3463 0c15 0A       		.byte	0xa
ARM GAS  C:\Users\DNIEL~1\AppData\Local\Temp\ccXA0XlR.s 			page 62


 3464 0c16 A6       		.byte	0xa6
 3465 0c17 3E050000 		.4byte	0x53e
 3466 0c1b 01       		.byte	0x1
 3467 0c1c 01       		.byte	0x1
 3468 0c1d 22       		.uleb128 0x22
 3469 0c1e 89010000 		.4byte	.LASF76
 3470 0c22 01       		.byte	0x1
 3471 0c23 DE       		.byte	0xde
 3472 0c24 0B0C0000 		.4byte	0xc0b
 3473 0c28 01       		.byte	0x1
 3474 0c29 05       		.byte	0x5
 3475 0c2a 03       		.byte	0x3
 3476 0c2b 00000000 		.4byte	testmbox1
 3477 0c2f 13       		.uleb128 0x13
 3478 0c30 3F0C0000 		.4byte	0xc3f
 3479 0c34 3F0C0000 		.4byte	0xc3f
 3480 0c38 14       		.uleb128 0x14
 3481 0c39 30000000 		.4byte	0x30
 3482 0c3d 01       		.byte	0x1
 3483 0c3e 00       		.byte	0x0
 3484 0c3f 09       		.uleb128 0x9
 3485 0c40 04       		.byte	0x4
 3486 0c41 0B0C0000 		.4byte	0xc0b
 3487 0c45 22       		.uleb128 0x22
 3488 0c46 35000000 		.4byte	.LASF77
 3489 0c4a 01       		.byte	0x1
 3490 0c4b EA       		.byte	0xea
 3491 0c4c 570C0000 		.4byte	0xc57
 3492 0c50 01       		.byte	0x1
 3493 0c51 05       		.byte	0x5
 3494 0c52 03       		.byte	0x3
 3495 0c53 00000000 		.4byte	patternmbox
 3496 0c57 10       		.uleb128 0x10
 3497 0c58 2F0C0000 		.4byte	0xc2f
 3498 0c5c 00       		.byte	0x0
 3499              		.section	.debug_abbrev
 3500 0000 01       		.uleb128 0x1
 3501 0001 11       		.uleb128 0x11
 3502 0002 01       		.byte	0x1
 3503 0003 25       		.uleb128 0x25
 3504 0004 0E       		.uleb128 0xe
 3505 0005 13       		.uleb128 0x13
 3506 0006 0B       		.uleb128 0xb
 3507 0007 03       		.uleb128 0x3
 3508 0008 0E       		.uleb128 0xe
 3509 0009 1B       		.uleb128 0x1b
 3510 000a 0E       		.uleb128 0xe
 3511 000b 11       		.uleb128 0x11
 3512 000c 01       		.uleb128 0x1
 3513 000d 52       		.uleb128 0x52
 3514 000e 01       		.uleb128 0x1
 3515 000f 55       		.uleb128 0x55
 3516 0010 06       		.uleb128 0x6
 3517 0011 10       		.uleb128 0x10
 3518 0012 06       		.uleb128 0x6
 3519 0013 00       		.byte	0x0
 3520 0014 00       		.byte	0x0
ARM GAS  C:\Users\DNIEL~1\AppData\Local\Temp\ccXA0XlR.s 			page 63


 3521 0015 02       		.uleb128 0x2
 3522 0016 24       		.uleb128 0x24
 3523 0017 00       		.byte	0x0
 3524 0018 0B       		.uleb128 0xb
 3525 0019 0B       		.uleb128 0xb
 3526 001a 3E       		.uleb128 0x3e
 3527 001b 0B       		.uleb128 0xb
 3528 001c 03       		.uleb128 0x3
 3529 001d 08       		.uleb128 0x8
 3530 001e 00       		.byte	0x0
 3531 001f 00       		.byte	0x0
 3532 0020 03       		.uleb128 0x3
 3533 0021 24       		.uleb128 0x24
 3534 0022 00       		.byte	0x0
 3535 0023 0B       		.uleb128 0xb
 3536 0024 0B       		.uleb128 0xb
 3537 0025 3E       		.uleb128 0x3e
 3538 0026 0B       		.uleb128 0xb
 3539 0027 03       		.uleb128 0x3
 3540 0028 0E       		.uleb128 0xe
 3541 0029 00       		.byte	0x0
 3542 002a 00       		.byte	0x0
 3543 002b 04       		.uleb128 0x4
 3544 002c 16       		.uleb128 0x16
 3545 002d 00       		.byte	0x0
 3546 002e 03       		.uleb128 0x3
 3547 002f 0E       		.uleb128 0xe
 3548 0030 3A       		.uleb128 0x3a
 3549 0031 0B       		.uleb128 0xb
 3550 0032 3B       		.uleb128 0x3b
 3551 0033 0B       		.uleb128 0xb
 3552 0034 49       		.uleb128 0x49
 3553 0035 13       		.uleb128 0x13
 3554 0036 00       		.byte	0x0
 3555 0037 00       		.byte	0x0
 3556 0038 05       		.uleb128 0x5
 3557 0039 13       		.uleb128 0x13
 3558 003a 01       		.byte	0x1
 3559 003b 03       		.uleb128 0x3
 3560 003c 0E       		.uleb128 0xe
 3561 003d 0B       		.uleb128 0xb
 3562 003e 0B       		.uleb128 0xb
 3563 003f 3A       		.uleb128 0x3a
 3564 0040 0B       		.uleb128 0xb
 3565 0041 3B       		.uleb128 0x3b
 3566 0042 0B       		.uleb128 0xb
 3567 0043 01       		.uleb128 0x1
 3568 0044 13       		.uleb128 0x13
 3569 0045 00       		.byte	0x0
 3570 0046 00       		.byte	0x0
 3571 0047 06       		.uleb128 0x6
 3572 0048 0D       		.uleb128 0xd
 3573 0049 00       		.byte	0x0
 3574 004a 03       		.uleb128 0x3
 3575 004b 0E       		.uleb128 0xe
 3576 004c 3A       		.uleb128 0x3a
 3577 004d 0B       		.uleb128 0xb
ARM GAS  C:\Users\DNIEL~1\AppData\Local\Temp\ccXA0XlR.s 			page 64


 3578 004e 3B       		.uleb128 0x3b
 3579 004f 0B       		.uleb128 0xb
 3580 0050 49       		.uleb128 0x49
 3581 0051 13       		.uleb128 0x13
 3582 0052 38       		.uleb128 0x38
 3583 0053 0A       		.uleb128 0xa
 3584 0054 00       		.byte	0x0
 3585 0055 00       		.byte	0x0
 3586 0056 07       		.uleb128 0x7
 3587 0057 0D       		.uleb128 0xd
 3588 0058 00       		.byte	0x0
 3589 0059 03       		.uleb128 0x3
 3590 005a 08       		.uleb128 0x8
 3591 005b 3A       		.uleb128 0x3a
 3592 005c 0B       		.uleb128 0xb
 3593 005d 3B       		.uleb128 0x3b
 3594 005e 0B       		.uleb128 0xb
 3595 005f 49       		.uleb128 0x49
 3596 0060 13       		.uleb128 0x13
 3597 0061 38       		.uleb128 0x38
 3598 0062 0A       		.uleb128 0xa
 3599 0063 00       		.byte	0x0
 3600 0064 00       		.byte	0x0
 3601 0065 08       		.uleb128 0x8
 3602 0066 13       		.uleb128 0x13
 3603 0067 01       		.byte	0x1
 3604 0068 0B       		.uleb128 0xb
 3605 0069 0B       		.uleb128 0xb
 3606 006a 3A       		.uleb128 0x3a
 3607 006b 0B       		.uleb128 0xb
 3608 006c 3B       		.uleb128 0x3b
 3609 006d 0B       		.uleb128 0xb
 3610 006e 01       		.uleb128 0x1
 3611 006f 13       		.uleb128 0x13
 3612 0070 00       		.byte	0x0
 3613 0071 00       		.byte	0x0
 3614 0072 09       		.uleb128 0x9
 3615 0073 0F       		.uleb128 0xf
 3616 0074 00       		.byte	0x0
 3617 0075 0B       		.uleb128 0xb
 3618 0076 0B       		.uleb128 0xb
 3619 0077 49       		.uleb128 0x49
 3620 0078 13       		.uleb128 0x13
 3621 0079 00       		.byte	0x0
 3622 007a 00       		.byte	0x0
 3623 007b 0A       		.uleb128 0xa
 3624 007c 0F       		.uleb128 0xf
 3625 007d 00       		.byte	0x0
 3626 007e 0B       		.uleb128 0xb
 3627 007f 0B       		.uleb128 0xb
 3628 0080 00       		.byte	0x0
 3629 0081 00       		.byte	0x0
 3630 0082 0B       		.uleb128 0xb
 3631 0083 13       		.uleb128 0x13
 3632 0084 01       		.byte	0x1
 3633 0085 03       		.uleb128 0x3
 3634 0086 0E       		.uleb128 0xe
ARM GAS  C:\Users\DNIEL~1\AppData\Local\Temp\ccXA0XlR.s 			page 65


 3635 0087 0B       		.uleb128 0xb
 3636 0088 0B       		.uleb128 0xb
 3637 0089 3A       		.uleb128 0x3a
 3638 008a 0B       		.uleb128 0xb
 3639 008b 3B       		.uleb128 0x3b
 3640 008c 05       		.uleb128 0x5
 3641 008d 01       		.uleb128 0x1
 3642 008e 13       		.uleb128 0x13
 3643 008f 00       		.byte	0x0
 3644 0090 00       		.byte	0x0
 3645 0091 0C       		.uleb128 0xc
 3646 0092 0D       		.uleb128 0xd
 3647 0093 00       		.byte	0x0
 3648 0094 03       		.uleb128 0x3
 3649 0095 08       		.uleb128 0x8
 3650 0096 3A       		.uleb128 0x3a
 3651 0097 0B       		.uleb128 0xb
 3652 0098 3B       		.uleb128 0x3b
 3653 0099 05       		.uleb128 0x5
 3654 009a 49       		.uleb128 0x49
 3655 009b 13       		.uleb128 0x13
 3656 009c 38       		.uleb128 0x38
 3657 009d 0A       		.uleb128 0xa
 3658 009e 00       		.byte	0x0
 3659 009f 00       		.byte	0x0
 3660 00a0 0D       		.uleb128 0xd
 3661 00a1 35       		.uleb128 0x35
 3662 00a2 00       		.byte	0x0
 3663 00a3 49       		.uleb128 0x49
 3664 00a4 13       		.uleb128 0x13
 3665 00a5 00       		.byte	0x0
 3666 00a6 00       		.byte	0x0
 3667 00a7 0E       		.uleb128 0xe
 3668 00a8 17       		.uleb128 0x17
 3669 00a9 01       		.byte	0x1
 3670 00aa 0B       		.uleb128 0xb
 3671 00ab 0B       		.uleb128 0xb
 3672 00ac 3A       		.uleb128 0x3a
 3673 00ad 0B       		.uleb128 0xb
 3674 00ae 3B       		.uleb128 0x3b
 3675 00af 0B       		.uleb128 0xb
 3676 00b0 01       		.uleb128 0x1
 3677 00b1 13       		.uleb128 0x13
 3678 00b2 00       		.byte	0x0
 3679 00b3 00       		.byte	0x0
 3680 00b4 0F       		.uleb128 0xf
 3681 00b5 0D       		.uleb128 0xd
 3682 00b6 00       		.byte	0x0
 3683 00b7 03       		.uleb128 0x3
 3684 00b8 0E       		.uleb128 0xe
 3685 00b9 3A       		.uleb128 0x3a
 3686 00ba 0B       		.uleb128 0xb
 3687 00bb 3B       		.uleb128 0x3b
 3688 00bc 0B       		.uleb128 0xb
 3689 00bd 49       		.uleb128 0x49
 3690 00be 13       		.uleb128 0x13
 3691 00bf 00       		.byte	0x0
ARM GAS  C:\Users\DNIEL~1\AppData\Local\Temp\ccXA0XlR.s 			page 66


 3692 00c0 00       		.byte	0x0
 3693 00c1 10       		.uleb128 0x10
 3694 00c2 26       		.uleb128 0x26
 3695 00c3 00       		.byte	0x0
 3696 00c4 49       		.uleb128 0x49
 3697 00c5 13       		.uleb128 0x13
 3698 00c6 00       		.byte	0x0
 3699 00c7 00       		.byte	0x0
 3700 00c8 11       		.uleb128 0x11
 3701 00c9 15       		.uleb128 0x15
 3702 00ca 00       		.byte	0x0
 3703 00cb 27       		.uleb128 0x27
 3704 00cc 0C       		.uleb128 0xc
 3705 00cd 00       		.byte	0x0
 3706 00ce 00       		.byte	0x0
 3707 00cf 12       		.uleb128 0x12
 3708 00d0 13       		.uleb128 0x13
 3709 00d1 01       		.byte	0x1
 3710 00d2 0B       		.uleb128 0xb
 3711 00d3 05       		.uleb128 0x5
 3712 00d4 3A       		.uleb128 0x3a
 3713 00d5 0B       		.uleb128 0xb
 3714 00d6 3B       		.uleb128 0x3b
 3715 00d7 0B       		.uleb128 0xb
 3716 00d8 01       		.uleb128 0x1
 3717 00d9 13       		.uleb128 0x13
 3718 00da 00       		.byte	0x0
 3719 00db 00       		.byte	0x0
 3720 00dc 13       		.uleb128 0x13
 3721 00dd 01       		.uleb128 0x1
 3722 00de 01       		.byte	0x1
 3723 00df 49       		.uleb128 0x49
 3724 00e0 13       		.uleb128 0x13
 3725 00e1 01       		.uleb128 0x1
 3726 00e2 13       		.uleb128 0x13
 3727 00e3 00       		.byte	0x0
 3728 00e4 00       		.byte	0x0
 3729 00e5 14       		.uleb128 0x14
 3730 00e6 21       		.uleb128 0x21
 3731 00e7 00       		.byte	0x0
 3732 00e8 49       		.uleb128 0x49
 3733 00e9 13       		.uleb128 0x13
 3734 00ea 2F       		.uleb128 0x2f
 3735 00eb 0B       		.uleb128 0xb
 3736 00ec 00       		.byte	0x0
 3737 00ed 00       		.byte	0x0
 3738 00ee 15       		.uleb128 0x15
 3739 00ef 17       		.uleb128 0x17
 3740 00f0 01       		.byte	0x1
 3741 00f1 03       		.uleb128 0x3
 3742 00f2 0E       		.uleb128 0xe
 3743 00f3 0B       		.uleb128 0xb
 3744 00f4 05       		.uleb128 0x5
 3745 00f5 3A       		.uleb128 0x3a
 3746 00f6 0B       		.uleb128 0xb
 3747 00f7 3B       		.uleb128 0x3b
 3748 00f8 0B       		.uleb128 0xb
ARM GAS  C:\Users\DNIEL~1\AppData\Local\Temp\ccXA0XlR.s 			page 67


 3749 00f9 01       		.uleb128 0x1
 3750 00fa 13       		.uleb128 0x13
 3751 00fb 00       		.byte	0x0
 3752 00fc 00       		.byte	0x0
 3753 00fd 16       		.uleb128 0x16
 3754 00fe 0D       		.uleb128 0xd
 3755 00ff 00       		.byte	0x0
 3756 0100 03       		.uleb128 0x3
 3757 0101 08       		.uleb128 0x8
 3758 0102 3A       		.uleb128 0x3a
 3759 0103 0B       		.uleb128 0xb
 3760 0104 3B       		.uleb128 0x3b
 3761 0105 0B       		.uleb128 0xb
 3762 0106 49       		.uleb128 0x49
 3763 0107 13       		.uleb128 0x13
 3764 0108 00       		.byte	0x0
 3765 0109 00       		.byte	0x0
 3766 010a 17       		.uleb128 0x17
 3767 010b 21       		.uleb128 0x21
 3768 010c 00       		.byte	0x0
 3769 010d 49       		.uleb128 0x49
 3770 010e 13       		.uleb128 0x13
 3771 010f 2F       		.uleb128 0x2f
 3772 0110 05       		.uleb128 0x5
 3773 0111 00       		.byte	0x0
 3774 0112 00       		.byte	0x0
 3775 0113 18       		.uleb128 0x18
 3776 0114 2E       		.uleb128 0x2e
 3777 0115 01       		.byte	0x1
 3778 0116 03       		.uleb128 0x3
 3779 0117 0E       		.uleb128 0xe
 3780 0118 3A       		.uleb128 0x3a
 3781 0119 0B       		.uleb128 0xb
 3782 011a 3B       		.uleb128 0x3b
 3783 011b 0B       		.uleb128 0xb
 3784 011c 27       		.uleb128 0x27
 3785 011d 0C       		.uleb128 0xc
 3786 011e 11       		.uleb128 0x11
 3787 011f 01       		.uleb128 0x1
 3788 0120 12       		.uleb128 0x12
 3789 0121 01       		.uleb128 0x1
 3790 0122 40       		.uleb128 0x40
 3791 0123 06       		.uleb128 0x6
 3792 0124 01       		.uleb128 0x1
 3793 0125 13       		.uleb128 0x13
 3794 0126 00       		.byte	0x0
 3795 0127 00       		.byte	0x0
 3796 0128 19       		.uleb128 0x19
 3797 0129 34       		.uleb128 0x34
 3798 012a 00       		.byte	0x0
 3799 012b 03       		.uleb128 0x3
 3800 012c 0E       		.uleb128 0xe
 3801 012d 3A       		.uleb128 0x3a
 3802 012e 0B       		.uleb128 0xb
 3803 012f 3B       		.uleb128 0x3b
 3804 0130 0B       		.uleb128 0xb
 3805 0131 49       		.uleb128 0x49
ARM GAS  C:\Users\DNIEL~1\AppData\Local\Temp\ccXA0XlR.s 			page 68


 3806 0132 13       		.uleb128 0x13
 3807 0133 02       		.uleb128 0x2
 3808 0134 06       		.uleb128 0x6
 3809 0135 00       		.byte	0x0
 3810 0136 00       		.byte	0x0
 3811 0137 1A       		.uleb128 0x1a
 3812 0138 34       		.uleb128 0x34
 3813 0139 00       		.byte	0x0
 3814 013a 03       		.uleb128 0x3
 3815 013b 0E       		.uleb128 0xe
 3816 013c 3A       		.uleb128 0x3a
 3817 013d 0B       		.uleb128 0xb
 3818 013e 3B       		.uleb128 0x3b
 3819 013f 0B       		.uleb128 0xb
 3820 0140 49       		.uleb128 0x49
 3821 0141 13       		.uleb128 0x13
 3822 0142 00       		.byte	0x0
 3823 0143 00       		.byte	0x0
 3824 0144 1B       		.uleb128 0x1b
 3825 0145 34       		.uleb128 0x34
 3826 0146 00       		.byte	0x0
 3827 0147 03       		.uleb128 0x3
 3828 0148 08       		.uleb128 0x8
 3829 0149 3A       		.uleb128 0x3a
 3830 014a 0B       		.uleb128 0xb
 3831 014b 3B       		.uleb128 0x3b
 3832 014c 0B       		.uleb128 0xb
 3833 014d 49       		.uleb128 0x49
 3834 014e 13       		.uleb128 0x13
 3835 014f 02       		.uleb128 0x2
 3836 0150 06       		.uleb128 0x6
 3837 0151 00       		.byte	0x0
 3838 0152 00       		.byte	0x0
 3839 0153 1C       		.uleb128 0x1c
 3840 0154 0B       		.uleb128 0xb
 3841 0155 01       		.byte	0x1
 3842 0156 11       		.uleb128 0x11
 3843 0157 01       		.uleb128 0x1
 3844 0158 12       		.uleb128 0x12
 3845 0159 01       		.uleb128 0x1
 3846 015a 01       		.uleb128 0x1
 3847 015b 13       		.uleb128 0x13
 3848 015c 00       		.byte	0x0
 3849 015d 00       		.byte	0x0
 3850 015e 1D       		.uleb128 0x1d
 3851 015f 0B       		.uleb128 0xb
 3852 0160 01       		.byte	0x1
 3853 0161 55       		.uleb128 0x55
 3854 0162 06       		.uleb128 0x6
 3855 0163 01       		.uleb128 0x1
 3856 0164 13       		.uleb128 0x13
 3857 0165 00       		.byte	0x0
 3858 0166 00       		.byte	0x0
 3859 0167 1E       		.uleb128 0x1e
 3860 0168 0B       		.uleb128 0xb
 3861 0169 01       		.byte	0x1
 3862 016a 11       		.uleb128 0x11
ARM GAS  C:\Users\DNIEL~1\AppData\Local\Temp\ccXA0XlR.s 			page 69


 3863 016b 01       		.uleb128 0x1
 3864 016c 12       		.uleb128 0x12
 3865 016d 01       		.uleb128 0x1
 3866 016e 00       		.byte	0x0
 3867 016f 00       		.byte	0x0
 3868 0170 1F       		.uleb128 0x1f
 3869 0171 2E       		.uleb128 0x2e
 3870 0172 00       		.byte	0x0
 3871 0173 03       		.uleb128 0x3
 3872 0174 0E       		.uleb128 0xe
 3873 0175 3A       		.uleb128 0x3a
 3874 0176 0B       		.uleb128 0xb
 3875 0177 3B       		.uleb128 0x3b
 3876 0178 0B       		.uleb128 0xb
 3877 0179 27       		.uleb128 0x27
 3878 017a 0C       		.uleb128 0xc
 3879 017b 11       		.uleb128 0x11
 3880 017c 01       		.uleb128 0x1
 3881 017d 12       		.uleb128 0x12
 3882 017e 01       		.uleb128 0x1
 3883 017f 40       		.uleb128 0x40
 3884 0180 0A       		.uleb128 0xa
 3885 0181 00       		.byte	0x0
 3886 0182 00       		.byte	0x0
 3887 0183 20       		.uleb128 0x20
 3888 0184 34       		.uleb128 0x34
 3889 0185 00       		.byte	0x0
 3890 0186 03       		.uleb128 0x3
 3891 0187 0E       		.uleb128 0xe
 3892 0188 3A       		.uleb128 0x3a
 3893 0189 0B       		.uleb128 0xb
 3894 018a 3B       		.uleb128 0x3b
 3895 018b 0B       		.uleb128 0xb
 3896 018c 49       		.uleb128 0x49
 3897 018d 13       		.uleb128 0x13
 3898 018e 3F       		.uleb128 0x3f
 3899 018f 0C       		.uleb128 0xc
 3900 0190 3C       		.uleb128 0x3c
 3901 0191 0C       		.uleb128 0xc
 3902 0192 00       		.byte	0x0
 3903 0193 00       		.byte	0x0
 3904 0194 21       		.uleb128 0x21
 3905 0195 34       		.uleb128 0x34
 3906 0196 00       		.byte	0x0
 3907 0197 03       		.uleb128 0x3
 3908 0198 08       		.uleb128 0x8
 3909 0199 3A       		.uleb128 0x3a
 3910 019a 0B       		.uleb128 0xb
 3911 019b 3B       		.uleb128 0x3b
 3912 019c 0B       		.uleb128 0xb
 3913 019d 49       		.uleb128 0x49
 3914 019e 13       		.uleb128 0x13
 3915 019f 02       		.uleb128 0x2
 3916 01a0 0A       		.uleb128 0xa
 3917 01a1 00       		.byte	0x0
 3918 01a2 00       		.byte	0x0
 3919 01a3 22       		.uleb128 0x22
ARM GAS  C:\Users\DNIEL~1\AppData\Local\Temp\ccXA0XlR.s 			page 70


 3920 01a4 34       		.uleb128 0x34
 3921 01a5 00       		.byte	0x0
 3922 01a6 03       		.uleb128 0x3
 3923 01a7 0E       		.uleb128 0xe
 3924 01a8 3A       		.uleb128 0x3a
 3925 01a9 0B       		.uleb128 0xb
 3926 01aa 3B       		.uleb128 0x3b
 3927 01ab 0B       		.uleb128 0xb
 3928 01ac 49       		.uleb128 0x49
 3929 01ad 13       		.uleb128 0x13
 3930 01ae 3F       		.uleb128 0x3f
 3931 01af 0C       		.uleb128 0xc
 3932 01b0 02       		.uleb128 0x2
 3933 01b1 0A       		.uleb128 0xa
 3934 01b2 00       		.byte	0x0
 3935 01b3 00       		.byte	0x0
 3936 01b4 00       		.byte	0x0
 3937              		.section	.debug_pubnames,"",%progbits
 3938 0000 2C000000 		.4byte	0x2c
 3939 0004 0200     		.2byte	0x2
 3940 0006 00000000 		.4byte	.Ldebug_info0
 3941 000a 5D0C0000 		.4byte	0xc5d
 3942 000e 1D0C0000 		.4byte	0xc1d
 3943 0012 74657374 		.ascii	"testmbox1\000"
 3943      6D626F78 
 3943      3100
 3944 001c 450C0000 		.4byte	0xc45
 3945 0020 70617474 		.ascii	"patternmbox\000"
 3945      65726E6D 
 3945      626F7800 
 3946 002c 00000000 		.4byte	0x0
 3947              		.section	.debug_pubtypes,"",%progbits
 3948 0000 75010000 		.4byte	0x175
 3949 0004 0200     		.2byte	0x2
 3950 0006 00000000 		.4byte	.Ldebug_info0
 3951 000a 5D0C0000 		.4byte	0xc5d
 3952 000e 3E000000 		.4byte	0x3e
 3953 0012 75696E74 		.ascii	"uint8_t\000"
 3953      385F7400 
 3954 001a 5E000000 		.4byte	0x5e
 3955 001e 696E7433 		.ascii	"int32_t\000"
 3955      325F7400 
 3956 0026 70000000 		.4byte	0x70
 3957 002a 75696E74 		.ascii	"uint32_t\000"
 3957      33325F74 
 3957      00
 3958 0033 89000000 		.4byte	0x89
 3959 0037 75696E74 		.ascii	"uint64_t\000"
 3959      36345F74 
 3959      00
 3960 0040 A2000000 		.4byte	0xa2
 3961 0044 746D6F64 		.ascii	"tmode_t\000"
 3961      655F7400 
 3962 004c AD000000 		.4byte	0xad
 3963 0050 74737461 		.ascii	"tstate_t\000"
 3963      74655F74 
 3963      00
ARM GAS  C:\Users\DNIEL~1\AppData\Local\Temp\ccXA0XlR.s 			page 71


 3964 0059 B8000000 		.4byte	0xb8
 3965 005d 74726566 		.ascii	"trefs_t\000"
 3965      735F7400 
 3966 0065 C3000000 		.4byte	0xc3
 3967 0069 74736C69 		.ascii	"tslices_t\000"
 3967      6365735F 
 3967      7400
 3968 0073 CE000000 		.4byte	0xce
 3969 0077 74707269 		.ascii	"tprio_t\000"
 3969      6F5F7400 
 3970 007f D9000000 		.4byte	0xd9
 3971 0083 6D73675F 		.ascii	"msg_t\000"
 3971      7400
 3972 0089 E4000000 		.4byte	0xe4
 3973 008d 6576656E 		.ascii	"eventmask_t\000"
 3973      746D6173 
 3973      6B5F7400 
 3974 0099 EF000000 		.4byte	0xef
 3975 009d 73797374 		.ascii	"systime_t\000"
 3975      696D655F 
 3975      7400
 3976 00a7 FA000000 		.4byte	0xfa
 3977 00ab 636E745F 		.ascii	"cnt_t\000"
 3977      7400
 3978 00b1 05010000 		.4byte	0x105
 3979 00b5 54687265 		.ascii	"Thread\000"
 3979      616400
 3980 00bc 60020000 		.4byte	0x260
 3981 00c0 54687265 		.ascii	"ThreadsQueue\000"
 3981      61647351 
 3981      75657565 
 3981      00
 3982 00cd 82020000 		.4byte	0x282
 3983 00d1 54687265 		.ascii	"ThreadsList\000"
 3983      6164734C 
 3983      69737400 
 3984 00dd 8D020000 		.4byte	0x28d
 3985 00e1 72656761 		.ascii	"regarm_t\000"
 3985      726D5F74 
 3985      00
 3986 00ea 9A020000 		.4byte	0x29a
 3987 00ee 73746B61 		.ascii	"stkalign_t\000"
 3987      6C69676E 
 3987      5F7400
 3988 00f9 A5020000 		.4byte	0x2a5
 3989 00fd 696E7463 		.ascii	"intctx\000"
 3989      747800
 3990 0104 33030000 		.4byte	0x333
 3991 0108 636F6E74 		.ascii	"context\000"
 3991      65787400 
 3992 0110 5B030000 		.4byte	0x35b
 3993 0114 53656D61 		.ascii	"Semaphore\000"
 3993      70686F72 
 3993      6500
 3994 011e 84030000 		.4byte	0x384
 3995 0122 53656D61 		.ascii	"Semaphore\000"
 3995      70686F72 
ARM GAS  C:\Users\DNIEL~1\AppData\Local\Temp\ccXA0XlR.s 			page 72


 3995      6500
 3996 012c 8F030000 		.4byte	0x38f
 3997 0130 4D757465 		.ascii	"Mutex\000"
 3997      7800
 3998 0136 CC030000 		.4byte	0x3cc
 3999 013a 4D757465 		.ascii	"Mutex\000"
 3999      7800
 4000 0140 3A040000 		.4byte	0x43a
 4001 0144 4D61696C 		.ascii	"Mailbox\000"
 4001      626F7800 
 4002 014c 10010000 		.4byte	0x110
 4003 0150 54687265 		.ascii	"Thread\000"
 4003      616400
 4004 0157 92040000 		.4byte	0x492
 4005 015b 74657374 		.ascii	"testcase\000"
 4005      63617365 
 4005      00
 4006 0164 3E050000 		.4byte	0x53e
 4007 0168 74657374 		.ascii	"test_buffers\000"
 4007      5F627566 
 4007      66657273 
 4007      00
 4008 0175 00000000 		.4byte	0x0
 4009              		.section	.debug_aranges,"",%progbits
 4010 0000 24000000 		.4byte	0x24
 4011 0004 0200     		.2byte	0x2
 4012 0006 00000000 		.4byte	.Ldebug_info0
 4013 000a 04       		.byte	0x4
 4014 000b 00       		.byte	0x0
 4015 000c 0000     		.2byte	0x0
 4016 000e 0000     		.2byte	0x0
 4017 0010 00000000 		.4byte	.LFB8
 4018 0014 E2060000 		.4byte	.LFE8-.LFB8
 4019 0018 00000000 		.4byte	.LFB7
 4020 001c 14000000 		.4byte	.LFE7-.LFB7
 4021 0020 00000000 		.4byte	0x0
 4022 0024 00000000 		.4byte	0x0
 4023              		.section	.debug_ranges,"",%progbits
 4024              	.Ldebug_ranges0:
 4025 0000 DC000000 		.4byte	.LBB3
 4026 0004 DE000000 		.4byte	.LBE3
 4027 0008 E0000000 		.4byte	.LBB4
 4028 000c E4000000 		.4byte	.LBE4
 4029 0010 00000000 		.4byte	0x0
 4030 0014 00000000 		.4byte	0x0
 4031 0018 28010000 		.4byte	.LBB6
 4032 001c 2A010000 		.4byte	.LBE6
 4033 0020 2C010000 		.4byte	.LBB7
 4034 0024 30010000 		.4byte	.LBE7
 4035 0028 00000000 		.4byte	0x0
 4036 002c 00000000 		.4byte	0x0
 4037 0030 A6020000 		.4byte	.LBB17
 4038 0034 A8020000 		.4byte	.LBE17
 4039 0038 AA020000 		.4byte	.LBB18
 4040 003c AE020000 		.4byte	.LBE18
 4041 0040 00000000 		.4byte	0x0
 4042 0044 00000000 		.4byte	0x0
ARM GAS  C:\Users\DNIEL~1\AppData\Local\Temp\ccXA0XlR.s 			page 73


 4043 0048 D4030000 		.4byte	.LBB30
 4044 004c D6030000 		.4byte	.LBE30
 4045 0050 D8030000 		.4byte	.LBB31
 4046 0054 DC030000 		.4byte	.LBE31
 4047 0058 00000000 		.4byte	0x0
 4048 005c 00000000 		.4byte	0x0
 4049 0060 1E040000 		.4byte	.LBB33
 4050 0064 20040000 		.4byte	.LBE33
 4051 0068 22040000 		.4byte	.LBB34
 4052 006c 26040000 		.4byte	.LBE34
 4053 0070 00000000 		.4byte	0x0
 4054 0074 00000000 		.4byte	0x0
 4055 0078 42050000 		.4byte	.LBB42
 4056 007c 44050000 		.4byte	.LBE42
 4057 0080 46050000 		.4byte	.LBB43
 4058 0084 4A050000 		.4byte	.LBE43
 4059 0088 00000000 		.4byte	0x0
 4060 008c 00000000 		.4byte	0x0
 4061 0090 90050000 		.4byte	.LBB45
 4062 0094 92050000 		.4byte	.LBE45
 4063 0098 94050000 		.4byte	.LBB46
 4064 009c 98050000 		.4byte	.LBE46
 4065 00a0 00000000 		.4byte	0x0
 4066 00a4 00000000 		.4byte	0x0
 4067 00a8 00000000 		.4byte	.LFB8
 4068 00ac E2060000 		.4byte	.LFE8
 4069 00b0 00000000 		.4byte	.LFB7
 4070 00b4 14000000 		.4byte	.LFE7
 4071 00b8 00000000 		.4byte	0x0
 4072 00bc 00000000 		.4byte	0x0
 4073              		.section	.debug_str,"MS",%progbits,1
 4074              	.LASF38:
 4075 0000 705F6D73 		.ascii	"p_msg\000"
 4075      6700
 4076              	.LASF63:
 4077 0006 7264796D 		.ascii	"rdymsg\000"
 4077      736700
 4078              	.LASF11:
 4079 000d 75696E74 		.ascii	"uint64_t\000"
 4079      36345F74 
 4079      00
 4080              	.LASF62:
 4081 0016 4D61696C 		.ascii	"Mailbox\000"
 4081      626F7800 
 4082              	.LASF12:
 4083 001e 6C6F6E67 		.ascii	"long long unsigned int\000"
 4083      206C6F6E 
 4083      6720756E 
 4083      7369676E 
 4083      65642069 
 4084              	.LASF77:
 4085 0035 70617474 		.ascii	"patternmbox\000"
 4085      65726E6D 
 4085      626F7800 
 4086              	.LASF64:
 4087 0041 65786974 		.ascii	"exitcode\000"
 4087      636F6465 
ARM GAS  C:\Users\DNIEL~1\AppData\Local\Temp\ccXA0XlR.s 			page 74


 4087      00
 4088              	.LASF75:
 4089 004a 74657374 		.ascii	"test\000"
 4089      00
 4090              	.LASF58:
 4091 004f 6D625F77 		.ascii	"mb_wrptr\000"
 4091      72707472 
 4091      00
 4092              	.LASF26:
 4093 0058 705F7072 		.ascii	"p_prio\000"
 4093      696F00
 4094              	.LASF10:
 4095 005f 6C6F6E67 		.ascii	"long long int\000"
 4095      206C6F6E 
 4095      6720696E 
 4095      7400
 4096              	.LASF1:
 4097 006d 7369676E 		.ascii	"signed char\000"
 4097      65642063 
 4097      68617200 
 4098              	.LASF42:
 4099 0079 705F6D70 		.ascii	"p_mpool\000"
 4099      6F6F6C00 
 4100              	.LASF53:
 4101 0081 6D5F7175 		.ascii	"m_queue\000"
 4101      65756500 
 4102              	.LASF80:
 4103 0089 433A5C44 		.ascii	"C:\\Dani\\MegaLux\\Repo\\Smarty\\Smarty\\smarty\\fi"
 4103      616E695C 
 4103      4D656761 
 4103      4C75785C 
 4103      5265706F 
 4104 00b5 726D7761 		.ascii	"rmware\000"
 4104      726500
 4105              	.LASF7:
 4106 00bc 6C6F6E67 		.ascii	"long int\000"
 4106      20696E74 
 4106      00
 4107              	.LASF15:
 4108 00c5 74737461 		.ascii	"tstate_t\000"
 4108      74655F74 
 4108      00
 4109              	.LASF28:
 4110 00ce 705F6E65 		.ascii	"p_newer\000"
 4110      77657200 
 4111              	.LASF50:
 4112 00d6 735F7175 		.ascii	"s_queue\000"
 4112      65756500 
 4113              	.LASF45:
 4114 00de 72656761 		.ascii	"regarm_t\000"
 4114      726D5F74 
 4114      00
 4115              	.LASF22:
 4116 00e7 636E745F 		.ascii	"cnt_t\000"
 4116      7400
 4117              	.LASF0:
 4118 00ed 756E7369 		.ascii	"unsigned int\000"
ARM GAS  C:\Users\DNIEL~1\AppData\Local\Temp\ccXA0XlR.s 			page 75


 4118      676E6564 
 4118      20696E74 
 4118      00
 4119              	.LASF74:
 4120 00fa 6D736731 		.ascii	"msg1\000"
 4120      00
 4121              	.LASF83:
 4122 00ff 6D736732 		.ascii	"msg2\000"
 4122      00
 4123              	.LASF9:
 4124 0104 6C6F6E67 		.ascii	"long unsigned int\000"
 4124      20756E73 
 4124      69676E65 
 4124      6420696E 
 4124      7400
 4125              	.LASF71:
 4126 0116 74656172 		.ascii	"teardown\000"
 4126      646F776E 
 4126      00
 4127              	.LASF61:
 4128 011f 6D625F65 		.ascii	"mb_emptysem\000"
 4128      6D707479 
 4128      73656D00 
 4129              	.LASF69:
 4130 012b 6E616D65 		.ascii	"name\000"
 4130      00
 4131              	.LASF51:
 4132 0130 735F636E 		.ascii	"s_cnt\000"
 4132      7400
 4133              	.LASF48:
 4134 0136 636F6E74 		.ascii	"context\000"
 4134      65787400 
 4135              	.LASF4:
 4136 013e 73686F72 		.ascii	"short unsigned int\000"
 4136      7420756E 
 4136      7369676E 
 4136      65642069 
 4136      6E7400
 4137              	.LASF19:
 4138 0151 6D73675F 		.ascii	"msg_t\000"
 4138      7400
 4139              	.LASF14:
 4140 0157 746D6F64 		.ascii	"tmode_t\000"
 4140      655F7400 
 4141              	.LASF84:
 4142 015f 6D626F78 		.ascii	"mbox1_setup\000"
 4142      315F7365 
 4142      74757000 
 4143              	.LASF44:
 4144 016b 54687265 		.ascii	"ThreadsList\000"
 4144      6164734C 
 4144      69737400 
 4145              	.LASF20:
 4146 0177 6576656E 		.ascii	"eventmask_t\000"
 4146      746D6173 
 4146      6B5F7400 
 4147              	.LASF52:
ARM GAS  C:\Users\DNIEL~1\AppData\Local\Temp\ccXA0XlR.s 			page 76


 4148 0183 4D757465 		.ascii	"Mutex\000"
 4148      7800
 4149              	.LASF76:
 4150 0189 74657374 		.ascii	"testmbox1\000"
 4150      6D626F78 
 4150      3100
 4151              	.LASF46:
 4152 0193 73746B61 		.ascii	"stkalign_t\000"
 4152      6C69676E 
 4152      5F7400
 4153              	.LASF59:
 4154 019e 6D625F72 		.ascii	"mb_rdptr\000"
 4154      64707472 
 4154      00
 4155              	.LASF29:
 4156 01a7 705F6F6C 		.ascii	"p_older\000"
 4156      64657200 
 4157              	.LASF43:
 4158 01af 54687265 		.ascii	"ThreadsQueue\000"
 4158      61647351 
 4158      75657565 
 4158      00
 4159              	.LASF70:
 4160 01bc 73657475 		.ascii	"setup\000"
 4160      7000
 4161              	.LASF56:
 4162 01c2 6D625F62 		.ascii	"mb_buffer\000"
 4162      75666665 
 4162      7200
 4163              	.LASF82:
 4164 01cc 6D626F78 		.ascii	"mbox1_execute\000"
 4164      315F6578 
 4164      65637574 
 4164      6500
 4165              	.LASF16:
 4166 01da 74726566 		.ascii	"trefs_t\000"
 4166      735F7400 
 4167              	.LASF25:
 4168 01e2 705F7072 		.ascii	"p_prev\000"
 4168      657600
 4169              	.LASF72:
 4170 01e9 65786563 		.ascii	"execute\000"
 4170      75746500 
 4171              	.LASF18:
 4172 01f1 74707269 		.ascii	"tprio_t\000"
 4172      6F5F7400 
 4173              	.LASF79:
 4174 01f9 2E2E2F2E 		.ascii	"../../../ChibiOS/test/testmbox.c\000"
 4174      2E2F2E2E 
 4174      2F436869 
 4174      62694F53 
 4174      2F746573 
 4175              	.LASF13:
 4176 021a 5F426F6F 		.ascii	"_Bool\000"
 4176      6C00
 4177              	.LASF6:
 4178 0220 696E7433 		.ascii	"int32_t\000"
ARM GAS  C:\Users\DNIEL~1\AppData\Local\Temp\ccXA0XlR.s 			page 77


 4178      325F7400 
 4179              	.LASF2:
 4180 0228 756E7369 		.ascii	"unsigned char\000"
 4180      676E6564 
 4180      20636861 
 4180      7200
 4181              	.LASF57:
 4182 0236 6D625F74 		.ascii	"mb_top\000"
 4182      6F7000
 4183              	.LASF40:
 4184 023d 705F6D74 		.ascii	"p_mtxlist\000"
 4184      786C6973 
 4184      7400
 4185              	.LASF3:
 4186 0247 73686F72 		.ascii	"short int\000"
 4186      7420696E 
 4186      7400
 4187              	.LASF31:
 4188 0251 705F7374 		.ascii	"p_state\000"
 4188      61746500 
 4189              	.LASF34:
 4190 0259 705F7072 		.ascii	"p_preempt\000"
 4190      65656D70 
 4190      7400
 4191              	.LASF66:
 4192 0263 65776D61 		.ascii	"ewmask\000"
 4192      736B00
 4193              	.LASF24:
 4194 026a 705F6E65 		.ascii	"p_next\000"
 4194      787400
 4195              	.LASF32:
 4196 0271 705F666C 		.ascii	"p_flags\000"
 4196      61677300 
 4197              	.LASF23:
 4198 0279 54687265 		.ascii	"Thread\000"
 4198      616400
 4199              	.LASF68:
 4200 0280 74657374 		.ascii	"testcase\000"
 4200      63617365 
 4200      00
 4201              	.LASF39:
 4202 0289 705F6570 		.ascii	"p_epending\000"
 4202      656E6469 
 4202      6E6700
 4203              	.LASF8:
 4204 0294 75696E74 		.ascii	"uint32_t\000"
 4204      33325F74 
 4204      00
 4205              	.LASF17:
 4206 029d 74736C69 		.ascii	"tslices_t\000"
 4206      6365735F 
 4206      7400
 4207              	.LASF67:
 4208 02a7 63686172 		.ascii	"char\000"
 4208      00
 4209              	.LASF55:
 4210 02ac 6D5F6E65 		.ascii	"m_next\000"
ARM GAS  C:\Users\DNIEL~1\AppData\Local\Temp\ccXA0XlR.s 			page 78


 4210      787400
 4211              	.LASF21:
 4212 02b3 73797374 		.ascii	"systime_t\000"
 4212      696D655F 
 4212      7400
 4213              	.LASF41:
 4214 02bd 705F7265 		.ascii	"p_realprio\000"
 4214      616C7072 
 4214      696F00
 4215              	.LASF73:
 4216 02c8 62756666 		.ascii	"buffer\000"
 4216      657200
 4217              	.LASF35:
 4218 02cf 705F7469 		.ascii	"p_time\000"
 4218      6D6500
 4219              	.LASF47:
 4220 02d6 696E7463 		.ascii	"intctx\000"
 4220      747800
 4221              	.LASF37:
 4222 02dd 705F6D73 		.ascii	"p_msgqueue\000"
 4222      67717565 
 4222      756500
 4223              	.LASF49:
 4224 02e8 53656D61 		.ascii	"Semaphore\000"
 4224      70686F72 
 4224      6500
 4225              	.LASF60:
 4226 02f2 6D625F66 		.ascii	"mb_fullsem\000"
 4226      756C6C73 
 4226      656D00
 4227              	.LASF81:
 4228 02fd 74657374 		.ascii	"test_buffers\000"
 4228      5F627566 
 4228      66657273 
 4228      00
 4229              	.LASF33:
 4230 030a 705F7265 		.ascii	"p_refs\000"
 4230      667300
 4231              	.LASF5:
 4232 0311 75696E74 		.ascii	"uint8_t\000"
 4232      385F7400 
 4233              	.LASF65:
 4234 0319 77746F62 		.ascii	"wtobjp\000"
 4234      6A7000
 4235              	.LASF78:
 4236 0320 474E5520 		.ascii	"GNU C 4.5.2\000"
 4236      4320342E 
 4236      352E3200 
 4237              	.LASF30:
 4238 032c 705F6E61 		.ascii	"p_name\000"
 4238      6D6500
 4239              	.LASF54:
 4240 0333 6D5F6F77 		.ascii	"m_owner\000"
 4240      6E657200 
 4241              	.LASF27:
 4242 033b 705F6374 		.ascii	"p_ctx\000"
 4242      7800
ARM GAS  C:\Users\DNIEL~1\AppData\Local\Temp\ccXA0XlR.s 			page 79


 4243              	.LASF36:
 4244 0341 705F7761 		.ascii	"p_waiting\000"
 4244      6974696E 
 4244      6700
 4245              		.ident	"GCC: (Sourcery G++ Lite 2011.03-42) 4.5.2"
ARM GAS  C:\Users\DNIEL~1\AppData\Local\Temp\ccXA0XlR.s 			page 80


DEFINED SYMBOLS
                            *ABS*:00000000 testmbox.c
C:\Users\DNIEL~1\AppData\Local\Temp\ccXA0XlR.s:24     .text.mbox1_execute:00000000 $t
C:\Users\DNIEL~1\AppData\Local\Temp\ccXA0XlR.s:29     .text.mbox1_execute:00000000 mbox1_execute
C:\Users\DNIEL~1\AppData\Local\Temp\ccXA0XlR.s:554    .text.mbox1_execute:000002f0 $d
C:\Users\DNIEL~1\AppData\Local\Temp\ccXA0XlR.s:560    .text.mbox1_execute:000002f8 $t
C:\Users\DNIEL~1\AppData\Local\Temp\ccXA0XlR.s:1141   .text.mbox1_execute:00000614 $d
C:\Users\DNIEL~1\AppData\Local\Temp\ccXA0XlR.s:1147   .text.mbox1_execute:0000061c $t
C:\Users\DNIEL~1\AppData\Local\Temp\ccXA0XlR.s:1321   .text.mbox1_setup:00000000 $t
C:\Users\DNIEL~1\AppData\Local\Temp\ccXA0XlR.s:1326   .text.mbox1_setup:00000000 mbox1_setup
C:\Users\DNIEL~1\AppData\Local\Temp\ccXA0XlR.s:1343   .text.mbox1_setup:0000000c $d
C:\Users\DNIEL~1\AppData\Local\Temp\ccXA0XlR.s:1384   .rodata.testmbox1:00000000 testmbox1
C:\Users\DNIEL~1\AppData\Local\Temp\ccXA0XlR.s:1370   .rodata.patternmbox:00000000 patternmbox
C:\Users\DNIEL~1\AppData\Local\Temp\ccXA0XlR.s:1351   .data.mb1:00000000 $d
C:\Users\DNIEL~1\AppData\Local\Temp\ccXA0XlR.s:1355   .data.mb1:00000000 mb1
C:\Users\DNIEL~1\AppData\Local\Temp\ccXA0XlR.s:1367   .rodata.patternmbox:00000000 $d
C:\Users\DNIEL~1\AppData\Local\Temp\ccXA0XlR.s:1374   .rodata.str1.4:00000000 $d
C:\Users\DNIEL~1\AppData\Local\Temp\ccXA0XlR.s:1381   .rodata.testmbox1:00000000 $d
                     .debug_frame:00000010 $d
C:\Users\DNIEL~1\AppData\Local\Temp\ccXA0XlR.s:1350   .text.mbox1_setup:00000014 $t

UNDEFINED SYMBOLS
_test_assert
chMBPost
chMBPostAhead
chMBPostI
chMBPostAheadI
chMBFetch
test_emit_token
_test_assert_sequence
chMBFetchI
chMBReset
chMBInit
test
