ARM GAS  C:\Users\DNIEL~1\AppData\Local\Temp\ccVgcZUn.s 			page 1


   1              		.syntax unified
   2              		.cpu cortex-m4
   3              		.fpu softvfp
   4              		.eabi_attribute 20, 1
   5              		.eabi_attribute 21, 1
   6              		.eabi_attribute 23, 3
   7              		.eabi_attribute 24, 1
   8              		.eabi_attribute 25, 1
   9              		.eabi_attribute 26, 1
  10              		.eabi_attribute 30, 2
  11              		.eabi_attribute 18, 4
  12              		.thumb
  13              		.file	"testpools.c"
  14              		.section	.debug_abbrev,"",%progbits
  15              	.Ldebug_abbrev0:
  16              		.section	.debug_info,"",%progbits
  17              	.Ldebug_info0:
  18              		.section	.debug_line,"",%progbits
  19              	.Ldebug_line0:
  20 0000 39010000 		.text
  20      0200F100 
  20      00000201 
  20      FB0E0D00 
  20      01010101 
  21              	.Ltext0:
  22              		.cfi_sections	.debug_frame
  23              		.section	.text.null_provider,"ax",%progbits
  24              		.align	2
  25              		.p2align 4,,15
  26              		.thumb
  27              		.thumb_func
  28              		.type	null_provider, %function
  29              	null_provider:
  30              	.LFB7:
  31              		.file 1 "../../../ChibiOS/test/testpools.c"
  32              		.loc 1 60 0
  33              		.cfi_startproc
  34              		@ args = 0, pretend = 0, frame = 0
  35              		@ frame_needed = 0, uses_anonymous_args = 0
  36              		@ link register save eliminated.
  37              	.LVL0:
  38              		.loc 1 64 0
  39 0000 0020     		movs	r0, #0
  40              	.LVL1:
  41 0002 7047     		bx	lr
  42              		.cfi_endproc
  43              	.LFE7:
  44              		.size	null_provider, .-null_provider
  45 0004 AFF30080 		.section	.text.pools1_execute,"ax",%progbits
  45      AFF30080 
  45      AFF30080 
  46              		.align	2
  47              		.p2align 4,,15
  48              		.thumb
  49              		.thumb_func
  50              		.type	pools1_execute, %function
  51              	pools1_execute:
ARM GAS  C:\Users\DNIEL~1\AppData\Local\Temp\ccVgcZUn.s 			page 2


  52              	.LFB9:
  53              		.loc 1 71 0
  54              		.cfi_startproc
  55              		@ args = 0, pretend = 0, frame = 0
  56              		@ frame_needed = 0, uses_anonymous_args = 0
  57 0000 70B5     		push	{r4, r5, r6, lr}
  58              	.LCFI0:
  59              		.cfi_def_cfa_offset 16
  60              		.loc 1 75 0
  61 0002 574C     		ldr	r4, .L6
  62              		.cfi_offset 14, -4
  63              		.cfi_offset 6, -8
  64              		.cfi_offset 5, -12
  65              		.cfi_offset 4, -16
  66 0004 5748     		ldr	r0, .L6+4
  67 0006 2568     		ldr	r5, [r4, #0]
  68 0008 0522     		movs	r2, #5
  69 000a 2946     		mov	r1, r5
  70 000c FFF7FEFF 		bl	chPoolLoadArray
  71              	.LVL2:
  72              		.loc 1 79 0
  73 0010 5448     		ldr	r0, .L6+4
  74 0012 FFF7FEFF 		bl	chPoolAlloc
  75 0016 011E     		subs	r1, r0, #0
  76 0018 18BF     		it	ne
  77 001a 0121     		movne	r1, #1
  78 001c 0120     		movs	r0, #1
  79 001e FFF7FEFF 		bl	_test_assert
  80 0022 0028     		cmp	r0, #0
  81 0024 40F08A80 		bne	.L2
  82              	.LVL3:
  83 0028 4E48     		ldr	r0, .L6+4
  84 002a FFF7FEFF 		bl	chPoolAlloc
  85 002e 011E     		subs	r1, r0, #0
  86 0030 18BF     		it	ne
  87 0032 0121     		movne	r1, #1
  88 0034 0120     		movs	r0, #1
  89 0036 FFF7FEFF 		bl	_test_assert
  90 003a 0028     		cmp	r0, #0
  91 003c 7ED1     		bne	.L2
  92              	.LVL4:
  93 003e 4948     		ldr	r0, .L6+4
  94 0040 FFF7FEFF 		bl	chPoolAlloc
  95 0044 011E     		subs	r1, r0, #0
  96 0046 18BF     		it	ne
  97 0048 0121     		movne	r1, #1
  98 004a 0120     		movs	r0, #1
  99 004c FFF7FEFF 		bl	_test_assert
 100 0050 0028     		cmp	r0, #0
 101 0052 73D1     		bne	.L2
 102              	.LVL5:
 103 0054 4348     		ldr	r0, .L6+4
 104 0056 FFF7FEFF 		bl	chPoolAlloc
 105 005a 011E     		subs	r1, r0, #0
 106 005c 18BF     		it	ne
 107 005e 0121     		movne	r1, #1
 108 0060 0120     		movs	r0, #1
ARM GAS  C:\Users\DNIEL~1\AppData\Local\Temp\ccVgcZUn.s 			page 3


 109 0062 FFF7FEFF 		bl	_test_assert
 110 0066 0028     		cmp	r0, #0
 111 0068 68D1     		bne	.L2
 112              	.LVL6:
 113 006a 3E48     		ldr	r0, .L6+4
 114 006c FFF7FEFF 		bl	chPoolAlloc
 115 0070 011E     		subs	r1, r0, #0
 116 0072 18BF     		it	ne
 117 0074 0121     		movne	r1, #1
 118 0076 0120     		movs	r0, #1
 119 0078 FFF7FEFF 		bl	_test_assert
 120 007c 0028     		cmp	r0, #0
 121 007e 5DD1     		bne	.L2
 122              	.LVL7:
 123              		.loc 1 82 0
 124 0080 3848     		ldr	r0, .L6+4
 125 0082 FFF7FEFF 		bl	chPoolAlloc
 126 0086 D0F10101 		rsbs	r1, r0, #1
 127 008a 38BF     		it	cc
 128 008c 0021     		movcc	r1, #0
 129 008e 0220     		movs	r0, #2
 130 0090 FFF7FEFF 		bl	_test_assert
 131 0094 0028     		cmp	r0, #0
 132 0096 51D1     		bne	.L2
 133              		.loc 1 86 0
 134 0098 3248     		ldr	r0, .L6+4
 135 009a 2946     		mov	r1, r5
 136 009c FFF7FEFF 		bl	chPoolFree
 137              	.LVL8:
 138 00a0 3048     		ldr	r0, .L6+4
 139 00a2 6168     		ldr	r1, [r4, #4]
 140 00a4 FFF7FEFF 		bl	chPoolFree
 141              	.LVL9:
 142 00a8 2E48     		ldr	r0, .L6+4
 143 00aa A168     		ldr	r1, [r4, #8]
 144 00ac FFF7FEFF 		bl	chPoolFree
 145              	.LVL10:
 146 00b0 2C48     		ldr	r0, .L6+4
 147 00b2 E168     		ldr	r1, [r4, #12]
 148 00b4 FFF7FEFF 		bl	chPoolFree
 149              	.LVL11:
 150 00b8 2169     		ldr	r1, [r4, #16]
 151 00ba 2A48     		ldr	r0, .L6+4
 152 00bc FFF7FEFF 		bl	chPoolFree
 153              	.LVL12:
 154              		.loc 1 90 0
 155 00c0 2848     		ldr	r0, .L6+4
 156 00c2 FFF7FEFF 		bl	chPoolAlloc
 157 00c6 011E     		subs	r1, r0, #0
 158 00c8 18BF     		it	ne
 159 00ca 0121     		movne	r1, #1
 160 00cc 0320     		movs	r0, #3
 161 00ce FFF7FEFF 		bl	_test_assert
 162 00d2 0028     		cmp	r0, #0
 163 00d4 32D1     		bne	.L2
 164              	.LVL13:
 165 00d6 2348     		ldr	r0, .L6+4
ARM GAS  C:\Users\DNIEL~1\AppData\Local\Temp\ccVgcZUn.s 			page 4


 166 00d8 FFF7FEFF 		bl	chPoolAlloc
 167 00dc 011E     		subs	r1, r0, #0
 168 00de 18BF     		it	ne
 169 00e0 0121     		movne	r1, #1
 170 00e2 0320     		movs	r0, #3
 171 00e4 FFF7FEFF 		bl	_test_assert
 172 00e8 40BB     		cbnz	r0, .L2
 173              	.LVL14:
 174 00ea 1E48     		ldr	r0, .L6+4
 175 00ec FFF7FEFF 		bl	chPoolAlloc
 176 00f0 011E     		subs	r1, r0, #0
 177 00f2 18BF     		it	ne
 178 00f4 0121     		movne	r1, #1
 179 00f6 0320     		movs	r0, #3
 180 00f8 FFF7FEFF 		bl	_test_assert
 181 00fc F0B9     		cbnz	r0, .L2
 182              	.LVL15:
 183 00fe 1948     		ldr	r0, .L6+4
 184 0100 FFF7FEFF 		bl	chPoolAlloc
 185 0104 011E     		subs	r1, r0, #0
 186 0106 18BF     		it	ne
 187 0108 0121     		movne	r1, #1
 188 010a 0320     		movs	r0, #3
 189 010c FFF7FEFF 		bl	_test_assert
 190 0110 A0B9     		cbnz	r0, .L2
 191              	.LVL16:
 192 0112 1448     		ldr	r0, .L6+4
 193 0114 FFF7FEFF 		bl	chPoolAlloc
 194 0118 011E     		subs	r1, r0, #0
 195 011a 18BF     		it	ne
 196 011c 0121     		movne	r1, #1
 197 011e 0320     		movs	r0, #3
 198 0120 FFF7FEFF 		bl	_test_assert
 199 0124 50B9     		cbnz	r0, .L2
 200              	.LVL17:
 201              		.loc 1 93 0
 202 0126 0F48     		ldr	r0, .L6+4
 203 0128 FFF7FEFF 		bl	chPoolAlloc
 204 012c D0F10101 		rsbs	r1, r0, #1
 205 0130 38BF     		it	cc
 206 0132 0021     		movcc	r1, #0
 207 0134 0420     		movs	r0, #4
 208 0136 FFF7FEFF 		bl	_test_assert
 209 013a 00B1     		cbz	r0, .L5
 210              	.LVL18:
 211              	.L2:
 212 013c 70BD     		pop	{r4, r5, r6, pc}
 213              	.LVL19:
 214              	.L5:
 215              		.loc 1 96 0
 216 013e 1021     		movs	r1, #16
 217 0140 094A     		ldr	r2, .L6+8
 218 0142 0848     		ldr	r0, .L6+4
 219 0144 FFF7FEFF 		bl	chPoolInit
 220              		.loc 1 97 0
 221 0148 0648     		ldr	r0, .L6+4
 222 014a FFF7FEFF 		bl	chPoolAlloc
ARM GAS  C:\Users\DNIEL~1\AppData\Local\Temp\ccVgcZUn.s 			page 5


 223 014e D0F10101 		rsbs	r1, r0, #1
 224 0152 38BF     		it	cc
 225 0154 0021     		movcc	r1, #0
 226 0156 0520     		movs	r0, #5
 227              		.loc 1 98 0
 228 0158 BDE87040 		pop	{r4, r5, r6, lr}
 229              		.loc 1 97 0
 230 015c FFF7FEBF 		b	_test_assert
 231              	.L7:
 232              		.align	2
 233              	.L6:
 234 0160 00000000 		.word	wa
 235 0164 00000000 		.word	.LANCHOR0
 236 0168 00000000 		.word	null_provider
 237              		.cfi_endproc
 238              	.LFE9:
 239              		.size	pools1_execute, .-pools1_execute
 240 016c AFF30080 		.section	.text.pools1_setup,"ax",%progbits
 241              		.align	2
 242              		.p2align 4,,15
 243              		.thumb
 244              		.thumb_func
 245              		.type	pools1_setup, %function
 246              	pools1_setup:
 247              	.LFB8:
 248              		.loc 1 66 0
 249              		.cfi_startproc
 250              		@ args = 0, pretend = 0, frame = 0
 251              		@ frame_needed = 0, uses_anonymous_args = 0
 252              		@ link register save eliminated.
 253              		.loc 1 68 0
 254 0000 0248     		ldr	r0, .L9
 255 0002 4FF4A871 		mov	r1, #336
 256 0006 0022     		movs	r2, #0
 257              		.loc 1 69 0
 258              		.loc 1 68 0
 259 0008 FFF7FEBF 		b	chPoolInit
 260              	.L10:
 261              		.align	2
 262              	.L9:
 263 000c 00000000 		.word	.LANCHOR0
 264              		.cfi_endproc
 265              	.LFE8:
 266              		.size	pools1_setup, .-pools1_setup
 267              		.global	testpools1
 268              		.global	patternpools
 269              		.section	.rodata.str1.4,"aMS",%progbits,1
 270              		.align	2
 271              	.LC0:
 272 0000 4D656D6F 		.ascii	"Memory Pools, queue/dequeue\000"
 272      72792050 
 272      6F6F6C73 
 272      2C207175 
 272      6575652F 
 273              		.section	.rodata.patternpools,"a",%progbits
 274              		.align	2
 275              		.type	patternpools, %object
ARM GAS  C:\Users\DNIEL~1\AppData\Local\Temp\ccVgcZUn.s 			page 6


 276              		.size	patternpools, 8
 277              	patternpools:
 278 0000 00000000 		.word	testpools1
 279 0004 00000000 		.word	0
 280              		.section	.data.mp1,"aw",%progbits
 281              		.align	2
 282              		.set	.LANCHOR0,. + 0
 283              		.type	mp1, %object
 284              		.size	mp1, 12
 285              	mp1:
 286 0000 00000000 		.word	0
 287 0004 50010000 		.word	336
 288 0008 00000000 		.word	0
 289              		.section	.rodata.testpools1,"a",%progbits
 290              		.align	2
 291              		.type	testpools1, %object
 292              		.size	testpools1, 16
 293              	testpools1:
 294 0000 00000000 		.word	.LC0
 295 0004 00000000 		.word	pools1_setup
 296 0008 00000000 		.word	0
 297 000c 00000000 		.word	pools1_execute
 298              		.text
 299              	.Letext0:
 300              		.section	.debug_loc,"",%progbits
 301              	.Ldebug_loc0:
 302              	.LLST0:
 303 0000 00000000 		.4byte	.LVL0
 304 0004 02000000 		.4byte	.LVL1
 305 0008 0100     		.2byte	0x1
 306 000a 50       		.byte	0x50
 307 000b 00000000 		.4byte	0x0
 308 000f 00000000 		.4byte	0x0
 309              	.LLST1:
 310 0013 00000000 		.4byte	.LFB9
 311 0017 02000000 		.4byte	.LCFI0
 312 001b 0200     		.2byte	0x2
 313 001d 7D       		.byte	0x7d
 314 001e 00       		.sleb128 0
 315 001f 02000000 		.4byte	.LCFI0
 316 0023 6C010000 		.4byte	.LFE9
 317 0027 0200     		.2byte	0x2
 318 0029 7D       		.byte	0x7d
 319 002a 10       		.sleb128 16
 320 002b 00000000 		.4byte	0x0
 321 002f 00000000 		.4byte	0x0
 322              	.LLST2:
 323 0033 10000000 		.4byte	.LVL2
 324 0037 28000000 		.4byte	.LVL3
 325 003b 0200     		.2byte	0x2
 326 003d 30       		.byte	0x30
 327 003e 9F       		.byte	0x9f
 328 003f 28000000 		.4byte	.LVL3
 329 0043 3E000000 		.4byte	.LVL4
 330 0047 0200     		.2byte	0x2
 331 0049 31       		.byte	0x31
 332 004a 9F       		.byte	0x9f
ARM GAS  C:\Users\DNIEL~1\AppData\Local\Temp\ccVgcZUn.s 			page 7


 333 004b 3E000000 		.4byte	.LVL4
 334 004f 54000000 		.4byte	.LVL5
 335 0053 0200     		.2byte	0x2
 336 0055 32       		.byte	0x32
 337 0056 9F       		.byte	0x9f
 338 0057 54000000 		.4byte	.LVL5
 339 005b 6A000000 		.4byte	.LVL6
 340 005f 0200     		.2byte	0x2
 341 0061 33       		.byte	0x33
 342 0062 9F       		.byte	0x9f
 343 0063 6A000000 		.4byte	.LVL6
 344 0067 80000000 		.4byte	.LVL7
 345 006b 0200     		.2byte	0x2
 346 006d 34       		.byte	0x34
 347 006e 9F       		.byte	0x9f
 348 006f 80000000 		.4byte	.LVL7
 349 0073 A0000000 		.4byte	.LVL8
 350 0077 0200     		.2byte	0x2
 351 0079 35       		.byte	0x35
 352 007a 9F       		.byte	0x9f
 353 007b A0000000 		.4byte	.LVL8
 354 007f A8000000 		.4byte	.LVL9
 355 0083 0200     		.2byte	0x2
 356 0085 31       		.byte	0x31
 357 0086 9F       		.byte	0x9f
 358 0087 A8000000 		.4byte	.LVL9
 359 008b B0000000 		.4byte	.LVL10
 360 008f 0200     		.2byte	0x2
 361 0091 32       		.byte	0x32
 362 0092 9F       		.byte	0x9f
 363 0093 B0000000 		.4byte	.LVL10
 364 0097 B8000000 		.4byte	.LVL11
 365 009b 0200     		.2byte	0x2
 366 009d 33       		.byte	0x33
 367 009e 9F       		.byte	0x9f
 368 009f B8000000 		.4byte	.LVL11
 369 00a3 C0000000 		.4byte	.LVL12
 370 00a7 0200     		.2byte	0x2
 371 00a9 34       		.byte	0x34
 372 00aa 9F       		.byte	0x9f
 373 00ab C0000000 		.4byte	.LVL12
 374 00af D6000000 		.4byte	.LVL13
 375 00b3 0200     		.2byte	0x2
 376 00b5 35       		.byte	0x35
 377 00b6 9F       		.byte	0x9f
 378 00b7 D6000000 		.4byte	.LVL13
 379 00bb EA000000 		.4byte	.LVL14
 380 00bf 0200     		.2byte	0x2
 381 00c1 31       		.byte	0x31
 382 00c2 9F       		.byte	0x9f
 383 00c3 EA000000 		.4byte	.LVL14
 384 00c7 FE000000 		.4byte	.LVL15
 385 00cb 0200     		.2byte	0x2
 386 00cd 32       		.byte	0x32
 387 00ce 9F       		.byte	0x9f
 388 00cf FE000000 		.4byte	.LVL15
 389 00d3 12010000 		.4byte	.LVL16
ARM GAS  C:\Users\DNIEL~1\AppData\Local\Temp\ccVgcZUn.s 			page 8


 390 00d7 0200     		.2byte	0x2
 391 00d9 33       		.byte	0x33
 392 00da 9F       		.byte	0x9f
 393 00db 12010000 		.4byte	.LVL16
 394 00df 26010000 		.4byte	.LVL17
 395 00e3 0200     		.2byte	0x2
 396 00e5 34       		.byte	0x34
 397 00e6 9F       		.byte	0x9f
 398 00e7 26010000 		.4byte	.LVL17
 399 00eb 3C010000 		.4byte	.LVL18
 400 00ef 0200     		.2byte	0x2
 401 00f1 35       		.byte	0x35
 402 00f2 9F       		.byte	0x9f
 403 00f3 3E010000 		.4byte	.LVL19
 404 00f7 6C010000 		.4byte	.LFE9
 405 00fb 0200     		.2byte	0x2
 406 00fd 35       		.byte	0x35
 407 00fe 9F       		.byte	0x9f
 408 00ff 00000000 		.4byte	0x0
 409 0103 00000000 		.4byte	0x0
 410              		.file 2 "c:\\program files (x86)\\codesourcery\\sourcery g++ lite\\bin\\../lib/gcc/arm-none-eabi/4
 411              		.file 3 "../../../ChibiOS/os/kernel/include/chmemcore.h"
 412              		.file 4 "../../../ChibiOS/os/kernel/include/chmempools.h"
 413              		.file 5 "../../../ChibiOS/test/test.h"
 414              		.section	.debug_info
 415 0000 52020000 		.4byte	0x252
 416 0004 0200     		.2byte	0x2
 417 0006 00000000 		.4byte	.Ldebug_abbrev0
 418 000a 04       		.byte	0x4
 419 000b 01       		.uleb128 0x1
 420 000c 14000000 		.4byte	.LASF26
 421 0010 01       		.byte	0x1
 422 0011 26000000 		.4byte	.LASF27
 423 0015 22010000 		.4byte	.LASF28
 424 0019 00000000 		.4byte	0x0
 425 001d 00000000 		.4byte	0x0
 426 0021 00000000 		.4byte	.Ldebug_ranges0+0x0
 427 0025 00000000 		.4byte	.Ldebug_line0
 428 0029 02       		.uleb128 0x2
 429 002a 04       		.byte	0x4
 430 002b 05       		.byte	0x5
 431 002c 696E7400 		.ascii	"int\000"
 432 0030 03       		.uleb128 0x3
 433 0031 00000000 		.4byte	.LASF10
 434 0035 02       		.byte	0x2
 435 0036 D3       		.byte	0xd3
 436 0037 3B000000 		.4byte	0x3b
 437 003b 04       		.uleb128 0x4
 438 003c 04       		.byte	0x4
 439 003d 07       		.byte	0x7
 440 003e E8000000 		.4byte	.LASF0
 441 0042 04       		.uleb128 0x4
 442 0043 01       		.byte	0x1
 443 0044 06       		.byte	0x6
 444 0045 8B010000 		.4byte	.LASF1
 445 0049 04       		.uleb128 0x4
 446 004a 01       		.byte	0x1
ARM GAS  C:\Users\DNIEL~1\AppData\Local\Temp\ccVgcZUn.s 			page 9


 447 004b 08       		.byte	0x8
 448 004c C4000000 		.4byte	.LASF2
 449 0050 04       		.uleb128 0x4
 450 0051 02       		.byte	0x2
 451 0052 05       		.byte	0x5
 452 0053 73010000 		.4byte	.LASF3
 453 0057 04       		.uleb128 0x4
 454 0058 02       		.byte	0x2
 455 0059 07       		.byte	0x7
 456 005a A3000000 		.4byte	.LASF4
 457 005e 04       		.uleb128 0x4
 458 005f 04       		.byte	0x4
 459 0060 05       		.byte	0x5
 460 0061 7D010000 		.4byte	.LASF5
 461 0065 04       		.uleb128 0x4
 462 0066 04       		.byte	0x4
 463 0067 07       		.byte	0x7
 464 0068 88000000 		.4byte	.LASF6
 465 006c 04       		.uleb128 0x4
 466 006d 08       		.byte	0x8
 467 006e 05       		.byte	0x5
 468 006f 14010000 		.4byte	.LASF7
 469 0073 04       		.uleb128 0x4
 470 0074 08       		.byte	0x8
 471 0075 07       		.byte	0x7
 472 0076 F5000000 		.4byte	.LASF8
 473 007a 04       		.uleb128 0x4
 474 007b 01       		.byte	0x1
 475 007c 02       		.byte	0x2
 476 007d AC010000 		.4byte	.LASF9
 477 0081 05       		.uleb128 0x5
 478 0082 04       		.byte	0x4
 479 0083 03       		.uleb128 0x3
 480 0084 5A010000 		.4byte	.LASF11
 481 0088 03       		.byte	0x3
 482 0089 2C       		.byte	0x2c
 483 008a 8E000000 		.4byte	0x8e
 484 008e 06       		.uleb128 0x6
 485 008f 04       		.byte	0x4
 486 0090 94000000 		.4byte	0x94
 487 0094 07       		.uleb128 0x7
 488 0095 01       		.byte	0x1
 489 0096 81000000 		.4byte	0x81
 490 009a A4000000 		.4byte	0xa4
 491 009e 08       		.uleb128 0x8
 492 009f 30000000 		.4byte	0x30
 493 00a3 00       		.byte	0x0
 494 00a4 09       		.uleb128 0x9
 495 00a5 68000000 		.4byte	.LASF18
 496 00a9 04       		.byte	0x4
 497 00aa 04       		.byte	0x4
 498 00ab 2C       		.byte	0x2c
 499 00ac BF000000 		.4byte	0xbf
 500 00b0 0A       		.uleb128 0xa
 501 00b1 0C010000 		.4byte	.LASF12
 502 00b5 04       		.byte	0x4
 503 00b6 2D       		.byte	0x2d
ARM GAS  C:\Users\DNIEL~1\AppData\Local\Temp\ccVgcZUn.s 			page 10


 504 00b7 BF000000 		.4byte	0xbf
 505 00bb 02       		.byte	0x2
 506 00bc 23       		.byte	0x23
 507 00bd 00       		.uleb128 0x0
 508 00be 00       		.byte	0x0
 509 00bf 06       		.uleb128 0x6
 510 00c0 04       		.byte	0x4
 511 00c1 A4000000 		.4byte	0xa4
 512 00c5 0B       		.uleb128 0xb
 513 00c6 0C       		.byte	0xc
 514 00c7 04       		.byte	0x4
 515 00c8 34       		.byte	0x34
 516 00c9 F8000000 		.4byte	0xf8
 517 00cd 0A       		.uleb128 0xa
 518 00ce 97010000 		.4byte	.LASF13
 519 00d2 04       		.byte	0x4
 520 00d3 35       		.byte	0x35
 521 00d4 BF000000 		.4byte	0xbf
 522 00d8 02       		.byte	0x2
 523 00d9 23       		.byte	0x23
 524 00da 00       		.uleb128 0x0
 525 00db 0A       		.uleb128 0xa
 526 00dc 48000000 		.4byte	.LASF14
 527 00e0 04       		.byte	0x4
 528 00e1 36       		.byte	0x36
 529 00e2 30000000 		.4byte	0x30
 530 00e6 02       		.byte	0x2
 531 00e7 23       		.byte	0x23
 532 00e8 04       		.uleb128 0x4
 533 00e9 0A       		.uleb128 0xa
 534 00ea 67010000 		.4byte	.LASF15
 535 00ee 04       		.byte	0x4
 536 00ef 38       		.byte	0x38
 537 00f0 83000000 		.4byte	0x83
 538 00f4 02       		.byte	0x2
 539 00f5 23       		.byte	0x23
 540 00f6 08       		.uleb128 0x8
 541 00f7 00       		.byte	0x0
 542 00f8 03       		.uleb128 0x3
 543 00f9 D2000000 		.4byte	.LASF16
 544 00fd 04       		.byte	0x4
 545 00fe 3A       		.byte	0x3a
 546 00ff C5000000 		.4byte	0xc5
 547 0103 06       		.uleb128 0x6
 548 0104 04       		.byte	0x4
 549 0105 09010000 		.4byte	0x109
 550 0109 0C       		.uleb128 0xc
 551 010a 0E010000 		.4byte	0x10e
 552 010e 04       		.uleb128 0x4
 553 010f 01       		.byte	0x1
 554 0110 08       		.byte	0x8
 555 0111 86010000 		.4byte	.LASF17
 556 0115 09       		.uleb128 0x9
 557 0116 5F000000 		.4byte	.LASF19
 558 011a 10       		.byte	0x10
 559 011b 05       		.byte	0x5
 560 011c 3B       		.byte	0x3b
ARM GAS  C:\Users\DNIEL~1\AppData\Local\Temp\ccVgcZUn.s 			page 11


 561 011d 5A010000 		.4byte	0x15a
 562 0121 0A       		.uleb128 0xa
 563 0122 55010000 		.4byte	.LASF20
 564 0126 05       		.byte	0x5
 565 0127 3C       		.byte	0x3c
 566 0128 03010000 		.4byte	0x103
 567 012c 02       		.byte	0x2
 568 012d 23       		.byte	0x23
 569 012e 00       		.uleb128 0x0
 570 012f 0A       		.uleb128 0xa
 571 0130 20000000 		.4byte	.LASF21
 572 0134 05       		.byte	0x5
 573 0135 3D       		.byte	0x3d
 574 0136 5C010000 		.4byte	0x15c
 575 013a 02       		.byte	0x2
 576 013b 23       		.byte	0x23
 577 013c 04       		.uleb128 0x4
 578 013d 0A       		.uleb128 0xa
 579 013e 9A000000 		.4byte	.LASF22
 580 0142 05       		.byte	0x5
 581 0143 3E       		.byte	0x3e
 582 0144 5C010000 		.4byte	0x15c
 583 0148 02       		.byte	0x2
 584 0149 23       		.byte	0x23
 585 014a 08       		.uleb128 0x8
 586 014b 0A       		.uleb128 0xa
 587 014c 57000000 		.4byte	.LASF23
 588 0150 05       		.byte	0x5
 589 0151 3F       		.byte	0x3f
 590 0152 5C010000 		.4byte	0x15c
 591 0156 02       		.byte	0x2
 592 0157 23       		.byte	0x23
 593 0158 0C       		.uleb128 0xc
 594 0159 00       		.byte	0x0
 595 015a 0D       		.uleb128 0xd
 596 015b 01       		.byte	0x1
 597 015c 06       		.uleb128 0x6
 598 015d 04       		.byte	0x4
 599 015e 5A010000 		.4byte	0x15a
 600 0162 0E       		.uleb128 0xe
 601 0163 B6000000 		.4byte	.LASF29
 602 0167 01       		.byte	0x1
 603 0168 3C       		.byte	0x3c
 604 0169 01       		.byte	0x1
 605 016a 81000000 		.4byte	0x81
 606 016e 00000000 		.4byte	.LFB7
 607 0172 04000000 		.4byte	.LFE7
 608 0176 02       		.byte	0x2
 609 0177 7D       		.byte	0x7d
 610 0178 00       		.sleb128 0
 611 0179 8D010000 		.4byte	0x18d
 612 017d 0F       		.uleb128 0xf
 613 017e 83000000 		.4byte	.LASF30
 614 0182 01       		.byte	0x1
 615 0183 3C       		.byte	0x3c
 616 0184 30000000 		.4byte	0x30
 617 0188 00000000 		.4byte	.LLST0
ARM GAS  C:\Users\DNIEL~1\AppData\Local\Temp\ccVgcZUn.s 			page 12


 618 018c 00       		.byte	0x0
 619 018d 10       		.uleb128 0x10
 620 018e 74000000 		.4byte	.LASF31
 621 0192 01       		.byte	0x1
 622 0193 47       		.byte	0x47
 623 0194 01       		.byte	0x1
 624 0195 00000000 		.4byte	.LFB9
 625 0199 6C010000 		.4byte	.LFE9
 626 019d 13000000 		.4byte	.LLST1
 627 01a1 B3010000 		.4byte	0x1b3
 628 01a5 11       		.uleb128 0x11
 629 01a6 6900     		.ascii	"i\000"
 630 01a8 01       		.byte	0x1
 631 01a9 48       		.byte	0x48
 632 01aa 29000000 		.4byte	0x29
 633 01ae 33000000 		.4byte	.LLST2
 634 01b2 00       		.byte	0x0
 635 01b3 12       		.uleb128 0x12
 636 01b4 07000000 		.4byte	.LASF32
 637 01b8 01       		.byte	0x1
 638 01b9 42       		.byte	0x42
 639 01ba 01       		.byte	0x1
 640 01bb 00000000 		.4byte	.LFB8
 641 01bf 10000000 		.4byte	.LFE8
 642 01c3 02       		.byte	0x2
 643 01c4 7D       		.byte	0x7d
 644 01c5 00       		.sleb128 0
 645 01c6 13       		.uleb128 0x13
 646 01c7 81000000 		.4byte	0x81
 647 01cb D1010000 		.4byte	0x1d1
 648 01cf 14       		.uleb128 0x14
 649 01d0 00       		.byte	0x0
 650 01d1 15       		.uleb128 0x15
 651 01d2 776100   		.ascii	"wa\000"
 652 01d5 05       		.byte	0x5
 653 01d6 A7       		.byte	0xa7
 654 01d7 DD010000 		.4byte	0x1dd
 655 01db 01       		.byte	0x1
 656 01dc 01       		.byte	0x1
 657 01dd 0C       		.uleb128 0xc
 658 01de C6010000 		.4byte	0x1c6
 659 01e2 16       		.uleb128 0x16
 660 01e3 6D703100 		.ascii	"mp1\000"
 661 01e7 01       		.byte	0x1
 662 01e8 31       		.byte	0x31
 663 01e9 F8000000 		.4byte	0xf8
 664 01ed 05       		.byte	0x5
 665 01ee 03       		.byte	0x3
 666 01ef 00000000 		.4byte	mp1
 667 01f3 17       		.uleb128 0x17
 668 01f4 DD000000 		.4byte	.LASF24
 669 01f8 01       		.byte	0x1
 670 01f9 64       		.byte	0x64
 671 01fa 00020000 		.4byte	0x200
 672 01fe 01       		.byte	0x1
 673 01ff 01       		.byte	0x1
 674 0200 0C       		.uleb128 0xc
ARM GAS  C:\Users\DNIEL~1\AppData\Local\Temp\ccVgcZUn.s 			page 13


 675 0201 15010000 		.4byte	0x115
 676 0205 15       		.uleb128 0x15
 677 0206 776100   		.ascii	"wa\000"
 678 0209 05       		.byte	0x5
 679 020a A7       		.byte	0xa7
 680 020b 11020000 		.4byte	0x211
 681 020f 01       		.byte	0x1
 682 0210 01       		.byte	0x1
 683 0211 0C       		.uleb128 0xc
 684 0212 C6010000 		.4byte	0x1c6
 685 0216 18       		.uleb128 0x18
 686 0217 DD000000 		.4byte	.LASF24
 687 021b 01       		.byte	0x1
 688 021c 64       		.byte	0x64
 689 021d 00020000 		.4byte	0x200
 690 0221 01       		.byte	0x1
 691 0222 05       		.byte	0x5
 692 0223 03       		.byte	0x3
 693 0224 00000000 		.4byte	testpools1
 694 0228 13       		.uleb128 0x13
 695 0229 38020000 		.4byte	0x238
 696 022d 38020000 		.4byte	0x238
 697 0231 19       		.uleb128 0x19
 698 0232 3B000000 		.4byte	0x3b
 699 0236 01       		.byte	0x1
 700 0237 00       		.byte	0x0
 701 0238 06       		.uleb128 0x6
 702 0239 04       		.byte	0x4
 703 023a 00020000 		.4byte	0x200
 704 023e 18       		.uleb128 0x18
 705 023f 9F010000 		.4byte	.LASF25
 706 0243 01       		.byte	0x1
 707 0244 70       		.byte	0x70
 708 0245 50020000 		.4byte	0x250
 709 0249 01       		.byte	0x1
 710 024a 05       		.byte	0x5
 711 024b 03       		.byte	0x3
 712 024c 00000000 		.4byte	patternpools
 713 0250 0C       		.uleb128 0xc
 714 0251 28020000 		.4byte	0x228
 715 0255 00       		.byte	0x0
 716              		.section	.debug_abbrev
 717 0000 01       		.uleb128 0x1
 718 0001 11       		.uleb128 0x11
 719 0002 01       		.byte	0x1
 720 0003 25       		.uleb128 0x25
 721 0004 0E       		.uleb128 0xe
 722 0005 13       		.uleb128 0x13
 723 0006 0B       		.uleb128 0xb
 724 0007 03       		.uleb128 0x3
 725 0008 0E       		.uleb128 0xe
 726 0009 1B       		.uleb128 0x1b
 727 000a 0E       		.uleb128 0xe
 728 000b 11       		.uleb128 0x11
 729 000c 01       		.uleb128 0x1
 730 000d 52       		.uleb128 0x52
 731 000e 01       		.uleb128 0x1
ARM GAS  C:\Users\DNIEL~1\AppData\Local\Temp\ccVgcZUn.s 			page 14


 732 000f 55       		.uleb128 0x55
 733 0010 06       		.uleb128 0x6
 734 0011 10       		.uleb128 0x10
 735 0012 06       		.uleb128 0x6
 736 0013 00       		.byte	0x0
 737 0014 00       		.byte	0x0
 738 0015 02       		.uleb128 0x2
 739 0016 24       		.uleb128 0x24
 740 0017 00       		.byte	0x0
 741 0018 0B       		.uleb128 0xb
 742 0019 0B       		.uleb128 0xb
 743 001a 3E       		.uleb128 0x3e
 744 001b 0B       		.uleb128 0xb
 745 001c 03       		.uleb128 0x3
 746 001d 08       		.uleb128 0x8
 747 001e 00       		.byte	0x0
 748 001f 00       		.byte	0x0
 749 0020 03       		.uleb128 0x3
 750 0021 16       		.uleb128 0x16
 751 0022 00       		.byte	0x0
 752 0023 03       		.uleb128 0x3
 753 0024 0E       		.uleb128 0xe
 754 0025 3A       		.uleb128 0x3a
 755 0026 0B       		.uleb128 0xb
 756 0027 3B       		.uleb128 0x3b
 757 0028 0B       		.uleb128 0xb
 758 0029 49       		.uleb128 0x49
 759 002a 13       		.uleb128 0x13
 760 002b 00       		.byte	0x0
 761 002c 00       		.byte	0x0
 762 002d 04       		.uleb128 0x4
 763 002e 24       		.uleb128 0x24
 764 002f 00       		.byte	0x0
 765 0030 0B       		.uleb128 0xb
 766 0031 0B       		.uleb128 0xb
 767 0032 3E       		.uleb128 0x3e
 768 0033 0B       		.uleb128 0xb
 769 0034 03       		.uleb128 0x3
 770 0035 0E       		.uleb128 0xe
 771 0036 00       		.byte	0x0
 772 0037 00       		.byte	0x0
 773 0038 05       		.uleb128 0x5
 774 0039 0F       		.uleb128 0xf
 775 003a 00       		.byte	0x0
 776 003b 0B       		.uleb128 0xb
 777 003c 0B       		.uleb128 0xb
 778 003d 00       		.byte	0x0
 779 003e 00       		.byte	0x0
 780 003f 06       		.uleb128 0x6
 781 0040 0F       		.uleb128 0xf
 782 0041 00       		.byte	0x0
 783 0042 0B       		.uleb128 0xb
 784 0043 0B       		.uleb128 0xb
 785 0044 49       		.uleb128 0x49
 786 0045 13       		.uleb128 0x13
 787 0046 00       		.byte	0x0
 788 0047 00       		.byte	0x0
ARM GAS  C:\Users\DNIEL~1\AppData\Local\Temp\ccVgcZUn.s 			page 15


 789 0048 07       		.uleb128 0x7
 790 0049 15       		.uleb128 0x15
 791 004a 01       		.byte	0x1
 792 004b 27       		.uleb128 0x27
 793 004c 0C       		.uleb128 0xc
 794 004d 49       		.uleb128 0x49
 795 004e 13       		.uleb128 0x13
 796 004f 01       		.uleb128 0x1
 797 0050 13       		.uleb128 0x13
 798 0051 00       		.byte	0x0
 799 0052 00       		.byte	0x0
 800 0053 08       		.uleb128 0x8
 801 0054 05       		.uleb128 0x5
 802 0055 00       		.byte	0x0
 803 0056 49       		.uleb128 0x49
 804 0057 13       		.uleb128 0x13
 805 0058 00       		.byte	0x0
 806 0059 00       		.byte	0x0
 807 005a 09       		.uleb128 0x9
 808 005b 13       		.uleb128 0x13
 809 005c 01       		.byte	0x1
 810 005d 03       		.uleb128 0x3
 811 005e 0E       		.uleb128 0xe
 812 005f 0B       		.uleb128 0xb
 813 0060 0B       		.uleb128 0xb
 814 0061 3A       		.uleb128 0x3a
 815 0062 0B       		.uleb128 0xb
 816 0063 3B       		.uleb128 0x3b
 817 0064 0B       		.uleb128 0xb
 818 0065 01       		.uleb128 0x1
 819 0066 13       		.uleb128 0x13
 820 0067 00       		.byte	0x0
 821 0068 00       		.byte	0x0
 822 0069 0A       		.uleb128 0xa
 823 006a 0D       		.uleb128 0xd
 824 006b 00       		.byte	0x0
 825 006c 03       		.uleb128 0x3
 826 006d 0E       		.uleb128 0xe
 827 006e 3A       		.uleb128 0x3a
 828 006f 0B       		.uleb128 0xb
 829 0070 3B       		.uleb128 0x3b
 830 0071 0B       		.uleb128 0xb
 831 0072 49       		.uleb128 0x49
 832 0073 13       		.uleb128 0x13
 833 0074 38       		.uleb128 0x38
 834 0075 0A       		.uleb128 0xa
 835 0076 00       		.byte	0x0
 836 0077 00       		.byte	0x0
 837 0078 0B       		.uleb128 0xb
 838 0079 13       		.uleb128 0x13
 839 007a 01       		.byte	0x1
 840 007b 0B       		.uleb128 0xb
 841 007c 0B       		.uleb128 0xb
 842 007d 3A       		.uleb128 0x3a
 843 007e 0B       		.uleb128 0xb
 844 007f 3B       		.uleb128 0x3b
 845 0080 0B       		.uleb128 0xb
ARM GAS  C:\Users\DNIEL~1\AppData\Local\Temp\ccVgcZUn.s 			page 16


 846 0081 01       		.uleb128 0x1
 847 0082 13       		.uleb128 0x13
 848 0083 00       		.byte	0x0
 849 0084 00       		.byte	0x0
 850 0085 0C       		.uleb128 0xc
 851 0086 26       		.uleb128 0x26
 852 0087 00       		.byte	0x0
 853 0088 49       		.uleb128 0x49
 854 0089 13       		.uleb128 0x13
 855 008a 00       		.byte	0x0
 856 008b 00       		.byte	0x0
 857 008c 0D       		.uleb128 0xd
 858 008d 15       		.uleb128 0x15
 859 008e 00       		.byte	0x0
 860 008f 27       		.uleb128 0x27
 861 0090 0C       		.uleb128 0xc
 862 0091 00       		.byte	0x0
 863 0092 00       		.byte	0x0
 864 0093 0E       		.uleb128 0xe
 865 0094 2E       		.uleb128 0x2e
 866 0095 01       		.byte	0x1
 867 0096 03       		.uleb128 0x3
 868 0097 0E       		.uleb128 0xe
 869 0098 3A       		.uleb128 0x3a
 870 0099 0B       		.uleb128 0xb
 871 009a 3B       		.uleb128 0x3b
 872 009b 0B       		.uleb128 0xb
 873 009c 27       		.uleb128 0x27
 874 009d 0C       		.uleb128 0xc
 875 009e 49       		.uleb128 0x49
 876 009f 13       		.uleb128 0x13
 877 00a0 11       		.uleb128 0x11
 878 00a1 01       		.uleb128 0x1
 879 00a2 12       		.uleb128 0x12
 880 00a3 01       		.uleb128 0x1
 881 00a4 40       		.uleb128 0x40
 882 00a5 0A       		.uleb128 0xa
 883 00a6 01       		.uleb128 0x1
 884 00a7 13       		.uleb128 0x13
 885 00a8 00       		.byte	0x0
 886 00a9 00       		.byte	0x0
 887 00aa 0F       		.uleb128 0xf
 888 00ab 05       		.uleb128 0x5
 889 00ac 00       		.byte	0x0
 890 00ad 03       		.uleb128 0x3
 891 00ae 0E       		.uleb128 0xe
 892 00af 3A       		.uleb128 0x3a
 893 00b0 0B       		.uleb128 0xb
 894 00b1 3B       		.uleb128 0x3b
 895 00b2 0B       		.uleb128 0xb
 896 00b3 49       		.uleb128 0x49
 897 00b4 13       		.uleb128 0x13
 898 00b5 02       		.uleb128 0x2
 899 00b6 06       		.uleb128 0x6
 900 00b7 00       		.byte	0x0
 901 00b8 00       		.byte	0x0
 902 00b9 10       		.uleb128 0x10
ARM GAS  C:\Users\DNIEL~1\AppData\Local\Temp\ccVgcZUn.s 			page 17


 903 00ba 2E       		.uleb128 0x2e
 904 00bb 01       		.byte	0x1
 905 00bc 03       		.uleb128 0x3
 906 00bd 0E       		.uleb128 0xe
 907 00be 3A       		.uleb128 0x3a
 908 00bf 0B       		.uleb128 0xb
 909 00c0 3B       		.uleb128 0x3b
 910 00c1 0B       		.uleb128 0xb
 911 00c2 27       		.uleb128 0x27
 912 00c3 0C       		.uleb128 0xc
 913 00c4 11       		.uleb128 0x11
 914 00c5 01       		.uleb128 0x1
 915 00c6 12       		.uleb128 0x12
 916 00c7 01       		.uleb128 0x1
 917 00c8 40       		.uleb128 0x40
 918 00c9 06       		.uleb128 0x6
 919 00ca 01       		.uleb128 0x1
 920 00cb 13       		.uleb128 0x13
 921 00cc 00       		.byte	0x0
 922 00cd 00       		.byte	0x0
 923 00ce 11       		.uleb128 0x11
 924 00cf 34       		.uleb128 0x34
 925 00d0 00       		.byte	0x0
 926 00d1 03       		.uleb128 0x3
 927 00d2 08       		.uleb128 0x8
 928 00d3 3A       		.uleb128 0x3a
 929 00d4 0B       		.uleb128 0xb
 930 00d5 3B       		.uleb128 0x3b
 931 00d6 0B       		.uleb128 0xb
 932 00d7 49       		.uleb128 0x49
 933 00d8 13       		.uleb128 0x13
 934 00d9 02       		.uleb128 0x2
 935 00da 06       		.uleb128 0x6
 936 00db 00       		.byte	0x0
 937 00dc 00       		.byte	0x0
 938 00dd 12       		.uleb128 0x12
 939 00de 2E       		.uleb128 0x2e
 940 00df 00       		.byte	0x0
 941 00e0 03       		.uleb128 0x3
 942 00e1 0E       		.uleb128 0xe
 943 00e2 3A       		.uleb128 0x3a
 944 00e3 0B       		.uleb128 0xb
 945 00e4 3B       		.uleb128 0x3b
 946 00e5 0B       		.uleb128 0xb
 947 00e6 27       		.uleb128 0x27
 948 00e7 0C       		.uleb128 0xc
 949 00e8 11       		.uleb128 0x11
 950 00e9 01       		.uleb128 0x1
 951 00ea 12       		.uleb128 0x12
 952 00eb 01       		.uleb128 0x1
 953 00ec 40       		.uleb128 0x40
 954 00ed 0A       		.uleb128 0xa
 955 00ee 00       		.byte	0x0
 956 00ef 00       		.byte	0x0
 957 00f0 13       		.uleb128 0x13
 958 00f1 01       		.uleb128 0x1
 959 00f2 01       		.byte	0x1
ARM GAS  C:\Users\DNIEL~1\AppData\Local\Temp\ccVgcZUn.s 			page 18


 960 00f3 49       		.uleb128 0x49
 961 00f4 13       		.uleb128 0x13
 962 00f5 01       		.uleb128 0x1
 963 00f6 13       		.uleb128 0x13
 964 00f7 00       		.byte	0x0
 965 00f8 00       		.byte	0x0
 966 00f9 14       		.uleb128 0x14
 967 00fa 21       		.uleb128 0x21
 968 00fb 00       		.byte	0x0
 969 00fc 00       		.byte	0x0
 970 00fd 00       		.byte	0x0
 971 00fe 15       		.uleb128 0x15
 972 00ff 34       		.uleb128 0x34
 973 0100 00       		.byte	0x0
 974 0101 03       		.uleb128 0x3
 975 0102 08       		.uleb128 0x8
 976 0103 3A       		.uleb128 0x3a
 977 0104 0B       		.uleb128 0xb
 978 0105 3B       		.uleb128 0x3b
 979 0106 0B       		.uleb128 0xb
 980 0107 49       		.uleb128 0x49
 981 0108 13       		.uleb128 0x13
 982 0109 3F       		.uleb128 0x3f
 983 010a 0C       		.uleb128 0xc
 984 010b 3C       		.uleb128 0x3c
 985 010c 0C       		.uleb128 0xc
 986 010d 00       		.byte	0x0
 987 010e 00       		.byte	0x0
 988 010f 16       		.uleb128 0x16
 989 0110 34       		.uleb128 0x34
 990 0111 00       		.byte	0x0
 991 0112 03       		.uleb128 0x3
 992 0113 08       		.uleb128 0x8
 993 0114 3A       		.uleb128 0x3a
 994 0115 0B       		.uleb128 0xb
 995 0116 3B       		.uleb128 0x3b
 996 0117 0B       		.uleb128 0xb
 997 0118 49       		.uleb128 0x49
 998 0119 13       		.uleb128 0x13
 999 011a 02       		.uleb128 0x2
 1000 011b 0A       		.uleb128 0xa
 1001 011c 00       		.byte	0x0
 1002 011d 00       		.byte	0x0
 1003 011e 17       		.uleb128 0x17
 1004 011f 34       		.uleb128 0x34
 1005 0120 00       		.byte	0x0
 1006 0121 03       		.uleb128 0x3
 1007 0122 0E       		.uleb128 0xe
 1008 0123 3A       		.uleb128 0x3a
 1009 0124 0B       		.uleb128 0xb
 1010 0125 3B       		.uleb128 0x3b
 1011 0126 0B       		.uleb128 0xb
 1012 0127 49       		.uleb128 0x49
 1013 0128 13       		.uleb128 0x13
 1014 0129 3F       		.uleb128 0x3f
 1015 012a 0C       		.uleb128 0xc
 1016 012b 3C       		.uleb128 0x3c
ARM GAS  C:\Users\DNIEL~1\AppData\Local\Temp\ccVgcZUn.s 			page 19


 1017 012c 0C       		.uleb128 0xc
 1018 012d 00       		.byte	0x0
 1019 012e 00       		.byte	0x0
 1020 012f 18       		.uleb128 0x18
 1021 0130 34       		.uleb128 0x34
 1022 0131 00       		.byte	0x0
 1023 0132 03       		.uleb128 0x3
 1024 0133 0E       		.uleb128 0xe
 1025 0134 3A       		.uleb128 0x3a
 1026 0135 0B       		.uleb128 0xb
 1027 0136 3B       		.uleb128 0x3b
 1028 0137 0B       		.uleb128 0xb
 1029 0138 49       		.uleb128 0x49
 1030 0139 13       		.uleb128 0x13
 1031 013a 3F       		.uleb128 0x3f
 1032 013b 0C       		.uleb128 0xc
 1033 013c 02       		.uleb128 0x2
 1034 013d 0A       		.uleb128 0xa
 1035 013e 00       		.byte	0x0
 1036 013f 00       		.byte	0x0
 1037 0140 19       		.uleb128 0x19
 1038 0141 21       		.uleb128 0x21
 1039 0142 00       		.byte	0x0
 1040 0143 49       		.uleb128 0x49
 1041 0144 13       		.uleb128 0x13
 1042 0145 2F       		.uleb128 0x2f
 1043 0146 0B       		.uleb128 0xb
 1044 0147 00       		.byte	0x0
 1045 0148 00       		.byte	0x0
 1046 0149 00       		.byte	0x0
 1047              		.section	.debug_pubnames,"",%progbits
 1048 0000 2E000000 		.4byte	0x2e
 1049 0004 0200     		.2byte	0x2
 1050 0006 00000000 		.4byte	.Ldebug_info0
 1051 000a 56020000 		.4byte	0x256
 1052 000e 16020000 		.4byte	0x216
 1053 0012 74657374 		.ascii	"testpools1\000"
 1053      706F6F6C 
 1053      733100
 1054 001d 3E020000 		.4byte	0x23e
 1055 0021 70617474 		.ascii	"patternpools\000"
 1055      65726E70 
 1055      6F6F6C73 
 1055      00
 1056 002e 00000000 		.4byte	0x0
 1057              		.section	.debug_pubtypes,"",%progbits
 1058 0000 56000000 		.4byte	0x56
 1059 0004 0200     		.2byte	0x2
 1060 0006 00000000 		.4byte	.Ldebug_info0
 1061 000a 56020000 		.4byte	0x256
 1062 000e 30000000 		.4byte	0x30
 1063 0012 73697A65 		.ascii	"size_t\000"
 1063      5F7400
 1064 0019 83000000 		.4byte	0x83
 1065 001d 6D656D67 		.ascii	"memgetfunc_t\000"
 1065      65746675 
 1065      6E635F74 
ARM GAS  C:\Users\DNIEL~1\AppData\Local\Temp\ccVgcZUn.s 			page 20


 1065      00
 1066 002a A4000000 		.4byte	0xa4
 1067 002e 706F6F6C 		.ascii	"pool_header\000"
 1067      5F686561 
 1067      64657200 
 1068 003a F8000000 		.4byte	0xf8
 1069 003e 4D656D6F 		.ascii	"MemoryPool\000"
 1069      7279506F 
 1069      6F6C00
 1070 0049 15010000 		.4byte	0x115
 1071 004d 74657374 		.ascii	"testcase\000"
 1071      63617365 
 1071      00
 1072 0056 00000000 		.4byte	0x0
 1073              		.section	.debug_aranges,"",%progbits
 1074 0000 2C000000 		.4byte	0x2c
 1075 0004 0200     		.2byte	0x2
 1076 0006 00000000 		.4byte	.Ldebug_info0
 1077 000a 04       		.byte	0x4
 1078 000b 00       		.byte	0x0
 1079 000c 0000     		.2byte	0x0
 1080 000e 0000     		.2byte	0x0
 1081 0010 00000000 		.4byte	.LFB7
 1082 0014 04000000 		.4byte	.LFE7-.LFB7
 1083 0018 00000000 		.4byte	.LFB9
 1084 001c 6C010000 		.4byte	.LFE9-.LFB9
 1085 0020 00000000 		.4byte	.LFB8
 1086 0024 10000000 		.4byte	.LFE8-.LFB8
 1087 0028 00000000 		.4byte	0x0
 1088 002c 00000000 		.4byte	0x0
 1089              		.section	.debug_ranges,"",%progbits
 1090              	.Ldebug_ranges0:
 1091 0000 00000000 		.4byte	.LFB7
 1092 0004 04000000 		.4byte	.LFE7
 1093 0008 00000000 		.4byte	.LFB9
 1094 000c 6C010000 		.4byte	.LFE9
 1095 0010 00000000 		.4byte	.LFB8
 1096 0014 10000000 		.4byte	.LFE8
 1097 0018 00000000 		.4byte	0x0
 1098 001c 00000000 		.4byte	0x0
 1099              		.section	.debug_str,"MS",%progbits,1
 1100              	.LASF10:
 1101 0000 73697A65 		.ascii	"size_t\000"
 1101      5F7400
 1102              	.LASF32:
 1103 0007 706F6F6C 		.ascii	"pools1_setup\000"
 1103      73315F73 
 1103      65747570 
 1103      00
 1104              	.LASF26:
 1105 0014 474E5520 		.ascii	"GNU C 4.5.2\000"
 1105      4320342E 
 1105      352E3200 
 1106              	.LASF21:
 1107 0020 73657475 		.ascii	"setup\000"
 1107      7000
 1108              	.LASF27:
ARM GAS  C:\Users\DNIEL~1\AppData\Local\Temp\ccVgcZUn.s 			page 21


 1109 0026 2E2E2F2E 		.ascii	"../../../ChibiOS/test/testpools.c\000"
 1109      2E2F2E2E 
 1109      2F436869 
 1109      62694F53 
 1109      2F746573 
 1110              	.LASF14:
 1111 0048 6D705F6F 		.ascii	"mp_object_size\000"
 1111      626A6563 
 1111      745F7369 
 1111      7A6500
 1112              	.LASF23:
 1113 0057 65786563 		.ascii	"execute\000"
 1113      75746500 
 1114              	.LASF19:
 1115 005f 74657374 		.ascii	"testcase\000"
 1115      63617365 
 1115      00
 1116              	.LASF18:
 1117 0068 706F6F6C 		.ascii	"pool_header\000"
 1117      5F686561 
 1117      64657200 
 1118              	.LASF31:
 1119 0074 706F6F6C 		.ascii	"pools1_execute\000"
 1119      73315F65 
 1119      78656375 
 1119      746500
 1120              	.LASF30:
 1121 0083 73697A65 		.ascii	"size\000"
 1121      00
 1122              	.LASF6:
 1123 0088 6C6F6E67 		.ascii	"long unsigned int\000"
 1123      20756E73 
 1123      69676E65 
 1123      6420696E 
 1123      7400
 1124              	.LASF22:
 1125 009a 74656172 		.ascii	"teardown\000"
 1125      646F776E 
 1125      00
 1126              	.LASF4:
 1127 00a3 73686F72 		.ascii	"short unsigned int\000"
 1127      7420756E 
 1127      7369676E 
 1127      65642069 
 1127      6E7400
 1128              	.LASF29:
 1129 00b6 6E756C6C 		.ascii	"null_provider\000"
 1129      5F70726F 
 1129      76696465 
 1129      7200
 1130              	.LASF2:
 1131 00c4 756E7369 		.ascii	"unsigned char\000"
 1131      676E6564 
 1131      20636861 
 1131      7200
 1132              	.LASF16:
 1133 00d2 4D656D6F 		.ascii	"MemoryPool\000"
ARM GAS  C:\Users\DNIEL~1\AppData\Local\Temp\ccVgcZUn.s 			page 22


 1133      7279506F 
 1133      6F6C00
 1134              	.LASF24:
 1135 00dd 74657374 		.ascii	"testpools1\000"
 1135      706F6F6C 
 1135      733100
 1136              	.LASF0:
 1137 00e8 756E7369 		.ascii	"unsigned int\000"
 1137      676E6564 
 1137      20696E74 
 1137      00
 1138              	.LASF8:
 1139 00f5 6C6F6E67 		.ascii	"long long unsigned int\000"
 1139      206C6F6E 
 1139      6720756E 
 1139      7369676E 
 1139      65642069 
 1140              	.LASF12:
 1141 010c 70685F6E 		.ascii	"ph_next\000"
 1141      65787400 
 1142              	.LASF7:
 1143 0114 6C6F6E67 		.ascii	"long long int\000"
 1143      206C6F6E 
 1143      6720696E 
 1143      7400
 1144              	.LASF28:
 1145 0122 433A5C44 		.ascii	"C:\\Dani\\MegaLux\\Repo\\Smarty\\Smarty\\smarty\\fi"
 1145      616E695C 
 1145      4D656761 
 1145      4C75785C 
 1145      5265706F 
 1146 014e 726D7761 		.ascii	"rmware\000"
 1146      726500
 1147              	.LASF20:
 1148 0155 6E616D65 		.ascii	"name\000"
 1148      00
 1149              	.LASF11:
 1150 015a 6D656D67 		.ascii	"memgetfunc_t\000"
 1150      65746675 
 1150      6E635F74 
 1150      00
 1151              	.LASF15:
 1152 0167 6D705F70 		.ascii	"mp_provider\000"
 1152      726F7669 
 1152      64657200 
 1153              	.LASF3:
 1154 0173 73686F72 		.ascii	"short int\000"
 1154      7420696E 
 1154      7400
 1155              	.LASF5:
 1156 017d 6C6F6E67 		.ascii	"long int\000"
 1156      20696E74 
 1156      00
 1157              	.LASF17:
 1158 0186 63686172 		.ascii	"char\000"
 1158      00
 1159              	.LASF1:
ARM GAS  C:\Users\DNIEL~1\AppData\Local\Temp\ccVgcZUn.s 			page 23


 1160 018b 7369676E 		.ascii	"signed char\000"
 1160      65642063 
 1160      68617200 
 1161              	.LASF13:
 1162 0197 6D705F6E 		.ascii	"mp_next\000"
 1162      65787400 
 1163              	.LASF25:
 1164 019f 70617474 		.ascii	"patternpools\000"
 1164      65726E70 
 1164      6F6F6C73 
 1164      00
 1165              	.LASF9:
 1166 01ac 5F426F6F 		.ascii	"_Bool\000"
 1166      6C00
 1167              		.ident	"GCC: (Sourcery G++ Lite 2011.03-42) 4.5.2"
ARM GAS  C:\Users\DNIEL~1\AppData\Local\Temp\ccVgcZUn.s 			page 24


DEFINED SYMBOLS
                            *ABS*:00000000 testpools.c
C:\Users\DNIEL~1\AppData\Local\Temp\ccVgcZUn.s:24     .text.null_provider:00000000 $t
C:\Users\DNIEL~1\AppData\Local\Temp\ccVgcZUn.s:29     .text.null_provider:00000000 null_provider
C:\Users\DNIEL~1\AppData\Local\Temp\ccVgcZUn.s:46     .text.pools1_execute:00000000 $t
C:\Users\DNIEL~1\AppData\Local\Temp\ccVgcZUn.s:51     .text.pools1_execute:00000000 pools1_execute
C:\Users\DNIEL~1\AppData\Local\Temp\ccVgcZUn.s:234    .text.pools1_execute:00000160 $d
C:\Users\DNIEL~1\AppData\Local\Temp\ccVgcZUn.s:241    .text.pools1_setup:00000000 $t
C:\Users\DNIEL~1\AppData\Local\Temp\ccVgcZUn.s:246    .text.pools1_setup:00000000 pools1_setup
C:\Users\DNIEL~1\AppData\Local\Temp\ccVgcZUn.s:263    .text.pools1_setup:0000000c $d
C:\Users\DNIEL~1\AppData\Local\Temp\ccVgcZUn.s:293    .rodata.testpools1:00000000 testpools1
C:\Users\DNIEL~1\AppData\Local\Temp\ccVgcZUn.s:277    .rodata.patternpools:00000000 patternpools
C:\Users\DNIEL~1\AppData\Local\Temp\ccVgcZUn.s:270    .rodata.str1.4:00000000 $d
C:\Users\DNIEL~1\AppData\Local\Temp\ccVgcZUn.s:274    .rodata.patternpools:00000000 $d
C:\Users\DNIEL~1\AppData\Local\Temp\ccVgcZUn.s:281    .data.mp1:00000000 $d
C:\Users\DNIEL~1\AppData\Local\Temp\ccVgcZUn.s:285    .data.mp1:00000000 mp1
C:\Users\DNIEL~1\AppData\Local\Temp\ccVgcZUn.s:290    .rodata.testpools1:00000000 $d
                     .debug_frame:00000010 $d
C:\Users\DNIEL~1\AppData\Local\Temp\ccVgcZUn.s:240    .text.pools1_execute:0000016c $t

UNDEFINED SYMBOLS
chPoolLoadArray
chPoolAlloc
_test_assert
chPoolFree
chPoolInit
wa
