ARM GAS  C:\Users\DNIEL~1\AppData\Local\Temp\ccCtLOa2.s 			page 1


   1              		.syntax unified
   2              		.cpu cortex-m4
   3              		.fpu softvfp
   4              		.eabi_attribute 20, 1
   5              		.eabi_attribute 21, 1
   6              		.eabi_attribute 23, 3
   7              		.eabi_attribute 24, 1
   8              		.eabi_attribute 25, 1
   9              		.eabi_attribute 26, 1
  10              		.eabi_attribute 30, 2
  11              		.eabi_attribute 18, 4
  12              		.thumb
  13              		.file	"tm.c"
  20 0000 13020000 		.text
  20      02009501 
  20      00000201 
  20      FB0E0D00 
  20      01010101 
  21              	.Ltext0:
  22              		.cfi_sections	.debug_frame
  23              		.section	.text.tm_start,"ax",%progbits
  24              		.align	2
  25              		.p2align 4,,15
  26              		.thumb
  27              		.thumb_func
  28              		.type	tm_start, %function
  29              	tm_start:
  30              	.LFB118:
  31              		.file 1 "../../../ChibiOS/os/hal/src/tm.c"
  32              		.loc 1 69 0
  33              		.cfi_startproc
  34              		@ args = 0, pretend = 0, frame = 0
  35              		@ frame_needed = 0, uses_anonymous_args = 0
  36              		@ link register save eliminated.
  37              	.LVL0:
  38              		.loc 1 71 0
  39 0000 0149     		ldr	r1, .L2
  40 0002 4B68     		ldr	r3, [r1, #4]
  41 0004 8360     		str	r3, [r0, #8]
  42              		.loc 1 72 0
  43 0006 7047     		bx	lr
  44              	.L3:
  45              		.align	2
  46              	.L2:
  47 0008 001000E0 		.word	-536866816
  48              		.cfi_endproc
  49              	.LFE118:
  50              		.size	tm_start, .-tm_start
  51 000c AFF30080 		.section	.text.tm_stop,"ax",%progbits
  52              		.align	2
  53              		.p2align 4,,15
ARM GAS  C:\Users\DNIEL~1\AppData\Local\Temp\ccCtLOa2.s 			page 2


  54              		.thumb
  55              		.thumb_func
  56              		.type	tm_stop, %function
  57              	tm_stop:
  58              	.LFB119:
  59              		.loc 1 81 0
  60              		.cfi_startproc
  61              		@ args = 0, pretend = 0, frame = 0
  62              		@ frame_needed = 0, uses_anonymous_args = 0
  63              		@ link register save eliminated.
  64              	.LVL1:
  65 0000 10B4     		push	{r4}
  66              	.LCFI0:
  67              		.cfi_def_cfa_offset 4
  68              		.loc 1 83 0
  69 0002 094C     		ldr	r4, .L9
  70              		.cfi_offset 4, -4
  71              		.loc 1 84 0
  72 0004 094A     		ldr	r2, .L9+4
  73              		.loc 1 83 0
  74 0006 6468     		ldr	r4, [r4, #4]
  75              	.LVL2:
  76              		.loc 1 84 0
  77 0008 8368     		ldr	r3, [r0, #8]
  78 000a 1168     		ldr	r1, [r2, #0]
  79              		.loc 1 85 0
  80 000c C268     		ldr	r2, [r0, #12]
  81              		.loc 1 84 0
  82 000e E31A     		subs	r3, r4, r3
  83 0010 5B1A     		subs	r3, r3, r1
  84              		.loc 1 85 0
  85 0012 9342     		cmp	r3, r2
  86              		.loc 1 84 0
  87 0014 8360     		str	r3, [r0, #8]
  88              		.loc 1 85 0
  89 0016 05D8     		bhi	.L8
  90              		.loc 1 87 0
  91 0018 0169     		ldr	r1, [r0, #16]
  92 001a 8B42     		cmp	r3, r1
  93              		.loc 1 88 0
  94 001c 38BF     		it	cc
  95 001e 0361     		strcc	r3, [r0, #16]
  96              	.L4:
  97              		.loc 1 89 0
  98 0020 10BC     		pop	{r4}
  99 0022 7047     		bx	lr
 100              	.L8:
 101              		.loc 1 86 0
 102 0024 C360     		str	r3, [r0, #12]
 103 0026 FBE7     		b	.L4
 104              	.L10:
 105              		.align	2
 106              	.L9:
 107 0028 001000E0 		.word	-536866816
 108 002c 00000000 		.word	.LANCHOR0
 109              		.cfi_endproc
 110              	.LFE119:
ARM GAS  C:\Users\DNIEL~1\AppData\Local\Temp\ccCtLOa2.s 			page 3


 111              		.size	tm_stop, .-tm_stop
 112              		.section	.text.tmInit,"ax",%progbits
 113              		.align	2
 114              		.p2align 4,,15
 115              		.global	tmInit
 116              		.thumb
 117              		.thumb_func
 118              		.type	tmInit, %function
 119              	tmInit:
 120              	.LFB120:
 121              		.loc 1 104 0
 122              		.cfi_startproc
 123              		@ args = 0, pretend = 0, frame = 24
 124              		@ frame_needed = 0, uses_anonymous_args = 0
 125 0000 10B5     		push	{r4, lr}
 126              	.LCFI1:
 127              		.cfi_def_cfa_offset 8
 128              	.LBB4:
 129              	.LBB6:
 130              		.loc 1 126 0
 131 0002 0B48     		ldr	r0, .L12
 132              		.loc 1 127 0
 133 0004 0B49     		ldr	r1, .L12+4
 134              	.LBE6:
 135              	.LBE4:
 136              		.loc 1 110 0
 137 0006 0C4C     		ldr	r4, .L12+8
 138              		.cfi_offset 14, -4
 139              		.cfi_offset 4, -8
 140              		.loc 1 104 0
 141 0008 86B0     		sub	sp, sp, #24
 142              	.LCFI2:
 143              		.cfi_def_cfa_offset 32
 144              		.loc 1 110 0
 145 000a 0023     		movs	r3, #0
 146              	.LBB8:
 147              	.LBB5:
 148              		.loc 1 130 0
 149 000c 4FF0FF32 		mov	r2, #-1
 150              		.loc 1 126 0
 151 0010 0190     		str	r0, [sp, #4]
 152              	.LBE5:
 153              	.LBE8:
 154              		.loc 1 112 0
 155 0012 01A8     		add	r0, sp, #4
 156              		.loc 1 110 0
 157 0014 2360     		str	r3, [r4, #0]
 158              	.LVL3:
 159              	.LBB9:
 160              	.LBB7:
 161              		.loc 1 128 0
 162 0016 0393     		str	r3, [sp, #12]
 163              		.loc 1 129 0
 164 0018 0493     		str	r3, [sp, #16]
 165              		.loc 1 127 0
 166 001a 0291     		str	r1, [sp, #8]
 167              		.loc 1 130 0
ARM GAS  C:\Users\DNIEL~1\AppData\Local\Temp\ccCtLOa2.s 			page 4


 168 001c 0592     		str	r2, [sp, #20]
 169              	.LBE7:
 170              	.LBE9:
 171              		.loc 1 112 0
 172 001e FFF7FEFF 		bl	tm_start
 173              	.LVL4:
 174              		.loc 1 113 0
 175 0022 01A8     		add	r0, sp, #4
 176              	.LVL5:
 177 0024 0299     		ldr	r1, [sp, #8]
 178 0026 8847     		blx	r1
 179              	.LVL6:
 180              		.loc 1 114 0
 181 0028 039B     		ldr	r3, [sp, #12]
 182 002a 2360     		str	r3, [r4, #0]
 183              		.loc 1 115 0
 184 002c 06B0     		add	sp, sp, #24
 185 002e 10BD     		pop	{r4, pc}
 186              	.L13:
 187              		.align	2
 188              	.L12:
 189 0030 00000000 		.word	tm_start
 190 0034 00000000 		.word	tm_stop
 191 0038 00000000 		.word	.LANCHOR0
 192              		.cfi_endproc
 193              	.LFE120:
 194              		.size	tmInit, .-tmInit
 195 003c AFF30080 		.section	.text.tmObjectInit,"ax",%progbits
 196              		.align	2
 197              		.p2align 4,,15
 198              		.global	tmObjectInit
 199              		.thumb
 200              		.thumb_func
 201              		.type	tmObjectInit, %function
 202              	tmObjectInit:
 203              	.LFB121:
 204              		.loc 1 124 0
 205              		.cfi_startproc
 206              		@ args = 0, pretend = 0, frame = 0
 207              		@ frame_needed = 0, uses_anonymous_args = 0
 208              		@ link register save eliminated.
 209              	.LVL7:
 210              		.loc 1 126 0
 211 0000 054B     		ldr	r3, .L15
 212              		.loc 1 127 0
 213 0002 064A     		ldr	r2, .L15+4
 214              		.loc 1 126 0
 215 0004 0360     		str	r3, [r0, #0]
 216              		.loc 1 128 0
 217 0006 0021     		movs	r1, #0
 218              		.loc 1 130 0
 219 0008 4FF0FF33 		mov	r3, #-1
 220              		.loc 1 127 0
 221 000c 4260     		str	r2, [r0, #4]
 222              		.loc 1 128 0
 223 000e 8160     		str	r1, [r0, #8]
 224              		.loc 1 129 0
ARM GAS  C:\Users\DNIEL~1\AppData\Local\Temp\ccCtLOa2.s 			page 5


 225 0010 C160     		str	r1, [r0, #12]
 226              		.loc 1 130 0
 227 0012 0361     		str	r3, [r0, #16]
 228              		.loc 1 131 0
 229 0014 7047     		bx	lr
 230              	.L16:
 231 0016 00BF     		.align	2
 232              	.L15:
 233 0018 00000000 		.word	tm_start
 234 001c 00000000 		.word	tm_stop
 235              		.cfi_endproc
 236              	.LFE121:
 237              		.size	tmObjectInit, .-tmObjectInit
 238              		.section	.bss.measurement_offset,"aw",%nobits
 239              		.align	2
 240              		.set	.LANCHOR0,. + 0
 241              		.type	measurement_offset, %object
 242              		.size	measurement_offset, 4
 243              	measurement_offset:
 244 0000 00000000 		.space	4
 245              		.text
 246              	.Letext0: