ARM GAS  C:\Users\srich\AppData\Local\Temp\ccxnQ9mK.s 			page 1


   1              		.syntax unified
   2              		.cpu cortex-m4
   3              		.fpu softvfp
   4              		.eabi_attribute 20, 1
   5              		.eabi_attribute 21, 1
   6              		.eabi_attribute 23, 3
   7              		.eabi_attribute 24, 1
   8              		.eabi_attribute 25, 1
   9              		.eabi_attribute 26, 1
  10              		.eabi_attribute 30, 2
  11              		.eabi_attribute 34, 1
  12              		.eabi_attribute 18, 4
  13              		.thumb
  14              		.file	"usb.c"
  15              		.text
  16              	.Ltext0:
  17              		.cfi_sections	.debug_frame
  18              		.section	.text.usbInit,"ax",%progbits
  19              		.align	2
  20              		.p2align 4,,15
  21              		.global	usbInit
  22              		.thumb
  23              		.thumb_func
  24              		.type	usbInit, %function
  25              	usbInit:
  26              	.LFB120:
  27              		.file 1 "../../../ChibiOS/os/hal/src/usb.c"
  28              		.loc 1 235 0
  29              		.cfi_startproc
  30              		@ args = 0, pretend = 0, frame = 0
  31              		@ frame_needed = 0, uses_anonymous_args = 0
  32              		@ link register save eliminated.
  33              		.loc 1 237 0
  34 0000 FFF7FEBF 		b	usb_lld_init
  35              	.LVL0:
  36              		.cfi_endproc
  37              	.LFE120:
  38              		.size	usbInit, .-usbInit
  39              		.section	.text.usbObjectInit,"ax",%progbits
  40              		.align	2
  41              		.p2align 4,,15
  42              		.global	usbObjectInit
  43              		.thumb
  44              		.thumb_func
  45              		.type	usbObjectInit, %function
  46              	usbObjectInit:
  47              	.LFB121:
  48              		.loc 1 247 0
  49              		.cfi_startproc
  50              		@ args = 0, pretend = 0, frame = 0
  51              		@ frame_needed = 0, uses_anonymous_args = 0
  52              		@ link register save eliminated.
  53              	.LVL1:
  54              		.loc 1 251 0
  55 0000 0023     		movs	r3, #0
  56              		.loc 1 250 0
  57 0002 0122     		movs	r2, #1
ARM GAS  C:\Users\srich\AppData\Local\Temp\ccxnQ9mK.s 			page 2


  58 0004 0270     		strb	r2, [r0]
  59              		.loc 1 251 0
  60 0006 4360     		str	r3, [r0, #4]
  61              	.LVL2:
  62              		.loc 1 253 0
  63 0008 C361     		str	r3, [r0, #28]
  64              		.loc 1 254 0
  65 000a 8362     		str	r3, [r0, #40]
  66              	.LVL3:
  67              		.loc 1 253 0
  68 000c 0362     		str	r3, [r0, #32]
  69              		.loc 1 254 0
  70 000e C362     		str	r3, [r0, #44]
  71              	.LVL4:
  72              		.loc 1 253 0
  73 0010 4362     		str	r3, [r0, #36]
  74              		.loc 1 254 0
  75 0012 0363     		str	r3, [r0, #48]
  76              	.LVL5:
  77              		.loc 1 256 0
  78 0014 0381     		strh	r3, [r0, #8]	@ movhi
  79              		.loc 1 257 0
  80 0016 4381     		strh	r3, [r0, #10]	@ movhi
  81 0018 7047     		bx	lr
  82              		.cfi_endproc
  83              	.LFE121:
  84              		.size	usbObjectInit, .-usbObjectInit
  85 001a 00BF     		.section	.text.usbStart,"ax",%progbits
  86              		.align	2
  87              		.p2align 4,,15
  88              		.global	usbStart
  89              		.thumb
  90              		.thumb_func
  91              		.type	usbStart, %function
  92              	usbStart:
  93              	.LFB122:
  94              		.loc 1 268 0
  95              		.cfi_startproc
  96              		@ args = 0, pretend = 0, frame = 0
  97              		@ frame_needed = 0, uses_anonymous_args = 0
  98              	.LVL6:
  99 0000 38B5     		push	{r3, r4, r5, lr}
 100              		.cfi_def_cfa_offset 16
 101              		.cfi_offset 3, -16
 102              		.cfi_offset 4, -12
 103              		.cfi_offset 5, -8
 104              		.cfi_offset 14, -4
 105              		.loc 1 268 0
 106 0002 0446     		mov	r4, r0
 107              	.LBB30:
 108              		.loc 1 273 0
 109 0004 2023     		movs	r3, #32
 110              	@ 273 "../../../ChibiOS/os/hal/src/usb.c" 1
 111 0006 83F31188 		msr     BASEPRI, r3
 112              	@ 0 "" 2
 113              		.thumb
 114              	.LBE30:
ARM GAS  C:\Users\srich\AppData\Local\Temp\ccxnQ9mK.s 			page 3


 115              		.loc 1 278 0
 116 000a 0025     		movs	r5, #0
 117              		.loc 1 276 0
 118 000c 4160     		str	r1, [r0, #4]
 119              	.LVL7:
 120              		.loc 1 278 0
 121 000e C560     		str	r5, [r0, #12]
 122              	.LVL8:
 123 0010 0561     		str	r5, [r0, #16]
 124              	.LVL9:
 125 0012 4561     		str	r5, [r0, #20]
 126              	.LVL10:
 127 0014 8561     		str	r5, [r0, #24]
 128              	.LVL11:
 129              		.loc 1 279 0
 130 0016 FFF7FEFF 		bl	usb_lld_start
 131              	.LVL12:
 132              		.loc 1 280 0
 133 001a 0222     		movs	r2, #2
 134              	.LBB31:
 135              		.loc 1 281 0
 136 001c 2B46     		mov	r3, r5
 137              	.LBE31:
 138              		.loc 1 280 0
 139 001e 2270     		strb	r2, [r4]
 140              	.LBB32:
 141              		.loc 1 281 0
 142              	@ 281 "../../../ChibiOS/os/hal/src/usb.c" 1
 143 0020 83F31188 		msr     BASEPRI, r3
 144              	@ 0 "" 2
 145              		.thumb
 146 0024 38BD     		pop	{r3, r4, r5, pc}
 147              	.LBE32:
 148              		.cfi_endproc
 149              	.LFE122:
 150              		.size	usbStart, .-usbStart
 151 0026 00BF     		.section	.text.usbStop,"ax",%progbits
 152              		.align	2
 153              		.p2align 4,,15
 154              		.global	usbStop
 155              		.thumb
 156              		.thumb_func
 157              		.type	usbStop, %function
 158              	usbStop:
 159              	.LFB123:
 160              		.loc 1 291 0
 161              		.cfi_startproc
 162              		@ args = 0, pretend = 0, frame = 0
 163              		@ frame_needed = 0, uses_anonymous_args = 0
 164              	.LVL13:
 165 0000 10B5     		push	{r4, lr}
 166              		.cfi_def_cfa_offset 8
 167              		.cfi_offset 4, -8
 168              		.cfi_offset 14, -4
 169              	.LBB33:
 170              		.loc 1 295 0
 171 0002 2023     		movs	r3, #32
ARM GAS  C:\Users\srich\AppData\Local\Temp\ccxnQ9mK.s 			page 4


 172              	.LBE33:
 173              		.loc 1 291 0
 174 0004 0446     		mov	r4, r0
 175              	.LBB34:
 176              		.loc 1 295 0
 177              	@ 295 "../../../ChibiOS/os/hal/src/usb.c" 1
 178 0006 83F31188 		msr     BASEPRI, r3
 179              	@ 0 "" 2
 180              		.thumb
 181              	.LBE34:
 182              		.loc 1 299 0
 183 000a FFF7FEFF 		bl	usb_lld_stop
 184              	.LVL14:
 185              		.loc 1 300 0
 186 000e 0123     		movs	r3, #1
 187 0010 2370     		strb	r3, [r4]
 188              	.LBB35:
 189              		.loc 1 301 0
 190 0012 0023     		movs	r3, #0
 191              	@ 301 "../../../ChibiOS/os/hal/src/usb.c" 1
 192 0014 83F31188 		msr     BASEPRI, r3
 193              	@ 0 "" 2
 194              		.thumb
 195 0018 10BD     		pop	{r4, pc}
 196              	.LBE35:
 197              		.cfi_endproc
 198              	.LFE123:
 199              		.size	usbStop, .-usbStop
 200 001a 00BF     		.section	.text.usbInitEndpointI,"ax",%progbits
 201              		.align	2
 202              		.p2align 4,,15
 203              		.global	usbInitEndpointI
 204              		.thumb
 205              		.thumb_func
 206              		.type	usbInitEndpointI, %function
 207              	usbInitEndpointI:
 208              	.LFB124:
 209              		.loc 1 318 0
 210              		.cfi_startproc
 211              		@ args = 0, pretend = 0, frame = 0
 212              		@ frame_needed = 0, uses_anonymous_args = 0
 213              	.LVL15:
 214 0000 70B5     		push	{r4, r5, r6, lr}
 215              		.cfi_def_cfa_offset 16
 216              		.cfi_offset 4, -16
 217              		.cfi_offset 5, -12
 218              		.cfi_offset 6, -8
 219              		.cfi_offset 14, -4
 220              		.loc 1 318 0
 221 0002 0646     		mov	r6, r0
 222              		.loc 1 328 0
 223 0004 5069     		ldr	r0, [r2, #20]
 224              	.LVL16:
 225              		.loc 1 318 0
 226 0006 1446     		mov	r4, r2
 227 0008 0D46     		mov	r5, r1
 228              		.loc 1 328 0
ARM GAS  C:\Users\srich\AppData\Local\Temp\ccxnQ9mK.s 			page 5


 229 000a 18B1     		cbz	r0, .L8
 230              		.loc 1 329 0
 231 000c 0021     		movs	r1, #0
 232              	.LVL17:
 233 000e 1422     		movs	r2, #20
 234              	.LVL18:
 235 0010 FFF7FEFF 		bl	memset
 236              	.LVL19:
 237              	.L8:
 238              		.loc 1 330 0
 239 0014 A069     		ldr	r0, [r4, #24]
 240 0016 18B1     		cbz	r0, .L9
 241              		.loc 1 331 0
 242 0018 0021     		movs	r1, #0
 243 001a 1422     		movs	r2, #20
 244 001c FFF7FEFF 		bl	memset
 245              	.LVL20:
 246              	.L9:
 247              		.loc 1 333 0
 248 0020 06EB8503 		add	r3, r6, r5, lsl #2
 249              		.loc 1 336 0
 250 0024 3046     		mov	r0, r6
 251              		.loc 1 333 0
 252 0026 DC60     		str	r4, [r3, #12]
 253              		.loc 1 336 0
 254 0028 2946     		mov	r1, r5
 255              		.loc 1 337 0
 256 002a BDE87040 		pop	{r4, r5, r6, lr}
 257              		.cfi_restore 14
 258              		.cfi_restore 6
 259              		.cfi_restore 5
 260              		.cfi_restore 4
 261              		.cfi_def_cfa_offset 0
 262              	.LVL21:
 263              		.loc 1 336 0
 264 002e FFF7FEBF 		b	usb_lld_init_endpoint
 265              	.LVL22:
 266              		.cfi_endproc
 267              	.LFE124:
 268              		.size	usbInitEndpointI, .-usbInitEndpointI
 269 0032 00BF     		.section	.text.usbDisableEndpointsI,"ax",%progbits
 270              		.align	2
 271              		.p2align 4,,15
 272              		.global	usbDisableEndpointsI
 273              		.thumb
 274              		.thumb_func
 275              		.type	usbDisableEndpointsI, %function
 276              	usbDisableEndpointsI:
 277              	.LFB125:
 278              		.loc 1 350 0
 279              		.cfi_startproc
 280              		@ args = 0, pretend = 0, frame = 0
 281              		@ frame_needed = 0, uses_anonymous_args = 0
 282              		@ link register save eliminated.
 283              	.LVL23:
 284 0000 10B4     		push	{r4}
 285              		.cfi_def_cfa_offset 4
ARM GAS  C:\Users\srich\AppData\Local\Temp\ccxnQ9mK.s 			page 6


 286              		.cfi_offset 4, -4
 287              		.loc 1 359 0
 288 0002 4189     		ldrh	r1, [r0, #10]
 289              		.loc 1 358 0
 290 0004 0489     		ldrh	r4, [r0, #8]
 291              		.loc 1 361 0
 292 0006 0022     		movs	r2, #0
 293              		.loc 1 358 0
 294 0008 24F00104 		bic	r4, r4, #1
 295              		.loc 1 359 0
 296 000c 21F00101 		bic	r1, r1, #1
 297              		.loc 1 358 0
 298 0010 0481     		strh	r4, [r0, #8]	@ movhi
 299              		.loc 1 361 0
 300 0012 0261     		str	r2, [r0, #16]
 301              		.loc 1 359 0
 302 0014 4181     		strh	r1, [r0, #10]	@ movhi
 303              	.LVL24:
 304              		.loc 1 361 0
 305 0016 4261     		str	r2, [r0, #20]
 306              	.LVL25:
 307 0018 8261     		str	r2, [r0, #24]
 308              	.LVL26:
 309              		.loc 1 365 0
 310 001a 5DF8044B 		ldr	r4, [sp], #4
 311              		.cfi_restore 4
 312              		.cfi_def_cfa_offset 0
 313              		.loc 1 364 0
 314 001e FFF7FEBF 		b	usb_lld_disable_endpoints
 315              	.LVL27:
 316              		.cfi_endproc
 317              	.LFE125:
 318              		.size	usbDisableEndpointsI, .-usbDisableEndpointsI
 319 0022 00BF     		.section	.text.usbPrepareReceive,"ax",%progbits
 320              		.align	2
 321              		.p2align 4,,15
 322              		.global	usbPrepareReceive
 323              		.thumb
 324              		.thumb_func
 325              		.type	usbPrepareReceive, %function
 326              	usbPrepareReceive:
 327              	.LFB126:
 328              		.loc 1 379 0
 329              		.cfi_startproc
 330              		@ args = 0, pretend = 0, frame = 0
 331              		@ frame_needed = 0, uses_anonymous_args = 0
 332              		@ link register save eliminated.
 333              	.LVL28:
 334 0000 30B4     		push	{r4, r5}
 335              		.cfi_def_cfa_offset 8
 336              		.cfi_offset 4, -8
 337              		.cfi_offset 5, -4
 338              		.loc 1 380 0
 339 0002 00EB8104 		add	r4, r0, r1, lsl #2
 340              		.loc 1 382 0
 341 0006 0025     		movs	r5, #0
 342              		.loc 1 380 0
ARM GAS  C:\Users\srich\AppData\Local\Temp\ccxnQ9mK.s 			page 7


 343 0008 E468     		ldr	r4, [r4, #12]
 344 000a A469     		ldr	r4, [r4, #24]
 345              	.LVL29:
 346              		.loc 1 383 0
 347 000c E260     		str	r2, [r4, #12]
 348              		.loc 1 384 0
 349 000e 6360     		str	r3, [r4, #4]
 350              		.loc 1 382 0
 351 0010 2570     		strb	r5, [r4]
 352              		.loc 1 385 0
 353 0012 A560     		str	r5, [r4, #8]
 354              		.loc 1 388 0
 355 0014 30BC     		pop	{r4, r5}
 356              		.cfi_restore 5
 357              		.cfi_restore 4
 358              		.cfi_def_cfa_offset 0
 359              	.LVL30:
 360              		.loc 1 387 0
 361 0016 FFF7FEBF 		b	usb_lld_prepare_receive
 362              	.LVL31:
 363              		.cfi_endproc
 364              	.LFE126:
 365              		.size	usbPrepareReceive, .-usbPrepareReceive
 366 001a 00BF     		.section	.text.usbPrepareTransmit,"ax",%progbits
 367              		.align	2
 368              		.p2align 4,,15
 369              		.global	usbPrepareTransmit
 370              		.thumb
 371              		.thumb_func
 372              		.type	usbPrepareTransmit, %function
 373              	usbPrepareTransmit:
 374              	.LFB127:
 375              		.loc 1 405 0
 376              		.cfi_startproc
 377              		@ args = 0, pretend = 0, frame = 0
 378              		@ frame_needed = 0, uses_anonymous_args = 0
 379              		@ link register save eliminated.
 380              	.LVL32:
 381 0000 30B4     		push	{r4, r5}
 382              		.cfi_def_cfa_offset 8
 383              		.cfi_offset 4, -8
 384              		.cfi_offset 5, -4
 385              		.loc 1 406 0
 386 0002 00EB8104 		add	r4, r0, r1, lsl #2
 387              		.loc 1 408 0
 388 0006 0025     		movs	r5, #0
 389              		.loc 1 406 0
 390 0008 E468     		ldr	r4, [r4, #12]
 391 000a 6469     		ldr	r4, [r4, #20]
 392              	.LVL33:
 393              		.loc 1 409 0
 394 000c E260     		str	r2, [r4, #12]
 395              		.loc 1 410 0
 396 000e 6360     		str	r3, [r4, #4]
 397              		.loc 1 408 0
 398 0010 2570     		strb	r5, [r4]
 399              		.loc 1 411 0
ARM GAS  C:\Users\srich\AppData\Local\Temp\ccxnQ9mK.s 			page 8


 400 0012 A560     		str	r5, [r4, #8]
 401              		.loc 1 414 0
 402 0014 30BC     		pop	{r4, r5}
 403              		.cfi_restore 5
 404              		.cfi_restore 4
 405              		.cfi_def_cfa_offset 0
 406              	.LVL34:
 407              		.loc 1 413 0
 408 0016 FFF7FEBF 		b	usb_lld_prepare_transmit
 409              	.LVL35:
 410              		.cfi_endproc
 411              	.LFE127:
 412              		.size	usbPrepareTransmit, .-usbPrepareTransmit
 413 001a 00BF     		.section	.text.usbPrepareQueuedReceive,"ax",%progbits
 414              		.align	2
 415              		.p2align 4,,15
 416              		.global	usbPrepareQueuedReceive
 417              		.thumb
 418              		.thumb_func
 419              		.type	usbPrepareQueuedReceive, %function
 420              	usbPrepareQueuedReceive:
 421              	.LFB128:
 422              		.loc 1 434 0
 423              		.cfi_startproc
 424              		@ args = 0, pretend = 0, frame = 0
 425              		@ frame_needed = 0, uses_anonymous_args = 0
 426              		@ link register save eliminated.
 427              	.LVL36:
 428 0000 70B4     		push	{r4, r5, r6}
 429              		.cfi_def_cfa_offset 12
 430              		.cfi_offset 4, -12
 431              		.cfi_offset 5, -8
 432              		.cfi_offset 6, -4
 433              		.loc 1 435 0
 434 0002 00EB8104 		add	r4, r0, r1, lsl #2
 435              		.loc 1 437 0
 436 0006 0126     		movs	r6, #1
 437              		.loc 1 435 0
 438 0008 E468     		ldr	r4, [r4, #12]
 439 000a A469     		ldr	r4, [r4, #24]
 440              	.LVL37:
 441              		.loc 1 440 0
 442 000c 0025     		movs	r5, #0
 443              		.loc 1 438 0
 444 000e E260     		str	r2, [r4, #12]
 445              		.loc 1 439 0
 446 0010 6360     		str	r3, [r4, #4]
 447              		.loc 1 437 0
 448 0012 2670     		strb	r6, [r4]
 449              		.loc 1 440 0
 450 0014 A560     		str	r5, [r4, #8]
 451              		.loc 1 443 0
 452 0016 70BC     		pop	{r4, r5, r6}
 453              		.cfi_restore 6
 454              		.cfi_restore 5
 455              		.cfi_restore 4
 456              		.cfi_def_cfa_offset 0
ARM GAS  C:\Users\srich\AppData\Local\Temp\ccxnQ9mK.s 			page 9


 457              	.LVL38:
 458              		.loc 1 442 0
 459 0018 FFF7FEBF 		b	usb_lld_prepare_receive
 460              	.LVL39:
 461              		.cfi_endproc
 462              	.LFE128:
 463              		.size	usbPrepareQueuedReceive, .-usbPrepareQueuedReceive
 464              		.section	.text.usbPrepareQueuedTransmit,"ax",%progbits
 465              		.align	2
 466              		.p2align 4,,15
 467              		.global	usbPrepareQueuedTransmit
 468              		.thumb
 469              		.thumb_func
 470              		.type	usbPrepareQueuedTransmit, %function
 471              	usbPrepareQueuedTransmit:
 472              	.LFB129:
 473              		.loc 1 460 0
 474              		.cfi_startproc
 475              		@ args = 0, pretend = 0, frame = 0
 476              		@ frame_needed = 0, uses_anonymous_args = 0
 477              		@ link register save eliminated.
 478              	.LVL40:
 479 0000 70B4     		push	{r4, r5, r6}
 480              		.cfi_def_cfa_offset 12
 481              		.cfi_offset 4, -12
 482              		.cfi_offset 5, -8
 483              		.cfi_offset 6, -4
 484              		.loc 1 461 0
 485 0002 00EB8104 		add	r4, r0, r1, lsl #2
 486              		.loc 1 463 0
 487 0006 0126     		movs	r6, #1
 488              		.loc 1 461 0
 489 0008 E468     		ldr	r4, [r4, #12]
 490 000a 6469     		ldr	r4, [r4, #20]
 491              	.LVL41:
 492              		.loc 1 466 0
 493 000c 0025     		movs	r5, #0
 494              		.loc 1 464 0
 495 000e E260     		str	r2, [r4, #12]
 496              		.loc 1 465 0
 497 0010 6360     		str	r3, [r4, #4]
 498              		.loc 1 463 0
 499 0012 2670     		strb	r6, [r4]
 500              		.loc 1 466 0
 501 0014 A560     		str	r5, [r4, #8]
 502              		.loc 1 469 0
 503 0016 70BC     		pop	{r4, r5, r6}
 504              		.cfi_restore 6
 505              		.cfi_restore 5
 506              		.cfi_restore 4
 507              		.cfi_def_cfa_offset 0
 508              	.LVL42:
 509              		.loc 1 468 0
 510 0018 FFF7FEBF 		b	usb_lld_prepare_transmit
 511              	.LVL43:
 512              		.cfi_endproc
 513              	.LFE129:
ARM GAS  C:\Users\srich\AppData\Local\Temp\ccxnQ9mK.s 			page 10


 514              		.size	usbPrepareQueuedTransmit, .-usbPrepareQueuedTransmit
 515              		.section	.text.usbStartReceiveI,"ax",%progbits
 516              		.align	2
 517              		.p2align 4,,15
 518              		.global	usbStartReceiveI
 519              		.thumb
 520              		.thumb_func
 521              		.type	usbStartReceiveI, %function
 522              	usbStartReceiveI:
 523              	.LFB130:
 524              		.loc 1 485 0
 525              		.cfi_startproc
 526              		@ args = 0, pretend = 0, frame = 0
 527              		@ frame_needed = 0, uses_anonymous_args = 0
 528              	.LVL44:
 529 0000 70B5     		push	{r4, r5, r6, lr}
 530              		.cfi_def_cfa_offset 16
 531              		.cfi_offset 4, -16
 532              		.cfi_offset 5, -12
 533              		.cfi_offset 6, -8
 534              		.cfi_offset 14, -4
 535              		.loc 1 490 0
 536 0002 4589     		ldrh	r5, [r0, #10]
 537 0004 45FA01F3 		asr	r3, r5, r1
 538 0008 13F00104 		ands	r4, r3, #1
 539 000c 01D0     		beq	.L32
 540              		.loc 1 491 0
 541 000e 0120     		movs	r0, #1
 542              	.LVL45:
 543              		.loc 1 496 0
 544 0010 70BD     		pop	{r4, r5, r6, pc}
 545              	.LVL46:
 546              	.L32:
 547              		.loc 1 493 0
 548 0012 0123     		movs	r3, #1
 549 0014 8B40     		lsls	r3, r3, r1
 550 0016 1D43     		orrs	r5, r5, r3
 551 0018 4581     		strh	r5, [r0, #10]	@ movhi
 552              		.loc 1 494 0
 553 001a FFF7FEFF 		bl	usb_lld_start_out
 554              	.LVL47:
 555              		.loc 1 495 0
 556 001e 2046     		mov	r0, r4
 557 0020 70BD     		pop	{r4, r5, r6, pc}
 558              		.cfi_endproc
 559              	.LFE130:
 560              		.size	usbStartReceiveI, .-usbStartReceiveI
 561 0022 00BF     		.section	.text.usbStartTransmitI,"ax",%progbits
 562              		.align	2
 563              		.p2align 4,,15
 564              		.global	usbStartTransmitI
 565              		.thumb
 566              		.thumb_func
 567              		.type	usbStartTransmitI, %function
 568              	usbStartTransmitI:
 569              	.LFB131:
 570              		.loc 1 512 0
ARM GAS  C:\Users\srich\AppData\Local\Temp\ccxnQ9mK.s 			page 11


 571              		.cfi_startproc
 572              		@ args = 0, pretend = 0, frame = 0
 573              		@ frame_needed = 0, uses_anonymous_args = 0
 574              	.LVL48:
 575 0000 70B5     		push	{r4, r5, r6, lr}
 576              		.cfi_def_cfa_offset 16
 577              		.cfi_offset 4, -16
 578              		.cfi_offset 5, -12
 579              		.cfi_offset 6, -8
 580              		.cfi_offset 14, -4
 581              		.loc 1 517 0
 582 0002 0589     		ldrh	r5, [r0, #8]
 583 0004 45FA01F3 		asr	r3, r5, r1
 584 0008 13F00104 		ands	r4, r3, #1
 585 000c 01D0     		beq	.L37
 586              		.loc 1 518 0
 587 000e 0120     		movs	r0, #1
 588              	.LVL49:
 589              		.loc 1 523 0
 590 0010 70BD     		pop	{r4, r5, r6, pc}
 591              	.LVL50:
 592              	.L37:
 593              		.loc 1 520 0
 594 0012 0123     		movs	r3, #1
 595 0014 8B40     		lsls	r3, r3, r1
 596 0016 1D43     		orrs	r5, r5, r3
 597 0018 0581     		strh	r5, [r0, #8]	@ movhi
 598              		.loc 1 521 0
 599 001a FFF7FEFF 		bl	usb_lld_start_in
 600              	.LVL51:
 601              		.loc 1 522 0
 602 001e 2046     		mov	r0, r4
 603 0020 70BD     		pop	{r4, r5, r6, pc}
 604              		.cfi_endproc
 605              	.LFE131:
 606              		.size	usbStartTransmitI, .-usbStartTransmitI
 607 0022 00BF     		.section	.text.usbStallReceiveI,"ax",%progbits
 608              		.align	2
 609              		.p2align 4,,15
 610              		.global	usbStallReceiveI
 611              		.thumb
 612              		.thumb_func
 613              		.type	usbStallReceiveI, %function
 614              	usbStallReceiveI:
 615              	.LFB132:
 616              		.loc 1 537 0
 617              		.cfi_startproc
 618              		@ args = 0, pretend = 0, frame = 0
 619              		@ frame_needed = 0, uses_anonymous_args = 0
 620              	.LVL52:
 621              		.loc 1 542 0
 622 0000 4389     		ldrh	r3, [r0, #10]
 623 0002 0B41     		asrs	r3, r3, r1
 624              		.loc 1 537 0
 625 0004 10B5     		push	{r4, lr}
 626              		.cfi_def_cfa_offset 8
 627              		.cfi_offset 4, -8
ARM GAS  C:\Users\srich\AppData\Local\Temp\ccxnQ9mK.s 			page 12


 628              		.cfi_offset 14, -4
 629              		.loc 1 542 0
 630 0006 13F00104 		ands	r4, r3, #1
 631 000a 01D0     		beq	.L42
 632              		.loc 1 543 0
 633 000c 0120     		movs	r0, #1
 634              	.LVL53:
 635              		.loc 1 547 0
 636 000e 10BD     		pop	{r4, pc}
 637              	.LVL54:
 638              	.L42:
 639              		.loc 1 545 0
 640 0010 FFF7FEFF 		bl	usb_lld_stall_out
 641              	.LVL55:
 642              		.loc 1 546 0
 643 0014 2046     		mov	r0, r4
 644 0016 10BD     		pop	{r4, pc}
 645              		.cfi_endproc
 646              	.LFE132:
 647              		.size	usbStallReceiveI, .-usbStallReceiveI
 648              		.section	.text.usbStallTransmitI,"ax",%progbits
 649              		.align	2
 650              		.p2align 4,,15
 651              		.global	usbStallTransmitI
 652              		.thumb
 653              		.thumb_func
 654              		.type	usbStallTransmitI, %function
 655              	usbStallTransmitI:
 656              	.LFB133:
 657              		.loc 1 561 0
 658              		.cfi_startproc
 659              		@ args = 0, pretend = 0, frame = 0
 660              		@ frame_needed = 0, uses_anonymous_args = 0
 661              	.LVL56:
 662              		.loc 1 566 0
 663 0000 0389     		ldrh	r3, [r0, #8]
 664 0002 0B41     		asrs	r3, r3, r1
 665              		.loc 1 561 0
 666 0004 10B5     		push	{r4, lr}
 667              		.cfi_def_cfa_offset 8
 668              		.cfi_offset 4, -8
 669              		.cfi_offset 14, -4
 670              		.loc 1 566 0
 671 0006 13F00104 		ands	r4, r3, #1
 672 000a 01D0     		beq	.L47
 673              		.loc 1 567 0
 674 000c 0120     		movs	r0, #1
 675              	.LVL57:
 676              		.loc 1 571 0
 677 000e 10BD     		pop	{r4, pc}
 678              	.LVL58:
 679              	.L47:
 680              		.loc 1 569 0
 681 0010 FFF7FEFF 		bl	usb_lld_stall_in
 682              	.LVL59:
 683              		.loc 1 570 0
 684 0014 2046     		mov	r0, r4
ARM GAS  C:\Users\srich\AppData\Local\Temp\ccxnQ9mK.s 			page 13


 685 0016 10BD     		pop	{r4, pc}
 686              		.cfi_endproc
 687              	.LFE133:
 688              		.size	usbStallTransmitI, .-usbStallTransmitI
 689              		.section	.text._usb_reset,"ax",%progbits
 690              		.align	2
 691              		.p2align 4,,15
 692              		.global	_usb_reset
 693              		.thumb
 694              		.thumb_func
 695              		.type	_usb_reset, %function
 696              	_usb_reset:
 697              	.LFB134:
 698              		.loc 1 582 0
 699              		.cfi_startproc
 700              		@ args = 0, pretend = 0, frame = 0
 701              		@ frame_needed = 0, uses_anonymous_args = 0
 702              		@ link register save eliminated.
 703              	.LVL60:
 704              		.loc 1 586 0
 705 0000 0022     		movs	r2, #0
 706              		.loc 1 585 0
 707 0002 0221     		movs	r1, #2
 708 0004 0170     		strb	r1, [r0]
 709              		.loc 1 586 0
 710 0006 A0F84C20 		strh	r2, [r0, #76]	@ movhi
 711              		.loc 1 587 0
 712 000a 80F84E20 		strb	r2, [r0, #78]
 713              		.loc 1 588 0
 714 000e 80F84F20 		strb	r2, [r0, #79]
 715              		.loc 1 589 0
 716 0012 0281     		strh	r2, [r0, #8]	@ movhi
 717              		.loc 1 590 0
 718 0014 4281     		strh	r2, [r0, #10]	@ movhi
 719              	.LVL61:
 720              		.loc 1 594 0
 721 0016 C260     		str	r2, [r0, #12]
 722              	.LVL62:
 723 0018 0261     		str	r2, [r0, #16]
 724              	.LVL63:
 725 001a 4261     		str	r2, [r0, #20]
 726              	.LVL64:
 727 001c 8261     		str	r2, [r0, #24]
 728              	.LVL65:
 729              		.loc 1 597 0
 730 001e 80F83420 		strb	r2, [r0, #52]
 731              		.loc 1 600 0
 732 0022 FFF7FEBF 		b	usb_lld_reset
 733              	.LVL66:
 734              		.cfi_endproc
 735              	.LFE134:
 736              		.size	_usb_reset, .-_usb_reset
 737 0026 00BF     		.section	.text._usb_ep0setup,"ax",%progbits
 738              		.align	2
 739              		.p2align 4,,15
 740              		.global	_usb_ep0setup
 741              		.thumb
ARM GAS  C:\Users\srich\AppData\Local\Temp\ccxnQ9mK.s 			page 14


 742              		.thumb_func
 743              		.type	_usb_ep0setup, %function
 744              	_usb_ep0setup:
 745              	.LFB135:
 746              		.loc 1 613 0
 747              		.cfi_startproc
 748              		@ args = 0, pretend = 0, frame = 0
 749              		@ frame_needed = 0, uses_anonymous_args = 0
 750              	.LVL67:
 751 0000 F8B5     		push	{r3, r4, r5, r6, r7, lr}
 752              		.cfi_def_cfa_offset 24
 753              		.cfi_offset 3, -24
 754              		.cfi_offset 4, -20
 755              		.cfi_offset 5, -16
 756              		.cfi_offset 6, -12
 757              		.cfi_offset 7, -8
 758              		.cfi_offset 14, -4
 759              		.loc 1 616 0
 760 0002 0023     		movs	r3, #0
 761              		.loc 1 613 0
 762 0004 0446     		mov	r4, r0
 763              		.loc 1 616 0
 764 0006 80F83430 		strb	r3, [r0, #52]
 765              		.loc 1 617 0
 766 000a 00F14402 		add	r2, r0, #68
 767 000e FFF7FEFF 		bl	usb_lld_read_setup
 768              	.LVL68:
 769              		.loc 1 621 0
 770 0012 6368     		ldr	r3, [r4, #4]
 771 0014 9B68     		ldr	r3, [r3, #8]
 772 0016 6BB3     		cbz	r3, .L54
 773              		.loc 1 622 0 discriminator 1
 774 0018 2046     		mov	r0, r4
 775 001a 9847     		blx	r3
 776              	.LVL69:
 777              		.loc 1 621 0 discriminator 1
 778 001c 50B3     		cbz	r0, .L54
 779 001e E56B     		ldr	r5, [r4, #60]
 780 0020 94F84430 		ldrb	r3, [r4, #68]	@ zero_extendqisi2
 781              	.L93:
 782              		.loc 1 646 0
 783 0024 94F84B10 		ldrb	r1, [r4, #75]	@ zero_extendqisi2
 784 0028 94F84A20 		ldrb	r2, [r4, #74]	@ zero_extendqisi2
 785 002c 42EA0122 		orr	r2, r2, r1, lsl #8
 786              	.LVL70:
 787              		.loc 1 648 0
 788 0030 AA42     		cmp	r2, r5
 789              		.loc 1 649 0
 790 0032 3CBF     		itt	cc
 791 0034 E263     		strcc	r2, [r4, #60]
 792 0036 1546     		movcc	r5, r2
 793              		.loc 1 650 0
 794 0038 13F0800F 		tst	r3, #128
 795              	.LBB56:
 796              	.LBB57:
 797              		.loc 1 406 0
 798 003c E368     		ldr	r3, [r4, #12]
ARM GAS  C:\Users\srich\AppData\Local\Temp\ccxnQ9mK.s 			page 15


 799              	.LBE57:
 800              	.LBE56:
 801              		.loc 1 650 0
 802 003e 40F08A80 		bne	.L119
 803              		.loc 1 676 0
 804 0042 002D     		cmp	r5, #0
 805 0044 6ED1     		bne	.L120
 806              	.LBB61:
 807              	.LBB62:
 808              		.loc 1 406 0
 809 0046 5B69     		ldr	r3, [r3, #20]
 810              	.LBE62:
 811              	.LBE61:
 812              		.loc 1 687 0
 813 0048 0522     		movs	r2, #5
 814              	.LVL71:
 815 004a 84F83420 		strb	r2, [r4, #52]
 816              	.LVL72:
 817              	.LBB64:
 818              	.LBB63:
 819              		.loc 1 413 0
 820 004e 2046     		mov	r0, r4
 821              		.loc 1 408 0
 822 0050 1D70     		strb	r5, [r3]
 823              	.LVL73:
 824              		.loc 1 409 0
 825 0052 DD60     		str	r5, [r3, #12]
 826              		.loc 1 410 0
 827 0054 5D60     		str	r5, [r3, #4]
 828              		.loc 1 411 0
 829 0056 9D60     		str	r5, [r3, #8]
 830              		.loc 1 413 0
 831 0058 2946     		mov	r1, r5
 832 005a FFF7FEFF 		bl	usb_lld_prepare_transmit
 833              	.LVL74:
 834              	.LBE63:
 835              	.LBE64:
 836              	.LBB65:
 837              		.loc 1 690 0
 838 005e 2023     		movs	r3, #32
 839              	@ 690 "../../../ChibiOS/os/hal/src/usb.c" 1
 840 0060 83F31188 		msr     BASEPRI, r3
 841              	@ 0 "" 2
 842              		.thumb
 843              	.LBE65:
 844              		.loc 1 691 0
 845 0064 2046     		mov	r0, r4
 846 0066 2946     		mov	r1, r5
 847 0068 FFF7FEFF 		bl	usbStartTransmitI
 848              	.LVL75:
 849              	.LBB66:
 850              		.loc 1 692 0
 851 006c 2B46     		mov	r3, r5
 852              	@ 692 "../../../ChibiOS/os/hal/src/usb.c" 1
 853 006e 83F31188 		msr     BASEPRI, r3
 854              	@ 0 "" 2
 855              		.thumb
ARM GAS  C:\Users\srich\AppData\Local\Temp\ccxnQ9mK.s 			page 16


 856 0072 F8BD     		pop	{r3, r4, r5, r6, r7, pc}
 857              	.LVL76:
 858              	.L54:
 859              	.LBE66:
 860              		.loc 1 625 0
 861 0074 94F84430 		ldrb	r3, [r4, #68]	@ zero_extendqisi2
 862 0078 13F06007 		ands	r7, r3, #96
 863 007c 11D0     		beq	.L121
 864              	.L51:
 865              		.loc 1 630 0
 866 007e 2046     		mov	r0, r4
 867 0080 0021     		movs	r1, #0
 868 0082 FFF7FEFF 		bl	usb_lld_stall_in
 869              	.LVL77:
 870              		.loc 1 631 0
 871 0086 2046     		mov	r0, r4
 872 0088 0021     		movs	r1, #0
 873 008a FFF7FEFF 		bl	usb_lld_stall_out
 874              	.LVL78:
 875              		.loc 1 632 0
 876 008e 6368     		ldr	r3, [r4, #4]
 877 0090 1B68     		ldr	r3, [r3]
 878 0092 13B1     		cbz	r3, .L87
 879              		.loc 1 632 0 is_stmt 0 discriminator 1
 880 0094 2046     		mov	r0, r4
 881 0096 0521     		movs	r1, #5
 882 0098 9847     		blx	r3
 883              	.LVL79:
 884              	.L87:
 885              		.loc 1 633 0 is_stmt 1
 886 009a 0623     		movs	r3, #6
 887 009c 84F83430 		strb	r3, [r4, #52]
 888              		.loc 1 634 0
 889 00a0 F8BD     		pop	{r3, r4, r5, r6, r7, pc}
 890              	.LVL80:
 891              	.L121:
 892              	.LBB67:
 893              	.LBB68:
 894              		.loc 1 95 0
 895 00a2 94F84550 		ldrb	r5, [r4, #69]	@ zero_extendqisi2
 896              		.loc 1 93 0
 897 00a6 03F07F02 		and	r2, r3, #127
 898              		.loc 1 94 0
 899 00aa 42EA0526 		orr	r6, r2, r5, lsl #8
 900              		.loc 1 93 0
 901 00ae B6F5407F 		cmp	r6, #768
 902 00b2 00F00381 		beq	.L56
 903 00b6 17DD     		ble	.L122
 904 00b8 B6F5C06F 		cmp	r6, #1536
 905 00bc 00F0E580 		beq	.L64
 906 00c0 7ADD     		ble	.L123
 907 00c2 B6F5106F 		cmp	r6, #2304
 908 00c6 00F08A80 		beq	.L68
 909 00ca 40F60242 		movw	r2, #3074
 910 00ce 9642     		cmp	r6, r2
 911 00d0 00F00781 		beq	.L61
 912 00d4 B6F5006F 		cmp	r6, #2048
ARM GAS  C:\Users\srich\AppData\Local\Temp\ccxnQ9mK.s 			page 17


 913 00d8 D1D1     		bne	.L51
 914              		.loc 1 142 0
 915 00da 04F14F02 		add	r2, r4, #79
 916 00de 0125     		movs	r5, #1
 917 00e0 2764     		str	r7, [r4, #64]
 918 00e2 A263     		str	r2, [r4, #56]
 919 00e4 E563     		str	r5, [r4, #60]
 920 00e6 9DE7     		b	.L93
 921              	.L122:
 922              		.loc 1 93 0
 923 00e8 022E     		cmp	r6, #2
 924 00ea 00F0B780 		beq	.L58
 925 00ee 40F3AC80 		ble	.L124
 926 00f2 B6F5807F 		cmp	r6, #256
 927 00f6 00F09880 		beq	.L62
 928 00fa B6F5817F 		cmp	r6, #258
 929 00fe BED1     		bne	.L51
 930              		.loc 1 188 0
 931 0100 94F84620 		ldrb	r2, [r4, #70]	@ zero_extendqisi2
 932 0104 002A     		cmp	r2, #0
 933 0106 BAD1     		bne	.L51
 934              		.loc 1 191 0
 935 0108 94F84820 		ldrb	r2, [r4, #72]	@ zero_extendqisi2
 936 010c 12F00F01 		ands	r1, r2, #15
 937 0110 60D0     		beq	.L85
 938              		.loc 1 192 0
 939 0112 1206     		lsls	r2, r2, #24
 940              		.loc 1 193 0
 941 0114 2046     		mov	r0, r4
 942              		.loc 1 192 0
 943 0116 00F10C81 		bmi	.L125
 944              	.LVL81:
 945              		.loc 1 195 0
 946 011a FFF7FEFF 		bl	usb_lld_clear_out
 947              	.LVL82:
 948 011e 94F84430 		ldrb	r3, [r4, #68]	@ zero_extendqisi2
 949 0122 57E0     		b	.L85
 950              	.LVL83:
 951              	.L120:
 952              	.LBE68:
 953              	.LBE67:
 954              	.LBB72:
 955              	.LBB73:
 956              		.loc 1 380 0
 957 0124 9B69     		ldr	r3, [r3, #24]
 958              	.LBE73:
 959              	.LBE72:
 960              		.loc 1 679 0
 961 0126 A26B     		ldr	r2, [r4, #56]
 962              	.LVL84:
 963              	.LBB76:
 964              	.LBB74:
 965              		.loc 1 382 0
 966 0128 0026     		movs	r6, #0
 967              	.LBE74:
 968              	.LBE76:
 969              		.loc 1 678 0
ARM GAS  C:\Users\srich\AppData\Local\Temp\ccxnQ9mK.s 			page 18


 970 012a 0421     		movs	r1, #4
 971              	.LVL85:
 972 012c 84F83410 		strb	r1, [r4, #52]
 973              	.LBB77:
 974              	.LBB75:
 975              		.loc 1 387 0
 976 0130 2046     		mov	r0, r4
 977              		.loc 1 383 0
 978 0132 DA60     		str	r2, [r3, #12]
 979              	.LVL86:
 980              		.loc 1 384 0
 981 0134 5D60     		str	r5, [r3, #4]
 982              		.loc 1 382 0
 983 0136 1E70     		strb	r6, [r3]
 984              		.loc 1 385 0
 985 0138 9E60     		str	r6, [r3, #8]
 986              		.loc 1 387 0
 987 013a 3146     		mov	r1, r6
 988 013c FFF7FEFF 		bl	usb_lld_prepare_receive
 989              	.LVL87:
 990              	.LBE75:
 991              	.LBE77:
 992              	.LBB78:
 993              		.loc 1 680 0
 994 0140 2023     		movs	r3, #32
 995              	@ 680 "../../../ChibiOS/os/hal/src/usb.c" 1
 996 0142 83F31188 		msr     BASEPRI, r3
 997              	@ 0 "" 2
 998              		.thumb
 999              	.LBE78:
 1000              		.loc 1 681 0
 1001 0146 2046     		mov	r0, r4
 1002 0148 3146     		mov	r1, r6
 1003 014a FFF7FEFF 		bl	usbStartReceiveI
 1004              	.LVL88:
 1005              	.LBB79:
 1006              		.loc 1 682 0
 1007 014e 3346     		mov	r3, r6
 1008              	@ 682 "../../../ChibiOS/os/hal/src/usb.c" 1
 1009 0150 83F31188 		msr     BASEPRI, r3
 1010              	@ 0 "" 2
 1011              		.thumb
 1012              	.LBE79:
 1013 0154 F8BD     		pop	{r3, r4, r5, r6, r7, pc}
 1014              	.LVL89:
 1015              	.L119:
 1016              		.loc 1 652 0
 1017 0156 C5B1     		cbz	r5, .L91
 1018              	.LBB80:
 1019              	.LBB58:
 1020              		.loc 1 406 0
 1021 0158 5B69     		ldr	r3, [r3, #20]
 1022              	.LBE58:
 1023              	.LBE80:
 1024              		.loc 1 655 0
 1025 015a A26B     		ldr	r2, [r4, #56]
 1026              	.LVL90:
ARM GAS  C:\Users\srich\AppData\Local\Temp\ccxnQ9mK.s 			page 19


 1027              	.LBB81:
 1028              	.LBB59:
 1029              		.loc 1 408 0
 1030 015c 0026     		movs	r6, #0
 1031              	.LBE59:
 1032              	.LBE81:
 1033              		.loc 1 654 0
 1034 015e 0121     		movs	r1, #1
 1035              	.LVL91:
 1036 0160 84F83410 		strb	r1, [r4, #52]
 1037              	.LBB82:
 1038              	.LBB60:
 1039              		.loc 1 413 0
 1040 0164 2046     		mov	r0, r4
 1041              		.loc 1 409 0
 1042 0166 DA60     		str	r2, [r3, #12]
 1043              	.LVL92:
 1044              		.loc 1 410 0
 1045 0168 5D60     		str	r5, [r3, #4]
 1046              		.loc 1 408 0
 1047 016a 1E70     		strb	r6, [r3]
 1048              		.loc 1 411 0
 1049 016c 9E60     		str	r6, [r3, #8]
 1050              		.loc 1 413 0
 1051 016e 3146     		mov	r1, r6
 1052 0170 FFF7FEFF 		bl	usb_lld_prepare_transmit
 1053              	.LVL93:
 1054              	.LBE60:
 1055              	.LBE82:
 1056              	.LBB83:
 1057              		.loc 1 656 0
 1058 0174 2023     		movs	r3, #32
 1059              	@ 656 "../../../ChibiOS/os/hal/src/usb.c" 1
 1060 0176 83F31188 		msr     BASEPRI, r3
 1061              	@ 0 "" 2
 1062              		.thumb
 1063              	.LBE83:
 1064              		.loc 1 657 0
 1065 017a 2046     		mov	r0, r4
 1066 017c 3146     		mov	r1, r6
 1067 017e FFF7FEFF 		bl	usbStartTransmitI
 1068              	.LVL94:
 1069              	.LBB84:
 1070              		.loc 1 658 0
 1071 0182 3346     		mov	r3, r6
 1072              	@ 658 "../../../ChibiOS/os/hal/src/usb.c" 1
 1073 0184 83F31188 		msr     BASEPRI, r3
 1074              	@ 0 "" 2
 1075              		.thumb
 1076              	.LBE84:
 1077 0188 F8BD     		pop	{r3, r4, r5, r6, r7, pc}
 1078              	.LVL95:
 1079              	.L91:
 1080              	.LBB85:
 1081              	.LBB86:
 1082              		.loc 1 380 0
 1083 018a 9B69     		ldr	r3, [r3, #24]
ARM GAS  C:\Users\srich\AppData\Local\Temp\ccxnQ9mK.s 			page 20


 1084              	.LBE86:
 1085              	.LBE85:
 1086              		.loc 1 663 0
 1087 018c 0322     		movs	r2, #3
 1088              	.LVL96:
 1089 018e 84F83420 		strb	r2, [r4, #52]
 1090              	.LVL97:
 1091              	.LBB88:
 1092              	.LBB87:
 1093              		.loc 1 387 0
 1094 0192 2046     		mov	r0, r4
 1095              		.loc 1 382 0
 1096 0194 1D70     		strb	r5, [r3]
 1097              	.LVL98:
 1098              		.loc 1 383 0
 1099 0196 DD60     		str	r5, [r3, #12]
 1100              		.loc 1 384 0
 1101 0198 5D60     		str	r5, [r3, #4]
 1102              		.loc 1 385 0
 1103 019a 9D60     		str	r5, [r3, #8]
 1104              		.loc 1 387 0
 1105 019c 2946     		mov	r1, r5
 1106 019e FFF7FEFF 		bl	usb_lld_prepare_receive
 1107              	.LVL99:
 1108              	.LBE87:
 1109              	.LBE88:
 1110              	.LBB89:
 1111              		.loc 1 666 0
 1112 01a2 2023     		movs	r3, #32
 1113              	@ 666 "../../../ChibiOS/os/hal/src/usb.c" 1
 1114 01a4 83F31188 		msr     BASEPRI, r3
 1115              	@ 0 "" 2
 1116              		.thumb
 1117              	.LBE89:
 1118              		.loc 1 667 0
 1119 01a8 2046     		mov	r0, r4
 1120 01aa 2946     		mov	r1, r5
 1121 01ac FFF7FEFF 		bl	usbStartReceiveI
 1122              	.LVL100:
 1123              	.LBB90:
 1124              		.loc 1 668 0
 1125 01b0 2B46     		mov	r3, r5
 1126              	@ 668 "../../../ChibiOS/os/hal/src/usb.c" 1
 1127 01b2 83F31188 		msr     BASEPRI, r3
 1128              	@ 0 "" 2
 1129              		.thumb
 1130 01b6 F8BD     		pop	{r3, r4, r5, r6, r7, pc}
 1131              	.LVL101:
 1132              	.L123:
 1133              	.LBE90:
 1134              	.LBB91:
 1135              	.LBB71:
 1136              		.loc 1 93 0
 1137 01b8 40F20232 		movw	r2, #770
 1138 01bc 9642     		cmp	r6, r2
 1139 01be 21D0     		beq	.L66
 1140 01c0 B6F5A06F 		cmp	r6, #1280
ARM GAS  C:\Users\srich\AppData\Local\Temp\ccxnQ9mK.s 			page 21


 1141 01c4 7FF45BAF 		bne	.L51
 1142              		.loc 1 123 0
 1143 01c8 B4F84420 		ldrh	r2, [r4, #68]
 1144 01cc B2F5A06F 		cmp	r2, #1280
 1145 01d0 00F09D80 		beq	.L126
 1146              	.L85:
 1147              		.loc 1 210 0
 1148 01d4 0025     		movs	r5, #0
 1149 01d6 A563     		str	r5, [r4, #56]
 1150 01d8 E563     		str	r5, [r4, #60]
 1151 01da 2564     		str	r5, [r4, #64]
 1152 01dc 22E7     		b	.L93
 1153              	.L68:
 1154              		.loc 1 146 0
 1155 01de 94F84620 		ldrb	r2, [r4, #70]	@ zero_extendqisi2
 1156 01e2 84F84F20 		strb	r2, [r4, #79]
 1157              		.loc 1 147 0
 1158 01e6 002A     		cmp	r2, #0
 1159 01e8 40F08280 		bne	.L75
 1160              		.loc 1 148 0
 1161 01ec 0322     		movs	r2, #3
 1162 01ee 2270     		strb	r2, [r4]
 1163              	.L76:
 1164              		.loc 1 151 0
 1165 01f0 6268     		ldr	r2, [r4, #4]
 1166 01f2 1268     		ldr	r2, [r2]
 1167 01f4 002A     		cmp	r2, #0
 1168 01f6 EDD0     		beq	.L85
 1169 01f8 2046     		mov	r0, r4
 1170 01fa 0221     		movs	r1, #2
 1171 01fc 9047     		blx	r2
 1172              	.LVL102:
 1173 01fe 94F84430 		ldrb	r3, [r4, #68]	@ zero_extendqisi2
 1174 0202 E7E7     		b	.L85
 1175              	.L66:
 1176              		.loc 1 201 0
 1177 0204 94F84620 		ldrb	r2, [r4, #70]	@ zero_extendqisi2
 1178 0208 002A     		cmp	r2, #0
 1179 020a 7FF438AF 		bne	.L51
 1180              		.loc 1 204 0
 1181 020e 94F84820 		ldrb	r2, [r4, #72]	@ zero_extendqisi2
 1182 0212 12F00F01 		ands	r1, r2, #15
 1183 0216 DDD0     		beq	.L85
 1184              		.loc 1 205 0
 1185 0218 1306     		lsls	r3, r2, #24
 1186              		.loc 1 206 0
 1187 021a 2046     		mov	r0, r4
 1188              		.loc 1 205 0
 1189 021c 00F18E80 		bmi	.L127
 1190              	.LVL103:
 1191              		.loc 1 208 0
 1192 0220 FFF7FEFF 		bl	usb_lld_stall_out
 1193              	.LVL104:
 1194 0224 94F84430 		ldrb	r3, [r4, #68]	@ zero_extendqisi2
 1195 0228 D4E7     		b	.L85
 1196              	.L62:
 1197              		.loc 1 103 0
ARM GAS  C:\Users\srich\AppData\Local\Temp\ccxnQ9mK.s 			page 22


 1198 022a 94F84620 		ldrb	r2, [r4, #70]	@ zero_extendqisi2
 1199 022e 012A     		cmp	r2, #1
 1200 0230 7FF425AF 		bne	.L51
 1201              		.loc 1 104 0
 1202 0234 B4F84C20 		ldrh	r2, [r4, #76]
 1203              		.loc 1 105 0
 1204 0238 A763     		str	r7, [r4, #56]
 1205              		.loc 1 104 0
 1206 023a 22F00202 		bic	r2, r2, #2
 1207              		.loc 1 105 0
 1208 023e E763     		str	r7, [r4, #60]
 1209 0240 2764     		str	r7, [r4, #64]
 1210 0242 3D46     		mov	r5, r7
 1211              		.loc 1 104 0
 1212 0244 A4F84C20 		strh	r2, [r4, #76]	@ movhi
 1213 0248 ECE6     		b	.L93
 1214              	.L124:
 1215              		.loc 1 93 0
 1216 024a 002E     		cmp	r6, #0
 1217 024c 46D1     		bne	.L128
 1218              		.loc 1 98 0
 1219 024e 04F14C02 		add	r2, r4, #76
 1220 0252 0225     		movs	r5, #2
 1221 0254 2664     		str	r6, [r4, #64]
 1222 0256 A263     		str	r2, [r4, #56]
 1223 0258 E563     		str	r5, [r4, #60]
 1224 025a E3E6     		b	.L93
 1225              	.L58:
 1226              		.loc 1 162 0
 1227 025c 94F84810 		ldrb	r1, [r4, #72]	@ zero_extendqisi2
 1228 0260 11F0800F 		tst	r1, #128
 1229              		.loc 1 163 0
 1230 0264 2046     		mov	r0, r4
 1231 0266 01F00F01 		and	r1, r1, #15
 1232              		.loc 1 162 0
 1233 026a 44D1     		bne	.L129
 1234              	.LVL105:
 1235              		.loc 1 175 0
 1236 026c FFF7FEFF 		bl	usb_lld_get_status_out
 1237              	.LVL106:
 1238 0270 0128     		cmp	r0, #1
 1239 0272 44D0     		beq	.L81
 1240              	.L117:
 1241 0274 0228     		cmp	r0, #2
 1242 0276 7FF402AF 		bne	.L51
 1243              		.loc 1 180 0
 1244 027a 334B     		ldr	r3, .L130
 1245 027c A363     		str	r3, [r4, #56]
 1246 027e E063     		str	r0, [r4, #60]
 1247 0280 2764     		str	r7, [r4, #64]
 1248 0282 0546     		mov	r5, r0
 1249 0284 94F84430 		ldrb	r3, [r4, #68]	@ zero_extendqisi2
 1250 0288 CCE6     		b	.L93
 1251              	.L64:
 1252              		.loc 1 133 0
 1253 028a 6268     		ldr	r2, [r4, #4]
 1254              		.loc 1 135 0
ARM GAS  C:\Users\srich\AppData\Local\Temp\ccxnQ9mK.s 			page 23


 1255 028c 94F84900 		ldrb	r0, [r4, #73]	@ zero_extendqisi2
 1256              		.loc 1 133 0
 1257 0290 94F84830 		ldrb	r3, [r4, #72]	@ zero_extendqisi2
 1258 0294 5568     		ldr	r5, [r2, #4]
 1259 0296 94F84710 		ldrb	r1, [r4, #71]	@ zero_extendqisi2
 1260 029a 94F84620 		ldrb	r2, [r4, #70]	@ zero_extendqisi2
 1261 029e 43EA0023 		orr	r3, r3, r0, lsl #8
 1262 02a2 2046     		mov	r0, r4
 1263 02a4 A847     		blx	r5
 1264              	.LVL107:
 1265              		.loc 1 136 0
 1266 02a6 0028     		cmp	r0, #0
 1267 02a8 3FF4E9AE 		beq	.L51
 1268              		.loc 1 138 0
 1269 02ac 4368     		ldr	r3, [r0, #4]
 1270 02ae 0568     		ldr	r5, [r0]
 1271 02b0 E563     		str	r5, [r4, #60]
 1272 02b2 A363     		str	r3, [r4, #56]
 1273 02b4 2764     		str	r7, [r4, #64]
 1274 02b6 94F84430 		ldrb	r3, [r4, #68]	@ zero_extendqisi2
 1275 02ba B3E6     		b	.L93
 1276              	.LVL108:
 1277              	.L56:
 1278              		.loc 1 112 0
 1279 02bc 94F84620 		ldrb	r2, [r4, #70]	@ zero_extendqisi2
 1280 02c0 012A     		cmp	r2, #1
 1281 02c2 7FF4DCAE 		bne	.L51
 1282              		.loc 1 113 0
 1283 02c6 B4F84C20 		ldrh	r2, [r4, #76]
 1284              		.loc 1 114 0
 1285 02ca A763     		str	r7, [r4, #56]
 1286              		.loc 1 113 0
 1287 02cc 42F00202 		orr	r2, r2, #2
 1288              		.loc 1 114 0
 1289 02d0 E763     		str	r7, [r4, #60]
 1290 02d2 2764     		str	r7, [r4, #64]
 1291 02d4 3D46     		mov	r5, r7
 1292              		.loc 1 113 0
 1293 02d6 A4F84C20 		strh	r2, [r4, #76]	@ movhi
 1294 02da A3E6     		b	.L93
 1295              	.L128:
 1296              		.loc 1 93 0
 1297 02dc 012E     		cmp	r6, #1
 1298 02de 7FF4CEAE 		bne	.L51
 1299              	.L61:
 1300              		.loc 1 158 0
 1301 02e2 1A4A     		ldr	r2, .L130+4
 1302 02e4 A263     		str	r2, [r4, #56]
 1303 02e6 0225     		movs	r5, #2
 1304 02e8 0022     		movs	r2, #0
 1305 02ea E563     		str	r5, [r4, #60]
 1306 02ec 2264     		str	r2, [r4, #64]
 1307 02ee 99E6     		b	.L93
 1308              	.L75:
 1309              		.loc 1 150 0
 1310 02f0 0422     		movs	r2, #4
 1311 02f2 2270     		strb	r2, [r4]
ARM GAS  C:\Users\srich\AppData\Local\Temp\ccxnQ9mK.s 			page 24


 1312 02f4 7CE7     		b	.L76
 1313              	.LVL109:
 1314              	.L129:
 1315              		.loc 1 163 0
 1316 02f6 FFF7FEFF 		bl	usb_lld_get_status_in
 1317              	.LVL110:
 1318 02fa 0128     		cmp	r0, #1
 1319 02fc BAD1     		bne	.L117
 1320              	.L81:
 1321              		.loc 1 177 0
 1322 02fe 144B     		ldr	r3, .L130+8
 1323 0300 A363     		str	r3, [r4, #56]
 1324 0302 E663     		str	r6, [r4, #60]
 1325 0304 2764     		str	r7, [r4, #64]
 1326 0306 3546     		mov	r5, r6
 1327 0308 94F84430 		ldrb	r3, [r4, #68]	@ zero_extendqisi2
 1328 030c 8AE6     		b	.L93
 1329              	.L126:
 1330              	.LVL111:
 1331              	.LBB69:
 1332              	.LBB70:
 1333              		.loc 1 71 0
 1334 030e 94F84630 		ldrb	r3, [r4, #70]	@ zero_extendqisi2
 1335 0312 84F84E30 		strb	r3, [r4, #78]
 1336              		.loc 1 72 0
 1337 0316 2046     		mov	r0, r4
 1338 0318 FFF7FEFF 		bl	usb_lld_set_address
 1339              	.LVL112:
 1340              		.loc 1 73 0
 1341 031c 6368     		ldr	r3, [r4, #4]
 1342 031e 1B68     		ldr	r3, [r3]
 1343 0320 13B1     		cbz	r3, .L74
 1344 0322 2046     		mov	r0, r4
 1345 0324 0121     		movs	r1, #1
 1346 0326 9847     		blx	r3
 1347              	.LVL113:
 1348              	.L74:
 1349              		.loc 1 74 0
 1350 0328 0322     		movs	r2, #3
 1351 032a 94F84430 		ldrb	r3, [r4, #68]	@ zero_extendqisi2
 1352 032e 2270     		strb	r2, [r4]
 1353 0330 50E7     		b	.L85
 1354              	.LVL114:
 1355              	.L125:
 1356              	.LBE70:
 1357              	.LBE69:
 1358              		.loc 1 193 0
 1359 0332 FFF7FEFF 		bl	usb_lld_clear_in
 1360              	.LVL115:
 1361 0336 94F84430 		ldrb	r3, [r4, #68]	@ zero_extendqisi2
 1362 033a 4BE7     		b	.L85
 1363              	.LVL116:
 1364              	.L127:
 1365              		.loc 1 206 0
 1366 033c FFF7FEFF 		bl	usb_lld_stall_in
 1367              	.LVL117:
 1368 0340 94F84430 		ldrb	r3, [r4, #68]	@ zero_extendqisi2
ARM GAS  C:\Users\srich\AppData\Local\Temp\ccxnQ9mK.s 			page 25


 1369 0344 46E7     		b	.L85
 1370              	.L131:
 1371 0346 00BF     		.align	2
 1372              	.L130:
 1373 0348 00000000 		.word	.LANCHOR2
 1374 034c 00000000 		.word	.LANCHOR0
 1375 0350 00000000 		.word	.LANCHOR1
 1376              	.LBE71:
 1377              	.LBE91:
 1378              		.cfi_endproc
 1379              	.LFE135:
 1380              		.size	_usb_ep0setup, .-_usb_ep0setup
 1381              		.section	.text._usb_ep0in,"ax",%progbits
 1382              		.align	2
 1383              		.p2align 4,,15
 1384              		.global	_usb_ep0in
 1385              		.thumb
 1386              		.thumb_func
 1387              		.type	_usb_ep0in, %function
 1388              	_usb_ep0in:
 1389              	.LFB136:
 1390              		.loc 1 710 0
 1391              		.cfi_startproc
 1392              		@ args = 0, pretend = 0, frame = 0
 1393              		@ frame_needed = 0, uses_anonymous_args = 0
 1394              	.LVL118:
 1395 0000 38B5     		push	{r3, r4, r5, lr}
 1396              		.cfi_def_cfa_offset 16
 1397              		.cfi_offset 3, -16
 1398              		.cfi_offset 4, -12
 1399              		.cfi_offset 5, -8
 1400              		.cfi_offset 14, -4
 1401              		.loc 1 714 0
 1402 0002 90F83430 		ldrb	r3, [r0, #52]	@ zero_extendqisi2
 1403 0006 022B     		cmp	r3, #2
 1404              		.loc 1 710 0
 1405 0008 0446     		mov	r4, r0
 1406              		.loc 1 714 0
 1407 000a 43D0     		beq	.L134
 1408 000c 052B     		cmp	r3, #5
 1409 000e 3AD0     		beq	.L135
 1410 0010 012B     		cmp	r3, #1
 1411 0012 10D0     		beq	.L150
 1412              		.loc 1 753 0
 1413 0014 0021     		movs	r1, #0
 1414              	.LVL119:
 1415 0016 FFF7FEFF 		bl	usb_lld_stall_in
 1416              	.LVL120:
 1417              		.loc 1 754 0
 1418 001a 2046     		mov	r0, r4
 1419 001c 0021     		movs	r1, #0
 1420 001e FFF7FEFF 		bl	usb_lld_stall_out
 1421              	.LVL121:
 1422              		.loc 1 755 0
 1423 0022 6368     		ldr	r3, [r4, #4]
 1424 0024 1B68     		ldr	r3, [r3]
 1425 0026 13B1     		cbz	r3, .L141
ARM GAS  C:\Users\srich\AppData\Local\Temp\ccxnQ9mK.s 			page 26


 1426              		.loc 1 755 0 is_stmt 0 discriminator 1
 1427 0028 2046     		mov	r0, r4
 1428 002a 0521     		movs	r1, #5
 1429 002c 9847     		blx	r3
 1430              	.LVL122:
 1431              	.L141:
 1432              		.loc 1 756 0 is_stmt 1
 1433 002e 0623     		movs	r3, #6
 1434 0030 84F83430 		strb	r3, [r4, #52]
 1435 0034 38BD     		pop	{r3, r4, r5, pc}
 1436              	.LVL123:
 1437              	.L150:
 1438              		.loc 1 716 0
 1439 0036 90F84B30 		ldrb	r3, [r0, #75]	@ zero_extendqisi2
 1440 003a 90F84A20 		ldrb	r2, [r0, #74]	@ zero_extendqisi2
 1441              		.loc 1 720 0
 1442 003e C16B     		ldr	r1, [r0, #60]
 1443              	.LVL124:
 1444              		.loc 1 716 0
 1445 0040 42EA0322 		orr	r2, r2, r3, lsl #8
 1446              		.loc 1 720 0
 1447 0044 8A42     		cmp	r2, r1
 1448 0046 C268     		ldr	r2, [r0, #12]
 1449 0048 05D9     		bls	.L138
 1450              		.loc 1 720 0 is_stmt 0 discriminator 1
 1451 004a 158A     		ldrh	r5, [r2, #16]
 1452 004c B1FBF5F3 		udiv	r3, r1, r5
 1453 0050 05FB1315 		mls	r5, r5, r3, r1
 1454 0054 05B3     		cbz	r5, .L151
 1455              	.LVL125:
 1456              	.L138:
 1457              	.LBB92:
 1458              	.LBB93:
 1459              		.loc 1 380 0 is_stmt 1
 1460 0056 9369     		ldr	r3, [r2, #24]
 1461              		.loc 1 382 0
 1462 0058 0025     		movs	r5, #0
 1463              	.LBE93:
 1464              	.LBE92:
 1465              		.loc 1 731 0
 1466 005a 0322     		movs	r2, #3
 1467 005c 84F83420 		strb	r2, [r4, #52]
 1468              	.LVL126:
 1469              	.LBB95:
 1470              	.LBB94:
 1471              		.loc 1 387 0
 1472 0060 2946     		mov	r1, r5
 1473              		.loc 1 382 0
 1474 0062 1D70     		strb	r5, [r3]
 1475              		.loc 1 383 0
 1476 0064 DD60     		str	r5, [r3, #12]
 1477              		.loc 1 384 0
 1478 0066 5D60     		str	r5, [r3, #4]
 1479              		.loc 1 385 0
 1480 0068 9D60     		str	r5, [r3, #8]
 1481              		.loc 1 387 0
 1482 006a 2046     		mov	r0, r4
ARM GAS  C:\Users\srich\AppData\Local\Temp\ccxnQ9mK.s 			page 27


 1483              	.LVL127:
 1484 006c FFF7FEFF 		bl	usb_lld_prepare_receive
 1485              	.LVL128:
 1486              	.LBE94:
 1487              	.LBE95:
 1488              	.LBB96:
 1489              		.loc 1 734 0
 1490 0070 2023     		movs	r3, #32
 1491              	@ 734 "../../../ChibiOS/os/hal/src/usb.c" 1
 1492 0072 83F31188 		msr     BASEPRI, r3
 1493              	@ 0 "" 2
 1494              		.thumb
 1495              	.LBE96:
 1496              		.loc 1 735 0
 1497 0076 2046     		mov	r0, r4
 1498 0078 2946     		mov	r1, r5
 1499 007a FFF7FEFF 		bl	usbStartReceiveI
 1500              	.LVL129:
 1501              	.LBB97:
 1502              		.loc 1 736 0
 1503 007e 2B46     		mov	r3, r5
 1504              	@ 736 "../../../ChibiOS/os/hal/src/usb.c" 1
 1505 0080 83F31188 		msr     BASEPRI, r3
 1506              	@ 0 "" 2
 1507              		.thumb
 1508              	.LBE97:
 1509              		.loc 1 740 0
 1510 0084 38BD     		pop	{r3, r4, r5, pc}
 1511              	.LVL130:
 1512              	.L135:
 1513              		.loc 1 743 0
 1514 0086 036C     		ldr	r3, [r0, #64]
 1515 0088 03B1     		cbz	r3, .L140
 1516              		.loc 1 744 0
 1517 008a 9847     		blx	r3
 1518              	.LVL131:
 1519              	.L140:
 1520              		.loc 1 745 0
 1521 008c 0023     		movs	r3, #0
 1522 008e 84F83430 		strb	r3, [r4, #52]
 1523              		.loc 1 746 0
 1524 0092 38BD     		pop	{r3, r4, r5, pc}
 1525              	.LVL132:
 1526              	.L134:
 1527 0094 C268     		ldr	r2, [r0, #12]
 1528 0096 DEE7     		b	.L138
 1529              	.LVL133:
 1530              	.L151:
 1531              	.LBB98:
 1532              	.LBB99:
 1533              		.loc 1 406 0
 1534 0098 5369     		ldr	r3, [r2, #20]
 1535              	.LVL134:
 1536              		.loc 1 413 0
 1537 009a 2946     		mov	r1, r5
 1538              		.loc 1 408 0
 1539 009c 1D70     		strb	r5, [r3]
ARM GAS  C:\Users\srich\AppData\Local\Temp\ccxnQ9mK.s 			page 28


 1540              	.LVL135:
 1541              		.loc 1 409 0
 1542 009e DD60     		str	r5, [r3, #12]
 1543              		.loc 1 410 0
 1544 00a0 5D60     		str	r5, [r3, #4]
 1545              		.loc 1 411 0
 1546 00a2 9D60     		str	r5, [r3, #8]
 1547              		.loc 1 413 0
 1548 00a4 FFF7FEFF 		bl	usb_lld_prepare_transmit
 1549              	.LVL136:
 1550              	.LBE99:
 1551              	.LBE98:
 1552              	.LBB100:
 1553              		.loc 1 722 0
 1554 00a8 2023     		movs	r3, #32
 1555              	@ 722 "../../../ChibiOS/os/hal/src/usb.c" 1
 1556 00aa 83F31188 		msr     BASEPRI, r3
 1557              	@ 0 "" 2
 1558              		.thumb
 1559              	.LBE100:
 1560              		.loc 1 723 0
 1561 00ae 2046     		mov	r0, r4
 1562 00b0 2946     		mov	r1, r5
 1563 00b2 FFF7FEFF 		bl	usbStartTransmitI
 1564              	.LVL137:
 1565              	.LBB101:
 1566              		.loc 1 724 0
 1567 00b6 2B46     		mov	r3, r5
 1568              	@ 724 "../../../ChibiOS/os/hal/src/usb.c" 1
 1569 00b8 83F31188 		msr     BASEPRI, r3
 1570              	@ 0 "" 2
 1571              		.thumb
 1572              	.LBE101:
 1573              		.loc 1 725 0
 1574 00bc 0223     		movs	r3, #2
 1575 00be 84F83430 		strb	r3, [r4, #52]
 1576              		.loc 1 726 0
 1577 00c2 38BD     		pop	{r3, r4, r5, pc}
 1578              		.cfi_endproc
 1579              	.LFE136:
 1580              		.size	_usb_ep0in, .-_usb_ep0in
 1581              		.section	.text._usb_ep0out,"ax",%progbits
 1582              		.align	2
 1583              		.p2align 4,,15
 1584              		.global	_usb_ep0out
 1585              		.thumb
 1586              		.thumb_func
 1587              		.type	_usb_ep0out, %function
 1588              	_usb_ep0out:
 1589              	.LFB137:
 1590              		.loc 1 769 0
 1591              		.cfi_startproc
 1592              		@ args = 0, pretend = 0, frame = 0
 1593              		@ frame_needed = 0, uses_anonymous_args = 0
 1594              	.LVL138:
 1595 0000 38B5     		push	{r3, r4, r5, lr}
 1596              		.cfi_def_cfa_offset 16
ARM GAS  C:\Users\srich\AppData\Local\Temp\ccxnQ9mK.s 			page 29


 1597              		.cfi_offset 3, -16
 1598              		.cfi_offset 4, -12
 1599              		.cfi_offset 5, -8
 1600              		.cfi_offset 14, -4
 1601              		.loc 1 772 0
 1602 0002 90F83430 		ldrb	r3, [r0, #52]	@ zero_extendqisi2
 1603 0006 032B     		cmp	r3, #3
 1604              		.loc 1 769 0
 1605 0008 0446     		mov	r4, r0
 1606              		.loc 1 772 0
 1607 000a 2BD0     		beq	.L154
 1608 000c 042B     		cmp	r3, #4
 1609 000e 11D0     		beq	.L166
 1610              	.L153:
 1611              		.loc 1 802 0
 1612 0010 2046     		mov	r0, r4
 1613              	.LVL139:
 1614 0012 0021     		movs	r1, #0
 1615              	.LVL140:
 1616 0014 FFF7FEFF 		bl	usb_lld_stall_in
 1617              	.LVL141:
 1618              		.loc 1 803 0
 1619 0018 2046     		mov	r0, r4
 1620 001a 0021     		movs	r1, #0
 1621 001c FFF7FEFF 		bl	usb_lld_stall_out
 1622              	.LVL142:
 1623              		.loc 1 804 0
 1624 0020 6368     		ldr	r3, [r4, #4]
 1625 0022 1B68     		ldr	r3, [r3]
 1626 0024 13B1     		cbz	r3, .L158
 1627              		.loc 1 804 0 is_stmt 0 discriminator 1
 1628 0026 2046     		mov	r0, r4
 1629 0028 0521     		movs	r1, #5
 1630 002a 9847     		blx	r3
 1631              	.LVL143:
 1632              	.L158:
 1633              		.loc 1 805 0 is_stmt 1
 1634 002c 0623     		movs	r3, #6
 1635 002e 84F83430 		strb	r3, [r4, #52]
 1636 0032 38BD     		pop	{r3, r4, r5, pc}
 1637              	.LVL144:
 1638              	.L166:
 1639              	.LBB102:
 1640              	.LBB103:
 1641              		.loc 1 406 0
 1642 0034 C368     		ldr	r3, [r0, #12]
 1643 0036 5B69     		ldr	r3, [r3, #20]
 1644              		.loc 1 408 0
 1645 0038 0025     		movs	r5, #0
 1646              	.LBE103:
 1647              	.LBE102:
 1648              		.loc 1 775 0
 1649 003a 0522     		movs	r2, #5
 1650 003c 80F83420 		strb	r2, [r0, #52]
 1651              	.LVL145:
 1652              	.LBB105:
 1653              	.LBB104:
ARM GAS  C:\Users\srich\AppData\Local\Temp\ccxnQ9mK.s 			page 30


 1654              		.loc 1 413 0
 1655 0040 2946     		mov	r1, r5
 1656              	.LVL146:
 1657              		.loc 1 408 0
 1658 0042 1D70     		strb	r5, [r3]
 1659              		.loc 1 409 0
 1660 0044 DD60     		str	r5, [r3, #12]
 1661              		.loc 1 410 0
 1662 0046 5D60     		str	r5, [r3, #4]
 1663              		.loc 1 411 0
 1664 0048 9D60     		str	r5, [r3, #8]
 1665              		.loc 1 413 0
 1666 004a FFF7FEFF 		bl	usb_lld_prepare_transmit
 1667              	.LVL147:
 1668              	.LBE104:
 1669              	.LBE105:
 1670              	.LBB106:
 1671              		.loc 1 778 0
 1672 004e 2023     		movs	r3, #32
 1673              	@ 778 "../../../ChibiOS/os/hal/src/usb.c" 1
 1674 0050 83F31188 		msr     BASEPRI, r3
 1675              	@ 0 "" 2
 1676              		.thumb
 1677              	.LBE106:
 1678              		.loc 1 779 0
 1679 0054 2046     		mov	r0, r4
 1680 0056 2946     		mov	r1, r5
 1681 0058 FFF7FEFF 		bl	usbStartTransmitI
 1682              	.LVL148:
 1683              	.LBB107:
 1684              		.loc 1 780 0
 1685 005c 2B46     		mov	r3, r5
 1686              	@ 780 "../../../ChibiOS/os/hal/src/usb.c" 1
 1687 005e 83F31188 		msr     BASEPRI, r3
 1688              	@ 0 "" 2
 1689              		.thumb
 1690              	.LBE107:
 1691              		.loc 1 784 0
 1692 0062 38BD     		pop	{r3, r4, r5, pc}
 1693              	.LVL149:
 1694              	.L154:
 1695              		.loc 1 789 0
 1696 0064 C368     		ldr	r3, [r0, #12]
 1697 0066 9B69     		ldr	r3, [r3, #24]
 1698 0068 9B68     		ldr	r3, [r3, #8]
 1699 006a 002B     		cmp	r3, #0
 1700 006c D0D1     		bne	.L153
 1701              		.loc 1 792 0
 1702 006e 036C     		ldr	r3, [r0, #64]
 1703 0070 03B1     		cbz	r3, .L157
 1704              		.loc 1 793 0
 1705 0072 9847     		blx	r3
 1706              	.LVL150:
 1707              	.L157:
 1708              		.loc 1 794 0
 1709 0074 0023     		movs	r3, #0
 1710 0076 84F83430 		strb	r3, [r4, #52]
ARM GAS  C:\Users\srich\AppData\Local\Temp\ccxnQ9mK.s 			page 31


 1711              		.loc 1 795 0
 1712 007a 38BD     		pop	{r3, r4, r5, pc}
 1713              		.cfi_endproc
 1714              	.LFE137:
 1715              		.size	_usb_ep0out, .-_usb_ep0out
 1716              		.section	.rodata.zero_status,"a",%progbits
 1717              		.align	2
 1718              		.set	.LANCHOR0,. + 0
 1719              		.type	zero_status, %object
 1720              		.size	zero_status, 2
 1721              	zero_status:
 1722 0000 0000     		.space	2
 1723              		.section	.rodata.active_status,"a",%progbits
 1724              		.align	2
 1725              		.set	.LANCHOR2,. + 0
 1726              		.type	active_status, %object
 1727              		.size	active_status, 2
 1728              	active_status:
 1729 0000 0000     		.space	2
 1730              		.section	.rodata.halted_status,"a",%progbits
 1731              		.align	2
 1732              		.set	.LANCHOR1,. + 0
 1733              		.type	halted_status, %object
 1734              		.size	halted_status, 2
 1735              	halted_status:
 1736 0000 01       		.byte	1
 1737 0001 00       		.byte	0
 1738              		.text
 1739              	.Letext0:
 1740              		.file 2 "c:\\chibistudio\\tools\\gnu tools arm embedded\\4.9 2015q3\\lib\\gcc\\arm-none-eabi\\4.9.
 1741              		.file 3 "c:\\chibistudio\\tools\\gnu tools arm embedded\\4.9 2015q3\\arm-none-eabi\\include\\machi
 1742              		.file 4 "c:\\chibistudio\\tools\\gnu tools arm embedded\\4.9 2015q3\\arm-none-eabi\\include\\sys\\
 1743              		.file 5 "../../../ChibiOS/os/ports/GCC/ARMCMx/chtypes.h"
 1744              		.file 6 "../../../ChibiOS/os/kernel/include/chlists.h"
 1745              		.file 7 "../../../ChibiOS/os/kernel/include/chthreads.h"
 1746              		.file 8 "../../../ChibiOS/os/ports/GCC/ARMCMx/chcore_v7m.h"
 1747              		.file 9 "../../../ChibiOS/os/kernel/include/chmtx.h"
 1748              		.file 10 "../../../ChibiOS/os/kernel/include/chqueues.h"
 1749              		.file 11 "../../../ChibiOS/os/hal/include/usb.h"
 1750              		.file 12 "../../../ChibiOS/os/hal/platforms/STM32/OTGv1/usb_lld.h"
 1751              		.file 13 "../../../ChibiOS/os/hal/platforms/STM32/OTGv1/stm32_otg.h"
 1752              		.file 14 "../../../ChibiOS/os/ports/common/ARMCMx/CMSIS/include/core_cm4.h"