ARM GAS  C:\Users\DNIEL~1\AppData\Local\Temp\cccPEDO0.s 			page 1


   1              		.syntax unified
   2              		.cpu cortex-m4
   3              		.fpu softvfp
   4              		.eabi_attribute 20, 1
   5              		.eabi_attribute 21, 1
   6              		.eabi_attribute 23, 3
   7              		.eabi_attribute 24, 1
   8              		.eabi_attribute 25, 1
   9              		.eabi_attribute 26, 1
  10              		.eabi_attribute 30, 2
  11              		.eabi_attribute 18, 4
  12              		.thumb
  13              		.file	"usb_lld.c"
  20 0000 D8080000 		.text
  20      0200BA02 
  20      00000201 
  20      FB0E0D00 
  20      01010101 
  21              	.Ltext0:
  22              		.cfi_sections	.debug_frame
  23              		.section	.text.usb_lld_pump,"ax",%progbits
  24              		.align	2
  25              		.p2align 4,,15
  26              		.thumb
  27              		.thumb_func
  28              		.type	usb_lld_pump, %function
  29              	usb_lld_pump:
  30              	.LFB136:
  31              		.file 1 "../../../ChibiOS/os/hal/platforms/STM32/OTGv1/usb_lld.c"
  32              		.loc 1 715 0
  33              		.cfi_startproc
  34              		@ args = 0, pretend = 0, frame = 24
  35              		@ frame_needed = 0, uses_anonymous_args = 0
  36              	.LVL0:
  37 0000 2DE9F04F 		push	{r4, r5, r6, r7, r8, r9, sl, fp, lr}
  38              	.LCFI0:
  39              		.cfi_def_cfa_offset 36
  40              		.loc 1 719 0
  41 0004 A54B     		ldr	r3, .L123
  42 0006 A649     		ldr	r1, .L123+4
  43 0008 9A69     		ldr	r2, [r3, #24]
  44              		.loc 1 717 0
  45 000a D0F85080 		ldr	r8, [r0, #80]
  46              		.cfi_offset 14, -4
  47              		.cfi_offset 11, -8
  48              		.cfi_offset 10, -12
  49              		.cfi_offset 9, -16
  50              		.cfi_offset 8, -20
  51              		.cfi_offset 7, -24
  52              		.cfi_offset 6, -28
  53              		.cfi_offset 5, -32
ARM GAS  C:\Users\DNIEL~1\AppData\Local\Temp\cccPEDO0.s 			page 2


  54              		.cfi_offset 4, -36
  55              		.loc 1 719 0
  56 000e 9161     		str	r1, [r2, #24]
  57              		.loc 1 715 0
  58 0010 87B0     		sub	sp, sp, #28
  59              	.LCFI1:
  60              		.cfi_def_cfa_offset 64
  61              		.loc 1 715 0
  62 0012 0546     		mov	r5, r0
  63              	.LVL1:
  64              	.LBB141:
  65              		.loc 1 720 0
  66 0014 2023     		movs	r3, #32
  67              	.LVL2:
  68              	@ 720 "../../../ChibiOS/os/hal/platforms/STM32/OTGv1/usb_lld.c" 1
  69 0016 83F31188 		msr     BASEPRI, r3
  70              	@ 0 "" 2
  71              	.LVL3:
  72              		.thumb
  73              	.LBE141:
  74              	.LBB142:
  75              	.LBB178:
  76              		.loc 1 732 0
  77 001a 0026     		movs	r6, #0
  78              	.LVL4:
  79              	.L56:
  80              	.LBE178:
  81              		.loc 1 726 0
  82 001c 2878     		ldrb	r0, [r5, #0]	@ zero_extendqisi2
  83 001e 0128     		cmp	r0, #1
  84 0020 06D0     		beq	.L2
  85              		.loc 1 726 0 is_stmt 0 discriminator 1
  86 0022 EC6D     		ldr	r4, [r5, #92]
  87 0024 84B9     		cbnz	r4, .L3
  88              		.loc 1 727 0 is_stmt 1
  89 0026 D8F81470 		ldr	r7, [r8, #20]
  90 002a 17F0100F 		tst	r7, #16
  91 002e 0BD1     		bne	.L3
  92              	.L2:
  93              		.loc 1 729 0
  94 0030 9A48     		ldr	r0, .L123
  95              		.loc 1 728 0
  96 0032 D8F81830 		ldr	r3, [r8, #24]
  97              	.LVL5:
  98              		.loc 1 729 0
  99 0036 8169     		ldr	r1, [r0, #24]
 100              		.loc 1 728 0
 101 0038 43F01002 		orr	r2, r3, #16
 102 003c C8F81820 		str	r2, [r8, #24]
 103              		.loc 1 730 0
 104 0040 0220     		movs	r0, #2
 105              		.loc 1 729 0
 106 0042 6966     		str	r1, [r5, #100]
 107              		.loc 1 730 0
 108 0044 FFF7FEFF 		bl	chSchGoSleepS
 109              	.LVL6:
 110              	.L3:
ARM GAS  C:\Users\DNIEL~1\AppData\Local\Temp\cccPEDO0.s 			page 3


 111              	.LBB177:
 112              		.loc 1 732 0
 113 0048 0023     		movs	r3, #0
 114              	.LVL7:
 115              	@ 732 "../../../ChibiOS/os/hal/platforms/STM32/OTGv1/usb_lld.c" 1
 116 004a 83F31188 		msr     BASEPRI, r3
 117              	@ 0 "" 2
 118              	.LVL8:
 119              		.loc 1 735 0
 120              		.thumb
 121 004e 9B46     		mov	fp, r3
 122 0050 0193     		str	r3, [sp, #4]
 123              	.LVL9:
 124              	.L97:
 125              	.LBE177:
 126              		.loc 1 738 0 discriminator 1
 127 0052 D8F81430 		ldr	r3, [r8, #20]
 128              	.LVL10:
 129 0056 13F01002 		ands	r2, r3, #16
 130 005a 3AD0     		beq	.L117
 131              	.L27:
 132              	.LVL11:
 133              	.LBB144:
 134              	.LBB145:
 135              		.loc 1 455 0
 136 005c 296D     		ldr	r1, [r5, #80]
 137 005e 0C6A     		ldr	r4, [r1, #32]
 138              	.LVL12:
 139              		.loc 1 456 0
 140 0060 04F4F013 		and	r3, r4, #1966080
 141 0064 B3F5802F 		cmp	r3, #262144
 142 0068 4DD0     		beq	.L6
 143 006a B3F5402F 		cmp	r3, #786432
 144 006e F0D1     		bne	.L97
 145              	.LVL13:
 146              		.loc 1 461 0
 147 0070 04F00F0A 		and	sl, r4, #15
 148              		.loc 1 462 0
 149 0074 05EB8A09 		add	r9, r5, sl, lsl #2
 150              		.loc 1 460 0
 151 0078 C4F30A12 		ubfx	r2, r4, #4, #11
 152              	.LBB148:
 153              	.LBB150:
 154              		.loc 1 373 0
 155 007c D41C     		adds	r4, r2, #3
 156              	.LVL14:
 157              	.LBE150:
 158              	.LBE148:
 159              		.loc 1 462 0
 160 007e D9F80C70 		ldr	r7, [r9, #12]
 161              	.LBB147:
 162              	.LBB149:
 163              		.loc 1 375 0
 164 0082 A408     		lsrs	r4, r4, #2
 165              	.LBE149:
 166              	.LBE147:
 167              		.loc 1 462 0
ARM GAS  C:\Users\DNIEL~1\AppData\Local\Temp\cccPEDO0.s 			page 4


 168 0084 01F58051 		add	r1, r1, #4096
 169 0088 3A6A     		ldr	r2, [r7, #32]
 170              	.LVL15:
 171              	.LBB146:
 172              	.LBB156:
 173              		.loc 1 375 0
 174 008a E2D0     		beq	.L97
 175 008c 013C     		subs	r4, r4, #1
 176              	.LBB151:
 177              		.loc 1 376 0
 178 008e 0B68     		ldr	r3, [r1, #0]
 179              	.LVL16:
 180              	.LBE151:
 181              		.loc 1 375 0
 182 0090 2046     		mov	r0, r4
 183              	.LBB152:
 184              		.loc 1 380 0
 185 0092 42F8043B 		str	r3, [r2], #4
 186              	.LVL17:
 187 0096 04F00104 		and	r4, r4, #1
 188              		.loc 1 382 0
 189 009a 0123     		movs	r3, #1
 190              	.LVL18:
 191              	.LBE152:
 192              		.loc 1 375 0
 193 009c 0028     		cmp	r0, #0
 194 009e D8D0     		beq	.L97
 195 00a0 2CB1     		cbz	r4, .L10
 196              	.LBB153:
 197              		.loc 1 376 0
 198 00a2 0C68     		ldr	r4, [r1, #0]
 199              		.loc 1 382 0
 200 00a4 0023     		movs	r3, #0
 201              	.LVL19:
 202              	.LBE153:
 203              		.loc 1 375 0
 204 00a6 0138     		subs	r0, r0, #1
 205              	.LBB154:
 206              		.loc 1 380 0
 207 00a8 42F8044B 		str	r4, [r2], #4
 208              	.LVL20:
 209              	.LBE154:
 210              		.loc 1 375 0
 211 00ac D1D0     		beq	.L97
 212              	.LVL21:
 213              	.L10:
 214              	.LBB155:
 215              		.loc 1 376 0
 216 00ae 0C68     		ldr	r4, [r1, #0]
 217              		.loc 1 377 0
 218 00b0 13B1     		cbz	r3, .L9
 219              		.loc 1 380 0
 220 00b2 42F8044B 		str	r4, [r2], #4
 221              	.LVL22:
 222              		.loc 1 382 0
 223 00b6 013B     		subs	r3, r3, #1
 224              	.LVL23:
ARM GAS  C:\Users\DNIEL~1\AppData\Local\Temp\cccPEDO0.s 			page 5


 225              	.L9:
 226              		.loc 1 384 0
 227 00b8 0138     		subs	r0, r0, #1
 228              		.loc 1 376 0
 229 00ba 0C68     		ldr	r4, [r1, #0]
 230              		.loc 1 377 0
 231 00bc 13B1     		cbz	r3, .L82
 232              		.loc 1 380 0
 233 00be 42F8044B 		str	r4, [r2], #4
 234              	.LVL24:
 235              		.loc 1 382 0
 236 00c2 013B     		subs	r3, r3, #1
 237              	.LVL25:
 238              	.L82:
 239              	.LBE155:
 240              		.loc 1 375 0
 241 00c4 0138     		subs	r0, r0, #1
 242 00c6 F2D1     		bne	.L10
 243              	.LBE156:
 244              	.LBE146:
 245              	.LBE145:
 246              	.LBE144:
 247              		.loc 1 738 0
 248 00c8 D8F81430 		ldr	r3, [r8, #20]
 249              	.LVL26:
 250 00cc 13F01002 		ands	r2, r3, #16
 251              	.LVL27:
 252 00d0 C4D1     		bne	.L27
 253              	.LVL28:
 254              	.L117:
 255              		.loc 1 742 0
 256 00d2 DDF804A0 		ldr	sl, [sp, #4]
 257              		.loc 1 743 0
 258 00d6 E96D     		ldr	r1, [r5, #92]
 259              		.loc 1 742 0
 260 00d8 4FF0010E 		mov	lr, #1
 261 00dc 0EFA0AF9 		lsl	r9, lr, sl
 262              		.loc 1 743 0
 263 00e0 19EA010F 		tst	r9, r1
 264              		.loc 1 742 0
 265 00e4 CDF81090 		str	r9, [sp, #16]
 266              	.LVL29:
 267              		.loc 1 743 0
 268 00e8 40F0DC80 		bne	.L118
 269              	.LVL30:
 270              	.L28:
 271              		.loc 1 735 0
 272 00ec 0198     		ldr	r0, [sp, #4]
 273 00ee 6B6D     		ldr	r3, [r5, #84]
 274              	.LVL31:
 275 00f0 411C     		adds	r1, r0, #1
 276 00f2 9F68     		ldr	r7, [r3, #8]
 277 00f4 CCB2     		uxtb	r4, r1
 278 00f6 BC42     		cmp	r4, r7
 279 00f8 0194     		str	r4, [sp, #4]
 280              	.LVL32:
 281 00fa A346     		mov	fp, r4
ARM GAS  C:\Users\DNIEL~1\AppData\Local\Temp\cccPEDO0.s 			page 6


 282 00fc A9D9     		bls	.L97
 283              	.LBB143:
 284              		.loc 1 767 0
 285 00fe 2023     		movs	r3, #32
 286              	@ 767 "../../../ChibiOS/os/hal/platforms/STM32/OTGv1/usb_lld.c" 1
 287 0100 83F31188 		msr     BASEPRI, r3
 288              	@ 0 "" 2
 289              	.LVL33:
 290              		.thumb
 291              	.LBE143:
 292              	.LBE142:
 293              		.loc 1 768 0
 294 0104 8AE7     		b	.L56
 295              	.LVL34:
 296              	.L6:
 297              	.LBB215:
 298              	.LBB179:
 299              	.LBB176:
 300              		.loc 1 467 0
 301 0106 04F00F07 		and	r7, r4, #15
 302              		.loc 1 468 0
 303 010a 0237     		adds	r7, r7, #2
 304 010c 05EB870C 		add	ip, r5, r7, lsl #2
 305              		.loc 1 466 0
 306 0110 C4F30A14 		ubfx	r4, r4, #4, #11
 307              	.LVL35:
 308              		.loc 1 468 0
 309 0114 DCF80400 		ldr	r0, [ip, #4]
 310 0118 8069     		ldr	r0, [r0, #24]
 311 011a 0278     		ldrb	r2, [r0, #0]	@ zero_extendqisi2
 312 011c 002A     		cmp	r2, #0
 313 011e 40D1     		bne	.L119
 314              	.LBB157:
 315              	.LBB159:
 316              		.loc 1 373 0
 317 0120 04F10309 		add	r9, r4, #3
 318              		.loc 1 375 0
 319 0124 5FEA990E 		lsrs	lr, r9, #2
 320              	.LBE159:
 321              	.LBE157:
 322              		.loc 1 475 0
 323 0128 01F58051 		add	r1, r1, #4096
 324 012c D0F80CC0 		ldr	ip, [r0, #12]
 325              		.loc 1 478 0
 326 0130 4368     		ldr	r3, [r0, #4]
 327              		.loc 1 479 0
 328 0132 8268     		ldr	r2, [r0, #8]
 329              	.LVL36:
 330              	.LBB164:
 331              	.LBB158:
 332              		.loc 1 375 0
 333 0134 29D0     		beq	.L24
 334              	.LBE158:
 335              	.LBE164:
 336              		.loc 1 475 0
 337 0136 0333     		adds	r3, r3, #3
 338              	.LBB165:
ARM GAS  C:\Users\DNIEL~1\AppData\Local\Temp\cccPEDO0.s 			page 7


 339              	.LBB163:
 340              		.loc 1 374 0
 341 0138 9B1A     		subs	r3, r3, r2
 342 013a 0EF1FF39 		add	r9, lr, #-1
 343              	.LBB160:
 344              		.loc 1 377 0
 345 013e 9B08     		lsrs	r3, r3, #2
 346              		.loc 1 376 0
 347 0140 D1F800A0 		ldr	sl, [r1, #0]
 348              	.LVL37:
 349              	.LBE160:
 350              		.loc 1 374 0
 351 0144 6246     		mov	r2, ip
 352 0146 09F00109 		and	r9, r9, #1
 353              	.LBB161:
 354              		.loc 1 377 0
 355 014a 03D0     		beq	.L70
 356              		.loc 1 380 0
 357 014c 6246     		mov	r2, ip
 358              		.loc 1 382 0
 359 014e 013B     		subs	r3, r3, #1
 360              		.loc 1 380 0
 361 0150 42F804AB 		str	sl, [r2], #4
 362              	.LVL38:
 363              	.L70:
 364              	.LBE161:
 365              		.loc 1 375 0
 366 0154 BEF1010E 		subs	lr, lr, #1
 367 0158 17D0     		beq	.L24
 368 015a B9F1000F 		cmp	r9, #0
 369 015e 03D0     		beq	.L26
 370              	.LBB162:
 371              		.loc 1 376 0
 372 0160 D1F80090 		ldr	r9, [r1, #0]
 373              	.LVL39:
 374              		.loc 1 377 0
 375 0164 73B1     		cbz	r3, .L75
 376 0166 0AE0     		b	.L101
 377              	.L26:
 378              		.loc 1 376 0
 379 0168 D1F80090 		ldr	r9, [r1, #0]
 380              		.loc 1 377 0
 381 016c 13B1     		cbz	r3, .L25
 382              		.loc 1 380 0
 383 016e 42F8049B 		str	r9, [r2], #4
 384              	.LVL40:
 385              		.loc 1 382 0
 386 0172 013B     		subs	r3, r3, #1
 387              	.LVL41:
 388              	.L25:
 389              		.loc 1 384 0
 390 0174 0EF1FF3E 		add	lr, lr, #-1
 391              		.loc 1 376 0
 392 0178 D1F80090 		ldr	r9, [r1, #0]
 393              		.loc 1 377 0
 394 017c 13B1     		cbz	r3, .L75
 395              	.L101:
ARM GAS  C:\Users\DNIEL~1\AppData\Local\Temp\cccPEDO0.s 			page 8


 396              		.loc 1 380 0
 397 017e 42F8049B 		str	r9, [r2], #4
 398              	.LVL42:
 399              		.loc 1 382 0
 400 0182 013B     		subs	r3, r3, #1
 401              	.LVL43:
 402              	.L75:
 403              	.LBE162:
 404              		.loc 1 375 0
 405 0184 BEF1010E 		subs	lr, lr, #1
 406 0188 EED1     		bne	.L26
 407              	.LVL44:
 408              	.L24:
 409              	.LBE163:
 410              	.LBE165:
 411              		.loc 1 480 0
 412 018a 0CEB0401 		add	r1, ip, r4
 413              	.LVL45:
 414 018e C160     		str	r1, [r0, #12]
 415              	.LVL46:
 416              	.L23:
 417              		.loc 1 482 0
 418 0190 05EB870E 		add	lr, r5, r7, lsl #2
 419 0194 DEF80420 		ldr	r2, [lr, #4]
 420 0198 9069     		ldr	r0, [r2, #24]
 421 019a 8768     		ldr	r7, [r0, #8]
 422 019c 3C19     		adds	r4, r7, r4
 423              	.LVL47:
 424 019e 8460     		str	r4, [r0, #8]
 425 01a0 57E7     		b	.L97
 426              	.LVL48:
 427              	.L119:
 428              		.loc 1 470 0
 429 01a2 01F58051 		add	r1, r1, #4096
 430 01a6 D0F80C90 		ldr	r9, [r0, #12]
 431              	.LVL49:
 432              	.LBB166:
 433              	.LBB167:
 434              		.loc 1 403 0
 435 01aa 002C     		cmp	r4, #0
 436 01ac 57D0     		beq	.L12
 437 01ae D9F81430 		ldr	r3, [r9, #20]
 438 01b2 2046     		mov	r0, r4
 439              	.LVL50:
 440              	.L99:
 441              	.LBB168:
 442              		.loc 1 407 0
 443 01b4 0328     		cmp	r0, #3
 444 01b6 09D9     		bls	.L14
 445              	.LVL51:
 446              	.L120:
 447              	.LBB169:
 448              		.loc 1 413 0
 449 01b8 D9F81020 		ldr	r2, [r9, #16]
 450 01bc 9A42     		cmp	r2, r3
 451 01be 07D8     		bhi	.L15
 452              		.loc 1 414 0
ARM GAS  C:\Users\DNIEL~1\AppData\Local\Temp\cccPEDO0.s 			page 9


 453 01c0 D9F80C30 		ldr	r3, [r9, #12]
 454              	.LVL52:
 455              	.LBE169:
 456              		.loc 1 407 0
 457 01c4 0328     		cmp	r0, #3
 458              	.LBB170:
 459              		.loc 1 414 0
 460 01c6 C9F81430 		str	r3, [r9, #20]
 461              	.LVL53:
 462              	.LBE170:
 463              		.loc 1 407 0
 464 01ca F5D8     		bhi	.L120
 465              	.LVL54:
 466              	.L14:
 467              	.LBB171:
 468              		.loc 1 414 0
 469 01cc D9F81430 		ldr	r3, [r9, #20]
 470              	.L15:
 471              	.LBE171:
 472              		.loc 1 425 0
 473 01d0 0A68     		ldr	r2, [r1, #0]
 474              	.LVL55:
 475              		.loc 1 428 0
 476 01d2 03F8012B 		strb	r2, [r3], #1
 477              		.loc 1 429 0
 478 01d6 D9F810E0 		ldr	lr, [r9, #16]
 479              		.loc 1 428 0
 480 01da C9F81430 		str	r3, [r9, #20]
 481              		.loc 1 429 0
 482 01de 7345     		cmp	r3, lr
 483              		.loc 1 430 0
 484 01e0 24BF     		itt	cs
 485 01e2 D9F80C30 		ldrcs	r3, [r9, #12]
 486 01e6 C9F81430 		strcs	r3, [r9, #20]
 487              		.loc 1 427 0
 488 01ea 0138     		subs	r0, r0, #1
 489              	.LVL56:
 490 01ec 37D0     		beq	.L12
 491              	.LVL57:
 492              		.loc 1 428 0
 493 01ee D9F81430 		ldr	r3, [r9, #20]
 494 01f2 4FEA122C 		lsr	ip, r2, #8
 495 01f6 03F801CB 		strb	ip, [r3], #1
 496              		.loc 1 429 0
 497 01fa D9F810A0 		ldr	sl, [r9, #16]
 498              		.loc 1 428 0
 499 01fe C9F81430 		str	r3, [r9, #20]
 500              		.loc 1 429 0
 501 0202 5345     		cmp	r3, sl
 502              		.loc 1 430 0
 503 0204 24BF     		itt	cs
 504 0206 D9F80C30 		ldrcs	r3, [r9, #12]
 505 020a C9F81430 		strcs	r3, [r9, #20]
 506              		.loc 1 427 0
 507 020e 0138     		subs	r0, r0, #1
 508              	.LVL58:
 509 0210 25D0     		beq	.L12
ARM GAS  C:\Users\DNIEL~1\AppData\Local\Temp\cccPEDO0.s 			page 10


 510              	.LVL59:
 511              		.loc 1 428 0
 512 0212 D9F81430 		ldr	r3, [r9, #20]
 513 0216 4FEA124A 		lsr	sl, r2, #16
 514 021a 03F801AB 		strb	sl, [r3], #1
 515              		.loc 1 429 0
 516 021e D9F810E0 		ldr	lr, [r9, #16]
 517              		.loc 1 428 0
 518 0222 C9F81430 		str	r3, [r9, #20]
 519              		.loc 1 429 0
 520 0226 7345     		cmp	r3, lr
 521              		.loc 1 430 0
 522 0228 24BF     		itt	cs
 523 022a D9F80C30 		ldrcs	r3, [r9, #12]
 524 022e C9F81430 		strcs	r3, [r9, #20]
 525              		.loc 1 427 0
 526 0232 0138     		subs	r0, r0, #1
 527              	.LVL60:
 528 0234 13D0     		beq	.L12
 529              	.LVL61:
 530              		.loc 1 428 0
 531 0236 D9F81430 		ldr	r3, [r9, #20]
 532 023a 120E     		lsrs	r2, r2, #24
 533              	.LVL62:
 534 023c 03F8012B 		strb	r2, [r3], #1
 535              		.loc 1 429 0
 536 0240 D9F81020 		ldr	r2, [r9, #16]
 537              		.loc 1 428 0
 538 0244 C9F81430 		str	r3, [r9, #20]
 539              		.loc 1 429 0
 540 0248 9342     		cmp	r3, r2
 541              		.loc 1 430 0
 542 024a 24BF     		itt	cs
 543 024c D9F80C30 		ldrcs	r3, [r9, #12]
 544 0250 C9F81430 		strcs	r3, [r9, #20]
 545              		.loc 1 427 0
 546 0254 0138     		subs	r0, r0, #1
 547              	.LVL63:
 548 0256 02D0     		beq	.L12
 549 0258 D9F81430 		ldr	r3, [r9, #20]
 550 025c AAE7     		b	.L99
 551              	.LVL64:
 552              	.L12:
 553              	.LBE168:
 554              	.LBB172:
 555              		.loc 1 437 0
 556 025e 2023     		movs	r3, #32
 557              	.LVL65:
 558              	@ 437 "../../../ChibiOS/os/hal/platforms/STM32/OTGv1/usb_lld.c" 1
 559 0260 83F31188 		msr     BASEPRI, r3
 560              	@ 0 "" 2
 561              	.LVL66:
 562              		.thumb
 563              	.LBE172:
 564              		.loc 1 438 0
 565 0264 D9F80830 		ldr	r3, [r9, #8]
 566              	.LVL67:
ARM GAS  C:\Users\DNIEL~1\AppData\Local\Temp\cccPEDO0.s 			page 11


 567              		.loc 1 439 0
 568 0268 D9F80000 		ldr	r0, [r9, #0]
 569              		.loc 1 438 0
 570 026c 1919     		adds	r1, r3, r4
 571              	.LVL68:
 572              		.loc 1 439 0
 573 026e 4845     		cmp	r0, r9
 574              		.loc 1 438 0
 575 0270 C9F80810 		str	r1, [r9, #8]
 576              		.loc 1 439 0
 577 0274 0CD0     		beq	.L21
 578 0276 CC46     		mov	ip, r9
 579 0278 A146     		mov	r9, r4
 580              	.LVL69:
 581 027a 6446     		mov	r4, ip
 582              	.LVL70:
 583              	.L61:
 584              	.LBB173:
 585              	.LBB174:
 586              		.file 2 "../../../ChibiOS/os/kernel/include/chinline.h"
 587              		.loc 2 62 0
 588 027c 0268     		ldr	r2, [r0, #0]
 589 027e 2260     		str	r2, [r4, #0]
 590 0280 5460     		str	r4, [r2, #4]
 591              	.LBE174:
 592              	.LBE173:
 593              		.loc 1 440 0
 594 0282 FFF7FEFF 		bl	chSchReadyI
 595              	.LVL71:
 596 0286 4662     		str	r6, [r0, #36]
 597              		.loc 1 439 0
 598 0288 2068     		ldr	r0, [r4, #0]
 599 028a A042     		cmp	r0, r4
 600 028c F6D1     		bne	.L61
 601 028e 4C46     		mov	r4, r9
 602              	.LVL72:
 603              	.L21:
 604              		.loc 1 441 0
 605 0290 FFF7FEFF 		bl	chSchRescheduleS
 606              	.LBB175:
 607              		.loc 1 442 0
 608 0294 0023     		movs	r3, #0
 609              	@ 442 "../../../ChibiOS/os/hal/platforms/STM32/OTGv1/usb_lld.c" 1
 610 0296 83F31188 		msr     BASEPRI, r3
 611              	@ 0 "" 2
 612              	.LVL73:
 613              		.thumb
 614 029a 79E7     		b	.L23
 615              	.L124:
 616              		.align	2
 617              	.L123:
 618 029c 00000000 		.word	rlist
 619 02a0 00000000 		.word	.LC0
 620              	.LVL74:
 621              	.L118:
 622              	.LBE175:
 623              	.LBE167:
ARM GAS  C:\Users\DNIEL~1\AppData\Local\Temp\cccPEDO0.s 			page 12


 624              	.LBE166:
 625              	.LBE176:
 626              	.LBE179:
 627              	.LBB180:
 628              	.LBB181:
 629              		.loc 1 746 0
 630 02a4 2023     		movs	r3, #32
 631              	.LVL75:
 632              	@ 746 "../../../ChibiOS/os/hal/platforms/STM32/OTGv1/usb_lld.c" 1
 633 02a6 83F31188 		msr     BASEPRI, r3
 634              	@ 0 "" 2
 635              	.LVL76:
 636              		.thumb
 637              	.LBE181:
 638              		.loc 1 754 0
 639 02aa D8F80830 		ldr	r3, [r8, #8]
 640              	.LVL77:
 641              		.loc 1 755 0
 642 02ae EF6D     		ldr	r7, [r5, #92]
 643              		.loc 1 754 0
 644 02b0 23F00104 		bic	r4, r3, #1
 645              		.loc 1 755 0
 646 02b4 27EA0900 		bic	r0, r7, r9
 647              		.loc 1 754 0
 648 02b8 C8F80840 		str	r4, [r8, #8]
 649              	.LBB182:
 650              		.loc 1 756 0
 651 02bc 1346     		mov	r3, r2
 652              	.LVL78:
 653              	.LBE182:
 654              		.loc 1 755 0
 655 02be E865     		str	r0, [r5, #92]
 656              	.LBB183:
 657              		.loc 1 756 0
 658              	@ 756 "../../../ChibiOS/os/hal/platforms/STM32/OTGv1/usb_lld.c" 1
 659 02c0 83F31188 		msr     BASEPRI, r3
 660              	@ 0 "" 2
 661              	.LVL79:
 662              		.thumb
 663              	.LBE183:
 664              	.LBB184:
 665              	.LBB185:
 666              		.loc 1 506 0
 667 02c4 DDF80490 		ldr	r9, [sp, #4]
 668              	.LVL80:
 669 02c8 09F1020C 		add	ip, r9, #2
 670 02cc 05EB8C00 		add	r0, r5, ip, lsl #2
 671 02d0 D0F804C0 		ldr	ip, [r0, #4]
 672 02d4 DCF81410 		ldr	r1, [ip, #20]
 673 02d8 8C68     		ldr	r4, [r1, #8]
 674 02da 4F68     		ldr	r7, [r1, #4]
 675 02dc A742     		cmp	r7, r4
 676 02de 40F21981 		bls	.L57
 677              		.loc 1 516 0
 678 02e2 DDF804E0 		ldr	lr, [sp, #4]
 679 02e6 2B6D     		ldr	r3, [r5, #80]
 680              	.LVL81:
ARM GAS  C:\Users\DNIEL~1\AppData\Local\Temp\cccPEDO0.s 			page 13


 681              		.loc 1 511 0
 682 02e8 BCF810A0 		ldrh	sl, [ip, #16]
 683              		.loc 1 516 0
 684 02ec 4FEA4E19 		lsl	r9, lr, #5
 685 02f0 03EB090C 		add	ip, r3, r9
 686              		.loc 1 510 0
 687 02f4 3F1B     		subs	r7, r7, r4
 688              	.LVL82:
 689              		.loc 1 516 0
 690 02f6 DCF81849 		ldr	r4, [ip, #2328]
 691 02fa CDF80890 		str	r9, [sp, #8]
 692              		.loc 1 510 0
 693 02fe BA45     		cmp	sl, r7
 694 0300 38BF     		it	cc
 695 0302 5746     		movcc	r7, sl
 696              	.LVL83:
 697              		.loc 1 516 0
 698 0304 1FFA84FE 		uxth	lr, r4
 699 0308 B7EB8E0F 		cmp	r7, lr, lsl #2
 700 030c 52D8     		bhi	.L29
 701              		.loc 1 525 0
 702 030e 4FEA0B3B 		lsl	fp, fp, #12
 703 0312 CDF81480 		str	r8, [sp, #20]
 704              		.loc 1 536 0
 705 0316 0390     		str	r0, [sp, #12]
 706 0318 D846     		mov	r8, fp
 707              	.L30:
 708              		.loc 1 523 0
 709 031a 0A78     		ldrb	r2, [r1, #0]	@ zero_extendqisi2
 710 031c 002A     		cmp	r2, #0
 711 031e 5ED1     		bne	.L121
 712              	.LBB188:
 713              	.LBB190:
 714              		.loc 1 272 0
 715 0320 07F10309 		add	r9, r7, #3
 716              	.LBE190:
 717              	.LBE188:
 718              		.loc 1 531 0
 719 0324 03F5805E 		add	lr, r3, #4096
 720              	.LBB187:
 721              	.LBB189:
 722              	.LBB191:
 723              	.LBB192:
 724              		.loc 1 249 0
 725 0328 5FEA990C 		lsrs	ip, r9, #2
 726              	.LBE192:
 727              	.LBE191:
 728              	.LBE189:
 729              	.LBE187:
 730              		.loc 1 531 0
 731 032c 0EEB0800 		add	r0, lr, r8
 732 0330 CC68     		ldr	r4, [r1, #12]
 733              	.LVL84:
 734              	.LBB186:
 735              	.LBB195:
 736              	.LBB194:
 737              	.LBB193:
ARM GAS  C:\Users\DNIEL~1\AppData\Local\Temp\cccPEDO0.s 			page 14


 738              		.loc 1 249 0
 739 0332 20D0     		beq	.L50
 740              	.LVL85:
 741              		.loc 1 252 0
 742 0334 2346     		mov	r3, r4
 743 0336 0CF1FF3A 		add	sl, ip, #-1
 744 033a 53F804BB 		ldr	fp, [r3], #4
 745              		.loc 1 249 0
 746 033e 5246     		mov	r2, sl
 747 0340 0AF0010C 		and	ip, sl, #1
 748              	.LVL86:
 749              		.loc 1 252 0
 750 0344 4EF808B0 		str	fp, [lr, r8]
 751              	.LVL87:
 752              		.loc 1 249 0
 753 0348 AAB1     		cbz	r2, .L50
 754 034a BCF1000F 		cmp	ip, #0
 755 034e 06D0     		beq	.L115
 756              		.loc 1 252 0
 757 0350 D4F804C0 		ldr	ip, [r4, #4]
 758              		.loc 1 253 0
 759 0354 0433     		adds	r3, r3, #4
 760              	.LVL88:
 761              		.loc 1 249 0
 762 0356 013A     		subs	r2, r2, #1
 763              		.loc 1 252 0
 764 0358 4EF808C0 		str	ip, [lr, r8]
 765              		.loc 1 249 0
 766 035c 0BD0     		beq	.L50
 767              	.LVL89:
 768              	.L115:
 769 035e 8C46     		mov	ip, r1
 770              	.LVL90:
 771              	.L51:
 772              		.loc 1 252 0
 773 0360 9E46     		mov	lr, r3
 774              		.loc 1 249 0
 775 0362 023A     		subs	r2, r2, #2
 776              		.loc 1 252 0
 777 0364 5EF8041B 		ldr	r1, [lr], #4
 778 0368 0160     		str	r1, [r0, #0]
 779 036a 5968     		ldr	r1, [r3, #4]
 780              		.loc 1 253 0
 781 036c 0EF10403 		add	r3, lr, #4
 782              		.loc 1 252 0
 783 0370 0160     		str	r1, [r0, #0]
 784              		.loc 1 249 0
 785 0372 F5D1     		bne	.L51
 786 0374 6146     		mov	r1, ip
 787              	.LVL91:
 788              	.L50:
 789              	.LBE193:
 790              	.LBE194:
 791              	.LBE195:
 792              	.LBE186:
 793              		.loc 1 534 0
 794 0376 E019     		adds	r0, r4, r7
ARM GAS  C:\Users\DNIEL~1\AppData\Local\Temp\cccPEDO0.s 			page 15


 795              	.LVL92:
 796 0378 C860     		str	r0, [r1, #12]
 797              	.LVL93:
 798              	.L49:
 799              		.loc 1 536 0
 800 037a 039C     		ldr	r4, [sp, #12]
 801 037c 6468     		ldr	r4, [r4, #4]
 802 037e 6169     		ldr	r1, [r4, #20]
 803 0380 8A68     		ldr	r2, [r1, #8]
 804              		.loc 1 506 0
 805 0382 4868     		ldr	r0, [r1, #4]
 806              		.loc 1 536 0
 807 0384 BA18     		adds	r2, r7, r2
 808              		.loc 1 506 0
 809 0386 9042     		cmp	r0, r2
 810              		.loc 1 536 0
 811 0388 8A60     		str	r2, [r1, #8]
 812              		.loc 1 506 0
 813 038a 40F2BF80 		bls	.L122
 814              		.loc 1 516 0
 815 038e 2B6D     		ldr	r3, [r5, #80]
 816              	.LVL94:
 817 0390 DDF808C0 		ldr	ip, [sp, #8]
 818              		.loc 1 511 0
 819 0394 248A     		ldrh	r4, [r4, #16]
 820              		.loc 1 516 0
 821 0396 03EB0C0A 		add	sl, r3, ip
 822              		.loc 1 510 0
 823 039a 871A     		subs	r7, r0, r2
 824              	.LVL95:
 825              		.loc 1 516 0
 826 039c DAF81809 		ldr	r0, [sl, #2328]
 827              		.loc 1 510 0
 828 03a0 A742     		cmp	r7, r4
 829 03a2 28BF     		it	cs
 830 03a4 2746     		movcs	r7, r4
 831              	.LVL96:
 832              		.loc 1 516 0
 833 03a6 82B2     		uxth	r2, r0
 834 03a8 B7EB820F 		cmp	r7, r2, lsl #2
 835 03ac B5D9     		bls	.L30
 836 03ae DDF81480 		ldr	r8, [sp, #20]
 837              		.loc 1 517 0
 838 03b2 0022     		movs	r2, #0
 839              	.LVL97:
 840              	.L29:
 841              	.LBE185:
 842              	.LBE184:
 843              	.LBB212:
 844              		.loc 1 760 0
 845 03b4 2023     		movs	r3, #32
 846              	.LVL98:
 847              	@ 760 "../../../ChibiOS/os/hal/platforms/STM32/OTGv1/usb_lld.c" 1
 848 03b6 83F31188 		msr     BASEPRI, r3
 849              	@ 0 "" 2
 850              	.LVL99:
 851              		.thumb
ARM GAS  C:\Users\DNIEL~1\AppData\Local\Temp\cccPEDO0.s 			page 16


 852              	.LBE212:
 853              		.loc 1 761 0
 854 03ba D8F80830 		ldr	r3, [r8, #8]
 855              	.LVL100:
 856 03be 43F00107 		orr	r7, r3, #1
 857 03c2 C8F80870 		str	r7, [r8, #8]
 858              		.loc 1 762 0
 859 03c6 32B9     		cbnz	r2, .L53
 860              		.loc 1 763 0
 861 03c8 D8F83408 		ldr	r0, [r8, #2100]
 862 03cc 049A     		ldr	r2, [sp, #16]
 863 03ce 42EA0001 		orr	r1, r2, r0
 864 03d2 C8F83418 		str	r1, [r8, #2100]
 865              	.L53:
 866              	.LBB213:
 867              		.loc 1 764 0
 868 03d6 0023     		movs	r3, #0
 869              	@ 764 "../../../ChibiOS/os/hal/platforms/STM32/OTGv1/usb_lld.c" 1
 870 03d8 83F31188 		msr     BASEPRI, r3
 871              	@ 0 "" 2
 872              	.LVL101:
 873              		.thumb
 874 03dc 86E6     		b	.L28
 875              	.LVL102:
 876              	.L121:
 877              	.LBE213:
 878              	.LBB214:
 879              	.LBB211:
 880              		.loc 1 525 0
 881 03de 03F58053 		add	r3, r3, #4096
 882 03e2 03EB080E 		add	lr, r3, r8
 883 03e6 CC68     		ldr	r4, [r1, #12]
 884              	.LVL103:
 885              	.LBB196:
 886              	.LBB197:
 887              		.loc 1 290 0
 888 03e8 002F     		cmp	r7, #0
 889 03ea 3BD0     		beq	.L32
 890 03ec D4F81090 		ldr	r9, [r4, #16]
 891 03f0 3846     		mov	r0, r7
 892 03f2 AA46     		mov	sl, r5
 893 03f4 BB46     		mov	fp, r7
 894              	.LVL104:
 895              	.L46:
 896              	.LBB198:
 897              		.loc 1 294 0
 898 03f6 8308     		lsrs	r3, r0, #2
 899 03f8 50D1     		bne	.L33
 900 03fa A569     		ldr	r5, [r4, #24]
 901              	.LVL105:
 902              	.L34:
 903              		.loc 1 315 0
 904 03fc 15F8013B 		ldrb	r3, [r5], #1	@ zero_extendqisi2
 905              	.LVL106:
 906              		.loc 1 316 0
 907 0400 A945     		cmp	r9, r5
 908              		.loc 1 317 0
ARM GAS  C:\Users\DNIEL~1\AppData\Local\Temp\cccPEDO0.s 			page 17


 909 0402 98BF     		it	ls
 910 0404 E268     		ldrls	r2, [r4, #12]
 911              		.loc 1 315 0
 912 0406 A561     		str	r5, [r4, #24]
 913              		.loc 1 317 0
 914 0408 98BF     		it	ls
 915 040a A261     		strls	r2, [r4, #24]
 916              		.loc 1 314 0
 917 040c 0138     		subs	r0, r0, #1
 918              	.LVL107:
 919 040e 41D0     		beq	.L41
 920              		.loc 1 315 0
 921 0410 A269     		ldr	r2, [r4, #24]
 922 0412 12F801CB 		ldrb	ip, [r2], #1	@ zero_extendqisi2
 923              		.loc 1 316 0
 924 0416 9145     		cmp	r9, r2
 925              		.loc 1 315 0
 926 0418 A261     		str	r2, [r4, #24]
 927              		.loc 1 317 0
 928 041a 9CBF     		itt	ls
 929 041c E268     		ldrls	r2, [r4, #12]
 930 041e A261     		strls	r2, [r4, #24]
 931              		.loc 1 314 0
 932 0420 0138     		subs	r0, r0, #1
 933              	.LVL108:
 934              		.loc 1 315 0
 935 0422 43EA0C23 		orr	r3, r3, ip, lsl #8
 936              	.LVL109:
 937              		.loc 1 314 0
 938 0426 35D0     		beq	.L41
 939              		.loc 1 315 0
 940 0428 A269     		ldr	r2, [r4, #24]
 941 042a 12F8011B 		ldrb	r1, [r2], #1	@ zero_extendqisi2
 942              		.loc 1 316 0
 943 042e 9145     		cmp	r9, r2
 944              		.loc 1 315 0
 945 0430 A261     		str	r2, [r4, #24]
 946              		.loc 1 317 0
 947 0432 9CBF     		itt	ls
 948 0434 E268     		ldrls	r2, [r4, #12]
 949 0436 A261     		strls	r2, [r4, #24]
 950              		.loc 1 314 0
 951 0438 0138     		subs	r0, r0, #1
 952              		.loc 1 315 0
 953 043a 43EA0143 		orr	r3, r3, r1, lsl #16
 954              	.LVL110:
 955              		.loc 1 314 0
 956 043e 29D0     		beq	.L41
 957              		.loc 1 315 0
 958 0440 A269     		ldr	r2, [r4, #24]
 959 0442 12F8017B 		ldrb	r7, [r2], #1	@ zero_extendqisi2
 960              		.loc 1 316 0
 961 0446 4A45     		cmp	r2, r9
 962              		.loc 1 315 0
 963 0448 A261     		str	r2, [r4, #24]
 964              		.loc 1 317 0
 965 044a 24BF     		itt	cs
ARM GAS  C:\Users\DNIEL~1\AppData\Local\Temp\cccPEDO0.s 			page 18


 966 044c E268     		ldrcs	r2, [r4, #12]
 967 044e A261     		strcs	r2, [r4, #24]
 968              		.loc 1 314 0
 969 0450 0138     		subs	r0, r0, #1
 970              		.loc 1 315 0
 971 0452 43EA0763 		orr	r3, r3, r7, lsl #24
 972              	.LVL111:
 973              		.loc 1 314 0
 974 0456 1DD0     		beq	.L41
 975              		.loc 1 321 0
 976 0458 CEF80030 		str	r3, [lr, #0]
 977              	.LVL112:
 978              	.L39:
 979              	.LBE198:
 980              		.loc 1 290 0
 981 045c 0028     		cmp	r0, #0
 982 045e CAD1     		bne	.L46
 983              	.LVL113:
 984              	.L107:
 985 0460 5546     		mov	r5, sl
 986 0462 5F46     		mov	r7, fp
 987              	.LVL114:
 988              	.L32:
 989              	.LBB205:
 990              		.loc 1 325 0
 991 0464 2023     		movs	r3, #32
 992              	.LVL115:
 993              	@ 325 "../../../ChibiOS/os/hal/platforms/STM32/OTGv1/usb_lld.c" 1
 994 0466 83F31188 		msr     BASEPRI, r3
 995              	@ 0 "" 2
 996              	.LVL116:
 997              		.thumb
 998              	.LBE205:
 999              		.loc 1 326 0
 1000 046a A368     		ldr	r3, [r4, #8]
 1001              	.LVL117:
 1002              		.loc 1 327 0
 1003 046c 2068     		ldr	r0, [r4, #0]
 1004              		.loc 1 326 0
 1005 046e DA19     		adds	r2, r3, r7
 1006              		.loc 1 327 0
 1007 0470 A042     		cmp	r0, r4
 1008              		.loc 1 326 0
 1009 0472 A260     		str	r2, [r4, #8]
 1010              		.loc 1 327 0
 1011 0474 08D0     		beq	.L47
 1012              	.LVL118:
 1013              	.L62:
 1014              	.LBB206:
 1015              	.LBB207:
 1016              		.loc 2 62 0
 1017 0476 0168     		ldr	r1, [r0, #0]
 1018 0478 2160     		str	r1, [r4, #0]
 1019 047a 4C60     		str	r4, [r1, #4]
 1020              	.LBE207:
 1021              	.LBE206:
 1022              		.loc 1 328 0
ARM GAS  C:\Users\DNIEL~1\AppData\Local\Temp\cccPEDO0.s 			page 19


 1023 047c FFF7FEFF 		bl	chSchReadyI
 1024              	.LVL119:
 1025 0480 4662     		str	r6, [r0, #36]
 1026              		.loc 1 327 0
 1027 0482 2068     		ldr	r0, [r4, #0]
 1028 0484 8442     		cmp	r4, r0
 1029 0486 F6D1     		bne	.L62
 1030              	.LVL120:
 1031              	.L47:
 1032              		.loc 1 329 0
 1033 0488 FFF7FEFF 		bl	chSchRescheduleS
 1034              	.LBB208:
 1035              		.loc 1 330 0
 1036 048c 0023     		movs	r3, #0
 1037              	@ 330 "../../../ChibiOS/os/hal/platforms/STM32/OTGv1/usb_lld.c" 1
 1038 048e 83F31188 		msr     BASEPRI, r3
 1039              	@ 0 "" 2
 1040              	.LVL121:
 1041              		.thumb
 1042 0492 72E7     		b	.L49
 1043              	.LVL122:
 1044              	.L41:
 1045              	.LBE208:
 1046              	.LBB209:
 1047              	.LBB200:
 1048              	.LBB201:
 1049              	.LBB202:
 1050              		.loc 1 249 0
 1051 0494 0020     		movs	r0, #0
 1052              	.LBE202:
 1053              	.LBE201:
 1054              	.LBE200:
 1055              		.loc 1 321 0
 1056 0496 CEF80030 		str	r3, [lr, #0]
 1057 049a DFE7     		b	.L39
 1058              	.LVL123:
 1059              	.L33:
 1060              	.LBB199:
 1061              		.loc 1 296 0
 1062 049c A569     		ldr	r5, [r4, #24]
 1063              	.LVL124:
 1064 049e B9EB0501 		subs	r1, r9, r5
 1065 04a2 48BF     		it	mi
 1066 04a4 0331     		addmi	r1, r1, #3
 1067 04a6 8910     		asrs	r1, r1, #2
 1068              		.loc 1 298 0
 1069 04a8 8B42     		cmp	r3, r1
 1070 04aa 38BF     		it	cc
 1071 04ac 1946     		movcc	r1, r3
 1072              	.LVL125:
 1073 04ae 4FEA810C 		lsl	ip, r1, #2
 1074 04b2 CCEB0000 		rsb	r0, ip, r0
 1075              	.LVL126:
 1076              	.LBB204:
 1077              	.LBB203:
 1078              		.loc 1 249 0
 1079 04b6 E1B1     		cbz	r1, .L36
ARM GAS  C:\Users\DNIEL~1\AppData\Local\Temp\cccPEDO0.s 			page 20


 1080              		.loc 1 252 0
 1081 04b8 2B46     		mov	r3, r5
 1082              	.LVL127:
 1083 04ba 0139     		subs	r1, r1, #1
 1084              	.LVL128:
 1085 04bc 53F8047B 		ldr	r7, [r3], #4
 1086              		.loc 1 249 0
 1087 04c0 0A46     		mov	r2, r1
 1088              		.loc 1 252 0
 1089 04c2 CEF80070 		str	r7, [lr, #0]
 1090              	.LVL129:
 1091 04c6 01F00101 		and	r1, r1, #1
 1092              	.LVL130:
 1093              		.loc 1 249 0
 1094 04ca 8AB1     		cbz	r2, .L102
 1095 04cc 29B1     		cbz	r1, .L37
 1096              		.loc 1 252 0
 1097 04ce 53F8047B 		ldr	r7, [r3], #4
 1098              		.loc 1 249 0
 1099 04d2 013A     		subs	r2, r2, #1
 1100              	.LVL131:
 1101              		.loc 1 252 0
 1102 04d4 CEF80070 		str	r7, [lr, #0]
 1103              	.LVL132:
 1104              		.loc 1 249 0
 1105 04d8 0AD0     		beq	.L102
 1106              	.LVL133:
 1107              	.L37:
 1108              		.loc 1 252 0
 1109 04da 1946     		mov	r1, r3
 1110 04dc 51F8047B 		ldr	r7, [r1], #4
 1111 04e0 CEF80070 		str	r7, [lr, #0]
 1112 04e4 5F68     		ldr	r7, [r3, #4]
 1113              		.loc 1 253 0
 1114 04e6 0B1D     		adds	r3, r1, #4
 1115              		.loc 1 249 0
 1116 04e8 023A     		subs	r2, r2, #2
 1117              		.loc 1 252 0
 1118 04ea CEF80070 		str	r7, [lr, #0]
 1119              		.loc 1 249 0
 1120 04ee F4D1     		bne	.L37
 1121              	.L102:
 1122 04f0 6544     		add	r5, r5, ip
 1123              	.L36:
 1124              	.LBE203:
 1125              	.LBE204:
 1126              		.loc 1 300 0
 1127 04f2 4D45     		cmp	r5, r9
 1128              		.loc 1 299 0
 1129 04f4 A561     		str	r5, [r4, #24]
 1130              		.loc 1 300 0
 1131 04f6 05D3     		bcc	.L38
 1132              		.loc 1 301 0
 1133 04f8 E568     		ldr	r5, [r4, #12]
 1134 04fa A561     		str	r5, [r4, #24]
 1135              	.LBE199:
 1136              	.LBE209:
ARM GAS  C:\Users\DNIEL~1\AppData\Local\Temp\cccPEDO0.s 			page 21


 1137              		.loc 1 290 0
 1138 04fc 0028     		cmp	r0, #0
 1139 04fe 7FF47AAF 		bne	.L46
 1140 0502 ADE7     		b	.L107
 1141              	.L38:
 1142              	.LBB210:
 1143              		.loc 1 308 0
 1144 0504 0028     		cmp	r0, #0
 1145 0506 7FF479AF 		bne	.L34
 1146 050a A9E7     		b	.L107
 1147              	.LVL134:
 1148              	.L122:
 1149 050c DDF81480 		ldr	r8, [sp, #20]
 1150              	.LBE210:
 1151              	.LBE197:
 1152              	.LBE196:
 1153              		.loc 1 507 0
 1154 0510 0122     		movs	r2, #1
 1155 0512 4FE7     		b	.L29
 1156              	.LVL135:
 1157              	.L57:
 1158 0514 7246     		mov	r2, lr
 1159 0516 4DE7     		b	.L29
 1160              	.LBE211:
 1161              	.LBE214:
 1162              	.LBE180:
 1163              	.LBE215:
 1164              		.cfi_endproc
 1165              	.LFE136:
 1166              		.size	usb_lld_pump, .-usb_lld_pump
 1167 0518 AFF30080 		.section	.text.otg_disable_ep.clone.0,"ax",%progbits
 1167      AFF30080 
 1168              		.align	2
 1169              		.p2align 4,,15
 1170              		.thumb
 1171              		.thumb_func
 1172              		.type	otg_disable_ep.clone.0, %function
 1173              	otg_disable_ep.clone.0:
 1174              	.LFB156:
 1175              		.loc 1 148 0
 1176              		.cfi_startproc
 1177              		@ args = 0, pretend = 0, frame = 0
 1178              		@ frame_needed = 0, uses_anonymous_args = 0
 1179              		@ link register save eliminated.
 1180              		.loc 1 152 0
 1181 0000 0023     		movs	r3, #0
 1182              		.loc 1 148 0
 1183 0002 2DE9F001 		push	{r4, r5, r6, r7, r8}
 1184              	.LCFI2:
 1185              		.cfi_def_cfa_offset 20
 1186              		.loc 1 152 0
 1187 0006 8A68     		ldr	r2, [r1, #8]
 1188              	.LVL136:
 1189              		.loc 1 163 0
 1190 0008 1C46     		mov	r4, r3
 1191              		.cfi_offset 8, -4
 1192              		.cfi_offset 7, -8
ARM GAS  C:\Users\DNIEL~1\AppData\Local\Temp\cccPEDO0.s 			page 22


 1193              		.cfi_offset 6, -12
 1194              		.cfi_offset 5, -16
 1195              		.cfi_offset 4, -20
 1196              		.loc 1 157 0
 1197 000a 4FF0804C 		mov	ip, #1073741824
 1198              		.loc 1 165 0
 1199 000e 4FF0FF37 		mov	r7, #-1
 1200 0012 17E0     		b	.L132
 1201              	.LVL137:
 1202              	.L126:
 1203 0014 5E01     		lsls	r6, r3, #5
 1204              		.loc 1 163 0
 1205 0016 4450     		str	r4, [r0, r1]
 1206              		.loc 1 164 0
 1207 0018 8519     		adds	r5, r0, r6
 1208              		.loc 1 171 0
 1209 001a 03F15801 		add	r1, r3, #88
 1210 001e 4901     		lsls	r1, r1, #5
 1211              		.loc 1 164 0
 1212 0020 C5F81049 		str	r4, [r5, #2320]
 1213              		.loc 1 165 0
 1214 0024 C5F80879 		str	r7, [r5, #2312]
 1215              		.loc 1 171 0
 1216 0028 50F80180 		ldr	r8, [r0, r1]
 1217 002c B8F1000F 		cmp	r8, #0
 1218 0030 26DB     		blt	.L136
 1219              	.L129:
 1220              		.loc 1 179 0
 1221 0032 8619     		adds	r6, r0, r6
 1222              		.loc 1 152 0
 1223 0034 0133     		adds	r3, r3, #1
 1224              	.LVL138:
 1225 0036 9342     		cmp	r3, r2
 1226              		.loc 1 178 0
 1227 0038 4450     		str	r4, [r0, r1]
 1228              		.loc 1 179 0
 1229 003a C6F8104B 		str	r4, [r6, #2832]
 1230              		.loc 1 180 0
 1231 003e C6F8087B 		str	r7, [r6, #2824]
 1232              		.loc 1 152 0
 1233 0042 2DD8     		bhi	.L137
 1234              	.LVL139:
 1235              	.L132:
 1236              		.loc 1 156 0
 1237 0044 03F14801 		add	r1, r3, #72
 1238 0048 4901     		lsls	r1, r1, #5
 1239 004a 4558     		ldr	r5, [r0, r1]
 1240 004c 002D     		cmp	r5, #0
 1241 004e E1DA     		bge	.L126
 1242 0050 5E01     		lsls	r6, r3, #5
 1243              		.loc 1 159 0
 1244 0052 00EB0608 		add	r8, r0, r6
 1245              		.loc 1 157 0
 1246 0056 40F801C0 		str	ip, [r0, r1]
 1247              		.loc 1 159 0
 1248 005a 08F51065 		add	r5, r8, #2304
 1249              	.L127:
ARM GAS  C:\Users\DNIEL~1\AppData\Local\Temp\cccPEDO0.s 			page 23


 1250 005e A968     		ldr	r1, [r5, #8]
 1251 0060 11F0020F 		tst	r1, #2
 1252 0064 FBD0     		beq	.L127
 1253              		.loc 1 164 0
 1254 0066 8519     		adds	r5, r0, r6
 1255              		.loc 1 171 0
 1256 0068 03F15801 		add	r1, r3, #88
 1257 006c 4901     		lsls	r1, r1, #5
 1258              		.loc 1 164 0
 1259 006e C5F81049 		str	r4, [r5, #2320]
 1260              		.loc 1 165 0
 1261 0072 C5F80879 		str	r7, [r5, #2312]
 1262              		.loc 1 171 0
 1263 0076 50F80180 		ldr	r8, [r0, r1]
 1264 007a B8F1000F 		cmp	r8, #0
 1265 007e D8DA     		bge	.L129
 1266              	.L136:
 1267              		.loc 1 172 0
 1268 0080 40F801C0 		str	ip, [r0, r1]
 1269              		.loc 1 174 0
 1270 0084 05F53065 		add	r5, r5, #2816
 1271              	.L130:
 1272 0088 A968     		ldr	r1, [r5, #8]
 1273 008a 11F0100F 		tst	r1, #16
 1274 008e FBD0     		beq	.L130
 1275              		.loc 1 179 0
 1276 0090 8619     		adds	r6, r0, r6
 1277              		.loc 1 152 0
 1278 0092 0133     		adds	r3, r3, #1
 1279              	.LVL140:
 1280 0094 9342     		cmp	r3, r2
 1281              		.loc 1 179 0
 1282 0096 C6F8104B 		str	r4, [r6, #2832]
 1283              		.loc 1 180 0
 1284 009a C6F8087B 		str	r7, [r6, #2824]
 1285              		.loc 1 152 0
 1286 009e D1D9     		bls	.L132
 1287              	.L137:
 1288              		.loc 1 182 0
 1289 00a0 4FF00113 		mov	r3, #65537
 1290              	.LVL141:
 1291 00a4 C0F81C38 		str	r3, [r0, #2076]
 1292              		.loc 1 183 0
 1293 00a8 BDE8F001 		pop	{r4, r5, r6, r7, r8}
 1294 00ac 7047     		bx	lr
 1295              		.cfi_endproc
 1296              	.LFE156:
 1297              		.size	otg_disable_ep.clone.0, .-otg_disable_ep.clone.0
 1298 00ae 00BF     		.section	.text.otg_txfifo_flush.clone.3,"ax",%progbits
 1299              		.align	2
 1300              		.p2align 4,,15
 1301              		.thumb
 1302              		.thumb_func
 1303              		.type	otg_txfifo_flush.clone.3, %function
 1304              	otg_txfifo_flush.clone.3:
 1305              	.LFB159:
 1306              		.loc 1 195 0
ARM GAS  C:\Users\DNIEL~1\AppData\Local\Temp\cccPEDO0.s 			page 24


 1307              		.cfi_startproc
 1308              		@ args = 0, pretend = 0, frame = 0
 1309              		@ frame_needed = 0, uses_anonymous_args = 0
 1310              		@ link register save eliminated.
 1311              	.LVL142:
 1312              		.loc 1 198 0
 1313 0000 8901     		lsls	r1, r1, #6
 1314              	.LVL143:
 1315 0002 41F02003 		orr	r3, r1, #32
 1316 0006 0361     		str	r3, [r0, #16]
 1317              	.L139:
 1318              		.loc 1 199 0
 1319 0008 0269     		ldr	r2, [r0, #16]
 1320 000a 12F0200F 		tst	r2, #32
 1321 000e FBD1     		bne	.L139
 1322              		.loc 1 202 0
 1323 0010 0C20     		movs	r0, #12
 1324              	.LVL144:
 1325              		.loc 1 203 0
 1326              		.loc 1 202 0
 1327 0012 FFF7FEBF 		b	halPolledDelay
 1328              		.cfi_endproc
 1329              	.LFE159:
 1330              		.size	otg_txfifo_flush.clone.3, .-otg_txfifo_flush.clone.3
 1331 0016 00BFAFF3 		.section	.text.usb_lld_init,"ax",%progbits
 1331      0080AFF3 
 1331      0080
 1332              		.align	2
 1333              		.p2align 4,,15
 1334              		.global	usb_lld_init
 1335              		.thumb
 1336              		.thumb_func
 1337              		.type	usb_lld_init, %function
 1338              	usb_lld_init:
 1339              	.LFB138:
 1340              		.loc 1 818 0
 1341              		.cfi_startproc
 1342              		@ args = 0, pretend = 0, frame = 0
 1343              		@ frame_needed = 0, uses_anonymous_args = 0
 1344 0000 10B5     		push	{r4, lr}
 1345              	.LCFI3:
 1346              		.cfi_def_cfa_offset 8
 1347              		.loc 1 822 0
 1348 0002 064C     		ldr	r4, .L142
 1349              		.cfi_offset 14, -4
 1350              		.cfi_offset 4, -8
 1351 0004 2046     		mov	r0, r4
 1352 0006 FFF7FEFF 		bl	usbObjectInit
 1353              		.loc 1 826 0
 1354 000a 054B     		ldr	r3, .L142+4
 1355              		.loc 1 823 0
 1356 000c 0021     		movs	r1, #0
 1357              		.loc 1 825 0
 1358 000e 4FF0A040 		mov	r0, #1342177280
 1359              		.loc 1 823 0
 1360 0012 2166     		str	r1, [r4, #96]
 1361              		.loc 1 824 0
ARM GAS  C:\Users\DNIEL~1\AppData\Local\Temp\cccPEDO0.s 			page 25


 1362 0014 6166     		str	r1, [r4, #100]
 1363              		.loc 1 825 0
 1364 0016 2065     		str	r0, [r4, #80]
 1365              		.loc 1 826 0
 1366 0018 6365     		str	r3, [r4, #84]
 1367              		.loc 1 864 0
 1368 001a 10BD     		pop	{r4, pc}
 1369              	.L143:
 1370              		.align	2
 1371              	.L142:
 1372 001c 00000000 		.word	.LANCHOR0
 1373 0020 00000000 		.word	.LANCHOR1
 1374              		.cfi_endproc
 1375              	.LFE138:
 1376              		.size	usb_lld_init, .-usb_lld_init
 1377 0024 AFF30080 		.section	.text.usb_lld_start,"ax",%progbits
 1377      AFF30080 
 1377      AFF30080 
 1378              		.align	2
 1379              		.p2align 4,,15
 1380              		.global	usb_lld_start
 1381              		.thumb
 1382              		.thumb_func
 1383              		.type	usb_lld_start, %function
 1384              	usb_lld_start:
 1385              	.LFB139:
 1386              		.loc 1 876 0
 1387              		.cfi_startproc
 1388              		@ args = 0, pretend = 0, frame = 0
 1389              		@ frame_needed = 0, uses_anonymous_args = 0
 1390              	.LVL145:
 1391 0000 70B5     		push	{r4, r5, r6, lr}
 1392              	.LCFI4:
 1393              		.cfi_def_cfa_offset 16
 1394              		.loc 1 879 0
 1395 0002 0378     		ldrb	r3, [r0, #0]	@ zero_extendqisi2
 1396              		.loc 1 877 0
 1397 0004 056D     		ldr	r5, [r0, #80]
 1398              		.cfi_offset 14, -4
 1399              		.cfi_offset 6, -8
 1400              		.cfi_offset 5, -12
 1401              		.cfi_offset 4, -16
 1402              	.LVL146:
 1403              		.loc 1 879 0
 1404 0006 012B     		cmp	r3, #1
 1405              		.loc 1 876 0
 1406 0008 82B0     		sub	sp, sp, #8
 1407              	.LCFI5:
 1408              		.cfi_def_cfa_offset 24
 1409              		.loc 1 876 0
 1410 000a 0446     		mov	r4, r0
 1411              		.loc 1 879 0
 1412 000c 01D0     		beq	.L154
 1413              	.LVL147:
 1414              	.L144:
 1415              		.loc 1 962 0
 1416 000e 02B0     		add	sp, sp, #8
ARM GAS  C:\Users\DNIEL~1\AppData\Local\Temp\cccPEDO0.s 			page 26


 1417 0010 70BD     		pop	{r4, r5, r6, pc}
 1418              	.L154:
 1419              		.loc 1 882 0
 1420 0012 2E49     		ldr	r1, .L158
 1421 0014 8842     		cmp	r0, r1
 1422 0016 49D0     		beq	.L155
 1423              	.L146:
 1424              		.loc 1 911 0
 1425 0018 266E     		ldr	r6, [r4, #96]
 1426              		.loc 1 910 0
 1427 001a 0023     		movs	r3, #0
 1428 001c E365     		str	r3, [r4, #92]
 1429              		.loc 1 911 0
 1430 001e 002E     		cmp	r6, #0
 1431 0020 38D0     		beq	.L156
 1432              	.L147:
 1433              		.loc 1 921 0
 1434 0022 2B4B     		ldr	r3, .L158+4
 1435              		.loc 1 924 0
 1436 0024 2B4E     		ldr	r6, .L158+8
 1437              		.loc 1 921 0
 1438 0026 EB60     		str	r3, [r5, #12]
 1439              		.loc 1 927 0
 1440 0028 0022     		movs	r2, #0
 1441              		.loc 1 934 0
 1442 002a 4FF45021 		mov	r1, #851968
 1443              		.loc 1 924 0
 1444 002e C5F80068 		str	r6, [r5, #2048]
 1445              	.LBB216:
 1446              	.LBB217:
 1447              		.loc 1 134 0
 1448 0032 2020     		movs	r0, #32
 1449              	.LBE217:
 1450              	.LBE216:
 1451              		.loc 1 1350 0
 1452 0034 266D     		ldr	r6, [r4, #80]
 1453              	.LVL148:
 1454              		.loc 1 927 0
 1455 0036 C5F8002E 		str	r2, [r5, #3584]
 1456              		.loc 1 934 0
 1457 003a A963     		str	r1, [r5, #56]
 1458              	.LBB219:
 1459              	.LBB218:
 1460              		.loc 1 134 0
 1461 003c FFF7FEFF 		bl	halPolledDelay
 1462              	.LVL149:
 1463              		.loc 1 137 0
 1464 0040 0120     		movs	r0, #1
 1465 0042 3061     		str	r0, [r6, #16]
 1466              	.L148:
 1467              		.loc 1 138 0
 1468 0044 3069     		ldr	r0, [r6, #16]
 1469 0046 10F0010F 		tst	r0, #1
 1470 004a FBD1     		bne	.L148
 1471              		.loc 1 141 0
 1472 004c 0C20     		movs	r0, #12
 1473 004e FFF7FEFF 		bl	halPolledDelay
ARM GAS  C:\Users\DNIEL~1\AppData\Local\Temp\cccPEDO0.s 			page 27


 1474              	.L149:
 1475              		.loc 1 144 0
 1476 0052 3169     		ldr	r1, [r6, #16]
 1477 0054 0029     		cmp	r1, #0
 1478 0056 FCDA     		bge	.L149
 1479              	.LBE218:
 1480              	.LBE219:
 1481              		.loc 1 941 0
 1482 0058 0026     		movs	r6, #0
 1483              	.LVL150:
 1484 005a AE60     		str	r6, [r5, #8]
 1485              		.loc 1 944 0
 1486 005c 206D     		ldr	r0, [r4, #80]
 1487 005e 616D     		ldr	r1, [r4, #84]
 1488 0060 FFF7FEFF 		bl	otg_disable_ep.clone.0
 1489              		.loc 1 951 0
 1490 0064 6368     		ldr	r3, [r4, #4]
 1491              		.loc 1 948 0
 1492 0066 C5F81068 		str	r6, [r5, #2064]
 1493              		.loc 1 951 0
 1494 006a DA68     		ldr	r2, [r3, #12]
 1495              		.loc 1 949 0
 1496 006c C5F81468 		str	r6, [r5, #2068]
 1497              		.loc 1 950 0
 1498 0070 C5F81C68 		str	r6, [r5, #2076]
 1499              		.loc 1 951 0
 1500 0074 52B1     		cbz	r2, .L157
 1501              		.loc 1 955 0
 1502 0076 43F20801 		movw	r1, #12296
 1503 007a A961     		str	r1, [r5, #24]
 1504              	.L151:
 1505              		.loc 1 957 0
 1506 007c 4FF0FF30 		mov	r0, #-1
 1507 0080 6861     		str	r0, [r5, #20]
 1508              		.loc 1 960 0
 1509 0082 AB68     		ldr	r3, [r5, #8]
 1510 0084 43F00102 		orr	r2, r3, #1
 1511 0088 AA60     		str	r2, [r5, #8]
 1512 008a C0E7     		b	.L144
 1513              	.L157:
 1514              		.loc 1 952 0
 1515 008c 4FF44050 		mov	r0, #12288
 1516 0090 A861     		str	r0, [r5, #24]
 1517 0092 F3E7     		b	.L151
 1518              	.L156:
 1519              		.loc 1 912 0
 1520 0094 04F16800 		add	r0, r4, #104
 1521 0098 4FF4A871 		mov	r1, #336
 1522 009c 0222     		movs	r2, #2
 1523 009e 0E4B     		ldr	r3, .L158+12
 1524 00a0 0094     		str	r4, [sp, #0]
 1525 00a2 FFF7FEFF 		bl	chThdCreateI
 1526 00a6 6066     		str	r0, [r4, #100]
 1527 00a8 2066     		str	r0, [r4, #96]
 1528 00aa BAE7     		b	.L147
 1529              	.L155:
 1530              		.loc 1 884 0
ARM GAS  C:\Users\DNIEL~1\AppData\Local\Temp\cccPEDO0.s 			page 28


 1531 00ac 0B4E     		ldr	r6, .L158+16
 1532 00ae 726B     		ldr	r2, [r6, #52]
 1533 00b0 42F08001 		orr	r1, r2, #128
 1534 00b4 7163     		str	r1, [r6, #52]
 1535              		.loc 1 885 0
 1536 00b6 7069     		ldr	r0, [r6, #20]
 1537 00b8 0022     		movs	r2, #0
 1538 00ba 40F08003 		orr	r3, r0, #128
 1539 00be 7361     		str	r3, [r6, #20]
 1540              		.loc 1 888 0
 1541 00c0 4320     		movs	r0, #67
 1542 00c2 E021     		movs	r1, #224
 1543              		.loc 1 885 0
 1544 00c4 7261     		str	r2, [r6, #20]
 1545              		.loc 1 888 0
 1546 00c6 FFF7FEFF 		bl	nvicEnableVector
 1547 00ca A5E7     		b	.L146
 1548              	.L159:
 1549              		.align	2
 1550              	.L158:
 1551 00cc 00000000 		.word	.LANCHOR0
 1552 00d0 40140040 		.word	1073747008
 1553 00d4 03002002 		.word	35651587
 1554 00d8 00000000 		.word	usb_lld_pump
 1555 00dc 00380240 		.word	1073887232
 1556              		.cfi_endproc
 1557              	.LFE139:
 1558              		.size	usb_lld_start, .-usb_lld_start
 1559              		.section	.text.usb_lld_stop,"ax",%progbits
 1560              		.align	2
 1561              		.p2align 4,,15
 1562              		.global	usb_lld_stop
 1563              		.thumb
 1564              		.thumb_func
 1565              		.type	usb_lld_stop, %function
 1566              	usb_lld_stop:
 1567              	.LFB140:
 1568              		.loc 1 971 0
 1569              		.cfi_startproc
 1570              		@ args = 0, pretend = 0, frame = 0
 1571              		@ frame_needed = 0, uses_anonymous_args = 0
 1572              	.LVL151:
 1573 0000 38B5     		push	{r3, r4, r5, lr}
 1574              	.LCFI6:
 1575              		.cfi_def_cfa_offset 16
 1576              		.loc 1 975 0
 1577 0002 0378     		ldrb	r3, [r0, #0]	@ zero_extendqisi2
 1578              		.cfi_offset 14, -4
 1579              		.cfi_offset 5, -8
 1580              		.cfi_offset 4, -12
 1581              		.cfi_offset 3, -16
 1582              		.loc 1 972 0
 1583 0004 056D     		ldr	r5, [r0, #80]
 1584              	.LVL152:
 1585              		.loc 1 975 0
 1586 0006 012B     		cmp	r3, #1
 1587              		.loc 1 971 0
ARM GAS  C:\Users\DNIEL~1\AppData\Local\Temp\cccPEDO0.s 			page 29


 1588 0008 0446     		mov	r4, r0
 1589              		.loc 1 975 0
 1590 000a 09D0     		beq	.L160
 1591              	.LVL153:
 1592              		.loc 1 979 0
 1593 000c 2846     		mov	r0, r5
 1594              	.LVL154:
 1595 000e 616D     		ldr	r1, [r4, #84]
 1596 0010 FFF7FEFF 		bl	otg_disable_ep.clone.0
 1597              	.LVL155:
 1598              		.loc 1 981 0
 1599 0014 0020     		movs	r0, #0
 1600 0016 E065     		str	r0, [r4, #92]
 1601              		.loc 1 983 0
 1602 0018 C5F81C08 		str	r0, [r5, #2076]
 1603              		.loc 1 984 0
 1604 001c A860     		str	r0, [r5, #8]
 1605              		.loc 1 985 0
 1606 001e A863     		str	r0, [r5, #56]
 1607              	.L160:
 1608 0020 38BD     		pop	{r3, r4, r5, pc}
 1609              		.cfi_endproc
 1610              	.LFE140:
 1611              		.size	usb_lld_stop, .-usb_lld_stop
 1612 0022 00BFAFF3 		.section	.text.usb_lld_reset,"ax",%progbits
 1612      0080AFF3 
 1612      0080AFF3 
 1612      0080
 1613              		.align	2
 1614              		.p2align 4,,15
 1615              		.global	usb_lld_reset
 1616              		.thumb
 1617              		.thumb_func
 1618              		.type	usb_lld_reset, %function
 1619              	usb_lld_reset:
 1620              	.LFB141:
 1621              		.loc 1 1010 0
 1622              		.cfi_startproc
 1623              		@ args = 0, pretend = 0, frame = 0
 1624              		@ frame_needed = 0, uses_anonymous_args = 0
 1625              	.LVL156:
 1626 0000 2DE9F84F 		push	{r3, r4, r5, r6, r7, r8, r9, sl, fp, lr}
 1627              	.LCFI7:
 1628              		.cfi_def_cfa_offset 40
 1629              		.loc 1 1012 0
 1630 0004 046D     		ldr	r4, [r0, #80]
 1631              		.cfi_offset 14, -4
 1632              		.cfi_offset 11, -8
 1633              		.cfi_offset 10, -12
 1634              		.cfi_offset 9, -16
 1635              		.cfi_offset 8, -20
 1636              		.cfi_offset 7, -24
 1637              		.cfi_offset 6, -28
 1638              		.cfi_offset 5, -32
 1639              		.cfi_offset 4, -36
 1640              		.cfi_offset 3, -40
 1641              	.LVL157:
ARM GAS  C:\Users\DNIEL~1\AppData\Local\Temp\cccPEDO0.s 			page 30


 1642              		.loc 1 1010 0
 1643 0006 0546     		mov	r5, r0
 1644              		.loc 1 1015 0
 1645 0008 0021     		movs	r1, #0
 1646 000a 2046     		mov	r0, r4
 1647              	.LVL158:
 1648 000c FFF7FEFF 		bl	otg_txfifo_flush.clone.3
 1649              	.LVL159:
 1650 0010 D5F854B0 		ldr	fp, [r5, #84]
 1651              		.loc 1 1019 0
 1652 0014 04F51060 		add	r0, r4, #2304
 1653              		.loc 1 1020 0
 1654 0018 04F53063 		add	r3, r4, #2816
 1655              		.loc 1 1019 0
 1656 001c 4FF00061 		mov	r1, #134217728
 1657              		.loc 1 1015 0
 1658 0020 DBF808A0 		ldr	sl, [fp, #8]
 1659              		.loc 1 1019 0
 1660 0024 40F8081B 		str	r1, [r0], #8
 1661              		.loc 1 1020 0
 1662 0028 43F8081B 		str	r1, [r3], #8
 1663              		.loc 1 1021 0
 1664 002c FF22     		movs	r2, #255
 1665 002e 0260     		str	r2, [r0, #0]
 1666              		.loc 1 1022 0
 1667 0030 1A60     		str	r2, [r3, #0]
 1668 0032 0AF00100 		and	r0, sl, #1
 1669              		.loc 1 1018 0
 1670 0036 0123     		movs	r3, #1
 1671              	.LVL160:
 1672 0038 BAF1000F 		cmp	sl, #0
 1673 003c 35D0     		beq	.L172
 1674 003e 68B1     		cbz	r0, .L163
 1675              		.loc 1 1021 0
 1676 0040 04F51266 		add	r6, r4, #2336
 1677              		.loc 1 1022 0
 1678 0044 04F5326E 		add	lr, r4, #2848
 1679              		.loc 1 1018 0
 1680 0048 0223     		movs	r3, #2
 1681 004a 9A45     		cmp	sl, r3
 1682              		.loc 1 1019 0
 1683 004c 3160     		str	r1, [r6, #0]
 1684              		.loc 1 1020 0
 1685 004e CEF80010 		str	r1, [lr, #0]
 1686              		.loc 1 1021 0
 1687 0052 C4F82829 		str	r2, [r4, #2344]
 1688              		.loc 1 1022 0
 1689 0056 C4F8282B 		str	r2, [r4, #2856]
 1690              		.loc 1 1018 0
 1691 005a 26D3     		bcc	.L172
 1692              	.L163:
 1693              		.loc 1 1018 0 is_stmt 0 discriminator 2
 1694 005c 5F1C     		adds	r7, r3, #1
 1695              		.loc 1 1021 0 is_stmt 1 discriminator 2
 1696 005e 5E01     		lsls	r6, r3, #5
 1697              		.loc 1 1019 0 discriminator 2
 1698 0060 03F1490E 		add	lr, r3, #73
ARM GAS  C:\Users\DNIEL~1\AppData\Local\Temp\cccPEDO0.s 			page 31


 1699 0064 03F14809 		add	r9, r3, #72
 1700              		.loc 1 1020 0 discriminator 2
 1701 0068 03F15808 		add	r8, r3, #88
 1702              		.loc 1 1021 0 discriminator 2
 1703 006c 7801     		lsls	r0, r7, #5
 1704              		.loc 1 1020 0 discriminator 2
 1705 006e 5933     		adds	r3, r3, #89
 1706              		.loc 1 1021 0 discriminator 2
 1707 0070 A619     		adds	r6, r4, r6
 1708 0072 2018     		adds	r0, r4, r0
 1709              		.loc 1 1019 0 discriminator 2
 1710 0074 4FEA4E1C 		lsl	ip, lr, #5
 1711 0078 4FEA4919 		lsl	r9, r9, #5
 1712              		.loc 1 1020 0 discriminator 2
 1713 007c 4FEA431E 		lsl	lr, r3, #5
 1714 0080 4FEA4818 		lsl	r8, r8, #5
 1715              		.loc 1 1018 0 discriminator 2
 1716 0084 7B1C     		adds	r3, r7, #1
 1717 0086 9A45     		cmp	sl, r3
 1718              		.loc 1 1019 0 discriminator 2
 1719 0088 44F80910 		str	r1, [r4, r9]
 1720              		.loc 1 1020 0 discriminator 2
 1721 008c 44F80810 		str	r1, [r4, r8]
 1722              		.loc 1 1021 0 discriminator 2
 1723 0090 C6F80829 		str	r2, [r6, #2312]
 1724              		.loc 1 1022 0 discriminator 2
 1725 0094 C6F8082B 		str	r2, [r6, #2824]
 1726              		.loc 1 1019 0 discriminator 2
 1727 0098 44F80C10 		str	r1, [r4, ip]
 1728              		.loc 1 1020 0 discriminator 2
 1729 009c 44F80E10 		str	r1, [r4, lr]
 1730              		.loc 1 1021 0 discriminator 2
 1731 00a0 C0F80829 		str	r2, [r0, #2312]
 1732              		.loc 1 1022 0 discriminator 2
 1733 00a4 C0F8082B 		str	r2, [r0, #2824]
 1734              		.loc 1 1018 0 discriminator 2
 1735 00a8 D8D2     		bcs	.L163
 1736              	.L172:
 1737              	.LBB220:
 1738              	.LBB221:
 1739              		.loc 1 214 0
 1740 00aa DBF80070 		ldr	r7, [fp, #0]
 1741              	.LBE221:
 1742              	.LBE220:
 1743              		.loc 1 1350 0
 1744 00ae 2B6D     		ldr	r3, [r5, #80]
 1745              	.LVL161:
 1746              		.loc 1 1026 0
 1747 00b0 4FF0FF30 		mov	r0, #-1
 1748              		.loc 1 1027 0
 1749 00b4 4FF00111 		mov	r1, #65537
 1750              	.LBB223:
 1751              	.LBB224:
 1752              		.loc 1 188 0
 1753 00b8 1022     		movs	r2, #16
 1754              	.LBE224:
 1755              	.LBE223:
ARM GAS  C:\Users\DNIEL~1\AppData\Local\Temp\cccPEDO0.s 			page 32


 1756              		.loc 1 1026 0
 1757 00ba C4F81808 		str	r0, [r4, #2072]
 1758              		.loc 1 1027 0
 1759 00be C4F81C18 		str	r1, [r4, #2076]
 1760              	.LBB226:
 1761              	.LBB222:
 1762              		.loc 1 214 0
 1763 00c2 AF65     		str	r7, [r5, #88]
 1764              	.LBE222:
 1765              	.LBE226:
 1766              		.loc 1 1033 0
 1767 00c4 6762     		str	r7, [r4, #36]
 1768              	.LBB227:
 1769              	.LBB225:
 1770              		.loc 1 188 0
 1771 00c6 1A61     		str	r2, [r3, #16]
 1772              	.L164:
 1773              		.loc 1 189 0
 1774 00c8 1E69     		ldr	r6, [r3, #16]
 1775 00ca 16F01006 		ands	r6, r6, #16
 1776 00ce FBD1     		bne	.L164
 1777              		.loc 1 192 0
 1778 00d0 0C20     		movs	r0, #12
 1779 00d2 FFF7FEFF 		bl	halPolledDelay
 1780              	.LVL162:
 1781              	.LBE225:
 1782              	.LBE227:
 1783              		.loc 1 1037 0
 1784 00d6 D4F80028 		ldr	r2, [r4, #2048]
 1785              	.LBB228:
 1786              	.LBB230:
 1787              		.loc 1 228 0
 1788 00da A96D     		ldr	r1, [r5, #88]
 1789              	.LBE230:
 1790              	.LBE228:
 1791              		.loc 1 1047 0
 1792 00dc 104B     		ldr	r3, .L173
 1793              		.loc 1 1037 0
 1794 00de 22F4FE60 		bic	r0, r2, #2032
 1795 00e2 C4F80008 		str	r0, [r4, #2048]
 1796              		.loc 1 1040 0
 1797 00e6 A769     		ldr	r7, [r4, #24]
 1798 00e8 47F4402C 		orr	ip, r7, #786432
 1799              		.loc 1 1041 0
 1800 00ec 0922     		movs	r2, #9
 1801              		.loc 1 1040 0
 1802 00ee 4CF01007 		orr	r7, ip, #16
 1803 00f2 A761     		str	r7, [r4, #24]
 1804              		.loc 1 1041 0
 1805 00f4 C4F81028 		str	r2, [r4, #2064]
 1806              		.loc 1 1042 0
 1807 00f8 C4F81428 		str	r2, [r4, #2068]
 1808              		.loc 1 1045 0
 1809 00fc 094A     		ldr	r2, .L173+4
 1810              	.LBB232:
 1811              	.LBB229:
 1812              		.loc 1 229 0
ARM GAS  C:\Users\DNIEL~1\AppData\Local\Temp\cccPEDO0.s 			page 33


 1813 00fe 01F11000 		add	r0, r1, #16
 1814              	.LBE229:
 1815              	.LBE232:
 1816              		.loc 1 1052 0
 1817 0102 41F48011 		orr	r1, r1, #1048576
 1818              		.loc 1 1045 0
 1819 0106 EA60     		str	r2, [r5, #12]
 1820              		.loc 1 1046 0
 1821 0108 C4F8106B 		str	r6, [r4, #2832]
 1822              		.loc 1 1047 0
 1823 010c C4F8003B 		str	r3, [r4, #2816]
 1824              		.loc 1 1049 0
 1825 0110 C4F81069 		str	r6, [r4, #2320]
 1826              		.loc 1 1050 0
 1827 0114 C4F80039 		str	r3, [r4, #2304]
 1828              	.LVL163:
 1829              	.LBB233:
 1830              	.LBB231:
 1831              		.loc 1 229 0
 1832 0118 A865     		str	r0, [r5, #88]
 1833              	.LBE231:
 1834              	.LBE233:
 1835              		.loc 1 1052 0
 1836 011a A162     		str	r1, [r4, #40]
 1837              		.loc 1 1055 0
 1838 011c BDE8F88F 		pop	{r3, r4, r5, r6, r7, r8, r9, sl, fp, pc}
 1839              	.L174:
 1840              		.align	2
 1841              	.L173:
 1842 0120 40800010 		.word	268468288
 1843 0124 00000000 		.word	.LANCHOR2
 1844              		.cfi_endproc
 1845              	.LFE141:
 1846              		.size	usb_lld_reset, .-usb_lld_reset
 1847 0128 AFF30080 		.section	.text.usb_lld_set_address,"ax",%progbits
 1847      AFF30080 
 1848              		.align	2
 1849              		.p2align 4,,15
 1850              		.global	usb_lld_set_address
 1851              		.thumb
 1852              		.thumb_func
 1853              		.type	usb_lld_set_address, %function
 1854              	usb_lld_set_address:
 1855              	.LFB142:
 1856              		.loc 1 1064 0
 1857              		.cfi_startproc
 1858              		@ args = 0, pretend = 0, frame = 0
 1859              		@ frame_needed = 0, uses_anonymous_args = 0
 1860              		@ link register save eliminated.
 1861              	.LVL164:
 1862              		.loc 1 1065 0
 1863 0000 036D     		ldr	r3, [r0, #80]
 1864              	.LVL165:
 1865              		.loc 1 1067 0
 1866 0002 90F84E10 		ldrb	r1, [r0, #78]	@ zero_extendqisi2
 1867 0006 D3F80028 		ldr	r2, [r3, #2048]
 1868 000a 22F4FE60 		bic	r0, r2, #2032
ARM GAS  C:\Users\DNIEL~1\AppData\Local\Temp\cccPEDO0.s 			page 34


 1869              	.LVL166:
 1870 000e 40EA0112 		orr	r2, r0, r1, lsl #4
 1871 0012 C3F80028 		str	r2, [r3, #2048]
 1872              		.loc 1 1068 0
 1873 0016 7047     		bx	lr
 1874              		.cfi_endproc
 1875              	.LFE142:
 1876              		.size	usb_lld_set_address, .-usb_lld_set_address
 1877 0018 AFF30080 		.section	.text.usb_lld_init_endpoint,"ax",%progbits
 1877      AFF30080 
 1878              		.align	2
 1879              		.p2align 4,,15
 1880              		.global	usb_lld_init_endpoint
 1881              		.thumb
 1882              		.thumb_func
 1883              		.type	usb_lld_init_endpoint, %function
 1884              	usb_lld_init_endpoint:
 1885              	.LFB143:
 1886              		.loc 1 1078 0
 1887              		.cfi_startproc
 1888              		@ args = 0, pretend = 0, frame = 0
 1889              		@ frame_needed = 0, uses_anonymous_args = 0
 1890              	.LVL167:
 1891 0000 2DE9F041 		push	{r4, r5, r6, r7, r8, lr}
 1892              	.LCFI8:
 1893              		.cfi_def_cfa_offset 24
 1894              		.loc 1 1083 0
 1895 0004 8F1C     		adds	r7, r1, #2
 1896              		.cfi_offset 14, -4
 1897              		.cfi_offset 8, -8
 1898              		.cfi_offset 7, -12
 1899              		.cfi_offset 6, -16
 1900              		.cfi_offset 5, -20
 1901              		.cfi_offset 4, -24
 1902 0006 00EB8703 		add	r3, r0, r7, lsl #2
 1903              		.loc 1 1078 0
 1904 000a 0D46     		mov	r5, r1
 1905              		.loc 1 1083 0
 1906 000c 5B68     		ldr	r3, [r3, #4]
 1907              		.loc 1 1080 0
 1908 000e 046D     		ldr	r4, [r0, #80]
 1909              	.LVL168:
 1910              		.loc 1 1083 0
 1911 0010 1A68     		ldr	r2, [r3, #0]
 1912 0012 02F00302 		and	r2, r2, #3
 1913 0016 022A     		cmp	r2, #2
 1914              		.loc 1 1078 0
 1915 0018 0646     		mov	r6, r0
 1916              		.loc 1 1083 0
 1917 001a 5AD0     		beq	.L179
 1918 001c 032A     		cmp	r2, #3
 1919 001e 77D0     		beq	.L180
 1920              		.loc 1 1085 0
 1921 0020 4B49     		ldr	r1, .L188
 1922              	.LVL169:
 1923 0022 4C48     		ldr	r0, .L188+4
 1924              	.LVL170:
ARM GAS  C:\Users\DNIEL~1\AppData\Local\Temp\cccPEDO0.s 			page 35


 1925 0024 012A     		cmp	r2, #1
 1926 0026 0CBF     		ite	eq
 1927 0028 8046     		moveq	r8, r0
 1928 002a 8846     		movne	r8, r1
 1929              	.L178:
 1930              	.LVL171:
 1931              		.loc 1 1101 0
 1932 002c 6A01     		lsls	r2, r5, #5
 1933 002e 04EB020C 		add	ip, r4, r2
 1934              		.loc 1 1102 0
 1935 0032 D968     		ldr	r1, [r3, #12]
 1936              		.loc 1 1101 0
 1937 0034 4FF0000E 		mov	lr, #0
 1938 0038 CCF810EB 		str	lr, [ip, #2832]
 1939              		.loc 1 1102 0
 1940 003c 0029     		cmp	r1, #0
 1941 003e 54D0     		beq	.L181
 1942              	.L187:
 1943              		.loc 1 1103 0
 1944 0040 B3F812C0 		ldrh	ip, [r3, #18]
 1945 0044 05F15800 		add	r0, r5, #88
 1946 0048 4101     		lsls	r1, r0, #5
 1947 004a 48EA0C00 		orr	r0, r8, ip
 1948 004e 6050     		str	r0, [r4, r1]
 1949              		.loc 1 1104 0
 1950 0050 05F1100C 		add	ip, r5, #16
 1951 0054 D4F81C08 		ldr	r0, [r4, #2076]
 1952 0058 4FF0010E 		mov	lr, #1
 1953 005c 0EFA0CF1 		lsl	r1, lr, ip
 1954 0060 41EA0000 		orr	r0, r1, r0
 1955 0064 C4F81C08 		str	r0, [r4, #2076]
 1956              	.L182:
 1957              		.loc 1 1112 0
 1958 0068 A218     		adds	r2, r4, r2
 1959              		.loc 1 1113 0
 1960 006a 9968     		ldr	r1, [r3, #8]
 1961              		.loc 1 1112 0
 1962 006c 0020     		movs	r0, #0
 1963 006e C2F81009 		str	r0, [r2, #2320]
 1964              		.loc 1 1113 0
 1965 0072 0029     		cmp	r1, #0
 1966 0074 4FD0     		beq	.L183
 1967              		.loc 1 1116 0
 1968 0076 B3F81CE0 		ldrh	lr, [r3, #28]
 1969              		.loc 1 1115 0
 1970 007a 1A8A     		ldrh	r2, [r3, #16]
 1971              	.LBB234:
 1972              	.LBB236:
 1973              		.loc 1 228 0
 1974 007c B16D     		ldr	r1, [r6, #88]
 1975              	.LBE236:
 1976              	.LBE234:
 1977              		.loc 1 1115 0
 1978 007e 9008     		lsrs	r0, r2, #2
 1979              	.LVL172:
 1980              		.loc 1 1116 0
 1981 0080 BEF1010F 		cmp	lr, #1
ARM GAS  C:\Users\DNIEL~1\AppData\Local\Temp\cccPEDO0.s 			page 36


 1982              		.loc 1 1117 0
 1983 0084 88BF     		it	hi
 1984 0086 0EFB00F0 		mulhi	r0, lr, r0
 1985              	.LVL173:
 1986              		.loc 1 1118 0
 1987 008a 05F13F0C 		add	ip, r5, #63
 1988              	.LBB238:
 1989              	.LBB235:
 1990              		.loc 1 229 0
 1991 008e 4318     		adds	r3, r0, r1
 1992              	.LBE235:
 1993              	.LBE238:
 1994              		.loc 1 1118 0
 1995 0090 04EB8C0E 		add	lr, r4, ip, lsl #2
 1996 0094 41EA0042 		orr	r2, r1, r0, lsl #16
 1997              	.LBB239:
 1998              	.LBB237:
 1999              		.loc 1 229 0
 2000 0098 B365     		str	r3, [r6, #88]
 2001              	.LBE237:
 2002              	.LBE239:
 2003              		.loc 1 1124 0
 2004 009a 06EB8706 		add	r6, r6, r7, lsl #2
 2005              	.LVL174:
 2006              		.loc 1 1120 0
 2007 009e 2946     		mov	r1, r5
 2008              	.LVL175:
 2009 00a0 2046     		mov	r0, r4
 2010              	.LVL176:
 2011              		.loc 1 1118 0
 2012 00a2 CEF80420 		str	r2, [lr, #4]
 2013              		.loc 1 1120 0
 2014 00a6 FFF7FEFF 		bl	otg_txfifo_flush.clone.3
 2015              		.loc 1 1124 0
 2016 00aa 7068     		ldr	r0, [r6, #4]
 2017              		.loc 1 1123 0
 2018 00ac 028A     		ldrh	r2, [r0, #16]
 2019              		.loc 1 1122 0
 2020 00ae 05F14801 		add	r1, r5, #72
 2021 00b2 4B01     		lsls	r3, r1, #5
 2022 00b4 42EA855C 		orr	ip, r2, r5, lsl #22
 2023              		.loc 1 1123 0
 2024 00b8 4CEA0800 		orr	r0, ip, r8
 2025              		.loc 1 1122 0
 2026 00bc E050     		str	r0, [r4, r3]
 2027              		.loc 1 1125 0
 2028 00be 0121     		movs	r1, #1
 2029 00c0 D4F81C38 		ldr	r3, [r4, #2076]
 2030 00c4 11FA05F5 		lsls	r5, r1, r5
 2031 00c8 1D43     		orrs	r5, r5, r3
 2032 00ca C4F81C58 		str	r5, [r4, #2076]
 2033 00ce BDE8F081 		pop	{r4, r5, r6, r7, r8, pc}
 2034              	.LVL177:
 2035              	.L179:
 2036              		.loc 1 1101 0
 2037 00d2 6A01     		lsls	r2, r5, #5
 2038 00d4 04EB020C 		add	ip, r4, r2
ARM GAS  C:\Users\DNIEL~1\AppData\Local\Temp\cccPEDO0.s 			page 37


 2039              		.loc 1 1102 0
 2040 00d8 D968     		ldr	r1, [r3, #12]
 2041              	.LVL178:
 2042              		.loc 1 1091 0
 2043 00da DFF88080 		ldr	r8, .L188+12
 2044              	.LVL179:
 2045              		.loc 1 1101 0
 2046 00de 4FF0000E 		mov	lr, #0
 2047 00e2 CCF810EB 		str	lr, [ip, #2832]
 2048              		.loc 1 1102 0
 2049 00e6 0029     		cmp	r1, #0
 2050 00e8 AAD1     		bne	.L187
 2051              	.LVL180:
 2052              	.L181:
 2053              		.loc 1 1107 0
 2054 00ea 05F15801 		add	r1, r5, #88
 2055 00ee 4901     		lsls	r1, r1, #5
 2056              		.loc 1 1108 0
 2057 00f0 05F1100C 		add	ip, r5, #16
 2058              		.loc 1 1107 0
 2059 00f4 6058     		ldr	r0, [r4, r1]
 2060 00f6 20F40040 		bic	r0, r0, #32768
 2061 00fa 6050     		str	r0, [r4, r1]
 2062              		.loc 1 1108 0
 2063 00fc 0121     		movs	r1, #1
 2064 00fe D4F81C08 		ldr	r0, [r4, #2076]
 2065 0102 01FA0CFE 		lsl	lr, r1, ip
 2066 0106 20EA0E01 		bic	r1, r0, lr
 2067 010a C4F81C18 		str	r1, [r4, #2076]
 2068 010e ABE7     		b	.L182
 2069              	.LVL181:
 2070              	.L180:
 2071              		.loc 1 1094 0
 2072 0110 DFF84C80 		ldr	r8, .L188+16
 2073              		.loc 1 1095 0
 2074 0114 8AE7     		b	.L178
 2075              	.LVL182:
 2076              	.L183:
 2077              		.loc 1 1128 0
 2078 0116 05F13F0E 		add	lr, r5, #63
 2079 011a 04EB8E0C 		add	ip, r4, lr, lsl #2
 2080 011e 0E49     		ldr	r1, .L188+8
 2081              		.loc 1 1129 0
 2082 0120 2046     		mov	r0, r4
 2083              		.loc 1 1128 0
 2084 0122 CCF80410 		str	r1, [ip, #4]
 2085              		.loc 1 1129 0
 2086 0126 2946     		mov	r1, r5
 2087 0128 FFF7FEFF 		bl	otg_txfifo_flush.clone.3
 2088              		.loc 1 1130 0
 2089 012c 05F14800 		add	r0, r5, #72
 2090 0130 4301     		lsls	r3, r0, #5
 2091              		.loc 1 1131 0
 2092 0132 0120     		movs	r0, #1
 2093              		.loc 1 1130 0
 2094 0134 E258     		ldr	r2, [r4, r3]
 2095 0136 22F40041 		bic	r1, r2, #32768
ARM GAS  C:\Users\DNIEL~1\AppData\Local\Temp\cccPEDO0.s 			page 38


 2096 013a E150     		str	r1, [r4, r3]
 2097              		.loc 1 1131 0
 2098 013c D4F81C38 		ldr	r3, [r4, #2076]
 2099 0140 10FA05F5 		lsls	r5, r0, r5
 2100 0144 23EA0505 		bic	r5, r3, r5
 2101 0148 C4F81C58 		str	r5, [r4, #2076]
 2102 014c BDE8F081 		pop	{r4, r5, r6, r7, r8, pc}
 2103              	.L189:
 2104              		.align	2
 2105              	.L188:
 2106 0150 00800010 		.word	268468224
 2107 0154 00800410 		.word	268730368
 2108 0158 00040002 		.word	33555456
 2109 015c 00800810 		.word	268992512
 2110 0160 00800C10 		.word	269254656
 2111              		.cfi_endproc
 2112              	.LFE143:
 2113              		.size	usb_lld_init_endpoint, .-usb_lld_init_endpoint
 2114 0164 AFF30080 		.section	.text.usb_lld_disable_endpoints,"ax",%progbits
 2114      AFF30080 
 2114      AFF30080 
 2115              		.align	2
 2116              		.p2align 4,,15
 2117              		.global	usb_lld_disable_endpoints
 2118              		.thumb
 2119              		.thumb_func
 2120              		.type	usb_lld_disable_endpoints, %function
 2121              	usb_lld_disable_endpoints:
 2122              	.LFB144:
 2123              		.loc 1 1142 0
 2124              		.cfi_startproc
 2125              		@ args = 0, pretend = 0, frame = 0
 2126              		@ frame_needed = 0, uses_anonymous_args = 0
 2127              		@ link register save eliminated.
 2128              	.LVL183:
 2129              		.loc 1 1350 0
 2130 0000 416D     		ldr	r1, [r0, #84]
 2131              		.loc 1 1142 0
 2132 0002 0346     		mov	r3, r0
 2133              	.LBB240:
 2134              	.LBB241:
 2135              		.loc 1 214 0
 2136 0004 0A68     		ldr	r2, [r1, #0]
 2137              	.LBE241:
 2138              	.LBE240:
 2139              		.loc 1 1148 0
 2140 0006 006D     		ldr	r0, [r0, #80]
 2141              	.LVL184:
 2142              	.LBB243:
 2143              	.LBB242:
 2144              		.loc 1 214 0
 2145 0008 9A65     		str	r2, [r3, #88]
 2146              	.LBE242:
 2147              	.LBE243:
 2148              		.loc 1 1149 0
 2149              		.loc 1 1148 0
 2150 000a FFF7FEBF 		b	otg_disable_ep.clone.0
ARM GAS  C:\Users\DNIEL~1\AppData\Local\Temp\cccPEDO0.s 			page 39


 2151              		.cfi_endproc
 2152              	.LFE144:
 2153              		.size	usb_lld_disable_endpoints, .-usb_lld_disable_endpoints
 2154 000e 00BF     		.section	.text.usb_lld_get_status_out,"ax",%progbits
 2155              		.align	2
 2156              		.p2align 4,,15
 2157              		.global	usb_lld_get_status_out
 2158              		.thumb
 2159              		.thumb_func
 2160              		.type	usb_lld_get_status_out, %function
 2161              	usb_lld_get_status_out:
 2162              	.LFB145:
 2163              		.loc 1 1163 0
 2164              		.cfi_startproc
 2165              		@ args = 0, pretend = 0, frame = 0
 2166              		@ frame_needed = 0, uses_anonymous_args = 0
 2167              		@ link register save eliminated.
 2168              	.LVL185:
 2169              		.loc 1 1168 0
 2170 0000 5831     		adds	r1, r1, #88
 2171              	.LVL186:
 2172 0002 036D     		ldr	r3, [r0, #80]
 2173 0004 4901     		lsls	r1, r1, #5
 2174 0006 5B58     		ldr	r3, [r3, r1]
 2175              	.LVL187:
 2176              		.loc 1 1169 0
 2177 0008 13F40040 		ands	r0, r3, #32768
 2178              	.LVL188:
 2179 000c 04D0     		beq	.L192
 2180              		.loc 1 1171 0
 2181 000e 13F4001F 		tst	r3, #2097152
 2182              		.loc 1 1172 0
 2183 0012 0CBF     		ite	eq
 2184 0014 0220     		moveq	r0, #2
 2185 0016 0120     		movne	r0, #1
 2186              	.L192:
 2187              		.loc 1 1174 0
 2188 0018 7047     		bx	lr
 2189              		.cfi_endproc
 2190              	.LFE145:
 2191              		.size	usb_lld_get_status_out, .-usb_lld_get_status_out
 2192 001a 00BFAFF3 		.section	.text.usb_lld_get_status_in,"ax",%progbits
 2192      0080
 2193              		.align	2
 2194              		.p2align 4,,15
 2195              		.global	usb_lld_get_status_in
 2196              		.thumb
 2197              		.thumb_func
 2198              		.type	usb_lld_get_status_in, %function
 2199              	usb_lld_get_status_in:
 2200              	.LFB146:
 2201              		.loc 1 1188 0
 2202              		.cfi_startproc
 2203              		@ args = 0, pretend = 0, frame = 0
 2204              		@ frame_needed = 0, uses_anonymous_args = 0
 2205              		@ link register save eliminated.
 2206              	.LVL189:
ARM GAS  C:\Users\DNIEL~1\AppData\Local\Temp\cccPEDO0.s 			page 40


 2207              		.loc 1 1193 0
 2208 0000 4831     		adds	r1, r1, #72
 2209              	.LVL190:
 2210 0002 036D     		ldr	r3, [r0, #80]
 2211 0004 4901     		lsls	r1, r1, #5
 2212 0006 5B58     		ldr	r3, [r3, r1]
 2213              	.LVL191:
 2214              		.loc 1 1194 0
 2215 0008 13F40040 		ands	r0, r3, #32768
 2216              	.LVL192:
 2217 000c 04D0     		beq	.L196
 2218              		.loc 1 1196 0
 2219 000e 13F4001F 		tst	r3, #2097152
 2220              		.loc 1 1197 0
 2221 0012 0CBF     		ite	eq
 2222 0014 0220     		moveq	r0, #2
 2223 0016 0120     		movne	r0, #1
 2224              	.L196:
 2225              		.loc 1 1199 0
 2226 0018 7047     		bx	lr
 2227              		.cfi_endproc
 2228              	.LFE146:
 2229              		.size	usb_lld_get_status_in, .-usb_lld_get_status_in
 2230 001a 00BFAFF3 		.section	.text.usb_lld_read_setup,"ax",%progbits
 2230      0080
 2231              		.align	2
 2232              		.p2align 4,,15
 2233              		.global	usb_lld_read_setup
 2234              		.thumb
 2235              		.thumb_func
 2236              		.type	usb_lld_read_setup, %function
 2237              	usb_lld_read_setup:
 2238              	.LFB147:
 2239              		.loc 1 1215 0
 2240              		.cfi_startproc
 2241              		@ args = 0, pretend = 0, frame = 0
 2242              		@ frame_needed = 0, uses_anonymous_args = 0
 2243              		@ link register save eliminated.
 2244              	.LVL193:
 2245              		.loc 1 1217 0
 2246 0000 00EB810C 		add	ip, r0, r1, lsl #2
 2247 0004 DCF80C30 		ldr	r3, [ip, #12]
 2248 0008 186A     		ldr	r0, [r3, #32]
 2249              	.LVL194:
 2250 000a 0168     		ldr	r1, [r0, #0]	@ unaligned
 2251              	.LVL195:
 2252 000c 4368     		ldr	r3, [r0, #4]	@ unaligned
 2253 000e 1160     		str	r1, [r2, #0]	@ unaligned
 2254 0010 5360     		str	r3, [r2, #4]	@ unaligned
 2255              		.loc 1 1218 0
 2256 0012 7047     		bx	lr
 2257              		.cfi_endproc
 2258              	.LFE147:
 2259              		.size	usb_lld_read_setup, .-usb_lld_read_setup
 2260 0014 AFF30080 		.section	.text.usb_lld_prepare_receive,"ax",%progbits
 2260      AFF30080 
 2260      AFF30080 
ARM GAS  C:\Users\DNIEL~1\AppData\Local\Temp\cccPEDO0.s 			page 41


 2261              		.align	2
 2262              		.p2align 4,,15
 2263              		.global	usb_lld_prepare_receive
 2264              		.thumb
 2265              		.thumb_func
 2266              		.type	usb_lld_prepare_receive, %function
 2267              	usb_lld_prepare_receive:
 2268              	.LFB148:
 2269              		.loc 1 1228 0
 2270              		.cfi_startproc
 2271              		@ args = 0, pretend = 0, frame = 0
 2272              		@ frame_needed = 0, uses_anonymous_args = 0
 2273              		@ link register save eliminated.
 2274              	.LVL196:
 2275              		.loc 1 1230 0
 2276 0000 00EB8103 		add	r3, r0, r1, lsl #2
 2277              		.loc 1 1228 0
 2278 0004 30B4     		push	{r4, r5}
 2279              	.LCFI9:
 2280              		.cfi_def_cfa_offset 8
 2281              		.loc 1 1230 0
 2282 0006 DC68     		ldr	r4, [r3, #12]
 2283              		.cfi_offset 5, -4
 2284              		.cfi_offset 4, -8
 2285 0008 A269     		ldr	r2, [r4, #24]
 2286              	.LVL197:
 2287              		.loc 1 1233 0
 2288 000a 5368     		ldr	r3, [r2, #4]
 2289              	.LVL198:
 2290 000c 1361     		str	r3, [r2, #16]
 2291              		.loc 1 1234 0
 2292 000e 31B9     		cbnz	r1, .L204
 2293              		.loc 1 1234 0 is_stmt 0 discriminator 1
 2294 0010 402B     		cmp	r3, #64
 2295 0012 04D9     		bls	.L204
 2296              		.loc 1 1235 0 is_stmt 1
 2297 0014 4025     		movs	r5, #64
 2298 0016 5560     		str	r5, [r2, #4]
 2299 0018 094B     		ldr	r3, .L205
 2300 001a 3F25     		movs	r5, #63
 2301 001c 02E0     		b	.L202
 2302              	.L204:
 2303              		.loc 1 1234 0
 2304 001e 5D1E     		subs	r5, r3, #1
 2305 0020 43F0C043 		orr	r3, r3, #1610612736
 2306              	.L202:
 2307              		.loc 1 1237 0
 2308 0024 628A     		ldrh	r2, [r4, #18]
 2309              	.LVL199:
 2310              		.loc 1 1239 0
 2311 0026 006D     		ldr	r0, [r0, #80]
 2312              	.LVL200:
 2313              		.loc 1 1237 0
 2314 0028 AC18     		adds	r4, r5, r2
 2315              	.LVL201:
 2316              		.loc 1 1239 0
 2317 002a 4901     		lsls	r1, r1, #5
ARM GAS  C:\Users\DNIEL~1\AppData\Local\Temp\cccPEDO0.s 			page 42


 2318              	.LVL202:
 2319              		.loc 1 1237 0
 2320 002c B4FBF2FC 		udiv	ip, r4, r2
 2321              		.loc 1 1239 0
 2322 0030 4118     		adds	r1, r0, r1
 2323 0032 43EACC42 		orr	r2, r3, ip, lsl #19
 2324              	.LVL203:
 2325 0036 C1F8102B 		str	r2, [r1, #2832]
 2326              		.loc 1 1242 0
 2327 003a 30BC     		pop	{r4, r5}
 2328 003c 7047     		bx	lr
 2329              	.L206:
 2330 003e 00BF     		.align	2
 2331              	.L205:
 2332 0040 40000060 		.word	1610612800
 2333              		.cfi_endproc
 2334              	.LFE148:
 2335              		.size	usb_lld_prepare_receive, .-usb_lld_prepare_receive
 2336 0044 AFF30080 		.section	.text.otg_epout_handler.clone.8,"ax",%progbits
 2336      AFF30080 
 2336      AFF30080 
 2337              		.align	2
 2338              		.p2align 4,,15
 2339              		.thumb
 2340              		.thumb_func
 2341              		.type	otg_epout_handler.clone.8, %function
 2342              	otg_epout_handler.clone.8:
 2343              	.LFB164:
 2344              		.loc 1 599 0
 2345              		.cfi_startproc
 2346              		@ args = 0, pretend = 0, frame = 0
 2347              		@ frame_needed = 0, uses_anonymous_args = 0
 2348              	.LVL204:
 2349 0000 F8B5     		push	{r3, r4, r5, r6, r7, lr}
 2350              	.LCFI10:
 2351              		.cfi_def_cfa_offset 24
 2352              		.loc 1 600 0
 2353 0002 274F     		ldr	r7, .L213
 2354              		.cfi_offset 14, -4
 2355              		.cfi_offset 7, -8
 2356              		.cfi_offset 6, -12
 2357              		.cfi_offset 5, -16
 2358              		.cfi_offset 4, -20
 2359              		.cfi_offset 3, -24
 2360 0004 3E6D     		ldr	r6, [r7, #80]
 2361              	.LVL205:
 2362              		.loc 1 601 0
 2363 0006 4101     		lsls	r1, r0, #5
 2364 0008 7318     		adds	r3, r6, r1
 2365              		.loc 1 599 0
 2366 000a 0446     		mov	r4, r0
 2367              		.loc 1 601 0
 2368 000c D3F8085B 		ldr	r5, [r3, #2824]
 2369              	.LVL206:
 2370              		.loc 1 606 0
 2371 0010 15F0080F 		tst	r5, #8
 2372              		.loc 1 604 0
ARM GAS  C:\Users\DNIEL~1\AppData\Local\Temp\cccPEDO0.s 			page 43


 2373 0014 C3F8085B 		str	r5, [r3, #2824]
 2374              		.loc 1 606 0
 2375 0018 04D0     		beq	.L208
 2376 001a D6F81428 		ldr	r2, [r6, #2068]
 2377 001e 12F0080F 		tst	r2, #8
 2378 0022 1ED1     		bne	.L211
 2379              	.LVL207:
 2380              	.L208:
 2381              		.loc 1 612 0
 2382 0024 15F0010F 		tst	r5, #1
 2383 0028 1AD0     		beq	.L207
 2384 002a D6F81408 		ldr	r0, [r6, #2068]
 2385 002e 10F0010F 		tst	r0, #1
 2386 0032 15D0     		beq	.L207
 2387              	.LBB244:
 2388              		.loc 1 614 0
 2389 0034 07EB8407 		add	r7, r7, r4, lsl #2
 2390 0038 194D     		ldr	r5, .L213
 2391              	.LVL208:
 2392 003a FA68     		ldr	r2, [r7, #12]
 2393 003c 9369     		ldr	r3, [r2, #24]
 2394              	.LVL209:
 2395              		.loc 1 616 0
 2396 003e 5968     		ldr	r1, [r3, #4]
 2397 0040 1869     		ldr	r0, [r3, #16]
 2398 0042 8142     		cmp	r1, r0
 2399 0044 16D3     		bcc	.L212
 2400              		.loc 1 629 0
 2401 0046 B5F80AC0 		ldrh	ip, [r5, #10]
 2402 004a D368     		ldr	r3, [r2, #12]
 2403 004c 0120     		movs	r0, #1
 2404 004e 10FA04F2 		lsls	r2, r0, r4
 2405 0052 2CEA020E 		bic	lr, ip, r2
 2406 0056 A5F80AE0 		strh	lr, [r5, #10]	@ movhi
 2407 005a 2846     		mov	r0, r5
 2408 005c 2146     		mov	r1, r4
 2409 005e 9847     		blx	r3
 2410              	.LVL210:
 2411              	.L207:
 2412 0060 F8BD     		pop	{r3, r4, r5, r6, r7, pc}
 2413              	.LVL211:
 2414              	.L211:
 2415              	.LBE244:
 2416              		.loc 1 609 0
 2417 0062 07EB800C 		add	ip, r7, r0, lsl #2
 2418 0066 2146     		mov	r1, r4
 2419 0068 DCF80C20 		ldr	r2, [ip, #12]
 2420 006c 3846     		mov	r0, r7
 2421              	.LVL212:
 2422 006e 5368     		ldr	r3, [r2, #4]
 2423 0070 9847     		blx	r3
 2424 0072 D7E7     		b	.L208
 2425              	.LVL213:
 2426              	.L212:
 2427              	.LBB252:
 2428              		.loc 1 620 0
 2429 0074 411A     		subs	r1, r0, r1
ARM GAS  C:\Users\DNIEL~1\AppData\Local\Temp\cccPEDO0.s 			page 44


 2430              		.loc 1 621 0
 2431 0076 0026     		movs	r6, #0
 2432              	.LVL214:
 2433              		.loc 1 620 0
 2434 0078 5960     		str	r1, [r3, #4]
 2435              		.loc 1 621 0
 2436 007a 9E60     		str	r6, [r3, #8]
 2437              		.loc 1 622 0
 2438 007c 2846     		mov	r0, r5
 2439 007e 2146     		mov	r1, r4
 2440 0080 FFF7FEFF 		bl	usb_lld_prepare_receive
 2441              	.LVL215:
 2442              	.LBB245:
 2443              		.loc 1 623 0
 2444 0084 2023     		movs	r3, #32
 2445              	.LVL216:
 2446              	@ 623 "../../../ChibiOS/os/hal/platforms/STM32/OTGv1/usb_lld.c" 1
 2447 0086 83F31188 		msr     BASEPRI, r3
 2448              	@ 0 "" 2
 2449              	.LVL217:
 2450              		.thumb
 2451              	.LBE245:
 2452              	.LBB246:
 2453              	.LBB247:
 2454              		.loc 1 1283 0
 2455 008a 5834     		adds	r4, r4, #88
 2456 008c 2A6D     		ldr	r2, [r5, #80]
 2457 008e 6401     		lsls	r4, r4, #5
 2458              	.LBE247:
 2459              	.LBE246:
 2460              	.LBB249:
 2461              		.loc 1 625 0
 2462 0090 3346     		mov	r3, r6
 2463              	.LVL218:
 2464              	.LBE249:
 2465              	.LBB250:
 2466              	.LBB248:
 2467              		.loc 1 1283 0
 2468 0092 1059     		ldr	r0, [r2, r4]
 2469 0094 40F08061 		orr	r1, r0, #67108864
 2470 0098 1151     		str	r1, [r2, r4]
 2471              	.LBE248:
 2472              	.LBE250:
 2473              	.LBB251:
 2474              		.loc 1 625 0
 2475              	@ 625 "../../../ChibiOS/os/hal/platforms/STM32/OTGv1/usb_lld.c" 1
 2476 009a 83F31188 		msr     BASEPRI, r3
 2477              	@ 0 "" 2
 2478              	.LVL219:
 2479              		.thumb
 2480 009e F8BD     		pop	{r3, r4, r5, r6, r7, pc}
 2481              	.L214:
 2482              		.align	2
 2483              	.L213:
 2484 00a0 00000000 		.word	.LANCHOR0
 2485              	.LBE251:
 2486              	.LBE252:
ARM GAS  C:\Users\DNIEL~1\AppData\Local\Temp\cccPEDO0.s 			page 45


 2487              		.cfi_endproc
 2488              	.LFE164:
 2489              		.size	otg_epout_handler.clone.8, .-otg_epout_handler.clone.8
 2490 00a4 AFF30080 		.section	.text.usb_lld_prepare_transmit,"ax",%progbits
 2490      AFF30080 
 2490      AFF30080 
 2491              		.align	2
 2492              		.p2align 4,,15
 2493              		.global	usb_lld_prepare_transmit
 2494              		.thumb
 2495              		.thumb_func
 2496              		.type	usb_lld_prepare_transmit, %function
 2497              	usb_lld_prepare_transmit:
 2498              	.LFB149:
 2499              		.loc 1 1252 0
 2500              		.cfi_startproc
 2501              		@ args = 0, pretend = 0, frame = 0
 2502              		@ frame_needed = 0, uses_anonymous_args = 0
 2503              		@ link register save eliminated.
 2504              	.LVL220:
 2505              		.loc 1 1253 0
 2506 0000 00EB8103 		add	r3, r0, r1, lsl #2
 2507              		.loc 1 1252 0
 2508 0004 30B4     		push	{r4, r5}
 2509              	.LCFI11:
 2510              		.cfi_def_cfa_offset 8
 2511              		.loc 1 1253 0
 2512 0006 DC68     		ldr	r4, [r3, #12]
 2513              		.cfi_offset 5, -4
 2514              		.cfi_offset 4, -8
 2515 0008 6269     		ldr	r2, [r4, #20]
 2516              	.LVL221:
 2517              		.loc 1 1256 0
 2518 000a 5368     		ldr	r3, [r2, #4]
 2519              	.LVL222:
 2520 000c 1361     		str	r3, [r2, #16]
 2521              		.loc 1 1257 0
 2522 000e BBB1     		cbz	r3, .L222
 2523              	.LBB253:
 2524              		.loc 1 1262 0
 2525 0010 81B1     		cbz	r1, .L218
 2526              	.L221:
 2527 0012 5D1E     		subs	r5, r3, #1
 2528              	.L219:
 2529              		.loc 1 1266 0
 2530 0014 B4F810C0 		ldrh	ip, [r4, #16]
 2531              	.LVL223:
 2532              		.loc 1 1268 0
 2533 0018 006D     		ldr	r0, [r0, #80]
 2534              	.LVL224:
 2535              		.loc 1 1266 0
 2536 001a 05EB0C04 		add	r4, r5, ip
 2537              	.LVL225:
 2538              		.loc 1 1268 0
 2539 001e 4901     		lsls	r1, r1, #5
 2540              	.LVL226:
 2541              		.loc 1 1266 0
ARM GAS  C:\Users\DNIEL~1\AppData\Local\Temp\cccPEDO0.s 			page 46


 2542 0020 B4FBFCF2 		udiv	r2, r4, ip
 2543              	.LVL227:
 2544              		.loc 1 1268 0
 2545 0024 00EB010C 		add	ip, r0, r1
 2546              	.LVL228:
 2547 0028 43EAC241 		orr	r1, r3, r2, lsl #19
 2548 002c CCF81019 		str	r1, [ip, #2320]
 2549              	.LVL229:
 2550              	.L215:
 2551              	.LBE253:
 2552              		.loc 1 1271 0
 2553 0030 30BC     		pop	{r4, r5}
 2554 0032 7047     		bx	lr
 2555              	.LVL230:
 2556              	.L218:
 2557              	.LBB254:
 2558              		.loc 1 1262 0 discriminator 1
 2559 0034 402B     		cmp	r3, #64
 2560 0036 ECD9     		bls	.L221
 2561              		.loc 1 1263 0
 2562 0038 4023     		movs	r3, #64
 2563 003a 5360     		str	r3, [r2, #4]
 2564 003c 3F25     		movs	r5, #63
 2565 003e E9E7     		b	.L219
 2566              	.L222:
 2567              	.LBE254:
 2568              		.loc 1 1259 0
 2569 0040 036D     		ldr	r3, [r0, #80]
 2570 0042 4A01     		lsls	r2, r1, #5
 2571              	.LVL231:
 2572 0044 9918     		adds	r1, r3, r2
 2573              	.LVL232:
 2574 0046 4FF40020 		mov	r0, #524288
 2575              	.LVL233:
 2576 004a C1F81009 		str	r0, [r1, #2320]
 2577 004e EFE7     		b	.L215
 2578              		.cfi_endproc
 2579              	.LFE149:
 2580              		.size	usb_lld_prepare_transmit, .-usb_lld_prepare_transmit
 2581              		.section	.text.otg_epin_handler.clone.9,"ax",%progbits
 2582              		.align	2
 2583              		.p2align 4,,15
 2584              		.thumb
 2585              		.thumb_func
 2586              		.type	otg_epin_handler.clone.9, %function
 2587              	otg_epin_handler.clone.9:
 2588              	.LFB163:
 2589              		.loc 1 551 0
 2590              		.cfi_startproc
 2591              		@ args = 0, pretend = 0, frame = 0
 2592              		@ frame_needed = 0, uses_anonymous_args = 0
 2593              	.LVL234:
 2594 0000 2DE9F041 		push	{r4, r5, r6, r7, r8, lr}
 2595              	.LCFI12:
 2596              		.cfi_def_cfa_offset 24
 2597              		.loc 1 552 0
 2598 0004 354D     		ldr	r5, .L229
ARM GAS  C:\Users\DNIEL~1\AppData\Local\Temp\cccPEDO0.s 			page 47


 2599              		.cfi_offset 14, -4
 2600              		.cfi_offset 8, -8
 2601              		.cfi_offset 7, -12
 2602              		.cfi_offset 6, -16
 2603              		.cfi_offset 5, -20
 2604              		.cfi_offset 4, -24
 2605 0006 2E6D     		ldr	r6, [r5, #80]
 2606              	.LVL235:
 2607              		.loc 1 553 0
 2608 0008 4101     		lsls	r1, r0, #5
 2609 000a 7318     		adds	r3, r6, r1
 2610              		.loc 1 551 0
 2611 000c 0746     		mov	r7, r0
 2612              		.loc 1 553 0
 2613 000e D3F80849 		ldr	r4, [r3, #2312]
 2614              	.LVL236:
 2615              		.loc 1 560 0
 2616 0012 14F0010F 		tst	r4, #1
 2617              		.loc 1 555 0
 2618 0016 C3F80849 		str	r4, [r3, #2312]
 2619              		.loc 1 560 0
 2620 001a 04D0     		beq	.L224
 2621 001c D6F81028 		ldr	r2, [r6, #2064]
 2622 0020 12F0010F 		tst	r2, #1
 2623 0024 22D1     		bne	.L228
 2624              	.LVL237:
 2625              	.L224:
 2626              		.loc 1 580 0
 2627 0026 14F0800F 		tst	r4, #128
 2628 002a 1DD0     		beq	.L223
 2629              		.loc 1 581 0
 2630 002c 0122     		movs	r2, #1
 2631 002e D6F83438 		ldr	r3, [r6, #2100]
 2632              	.LVL238:
 2633 0032 12FA07F7 		lsls	r7, r2, r7
 2634              		.loc 1 580 0
 2635 0036 1F42     		tst	r7, r3
 2636 0038 16D0     		beq	.L223
 2637              	.LBB255:
 2638              		.loc 1 583 0
 2639 003a 2023     		movs	r3, #32
 2640              	.LVL239:
 2641              	@ 583 "../../../ChibiOS/os/hal/platforms/STM32/OTGv1/usb_lld.c" 1
 2642 003c 83F31188 		msr     BASEPRI, r3
 2643              	@ 0 "" 2
 2644              	.LVL240:
 2645              		.thumb
 2646              	.LBE255:
 2647              		.loc 1 584 0
 2648 0040 EB6D     		ldr	r3, [r5, #92]
 2649              	.LVL241:
 2650              		.loc 1 585 0
 2651 0042 D6F83428 		ldr	r2, [r6, #2100]
 2652              	.LBB256:
 2653              	.LBB257:
 2654              		.loc 1 125 0
 2655 0046 686E     		ldr	r0, [r5, #100]
ARM GAS  C:\Users\DNIEL~1\AppData\Local\Temp\cccPEDO0.s 			page 48


 2656              	.LBE257:
 2657              	.LBE256:
 2658              		.loc 1 584 0
 2659 0048 47EA0301 		orr	r1, r7, r3
 2660              		.loc 1 585 0
 2661 004c 22EA0707 		bic	r7, r2, r7
 2662              		.loc 1 584 0
 2663 0050 E965     		str	r1, [r5, #92]
 2664              		.loc 1 585 0
 2665 0052 C6F83478 		str	r7, [r6, #2100]
 2666              	.LBB259:
 2667              	.LBB258:
 2668              		.loc 1 125 0
 2669 0056 20B1     		cbz	r0, .L227
 2670              		.loc 1 126 0
 2671 0058 FFF7FEFF 		bl	chSchReadyI
 2672              		.loc 1 127 0
 2673 005c 1F49     		ldr	r1, .L229
 2674 005e 0020     		movs	r0, #0
 2675 0060 4866     		str	r0, [r1, #100]
 2676              	.L227:
 2677              	.LBE258:
 2678              	.LBE259:
 2679              	.LBB260:
 2680              		.loc 1 587 0
 2681 0062 0023     		movs	r3, #0
 2682              	.LVL242:
 2683              	@ 587 "../../../ChibiOS/os/hal/platforms/STM32/OTGv1/usb_lld.c" 1
 2684 0064 83F31188 		msr     BASEPRI, r3
 2685              	@ 0 "" 2
 2686              	.LVL243:
 2687              		.thumb
 2688              	.L223:
 2689 0068 BDE8F081 		pop	{r4, r5, r6, r7, r8, pc}
 2690              	.LVL244:
 2691              	.L228:
 2692              	.LBE260:
 2693              	.LBB261:
 2694              		.loc 1 562 0
 2695 006c 05EB8000 		add	r0, r5, r0, lsl #2
 2696              	.LVL245:
 2697 0070 C268     		ldr	r2, [r0, #12]
 2698 0072 5369     		ldr	r3, [r2, #20]
 2699              	.LVL246:
 2700              		.loc 1 564 0
 2701 0074 5968     		ldr	r1, [r3, #4]
 2702 0076 1869     		ldr	r0, [r3, #16]
 2703              	.LVL247:
 2704 0078 8142     		cmp	r1, r0
 2705 007a 21D2     		bcs	.L225
 2706              		.loc 1 568 0
 2707 007c 421A     		subs	r2, r0, r1
 2708              	.LVL248:
 2709              		.loc 1 569 0
 2710 007e 4FF00008 		mov	r8, #0
 2711              		.loc 1 568 0
 2712 0082 5A60     		str	r2, [r3, #4]
ARM GAS  C:\Users\DNIEL~1\AppData\Local\Temp\cccPEDO0.s 			page 49


 2713              		.loc 1 569 0
 2714 0084 C3F80880 		str	r8, [r3, #8]
 2715              		.loc 1 570 0
 2716 0088 2846     		mov	r0, r5
 2717 008a 3946     		mov	r1, r7
 2718 008c FFF7FEFF 		bl	usb_lld_prepare_transmit
 2719              	.LVL249:
 2720              	.LBB262:
 2721              		.loc 1 571 0
 2722 0090 2023     		movs	r3, #32
 2723              	.LVL250:
 2724              	@ 571 "../../../ChibiOS/os/hal/platforms/STM32/OTGv1/usb_lld.c" 1
 2725 0092 83F31188 		msr     BASEPRI, r3
 2726              	@ 0 "" 2
 2727              	.LVL251:
 2728              		.thumb
 2729              	.LBE262:
 2730              	.LBB263:
 2731              	.LBB264:
 2732              		.loc 1 1296 0
 2733 0096 07F14800 		add	r0, r7, #72
 2734 009a 2B6D     		ldr	r3, [r5, #80]
 2735              	.LVL252:
 2736 009c 4201     		lsls	r2, r0, #5
 2737 009e 9958     		ldr	r1, [r3, r2]
 2738 00a0 41F00440 		orr	r0, r1, #-2080374784
 2739 00a4 9850     		str	r0, [r3, r2]
 2740              		.loc 1 1297 0
 2741 00a6 0121     		movs	r1, #1
 2742 00a8 D3F83408 		ldr	r0, [r3, #2100]
 2743 00ac 11FA07F2 		lsls	r2, r1, r7
 2744 00b0 42EA0001 		orr	r1, r2, r0
 2745 00b4 C3F83418 		str	r1, [r3, #2100]
 2746              	.LBE264:
 2747              	.LBE263:
 2748              	.LBB265:
 2749              		.loc 1 573 0
 2750 00b8 4346     		mov	r3, r8
 2751              	@ 573 "../../../ChibiOS/os/hal/platforms/STM32/OTGv1/usb_lld.c" 1
 2752 00ba 83F31188 		msr     BASEPRI, r3
 2753              	@ 0 "" 2
 2754              	.LVL253:
 2755              		.thumb
 2756 00be B2E7     		b	.L224
 2757              	.LVL254:
 2758              	.L225:
 2759              	.LBE265:
 2760              		.loc 1 577 0
 2761 00c0 B5F808E0 		ldrh	lr, [r5, #8]
 2762 00c4 9368     		ldr	r3, [r2, #8]
 2763              	.LVL255:
 2764 00c6 0121     		movs	r1, #1
 2765 00c8 11FA07F0 		lsls	r0, r1, r7
 2766 00cc 2EEA000C 		bic	ip, lr, r0
 2767 00d0 A5F808C0 		strh	ip, [r5, #8]	@ movhi
 2768 00d4 2846     		mov	r0, r5
 2769 00d6 3946     		mov	r1, r7
ARM GAS  C:\Users\DNIEL~1\AppData\Local\Temp\cccPEDO0.s 			page 50


 2770 00d8 9847     		blx	r3
 2771              	.LVL256:
 2772 00da A4E7     		b	.L224
 2773              	.L230:
 2774              		.align	2
 2775              	.L229:
 2776 00dc 00000000 		.word	.LANCHOR0
 2777              	.LBE261:
 2778              		.cfi_endproc
 2779              	.LFE163:
 2780              		.size	otg_epin_handler.clone.9, .-otg_epin_handler.clone.9
 2781              		.section	.text.Vector14C,"ax",%progbits
 2782              		.align	2
 2783              		.p2align 4,,15
 2784              		.global	Vector14C
 2785              		.thumb
 2786              		.thumb_func
 2787              		.type	Vector14C, %function
 2788              	Vector14C:
 2789              	.LFB137:
 2790              		.loc 1 780 0
 2791              		.cfi_startproc
 2792              		@ args = 0, pretend = 0, frame = 0
 2793              		@ frame_needed = 0, uses_anonymous_args = 0
 2794              	.LVL257:
 2795 0000 70B5     		push	{r4, r5, r6, lr}
 2796              	.LCFI13:
 2797              		.cfi_def_cfa_offset 16
 2798              	.LBB272:
 2799              	.LBB273:
 2800              		.loc 1 642 0
 2801 0002 434E     		ldr	r6, .L254
 2802              		.cfi_offset 14, -4
 2803              		.cfi_offset 6, -8
 2804              		.cfi_offset 5, -12
 2805              		.cfi_offset 4, -16
 2806 0004 356D     		ldr	r5, [r6, #80]
 2807              	.LVL258:
 2808              		.loc 1 645 0
 2809 0006 6B69     		ldr	r3, [r5, #20]
 2810              	.LVL259:
 2811              		.loc 1 646 0
 2812 0008 AC69     		ldr	r4, [r5, #24]
 2813 000a 1C40     		ands	r4, r4, r3
 2814              	.LVL260:
 2815              		.loc 1 650 0
 2816 000c 14F4805F 		tst	r4, #4096
 2817              		.loc 1 647 0
 2818 0010 6C61     		str	r4, [r5, #20]
 2819              		.loc 1 650 0
 2820 0012 48D1     		bne	.L245
 2821              	.LVL261:
 2822              	.L232:
 2823              		.loc 1 656 0
 2824 0014 14F4005F 		tst	r4, #8192
 2825              		.loc 1 657 0
 2826 0018 18BF     		it	ne
ARM GAS  C:\Users\DNIEL~1\AppData\Local\Temp\cccPEDO0.s 			page 51


 2827 001a D5F80838 		ldrne	r3, [r5, #2056]
 2828              		.loc 1 661 0
 2829 001e 14F0080F 		tst	r4, #8
 2830 0022 04D0     		beq	.L234
 2831              		.loc 1 662 0
 2832 0024 7068     		ldr	r0, [r6, #4]
 2833 0026 C368     		ldr	r3, [r0, #12]
 2834 0028 0BB1     		cbz	r3, .L234
 2835 002a 3948     		ldr	r0, .L254
 2836 002c 9847     		blx	r3
 2837              	.L234:
 2838              		.loc 1 666 0
 2839 002e 14F0100F 		tst	r4, #16
 2840 0032 10D0     		beq	.L235
 2841              	.LBB279:
 2842              		.loc 1 669 0
 2843 0034 2023     		movs	r3, #32
 2844              	.LVL262:
 2845              	@ 669 "../../../ChibiOS/os/hal/platforms/STM32/OTGv1/usb_lld.c" 1
 2846 0036 83F31188 		msr     BASEPRI, r3
 2847              	@ 0 "" 2
 2848              	.LVL263:
 2849              		.thumb
 2850              	.LBE279:
 2851              		.loc 1 670 0
 2852 003a AA69     		ldr	r2, [r5, #24]
 2853              	.LBB276:
 2854              	.LBB277:
 2855              		.loc 1 125 0
 2856 003c 706E     		ldr	r0, [r6, #100]
 2857              	.LBE277:
 2858              	.LBE276:
 2859              		.loc 1 670 0
 2860 003e 22F01001 		bic	r1, r2, #16
 2861 0042 A961     		str	r1, [r5, #24]
 2862              	.LBB275:
 2863              	.LBB278:
 2864              		.loc 1 125 0
 2865 0044 20B1     		cbz	r0, .L236
 2866              		.loc 1 126 0
 2867 0046 FFF7FEFF 		bl	chSchReadyI
 2868              	.LVL264:
 2869              		.loc 1 127 0
 2870 004a 314B     		ldr	r3, .L254
 2871 004c 0020     		movs	r0, #0
 2872 004e 5866     		str	r0, [r3, #100]
 2873              	.LVL265:
 2874              	.L236:
 2875              	.LBE278:
 2876              	.LBE275:
 2877              	.LBB274:
 2878              		.loc 1 672 0
 2879 0050 0023     		movs	r3, #0
 2880              	.LVL266:
 2881              	@ 672 "../../../ChibiOS/os/hal/platforms/STM32/OTGv1/usb_lld.c" 1
 2882 0052 83F31188 		msr     BASEPRI, r3
 2883              	@ 0 "" 2
ARM GAS  C:\Users\DNIEL~1\AppData\Local\Temp\cccPEDO0.s 			page 52


 2884              	.LVL267:
 2885              		.thumb
 2886              	.L235:
 2887              	.LBE274:
 2888              		.loc 1 677 0
 2889 0056 14F4802F 		tst	r4, #262144
 2890              		.loc 1 676 0
 2891 005a D5F81858 		ldr	r5, [r5, #2072]
 2892              	.LVL268:
 2893              		.loc 1 677 0
 2894 005e 0BD0     		beq	.L237
 2895              		.loc 1 678 0
 2896 0060 15F0010F 		tst	r5, #1
 2897 0064 3ED1     		bne	.L246
 2898              		.loc 1 680 0
 2899 0066 15F0020F 		tst	r5, #2
 2900 006a 41D1     		bne	.L247
 2901              	.L239:
 2902              		.loc 1 682 0
 2903 006c 15F0040F 		tst	r5, #4
 2904 0070 44D1     		bne	.L248
 2905              	.L240:
 2906              		.loc 1 684 0
 2907 0072 15F0080F 		tst	r5, #8
 2908 0076 47D1     		bne	.L249
 2909              	.L237:
 2910              		.loc 1 693 0
 2911 0078 14F4002F 		tst	r4, #524288
 2912 007c 0BD0     		beq	.L241
 2913              		.loc 1 694 0
 2914 007e 15F4803F 		tst	r5, #65536
 2915 0082 22D1     		bne	.L250
 2916              		.loc 1 696 0
 2917 0084 15F4003F 		tst	r5, #131072
 2918 0088 25D1     		bne	.L251
 2919              	.L243:
 2920              		.loc 1 698 0
 2921 008a 15F4802F 		tst	r5, #262144
 2922 008e 15D1     		bne	.L252
 2923              	.L244:
 2924              		.loc 1 700 0
 2925 0090 15F4002F 		tst	r5, #524288
 2926 0094 03D1     		bne	.L253
 2927              	.L241:
 2928              	.LBE273:
 2929              	.LBE272:
 2930              		.loc 1 787 0
 2931 0096 BDE87040 		pop	{r4, r5, r6, lr}
 2932              		.loc 1 786 0
 2933 009a FFF7FEBF 		b	_port_irq_epilogue
 2934              	.LVL269:
 2935              	.L253:
 2936              	.LBB281:
 2937              	.LBB280:
 2938              		.loc 1 701 0
 2939 009e 0320     		movs	r0, #3
 2940 00a0 FFF7FEFF 		bl	otg_epout_handler.clone.8
ARM GAS  C:\Users\DNIEL~1\AppData\Local\Temp\cccPEDO0.s 			page 53


 2941              	.LVL270:
 2942 00a4 F7E7     		b	.L241
 2943              	.LVL271:
 2944              	.L245:
 2945              		.loc 1 651 0
 2946 00a6 3046     		mov	r0, r6
 2947 00a8 FFF7FEFF 		bl	_usb_reset
 2948              		.loc 1 652 0
 2949 00ac 7368     		ldr	r3, [r6, #4]
 2950 00ae 1B68     		ldr	r3, [r3, #0]
 2951 00b0 002B     		cmp	r3, #0
 2952 00b2 AFD0     		beq	.L232
 2953 00b4 3046     		mov	r0, r6
 2954 00b6 0021     		movs	r1, #0
 2955 00b8 9847     		blx	r3
 2956 00ba ABE7     		b	.L232
 2957              	.LVL272:
 2958              	.L252:
 2959              		.loc 1 699 0
 2960 00bc 0220     		movs	r0, #2
 2961 00be FFF7FEFF 		bl	otg_epout_handler.clone.8
 2962              	.LVL273:
 2963              		.loc 1 700 0
 2964 00c2 15F4002F 		tst	r5, #524288
 2965 00c6 E6D0     		beq	.L241
 2966 00c8 E9E7     		b	.L253
 2967              	.LVL274:
 2968              	.L250:
 2969              		.loc 1 695 0
 2970 00ca 0020     		movs	r0, #0
 2971 00cc FFF7FEFF 		bl	otg_epout_handler.clone.8
 2972              	.LVL275:
 2973              		.loc 1 696 0
 2974 00d0 15F4003F 		tst	r5, #131072
 2975 00d4 D9D0     		beq	.L243
 2976              	.LVL276:
 2977              	.L251:
 2978              		.loc 1 697 0
 2979 00d6 0120     		movs	r0, #1
 2980 00d8 FFF7FEFF 		bl	otg_epout_handler.clone.8
 2981              	.LVL277:
 2982              		.loc 1 698 0
 2983 00dc 15F4802F 		tst	r5, #262144
 2984 00e0 D6D0     		beq	.L244
 2985 00e2 EBE7     		b	.L252
 2986              	.LVL278:
 2987              	.L246:
 2988              		.loc 1 679 0
 2989 00e4 0020     		movs	r0, #0
 2990 00e6 FFF7FEFF 		bl	otg_epin_handler.clone.9
 2991              	.LVL279:
 2992              		.loc 1 680 0
 2993 00ea 15F0020F 		tst	r5, #2
 2994 00ee BDD0     		beq	.L239
 2995              	.LVL280:
 2996              	.L247:
 2997              		.loc 1 681 0
ARM GAS  C:\Users\DNIEL~1\AppData\Local\Temp\cccPEDO0.s 			page 54


 2998 00f0 0120     		movs	r0, #1
 2999 00f2 FFF7FEFF 		bl	otg_epin_handler.clone.9
 3000              	.LVL281:
 3001              		.loc 1 682 0
 3002 00f6 15F0040F 		tst	r5, #4
 3003 00fa BAD0     		beq	.L240
 3004              	.LVL282:
 3005              	.L248:
 3006              		.loc 1 683 0
 3007 00fc 0220     		movs	r0, #2
 3008 00fe FFF7FEFF 		bl	otg_epin_handler.clone.9
 3009              	.LVL283:
 3010              		.loc 1 684 0
 3011 0102 15F0080F 		tst	r5, #8
 3012 0106 B7D0     		beq	.L237
 3013              	.LVL284:
 3014              	.L249:
 3015              		.loc 1 685 0
 3016 0108 0320     		movs	r0, #3
 3017 010a FFF7FEFF 		bl	otg_epin_handler.clone.9
 3018              	.LVL285:
 3019 010e B3E7     		b	.L237
 3020              	.L255:
 3021              		.align	2
 3022              	.L254:
 3023 0110 00000000 		.word	.LANCHOR0
 3024              	.LBE280:
 3025              	.LBE281:
 3026              		.cfi_endproc
 3027              	.LFE137:
 3028              		.size	Vector14C, .-Vector14C
 3029 0114 AFF30080 		.section	.text.usb_lld_start_out,"ax",%progbits
 3029      AFF30080 
 3029      AFF30080 
 3030              		.align	2
 3031              		.p2align 4,,15
 3032              		.global	usb_lld_start_out
 3033              		.thumb
 3034              		.thumb_func
 3035              		.type	usb_lld_start_out, %function
 3036              	usb_lld_start_out:
 3037              	.LFB150:
 3038              		.loc 1 1281 0
 3039              		.cfi_startproc
 3040              		@ args = 0, pretend = 0, frame = 0
 3041              		@ frame_needed = 0, uses_anonymous_args = 0
 3042              		@ link register save eliminated.
 3043              	.LVL286:
 3044              		.loc 1 1283 0
 3045 0000 5831     		adds	r1, r1, #88
 3046              	.LVL287:
 3047 0002 036D     		ldr	r3, [r0, #80]
 3048 0004 4901     		lsls	r1, r1, #5
 3049 0006 5858     		ldr	r0, [r3, r1]
 3050              	.LVL288:
 3051 0008 40F08062 		orr	r2, r0, #67108864
 3052 000c 5A50     		str	r2, [r3, r1]
ARM GAS  C:\Users\DNIEL~1\AppData\Local\Temp\cccPEDO0.s 			page 55


 3053              		.loc 1 1284 0
 3054 000e 7047     		bx	lr
 3055              		.cfi_endproc
 3056              	.LFE150:
 3057              		.size	usb_lld_start_out, .-usb_lld_start_out
 3058              		.section	.text.usb_lld_start_in,"ax",%progbits
 3059              		.align	2
 3060              		.p2align 4,,15
 3061              		.global	usb_lld_start_in
 3062              		.thumb
 3063              		.thumb_func
 3064              		.type	usb_lld_start_in, %function
 3065              	usb_lld_start_in:
 3066              	.LFB151:
 3067              		.loc 1 1294 0
 3068              		.cfi_startproc
 3069              		@ args = 0, pretend = 0, frame = 0
 3070              		@ frame_needed = 0, uses_anonymous_args = 0
 3071              		@ link register save eliminated.
 3072              	.LVL289:
 3073              		.loc 1 1296 0
 3074 0000 01F14803 		add	r3, r1, #72
 3075 0004 026D     		ldr	r2, [r0, #80]
 3076 0006 5B01     		lsls	r3, r3, #5
 3077 0008 D058     		ldr	r0, [r2, r3]
 3078              	.LVL290:
 3079 000a 40F00440 		orr	r0, r0, #-2080374784
 3080 000e D050     		str	r0, [r2, r3]
 3081              		.loc 1 1297 0
 3082 0010 0120     		movs	r0, #1
 3083 0012 D2F83438 		ldr	r3, [r2, #2100]
 3084 0016 8840     		lsls	r0, r0, r1
 3085 0018 40EA0301 		orr	r1, r0, r3
 3086              	.LVL291:
 3087 001c C2F83418 		str	r1, [r2, #2100]
 3088              		.loc 1 1298 0
 3089 0020 7047     		bx	lr
 3090              		.cfi_endproc
 3091              	.LFE151:
 3092              		.size	usb_lld_start_in, .-usb_lld_start_in
 3093 0022 00BFAFF3 		.section	.text.usb_lld_stall_out,"ax",%progbits
 3093      0080AFF3 
 3093      0080AFF3 
 3093      0080
 3094              		.align	2
 3095              		.p2align 4,,15
 3096              		.global	usb_lld_stall_out
 3097              		.thumb
 3098              		.thumb_func
 3099              		.type	usb_lld_stall_out, %function
 3100              	usb_lld_stall_out:
 3101              	.LFB152:
 3102              		.loc 1 1308 0
 3103              		.cfi_startproc
 3104              		@ args = 0, pretend = 0, frame = 0
 3105              		@ frame_needed = 0, uses_anonymous_args = 0
 3106              		@ link register save eliminated.
ARM GAS  C:\Users\DNIEL~1\AppData\Local\Temp\cccPEDO0.s 			page 56


 3107              	.LVL292:
 3108              		.loc 1 1310 0
 3109 0000 5831     		adds	r1, r1, #88
 3110              	.LVL293:
 3111 0002 036D     		ldr	r3, [r0, #80]
 3112 0004 4901     		lsls	r1, r1, #5
 3113 0006 5858     		ldr	r0, [r3, r1]
 3114              	.LVL294:
 3115 0008 40F40012 		orr	r2, r0, #2097152
 3116 000c 5A50     		str	r2, [r3, r1]
 3117              		.loc 1 1311 0
 3118 000e 7047     		bx	lr
 3119              		.cfi_endproc
 3120              	.LFE152:
 3121              		.size	usb_lld_stall_out, .-usb_lld_stall_out
 3122              		.section	.text.usb_lld_stall_in,"ax",%progbits
 3123              		.align	2
 3124              		.p2align 4,,15
 3125              		.global	usb_lld_stall_in
 3126              		.thumb
 3127              		.thumb_func
 3128              		.type	usb_lld_stall_in, %function
 3129              	usb_lld_stall_in:
 3130              	.LFB153:
 3131              		.loc 1 1321 0
 3132              		.cfi_startproc
 3133              		@ args = 0, pretend = 0, frame = 0
 3134              		@ frame_needed = 0, uses_anonymous_args = 0
 3135              		@ link register save eliminated.
 3136              	.LVL295:
 3137              		.loc 1 1323 0
 3138 0000 4831     		adds	r1, r1, #72
 3139              	.LVL296:
 3140 0002 036D     		ldr	r3, [r0, #80]
 3141 0004 4901     		lsls	r1, r1, #5
 3142 0006 5858     		ldr	r0, [r3, r1]
 3143              	.LVL297:
 3144 0008 40F40012 		orr	r2, r0, #2097152
 3145 000c 5A50     		str	r2, [r3, r1]
 3146              		.loc 1 1324 0
 3147 000e 7047     		bx	lr
 3148              		.cfi_endproc
 3149              	.LFE153:
 3150              		.size	usb_lld_stall_in, .-usb_lld_stall_in
 3151              		.section	.text.usb_lld_clear_out,"ax",%progbits
 3152              		.align	2
 3153              		.p2align 4,,15
 3154              		.global	usb_lld_clear_out
 3155              		.thumb
 3156              		.thumb_func
 3157              		.type	usb_lld_clear_out, %function
 3158              	usb_lld_clear_out:
 3159              	.LFB154:
 3160              		.loc 1 1334 0
 3161              		.cfi_startproc
 3162              		@ args = 0, pretend = 0, frame = 0
 3163              		@ frame_needed = 0, uses_anonymous_args = 0
ARM GAS  C:\Users\DNIEL~1\AppData\Local\Temp\cccPEDO0.s 			page 57


 3164              		@ link register save eliminated.
 3165              	.LVL298:
 3166              		.loc 1 1336 0
 3167 0000 5831     		adds	r1, r1, #88
 3168              	.LVL299:
 3169 0002 036D     		ldr	r3, [r0, #80]
 3170 0004 4901     		lsls	r1, r1, #5
 3171 0006 5858     		ldr	r0, [r3, r1]
 3172              	.LVL300:
 3173 0008 20F40012 		bic	r2, r0, #2097152
 3174 000c 5A50     		str	r2, [r3, r1]
 3175              		.loc 1 1337 0
 3176 000e 7047     		bx	lr
 3177              		.cfi_endproc
 3178              	.LFE154:
 3179              		.size	usb_lld_clear_out, .-usb_lld_clear_out
 3180              		.section	.text.usb_lld_clear_in,"ax",%progbits
 3181              		.align	2
 3182              		.p2align 4,,15
 3183              		.global	usb_lld_clear_in
 3184              		.thumb
 3185              		.thumb_func
 3186              		.type	usb_lld_clear_in, %function
 3187              	usb_lld_clear_in:
 3188              	.LFB155:
 3189              		.loc 1 1347 0
 3190              		.cfi_startproc
 3191              		@ args = 0, pretend = 0, frame = 0
 3192              		@ frame_needed = 0, uses_anonymous_args = 0
 3193              		@ link register save eliminated.
 3194              	.LVL301:
 3195              		.loc 1 1349 0
 3196 0000 4831     		adds	r1, r1, #72
 3197              	.LVL302:
 3198 0002 036D     		ldr	r3, [r0, #80]
 3199 0004 4901     		lsls	r1, r1, #5
 3200 0006 5858     		ldr	r0, [r3, r1]
 3201              	.LVL303:
 3202 0008 20F40012 		bic	r2, r0, #2097152
 3203 000c 5A50     		str	r2, [r3, r1]
 3204              		.loc 1 1350 0
 3205 000e 7047     		bx	lr
 3206              		.cfi_endproc
 3207              	.LFE155:
 3208              		.size	usb_lld_clear_in, .-usb_lld_clear_in
 3209              		.global	USBD1
 3210              		.section	.rodata.fsparams,"a",%progbits
 3211              		.align	2
 3212              		.set	.LANCHOR1,. + 0
 3213              		.type	fsparams, %object
 3214              		.size	fsparams, 12
 3215              	fsparams:
 3216 0000 80000000 		.word	128
 3217 0004 40010000 		.word	320
 3218 0008 03000000 		.word	3
 3219              		.section	.bss.USBD1,"aw",%nobits
 3220              		.align	3
ARM GAS  C:\Users\DNIEL~1\AppData\Local\Temp\cccPEDO0.s 			page 58


 3221              		.set	.LANCHOR0,. + 0
 3222              		.type	USBD1, %object
 3223              		.size	USBD1, 440
 3224              	USBD1:
 3225 0000 00000000 		.space	440
 3225      00000000 
 3225      00000000 
 3225      00000000 
 3225      00000000 
 3226              		.section	.rodata.str1.4,"aMS",%progbits,1
 3227              		.align	2
 3228              	.LC0:
 3229 0000 7573625F 		.ascii	"usb_lld_pump\000"
 3229      6C6C645F 
 3229      70756D70 
 3229      00
 3230 000d 000000   		.section	.rodata.ep0config,"a",%progbits
 3231              		.align	2
 3232              		.set	.LANCHOR2,. + 0
 3233              		.type	ep0config, %object
 3234              		.size	ep0config, 36
 3235              	ep0config:
 3236 0000 00000000 		.word	0
 3237 0004 00000000 		.word	_usb_ep0setup
 3238 0008 00000000 		.word	_usb_ep0in
 3239 000c 00000000 		.word	_usb_ep0out
 3240 0010 4000     		.short	64
 3241 0012 4000     		.short	64
 3242 0014 00000000 		.word	ep0_state
 3243 0018 00000000 		.word	ep0_state
 3244 001c 0100     		.short	1
 3245 001e 0000     		.space	2
 3246 0020 00000000 		.word	ep0setup_buffer
 3247              		.section	.bss.ep0_state,"aw",%nobits
 3248              		.align	2
 3249              		.type	ep0_state, %object
 3250              		.size	ep0_state, 20
 3251              	ep0_state:
 3252 0000 00000000 		.space	20
 3252      00000000 
 3252      00000000 
 3252      00000000 
 3252      00000000 
 3253              		.section	.bss.ep0setup_buffer,"aw",%nobits
 3254              		.align	2
 3255              		.type	ep0setup_buffer, %object
 3256              		.size	ep0setup_buffer, 8
 3257              	ep0setup_buffer:
 3258 0000 00000000 		.space	8
 3258      00000000 
 3259              		.text
 3260              	.Letext0: