ARM GAS  C:\Users\DNIEL~1\AppData\Local\Temp\cccPEDO0.s 			page 1


   1              		.syntax unified
   2              		.cpu cortex-m4
   3              		.fpu softvfp
   4              		.eabi_attribute 20, 1
   5              		.eabi_attribute 21, 1
   6              		.eabi_attribute 23, 3
   7              		.eabi_attribute 24, 1
   8              		.eabi_attribute 25, 1
   9              		.eabi_attribute 26, 1
  10              		.eabi_attribute 30, 2
  11              		.eabi_attribute 18, 4
  12              		.thumb
  13              		.file	"usb_lld.c"
  14              		.section	.debug_abbrev,"",%progbits
  15              	.Ldebug_abbrev0:
  16              		.section	.debug_info,"",%progbits
  17              	.Ldebug_info0:
  18              		.section	.debug_line,"",%progbits
  19              	.Ldebug_line0:
  20 0000 D8080000 		.text
  20      0200BA02 
  20      00000201 
  20      FB0E0D00 
  20      01010101 
  21              	.Ltext0:
  22              		.cfi_sections	.debug_frame
  23              		.section	.text.usb_lld_pump,"ax",%progbits
  24              		.align	2
  25              		.p2align 4,,15
  26              		.thumb
  27              		.thumb_func
  28              		.type	usb_lld_pump, %function
  29              	usb_lld_pump:
  30              	.LFB136:
  31              		.file 1 "../../../ChibiOS/os/hal/platforms/STM32/OTGv1/usb_lld.c"
  32              		.loc 1 715 0
  33              		.cfi_startproc
  34              		@ args = 0, pretend = 0, frame = 24
  35              		@ frame_needed = 0, uses_anonymous_args = 0
  36              	.LVL0:
  37 0000 2DE9F04F 		push	{r4, r5, r6, r7, r8, r9, sl, fp, lr}
  38              	.LCFI0:
  39              		.cfi_def_cfa_offset 36
  40              		.loc 1 719 0
  41 0004 A54B     		ldr	r3, .L123
  42 0006 A649     		ldr	r1, .L123+4
  43 0008 9A69     		ldr	r2, [r3, #24]
  44              		.loc 1 717 0
  45 000a D0F85080 		ldr	r8, [r0, #80]
  46              		.cfi_offset 14, -4
  47              		.cfi_offset 11, -8
  48              		.cfi_offset 10, -12
  49              		.cfi_offset 9, -16
  50              		.cfi_offset 8, -20
  51              		.cfi_offset 7, -24
  52              		.cfi_offset 6, -28
  53              		.cfi_offset 5, -32
ARM GAS  C:\Users\DNIEL~1\AppData\Local\Temp\cccPEDO0.s 			page 2


  54              		.cfi_offset 4, -36
  55              		.loc 1 719 0
  56 000e 9161     		str	r1, [r2, #24]
  57              		.loc 1 715 0
  58 0010 87B0     		sub	sp, sp, #28
  59              	.LCFI1:
  60              		.cfi_def_cfa_offset 64
  61              		.loc 1 715 0
  62 0012 0546     		mov	r5, r0
  63              	.LVL1:
  64              	.LBB141:
  65              		.loc 1 720 0
  66 0014 2023     		movs	r3, #32
  67              	.LVL2:
  68              	@ 720 "../../../ChibiOS/os/hal/platforms/STM32/OTGv1/usb_lld.c" 1
  69 0016 83F31188 		msr     BASEPRI, r3
  70              	@ 0 "" 2
  71              	.LVL3:
  72              		.thumb
  73              	.LBE141:
  74              	.LBB142:
  75              	.LBB178:
  76              		.loc 1 732 0
  77 001a 0026     		movs	r6, #0
  78              	.LVL4:
  79              	.L56:
  80              	.LBE178:
  81              		.loc 1 726 0
  82 001c 2878     		ldrb	r0, [r5, #0]	@ zero_extendqisi2
  83 001e 0128     		cmp	r0, #1
  84 0020 06D0     		beq	.L2
  85              		.loc 1 726 0 is_stmt 0 discriminator 1
  86 0022 EC6D     		ldr	r4, [r5, #92]
  87 0024 84B9     		cbnz	r4, .L3
  88              		.loc 1 727 0 is_stmt 1
  89 0026 D8F81470 		ldr	r7, [r8, #20]
  90 002a 17F0100F 		tst	r7, #16
  91 002e 0BD1     		bne	.L3
  92              	.L2:
  93              		.loc 1 729 0
  94 0030 9A48     		ldr	r0, .L123
  95              		.loc 1 728 0
  96 0032 D8F81830 		ldr	r3, [r8, #24]
  97              	.LVL5:
  98              		.loc 1 729 0
  99 0036 8169     		ldr	r1, [r0, #24]
 100              		.loc 1 728 0
 101 0038 43F01002 		orr	r2, r3, #16
 102 003c C8F81820 		str	r2, [r8, #24]
 103              		.loc 1 730 0
 104 0040 0220     		movs	r0, #2
 105              		.loc 1 729 0
 106 0042 6966     		str	r1, [r5, #100]
 107              		.loc 1 730 0
 108 0044 FFF7FEFF 		bl	chSchGoSleepS
 109              	.LVL6:
 110              	.L3:
ARM GAS  C:\Users\DNIEL~1\AppData\Local\Temp\cccPEDO0.s 			page 3


 111              	.LBB177:
 112              		.loc 1 732 0
 113 0048 0023     		movs	r3, #0
 114              	.LVL7:
 115              	@ 732 "../../../ChibiOS/os/hal/platforms/STM32/OTGv1/usb_lld.c" 1
 116 004a 83F31188 		msr     BASEPRI, r3
 117              	@ 0 "" 2
 118              	.LVL8:
 119              		.loc 1 735 0
 120              		.thumb
 121 004e 9B46     		mov	fp, r3
 122 0050 0193     		str	r3, [sp, #4]
 123              	.LVL9:
 124              	.L97:
 125              	.LBE177:
 126              		.loc 1 738 0 discriminator 1
 127 0052 D8F81430 		ldr	r3, [r8, #20]
 128              	.LVL10:
 129 0056 13F01002 		ands	r2, r3, #16
 130 005a 3AD0     		beq	.L117
 131              	.L27:
 132              	.LVL11:
 133              	.LBB144:
 134              	.LBB145:
 135              		.loc 1 455 0
 136 005c 296D     		ldr	r1, [r5, #80]
 137 005e 0C6A     		ldr	r4, [r1, #32]
 138              	.LVL12:
 139              		.loc 1 456 0
 140 0060 04F4F013 		and	r3, r4, #1966080
 141 0064 B3F5802F 		cmp	r3, #262144
 142 0068 4DD0     		beq	.L6
 143 006a B3F5402F 		cmp	r3, #786432
 144 006e F0D1     		bne	.L97
 145              	.LVL13:
 146              		.loc 1 461 0
 147 0070 04F00F0A 		and	sl, r4, #15
 148              		.loc 1 462 0
 149 0074 05EB8A09 		add	r9, r5, sl, lsl #2
 150              		.loc 1 460 0
 151 0078 C4F30A12 		ubfx	r2, r4, #4, #11
 152              	.LBB148:
 153              	.LBB150:
 154              		.loc 1 373 0
 155 007c D41C     		adds	r4, r2, #3
 156              	.LVL14:
 157              	.LBE150:
 158              	.LBE148:
 159              		.loc 1 462 0
 160 007e D9F80C70 		ldr	r7, [r9, #12]
 161              	.LBB147:
 162              	.LBB149:
 163              		.loc 1 375 0
 164 0082 A408     		lsrs	r4, r4, #2
 165              	.LBE149:
 166              	.LBE147:
 167              		.loc 1 462 0
ARM GAS  C:\Users\DNIEL~1\AppData\Local\Temp\cccPEDO0.s 			page 4


 168 0084 01F58051 		add	r1, r1, #4096
 169 0088 3A6A     		ldr	r2, [r7, #32]
 170              	.LVL15:
 171              	.LBB146:
 172              	.LBB156:
 173              		.loc 1 375 0
 174 008a E2D0     		beq	.L97
 175 008c 013C     		subs	r4, r4, #1
 176              	.LBB151:
 177              		.loc 1 376 0
 178 008e 0B68     		ldr	r3, [r1, #0]
 179              	.LVL16:
 180              	.LBE151:
 181              		.loc 1 375 0
 182 0090 2046     		mov	r0, r4
 183              	.LBB152:
 184              		.loc 1 380 0
 185 0092 42F8043B 		str	r3, [r2], #4
 186              	.LVL17:
 187 0096 04F00104 		and	r4, r4, #1
 188              		.loc 1 382 0
 189 009a 0123     		movs	r3, #1
 190              	.LVL18:
 191              	.LBE152:
 192              		.loc 1 375 0
 193 009c 0028     		cmp	r0, #0
 194 009e D8D0     		beq	.L97
 195 00a0 2CB1     		cbz	r4, .L10
 196              	.LBB153:
 197              		.loc 1 376 0
 198 00a2 0C68     		ldr	r4, [r1, #0]
 199              		.loc 1 382 0
 200 00a4 0023     		movs	r3, #0
 201              	.LVL19:
 202              	.LBE153:
 203              		.loc 1 375 0
 204 00a6 0138     		subs	r0, r0, #1
 205              	.LBB154:
 206              		.loc 1 380 0
 207 00a8 42F8044B 		str	r4, [r2], #4
 208              	.LVL20:
 209              	.LBE154:
 210              		.loc 1 375 0
 211 00ac D1D0     		beq	.L97
 212              	.LVL21:
 213              	.L10:
 214              	.LBB155:
 215              		.loc 1 376 0
 216 00ae 0C68     		ldr	r4, [r1, #0]
 217              		.loc 1 377 0
 218 00b0 13B1     		cbz	r3, .L9
 219              		.loc 1 380 0
 220 00b2 42F8044B 		str	r4, [r2], #4
 221              	.LVL22:
 222              		.loc 1 382 0
 223 00b6 013B     		subs	r3, r3, #1
 224              	.LVL23:
ARM GAS  C:\Users\DNIEL~1\AppData\Local\Temp\cccPEDO0.s 			page 5


 225              	.L9:
 226              		.loc 1 384 0
 227 00b8 0138     		subs	r0, r0, #1
 228              		.loc 1 376 0
 229 00ba 0C68     		ldr	r4, [r1, #0]
 230              		.loc 1 377 0
 231 00bc 13B1     		cbz	r3, .L82
 232              		.loc 1 380 0
 233 00be 42F8044B 		str	r4, [r2], #4
 234              	.LVL24:
 235              		.loc 1 382 0
 236 00c2 013B     		subs	r3, r3, #1
 237              	.LVL25:
 238              	.L82:
 239              	.LBE155:
 240              		.loc 1 375 0
 241 00c4 0138     		subs	r0, r0, #1
 242 00c6 F2D1     		bne	.L10
 243              	.LBE156:
 244              	.LBE146:
 245              	.LBE145:
 246              	.LBE144:
 247              		.loc 1 738 0
 248 00c8 D8F81430 		ldr	r3, [r8, #20]
 249              	.LVL26:
 250 00cc 13F01002 		ands	r2, r3, #16
 251              	.LVL27:
 252 00d0 C4D1     		bne	.L27
 253              	.LVL28:
 254              	.L117:
 255              		.loc 1 742 0
 256 00d2 DDF804A0 		ldr	sl, [sp, #4]
 257              		.loc 1 743 0
 258 00d6 E96D     		ldr	r1, [r5, #92]
 259              		.loc 1 742 0
 260 00d8 4FF0010E 		mov	lr, #1
 261 00dc 0EFA0AF9 		lsl	r9, lr, sl
 262              		.loc 1 743 0
 263 00e0 19EA010F 		tst	r9, r1
 264              		.loc 1 742 0
 265 00e4 CDF81090 		str	r9, [sp, #16]
 266              	.LVL29:
 267              		.loc 1 743 0
 268 00e8 40F0DC80 		bne	.L118
 269              	.LVL30:
 270              	.L28:
 271              		.loc 1 735 0
 272 00ec 0198     		ldr	r0, [sp, #4]
 273 00ee 6B6D     		ldr	r3, [r5, #84]
 274              	.LVL31:
 275 00f0 411C     		adds	r1, r0, #1
 276 00f2 9F68     		ldr	r7, [r3, #8]
 277 00f4 CCB2     		uxtb	r4, r1
 278 00f6 BC42     		cmp	r4, r7
 279 00f8 0194     		str	r4, [sp, #4]
 280              	.LVL32:
 281 00fa A346     		mov	fp, r4
ARM GAS  C:\Users\DNIEL~1\AppData\Local\Temp\cccPEDO0.s 			page 6


 282 00fc A9D9     		bls	.L97
 283              	.LBB143:
 284              		.loc 1 767 0
 285 00fe 2023     		movs	r3, #32
 286              	@ 767 "../../../ChibiOS/os/hal/platforms/STM32/OTGv1/usb_lld.c" 1
 287 0100 83F31188 		msr     BASEPRI, r3
 288              	@ 0 "" 2
 289              	.LVL33:
 290              		.thumb
 291              	.LBE143:
 292              	.LBE142:
 293              		.loc 1 768 0
 294 0104 8AE7     		b	.L56
 295              	.LVL34:
 296              	.L6:
 297              	.LBB215:
 298              	.LBB179:
 299              	.LBB176:
 300              		.loc 1 467 0
 301 0106 04F00F07 		and	r7, r4, #15
 302              		.loc 1 468 0
 303 010a 0237     		adds	r7, r7, #2
 304 010c 05EB870C 		add	ip, r5, r7, lsl #2
 305              		.loc 1 466 0
 306 0110 C4F30A14 		ubfx	r4, r4, #4, #11
 307              	.LVL35:
 308              		.loc 1 468 0
 309 0114 DCF80400 		ldr	r0, [ip, #4]
 310 0118 8069     		ldr	r0, [r0, #24]
 311 011a 0278     		ldrb	r2, [r0, #0]	@ zero_extendqisi2
 312 011c 002A     		cmp	r2, #0
 313 011e 40D1     		bne	.L119
 314              	.LBB157:
 315              	.LBB159:
 316              		.loc 1 373 0
 317 0120 04F10309 		add	r9, r4, #3
 318              		.loc 1 375 0
 319 0124 5FEA990E 		lsrs	lr, r9, #2
 320              	.LBE159:
 321              	.LBE157:
 322              		.loc 1 475 0
 323 0128 01F58051 		add	r1, r1, #4096
 324 012c D0F80CC0 		ldr	ip, [r0, #12]
 325              		.loc 1 478 0
 326 0130 4368     		ldr	r3, [r0, #4]
 327              		.loc 1 479 0
 328 0132 8268     		ldr	r2, [r0, #8]
 329              	.LVL36:
 330              	.LBB164:
 331              	.LBB158:
 332              		.loc 1 375 0
 333 0134 29D0     		beq	.L24
 334              	.LBE158:
 335              	.LBE164:
 336              		.loc 1 475 0
 337 0136 0333     		adds	r3, r3, #3
 338              	.LBB165:
ARM GAS  C:\Users\DNIEL~1\AppData\Local\Temp\cccPEDO0.s 			page 7


 339              	.LBB163:
 340              		.loc 1 374 0
 341 0138 9B1A     		subs	r3, r3, r2
 342 013a 0EF1FF39 		add	r9, lr, #-1
 343              	.LBB160:
 344              		.loc 1 377 0
 345 013e 9B08     		lsrs	r3, r3, #2
 346              		.loc 1 376 0
 347 0140 D1F800A0 		ldr	sl, [r1, #0]
 348              	.LVL37:
 349              	.LBE160:
 350              		.loc 1 374 0
 351 0144 6246     		mov	r2, ip
 352 0146 09F00109 		and	r9, r9, #1
 353              	.LBB161:
 354              		.loc 1 377 0
 355 014a 03D0     		beq	.L70
 356              		.loc 1 380 0
 357 014c 6246     		mov	r2, ip
 358              		.loc 1 382 0
 359 014e 013B     		subs	r3, r3, #1
 360              		.loc 1 380 0
 361 0150 42F804AB 		str	sl, [r2], #4
 362              	.LVL38:
 363              	.L70:
 364              	.LBE161:
 365              		.loc 1 375 0
 366 0154 BEF1010E 		subs	lr, lr, #1
 367 0158 17D0     		beq	.L24
 368 015a B9F1000F 		cmp	r9, #0
 369 015e 03D0     		beq	.L26
 370              	.LBB162:
 371              		.loc 1 376 0
 372 0160 D1F80090 		ldr	r9, [r1, #0]
 373              	.LVL39:
 374              		.loc 1 377 0
 375 0164 73B1     		cbz	r3, .L75
 376 0166 0AE0     		b	.L101
 377              	.L26:
 378              		.loc 1 376 0
 379 0168 D1F80090 		ldr	r9, [r1, #0]
 380              		.loc 1 377 0
 381 016c 13B1     		cbz	r3, .L25
 382              		.loc 1 380 0
 383 016e 42F8049B 		str	r9, [r2], #4
 384              	.LVL40:
 385              		.loc 1 382 0
 386 0172 013B     		subs	r3, r3, #1
 387              	.LVL41:
 388              	.L25:
 389              		.loc 1 384 0
 390 0174 0EF1FF3E 		add	lr, lr, #-1
 391              		.loc 1 376 0
 392 0178 D1F80090 		ldr	r9, [r1, #0]
 393              		.loc 1 377 0
 394 017c 13B1     		cbz	r3, .L75
 395              	.L101:
ARM GAS  C:\Users\DNIEL~1\AppData\Local\Temp\cccPEDO0.s 			page 8


 396              		.loc 1 380 0
 397 017e 42F8049B 		str	r9, [r2], #4
 398              	.LVL42:
 399              		.loc 1 382 0
 400 0182 013B     		subs	r3, r3, #1
 401              	.LVL43:
 402              	.L75:
 403              	.LBE162:
 404              		.loc 1 375 0
 405 0184 BEF1010E 		subs	lr, lr, #1
 406 0188 EED1     		bne	.L26
 407              	.LVL44:
 408              	.L24:
 409              	.LBE163:
 410              	.LBE165:
 411              		.loc 1 480 0
 412 018a 0CEB0401 		add	r1, ip, r4
 413              	.LVL45:
 414 018e C160     		str	r1, [r0, #12]
 415              	.LVL46:
 416              	.L23:
 417              		.loc 1 482 0
 418 0190 05EB870E 		add	lr, r5, r7, lsl #2
 419 0194 DEF80420 		ldr	r2, [lr, #4]
 420 0198 9069     		ldr	r0, [r2, #24]
 421 019a 8768     		ldr	r7, [r0, #8]
 422 019c 3C19     		adds	r4, r7, r4
 423              	.LVL47:
 424 019e 8460     		str	r4, [r0, #8]
 425 01a0 57E7     		b	.L97
 426              	.LVL48:
 427              	.L119:
 428              		.loc 1 470 0
 429 01a2 01F58051 		add	r1, r1, #4096
 430 01a6 D0F80C90 		ldr	r9, [r0, #12]
 431              	.LVL49:
 432              	.LBB166:
 433              	.LBB167:
 434              		.loc 1 403 0
 435 01aa 002C     		cmp	r4, #0
 436 01ac 57D0     		beq	.L12
 437 01ae D9F81430 		ldr	r3, [r9, #20]
 438 01b2 2046     		mov	r0, r4
 439              	.LVL50:
 440              	.L99:
 441              	.LBB168:
 442              		.loc 1 407 0
 443 01b4 0328     		cmp	r0, #3
 444 01b6 09D9     		bls	.L14
 445              	.LVL51:
 446              	.L120:
 447              	.LBB169:
 448              		.loc 1 413 0
 449 01b8 D9F81020 		ldr	r2, [r9, #16]
 450 01bc 9A42     		cmp	r2, r3
 451 01be 07D8     		bhi	.L15
 452              		.loc 1 414 0
ARM GAS  C:\Users\DNIEL~1\AppData\Local\Temp\cccPEDO0.s 			page 9


 453 01c0 D9F80C30 		ldr	r3, [r9, #12]
 454              	.LVL52:
 455              	.LBE169:
 456              		.loc 1 407 0
 457 01c4 0328     		cmp	r0, #3
 458              	.LBB170:
 459              		.loc 1 414 0
 460 01c6 C9F81430 		str	r3, [r9, #20]
 461              	.LVL53:
 462              	.LBE170:
 463              		.loc 1 407 0
 464 01ca F5D8     		bhi	.L120
 465              	.LVL54:
 466              	.L14:
 467              	.LBB171:
 468              		.loc 1 414 0
 469 01cc D9F81430 		ldr	r3, [r9, #20]
 470              	.L15:
 471              	.LBE171:
 472              		.loc 1 425 0
 473 01d0 0A68     		ldr	r2, [r1, #0]
 474              	.LVL55:
 475              		.loc 1 428 0
 476 01d2 03F8012B 		strb	r2, [r3], #1
 477              		.loc 1 429 0
 478 01d6 D9F810E0 		ldr	lr, [r9, #16]
 479              		.loc 1 428 0
 480 01da C9F81430 		str	r3, [r9, #20]
 481              		.loc 1 429 0
 482 01de 7345     		cmp	r3, lr
 483              		.loc 1 430 0
 484 01e0 24BF     		itt	cs
 485 01e2 D9F80C30 		ldrcs	r3, [r9, #12]
 486 01e6 C9F81430 		strcs	r3, [r9, #20]
 487              		.loc 1 427 0
 488 01ea 0138     		subs	r0, r0, #1
 489              	.LVL56:
 490 01ec 37D0     		beq	.L12
 491              	.LVL57:
 492              		.loc 1 428 0
 493 01ee D9F81430 		ldr	r3, [r9, #20]
 494 01f2 4FEA122C 		lsr	ip, r2, #8
 495 01f6 03F801CB 		strb	ip, [r3], #1
 496              		.loc 1 429 0
 497 01fa D9F810A0 		ldr	sl, [r9, #16]
 498              		.loc 1 428 0
 499 01fe C9F81430 		str	r3, [r9, #20]
 500              		.loc 1 429 0
 501 0202 5345     		cmp	r3, sl
 502              		.loc 1 430 0
 503 0204 24BF     		itt	cs
 504 0206 D9F80C30 		ldrcs	r3, [r9, #12]
 505 020a C9F81430 		strcs	r3, [r9, #20]
 506              		.loc 1 427 0
 507 020e 0138     		subs	r0, r0, #1
 508              	.LVL58:
 509 0210 25D0     		beq	.L12
ARM GAS  C:\Users\DNIEL~1\AppData\Local\Temp\cccPEDO0.s 			page 10


 510              	.LVL59:
 511              		.loc 1 428 0
 512 0212 D9F81430 		ldr	r3, [r9, #20]
 513 0216 4FEA124A 		lsr	sl, r2, #16
 514 021a 03F801AB 		strb	sl, [r3], #1
 515              		.loc 1 429 0
 516 021e D9F810E0 		ldr	lr, [r9, #16]
 517              		.loc 1 428 0
 518 0222 C9F81430 		str	r3, [r9, #20]
 519              		.loc 1 429 0
 520 0226 7345     		cmp	r3, lr
 521              		.loc 1 430 0
 522 0228 24BF     		itt	cs
 523 022a D9F80C30 		ldrcs	r3, [r9, #12]
 524 022e C9F81430 		strcs	r3, [r9, #20]
 525              		.loc 1 427 0
 526 0232 0138     		subs	r0, r0, #1
 527              	.LVL60:
 528 0234 13D0     		beq	.L12
 529              	.LVL61:
 530              		.loc 1 428 0
 531 0236 D9F81430 		ldr	r3, [r9, #20]
 532 023a 120E     		lsrs	r2, r2, #24
 533              	.LVL62:
 534 023c 03F8012B 		strb	r2, [r3], #1
 535              		.loc 1 429 0
 536 0240 D9F81020 		ldr	r2, [r9, #16]
 537              		.loc 1 428 0
 538 0244 C9F81430 		str	r3, [r9, #20]
 539              		.loc 1 429 0
 540 0248 9342     		cmp	r3, r2
 541              		.loc 1 430 0
 542 024a 24BF     		itt	cs
 543 024c D9F80C30 		ldrcs	r3, [r9, #12]
 544 0250 C9F81430 		strcs	r3, [r9, #20]
 545              		.loc 1 427 0
 546 0254 0138     		subs	r0, r0, #1
 547              	.LVL63:
 548 0256 02D0     		beq	.L12
 549 0258 D9F81430 		ldr	r3, [r9, #20]
 550 025c AAE7     		b	.L99
 551              	.LVL64:
 552              	.L12:
 553              	.LBE168:
 554              	.LBB172:
 555              		.loc 1 437 0
 556 025e 2023     		movs	r3, #32
 557              	.LVL65:
 558              	@ 437 "../../../ChibiOS/os/hal/platforms/STM32/OTGv1/usb_lld.c" 1
 559 0260 83F31188 		msr     BASEPRI, r3
 560              	@ 0 "" 2
 561              	.LVL66:
 562              		.thumb
 563              	.LBE172:
 564              		.loc 1 438 0
 565 0264 D9F80830 		ldr	r3, [r9, #8]
 566              	.LVL67:
ARM GAS  C:\Users\DNIEL~1\AppData\Local\Temp\cccPEDO0.s 			page 11


 567              		.loc 1 439 0
 568 0268 D9F80000 		ldr	r0, [r9, #0]
 569              		.loc 1 438 0
 570 026c 1919     		adds	r1, r3, r4
 571              	.LVL68:
 572              		.loc 1 439 0
 573 026e 4845     		cmp	r0, r9
 574              		.loc 1 438 0
 575 0270 C9F80810 		str	r1, [r9, #8]
 576              		.loc 1 439 0
 577 0274 0CD0     		beq	.L21
 578 0276 CC46     		mov	ip, r9
 579 0278 A146     		mov	r9, r4
 580              	.LVL69:
 581 027a 6446     		mov	r4, ip
 582              	.LVL70:
 583              	.L61:
 584              	.LBB173:
 585              	.LBB174:
 586              		.file 2 "../../../ChibiOS/os/kernel/include/chinline.h"
 587              		.loc 2 62 0
 588 027c 0268     		ldr	r2, [r0, #0]
 589 027e 2260     		str	r2, [r4, #0]
 590 0280 5460     		str	r4, [r2, #4]
 591              	.LBE174:
 592              	.LBE173:
 593              		.loc 1 440 0
 594 0282 FFF7FEFF 		bl	chSchReadyI
 595              	.LVL71:
 596 0286 4662     		str	r6, [r0, #36]
 597              		.loc 1 439 0
 598 0288 2068     		ldr	r0, [r4, #0]
 599 028a A042     		cmp	r0, r4
 600 028c F6D1     		bne	.L61
 601 028e 4C46     		mov	r4, r9
 602              	.LVL72:
 603              	.L21:
 604              		.loc 1 441 0
 605 0290 FFF7FEFF 		bl	chSchRescheduleS
 606              	.LBB175:
 607              		.loc 1 442 0
 608 0294 0023     		movs	r3, #0
 609              	@ 442 "../../../ChibiOS/os/hal/platforms/STM32/OTGv1/usb_lld.c" 1
 610 0296 83F31188 		msr     BASEPRI, r3
 611              	@ 0 "" 2
 612              	.LVL73:
 613              		.thumb
 614 029a 79E7     		b	.L23
 615              	.L124:
 616              		.align	2
 617              	.L123:
 618 029c 00000000 		.word	rlist
 619 02a0 00000000 		.word	.LC0
 620              	.LVL74:
 621              	.L118:
 622              	.LBE175:
 623              	.LBE167:
ARM GAS  C:\Users\DNIEL~1\AppData\Local\Temp\cccPEDO0.s 			page 12


 624              	.LBE166:
 625              	.LBE176:
 626              	.LBE179:
 627              	.LBB180:
 628              	.LBB181:
 629              		.loc 1 746 0
 630 02a4 2023     		movs	r3, #32
 631              	.LVL75:
 632              	@ 746 "../../../ChibiOS/os/hal/platforms/STM32/OTGv1/usb_lld.c" 1
 633 02a6 83F31188 		msr     BASEPRI, r3
 634              	@ 0 "" 2
 635              	.LVL76:
 636              		.thumb
 637              	.LBE181:
 638              		.loc 1 754 0
 639 02aa D8F80830 		ldr	r3, [r8, #8]
 640              	.LVL77:
 641              		.loc 1 755 0
 642 02ae EF6D     		ldr	r7, [r5, #92]
 643              		.loc 1 754 0
 644 02b0 23F00104 		bic	r4, r3, #1
 645              		.loc 1 755 0
 646 02b4 27EA0900 		bic	r0, r7, r9
 647              		.loc 1 754 0
 648 02b8 C8F80840 		str	r4, [r8, #8]
 649              	.LBB182:
 650              		.loc 1 756 0
 651 02bc 1346     		mov	r3, r2
 652              	.LVL78:
 653              	.LBE182:
 654              		.loc 1 755 0
 655 02be E865     		str	r0, [r5, #92]
 656              	.LBB183:
 657              		.loc 1 756 0
 658              	@ 756 "../../../ChibiOS/os/hal/platforms/STM32/OTGv1/usb_lld.c" 1
 659 02c0 83F31188 		msr     BASEPRI, r3
 660              	@ 0 "" 2
 661              	.LVL79:
 662              		.thumb
 663              	.LBE183:
 664              	.LBB184:
 665              	.LBB185:
 666              		.loc 1 506 0
 667 02c4 DDF80490 		ldr	r9, [sp, #4]
 668              	.LVL80:
 669 02c8 09F1020C 		add	ip, r9, #2
 670 02cc 05EB8C00 		add	r0, r5, ip, lsl #2
 671 02d0 D0F804C0 		ldr	ip, [r0, #4]
 672 02d4 DCF81410 		ldr	r1, [ip, #20]
 673 02d8 8C68     		ldr	r4, [r1, #8]
 674 02da 4F68     		ldr	r7, [r1, #4]
 675 02dc A742     		cmp	r7, r4
 676 02de 40F21981 		bls	.L57
 677              		.loc 1 516 0
 678 02e2 DDF804E0 		ldr	lr, [sp, #4]
 679 02e6 2B6D     		ldr	r3, [r5, #80]
 680              	.LVL81:
ARM GAS  C:\Users\DNIEL~1\AppData\Local\Temp\cccPEDO0.s 			page 13


 681              		.loc 1 511 0
 682 02e8 BCF810A0 		ldrh	sl, [ip, #16]
 683              		.loc 1 516 0
 684 02ec 4FEA4E19 		lsl	r9, lr, #5
 685 02f0 03EB090C 		add	ip, r3, r9
 686              		.loc 1 510 0
 687 02f4 3F1B     		subs	r7, r7, r4
 688              	.LVL82:
 689              		.loc 1 516 0
 690 02f6 DCF81849 		ldr	r4, [ip, #2328]
 691 02fa CDF80890 		str	r9, [sp, #8]
 692              		.loc 1 510 0
 693 02fe BA45     		cmp	sl, r7
 694 0300 38BF     		it	cc
 695 0302 5746     		movcc	r7, sl
 696              	.LVL83:
 697              		.loc 1 516 0
 698 0304 1FFA84FE 		uxth	lr, r4
 699 0308 B7EB8E0F 		cmp	r7, lr, lsl #2
 700 030c 52D8     		bhi	.L29
 701              		.loc 1 525 0
 702 030e 4FEA0B3B 		lsl	fp, fp, #12
 703 0312 CDF81480 		str	r8, [sp, #20]
 704              		.loc 1 536 0
 705 0316 0390     		str	r0, [sp, #12]
 706 0318 D846     		mov	r8, fp
 707              	.L30:
 708              		.loc 1 523 0
 709 031a 0A78     		ldrb	r2, [r1, #0]	@ zero_extendqisi2
 710 031c 002A     		cmp	r2, #0
 711 031e 5ED1     		bne	.L121
 712              	.LBB188:
 713              	.LBB190:
 714              		.loc 1 272 0
 715 0320 07F10309 		add	r9, r7, #3
 716              	.LBE190:
 717              	.LBE188:
 718              		.loc 1 531 0
 719 0324 03F5805E 		add	lr, r3, #4096
 720              	.LBB187:
 721              	.LBB189:
 722              	.LBB191:
 723              	.LBB192:
 724              		.loc 1 249 0
 725 0328 5FEA990C 		lsrs	ip, r9, #2
 726              	.LBE192:
 727              	.LBE191:
 728              	.LBE189:
 729              	.LBE187:
 730              		.loc 1 531 0
 731 032c 0EEB0800 		add	r0, lr, r8
 732 0330 CC68     		ldr	r4, [r1, #12]
 733              	.LVL84:
 734              	.LBB186:
 735              	.LBB195:
 736              	.LBB194:
 737              	.LBB193:
ARM GAS  C:\Users\DNIEL~1\AppData\Local\Temp\cccPEDO0.s 			page 14


 738              		.loc 1 249 0
 739 0332 20D0     		beq	.L50
 740              	.LVL85:
 741              		.loc 1 252 0
 742 0334 2346     		mov	r3, r4
 743 0336 0CF1FF3A 		add	sl, ip, #-1
 744 033a 53F804BB 		ldr	fp, [r3], #4
 745              		.loc 1 249 0
 746 033e 5246     		mov	r2, sl
 747 0340 0AF0010C 		and	ip, sl, #1
 748              	.LVL86:
 749              		.loc 1 252 0
 750 0344 4EF808B0 		str	fp, [lr, r8]
 751              	.LVL87:
 752              		.loc 1 249 0
 753 0348 AAB1     		cbz	r2, .L50
 754 034a BCF1000F 		cmp	ip, #0
 755 034e 06D0     		beq	.L115
 756              		.loc 1 252 0
 757 0350 D4F804C0 		ldr	ip, [r4, #4]
 758              		.loc 1 253 0
 759 0354 0433     		adds	r3, r3, #4
 760              	.LVL88:
 761              		.loc 1 249 0
 762 0356 013A     		subs	r2, r2, #1
 763              		.loc 1 252 0
 764 0358 4EF808C0 		str	ip, [lr, r8]
 765              		.loc 1 249 0
 766 035c 0BD0     		beq	.L50
 767              	.LVL89:
 768              	.L115:
 769 035e 8C46     		mov	ip, r1
 770              	.LVL90:
 771              	.L51:
 772              		.loc 1 252 0
 773 0360 9E46     		mov	lr, r3
 774              		.loc 1 249 0
 775 0362 023A     		subs	r2, r2, #2
 776              		.loc 1 252 0
 777 0364 5EF8041B 		ldr	r1, [lr], #4
 778 0368 0160     		str	r1, [r0, #0]
 779 036a 5968     		ldr	r1, [r3, #4]
 780              		.loc 1 253 0
 781 036c 0EF10403 		add	r3, lr, #4
 782              		.loc 1 252 0
 783 0370 0160     		str	r1, [r0, #0]
 784              		.loc 1 249 0
 785 0372 F5D1     		bne	.L51
 786 0374 6146     		mov	r1, ip
 787              	.LVL91:
 788              	.L50:
 789              	.LBE193:
 790              	.LBE194:
 791              	.LBE195:
 792              	.LBE186:
 793              		.loc 1 534 0
 794 0376 E019     		adds	r0, r4, r7
ARM GAS  C:\Users\DNIEL~1\AppData\Local\Temp\cccPEDO0.s 			page 15


 795              	.LVL92:
 796 0378 C860     		str	r0, [r1, #12]
 797              	.LVL93:
 798              	.L49:
 799              		.loc 1 536 0
 800 037a 039C     		ldr	r4, [sp, #12]
 801 037c 6468     		ldr	r4, [r4, #4]
 802 037e 6169     		ldr	r1, [r4, #20]
 803 0380 8A68     		ldr	r2, [r1, #8]
 804              		.loc 1 506 0
 805 0382 4868     		ldr	r0, [r1, #4]
 806              		.loc 1 536 0
 807 0384 BA18     		adds	r2, r7, r2
 808              		.loc 1 506 0
 809 0386 9042     		cmp	r0, r2
 810              		.loc 1 536 0
 811 0388 8A60     		str	r2, [r1, #8]
 812              		.loc 1 506 0
 813 038a 40F2BF80 		bls	.L122
 814              		.loc 1 516 0
 815 038e 2B6D     		ldr	r3, [r5, #80]
 816              	.LVL94:
 817 0390 DDF808C0 		ldr	ip, [sp, #8]
 818              		.loc 1 511 0
 819 0394 248A     		ldrh	r4, [r4, #16]
 820              		.loc 1 516 0
 821 0396 03EB0C0A 		add	sl, r3, ip
 822              		.loc 1 510 0
 823 039a 871A     		subs	r7, r0, r2
 824              	.LVL95:
 825              		.loc 1 516 0
 826 039c DAF81809 		ldr	r0, [sl, #2328]
 827              		.loc 1 510 0
 828 03a0 A742     		cmp	r7, r4
 829 03a2 28BF     		it	cs
 830 03a4 2746     		movcs	r7, r4
 831              	.LVL96:
 832              		.loc 1 516 0
 833 03a6 82B2     		uxth	r2, r0
 834 03a8 B7EB820F 		cmp	r7, r2, lsl #2
 835 03ac B5D9     		bls	.L30
 836 03ae DDF81480 		ldr	r8, [sp, #20]
 837              		.loc 1 517 0
 838 03b2 0022     		movs	r2, #0
 839              	.LVL97:
 840              	.L29:
 841              	.LBE185:
 842              	.LBE184:
 843              	.LBB212:
 844              		.loc 1 760 0
 845 03b4 2023     		movs	r3, #32
 846              	.LVL98:
 847              	@ 760 "../../../ChibiOS/os/hal/platforms/STM32/OTGv1/usb_lld.c" 1
 848 03b6 83F31188 		msr     BASEPRI, r3
 849              	@ 0 "" 2
 850              	.LVL99:
 851              		.thumb
ARM GAS  C:\Users\DNIEL~1\AppData\Local\Temp\cccPEDO0.s 			page 16


 852              	.LBE212:
 853              		.loc 1 761 0
 854 03ba D8F80830 		ldr	r3, [r8, #8]
 855              	.LVL100:
 856 03be 43F00107 		orr	r7, r3, #1
 857 03c2 C8F80870 		str	r7, [r8, #8]
 858              		.loc 1 762 0
 859 03c6 32B9     		cbnz	r2, .L53
 860              		.loc 1 763 0
 861 03c8 D8F83408 		ldr	r0, [r8, #2100]
 862 03cc 049A     		ldr	r2, [sp, #16]
 863 03ce 42EA0001 		orr	r1, r2, r0
 864 03d2 C8F83418 		str	r1, [r8, #2100]
 865              	.L53:
 866              	.LBB213:
 867              		.loc 1 764 0
 868 03d6 0023     		movs	r3, #0
 869              	@ 764 "../../../ChibiOS/os/hal/platforms/STM32/OTGv1/usb_lld.c" 1
 870 03d8 83F31188 		msr     BASEPRI, r3
 871              	@ 0 "" 2
 872              	.LVL101:
 873              		.thumb
 874 03dc 86E6     		b	.L28
 875              	.LVL102:
 876              	.L121:
 877              	.LBE213:
 878              	.LBB214:
 879              	.LBB211:
 880              		.loc 1 525 0
 881 03de 03F58053 		add	r3, r3, #4096
 882 03e2 03EB080E 		add	lr, r3, r8
 883 03e6 CC68     		ldr	r4, [r1, #12]
 884              	.LVL103:
 885              	.LBB196:
 886              	.LBB197:
 887              		.loc 1 290 0
 888 03e8 002F     		cmp	r7, #0
 889 03ea 3BD0     		beq	.L32
 890 03ec D4F81090 		ldr	r9, [r4, #16]
 891 03f0 3846     		mov	r0, r7
 892 03f2 AA46     		mov	sl, r5
 893 03f4 BB46     		mov	fp, r7
 894              	.LVL104:
 895              	.L46:
 896              	.LBB198:
 897              		.loc 1 294 0
 898 03f6 8308     		lsrs	r3, r0, #2
 899 03f8 50D1     		bne	.L33
 900 03fa A569     		ldr	r5, [r4, #24]
 901              	.LVL105:
 902              	.L34:
 903              		.loc 1 315 0
 904 03fc 15F8013B 		ldrb	r3, [r5], #1	@ zero_extendqisi2
 905              	.LVL106:
 906              		.loc 1 316 0
 907 0400 A945     		cmp	r9, r5
 908              		.loc 1 317 0
ARM GAS  C:\Users\DNIEL~1\AppData\Local\Temp\cccPEDO0.s 			page 17


 909 0402 98BF     		it	ls
 910 0404 E268     		ldrls	r2, [r4, #12]
 911              		.loc 1 315 0
 912 0406 A561     		str	r5, [r4, #24]
 913              		.loc 1 317 0
 914 0408 98BF     		it	ls
 915 040a A261     		strls	r2, [r4, #24]
 916              		.loc 1 314 0
 917 040c 0138     		subs	r0, r0, #1
 918              	.LVL107:
 919 040e 41D0     		beq	.L41
 920              		.loc 1 315 0
 921 0410 A269     		ldr	r2, [r4, #24]
 922 0412 12F801CB 		ldrb	ip, [r2], #1	@ zero_extendqisi2
 923              		.loc 1 316 0
 924 0416 9145     		cmp	r9, r2
 925              		.loc 1 315 0
 926 0418 A261     		str	r2, [r4, #24]
 927              		.loc 1 317 0
 928 041a 9CBF     		itt	ls
 929 041c E268     		ldrls	r2, [r4, #12]
 930 041e A261     		strls	r2, [r4, #24]
 931              		.loc 1 314 0
 932 0420 0138     		subs	r0, r0, #1
 933              	.LVL108:
 934              		.loc 1 315 0
 935 0422 43EA0C23 		orr	r3, r3, ip, lsl #8
 936              	.LVL109:
 937              		.loc 1 314 0
 938 0426 35D0     		beq	.L41
 939              		.loc 1 315 0
 940 0428 A269     		ldr	r2, [r4, #24]
 941 042a 12F8011B 		ldrb	r1, [r2], #1	@ zero_extendqisi2
 942              		.loc 1 316 0
 943 042e 9145     		cmp	r9, r2
 944              		.loc 1 315 0
 945 0430 A261     		str	r2, [r4, #24]
 946              		.loc 1 317 0
 947 0432 9CBF     		itt	ls
 948 0434 E268     		ldrls	r2, [r4, #12]
 949 0436 A261     		strls	r2, [r4, #24]
 950              		.loc 1 314 0
 951 0438 0138     		subs	r0, r0, #1
 952              		.loc 1 315 0
 953 043a 43EA0143 		orr	r3, r3, r1, lsl #16
 954              	.LVL110:
 955              		.loc 1 314 0
 956 043e 29D0     		beq	.L41
 957              		.loc 1 315 0
 958 0440 A269     		ldr	r2, [r4, #24]
 959 0442 12F8017B 		ldrb	r7, [r2], #1	@ zero_extendqisi2
 960              		.loc 1 316 0
 961 0446 4A45     		cmp	r2, r9
 962              		.loc 1 315 0
 963 0448 A261     		str	r2, [r4, #24]
 964              		.loc 1 317 0
 965 044a 24BF     		itt	cs
ARM GAS  C:\Users\DNIEL~1\AppData\Local\Temp\cccPEDO0.s 			page 18


 966 044c E268     		ldrcs	r2, [r4, #12]
 967 044e A261     		strcs	r2, [r4, #24]
 968              		.loc 1 314 0
 969 0450 0138     		subs	r0, r0, #1
 970              		.loc 1 315 0
 971 0452 43EA0763 		orr	r3, r3, r7, lsl #24
 972              	.LVL111:
 973              		.loc 1 314 0
 974 0456 1DD0     		beq	.L41
 975              		.loc 1 321 0
 976 0458 CEF80030 		str	r3, [lr, #0]
 977              	.LVL112:
 978              	.L39:
 979              	.LBE198:
 980              		.loc 1 290 0
 981 045c 0028     		cmp	r0, #0
 982 045e CAD1     		bne	.L46
 983              	.LVL113:
 984              	.L107:
 985 0460 5546     		mov	r5, sl
 986 0462 5F46     		mov	r7, fp
 987              	.LVL114:
 988              	.L32:
 989              	.LBB205:
 990              		.loc 1 325 0
 991 0464 2023     		movs	r3, #32
 992              	.LVL115:
 993              	@ 325 "../../../ChibiOS/os/hal/platforms/STM32/OTGv1/usb_lld.c" 1
 994 0466 83F31188 		msr     BASEPRI, r3
 995              	@ 0 "" 2
 996              	.LVL116:
 997              		.thumb
 998              	.LBE205:
 999              		.loc 1 326 0
 1000 046a A368     		ldr	r3, [r4, #8]
 1001              	.LVL117:
 1002              		.loc 1 327 0
 1003 046c 2068     		ldr	r0, [r4, #0]
 1004              		.loc 1 326 0
 1005 046e DA19     		adds	r2, r3, r7
 1006              		.loc 1 327 0
 1007 0470 A042     		cmp	r0, r4
 1008              		.loc 1 326 0
 1009 0472 A260     		str	r2, [r4, #8]
 1010              		.loc 1 327 0
 1011 0474 08D0     		beq	.L47
 1012              	.LVL118:
 1013              	.L62:
 1014              	.LBB206:
 1015              	.LBB207:
 1016              		.loc 2 62 0
 1017 0476 0168     		ldr	r1, [r0, #0]
 1018 0478 2160     		str	r1, [r4, #0]
 1019 047a 4C60     		str	r4, [r1, #4]
 1020              	.LBE207:
 1021              	.LBE206:
 1022              		.loc 1 328 0
ARM GAS  C:\Users\DNIEL~1\AppData\Local\Temp\cccPEDO0.s 			page 19


 1023 047c FFF7FEFF 		bl	chSchReadyI
 1024              	.LVL119:
 1025 0480 4662     		str	r6, [r0, #36]
 1026              		.loc 1 327 0
 1027 0482 2068     		ldr	r0, [r4, #0]
 1028 0484 8442     		cmp	r4, r0
 1029 0486 F6D1     		bne	.L62
 1030              	.LVL120:
 1031              	.L47:
 1032              		.loc 1 329 0
 1033 0488 FFF7FEFF 		bl	chSchRescheduleS
 1034              	.LBB208:
 1035              		.loc 1 330 0
 1036 048c 0023     		movs	r3, #0
 1037              	@ 330 "../../../ChibiOS/os/hal/platforms/STM32/OTGv1/usb_lld.c" 1
 1038 048e 83F31188 		msr     BASEPRI, r3
 1039              	@ 0 "" 2
 1040              	.LVL121:
 1041              		.thumb
 1042 0492 72E7     		b	.L49
 1043              	.LVL122:
 1044              	.L41:
 1045              	.LBE208:
 1046              	.LBB209:
 1047              	.LBB200:
 1048              	.LBB201:
 1049              	.LBB202:
 1050              		.loc 1 249 0
 1051 0494 0020     		movs	r0, #0
 1052              	.LBE202:
 1053              	.LBE201:
 1054              	.LBE200:
 1055              		.loc 1 321 0
 1056 0496 CEF80030 		str	r3, [lr, #0]
 1057 049a DFE7     		b	.L39
 1058              	.LVL123:
 1059              	.L33:
 1060              	.LBB199:
 1061              		.loc 1 296 0
 1062 049c A569     		ldr	r5, [r4, #24]
 1063              	.LVL124:
 1064 049e B9EB0501 		subs	r1, r9, r5
 1065 04a2 48BF     		it	mi
 1066 04a4 0331     		addmi	r1, r1, #3
 1067 04a6 8910     		asrs	r1, r1, #2
 1068              		.loc 1 298 0
 1069 04a8 8B42     		cmp	r3, r1
 1070 04aa 38BF     		it	cc
 1071 04ac 1946     		movcc	r1, r3
 1072              	.LVL125:
 1073 04ae 4FEA810C 		lsl	ip, r1, #2
 1074 04b2 CCEB0000 		rsb	r0, ip, r0
 1075              	.LVL126:
 1076              	.LBB204:
 1077              	.LBB203:
 1078              		.loc 1 249 0
 1079 04b6 E1B1     		cbz	r1, .L36
ARM GAS  C:\Users\DNIEL~1\AppData\Local\Temp\cccPEDO0.s 			page 20


 1080              		.loc 1 252 0
 1081 04b8 2B46     		mov	r3, r5
 1082              	.LVL127:
 1083 04ba 0139     		subs	r1, r1, #1
 1084              	.LVL128:
 1085 04bc 53F8047B 		ldr	r7, [r3], #4
 1086              		.loc 1 249 0
 1087 04c0 0A46     		mov	r2, r1
 1088              		.loc 1 252 0
 1089 04c2 CEF80070 		str	r7, [lr, #0]
 1090              	.LVL129:
 1091 04c6 01F00101 		and	r1, r1, #1
 1092              	.LVL130:
 1093              		.loc 1 249 0
 1094 04ca 8AB1     		cbz	r2, .L102
 1095 04cc 29B1     		cbz	r1, .L37
 1096              		.loc 1 252 0
 1097 04ce 53F8047B 		ldr	r7, [r3], #4
 1098              		.loc 1 249 0
 1099 04d2 013A     		subs	r2, r2, #1
 1100              	.LVL131:
 1101              		.loc 1 252 0
 1102 04d4 CEF80070 		str	r7, [lr, #0]
 1103              	.LVL132:
 1104              		.loc 1 249 0
 1105 04d8 0AD0     		beq	.L102
 1106              	.LVL133:
 1107              	.L37:
 1108              		.loc 1 252 0
 1109 04da 1946     		mov	r1, r3
 1110 04dc 51F8047B 		ldr	r7, [r1], #4
 1111 04e0 CEF80070 		str	r7, [lr, #0]
 1112 04e4 5F68     		ldr	r7, [r3, #4]
 1113              		.loc 1 253 0
 1114 04e6 0B1D     		adds	r3, r1, #4
 1115              		.loc 1 249 0
 1116 04e8 023A     		subs	r2, r2, #2
 1117              		.loc 1 252 0
 1118 04ea CEF80070 		str	r7, [lr, #0]
 1119              		.loc 1 249 0
 1120 04ee F4D1     		bne	.L37
 1121              	.L102:
 1122 04f0 6544     		add	r5, r5, ip
 1123              	.L36:
 1124              	.LBE203:
 1125              	.LBE204:
 1126              		.loc 1 300 0
 1127 04f2 4D45     		cmp	r5, r9
 1128              		.loc 1 299 0
 1129 04f4 A561     		str	r5, [r4, #24]
 1130              		.loc 1 300 0
 1131 04f6 05D3     		bcc	.L38
 1132              		.loc 1 301 0
 1133 04f8 E568     		ldr	r5, [r4, #12]
 1134 04fa A561     		str	r5, [r4, #24]
 1135              	.LBE199:
 1136              	.LBE209:
ARM GAS  C:\Users\DNIEL~1\AppData\Local\Temp\cccPEDO0.s 			page 21


 1137              		.loc 1 290 0
 1138 04fc 0028     		cmp	r0, #0
 1139 04fe 7FF47AAF 		bne	.L46
 1140 0502 ADE7     		b	.L107
 1141              	.L38:
 1142              	.LBB210:
 1143              		.loc 1 308 0
 1144 0504 0028     		cmp	r0, #0
 1145 0506 7FF479AF 		bne	.L34
 1146 050a A9E7     		b	.L107
 1147              	.LVL134:
 1148              	.L122:
 1149 050c DDF81480 		ldr	r8, [sp, #20]
 1150              	.LBE210:
 1151              	.LBE197:
 1152              	.LBE196:
 1153              		.loc 1 507 0
 1154 0510 0122     		movs	r2, #1
 1155 0512 4FE7     		b	.L29
 1156              	.LVL135:
 1157              	.L57:
 1158 0514 7246     		mov	r2, lr
 1159 0516 4DE7     		b	.L29
 1160              	.LBE211:
 1161              	.LBE214:
 1162              	.LBE180:
 1163              	.LBE215:
 1164              		.cfi_endproc
 1165              	.LFE136:
 1166              		.size	usb_lld_pump, .-usb_lld_pump
 1167 0518 AFF30080 		.section	.text.otg_disable_ep.clone.0,"ax",%progbits
 1167      AFF30080 
 1168              		.align	2
 1169              		.p2align 4,,15
 1170              		.thumb
 1171              		.thumb_func
 1172              		.type	otg_disable_ep.clone.0, %function
 1173              	otg_disable_ep.clone.0:
 1174              	.LFB156:
 1175              		.loc 1 148 0
 1176              		.cfi_startproc
 1177              		@ args = 0, pretend = 0, frame = 0
 1178              		@ frame_needed = 0, uses_anonymous_args = 0
 1179              		@ link register save eliminated.
 1180              		.loc 1 152 0
 1181 0000 0023     		movs	r3, #0
 1182              		.loc 1 148 0
 1183 0002 2DE9F001 		push	{r4, r5, r6, r7, r8}
 1184              	.LCFI2:
 1185              		.cfi_def_cfa_offset 20
 1186              		.loc 1 152 0
 1187 0006 8A68     		ldr	r2, [r1, #8]
 1188              	.LVL136:
 1189              		.loc 1 163 0
 1190 0008 1C46     		mov	r4, r3
 1191              		.cfi_offset 8, -4
 1192              		.cfi_offset 7, -8
ARM GAS  C:\Users\DNIEL~1\AppData\Local\Temp\cccPEDO0.s 			page 22


 1193              		.cfi_offset 6, -12
 1194              		.cfi_offset 5, -16
 1195              		.cfi_offset 4, -20
 1196              		.loc 1 157 0
 1197 000a 4FF0804C 		mov	ip, #1073741824
 1198              		.loc 1 165 0
 1199 000e 4FF0FF37 		mov	r7, #-1
 1200 0012 17E0     		b	.L132
 1201              	.LVL137:
 1202              	.L126:
 1203 0014 5E01     		lsls	r6, r3, #5
 1204              		.loc 1 163 0
 1205 0016 4450     		str	r4, [r0, r1]
 1206              		.loc 1 164 0
 1207 0018 8519     		adds	r5, r0, r6
 1208              		.loc 1 171 0
 1209 001a 03F15801 		add	r1, r3, #88
 1210 001e 4901     		lsls	r1, r1, #5
 1211              		.loc 1 164 0
 1212 0020 C5F81049 		str	r4, [r5, #2320]
 1213              		.loc 1 165 0
 1214 0024 C5F80879 		str	r7, [r5, #2312]
 1215              		.loc 1 171 0
 1216 0028 50F80180 		ldr	r8, [r0, r1]
 1217 002c B8F1000F 		cmp	r8, #0
 1218 0030 26DB     		blt	.L136
 1219              	.L129:
 1220              		.loc 1 179 0
 1221 0032 8619     		adds	r6, r0, r6
 1222              		.loc 1 152 0
 1223 0034 0133     		adds	r3, r3, #1
 1224              	.LVL138:
 1225 0036 9342     		cmp	r3, r2
 1226              		.loc 1 178 0
 1227 0038 4450     		str	r4, [r0, r1]
 1228              		.loc 1 179 0
 1229 003a C6F8104B 		str	r4, [r6, #2832]
 1230              		.loc 1 180 0
 1231 003e C6F8087B 		str	r7, [r6, #2824]
 1232              		.loc 1 152 0
 1233 0042 2DD8     		bhi	.L137
 1234              	.LVL139:
 1235              	.L132:
 1236              		.loc 1 156 0
 1237 0044 03F14801 		add	r1, r3, #72
 1238 0048 4901     		lsls	r1, r1, #5
 1239 004a 4558     		ldr	r5, [r0, r1]
 1240 004c 002D     		cmp	r5, #0
 1241 004e E1DA     		bge	.L126
 1242 0050 5E01     		lsls	r6, r3, #5
 1243              		.loc 1 159 0
 1244 0052 00EB0608 		add	r8, r0, r6
 1245              		.loc 1 157 0
 1246 0056 40F801C0 		str	ip, [r0, r1]
 1247              		.loc 1 159 0
 1248 005a 08F51065 		add	r5, r8, #2304
 1249              	.L127:
ARM GAS  C:\Users\DNIEL~1\AppData\Local\Temp\cccPEDO0.s 			page 23


 1250 005e A968     		ldr	r1, [r5, #8]
 1251 0060 11F0020F 		tst	r1, #2
 1252 0064 FBD0     		beq	.L127
 1253              		.loc 1 164 0
 1254 0066 8519     		adds	r5, r0, r6
 1255              		.loc 1 171 0
 1256 0068 03F15801 		add	r1, r3, #88
 1257 006c 4901     		lsls	r1, r1, #5
 1258              		.loc 1 164 0
 1259 006e C5F81049 		str	r4, [r5, #2320]
 1260              		.loc 1 165 0
 1261 0072 C5F80879 		str	r7, [r5, #2312]
 1262              		.loc 1 171 0
 1263 0076 50F80180 		ldr	r8, [r0, r1]
 1264 007a B8F1000F 		cmp	r8, #0
 1265 007e D8DA     		bge	.L129
 1266              	.L136:
 1267              		.loc 1 172 0
 1268 0080 40F801C0 		str	ip, [r0, r1]
 1269              		.loc 1 174 0
 1270 0084 05F53065 		add	r5, r5, #2816
 1271              	.L130:
 1272 0088 A968     		ldr	r1, [r5, #8]
 1273 008a 11F0100F 		tst	r1, #16
 1274 008e FBD0     		beq	.L130
 1275              		.loc 1 179 0
 1276 0090 8619     		adds	r6, r0, r6
 1277              		.loc 1 152 0
 1278 0092 0133     		adds	r3, r3, #1
 1279              	.LVL140:
 1280 0094 9342     		cmp	r3, r2
 1281              		.loc 1 179 0
 1282 0096 C6F8104B 		str	r4, [r6, #2832]
 1283              		.loc 1 180 0
 1284 009a C6F8087B 		str	r7, [r6, #2824]
 1285              		.loc 1 152 0
 1286 009e D1D9     		bls	.L132
 1287              	.L137:
 1288              		.loc 1 182 0
 1289 00a0 4FF00113 		mov	r3, #65537
 1290              	.LVL141:
 1291 00a4 C0F81C38 		str	r3, [r0, #2076]
 1292              		.loc 1 183 0
 1293 00a8 BDE8F001 		pop	{r4, r5, r6, r7, r8}
 1294 00ac 7047     		bx	lr
 1295              		.cfi_endproc
 1296              	.LFE156:
 1297              		.size	otg_disable_ep.clone.0, .-otg_disable_ep.clone.0
 1298 00ae 00BF     		.section	.text.otg_txfifo_flush.clone.3,"ax",%progbits
 1299              		.align	2
 1300              		.p2align 4,,15
 1301              		.thumb
 1302              		.thumb_func
 1303              		.type	otg_txfifo_flush.clone.3, %function
 1304              	otg_txfifo_flush.clone.3:
 1305              	.LFB159:
 1306              		.loc 1 195 0
ARM GAS  C:\Users\DNIEL~1\AppData\Local\Temp\cccPEDO0.s 			page 24


 1307              		.cfi_startproc
 1308              		@ args = 0, pretend = 0, frame = 0
 1309              		@ frame_needed = 0, uses_anonymous_args = 0
 1310              		@ link register save eliminated.
 1311              	.LVL142:
 1312              		.loc 1 198 0
 1313 0000 8901     		lsls	r1, r1, #6
 1314              	.LVL143:
 1315 0002 41F02003 		orr	r3, r1, #32
 1316 0006 0361     		str	r3, [r0, #16]
 1317              	.L139:
 1318              		.loc 1 199 0
 1319 0008 0269     		ldr	r2, [r0, #16]
 1320 000a 12F0200F 		tst	r2, #32
 1321 000e FBD1     		bne	.L139
 1322              		.loc 1 202 0
 1323 0010 0C20     		movs	r0, #12
 1324              	.LVL144:
 1325              		.loc 1 203 0
 1326              		.loc 1 202 0
 1327 0012 FFF7FEBF 		b	halPolledDelay
 1328              		.cfi_endproc
 1329              	.LFE159:
 1330              		.size	otg_txfifo_flush.clone.3, .-otg_txfifo_flush.clone.3
 1331 0016 00BFAFF3 		.section	.text.usb_lld_init,"ax",%progbits
 1331      0080AFF3 
 1331      0080
 1332              		.align	2
 1333              		.p2align 4,,15
 1334              		.global	usb_lld_init
 1335              		.thumb
 1336              		.thumb_func
 1337              		.type	usb_lld_init, %function
 1338              	usb_lld_init:
 1339              	.LFB138:
 1340              		.loc 1 818 0
 1341              		.cfi_startproc
 1342              		@ args = 0, pretend = 0, frame = 0
 1343              		@ frame_needed = 0, uses_anonymous_args = 0
 1344 0000 10B5     		push	{r4, lr}
 1345              	.LCFI3:
 1346              		.cfi_def_cfa_offset 8
 1347              		.loc 1 822 0
 1348 0002 064C     		ldr	r4, .L142
 1349              		.cfi_offset 14, -4
 1350              		.cfi_offset 4, -8
 1351 0004 2046     		mov	r0, r4
 1352 0006 FFF7FEFF 		bl	usbObjectInit
 1353              		.loc 1 826 0
 1354 000a 054B     		ldr	r3, .L142+4
 1355              		.loc 1 823 0
 1356 000c 0021     		movs	r1, #0
 1357              		.loc 1 825 0
 1358 000e 4FF0A040 		mov	r0, #1342177280
 1359              		.loc 1 823 0
 1360 0012 2166     		str	r1, [r4, #96]
 1361              		.loc 1 824 0
ARM GAS  C:\Users\DNIEL~1\AppData\Local\Temp\cccPEDO0.s 			page 25


 1362 0014 6166     		str	r1, [r4, #100]
 1363              		.loc 1 825 0
 1364 0016 2065     		str	r0, [r4, #80]
 1365              		.loc 1 826 0
 1366 0018 6365     		str	r3, [r4, #84]
 1367              		.loc 1 864 0
 1368 001a 10BD     		pop	{r4, pc}
 1369              	.L143:
 1370              		.align	2
 1371              	.L142:
 1372 001c 00000000 		.word	.LANCHOR0
 1373 0020 00000000 		.word	.LANCHOR1
 1374              		.cfi_endproc
 1375              	.LFE138:
 1376              		.size	usb_lld_init, .-usb_lld_init
 1377 0024 AFF30080 		.section	.text.usb_lld_start,"ax",%progbits
 1377      AFF30080 
 1377      AFF30080 
 1378              		.align	2
 1379              		.p2align 4,,15
 1380              		.global	usb_lld_start
 1381              		.thumb
 1382              		.thumb_func
 1383              		.type	usb_lld_start, %function
 1384              	usb_lld_start:
 1385              	.LFB139:
 1386              		.loc 1 876 0
 1387              		.cfi_startproc
 1388              		@ args = 0, pretend = 0, frame = 0
 1389              		@ frame_needed = 0, uses_anonymous_args = 0
 1390              	.LVL145:
 1391 0000 70B5     		push	{r4, r5, r6, lr}
 1392              	.LCFI4:
 1393              		.cfi_def_cfa_offset 16
 1394              		.loc 1 879 0
 1395 0002 0378     		ldrb	r3, [r0, #0]	@ zero_extendqisi2
 1396              		.loc 1 877 0
 1397 0004 056D     		ldr	r5, [r0, #80]
 1398              		.cfi_offset 14, -4
 1399              		.cfi_offset 6, -8
 1400              		.cfi_offset 5, -12
 1401              		.cfi_offset 4, -16
 1402              	.LVL146:
 1403              		.loc 1 879 0
 1404 0006 012B     		cmp	r3, #1
 1405              		.loc 1 876 0
 1406 0008 82B0     		sub	sp, sp, #8
 1407              	.LCFI5:
 1408              		.cfi_def_cfa_offset 24
 1409              		.loc 1 876 0
 1410 000a 0446     		mov	r4, r0
 1411              		.loc 1 879 0
 1412 000c 01D0     		beq	.L154
 1413              	.LVL147:
 1414              	.L144:
 1415              		.loc 1 962 0
 1416 000e 02B0     		add	sp, sp, #8
ARM GAS  C:\Users\DNIEL~1\AppData\Local\Temp\cccPEDO0.s 			page 26


 1417 0010 70BD     		pop	{r4, r5, r6, pc}
 1418              	.L154:
 1419              		.loc 1 882 0
 1420 0012 2E49     		ldr	r1, .L158
 1421 0014 8842     		cmp	r0, r1
 1422 0016 49D0     		beq	.L155
 1423              	.L146:
 1424              		.loc 1 911 0
 1425 0018 266E     		ldr	r6, [r4, #96]
 1426              		.loc 1 910 0
 1427 001a 0023     		movs	r3, #0
 1428 001c E365     		str	r3, [r4, #92]
 1429              		.loc 1 911 0
 1430 001e 002E     		cmp	r6, #0
 1431 0020 38D0     		beq	.L156
 1432              	.L147:
 1433              		.loc 1 921 0
 1434 0022 2B4B     		ldr	r3, .L158+4
 1435              		.loc 1 924 0
 1436 0024 2B4E     		ldr	r6, .L158+8
 1437              		.loc 1 921 0
 1438 0026 EB60     		str	r3, [r5, #12]
 1439              		.loc 1 927 0
 1440 0028 0022     		movs	r2, #0
 1441              		.loc 1 934 0
 1442 002a 4FF45021 		mov	r1, #851968
 1443              		.loc 1 924 0
 1444 002e C5F80068 		str	r6, [r5, #2048]
 1445              	.LBB216:
 1446              	.LBB217:
 1447              		.loc 1 134 0
 1448 0032 2020     		movs	r0, #32
 1449              	.LBE217:
 1450              	.LBE216:
 1451              		.loc 1 1350 0
 1452 0034 266D     		ldr	r6, [r4, #80]
 1453              	.LVL148:
 1454              		.loc 1 927 0
 1455 0036 C5F8002E 		str	r2, [r5, #3584]
 1456              		.loc 1 934 0
 1457 003a A963     		str	r1, [r5, #56]
 1458              	.LBB219:
 1459              	.LBB218:
 1460              		.loc 1 134 0
 1461 003c FFF7FEFF 		bl	halPolledDelay
 1462              	.LVL149:
 1463              		.loc 1 137 0
 1464 0040 0120     		movs	r0, #1
 1465 0042 3061     		str	r0, [r6, #16]
 1466              	.L148:
 1467              		.loc 1 138 0
 1468 0044 3069     		ldr	r0, [r6, #16]
 1469 0046 10F0010F 		tst	r0, #1
 1470 004a FBD1     		bne	.L148
 1471              		.loc 1 141 0
 1472 004c 0C20     		movs	r0, #12
 1473 004e FFF7FEFF 		bl	halPolledDelay
ARM GAS  C:\Users\DNIEL~1\AppData\Local\Temp\cccPEDO0.s 			page 27


 1474              	.L149:
 1475              		.loc 1 144 0
 1476 0052 3169     		ldr	r1, [r6, #16]
 1477 0054 0029     		cmp	r1, #0
 1478 0056 FCDA     		bge	.L149
 1479              	.LBE218:
 1480              	.LBE219:
 1481              		.loc 1 941 0
 1482 0058 0026     		movs	r6, #0
 1483              	.LVL150:
 1484 005a AE60     		str	r6, [r5, #8]
 1485              		.loc 1 944 0
 1486 005c 206D     		ldr	r0, [r4, #80]
 1487 005e 616D     		ldr	r1, [r4, #84]
 1488 0060 FFF7FEFF 		bl	otg_disable_ep.clone.0
 1489              		.loc 1 951 0
 1490 0064 6368     		ldr	r3, [r4, #4]
 1491              		.loc 1 948 0
 1492 0066 C5F81068 		str	r6, [r5, #2064]
 1493              		.loc 1 951 0
 1494 006a DA68     		ldr	r2, [r3, #12]
 1495              		.loc 1 949 0
 1496 006c C5F81468 		str	r6, [r5, #2068]
 1497              		.loc 1 950 0
 1498 0070 C5F81C68 		str	r6, [r5, #2076]
 1499              		.loc 1 951 0
 1500 0074 52B1     		cbz	r2, .L157
 1501              		.loc 1 955 0
 1502 0076 43F20801 		movw	r1, #12296
 1503 007a A961     		str	r1, [r5, #24]
 1504              	.L151:
 1505              		.loc 1 957 0
 1506 007c 4FF0FF30 		mov	r0, #-1
 1507 0080 6861     		str	r0, [r5, #20]
 1508              		.loc 1 960 0
 1509 0082 AB68     		ldr	r3, [r5, #8]
 1510 0084 43F00102 		orr	r2, r3, #1
 1511 0088 AA60     		str	r2, [r5, #8]
 1512 008a C0E7     		b	.L144
 1513              	.L157:
 1514              		.loc 1 952 0
 1515 008c 4FF44050 		mov	r0, #12288
 1516 0090 A861     		str	r0, [r5, #24]
 1517 0092 F3E7     		b	.L151
 1518              	.L156:
 1519              		.loc 1 912 0
 1520 0094 04F16800 		add	r0, r4, #104
 1521 0098 4FF4A871 		mov	r1, #336
 1522 009c 0222     		movs	r2, #2
 1523 009e 0E4B     		ldr	r3, .L158+12
 1524 00a0 0094     		str	r4, [sp, #0]
 1525 00a2 FFF7FEFF 		bl	chThdCreateI
 1526 00a6 6066     		str	r0, [r4, #100]
 1527 00a8 2066     		str	r0, [r4, #96]
 1528 00aa BAE7     		b	.L147
 1529              	.L155:
 1530              		.loc 1 884 0
ARM GAS  C:\Users\DNIEL~1\AppData\Local\Temp\cccPEDO0.s 			page 28


 1531 00ac 0B4E     		ldr	r6, .L158+16
 1532 00ae 726B     		ldr	r2, [r6, #52]
 1533 00b0 42F08001 		orr	r1, r2, #128
 1534 00b4 7163     		str	r1, [r6, #52]
 1535              		.loc 1 885 0
 1536 00b6 7069     		ldr	r0, [r6, #20]
 1537 00b8 0022     		movs	r2, #0
 1538 00ba 40F08003 		orr	r3, r0, #128
 1539 00be 7361     		str	r3, [r6, #20]
 1540              		.loc 1 888 0
 1541 00c0 4320     		movs	r0, #67
 1542 00c2 E021     		movs	r1, #224
 1543              		.loc 1 885 0
 1544 00c4 7261     		str	r2, [r6, #20]
 1545              		.loc 1 888 0
 1546 00c6 FFF7FEFF 		bl	nvicEnableVector
 1547 00ca A5E7     		b	.L146
 1548              	.L159:
 1549              		.align	2
 1550              	.L158:
 1551 00cc 00000000 		.word	.LANCHOR0
 1552 00d0 40140040 		.word	1073747008
 1553 00d4 03002002 		.word	35651587
 1554 00d8 00000000 		.word	usb_lld_pump
 1555 00dc 00380240 		.word	1073887232
 1556              		.cfi_endproc
 1557              	.LFE139:
 1558              		.size	usb_lld_start, .-usb_lld_start
 1559              		.section	.text.usb_lld_stop,"ax",%progbits
 1560              		.align	2
 1561              		.p2align 4,,15
 1562              		.global	usb_lld_stop
 1563              		.thumb
 1564              		.thumb_func
 1565              		.type	usb_lld_stop, %function
 1566              	usb_lld_stop:
 1567              	.LFB140:
 1568              		.loc 1 971 0
 1569              		.cfi_startproc
 1570              		@ args = 0, pretend = 0, frame = 0
 1571              		@ frame_needed = 0, uses_anonymous_args = 0
 1572              	.LVL151:
 1573 0000 38B5     		push	{r3, r4, r5, lr}
 1574              	.LCFI6:
 1575              		.cfi_def_cfa_offset 16
 1576              		.loc 1 975 0
 1577 0002 0378     		ldrb	r3, [r0, #0]	@ zero_extendqisi2
 1578              		.cfi_offset 14, -4
 1579              		.cfi_offset 5, -8
 1580              		.cfi_offset 4, -12
 1581              		.cfi_offset 3, -16
 1582              		.loc 1 972 0
 1583 0004 056D     		ldr	r5, [r0, #80]
 1584              	.LVL152:
 1585              		.loc 1 975 0
 1586 0006 012B     		cmp	r3, #1
 1587              		.loc 1 971 0
ARM GAS  C:\Users\DNIEL~1\AppData\Local\Temp\cccPEDO0.s 			page 29


 1588 0008 0446     		mov	r4, r0
 1589              		.loc 1 975 0
 1590 000a 09D0     		beq	.L160
 1591              	.LVL153:
 1592              		.loc 1 979 0
 1593 000c 2846     		mov	r0, r5
 1594              	.LVL154:
 1595 000e 616D     		ldr	r1, [r4, #84]
 1596 0010 FFF7FEFF 		bl	otg_disable_ep.clone.0
 1597              	.LVL155:
 1598              		.loc 1 981 0
 1599 0014 0020     		movs	r0, #0
 1600 0016 E065     		str	r0, [r4, #92]
 1601              		.loc 1 983 0
 1602 0018 C5F81C08 		str	r0, [r5, #2076]
 1603              		.loc 1 984 0
 1604 001c A860     		str	r0, [r5, #8]
 1605              		.loc 1 985 0
 1606 001e A863     		str	r0, [r5, #56]
 1607              	.L160:
 1608 0020 38BD     		pop	{r3, r4, r5, pc}
 1609              		.cfi_endproc
 1610              	.LFE140:
 1611              		.size	usb_lld_stop, .-usb_lld_stop
 1612 0022 00BFAFF3 		.section	.text.usb_lld_reset,"ax",%progbits
 1612      0080AFF3 
 1612      0080AFF3 
 1612      0080
 1613              		.align	2
 1614              		.p2align 4,,15
 1615              		.global	usb_lld_reset
 1616              		.thumb
 1617              		.thumb_func
 1618              		.type	usb_lld_reset, %function
 1619              	usb_lld_reset:
 1620              	.LFB141:
 1621              		.loc 1 1010 0
 1622              		.cfi_startproc
 1623              		@ args = 0, pretend = 0, frame = 0
 1624              		@ frame_needed = 0, uses_anonymous_args = 0
 1625              	.LVL156:
 1626 0000 2DE9F84F 		push	{r3, r4, r5, r6, r7, r8, r9, sl, fp, lr}
 1627              	.LCFI7:
 1628              		.cfi_def_cfa_offset 40
 1629              		.loc 1 1012 0
 1630 0004 046D     		ldr	r4, [r0, #80]
 1631              		.cfi_offset 14, -4
 1632              		.cfi_offset 11, -8
 1633              		.cfi_offset 10, -12
 1634              		.cfi_offset 9, -16
 1635              		.cfi_offset 8, -20
 1636              		.cfi_offset 7, -24
 1637              		.cfi_offset 6, -28
 1638              		.cfi_offset 5, -32
 1639              		.cfi_offset 4, -36
 1640              		.cfi_offset 3, -40
 1641              	.LVL157:
ARM GAS  C:\Users\DNIEL~1\AppData\Local\Temp\cccPEDO0.s 			page 30


 1642              		.loc 1 1010 0
 1643 0006 0546     		mov	r5, r0
 1644              		.loc 1 1015 0
 1645 0008 0021     		movs	r1, #0
 1646 000a 2046     		mov	r0, r4
 1647              	.LVL158:
 1648 000c FFF7FEFF 		bl	otg_txfifo_flush.clone.3
 1649              	.LVL159:
 1650 0010 D5F854B0 		ldr	fp, [r5, #84]
 1651              		.loc 1 1019 0
 1652 0014 04F51060 		add	r0, r4, #2304
 1653              		.loc 1 1020 0
 1654 0018 04F53063 		add	r3, r4, #2816
 1655              		.loc 1 1019 0
 1656 001c 4FF00061 		mov	r1, #134217728
 1657              		.loc 1 1015 0
 1658 0020 DBF808A0 		ldr	sl, [fp, #8]
 1659              		.loc 1 1019 0
 1660 0024 40F8081B 		str	r1, [r0], #8
 1661              		.loc 1 1020 0
 1662 0028 43F8081B 		str	r1, [r3], #8
 1663              		.loc 1 1021 0
 1664 002c FF22     		movs	r2, #255
 1665 002e 0260     		str	r2, [r0, #0]
 1666              		.loc 1 1022 0
 1667 0030 1A60     		str	r2, [r3, #0]
 1668 0032 0AF00100 		and	r0, sl, #1
 1669              		.loc 1 1018 0
 1670 0036 0123     		movs	r3, #1
 1671              	.LVL160:
 1672 0038 BAF1000F 		cmp	sl, #0
 1673 003c 35D0     		beq	.L172
 1674 003e 68B1     		cbz	r0, .L163
 1675              		.loc 1 1021 0
 1676 0040 04F51266 		add	r6, r4, #2336
 1677              		.loc 1 1022 0
 1678 0044 04F5326E 		add	lr, r4, #2848
 1679              		.loc 1 1018 0
 1680 0048 0223     		movs	r3, #2
 1681 004a 9A45     		cmp	sl, r3
 1682              		.loc 1 1019 0
 1683 004c 3160     		str	r1, [r6, #0]
 1684              		.loc 1 1020 0
 1685 004e CEF80010 		str	r1, [lr, #0]
 1686              		.loc 1 1021 0
 1687 0052 C4F82829 		str	r2, [r4, #2344]
 1688              		.loc 1 1022 0
 1689 0056 C4F8282B 		str	r2, [r4, #2856]
 1690              		.loc 1 1018 0
 1691 005a 26D3     		bcc	.L172
 1692              	.L163:
 1693              		.loc 1 1018 0 is_stmt 0 discriminator 2
 1694 005c 5F1C     		adds	r7, r3, #1
 1695              		.loc 1 1021 0 is_stmt 1 discriminator 2
 1696 005e 5E01     		lsls	r6, r3, #5
 1697              		.loc 1 1019 0 discriminator 2
 1698 0060 03F1490E 		add	lr, r3, #73
ARM GAS  C:\Users\DNIEL~1\AppData\Local\Temp\cccPEDO0.s 			page 31


 1699 0064 03F14809 		add	r9, r3, #72
 1700              		.loc 1 1020 0 discriminator 2
 1701 0068 03F15808 		add	r8, r3, #88
 1702              		.loc 1 1021 0 discriminator 2
 1703 006c 7801     		lsls	r0, r7, #5
 1704              		.loc 1 1020 0 discriminator 2
 1705 006e 5933     		adds	r3, r3, #89
 1706              		.loc 1 1021 0 discriminator 2
 1707 0070 A619     		adds	r6, r4, r6
 1708 0072 2018     		adds	r0, r4, r0
 1709              		.loc 1 1019 0 discriminator 2
 1710 0074 4FEA4E1C 		lsl	ip, lr, #5
 1711 0078 4FEA4919 		lsl	r9, r9, #5
 1712              		.loc 1 1020 0 discriminator 2
 1713 007c 4FEA431E 		lsl	lr, r3, #5
 1714 0080 4FEA4818 		lsl	r8, r8, #5
 1715              		.loc 1 1018 0 discriminator 2
 1716 0084 7B1C     		adds	r3, r7, #1
 1717 0086 9A45     		cmp	sl, r3
 1718              		.loc 1 1019 0 discriminator 2
 1719 0088 44F80910 		str	r1, [r4, r9]
 1720              		.loc 1 1020 0 discriminator 2
 1721 008c 44F80810 		str	r1, [r4, r8]
 1722              		.loc 1 1021 0 discriminator 2
 1723 0090 C6F80829 		str	r2, [r6, #2312]
 1724              		.loc 1 1022 0 discriminator 2
 1725 0094 C6F8082B 		str	r2, [r6, #2824]
 1726              		.loc 1 1019 0 discriminator 2
 1727 0098 44F80C10 		str	r1, [r4, ip]
 1728              		.loc 1 1020 0 discriminator 2
 1729 009c 44F80E10 		str	r1, [r4, lr]
 1730              		.loc 1 1021 0 discriminator 2
 1731 00a0 C0F80829 		str	r2, [r0, #2312]
 1732              		.loc 1 1022 0 discriminator 2
 1733 00a4 C0F8082B 		str	r2, [r0, #2824]
 1734              		.loc 1 1018 0 discriminator 2
 1735 00a8 D8D2     		bcs	.L163
 1736              	.L172:
 1737              	.LBB220:
 1738              	.LBB221:
 1739              		.loc 1 214 0
 1740 00aa DBF80070 		ldr	r7, [fp, #0]
 1741              	.LBE221:
 1742              	.LBE220:
 1743              		.loc 1 1350 0
 1744 00ae 2B6D     		ldr	r3, [r5, #80]
 1745              	.LVL161:
 1746              		.loc 1 1026 0
 1747 00b0 4FF0FF30 		mov	r0, #-1
 1748              		.loc 1 1027 0
 1749 00b4 4FF00111 		mov	r1, #65537
 1750              	.LBB223:
 1751              	.LBB224:
 1752              		.loc 1 188 0
 1753 00b8 1022     		movs	r2, #16
 1754              	.LBE224:
 1755              	.LBE223:
ARM GAS  C:\Users\DNIEL~1\AppData\Local\Temp\cccPEDO0.s 			page 32


 1756              		.loc 1 1026 0
 1757 00ba C4F81808 		str	r0, [r4, #2072]
 1758              		.loc 1 1027 0
 1759 00be C4F81C18 		str	r1, [r4, #2076]
 1760              	.LBB226:
 1761              	.LBB222:
 1762              		.loc 1 214 0
 1763 00c2 AF65     		str	r7, [r5, #88]
 1764              	.LBE222:
 1765              	.LBE226:
 1766              		.loc 1 1033 0
 1767 00c4 6762     		str	r7, [r4, #36]
 1768              	.LBB227:
 1769              	.LBB225:
 1770              		.loc 1 188 0
 1771 00c6 1A61     		str	r2, [r3, #16]
 1772              	.L164:
 1773              		.loc 1 189 0
 1774 00c8 1E69     		ldr	r6, [r3, #16]
 1775 00ca 16F01006 		ands	r6, r6, #16
 1776 00ce FBD1     		bne	.L164
 1777              		.loc 1 192 0
 1778 00d0 0C20     		movs	r0, #12
 1779 00d2 FFF7FEFF 		bl	halPolledDelay
 1780              	.LVL162:
 1781              	.LBE225:
 1782              	.LBE227:
 1783              		.loc 1 1037 0
 1784 00d6 D4F80028 		ldr	r2, [r4, #2048]
 1785              	.LBB228:
 1786              	.LBB230:
 1787              		.loc 1 228 0
 1788 00da A96D     		ldr	r1, [r5, #88]
 1789              	.LBE230:
 1790              	.LBE228:
 1791              		.loc 1 1047 0
 1792 00dc 104B     		ldr	r3, .L173
 1793              		.loc 1 1037 0
 1794 00de 22F4FE60 		bic	r0, r2, #2032
 1795 00e2 C4F80008 		str	r0, [r4, #2048]
 1796              		.loc 1 1040 0
 1797 00e6 A769     		ldr	r7, [r4, #24]
 1798 00e8 47F4402C 		orr	ip, r7, #786432
 1799              		.loc 1 1041 0
 1800 00ec 0922     		movs	r2, #9
 1801              		.loc 1 1040 0
 1802 00ee 4CF01007 		orr	r7, ip, #16
 1803 00f2 A761     		str	r7, [r4, #24]
 1804              		.loc 1 1041 0
 1805 00f4 C4F81028 		str	r2, [r4, #2064]
 1806              		.loc 1 1042 0
 1807 00f8 C4F81428 		str	r2, [r4, #2068]
 1808              		.loc 1 1045 0
 1809 00fc 094A     		ldr	r2, .L173+4
 1810              	.LBB232:
 1811              	.LBB229:
 1812              		.loc 1 229 0
ARM GAS  C:\Users\DNIEL~1\AppData\Local\Temp\cccPEDO0.s 			page 33


 1813 00fe 01F11000 		add	r0, r1, #16
 1814              	.LBE229:
 1815              	.LBE232:
 1816              		.loc 1 1052 0
 1817 0102 41F48011 		orr	r1, r1, #1048576
 1818              		.loc 1 1045 0
 1819 0106 EA60     		str	r2, [r5, #12]
 1820              		.loc 1 1046 0
 1821 0108 C4F8106B 		str	r6, [r4, #2832]
 1822              		.loc 1 1047 0
 1823 010c C4F8003B 		str	r3, [r4, #2816]
 1824              		.loc 1 1049 0
 1825 0110 C4F81069 		str	r6, [r4, #2320]
 1826              		.loc 1 1050 0
 1827 0114 C4F80039 		str	r3, [r4, #2304]
 1828              	.LVL163:
 1829              	.LBB233:
 1830              	.LBB231:
 1831              		.loc 1 229 0
 1832 0118 A865     		str	r0, [r5, #88]
 1833              	.LBE231:
 1834              	.LBE233:
 1835              		.loc 1 1052 0
 1836 011a A162     		str	r1, [r4, #40]
 1837              		.loc 1 1055 0
 1838 011c BDE8F88F 		pop	{r3, r4, r5, r6, r7, r8, r9, sl, fp, pc}
 1839              	.L174:
 1840              		.align	2
 1841              	.L173:
 1842 0120 40800010 		.word	268468288
 1843 0124 00000000 		.word	.LANCHOR2
 1844              		.cfi_endproc
 1845              	.LFE141:
 1846              		.size	usb_lld_reset, .-usb_lld_reset
 1847 0128 AFF30080 		.section	.text.usb_lld_set_address,"ax",%progbits
 1847      AFF30080 
 1848              		.align	2
 1849              		.p2align 4,,15
 1850              		.global	usb_lld_set_address
 1851              		.thumb
 1852              		.thumb_func
 1853              		.type	usb_lld_set_address, %function
 1854              	usb_lld_set_address:
 1855              	.LFB142:
 1856              		.loc 1 1064 0
 1857              		.cfi_startproc
 1858              		@ args = 0, pretend = 0, frame = 0
 1859              		@ frame_needed = 0, uses_anonymous_args = 0
 1860              		@ link register save eliminated.
 1861              	.LVL164:
 1862              		.loc 1 1065 0
 1863 0000 036D     		ldr	r3, [r0, #80]
 1864              	.LVL165:
 1865              		.loc 1 1067 0
 1866 0002 90F84E10 		ldrb	r1, [r0, #78]	@ zero_extendqisi2
 1867 0006 D3F80028 		ldr	r2, [r3, #2048]
 1868 000a 22F4FE60 		bic	r0, r2, #2032
ARM GAS  C:\Users\DNIEL~1\AppData\Local\Temp\cccPEDO0.s 			page 34


 1869              	.LVL166:
 1870 000e 40EA0112 		orr	r2, r0, r1, lsl #4
 1871 0012 C3F80028 		str	r2, [r3, #2048]
 1872              		.loc 1 1068 0
 1873 0016 7047     		bx	lr
 1874              		.cfi_endproc
 1875              	.LFE142:
 1876              		.size	usb_lld_set_address, .-usb_lld_set_address
 1877 0018 AFF30080 		.section	.text.usb_lld_init_endpoint,"ax",%progbits
 1877      AFF30080 
 1878              		.align	2
 1879              		.p2align 4,,15
 1880              		.global	usb_lld_init_endpoint
 1881              		.thumb
 1882              		.thumb_func
 1883              		.type	usb_lld_init_endpoint, %function
 1884              	usb_lld_init_endpoint:
 1885              	.LFB143:
 1886              		.loc 1 1078 0
 1887              		.cfi_startproc
 1888              		@ args = 0, pretend = 0, frame = 0
 1889              		@ frame_needed = 0, uses_anonymous_args = 0
 1890              	.LVL167:
 1891 0000 2DE9F041 		push	{r4, r5, r6, r7, r8, lr}
 1892              	.LCFI8:
 1893              		.cfi_def_cfa_offset 24
 1894              		.loc 1 1083 0
 1895 0004 8F1C     		adds	r7, r1, #2
 1896              		.cfi_offset 14, -4
 1897              		.cfi_offset 8, -8
 1898              		.cfi_offset 7, -12
 1899              		.cfi_offset 6, -16
 1900              		.cfi_offset 5, -20
 1901              		.cfi_offset 4, -24
 1902 0006 00EB8703 		add	r3, r0, r7, lsl #2
 1903              		.loc 1 1078 0
 1904 000a 0D46     		mov	r5, r1
 1905              		.loc 1 1083 0
 1906 000c 5B68     		ldr	r3, [r3, #4]
 1907              		.loc 1 1080 0
 1908 000e 046D     		ldr	r4, [r0, #80]
 1909              	.LVL168:
 1910              		.loc 1 1083 0
 1911 0010 1A68     		ldr	r2, [r3, #0]
 1912 0012 02F00302 		and	r2, r2, #3
 1913 0016 022A     		cmp	r2, #2
 1914              		.loc 1 1078 0
 1915 0018 0646     		mov	r6, r0
 1916              		.loc 1 1083 0
 1917 001a 5AD0     		beq	.L179
 1918 001c 032A     		cmp	r2, #3
 1919 001e 77D0     		beq	.L180
 1920              		.loc 1 1085 0
 1921 0020 4B49     		ldr	r1, .L188
 1922              	.LVL169:
 1923 0022 4C48     		ldr	r0, .L188+4
 1924              	.LVL170:
ARM GAS  C:\Users\DNIEL~1\AppData\Local\Temp\cccPEDO0.s 			page 35


 1925 0024 012A     		cmp	r2, #1
 1926 0026 0CBF     		ite	eq
 1927 0028 8046     		moveq	r8, r0
 1928 002a 8846     		movne	r8, r1
 1929              	.L178:
 1930              	.LVL171:
 1931              		.loc 1 1101 0
 1932 002c 6A01     		lsls	r2, r5, #5
 1933 002e 04EB020C 		add	ip, r4, r2
 1934              		.loc 1 1102 0
 1935 0032 D968     		ldr	r1, [r3, #12]
 1936              		.loc 1 1101 0
 1937 0034 4FF0000E 		mov	lr, #0
 1938 0038 CCF810EB 		str	lr, [ip, #2832]
 1939              		.loc 1 1102 0
 1940 003c 0029     		cmp	r1, #0
 1941 003e 54D0     		beq	.L181
 1942              	.L187:
 1943              		.loc 1 1103 0
 1944 0040 B3F812C0 		ldrh	ip, [r3, #18]
 1945 0044 05F15800 		add	r0, r5, #88
 1946 0048 4101     		lsls	r1, r0, #5
 1947 004a 48EA0C00 		orr	r0, r8, ip
 1948 004e 6050     		str	r0, [r4, r1]
 1949              		.loc 1 1104 0
 1950 0050 05F1100C 		add	ip, r5, #16
 1951 0054 D4F81C08 		ldr	r0, [r4, #2076]
 1952 0058 4FF0010E 		mov	lr, #1
 1953 005c 0EFA0CF1 		lsl	r1, lr, ip
 1954 0060 41EA0000 		orr	r0, r1, r0
 1955 0064 C4F81C08 		str	r0, [r4, #2076]
 1956              	.L182:
 1957              		.loc 1 1112 0
 1958 0068 A218     		adds	r2, r4, r2
 1959              		.loc 1 1113 0
 1960 006a 9968     		ldr	r1, [r3, #8]
 1961              		.loc 1 1112 0
 1962 006c 0020     		movs	r0, #0
 1963 006e C2F81009 		str	r0, [r2, #2320]
 1964              		.loc 1 1113 0
 1965 0072 0029     		cmp	r1, #0
 1966 0074 4FD0     		beq	.L183
 1967              		.loc 1 1116 0
 1968 0076 B3F81CE0 		ldrh	lr, [r3, #28]
 1969              		.loc 1 1115 0
 1970 007a 1A8A     		ldrh	r2, [r3, #16]
 1971              	.LBB234:
 1972              	.LBB236:
 1973              		.loc 1 228 0
 1974 007c B16D     		ldr	r1, [r6, #88]
 1975              	.LBE236:
 1976              	.LBE234:
 1977              		.loc 1 1115 0
 1978 007e 9008     		lsrs	r0, r2, #2
 1979              	.LVL172:
 1980              		.loc 1 1116 0
 1981 0080 BEF1010F 		cmp	lr, #1
ARM GAS  C:\Users\DNIEL~1\AppData\Local\Temp\cccPEDO0.s 			page 36


 1982              		.loc 1 1117 0
 1983 0084 88BF     		it	hi
 1984 0086 0EFB00F0 		mulhi	r0, lr, r0
 1985              	.LVL173:
 1986              		.loc 1 1118 0
 1987 008a 05F13F0C 		add	ip, r5, #63
 1988              	.LBB238:
 1989              	.LBB235:
 1990              		.loc 1 229 0
 1991 008e 4318     		adds	r3, r0, r1
 1992              	.LBE235:
 1993              	.LBE238:
 1994              		.loc 1 1118 0
 1995 0090 04EB8C0E 		add	lr, r4, ip, lsl #2
 1996 0094 41EA0042 		orr	r2, r1, r0, lsl #16
 1997              	.LBB239:
 1998              	.LBB237:
 1999              		.loc 1 229 0
 2000 0098 B365     		str	r3, [r6, #88]
 2001              	.LBE237:
 2002              	.LBE239:
 2003              		.loc 1 1124 0
 2004 009a 06EB8706 		add	r6, r6, r7, lsl #2
 2005              	.LVL174:
 2006              		.loc 1 1120 0
 2007 009e 2946     		mov	r1, r5
 2008              	.LVL175:
 2009 00a0 2046     		mov	r0, r4
 2010              	.LVL176:
 2011              		.loc 1 1118 0
 2012 00a2 CEF80420 		str	r2, [lr, #4]
 2013              		.loc 1 1120 0
 2014 00a6 FFF7FEFF 		bl	otg_txfifo_flush.clone.3
 2015              		.loc 1 1124 0
 2016 00aa 7068     		ldr	r0, [r6, #4]
 2017              		.loc 1 1123 0
 2018 00ac 028A     		ldrh	r2, [r0, #16]
 2019              		.loc 1 1122 0
 2020 00ae 05F14801 		add	r1, r5, #72
 2021 00b2 4B01     		lsls	r3, r1, #5
 2022 00b4 42EA855C 		orr	ip, r2, r5, lsl #22
 2023              		.loc 1 1123 0
 2024 00b8 4CEA0800 		orr	r0, ip, r8
 2025              		.loc 1 1122 0
 2026 00bc E050     		str	r0, [r4, r3]
 2027              		.loc 1 1125 0
 2028 00be 0121     		movs	r1, #1
 2029 00c0 D4F81C38 		ldr	r3, [r4, #2076]
 2030 00c4 11FA05F5 		lsls	r5, r1, r5
 2031 00c8 1D43     		orrs	r5, r5, r3
 2032 00ca C4F81C58 		str	r5, [r4, #2076]
 2033 00ce BDE8F081 		pop	{r4, r5, r6, r7, r8, pc}
 2034              	.LVL177:
 2035              	.L179:
 2036              		.loc 1 1101 0
 2037 00d2 6A01     		lsls	r2, r5, #5
 2038 00d4 04EB020C 		add	ip, r4, r2
ARM GAS  C:\Users\DNIEL~1\AppData\Local\Temp\cccPEDO0.s 			page 37


 2039              		.loc 1 1102 0
 2040 00d8 D968     		ldr	r1, [r3, #12]
 2041              	.LVL178:
 2042              		.loc 1 1091 0
 2043 00da DFF88080 		ldr	r8, .L188+12
 2044              	.LVL179:
 2045              		.loc 1 1101 0
 2046 00de 4FF0000E 		mov	lr, #0
 2047 00e2 CCF810EB 		str	lr, [ip, #2832]
 2048              		.loc 1 1102 0
 2049 00e6 0029     		cmp	r1, #0
 2050 00e8 AAD1     		bne	.L187
 2051              	.LVL180:
 2052              	.L181:
 2053              		.loc 1 1107 0
 2054 00ea 05F15801 		add	r1, r5, #88
 2055 00ee 4901     		lsls	r1, r1, #5
 2056              		.loc 1 1108 0
 2057 00f0 05F1100C 		add	ip, r5, #16
 2058              		.loc 1 1107 0
 2059 00f4 6058     		ldr	r0, [r4, r1]
 2060 00f6 20F40040 		bic	r0, r0, #32768
 2061 00fa 6050     		str	r0, [r4, r1]
 2062              		.loc 1 1108 0
 2063 00fc 0121     		movs	r1, #1
 2064 00fe D4F81C08 		ldr	r0, [r4, #2076]
 2065 0102 01FA0CFE 		lsl	lr, r1, ip
 2066 0106 20EA0E01 		bic	r1, r0, lr
 2067 010a C4F81C18 		str	r1, [r4, #2076]
 2068 010e ABE7     		b	.L182
 2069              	.LVL181:
 2070              	.L180:
 2071              		.loc 1 1094 0
 2072 0110 DFF84C80 		ldr	r8, .L188+16
 2073              		.loc 1 1095 0
 2074 0114 8AE7     		b	.L178
 2075              	.LVL182:
 2076              	.L183:
 2077              		.loc 1 1128 0
 2078 0116 05F13F0E 		add	lr, r5, #63
 2079 011a 04EB8E0C 		add	ip, r4, lr, lsl #2
 2080 011e 0E49     		ldr	r1, .L188+8
 2081              		.loc 1 1129 0
 2082 0120 2046     		mov	r0, r4
 2083              		.loc 1 1128 0
 2084 0122 CCF80410 		str	r1, [ip, #4]
 2085              		.loc 1 1129 0
 2086 0126 2946     		mov	r1, r5
 2087 0128 FFF7FEFF 		bl	otg_txfifo_flush.clone.3
 2088              		.loc 1 1130 0
 2089 012c 05F14800 		add	r0, r5, #72
 2090 0130 4301     		lsls	r3, r0, #5
 2091              		.loc 1 1131 0
 2092 0132 0120     		movs	r0, #1
 2093              		.loc 1 1130 0
 2094 0134 E258     		ldr	r2, [r4, r3]
 2095 0136 22F40041 		bic	r1, r2, #32768
ARM GAS  C:\Users\DNIEL~1\AppData\Local\Temp\cccPEDO0.s 			page 38


 2096 013a E150     		str	r1, [r4, r3]
 2097              		.loc 1 1131 0
 2098 013c D4F81C38 		ldr	r3, [r4, #2076]
 2099 0140 10FA05F5 		lsls	r5, r0, r5
 2100 0144 23EA0505 		bic	r5, r3, r5
 2101 0148 C4F81C58 		str	r5, [r4, #2076]
 2102 014c BDE8F081 		pop	{r4, r5, r6, r7, r8, pc}
 2103              	.L189:
 2104              		.align	2
 2105              	.L188:
 2106 0150 00800010 		.word	268468224
 2107 0154 00800410 		.word	268730368
 2108 0158 00040002 		.word	33555456
 2109 015c 00800810 		.word	268992512
 2110 0160 00800C10 		.word	269254656
 2111              		.cfi_endproc
 2112              	.LFE143:
 2113              		.size	usb_lld_init_endpoint, .-usb_lld_init_endpoint
 2114 0164 AFF30080 		.section	.text.usb_lld_disable_endpoints,"ax",%progbits
 2114      AFF30080 
 2114      AFF30080 
 2115              		.align	2
 2116              		.p2align 4,,15
 2117              		.global	usb_lld_disable_endpoints
 2118              		.thumb
 2119              		.thumb_func
 2120              		.type	usb_lld_disable_endpoints, %function
 2121              	usb_lld_disable_endpoints:
 2122              	.LFB144:
 2123              		.loc 1 1142 0
 2124              		.cfi_startproc
 2125              		@ args = 0, pretend = 0, frame = 0
 2126              		@ frame_needed = 0, uses_anonymous_args = 0
 2127              		@ link register save eliminated.
 2128              	.LVL183:
 2129              		.loc 1 1350 0
 2130 0000 416D     		ldr	r1, [r0, #84]
 2131              		.loc 1 1142 0
 2132 0002 0346     		mov	r3, r0
 2133              	.LBB240:
 2134              	.LBB241:
 2135              		.loc 1 214 0
 2136 0004 0A68     		ldr	r2, [r1, #0]
 2137              	.LBE241:
 2138              	.LBE240:
 2139              		.loc 1 1148 0
 2140 0006 006D     		ldr	r0, [r0, #80]
 2141              	.LVL184:
 2142              	.LBB243:
 2143              	.LBB242:
 2144              		.loc 1 214 0
 2145 0008 9A65     		str	r2, [r3, #88]
 2146              	.LBE242:
 2147              	.LBE243:
 2148              		.loc 1 1149 0
 2149              		.loc 1 1148 0
 2150 000a FFF7FEBF 		b	otg_disable_ep.clone.0
ARM GAS  C:\Users\DNIEL~1\AppData\Local\Temp\cccPEDO0.s 			page 39


 2151              		.cfi_endproc
 2152              	.LFE144:
 2153              		.size	usb_lld_disable_endpoints, .-usb_lld_disable_endpoints
 2154 000e 00BF     		.section	.text.usb_lld_get_status_out,"ax",%progbits
 2155              		.align	2
 2156              		.p2align 4,,15
 2157              		.global	usb_lld_get_status_out
 2158              		.thumb
 2159              		.thumb_func
 2160              		.type	usb_lld_get_status_out, %function
 2161              	usb_lld_get_status_out:
 2162              	.LFB145:
 2163              		.loc 1 1163 0
 2164              		.cfi_startproc
 2165              		@ args = 0, pretend = 0, frame = 0
 2166              		@ frame_needed = 0, uses_anonymous_args = 0
 2167              		@ link register save eliminated.
 2168              	.LVL185:
 2169              		.loc 1 1168 0
 2170 0000 5831     		adds	r1, r1, #88
 2171              	.LVL186:
 2172 0002 036D     		ldr	r3, [r0, #80]
 2173 0004 4901     		lsls	r1, r1, #5
 2174 0006 5B58     		ldr	r3, [r3, r1]
 2175              	.LVL187:
 2176              		.loc 1 1169 0
 2177 0008 13F40040 		ands	r0, r3, #32768
 2178              	.LVL188:
 2179 000c 04D0     		beq	.L192
 2180              		.loc 1 1171 0
 2181 000e 13F4001F 		tst	r3, #2097152
 2182              		.loc 1 1172 0
 2183 0012 0CBF     		ite	eq
 2184 0014 0220     		moveq	r0, #2
 2185 0016 0120     		movne	r0, #1
 2186              	.L192:
 2187              		.loc 1 1174 0
 2188 0018 7047     		bx	lr
 2189              		.cfi_endproc
 2190              	.LFE145:
 2191              		.size	usb_lld_get_status_out, .-usb_lld_get_status_out
 2192 001a 00BFAFF3 		.section	.text.usb_lld_get_status_in,"ax",%progbits
 2192      0080
 2193              		.align	2
 2194              		.p2align 4,,15
 2195              		.global	usb_lld_get_status_in
 2196              		.thumb
 2197              		.thumb_func
 2198              		.type	usb_lld_get_status_in, %function
 2199              	usb_lld_get_status_in:
 2200              	.LFB146:
 2201              		.loc 1 1188 0
 2202              		.cfi_startproc
 2203              		@ args = 0, pretend = 0, frame = 0
 2204              		@ frame_needed = 0, uses_anonymous_args = 0
 2205              		@ link register save eliminated.
 2206              	.LVL189:
ARM GAS  C:\Users\DNIEL~1\AppData\Local\Temp\cccPEDO0.s 			page 40


 2207              		.loc 1 1193 0
 2208 0000 4831     		adds	r1, r1, #72
 2209              	.LVL190:
 2210 0002 036D     		ldr	r3, [r0, #80]
 2211 0004 4901     		lsls	r1, r1, #5
 2212 0006 5B58     		ldr	r3, [r3, r1]
 2213              	.LVL191:
 2214              		.loc 1 1194 0
 2215 0008 13F40040 		ands	r0, r3, #32768
 2216              	.LVL192:
 2217 000c 04D0     		beq	.L196
 2218              		.loc 1 1196 0
 2219 000e 13F4001F 		tst	r3, #2097152
 2220              		.loc 1 1197 0
 2221 0012 0CBF     		ite	eq
 2222 0014 0220     		moveq	r0, #2
 2223 0016 0120     		movne	r0, #1
 2224              	.L196:
 2225              		.loc 1 1199 0
 2226 0018 7047     		bx	lr
 2227              		.cfi_endproc
 2228              	.LFE146:
 2229              		.size	usb_lld_get_status_in, .-usb_lld_get_status_in
 2230 001a 00BFAFF3 		.section	.text.usb_lld_read_setup,"ax",%progbits
 2230      0080
 2231              		.align	2
 2232              		.p2align 4,,15
 2233              		.global	usb_lld_read_setup
 2234              		.thumb
 2235              		.thumb_func
 2236              		.type	usb_lld_read_setup, %function
 2237              	usb_lld_read_setup:
 2238              	.LFB147:
 2239              		.loc 1 1215 0
 2240              		.cfi_startproc
 2241              		@ args = 0, pretend = 0, frame = 0
 2242              		@ frame_needed = 0, uses_anonymous_args = 0
 2243              		@ link register save eliminated.
 2244              	.LVL193:
 2245              		.loc 1 1217 0
 2246 0000 00EB810C 		add	ip, r0, r1, lsl #2
 2247 0004 DCF80C30 		ldr	r3, [ip, #12]
 2248 0008 186A     		ldr	r0, [r3, #32]
 2249              	.LVL194:
 2250 000a 0168     		ldr	r1, [r0, #0]	@ unaligned
 2251              	.LVL195:
 2252 000c 4368     		ldr	r3, [r0, #4]	@ unaligned
 2253 000e 1160     		str	r1, [r2, #0]	@ unaligned
 2254 0010 5360     		str	r3, [r2, #4]	@ unaligned
 2255              		.loc 1 1218 0
 2256 0012 7047     		bx	lr
 2257              		.cfi_endproc
 2258              	.LFE147:
 2259              		.size	usb_lld_read_setup, .-usb_lld_read_setup
 2260 0014 AFF30080 		.section	.text.usb_lld_prepare_receive,"ax",%progbits
 2260      AFF30080 
 2260      AFF30080 
ARM GAS  C:\Users\DNIEL~1\AppData\Local\Temp\cccPEDO0.s 			page 41


 2261              		.align	2
 2262              		.p2align 4,,15
 2263              		.global	usb_lld_prepare_receive
 2264              		.thumb
 2265              		.thumb_func
 2266              		.type	usb_lld_prepare_receive, %function
 2267              	usb_lld_prepare_receive:
 2268              	.LFB148:
 2269              		.loc 1 1228 0
 2270              		.cfi_startproc
 2271              		@ args = 0, pretend = 0, frame = 0
 2272              		@ frame_needed = 0, uses_anonymous_args = 0
 2273              		@ link register save eliminated.
 2274              	.LVL196:
 2275              		.loc 1 1230 0
 2276 0000 00EB8103 		add	r3, r0, r1, lsl #2
 2277              		.loc 1 1228 0
 2278 0004 30B4     		push	{r4, r5}
 2279              	.LCFI9:
 2280              		.cfi_def_cfa_offset 8
 2281              		.loc 1 1230 0
 2282 0006 DC68     		ldr	r4, [r3, #12]
 2283              		.cfi_offset 5, -4
 2284              		.cfi_offset 4, -8
 2285 0008 A269     		ldr	r2, [r4, #24]
 2286              	.LVL197:
 2287              		.loc 1 1233 0
 2288 000a 5368     		ldr	r3, [r2, #4]
 2289              	.LVL198:
 2290 000c 1361     		str	r3, [r2, #16]
 2291              		.loc 1 1234 0
 2292 000e 31B9     		cbnz	r1, .L204
 2293              		.loc 1 1234 0 is_stmt 0 discriminator 1
 2294 0010 402B     		cmp	r3, #64
 2295 0012 04D9     		bls	.L204
 2296              		.loc 1 1235 0 is_stmt 1
 2297 0014 4025     		movs	r5, #64
 2298 0016 5560     		str	r5, [r2, #4]
 2299 0018 094B     		ldr	r3, .L205
 2300 001a 3F25     		movs	r5, #63
 2301 001c 02E0     		b	.L202
 2302              	.L204:
 2303              		.loc 1 1234 0
 2304 001e 5D1E     		subs	r5, r3, #1
 2305 0020 43F0C043 		orr	r3, r3, #1610612736
 2306              	.L202:
 2307              		.loc 1 1237 0
 2308 0024 628A     		ldrh	r2, [r4, #18]
 2309              	.LVL199:
 2310              		.loc 1 1239 0
 2311 0026 006D     		ldr	r0, [r0, #80]
 2312              	.LVL200:
 2313              		.loc 1 1237 0
 2314 0028 AC18     		adds	r4, r5, r2
 2315              	.LVL201:
 2316              		.loc 1 1239 0
 2317 002a 4901     		lsls	r1, r1, #5
ARM GAS  C:\Users\DNIEL~1\AppData\Local\Temp\cccPEDO0.s 			page 42


 2318              	.LVL202:
 2319              		.loc 1 1237 0
 2320 002c B4FBF2FC 		udiv	ip, r4, r2
 2321              		.loc 1 1239 0
 2322 0030 4118     		adds	r1, r0, r1
 2323 0032 43EACC42 		orr	r2, r3, ip, lsl #19
 2324              	.LVL203:
 2325 0036 C1F8102B 		str	r2, [r1, #2832]
 2326              		.loc 1 1242 0
 2327 003a 30BC     		pop	{r4, r5}
 2328 003c 7047     		bx	lr
 2329              	.L206:
 2330 003e 00BF     		.align	2
 2331              	.L205:
 2332 0040 40000060 		.word	1610612800
 2333              		.cfi_endproc
 2334              	.LFE148:
 2335              		.size	usb_lld_prepare_receive, .-usb_lld_prepare_receive
 2336 0044 AFF30080 		.section	.text.otg_epout_handler.clone.8,"ax",%progbits
 2336      AFF30080 
 2336      AFF30080 
 2337              		.align	2
 2338              		.p2align 4,,15
 2339              		.thumb
 2340              		.thumb_func
 2341              		.type	otg_epout_handler.clone.8, %function
 2342              	otg_epout_handler.clone.8:
 2343              	.LFB164:
 2344              		.loc 1 599 0
 2345              		.cfi_startproc
 2346              		@ args = 0, pretend = 0, frame = 0
 2347              		@ frame_needed = 0, uses_anonymous_args = 0
 2348              	.LVL204:
 2349 0000 F8B5     		push	{r3, r4, r5, r6, r7, lr}
 2350              	.LCFI10:
 2351              		.cfi_def_cfa_offset 24
 2352              		.loc 1 600 0
 2353 0002 274F     		ldr	r7, .L213
 2354              		.cfi_offset 14, -4
 2355              		.cfi_offset 7, -8
 2356              		.cfi_offset 6, -12
 2357              		.cfi_offset 5, -16
 2358              		.cfi_offset 4, -20
 2359              		.cfi_offset 3, -24
 2360 0004 3E6D     		ldr	r6, [r7, #80]
 2361              	.LVL205:
 2362              		.loc 1 601 0
 2363 0006 4101     		lsls	r1, r0, #5
 2364 0008 7318     		adds	r3, r6, r1
 2365              		.loc 1 599 0
 2366 000a 0446     		mov	r4, r0
 2367              		.loc 1 601 0
 2368 000c D3F8085B 		ldr	r5, [r3, #2824]
 2369              	.LVL206:
 2370              		.loc 1 606 0
 2371 0010 15F0080F 		tst	r5, #8
 2372              		.loc 1 604 0
ARM GAS  C:\Users\DNIEL~1\AppData\Local\Temp\cccPEDO0.s 			page 43


 2373 0014 C3F8085B 		str	r5, [r3, #2824]
 2374              		.loc 1 606 0
 2375 0018 04D0     		beq	.L208
 2376 001a D6F81428 		ldr	r2, [r6, #2068]
 2377 001e 12F0080F 		tst	r2, #8
 2378 0022 1ED1     		bne	.L211
 2379              	.LVL207:
 2380              	.L208:
 2381              		.loc 1 612 0
 2382 0024 15F0010F 		tst	r5, #1
 2383 0028 1AD0     		beq	.L207
 2384 002a D6F81408 		ldr	r0, [r6, #2068]
 2385 002e 10F0010F 		tst	r0, #1
 2386 0032 15D0     		beq	.L207
 2387              	.LBB244:
 2388              		.loc 1 614 0
 2389 0034 07EB8407 		add	r7, r7, r4, lsl #2
 2390 0038 194D     		ldr	r5, .L213
 2391              	.LVL208:
 2392 003a FA68     		ldr	r2, [r7, #12]
 2393 003c 9369     		ldr	r3, [r2, #24]
 2394              	.LVL209:
 2395              		.loc 1 616 0
 2396 003e 5968     		ldr	r1, [r3, #4]
 2397 0040 1869     		ldr	r0, [r3, #16]
 2398 0042 8142     		cmp	r1, r0
 2399 0044 16D3     		bcc	.L212
 2400              		.loc 1 629 0
 2401 0046 B5F80AC0 		ldrh	ip, [r5, #10]
 2402 004a D368     		ldr	r3, [r2, #12]
 2403 004c 0120     		movs	r0, #1
 2404 004e 10FA04F2 		lsls	r2, r0, r4
 2405 0052 2CEA020E 		bic	lr, ip, r2
 2406 0056 A5F80AE0 		strh	lr, [r5, #10]	@ movhi
 2407 005a 2846     		mov	r0, r5
 2408 005c 2146     		mov	r1, r4
 2409 005e 9847     		blx	r3
 2410              	.LVL210:
 2411              	.L207:
 2412 0060 F8BD     		pop	{r3, r4, r5, r6, r7, pc}
 2413              	.LVL211:
 2414              	.L211:
 2415              	.LBE244:
 2416              		.loc 1 609 0
 2417 0062 07EB800C 		add	ip, r7, r0, lsl #2
 2418 0066 2146     		mov	r1, r4
 2419 0068 DCF80C20 		ldr	r2, [ip, #12]
 2420 006c 3846     		mov	r0, r7
 2421              	.LVL212:
 2422 006e 5368     		ldr	r3, [r2, #4]
 2423 0070 9847     		blx	r3
 2424 0072 D7E7     		b	.L208
 2425              	.LVL213:
 2426              	.L212:
 2427              	.LBB252:
 2428              		.loc 1 620 0
 2429 0074 411A     		subs	r1, r0, r1
ARM GAS  C:\Users\DNIEL~1\AppData\Local\Temp\cccPEDO0.s 			page 44


 2430              		.loc 1 621 0
 2431 0076 0026     		movs	r6, #0
 2432              	.LVL214:
 2433              		.loc 1 620 0
 2434 0078 5960     		str	r1, [r3, #4]
 2435              		.loc 1 621 0
 2436 007a 9E60     		str	r6, [r3, #8]
 2437              		.loc 1 622 0
 2438 007c 2846     		mov	r0, r5
 2439 007e 2146     		mov	r1, r4
 2440 0080 FFF7FEFF 		bl	usb_lld_prepare_receive
 2441              	.LVL215:
 2442              	.LBB245:
 2443              		.loc 1 623 0
 2444 0084 2023     		movs	r3, #32
 2445              	.LVL216:
 2446              	@ 623 "../../../ChibiOS/os/hal/platforms/STM32/OTGv1/usb_lld.c" 1
 2447 0086 83F31188 		msr     BASEPRI, r3
 2448              	@ 0 "" 2
 2449              	.LVL217:
 2450              		.thumb
 2451              	.LBE245:
 2452              	.LBB246:
 2453              	.LBB247:
 2454              		.loc 1 1283 0
 2455 008a 5834     		adds	r4, r4, #88
 2456 008c 2A6D     		ldr	r2, [r5, #80]
 2457 008e 6401     		lsls	r4, r4, #5
 2458              	.LBE247:
 2459              	.LBE246:
 2460              	.LBB249:
 2461              		.loc 1 625 0
 2462 0090 3346     		mov	r3, r6
 2463              	.LVL218:
 2464              	.LBE249:
 2465              	.LBB250:
 2466              	.LBB248:
 2467              		.loc 1 1283 0
 2468 0092 1059     		ldr	r0, [r2, r4]
 2469 0094 40F08061 		orr	r1, r0, #67108864
 2470 0098 1151     		str	r1, [r2, r4]
 2471              	.LBE248:
 2472              	.LBE250:
 2473              	.LBB251:
 2474              		.loc 1 625 0
 2475              	@ 625 "../../../ChibiOS/os/hal/platforms/STM32/OTGv1/usb_lld.c" 1
 2476 009a 83F31188 		msr     BASEPRI, r3
 2477              	@ 0 "" 2
 2478              	.LVL219:
 2479              		.thumb
 2480 009e F8BD     		pop	{r3, r4, r5, r6, r7, pc}
 2481              	.L214:
 2482              		.align	2
 2483              	.L213:
 2484 00a0 00000000 		.word	.LANCHOR0
 2485              	.LBE251:
 2486              	.LBE252:
ARM GAS  C:\Users\DNIEL~1\AppData\Local\Temp\cccPEDO0.s 			page 45


 2487              		.cfi_endproc
 2488              	.LFE164:
 2489              		.size	otg_epout_handler.clone.8, .-otg_epout_handler.clone.8
 2490 00a4 AFF30080 		.section	.text.usb_lld_prepare_transmit,"ax",%progbits
 2490      AFF30080 
 2490      AFF30080 
 2491              		.align	2
 2492              		.p2align 4,,15
 2493              		.global	usb_lld_prepare_transmit
 2494              		.thumb
 2495              		.thumb_func
 2496              		.type	usb_lld_prepare_transmit, %function
 2497              	usb_lld_prepare_transmit:
 2498              	.LFB149:
 2499              		.loc 1 1252 0
 2500              		.cfi_startproc
 2501              		@ args = 0, pretend = 0, frame = 0
 2502              		@ frame_needed = 0, uses_anonymous_args = 0
 2503              		@ link register save eliminated.
 2504              	.LVL220:
 2505              		.loc 1 1253 0
 2506 0000 00EB8103 		add	r3, r0, r1, lsl #2
 2507              		.loc 1 1252 0
 2508 0004 30B4     		push	{r4, r5}
 2509              	.LCFI11:
 2510              		.cfi_def_cfa_offset 8
 2511              		.loc 1 1253 0
 2512 0006 DC68     		ldr	r4, [r3, #12]
 2513              		.cfi_offset 5, -4
 2514              		.cfi_offset 4, -8
 2515 0008 6269     		ldr	r2, [r4, #20]
 2516              	.LVL221:
 2517              		.loc 1 1256 0
 2518 000a 5368     		ldr	r3, [r2, #4]
 2519              	.LVL222:
 2520 000c 1361     		str	r3, [r2, #16]
 2521              		.loc 1 1257 0
 2522 000e BBB1     		cbz	r3, .L222
 2523              	.LBB253:
 2524              		.loc 1 1262 0
 2525 0010 81B1     		cbz	r1, .L218
 2526              	.L221:
 2527 0012 5D1E     		subs	r5, r3, #1
 2528              	.L219:
 2529              		.loc 1 1266 0
 2530 0014 B4F810C0 		ldrh	ip, [r4, #16]
 2531              	.LVL223:
 2532              		.loc 1 1268 0
 2533 0018 006D     		ldr	r0, [r0, #80]
 2534              	.LVL224:
 2535              		.loc 1 1266 0
 2536 001a 05EB0C04 		add	r4, r5, ip
 2537              	.LVL225:
 2538              		.loc 1 1268 0
 2539 001e 4901     		lsls	r1, r1, #5
 2540              	.LVL226:
 2541              		.loc 1 1266 0
ARM GAS  C:\Users\DNIEL~1\AppData\Local\Temp\cccPEDO0.s 			page 46


 2542 0020 B4FBFCF2 		udiv	r2, r4, ip
 2543              	.LVL227:
 2544              		.loc 1 1268 0
 2545 0024 00EB010C 		add	ip, r0, r1
 2546              	.LVL228:
 2547 0028 43EAC241 		orr	r1, r3, r2, lsl #19
 2548 002c CCF81019 		str	r1, [ip, #2320]
 2549              	.LVL229:
 2550              	.L215:
 2551              	.LBE253:
 2552              		.loc 1 1271 0
 2553 0030 30BC     		pop	{r4, r5}
 2554 0032 7047     		bx	lr
 2555              	.LVL230:
 2556              	.L218:
 2557              	.LBB254:
 2558              		.loc 1 1262 0 discriminator 1
 2559 0034 402B     		cmp	r3, #64
 2560 0036 ECD9     		bls	.L221
 2561              		.loc 1 1263 0
 2562 0038 4023     		movs	r3, #64
 2563 003a 5360     		str	r3, [r2, #4]
 2564 003c 3F25     		movs	r5, #63
 2565 003e E9E7     		b	.L219
 2566              	.L222:
 2567              	.LBE254:
 2568              		.loc 1 1259 0
 2569 0040 036D     		ldr	r3, [r0, #80]
 2570 0042 4A01     		lsls	r2, r1, #5
 2571              	.LVL231:
 2572 0044 9918     		adds	r1, r3, r2
 2573              	.LVL232:
 2574 0046 4FF40020 		mov	r0, #524288
 2575              	.LVL233:
 2576 004a C1F81009 		str	r0, [r1, #2320]
 2577 004e EFE7     		b	.L215
 2578              		.cfi_endproc
 2579              	.LFE149:
 2580              		.size	usb_lld_prepare_transmit, .-usb_lld_prepare_transmit
 2581              		.section	.text.otg_epin_handler.clone.9,"ax",%progbits
 2582              		.align	2
 2583              		.p2align 4,,15
 2584              		.thumb
 2585              		.thumb_func
 2586              		.type	otg_epin_handler.clone.9, %function
 2587              	otg_epin_handler.clone.9:
 2588              	.LFB163:
 2589              		.loc 1 551 0
 2590              		.cfi_startproc
 2591              		@ args = 0, pretend = 0, frame = 0
 2592              		@ frame_needed = 0, uses_anonymous_args = 0
 2593              	.LVL234:
 2594 0000 2DE9F041 		push	{r4, r5, r6, r7, r8, lr}
 2595              	.LCFI12:
 2596              		.cfi_def_cfa_offset 24
 2597              		.loc 1 552 0
 2598 0004 354D     		ldr	r5, .L229
ARM GAS  C:\Users\DNIEL~1\AppData\Local\Temp\cccPEDO0.s 			page 47


 2599              		.cfi_offset 14, -4
 2600              		.cfi_offset 8, -8
 2601              		.cfi_offset 7, -12
 2602              		.cfi_offset 6, -16
 2603              		.cfi_offset 5, -20
 2604              		.cfi_offset 4, -24
 2605 0006 2E6D     		ldr	r6, [r5, #80]
 2606              	.LVL235:
 2607              		.loc 1 553 0
 2608 0008 4101     		lsls	r1, r0, #5
 2609 000a 7318     		adds	r3, r6, r1
 2610              		.loc 1 551 0
 2611 000c 0746     		mov	r7, r0
 2612              		.loc 1 553 0
 2613 000e D3F80849 		ldr	r4, [r3, #2312]
 2614              	.LVL236:
 2615              		.loc 1 560 0
 2616 0012 14F0010F 		tst	r4, #1
 2617              		.loc 1 555 0
 2618 0016 C3F80849 		str	r4, [r3, #2312]
 2619              		.loc 1 560 0
 2620 001a 04D0     		beq	.L224
 2621 001c D6F81028 		ldr	r2, [r6, #2064]
 2622 0020 12F0010F 		tst	r2, #1
 2623 0024 22D1     		bne	.L228
 2624              	.LVL237:
 2625              	.L224:
 2626              		.loc 1 580 0
 2627 0026 14F0800F 		tst	r4, #128
 2628 002a 1DD0     		beq	.L223
 2629              		.loc 1 581 0
 2630 002c 0122     		movs	r2, #1
 2631 002e D6F83438 		ldr	r3, [r6, #2100]
 2632              	.LVL238:
 2633 0032 12FA07F7 		lsls	r7, r2, r7
 2634              		.loc 1 580 0
 2635 0036 1F42     		tst	r7, r3
 2636 0038 16D0     		beq	.L223
 2637              	.LBB255:
 2638              		.loc 1 583 0
 2639 003a 2023     		movs	r3, #32
 2640              	.LVL239:
 2641              	@ 583 "../../../ChibiOS/os/hal/platforms/STM32/OTGv1/usb_lld.c" 1
 2642 003c 83F31188 		msr     BASEPRI, r3
 2643              	@ 0 "" 2
 2644              	.LVL240:
 2645              		.thumb
 2646              	.LBE255:
 2647              		.loc 1 584 0
 2648 0040 EB6D     		ldr	r3, [r5, #92]
 2649              	.LVL241:
 2650              		.loc 1 585 0
 2651 0042 D6F83428 		ldr	r2, [r6, #2100]
 2652              	.LBB256:
 2653              	.LBB257:
 2654              		.loc 1 125 0
 2655 0046 686E     		ldr	r0, [r5, #100]
ARM GAS  C:\Users\DNIEL~1\AppData\Local\Temp\cccPEDO0.s 			page 48


 2656              	.LBE257:
 2657              	.LBE256:
 2658              		.loc 1 584 0
 2659 0048 47EA0301 		orr	r1, r7, r3
 2660              		.loc 1 585 0
 2661 004c 22EA0707 		bic	r7, r2, r7
 2662              		.loc 1 584 0
 2663 0050 E965     		str	r1, [r5, #92]
 2664              		.loc 1 585 0
 2665 0052 C6F83478 		str	r7, [r6, #2100]
 2666              	.LBB259:
 2667              	.LBB258:
 2668              		.loc 1 125 0
 2669 0056 20B1     		cbz	r0, .L227
 2670              		.loc 1 126 0
 2671 0058 FFF7FEFF 		bl	chSchReadyI
 2672              		.loc 1 127 0
 2673 005c 1F49     		ldr	r1, .L229
 2674 005e 0020     		movs	r0, #0
 2675 0060 4866     		str	r0, [r1, #100]
 2676              	.L227:
 2677              	.LBE258:
 2678              	.LBE259:
 2679              	.LBB260:
 2680              		.loc 1 587 0
 2681 0062 0023     		movs	r3, #0
 2682              	.LVL242:
 2683              	@ 587 "../../../ChibiOS/os/hal/platforms/STM32/OTGv1/usb_lld.c" 1
 2684 0064 83F31188 		msr     BASEPRI, r3
 2685              	@ 0 "" 2
 2686              	.LVL243:
 2687              		.thumb
 2688              	.L223:
 2689 0068 BDE8F081 		pop	{r4, r5, r6, r7, r8, pc}
 2690              	.LVL244:
 2691              	.L228:
 2692              	.LBE260:
 2693              	.LBB261:
 2694              		.loc 1 562 0
 2695 006c 05EB8000 		add	r0, r5, r0, lsl #2
 2696              	.LVL245:
 2697 0070 C268     		ldr	r2, [r0, #12]
 2698 0072 5369     		ldr	r3, [r2, #20]
 2699              	.LVL246:
 2700              		.loc 1 564 0
 2701 0074 5968     		ldr	r1, [r3, #4]
 2702 0076 1869     		ldr	r0, [r3, #16]
 2703              	.LVL247:
 2704 0078 8142     		cmp	r1, r0
 2705 007a 21D2     		bcs	.L225
 2706              		.loc 1 568 0
 2707 007c 421A     		subs	r2, r0, r1
 2708              	.LVL248:
 2709              		.loc 1 569 0
 2710 007e 4FF00008 		mov	r8, #0
 2711              		.loc 1 568 0
 2712 0082 5A60     		str	r2, [r3, #4]
ARM GAS  C:\Users\DNIEL~1\AppData\Local\Temp\cccPEDO0.s 			page 49


 2713              		.loc 1 569 0
 2714 0084 C3F80880 		str	r8, [r3, #8]
 2715              		.loc 1 570 0
 2716 0088 2846     		mov	r0, r5
 2717 008a 3946     		mov	r1, r7
 2718 008c FFF7FEFF 		bl	usb_lld_prepare_transmit
 2719              	.LVL249:
 2720              	.LBB262:
 2721              		.loc 1 571 0
 2722 0090 2023     		movs	r3, #32
 2723              	.LVL250:
 2724              	@ 571 "../../../ChibiOS/os/hal/platforms/STM32/OTGv1/usb_lld.c" 1
 2725 0092 83F31188 		msr     BASEPRI, r3
 2726              	@ 0 "" 2
 2727              	.LVL251:
 2728              		.thumb
 2729              	.LBE262:
 2730              	.LBB263:
 2731              	.LBB264:
 2732              		.loc 1 1296 0
 2733 0096 07F14800 		add	r0, r7, #72
 2734 009a 2B6D     		ldr	r3, [r5, #80]
 2735              	.LVL252:
 2736 009c 4201     		lsls	r2, r0, #5
 2737 009e 9958     		ldr	r1, [r3, r2]
 2738 00a0 41F00440 		orr	r0, r1, #-2080374784
 2739 00a4 9850     		str	r0, [r3, r2]
 2740              		.loc 1 1297 0
 2741 00a6 0121     		movs	r1, #1
 2742 00a8 D3F83408 		ldr	r0, [r3, #2100]
 2743 00ac 11FA07F2 		lsls	r2, r1, r7
 2744 00b0 42EA0001 		orr	r1, r2, r0
 2745 00b4 C3F83418 		str	r1, [r3, #2100]
 2746              	.LBE264:
 2747              	.LBE263:
 2748              	.LBB265:
 2749              		.loc 1 573 0
 2750 00b8 4346     		mov	r3, r8
 2751              	@ 573 "../../../ChibiOS/os/hal/platforms/STM32/OTGv1/usb_lld.c" 1
 2752 00ba 83F31188 		msr     BASEPRI, r3
 2753              	@ 0 "" 2
 2754              	.LVL253:
 2755              		.thumb
 2756 00be B2E7     		b	.L224
 2757              	.LVL254:
 2758              	.L225:
 2759              	.LBE265:
 2760              		.loc 1 577 0
 2761 00c0 B5F808E0 		ldrh	lr, [r5, #8]
 2762 00c4 9368     		ldr	r3, [r2, #8]
 2763              	.LVL255:
 2764 00c6 0121     		movs	r1, #1
 2765 00c8 11FA07F0 		lsls	r0, r1, r7
 2766 00cc 2EEA000C 		bic	ip, lr, r0
 2767 00d0 A5F808C0 		strh	ip, [r5, #8]	@ movhi
 2768 00d4 2846     		mov	r0, r5
 2769 00d6 3946     		mov	r1, r7
ARM GAS  C:\Users\DNIEL~1\AppData\Local\Temp\cccPEDO0.s 			page 50


 2770 00d8 9847     		blx	r3
 2771              	.LVL256:
 2772 00da A4E7     		b	.L224
 2773              	.L230:
 2774              		.align	2
 2775              	.L229:
 2776 00dc 00000000 		.word	.LANCHOR0
 2777              	.LBE261:
 2778              		.cfi_endproc
 2779              	.LFE163:
 2780              		.size	otg_epin_handler.clone.9, .-otg_epin_handler.clone.9
 2781              		.section	.text.Vector14C,"ax",%progbits
 2782              		.align	2
 2783              		.p2align 4,,15
 2784              		.global	Vector14C
 2785              		.thumb
 2786              		.thumb_func
 2787              		.type	Vector14C, %function
 2788              	Vector14C:
 2789              	.LFB137:
 2790              		.loc 1 780 0
 2791              		.cfi_startproc
 2792              		@ args = 0, pretend = 0, frame = 0
 2793              		@ frame_needed = 0, uses_anonymous_args = 0
 2794              	.LVL257:
 2795 0000 70B5     		push	{r4, r5, r6, lr}
 2796              	.LCFI13:
 2797              		.cfi_def_cfa_offset 16
 2798              	.LBB272:
 2799              	.LBB273:
 2800              		.loc 1 642 0
 2801 0002 434E     		ldr	r6, .L254
 2802              		.cfi_offset 14, -4
 2803              		.cfi_offset 6, -8
 2804              		.cfi_offset 5, -12
 2805              		.cfi_offset 4, -16
 2806 0004 356D     		ldr	r5, [r6, #80]
 2807              	.LVL258:
 2808              		.loc 1 645 0
 2809 0006 6B69     		ldr	r3, [r5, #20]
 2810              	.LVL259:
 2811              		.loc 1 646 0
 2812 0008 AC69     		ldr	r4, [r5, #24]
 2813 000a 1C40     		ands	r4, r4, r3
 2814              	.LVL260:
 2815              		.loc 1 650 0
 2816 000c 14F4805F 		tst	r4, #4096
 2817              		.loc 1 647 0
 2818 0010 6C61     		str	r4, [r5, #20]
 2819              		.loc 1 650 0
 2820 0012 48D1     		bne	.L245
 2821              	.LVL261:
 2822              	.L232:
 2823              		.loc 1 656 0
 2824 0014 14F4005F 		tst	r4, #8192
 2825              		.loc 1 657 0
 2826 0018 18BF     		it	ne
ARM GAS  C:\Users\DNIEL~1\AppData\Local\Temp\cccPEDO0.s 			page 51


 2827 001a D5F80838 		ldrne	r3, [r5, #2056]
 2828              		.loc 1 661 0
 2829 001e 14F0080F 		tst	r4, #8
 2830 0022 04D0     		beq	.L234
 2831              		.loc 1 662 0
 2832 0024 7068     		ldr	r0, [r6, #4]
 2833 0026 C368     		ldr	r3, [r0, #12]
 2834 0028 0BB1     		cbz	r3, .L234
 2835 002a 3948     		ldr	r0, .L254
 2836 002c 9847     		blx	r3
 2837              	.L234:
 2838              		.loc 1 666 0
 2839 002e 14F0100F 		tst	r4, #16
 2840 0032 10D0     		beq	.L235
 2841              	.LBB279:
 2842              		.loc 1 669 0
 2843 0034 2023     		movs	r3, #32
 2844              	.LVL262:
 2845              	@ 669 "../../../ChibiOS/os/hal/platforms/STM32/OTGv1/usb_lld.c" 1
 2846 0036 83F31188 		msr     BASEPRI, r3
 2847              	@ 0 "" 2
 2848              	.LVL263:
 2849              		.thumb
 2850              	.LBE279:
 2851              		.loc 1 670 0
 2852 003a AA69     		ldr	r2, [r5, #24]
 2853              	.LBB276:
 2854              	.LBB277:
 2855              		.loc 1 125 0
 2856 003c 706E     		ldr	r0, [r6, #100]
 2857              	.LBE277:
 2858              	.LBE276:
 2859              		.loc 1 670 0
 2860 003e 22F01001 		bic	r1, r2, #16
 2861 0042 A961     		str	r1, [r5, #24]
 2862              	.LBB275:
 2863              	.LBB278:
 2864              		.loc 1 125 0
 2865 0044 20B1     		cbz	r0, .L236
 2866              		.loc 1 126 0
 2867 0046 FFF7FEFF 		bl	chSchReadyI
 2868              	.LVL264:
 2869              		.loc 1 127 0
 2870 004a 314B     		ldr	r3, .L254
 2871 004c 0020     		movs	r0, #0
 2872 004e 5866     		str	r0, [r3, #100]
 2873              	.LVL265:
 2874              	.L236:
 2875              	.LBE278:
 2876              	.LBE275:
 2877              	.LBB274:
 2878              		.loc 1 672 0
 2879 0050 0023     		movs	r3, #0
 2880              	.LVL266:
 2881              	@ 672 "../../../ChibiOS/os/hal/platforms/STM32/OTGv1/usb_lld.c" 1
 2882 0052 83F31188 		msr     BASEPRI, r3
 2883              	@ 0 "" 2
ARM GAS  C:\Users\DNIEL~1\AppData\Local\Temp\cccPEDO0.s 			page 52


 2884              	.LVL267:
 2885              		.thumb
 2886              	.L235:
 2887              	.LBE274:
 2888              		.loc 1 677 0
 2889 0056 14F4802F 		tst	r4, #262144
 2890              		.loc 1 676 0
 2891 005a D5F81858 		ldr	r5, [r5, #2072]
 2892              	.LVL268:
 2893              		.loc 1 677 0
 2894 005e 0BD0     		beq	.L237
 2895              		.loc 1 678 0
 2896 0060 15F0010F 		tst	r5, #1
 2897 0064 3ED1     		bne	.L246
 2898              		.loc 1 680 0
 2899 0066 15F0020F 		tst	r5, #2
 2900 006a 41D1     		bne	.L247
 2901              	.L239:
 2902              		.loc 1 682 0
 2903 006c 15F0040F 		tst	r5, #4
 2904 0070 44D1     		bne	.L248
 2905              	.L240:
 2906              		.loc 1 684 0
 2907 0072 15F0080F 		tst	r5, #8
 2908 0076 47D1     		bne	.L249
 2909              	.L237:
 2910              		.loc 1 693 0
 2911 0078 14F4002F 		tst	r4, #524288
 2912 007c 0BD0     		beq	.L241
 2913              		.loc 1 694 0
 2914 007e 15F4803F 		tst	r5, #65536
 2915 0082 22D1     		bne	.L250
 2916              		.loc 1 696 0
 2917 0084 15F4003F 		tst	r5, #131072
 2918 0088 25D1     		bne	.L251
 2919              	.L243:
 2920              		.loc 1 698 0
 2921 008a 15F4802F 		tst	r5, #262144
 2922 008e 15D1     		bne	.L252
 2923              	.L244:
 2924              		.loc 1 700 0
 2925 0090 15F4002F 		tst	r5, #524288
 2926 0094 03D1     		bne	.L253
 2927              	.L241:
 2928              	.LBE273:
 2929              	.LBE272:
 2930              		.loc 1 787 0
 2931 0096 BDE87040 		pop	{r4, r5, r6, lr}
 2932              		.loc 1 786 0
 2933 009a FFF7FEBF 		b	_port_irq_epilogue
 2934              	.LVL269:
 2935              	.L253:
 2936              	.LBB281:
 2937              	.LBB280:
 2938              		.loc 1 701 0
 2939 009e 0320     		movs	r0, #3
 2940 00a0 FFF7FEFF 		bl	otg_epout_handler.clone.8
ARM GAS  C:\Users\DNIEL~1\AppData\Local\Temp\cccPEDO0.s 			page 53


 2941              	.LVL270:
 2942 00a4 F7E7     		b	.L241
 2943              	.LVL271:
 2944              	.L245:
 2945              		.loc 1 651 0
 2946 00a6 3046     		mov	r0, r6
 2947 00a8 FFF7FEFF 		bl	_usb_reset
 2948              		.loc 1 652 0
 2949 00ac 7368     		ldr	r3, [r6, #4]
 2950 00ae 1B68     		ldr	r3, [r3, #0]
 2951 00b0 002B     		cmp	r3, #0
 2952 00b2 AFD0     		beq	.L232
 2953 00b4 3046     		mov	r0, r6
 2954 00b6 0021     		movs	r1, #0
 2955 00b8 9847     		blx	r3
 2956 00ba ABE7     		b	.L232
 2957              	.LVL272:
 2958              	.L252:
 2959              		.loc 1 699 0
 2960 00bc 0220     		movs	r0, #2
 2961 00be FFF7FEFF 		bl	otg_epout_handler.clone.8
 2962              	.LVL273:
 2963              		.loc 1 700 0
 2964 00c2 15F4002F 		tst	r5, #524288
 2965 00c6 E6D0     		beq	.L241
 2966 00c8 E9E7     		b	.L253
 2967              	.LVL274:
 2968              	.L250:
 2969              		.loc 1 695 0
 2970 00ca 0020     		movs	r0, #0
 2971 00cc FFF7FEFF 		bl	otg_epout_handler.clone.8
 2972              	.LVL275:
 2973              		.loc 1 696 0
 2974 00d0 15F4003F 		tst	r5, #131072
 2975 00d4 D9D0     		beq	.L243
 2976              	.LVL276:
 2977              	.L251:
 2978              		.loc 1 697 0
 2979 00d6 0120     		movs	r0, #1
 2980 00d8 FFF7FEFF 		bl	otg_epout_handler.clone.8
 2981              	.LVL277:
 2982              		.loc 1 698 0
 2983 00dc 15F4802F 		tst	r5, #262144
 2984 00e0 D6D0     		beq	.L244
 2985 00e2 EBE7     		b	.L252
 2986              	.LVL278:
 2987              	.L246:
 2988              		.loc 1 679 0
 2989 00e4 0020     		movs	r0, #0
 2990 00e6 FFF7FEFF 		bl	otg_epin_handler.clone.9
 2991              	.LVL279:
 2992              		.loc 1 680 0
 2993 00ea 15F0020F 		tst	r5, #2
 2994 00ee BDD0     		beq	.L239
 2995              	.LVL280:
 2996              	.L247:
 2997              		.loc 1 681 0
ARM GAS  C:\Users\DNIEL~1\AppData\Local\Temp\cccPEDO0.s 			page 54


 2998 00f0 0120     		movs	r0, #1
 2999 00f2 FFF7FEFF 		bl	otg_epin_handler.clone.9
 3000              	.LVL281:
 3001              		.loc 1 682 0
 3002 00f6 15F0040F 		tst	r5, #4
 3003 00fa BAD0     		beq	.L240
 3004              	.LVL282:
 3005              	.L248:
 3006              		.loc 1 683 0
 3007 00fc 0220     		movs	r0, #2
 3008 00fe FFF7FEFF 		bl	otg_epin_handler.clone.9
 3009              	.LVL283:
 3010              		.loc 1 684 0
 3011 0102 15F0080F 		tst	r5, #8
 3012 0106 B7D0     		beq	.L237
 3013              	.LVL284:
 3014              	.L249:
 3015              		.loc 1 685 0
 3016 0108 0320     		movs	r0, #3
 3017 010a FFF7FEFF 		bl	otg_epin_handler.clone.9
 3018              	.LVL285:
 3019 010e B3E7     		b	.L237
 3020              	.L255:
 3021              		.align	2
 3022              	.L254:
 3023 0110 00000000 		.word	.LANCHOR0
 3024              	.LBE280:
 3025              	.LBE281:
 3026              		.cfi_endproc
 3027              	.LFE137:
 3028              		.size	Vector14C, .-Vector14C
 3029 0114 AFF30080 		.section	.text.usb_lld_start_out,"ax",%progbits
 3029      AFF30080 
 3029      AFF30080 
 3030              		.align	2
 3031              		.p2align 4,,15
 3032              		.global	usb_lld_start_out
 3033              		.thumb
 3034              		.thumb_func
 3035              		.type	usb_lld_start_out, %function
 3036              	usb_lld_start_out:
 3037              	.LFB150:
 3038              		.loc 1 1281 0
 3039              		.cfi_startproc
 3040              		@ args = 0, pretend = 0, frame = 0
 3041              		@ frame_needed = 0, uses_anonymous_args = 0
 3042              		@ link register save eliminated.
 3043              	.LVL286:
 3044              		.loc 1 1283 0
 3045 0000 5831     		adds	r1, r1, #88
 3046              	.LVL287:
 3047 0002 036D     		ldr	r3, [r0, #80]
 3048 0004 4901     		lsls	r1, r1, #5
 3049 0006 5858     		ldr	r0, [r3, r1]
 3050              	.LVL288:
 3051 0008 40F08062 		orr	r2, r0, #67108864
 3052 000c 5A50     		str	r2, [r3, r1]
ARM GAS  C:\Users\DNIEL~1\AppData\Local\Temp\cccPEDO0.s 			page 55


 3053              		.loc 1 1284 0
 3054 000e 7047     		bx	lr
 3055              		.cfi_endproc
 3056              	.LFE150:
 3057              		.size	usb_lld_start_out, .-usb_lld_start_out
 3058              		.section	.text.usb_lld_start_in,"ax",%progbits
 3059              		.align	2
 3060              		.p2align 4,,15
 3061              		.global	usb_lld_start_in
 3062              		.thumb
 3063              		.thumb_func
 3064              		.type	usb_lld_start_in, %function
 3065              	usb_lld_start_in:
 3066              	.LFB151:
 3067              		.loc 1 1294 0
 3068              		.cfi_startproc
 3069              		@ args = 0, pretend = 0, frame = 0
 3070              		@ frame_needed = 0, uses_anonymous_args = 0
 3071              		@ link register save eliminated.
 3072              	.LVL289:
 3073              		.loc 1 1296 0
 3074 0000 01F14803 		add	r3, r1, #72
 3075 0004 026D     		ldr	r2, [r0, #80]
 3076 0006 5B01     		lsls	r3, r3, #5
 3077 0008 D058     		ldr	r0, [r2, r3]
 3078              	.LVL290:
 3079 000a 40F00440 		orr	r0, r0, #-2080374784
 3080 000e D050     		str	r0, [r2, r3]
 3081              		.loc 1 1297 0
 3082 0010 0120     		movs	r0, #1
 3083 0012 D2F83438 		ldr	r3, [r2, #2100]
 3084 0016 8840     		lsls	r0, r0, r1
 3085 0018 40EA0301 		orr	r1, r0, r3
 3086              	.LVL291:
 3087 001c C2F83418 		str	r1, [r2, #2100]
 3088              		.loc 1 1298 0
 3089 0020 7047     		bx	lr
 3090              		.cfi_endproc
 3091              	.LFE151:
 3092              		.size	usb_lld_start_in, .-usb_lld_start_in
 3093 0022 00BFAFF3 		.section	.text.usb_lld_stall_out,"ax",%progbits
 3093      0080AFF3 
 3093      0080AFF3 
 3093      0080
 3094              		.align	2
 3095              		.p2align 4,,15
 3096              		.global	usb_lld_stall_out
 3097              		.thumb
 3098              		.thumb_func
 3099              		.type	usb_lld_stall_out, %function
 3100              	usb_lld_stall_out:
 3101              	.LFB152:
 3102              		.loc 1 1308 0
 3103              		.cfi_startproc
 3104              		@ args = 0, pretend = 0, frame = 0
 3105              		@ frame_needed = 0, uses_anonymous_args = 0
 3106              		@ link register save eliminated.
ARM GAS  C:\Users\DNIEL~1\AppData\Local\Temp\cccPEDO0.s 			page 56


 3107              	.LVL292:
 3108              		.loc 1 1310 0
 3109 0000 5831     		adds	r1, r1, #88
 3110              	.LVL293:
 3111 0002 036D     		ldr	r3, [r0, #80]
 3112 0004 4901     		lsls	r1, r1, #5
 3113 0006 5858     		ldr	r0, [r3, r1]
 3114              	.LVL294:
 3115 0008 40F40012 		orr	r2, r0, #2097152
 3116 000c 5A50     		str	r2, [r3, r1]
 3117              		.loc 1 1311 0
 3118 000e 7047     		bx	lr
 3119              		.cfi_endproc
 3120              	.LFE152:
 3121              		.size	usb_lld_stall_out, .-usb_lld_stall_out
 3122              		.section	.text.usb_lld_stall_in,"ax",%progbits
 3123              		.align	2
 3124              		.p2align 4,,15
 3125              		.global	usb_lld_stall_in
 3126              		.thumb
 3127              		.thumb_func
 3128              		.type	usb_lld_stall_in, %function
 3129              	usb_lld_stall_in:
 3130              	.LFB153:
 3131              		.loc 1 1321 0
 3132              		.cfi_startproc
 3133              		@ args = 0, pretend = 0, frame = 0
 3134              		@ frame_needed = 0, uses_anonymous_args = 0
 3135              		@ link register save eliminated.
 3136              	.LVL295:
 3137              		.loc 1 1323 0
 3138 0000 4831     		adds	r1, r1, #72
 3139              	.LVL296:
 3140 0002 036D     		ldr	r3, [r0, #80]
 3141 0004 4901     		lsls	r1, r1, #5
 3142 0006 5858     		ldr	r0, [r3, r1]
 3143              	.LVL297:
 3144 0008 40F40012 		orr	r2, r0, #2097152
 3145 000c 5A50     		str	r2, [r3, r1]
 3146              		.loc 1 1324 0
 3147 000e 7047     		bx	lr
 3148              		.cfi_endproc
 3149              	.LFE153:
 3150              		.size	usb_lld_stall_in, .-usb_lld_stall_in
 3151              		.section	.text.usb_lld_clear_out,"ax",%progbits
 3152              		.align	2
 3153              		.p2align 4,,15
 3154              		.global	usb_lld_clear_out
 3155              		.thumb
 3156              		.thumb_func
 3157              		.type	usb_lld_clear_out, %function
 3158              	usb_lld_clear_out:
 3159              	.LFB154:
 3160              		.loc 1 1334 0
 3161              		.cfi_startproc
 3162              		@ args = 0, pretend = 0, frame = 0
 3163              		@ frame_needed = 0, uses_anonymous_args = 0
ARM GAS  C:\Users\DNIEL~1\AppData\Local\Temp\cccPEDO0.s 			page 57


 3164              		@ link register save eliminated.
 3165              	.LVL298:
 3166              		.loc 1 1336 0
 3167 0000 5831     		adds	r1, r1, #88
 3168              	.LVL299:
 3169 0002 036D     		ldr	r3, [r0, #80]
 3170 0004 4901     		lsls	r1, r1, #5
 3171 0006 5858     		ldr	r0, [r3, r1]
 3172              	.LVL300:
 3173 0008 20F40012 		bic	r2, r0, #2097152
 3174 000c 5A50     		str	r2, [r3, r1]
 3175              		.loc 1 1337 0
 3176 000e 7047     		bx	lr
 3177              		.cfi_endproc
 3178              	.LFE154:
 3179              		.size	usb_lld_clear_out, .-usb_lld_clear_out
 3180              		.section	.text.usb_lld_clear_in,"ax",%progbits
 3181              		.align	2
 3182              		.p2align 4,,15
 3183              		.global	usb_lld_clear_in
 3184              		.thumb
 3185              		.thumb_func
 3186              		.type	usb_lld_clear_in, %function
 3187              	usb_lld_clear_in:
 3188              	.LFB155:
 3189              		.loc 1 1347 0
 3190              		.cfi_startproc
 3191              		@ args = 0, pretend = 0, frame = 0
 3192              		@ frame_needed = 0, uses_anonymous_args = 0
 3193              		@ link register save eliminated.
 3194              	.LVL301:
 3195              		.loc 1 1349 0
 3196 0000 4831     		adds	r1, r1, #72
 3197              	.LVL302:
 3198 0002 036D     		ldr	r3, [r0, #80]
 3199 0004 4901     		lsls	r1, r1, #5
 3200 0006 5858     		ldr	r0, [r3, r1]
 3201              	.LVL303:
 3202 0008 20F40012 		bic	r2, r0, #2097152
 3203 000c 5A50     		str	r2, [r3, r1]
 3204              		.loc 1 1350 0
 3205 000e 7047     		bx	lr
 3206              		.cfi_endproc
 3207              	.LFE155:
 3208              		.size	usb_lld_clear_in, .-usb_lld_clear_in
 3209              		.global	USBD1
 3210              		.section	.rodata.fsparams,"a",%progbits
 3211              		.align	2
 3212              		.set	.LANCHOR1,. + 0
 3213              		.type	fsparams, %object
 3214              		.size	fsparams, 12
 3215              	fsparams:
 3216 0000 80000000 		.word	128
 3217 0004 40010000 		.word	320
 3218 0008 03000000 		.word	3
 3219              		.section	.bss.USBD1,"aw",%nobits
 3220              		.align	3
ARM GAS  C:\Users\DNIEL~1\AppData\Local\Temp\cccPEDO0.s 			page 58


 3221              		.set	.LANCHOR0,. + 0
 3222              		.type	USBD1, %object
 3223              		.size	USBD1, 440
 3224              	USBD1:
 3225 0000 00000000 		.space	440
 3225      00000000 
 3225      00000000 
 3225      00000000 
 3225      00000000 
 3226              		.section	.rodata.str1.4,"aMS",%progbits,1
 3227              		.align	2
 3228              	.LC0:
 3229 0000 7573625F 		.ascii	"usb_lld_pump\000"
 3229      6C6C645F 
 3229      70756D70 
 3229      00
 3230 000d 000000   		.section	.rodata.ep0config,"a",%progbits
 3231              		.align	2
 3232              		.set	.LANCHOR2,. + 0
 3233              		.type	ep0config, %object
 3234              		.size	ep0config, 36
 3235              	ep0config:
 3236 0000 00000000 		.word	0
 3237 0004 00000000 		.word	_usb_ep0setup
 3238 0008 00000000 		.word	_usb_ep0in
 3239 000c 00000000 		.word	_usb_ep0out
 3240 0010 4000     		.short	64
 3241 0012 4000     		.short	64
 3242 0014 00000000 		.word	ep0_state
 3243 0018 00000000 		.word	ep0_state
 3244 001c 0100     		.short	1
 3245 001e 0000     		.space	2
 3246 0020 00000000 		.word	ep0setup_buffer
 3247              		.section	.bss.ep0_state,"aw",%nobits
 3248              		.align	2
 3249              		.type	ep0_state, %object
 3250              		.size	ep0_state, 20
 3251              	ep0_state:
 3252 0000 00000000 		.space	20
 3252      00000000 
 3252      00000000 
 3252      00000000 
 3252      00000000 
 3253              		.section	.bss.ep0setup_buffer,"aw",%nobits
 3254              		.align	2
 3255              		.type	ep0setup_buffer, %object
 3256              		.size	ep0setup_buffer, 8
 3257              	ep0setup_buffer:
 3258 0000 00000000 		.space	8
 3258      00000000 
 3259              		.text
 3260              	.Letext0:
 3261              		.section	.debug_loc,"",%progbits
 3262              	.Ldebug_loc0:
 3263              	.LLST0:
 3264 0000 00000000 		.4byte	.LFB136
 3265 0004 04000000 		.4byte	.LCFI0
ARM GAS  C:\Users\DNIEL~1\AppData\Local\Temp\cccPEDO0.s 			page 59


 3266 0008 0200     		.2byte	0x2
 3267 000a 7D       		.byte	0x7d
 3268 000b 00       		.sleb128 0
 3269 000c 04000000 		.4byte	.LCFI0
 3270 0010 12000000 		.4byte	.LCFI1
 3271 0014 0200     		.2byte	0x2
 3272 0016 7D       		.byte	0x7d
 3273 0017 24       		.sleb128 36
 3274 0018 12000000 		.4byte	.LCFI1
 3275 001c 18050000 		.4byte	.LFE136
 3276 0020 0300     		.2byte	0x3
 3277 0022 7D       		.byte	0x7d
 3278 0023 C000     		.sleb128 64
 3279 0025 00000000 		.4byte	0x0
 3280 0029 00000000 		.4byte	0x0
 3281              	.LLST1:
 3282 002d 00000000 		.4byte	.LVL0
 3283 0031 1C000000 		.4byte	.LVL4
 3284 0035 0100     		.2byte	0x1
 3285 0037 50       		.byte	0x50
 3286 0038 1C000000 		.4byte	.LVL4
 3287 003c F6030000 		.4byte	.LVL104
 3288 0040 0100     		.2byte	0x1
 3289 0042 55       		.byte	0x55
 3290 0043 F6030000 		.4byte	.LVL104
 3291 0047 64040000 		.4byte	.LVL114
 3292 004b 0100     		.2byte	0x1
 3293 004d 5A       		.byte	0x5a
 3294 004e 64040000 		.4byte	.LVL114
 3295 0052 94040000 		.4byte	.LVL122
 3296 0056 0100     		.2byte	0x1
 3297 0058 55       		.byte	0x55
 3298 0059 94040000 		.4byte	.LVL122
 3299 005d 0C050000 		.4byte	.LVL134
 3300 0061 0100     		.2byte	0x1
 3301 0063 5A       		.byte	0x5a
 3302 0064 0C050000 		.4byte	.LVL134
 3303 0068 18050000 		.4byte	.LFE136
 3304 006c 0100     		.2byte	0x1
 3305 006e 55       		.byte	0x55
 3306 006f 00000000 		.4byte	0x0
 3307 0073 00000000 		.4byte	0x0
 3308              	.LLST2:
 3309 0077 14000000 		.4byte	.LVL1
 3310 007b 1C000000 		.4byte	.LVL4
 3311 007f 0100     		.2byte	0x1
 3312 0081 50       		.byte	0x50
 3313 0082 1C000000 		.4byte	.LVL4
 3314 0086 F6030000 		.4byte	.LVL104
 3315 008a 0100     		.2byte	0x1
 3316 008c 55       		.byte	0x55
 3317 008d F6030000 		.4byte	.LVL104
 3318 0091 64040000 		.4byte	.LVL114
 3319 0095 0100     		.2byte	0x1
 3320 0097 5A       		.byte	0x5a
 3321 0098 64040000 		.4byte	.LVL114
 3322 009c 94040000 		.4byte	.LVL122
ARM GAS  C:\Users\DNIEL~1\AppData\Local\Temp\cccPEDO0.s 			page 60


 3323 00a0 0100     		.2byte	0x1
 3324 00a2 55       		.byte	0x55
 3325 00a3 94040000 		.4byte	.LVL122
 3326 00a7 0C050000 		.4byte	.LVL134
 3327 00ab 0100     		.2byte	0x1
 3328 00ad 5A       		.byte	0x5a
 3329 00ae 0C050000 		.4byte	.LVL134
 3330 00b2 18050000 		.4byte	.LFE136
 3331 00b6 0100     		.2byte	0x1
 3332 00b8 55       		.byte	0x55
 3333 00b9 00000000 		.4byte	0x0
 3334 00bd 00000000 		.4byte	0x0
 3335              	.LLST3:
 3336 00c1 14000000 		.4byte	.LVL1
 3337 00c5 1C000000 		.4byte	.LVL4
 3338 00c9 0300     		.2byte	0x3
 3339 00cb 70       		.byte	0x70
 3340 00cc D000     		.sleb128 80
 3341 00ce 00000000 		.4byte	0x0
 3342 00d2 00000000 		.4byte	0x0
 3343              	.LLST4:
 3344 00d6 1A000000 		.4byte	.LVL3
 3345 00da 36000000 		.4byte	.LVL5
 3346 00de 0100     		.2byte	0x1
 3347 00e0 53       		.byte	0x53
 3348 00e1 48000000 		.4byte	.LVL6
 3349 00e5 4A000000 		.4byte	.LVL7
 3350 00e9 0100     		.2byte	0x1
 3351 00eb 53       		.byte	0x53
 3352 00ec 00000000 		.4byte	0x0
 3353 00f0 00000000 		.4byte	0x0
 3354              	.LLST5:
 3355 00f4 4E000000 		.4byte	.LVL8
 3356 00f8 52000000 		.4byte	.LVL9
 3357 00fc 0200     		.2byte	0x2
 3358 00fe 30       		.byte	0x30
 3359 00ff 9F       		.byte	0x9f
 3360 0100 FA000000 		.4byte	.LVL32
 3361 0104 06010000 		.4byte	.LVL34
 3362 0108 0200     		.2byte	0x2
 3363 010a 91       		.byte	0x91
 3364 010b 44       		.sleb128 -60
 3365 010c 00000000 		.4byte	0x0
 3366 0110 00000000 		.4byte	0x0
 3367              	.LLST6:
 3368 0114 E8000000 		.4byte	.LVL29
 3369 0118 EC000000 		.4byte	.LVL30
 3370 011c 0100     		.2byte	0x1
 3371 011e 59       		.byte	0x59
 3372 011f EC000000 		.4byte	.LVL30
 3373 0123 06010000 		.4byte	.LVL34
 3374 0127 0200     		.2byte	0x2
 3375 0129 91       		.byte	0x91
 3376 012a 50       		.sleb128 -48
 3377 012b A4020000 		.4byte	.LVL74
 3378 012f C8020000 		.4byte	.LVL80
 3379 0133 0100     		.2byte	0x1
ARM GAS  C:\Users\DNIEL~1\AppData\Local\Temp\cccPEDO0.s 			page 61


 3380 0135 59       		.byte	0x59
 3381 0136 C8020000 		.4byte	.LVL80
 3382 013a 18050000 		.4byte	.LFE136
 3383 013e 0200     		.2byte	0x2
 3384 0140 91       		.byte	0x91
 3385 0141 50       		.sleb128 -48
 3386 0142 00000000 		.4byte	0x0
 3387 0146 00000000 		.4byte	0x0
 3388              	.LLST7:
 3389 014a 1C000000 		.4byte	.LVL4
 3390 014e 36000000 		.4byte	.LVL5
 3391 0152 0100     		.2byte	0x1
 3392 0154 53       		.byte	0x53
 3393 0155 48000000 		.4byte	.LVL6
 3394 0159 4A000000 		.4byte	.LVL7
 3395 015d 0100     		.2byte	0x1
 3396 015f 53       		.byte	0x53
 3397 0160 04010000 		.4byte	.LVL33
 3398 0164 06010000 		.4byte	.LVL34
 3399 0168 0100     		.2byte	0x1
 3400 016a 53       		.byte	0x53
 3401 016b 00000000 		.4byte	0x0
 3402 016f 00000000 		.4byte	0x0
 3403              	.LLST8:
 3404 0173 5C000000 		.4byte	.LVL11
 3405 0177 D2000000 		.4byte	.LVL28
 3406 017b 0100     		.2byte	0x1
 3407 017d 55       		.byte	0x55
 3408 017e 06010000 		.4byte	.LVL34
 3409 0182 A4020000 		.4byte	.LVL74
 3410 0186 0100     		.2byte	0x1
 3411 0188 55       		.byte	0x55
 3412 0189 00000000 		.4byte	0x0
 3413 018d 00000000 		.4byte	0x0
 3414              	.LLST9:
 3415 0191 60000000 		.4byte	.LVL12
 3416 0195 7E000000 		.4byte	.LVL14
 3417 0199 0100     		.2byte	0x1
 3418 019b 54       		.byte	0x54
 3419 019c 06010000 		.4byte	.LVL34
 3420 01a0 14010000 		.4byte	.LVL35
 3421 01a4 0100     		.2byte	0x1
 3422 01a6 54       		.byte	0x54
 3423 01a7 00000000 		.4byte	0x0
 3424 01ab 00000000 		.4byte	0x0
 3425              	.LLST10:
 3426 01af 70000000 		.4byte	.LVL13
 3427 01b3 7E000000 		.4byte	.LVL14
 3428 01b7 0900     		.2byte	0x9
 3429 01b9 74       		.byte	0x74
 3430 01ba 00       		.sleb128 0
 3431 01bb 0A       		.byte	0xa
 3432 01bc F07F     		.2byte	0x7ff0
 3433 01be 1A       		.byte	0x1a
 3434 01bf 34       		.byte	0x34
 3435 01c0 25       		.byte	0x25
 3436 01c1 9F       		.byte	0x9f
ARM GAS  C:\Users\DNIEL~1\AppData\Local\Temp\cccPEDO0.s 			page 62


 3437 01c2 14010000 		.4byte	.LVL35
 3438 01c6 9E010000 		.4byte	.LVL47
 3439 01ca 0100     		.2byte	0x1
 3440 01cc 54       		.byte	0x54
 3441 01cd A2010000 		.4byte	.LVL48
 3442 01d1 7C020000 		.4byte	.LVL70
 3443 01d5 0100     		.2byte	0x1
 3444 01d7 54       		.byte	0x54
 3445 01d8 7C020000 		.4byte	.LVL70
 3446 01dc 90020000 		.4byte	.LVL72
 3447 01e0 0100     		.2byte	0x1
 3448 01e2 59       		.byte	0x59
 3449 01e3 90020000 		.4byte	.LVL72
 3450 01e7 A4020000 		.4byte	.LVL74
 3451 01eb 0100     		.2byte	0x1
 3452 01ed 54       		.byte	0x54
 3453 01ee 00000000 		.4byte	0x0
 3454 01f2 00000000 		.4byte	0x0
 3455              	.LLST11:
 3456 01f6 70000000 		.4byte	.LVL13
 3457 01fa 7E000000 		.4byte	.LVL14
 3458 01fe 0500     		.2byte	0x5
 3459 0200 74       		.byte	0x74
 3460 0201 00       		.sleb128 0
 3461 0202 3F       		.byte	0x3f
 3462 0203 1A       		.byte	0x1a
 3463 0204 9F       		.byte	0x9f
 3464 0205 7E000000 		.4byte	.LVL14
 3465 0209 D2000000 		.4byte	.LVL28
 3466 020d 0100     		.2byte	0x1
 3467 020f 5A       		.byte	0x5a
 3468 0210 00000000 		.4byte	0x0
 3469 0214 00000000 		.4byte	0x0
 3470              	.LLST12:
 3471 0218 8A000000 		.4byte	.LVL15
 3472 021c 9C000000 		.4byte	.LVL18
 3473 0220 0200     		.2byte	0x2
 3474 0222 32       		.byte	0x32
 3475 0223 9F       		.byte	0x9f
 3476 0224 9C000000 		.4byte	.LVL18
 3477 0228 A6000000 		.4byte	.LVL19
 3478 022c 0100     		.2byte	0x1
 3479 022e 53       		.byte	0x53
 3480 022f A6000000 		.4byte	.LVL19
 3481 0233 AC000000 		.4byte	.LVL20
 3482 0237 0200     		.2byte	0x2
 3483 0239 31       		.byte	0x31
 3484 023a 9F       		.byte	0x9f
 3485 023b AC000000 		.4byte	.LVL20
 3486 023f AE000000 		.4byte	.LVL21
 3487 0243 0100     		.2byte	0x1
 3488 0245 56       		.byte	0x56
 3489 0246 AE000000 		.4byte	.LVL21
 3490 024a B8000000 		.4byte	.LVL23
 3491 024e 0100     		.2byte	0x1
 3492 0250 53       		.byte	0x53
 3493 0251 B8000000 		.4byte	.LVL23
ARM GAS  C:\Users\DNIEL~1\AppData\Local\Temp\cccPEDO0.s 			page 63


 3494 0255 C4000000 		.4byte	.LVL25
 3495 0259 0100     		.2byte	0x1
 3496 025b 53       		.byte	0x53
 3497 025c C4000000 		.4byte	.LVL25
 3498 0260 CC000000 		.4byte	.LVL26
 3499 0264 0100     		.2byte	0x1
 3500 0266 53       		.byte	0x53
 3501 0267 00000000 		.4byte	0x0
 3502 026b 00000000 		.4byte	0x0
 3503              	.LLST13:
 3504 026f 8A000000 		.4byte	.LVL15
 3505 0273 96000000 		.4byte	.LVL17
 3506 0277 0500     		.2byte	0x5
 3507 0279 79       		.byte	0x79
 3508 027a 0C       		.sleb128 12
 3509 027b 06       		.byte	0x6
 3510 027c 23       		.byte	0x23
 3511 027d 20       		.uleb128 0x20
 3512 027e 96000000 		.4byte	.LVL17
 3513 0282 AC000000 		.4byte	.LVL20
 3514 0286 0100     		.2byte	0x1
 3515 0288 52       		.byte	0x52
 3516 0289 AC000000 		.4byte	.LVL20
 3517 028d B6000000 		.4byte	.LVL22
 3518 0291 0100     		.2byte	0x1
 3519 0293 52       		.byte	0x52
 3520 0294 B6000000 		.4byte	.LVL22
 3521 0298 C2000000 		.4byte	.LVL24
 3522 029c 0100     		.2byte	0x1
 3523 029e 52       		.byte	0x52
 3524 029f C2000000 		.4byte	.LVL24
 3525 02a3 D0000000 		.4byte	.LVL27
 3526 02a7 0100     		.2byte	0x1
 3527 02a9 52       		.byte	0x52
 3528 02aa 00000000 		.4byte	0x0
 3529 02ae 00000000 		.4byte	0x0
 3530              	.LLST14:
 3531 02b2 8A000000 		.4byte	.LVL15
 3532 02b6 D2000000 		.4byte	.LVL28
 3533 02ba 0100     		.2byte	0x1
 3534 02bc 51       		.byte	0x51
 3535 02bd 00000000 		.4byte	0x0
 3536 02c1 00000000 		.4byte	0x0
 3537              	.LLST15:
 3538 02c5 90000000 		.4byte	.LVL16
 3539 02c9 9C000000 		.4byte	.LVL18
 3540 02cd 0100     		.2byte	0x1
 3541 02cf 53       		.byte	0x53
 3542 02d0 00000000 		.4byte	0x0
 3543 02d4 00000000 		.4byte	0x0
 3544              	.LLST16:
 3545 02d8 54010000 		.4byte	.LVL38
 3546 02dc 74010000 		.4byte	.LVL41
 3547 02e0 0100     		.2byte	0x1
 3548 02e2 53       		.byte	0x53
 3549 02e3 74010000 		.4byte	.LVL41
 3550 02e7 84010000 		.4byte	.LVL43
ARM GAS  C:\Users\DNIEL~1\AppData\Local\Temp\cccPEDO0.s 			page 64


 3551 02eb 0100     		.2byte	0x1
 3552 02ed 53       		.byte	0x53
 3553 02ee 84010000 		.4byte	.LVL43
 3554 02f2 8A010000 		.4byte	.LVL44
 3555 02f6 0100     		.2byte	0x1
 3556 02f8 53       		.byte	0x53
 3557 02f9 00000000 		.4byte	0x0
 3558 02fd 00000000 		.4byte	0x0
 3559              	.LLST17:
 3560 0301 34010000 		.4byte	.LVL36
 3561 0305 54010000 		.4byte	.LVL38
 3562 0309 0100     		.2byte	0x1
 3563 030b 5E       		.byte	0x5e
 3564 030c 00000000 		.4byte	0x0
 3565 0310 00000000 		.4byte	0x0
 3566              	.LLST18:
 3567 0314 34010000 		.4byte	.LVL36
 3568 0318 54010000 		.4byte	.LVL38
 3569 031c 0100     		.2byte	0x1
 3570 031e 5C       		.byte	0x5c
 3571 031f 54010000 		.4byte	.LVL38
 3572 0323 72010000 		.4byte	.LVL40
 3573 0327 0100     		.2byte	0x1
 3574 0329 52       		.byte	0x52
 3575 032a 72010000 		.4byte	.LVL40
 3576 032e 82010000 		.4byte	.LVL42
 3577 0332 0100     		.2byte	0x1
 3578 0334 52       		.byte	0x52
 3579 0335 82010000 		.4byte	.LVL42
 3580 0339 8A010000 		.4byte	.LVL44
 3581 033d 0100     		.2byte	0x1
 3582 033f 52       		.byte	0x52
 3583 0340 00000000 		.4byte	0x0
 3584 0344 00000000 		.4byte	0x0
 3585              	.LLST19:
 3586 0348 34010000 		.4byte	.LVL36
 3587 034c 8E010000 		.4byte	.LVL45
 3588 0350 0100     		.2byte	0x1
 3589 0352 51       		.byte	0x51
 3590 0353 00000000 		.4byte	0x0
 3591 0357 00000000 		.4byte	0x0
 3592              	.LLST20:
 3593 035b 44010000 		.4byte	.LVL37
 3594 035f 64010000 		.4byte	.LVL39
 3595 0363 0100     		.2byte	0x1
 3596 0365 5A       		.byte	0x5a
 3597 0366 00000000 		.4byte	0x0
 3598 036a 00000000 		.4byte	0x0
 3599              	.LLST21:
 3600 036e AA010000 		.4byte	.LVL49
 3601 0372 7C020000 		.4byte	.LVL70
 3602 0376 0100     		.2byte	0x1
 3603 0378 54       		.byte	0x54
 3604 0379 7C020000 		.4byte	.LVL70
 3605 037d 90020000 		.4byte	.LVL72
 3606 0381 0100     		.2byte	0x1
 3607 0383 59       		.byte	0x59
ARM GAS  C:\Users\DNIEL~1\AppData\Local\Temp\cccPEDO0.s 			page 65


 3608 0384 90020000 		.4byte	.LVL72
 3609 0388 A4020000 		.4byte	.LVL74
 3610 038c 0100     		.2byte	0x1
 3611 038e 54       		.byte	0x54
 3612 038f 00000000 		.4byte	0x0
 3613 0393 00000000 		.4byte	0x0
 3614              	.LLST22:
 3615 0397 AA010000 		.4byte	.LVL49
 3616 039b B4010000 		.4byte	.LVL50
 3617 039f 0200     		.2byte	0x2
 3618 03a1 70       		.byte	0x70
 3619 03a2 0C       		.sleb128 12
 3620 03a3 B4010000 		.4byte	.LVL50
 3621 03a7 7A020000 		.4byte	.LVL69
 3622 03ab 0100     		.2byte	0x1
 3623 03ad 59       		.byte	0x59
 3624 03ae 7A020000 		.4byte	.LVL69
 3625 03b2 7C020000 		.4byte	.LVL70
 3626 03b6 0100     		.2byte	0x1
 3627 03b8 5C       		.byte	0x5c
 3628 03b9 7C020000 		.4byte	.LVL70
 3629 03bd 90020000 		.4byte	.LVL72
 3630 03c1 0100     		.2byte	0x1
 3631 03c3 54       		.byte	0x54
 3632 03c4 00000000 		.4byte	0x0
 3633 03c8 00000000 		.4byte	0x0
 3634              	.LLST23:
 3635 03cc AA010000 		.4byte	.LVL49
 3636 03d0 6E020000 		.4byte	.LVL68
 3637 03d4 0100     		.2byte	0x1
 3638 03d6 51       		.byte	0x51
 3639 03d7 00000000 		.4byte	0x0
 3640 03db 00000000 		.4byte	0x0
 3641              	.LLST24:
 3642 03df AA010000 		.4byte	.LVL49
 3643 03e3 B4010000 		.4byte	.LVL50
 3644 03e7 0100     		.2byte	0x1
 3645 03e9 54       		.byte	0x54
 3646 03ea B4010000 		.4byte	.LVL50
 3647 03ee D2010000 		.4byte	.LVL55
 3648 03f2 0100     		.2byte	0x1
 3649 03f4 50       		.byte	0x50
 3650 03f5 D2010000 		.4byte	.LVL55
 3651 03f9 EC010000 		.4byte	.LVL56
 3652 03fd 0300     		.2byte	0x3
 3653 03ff 70       		.byte	0x70
 3654 0400 7F       		.sleb128 -1
 3655 0401 9F       		.byte	0x9f
 3656 0402 EC010000 		.4byte	.LVL56
 3657 0406 EE010000 		.4byte	.LVL57
 3658 040a 0100     		.2byte	0x1
 3659 040c 50       		.byte	0x50
 3660 040d EE010000 		.4byte	.LVL57
 3661 0411 10020000 		.4byte	.LVL58
 3662 0415 0300     		.2byte	0x3
 3663 0417 70       		.byte	0x70
 3664 0418 7F       		.sleb128 -1
ARM GAS  C:\Users\DNIEL~1\AppData\Local\Temp\cccPEDO0.s 			page 66


 3665 0419 9F       		.byte	0x9f
 3666 041a 10020000 		.4byte	.LVL58
 3667 041e 12020000 		.4byte	.LVL59
 3668 0422 0100     		.2byte	0x1
 3669 0424 50       		.byte	0x50
 3670 0425 12020000 		.4byte	.LVL59
 3671 0429 34020000 		.4byte	.LVL60
 3672 042d 0300     		.2byte	0x3
 3673 042f 70       		.byte	0x70
 3674 0430 7F       		.sleb128 -1
 3675 0431 9F       		.byte	0x9f
 3676 0432 34020000 		.4byte	.LVL60
 3677 0436 36020000 		.4byte	.LVL61
 3678 043a 0100     		.2byte	0x1
 3679 043c 50       		.byte	0x50
 3680 043d 36020000 		.4byte	.LVL61
 3681 0441 56020000 		.4byte	.LVL63
 3682 0445 0300     		.2byte	0x3
 3683 0447 70       		.byte	0x70
 3684 0448 7F       		.sleb128 -1
 3685 0449 9F       		.byte	0x9f
 3686 044a 56020000 		.4byte	.LVL63
 3687 044e 5E020000 		.4byte	.LVL64
 3688 0452 0100     		.2byte	0x1
 3689 0454 50       		.byte	0x50
 3690 0455 00000000 		.4byte	0x0
 3691 0459 00000000 		.4byte	0x0
 3692              	.LLST25:
 3693 045d D2010000 		.4byte	.LVL55
 3694 0461 3C020000 		.4byte	.LVL62
 3695 0465 0100     		.2byte	0x1
 3696 0467 52       		.byte	0x52
 3697 0468 00000000 		.4byte	0x0
 3698 046c 00000000 		.4byte	0x0
 3699              	.LLST26:
 3700 0470 D2010000 		.4byte	.LVL55
 3701 0474 EE010000 		.4byte	.LVL57
 3702 0478 0200     		.2byte	0x2
 3703 047a 31       		.byte	0x31
 3704 047b 9F       		.byte	0x9f
 3705 047c EE010000 		.4byte	.LVL57
 3706 0480 12020000 		.4byte	.LVL59
 3707 0484 0200     		.2byte	0x2
 3708 0486 32       		.byte	0x32
 3709 0487 9F       		.byte	0x9f
 3710 0488 12020000 		.4byte	.LVL59
 3711 048c 36020000 		.4byte	.LVL61
 3712 0490 0200     		.2byte	0x2
 3713 0492 33       		.byte	0x33
 3714 0493 9F       		.byte	0x9f
 3715 0494 36020000 		.4byte	.LVL61
 3716 0498 5E020000 		.4byte	.LVL64
 3717 049c 0200     		.2byte	0x2
 3718 049e 34       		.byte	0x34
 3719 049f 9F       		.byte	0x9f
 3720 04a0 00000000 		.4byte	0x0
 3721 04a4 00000000 		.4byte	0x0
ARM GAS  C:\Users\DNIEL~1\AppData\Local\Temp\cccPEDO0.s 			page 67


 3722              	.LLST27:
 3723 04a8 B4010000 		.4byte	.LVL50
 3724 04ac B8010000 		.4byte	.LVL51
 3725 04b0 0500     		.2byte	0x5
 3726 04b2 70       		.byte	0x70
 3727 04b3 00       		.sleb128 0
 3728 04b4 32       		.byte	0x32
 3729 04b5 25       		.byte	0x25
 3730 04b6 9F       		.byte	0x9f
 3731 04b7 CA010000 		.4byte	.LVL53
 3732 04bb CC010000 		.4byte	.LVL54
 3733 04bf 0500     		.2byte	0x5
 3734 04c1 70       		.byte	0x70
 3735 04c2 00       		.sleb128 0
 3736 04c3 32       		.byte	0x32
 3737 04c4 25       		.byte	0x25
 3738 04c5 9F       		.byte	0x9f
 3739 04c6 00000000 		.4byte	0x0
 3740 04ca 00000000 		.4byte	0x0
 3741              	.LLST28:
 3742 04ce B8010000 		.4byte	.LVL51
 3743 04d2 CC010000 		.4byte	.LVL54
 3744 04d6 0200     		.2byte	0x2
 3745 04d8 30       		.byte	0x30
 3746 04d9 9F       		.byte	0x9f
 3747 04da 00000000 		.4byte	0x0
 3748 04de 00000000 		.4byte	0x0
 3749              	.LLST29:
 3750 04e2 B8010000 		.4byte	.LVL51
 3751 04e6 CC010000 		.4byte	.LVL54
 3752 04ea 0200     		.2byte	0x2
 3753 04ec 30       		.byte	0x30
 3754 04ed 9F       		.byte	0x9f
 3755 04ee 00000000 		.4byte	0x0
 3756 04f2 00000000 		.4byte	0x0
 3757              	.LLST30:
 3758 04f6 64020000 		.4byte	.LVL66
 3759 04fa 68020000 		.4byte	.LVL67
 3760 04fe 0100     		.2byte	0x1
 3761 0500 53       		.byte	0x53
 3762 0501 00000000 		.4byte	0x0
 3763 0505 00000000 		.4byte	0x0
 3764              	.LLST31:
 3765 0509 7C020000 		.4byte	.LVL70
 3766 050d 90020000 		.4byte	.LVL72
 3767 0511 0100     		.2byte	0x1
 3768 0513 54       		.byte	0x54
 3769 0514 00000000 		.4byte	0x0
 3770 0518 00000000 		.4byte	0x0
 3771              	.LLST32:
 3772 051c 7C020000 		.4byte	.LVL70
 3773 0520 85020000 		.4byte	.LVL71-1
 3774 0524 0100     		.2byte	0x1
 3775 0526 50       		.byte	0x50
 3776 0527 00000000 		.4byte	0x0
 3777 052b 00000000 		.4byte	0x0
 3778              	.LLST33:
ARM GAS  C:\Users\DNIEL~1\AppData\Local\Temp\cccPEDO0.s 			page 68


 3779 052f 52000000 		.4byte	.LVL9
 3780 0533 56000000 		.4byte	.LVL10
 3781 0537 0100     		.2byte	0x1
 3782 0539 53       		.byte	0x53
 3783 053a 90010000 		.4byte	.LVL46
 3784 053e A2010000 		.4byte	.LVL48
 3785 0542 0100     		.2byte	0x1
 3786 0544 53       		.byte	0x53
 3787 0545 9A020000 		.4byte	.LVL73
 3788 0549 A4020000 		.4byte	.LVL74
 3789 054d 0100     		.2byte	0x1
 3790 054f 53       		.byte	0x53
 3791 0550 00000000 		.4byte	0x0
 3792 0554 00000000 		.4byte	0x0
 3793              	.LLST34:
 3794 0558 1C000000 		.4byte	.LVL4
 3795 055c 4A000000 		.4byte	.LVL7
 3796 0560 0100     		.2byte	0x1
 3797 0562 56       		.byte	0x56
 3798 0563 4E000000 		.4byte	.LVL8
 3799 0567 52000000 		.4byte	.LVL9
 3800 056b 0100     		.2byte	0x1
 3801 056d 53       		.byte	0x53
 3802 056e 52000000 		.4byte	.LVL9
 3803 0572 18050000 		.4byte	.LFE136
 3804 0576 0100     		.2byte	0x1
 3805 0578 56       		.byte	0x56
 3806 0579 00000000 		.4byte	0x0
 3807 057d 00000000 		.4byte	0x0
 3808              	.LLST35:
 3809 0581 AA020000 		.4byte	.LVL76
 3810 0585 AE020000 		.4byte	.LVL77
 3811 0589 0100     		.2byte	0x1
 3812 058b 53       		.byte	0x53
 3813 058c 00000000 		.4byte	0x0
 3814 0590 00000000 		.4byte	0x0
 3815              	.LLST36:
 3816 0594 C4020000 		.4byte	.LVL79
 3817 0598 E8020000 		.4byte	.LVL81
 3818 059c 0100     		.2byte	0x1
 3819 059e 53       		.byte	0x53
 3820 059f B4030000 		.4byte	.LVL97
 3821 05a3 B6030000 		.4byte	.LVL98
 3822 05a7 0100     		.2byte	0x1
 3823 05a9 53       		.byte	0x53
 3824 05aa 14050000 		.4byte	.LVL135
 3825 05ae 18050000 		.4byte	.LFE136
 3826 05b2 0100     		.2byte	0x1
 3827 05b4 53       		.byte	0x53
 3828 05b5 00000000 		.4byte	0x0
 3829 05b9 00000000 		.4byte	0x0
 3830              	.LLST37:
 3831 05bd C4020000 		.4byte	.LVL79
 3832 05c1 F6030000 		.4byte	.LVL104
 3833 05c5 0100     		.2byte	0x1
 3834 05c7 55       		.byte	0x55
 3835 05c8 F6030000 		.4byte	.LVL104
ARM GAS  C:\Users\DNIEL~1\AppData\Local\Temp\cccPEDO0.s 			page 69


 3836 05cc 64040000 		.4byte	.LVL114
 3837 05d0 0100     		.2byte	0x1
 3838 05d2 5A       		.byte	0x5a
 3839 05d3 64040000 		.4byte	.LVL114
 3840 05d7 94040000 		.4byte	.LVL122
 3841 05db 0100     		.2byte	0x1
 3842 05dd 55       		.byte	0x55
 3843 05de 94040000 		.4byte	.LVL122
 3844 05e2 0C050000 		.4byte	.LVL134
 3845 05e6 0100     		.2byte	0x1
 3846 05e8 5A       		.byte	0x5a
 3847 05e9 0C050000 		.4byte	.LVL134
 3848 05ed 18050000 		.4byte	.LFE136
 3849 05f1 0100     		.2byte	0x1
 3850 05f3 55       		.byte	0x55
 3851 05f4 00000000 		.4byte	0x0
 3852 05f8 00000000 		.4byte	0x0
 3853              	.LLST38:
 3854 05fc F6020000 		.4byte	.LVL82
 3855 0600 04030000 		.4byte	.LVL83
 3856 0604 0100     		.2byte	0x1
 3857 0606 57       		.byte	0x57
 3858 0607 04030000 		.4byte	.LVL83
 3859 060b 34030000 		.4byte	.LVL85
 3860 060f 0100     		.2byte	0x1
 3861 0611 57       		.byte	0x57
 3862 0612 5E030000 		.4byte	.LVL89
 3863 0616 9C030000 		.4byte	.LVL95
 3864 061a 0100     		.2byte	0x1
 3865 061c 57       		.byte	0x57
 3866 061d 9C030000 		.4byte	.LVL95
 3867 0621 A6030000 		.4byte	.LVL96
 3868 0625 0100     		.2byte	0x1
 3869 0627 57       		.byte	0x57
 3870 0628 A6030000 		.4byte	.LVL96
 3871 062c B4030000 		.4byte	.LVL97
 3872 0630 0100     		.2byte	0x1
 3873 0632 57       		.byte	0x57
 3874 0633 DE030000 		.4byte	.LVL102
 3875 0637 F6030000 		.4byte	.LVL104
 3876 063b 0100     		.2byte	0x1
 3877 063d 57       		.byte	0x57
 3878 063e F6030000 		.4byte	.LVL104
 3879 0642 64040000 		.4byte	.LVL114
 3880 0646 0100     		.2byte	0x1
 3881 0648 5B       		.byte	0x5b
 3882 0649 64040000 		.4byte	.LVL114
 3883 064d 94040000 		.4byte	.LVL122
 3884 0651 0100     		.2byte	0x1
 3885 0653 57       		.byte	0x57
 3886 0654 94040000 		.4byte	.LVL122
 3887 0658 0C050000 		.4byte	.LVL134
 3888 065c 0100     		.2byte	0x1
 3889 065e 5B       		.byte	0x5b
 3890 065f 0C050000 		.4byte	.LVL134
 3891 0663 14050000 		.4byte	.LVL135
 3892 0667 0100     		.2byte	0x1
ARM GAS  C:\Users\DNIEL~1\AppData\Local\Temp\cccPEDO0.s 			page 70


 3893 0669 57       		.byte	0x57
 3894 066a 00000000 		.4byte	0x0
 3895 066e 00000000 		.4byte	0x0
 3896              	.LLST39:
 3897 0672 32030000 		.4byte	.LVL84
 3898 0676 7A030000 		.4byte	.LVL93
 3899 067a 0100     		.2byte	0x1
 3900 067c 57       		.byte	0x57
 3901 067d 00000000 		.4byte	0x0
 3902 0681 00000000 		.4byte	0x0
 3903              	.LLST40:
 3904 0685 32030000 		.4byte	.LVL84
 3905 0689 60030000 		.4byte	.LVL90
 3906 068d 0200     		.2byte	0x2
 3907 068f 71       		.byte	0x71
 3908 0690 0C       		.sleb128 12
 3909 0691 60030000 		.4byte	.LVL90
 3910 0695 76030000 		.4byte	.LVL91
 3911 0699 0200     		.2byte	0x2
 3912 069b 7C       		.byte	0x7c
 3913 069c 0C       		.sleb128 12
 3914 069d 76030000 		.4byte	.LVL91
 3915 06a1 7A030000 		.4byte	.LVL93
 3916 06a5 0200     		.2byte	0x2
 3917 06a7 71       		.byte	0x71
 3918 06a8 0C       		.sleb128 12
 3919 06a9 00000000 		.4byte	0x0
 3920 06ad 00000000 		.4byte	0x0
 3921              	.LLST41:
 3922 06b1 32030000 		.4byte	.LVL84
 3923 06b5 78030000 		.4byte	.LVL92
 3924 06b9 0100     		.2byte	0x1
 3925 06bb 50       		.byte	0x50
 3926 06bc 00000000 		.4byte	0x0
 3927 06c0 00000000 		.4byte	0x0
 3928              	.LLST42:
 3929 06c4 32030000 		.4byte	.LVL84
 3930 06c8 44030000 		.4byte	.LVL86
 3931 06cc 0100     		.2byte	0x1
 3932 06ce 5C       		.byte	0x5c
 3933 06cf 44030000 		.4byte	.LVL86
 3934 06d3 48030000 		.4byte	.LVL87
 3935 06d7 0300     		.2byte	0x3
 3936 06d9 7A       		.byte	0x7a
 3937 06da 01       		.sleb128 1
 3938 06db 9F       		.byte	0x9f
 3939 06dc 00000000 		.4byte	0x0
 3940 06e0 00000000 		.4byte	0x0
 3941              	.LLST43:
 3942 06e4 32030000 		.4byte	.LVL84
 3943 06e8 56030000 		.4byte	.LVL88
 3944 06ec 0200     		.2byte	0x2
 3945 06ee 71       		.byte	0x71
 3946 06ef 0C       		.sleb128 12
 3947 06f0 00000000 		.4byte	0x0
 3948 06f4 00000000 		.4byte	0x0
 3949              	.LLST44:
ARM GAS  C:\Users\DNIEL~1\AppData\Local\Temp\cccPEDO0.s 			page 71


 3950 06f8 32030000 		.4byte	.LVL84
 3951 06fc 78030000 		.4byte	.LVL92
 3952 0700 0100     		.2byte	0x1
 3953 0702 50       		.byte	0x50
 3954 0703 00000000 		.4byte	0x0
 3955 0707 00000000 		.4byte	0x0
 3956              	.LLST45:
 3957 070b E8030000 		.4byte	.LVL103
 3958 070f F6030000 		.4byte	.LVL104
 3959 0713 0100     		.2byte	0x1
 3960 0715 57       		.byte	0x57
 3961 0716 F6030000 		.4byte	.LVL104
 3962 071a 64040000 		.4byte	.LVL114
 3963 071e 0100     		.2byte	0x1
 3964 0720 5B       		.byte	0x5b
 3965 0721 64040000 		.4byte	.LVL114
 3966 0725 94040000 		.4byte	.LVL122
 3967 0729 0100     		.2byte	0x1
 3968 072b 57       		.byte	0x57
 3969 072c 94040000 		.4byte	.LVL122
 3970 0730 0C050000 		.4byte	.LVL134
 3971 0734 0100     		.2byte	0x1
 3972 0736 5B       		.byte	0x5b
 3973 0737 00000000 		.4byte	0x0
 3974 073b 00000000 		.4byte	0x0
 3975              	.LLST46:
 3976 073f E8030000 		.4byte	.LVL103
 3977 0743 F6030000 		.4byte	.LVL104
 3978 0747 0200     		.2byte	0x2
 3979 0749 71       		.byte	0x71
 3980 074a 0C       		.sleb128 12
 3981 074b F6030000 		.4byte	.LVL104
 3982 074f 0C050000 		.4byte	.LVL134
 3983 0753 0100     		.2byte	0x1
 3984 0755 54       		.byte	0x54
 3985 0756 00000000 		.4byte	0x0
 3986 075a 00000000 		.4byte	0x0
 3987              	.LLST47:
 3988 075e E8030000 		.4byte	.LVL103
 3989 0762 76040000 		.4byte	.LVL118
 3990 0766 0100     		.2byte	0x1
 3991 0768 5E       		.byte	0x5e
 3992 0769 94040000 		.4byte	.LVL122
 3993 076d 0C050000 		.4byte	.LVL134
 3994 0771 0100     		.2byte	0x1
 3995 0773 5E       		.byte	0x5e
 3996 0774 00000000 		.4byte	0x0
 3997 0778 00000000 		.4byte	0x0
 3998              	.LLST48:
 3999 077c E8030000 		.4byte	.LVL103
 4000 0780 F6030000 		.4byte	.LVL104
 4001 0784 0100     		.2byte	0x1
 4002 0786 57       		.byte	0x57
 4003 0787 F6030000 		.4byte	.LVL104
 4004 078b 00040000 		.4byte	.LVL106
 4005 078f 0100     		.2byte	0x1
 4006 0791 50       		.byte	0x50
ARM GAS  C:\Users\DNIEL~1\AppData\Local\Temp\cccPEDO0.s 			page 72


 4007 0792 00040000 		.4byte	.LVL106
 4008 0796 0E040000 		.4byte	.LVL107
 4009 079a 0300     		.2byte	0x3
 4010 079c 70       		.byte	0x70
 4011 079d 7F       		.sleb128 -1
 4012 079e 9F       		.byte	0x9f
 4013 079f 0E040000 		.4byte	.LVL107
 4014 07a3 22040000 		.4byte	.LVL108
 4015 07a7 0100     		.2byte	0x1
 4016 07a9 50       		.byte	0x50
 4017 07aa 22040000 		.4byte	.LVL108
 4018 07ae 26040000 		.4byte	.LVL109
 4019 07b2 0300     		.2byte	0x3
 4020 07b4 70       		.byte	0x70
 4021 07b5 01       		.sleb128 1
 4022 07b6 9F       		.byte	0x9f
 4023 07b7 5C040000 		.4byte	.LVL112
 4024 07bb 64040000 		.4byte	.LVL114
 4025 07bf 0100     		.2byte	0x1
 4026 07c1 50       		.byte	0x50
 4027 07c2 9C040000 		.4byte	.LVL123
 4028 07c6 B6040000 		.4byte	.LVL126
 4029 07ca 0100     		.2byte	0x1
 4030 07cc 50       		.byte	0x50
 4031 07cd B6040000 		.4byte	.LVL126
 4032 07d1 0C050000 		.4byte	.LVL134
 4033 07d5 0100     		.2byte	0x1
 4034 07d7 50       		.byte	0x50
 4035 07d8 00000000 		.4byte	0x0
 4036 07dc 00000000 		.4byte	0x0
 4037              	.LLST49:
 4038 07e0 FC030000 		.4byte	.LVL105
 4039 07e4 00040000 		.4byte	.LVL106
 4040 07e8 0200     		.2byte	0x2
 4041 07ea 30       		.byte	0x30
 4042 07eb 9F       		.byte	0x9f
 4043 07ec 00040000 		.4byte	.LVL106
 4044 07f0 26040000 		.4byte	.LVL109
 4045 07f4 0100     		.2byte	0x1
 4046 07f6 53       		.byte	0x53
 4047 07f7 26040000 		.4byte	.LVL109
 4048 07fb 3E040000 		.4byte	.LVL110
 4049 07ff 0100     		.2byte	0x1
 4050 0801 53       		.byte	0x53
 4051 0802 3E040000 		.4byte	.LVL110
 4052 0806 56040000 		.4byte	.LVL111
 4053 080a 0100     		.2byte	0x1
 4054 080c 53       		.byte	0x53
 4055 080d 56040000 		.4byte	.LVL111
 4056 0811 60040000 		.4byte	.LVL113
 4057 0815 0100     		.2byte	0x1
 4058 0817 53       		.byte	0x53
 4059 0818 94040000 		.4byte	.LVL122
 4060 081c 9C040000 		.4byte	.LVL123
 4061 0820 0100     		.2byte	0x1
 4062 0822 53       		.byte	0x53
 4063 0823 00000000 		.4byte	0x0
ARM GAS  C:\Users\DNIEL~1\AppData\Local\Temp\cccPEDO0.s 			page 73


 4064 0827 00000000 		.4byte	0x0
 4065              	.LLST50:
 4066 082b FC030000 		.4byte	.LVL105
 4067 082f 00040000 		.4byte	.LVL106
 4068 0833 0200     		.2byte	0x2
 4069 0835 30       		.byte	0x30
 4070 0836 9F       		.byte	0x9f
 4071 0837 00040000 		.4byte	.LVL106
 4072 083b 26040000 		.4byte	.LVL109
 4073 083f 0200     		.2byte	0x2
 4074 0841 31       		.byte	0x31
 4075 0842 9F       		.byte	0x9f
 4076 0843 26040000 		.4byte	.LVL109
 4077 0847 3E040000 		.4byte	.LVL110
 4078 084b 0200     		.2byte	0x2
 4079 084d 32       		.byte	0x32
 4080 084e 9F       		.byte	0x9f
 4081 084f 3E040000 		.4byte	.LVL110
 4082 0853 56040000 		.4byte	.LVL111
 4083 0857 0200     		.2byte	0x2
 4084 0859 33       		.byte	0x33
 4085 085a 9F       		.byte	0x9f
 4086 085b 56040000 		.4byte	.LVL111
 4087 085f 5C040000 		.4byte	.LVL112
 4088 0863 0200     		.2byte	0x2
 4089 0865 34       		.byte	0x34
 4090 0866 9F       		.byte	0x9f
 4091 0867 00000000 		.4byte	0x0
 4092 086b 00000000 		.4byte	0x0
 4093              	.LLST51:
 4094 086f F6030000 		.4byte	.LVL104
 4095 0873 FC030000 		.4byte	.LVL105
 4096 0877 0500     		.2byte	0x5
 4097 0879 70       		.byte	0x70
 4098 087a 00       		.sleb128 0
 4099 087b 32       		.byte	0x32
 4100 087c 25       		.byte	0x25
 4101 087d 9F       		.byte	0x9f
 4102 087e 9C040000 		.4byte	.LVL123
 4103 0882 BA040000 		.4byte	.LVL127
 4104 0886 0100     		.2byte	0x1
 4105 0888 53       		.byte	0x53
 4106 0889 00000000 		.4byte	0x0
 4107 088d 00000000 		.4byte	0x0
 4108              	.LLST52:
 4109 0891 AE040000 		.4byte	.LVL125
 4110 0895 BC040000 		.4byte	.LVL128
 4111 0899 0100     		.2byte	0x1
 4112 089b 51       		.byte	0x51
 4113 089c BC040000 		.4byte	.LVL128
 4114 08a0 CA040000 		.4byte	.LVL130
 4115 08a4 0300     		.2byte	0x3
 4116 08a6 71       		.byte	0x71
 4117 08a7 01       		.sleb128 1
 4118 08a8 9F       		.byte	0x9f
 4119 08a9 CA040000 		.4byte	.LVL130
 4120 08ad D4040000 		.4byte	.LVL131
ARM GAS  C:\Users\DNIEL~1\AppData\Local\Temp\cccPEDO0.s 			page 74


 4121 08b1 0300     		.2byte	0x3
 4122 08b3 72       		.byte	0x72
 4123 08b4 01       		.sleb128 1
 4124 08b5 9F       		.byte	0x9f
 4125 08b6 D4040000 		.4byte	.LVL131
 4126 08ba DA040000 		.4byte	.LVL133
 4127 08be 0300     		.2byte	0x3
 4128 08c0 72       		.byte	0x72
 4129 08c1 02       		.sleb128 2
 4130 08c2 9F       		.byte	0x9f
 4131 08c3 00000000 		.4byte	0x0
 4132 08c7 00000000 		.4byte	0x0
 4133              	.LLST53:
 4134 08cb 9E040000 		.4byte	.LVL124
 4135 08cf 0C050000 		.4byte	.LVL134
 4136 08d3 0900     		.2byte	0x9
 4137 08d5 79       		.byte	0x79
 4138 08d6 00       		.sleb128 0
 4139 08d7 74       		.byte	0x74
 4140 08d8 18       		.sleb128 24
 4141 08d9 06       		.byte	0x6
 4142 08da 1C       		.byte	0x1c
 4143 08db 34       		.byte	0x34
 4144 08dc 1B       		.byte	0x1b
 4145 08dd 9F       		.byte	0x9f
 4146 08de 00000000 		.4byte	0x0
 4147 08e2 00000000 		.4byte	0x0
 4148              	.LLST54:
 4149 08e6 B6040000 		.4byte	.LVL126
 4150 08ea D8040000 		.4byte	.LVL132
 4151 08ee 0200     		.2byte	0x2
 4152 08f0 74       		.byte	0x74
 4153 08f1 18       		.sleb128 24
 4154 08f2 00000000 		.4byte	0x0
 4155 08f6 00000000 		.4byte	0x0
 4156              	.LLST55:
 4157 08fa B6040000 		.4byte	.LVL126
 4158 08fe BC040000 		.4byte	.LVL128
 4159 0902 0100     		.2byte	0x1
 4160 0904 51       		.byte	0x51
 4161 0905 BC040000 		.4byte	.LVL128
 4162 0909 C6040000 		.4byte	.LVL129
 4163 090d 0300     		.2byte	0x3
 4164 090f 71       		.byte	0x71
 4165 0910 01       		.sleb128 1
 4166 0911 9F       		.byte	0x9f
 4167 0912 00000000 		.4byte	0x0
 4168 0916 00000000 		.4byte	0x0
 4169              	.LLST56:
 4170 091a 6A040000 		.4byte	.LVL116
 4171 091e 6C040000 		.4byte	.LVL117
 4172 0922 0100     		.2byte	0x1
 4173 0924 53       		.byte	0x53
 4174 0925 00000000 		.4byte	0x0
 4175 0929 00000000 		.4byte	0x0
 4176              	.LLST57:
 4177 092d 76040000 		.4byte	.LVL118
ARM GAS  C:\Users\DNIEL~1\AppData\Local\Temp\cccPEDO0.s 			page 75


 4178 0931 88040000 		.4byte	.LVL120
 4179 0935 0100     		.2byte	0x1
 4180 0937 54       		.byte	0x54
 4181 0938 00000000 		.4byte	0x0
 4182 093c 00000000 		.4byte	0x0
 4183              	.LLST58:
 4184 0940 76040000 		.4byte	.LVL118
 4185 0944 7F040000 		.4byte	.LVL119-1
 4186 0948 0100     		.2byte	0x1
 4187 094a 50       		.byte	0x50
 4188 094b 00000000 		.4byte	0x0
 4189 094f 00000000 		.4byte	0x0
 4190              	.LLST59:
 4191 0953 7A030000 		.4byte	.LVL93
 4192 0957 90030000 		.4byte	.LVL94
 4193 095b 0100     		.2byte	0x1
 4194 095d 53       		.byte	0x53
 4195 095e B4030000 		.4byte	.LVL97
 4196 0962 B6030000 		.4byte	.LVL98
 4197 0966 0100     		.2byte	0x1
 4198 0968 53       		.byte	0x53
 4199 0969 92040000 		.4byte	.LVL121
 4200 096d 94040000 		.4byte	.LVL122
 4201 0971 0100     		.2byte	0x1
 4202 0973 53       		.byte	0x53
 4203 0974 0C050000 		.4byte	.LVL134
 4204 0978 14050000 		.4byte	.LVL135
 4205 097c 0100     		.2byte	0x1
 4206 097e 53       		.byte	0x53
 4207 097f 00000000 		.4byte	0x0
 4208 0983 00000000 		.4byte	0x0
 4209              	.LLST60:
 4210 0987 BA030000 		.4byte	.LVL99
 4211 098b BE030000 		.4byte	.LVL100
 4212 098f 0100     		.2byte	0x1
 4213 0991 53       		.byte	0x53
 4214 0992 00000000 		.4byte	0x0
 4215 0996 00000000 		.4byte	0x0
 4216              	.LLST61:
 4217 099a EC000000 		.4byte	.LVL30
 4218 099e F0000000 		.4byte	.LVL31
 4219 09a2 0100     		.2byte	0x1
 4220 09a4 53       		.byte	0x53
 4221 09a5 DC030000 		.4byte	.LVL101
 4222 09a9 DE030000 		.4byte	.LVL102
 4223 09ad 0100     		.2byte	0x1
 4224 09af 53       		.byte	0x53
 4225 09b0 00000000 		.4byte	0x0
 4226 09b4 00000000 		.4byte	0x0
 4227              	.LLST62:
 4228 09b8 00000000 		.4byte	.LFB156
 4229 09bc 06000000 		.4byte	.LCFI2
 4230 09c0 0200     		.2byte	0x2
 4231 09c2 7D       		.byte	0x7d
 4232 09c3 00       		.sleb128 0
 4233 09c4 06000000 		.4byte	.LCFI2
 4234 09c8 AE000000 		.4byte	.LFE156
ARM GAS  C:\Users\DNIEL~1\AppData\Local\Temp\cccPEDO0.s 			page 76


 4235 09cc 0200     		.2byte	0x2
 4236 09ce 7D       		.byte	0x7d
 4237 09cf 14       		.sleb128 20
 4238 09d0 00000000 		.4byte	0x0
 4239 09d4 00000000 		.4byte	0x0
 4240              	.LLST63:
 4241 09d8 08000000 		.4byte	.LVL136
 4242 09dc 14000000 		.4byte	.LVL137
 4243 09e0 0200     		.2byte	0x2
 4244 09e2 30       		.byte	0x30
 4245 09e3 9F       		.byte	0x9f
 4246 09e4 36000000 		.4byte	.LVL138
 4247 09e8 44000000 		.4byte	.LVL139
 4248 09ec 0100     		.2byte	0x1
 4249 09ee 53       		.byte	0x53
 4250 09ef 94000000 		.4byte	.LVL140
 4251 09f3 A4000000 		.4byte	.LVL141
 4252 09f7 0100     		.2byte	0x1
 4253 09f9 53       		.byte	0x53
 4254 09fa 00000000 		.4byte	0x0
 4255 09fe 00000000 		.4byte	0x0
 4256              	.LLST64:
 4257 0a02 00000000 		.4byte	.LVL142
 4258 0a06 02000000 		.4byte	.LVL143
 4259 0a0a 0100     		.2byte	0x1
 4260 0a0c 51       		.byte	0x51
 4261 0a0d 00000000 		.4byte	0x0
 4262 0a11 00000000 		.4byte	0x0
 4263              	.LLST65:
 4264 0a15 00000000 		.4byte	.LVL142
 4265 0a19 12000000 		.4byte	.LVL144
 4266 0a1d 0100     		.2byte	0x1
 4267 0a1f 50       		.byte	0x50
 4268 0a20 00000000 		.4byte	0x0
 4269 0a24 00000000 		.4byte	0x0
 4270              	.LLST66:
 4271 0a28 00000000 		.4byte	.LFB138
 4272 0a2c 02000000 		.4byte	.LCFI3
 4273 0a30 0200     		.2byte	0x2
 4274 0a32 7D       		.byte	0x7d
 4275 0a33 00       		.sleb128 0
 4276 0a34 02000000 		.4byte	.LCFI3
 4277 0a38 24000000 		.4byte	.LFE138
 4278 0a3c 0200     		.2byte	0x2
 4279 0a3e 7D       		.byte	0x7d
 4280 0a3f 08       		.sleb128 8
 4281 0a40 00000000 		.4byte	0x0
 4282 0a44 00000000 		.4byte	0x0
 4283              	.LLST67:
 4284 0a48 00000000 		.4byte	.LFB139
 4285 0a4c 02000000 		.4byte	.LCFI4
 4286 0a50 0200     		.2byte	0x2
 4287 0a52 7D       		.byte	0x7d
 4288 0a53 00       		.sleb128 0
 4289 0a54 02000000 		.4byte	.LCFI4
 4290 0a58 0A000000 		.4byte	.LCFI5
 4291 0a5c 0200     		.2byte	0x2
ARM GAS  C:\Users\DNIEL~1\AppData\Local\Temp\cccPEDO0.s 			page 77


 4292 0a5e 7D       		.byte	0x7d
 4293 0a5f 10       		.sleb128 16
 4294 0a60 0A000000 		.4byte	.LCFI5
 4295 0a64 E0000000 		.4byte	.LFE139
 4296 0a68 0200     		.2byte	0x2
 4297 0a6a 7D       		.byte	0x7d
 4298 0a6b 18       		.sleb128 24
 4299 0a6c 00000000 		.4byte	0x0
 4300 0a70 00000000 		.4byte	0x0
 4301              	.LLST68:
 4302 0a74 00000000 		.4byte	.LVL145
 4303 0a78 0E000000 		.4byte	.LVL147
 4304 0a7c 0100     		.2byte	0x1
 4305 0a7e 50       		.byte	0x50
 4306 0a7f 0E000000 		.4byte	.LVL147
 4307 0a83 E0000000 		.4byte	.LFE139
 4308 0a87 0100     		.2byte	0x1
 4309 0a89 54       		.byte	0x54
 4310 0a8a 00000000 		.4byte	0x0
 4311 0a8e 00000000 		.4byte	0x0
 4312              	.LLST69:
 4313 0a92 06000000 		.4byte	.LVL146
 4314 0a96 0E000000 		.4byte	.LVL147
 4315 0a9a 0300     		.2byte	0x3
 4316 0a9c 70       		.byte	0x70
 4317 0a9d D000     		.sleb128 80
 4318 0a9f 0E000000 		.4byte	.LVL147
 4319 0aa3 E0000000 		.4byte	.LFE139
 4320 0aa7 0100     		.2byte	0x1
 4321 0aa9 55       		.byte	0x55
 4322 0aaa 00000000 		.4byte	0x0
 4323 0aae 00000000 		.4byte	0x0
 4324              	.LLST70:
 4325 0ab2 36000000 		.4byte	.LVL148
 4326 0ab6 3F000000 		.4byte	.LVL149-1
 4327 0aba 0300     		.2byte	0x3
 4328 0abc 74       		.byte	0x74
 4329 0abd D000     		.sleb128 80
 4330 0abf 3F000000 		.4byte	.LVL149-1
 4331 0ac3 5A000000 		.4byte	.LVL150
 4332 0ac7 0100     		.2byte	0x1
 4333 0ac9 56       		.byte	0x56
 4334 0aca 00000000 		.4byte	0x0
 4335 0ace 00000000 		.4byte	0x0
 4336              	.LLST71:
 4337 0ad2 00000000 		.4byte	.LFB140
 4338 0ad6 02000000 		.4byte	.LCFI6
 4339 0ada 0200     		.2byte	0x2
 4340 0adc 7D       		.byte	0x7d
 4341 0add 00       		.sleb128 0
 4342 0ade 02000000 		.4byte	.LCFI6
 4343 0ae2 22000000 		.4byte	.LFE140
 4344 0ae6 0200     		.2byte	0x2
 4345 0ae8 7D       		.byte	0x7d
 4346 0ae9 10       		.sleb128 16
 4347 0aea 00000000 		.4byte	0x0
 4348 0aee 00000000 		.4byte	0x0
ARM GAS  C:\Users\DNIEL~1\AppData\Local\Temp\cccPEDO0.s 			page 78


 4349              	.LLST72:
 4350 0af2 00000000 		.4byte	.LVL151
 4351 0af6 0C000000 		.4byte	.LVL153
 4352 0afa 0100     		.2byte	0x1
 4353 0afc 50       		.byte	0x50
 4354 0afd 0E000000 		.4byte	.LVL154
 4355 0b01 22000000 		.4byte	.LFE140
 4356 0b05 0100     		.2byte	0x1
 4357 0b07 54       		.byte	0x54
 4358 0b08 00000000 		.4byte	0x0
 4359 0b0c 00000000 		.4byte	0x0
 4360              	.LLST73:
 4361 0b10 06000000 		.4byte	.LVL152
 4362 0b14 0E000000 		.4byte	.LVL154
 4363 0b18 0300     		.2byte	0x3
 4364 0b1a 70       		.byte	0x70
 4365 0b1b D000     		.sleb128 80
 4366 0b1d 0E000000 		.4byte	.LVL154
 4367 0b21 13000000 		.4byte	.LVL155-1
 4368 0b25 0300     		.2byte	0x3
 4369 0b27 74       		.byte	0x74
 4370 0b28 D000     		.sleb128 80
 4371 0b2a 13000000 		.4byte	.LVL155-1
 4372 0b2e 22000000 		.4byte	.LFE140
 4373 0b32 0100     		.2byte	0x1
 4374 0b34 55       		.byte	0x55
 4375 0b35 00000000 		.4byte	0x0
 4376 0b39 00000000 		.4byte	0x0
 4377              	.LLST74:
 4378 0b3d 00000000 		.4byte	.LFB141
 4379 0b41 04000000 		.4byte	.LCFI7
 4380 0b45 0200     		.2byte	0x2
 4381 0b47 7D       		.byte	0x7d
 4382 0b48 00       		.sleb128 0
 4383 0b49 04000000 		.4byte	.LCFI7
 4384 0b4d 28010000 		.4byte	.LFE141
 4385 0b51 0200     		.2byte	0x2
 4386 0b53 7D       		.byte	0x7d
 4387 0b54 28       		.sleb128 40
 4388 0b55 00000000 		.4byte	0x0
 4389 0b59 00000000 		.4byte	0x0
 4390              	.LLST75:
 4391 0b5d 00000000 		.4byte	.LVL156
 4392 0b61 0C000000 		.4byte	.LVL158
 4393 0b65 0100     		.2byte	0x1
 4394 0b67 50       		.byte	0x50
 4395 0b68 0C000000 		.4byte	.LVL158
 4396 0b6c 28010000 		.4byte	.LFE141
 4397 0b70 0100     		.2byte	0x1
 4398 0b72 55       		.byte	0x55
 4399 0b73 00000000 		.4byte	0x0
 4400 0b77 00000000 		.4byte	0x0
 4401              	.LLST76:
 4402 0b7b 10000000 		.4byte	.LVL159
 4403 0b7f 38000000 		.4byte	.LVL160
 4404 0b83 0200     		.2byte	0x2
 4405 0b85 30       		.byte	0x30
ARM GAS  C:\Users\DNIEL~1\AppData\Local\Temp\cccPEDO0.s 			page 79


 4406 0b86 9F       		.byte	0x9f
 4407 0b87 00000000 		.4byte	0x0
 4408 0b8b 00000000 		.4byte	0x0
 4409              	.LLST77:
 4410 0b8f 06000000 		.4byte	.LVL157
 4411 0b93 0C000000 		.4byte	.LVL158
 4412 0b97 0300     		.2byte	0x3
 4413 0b99 70       		.byte	0x70
 4414 0b9a D000     		.sleb128 80
 4415 0b9c 0C000000 		.4byte	.LVL158
 4416 0ba0 0F000000 		.4byte	.LVL159-1
 4417 0ba4 0300     		.2byte	0x3
 4418 0ba6 75       		.byte	0x75
 4419 0ba7 D000     		.sleb128 80
 4420 0ba9 0F000000 		.4byte	.LVL159-1
 4421 0bad 28010000 		.4byte	.LFE141
 4422 0bb1 0100     		.2byte	0x1
 4423 0bb3 54       		.byte	0x54
 4424 0bb4 00000000 		.4byte	0x0
 4425 0bb8 00000000 		.4byte	0x0
 4426              	.LLST78:
 4427 0bbc B0000000 		.4byte	.LVL161
 4428 0bc0 D5000000 		.4byte	.LVL162-1
 4429 0bc4 0300     		.2byte	0x3
 4430 0bc6 75       		.byte	0x75
 4431 0bc7 D000     		.sleb128 80
 4432 0bc9 00000000 		.4byte	0x0
 4433 0bcd 00000000 		.4byte	0x0
 4434              	.LLST79:
 4435 0bd1 00000000 		.4byte	.LVL164
 4436 0bd5 0E000000 		.4byte	.LVL166
 4437 0bd9 0100     		.2byte	0x1
 4438 0bdb 50       		.byte	0x50
 4439 0bdc 00000000 		.4byte	0x0
 4440 0be0 00000000 		.4byte	0x0
 4441              	.LLST80:
 4442 0be4 02000000 		.4byte	.LVL165
 4443 0be8 0E000000 		.4byte	.LVL166
 4444 0bec 0300     		.2byte	0x3
 4445 0bee 70       		.byte	0x70
 4446 0bef D000     		.sleb128 80
 4447 0bf1 0E000000 		.4byte	.LVL166
 4448 0bf5 18000000 		.4byte	.LFE142
 4449 0bf9 0100     		.2byte	0x1
 4450 0bfb 53       		.byte	0x53
 4451 0bfc 00000000 		.4byte	0x0
 4452 0c00 00000000 		.4byte	0x0
 4453              	.LLST81:
 4454 0c04 00000000 		.4byte	.LFB143
 4455 0c08 04000000 		.4byte	.LCFI8
 4456 0c0c 0200     		.2byte	0x2
 4457 0c0e 7D       		.byte	0x7d
 4458 0c0f 00       		.sleb128 0
 4459 0c10 04000000 		.4byte	.LCFI8
 4460 0c14 64010000 		.4byte	.LFE143
 4461 0c18 0200     		.2byte	0x2
 4462 0c1a 7D       		.byte	0x7d
ARM GAS  C:\Users\DNIEL~1\AppData\Local\Temp\cccPEDO0.s 			page 80


 4463 0c1b 18       		.sleb128 24
 4464 0c1c 00000000 		.4byte	0x0
 4465 0c20 00000000 		.4byte	0x0
 4466              	.LLST82:
 4467 0c24 00000000 		.4byte	.LVL167
 4468 0c28 24000000 		.4byte	.LVL170
 4469 0c2c 0100     		.2byte	0x1
 4470 0c2e 50       		.byte	0x50
 4471 0c2f 24000000 		.4byte	.LVL170
 4472 0c33 9E000000 		.4byte	.LVL174
 4473 0c37 0100     		.2byte	0x1
 4474 0c39 56       		.byte	0x56
 4475 0c3a D2000000 		.4byte	.LVL177
 4476 0c3e EA000000 		.4byte	.LVL180
 4477 0c42 0100     		.2byte	0x1
 4478 0c44 50       		.byte	0x50
 4479 0c45 EA000000 		.4byte	.LVL180
 4480 0c49 64010000 		.4byte	.LFE143
 4481 0c4d 0100     		.2byte	0x1
 4482 0c4f 56       		.byte	0x56
 4483 0c50 00000000 		.4byte	0x0
 4484 0c54 00000000 		.4byte	0x0
 4485              	.LLST83:
 4486 0c58 00000000 		.4byte	.LVL167
 4487 0c5c 22000000 		.4byte	.LVL169
 4488 0c60 0100     		.2byte	0x1
 4489 0c62 51       		.byte	0x51
 4490 0c63 D2000000 		.4byte	.LVL177
 4491 0c67 DA000000 		.4byte	.LVL178
 4492 0c6b 0100     		.2byte	0x1
 4493 0c6d 51       		.byte	0x51
 4494 0c6e 10010000 		.4byte	.LVL181
 4495 0c72 16010000 		.4byte	.LVL182
 4496 0c76 0100     		.2byte	0x1
 4497 0c78 51       		.byte	0x51
 4498 0c79 00000000 		.4byte	0x0
 4499 0c7d 00000000 		.4byte	0x0
 4500              	.LLST84:
 4501 0c81 2C000000 		.4byte	.LVL171
 4502 0c85 D2000000 		.4byte	.LVL177
 4503 0c89 0100     		.2byte	0x1
 4504 0c8b 58       		.byte	0x58
 4505 0c8c D2000000 		.4byte	.LVL177
 4506 0c90 DE000000 		.4byte	.LVL179
 4507 0c94 0600     		.2byte	0x6
 4508 0c96 0C       		.byte	0xc
 4509 0c97 00800810 		.4byte	0x10088000
 4510 0c9b 9F       		.byte	0x9f
 4511 0c9c DE000000 		.4byte	.LVL179
 4512 0ca0 10010000 		.4byte	.LVL181
 4513 0ca4 0100     		.2byte	0x1
 4514 0ca6 58       		.byte	0x58
 4515 0ca7 10010000 		.4byte	.LVL181
 4516 0cab 16010000 		.4byte	.LVL182
 4517 0caf 0600     		.2byte	0x6
 4518 0cb1 0C       		.byte	0xc
 4519 0cb2 00800C10 		.4byte	0x100c8000
ARM GAS  C:\Users\DNIEL~1\AppData\Local\Temp\cccPEDO0.s 			page 81


 4520 0cb6 9F       		.byte	0x9f
 4521 0cb7 16010000 		.4byte	.LVL182
 4522 0cbb 64010000 		.4byte	.LFE143
 4523 0cbf 0100     		.2byte	0x1
 4524 0cc1 58       		.byte	0x58
 4525 0cc2 00000000 		.4byte	0x0
 4526 0cc6 00000000 		.4byte	0x0
 4527              	.LLST85:
 4528 0cca 80000000 		.4byte	.LVL172
 4529 0cce 8A000000 		.4byte	.LVL173
 4530 0cd2 0100     		.2byte	0x1
 4531 0cd4 50       		.byte	0x50
 4532 0cd5 8A000000 		.4byte	.LVL173
 4533 0cd9 A2000000 		.4byte	.LVL176
 4534 0cdd 0100     		.2byte	0x1
 4535 0cdf 50       		.byte	0x50
 4536 0ce0 00000000 		.4byte	0x0
 4537 0ce4 00000000 		.4byte	0x0
 4538              	.LLST86:
 4539 0ce8 10000000 		.4byte	.LVL168
 4540 0cec 24000000 		.4byte	.LVL170
 4541 0cf0 0300     		.2byte	0x3
 4542 0cf2 70       		.byte	0x70
 4543 0cf3 D000     		.sleb128 80
 4544 0cf5 24000000 		.4byte	.LVL170
 4545 0cf9 9E000000 		.4byte	.LVL174
 4546 0cfd 0300     		.2byte	0x3
 4547 0cff 76       		.byte	0x76
 4548 0d00 D000     		.sleb128 80
 4549 0d02 9E000000 		.4byte	.LVL174
 4550 0d06 64010000 		.4byte	.LFE143
 4551 0d0a 0100     		.2byte	0x1
 4552 0d0c 54       		.byte	0x54
 4553 0d0d 00000000 		.4byte	0x0
 4554 0d11 00000000 		.4byte	0x0
 4555              	.LLST87:
 4556 0d15 8A000000 		.4byte	.LVL173
 4557 0d19 A2000000 		.4byte	.LVL176
 4558 0d1d 0100     		.2byte	0x1
 4559 0d1f 50       		.byte	0x50
 4560 0d20 00000000 		.4byte	0x0
 4561 0d24 00000000 		.4byte	0x0
 4562              	.LLST88:
 4563 0d28 8A000000 		.4byte	.LVL173
 4564 0d2c 9E000000 		.4byte	.LVL174
 4565 0d30 0300     		.2byte	0x3
 4566 0d32 76       		.byte	0x76
 4567 0d33 D800     		.sleb128 88
 4568 0d35 9E000000 		.4byte	.LVL174
 4569 0d39 A0000000 		.4byte	.LVL175
 4570 0d3d 0100     		.2byte	0x1
 4571 0d3f 51       		.byte	0x51
 4572 0d40 00000000 		.4byte	0x0
 4573 0d44 00000000 		.4byte	0x0
 4574              	.LLST89:
 4575 0d48 00000000 		.4byte	.LVL183
 4576 0d4c 08000000 		.4byte	.LVL184
ARM GAS  C:\Users\DNIEL~1\AppData\Local\Temp\cccPEDO0.s 			page 82


 4577 0d50 0100     		.2byte	0x1
 4578 0d52 50       		.byte	0x50
 4579 0d53 08000000 		.4byte	.LVL184
 4580 0d57 0E000000 		.4byte	.LFE144
 4581 0d5b 0100     		.2byte	0x1
 4582 0d5d 53       		.byte	0x53
 4583 0d5e 00000000 		.4byte	0x0
 4584 0d62 00000000 		.4byte	0x0
 4585              	.LLST90:
 4586 0d66 00000000 		.4byte	.LVL185
 4587 0d6a 0C000000 		.4byte	.LVL188
 4588 0d6e 0100     		.2byte	0x1
 4589 0d70 50       		.byte	0x50
 4590 0d71 00000000 		.4byte	0x0
 4591 0d75 00000000 		.4byte	0x0
 4592              	.LLST91:
 4593 0d79 00000000 		.4byte	.LVL185
 4594 0d7d 02000000 		.4byte	.LVL186
 4595 0d81 0100     		.2byte	0x1
 4596 0d83 51       		.byte	0x51
 4597 0d84 00000000 		.4byte	0x0
 4598 0d88 00000000 		.4byte	0x0
 4599              	.LLST92:
 4600 0d8c 00000000 		.4byte	.LVL189
 4601 0d90 0C000000 		.4byte	.LVL192
 4602 0d94 0100     		.2byte	0x1
 4603 0d96 50       		.byte	0x50
 4604 0d97 00000000 		.4byte	0x0
 4605 0d9b 00000000 		.4byte	0x0
 4606              	.LLST93:
 4607 0d9f 00000000 		.4byte	.LVL189
 4608 0da3 02000000 		.4byte	.LVL190
 4609 0da7 0100     		.2byte	0x1
 4610 0da9 51       		.byte	0x51
 4611 0daa 00000000 		.4byte	0x0
 4612 0dae 00000000 		.4byte	0x0
 4613              	.LLST94:
 4614 0db2 00000000 		.4byte	.LVL193
 4615 0db6 0A000000 		.4byte	.LVL194
 4616 0dba 0100     		.2byte	0x1
 4617 0dbc 50       		.byte	0x50
 4618 0dbd 00000000 		.4byte	0x0
 4619 0dc1 00000000 		.4byte	0x0
 4620              	.LLST95:
 4621 0dc5 00000000 		.4byte	.LVL193
 4622 0dc9 0C000000 		.4byte	.LVL195
 4623 0dcd 0100     		.2byte	0x1
 4624 0dcf 51       		.byte	0x51
 4625 0dd0 00000000 		.4byte	0x0
 4626 0dd4 00000000 		.4byte	0x0
 4627              	.LLST96:
 4628 0dd8 00000000 		.4byte	.LFB148
 4629 0ddc 06000000 		.4byte	.LCFI9
 4630 0de0 0200     		.2byte	0x2
 4631 0de2 7D       		.byte	0x7d
 4632 0de3 00       		.sleb128 0
 4633 0de4 06000000 		.4byte	.LCFI9
ARM GAS  C:\Users\DNIEL~1\AppData\Local\Temp\cccPEDO0.s 			page 83


 4634 0de8 44000000 		.4byte	.LFE148
 4635 0dec 0200     		.2byte	0x2
 4636 0dee 7D       		.byte	0x7d
 4637 0def 08       		.sleb128 8
 4638 0df0 00000000 		.4byte	0x0
 4639 0df4 00000000 		.4byte	0x0
 4640              	.LLST97:
 4641 0df8 00000000 		.4byte	.LVL196
 4642 0dfc 28000000 		.4byte	.LVL200
 4643 0e00 0100     		.2byte	0x1
 4644 0e02 50       		.byte	0x50
 4645 0e03 00000000 		.4byte	0x0
 4646 0e07 00000000 		.4byte	0x0
 4647              	.LLST98:
 4648 0e0b 00000000 		.4byte	.LVL196
 4649 0e0f 2C000000 		.4byte	.LVL202
 4650 0e13 0100     		.2byte	0x1
 4651 0e15 51       		.byte	0x51
 4652 0e16 00000000 		.4byte	0x0
 4653 0e1a 00000000 		.4byte	0x0
 4654              	.LLST99:
 4655 0e1e 36000000 		.4byte	.LVL203
 4656 0e22 44000000 		.4byte	.LFE148
 4657 0e26 0100     		.2byte	0x1
 4658 0e28 5C       		.byte	0x5c
 4659 0e29 00000000 		.4byte	0x0
 4660 0e2d 00000000 		.4byte	0x0
 4661              	.LLST100:
 4662 0e31 0A000000 		.4byte	.LVL197
 4663 0e35 0C000000 		.4byte	.LVL198
 4664 0e39 0500     		.2byte	0x5
 4665 0e3b 73       		.byte	0x73
 4666 0e3c 0C       		.sleb128 12
 4667 0e3d 06       		.byte	0x6
 4668 0e3e 23       		.byte	0x23
 4669 0e3f 18       		.uleb128 0x18
 4670 0e40 0C000000 		.4byte	.LVL198
 4671 0e44 2A000000 		.4byte	.LVL201
 4672 0e48 0200     		.2byte	0x2
 4673 0e4a 74       		.byte	0x74
 4674 0e4b 18       		.sleb128 24
 4675 0e4c 00000000 		.4byte	0x0
 4676 0e50 00000000 		.4byte	0x0
 4677              	.LLST101:
 4678 0e54 00000000 		.4byte	.LFB164
 4679 0e58 02000000 		.4byte	.LCFI10
 4680 0e5c 0200     		.2byte	0x2
 4681 0e5e 7D       		.byte	0x7d
 4682 0e5f 00       		.sleb128 0
 4683 0e60 02000000 		.4byte	.LCFI10
 4684 0e64 A4000000 		.4byte	.LFE164
 4685 0e68 0200     		.2byte	0x2
 4686 0e6a 7D       		.byte	0x7d
 4687 0e6b 18       		.sleb128 24
 4688 0e6c 00000000 		.4byte	0x0
 4689 0e70 00000000 		.4byte	0x0
 4690              	.LLST102:
ARM GAS  C:\Users\DNIEL~1\AppData\Local\Temp\cccPEDO0.s 			page 84


 4691 0e74 00000000 		.4byte	.LVL204
 4692 0e78 24000000 		.4byte	.LVL207
 4693 0e7c 0100     		.2byte	0x1
 4694 0e7e 50       		.byte	0x50
 4695 0e7f 62000000 		.4byte	.LVL211
 4696 0e83 6E000000 		.4byte	.LVL212
 4697 0e87 0100     		.2byte	0x1
 4698 0e89 50       		.byte	0x50
 4699 0e8a 00000000 		.4byte	0x0
 4700 0e8e 00000000 		.4byte	0x0
 4701              	.LLST103:
 4702 0e92 06000000 		.4byte	.LVL205
 4703 0e96 24000000 		.4byte	.LVL207
 4704 0e9a 0500     		.2byte	0x5
 4705 0e9c 03       		.byte	0x3
 4706 0e9d 50000000 		.4byte	USBD1+80
 4707 0ea1 24000000 		.4byte	.LVL207
 4708 0ea5 78000000 		.4byte	.LVL214
 4709 0ea9 0100     		.2byte	0x1
 4710 0eab 56       		.byte	0x56
 4711 0eac 00000000 		.4byte	0x0
 4712 0eb0 00000000 		.4byte	0x0
 4713              	.LLST104:
 4714 0eb4 10000000 		.4byte	.LVL206
 4715 0eb8 3A000000 		.4byte	.LVL208
 4716 0ebc 0100     		.2byte	0x1
 4717 0ebe 55       		.byte	0x55
 4718 0ebf 62000000 		.4byte	.LVL211
 4719 0ec3 74000000 		.4byte	.LVL213
 4720 0ec7 0100     		.2byte	0x1
 4721 0ec9 55       		.byte	0x55
 4722 0eca 00000000 		.4byte	0x0
 4723 0ece 00000000 		.4byte	0x0
 4724              	.LLST105:
 4725 0ed2 3E000000 		.4byte	.LVL209
 4726 0ed6 5F000000 		.4byte	.LVL210-1
 4727 0eda 0500     		.2byte	0x5
 4728 0edc 77       		.byte	0x77
 4729 0edd 0C       		.sleb128 12
 4730 0ede 06       		.byte	0x6
 4731 0edf 23       		.byte	0x23
 4732 0ee0 18       		.uleb128 0x18
 4733 0ee1 74000000 		.4byte	.LVL213
 4734 0ee5 83000000 		.4byte	.LVL215-1
 4735 0ee9 0100     		.2byte	0x1
 4736 0eeb 53       		.byte	0x53
 4737 0eec 00000000 		.4byte	0x0
 4738 0ef0 00000000 		.4byte	0x0
 4739              	.LLST106:
 4740 0ef4 8A000000 		.4byte	.LVL217
 4741 0ef8 92000000 		.4byte	.LVL218
 4742 0efc 0100     		.2byte	0x1
 4743 0efe 53       		.byte	0x53
 4744 0eff 00000000 		.4byte	0x0
 4745 0f03 00000000 		.4byte	0x0
 4746              	.LLST107:
 4747 0f07 9E000000 		.4byte	.LVL219
ARM GAS  C:\Users\DNIEL~1\AppData\Local\Temp\cccPEDO0.s 			page 85


 4748 0f0b A4000000 		.4byte	.LFE164
 4749 0f0f 0100     		.2byte	0x1
 4750 0f11 53       		.byte	0x53
 4751 0f12 00000000 		.4byte	0x0
 4752 0f16 00000000 		.4byte	0x0
 4753              	.LLST108:
 4754 0f1a 00000000 		.4byte	.LFB149
 4755 0f1e 06000000 		.4byte	.LCFI11
 4756 0f22 0200     		.2byte	0x2
 4757 0f24 7D       		.byte	0x7d
 4758 0f25 00       		.sleb128 0
 4759 0f26 06000000 		.4byte	.LCFI11
 4760 0f2a 50000000 		.4byte	.LFE149
 4761 0f2e 0200     		.2byte	0x2
 4762 0f30 7D       		.byte	0x7d
 4763 0f31 08       		.sleb128 8
 4764 0f32 00000000 		.4byte	0x0
 4765 0f36 00000000 		.4byte	0x0
 4766              	.LLST109:
 4767 0f3a 00000000 		.4byte	.LVL220
 4768 0f3e 1A000000 		.4byte	.LVL224
 4769 0f42 0100     		.2byte	0x1
 4770 0f44 50       		.byte	0x50
 4771 0f45 34000000 		.4byte	.LVL230
 4772 0f49 4A000000 		.4byte	.LVL233
 4773 0f4d 0100     		.2byte	0x1
 4774 0f4f 50       		.byte	0x50
 4775 0f50 00000000 		.4byte	0x0
 4776 0f54 00000000 		.4byte	0x0
 4777              	.LLST110:
 4778 0f58 00000000 		.4byte	.LVL220
 4779 0f5c 20000000 		.4byte	.LVL226
 4780 0f60 0100     		.2byte	0x1
 4781 0f62 51       		.byte	0x51
 4782 0f63 34000000 		.4byte	.LVL230
 4783 0f67 46000000 		.4byte	.LVL232
 4784 0f6b 0100     		.2byte	0x1
 4785 0f6d 51       		.byte	0x51
 4786 0f6e 00000000 		.4byte	0x0
 4787 0f72 00000000 		.4byte	0x0
 4788              	.LLST111:
 4789 0f76 0A000000 		.4byte	.LVL221
 4790 0f7a 0C000000 		.4byte	.LVL222
 4791 0f7e 0500     		.2byte	0x5
 4792 0f80 73       		.byte	0x73
 4793 0f81 0C       		.sleb128 12
 4794 0f82 06       		.byte	0x6
 4795 0f83 23       		.byte	0x23
 4796 0f84 14       		.uleb128 0x14
 4797 0f85 0C000000 		.4byte	.LVL222
 4798 0f89 1E000000 		.4byte	.LVL225
 4799 0f8d 0200     		.2byte	0x2
 4800 0f8f 74       		.byte	0x74
 4801 0f90 14       		.sleb128 20
 4802 0f91 1E000000 		.4byte	.LVL225
 4803 0f95 24000000 		.4byte	.LVL227
 4804 0f99 0100     		.2byte	0x1
ARM GAS  C:\Users\DNIEL~1\AppData\Local\Temp\cccPEDO0.s 			page 86


 4805 0f9b 52       		.byte	0x52
 4806 0f9c 34000000 		.4byte	.LVL230
 4807 0fa0 44000000 		.4byte	.LVL231
 4808 0fa4 0100     		.2byte	0x1
 4809 0fa6 52       		.byte	0x52
 4810 0fa7 44000000 		.4byte	.LVL231
 4811 0fab 50000000 		.4byte	.LFE149
 4812 0faf 0200     		.2byte	0x2
 4813 0fb1 74       		.byte	0x74
 4814 0fb2 14       		.sleb128 20
 4815 0fb3 00000000 		.4byte	0x0
 4816 0fb7 00000000 		.4byte	0x0
 4817              	.LLST112:
 4818 0fbb 28000000 		.4byte	.LVL228
 4819 0fbf 30000000 		.4byte	.LVL229
 4820 0fc3 0100     		.2byte	0x1
 4821 0fc5 52       		.byte	0x52
 4822 0fc6 00000000 		.4byte	0x0
 4823 0fca 00000000 		.4byte	0x0
 4824              	.LLST113:
 4825 0fce 00000000 		.4byte	.LFB163
 4826 0fd2 04000000 		.4byte	.LCFI12
 4827 0fd6 0200     		.2byte	0x2
 4828 0fd8 7D       		.byte	0x7d
 4829 0fd9 00       		.sleb128 0
 4830 0fda 04000000 		.4byte	.LCFI12
 4831 0fde E0000000 		.4byte	.LFE163
 4832 0fe2 0200     		.2byte	0x2
 4833 0fe4 7D       		.byte	0x7d
 4834 0fe5 18       		.sleb128 24
 4835 0fe6 00000000 		.4byte	0x0
 4836 0fea 00000000 		.4byte	0x0
 4837              	.LLST114:
 4838 0fee 00000000 		.4byte	.LVL234
 4839 0ff2 26000000 		.4byte	.LVL237
 4840 0ff6 0100     		.2byte	0x1
 4841 0ff8 50       		.byte	0x50
 4842 0ff9 6C000000 		.4byte	.LVL244
 4843 0ffd 70000000 		.4byte	.LVL245
 4844 1001 0100     		.2byte	0x1
 4845 1003 50       		.byte	0x50
 4846 1004 00000000 		.4byte	0x0
 4847 1008 00000000 		.4byte	0x0
 4848              	.LLST115:
 4849 100c 08000000 		.4byte	.LVL235
 4850 1010 26000000 		.4byte	.LVL237
 4851 1014 0500     		.2byte	0x5
 4852 1016 03       		.byte	0x3
 4853 1017 50000000 		.4byte	USBD1+80
 4854 101b 26000000 		.4byte	.LVL237
 4855 101f E0000000 		.4byte	.LFE163
 4856 1023 0100     		.2byte	0x1
 4857 1025 56       		.byte	0x56
 4858 1026 00000000 		.4byte	0x0
 4859 102a 00000000 		.4byte	0x0
 4860              	.LLST116:
 4861 102e 40000000 		.4byte	.LVL240
ARM GAS  C:\Users\DNIEL~1\AppData\Local\Temp\cccPEDO0.s 			page 87


 4862 1032 42000000 		.4byte	.LVL241
 4863 1036 0100     		.2byte	0x1
 4864 1038 53       		.byte	0x53
 4865 1039 00000000 		.4byte	0x0
 4866 103d 00000000 		.4byte	0x0
 4867              	.LLST117:
 4868 1041 68000000 		.4byte	.LVL243
 4869 1045 6C000000 		.4byte	.LVL244
 4870 1049 0100     		.2byte	0x1
 4871 104b 53       		.byte	0x53
 4872 104c 00000000 		.4byte	0x0
 4873 1050 00000000 		.4byte	0x0
 4874              	.LLST118:
 4875 1054 74000000 		.4byte	.LVL246
 4876 1058 78000000 		.4byte	.LVL247
 4877 105c 0500     		.2byte	0x5
 4878 105e 70       		.byte	0x70
 4879 105f 0C       		.sleb128 12
 4880 1060 06       		.byte	0x6
 4881 1061 23       		.byte	0x23
 4882 1062 14       		.uleb128 0x14
 4883 1063 78000000 		.4byte	.LVL247
 4884 1067 7E000000 		.4byte	.LVL248
 4885 106b 0200     		.2byte	0x2
 4886 106d 72       		.byte	0x72
 4887 106e 14       		.sleb128 20
 4888 106f 7E000000 		.4byte	.LVL248
 4889 1073 8F000000 		.4byte	.LVL249-1
 4890 1077 0100     		.2byte	0x1
 4891 1079 53       		.byte	0x53
 4892 107a C0000000 		.4byte	.LVL254
 4893 107e C6000000 		.4byte	.LVL255
 4894 1082 0100     		.2byte	0x1
 4895 1084 53       		.byte	0x53
 4896 1085 C6000000 		.4byte	.LVL255
 4897 1089 D9000000 		.4byte	.LVL256-1
 4898 108d 0200     		.2byte	0x2
 4899 108f 72       		.byte	0x72
 4900 1090 14       		.sleb128 20
 4901 1091 00000000 		.4byte	0x0
 4902 1095 00000000 		.4byte	0x0
 4903              	.LLST119:
 4904 1099 96000000 		.4byte	.LVL251
 4905 109d 9C000000 		.4byte	.LVL252
 4906 10a1 0100     		.2byte	0x1
 4907 10a3 53       		.byte	0x53
 4908 10a4 00000000 		.4byte	0x0
 4909 10a8 00000000 		.4byte	0x0
 4910              	.LLST120:
 4911 10ac 96000000 		.4byte	.LVL251
 4912 10b0 C0000000 		.4byte	.LVL254
 4913 10b4 0600     		.2byte	0x6
 4914 10b6 03       		.byte	0x3
 4915 10b7 00000000 		.4byte	USBD1
 4916 10bb 9F       		.byte	0x9f
 4917 10bc 00000000 		.4byte	0x0
 4918 10c0 00000000 		.4byte	0x0
ARM GAS  C:\Users\DNIEL~1\AppData\Local\Temp\cccPEDO0.s 			page 88


 4919              	.LLST121:
 4920 10c4 96000000 		.4byte	.LVL251
 4921 10c8 C0000000 		.4byte	.LVL254
 4922 10cc 0100     		.2byte	0x1
 4923 10ce 57       		.byte	0x57
 4924 10cf 00000000 		.4byte	0x0
 4925 10d3 00000000 		.4byte	0x0
 4926              	.LLST122:
 4927 10d7 26000000 		.4byte	.LVL237
 4928 10db 32000000 		.4byte	.LVL238
 4929 10df 0100     		.2byte	0x1
 4930 10e1 53       		.byte	0x53
 4931 10e2 68000000 		.4byte	.LVL243
 4932 10e6 6C000000 		.4byte	.LVL244
 4933 10ea 0100     		.2byte	0x1
 4934 10ec 53       		.byte	0x53
 4935 10ed BE000000 		.4byte	.LVL253
 4936 10f1 C0000000 		.4byte	.LVL254
 4937 10f5 0100     		.2byte	0x1
 4938 10f7 53       		.byte	0x53
 4939 10f8 00000000 		.4byte	0x0
 4940 10fc 00000000 		.4byte	0x0
 4941              	.LLST123:
 4942 1100 00000000 		.4byte	.LFB137
 4943 1104 02000000 		.4byte	.LCFI13
 4944 1108 0200     		.2byte	0x2
 4945 110a 7D       		.byte	0x7d
 4946 110b 00       		.sleb128 0
 4947 110c 02000000 		.4byte	.LCFI13
 4948 1110 14010000 		.4byte	.LFE137
 4949 1114 0200     		.2byte	0x2
 4950 1116 7D       		.byte	0x7d
 4951 1117 10       		.sleb128 16
 4952 1118 00000000 		.4byte	0x0
 4953 111c 00000000 		.4byte	0x0
 4954              	.LLST124:
 4955 1120 06000000 		.4byte	.LVL258
 4956 1124 14000000 		.4byte	.LVL261
 4957 1128 0500     		.2byte	0x5
 4958 112a 03       		.byte	0x3
 4959 112b 50000000 		.4byte	USBD1+80
 4960 112f 14000000 		.4byte	.LVL261
 4961 1133 5E000000 		.4byte	.LVL268
 4962 1137 0100     		.2byte	0x1
 4963 1139 55       		.byte	0x55
 4964 113a A6000000 		.4byte	.LVL271
 4965 113e BC000000 		.4byte	.LVL272
 4966 1142 0100     		.2byte	0x1
 4967 1144 55       		.byte	0x55
 4968 1145 00000000 		.4byte	0x0
 4969 1149 00000000 		.4byte	0x0
 4970              	.LLST125:
 4971 114d 08000000 		.4byte	.LVL259
 4972 1151 0C000000 		.4byte	.LVL260
 4973 1155 0100     		.2byte	0x1
 4974 1157 53       		.byte	0x53
 4975 1158 0C000000 		.4byte	.LVL260
ARM GAS  C:\Users\DNIEL~1\AppData\Local\Temp\cccPEDO0.s 			page 89


 4976 115c 14010000 		.4byte	.LFE137
 4977 1160 0100     		.2byte	0x1
 4978 1162 54       		.byte	0x54
 4979 1163 00000000 		.4byte	0x0
 4980 1167 00000000 		.4byte	0x0
 4981              	.LLST126:
 4982 116b 5E000000 		.4byte	.LVL268
 4983 116f A6000000 		.4byte	.LVL271
 4984 1173 0100     		.2byte	0x1
 4985 1175 55       		.byte	0x55
 4986 1176 BC000000 		.4byte	.LVL272
 4987 117a 14010000 		.4byte	.LFE137
 4988 117e 0100     		.2byte	0x1
 4989 1180 55       		.byte	0x55
 4990 1181 00000000 		.4byte	0x0
 4991 1185 00000000 		.4byte	0x0
 4992              	.LLST127:
 4993 1189 56000000 		.4byte	.LVL267
 4994 118d 9D000000 		.4byte	.LVL269-1
 4995 1191 0100     		.2byte	0x1
 4996 1193 53       		.byte	0x53
 4997 1194 9E000000 		.4byte	.LVL269
 4998 1198 A3000000 		.4byte	.LVL270-1
 4999 119c 0100     		.2byte	0x1
 5000 119e 53       		.byte	0x53
 5001 119f BC000000 		.4byte	.LVL272
 5002 11a3 C1000000 		.4byte	.LVL273-1
 5003 11a7 0100     		.2byte	0x1
 5004 11a9 53       		.byte	0x53
 5005 11aa CA000000 		.4byte	.LVL274
 5006 11ae CF000000 		.4byte	.LVL275-1
 5007 11b2 0100     		.2byte	0x1
 5008 11b4 53       		.byte	0x53
 5009 11b5 D6000000 		.4byte	.LVL276
 5010 11b9 DB000000 		.4byte	.LVL277-1
 5011 11bd 0100     		.2byte	0x1
 5012 11bf 53       		.byte	0x53
 5013 11c0 E4000000 		.4byte	.LVL278
 5014 11c4 E9000000 		.4byte	.LVL279-1
 5015 11c8 0100     		.2byte	0x1
 5016 11ca 53       		.byte	0x53
 5017 11cb F0000000 		.4byte	.LVL280
 5018 11cf F5000000 		.4byte	.LVL281-1
 5019 11d3 0100     		.2byte	0x1
 5020 11d5 53       		.byte	0x53
 5021 11d6 FC000000 		.4byte	.LVL282
 5022 11da 01010000 		.4byte	.LVL283-1
 5023 11de 0100     		.2byte	0x1
 5024 11e0 53       		.byte	0x53
 5025 11e1 08010000 		.4byte	.LVL284
 5026 11e5 0D010000 		.4byte	.LVL285-1
 5027 11e9 0100     		.2byte	0x1
 5028 11eb 53       		.byte	0x53
 5029 11ec 00000000 		.4byte	0x0
 5030 11f0 00000000 		.4byte	0x0
 5031              	.LLST128:
 5032 11f4 3A000000 		.4byte	.LVL263
ARM GAS  C:\Users\DNIEL~1\AppData\Local\Temp\cccPEDO0.s 			page 90


 5033 11f8 49000000 		.4byte	.LVL264-1
 5034 11fc 0100     		.2byte	0x1
 5035 11fe 53       		.byte	0x53
 5036 11ff 50000000 		.4byte	.LVL265
 5037 1203 52000000 		.4byte	.LVL266
 5038 1207 0100     		.2byte	0x1
 5039 1209 53       		.byte	0x53
 5040 120a 00000000 		.4byte	0x0
 5041 120e 00000000 		.4byte	0x0
 5042              	.LLST129:
 5043 1212 00000000 		.4byte	.LVL286
 5044 1216 08000000 		.4byte	.LVL288
 5045 121a 0100     		.2byte	0x1
 5046 121c 50       		.byte	0x50
 5047 121d 00000000 		.4byte	0x0
 5048 1221 00000000 		.4byte	0x0
 5049              	.LLST130:
 5050 1225 00000000 		.4byte	.LVL286
 5051 1229 02000000 		.4byte	.LVL287
 5052 122d 0100     		.2byte	0x1
 5053 122f 51       		.byte	0x51
 5054 1230 00000000 		.4byte	0x0
 5055 1234 00000000 		.4byte	0x0
 5056              	.LLST131:
 5057 1238 00000000 		.4byte	.LVL289
 5058 123c 0A000000 		.4byte	.LVL290
 5059 1240 0100     		.2byte	0x1
 5060 1242 50       		.byte	0x50
 5061 1243 00000000 		.4byte	0x0
 5062 1247 00000000 		.4byte	0x0
 5063              	.LLST132:
 5064 124b 00000000 		.4byte	.LVL289
 5065 124f 1C000000 		.4byte	.LVL291
 5066 1253 0100     		.2byte	0x1
 5067 1255 51       		.byte	0x51
 5068 1256 00000000 		.4byte	0x0
 5069 125a 00000000 		.4byte	0x0
 5070              	.LLST133:
 5071 125e 00000000 		.4byte	.LVL292
 5072 1262 08000000 		.4byte	.LVL294
 5073 1266 0100     		.2byte	0x1
 5074 1268 50       		.byte	0x50
 5075 1269 00000000 		.4byte	0x0
 5076 126d 00000000 		.4byte	0x0
 5077              	.LLST134:
 5078 1271 00000000 		.4byte	.LVL292
 5079 1275 02000000 		.4byte	.LVL293
 5080 1279 0100     		.2byte	0x1
 5081 127b 51       		.byte	0x51
 5082 127c 00000000 		.4byte	0x0
 5083 1280 00000000 		.4byte	0x0
 5084              	.LLST135:
 5085 1284 00000000 		.4byte	.LVL295
 5086 1288 08000000 		.4byte	.LVL297
 5087 128c 0100     		.2byte	0x1
 5088 128e 50       		.byte	0x50
 5089 128f 00000000 		.4byte	0x0
ARM GAS  C:\Users\DNIEL~1\AppData\Local\Temp\cccPEDO0.s 			page 91


 5090 1293 00000000 		.4byte	0x0
 5091              	.LLST136:
 5092 1297 00000000 		.4byte	.LVL295
 5093 129b 02000000 		.4byte	.LVL296
 5094 129f 0100     		.2byte	0x1
 5095 12a1 51       		.byte	0x51
 5096 12a2 00000000 		.4byte	0x0
 5097 12a6 00000000 		.4byte	0x0
 5098              	.LLST137:
 5099 12aa 00000000 		.4byte	.LVL298
 5100 12ae 08000000 		.4byte	.LVL300
 5101 12b2 0100     		.2byte	0x1
 5102 12b4 50       		.byte	0x50
 5103 12b5 00000000 		.4byte	0x0
 5104 12b9 00000000 		.4byte	0x0
 5105              	.LLST138:
 5106 12bd 00000000 		.4byte	.LVL298
 5107 12c1 02000000 		.4byte	.LVL299
 5108 12c5 0100     		.2byte	0x1
 5109 12c7 51       		.byte	0x51
 5110 12c8 00000000 		.4byte	0x0
 5111 12cc 00000000 		.4byte	0x0
 5112              	.LLST139:
 5113 12d0 00000000 		.4byte	.LVL301
 5114 12d4 08000000 		.4byte	.LVL303
 5115 12d8 0100     		.2byte	0x1
 5116 12da 50       		.byte	0x50
 5117 12db 00000000 		.4byte	0x0
 5118 12df 00000000 		.4byte	0x0
 5119              	.LLST140:
 5120 12e3 00000000 		.4byte	.LVL301
 5121 12e7 02000000 		.4byte	.LVL302
 5122 12eb 0100     		.2byte	0x1
 5123 12ed 51       		.byte	0x51
 5124 12ee 00000000 		.4byte	0x0
 5125 12f2 00000000 		.4byte	0x0
 5126              		.file 3 "c:\\program files (x86)\\codesourcery\\sourcery g++ lite\\bin\\../lib/gcc/arm-none-eabi/4
 5127              		.file 4 "c:\\program files (x86)\\codesourcery\\sourcery g++ lite\\bin\\../lib/gcc/arm-none-eabi/4
 5128              		.file 5 "../../../ChibiOS/os/ports/GCC/ARMCMx/chtypes.h"
 5129              		.file 6 "../../../ChibiOS/os/kernel/include/chlists.h"
 5130              		.file 7 "../../../ChibiOS/os/kernel/include/chthreads.h"
 5131              		.file 8 "../../../ChibiOS/os/ports/GCC/ARMCMx/chcore_v7m.h"
 5132              		.file 9 "../../../ChibiOS/os/kernel/include/chschd.h"
 5133              		.file 10 "../../../ChibiOS/os/kernel/include/chmtx.h"
 5134              		.file 11 "../../../ChibiOS/os/kernel/include/chqueues.h"
 5135              		.file 12 "../../../ChibiOS/os/hal/platforms/STM32F4xx/stm32f4xx.h"
 5136              		.file 13 "../../../ChibiOS/os/hal/include/usb.h"
 5137              		.file 14 "../../../ChibiOS/os/hal/platforms/STM32/OTGv1/usb_lld.h"
 5138              		.file 15 "../../../ChibiOS/os/hal/platforms/STM32/OTGv1/stm32_otg.h"
 5139              		.file 16 "../../../ChibiOS/os/ports/common/ARMCMx/CMSIS/include/core_cm4.h"
 5140              		.section	.debug_info
 5141 0000 B6250000 		.4byte	0x25b6
 5142 0004 0200     		.2byte	0x2
 5143 0006 00000000 		.4byte	.Ldebug_abbrev0
 5144 000a 04       		.byte	0x4
 5145 000b 01       		.uleb128 0x1
 5146 000c 3D000000 		.4byte	.LASF333
ARM GAS  C:\Users\DNIEL~1\AppData\Local\Temp\cccPEDO0.s 			page 92


 5147 0010 01       		.byte	0x1
 5148 0011 900A0000 		.4byte	.LASF334
 5149 0015 2A080000 		.4byte	.LASF335
 5150 0019 00000000 		.4byte	0x0
 5151 001d 00000000 		.4byte	0x0
 5152 0021 B0030000 		.4byte	.Ldebug_ranges0+0x3b0
 5153 0025 00000000 		.4byte	.Ldebug_line0
 5154 0029 02       		.uleb128 0x2
 5155 002a 01       		.byte	0x1
 5156 002b 06       		.byte	0x6
 5157 002c 80020000 		.4byte	.LASF0
 5158 0030 02       		.uleb128 0x2
 5159 0031 01       		.byte	0x1
 5160 0032 08       		.byte	0x8
 5161 0033 A7080000 		.4byte	.LASF1
 5162 0037 02       		.uleb128 0x2
 5163 0038 02       		.byte	0x2
 5164 0039 05       		.byte	0x5
 5165 003a 2C000000 		.4byte	.LASF2
 5166 003e 02       		.uleb128 0x2
 5167 003f 02       		.byte	0x2
 5168 0040 07       		.byte	0x7
 5169 0041 C90C0000 		.4byte	.LASF3
 5170 0045 03       		.uleb128 0x3
 5171 0046 04       		.byte	0x4
 5172 0047 05       		.byte	0x5
 5173 0048 696E7400 		.ascii	"int\000"
 5174 004c 02       		.uleb128 0x2
 5175 004d 04       		.byte	0x4
 5176 004e 07       		.byte	0x7
 5177 004f 480A0000 		.4byte	.LASF4
 5178 0053 02       		.uleb128 0x2
 5179 0054 08       		.byte	0x8
 5180 0055 05       		.byte	0x5
 5181 0056 3F060000 		.4byte	.LASF5
 5182 005a 02       		.uleb128 0x2
 5183 005b 08       		.byte	0x8
 5184 005c 07       		.byte	0x7
 5185 005d 21030000 		.4byte	.LASF6
 5186 0061 02       		.uleb128 0x2
 5187 0062 04       		.byte	0x4
 5188 0063 05       		.byte	0x5
 5189 0064 4A090000 		.4byte	.LASF7
 5190 0068 04       		.uleb128 0x4
 5191 0069 04       		.byte	0x4
 5192 006a 02       		.uleb128 0x2
 5193 006b 04       		.byte	0x4
 5194 006c 07       		.byte	0x7
 5195 006d ED0A0000 		.4byte	.LASF8
 5196 0071 02       		.uleb128 0x2
 5197 0072 01       		.byte	0x1
 5198 0073 08       		.byte	0x8
 5199 0074 2F050000 		.4byte	.LASF9
 5200 0078 05       		.uleb128 0x5
 5201 0079 04       		.byte	0x4
 5202 007a 7E000000 		.4byte	0x7e
 5203 007e 06       		.uleb128 0x6
ARM GAS  C:\Users\DNIEL~1\AppData\Local\Temp\cccPEDO0.s 			page 93


 5204 007f 71000000 		.4byte	0x71
 5205 0083 07       		.uleb128 0x7
 5206 0084 33040000 		.4byte	.LASF10
 5207 0088 03       		.byte	0x3
 5208 0089 D3       		.byte	0xd3
 5209 008a 4C000000 		.4byte	0x4c
 5210 008e 07       		.uleb128 0x7
 5211 008f A2050000 		.4byte	.LASF11
 5212 0093 04       		.byte	0x4
 5213 0094 2A       		.byte	0x2a
 5214 0095 30000000 		.4byte	0x30
 5215 0099 07       		.uleb128 0x7
 5216 009a 0D080000 		.4byte	.LASF12
 5217 009e 04       		.byte	0x4
 5218 009f 36       		.byte	0x36
 5219 00a0 3E000000 		.4byte	0x3e
 5220 00a4 07       		.uleb128 0x7
 5221 00a5 2E0B0000 		.4byte	.LASF13
 5222 00a9 04       		.byte	0x4
 5223 00aa 4F       		.byte	0x4f
 5224 00ab 61000000 		.4byte	0x61
 5225 00af 07       		.uleb128 0x7
 5226 00b0 57010000 		.4byte	.LASF14
 5227 00b4 04       		.byte	0x4
 5228 00b5 50       		.byte	0x50
 5229 00b6 6A000000 		.4byte	0x6a
 5230 00ba 07       		.uleb128 0x7
 5231 00bb B4090000 		.4byte	.LASF15
 5232 00bf 04       		.byte	0x4
 5233 00c0 78       		.byte	0x78
 5234 00c1 5A000000 		.4byte	0x5a
 5235 00c5 07       		.uleb128 0x7
 5236 00c6 41040000 		.4byte	.LASF16
 5237 00ca 05       		.byte	0x5
 5238 00cb 2B       		.byte	0x2b
 5239 00cc D0000000 		.4byte	0xd0
 5240 00d0 02       		.uleb128 0x2
 5241 00d1 01       		.byte	0x1
 5242 00d2 02       		.byte	0x2
 5243 00d3 53040000 		.4byte	.LASF17
 5244 00d7 07       		.uleb128 0x7
 5245 00d8 A1070000 		.4byte	.LASF18
 5246 00dc 05       		.byte	0x5
 5247 00dd 2C       		.byte	0x2c
 5248 00de 8E000000 		.4byte	0x8e
 5249 00e2 07       		.uleb128 0x7
 5250 00e3 65050000 		.4byte	.LASF19
 5251 00e7 05       		.byte	0x5
 5252 00e8 2D       		.byte	0x2d
 5253 00e9 8E000000 		.4byte	0x8e
 5254 00ed 07       		.uleb128 0x7
 5255 00ee E50A0000 		.4byte	.LASF20
 5256 00f2 05       		.byte	0x5
 5257 00f3 2E       		.byte	0x2e
 5258 00f4 8E000000 		.4byte	0x8e
 5259 00f8 07       		.uleb128 0x7
 5260 00f9 4B070000 		.4byte	.LASF21
ARM GAS  C:\Users\DNIEL~1\AppData\Local\Temp\cccPEDO0.s 			page 94


 5261 00fd 05       		.byte	0x5
 5262 00fe 2F       		.byte	0x2f
 5263 00ff 8E000000 		.4byte	0x8e
 5264 0103 07       		.uleb128 0x7
 5265 0104 F7020000 		.4byte	.LASF22
 5266 0108 05       		.byte	0x5
 5267 0109 30       		.byte	0x30
 5268 010a AF000000 		.4byte	0xaf
 5269 010e 07       		.uleb128 0x7
 5270 010f 8A060000 		.4byte	.LASF23
 5271 0113 05       		.byte	0x5
 5272 0114 31       		.byte	0x31
 5273 0115 A4000000 		.4byte	0xa4
 5274 0119 07       		.uleb128 0x7
 5275 011a 9E020000 		.4byte	.LASF24
 5276 011e 05       		.byte	0x5
 5277 011f 33       		.byte	0x33
 5278 0120 AF000000 		.4byte	0xaf
 5279 0124 07       		.uleb128 0x7
 5280 0125 E0000000 		.4byte	.LASF25
 5281 0129 05       		.byte	0x5
 5282 012a 35       		.byte	0x35
 5283 012b AF000000 		.4byte	0xaf
 5284 012f 07       		.uleb128 0x7
 5285 0130 5E050000 		.4byte	.LASF26
 5286 0134 06       		.byte	0x6
 5287 0135 2A       		.byte	0x2a
 5288 0136 3A010000 		.4byte	0x13a
 5289 013a 08       		.uleb128 0x8
 5290 013b 5E050000 		.4byte	.LASF26
 5291 013f 48       		.byte	0x48
 5292 0140 07       		.byte	0x7
 5293 0141 5E       		.byte	0x5e
 5294 0142 5F020000 		.4byte	0x25f
 5295 0146 09       		.uleb128 0x9
 5296 0147 9E090000 		.4byte	.LASF27
 5297 014b 07       		.byte	0x7
 5298 014c 5F       		.byte	0x5f
 5299 014d 84020000 		.4byte	0x284
 5300 0151 02       		.byte	0x2
 5301 0152 23       		.byte	0x23
 5302 0153 00       		.uleb128 0x0
 5303 0154 09       		.uleb128 0x9
 5304 0155 8F090000 		.4byte	.LASF28
 5305 0159 07       		.byte	0x7
 5306 015a 61       		.byte	0x61
 5307 015b 84020000 		.4byte	0x284
 5308 015f 02       		.byte	0x2
 5309 0160 23       		.byte	0x23
 5310 0161 04       		.uleb128 0x4
 5311 0162 09       		.uleb128 0x9
 5312 0163 59000000 		.4byte	.LASF29
 5313 0167 07       		.byte	0x7
 5314 0168 63       		.byte	0x63
 5315 0169 03010000 		.4byte	0x103
 5316 016d 02       		.byte	0x2
 5317 016e 23       		.byte	0x23
ARM GAS  C:\Users\DNIEL~1\AppData\Local\Temp\cccPEDO0.s 			page 95


 5318 016f 08       		.uleb128 0x8
 5319 0170 09       		.uleb128 0x9
 5320 0171 BD090000 		.4byte	.LASF30
 5321 0175 07       		.byte	0x7
 5322 0176 64       		.byte	0x64
 5323 0177 5B030000 		.4byte	0x35b
 5324 017b 02       		.byte	0x2
 5325 017c 23       		.byte	0x23
 5326 017d 0C       		.uleb128 0xc
 5327 017e 09       		.uleb128 0x9
 5328 017f EC030000 		.4byte	.LASF31
 5329 0183 07       		.byte	0x7
 5330 0184 66       		.byte	0x66
 5331 0185 84020000 		.4byte	0x284
 5332 0189 02       		.byte	0x2
 5333 018a 23       		.byte	0x23
 5334 018b 10       		.uleb128 0x10
 5335 018c 09       		.uleb128 0x9
 5336 018d 85050000 		.4byte	.LASF32
 5337 0191 07       		.byte	0x7
 5338 0192 67       		.byte	0x67
 5339 0193 84020000 		.4byte	0x284
 5340 0197 02       		.byte	0x2
 5341 0198 23       		.byte	0x23
 5342 0199 14       		.uleb128 0x14
 5343 019a 09       		.uleb128 0x9
 5344 019b E2040000 		.4byte	.LASF33
 5345 019f 07       		.byte	0x7
 5346 01a0 6E       		.byte	0x6e
 5347 01a1 78000000 		.4byte	0x78
 5348 01a5 02       		.byte	0x2
 5349 01a6 23       		.byte	0x23
 5350 01a7 18       		.uleb128 0x18
 5351 01a8 09       		.uleb128 0x9
 5352 01a9 92050000 		.4byte	.LASF34
 5353 01ad 07       		.byte	0x7
 5354 01ae 79       		.byte	0x79
 5355 01af E2000000 		.4byte	0xe2
 5356 01b3 02       		.byte	0x2
 5357 01b4 23       		.byte	0x23
 5358 01b5 1C       		.uleb128 0x1c
 5359 01b6 09       		.uleb128 0x9
 5360 01b7 BB060000 		.4byte	.LASF35
 5361 01bb 07       		.byte	0x7
 5362 01bc 7D       		.byte	0x7d
 5363 01bd D7000000 		.4byte	0xd7
 5364 01c1 02       		.byte	0x2
 5365 01c2 23       		.byte	0x23
 5366 01c3 1D       		.uleb128 0x1d
 5367 01c4 09       		.uleb128 0x9
 5368 01c5 C40B0000 		.4byte	.LASF36
 5369 01c9 07       		.byte	0x7
 5370 01ca 82       		.byte	0x82
 5371 01cb ED000000 		.4byte	0xed
 5372 01cf 02       		.byte	0x2
 5373 01d0 23       		.byte	0x23
 5374 01d1 1E       		.uleb128 0x1e
ARM GAS  C:\Users\DNIEL~1\AppData\Local\Temp\cccPEDO0.s 			page 96


 5375 01d2 09       		.uleb128 0x9
 5376 01d3 0A0C0000 		.4byte	.LASF37
 5377 01d7 07       		.byte	0x7
 5378 01d8 88       		.byte	0x88
 5379 01d9 F8000000 		.4byte	0xf8
 5380 01dd 02       		.byte	0x2
 5381 01de 23       		.byte	0x23
 5382 01df 1F       		.uleb128 0x1f
 5383 01e0 09       		.uleb128 0x9
 5384 01e1 36000000 		.4byte	.LASF38
 5385 01e5 07       		.byte	0x7
 5386 01e6 8F       		.byte	0x8f
 5387 01e7 83030000 		.4byte	0x383
 5388 01eb 02       		.byte	0x2
 5389 01ec 23       		.byte	0x23
 5390 01ed 20       		.uleb128 0x20
 5391 01ee 0A       		.uleb128 0xa
 5392 01ef 705F7500 		.ascii	"p_u\000"
 5393 01f3 07       		.byte	0x7
 5394 01f4 B4       		.byte	0xb4
 5395 01f5 38040000 		.4byte	0x438
 5396 01f9 02       		.byte	0x2
 5397 01fa 23       		.byte	0x23
 5398 01fb 24       		.uleb128 0x24
 5399 01fc 09       		.uleb128 0x9
 5400 01fd 71010000 		.4byte	.LASF39
 5401 0201 07       		.byte	0x7
 5402 0202 B9       		.byte	0xb9
 5403 0203 AC020000 		.4byte	0x2ac
 5404 0207 02       		.byte	0x2
 5405 0208 23       		.byte	0x23
 5406 0209 28       		.uleb128 0x28
 5407 020a 09       		.uleb128 0x9
 5408 020b 11010000 		.4byte	.LASF40
 5409 020f 07       		.byte	0x7
 5410 0210 BF       		.byte	0xbf
 5411 0211 8A020000 		.4byte	0x28a
 5412 0215 02       		.byte	0x2
 5413 0216 23       		.byte	0x23
 5414 0217 2C       		.uleb128 0x2c
 5415 0218 09       		.uleb128 0x9
 5416 0219 9B070000 		.4byte	.LASF41
 5417 021d 07       		.byte	0x7
 5418 021e C3       		.byte	0xc3
 5419 021f 0E010000 		.4byte	0x10e
 5420 0223 02       		.byte	0x2
 5421 0224 23       		.byte	0x23
 5422 0225 34       		.uleb128 0x34
 5423 0226 09       		.uleb128 0x9
 5424 0227 4B0C0000 		.4byte	.LASF42
 5425 022b 07       		.byte	0x7
 5426 022c C9       		.byte	0xc9
 5427 022d 19010000 		.4byte	0x119
 5428 0231 02       		.byte	0x2
 5429 0232 23       		.byte	0x23
 5430 0233 38       		.uleb128 0x38
 5431 0234 09       		.uleb128 0x9
ARM GAS  C:\Users\DNIEL~1\AppData\Local\Temp\cccPEDO0.s 			page 97


 5432 0235 E4050000 		.4byte	.LASF43
 5433 0239 07       		.byte	0x7
 5434 023a D0       		.byte	0xd0
 5435 023b 6D040000 		.4byte	0x46d
 5436 023f 02       		.byte	0x2
 5437 0240 23       		.byte	0x23
 5438 0241 3C       		.uleb128 0x3c
 5439 0242 09       		.uleb128 0x9
 5440 0243 D3080000 		.4byte	.LASF44
 5441 0247 07       		.byte	0x7
 5442 0248 D4       		.byte	0xd4
 5443 0249 03010000 		.4byte	0x103
 5444 024d 02       		.byte	0x2
 5445 024e 23       		.byte	0x23
 5446 024f 40       		.uleb128 0x40
 5447 0250 09       		.uleb128 0x9
 5448 0251 C8050000 		.4byte	.LASF45
 5449 0255 07       		.byte	0x7
 5450 0256 DA       		.byte	0xda
 5451 0257 68000000 		.4byte	0x68
 5452 025b 02       		.byte	0x2
 5453 025c 23       		.byte	0x23
 5454 025d 44       		.uleb128 0x44
 5455 025e 00       		.byte	0x0
 5456 025f 0B       		.uleb128 0xb
 5457 0260 08       		.byte	0x8
 5458 0261 06       		.byte	0x6
 5459 0262 61       		.byte	0x61
 5460 0263 84020000 		.4byte	0x284
 5461 0267 09       		.uleb128 0x9
 5462 0268 9E090000 		.4byte	.LASF27
 5463 026c 06       		.byte	0x6
 5464 026d 62       		.byte	0x62
 5465 026e 84020000 		.4byte	0x284
 5466 0272 02       		.byte	0x2
 5467 0273 23       		.byte	0x23
 5468 0274 00       		.uleb128 0x0
 5469 0275 09       		.uleb128 0x9
 5470 0276 8F090000 		.4byte	.LASF28
 5471 027a 06       		.byte	0x6
 5472 027b 64       		.byte	0x64
 5473 027c 84020000 		.4byte	0x284
 5474 0280 02       		.byte	0x2
 5475 0281 23       		.byte	0x23
 5476 0282 04       		.uleb128 0x4
 5477 0283 00       		.byte	0x0
 5478 0284 05       		.uleb128 0x5
 5479 0285 04       		.byte	0x4
 5480 0286 2F010000 		.4byte	0x12f
 5481 028a 07       		.uleb128 0x7
 5482 028b 070E0000 		.4byte	.LASF46
 5483 028f 06       		.byte	0x6
 5484 0290 66       		.byte	0x66
 5485 0291 5F020000 		.4byte	0x25f
 5486 0295 0B       		.uleb128 0xb
 5487 0296 04       		.byte	0x4
 5488 0297 06       		.byte	0x6
ARM GAS  C:\Users\DNIEL~1\AppData\Local\Temp\cccPEDO0.s 			page 98


 5489 0298 6B       		.byte	0x6b
 5490 0299 AC020000 		.4byte	0x2ac
 5491 029d 09       		.uleb128 0x9
 5492 029e 9E090000 		.4byte	.LASF27
 5493 02a2 06       		.byte	0x6
 5494 02a3 6D       		.byte	0x6d
 5495 02a4 84020000 		.4byte	0x284
 5496 02a8 02       		.byte	0x2
 5497 02a9 23       		.byte	0x23
 5498 02aa 00       		.uleb128 0x0
 5499 02ab 00       		.byte	0x0
 5500 02ac 07       		.uleb128 0x7
 5501 02ad 05000000 		.4byte	.LASF47
 5502 02b1 06       		.byte	0x6
 5503 02b2 70       		.byte	0x70
 5504 02b3 95020000 		.4byte	0x295
 5505 02b7 07       		.uleb128 0x7
 5506 02b8 49000000 		.4byte	.LASF48
 5507 02bc 08       		.byte	0x8
 5508 02bd E5       		.byte	0xe5
 5509 02be 68000000 		.4byte	0x68
 5510 02c2 07       		.uleb128 0x7
 5511 02c3 E20C0000 		.4byte	.LASF49
 5512 02c7 08       		.byte	0x8
 5513 02c8 EB       		.byte	0xeb
 5514 02c9 BA000000 		.4byte	0xba
 5515 02cd 0C       		.uleb128 0xc
 5516 02ce 5D080000 		.4byte	.LASF50
 5517 02d2 24       		.byte	0x24
 5518 02d3 08       		.byte	0x8
 5519 02d4 0C01     		.2byte	0x10c
 5520 02d6 5B030000 		.4byte	0x35b
 5521 02da 0D       		.uleb128 0xd
 5522 02db 723400   		.ascii	"r4\000"
 5523 02de 08       		.byte	0x8
 5524 02df 1F01     		.2byte	0x11f
 5525 02e1 B7020000 		.4byte	0x2b7
 5526 02e5 02       		.byte	0x2
 5527 02e6 23       		.byte	0x23
 5528 02e7 00       		.uleb128 0x0
 5529 02e8 0D       		.uleb128 0xd
 5530 02e9 723500   		.ascii	"r5\000"
 5531 02ec 08       		.byte	0x8
 5532 02ed 2001     		.2byte	0x120
 5533 02ef B7020000 		.4byte	0x2b7
 5534 02f3 02       		.byte	0x2
 5535 02f4 23       		.byte	0x23
 5536 02f5 04       		.uleb128 0x4
 5537 02f6 0D       		.uleb128 0xd
 5538 02f7 723600   		.ascii	"r6\000"
 5539 02fa 08       		.byte	0x8
 5540 02fb 2101     		.2byte	0x121
 5541 02fd B7020000 		.4byte	0x2b7
 5542 0301 02       		.byte	0x2
 5543 0302 23       		.byte	0x23
 5544 0303 08       		.uleb128 0x8
 5545 0304 0D       		.uleb128 0xd
ARM GAS  C:\Users\DNIEL~1\AppData\Local\Temp\cccPEDO0.s 			page 99


 5546 0305 723700   		.ascii	"r7\000"
 5547 0308 08       		.byte	0x8
 5548 0309 2201     		.2byte	0x122
 5549 030b B7020000 		.4byte	0x2b7
 5550 030f 02       		.byte	0x2
 5551 0310 23       		.byte	0x23
 5552 0311 0C       		.uleb128 0xc
 5553 0312 0D       		.uleb128 0xd
 5554 0313 723800   		.ascii	"r8\000"
 5555 0316 08       		.byte	0x8
 5556 0317 2301     		.2byte	0x123
 5557 0319 B7020000 		.4byte	0x2b7
 5558 031d 02       		.byte	0x2
 5559 031e 23       		.byte	0x23
 5560 031f 10       		.uleb128 0x10
 5561 0320 0D       		.uleb128 0xd
 5562 0321 723900   		.ascii	"r9\000"
 5563 0324 08       		.byte	0x8
 5564 0325 2401     		.2byte	0x124
 5565 0327 B7020000 		.4byte	0x2b7
 5566 032b 02       		.byte	0x2
 5567 032c 23       		.byte	0x23
 5568 032d 14       		.uleb128 0x14
 5569 032e 0D       		.uleb128 0xd
 5570 032f 72313000 		.ascii	"r10\000"
 5571 0333 08       		.byte	0x8
 5572 0334 2501     		.2byte	0x125
 5573 0336 B7020000 		.4byte	0x2b7
 5574 033a 02       		.byte	0x2
 5575 033b 23       		.byte	0x23
 5576 033c 18       		.uleb128 0x18
 5577 033d 0D       		.uleb128 0xd
 5578 033e 72313100 		.ascii	"r11\000"
 5579 0342 08       		.byte	0x8
 5580 0343 2601     		.2byte	0x126
 5581 0345 B7020000 		.4byte	0x2b7
 5582 0349 02       		.byte	0x2
 5583 034a 23       		.byte	0x23
 5584 034b 1C       		.uleb128 0x1c
 5585 034c 0D       		.uleb128 0xd
 5586 034d 6C7200   		.ascii	"lr\000"
 5587 0350 08       		.byte	0x8
 5588 0351 2701     		.2byte	0x127
 5589 0353 B7020000 		.4byte	0x2b7
 5590 0357 02       		.byte	0x2
 5591 0358 23       		.byte	0x23
 5592 0359 20       		.uleb128 0x20
 5593 035a 00       		.byte	0x0
 5594 035b 0C       		.uleb128 0xc
 5595 035c 9E060000 		.4byte	.LASF51
 5596 0360 04       		.byte	0x4
 5597 0361 08       		.byte	0x8
 5598 0362 3101     		.2byte	0x131
 5599 0364 78030000 		.4byte	0x378
 5600 0368 0D       		.uleb128 0xd
 5601 0369 72313300 		.ascii	"r13\000"
 5602 036d 08       		.byte	0x8
ARM GAS  C:\Users\DNIEL~1\AppData\Local\Temp\cccPEDO0.s 			page 100


 5603 036e 3201     		.2byte	0x132
 5604 0370 78030000 		.4byte	0x378
 5605 0374 02       		.byte	0x2
 5606 0375 23       		.byte	0x23
 5607 0376 00       		.uleb128 0x0
 5608 0377 00       		.byte	0x0
 5609 0378 05       		.uleb128 0x5
 5610 0379 04       		.byte	0x4
 5611 037a CD020000 		.4byte	0x2cd
 5612 037e 0E       		.uleb128 0xe
 5613 037f AF000000 		.4byte	0xaf
 5614 0383 0E       		.uleb128 0xe
 5615 0384 24010000 		.4byte	0x124
 5616 0388 0B       		.uleb128 0xb
 5617 0389 1C       		.byte	0x1c
 5618 038a 09       		.byte	0x9
 5619 038b 5E       		.byte	0x5e
 5620 038c E5030000 		.4byte	0x3e5
 5621 0390 09       		.uleb128 0x9
 5622 0391 ED0D0000 		.4byte	.LASF52
 5623 0395 09       		.byte	0x9
 5624 0396 5F       		.byte	0x5f
 5625 0397 8A020000 		.4byte	0x28a
 5626 039b 02       		.byte	0x2
 5627 039c 23       		.byte	0x23
 5628 039d 00       		.uleb128 0x0
 5629 039e 09       		.uleb128 0x9
 5630 039f AA020000 		.4byte	.LASF53
 5631 03a3 09       		.byte	0x9
 5632 03a4 60       		.byte	0x60
 5633 03a5 03010000 		.4byte	0x103
 5634 03a9 02       		.byte	0x2
 5635 03aa 23       		.byte	0x23
 5636 03ab 08       		.uleb128 0x8
 5637 03ac 09       		.uleb128 0x9
 5638 03ad DC0C0000 		.4byte	.LASF54
 5639 03b1 09       		.byte	0x9
 5640 03b2 62       		.byte	0x62
 5641 03b3 5B030000 		.4byte	0x35b
 5642 03b7 02       		.byte	0x2
 5643 03b8 23       		.byte	0x23
 5644 03b9 0C       		.uleb128 0xc
 5645 03ba 09       		.uleb128 0x9
 5646 03bb 3D050000 		.4byte	.LASF55
 5647 03bf 09       		.byte	0x9
 5648 03c0 65       		.byte	0x65
 5649 03c1 84020000 		.4byte	0x284
 5650 03c5 02       		.byte	0x2
 5651 03c6 23       		.byte	0x23
 5652 03c7 10       		.uleb128 0x10
 5653 03c8 09       		.uleb128 0x9
 5654 03c9 55070000 		.4byte	.LASF56
 5655 03cd 09       		.byte	0x9
 5656 03ce 66       		.byte	0x66
 5657 03cf 84020000 		.4byte	0x284
 5658 03d3 02       		.byte	0x2
 5659 03d4 23       		.byte	0x23
ARM GAS  C:\Users\DNIEL~1\AppData\Local\Temp\cccPEDO0.s 			page 101


 5660 03d5 14       		.uleb128 0x14
 5661 03d6 09       		.uleb128 0x9
 5662 03d7 1F090000 		.4byte	.LASF57
 5663 03db 09       		.byte	0x9
 5664 03dc 69       		.byte	0x69
 5665 03dd 84020000 		.4byte	0x284
 5666 03e1 02       		.byte	0x2
 5667 03e2 23       		.byte	0x23
 5668 03e3 18       		.uleb128 0x18
 5669 03e4 00       		.byte	0x0
 5670 03e5 07       		.uleb128 0x7
 5671 03e6 CB0B0000 		.4byte	.LASF58
 5672 03ea 09       		.byte	0x9
 5673 03eb 6B       		.byte	0x6b
 5674 03ec 88030000 		.4byte	0x388
 5675 03f0 08       		.uleb128 0x8
 5676 03f1 BD040000 		.4byte	.LASF59
 5677 03f5 10       		.byte	0x10
 5678 03f6 0A       		.byte	0xa
 5679 03f7 2C       		.byte	0x2c
 5680 03f8 27040000 		.4byte	0x427
 5681 03fc 09       		.uleb128 0x9
 5682 03fd 34090000 		.4byte	.LASF60
 5683 0401 0A       		.byte	0xa
 5684 0402 2D       		.byte	0x2d
 5685 0403 8A020000 		.4byte	0x28a
 5686 0407 02       		.byte	0x2
 5687 0408 23       		.byte	0x23
 5688 0409 00       		.uleb128 0x0
 5689 040a 09       		.uleb128 0x9
 5690 040b F8000000 		.4byte	.LASF61
 5691 040f 0A       		.byte	0xa
 5692 0410 2F       		.byte	0x2f
 5693 0411 84020000 		.4byte	0x284
 5694 0415 02       		.byte	0x2
 5695 0416 23       		.byte	0x23
 5696 0417 08       		.uleb128 0x8
 5697 0418 09       		.uleb128 0x9
 5698 0419 8F0C0000 		.4byte	.LASF62
 5699 041d 0A       		.byte	0xa
 5700 041e 31       		.byte	0x31
 5701 041f 27040000 		.4byte	0x427
 5702 0423 02       		.byte	0x2
 5703 0424 23       		.byte	0x23
 5704 0425 0C       		.uleb128 0xc
 5705 0426 00       		.byte	0x0
 5706 0427 05       		.uleb128 0x5
 5707 0428 04       		.byte	0x4
 5708 0429 F0030000 		.4byte	0x3f0
 5709 042d 07       		.uleb128 0x7
 5710 042e BD040000 		.4byte	.LASF59
 5711 0432 0A       		.byte	0xa
 5712 0433 33       		.byte	0x33
 5713 0434 F0030000 		.4byte	0x3f0
 5714 0438 0F       		.uleb128 0xf
 5715 0439 04       		.byte	0x4
 5716 043a 07       		.byte	0x7
ARM GAS  C:\Users\DNIEL~1\AppData\Local\Temp\cccPEDO0.s 			page 102


 5717 043b 96       		.byte	0x96
 5718 043c 6D040000 		.4byte	0x46d
 5719 0440 10       		.uleb128 0x10
 5720 0441 3A040000 		.4byte	.LASF63
 5721 0445 07       		.byte	0x7
 5722 0446 9D       		.byte	0x9d
 5723 0447 0E010000 		.4byte	0x10e
 5724 044b 10       		.uleb128 0x10
 5725 044c F50D0000 		.4byte	.LASF64
 5726 0450 07       		.byte	0x7
 5727 0451 A4       		.byte	0xa4
 5728 0452 0E010000 		.4byte	0x10e
 5729 0456 10       		.uleb128 0x10
 5730 0457 E7010000 		.4byte	.LASF65
 5731 045b 07       		.byte	0x7
 5732 045c AB       		.byte	0xab
 5733 045d 68000000 		.4byte	0x68
 5734 0461 10       		.uleb128 0x10
 5735 0462 16020000 		.4byte	.LASF66
 5736 0466 07       		.byte	0x7
 5737 0467 B2       		.byte	0xb2
 5738 0468 19010000 		.4byte	0x119
 5739 046c 00       		.byte	0x0
 5740 046d 05       		.uleb128 0x5
 5741 046e 04       		.byte	0x4
 5742 046f 2D040000 		.4byte	0x42d
 5743 0473 07       		.uleb128 0x7
 5744 0474 CD070000 		.4byte	.LASF67
 5745 0478 0B       		.byte	0xb
 5746 0479 37       		.byte	0x37
 5747 047a 7E040000 		.4byte	0x47e
 5748 047e 08       		.uleb128 0x8
 5749 047f CD070000 		.4byte	.LASF67
 5750 0483 24       		.byte	0x24
 5751 0484 0B       		.byte	0xb
 5752 0485 45       		.byte	0x45
 5753 0486 FB040000 		.4byte	0x4fb
 5754 048a 09       		.uleb128 0x9
 5755 048b FD030000 		.4byte	.LASF68
 5756 048f 0B       		.byte	0xb
 5757 0490 46       		.byte	0x46
 5758 0491 8A020000 		.4byte	0x28a
 5759 0495 02       		.byte	0x2
 5760 0496 23       		.byte	0x23
 5761 0497 00       		.uleb128 0x0
 5762 0498 09       		.uleb128 0x9
 5763 0499 6E0A0000 		.4byte	.LASF69
 5764 049d 0B       		.byte	0xb
 5765 049e 47       		.byte	0x47
 5766 049f 83000000 		.4byte	0x83
 5767 04a3 02       		.byte	0x2
 5768 04a4 23       		.byte	0x23
 5769 04a5 08       		.uleb128 0x8
 5770 04a6 09       		.uleb128 0x9
 5771 04a7 1D0E0000 		.4byte	.LASF70
 5772 04ab 0B       		.byte	0xb
 5773 04ac 48       		.byte	0x48
ARM GAS  C:\Users\DNIEL~1\AppData\Local\Temp\cccPEDO0.s 			page 103


 5774 04ad 1E050000 		.4byte	0x51e
 5775 04b1 02       		.byte	0x2
 5776 04b2 23       		.byte	0x23
 5777 04b3 0C       		.uleb128 0xc
 5778 04b4 09       		.uleb128 0x9
 5779 04b5 C80A0000 		.4byte	.LASF71
 5780 04b9 0B       		.byte	0xb
 5781 04ba 49       		.byte	0x49
 5782 04bb 1E050000 		.4byte	0x51e
 5783 04bf 02       		.byte	0x2
 5784 04c0 23       		.byte	0x23
 5785 04c1 10       		.uleb128 0x10
 5786 04c2 09       		.uleb128 0x9
 5787 04c3 4E050000 		.4byte	.LASF72
 5788 04c7 0B       		.byte	0xb
 5789 04c8 4B       		.byte	0x4b
 5790 04c9 1E050000 		.4byte	0x51e
 5791 04cd 02       		.byte	0x2
 5792 04ce 23       		.byte	0x23
 5793 04cf 14       		.uleb128 0x14
 5794 04d0 09       		.uleb128 0x9
 5795 04d1 7B010000 		.4byte	.LASF73
 5796 04d5 0B       		.byte	0xb
 5797 04d6 4C       		.byte	0x4c
 5798 04d7 1E050000 		.4byte	0x51e
 5799 04db 02       		.byte	0x2
 5800 04dc 23       		.byte	0x23
 5801 04dd 18       		.uleb128 0x18
 5802 04de 09       		.uleb128 0x9
 5803 04df 0F0A0000 		.4byte	.LASF74
 5804 04e3 0B       		.byte	0xb
 5805 04e4 4D       		.byte	0x4d
 5806 04e5 FB040000 		.4byte	0x4fb
 5807 04e9 02       		.byte	0x2
 5808 04ea 23       		.byte	0x23
 5809 04eb 1C       		.uleb128 0x1c
 5810 04ec 09       		.uleb128 0x9
 5811 04ed 12090000 		.4byte	.LASF75
 5812 04f1 0B       		.byte	0xb
 5813 04f2 4E       		.byte	0x4e
 5814 04f3 68000000 		.4byte	0x68
 5815 04f7 02       		.byte	0x2
 5816 04f8 23       		.byte	0x23
 5817 04f9 20       		.uleb128 0x20
 5818 04fa 00       		.byte	0x0
 5819 04fb 07       		.uleb128 0x7
 5820 04fc 9B010000 		.4byte	.LASF76
 5821 0500 0B       		.byte	0xb
 5822 0501 3A       		.byte	0x3a
 5823 0502 06050000 		.4byte	0x506
 5824 0506 05       		.uleb128 0x5
 5825 0507 04       		.byte	0x4
 5826 0508 0C050000 		.4byte	0x50c
 5827 050c 11       		.uleb128 0x11
 5828 050d 01       		.byte	0x1
 5829 050e 18050000 		.4byte	0x518
 5830 0512 12       		.uleb128 0x12
ARM GAS  C:\Users\DNIEL~1\AppData\Local\Temp\cccPEDO0.s 			page 104


 5831 0513 18050000 		.4byte	0x518
 5832 0517 00       		.byte	0x0
 5833 0518 05       		.uleb128 0x5
 5834 0519 04       		.byte	0x4
 5835 051a 73040000 		.4byte	0x473
 5836 051e 05       		.uleb128 0x5
 5837 051f 04       		.byte	0x4
 5838 0520 8E000000 		.4byte	0x8e
 5839 0524 07       		.uleb128 0x7
 5840 0525 D7040000 		.4byte	.LASF77
 5841 0529 0B       		.byte	0xb
 5842 052a 82       		.byte	0x82
 5843 052b 73040000 		.4byte	0x473
 5844 052f 07       		.uleb128 0x7
 5845 0530 C3040000 		.4byte	.LASF78
 5846 0534 0B       		.byte	0xb
 5847 0535 F5       		.byte	0xf5
 5848 0536 73040000 		.4byte	0x473
 5849 053a 05       		.uleb128 0x5
 5850 053b 04       		.byte	0x4
 5851 053c 40050000 		.4byte	0x540
 5852 0540 06       		.uleb128 0x6
 5853 0541 8E000000 		.4byte	0x8e
 5854 0545 13       		.uleb128 0x13
 5855 0546 AF000000 		.4byte	0xaf
 5856 054a 55050000 		.4byte	0x555
 5857 054e 14       		.uleb128 0x14
 5858 054f 4C000000 		.4byte	0x4c
 5859 0553 01       		.byte	0x1
 5860 0554 00       		.byte	0x0
 5861 0555 13       		.uleb128 0x13
 5862 0556 AF000000 		.4byte	0xaf
 5863 055a 65050000 		.4byte	0x565
 5864 055e 14       		.uleb128 0x14
 5865 055f 4C000000 		.4byte	0x4c
 5866 0563 0E       		.byte	0xe
 5867 0564 00       		.byte	0x0
 5868 0565 0E       		.uleb128 0xe
 5869 0566 A4000000 		.4byte	0xa4
 5870 056a 15       		.uleb128 0x15
 5871 056b 90       		.byte	0x90
 5872 056c 0C       		.byte	0xc
 5873 056d 5804     		.2byte	0x458
 5874 056f 57070000 		.4byte	0x757
 5875 0573 0D       		.uleb128 0xd
 5876 0574 435200   		.ascii	"CR\000"
 5877 0577 0C       		.byte	0xc
 5878 0578 5A04     		.2byte	0x45a
 5879 057a 7E030000 		.4byte	0x37e
 5880 057e 02       		.byte	0x2
 5881 057f 23       		.byte	0x23
 5882 0580 00       		.uleb128 0x0
 5883 0581 16       		.uleb128 0x16
 5884 0582 9A050000 		.4byte	.LASF79
 5885 0586 0C       		.byte	0xc
 5886 0587 5B04     		.2byte	0x45b
 5887 0589 7E030000 		.4byte	0x37e
ARM GAS  C:\Users\DNIEL~1\AppData\Local\Temp\cccPEDO0.s 			page 105


 5888 058d 02       		.byte	0x2
 5889 058e 23       		.byte	0x23
 5890 058f 04       		.uleb128 0x4
 5891 0590 16       		.uleb128 0x16
 5892 0591 E6090000 		.4byte	.LASF80
 5893 0595 0C       		.byte	0xc
 5894 0596 5C04     		.2byte	0x45c
 5895 0598 7E030000 		.4byte	0x37e
 5896 059c 02       		.byte	0x2
 5897 059d 23       		.byte	0x23
 5898 059e 08       		.uleb128 0x8
 5899 059f 0D       		.uleb128 0xd
 5900 05a0 43495200 		.ascii	"CIR\000"
 5901 05a4 0C       		.byte	0xc
 5902 05a5 5D04     		.2byte	0x45d
 5903 05a7 7E030000 		.4byte	0x37e
 5904 05ab 02       		.byte	0x2
 5905 05ac 23       		.byte	0x23
 5906 05ad 0C       		.uleb128 0xc
 5907 05ae 16       		.uleb128 0x16
 5908 05af 140E0000 		.4byte	.LASF81
 5909 05b3 0C       		.byte	0xc
 5910 05b4 5E04     		.2byte	0x45e
 5911 05b6 7E030000 		.4byte	0x37e
 5912 05ba 02       		.byte	0x2
 5913 05bb 23       		.byte	0x23
 5914 05bc 10       		.uleb128 0x10
 5915 05bd 16       		.uleb128 0x16
 5916 05be 64080000 		.4byte	.LASF82
 5917 05c2 0C       		.byte	0xc
 5918 05c3 5F04     		.2byte	0x45f
 5919 05c5 7E030000 		.4byte	0x37e
 5920 05c9 02       		.byte	0x2
 5921 05ca 23       		.byte	0x23
 5922 05cb 14       		.uleb128 0x14
 5923 05cc 16       		.uleb128 0x16
 5924 05cd CF030000 		.4byte	.LASF83
 5925 05d1 0C       		.byte	0xc
 5926 05d2 6004     		.2byte	0x460
 5927 05d4 7E030000 		.4byte	0x37e
 5928 05d8 02       		.byte	0x2
 5929 05d9 23       		.byte	0x23
 5930 05da 18       		.uleb128 0x18
 5931 05db 16       		.uleb128 0x16
 5932 05dc 1C010000 		.4byte	.LASF84
 5933 05e0 0C       		.byte	0xc
 5934 05e1 6104     		.2byte	0x461
 5935 05e3 AF000000 		.4byte	0xaf
 5936 05e7 02       		.byte	0x2
 5937 05e8 23       		.byte	0x23
 5938 05e9 1C       		.uleb128 0x1c
 5939 05ea 16       		.uleb128 0x16
 5940 05eb E9040000 		.4byte	.LASF85
 5941 05ef 0C       		.byte	0xc
 5942 05f0 6204     		.2byte	0x462
 5943 05f2 7E030000 		.4byte	0x37e
 5944 05f6 02       		.byte	0x2
ARM GAS  C:\Users\DNIEL~1\AppData\Local\Temp\cccPEDO0.s 			page 106


 5945 05f7 23       		.byte	0x23
 5946 05f8 20       		.uleb128 0x20
 5947 05f9 16       		.uleb128 0x16
 5948 05fa 80000000 		.4byte	.LASF86
 5949 05fe 0C       		.byte	0xc
 5950 05ff 6304     		.2byte	0x463
 5951 0601 7E030000 		.4byte	0x37e
 5952 0605 02       		.byte	0x2
 5953 0606 23       		.byte	0x23
 5954 0607 24       		.uleb128 0x24
 5955 0608 16       		.uleb128 0x16
 5956 0609 DE080000 		.4byte	.LASF87
 5957 060d 0C       		.byte	0xc
 5958 060e 6404     		.2byte	0x464
 5959 0610 45050000 		.4byte	0x545
 5960 0614 02       		.byte	0x2
 5961 0615 23       		.byte	0x23
 5962 0616 28       		.uleb128 0x28
 5963 0617 16       		.uleb128 0x16
 5964 0618 EF020000 		.4byte	.LASF88
 5965 061c 0C       		.byte	0xc
 5966 061d 6504     		.2byte	0x465
 5967 061f 7E030000 		.4byte	0x37e
 5968 0623 02       		.byte	0x2
 5969 0624 23       		.byte	0x23
 5970 0625 30       		.uleb128 0x30
 5971 0626 16       		.uleb128 0x16
 5972 0627 260B0000 		.4byte	.LASF89
 5973 062b 0C       		.byte	0xc
 5974 062c 6604     		.2byte	0x466
 5975 062e 7E030000 		.4byte	0x37e
 5976 0632 02       		.byte	0x2
 5977 0633 23       		.byte	0x23
 5978 0634 34       		.uleb128 0x34
 5979 0635 16       		.uleb128 0x16
 5980 0636 CF040000 		.4byte	.LASF90
 5981 063a 0C       		.byte	0xc
 5982 063b 6704     		.2byte	0x467
 5983 063d 7E030000 		.4byte	0x37e
 5984 0641 02       		.byte	0x2
 5985 0642 23       		.byte	0x23
 5986 0643 38       		.uleb128 0x38
 5987 0644 16       		.uleb128 0x16
 5988 0645 610D0000 		.4byte	.LASF91
 5989 0649 0C       		.byte	0xc
 5990 064a 6804     		.2byte	0x468
 5991 064c AF000000 		.4byte	0xaf
 5992 0650 02       		.byte	0x2
 5993 0651 23       		.byte	0x23
 5994 0652 3C       		.uleb128 0x3c
 5995 0653 16       		.uleb128 0x16
 5996 0654 24000000 		.4byte	.LASF92
 5997 0658 0C       		.byte	0xc
 5998 0659 6904     		.2byte	0x469
 5999 065b 7E030000 		.4byte	0x37e
 6000 065f 02       		.byte	0x2
 6001 0660 23       		.byte	0x23
ARM GAS  C:\Users\DNIEL~1\AppData\Local\Temp\cccPEDO0.s 			page 107


 6002 0661 40       		.uleb128 0x40
 6003 0662 16       		.uleb128 0x16
 6004 0663 96090000 		.4byte	.LASF93
 6005 0667 0C       		.byte	0xc
 6006 0668 6A04     		.2byte	0x46a
 6007 066a 7E030000 		.4byte	0x37e
 6008 066e 02       		.byte	0x2
 6009 066f 23       		.byte	0x23
 6010 0670 44       		.uleb128 0x44
 6011 0671 16       		.uleb128 0x16
 6012 0672 F4080000 		.4byte	.LASF94
 6013 0676 0C       		.byte	0xc
 6014 0677 6B04     		.2byte	0x46b
 6015 0679 45050000 		.4byte	0x545
 6016 067d 02       		.byte	0x2
 6017 067e 23       		.byte	0x23
 6018 067f 48       		.uleb128 0x48
 6019 0680 16       		.uleb128 0x16
 6020 0681 A9070000 		.4byte	.LASF95
 6021 0685 0C       		.byte	0xc
 6022 0686 6C04     		.2byte	0x46c
 6023 0688 7E030000 		.4byte	0x37e
 6024 068c 02       		.byte	0x2
 6025 068d 23       		.byte	0x23
 6026 068e 50       		.uleb128 0x50
 6027 068f 16       		.uleb128 0x16
 6028 0690 2A020000 		.4byte	.LASF96
 6029 0694 0C       		.byte	0xc
 6030 0695 6D04     		.2byte	0x46d
 6031 0697 7E030000 		.4byte	0x37e
 6032 069b 02       		.byte	0x2
 6033 069c 23       		.byte	0x23
 6034 069d 54       		.uleb128 0x54
 6035 069e 16       		.uleb128 0x16
 6036 069f DB0A0000 		.4byte	.LASF97
 6037 06a3 0C       		.byte	0xc
 6038 06a4 6E04     		.2byte	0x46e
 6039 06a6 7E030000 		.4byte	0x37e
 6040 06aa 02       		.byte	0x2
 6041 06ab 23       		.byte	0x23
 6042 06ac 58       		.uleb128 0x58
 6043 06ad 16       		.uleb128 0x16
 6044 06ae FE080000 		.4byte	.LASF98
 6045 06b2 0C       		.byte	0xc
 6046 06b3 6F04     		.2byte	0x46f
 6047 06b5 AF000000 		.4byte	0xaf
 6048 06b9 02       		.byte	0x2
 6049 06ba 23       		.byte	0x23
 6050 06bb 5C       		.uleb128 0x5c
 6051 06bc 16       		.uleb128 0x16
 6052 06bd 80060000 		.4byte	.LASF99
 6053 06c1 0C       		.byte	0xc
 6054 06c2 7004     		.2byte	0x470
 6055 06c4 7E030000 		.4byte	0x37e
 6056 06c8 02       		.byte	0x2
 6057 06c9 23       		.byte	0x23
 6058 06ca 60       		.uleb128 0x60
ARM GAS  C:\Users\DNIEL~1\AppData\Local\Temp\cccPEDO0.s 			page 108


 6059 06cb 16       		.uleb128 0x16
 6060 06cc 65000000 		.4byte	.LASF100
 6061 06d0 0C       		.byte	0xc
 6062 06d1 7104     		.2byte	0x471
 6063 06d3 7E030000 		.4byte	0x37e
 6064 06d7 02       		.byte	0x2
 6065 06d8 23       		.byte	0x23
 6066 06d9 64       		.uleb128 0x64
 6067 06da 16       		.uleb128 0x16
 6068 06db 08090000 		.4byte	.LASF101
 6069 06df 0C       		.byte	0xc
 6070 06e0 7204     		.2byte	0x472
 6071 06e2 45050000 		.4byte	0x545
 6072 06e6 02       		.byte	0x2
 6073 06e7 23       		.byte	0x23
 6074 06e8 68       		.uleb128 0x68
 6075 06e9 16       		.uleb128 0x16
 6076 06ea 00000000 		.4byte	.LASF102
 6077 06ee 0C       		.byte	0xc
 6078 06ef 7304     		.2byte	0x473
 6079 06f1 7E030000 		.4byte	0x37e
 6080 06f5 02       		.byte	0x2
 6081 06f6 23       		.byte	0x23
 6082 06f7 70       		.uleb128 0x70
 6083 06f8 0D       		.uleb128 0xd
 6084 06f9 43535200 		.ascii	"CSR\000"
 6085 06fd 0C       		.byte	0xc
 6086 06fe 7404     		.2byte	0x474
 6087 0700 7E030000 		.4byte	0x37e
 6088 0704 02       		.byte	0x2
 6089 0705 23       		.byte	0x23
 6090 0706 74       		.uleb128 0x74
 6091 0707 16       		.uleb128 0x16
 6092 0708 810D0000 		.4byte	.LASF103
 6093 070c 0C       		.byte	0xc
 6094 070d 7504     		.2byte	0x475
 6095 070f 45050000 		.4byte	0x545
 6096 0713 02       		.byte	0x2
 6097 0714 23       		.byte	0x23
 6098 0715 78       		.uleb128 0x78
 6099 0716 16       		.uleb128 0x16
 6100 0717 C40D0000 		.4byte	.LASF104
 6101 071b 0C       		.byte	0xc
 6102 071c 7604     		.2byte	0x476
 6103 071e 7E030000 		.4byte	0x37e
 6104 0722 03       		.byte	0x3
 6105 0723 23       		.byte	0x23
 6106 0724 8001     		.uleb128 0x80
 6107 0726 16       		.uleb128 0x16
 6108 0727 6B0B0000 		.4byte	.LASF105
 6109 072b 0C       		.byte	0xc
 6110 072c 7704     		.2byte	0x477
 6111 072e 7E030000 		.4byte	0x37e
 6112 0732 03       		.byte	0x3
 6113 0733 23       		.byte	0x23
 6114 0734 8401     		.uleb128 0x84
 6115 0736 16       		.uleb128 0x16
ARM GAS  C:\Users\DNIEL~1\AppData\Local\Temp\cccPEDO0.s 			page 109


 6116 0737 11000000 		.4byte	.LASF106
 6117 073b 0C       		.byte	0xc
 6118 073c 7804     		.2byte	0x478
 6119 073e 7E030000 		.4byte	0x37e
 6120 0742 03       		.byte	0x3
 6121 0743 23       		.byte	0x23
 6122 0744 8801     		.uleb128 0x88
 6123 0746 16       		.uleb128 0x16
 6124 0747 1C000000 		.4byte	.LASF107
 6125 074b 0C       		.byte	0xc
 6126 074c 7904     		.2byte	0x479
 6127 074e 7E030000 		.4byte	0x37e
 6128 0752 03       		.byte	0x3
 6129 0753 23       		.byte	0x23
 6130 0754 8C01     		.uleb128 0x8c
 6131 0756 00       		.byte	0x0
 6132 0757 17       		.uleb128 0x17
 6133 0758 D3010000 		.4byte	.LASF108
 6134 075c 0C       		.byte	0xc
 6135 075d 7B04     		.2byte	0x47b
 6136 075f 6A050000 		.4byte	0x56a
 6137 0763 05       		.uleb128 0x5
 6138 0764 04       		.byte	0x4
 6139 0765 7E030000 		.4byte	0x37e
 6140 0769 13       		.uleb128 0x13
 6141 076a 8E000000 		.4byte	0x8e
 6142 076e 79070000 		.4byte	0x779
 6143 0772 14       		.uleb128 0x14
 6144 0773 4C000000 		.4byte	0x4c
 6145 0777 07       		.byte	0x7
 6146 0778 00       		.byte	0x0
 6147 0779 07       		.uleb128 0x7
 6148 077a B60C0000 		.4byte	.LASF109
 6149 077e 0D       		.byte	0xd
 6150 077f E9       		.byte	0xe9
 6151 0780 84070000 		.4byte	0x784
 6152 0784 18       		.uleb128 0x18
 6153 0785 B60C0000 		.4byte	.LASF109
 6154 0789 B801     		.2byte	0x1b8
 6155 078b 0E       		.byte	0xe
 6156 078c 7201     		.2byte	0x172
 6157 078e DD080000 		.4byte	0x8dd
 6158 0792 16       		.uleb128 0x16
 6159 0793 3D0C0000 		.4byte	.LASF110
 6160 0797 0E       		.byte	0xe
 6161 0798 7601     		.2byte	0x176
 6162 079a 0F090000 		.4byte	0x90f
 6163 079e 02       		.byte	0x2
 6164 079f 23       		.byte	0x23
 6165 07a0 00       		.uleb128 0x0
 6166 07a1 16       		.uleb128 0x16
 6167 07a2 CC080000 		.4byte	.LASF111
 6168 07a6 0E       		.byte	0xe
 6169 07a7 7A01     		.2byte	0x17a
 6170 07a9 3A130000 		.4byte	0x133a
 6171 07ad 02       		.byte	0x2
 6172 07ae 23       		.byte	0x23
ARM GAS  C:\Users\DNIEL~1\AppData\Local\Temp\cccPEDO0.s 			page 110


 6173 07af 04       		.uleb128 0x4
 6174 07b0 16       		.uleb128 0x16
 6175 07b1 8E030000 		.4byte	.LASF112
 6176 07b5 0E       		.byte	0xe
 6177 07b6 7E01     		.2byte	0x17e
 6178 07b8 99000000 		.4byte	0x99
 6179 07bc 02       		.byte	0x2
 6180 07bd 23       		.byte	0x23
 6181 07be 08       		.uleb128 0x8
 6182 07bf 16       		.uleb128 0x16
 6183 07c0 AD030000 		.4byte	.LASF113
 6184 07c4 0E       		.byte	0xe
 6185 07c5 8201     		.2byte	0x182
 6186 07c7 99000000 		.4byte	0x99
 6187 07cb 02       		.byte	0x2
 6188 07cc 23       		.byte	0x23
 6189 07cd 0A       		.uleb128 0xa
 6190 07ce 0D       		.uleb128 0xd
 6191 07cf 65706300 		.ascii	"epc\000"
 6192 07d3 0E       		.byte	0xe
 6193 07d4 8601     		.2byte	0x186
 6194 07d6 45130000 		.4byte	0x1345
 6195 07da 02       		.byte	0x2
 6196 07db 23       		.byte	0x23
 6197 07dc 0C       		.uleb128 0xc
 6198 07dd 16       		.uleb128 0x16
 6199 07de E4060000 		.4byte	.LASF114
 6200 07e2 0E       		.byte	0xe
 6201 07e3 8D01     		.2byte	0x18d
 6202 07e5 60130000 		.4byte	0x1360
 6203 07e9 02       		.byte	0x2
 6204 07ea 23       		.byte	0x23
 6205 07eb 1C       		.uleb128 0x1c
 6206 07ec 16       		.uleb128 0x16
 6207 07ed 29090000 		.4byte	.LASF115
 6208 07f1 0E       		.byte	0xe
 6209 07f2 9401     		.2byte	0x194
 6210 07f4 60130000 		.4byte	0x1360
 6211 07f8 02       		.byte	0x2
 6212 07f9 23       		.byte	0x23
 6213 07fa 28       		.uleb128 0x28
 6214 07fb 16       		.uleb128 0x16
 6215 07fc EB070000 		.4byte	.LASF116
 6216 0800 0E       		.byte	0xe
 6217 0801 9801     		.2byte	0x198
 6218 0803 75090000 		.4byte	0x975
 6219 0807 02       		.byte	0x2
 6220 0808 23       		.byte	0x23
 6221 0809 34       		.uleb128 0x34
 6222 080a 16       		.uleb128 0x16
 6223 080b 6E050000 		.4byte	.LASF117
 6224 080f 0E       		.byte	0xe
 6225 0810 9C01     		.2byte	0x19c
 6226 0812 1E050000 		.4byte	0x51e
 6227 0816 02       		.byte	0x2
 6228 0817 23       		.byte	0x23
 6229 0818 38       		.uleb128 0x38
ARM GAS  C:\Users\DNIEL~1\AppData\Local\Temp\cccPEDO0.s 			page 111


 6230 0819 16       		.uleb128 0x16
 6231 081a A6060000 		.4byte	.LASF118
 6232 081e 0E       		.byte	0xe
 6233 081f A001     		.2byte	0x1a0
 6234 0821 83000000 		.4byte	0x83
 6235 0825 02       		.byte	0x2
 6236 0826 23       		.byte	0x23
 6237 0827 3C       		.uleb128 0x3c
 6238 0828 16       		.uleb128 0x16
 6239 0829 EE010000 		.4byte	.LASF119
 6240 082d 0E       		.byte	0xe
 6241 082e A401     		.2byte	0x1a4
 6242 0830 EF090000 		.4byte	0x9ef
 6243 0834 02       		.byte	0x2
 6244 0835 23       		.byte	0x23
 6245 0836 40       		.uleb128 0x40
 6246 0837 16       		.uleb128 0x16
 6247 0838 08030000 		.4byte	.LASF120
 6248 083c 0E       		.byte	0xe
 6249 083d A801     		.2byte	0x1a8
 6250 083f 69070000 		.4byte	0x769
 6251 0843 02       		.byte	0x2
 6252 0844 23       		.byte	0x23
 6253 0845 44       		.uleb128 0x44
 6254 0846 16       		.uleb128 0x16
 6255 0847 AA050000 		.4byte	.LASF121
 6256 084b 0E       		.byte	0xe
 6257 084c AC01     		.2byte	0x1ac
 6258 084e 99000000 		.4byte	0x99
 6259 0852 02       		.byte	0x2
 6260 0853 23       		.byte	0x23
 6261 0854 4C       		.uleb128 0x4c
 6262 0855 16       		.uleb128 0x16
 6263 0856 FF0A0000 		.4byte	.LASF122
 6264 085a 0E       		.byte	0xe
 6265 085b B001     		.2byte	0x1b0
 6266 085d 8E000000 		.4byte	0x8e
 6267 0861 02       		.byte	0x2
 6268 0862 23       		.byte	0x23
 6269 0863 4E       		.uleb128 0x4e
 6270 0864 16       		.uleb128 0x16
 6271 0865 31010000 		.4byte	.LASF123
 6272 0869 0E       		.byte	0xe
 6273 086a B401     		.2byte	0x1b4
 6274 086c 8E000000 		.4byte	0x8e
 6275 0870 02       		.byte	0x2
 6276 0871 23       		.byte	0x23
 6277 0872 4F       		.uleb128 0x4f
 6278 0873 0D       		.uleb128 0xd
 6279 0874 6F746700 		.ascii	"otg\000"
 6280 0878 0E       		.byte	0xe
 6281 0879 BC01     		.2byte	0x1bc
 6282 087b 70130000 		.4byte	0x1370
 6283 087f 02       		.byte	0x2
 6284 0880 23       		.byte	0x23
 6285 0881 50       		.uleb128 0x50
 6286 0882 16       		.uleb128 0x16
ARM GAS  C:\Users\DNIEL~1\AppData\Local\Temp\cccPEDO0.s 			page 112


 6287 0883 070D0000 		.4byte	.LASF124
 6288 0887 0E       		.byte	0xe
 6289 0888 C001     		.2byte	0x1c0
 6290 088a 76130000 		.4byte	0x1376
 6291 088e 02       		.byte	0x2
 6292 088f 23       		.byte	0x23
 6293 0890 54       		.uleb128 0x54
 6294 0891 16       		.uleb128 0x16
 6295 0892 930B0000 		.4byte	.LASF125
 6296 0896 0E       		.byte	0xe
 6297 0897 C401     		.2byte	0x1c4
 6298 0899 AF000000 		.4byte	0xaf
 6299 089d 02       		.byte	0x2
 6300 089e 23       		.byte	0x23
 6301 089f 58       		.uleb128 0x58
 6302 08a0 16       		.uleb128 0x16
 6303 08a1 E50B0000 		.4byte	.LASF126
 6304 08a5 0E       		.byte	0xe
 6305 08a6 C801     		.2byte	0x1c8
 6306 08a8 AF000000 		.4byte	0xaf
 6307 08ac 02       		.byte	0x2
 6308 08ad 23       		.byte	0x23
 6309 08ae 5C       		.uleb128 0x5c
 6310 08af 16       		.uleb128 0x16
 6311 08b0 BC020000 		.4byte	.LASF127
 6312 08b4 0E       		.byte	0xe
 6313 08b5 CC01     		.2byte	0x1cc
 6314 08b7 84020000 		.4byte	0x284
 6315 08bb 02       		.byte	0x2
 6316 08bc 23       		.byte	0x23
 6317 08bd 60       		.uleb128 0x60
 6318 08be 16       		.uleb128 0x16
 6319 08bf 68010000 		.4byte	.LASF128
 6320 08c3 0E       		.byte	0xe
 6321 08c4 D001     		.2byte	0x1d0
 6322 08c6 84020000 		.4byte	0x284
 6323 08ca 02       		.byte	0x2
 6324 08cb 23       		.byte	0x23
 6325 08cc 64       		.uleb128 0x64
 6326 08cd 16       		.uleb128 0x16
 6327 08ce 590D0000 		.4byte	.LASF129
 6328 08d2 0E       		.byte	0xe
 6329 08d3 D401     		.2byte	0x1d4
 6330 08d5 81130000 		.4byte	0x1381
 6331 08d9 02       		.byte	0x2
 6332 08da 23       		.byte	0x23
 6333 08db 68       		.uleb128 0x68
 6334 08dc 00       		.byte	0x0
 6335 08dd 07       		.uleb128 0x7
 6336 08de D50B0000 		.4byte	.LASF130
 6337 08e2 0D       		.byte	0xd
 6338 08e3 EE       		.byte	0xee
 6339 08e4 8E000000 		.4byte	0x8e
 6340 08e8 19       		.uleb128 0x19
 6341 08e9 01       		.byte	0x1
 6342 08ea 0D       		.byte	0xd
 6343 08eb F3       		.byte	0xf3
ARM GAS  C:\Users\DNIEL~1\AppData\Local\Temp\cccPEDO0.s 			page 113


 6344 08ec 0F090000 		.4byte	0x90f
 6345 08f0 1A       		.uleb128 0x1a
 6346 08f1 8C080000 		.4byte	.LASF131
 6347 08f5 00       		.sleb128 0
 6348 08f6 1A       		.uleb128 0x1a
 6349 08f7 FE0D0000 		.4byte	.LASF132
 6350 08fb 01       		.sleb128 1
 6351 08fc 1A       		.uleb128 0x1a
 6352 08fd 90000000 		.4byte	.LASF133
 6353 0901 02       		.sleb128 2
 6354 0902 1A       		.uleb128 0x1a
 6355 0903 F1090000 		.4byte	.LASF134
 6356 0907 03       		.sleb128 3
 6357 0908 1A       		.uleb128 0x1a
 6358 0909 48040000 		.4byte	.LASF135
 6359 090d 04       		.sleb128 4
 6360 090e 00       		.byte	0x0
 6361 090f 07       		.uleb128 0x7
 6362 0910 1E060000 		.4byte	.LASF136
 6363 0914 0D       		.byte	0xd
 6364 0915 F9       		.byte	0xf9
 6365 0916 E8080000 		.4byte	0x8e8
 6366 091a 19       		.uleb128 0x19
 6367 091b 01       		.byte	0x1
 6368 091c 0D       		.byte	0xd
 6369 091d FE       		.byte	0xfe
 6370 091e 35090000 		.4byte	0x935
 6371 0922 1A       		.uleb128 0x1a
 6372 0923 0E030000 		.4byte	.LASF137
 6373 0927 00       		.sleb128 0
 6374 0928 1A       		.uleb128 0x1a
 6375 0929 74030000 		.4byte	.LASF138
 6376 092d 01       		.sleb128 1
 6377 092e 1A       		.uleb128 0x1a
 6378 092f 2E0A0000 		.4byte	.LASF139
 6379 0933 02       		.sleb128 2
 6380 0934 00       		.byte	0x0
 6381 0935 17       		.uleb128 0x17
 6382 0936 760B0000 		.4byte	.LASF140
 6383 093a 0D       		.byte	0xd
 6384 093b 0201     		.2byte	0x102
 6385 093d 1A090000 		.4byte	0x91a
 6386 0941 1B       		.uleb128 0x1b
 6387 0942 01       		.byte	0x1
 6388 0943 0D       		.byte	0xd
 6389 0944 0701     		.2byte	0x107
 6390 0946 75090000 		.4byte	0x975
 6391 094a 1A       		.uleb128 0x1a
 6392 094b 5C020000 		.4byte	.LASF141
 6393 094f 00       		.sleb128 0
 6394 0950 1A       		.uleb128 0x1a
 6395 0951 26010000 		.4byte	.LASF142
 6396 0955 01       		.sleb128 1
 6397 0956 1A       		.uleb128 0x1a
 6398 0957 38030000 		.4byte	.LASF143
 6399 095b 02       		.sleb128 2
 6400 095c 1A       		.uleb128 0x1a
ARM GAS  C:\Users\DNIEL~1\AppData\Local\Temp\cccPEDO0.s 			page 114


 6401 095d 86040000 		.4byte	.LASF144
 6402 0961 03       		.sleb128 3
 6403 0962 1A       		.uleb128 0x1a
 6404 0963 990D0000 		.4byte	.LASF145
 6405 0967 04       		.sleb128 4
 6406 0968 1A       		.uleb128 0x1a
 6407 0969 250D0000 		.4byte	.LASF146
 6408 096d 05       		.sleb128 5
 6409 096e 1A       		.uleb128 0x1a
 6410 096f B00B0000 		.4byte	.LASF147
 6411 0973 06       		.sleb128 6
 6412 0974 00       		.byte	0x0
 6413 0975 17       		.uleb128 0x17
 6414 0976 B60D0000 		.4byte	.LASF148
 6415 097a 0D       		.byte	0xd
 6416 097b 0F01     		.2byte	0x10f
 6417 097d 41090000 		.4byte	0x941
 6418 0981 1B       		.uleb128 0x1b
 6419 0982 01       		.byte	0x1
 6420 0983 0D       		.byte	0xd
 6421 0984 1401     		.2byte	0x114
 6422 0986 AF090000 		.4byte	0x9af
 6423 098a 1A       		.uleb128 0x1a
 6424 098b 45020000 		.4byte	.LASF149
 6425 098f 00       		.sleb128 0
 6426 0990 1A       		.uleb128 0x1a
 6427 0991 03050000 		.4byte	.LASF150
 6428 0995 01       		.sleb128 1
 6429 0996 1A       		.uleb128 0x1a
 6430 0997 CA0D0000 		.4byte	.LASF151
 6431 099b 02       		.sleb128 2
 6432 099c 1A       		.uleb128 0x1a
 6433 099d BB000000 		.4byte	.LASF152
 6434 09a1 03       		.sleb128 3
 6435 09a2 1A       		.uleb128 0x1a
 6436 09a3 2C0C0000 		.4byte	.LASF153
 6437 09a7 04       		.sleb128 4
 6438 09a8 1A       		.uleb128 0x1a
 6439 09a9 39070000 		.4byte	.LASF154
 6440 09ad 05       		.sleb128 5
 6441 09ae 00       		.byte	0x0
 6442 09af 17       		.uleb128 0x17
 6443 09b0 760D0000 		.4byte	.LASF155
 6444 09b4 0D       		.byte	0xd
 6445 09b5 1B01     		.2byte	0x11b
 6446 09b7 81090000 		.4byte	0x981
 6447 09bb 15       		.uleb128 0x15
 6448 09bc 08       		.byte	0x8
 6449 09bd 0D       		.byte	0xd
 6450 09be 2001     		.2byte	0x120
 6451 09c0 E3090000 		.4byte	0x9e3
 6452 09c4 16       		.uleb128 0x16
 6453 09c5 C4020000 		.4byte	.LASF156
 6454 09c9 0D       		.byte	0xd
 6455 09ca 2401     		.2byte	0x124
 6456 09cc 83000000 		.4byte	0x83
 6457 09d0 02       		.byte	0x2
ARM GAS  C:\Users\DNIEL~1\AppData\Local\Temp\cccPEDO0.s 			page 115


 6458 09d1 23       		.byte	0x23
 6459 09d2 00       		.uleb128 0x0
 6460 09d3 16       		.uleb128 0x16
 6461 09d4 1D0C0000 		.4byte	.LASF157
 6462 09d8 0D       		.byte	0xd
 6463 09d9 2801     		.2byte	0x128
 6464 09db 3A050000 		.4byte	0x53a
 6465 09df 02       		.byte	0x2
 6466 09e0 23       		.byte	0x23
 6467 09e1 04       		.uleb128 0x4
 6468 09e2 00       		.byte	0x0
 6469 09e3 17       		.uleb128 0x17
 6470 09e4 88070000 		.4byte	.LASF158
 6471 09e8 0D       		.byte	0xd
 6472 09e9 2901     		.2byte	0x129
 6473 09eb BB090000 		.4byte	0x9bb
 6474 09ef 17       		.uleb128 0x17
 6475 09f0 DF0D0000 		.4byte	.LASF159
 6476 09f4 0D       		.byte	0xd
 6477 09f5 3101     		.2byte	0x131
 6478 09f7 FB090000 		.4byte	0x9fb
 6479 09fb 05       		.uleb128 0x5
 6480 09fc 04       		.byte	0x4
 6481 09fd 010A0000 		.4byte	0xa01
 6482 0a01 11       		.uleb128 0x11
 6483 0a02 01       		.byte	0x1
 6484 0a03 0D0A0000 		.4byte	0xa0d
 6485 0a07 12       		.uleb128 0x12
 6486 0a08 0D0A0000 		.4byte	0xa0d
 6487 0a0c 00       		.byte	0x0
 6488 0a0d 05       		.uleb128 0x5
 6489 0a0e 04       		.byte	0x4
 6490 0a0f 79070000 		.4byte	0x779
 6491 0a13 17       		.uleb128 0x17
 6492 0a14 1E0A0000 		.4byte	.LASF160
 6493 0a18 0D       		.byte	0xd
 6494 0a19 3A01     		.2byte	0x13a
 6495 0a1b 1F0A0000 		.4byte	0xa1f
 6496 0a1f 05       		.uleb128 0x5
 6497 0a20 04       		.byte	0x4
 6498 0a21 250A0000 		.4byte	0xa25
 6499 0a25 11       		.uleb128 0x11
 6500 0a26 01       		.byte	0x1
 6501 0a27 360A0000 		.4byte	0xa36
 6502 0a2b 12       		.uleb128 0x12
 6503 0a2c 0D0A0000 		.4byte	0xa0d
 6504 0a30 12       		.uleb128 0x12
 6505 0a31 DD080000 		.4byte	0x8dd
 6506 0a35 00       		.byte	0x0
 6507 0a36 17       		.uleb128 0x17
 6508 0a37 F7010000 		.4byte	.LASF161
 6509 0a3b 0D       		.byte	0xd
 6510 0a3c 4301     		.2byte	0x143
 6511 0a3e 420A0000 		.4byte	0xa42
 6512 0a42 05       		.uleb128 0x5
 6513 0a43 04       		.byte	0x4
 6514 0a44 480A0000 		.4byte	0xa48
ARM GAS  C:\Users\DNIEL~1\AppData\Local\Temp\cccPEDO0.s 			page 116


 6515 0a48 11       		.uleb128 0x11
 6516 0a49 01       		.byte	0x1
 6517 0a4a 590A0000 		.4byte	0xa59
 6518 0a4e 12       		.uleb128 0x12
 6519 0a4f 0D0A0000 		.4byte	0xa0d
 6520 0a53 12       		.uleb128 0x12
 6521 0a54 AF090000 		.4byte	0x9af
 6522 0a58 00       		.byte	0x0
 6523 0a59 17       		.uleb128 0x17
 6524 0a5a 2C0E0000 		.4byte	.LASF162
 6525 0a5e 0D       		.byte	0xd
 6526 0a5f 4F01     		.2byte	0x14f
 6527 0a61 650A0000 		.4byte	0xa65
 6528 0a65 05       		.uleb128 0x5
 6529 0a66 04       		.byte	0x4
 6530 0a67 6B0A0000 		.4byte	0xa6b
 6531 0a6b 1C       		.uleb128 0x1c
 6532 0a6c 01       		.byte	0x1
 6533 0a6d C5000000 		.4byte	0xc5
 6534 0a71 7B0A0000 		.4byte	0xa7b
 6535 0a75 12       		.uleb128 0x12
 6536 0a76 0D0A0000 		.4byte	0xa0d
 6537 0a7a 00       		.byte	0x0
 6538 0a7b 17       		.uleb128 0x17
 6539 0a7c 7C090000 		.4byte	.LASF163
 6540 0a80 0D       		.byte	0xd
 6541 0a81 5401     		.2byte	0x154
 6542 0a83 870A0000 		.4byte	0xa87
 6543 0a87 05       		.uleb128 0x5
 6544 0a88 04       		.byte	0x4
 6545 0a89 8D0A0000 		.4byte	0xa8d
 6546 0a8d 1C       		.uleb128 0x1c
 6547 0a8e 01       		.byte	0x1
 6548 0a8f AC0A0000 		.4byte	0xaac
 6549 0a93 AC0A0000 		.4byte	0xaac
 6550 0a97 12       		.uleb128 0x12
 6551 0a98 0D0A0000 		.4byte	0xa0d
 6552 0a9c 12       		.uleb128 0x12
 6553 0a9d 8E000000 		.4byte	0x8e
 6554 0aa1 12       		.uleb128 0x12
 6555 0aa2 8E000000 		.4byte	0x8e
 6556 0aa6 12       		.uleb128 0x12
 6557 0aa7 99000000 		.4byte	0x99
 6558 0aab 00       		.byte	0x0
 6559 0aac 05       		.uleb128 0x5
 6560 0aad 04       		.byte	0x4
 6561 0aae B20A0000 		.4byte	0xab2
 6562 0ab2 06       		.uleb128 0x6
 6563 0ab3 E3090000 		.4byte	0x9e3
 6564 0ab7 0B       		.uleb128 0xb
 6565 0ab8 20       		.byte	0x20
 6566 0ab9 0F       		.byte	0xf
 6567 0aba 35       		.byte	0x35
 6568 0abb 300B0000 		.4byte	0xb30
 6569 0abf 09       		.uleb128 0x9
 6570 0ac0 71040000 		.4byte	.LASF164
 6571 0ac4 0F       		.byte	0xf
ARM GAS  C:\Users\DNIEL~1\AppData\Local\Temp\cccPEDO0.s 			page 117


 6572 0ac5 36       		.byte	0x36
 6573 0ac6 7E030000 		.4byte	0x37e
 6574 0aca 02       		.byte	0x2
 6575 0acb 23       		.byte	0x23
 6576 0acc 00       		.uleb128 0x0
 6577 0acd 09       		.uleb128 0x9
 6578 0ace 9A000000 		.4byte	.LASF165
 6579 0ad2 0F       		.byte	0xf
 6580 0ad3 38       		.byte	0x38
 6581 0ad4 7E030000 		.4byte	0x37e
 6582 0ad8 02       		.byte	0x2
 6583 0ad9 23       		.byte	0x23
 6584 0ada 04       		.uleb128 0x4
 6585 0adb 09       		.uleb128 0x9
 6586 0adc 19090000 		.4byte	.LASF166
 6587 0ae0 0F       		.byte	0xf
 6588 0ae1 39       		.byte	0x39
 6589 0ae2 7E030000 		.4byte	0x37e
 6590 0ae6 02       		.byte	0x2
 6591 0ae7 23       		.byte	0x23
 6592 0ae8 08       		.uleb128 0x8
 6593 0ae9 09       		.uleb128 0x9
 6594 0aea 34050000 		.4byte	.LASF167
 6595 0aee 0F       		.byte	0xf
 6596 0aef 3A       		.byte	0x3a
 6597 0af0 7E030000 		.4byte	0x37e
 6598 0af4 02       		.byte	0x2
 6599 0af5 23       		.byte	0x23
 6600 0af6 0C       		.uleb128 0xc
 6601 0af7 09       		.uleb128 0x9
 6602 0af8 EA000000 		.4byte	.LASF168
 6603 0afc 0F       		.byte	0xf
 6604 0afd 3C       		.byte	0x3c
 6605 0afe 7E030000 		.4byte	0x37e
 6606 0b02 02       		.byte	0x2
 6607 0b03 23       		.byte	0x23
 6608 0b04 10       		.uleb128 0x10
 6609 0b05 09       		.uleb128 0x9
 6610 0b06 83010000 		.4byte	.LASF169
 6611 0b0a 0F       		.byte	0xf
 6612 0b0b 3E       		.byte	0x3e
 6613 0b0c 7E030000 		.4byte	0x37e
 6614 0b10 02       		.byte	0x2
 6615 0b11 23       		.byte	0x23
 6616 0b12 14       		.uleb128 0x14
 6617 0b13 09       		.uleb128 0x9
 6618 0b14 93010000 		.4byte	.LASF170
 6619 0b18 0F       		.byte	0xf
 6620 0b19 3F       		.byte	0x3f
 6621 0b1a 7E030000 		.4byte	0x37e
 6622 0b1e 02       		.byte	0x2
 6623 0b1f 23       		.byte	0x23
 6624 0b20 18       		.uleb128 0x18
 6625 0b21 09       		.uleb128 0x9
 6626 0b22 22020000 		.4byte	.LASF171
 6627 0b26 0F       		.byte	0xf
 6628 0b27 40       		.byte	0x40
ARM GAS  C:\Users\DNIEL~1\AppData\Local\Temp\cccPEDO0.s 			page 118


 6629 0b28 7E030000 		.4byte	0x37e
 6630 0b2c 02       		.byte	0x2
 6631 0b2d 23       		.byte	0x23
 6632 0b2e 1C       		.uleb128 0x1c
 6633 0b2f 00       		.byte	0x0
 6634 0b30 07       		.uleb128 0x7
 6635 0b31 02070000 		.4byte	.LASF172
 6636 0b35 0F       		.byte	0xf
 6637 0b36 41       		.byte	0x41
 6638 0b37 B70A0000 		.4byte	0xab7
 6639 0b3b 0B       		.uleb128 0xb
 6640 0b3c 20       		.byte	0x20
 6641 0b3d 0F       		.byte	0xf
 6642 0b3e 46       		.byte	0x46
 6643 0b3f B40B0000 		.4byte	0xbb4
 6644 0b43 09       		.uleb128 0x9
 6645 0b44 74090000 		.4byte	.LASF173
 6646 0b48 0F       		.byte	0xf
 6647 0b49 47       		.byte	0x47
 6648 0b4a 7E030000 		.4byte	0x37e
 6649 0b4e 02       		.byte	0x2
 6650 0b4f 23       		.byte	0x23
 6651 0b50 00       		.uleb128 0x0
 6652 0b51 09       		.uleb128 0x9
 6653 0b52 89000000 		.4byte	.LASF174
 6654 0b56 0F       		.byte	0xf
 6655 0b57 49       		.byte	0x49
 6656 0b58 7E030000 		.4byte	0x37e
 6657 0b5c 02       		.byte	0x2
 6658 0b5d 23       		.byte	0x23
 6659 0b5e 04       		.uleb128 0x4
 6660 0b5f 09       		.uleb128 0x9
 6661 0b60 430C0000 		.4byte	.LASF175
 6662 0b64 0F       		.byte	0xf
 6663 0b65 4A       		.byte	0x4a
 6664 0b66 7E030000 		.4byte	0x37e
 6665 0b6a 02       		.byte	0x2
 6666 0b6b 23       		.byte	0x23
 6667 0b6c 08       		.uleb128 0x8
 6668 0b6d 09       		.uleb128 0x9
 6669 0b6e F1000000 		.4byte	.LASF176
 6670 0b72 0F       		.byte	0xf
 6671 0b73 4C       		.byte	0x4c
 6672 0b74 7E030000 		.4byte	0x37e
 6673 0b78 02       		.byte	0x2
 6674 0b79 23       		.byte	0x23
 6675 0b7a 0C       		.uleb128 0xc
 6676 0b7b 09       		.uleb128 0x9
 6677 0b7c FE090000 		.4byte	.LASF177
 6678 0b80 0F       		.byte	0xf
 6679 0b81 4D       		.byte	0x4d
 6680 0b82 7E030000 		.4byte	0x37e
 6681 0b86 02       		.byte	0x2
 6682 0b87 23       		.byte	0x23
 6683 0b88 10       		.uleb128 0x10
 6684 0b89 09       		.uleb128 0x9
 6685 0b8a 83010000 		.4byte	.LASF169
ARM GAS  C:\Users\DNIEL~1\AppData\Local\Temp\cccPEDO0.s 			page 119


 6686 0b8e 0F       		.byte	0xf
 6687 0b8f 4F       		.byte	0x4f
 6688 0b90 7E030000 		.4byte	0x37e
 6689 0b94 02       		.byte	0x2
 6690 0b95 23       		.byte	0x23
 6691 0b96 14       		.uleb128 0x14
 6692 0b97 09       		.uleb128 0x9
 6693 0b98 EE060000 		.4byte	.LASF178
 6694 0b9c 0F       		.byte	0xf
 6695 0b9d 50       		.byte	0x50
 6696 0b9e 7E030000 		.4byte	0x37e
 6697 0ba2 02       		.byte	0x2
 6698 0ba3 23       		.byte	0x23
 6699 0ba4 18       		.uleb128 0x18
 6700 0ba5 09       		.uleb128 0x9
 6701 0ba6 AB010000 		.4byte	.LASF179
 6702 0baa 0F       		.byte	0xf
 6703 0bab 52       		.byte	0x52
 6704 0bac 7E030000 		.4byte	0x37e
 6705 0bb0 02       		.byte	0x2
 6706 0bb1 23       		.byte	0x23
 6707 0bb2 1C       		.uleb128 0x1c
 6708 0bb3 00       		.byte	0x0
 6709 0bb4 07       		.uleb128 0x7
 6710 0bb5 1C040000 		.4byte	.LASF180
 6711 0bb9 0F       		.byte	0xf
 6712 0bba 53       		.byte	0x53
 6713 0bbb 3B0B0000 		.4byte	0xb3b
 6714 0bbf 0B       		.uleb128 0xb
 6715 0bc0 20       		.byte	0x20
 6716 0bc1 0F       		.byte	0xf
 6717 0bc2 58       		.byte	0x58
 6718 0bc3 380C0000 		.4byte	0xc38
 6719 0bc7 09       		.uleb128 0x9
 6720 0bc8 55060000 		.4byte	.LASF181
 6721 0bcc 0F       		.byte	0xf
 6722 0bcd 59       		.byte	0x59
 6723 0bce 7E030000 		.4byte	0x37e
 6724 0bd2 02       		.byte	0x2
 6725 0bd3 23       		.byte	0x23
 6726 0bd4 00       		.uleb128 0x0
 6727 0bd5 09       		.uleb128 0x9
 6728 0bd6 89000000 		.4byte	.LASF174
 6729 0bda 0F       		.byte	0xf
 6730 0bdb 5B       		.byte	0x5b
 6731 0bdc 7E030000 		.4byte	0x37e
 6732 0be0 02       		.byte	0x2
 6733 0be1 23       		.byte	0x23
 6734 0be2 04       		.uleb128 0x4
 6735 0be3 09       		.uleb128 0x9
 6736 0be4 4D060000 		.4byte	.LASF182
 6737 0be8 0F       		.byte	0xf
 6738 0be9 5C       		.byte	0x5c
 6739 0bea 7E030000 		.4byte	0x37e
 6740 0bee 02       		.byte	0x2
 6741 0bef 23       		.byte	0x23
 6742 0bf0 08       		.uleb128 0x8
ARM GAS  C:\Users\DNIEL~1\AppData\Local\Temp\cccPEDO0.s 			page 120


 6743 0bf1 09       		.uleb128 0x9
 6744 0bf2 F1000000 		.4byte	.LASF176
 6745 0bf6 0F       		.byte	0xf
 6746 0bf7 5E       		.byte	0x5e
 6747 0bf8 7E030000 		.4byte	0x37e
 6748 0bfc 02       		.byte	0x2
 6749 0bfd 23       		.byte	0x23
 6750 0bfe 0C       		.uleb128 0xc
 6751 0bff 09       		.uleb128 0x9
 6752 0c00 F4030000 		.4byte	.LASF183
 6753 0c04 0F       		.byte	0xf
 6754 0c05 5F       		.byte	0x5f
 6755 0c06 7E030000 		.4byte	0x37e
 6756 0c0a 02       		.byte	0x2
 6757 0c0b 23       		.byte	0x23
 6758 0c0c 10       		.uleb128 0x10
 6759 0c0d 09       		.uleb128 0x9
 6760 0c0e 83010000 		.4byte	.LASF169
 6761 0c12 0F       		.byte	0xf
 6762 0c13 61       		.byte	0x61
 6763 0c14 7E030000 		.4byte	0x37e
 6764 0c18 02       		.byte	0x2
 6765 0c19 23       		.byte	0x23
 6766 0c1a 14       		.uleb128 0x14
 6767 0c1b 09       		.uleb128 0x9
 6768 0c1c 93010000 		.4byte	.LASF170
 6769 0c20 0F       		.byte	0xf
 6770 0c21 62       		.byte	0x62
 6771 0c22 7E030000 		.4byte	0x37e
 6772 0c26 02       		.byte	0x2
 6773 0c27 23       		.byte	0x23
 6774 0c28 18       		.uleb128 0x18
 6775 0c29 09       		.uleb128 0x9
 6776 0c2a AB010000 		.4byte	.LASF179
 6777 0c2e 0F       		.byte	0xf
 6778 0c2f 63       		.byte	0x63
 6779 0c30 7E030000 		.4byte	0x37e
 6780 0c34 02       		.byte	0x2
 6781 0c35 23       		.byte	0x23
 6782 0c36 1C       		.uleb128 0x1c
 6783 0c37 00       		.byte	0x0
 6784 0c38 07       		.uleb128 0x7
 6785 0c39 360B0000 		.4byte	.LASF184
 6786 0c3d 0F       		.byte	0xf
 6787 0c3e 64       		.byte	0x64
 6788 0c3f BF0B0000 		.4byte	0xbbf
 6789 0c43 1D       		.uleb128 0x1d
 6790 0c44 00100100 		.4byte	0x11000
 6791 0c48 0F       		.byte	0xf
 6792 0c49 69       		.byte	0x69
 6793 0c4a 920F0000 		.4byte	0xf92
 6794 0c4e 09       		.uleb128 0x9
 6795 0c4f 5D0A0000 		.4byte	.LASF185
 6796 0c53 0F       		.byte	0xf
 6797 0c54 6A       		.byte	0x6a
 6798 0c55 7E030000 		.4byte	0x37e
 6799 0c59 02       		.byte	0x2
ARM GAS  C:\Users\DNIEL~1\AppData\Local\Temp\cccPEDO0.s 			page 121


 6800 0c5a 23       		.byte	0x23
 6801 0c5b 00       		.uleb128 0x0
 6802 0c5c 09       		.uleb128 0x9
 6803 0c5d 550A0000 		.4byte	.LASF186
 6804 0c61 0F       		.byte	0xf
 6805 0c62 6B       		.byte	0x6b
 6806 0c63 7E030000 		.4byte	0x37e
 6807 0c67 02       		.byte	0x2
 6808 0c68 23       		.byte	0x23
 6809 0c69 04       		.uleb128 0x4
 6810 0c6a 09       		.uleb128 0x9
 6811 0c6b 16080000 		.4byte	.LASF187
 6812 0c6f 0F       		.byte	0xf
 6813 0c70 6C       		.byte	0x6c
 6814 0c71 7E030000 		.4byte	0x37e
 6815 0c75 02       		.byte	0x2
 6816 0c76 23       		.byte	0x23
 6817 0c77 08       		.uleb128 0x8
 6818 0c78 09       		.uleb128 0x9
 6819 0c79 3D020000 		.4byte	.LASF188
 6820 0c7d 0F       		.byte	0xf
 6821 0c7e 6D       		.byte	0x6d
 6822 0c7f 7E030000 		.4byte	0x37e
 6823 0c83 02       		.byte	0x2
 6824 0c84 23       		.byte	0x23
 6825 0c85 0C       		.uleb128 0xc
 6826 0c86 09       		.uleb128 0x9
 6827 0c87 56050000 		.4byte	.LASF189
 6828 0c8b 0F       		.byte	0xf
 6829 0c8c 6E       		.byte	0x6e
 6830 0c8d 7E030000 		.4byte	0x37e
 6831 0c91 02       		.byte	0x2
 6832 0c92 23       		.byte	0x23
 6833 0c93 10       		.uleb128 0x10
 6834 0c94 09       		.uleb128 0x9
 6835 0c95 8B010000 		.4byte	.LASF190
 6836 0c99 0F       		.byte	0xf
 6837 0c9a 6F       		.byte	0x6f
 6838 0c9b 7E030000 		.4byte	0x37e
 6839 0c9f 02       		.byte	0x2
 6840 0ca0 23       		.byte	0x23
 6841 0ca1 14       		.uleb128 0x14
 6842 0ca2 09       		.uleb128 0x9
 6843 0ca3 84080000 		.4byte	.LASF191
 6844 0ca7 0F       		.byte	0xf
 6845 0ca8 70       		.byte	0x70
 6846 0ca9 7E030000 		.4byte	0x37e
 6847 0cad 02       		.byte	0x2
 6848 0cae 23       		.byte	0x23
 6849 0caf 18       		.uleb128 0x18
 6850 0cb0 09       		.uleb128 0x9
 6851 0cb1 0F0B0000 		.4byte	.LASF192
 6852 0cb5 0F       		.byte	0xf
 6853 0cb6 71       		.byte	0x71
 6854 0cb7 7E030000 		.4byte	0x37e
 6855 0cbb 02       		.byte	0x2
 6856 0cbc 23       		.byte	0x23
ARM GAS  C:\Users\DNIEL~1\AppData\Local\Temp\cccPEDO0.s 			page 122


 6857 0cbd 1C       		.uleb128 0x1c
 6858 0cbe 09       		.uleb128 0x9
 6859 0cbf 070B0000 		.4byte	.LASF193
 6860 0cc3 0F       		.byte	0xf
 6861 0cc4 73       		.byte	0x73
 6862 0cc5 7E030000 		.4byte	0x37e
 6863 0cc9 02       		.byte	0x2
 6864 0cca 23       		.byte	0x23
 6865 0ccb 20       		.uleb128 0x20
 6866 0ccc 09       		.uleb128 0x9
 6867 0ccd 86030000 		.4byte	.LASF194
 6868 0cd1 0F       		.byte	0xf
 6869 0cd2 75       		.byte	0x75
 6870 0cd3 7E030000 		.4byte	0x37e
 6871 0cd7 02       		.byte	0x2
 6872 0cd8 23       		.byte	0x23
 6873 0cd9 24       		.uleb128 0x24
 6874 0cda 09       		.uleb128 0x9
 6875 0cdb 3F0A0000 		.4byte	.LASF195
 6876 0cdf 0F       		.byte	0xf
 6877 0ce0 76       		.byte	0x76
 6878 0ce1 7E030000 		.4byte	0x37e
 6879 0ce5 02       		.byte	0x2
 6880 0ce6 23       		.byte	0x23
 6881 0ce7 28       		.uleb128 0x28
 6882 0ce8 09       		.uleb128 0x9
 6883 0ce9 17070000 		.4byte	.LASF196
 6884 0ced 0F       		.byte	0xf
 6885 0cee 78       		.byte	0x78
 6886 0cef 7E030000 		.4byte	0x37e
 6887 0cf3 02       		.byte	0x2
 6888 0cf4 23       		.byte	0x23
 6889 0cf5 2C       		.uleb128 0x2c
 6890 0cf6 09       		.uleb128 0x9
 6891 0cf7 E7020000 		.4byte	.LASF197
 6892 0cfb 0F       		.byte	0xf
 6893 0cfc 7A       		.byte	0x7a
 6894 0cfd 7E030000 		.4byte	0x37e
 6895 0d01 02       		.byte	0x2
 6896 0d02 23       		.byte	0x23
 6897 0d03 30       		.uleb128 0x30
 6898 0d04 09       		.uleb128 0x9
 6899 0d05 60010000 		.4byte	.LASF198
 6900 0d09 0F       		.byte	0xf
 6901 0d0a 7B       		.byte	0x7b
 6902 0d0b 7E030000 		.4byte	0x37e
 6903 0d0f 02       		.byte	0x2
 6904 0d10 23       		.byte	0x23
 6905 0d11 34       		.uleb128 0x34
 6906 0d12 09       		.uleb128 0x9
 6907 0d13 A5010000 		.4byte	.LASF199
 6908 0d17 0F       		.byte	0xf
 6909 0d18 7C       		.byte	0x7c
 6910 0d19 7E030000 		.4byte	0x37e
 6911 0d1d 02       		.byte	0x2
 6912 0d1e 23       		.byte	0x23
 6913 0d1f 38       		.uleb128 0x38
ARM GAS  C:\Users\DNIEL~1\AppData\Local\Temp\cccPEDO0.s 			page 123


 6914 0d20 0A       		.uleb128 0xa
 6915 0d21 43494400 		.ascii	"CID\000"
 6916 0d25 0F       		.byte	0xf
 6917 0d26 7D       		.byte	0x7d
 6918 0d27 7E030000 		.4byte	0x37e
 6919 0d2b 02       		.byte	0x2
 6920 0d2c 23       		.byte	0x23
 6921 0d2d 3C       		.uleb128 0x3c
 6922 0d2e 09       		.uleb128 0x9
 6923 0d2f 78040000 		.4byte	.LASF200
 6924 0d33 0F       		.byte	0xf
 6925 0d34 7E       		.byte	0x7e
 6926 0d35 A20F0000 		.4byte	0xfa2
 6927 0d39 02       		.byte	0x2
 6928 0d3a 23       		.byte	0x23
 6929 0d3b 40       		.uleb128 0x40
 6930 0d3c 09       		.uleb128 0x9
 6931 0d3d 97080000 		.4byte	.LASF201
 6932 0d41 0F       		.byte	0xf
 6933 0d42 7F       		.byte	0x7f
 6934 0d43 7E030000 		.4byte	0x37e
 6935 0d47 03       		.byte	0x3
 6936 0d48 23       		.byte	0x23
 6937 0d49 8002     		.uleb128 0x100
 6938 0d4b 09       		.uleb128 0x9
 6939 0d4c 5B0C0000 		.4byte	.LASF202
 6940 0d50 0F       		.byte	0xf
 6941 0d51 81       		.byte	0x81
 6942 0d52 A70F0000 		.4byte	0xfa7
 6943 0d56 03       		.byte	0x3
 6944 0d57 23       		.byte	0x23
 6945 0d58 8402     		.uleb128 0x104
 6946 0d5a 09       		.uleb128 0x9
 6947 0d5b 8C020000 		.4byte	.LASF203
 6948 0d5f 0F       		.byte	0xf
 6949 0d60 83       		.byte	0x83
 6950 0d61 BC0F0000 		.4byte	0xfbc
 6951 0d65 03       		.byte	0x3
 6952 0d66 23       		.byte	0x23
 6953 0d67 C002     		.uleb128 0x140
 6954 0d69 09       		.uleb128 0x9
 6955 0d6a 66040000 		.4byte	.LASF204
 6956 0d6e 0F       		.byte	0xf
 6957 0d6f 84       		.byte	0x84
 6958 0d70 7E030000 		.4byte	0x37e
 6959 0d74 03       		.byte	0x3
 6960 0d75 23       		.byte	0x23
 6961 0d76 8008     		.uleb128 0x400
 6962 0d78 09       		.uleb128 0x9
 6963 0d79 560C0000 		.4byte	.LASF205
 6964 0d7d 0F       		.byte	0xf
 6965 0d7e 85       		.byte	0x85
 6966 0d7f 7E030000 		.4byte	0x37e
 6967 0d83 03       		.byte	0x3
 6968 0d84 23       		.byte	0x23
 6969 0d85 8408     		.uleb128 0x404
 6970 0d87 09       		.uleb128 0x9
ARM GAS  C:\Users\DNIEL~1\AppData\Local\Temp\cccPEDO0.s 			page 124


 6971 0d88 BE0B0000 		.4byte	.LASF206
 6972 0d8c 0F       		.byte	0xf
 6973 0d8d 86       		.byte	0x86
 6974 0d8e 7E030000 		.4byte	0x37e
 6975 0d92 03       		.byte	0x3
 6976 0d93 23       		.byte	0x23
 6977 0d94 8808     		.uleb128 0x408
 6978 0d96 09       		.uleb128 0x9
 6979 0d97 0D020000 		.4byte	.LASF207
 6980 0d9b 0F       		.byte	0xf
 6981 0d9c 88       		.byte	0x88
 6982 0d9d 7E030000 		.4byte	0x37e
 6983 0da1 03       		.byte	0x3
 6984 0da2 23       		.byte	0x23
 6985 0da3 8C08     		.uleb128 0x40c
 6986 0da5 09       		.uleb128 0x9
 6987 0da6 20070000 		.4byte	.LASF208
 6988 0daa 0F       		.byte	0xf
 6989 0dab 89       		.byte	0x89
 6990 0dac 7E030000 		.4byte	0x37e
 6991 0db0 03       		.byte	0x3
 6992 0db1 23       		.byte	0x23
 6993 0db2 9008     		.uleb128 0x410
 6994 0db4 09       		.uleb128 0x9
 6995 0db5 AB060000 		.4byte	.LASF209
 6996 0db9 0F       		.byte	0xf
 6997 0dba 8B       		.byte	0x8b
 6998 0dbb 7E030000 		.4byte	0x37e
 6999 0dbf 03       		.byte	0x3
 7000 0dc0 23       		.byte	0x23
 7001 0dc1 9408     		.uleb128 0x414
 7002 0dc3 09       		.uleb128 0x9
 7003 0dc4 15050000 		.4byte	.LASF210
 7004 0dc8 0F       		.byte	0xf
 7005 0dc9 8D       		.byte	0x8d
 7006 0dca 7E030000 		.4byte	0x37e
 7007 0dce 03       		.byte	0x3
 7008 0dcf 23       		.byte	0x23
 7009 0dd0 9808     		.uleb128 0x418
 7010 0dd2 09       		.uleb128 0x9
 7011 0dd3 95020000 		.4byte	.LASF211
 7012 0dd7 0F       		.byte	0xf
 7013 0dd8 8F       		.byte	0x8f
 7014 0dd9 D10F0000 		.4byte	0xfd1
 7015 0ddd 03       		.byte	0x3
 7016 0dde 23       		.byte	0x23
 7017 0ddf 9C08     		.uleb128 0x41c
 7018 0de1 09       		.uleb128 0x9
 7019 0de2 0E040000 		.4byte	.LASF212
 7020 0de6 0F       		.byte	0xf
 7021 0de7 90       		.byte	0x90
 7022 0de8 7E030000 		.4byte	0x37e
 7023 0dec 03       		.byte	0x3
 7024 0ded 23       		.byte	0x23
 7025 0dee C008     		.uleb128 0x440
 7026 0df0 09       		.uleb128 0x9
 7027 0df1 4C030000 		.4byte	.LASF213
ARM GAS  C:\Users\DNIEL~1\AppData\Local\Temp\cccPEDO0.s 			page 125


 7028 0df5 0F       		.byte	0xf
 7029 0df6 92       		.byte	0x92
 7030 0df7 E60F0000 		.4byte	0xfe6
 7031 0dfb 03       		.byte	0x3
 7032 0dfc 23       		.byte	0x23
 7033 0dfd C408     		.uleb128 0x444
 7034 0dff 0A       		.uleb128 0xa
 7035 0e00 686300   		.ascii	"hc\000"
 7036 0e03 0F       		.byte	0xf
 7037 0e04 93       		.byte	0x93
 7038 0e05 EB0F0000 		.4byte	0xfeb
 7039 0e09 03       		.byte	0x3
 7040 0e0a 23       		.byte	0x23
 7041 0e0b 800A     		.uleb128 0x500
 7042 0e0d 09       		.uleb128 0x9
 7043 0e0e 13040000 		.4byte	.LASF214
 7044 0e12 0F       		.byte	0xf
 7045 0e13 94       		.byte	0x94
 7046 0e14 0B100000 		.4byte	0x100b
 7047 0e18 03       		.byte	0x3
 7048 0e19 23       		.byte	0x23
 7049 0e1a 800E     		.uleb128 0x700
 7050 0e1c 09       		.uleb128 0x9
 7051 0e1d 60000000 		.4byte	.LASF215
 7052 0e21 0F       		.byte	0xf
 7053 0e22 95       		.byte	0x95
 7054 0e23 7E030000 		.4byte	0x37e
 7055 0e27 03       		.byte	0x3
 7056 0e28 23       		.byte	0x23
 7057 0e29 8010     		.uleb128 0x800
 7058 0e2b 09       		.uleb128 0x9
 7059 0e2c 8B0D0000 		.4byte	.LASF216
 7060 0e30 0F       		.byte	0xf
 7061 0e31 96       		.byte	0x96
 7062 0e32 7E030000 		.4byte	0x37e
 7063 0e36 03       		.byte	0x3
 7064 0e37 23       		.byte	0x23
 7065 0e38 8410     		.uleb128 0x804
 7066 0e3a 09       		.uleb128 0x9
 7067 0e3b 2E040000 		.4byte	.LASF217
 7068 0e3f 0F       		.byte	0xf
 7069 0e40 97       		.byte	0x97
 7070 0e41 7E030000 		.4byte	0x37e
 7071 0e45 03       		.byte	0x3
 7072 0e46 23       		.byte	0x23
 7073 0e47 8810     		.uleb128 0x808
 7074 0e49 09       		.uleb128 0x9
 7075 0e4a AB090000 		.4byte	.LASF218
 7076 0e4e 0F       		.byte	0xf
 7077 0e4f 98       		.byte	0x98
 7078 0e50 7E030000 		.4byte	0x37e
 7079 0e54 03       		.byte	0x3
 7080 0e55 23       		.byte	0x23
 7081 0e56 8C10     		.uleb128 0x80c
 7082 0e58 09       		.uleb128 0x9
 7083 0e59 CE0A0000 		.4byte	.LASF219
 7084 0e5d 0F       		.byte	0xf
ARM GAS  C:\Users\DNIEL~1\AppData\Local\Temp\cccPEDO0.s 			page 126


 7085 0e5e 99       		.byte	0x99
 7086 0e5f 7E030000 		.4byte	0x37e
 7087 0e63 03       		.byte	0x3
 7088 0e64 23       		.byte	0x23
 7089 0e65 9010     		.uleb128 0x810
 7090 0e67 09       		.uleb128 0x9
 7091 0e68 FB040000 		.4byte	.LASF220
 7092 0e6c 0F       		.byte	0xf
 7093 0e6d 9B       		.byte	0x9b
 7094 0e6e 7E030000 		.4byte	0x37e
 7095 0e72 03       		.byte	0x3
 7096 0e73 23       		.byte	0x23
 7097 0e74 9410     		.uleb128 0x814
 7098 0e76 09       		.uleb128 0x9
 7099 0e77 1F0D0000 		.4byte	.LASF221
 7100 0e7b 0F       		.byte	0xf
 7101 0e7c 9D       		.byte	0x9d
 7102 0e7d 7E030000 		.4byte	0x37e
 7103 0e81 03       		.byte	0x3
 7104 0e82 23       		.byte	0x23
 7105 0e83 9810     		.uleb128 0x818
 7106 0e85 09       		.uleb128 0x9
 7107 0e86 650A0000 		.4byte	.LASF222
 7108 0e8a 0F       		.byte	0xf
 7109 0e8b 9F       		.byte	0x9f
 7110 0e8c 7E030000 		.4byte	0x37e
 7111 0e90 03       		.byte	0x3
 7112 0e91 23       		.byte	0x23
 7113 0e92 9C10     		.uleb128 0x81c
 7114 0e94 09       		.uleb128 0x9
 7115 0e95 8A0B0000 		.4byte	.LASF223
 7116 0e99 0F       		.byte	0xf
 7117 0e9a A1       		.byte	0xa1
 7118 0e9b 7E030000 		.4byte	0x37e
 7119 0e9f 03       		.byte	0x3
 7120 0ea0 23       		.byte	0x23
 7121 0ea1 A010     		.uleb128 0x820
 7122 0ea3 09       		.uleb128 0x9
 7123 0ea4 A70B0000 		.4byte	.LASF224
 7124 0ea8 0F       		.byte	0xf
 7125 0ea9 A2       		.byte	0xa2
 7126 0eaa 7E030000 		.4byte	0x37e
 7127 0eae 03       		.byte	0x3
 7128 0eaf 23       		.byte	0x23
 7129 0eb0 A410     		.uleb128 0x824
 7130 0eb2 09       		.uleb128 0x9
 7131 0eb3 34020000 		.4byte	.LASF225
 7132 0eb7 0F       		.byte	0xf
 7133 0eb8 A3       		.byte	0xa3
 7134 0eb9 7E030000 		.4byte	0x37e
 7135 0ebd 03       		.byte	0x3
 7136 0ebe 23       		.byte	0x23
 7137 0ebf A810     		.uleb128 0x828
 7138 0ec1 09       		.uleb128 0x9
 7139 0ec2 73070000 		.4byte	.LASF226
 7140 0ec6 0F       		.byte	0xf
 7141 0ec7 A5       		.byte	0xa5
ARM GAS  C:\Users\DNIEL~1\AppData\Local\Temp\cccPEDO0.s 			page 127


 7142 0ec8 7E030000 		.4byte	0x37e
 7143 0ecc 03       		.byte	0x3
 7144 0ecd 23       		.byte	0x23
 7145 0ece AC10     		.uleb128 0x82c
 7146 0ed0 09       		.uleb128 0x9
 7147 0ed1 780C0000 		.4byte	.LASF227
 7148 0ed5 0F       		.byte	0xf
 7149 0ed6 A7       		.byte	0xa7
 7150 0ed7 7E030000 		.4byte	0x37e
 7151 0edb 03       		.byte	0x3
 7152 0edc 23       		.byte	0x23
 7153 0edd B010     		.uleb128 0x830
 7154 0edf 09       		.uleb128 0x9
 7155 0ee0 B1020000 		.4byte	.LASF228
 7156 0ee4 0F       		.byte	0xf
 7157 0ee5 A8       		.byte	0xa8
 7158 0ee6 7E030000 		.4byte	0x37e
 7159 0eea 03       		.byte	0x3
 7160 0eeb 23       		.byte	0x23
 7161 0eec B410     		.uleb128 0x834
 7162 0eee 09       		.uleb128 0x9
 7163 0eef F2040000 		.4byte	.LASF229
 7164 0ef3 0F       		.byte	0xf
 7165 0ef4 AA       		.byte	0xaa
 7166 0ef5 7E030000 		.4byte	0x37e
 7167 0ef9 03       		.byte	0x3
 7168 0efa 23       		.byte	0x23
 7169 0efb B810     		.uleb128 0x838
 7170 0efd 09       		.uleb128 0x9
 7171 0efe C00C0000 		.4byte	.LASF230
 7172 0f02 0F       		.byte	0xf
 7173 0f03 AB       		.byte	0xab
 7174 0f04 7E030000 		.4byte	0x37e
 7175 0f08 03       		.byte	0x3
 7176 0f09 23       		.byte	0x23
 7177 0f0a BC10     		.uleb128 0x83c
 7178 0f0c 09       		.uleb128 0x9
 7179 0f0d 900D0000 		.4byte	.LASF231
 7180 0f11 0F       		.byte	0xf
 7181 0f12 AC       		.byte	0xac
 7182 0f13 20100000 		.4byte	0x1020
 7183 0f17 03       		.byte	0x3
 7184 0f18 23       		.byte	0x23
 7185 0f19 C010     		.uleb128 0x840
 7186 0f1b 09       		.uleb128 0x9
 7187 0f1c FF020000 		.4byte	.LASF232
 7188 0f20 0F       		.byte	0xf
 7189 0f21 AD       		.byte	0xad
 7190 0f22 25100000 		.4byte	0x1025
 7191 0f26 03       		.byte	0x3
 7192 0f27 23       		.byte	0x23
 7193 0f28 8011     		.uleb128 0x880
 7194 0f2a 09       		.uleb128 0x9
 7195 0f2b 500D0000 		.4byte	.LASF233
 7196 0f2f 0F       		.byte	0xf
 7197 0f30 AE       		.byte	0xae
 7198 0f31 2A100000 		.4byte	0x102a
ARM GAS  C:\Users\DNIEL~1\AppData\Local\Temp\cccPEDO0.s 			page 128


 7199 0f35 03       		.byte	0x3
 7200 0f36 23       		.byte	0x23
 7201 0f37 C011     		.uleb128 0x8c0
 7202 0f39 0A       		.uleb128 0xa
 7203 0f3a 696500   		.ascii	"ie\000"
 7204 0f3d 0F       		.byte	0xf
 7205 0f3e AF       		.byte	0xaf
 7206 0f3f 2F100000 		.4byte	0x102f
 7207 0f43 03       		.byte	0x3
 7208 0f44 23       		.byte	0x23
 7209 0f45 8012     		.uleb128 0x900
 7210 0f47 0A       		.uleb128 0xa
 7211 0f48 6F6500   		.ascii	"oe\000"
 7212 0f4b 0F       		.byte	0xf
 7213 0f4c B0       		.byte	0xb0
 7214 0f4d 3F100000 		.4byte	0x103f
 7215 0f51 03       		.byte	0x3
 7216 0f52 23       		.byte	0x23
 7217 0f53 8016     		.uleb128 0xb00
 7218 0f55 09       		.uleb128 0x9
 7219 0f56 BF050000 		.4byte	.LASF234
 7220 0f5a 0F       		.byte	0xf
 7221 0f5b B1       		.byte	0xb1
 7222 0f5c 4F100000 		.4byte	0x104f
 7223 0f60 03       		.byte	0x3
 7224 0f61 23       		.byte	0x23
 7225 0f62 801A     		.uleb128 0xd00
 7226 0f64 09       		.uleb128 0x9
 7227 0f65 810C0000 		.4byte	.LASF235
 7228 0f69 0F       		.byte	0xf
 7229 0f6a B2       		.byte	0xb2
 7230 0f6b 7E030000 		.4byte	0x37e
 7231 0f6f 03       		.byte	0x3
 7232 0f70 23       		.byte	0x23
 7233 0f71 801C     		.uleb128 0xe00
 7234 0f73 09       		.uleb128 0x9
 7235 0f74 140C0000 		.4byte	.LASF236
 7236 0f78 0F       		.byte	0xf
 7237 0f79 B4       		.byte	0xb4
 7238 0f7a 64100000 		.4byte	0x1064
 7239 0f7e 03       		.byte	0x3
 7240 0f7f 23       		.byte	0x23
 7241 0f80 841C     		.uleb128 0xe04
 7242 0f82 09       		.uleb128 0x9
 7243 0f83 5D070000 		.4byte	.LASF237
 7244 0f87 0F       		.byte	0xf
 7245 0f88 B5       		.byte	0xb5
 7246 0f89 80100000 		.4byte	0x1080
 7247 0f8d 03       		.byte	0x3
 7248 0f8e 23       		.byte	0x23
 7249 0f8f 8020     		.uleb128 0x1000
 7250 0f91 00       		.byte	0x0
 7251 0f92 13       		.uleb128 0x13
 7252 0f93 AF000000 		.4byte	0xaf
 7253 0f97 A20F0000 		.4byte	0xfa2
 7254 0f9b 14       		.uleb128 0x14
 7255 0f9c 4C000000 		.4byte	0x4c
ARM GAS  C:\Users\DNIEL~1\AppData\Local\Temp\cccPEDO0.s 			page 129


 7256 0fa0 2F       		.byte	0x2f
 7257 0fa1 00       		.byte	0x0
 7258 0fa2 0E       		.uleb128 0xe
 7259 0fa3 920F0000 		.4byte	0xf92
 7260 0fa7 0E       		.uleb128 0xe
 7261 0fa8 55050000 		.4byte	0x555
 7262 0fac 13       		.uleb128 0x13
 7263 0fad AF000000 		.4byte	0xaf
 7264 0fb1 BC0F0000 		.4byte	0xfbc
 7265 0fb5 14       		.uleb128 0x14
 7266 0fb6 4C000000 		.4byte	0x4c
 7267 0fba AF       		.byte	0xaf
 7268 0fbb 00       		.byte	0x0
 7269 0fbc 0E       		.uleb128 0xe
 7270 0fbd AC0F0000 		.4byte	0xfac
 7271 0fc1 13       		.uleb128 0x13
 7272 0fc2 AF000000 		.4byte	0xaf
 7273 0fc6 D10F0000 		.4byte	0xfd1
 7274 0fca 14       		.uleb128 0x14
 7275 0fcb 4C000000 		.4byte	0x4c
 7276 0fcf 08       		.byte	0x8
 7277 0fd0 00       		.byte	0x0
 7278 0fd1 0E       		.uleb128 0xe
 7279 0fd2 C10F0000 		.4byte	0xfc1
 7280 0fd6 13       		.uleb128 0x13
 7281 0fd7 AF000000 		.4byte	0xaf
 7282 0fdb E60F0000 		.4byte	0xfe6
 7283 0fdf 14       		.uleb128 0x14
 7284 0fe0 4C000000 		.4byte	0x4c
 7285 0fe4 2E       		.byte	0x2e
 7286 0fe5 00       		.byte	0x0
 7287 0fe6 0E       		.uleb128 0xe
 7288 0fe7 D60F0000 		.4byte	0xfd6
 7289 0feb 13       		.uleb128 0x13
 7290 0fec 300B0000 		.4byte	0xb30
 7291 0ff0 FB0F0000 		.4byte	0xffb
 7292 0ff4 14       		.uleb128 0x14
 7293 0ff5 4C000000 		.4byte	0x4c
 7294 0ff9 0F       		.byte	0xf
 7295 0ffa 00       		.byte	0x0
 7296 0ffb 13       		.uleb128 0x13
 7297 0ffc AF000000 		.4byte	0xaf
 7298 1000 0B100000 		.4byte	0x100b
 7299 1004 14       		.uleb128 0x14
 7300 1005 4C000000 		.4byte	0x4c
 7301 1009 3F       		.byte	0x3f
 7302 100a 00       		.byte	0x0
 7303 100b 0E       		.uleb128 0xe
 7304 100c FB0F0000 		.4byte	0xffb
 7305 1010 13       		.uleb128 0x13
 7306 1011 AF000000 		.4byte	0xaf
 7307 1015 20100000 		.4byte	0x1020
 7308 1019 14       		.uleb128 0x14
 7309 101a 4C000000 		.4byte	0x4c
 7310 101e 0F       		.byte	0xf
 7311 101f 00       		.byte	0x0
 7312 1020 0E       		.uleb128 0xe
ARM GAS  C:\Users\DNIEL~1\AppData\Local\Temp\cccPEDO0.s 			page 130


 7313 1021 10100000 		.4byte	0x1010
 7314 1025 0E       		.uleb128 0xe
 7315 1026 10100000 		.4byte	0x1010
 7316 102a 0E       		.uleb128 0xe
 7317 102b 10100000 		.4byte	0x1010
 7318 102f 13       		.uleb128 0x13
 7319 1030 B40B0000 		.4byte	0xbb4
 7320 1034 3F100000 		.4byte	0x103f
 7321 1038 14       		.uleb128 0x14
 7322 1039 4C000000 		.4byte	0x4c
 7323 103d 0F       		.byte	0xf
 7324 103e 00       		.byte	0x0
 7325 103f 13       		.uleb128 0x13
 7326 1040 380C0000 		.4byte	0xc38
 7327 1044 4F100000 		.4byte	0x104f
 7328 1048 14       		.uleb128 0x14
 7329 1049 4C000000 		.4byte	0x4c
 7330 104d 0F       		.byte	0xf
 7331 104e 00       		.byte	0x0
 7332 104f 0E       		.uleb128 0xe
 7333 1050 FB0F0000 		.4byte	0xffb
 7334 1054 13       		.uleb128 0x13
 7335 1055 AF000000 		.4byte	0xaf
 7336 1059 64100000 		.4byte	0x1064
 7337 105d 14       		.uleb128 0x14
 7338 105e 4C000000 		.4byte	0x4c
 7339 1062 7E       		.byte	0x7e
 7340 1063 00       		.byte	0x0
 7341 1064 0E       		.uleb128 0xe
 7342 1065 54100000 		.4byte	0x1054
 7343 1069 13       		.uleb128 0x13
 7344 106a AF000000 		.4byte	0xaf
 7345 106e 80100000 		.4byte	0x1080
 7346 1072 14       		.uleb128 0x14
 7347 1073 4C000000 		.4byte	0x4c
 7348 1077 0F       		.byte	0xf
 7349 1078 1E       		.uleb128 0x1e
 7350 1079 4C000000 		.4byte	0x4c
 7351 107d FF03     		.2byte	0x3ff
 7352 107f 00       		.byte	0x0
 7353 1080 0E       		.uleb128 0xe
 7354 1081 69100000 		.4byte	0x1069
 7355 1085 07       		.uleb128 0x7
 7356 1086 1E080000 		.4byte	.LASF238
 7357 108a 0F       		.byte	0xf
 7358 108b B6       		.byte	0xb6
 7359 108c 430C0000 		.4byte	0xc43
 7360 1090 0B       		.uleb128 0xb
 7361 1091 0C       		.byte	0xc
 7362 1092 0E       		.byte	0xe
 7363 1093 C1       		.byte	0xc1
 7364 1094 C3100000 		.4byte	0x10c3
 7365 1098 09       		.uleb128 0x9
 7366 1099 59040000 		.4byte	.LASF239
 7367 109d 0E       		.byte	0xe
 7368 109e C2       		.byte	0xc2
 7369 109f AF000000 		.4byte	0xaf
ARM GAS  C:\Users\DNIEL~1\AppData\Local\Temp\cccPEDO0.s 			page 131


 7370 10a3 02       		.byte	0x2
 7371 10a4 23       		.byte	0x23
 7372 10a5 00       		.uleb128 0x0
 7373 10a6 09       		.uleb128 0x9
 7374 10a7 B3010000 		.4byte	.LASF240
 7375 10ab 0E       		.byte	0xe
 7376 10ac C3       		.byte	0xc3
 7377 10ad AF000000 		.4byte	0xaf
 7378 10b1 02       		.byte	0x2
 7379 10b2 23       		.byte	0x23
 7380 10b3 04       		.uleb128 0x4
 7381 10b4 09       		.uleb128 0x9
 7382 10b5 72020000 		.4byte	.LASF241
 7383 10b9 0E       		.byte	0xe
 7384 10ba C4       		.byte	0xc4
 7385 10bb AF000000 		.4byte	0xaf
 7386 10bf 02       		.byte	0x2
 7387 10c0 23       		.byte	0x23
 7388 10c1 08       		.uleb128 0x8
 7389 10c2 00       		.byte	0x0
 7390 10c3 07       		.uleb128 0x7
 7391 10c4 5D060000 		.4byte	.LASF242
 7392 10c8 0E       		.byte	0xe
 7393 10c9 C5       		.byte	0xc5
 7394 10ca 90100000 		.4byte	0x1090
 7395 10ce 0B       		.uleb128 0xb
 7396 10cf 04       		.byte	0x4
 7397 10d0 0E       		.byte	0xe
 7398 10d1 D8       		.byte	0xd8
 7399 10d2 E5100000 		.4byte	0x10e5
 7400 10d6 09       		.uleb128 0x9
 7401 10d7 A5090000 		.4byte	.LASF243
 7402 10db 0E       		.byte	0xe
 7403 10dc DC       		.byte	0xdc
 7404 10dd 3A050000 		.4byte	0x53a
 7405 10e1 02       		.byte	0x2
 7406 10e2 23       		.byte	0x23
 7407 10e3 00       		.uleb128 0x0
 7408 10e4 00       		.byte	0x0
 7409 10e5 0B       		.uleb128 0xb
 7410 10e6 04       		.byte	0x4
 7411 10e7 0E       		.byte	0xe
 7412 10e8 DE       		.byte	0xde
 7413 10e9 FC100000 		.4byte	0x10fc
 7414 10ed 09       		.uleb128 0x9
 7415 10ee 070A0000 		.4byte	.LASF244
 7416 10f2 0E       		.byte	0xe
 7417 10f3 E2       		.byte	0xe2
 7418 10f4 FC100000 		.4byte	0x10fc
 7419 10f8 02       		.byte	0x2
 7420 10f9 23       		.byte	0x23
 7421 10fa 00       		.uleb128 0x0
 7422 10fb 00       		.byte	0x0
 7423 10fc 05       		.uleb128 0x5
 7424 10fd 04       		.byte	0x4
 7425 10fe 2F050000 		.4byte	0x52f
 7426 1102 0F       		.uleb128 0xf
ARM GAS  C:\Users\DNIEL~1\AppData\Local\Temp\cccPEDO0.s 			page 132


 7427 1103 04       		.byte	0x4
 7428 1104 0E       		.byte	0xe
 7429 1105 D7       		.byte	0xd7
 7430 1106 21110000 		.4byte	0x1121
 7431 110a 10       		.uleb128 0x10
 7432 110b B7030000 		.4byte	.LASF245
 7433 110f 0E       		.byte	0xe
 7434 1110 DD       		.byte	0xdd
 7435 1111 CE100000 		.4byte	0x10ce
 7436 1115 10       		.uleb128 0x10
 7437 1116 200B0000 		.4byte	.LASF246
 7438 111a 0E       		.byte	0xe
 7439 111b E3       		.byte	0xe3
 7440 111c E5100000 		.4byte	0x10e5
 7441 1120 00       		.byte	0x0
 7442 1121 0B       		.uleb128 0xb
 7443 1122 14       		.byte	0x14
 7444 1123 0E       		.byte	0xe
 7445 1124 CA       		.byte	0xca
 7446 1125 70110000 		.4byte	0x1170
 7447 1129 09       		.uleb128 0x9
 7448 112a DB060000 		.4byte	.LASF247
 7449 112e 0E       		.byte	0xe
 7450 112f CE       		.byte	0xce
 7451 1130 C5000000 		.4byte	0xc5
 7452 1134 02       		.byte	0x2
 7453 1135 23       		.byte	0x23
 7454 1136 00       		.uleb128 0x0
 7455 1137 09       		.uleb128 0x9
 7456 1138 52000000 		.4byte	.LASF248
 7457 113c 0E       		.byte	0xe
 7458 113d D2       		.byte	0xd2
 7459 113e 83000000 		.4byte	0x83
 7460 1142 02       		.byte	0x2
 7461 1143 23       		.byte	0x23
 7462 1144 04       		.uleb128 0x4
 7463 1145 09       		.uleb128 0x9
 7464 1146 6E030000 		.4byte	.LASF249
 7465 114a 0E       		.byte	0xe
 7466 114b D6       		.byte	0xd6
 7467 114c 83000000 		.4byte	0x83
 7468 1150 02       		.byte	0x2
 7469 1151 23       		.byte	0x23
 7470 1152 08       		.uleb128 0x8
 7471 1153 09       		.uleb128 0x9
 7472 1154 1D020000 		.4byte	.LASF250
 7473 1158 0E       		.byte	0xe
 7474 1159 E4       		.byte	0xe4
 7475 115a 02110000 		.4byte	0x1102
 7476 115e 02       		.byte	0x2
 7477 115f 23       		.byte	0x23
 7478 1160 0C       		.uleb128 0xc
 7479 1161 09       		.uleb128 0x9
 7480 1162 DD0B0000 		.4byte	.LASF251
 7481 1166 0E       		.byte	0xe
 7482 1167 E8       		.byte	0xe8
 7483 1168 83000000 		.4byte	0x83
ARM GAS  C:\Users\DNIEL~1\AppData\Local\Temp\cccPEDO0.s 			page 133


 7484 116c 02       		.byte	0x2
 7485 116d 23       		.byte	0x23
 7486 116e 10       		.uleb128 0x10
 7487 116f 00       		.byte	0x0
 7488 1170 07       		.uleb128 0x7
 7489 1171 A30C0000 		.4byte	.LASF252
 7490 1175 0E       		.byte	0xe
 7491 1176 E9       		.byte	0xe9
 7492 1177 21110000 		.4byte	0x1121
 7493 117b 0B       		.uleb128 0xb
 7494 117c 04       		.byte	0x4
 7495 117d 0E       		.byte	0xe
 7496 117e FC       		.byte	0xfc
 7497 117f 93110000 		.4byte	0x1193
 7498 1183 16       		.uleb128 0x16
 7499 1184 260E0000 		.4byte	.LASF253
 7500 1188 0E       		.byte	0xe
 7501 1189 0001     		.2byte	0x100
 7502 118b 1E050000 		.4byte	0x51e
 7503 118f 02       		.byte	0x2
 7504 1190 23       		.byte	0x23
 7505 1191 00       		.uleb128 0x0
 7506 1192 00       		.byte	0x0
 7507 1193 15       		.uleb128 0x15
 7508 1194 04       		.byte	0x4
 7509 1195 0E       		.byte	0xe
 7510 1196 0201     		.2byte	0x102
 7511 1198 AC110000 		.4byte	0x11ac
 7512 119c 16       		.uleb128 0x16
 7513 119d C5070000 		.4byte	.LASF254
 7514 11a1 0E       		.byte	0xe
 7515 11a2 0601     		.2byte	0x106
 7516 11a4 AC110000 		.4byte	0x11ac
 7517 11a8 02       		.byte	0x2
 7518 11a9 23       		.byte	0x23
 7519 11aa 00       		.uleb128 0x0
 7520 11ab 00       		.byte	0x0
 7521 11ac 05       		.uleb128 0x5
 7522 11ad 04       		.byte	0x4
 7523 11ae 24050000 		.4byte	0x524
 7524 11b2 0F       		.uleb128 0xf
 7525 11b3 04       		.byte	0x4
 7526 11b4 0E       		.byte	0xe
 7527 11b5 FB       		.byte	0xfb
 7528 11b6 D3110000 		.4byte	0x11d3
 7529 11ba 1F       		.uleb128 0x1f
 7530 11bb B7030000 		.4byte	.LASF245
 7531 11bf 0E       		.byte	0xe
 7532 11c0 0101     		.2byte	0x101
 7533 11c2 7B110000 		.4byte	0x117b
 7534 11c6 1F       		.uleb128 0x1f
 7535 11c7 200B0000 		.4byte	.LASF246
 7536 11cb 0E       		.byte	0xe
 7537 11cc 0701     		.2byte	0x107
 7538 11ce 93110000 		.4byte	0x1193
 7539 11d2 00       		.byte	0x0
 7540 11d3 0B       		.uleb128 0xb
ARM GAS  C:\Users\DNIEL~1\AppData\Local\Temp\cccPEDO0.s 			page 134


 7541 11d4 14       		.byte	0x14
 7542 11d5 0E       		.byte	0xe
 7543 11d6 EE       		.byte	0xee
 7544 11d7 24120000 		.4byte	0x1224
 7545 11db 09       		.uleb128 0x9
 7546 11dc 170B0000 		.4byte	.LASF255
 7547 11e0 0E       		.byte	0xe
 7548 11e1 F2       		.byte	0xf2
 7549 11e2 C5000000 		.4byte	0xc5
 7550 11e6 02       		.byte	0x2
 7551 11e7 23       		.byte	0x23
 7552 11e8 00       		.uleb128 0x0
 7553 11e9 09       		.uleb128 0x9
 7554 11ea 55020000 		.4byte	.LASF256
 7555 11ee 0E       		.byte	0xe
 7556 11ef F6       		.byte	0xf6
 7557 11f0 83000000 		.4byte	0x83
 7558 11f4 02       		.byte	0x2
 7559 11f5 23       		.byte	0x23
 7560 11f6 04       		.uleb128 0x4
 7561 11f7 09       		.uleb128 0x9
 7562 11f8 400D0000 		.4byte	.LASF257
 7563 11fc 0E       		.byte	0xe
 7564 11fd FA       		.byte	0xfa
 7565 11fe 83000000 		.4byte	0x83
 7566 1202 02       		.byte	0x2
 7567 1203 23       		.byte	0x23
 7568 1204 08       		.uleb128 0x8
 7569 1205 16       		.uleb128 0x16
 7570 1206 1D020000 		.4byte	.LASF250
 7571 120a 0E       		.byte	0xe
 7572 120b 0801     		.2byte	0x108
 7573 120d B2110000 		.4byte	0x11b2
 7574 1211 02       		.byte	0x2
 7575 1212 23       		.byte	0x23
 7576 1213 0C       		.uleb128 0xc
 7577 1214 16       		.uleb128 0x16
 7578 1215 DD0B0000 		.4byte	.LASF251
 7579 1219 0E       		.byte	0xe
 7580 121a 0C01     		.2byte	0x10c
 7581 121c 83000000 		.4byte	0x83
 7582 1220 02       		.byte	0x2
 7583 1221 23       		.byte	0x23
 7584 1222 10       		.uleb128 0x10
 7585 1223 00       		.byte	0x0
 7586 1224 17       		.uleb128 0x17
 7587 1225 53090000 		.4byte	.LASF258
 7588 1229 0E       		.byte	0xe
 7589 122a 0D01     		.2byte	0x10d
 7590 122c D3110000 		.4byte	0x11d3
 7591 1230 15       		.uleb128 0x15
 7592 1231 24       		.byte	0x24
 7593 1232 0E       		.byte	0xe
 7594 1233 1301     		.2byte	0x113
 7595 1235 D0120000 		.4byte	0x12d0
 7596 1239 16       		.uleb128 0x16
 7597 123a DF010000 		.4byte	.LASF259
ARM GAS  C:\Users\DNIEL~1\AppData\Local\Temp\cccPEDO0.s 			page 135


 7598 123e 0E       		.byte	0xe
 7599 123f 1701     		.2byte	0x117
 7600 1241 AF000000 		.4byte	0xaf
 7601 1245 02       		.byte	0x2
 7602 1246 23       		.byte	0x23
 7603 1247 00       		.uleb128 0x0
 7604 1248 16       		.uleb128 0x16
 7605 1249 EF0B0000 		.4byte	.LASF260
 7606 124d 0E       		.byte	0xe
 7607 124e 2201     		.2byte	0x122
 7608 1250 130A0000 		.4byte	0xa13
 7609 1254 02       		.byte	0x2
 7610 1255 23       		.byte	0x23
 7611 1256 04       		.uleb128 0x4
 7612 1257 16       		.uleb128 0x16
 7613 1258 8A0A0000 		.4byte	.LASF261
 7614 125c 0E       		.byte	0xe
 7615 125d 2801     		.2byte	0x128
 7616 125f 130A0000 		.4byte	0xa13
 7617 1263 02       		.byte	0x2
 7618 1264 23       		.byte	0x23
 7619 1265 08       		.uleb128 0x8
 7620 1266 16       		.uleb128 0x16
 7621 1267 07040000 		.4byte	.LASF262
 7622 126b 0E       		.byte	0xe
 7623 126c 2E01     		.2byte	0x12e
 7624 126e 130A0000 		.4byte	0xa13
 7625 1272 02       		.byte	0x2
 7626 1273 23       		.byte	0x23
 7627 1274 0C       		.uleb128 0xc
 7628 1275 16       		.uleb128 0x16
 7629 1276 6B0D0000 		.4byte	.LASF263
 7630 127a 0E       		.byte	0xe
 7631 127b 3401     		.2byte	0x134
 7632 127d 99000000 		.4byte	0x99
 7633 1281 02       		.byte	0x2
 7634 1282 23       		.byte	0x23
 7635 1283 10       		.uleb128 0x10
 7636 1284 16       		.uleb128 0x16
 7637 1285 6C0C0000 		.4byte	.LASF264
 7638 1289 0E       		.byte	0xe
 7639 128a 3A01     		.2byte	0x13a
 7640 128c 99000000 		.4byte	0x99
 7641 1290 02       		.byte	0x2
 7642 1291 23       		.byte	0x23
 7643 1292 12       		.uleb128 0x12
 7644 1293 16       		.uleb128 0x16
 7645 1294 45050000 		.4byte	.LASF265
 7646 1298 0E       		.byte	0xe
 7647 1299 3F01     		.2byte	0x13f
 7648 129b D0120000 		.4byte	0x12d0
 7649 129f 02       		.byte	0x2
 7650 12a0 23       		.byte	0x23
 7651 12a1 14       		.uleb128 0x14
 7652 12a2 16       		.uleb128 0x16
 7653 12a3 B1060000 		.4byte	.LASF266
 7654 12a7 0E       		.byte	0xe
ARM GAS  C:\Users\DNIEL~1\AppData\Local\Temp\cccPEDO0.s 			page 136


 7655 12a8 4401     		.2byte	0x144
 7656 12aa D6120000 		.4byte	0x12d6
 7657 12ae 02       		.byte	0x2
 7658 12af 23       		.byte	0x23
 7659 12b0 18       		.uleb128 0x18
 7660 12b1 16       		.uleb128 0x16
 7661 12b2 110D0000 		.4byte	.LASF267
 7662 12b6 0E       		.byte	0xe
 7663 12b7 4B01     		.2byte	0x14b
 7664 12b9 99000000 		.4byte	0x99
 7665 12bd 02       		.byte	0x2
 7666 12be 23       		.byte	0x23
 7667 12bf 1C       		.uleb128 0x1c
 7668 12c0 16       		.uleb128 0x16
 7669 12c1 69070000 		.4byte	.LASF268
 7670 12c5 0E       		.byte	0xe
 7671 12c6 5101     		.2byte	0x151
 7672 12c8 1E050000 		.4byte	0x51e
 7673 12cc 02       		.byte	0x2
 7674 12cd 23       		.byte	0x23
 7675 12ce 20       		.uleb128 0x20
 7676 12cf 00       		.byte	0x0
 7677 12d0 05       		.uleb128 0x5
 7678 12d1 04       		.byte	0x4
 7679 12d2 70110000 		.4byte	0x1170
 7680 12d6 05       		.uleb128 0x5
 7681 12d7 04       		.byte	0x4
 7682 12d8 24120000 		.4byte	0x1224
 7683 12dc 17       		.uleb128 0x17
 7684 12dd 9B030000 		.4byte	.LASF269
 7685 12e1 0E       		.byte	0xe
 7686 12e2 5201     		.2byte	0x152
 7687 12e4 30120000 		.4byte	0x1230
 7688 12e8 15       		.uleb128 0x15
 7689 12e9 10       		.byte	0x10
 7690 12ea 0E       		.byte	0xe
 7691 12eb 5701     		.2byte	0x157
 7692 12ed 2E130000 		.4byte	0x132e
 7693 12f1 16       		.uleb128 0x16
 7694 12f2 630C0000 		.4byte	.LASF270
 7695 12f6 0E       		.byte	0xe
 7696 12f7 5C01     		.2byte	0x15c
 7697 12f9 360A0000 		.4byte	0xa36
 7698 12fd 02       		.byte	0x2
 7699 12fe 23       		.byte	0x23
 7700 12ff 00       		.uleb128 0x0
 7701 1300 16       		.uleb128 0x16
 7702 1301 F80B0000 		.4byte	.LASF271
 7703 1305 0E       		.byte	0xe
 7704 1306 6101     		.2byte	0x161
 7705 1308 7B0A0000 		.4byte	0xa7b
 7706 130c 02       		.byte	0x2
 7707 130d 23       		.byte	0x23
 7708 130e 04       		.uleb128 0x4
 7709 130f 16       		.uleb128 0x16
 7710 1310 00010000 		.4byte	.LASF272
 7711 1314 0E       		.byte	0xe
ARM GAS  C:\Users\DNIEL~1\AppData\Local\Temp\cccPEDO0.s 			page 137


 7712 1315 6701     		.2byte	0x167
 7713 1317 590A0000 		.4byte	0xa59
 7714 131b 02       		.byte	0x2
 7715 131c 23       		.byte	0x23
 7716 131d 08       		.uleb128 0x8
 7717 131e 16       		.uleb128 0x16
 7718 131f F6060000 		.4byte	.LASF273
 7719 1323 0E       		.byte	0xe
 7720 1324 6B01     		.2byte	0x16b
 7721 1326 EF090000 		.4byte	0x9ef
 7722 132a 02       		.byte	0x2
 7723 132b 23       		.byte	0x23
 7724 132c 0C       		.uleb128 0xc
 7725 132d 00       		.byte	0x0
 7726 132e 17       		.uleb128 0x17
 7727 132f F4070000 		.4byte	.LASF274
 7728 1333 0E       		.byte	0xe
 7729 1334 6D01     		.2byte	0x16d
 7730 1336 E8120000 		.4byte	0x12e8
 7731 133a 05       		.uleb128 0x5
 7732 133b 04       		.byte	0x4
 7733 133c 40130000 		.4byte	0x1340
 7734 1340 06       		.uleb128 0x6
 7735 1341 2E130000 		.4byte	0x132e
 7736 1345 13       		.uleb128 0x13
 7737 1346 55130000 		.4byte	0x1355
 7738 134a 55130000 		.4byte	0x1355
 7739 134e 14       		.uleb128 0x14
 7740 134f 4C000000 		.4byte	0x4c
 7741 1353 03       		.byte	0x3
 7742 1354 00       		.byte	0x0
 7743 1355 05       		.uleb128 0x5
 7744 1356 04       		.byte	0x4
 7745 1357 5B130000 		.4byte	0x135b
 7746 135b 06       		.uleb128 0x6
 7747 135c DC120000 		.4byte	0x12dc
 7748 1360 13       		.uleb128 0x13
 7749 1361 68000000 		.4byte	0x68
 7750 1365 70130000 		.4byte	0x1370
 7751 1369 14       		.uleb128 0x14
 7752 136a 4C000000 		.4byte	0x4c
 7753 136e 02       		.byte	0x2
 7754 136f 00       		.byte	0x0
 7755 1370 05       		.uleb128 0x5
 7756 1371 04       		.byte	0x4
 7757 1372 85100000 		.4byte	0x1085
 7758 1376 05       		.uleb128 0x5
 7759 1377 04       		.byte	0x4
 7760 1378 7C130000 		.4byte	0x137c
 7761 137c 06       		.uleb128 0x6
 7762 137d C3100000 		.4byte	0x10c3
 7763 1381 13       		.uleb128 0x13
 7764 1382 C2020000 		.4byte	0x2c2
 7765 1386 91130000 		.4byte	0x1391
 7766 138a 14       		.uleb128 0x14
 7767 138b 4C000000 		.4byte	0x4c
 7768 138f 29       		.byte	0x29
ARM GAS  C:\Users\DNIEL~1\AppData\Local\Temp\cccPEDO0.s 			page 138


 7769 1390 00       		.byte	0x0
 7770 1391 0F       		.uleb128 0xf
 7771 1392 14       		.byte	0x14
 7772 1393 01       		.byte	0x1
 7773 1394 40       		.byte	0x40
 7774 1395 AF130000 		.4byte	0x13af
 7775 1399 20       		.uleb128 0x20
 7776 139a 696E00   		.ascii	"in\000"
 7777 139d 01       		.byte	0x1
 7778 139e 44       		.byte	0x44
 7779 139f 70110000 		.4byte	0x1170
 7780 13a3 20       		.uleb128 0x20
 7781 13a4 6F757400 		.ascii	"out\000"
 7782 13a8 01       		.byte	0x1
 7783 13a9 48       		.byte	0x48
 7784 13aa 24120000 		.4byte	0x1224
 7785 13ae 00       		.byte	0x0
 7786 13af 21       		.uleb128 0x21
 7787 13b0 76050000 		.4byte	.LASF276
 7788 13b4 01       		.byte	0x1
 7789 13b5 94       		.byte	0x94
 7790 13b6 01       		.byte	0x1
 7791 13b7 01       		.byte	0x1
 7792 13b8 DC130000 		.4byte	0x13dc
 7793 13bc 22       		.uleb128 0x22
 7794 13bd 8D050000 		.4byte	.LASF278
 7795 13c1 01       		.byte	0x1
 7796 13c2 94       		.byte	0x94
 7797 13c3 0D0A0000 		.4byte	0xa0d
 7798 13c7 23       		.uleb128 0x23
 7799 13c8 29060000 		.4byte	.LASF275
 7800 13cc 01       		.byte	0x1
 7801 13cd 95       		.byte	0x95
 7802 13ce 70130000 		.4byte	0x1370
 7803 13d2 24       		.uleb128 0x24
 7804 13d3 6900     		.ascii	"i\000"
 7805 13d5 01       		.byte	0x1
 7806 13d6 96       		.byte	0x96
 7807 13d7 4C000000 		.4byte	0x4c
 7808 13db 00       		.byte	0x0
 7809 13dc 21       		.uleb128 0x21
 7810 13dd 3C090000 		.4byte	.LASF277
 7811 13e1 01       		.byte	0x1
 7812 13e2 D4       		.byte	0xd4
 7813 13e3 01       		.byte	0x1
 7814 13e4 01       		.byte	0x1
 7815 13e5 F5130000 		.4byte	0x13f5
 7816 13e9 22       		.uleb128 0x22
 7817 13ea 8D050000 		.4byte	.LASF278
 7818 13ee 01       		.byte	0x1
 7819 13ef D4       		.byte	0xd4
 7820 13f0 0D0A0000 		.4byte	0xa0d
 7821 13f4 00       		.byte	0x0
 7822 13f5 25       		.uleb128 0x25
 7823 13f6 90060000 		.4byte	.LASF281
 7824 13fa 01       		.byte	0x1
 7825 13fb E1       		.byte	0xe1
ARM GAS  C:\Users\DNIEL~1\AppData\Local\Temp\cccPEDO0.s 			page 139


 7826 13fc 01       		.byte	0x1
 7827 13fd AF000000 		.4byte	0xaf
 7828 1401 01       		.byte	0x1
 7829 1402 28140000 		.4byte	0x1428
 7830 1406 22       		.uleb128 0x22
 7831 1407 8D050000 		.4byte	.LASF278
 7832 140b 01       		.byte	0x1
 7833 140c E1       		.byte	0xe1
 7834 140d 0D0A0000 		.4byte	0xa0d
 7835 1411 22       		.uleb128 0x22
 7836 1412 FD060000 		.4byte	.LASF279
 7837 1416 01       		.byte	0x1
 7838 1417 E1       		.byte	0xe1
 7839 1418 83000000 		.4byte	0x83
 7840 141c 23       		.uleb128 0x23
 7841 141d 3F010000 		.4byte	.LASF280
 7842 1421 01       		.byte	0x1
 7843 1422 E2       		.byte	0xe2
 7844 1423 AF000000 		.4byte	0xaf
 7845 1427 00       		.byte	0x0
 7846 1428 25       		.uleb128 0x25
 7847 1429 E8080000 		.4byte	.LASF282
 7848 142d 01       		.byte	0x1
 7849 142e F7       		.byte	0xf7
 7850 142f 01       		.byte	0x1
 7851 1430 1E050000 		.4byte	0x51e
 7852 1434 01       		.byte	0x1
 7853 1435 59140000 		.4byte	0x1459
 7854 1439 22       		.uleb128 0x22
 7855 143a 840B0000 		.4byte	.LASF283
 7856 143e 01       		.byte	0x1
 7857 143f F7       		.byte	0xf7
 7858 1440 63070000 		.4byte	0x763
 7859 1444 26       		.uleb128 0x26
 7860 1445 62756600 		.ascii	"buf\000"
 7861 1449 01       		.byte	0x1
 7862 144a F7       		.byte	0xf7
 7863 144b 1E050000 		.4byte	0x51e
 7864 144f 26       		.uleb128 0x26
 7865 1450 6E00     		.ascii	"n\000"
 7866 1452 01       		.byte	0x1
 7867 1453 F7       		.byte	0xf7
 7868 1454 83000000 		.4byte	0x83
 7869 1458 00       		.byte	0x0
 7870 1459 21       		.uleb128 0x21
 7871 145a BE030000 		.4byte	.LASF284
 7872 145e 01       		.byte	0x1
 7873 145f C3       		.byte	0xc3
 7874 1460 01       		.byte	0x1
 7875 1461 01       		.byte	0x1
 7876 1462 88140000 		.4byte	0x1488
 7877 1466 22       		.uleb128 0x22
 7878 1467 8D050000 		.4byte	.LASF278
 7879 146b 01       		.byte	0x1
 7880 146c C3       		.byte	0xc3
 7881 146d 0D0A0000 		.4byte	0xa0d
 7882 1471 22       		.uleb128 0x22
ARM GAS  C:\Users\DNIEL~1\AppData\Local\Temp\cccPEDO0.s 			page 140


 7883 1472 270C0000 		.4byte	.LASF285
 7884 1476 01       		.byte	0x1
 7885 1477 C3       		.byte	0xc3
 7886 1478 AF000000 		.4byte	0xaf
 7887 147c 23       		.uleb128 0x23
 7888 147d 29060000 		.4byte	.LASF275
 7889 1481 01       		.byte	0x1
 7890 1482 C4       		.byte	0xc4
 7891 1483 70130000 		.4byte	0x1370
 7892 1487 00       		.byte	0x0
 7893 1488 21       		.uleb128 0x21
 7894 1489 DA070000 		.4byte	.LASF286
 7895 148d 01       		.byte	0x1
 7896 148e B9       		.byte	0xb9
 7897 148f 01       		.byte	0x1
 7898 1490 01       		.byte	0x1
 7899 1491 AC140000 		.4byte	0x14ac
 7900 1495 22       		.uleb128 0x22
 7901 1496 8D050000 		.4byte	.LASF278
 7902 149a 01       		.byte	0x1
 7903 149b B9       		.byte	0xb9
 7904 149c 0D0A0000 		.4byte	0xa0d
 7905 14a0 23       		.uleb128 0x23
 7906 14a1 29060000 		.4byte	.LASF275
 7907 14a5 01       		.byte	0x1
 7908 14a6 BA       		.byte	0xba
 7909 14a7 70130000 		.4byte	0x1370
 7910 14ab 00       		.byte	0x0
 7911 14ac 21       		.uleb128 0x21
 7912 14ad FE070000 		.4byte	.LASF287
 7913 14b1 01       		.byte	0x1
 7914 14b2 83       		.byte	0x83
 7915 14b3 01       		.byte	0x1
 7916 14b4 01       		.byte	0x1
 7917 14b5 D0140000 		.4byte	0x14d0
 7918 14b9 22       		.uleb128 0x22
 7919 14ba 8D050000 		.4byte	.LASF278
 7920 14be 01       		.byte	0x1
 7921 14bf 83       		.byte	0x83
 7922 14c0 0D0A0000 		.4byte	0xa0d
 7923 14c4 23       		.uleb128 0x23
 7924 14c5 29060000 		.4byte	.LASF275
 7925 14c9 01       		.byte	0x1
 7926 14ca 84       		.byte	0x84
 7927 14cb 70130000 		.4byte	0x1370
 7928 14cf 00       		.byte	0x0
 7929 14d0 21       		.uleb128 0x21
 7930 14d1 D8030000 		.4byte	.LASF288
 7931 14d5 01       		.byte	0x1
 7932 14d6 7B       		.byte	0x7b
 7933 14d7 01       		.byte	0x1
 7934 14d8 01       		.byte	0x1
 7935 14d9 E9140000 		.4byte	0x14e9
 7936 14dd 22       		.uleb128 0x22
 7937 14de 8D050000 		.4byte	.LASF278
 7938 14e2 01       		.byte	0x1
 7939 14e3 7B       		.byte	0x7b
ARM GAS  C:\Users\DNIEL~1\AppData\Local\Temp\cccPEDO0.s 			page 141


 7940 14e4 0D0A0000 		.4byte	0xa0d
 7941 14e8 00       		.byte	0x0
 7942 14e9 27       		.uleb128 0x27
 7943 14ea DB090000 		.4byte	.LASF289
 7944 14ee 01       		.byte	0x1
 7945 14ef 5901     		.2byte	0x159
 7946 14f1 01       		.byte	0x1
 7947 14f2 1E050000 		.4byte	0x51e
 7948 14f6 01       		.byte	0x1
 7949 14f7 2A150000 		.4byte	0x152a
 7950 14fb 28       		.uleb128 0x28
 7951 14fc 840B0000 		.4byte	.LASF283
 7952 1500 01       		.byte	0x1
 7953 1501 5901     		.2byte	0x159
 7954 1503 63070000 		.4byte	0x763
 7955 1507 29       		.uleb128 0x29
 7956 1508 62756600 		.ascii	"buf\000"
 7957 150c 01       		.byte	0x1
 7958 150d 5901     		.2byte	0x159
 7959 150f 1E050000 		.4byte	0x51e
 7960 1513 29       		.uleb128 0x29
 7961 1514 6E00     		.ascii	"n\000"
 7962 1516 01       		.byte	0x1
 7963 1517 5901     		.2byte	0x159
 7964 1519 83000000 		.4byte	0x83
 7965 151d 2A       		.uleb128 0x2a
 7966 151e 2B       		.uleb128 0x2b
 7967 151f 7700     		.ascii	"w\000"
 7968 1521 01       		.byte	0x1
 7969 1522 5C01     		.2byte	0x15c
 7970 1524 AF000000 		.4byte	0xaf
 7971 1528 00       		.byte	0x0
 7972 1529 00       		.byte	0x0
 7973 152a 25       		.uleb128 0x25
 7974 152b EE050000 		.4byte	.LASF290
 7975 152f 02       		.byte	0x2
 7976 1530 3B       		.byte	0x3b
 7977 1531 01       		.byte	0x1
 7978 1532 84020000 		.4byte	0x284
 7979 1536 03       		.byte	0x3
 7980 1537 51150000 		.4byte	0x1551
 7981 153b 26       		.uleb128 0x26
 7982 153c 74717000 		.ascii	"tqp\000"
 7983 1540 02       		.byte	0x2
 7984 1541 3B       		.byte	0x3b
 7985 1542 51150000 		.4byte	0x1551
 7986 1546 24       		.uleb128 0x24
 7987 1547 747000   		.ascii	"tp\000"
 7988 154a 02       		.byte	0x2
 7989 154b 3C       		.byte	0x3c
 7990 154c 84020000 		.4byte	0x284
 7991 1550 00       		.byte	0x0
 7992 1551 05       		.uleb128 0x5
 7993 1552 04       		.byte	0x4
 7994 1553 8A020000 		.4byte	0x28a
 7995 1557 2C       		.uleb128 0x2c
 7996 1558 C3090000 		.4byte	.LASF291
ARM GAS  C:\Users\DNIEL~1\AppData\Local\Temp\cccPEDO0.s 			page 142


 7997 155c 01       		.byte	0x1
 7998 155d 7001     		.2byte	0x170
 7999 155f 01       		.byte	0x1
 8000 1560 01       		.byte	0x1
 8001 1561 A0150000 		.4byte	0x15a0
 8002 1565 28       		.uleb128 0x28
 8003 1566 840B0000 		.4byte	.LASF283
 8004 156a 01       		.byte	0x1
 8005 156b 7001     		.2byte	0x170
 8006 156d 63070000 		.4byte	0x763
 8007 1571 29       		.uleb128 0x29
 8008 1572 62756600 		.ascii	"buf\000"
 8009 1576 01       		.byte	0x1
 8010 1577 7101     		.2byte	0x171
 8011 1579 1E050000 		.4byte	0x51e
 8012 157d 29       		.uleb128 0x29
 8013 157e 6E00     		.ascii	"n\000"
 8014 1580 01       		.byte	0x1
 8015 1581 7201     		.2byte	0x172
 8016 1583 83000000 		.4byte	0x83
 8017 1587 29       		.uleb128 0x29
 8018 1588 6D617800 		.ascii	"max\000"
 8019 158c 01       		.byte	0x1
 8020 158d 7301     		.2byte	0x173
 8021 158f 83000000 		.4byte	0x83
 8022 1593 2A       		.uleb128 0x2a
 8023 1594 2B       		.uleb128 0x2b
 8024 1595 7700     		.ascii	"w\000"
 8025 1597 01       		.byte	0x1
 8026 1598 7801     		.2byte	0x178
 8027 159a AF000000 		.4byte	0xaf
 8028 159e 00       		.byte	0x0
 8029 159f 00       		.byte	0x0
 8030 15a0 2C       		.uleb128 0x2c
 8031 15a1 CC020000 		.4byte	.LASF292
 8032 15a5 01       		.byte	0x1
 8033 15a6 0C01     		.2byte	0x10c
 8034 15a8 01       		.byte	0x1
 8035 15a9 01       		.byte	0x1
 8036 15aa D1150000 		.4byte	0x15d1
 8037 15ae 28       		.uleb128 0x28
 8038 15af 840B0000 		.4byte	.LASF283
 8039 15b3 01       		.byte	0x1
 8040 15b4 0C01     		.2byte	0x10c
 8041 15b6 63070000 		.4byte	0x763
 8042 15ba 29       		.uleb128 0x29
 8043 15bb 62756600 		.ascii	"buf\000"
 8044 15bf 01       		.byte	0x1
 8045 15c0 0D01     		.2byte	0x10d
 8046 15c2 3A050000 		.4byte	0x53a
 8047 15c6 29       		.uleb128 0x29
 8048 15c7 6E00     		.ascii	"n\000"
 8049 15c9 01       		.byte	0x1
 8050 15ca 0E01     		.2byte	0x10e
 8051 15cc 83000000 		.4byte	0x83
 8052 15d0 00       		.byte	0x0
 8053 15d1 2D       		.uleb128 0x2d
ARM GAS  C:\Users\DNIEL~1\AppData\Local\Temp\cccPEDO0.s 			page 143


 8054 15d2 01       		.byte	0x1
 8055 15d3 780A0000 		.4byte	.LASF293
 8056 15d7 01       		.byte	0x1
 8057 15d8 0105     		.2byte	0x501
 8058 15da 01       		.byte	0x1
 8059 15db 01       		.byte	0x1
 8060 15dc F8150000 		.4byte	0x15f8
 8061 15e0 28       		.uleb128 0x28
 8062 15e1 8D050000 		.4byte	.LASF278
 8063 15e5 01       		.byte	0x1
 8064 15e6 0105     		.2byte	0x501
 8065 15e8 0D0A0000 		.4byte	0xa0d
 8066 15ec 29       		.uleb128 0x29
 8067 15ed 657000   		.ascii	"ep\000"
 8068 15f0 01       		.byte	0x1
 8069 15f1 0105     		.2byte	0x501
 8070 15f3 DD080000 		.4byte	0x8dd
 8071 15f7 00       		.byte	0x0
 8072 15f8 2D       		.uleb128 0x2d
 8073 15f9 01       		.byte	0x1
 8074 15fa 28070000 		.4byte	.LASF294
 8075 15fe 01       		.byte	0x1
 8076 15ff 0E05     		.2byte	0x50e
 8077 1601 01       		.byte	0x1
 8078 1602 01       		.byte	0x1
 8079 1603 1F160000 		.4byte	0x161f
 8080 1607 28       		.uleb128 0x28
 8081 1608 8D050000 		.4byte	.LASF278
 8082 160c 01       		.byte	0x1
 8083 160d 0E05     		.2byte	0x50e
 8084 160f 0D0A0000 		.4byte	0xa0d
 8085 1613 29       		.uleb128 0x29
 8086 1614 657000   		.ascii	"ep\000"
 8087 1617 01       		.byte	0x1
 8088 1618 0E05     		.2byte	0x50e
 8089 161a DD080000 		.4byte	0x8dd
 8090 161e 00       		.byte	0x0
 8091 161f 2C       		.uleb128 0x2c
 8092 1620 1E050000 		.4byte	.LASF295
 8093 1624 01       		.byte	0x1
 8094 1625 2702     		.2byte	0x227
 8095 1627 01       		.byte	0x1
 8096 1628 01       		.byte	0x1
 8097 1629 AF160000 		.4byte	0x16af
 8098 162d 28       		.uleb128 0x28
 8099 162e 8D050000 		.4byte	.LASF278
 8100 1632 01       		.byte	0x1
 8101 1633 2702     		.2byte	0x227
 8102 1635 0D0A0000 		.4byte	0xa0d
 8103 1639 29       		.uleb128 0x29
 8104 163a 657000   		.ascii	"ep\000"
 8105 163d 01       		.byte	0x1
 8106 163e 2702     		.2byte	0x227
 8107 1640 DD080000 		.4byte	0x8dd
 8108 1644 2E       		.uleb128 0x2e
 8109 1645 29060000 		.4byte	.LASF275
 8110 1649 01       		.byte	0x1
ARM GAS  C:\Users\DNIEL~1\AppData\Local\Temp\cccPEDO0.s 			page 144


 8111 164a 2802     		.2byte	0x228
 8112 164c 70130000 		.4byte	0x1370
 8113 1650 2E       		.uleb128 0x2e
 8114 1651 6B040000 		.4byte	.LASF296
 8115 1655 01       		.byte	0x1
 8116 1656 2902     		.2byte	0x229
 8117 1658 AF000000 		.4byte	0xaf
 8118 165c 2F       		.uleb128 0x2f
 8119 165d 8E160000 		.4byte	0x168e
 8120 1661 2B       		.uleb128 0x2b
 8121 1662 69737000 		.ascii	"isp\000"
 8122 1666 01       		.byte	0x1
 8123 1667 3202     		.2byte	0x232
 8124 1669 D0120000 		.4byte	0x12d0
 8125 166d 2F       		.uleb128 0x2f
 8126 166e 7F160000 		.4byte	0x167f
 8127 1672 2B       		.uleb128 0x2b
 8128 1673 746D7000 		.ascii	"tmp\000"
 8129 1677 01       		.byte	0x1
 8130 1678 3B02     		.2byte	0x23b
 8131 167a AF000000 		.4byte	0xaf
 8132 167e 00       		.byte	0x0
 8133 167f 2A       		.uleb128 0x2a
 8134 1680 2B       		.uleb128 0x2b
 8135 1681 746D7000 		.ascii	"tmp\000"
 8136 1685 01       		.byte	0x1
 8137 1686 3D02     		.2byte	0x23d
 8138 1688 AF000000 		.4byte	0xaf
 8139 168c 00       		.byte	0x0
 8140 168d 00       		.byte	0x0
 8141 168e 2F       		.uleb128 0x2f
 8142 168f A0160000 		.4byte	0x16a0
 8143 1693 2B       		.uleb128 0x2b
 8144 1694 746D7000 		.ascii	"tmp\000"
 8145 1698 01       		.byte	0x1
 8146 1699 4702     		.2byte	0x247
 8147 169b AF000000 		.4byte	0xaf
 8148 169f 00       		.byte	0x0
 8149 16a0 2A       		.uleb128 0x2a
 8150 16a1 2B       		.uleb128 0x2b
 8151 16a2 746D7000 		.ascii	"tmp\000"
 8152 16a6 01       		.byte	0x1
 8153 16a7 4B02     		.2byte	0x24b
 8154 16a9 AF000000 		.4byte	0xaf
 8155 16ad 00       		.byte	0x0
 8156 16ae 00       		.byte	0x0
 8157 16af 2C       		.uleb128 0x2c
 8158 16b0 B3070000 		.4byte	.LASF297
 8159 16b4 01       		.byte	0x1
 8160 16b5 5702     		.2byte	0x257
 8161 16b7 01       		.byte	0x1
 8162 16b8 01       		.byte	0x1
 8163 16b9 1B170000 		.4byte	0x171b
 8164 16bd 28       		.uleb128 0x28
 8165 16be 8D050000 		.4byte	.LASF278
 8166 16c2 01       		.byte	0x1
 8167 16c3 5702     		.2byte	0x257
ARM GAS  C:\Users\DNIEL~1\AppData\Local\Temp\cccPEDO0.s 			page 145


 8168 16c5 0D0A0000 		.4byte	0xa0d
 8169 16c9 29       		.uleb128 0x29
 8170 16ca 657000   		.ascii	"ep\000"
 8171 16cd 01       		.byte	0x1
 8172 16ce 5702     		.2byte	0x257
 8173 16d0 DD080000 		.4byte	0x8dd
 8174 16d4 2E       		.uleb128 0x2e
 8175 16d5 29060000 		.4byte	.LASF275
 8176 16d9 01       		.byte	0x1
 8177 16da 5802     		.2byte	0x258
 8178 16dc 70130000 		.4byte	0x1370
 8179 16e0 2E       		.uleb128 0x2e
 8180 16e1 6B040000 		.4byte	.LASF296
 8181 16e5 01       		.byte	0x1
 8182 16e6 5902     		.2byte	0x259
 8183 16e8 AF000000 		.4byte	0xaf
 8184 16ec 2A       		.uleb128 0x2a
 8185 16ed 2B       		.uleb128 0x2b
 8186 16ee 6F737000 		.ascii	"osp\000"
 8187 16f2 01       		.byte	0x1
 8188 16f3 6602     		.2byte	0x266
 8189 16f5 D6120000 		.4byte	0x12d6
 8190 16f9 2F       		.uleb128 0x2f
 8191 16fa 0B170000 		.4byte	0x170b
 8192 16fe 2B       		.uleb128 0x2b
 8193 16ff 746D7000 		.ascii	"tmp\000"
 8194 1703 01       		.byte	0x1
 8195 1704 6F02     		.2byte	0x26f
 8196 1706 AF000000 		.4byte	0xaf
 8197 170a 00       		.byte	0x0
 8198 170b 2A       		.uleb128 0x2a
 8199 170c 2B       		.uleb128 0x2b
 8200 170d 746D7000 		.ascii	"tmp\000"
 8201 1711 01       		.byte	0x1
 8202 1712 7102     		.2byte	0x271
 8203 1714 AF000000 		.4byte	0xaf
 8204 1718 00       		.byte	0x0
 8205 1719 00       		.byte	0x0
 8206 171a 00       		.byte	0x0
 8207 171b 2C       		.uleb128 0x2c
 8208 171c C3060000 		.4byte	.LASF298
 8209 1720 01       		.byte	0x1
 8210 1721 8102     		.2byte	0x281
 8211 1723 01       		.byte	0x1
 8212 1724 01       		.byte	0x1
 8213 1725 7A170000 		.4byte	0x177a
 8214 1729 28       		.uleb128 0x28
 8215 172a 8D050000 		.4byte	.LASF278
 8216 172e 01       		.byte	0x1
 8217 172f 8102     		.2byte	0x281
 8218 1731 0D0A0000 		.4byte	0xa0d
 8219 1735 2E       		.uleb128 0x2e
 8220 1736 29060000 		.4byte	.LASF275
 8221 173a 01       		.byte	0x1
 8222 173b 8202     		.2byte	0x282
 8223 173d 70130000 		.4byte	0x1370
 8224 1741 2B       		.uleb128 0x2b
ARM GAS  C:\Users\DNIEL~1\AppData\Local\Temp\cccPEDO0.s 			page 146


 8225 1742 73747300 		.ascii	"sts\000"
 8226 1746 01       		.byte	0x1
 8227 1747 8302     		.2byte	0x283
 8228 1749 AF000000 		.4byte	0xaf
 8229 174d 2B       		.uleb128 0x2b
 8230 174e 73726300 		.ascii	"src\000"
 8231 1752 01       		.byte	0x1
 8232 1753 8302     		.2byte	0x283
 8233 1755 AF000000 		.4byte	0xaf
 8234 1759 2F       		.uleb128 0x2f
 8235 175a 6B170000 		.4byte	0x176b
 8236 175e 2B       		.uleb128 0x2b
 8237 175f 746D7000 		.ascii	"tmp\000"
 8238 1763 01       		.byte	0x1
 8239 1764 9D02     		.2byte	0x29d
 8240 1766 AF000000 		.4byte	0xaf
 8241 176a 00       		.byte	0x0
 8242 176b 2A       		.uleb128 0x2a
 8243 176c 2B       		.uleb128 0x2b
 8244 176d 746D7000 		.ascii	"tmp\000"
 8245 1771 01       		.byte	0x1
 8246 1772 A002     		.2byte	0x2a0
 8247 1774 AF000000 		.4byte	0xaf
 8248 1778 00       		.byte	0x0
 8249 1779 00       		.byte	0x0
 8250 177a 2C       		.uleb128 0x2c
 8251 177b 44010000 		.4byte	.LASF299
 8252 177f 01       		.byte	0x1
 8253 1780 C401     		.2byte	0x1c4
 8254 1782 01       		.byte	0x1
 8255 1783 01       		.byte	0x1
 8256 1784 B8170000 		.4byte	0x17b8
 8257 1788 28       		.uleb128 0x28
 8258 1789 8D050000 		.4byte	.LASF278
 8259 178d 01       		.byte	0x1
 8260 178e C401     		.2byte	0x1c4
 8261 1790 0D0A0000 		.4byte	0xa0d
 8262 1794 2B       		.uleb128 0x2b
 8263 1795 73747300 		.ascii	"sts\000"
 8264 1799 01       		.byte	0x1
 8265 179a C501     		.2byte	0x1c5
 8266 179c AF000000 		.4byte	0xaf
 8267 17a0 2B       		.uleb128 0x2b
 8268 17a1 636E7400 		.ascii	"cnt\000"
 8269 17a5 01       		.byte	0x1
 8270 17a6 C501     		.2byte	0x1c5
 8271 17a8 AF000000 		.4byte	0xaf
 8272 17ac 2B       		.uleb128 0x2b
 8273 17ad 657000   		.ascii	"ep\000"
 8274 17b0 01       		.byte	0x1
 8275 17b1 C501     		.2byte	0x1c5
 8276 17b3 AF000000 		.4byte	0xaf
 8277 17b7 00       		.byte	0x0
 8278 17b8 2C       		.uleb128 0x2c
 8279 17b9 B5080000 		.4byte	.LASF300
 8280 17bd 01       		.byte	0x1
 8281 17be 8D01     		.2byte	0x18d
ARM GAS  C:\Users\DNIEL~1\AppData\Local\Temp\cccPEDO0.s 			page 147


 8282 17c0 01       		.byte	0x1
 8283 17c1 01       		.byte	0x1
 8284 17c2 54180000 		.4byte	0x1854
 8285 17c6 28       		.uleb128 0x28
 8286 17c7 840B0000 		.4byte	.LASF283
 8287 17cb 01       		.byte	0x1
 8288 17cc 8D01     		.2byte	0x18d
 8289 17ce 63070000 		.4byte	0x763
 8290 17d2 29       		.uleb128 0x29
 8291 17d3 69717000 		.ascii	"iqp\000"
 8292 17d7 01       		.byte	0x1
 8293 17d8 8E01     		.2byte	0x18e
 8294 17da AC110000 		.4byte	0x11ac
 8295 17de 29       		.uleb128 0x29
 8296 17df 6E00     		.ascii	"n\000"
 8297 17e1 01       		.byte	0x1
 8298 17e2 8F01     		.2byte	0x18f
 8299 17e4 83000000 		.4byte	0x83
 8300 17e8 2E       		.uleb128 0x2e
 8301 17e9 180A0000 		.4byte	.LASF301
 8302 17ed 01       		.byte	0x1
 8303 17ee 9001     		.2byte	0x190
 8304 17f0 83000000 		.4byte	0x83
 8305 17f4 2F       		.uleb128 0x2f
 8306 17f5 33180000 		.4byte	0x1833
 8307 17f9 2B       		.uleb128 0x2b
 8308 17fa 7700     		.ascii	"w\000"
 8309 17fc 01       		.byte	0x1
 8310 17fd 9401     		.2byte	0x194
 8311 17ff AF000000 		.4byte	0xaf
 8312 1803 2B       		.uleb128 0x2b
 8313 1804 6900     		.ascii	"i\000"
 8314 1806 01       		.byte	0x1
 8315 1807 9401     		.2byte	0x194
 8316 1809 AF000000 		.4byte	0xaf
 8317 180d 2B       		.uleb128 0x2b
 8318 180e 6E7700   		.ascii	"nw\000"
 8319 1811 01       		.byte	0x1
 8320 1812 9501     		.2byte	0x195
 8321 1814 83000000 		.4byte	0x83
 8322 1818 2A       		.uleb128 0x2a
 8323 1819 2E       		.uleb128 0x2e
 8324 181a 390D0000 		.4byte	.LASF302
 8325 181e 01       		.byte	0x1
 8326 181f 9801     		.2byte	0x198
 8327 1821 83000000 		.4byte	0x83
 8328 1825 2E       		.uleb128 0x2e
 8329 1826 A0080000 		.4byte	.LASF303
 8330 182a 01       		.byte	0x1
 8331 182b 9901     		.2byte	0x199
 8332 182d AF000000 		.4byte	0xaf
 8333 1831 00       		.byte	0x0
 8334 1832 00       		.byte	0x0
 8335 1833 2F       		.uleb128 0x2f
 8336 1834 45180000 		.4byte	0x1845
 8337 1838 2B       		.uleb128 0x2b
 8338 1839 746D7000 		.ascii	"tmp\000"
ARM GAS  C:\Users\DNIEL~1\AppData\Local\Temp\cccPEDO0.s 			page 148


 8339 183d 01       		.byte	0x1
 8340 183e B501     		.2byte	0x1b5
 8341 1840 AF000000 		.4byte	0xaf
 8342 1844 00       		.byte	0x0
 8343 1845 2A       		.uleb128 0x2a
 8344 1846 2B       		.uleb128 0x2b
 8345 1847 746D7000 		.ascii	"tmp\000"
 8346 184b 01       		.byte	0x1
 8347 184c BA01     		.2byte	0x1ba
 8348 184e AF000000 		.4byte	0xaf
 8349 1852 00       		.byte	0x0
 8350 1853 00       		.byte	0x0
 8351 1854 27       		.uleb128 0x27
 8352 1855 C0010000 		.4byte	.LASF304
 8353 1859 01       		.byte	0x1
 8354 185a F301     		.2byte	0x1f3
 8355 185c 01       		.byte	0x1
 8356 185d C5000000 		.4byte	0xc5
 8357 1861 01       		.byte	0x1
 8358 1862 8A180000 		.4byte	0x188a
 8359 1866 28       		.uleb128 0x28
 8360 1867 8D050000 		.4byte	.LASF278
 8361 186b 01       		.byte	0x1
 8362 186c F301     		.2byte	0x1f3
 8363 186e 0D0A0000 		.4byte	0xa0d
 8364 1872 29       		.uleb128 0x29
 8365 1873 657000   		.ascii	"ep\000"
 8366 1876 01       		.byte	0x1
 8367 1877 F301     		.2byte	0x1f3
 8368 1879 DD080000 		.4byte	0x8dd
 8369 187d 2A       		.uleb128 0x2a
 8370 187e 2B       		.uleb128 0x2b
 8371 187f 6E00     		.ascii	"n\000"
 8372 1881 01       		.byte	0x1
 8373 1882 F701     		.2byte	0x1f7
 8374 1884 AF000000 		.4byte	0xaf
 8375 1888 00       		.byte	0x0
 8376 1889 00       		.byte	0x0
 8377 188a 2C       		.uleb128 0x2c
 8378 188b A1000000 		.4byte	.LASF305
 8379 188f 01       		.byte	0x1
 8380 1890 1C01     		.2byte	0x11c
 8381 1892 01       		.byte	0x1
 8382 1893 01       		.byte	0x1
 8383 1894 26190000 		.4byte	0x1926
 8384 1898 28       		.uleb128 0x28
 8385 1899 840B0000 		.4byte	.LASF283
 8386 189d 01       		.byte	0x1
 8387 189e 1C01     		.2byte	0x11c
 8388 18a0 63070000 		.4byte	0x763
 8389 18a4 29       		.uleb128 0x29
 8390 18a5 6F717000 		.ascii	"oqp\000"
 8391 18a9 01       		.byte	0x1
 8392 18aa 1D01     		.2byte	0x11d
 8393 18ac FC100000 		.4byte	0x10fc
 8394 18b0 29       		.uleb128 0x29
 8395 18b1 6E00     		.ascii	"n\000"
ARM GAS  C:\Users\DNIEL~1\AppData\Local\Temp\cccPEDO0.s 			page 149


 8396 18b3 01       		.byte	0x1
 8397 18b4 1E01     		.2byte	0x11e
 8398 18b6 83000000 		.4byte	0x83
 8399 18ba 2E       		.uleb128 0x2e
 8400 18bb 180A0000 		.4byte	.LASF301
 8401 18bf 01       		.byte	0x1
 8402 18c0 1F01     		.2byte	0x11f
 8403 18c2 83000000 		.4byte	0x83
 8404 18c6 2F       		.uleb128 0x2f
 8405 18c7 05190000 		.4byte	0x1905
 8406 18cb 2B       		.uleb128 0x2b
 8407 18cc 7700     		.ascii	"w\000"
 8408 18ce 01       		.byte	0x1
 8409 18cf 2301     		.2byte	0x123
 8410 18d1 AF000000 		.4byte	0xaf
 8411 18d5 2B       		.uleb128 0x2b
 8412 18d6 6900     		.ascii	"i\000"
 8413 18d8 01       		.byte	0x1
 8414 18d9 2301     		.2byte	0x123
 8415 18db AF000000 		.4byte	0xaf
 8416 18df 2B       		.uleb128 0x2b
 8417 18e0 6E7700   		.ascii	"nw\000"
 8418 18e3 01       		.byte	0x1
 8419 18e4 2401     		.2byte	0x124
 8420 18e6 83000000 		.4byte	0x83
 8421 18ea 2A       		.uleb128 0x2a
 8422 18eb 2E       		.uleb128 0x2e
 8423 18ec 390D0000 		.4byte	.LASF302
 8424 18f0 01       		.byte	0x1
 8425 18f1 2701     		.2byte	0x127
 8426 18f3 83000000 		.4byte	0x83
 8427 18f7 2E       		.uleb128 0x2e
 8428 18f8 A0080000 		.4byte	.LASF303
 8429 18fc 01       		.byte	0x1
 8430 18fd 2801     		.2byte	0x128
 8431 18ff AF000000 		.4byte	0xaf
 8432 1903 00       		.byte	0x0
 8433 1904 00       		.byte	0x0
 8434 1905 2F       		.uleb128 0x2f
 8435 1906 17190000 		.4byte	0x1917
 8436 190a 2B       		.uleb128 0x2b
 8437 190b 746D7000 		.ascii	"tmp\000"
 8438 190f 01       		.byte	0x1
 8439 1910 4501     		.2byte	0x145
 8440 1912 AF000000 		.4byte	0xaf
 8441 1916 00       		.byte	0x0
 8442 1917 2A       		.uleb128 0x2a
 8443 1918 2B       		.uleb128 0x2b
 8444 1919 746D7000 		.ascii	"tmp\000"
 8445 191d 01       		.byte	0x1
 8446 191e 4A01     		.2byte	0x14a
 8447 1920 AF000000 		.4byte	0xaf
 8448 1924 00       		.byte	0x0
 8449 1925 00       		.byte	0x0
 8450 1926 30       		.uleb128 0x30
 8451 1927 960C0000 		.4byte	.LASF336
 8452 192b 01       		.byte	0x1
ARM GAS  C:\Users\DNIEL~1\AppData\Local\Temp\cccPEDO0.s 			page 150


 8453 192c CB02     		.2byte	0x2cb
 8454 192e 01       		.byte	0x1
 8455 192f 0E010000 		.4byte	0x10e
 8456 1933 00000000 		.4byte	.LFB136
 8457 1937 18050000 		.4byte	.LFE136
 8458 193b 00000000 		.4byte	.LLST0
 8459 193f AD1D0000 		.4byte	0x1dad
 8460 1943 31       		.uleb128 0x31
 8461 1944 7000     		.ascii	"p\000"
 8462 1946 01       		.byte	0x1
 8463 1947 CB02     		.2byte	0x2cb
 8464 1949 68000000 		.4byte	0x68
 8465 194d 2D000000 		.4byte	.LLST1
 8466 1951 32       		.uleb128 0x32
 8467 1952 8D050000 		.4byte	.LASF278
 8468 1956 01       		.byte	0x1
 8469 1957 CC02     		.2byte	0x2cc
 8470 1959 0D0A0000 		.4byte	0xa0d
 8471 195d 77000000 		.4byte	.LLST2
 8472 1961 32       		.uleb128 0x32
 8473 1962 29060000 		.4byte	.LASF275
 8474 1966 01       		.byte	0x1
 8475 1967 CD02     		.2byte	0x2cd
 8476 1969 70130000 		.4byte	0x1370
 8477 196d C1000000 		.4byte	.LLST3
 8478 1971 33       		.uleb128 0x33
 8479 1972 14000000 		.4byte	.LBB141
 8480 1976 1A000000 		.4byte	.LBE141
 8481 197a 8F190000 		.4byte	0x198f
 8482 197e 34       		.uleb128 0x34
 8483 197f 746D7000 		.ascii	"tmp\000"
 8484 1983 01       		.byte	0x1
 8485 1984 D002     		.2byte	0x2d0
 8486 1986 AF000000 		.4byte	0xaf
 8487 198a D6000000 		.4byte	.LLST4
 8488 198e 00       		.byte	0x0
 8489 198f 35       		.uleb128 0x35
 8490 1990 00000000 		.4byte	.Ldebug_ranges0+0x0
 8491 1994 34       		.uleb128 0x34
 8492 1995 657000   		.ascii	"ep\000"
 8493 1998 01       		.byte	0x1
 8494 1999 D202     		.2byte	0x2d2
 8495 199b DD080000 		.4byte	0x8dd
 8496 199f F4000000 		.4byte	.LLST5
 8497 19a3 32       		.uleb128 0x32
 8498 19a4 62070000 		.4byte	.LASF306
 8499 19a8 01       		.byte	0x1
 8500 19a9 D302     		.2byte	0x2d3
 8501 19ab AF000000 		.4byte	0xaf
 8502 19af 14010000 		.4byte	.LLST6
 8503 19b3 33       		.uleb128 0x33
 8504 19b4 FE000000 		.4byte	.LBB143
 8505 19b8 04010000 		.4byte	.LBE143
 8506 19bc D1190000 		.4byte	0x19d1
 8507 19c0 34       		.uleb128 0x34
 8508 19c1 746D7000 		.ascii	"tmp\000"
 8509 19c5 01       		.byte	0x1
ARM GAS  C:\Users\DNIEL~1\AppData\Local\Temp\cccPEDO0.s 			page 151


 8510 19c6 FF02     		.2byte	0x2ff
 8511 19c8 AF000000 		.4byte	0xaf
 8512 19cc 4A010000 		.4byte	.LLST7
 8513 19d0 00       		.byte	0x0
 8514 19d1 36       		.uleb128 0x36
 8515 19d2 7A170000 		.4byte	0x177a
 8516 19d6 5C000000 		.4byte	.LBB144
 8517 19da 18000000 		.4byte	.Ldebug_ranges0+0x18
 8518 19de 01       		.byte	0x1
 8519 19df E302     		.2byte	0x2e3
 8520 19e1 791B0000 		.4byte	0x1b79
 8521 19e5 37       		.uleb128 0x37
 8522 19e6 88170000 		.4byte	0x1788
 8523 19ea 73010000 		.4byte	.LLST8
 8524 19ee 35       		.uleb128 0x35
 8525 19ef 30000000 		.4byte	.Ldebug_ranges0+0x30
 8526 19f3 38       		.uleb128 0x38
 8527 19f4 94170000 		.4byte	0x1794
 8528 19f8 91010000 		.4byte	.LLST9
 8529 19fc 38       		.uleb128 0x38
 8530 19fd A0170000 		.4byte	0x17a0
 8531 1a01 AF010000 		.4byte	.LLST10
 8532 1a05 38       		.uleb128 0x38
 8533 1a06 AC170000 		.4byte	0x17ac
 8534 1a0a F6010000 		.4byte	.LLST11
 8535 1a0e 36       		.uleb128 0x36
 8536 1a0f 57150000 		.4byte	0x1557
 8537 1a13 7C000000 		.4byte	.LBB148
 8538 1a17 48000000 		.4byte	.Ldebug_ranges0+0x48
 8539 1a1b 01       		.byte	0x1
 8540 1a1c CE01     		.2byte	0x1ce
 8541 1a1e 541A0000 		.4byte	0x1a54
 8542 1a22 37       		.uleb128 0x37
 8543 1a23 87150000 		.4byte	0x1587
 8544 1a27 18020000 		.4byte	.LLST12
 8545 1a2b 39       		.uleb128 0x39
 8546 1a2c 7D150000 		.4byte	0x157d
 8547 1a30 01       		.byte	0x1
 8548 1a31 54       		.byte	0x54
 8549 1a32 37       		.uleb128 0x37
 8550 1a33 71150000 		.4byte	0x1571
 8551 1a37 6F020000 		.4byte	.LLST13
 8552 1a3b 37       		.uleb128 0x37
 8553 1a3c 65150000 		.4byte	0x1565
 8554 1a40 B2020000 		.4byte	.LLST14
 8555 1a44 35       		.uleb128 0x35
 8556 1a45 68000000 		.4byte	.Ldebug_ranges0+0x68
 8557 1a49 38       		.uleb128 0x38
 8558 1a4a 94150000 		.4byte	0x1594
 8559 1a4e C5020000 		.4byte	.LLST15
 8560 1a52 00       		.byte	0x0
 8561 1a53 00       		.byte	0x0
 8562 1a54 36       		.uleb128 0x36
 8563 1a55 57150000 		.4byte	0x1557
 8564 1a59 20010000 		.4byte	.LBB157
 8565 1a5d 98000000 		.4byte	.Ldebug_ranges0+0x98
 8566 1a61 01       		.byte	0x1
ARM GAS  C:\Users\DNIEL~1\AppData\Local\Temp\cccPEDO0.s 			page 152


 8567 1a62 DB01     		.2byte	0x1db
 8568 1a64 9C1A0000 		.4byte	0x1a9c
 8569 1a68 37       		.uleb128 0x37
 8570 1a69 87150000 		.4byte	0x1587
 8571 1a6d D8020000 		.4byte	.LLST16
 8572 1a71 37       		.uleb128 0x37
 8573 1a72 7D150000 		.4byte	0x157d
 8574 1a76 01030000 		.4byte	.LLST17
 8575 1a7a 37       		.uleb128 0x37
 8576 1a7b 71150000 		.4byte	0x1571
 8577 1a7f 14030000 		.4byte	.LLST18
 8578 1a83 37       		.uleb128 0x37
 8579 1a84 65150000 		.4byte	0x1565
 8580 1a88 48030000 		.4byte	.LLST19
 8581 1a8c 35       		.uleb128 0x35
 8582 1a8d B8000000 		.4byte	.Ldebug_ranges0+0xb8
 8583 1a91 38       		.uleb128 0x38
 8584 1a92 94150000 		.4byte	0x1594
 8585 1a96 5B030000 		.4byte	.LLST20
 8586 1a9a 00       		.byte	0x0
 8587 1a9b 00       		.byte	0x0
 8588 1a9c 3A       		.uleb128 0x3a
 8589 1a9d B8170000 		.4byte	0x17b8
 8590 1aa1 AA010000 		.4byte	.LBB166
 8591 1aa5 A4020000 		.4byte	.LBE166
 8592 1aa9 01       		.byte	0x1
 8593 1aaa D601     		.2byte	0x1d6
 8594 1aac 37       		.uleb128 0x37
 8595 1aad DE170000 		.4byte	0x17de
 8596 1ab1 6E030000 		.4byte	.LLST21
 8597 1ab5 37       		.uleb128 0x37
 8598 1ab6 D2170000 		.4byte	0x17d2
 8599 1aba 97030000 		.4byte	.LLST22
 8600 1abe 37       		.uleb128 0x37
 8601 1abf C6170000 		.4byte	0x17c6
 8602 1ac3 CC030000 		.4byte	.LLST23
 8603 1ac7 3B       		.uleb128 0x3b
 8604 1ac8 AA010000 		.4byte	.LBB167
 8605 1acc A4020000 		.4byte	.LBE167
 8606 1ad0 38       		.uleb128 0x38
 8607 1ad1 E8170000 		.4byte	0x17e8
 8608 1ad5 DF030000 		.4byte	.LLST24
 8609 1ad9 33       		.uleb128 0x33
 8610 1ada B4010000 		.4byte	.LBB168
 8611 1ade 5E020000 		.4byte	.LBE168
 8612 1ae2 1A1B0000 		.4byte	0x1b1a
 8613 1ae6 38       		.uleb128 0x38
 8614 1ae7 F9170000 		.4byte	0x17f9
 8615 1aeb 5D040000 		.4byte	.LLST25
 8616 1aef 38       		.uleb128 0x38
 8617 1af0 03180000 		.4byte	0x1803
 8618 1af4 70040000 		.4byte	.LLST26
 8619 1af8 38       		.uleb128 0x38
 8620 1af9 0D180000 		.4byte	0x180d
 8621 1afd A8040000 		.4byte	.LLST27
 8622 1b01 35       		.uleb128 0x35
 8623 1b02 D8000000 		.4byte	.Ldebug_ranges0+0xd8
ARM GAS  C:\Users\DNIEL~1\AppData\Local\Temp\cccPEDO0.s 			page 153


 8624 1b06 38       		.uleb128 0x38
 8625 1b07 19180000 		.4byte	0x1819
 8626 1b0b CE040000 		.4byte	.LLST28
 8627 1b0f 38       		.uleb128 0x38
 8628 1b10 25180000 		.4byte	0x1825
 8629 1b14 E2040000 		.4byte	.LLST29
 8630 1b18 00       		.byte	0x0
 8631 1b19 00       		.byte	0x0
 8632 1b1a 33       		.uleb128 0x33
 8633 1b1b 5E020000 		.4byte	.LBB172
 8634 1b1f 64020000 		.4byte	.LBE172
 8635 1b23 311B0000 		.4byte	0x1b31
 8636 1b27 38       		.uleb128 0x38
 8637 1b28 38180000 		.4byte	0x1838
 8638 1b2c F6040000 		.4byte	.LLST30
 8639 1b30 00       		.byte	0x0
 8640 1b31 3C       		.uleb128 0x3c
 8641 1b32 2A150000 		.4byte	0x152a
 8642 1b36 7C020000 		.4byte	.LBB173
 8643 1b3a 82020000 		.4byte	.LBE173
 8644 1b3e 01       		.byte	0x1
 8645 1b3f B801     		.2byte	0x1b8
 8646 1b41 621B0000 		.4byte	0x1b62
 8647 1b45 37       		.uleb128 0x37
 8648 1b46 3B150000 		.4byte	0x153b
 8649 1b4a 09050000 		.4byte	.LLST31
 8650 1b4e 3B       		.uleb128 0x3b
 8651 1b4f 7C020000 		.4byte	.LBB174
 8652 1b53 82020000 		.4byte	.LBE174
 8653 1b57 38       		.uleb128 0x38
 8654 1b58 46150000 		.4byte	0x1546
 8655 1b5c 1C050000 		.4byte	.LLST32
 8656 1b60 00       		.byte	0x0
 8657 1b61 00       		.byte	0x0
 8658 1b62 3B       		.uleb128 0x3b
 8659 1b63 94020000 		.4byte	.LBB175
 8660 1b67 A4020000 		.4byte	.LBE175
 8661 1b6b 38       		.uleb128 0x38
 8662 1b6c 46180000 		.4byte	0x1846
 8663 1b70 2F050000 		.4byte	.LLST33
 8664 1b74 00       		.byte	0x0
 8665 1b75 00       		.byte	0x0
 8666 1b76 00       		.byte	0x0
 8667 1b77 00       		.byte	0x0
 8668 1b78 00       		.byte	0x0
 8669 1b79 3D       		.uleb128 0x3d
 8670 1b7a F8000000 		.4byte	.Ldebug_ranges0+0xf8
 8671 1b7e 931B0000 		.4byte	0x1b93
 8672 1b82 34       		.uleb128 0x34
 8673 1b83 746D7000 		.ascii	"tmp\000"
 8674 1b87 01       		.byte	0x1
 8675 1b88 DC02     		.2byte	0x2dc
 8676 1b8a AF000000 		.4byte	0xaf
 8677 1b8e 58050000 		.4byte	.LLST34
 8678 1b92 00       		.byte	0x0
 8679 1b93 3B       		.uleb128 0x3b
 8680 1b94 A4020000 		.4byte	.LBB180
ARM GAS  C:\Users\DNIEL~1\AppData\Local\Temp\cccPEDO0.s 			page 154


 8681 1b98 18050000 		.4byte	.LBE180
 8682 1b9c 3E       		.uleb128 0x3e
 8683 1b9d 96070000 		.4byte	.LASF307
 8684 1ba1 01       		.byte	0x1
 8685 1ba2 E802     		.2byte	0x2e8
 8686 1ba4 C5000000 		.4byte	0xc5
 8687 1ba8 01       		.byte	0x1
 8688 1ba9 52       		.byte	0x52
 8689 1baa 33       		.uleb128 0x33
 8690 1bab A4020000 		.4byte	.LBB181
 8691 1baf AA020000 		.4byte	.LBE181
 8692 1bb3 C81B0000 		.4byte	0x1bc8
 8693 1bb7 34       		.uleb128 0x34
 8694 1bb8 746D7000 		.ascii	"tmp\000"
 8695 1bbc 01       		.byte	0x1
 8696 1bbd EA02     		.2byte	0x2ea
 8697 1bbf AF000000 		.4byte	0xaf
 8698 1bc3 81050000 		.4byte	.LLST35
 8699 1bc7 00       		.byte	0x0
 8700 1bc8 3D       		.uleb128 0x3d
 8701 1bc9 10010000 		.4byte	.Ldebug_ranges0+0x110
 8702 1bcd E21B0000 		.4byte	0x1be2
 8703 1bd1 34       		.uleb128 0x34
 8704 1bd2 746D7000 		.ascii	"tmp\000"
 8705 1bd6 01       		.byte	0x1
 8706 1bd7 F402     		.2byte	0x2f4
 8707 1bd9 AF000000 		.4byte	0xaf
 8708 1bdd 94050000 		.4byte	.LLST36
 8709 1be1 00       		.byte	0x0
 8710 1be2 36       		.uleb128 0x36
 8711 1be3 54180000 		.4byte	0x1854
 8712 1be7 C4020000 		.4byte	.LBB184
 8713 1beb 28010000 		.4byte	.Ldebug_ranges0+0x128
 8714 1bef 01       		.byte	0x1
 8715 1bf0 F602     		.2byte	0x2f6
 8716 1bf2 721D0000 		.4byte	0x1d72
 8717 1bf6 39       		.uleb128 0x39
 8718 1bf7 72180000 		.4byte	0x1872
 8719 1bfb 02       		.byte	0x2
 8720 1bfc 91       		.byte	0x91
 8721 1bfd 44       		.sleb128 -60
 8722 1bfe 37       		.uleb128 0x37
 8723 1bff 66180000 		.4byte	0x1866
 8724 1c03 BD050000 		.4byte	.LLST37
 8725 1c07 35       		.uleb128 0x35
 8726 1c08 40010000 		.4byte	.Ldebug_ranges0+0x140
 8727 1c0c 38       		.uleb128 0x38
 8728 1c0d 7E180000 		.4byte	0x187e
 8729 1c11 FC050000 		.4byte	.LLST38
 8730 1c15 36       		.uleb128 0x36
 8731 1c16 A0150000 		.4byte	0x15a0
 8732 1c1a 20030000 		.4byte	.LBB188
 8733 1c1e 58010000 		.4byte	.Ldebug_ranges0+0x158
 8734 1c22 01       		.byte	0x1
 8735 1c23 1302     		.2byte	0x213
 8736 1c25 711C0000 		.4byte	0x1c71
 8737 1c29 37       		.uleb128 0x37
ARM GAS  C:\Users\DNIEL~1\AppData\Local\Temp\cccPEDO0.s 			page 155


 8738 1c2a C6150000 		.4byte	0x15c6
 8739 1c2e 72060000 		.4byte	.LLST39
 8740 1c32 37       		.uleb128 0x37
 8741 1c33 BA150000 		.4byte	0x15ba
 8742 1c37 85060000 		.4byte	.LLST40
 8743 1c3b 37       		.uleb128 0x37
 8744 1c3c AE150000 		.4byte	0x15ae
 8745 1c40 B1060000 		.4byte	.LLST41
 8746 1c44 3F       		.uleb128 0x3f
 8747 1c45 28140000 		.4byte	0x1428
 8748 1c49 28030000 		.4byte	.LBB191
 8749 1c4d 78010000 		.4byte	.Ldebug_ranges0+0x178
 8750 1c51 01       		.byte	0x1
 8751 1c52 1001     		.2byte	0x110
 8752 1c54 37       		.uleb128 0x37
 8753 1c55 4F140000 		.4byte	0x144f
 8754 1c59 C4060000 		.4byte	.LLST42
 8755 1c5d 37       		.uleb128 0x37
 8756 1c5e 44140000 		.4byte	0x1444
 8757 1c62 E4060000 		.4byte	.LLST43
 8758 1c66 37       		.uleb128 0x37
 8759 1c67 39140000 		.4byte	0x1439
 8760 1c6b F8060000 		.4byte	.LLST44
 8761 1c6f 00       		.byte	0x0
 8762 1c70 00       		.byte	0x0
 8763 1c71 3A       		.uleb128 0x3a
 8764 1c72 8A180000 		.4byte	0x188a
 8765 1c76 E8030000 		.4byte	.LBB196
 8766 1c7a 10050000 		.4byte	.LBE196
 8767 1c7e 01       		.byte	0x1
 8768 1c7f 0D02     		.2byte	0x20d
 8769 1c81 37       		.uleb128 0x37
 8770 1c82 B0180000 		.4byte	0x18b0
 8771 1c86 0B070000 		.4byte	.LLST45
 8772 1c8a 37       		.uleb128 0x37
 8773 1c8b A4180000 		.4byte	0x18a4
 8774 1c8f 3F070000 		.4byte	.LLST46
 8775 1c93 37       		.uleb128 0x37
 8776 1c94 98180000 		.4byte	0x1898
 8777 1c98 5E070000 		.4byte	.LLST47
 8778 1c9c 3B       		.uleb128 0x3b
 8779 1c9d E8030000 		.4byte	.LBB197
 8780 1ca1 10050000 		.4byte	.LBE197
 8781 1ca5 38       		.uleb128 0x38
 8782 1ca6 BA180000 		.4byte	0x18ba
 8783 1caa 7C070000 		.4byte	.LLST48
 8784 1cae 3D       		.uleb128 0x3d
 8785 1caf 90010000 		.4byte	.Ldebug_ranges0+0x190
 8786 1cb3 131D0000 		.4byte	0x1d13
 8787 1cb7 38       		.uleb128 0x38
 8788 1cb8 CB180000 		.4byte	0x18cb
 8789 1cbc E0070000 		.4byte	.LLST49
 8790 1cc0 38       		.uleb128 0x38
 8791 1cc1 D5180000 		.4byte	0x18d5
 8792 1cc5 2B080000 		.4byte	.LLST50
 8793 1cc9 38       		.uleb128 0x38
 8794 1cca DF180000 		.4byte	0x18df
ARM GAS  C:\Users\DNIEL~1\AppData\Local\Temp\cccPEDO0.s 			page 156


 8795 1cce 6F080000 		.4byte	.LLST51
 8796 1cd2 35       		.uleb128 0x35
 8797 1cd3 B0010000 		.4byte	.Ldebug_ranges0+0x1b0
 8798 1cd7 38       		.uleb128 0x38
 8799 1cd8 EB180000 		.4byte	0x18eb
 8800 1cdc 91080000 		.4byte	.LLST52
 8801 1ce0 38       		.uleb128 0x38
 8802 1ce1 F7180000 		.4byte	0x18f7
 8803 1ce5 CB080000 		.4byte	.LLST53
 8804 1ce9 3F       		.uleb128 0x3f
 8805 1cea 28140000 		.4byte	0x1428
 8806 1cee 94040000 		.4byte	.LBB201
 8807 1cf2 C8010000 		.4byte	.Ldebug_ranges0+0x1c8
 8808 1cf6 01       		.byte	0x1
 8809 1cf7 2B01     		.2byte	0x12b
 8810 1cf9 37       		.uleb128 0x37
 8811 1cfa 44140000 		.4byte	0x1444
 8812 1cfe E6080000 		.4byte	.LLST54
 8813 1d02 40       		.uleb128 0x40
 8814 1d03 39140000 		.4byte	0x1439
 8815 1d07 37       		.uleb128 0x37
 8816 1d08 4F140000 		.4byte	0x144f
 8817 1d0c FA080000 		.4byte	.LLST55
 8818 1d10 00       		.byte	0x0
 8819 1d11 00       		.byte	0x0
 8820 1d12 00       		.byte	0x0
 8821 1d13 33       		.uleb128 0x33
 8822 1d14 64040000 		.4byte	.LBB205
 8823 1d18 6A040000 		.4byte	.LBE205
 8824 1d1c 2A1D0000 		.4byte	0x1d2a
 8825 1d20 38       		.uleb128 0x38
 8826 1d21 0A190000 		.4byte	0x190a
 8827 1d25 1A090000 		.4byte	.LLST56
 8828 1d29 00       		.byte	0x0
 8829 1d2a 3C       		.uleb128 0x3c
 8830 1d2b 2A150000 		.4byte	0x152a
 8831 1d2f 76040000 		.4byte	.LBB206
 8832 1d33 7C040000 		.4byte	.LBE206
 8833 1d37 01       		.byte	0x1
 8834 1d38 4801     		.2byte	0x148
 8835 1d3a 5B1D0000 		.4byte	0x1d5b
 8836 1d3e 37       		.uleb128 0x37
 8837 1d3f 3B150000 		.4byte	0x153b
 8838 1d43 2D090000 		.4byte	.LLST57
 8839 1d47 3B       		.uleb128 0x3b
 8840 1d48 76040000 		.4byte	.LBB207
 8841 1d4c 7C040000 		.4byte	.LBE207
 8842 1d50 38       		.uleb128 0x38
 8843 1d51 46150000 		.4byte	0x1546
 8844 1d55 40090000 		.4byte	.LLST58
 8845 1d59 00       		.byte	0x0
 8846 1d5a 00       		.byte	0x0
 8847 1d5b 3B       		.uleb128 0x3b
 8848 1d5c 8C040000 		.4byte	.LBB208
 8849 1d60 94040000 		.4byte	.LBE208
 8850 1d64 38       		.uleb128 0x38
 8851 1d65 18190000 		.4byte	0x1918
ARM GAS  C:\Users\DNIEL~1\AppData\Local\Temp\cccPEDO0.s 			page 157


 8852 1d69 53090000 		.4byte	.LLST59
 8853 1d6d 00       		.byte	0x0
 8854 1d6e 00       		.byte	0x0
 8855 1d6f 00       		.byte	0x0
 8856 1d70 00       		.byte	0x0
 8857 1d71 00       		.byte	0x0
 8858 1d72 33       		.uleb128 0x33
 8859 1d73 B4030000 		.4byte	.LBB212
 8860 1d77 BA030000 		.4byte	.LBE212
 8861 1d7b 901D0000 		.4byte	0x1d90
 8862 1d7f 34       		.uleb128 0x34
 8863 1d80 746D7000 		.ascii	"tmp\000"
 8864 1d84 01       		.byte	0x1
 8865 1d85 F802     		.2byte	0x2f8
 8866 1d87 AF000000 		.4byte	0xaf
 8867 1d8b 87090000 		.4byte	.LLST60
 8868 1d8f 00       		.byte	0x0
 8869 1d90 3B       		.uleb128 0x3b
 8870 1d91 D6030000 		.4byte	.LBB213
 8871 1d95 DE030000 		.4byte	.LBE213
 8872 1d99 34       		.uleb128 0x34
 8873 1d9a 746D7000 		.ascii	"tmp\000"
 8874 1d9e 01       		.byte	0x1
 8875 1d9f FC02     		.2byte	0x2fc
 8876 1da1 AF000000 		.4byte	0xaf
 8877 1da5 9A090000 		.4byte	.LLST61
 8878 1da9 00       		.byte	0x0
 8879 1daa 00       		.byte	0x0
 8880 1dab 00       		.byte	0x0
 8881 1dac 00       		.byte	0x0
 8882 1dad 41       		.uleb128 0x41
 8883 1dae AF130000 		.4byte	0x13af
 8884 1db2 00000000 		.4byte	.LFB156
 8885 1db6 AE000000 		.4byte	.LFE156
 8886 1dba B8090000 		.4byte	.LLST62
 8887 1dbe D31D0000 		.4byte	0x1dd3
 8888 1dc2 42       		.uleb128 0x42
 8889 1dc3 C7130000 		.4byte	0x13c7
 8890 1dc7 01       		.byte	0x1
 8891 1dc8 50       		.byte	0x50
 8892 1dc9 38       		.uleb128 0x38
 8893 1dca D2130000 		.4byte	0x13d2
 8894 1dce D8090000 		.4byte	.LLST63
 8895 1dd2 00       		.byte	0x0
 8896 1dd3 43       		.uleb128 0x43
 8897 1dd4 59140000 		.4byte	0x1459
 8898 1dd8 00000000 		.4byte	.LFB159
 8899 1ddc 16000000 		.4byte	.LFE159
 8900 1de0 02       		.byte	0x2
 8901 1de1 7D       		.byte	0x7d
 8902 1de2 00       		.sleb128 0
 8903 1de3 FA1D0000 		.4byte	0x1dfa
 8904 1de7 37       		.uleb128 0x37
 8905 1de8 71140000 		.4byte	0x1471
 8906 1dec 020A0000 		.4byte	.LLST64
 8907 1df0 38       		.uleb128 0x38
 8908 1df1 7C140000 		.4byte	0x147c
ARM GAS  C:\Users\DNIEL~1\AppData\Local\Temp\cccPEDO0.s 			page 158


 8909 1df5 150A0000 		.4byte	.LLST65
 8910 1df9 00       		.byte	0x0
 8911 1dfa 44       		.uleb128 0x44
 8912 1dfb 01       		.byte	0x1
 8913 1dfc 9A0B0000 		.4byte	.LASF337
 8914 1e00 01       		.byte	0x1
 8915 1e01 3203     		.2byte	0x332
 8916 1e03 01       		.byte	0x1
 8917 1e04 00000000 		.4byte	.LFB138
 8918 1e08 24000000 		.4byte	.LFE138
 8919 1e0c 280A0000 		.4byte	.LLST66
 8920 1e10 45       		.uleb128 0x45
 8921 1e11 01       		.byte	0x1
 8922 1e12 10060000 		.4byte	.LASF308
 8923 1e16 01       		.byte	0x1
 8924 1e17 6C03     		.2byte	0x36c
 8925 1e19 01       		.byte	0x1
 8926 1e1a 00000000 		.4byte	.LFB139
 8927 1e1e E0000000 		.4byte	.LFE139
 8928 1e22 480A0000 		.4byte	.LLST67
 8929 1e26 6B1E0000 		.4byte	0x1e6b
 8930 1e2a 46       		.uleb128 0x46
 8931 1e2b 8D050000 		.4byte	.LASF278
 8932 1e2f 01       		.byte	0x1
 8933 1e30 6C03     		.2byte	0x36c
 8934 1e32 0D0A0000 		.4byte	0xa0d
 8935 1e36 740A0000 		.4byte	.LLST68
 8936 1e3a 32       		.uleb128 0x32
 8937 1e3b 29060000 		.4byte	.LASF275
 8938 1e3f 01       		.byte	0x1
 8939 1e40 6D03     		.2byte	0x36d
 8940 1e42 70130000 		.4byte	0x1370
 8941 1e46 920A0000 		.4byte	.LLST69
 8942 1e4a 3F       		.uleb128 0x3f
 8943 1e4b AC140000 		.4byte	0x14ac
 8944 1e4f 32000000 		.4byte	.LBB216
 8945 1e53 E0010000 		.4byte	.Ldebug_ranges0+0x1e0
 8946 1e57 01       		.byte	0x1
 8947 1e58 AA03     		.2byte	0x3aa
 8948 1e5a 35       		.uleb128 0x35
 8949 1e5b F8010000 		.4byte	.Ldebug_ranges0+0x1f8
 8950 1e5f 38       		.uleb128 0x38
 8951 1e60 C4140000 		.4byte	0x14c4
 8952 1e64 B20A0000 		.4byte	.LLST70
 8953 1e68 00       		.byte	0x0
 8954 1e69 00       		.byte	0x0
 8955 1e6a 00       		.byte	0x0
 8956 1e6b 45       		.uleb128 0x45
 8957 1e6c 01       		.byte	0x1
 8958 1e6d 9A040000 		.4byte	.LASF309
 8959 1e71 01       		.byte	0x1
 8960 1e72 CB03     		.2byte	0x3cb
 8961 1e74 01       		.byte	0x1
 8962 1e75 00000000 		.4byte	.LFB140
 8963 1e79 22000000 		.4byte	.LFE140
 8964 1e7d D20A0000 		.4byte	.LLST71
 8965 1e81 A61E0000 		.4byte	0x1ea6
ARM GAS  C:\Users\DNIEL~1\AppData\Local\Temp\cccPEDO0.s 			page 159


 8966 1e85 46       		.uleb128 0x46
 8967 1e86 8D050000 		.4byte	.LASF278
 8968 1e8a 01       		.byte	0x1
 8969 1e8b CB03     		.2byte	0x3cb
 8970 1e8d 0D0A0000 		.4byte	0xa0d
 8971 1e91 F20A0000 		.4byte	.LLST72
 8972 1e95 32       		.uleb128 0x32
 8973 1e96 29060000 		.4byte	.LASF275
 8974 1e9a 01       		.byte	0x1
 8975 1e9b CC03     		.2byte	0x3cc
 8976 1e9d 70130000 		.4byte	0x1370
 8977 1ea1 100B0000 		.4byte	.LLST73
 8978 1ea5 00       		.byte	0x0
 8979 1ea6 45       		.uleb128 0x45
 8980 1ea7 01       		.byte	0x1
 8981 1ea8 B1050000 		.4byte	.LASF310
 8982 1eac 01       		.byte	0x1
 8983 1ead F203     		.2byte	0x3f2
 8984 1eaf 01       		.byte	0x1
 8985 1eb0 00000000 		.4byte	.LFB141
 8986 1eb4 28010000 		.4byte	.LFE141
 8987 1eb8 3D0B0000 		.4byte	.LLST74
 8988 1ebc 471F0000 		.4byte	0x1f47
 8989 1ec0 46       		.uleb128 0x46
 8990 1ec1 8D050000 		.4byte	.LASF278
 8991 1ec5 01       		.byte	0x1
 8992 1ec6 F203     		.2byte	0x3f2
 8993 1ec8 0D0A0000 		.4byte	0xa0d
 8994 1ecc 5D0B0000 		.4byte	.LLST75
 8995 1ed0 34       		.uleb128 0x34
 8996 1ed1 6900     		.ascii	"i\000"
 8997 1ed3 01       		.byte	0x1
 8998 1ed4 F303     		.2byte	0x3f3
 8999 1ed6 4C000000 		.4byte	0x4c
 9000 1eda 7B0B0000 		.4byte	.LLST76
 9001 1ede 32       		.uleb128 0x32
 9002 1edf 29060000 		.4byte	.LASF275
 9003 1ee3 01       		.byte	0x1
 9004 1ee4 F403     		.2byte	0x3f4
 9005 1ee6 70130000 		.4byte	0x1370
 9006 1eea 8F0B0000 		.4byte	.LLST77
 9007 1eee 47       		.uleb128 0x47
 9008 1eef DC130000 		.4byte	0x13dc
 9009 1ef3 AA000000 		.4byte	.LBB220
 9010 1ef7 10020000 		.4byte	.Ldebug_ranges0+0x210
 9011 1efb 01       		.byte	0x1
 9012 1efc 0604     		.2byte	0x406
 9013 1efe 36       		.uleb128 0x36
 9014 1eff 88140000 		.4byte	0x1488
 9015 1f03 B8000000 		.4byte	.LBB223
 9016 1f07 28020000 		.4byte	.Ldebug_ranges0+0x228
 9017 1f0b 01       		.byte	0x1
 9018 1f0c 0A04     		.2byte	0x40a
 9019 1f0e 221F0000 		.4byte	0x1f22
 9020 1f12 35       		.uleb128 0x35
 9021 1f13 40020000 		.4byte	.Ldebug_ranges0+0x240
 9022 1f17 38       		.uleb128 0x38
ARM GAS  C:\Users\DNIEL~1\AppData\Local\Temp\cccPEDO0.s 			page 160


 9023 1f18 A0140000 		.4byte	0x14a0
 9024 1f1c BC0B0000 		.4byte	.LLST78
 9025 1f20 00       		.byte	0x0
 9026 1f21 00       		.byte	0x0
 9027 1f22 3F       		.uleb128 0x3f
 9028 1f23 F5130000 		.4byte	0x13f5
 9029 1f27 DA000000 		.4byte	.LBB228
 9030 1f2b 58020000 		.4byte	.Ldebug_ranges0+0x258
 9031 1f2f 01       		.byte	0x1
 9032 1f30 1D04     		.2byte	0x41d
 9033 1f32 48       		.uleb128 0x48
 9034 1f33 11140000 		.4byte	0x1411
 9035 1f37 10       		.byte	0x10
 9036 1f38 35       		.uleb128 0x35
 9037 1f39 78020000 		.4byte	.Ldebug_ranges0+0x278
 9038 1f3d 42       		.uleb128 0x42
 9039 1f3e 1C140000 		.4byte	0x141c
 9040 1f42 01       		.byte	0x1
 9041 1f43 51       		.byte	0x51
 9042 1f44 00       		.byte	0x0
 9043 1f45 00       		.byte	0x0
 9044 1f46 00       		.byte	0x0
 9045 1f47 49       		.uleb128 0x49
 9046 1f48 01       		.byte	0x1
 9047 1f49 D0050000 		.4byte	.LASF311
 9048 1f4d 01       		.byte	0x1
 9049 1f4e 2804     		.2byte	0x428
 9050 1f50 01       		.byte	0x1
 9051 1f51 00000000 		.4byte	.LFB142
 9052 1f55 18000000 		.4byte	.LFE142
 9053 1f59 02       		.byte	0x2
 9054 1f5a 7D       		.byte	0x7d
 9055 1f5b 00       		.sleb128 0
 9056 1f5c 811F0000 		.4byte	0x1f81
 9057 1f60 46       		.uleb128 0x46
 9058 1f61 8D050000 		.4byte	.LASF278
 9059 1f65 01       		.byte	0x1
 9060 1f66 2804     		.2byte	0x428
 9061 1f68 0D0A0000 		.4byte	0xa0d
 9062 1f6c D10B0000 		.4byte	.LLST79
 9063 1f70 32       		.uleb128 0x32
 9064 1f71 29060000 		.4byte	.LASF275
 9065 1f75 01       		.byte	0x1
 9066 1f76 2904     		.2byte	0x429
 9067 1f78 70130000 		.4byte	0x1370
 9068 1f7c E40B0000 		.4byte	.LLST80
 9069 1f80 00       		.byte	0x0
 9070 1f81 45       		.uleb128 0x45
 9071 1f82 01       		.byte	0x1
 9072 1f83 FA050000 		.4byte	.LASF312
 9073 1f87 01       		.byte	0x1
 9074 1f88 3604     		.2byte	0x436
 9075 1f8a 01       		.byte	0x1
 9076 1f8b 00000000 		.4byte	.LFB143
 9077 1f8f 64010000 		.4byte	.LFE143
 9078 1f93 040C0000 		.4byte	.LLST81
 9079 1f97 14200000 		.4byte	0x2014
ARM GAS  C:\Users\DNIEL~1\AppData\Local\Temp\cccPEDO0.s 			page 161


 9080 1f9b 46       		.uleb128 0x46
 9081 1f9c 8D050000 		.4byte	.LASF278
 9082 1fa0 01       		.byte	0x1
 9083 1fa1 3604     		.2byte	0x436
 9084 1fa3 0D0A0000 		.4byte	0xa0d
 9085 1fa7 240C0000 		.4byte	.LLST82
 9086 1fab 31       		.uleb128 0x31
 9087 1fac 657000   		.ascii	"ep\000"
 9088 1faf 01       		.byte	0x1
 9089 1fb0 3604     		.2byte	0x436
 9090 1fb2 DD080000 		.4byte	0x8dd
 9091 1fb6 580C0000 		.4byte	.LLST83
 9092 1fba 34       		.uleb128 0x34
 9093 1fbb 63746C00 		.ascii	"ctl\000"
 9094 1fbf 01       		.byte	0x1
 9095 1fc0 3704     		.2byte	0x437
 9096 1fc2 AF000000 		.4byte	0xaf
 9097 1fc6 810C0000 		.4byte	.LLST84
 9098 1fca 32       		.uleb128 0x32
 9099 1fcb 80040000 		.4byte	.LASF313
 9100 1fcf 01       		.byte	0x1
 9101 1fd0 3704     		.2byte	0x437
 9102 1fd2 AF000000 		.4byte	0xaf
 9103 1fd6 CA0C0000 		.4byte	.LLST85
 9104 1fda 32       		.uleb128 0x32
 9105 1fdb 29060000 		.4byte	.LASF275
 9106 1fdf 01       		.byte	0x1
 9107 1fe0 3804     		.2byte	0x438
 9108 1fe2 70130000 		.4byte	0x1370
 9109 1fe6 E80C0000 		.4byte	.LLST86
 9110 1fea 3F       		.uleb128 0x3f
 9111 1feb F5130000 		.4byte	0x13f5
 9112 1fef 7C000000 		.4byte	.LBB234
 9113 1ff3 98020000 		.4byte	.Ldebug_ranges0+0x298
 9114 1ff7 01       		.byte	0x1
 9115 1ff8 5F04     		.2byte	0x45f
 9116 1ffa 37       		.uleb128 0x37
 9117 1ffb 11140000 		.4byte	0x1411
 9118 1fff 150D0000 		.4byte	.LLST87
 9119 2003 35       		.uleb128 0x35
 9120 2004 B8020000 		.4byte	.Ldebug_ranges0+0x2b8
 9121 2008 38       		.uleb128 0x38
 9122 2009 1C140000 		.4byte	0x141c
 9123 200d 280D0000 		.4byte	.LLST88
 9124 2011 00       		.byte	0x0
 9125 2012 00       		.byte	0x0
 9126 2013 00       		.byte	0x0
 9127 2014 49       		.uleb128 0x49
 9128 2015 01       		.byte	0x1
 9129 2016 ED0C0000 		.4byte	.LASF314
 9130 201a 01       		.byte	0x1
 9131 201b 7604     		.2byte	0x476
 9132 201d 01       		.byte	0x1
 9133 201e 00000000 		.4byte	.LFB144
 9134 2022 0E000000 		.4byte	.LFE144
 9135 2026 02       		.byte	0x2
 9136 2027 7D       		.byte	0x7d
ARM GAS  C:\Users\DNIEL~1\AppData\Local\Temp\cccPEDO0.s 			page 162


 9137 2028 00       		.sleb128 0
 9138 2029 4E200000 		.4byte	0x204e
 9139 202d 46       		.uleb128 0x46
 9140 202e 8D050000 		.4byte	.LASF278
 9141 2032 01       		.byte	0x1
 9142 2033 7604     		.2byte	0x476
 9143 2035 0D0A0000 		.4byte	0xa0d
 9144 2039 480D0000 		.4byte	.LLST89
 9145 203d 47       		.uleb128 0x47
 9146 203e DC130000 		.4byte	0x13dc
 9147 2042 04000000 		.4byte	.LBB240
 9148 2046 D8020000 		.4byte	.Ldebug_ranges0+0x2d8
 9149 204a 01       		.byte	0x1
 9150 204b 7904     		.2byte	0x479
 9151 204d 00       		.byte	0x0
 9152 204e 4A       		.uleb128 0x4a
 9153 204f 01       		.byte	0x1
 9154 2050 6D080000 		.4byte	.LASF315
 9155 2054 01       		.byte	0x1
 9156 2055 8B04     		.2byte	0x48b
 9157 2057 01       		.byte	0x1
 9158 2058 35090000 		.4byte	0x935
 9159 205c 00000000 		.4byte	.LFB145
 9160 2060 1A000000 		.4byte	.LFE145
 9161 2064 02       		.byte	0x2
 9162 2065 7D       		.byte	0x7d
 9163 2066 00       		.sleb128 0
 9164 2067 99200000 		.4byte	0x2099
 9165 206b 46       		.uleb128 0x46
 9166 206c 8D050000 		.4byte	.LASF278
 9167 2070 01       		.byte	0x1
 9168 2071 8B04     		.2byte	0x48b
 9169 2073 0D0A0000 		.4byte	0xa0d
 9170 2077 660D0000 		.4byte	.LLST90
 9171 207b 31       		.uleb128 0x31
 9172 207c 657000   		.ascii	"ep\000"
 9173 207f 01       		.byte	0x1
 9174 2080 8B04     		.2byte	0x48b
 9175 2082 DD080000 		.4byte	0x8dd
 9176 2086 790D0000 		.4byte	.LLST91
 9177 208a 4B       		.uleb128 0x4b
 9178 208b 63746C00 		.ascii	"ctl\000"
 9179 208f 01       		.byte	0x1
 9180 2090 8C04     		.2byte	0x48c
 9181 2092 AF000000 		.4byte	0xaf
 9182 2096 01       		.byte	0x1
 9183 2097 53       		.byte	0x53
 9184 2098 00       		.byte	0x0
 9185 2099 4A       		.uleb128 0x4a
 9186 209a 01       		.byte	0x1
 9187 209b A7040000 		.4byte	.LASF316
 9188 209f 01       		.byte	0x1
 9189 20a0 A404     		.2byte	0x4a4
 9190 20a2 01       		.byte	0x1
 9191 20a3 35090000 		.4byte	0x935
 9192 20a7 00000000 		.4byte	.LFB146
 9193 20ab 1A000000 		.4byte	.LFE146
ARM GAS  C:\Users\DNIEL~1\AppData\Local\Temp\cccPEDO0.s 			page 163


 9194 20af 02       		.byte	0x2
 9195 20b0 7D       		.byte	0x7d
 9196 20b1 00       		.sleb128 0
 9197 20b2 E4200000 		.4byte	0x20e4
 9198 20b6 46       		.uleb128 0x46
 9199 20b7 8D050000 		.4byte	.LASF278
 9200 20bb 01       		.byte	0x1
 9201 20bc A404     		.2byte	0x4a4
 9202 20be 0D0A0000 		.4byte	0xa0d
 9203 20c2 8C0D0000 		.4byte	.LLST92
 9204 20c6 31       		.uleb128 0x31
 9205 20c7 657000   		.ascii	"ep\000"
 9206 20ca 01       		.byte	0x1
 9207 20cb A404     		.2byte	0x4a4
 9208 20cd DD080000 		.4byte	0x8dd
 9209 20d1 9F0D0000 		.4byte	.LLST93
 9210 20d5 4B       		.uleb128 0x4b
 9211 20d6 63746C00 		.ascii	"ctl\000"
 9212 20da 01       		.byte	0x1
 9213 20db A504     		.2byte	0x4a5
 9214 20dd AF000000 		.4byte	0xaf
 9215 20e1 01       		.byte	0x1
 9216 20e2 53       		.byte	0x53
 9217 20e3 00       		.byte	0x0
 9218 20e4 49       		.uleb128 0x49
 9219 20e5 01       		.byte	0x1
 9220 20e6 CD000000 		.4byte	.LASF317
 9221 20ea 01       		.byte	0x1
 9222 20eb BF04     		.2byte	0x4bf
 9223 20ed 01       		.byte	0x1
 9224 20ee 00000000 		.4byte	.LFB147
 9225 20f2 14000000 		.4byte	.LFE147
 9226 20f6 02       		.byte	0x2
 9227 20f7 7D       		.byte	0x7d
 9228 20f8 00       		.sleb128 0
 9229 20f9 2B210000 		.4byte	0x212b
 9230 20fd 46       		.uleb128 0x46
 9231 20fe 8D050000 		.4byte	.LASF278
 9232 2102 01       		.byte	0x1
 9233 2103 BF04     		.2byte	0x4bf
 9234 2105 0D0A0000 		.4byte	0xa0d
 9235 2109 B20D0000 		.4byte	.LLST94
 9236 210d 31       		.uleb128 0x31
 9237 210e 657000   		.ascii	"ep\000"
 9238 2111 01       		.byte	0x1
 9239 2112 BF04     		.2byte	0x4bf
 9240 2114 DD080000 		.4byte	0x8dd
 9241 2118 C50D0000 		.4byte	.LLST95
 9242 211c 4C       		.uleb128 0x4c
 9243 211d 62756600 		.ascii	"buf\000"
 9244 2121 01       		.byte	0x1
 9245 2122 BF04     		.2byte	0x4bf
 9246 2124 1E050000 		.4byte	0x51e
 9247 2128 01       		.byte	0x1
 9248 2129 52       		.byte	0x52
 9249 212a 00       		.byte	0x0
 9250 212b 45       		.uleb128 0x45
ARM GAS  C:\Users\DNIEL~1\AppData\Local\Temp\cccPEDO0.s 			page 164


 9251 212c 01       		.byte	0x1
 9252 212d 530B0000 		.4byte	.LASF318
 9253 2131 01       		.byte	0x1
 9254 2132 CC04     		.2byte	0x4cc
 9255 2134 01       		.byte	0x1
 9256 2135 00000000 		.4byte	.LFB148
 9257 2139 44000000 		.4byte	.LFE148
 9258 213d D80D0000 		.4byte	.LLST96
 9259 2141 85210000 		.4byte	0x2185
 9260 2145 46       		.uleb128 0x46
 9261 2146 8D050000 		.4byte	.LASF278
 9262 214a 01       		.byte	0x1
 9263 214b CC04     		.2byte	0x4cc
 9264 214d 0D0A0000 		.4byte	0xa0d
 9265 2151 F80D0000 		.4byte	.LLST97
 9266 2155 31       		.uleb128 0x31
 9267 2156 657000   		.ascii	"ep\000"
 9268 2159 01       		.byte	0x1
 9269 215a CC04     		.2byte	0x4cc
 9270 215c DD080000 		.4byte	0x8dd
 9271 2160 0B0E0000 		.4byte	.LLST98
 9272 2164 32       		.uleb128 0x32
 9273 2165 D60A0000 		.4byte	.LASF319
 9274 2169 01       		.byte	0x1
 9275 216a CD04     		.2byte	0x4cd
 9276 216c AF000000 		.4byte	0xaf
 9277 2170 1E0E0000 		.4byte	.LLST99
 9278 2174 34       		.uleb128 0x34
 9279 2175 6F737000 		.ascii	"osp\000"
 9280 2179 01       		.byte	0x1
 9281 217a CE04     		.2byte	0x4ce
 9282 217c D6120000 		.4byte	0x12d6
 9283 2180 310E0000 		.4byte	.LLST100
 9284 2184 00       		.byte	0x0
 9285 2185 41       		.uleb128 0x41
 9286 2186 AF160000 		.4byte	0x16af
 9287 218a 00000000 		.4byte	.LFB164
 9288 218e A4000000 		.4byte	.LFE164
 9289 2192 540E0000 		.4byte	.LLST101
 9290 2196 1D220000 		.4byte	0x221d
 9291 219a 37       		.uleb128 0x37
 9292 219b C9160000 		.4byte	0x16c9
 9293 219f 740E0000 		.4byte	.LLST102
 9294 21a3 38       		.uleb128 0x38
 9295 21a4 D4160000 		.4byte	0x16d4
 9296 21a8 920E0000 		.4byte	.LLST103
 9297 21ac 38       		.uleb128 0x38
 9298 21ad E0160000 		.4byte	0x16e0
 9299 21b1 B40E0000 		.4byte	.LLST104
 9300 21b5 39       		.uleb128 0x39
 9301 21b6 BD160000 		.4byte	0x16bd
 9302 21ba 06       		.byte	0x6
 9303 21bb 03       		.byte	0x3
 9304 21bc 00000000 		.4byte	USBD1
 9305 21c0 9F       		.byte	0x9f
 9306 21c1 35       		.uleb128 0x35
 9307 21c2 F0020000 		.4byte	.Ldebug_ranges0+0x2f0
ARM GAS  C:\Users\DNIEL~1\AppData\Local\Temp\cccPEDO0.s 			page 165


 9308 21c6 38       		.uleb128 0x38
 9309 21c7 ED160000 		.4byte	0x16ed
 9310 21cb D20E0000 		.4byte	.LLST105
 9311 21cf 33       		.uleb128 0x33
 9312 21d0 84000000 		.4byte	.LBB245
 9313 21d4 8A000000 		.4byte	.LBE245
 9314 21d8 E6210000 		.4byte	0x21e6
 9315 21dc 38       		.uleb128 0x38
 9316 21dd FE160000 		.4byte	0x16fe
 9317 21e1 F40E0000 		.4byte	.LLST106
 9318 21e5 00       		.byte	0x0
 9319 21e6 36       		.uleb128 0x36
 9320 21e7 D1150000 		.4byte	0x15d1
 9321 21eb 8A000000 		.4byte	.LBB246
 9322 21ef 08030000 		.4byte	.Ldebug_ranges0+0x308
 9323 21f3 01       		.byte	0x1
 9324 21f4 7002     		.2byte	0x270
 9325 21f6 0C220000 		.4byte	0x220c
 9326 21fa 39       		.uleb128 0x39
 9327 21fb E0150000 		.4byte	0x15e0
 9328 21ff 06       		.byte	0x6
 9329 2200 03       		.byte	0x3
 9330 2201 00000000 		.4byte	USBD1
 9331 2205 9F       		.byte	0x9f
 9332 2206 40       		.uleb128 0x40
 9333 2207 EC150000 		.4byte	0x15ec
 9334 220b 00       		.byte	0x0
 9335 220c 35       		.uleb128 0x35
 9336 220d 20030000 		.4byte	.Ldebug_ranges0+0x320
 9337 2211 38       		.uleb128 0x38
 9338 2212 0C170000 		.4byte	0x170c
 9339 2216 070F0000 		.4byte	.LLST107
 9340 221a 00       		.byte	0x0
 9341 221b 00       		.byte	0x0
 9342 221c 00       		.byte	0x0
 9343 221d 45       		.uleb128 0x45
 9344 221e 01       		.byte	0x1
 9345 221f 55030000 		.4byte	.LASF320
 9346 2223 01       		.byte	0x1
 9347 2224 E404     		.2byte	0x4e4
 9348 2226 01       		.byte	0x1
 9349 2227 00000000 		.4byte	.LFB149
 9350 222b 50000000 		.4byte	.LFE149
 9351 222f 1A0F0000 		.4byte	.LLST108
 9352 2233 7D220000 		.4byte	0x227d
 9353 2237 46       		.uleb128 0x46
 9354 2238 8D050000 		.4byte	.LASF278
 9355 223c 01       		.byte	0x1
 9356 223d E404     		.2byte	0x4e4
 9357 223f 0D0A0000 		.4byte	0xa0d
 9358 2243 3A0F0000 		.4byte	.LLST109
 9359 2247 31       		.uleb128 0x31
 9360 2248 657000   		.ascii	"ep\000"
 9361 224b 01       		.byte	0x1
 9362 224c E404     		.2byte	0x4e4
 9363 224e DD080000 		.4byte	0x8dd
 9364 2252 580F0000 		.4byte	.LLST110
ARM GAS  C:\Users\DNIEL~1\AppData\Local\Temp\cccPEDO0.s 			page 166


 9365 2256 34       		.uleb128 0x34
 9366 2257 69737000 		.ascii	"isp\000"
 9367 225b 01       		.byte	0x1
 9368 225c E504     		.2byte	0x4e5
 9369 225e D0120000 		.4byte	0x12d0
 9370 2262 760F0000 		.4byte	.LLST111
 9371 2266 35       		.uleb128 0x35
 9372 2267 38030000 		.4byte	.Ldebug_ranges0+0x338
 9373 226b 32       		.uleb128 0x32
 9374 226c D60A0000 		.4byte	.LASF319
 9375 2270 01       		.byte	0x1
 9376 2271 F204     		.2byte	0x4f2
 9377 2273 AF000000 		.4byte	0xaf
 9378 2277 BB0F0000 		.4byte	.LLST112
 9379 227b 00       		.byte	0x0
 9380 227c 00       		.byte	0x0
 9381 227d 41       		.uleb128 0x41
 9382 227e 1F160000 		.4byte	0x161f
 9383 2282 00000000 		.4byte	.LFB163
 9384 2286 E0000000 		.4byte	.LFE163
 9385 228a CE0F0000 		.4byte	.LLST113
 9386 228e 5A230000 		.4byte	0x235a
 9387 2292 37       		.uleb128 0x37
 9388 2293 39160000 		.4byte	0x1639
 9389 2297 EE0F0000 		.4byte	.LLST114
 9390 229b 38       		.uleb128 0x38
 9391 229c 44160000 		.4byte	0x1644
 9392 22a0 0C100000 		.4byte	.LLST115
 9393 22a4 42       		.uleb128 0x42
 9394 22a5 50160000 		.4byte	0x1650
 9395 22a9 01       		.byte	0x1
 9396 22aa 54       		.byte	0x54
 9397 22ab 39       		.uleb128 0x39
 9398 22ac 2D160000 		.4byte	0x162d
 9399 22b0 06       		.byte	0x6
 9400 22b1 03       		.byte	0x3
 9401 22b2 00000000 		.4byte	USBD1
 9402 22b6 9F       		.byte	0x9f
 9403 22b7 33       		.uleb128 0x33
 9404 22b8 3A000000 		.4byte	.LBB255
 9405 22bc 40000000 		.4byte	.LBE255
 9406 22c0 CE220000 		.4byte	0x22ce
 9407 22c4 38       		.uleb128 0x38
 9408 22c5 93160000 		.4byte	0x1693
 9409 22c9 2E100000 		.4byte	.LLST116
 9410 22cd 00       		.byte	0x0
 9411 22ce 47       		.uleb128 0x47
 9412 22cf D0140000 		.4byte	0x14d0
 9413 22d3 46000000 		.4byte	.LBB256
 9414 22d7 50030000 		.4byte	.Ldebug_ranges0+0x350
 9415 22db 01       		.byte	0x1
 9416 22dc 4A02     		.2byte	0x24a
 9417 22de 33       		.uleb128 0x33
 9418 22df 62000000 		.4byte	.LBB260
 9419 22e3 6C000000 		.4byte	.LBE260
 9420 22e7 F5220000 		.4byte	0x22f5
 9421 22eb 38       		.uleb128 0x38
ARM GAS  C:\Users\DNIEL~1\AppData\Local\Temp\cccPEDO0.s 			page 167


 9422 22ec A1160000 		.4byte	0x16a1
 9423 22f0 41100000 		.4byte	.LLST117
 9424 22f4 00       		.byte	0x0
 9425 22f5 3B       		.uleb128 0x3b
 9426 22f6 6C000000 		.4byte	.LBB261
 9427 22fa E0000000 		.4byte	.LBE261
 9428 22fe 38       		.uleb128 0x38
 9429 22ff 61160000 		.4byte	0x1661
 9430 2303 54100000 		.4byte	.LLST118
 9431 2307 33       		.uleb128 0x33
 9432 2308 90000000 		.4byte	.LBB262
 9433 230c 96000000 		.4byte	.LBE262
 9434 2310 1E230000 		.4byte	0x231e
 9435 2314 38       		.uleb128 0x38
 9436 2315 72160000 		.4byte	0x1672
 9437 2319 99100000 		.4byte	.LLST119
 9438 231d 00       		.byte	0x0
 9439 231e 3C       		.uleb128 0x3c
 9440 231f F8150000 		.4byte	0x15f8
 9441 2323 96000000 		.4byte	.LBB263
 9442 2327 B8000000 		.4byte	.LBE263
 9443 232b 01       		.byte	0x1
 9444 232c 3C02     		.2byte	0x23c
 9445 232e 45230000 		.4byte	0x2345
 9446 2332 37       		.uleb128 0x37
 9447 2333 07160000 		.4byte	0x1607
 9448 2337 AC100000 		.4byte	.LLST120
 9449 233b 37       		.uleb128 0x37
 9450 233c 13160000 		.4byte	0x1613
 9451 2340 C4100000 		.4byte	.LLST121
 9452 2344 00       		.byte	0x0
 9453 2345 3B       		.uleb128 0x3b
 9454 2346 B8000000 		.4byte	.LBB265
 9455 234a C0000000 		.4byte	.LBE265
 9456 234e 38       		.uleb128 0x38
 9457 234f 80160000 		.4byte	0x1680
 9458 2353 D7100000 		.4byte	.LLST122
 9459 2357 00       		.byte	0x0
 9460 2358 00       		.byte	0x0
 9461 2359 00       		.byte	0x0
 9462 235a 45       		.uleb128 0x45
 9463 235b 01       		.byte	0x1
 9464 235c 490B0000 		.4byte	.LASF321
 9465 2360 01       		.byte	0x1
 9466 2361 0C03     		.2byte	0x30c
 9467 2363 01       		.byte	0x1
 9468 2364 00000000 		.4byte	.LFB137
 9469 2368 14010000 		.4byte	.LFE137
 9470 236c 00110000 		.4byte	.LLST123
 9471 2370 ED230000 		.4byte	0x23ed
 9472 2374 3F       		.uleb128 0x3f
 9473 2375 1B170000 		.4byte	0x171b
 9474 2379 02000000 		.4byte	.LBB272
 9475 237d 68030000 		.4byte	.Ldebug_ranges0+0x368
 9476 2381 01       		.byte	0x1
 9477 2382 1003     		.2byte	0x310
 9478 2384 35       		.uleb128 0x35
ARM GAS  C:\Users\DNIEL~1\AppData\Local\Temp\cccPEDO0.s 			page 168


 9479 2385 80030000 		.4byte	.Ldebug_ranges0+0x380
 9480 2389 38       		.uleb128 0x38
 9481 238a 35170000 		.4byte	0x1735
 9482 238e 20110000 		.4byte	.LLST124
 9483 2392 38       		.uleb128 0x38
 9484 2393 41170000 		.4byte	0x1741
 9485 2397 4D110000 		.4byte	.LLST125
 9486 239b 38       		.uleb128 0x38
 9487 239c 4D170000 		.4byte	0x174d
 9488 23a0 6B110000 		.4byte	.LLST126
 9489 23a4 39       		.uleb128 0x39
 9490 23a5 29170000 		.4byte	0x1729
 9491 23a9 06       		.byte	0x6
 9492 23aa 03       		.byte	0x3
 9493 23ab 00000000 		.4byte	USBD1
 9494 23af 9F       		.byte	0x9f
 9495 23b0 33       		.uleb128 0x33
 9496 23b1 50000000 		.4byte	.LBB274
 9497 23b5 56000000 		.4byte	.LBE274
 9498 23b9 C7230000 		.4byte	0x23c7
 9499 23bd 38       		.uleb128 0x38
 9500 23be 6C170000 		.4byte	0x176c
 9501 23c2 89110000 		.4byte	.LLST127
 9502 23c6 00       		.byte	0x0
 9503 23c7 47       		.uleb128 0x47
 9504 23c8 D0140000 		.4byte	0x14d0
 9505 23cc 3C000000 		.4byte	.LBB276
 9506 23d0 98030000 		.4byte	.Ldebug_ranges0+0x398
 9507 23d4 01       		.byte	0x1
 9508 23d5 9F02     		.2byte	0x29f
 9509 23d7 3B       		.uleb128 0x3b
 9510 23d8 34000000 		.4byte	.LBB279
 9511 23dc 3A000000 		.4byte	.LBE279
 9512 23e0 38       		.uleb128 0x38
 9513 23e1 5E170000 		.4byte	0x175e
 9514 23e5 F4110000 		.4byte	.LLST128
 9515 23e9 00       		.byte	0x0
 9516 23ea 00       		.byte	0x0
 9517 23eb 00       		.byte	0x0
 9518 23ec 00       		.byte	0x0
 9519 23ed 43       		.uleb128 0x43
 9520 23ee D1150000 		.4byte	0x15d1
 9521 23f2 00000000 		.4byte	.LFB150
 9522 23f6 10000000 		.4byte	.LFE150
 9523 23fa 02       		.byte	0x2
 9524 23fb 7D       		.byte	0x7d
 9525 23fc 00       		.sleb128 0
 9526 23fd 14240000 		.4byte	0x2414
 9527 2401 37       		.uleb128 0x37
 9528 2402 E0150000 		.4byte	0x15e0
 9529 2406 12120000 		.4byte	.LLST129
 9530 240a 37       		.uleb128 0x37
 9531 240b EC150000 		.4byte	0x15ec
 9532 240f 25120000 		.4byte	.LLST130
 9533 2413 00       		.byte	0x0
 9534 2414 43       		.uleb128 0x43
 9535 2415 F8150000 		.4byte	0x15f8
ARM GAS  C:\Users\DNIEL~1\AppData\Local\Temp\cccPEDO0.s 			page 169


 9536 2419 00000000 		.4byte	.LFB151
 9537 241d 22000000 		.4byte	.LFE151
 9538 2421 02       		.byte	0x2
 9539 2422 7D       		.byte	0x7d
 9540 2423 00       		.sleb128 0
 9541 2424 3B240000 		.4byte	0x243b
 9542 2428 37       		.uleb128 0x37
 9543 2429 07160000 		.4byte	0x1607
 9544 242d 38120000 		.4byte	.LLST131
 9545 2431 37       		.uleb128 0x37
 9546 2432 13160000 		.4byte	0x1613
 9547 2436 4B120000 		.4byte	.LLST132
 9548 243a 00       		.byte	0x0
 9549 243b 49       		.uleb128 0x49
 9550 243c 01       		.byte	0x1
 9551 243d 3C0E0000 		.4byte	.LASF322
 9552 2441 01       		.byte	0x1
 9553 2442 1C05     		.2byte	0x51c
 9554 2444 01       		.byte	0x1
 9555 2445 00000000 		.4byte	.LFB152
 9556 2449 10000000 		.4byte	.LFE152
 9557 244d 02       		.byte	0x2
 9558 244e 7D       		.byte	0x7d
 9559 244f 00       		.sleb128 0
 9560 2450 74240000 		.4byte	0x2474
 9561 2454 46       		.uleb128 0x46
 9562 2455 8D050000 		.4byte	.LASF278
 9563 2459 01       		.byte	0x1
 9564 245a 1C05     		.2byte	0x51c
 9565 245c 0D0A0000 		.4byte	0xa0d
 9566 2460 5E120000 		.4byte	.LLST133
 9567 2464 31       		.uleb128 0x31
 9568 2465 657000   		.ascii	"ep\000"
 9569 2468 01       		.byte	0x1
 9570 2469 1C05     		.2byte	0x51c
 9571 246b DD080000 		.4byte	0x8dd
 9572 246f 71120000 		.4byte	.LLST134
 9573 2473 00       		.byte	0x0
 9574 2474 49       		.uleb128 0x49
 9575 2475 01       		.byte	0x1
 9576 2476 6F000000 		.4byte	.LASF323
 9577 247a 01       		.byte	0x1
 9578 247b 2905     		.2byte	0x529
 9579 247d 01       		.byte	0x1
 9580 247e 00000000 		.4byte	.LFB153
 9581 2482 10000000 		.4byte	.LFE153
 9582 2486 02       		.byte	0x2
 9583 2487 7D       		.byte	0x7d
 9584 2488 00       		.sleb128 0
 9585 2489 AD240000 		.4byte	0x24ad
 9586 248d 46       		.uleb128 0x46
 9587 248e 8D050000 		.4byte	.LASF278
 9588 2492 01       		.byte	0x1
 9589 2493 2905     		.2byte	0x529
 9590 2495 0D0A0000 		.4byte	0xa0d
 9591 2499 84120000 		.4byte	.LLST135
 9592 249d 31       		.uleb128 0x31
ARM GAS  C:\Users\DNIEL~1\AppData\Local\Temp\cccPEDO0.s 			page 170


 9593 249e 657000   		.ascii	"ep\000"
 9594 24a1 01       		.byte	0x1
 9595 24a2 2905     		.2byte	0x529
 9596 24a4 DD080000 		.4byte	0x8dd
 9597 24a8 97120000 		.4byte	.LLST136
 9598 24ac 00       		.byte	0x0
 9599 24ad 49       		.uleb128 0x49
 9600 24ae 01       		.byte	0x1
 9601 24af A40D0000 		.4byte	.LASF324
 9602 24b3 01       		.byte	0x1
 9603 24b4 3605     		.2byte	0x536
 9604 24b6 01       		.byte	0x1
 9605 24b7 00000000 		.4byte	.LFB154
 9606 24bb 10000000 		.4byte	.LFE154
 9607 24bf 02       		.byte	0x2
 9608 24c0 7D       		.byte	0x7d
 9609 24c1 00       		.sleb128 0
 9610 24c2 E6240000 		.4byte	0x24e6
 9611 24c6 46       		.uleb128 0x46
 9612 24c7 8D050000 		.4byte	.LASF278
 9613 24cb 01       		.byte	0x1
 9614 24cc 3605     		.2byte	0x536
 9615 24ce 0D0A0000 		.4byte	0xa0d
 9616 24d2 AA120000 		.4byte	.LLST137
 9617 24d6 31       		.uleb128 0x31
 9618 24d7 657000   		.ascii	"ep\000"
 9619 24da 01       		.byte	0x1
 9620 24db 3605     		.2byte	0x536
 9621 24dd DD080000 		.4byte	0x8dd
 9622 24e1 BD120000 		.4byte	.LLST138
 9623 24e5 00       		.byte	0x0
 9624 24e6 49       		.uleb128 0x49
 9625 24e7 01       		.byte	0x1
 9626 24e8 2E060000 		.4byte	.LASF325
 9627 24ec 01       		.byte	0x1
 9628 24ed 4305     		.2byte	0x543
 9629 24ef 01       		.byte	0x1
 9630 24f0 00000000 		.4byte	.LFB155
 9631 24f4 10000000 		.4byte	.LFE155
 9632 24f8 02       		.byte	0x2
 9633 24f9 7D       		.byte	0x7d
 9634 24fa 00       		.sleb128 0
 9635 24fb 1F250000 		.4byte	0x251f
 9636 24ff 46       		.uleb128 0x46
 9637 2500 8D050000 		.4byte	.LASF278
 9638 2504 01       		.byte	0x1
 9639 2505 4305     		.2byte	0x543
 9640 2507 0D0A0000 		.4byte	0xa0d
 9641 250b D0120000 		.4byte	.LLST139
 9642 250f 31       		.uleb128 0x31
 9643 2510 657000   		.ascii	"ep\000"
 9644 2513 01       		.byte	0x1
 9645 2514 4305     		.2byte	0x543
 9646 2516 DD080000 		.4byte	0x8dd
 9647 251a E3120000 		.4byte	.LLST140
 9648 251e 00       		.byte	0x0
 9649 251f 4D       		.uleb128 0x4d
ARM GAS  C:\Users\DNIEL~1\AppData\Local\Temp\cccPEDO0.s 			page 171


 9650 2520 EB090000 		.4byte	.LASF326
 9651 2524 09       		.byte	0x9
 9652 2525 6F       		.byte	0x6f
 9653 2526 E5030000 		.4byte	0x3e5
 9654 252a 01       		.byte	0x1
 9655 252b 01       		.byte	0x1
 9656 252c 4E       		.uleb128 0x4e
 9657 252d 67090000 		.4byte	.LASF327
 9658 2531 10       		.byte	0x10
 9659 2532 9806     		.2byte	0x698
 9660 2534 65050000 		.4byte	0x565
 9661 2538 01       		.byte	0x1
 9662 2539 01       		.byte	0x1
 9663 253a 4E       		.uleb128 0x4e
 9664 253b 890C0000 		.4byte	.LASF328
 9665 253f 0E       		.byte	0xe
 9666 2540 FF01     		.2byte	0x1ff
 9667 2542 79070000 		.4byte	0x779
 9668 2546 01       		.byte	0x1
 9669 2547 01       		.byte	0x1
 9670 2548 4F       		.uleb128 0x4f
 9671 2549 460D0000 		.4byte	.LASF329
 9672 254d 01       		.byte	0x1
 9673 254e 49       		.byte	0x49
 9674 254f 91130000 		.4byte	0x1391
 9675 2553 05       		.byte	0x5
 9676 2554 03       		.byte	0x3
 9677 2555 00000000 		.4byte	ep0_state
 9678 2559 4F       		.uleb128 0x4f
 9679 255a 70060000 		.4byte	.LASF330
 9680 255e 01       		.byte	0x1
 9681 255f 4E       		.byte	0x4e
 9682 2560 69070000 		.4byte	0x769
 9683 2564 05       		.byte	0x5
 9684 2565 03       		.byte	0x3
 9685 2566 00000000 		.4byte	ep0setup_buffer
 9686 256a 4F       		.uleb128 0x4f
 9687 256b 7E070000 		.4byte	.LASF331
 9688 256f 01       		.byte	0x1
 9689 2570 53       		.byte	0x53
 9690 2571 5B130000 		.4byte	0x135b
 9691 2575 05       		.byte	0x5
 9692 2576 03       		.byte	0x3
 9693 2577 00000000 		.4byte	ep0config
 9694 257b 4F       		.uleb128 0x4f
 9695 257c 04020000 		.4byte	.LASF332
 9696 2580 01       		.byte	0x1
 9697 2581 61       		.byte	0x61
 9698 2582 7C130000 		.4byte	0x137c
 9699 2586 05       		.byte	0x5
 9700 2587 03       		.byte	0x3
 9701 2588 00000000 		.4byte	fsparams
 9702 258c 4D       		.uleb128 0x4d
 9703 258d EB090000 		.4byte	.LASF326
 9704 2591 09       		.byte	0x9
 9705 2592 6F       		.byte	0x6f
 9706 2593 E5030000 		.4byte	0x3e5
ARM GAS  C:\Users\DNIEL~1\AppData\Local\Temp\cccPEDO0.s 			page 172


 9707 2597 01       		.byte	0x1
 9708 2598 01       		.byte	0x1
 9709 2599 4E       		.uleb128 0x4e
 9710 259a 67090000 		.4byte	.LASF327
 9711 259e 10       		.byte	0x10
 9712 259f 9806     		.2byte	0x698
 9713 25a1 65050000 		.4byte	0x565
 9714 25a5 01       		.byte	0x1
 9715 25a6 01       		.byte	0x1
 9716 25a7 50       		.uleb128 0x50
 9717 25a8 890C0000 		.4byte	.LASF328
 9718 25ac 01       		.byte	0x1
 9719 25ad 2F       		.byte	0x2f
 9720 25ae 79070000 		.4byte	0x779
 9721 25b2 01       		.byte	0x1
 9722 25b3 05       		.byte	0x5
 9723 25b4 03       		.byte	0x3
 9724 25b5 00000000 		.4byte	USBD1
 9725 25b9 00       		.byte	0x0
 9726              		.section	.debug_abbrev
 9727 0000 01       		.uleb128 0x1
 9728 0001 11       		.uleb128 0x11
 9729 0002 01       		.byte	0x1
 9730 0003 25       		.uleb128 0x25
 9731 0004 0E       		.uleb128 0xe
 9732 0005 13       		.uleb128 0x13
 9733 0006 0B       		.uleb128 0xb
 9734 0007 03       		.uleb128 0x3
 9735 0008 0E       		.uleb128 0xe
 9736 0009 1B       		.uleb128 0x1b
 9737 000a 0E       		.uleb128 0xe
 9738 000b 11       		.uleb128 0x11
 9739 000c 01       		.uleb128 0x1
 9740 000d 52       		.uleb128 0x52
 9741 000e 01       		.uleb128 0x1
 9742 000f 55       		.uleb128 0x55
 9743 0010 06       		.uleb128 0x6
 9744 0011 10       		.uleb128 0x10
 9745 0012 06       		.uleb128 0x6
 9746 0013 00       		.byte	0x0
 9747 0014 00       		.byte	0x0
 9748 0015 02       		.uleb128 0x2
 9749 0016 24       		.uleb128 0x24
 9750 0017 00       		.byte	0x0
 9751 0018 0B       		.uleb128 0xb
 9752 0019 0B       		.uleb128 0xb
 9753 001a 3E       		.uleb128 0x3e
 9754 001b 0B       		.uleb128 0xb
 9755 001c 03       		.uleb128 0x3
 9756 001d 0E       		.uleb128 0xe
 9757 001e 00       		.byte	0x0
 9758 001f 00       		.byte	0x0
 9759 0020 03       		.uleb128 0x3
 9760 0021 24       		.uleb128 0x24
 9761 0022 00       		.byte	0x0
 9762 0023 0B       		.uleb128 0xb
 9763 0024 0B       		.uleb128 0xb
ARM GAS  C:\Users\DNIEL~1\AppData\Local\Temp\cccPEDO0.s 			page 173


 9764 0025 3E       		.uleb128 0x3e
 9765 0026 0B       		.uleb128 0xb
 9766 0027 03       		.uleb128 0x3
 9767 0028 08       		.uleb128 0x8
 9768 0029 00       		.byte	0x0
 9769 002a 00       		.byte	0x0
 9770 002b 04       		.uleb128 0x4
 9771 002c 0F       		.uleb128 0xf
 9772 002d 00       		.byte	0x0
 9773 002e 0B       		.uleb128 0xb
 9774 002f 0B       		.uleb128 0xb
 9775 0030 00       		.byte	0x0
 9776 0031 00       		.byte	0x0
 9777 0032 05       		.uleb128 0x5
 9778 0033 0F       		.uleb128 0xf
 9779 0034 00       		.byte	0x0
 9780 0035 0B       		.uleb128 0xb
 9781 0036 0B       		.uleb128 0xb
 9782 0037 49       		.uleb128 0x49
 9783 0038 13       		.uleb128 0x13
 9784 0039 00       		.byte	0x0
 9785 003a 00       		.byte	0x0
 9786 003b 06       		.uleb128 0x6
 9787 003c 26       		.uleb128 0x26
 9788 003d 00       		.byte	0x0
 9789 003e 49       		.uleb128 0x49
 9790 003f 13       		.uleb128 0x13
 9791 0040 00       		.byte	0x0
 9792 0041 00       		.byte	0x0
 9793 0042 07       		.uleb128 0x7
 9794 0043 16       		.uleb128 0x16
 9795 0044 00       		.byte	0x0
 9796 0045 03       		.uleb128 0x3
 9797 0046 0E       		.uleb128 0xe
 9798 0047 3A       		.uleb128 0x3a
 9799 0048 0B       		.uleb128 0xb
 9800 0049 3B       		.uleb128 0x3b
 9801 004a 0B       		.uleb128 0xb
 9802 004b 49       		.uleb128 0x49
 9803 004c 13       		.uleb128 0x13
 9804 004d 00       		.byte	0x0
 9805 004e 00       		.byte	0x0
 9806 004f 08       		.uleb128 0x8
 9807 0050 13       		.uleb128 0x13
 9808 0051 01       		.byte	0x1
 9809 0052 03       		.uleb128 0x3
 9810 0053 0E       		.uleb128 0xe
 9811 0054 0B       		.uleb128 0xb
 9812 0055 0B       		.uleb128 0xb
 9813 0056 3A       		.uleb128 0x3a
 9814 0057 0B       		.uleb128 0xb
 9815 0058 3B       		.uleb128 0x3b
 9816 0059 0B       		.uleb128 0xb
 9817 005a 01       		.uleb128 0x1
 9818 005b 13       		.uleb128 0x13
 9819 005c 00       		.byte	0x0
 9820 005d 00       		.byte	0x0
ARM GAS  C:\Users\DNIEL~1\AppData\Local\Temp\cccPEDO0.s 			page 174


 9821 005e 09       		.uleb128 0x9
 9822 005f 0D       		.uleb128 0xd
 9823 0060 00       		.byte	0x0
 9824 0061 03       		.uleb128 0x3
 9825 0062 0E       		.uleb128 0xe
 9826 0063 3A       		.uleb128 0x3a
 9827 0064 0B       		.uleb128 0xb
 9828 0065 3B       		.uleb128 0x3b
 9829 0066 0B       		.uleb128 0xb
 9830 0067 49       		.uleb128 0x49
 9831 0068 13       		.uleb128 0x13
 9832 0069 38       		.uleb128 0x38
 9833 006a 0A       		.uleb128 0xa
 9834 006b 00       		.byte	0x0
 9835 006c 00       		.byte	0x0
 9836 006d 0A       		.uleb128 0xa
 9837 006e 0D       		.uleb128 0xd
 9838 006f 00       		.byte	0x0
 9839 0070 03       		.uleb128 0x3
 9840 0071 08       		.uleb128 0x8
 9841 0072 3A       		.uleb128 0x3a
 9842 0073 0B       		.uleb128 0xb
 9843 0074 3B       		.uleb128 0x3b
 9844 0075 0B       		.uleb128 0xb
 9845 0076 49       		.uleb128 0x49
 9846 0077 13       		.uleb128 0x13
 9847 0078 38       		.uleb128 0x38
 9848 0079 0A       		.uleb128 0xa
 9849 007a 00       		.byte	0x0
 9850 007b 00       		.byte	0x0
 9851 007c 0B       		.uleb128 0xb
 9852 007d 13       		.uleb128 0x13
 9853 007e 01       		.byte	0x1
 9854 007f 0B       		.uleb128 0xb
 9855 0080 0B       		.uleb128 0xb
 9856 0081 3A       		.uleb128 0x3a
 9857 0082 0B       		.uleb128 0xb
 9858 0083 3B       		.uleb128 0x3b
 9859 0084 0B       		.uleb128 0xb
 9860 0085 01       		.uleb128 0x1
 9861 0086 13       		.uleb128 0x13
 9862 0087 00       		.byte	0x0
 9863 0088 00       		.byte	0x0
 9864 0089 0C       		.uleb128 0xc
 9865 008a 13       		.uleb128 0x13
 9866 008b 01       		.byte	0x1
 9867 008c 03       		.uleb128 0x3
 9868 008d 0E       		.uleb128 0xe
 9869 008e 0B       		.uleb128 0xb
 9870 008f 0B       		.uleb128 0xb
 9871 0090 3A       		.uleb128 0x3a
 9872 0091 0B       		.uleb128 0xb
 9873 0092 3B       		.uleb128 0x3b
 9874 0093 05       		.uleb128 0x5
 9875 0094 01       		.uleb128 0x1
 9876 0095 13       		.uleb128 0x13
 9877 0096 00       		.byte	0x0
ARM GAS  C:\Users\DNIEL~1\AppData\Local\Temp\cccPEDO0.s 			page 175


 9878 0097 00       		.byte	0x0
 9879 0098 0D       		.uleb128 0xd
 9880 0099 0D       		.uleb128 0xd
 9881 009a 00       		.byte	0x0
 9882 009b 03       		.uleb128 0x3
 9883 009c 08       		.uleb128 0x8
 9884 009d 3A       		.uleb128 0x3a
 9885 009e 0B       		.uleb128 0xb
 9886 009f 3B       		.uleb128 0x3b
 9887 00a0 05       		.uleb128 0x5
 9888 00a1 49       		.uleb128 0x49
 9889 00a2 13       		.uleb128 0x13
 9890 00a3 38       		.uleb128 0x38
 9891 00a4 0A       		.uleb128 0xa
 9892 00a5 00       		.byte	0x0
 9893 00a6 00       		.byte	0x0
 9894 00a7 0E       		.uleb128 0xe
 9895 00a8 35       		.uleb128 0x35
 9896 00a9 00       		.byte	0x0
 9897 00aa 49       		.uleb128 0x49
 9898 00ab 13       		.uleb128 0x13
 9899 00ac 00       		.byte	0x0
 9900 00ad 00       		.byte	0x0
 9901 00ae 0F       		.uleb128 0xf
 9902 00af 17       		.uleb128 0x17
 9903 00b0 01       		.byte	0x1
 9904 00b1 0B       		.uleb128 0xb
 9905 00b2 0B       		.uleb128 0xb
 9906 00b3 3A       		.uleb128 0x3a
 9907 00b4 0B       		.uleb128 0xb
 9908 00b5 3B       		.uleb128 0x3b
 9909 00b6 0B       		.uleb128 0xb
 9910 00b7 01       		.uleb128 0x1
 9911 00b8 13       		.uleb128 0x13
 9912 00b9 00       		.byte	0x0
 9913 00ba 00       		.byte	0x0
 9914 00bb 10       		.uleb128 0x10
 9915 00bc 0D       		.uleb128 0xd
 9916 00bd 00       		.byte	0x0
 9917 00be 03       		.uleb128 0x3
 9918 00bf 0E       		.uleb128 0xe
 9919 00c0 3A       		.uleb128 0x3a
 9920 00c1 0B       		.uleb128 0xb
 9921 00c2 3B       		.uleb128 0x3b
 9922 00c3 0B       		.uleb128 0xb
 9923 00c4 49       		.uleb128 0x49
 9924 00c5 13       		.uleb128 0x13
 9925 00c6 00       		.byte	0x0
 9926 00c7 00       		.byte	0x0
 9927 00c8 11       		.uleb128 0x11
 9928 00c9 15       		.uleb128 0x15
 9929 00ca 01       		.byte	0x1
 9930 00cb 27       		.uleb128 0x27
 9931 00cc 0C       		.uleb128 0xc
 9932 00cd 01       		.uleb128 0x1
 9933 00ce 13       		.uleb128 0x13
 9934 00cf 00       		.byte	0x0
ARM GAS  C:\Users\DNIEL~1\AppData\Local\Temp\cccPEDO0.s 			page 176


 9935 00d0 00       		.byte	0x0
 9936 00d1 12       		.uleb128 0x12
 9937 00d2 05       		.uleb128 0x5
 9938 00d3 00       		.byte	0x0
 9939 00d4 49       		.uleb128 0x49
 9940 00d5 13       		.uleb128 0x13
 9941 00d6 00       		.byte	0x0
 9942 00d7 00       		.byte	0x0
 9943 00d8 13       		.uleb128 0x13
 9944 00d9 01       		.uleb128 0x1
 9945 00da 01       		.byte	0x1
 9946 00db 49       		.uleb128 0x49
 9947 00dc 13       		.uleb128 0x13
 9948 00dd 01       		.uleb128 0x1
 9949 00de 13       		.uleb128 0x13
 9950 00df 00       		.byte	0x0
 9951 00e0 00       		.byte	0x0
 9952 00e1 14       		.uleb128 0x14
 9953 00e2 21       		.uleb128 0x21
 9954 00e3 00       		.byte	0x0
 9955 00e4 49       		.uleb128 0x49
 9956 00e5 13       		.uleb128 0x13
 9957 00e6 2F       		.uleb128 0x2f
 9958 00e7 0B       		.uleb128 0xb
 9959 00e8 00       		.byte	0x0
 9960 00e9 00       		.byte	0x0
 9961 00ea 15       		.uleb128 0x15
 9962 00eb 13       		.uleb128 0x13
 9963 00ec 01       		.byte	0x1
 9964 00ed 0B       		.uleb128 0xb
 9965 00ee 0B       		.uleb128 0xb
 9966 00ef 3A       		.uleb128 0x3a
 9967 00f0 0B       		.uleb128 0xb
 9968 00f1 3B       		.uleb128 0x3b
 9969 00f2 05       		.uleb128 0x5
 9970 00f3 01       		.uleb128 0x1
 9971 00f4 13       		.uleb128 0x13
 9972 00f5 00       		.byte	0x0
 9973 00f6 00       		.byte	0x0
 9974 00f7 16       		.uleb128 0x16
 9975 00f8 0D       		.uleb128 0xd
 9976 00f9 00       		.byte	0x0
 9977 00fa 03       		.uleb128 0x3
 9978 00fb 0E       		.uleb128 0xe
 9979 00fc 3A       		.uleb128 0x3a
 9980 00fd 0B       		.uleb128 0xb
 9981 00fe 3B       		.uleb128 0x3b
 9982 00ff 05       		.uleb128 0x5
 9983 0100 49       		.uleb128 0x49
 9984 0101 13       		.uleb128 0x13
 9985 0102 38       		.uleb128 0x38
 9986 0103 0A       		.uleb128 0xa
 9987 0104 00       		.byte	0x0
 9988 0105 00       		.byte	0x0
 9989 0106 17       		.uleb128 0x17
 9990 0107 16       		.uleb128 0x16
 9991 0108 00       		.byte	0x0
ARM GAS  C:\Users\DNIEL~1\AppData\Local\Temp\cccPEDO0.s 			page 177


 9992 0109 03       		.uleb128 0x3
 9993 010a 0E       		.uleb128 0xe
 9994 010b 3A       		.uleb128 0x3a
 9995 010c 0B       		.uleb128 0xb
 9996 010d 3B       		.uleb128 0x3b
 9997 010e 05       		.uleb128 0x5
 9998 010f 49       		.uleb128 0x49
 9999 0110 13       		.uleb128 0x13
 10000 0111 00       		.byte	0x0
 10001 0112 00       		.byte	0x0
 10002 0113 18       		.uleb128 0x18
 10003 0114 13       		.uleb128 0x13
 10004 0115 01       		.byte	0x1
 10005 0116 03       		.uleb128 0x3
 10006 0117 0E       		.uleb128 0xe
 10007 0118 0B       		.uleb128 0xb
 10008 0119 05       		.uleb128 0x5
 10009 011a 3A       		.uleb128 0x3a
 10010 011b 0B       		.uleb128 0xb
 10011 011c 3B       		.uleb128 0x3b
 10012 011d 05       		.uleb128 0x5
 10013 011e 01       		.uleb128 0x1
 10014 011f 13       		.uleb128 0x13
 10015 0120 00       		.byte	0x0
 10016 0121 00       		.byte	0x0
 10017 0122 19       		.uleb128 0x19
 10018 0123 04       		.uleb128 0x4
 10019 0124 01       		.byte	0x1
 10020 0125 0B       		.uleb128 0xb
 10021 0126 0B       		.uleb128 0xb
 10022 0127 3A       		.uleb128 0x3a
 10023 0128 0B       		.uleb128 0xb
 10024 0129 3B       		.uleb128 0x3b
 10025 012a 0B       		.uleb128 0xb
 10026 012b 01       		.uleb128 0x1
 10027 012c 13       		.uleb128 0x13
 10028 012d 00       		.byte	0x0
 10029 012e 00       		.byte	0x0
 10030 012f 1A       		.uleb128 0x1a
 10031 0130 28       		.uleb128 0x28
 10032 0131 00       		.byte	0x0
 10033 0132 03       		.uleb128 0x3
 10034 0133 0E       		.uleb128 0xe
 10035 0134 1C       		.uleb128 0x1c
 10036 0135 0D       		.uleb128 0xd
 10037 0136 00       		.byte	0x0
 10038 0137 00       		.byte	0x0
 10039 0138 1B       		.uleb128 0x1b
 10040 0139 04       		.uleb128 0x4
 10041 013a 01       		.byte	0x1
 10042 013b 0B       		.uleb128 0xb
 10043 013c 0B       		.uleb128 0xb
 10044 013d 3A       		.uleb128 0x3a
 10045 013e 0B       		.uleb128 0xb
 10046 013f 3B       		.uleb128 0x3b
 10047 0140 05       		.uleb128 0x5
 10048 0141 01       		.uleb128 0x1
ARM GAS  C:\Users\DNIEL~1\AppData\Local\Temp\cccPEDO0.s 			page 178


 10049 0142 13       		.uleb128 0x13
 10050 0143 00       		.byte	0x0
 10051 0144 00       		.byte	0x0
 10052 0145 1C       		.uleb128 0x1c
 10053 0146 15       		.uleb128 0x15
 10054 0147 01       		.byte	0x1
 10055 0148 27       		.uleb128 0x27
 10056 0149 0C       		.uleb128 0xc
 10057 014a 49       		.uleb128 0x49
 10058 014b 13       		.uleb128 0x13
 10059 014c 01       		.uleb128 0x1
 10060 014d 13       		.uleb128 0x13
 10061 014e 00       		.byte	0x0
 10062 014f 00       		.byte	0x0
 10063 0150 1D       		.uleb128 0x1d
 10064 0151 13       		.uleb128 0x13
 10065 0152 01       		.byte	0x1
 10066 0153 0B       		.uleb128 0xb
 10067 0154 06       		.uleb128 0x6
 10068 0155 3A       		.uleb128 0x3a
 10069 0156 0B       		.uleb128 0xb
 10070 0157 3B       		.uleb128 0x3b
 10071 0158 0B       		.uleb128 0xb
 10072 0159 01       		.uleb128 0x1
 10073 015a 13       		.uleb128 0x13
 10074 015b 00       		.byte	0x0
 10075 015c 00       		.byte	0x0
 10076 015d 1E       		.uleb128 0x1e
 10077 015e 21       		.uleb128 0x21
 10078 015f 00       		.byte	0x0
 10079 0160 49       		.uleb128 0x49
 10080 0161 13       		.uleb128 0x13
 10081 0162 2F       		.uleb128 0x2f
 10082 0163 05       		.uleb128 0x5
 10083 0164 00       		.byte	0x0
 10084 0165 00       		.byte	0x0
 10085 0166 1F       		.uleb128 0x1f
 10086 0167 0D       		.uleb128 0xd
 10087 0168 00       		.byte	0x0
 10088 0169 03       		.uleb128 0x3
 10089 016a 0E       		.uleb128 0xe
 10090 016b 3A       		.uleb128 0x3a
 10091 016c 0B       		.uleb128 0xb
 10092 016d 3B       		.uleb128 0x3b
 10093 016e 05       		.uleb128 0x5
 10094 016f 49       		.uleb128 0x49
 10095 0170 13       		.uleb128 0x13
 10096 0171 00       		.byte	0x0
 10097 0172 00       		.byte	0x0
 10098 0173 20       		.uleb128 0x20
 10099 0174 0D       		.uleb128 0xd
 10100 0175 00       		.byte	0x0
 10101 0176 03       		.uleb128 0x3
 10102 0177 08       		.uleb128 0x8
 10103 0178 3A       		.uleb128 0x3a
 10104 0179 0B       		.uleb128 0xb
 10105 017a 3B       		.uleb128 0x3b
ARM GAS  C:\Users\DNIEL~1\AppData\Local\Temp\cccPEDO0.s 			page 179


 10106 017b 0B       		.uleb128 0xb
 10107 017c 49       		.uleb128 0x49
 10108 017d 13       		.uleb128 0x13
 10109 017e 00       		.byte	0x0
 10110 017f 00       		.byte	0x0
 10111 0180 21       		.uleb128 0x21
 10112 0181 2E       		.uleb128 0x2e
 10113 0182 01       		.byte	0x1
 10114 0183 03       		.uleb128 0x3
 10115 0184 0E       		.uleb128 0xe
 10116 0185 3A       		.uleb128 0x3a
 10117 0186 0B       		.uleb128 0xb
 10118 0187 3B       		.uleb128 0x3b
 10119 0188 0B       		.uleb128 0xb
 10120 0189 27       		.uleb128 0x27
 10121 018a 0C       		.uleb128 0xc
 10122 018b 20       		.uleb128 0x20
 10123 018c 0B       		.uleb128 0xb
 10124 018d 01       		.uleb128 0x1
 10125 018e 13       		.uleb128 0x13
 10126 018f 00       		.byte	0x0
 10127 0190 00       		.byte	0x0
 10128 0191 22       		.uleb128 0x22
 10129 0192 05       		.uleb128 0x5
 10130 0193 00       		.byte	0x0
 10131 0194 03       		.uleb128 0x3
 10132 0195 0E       		.uleb128 0xe
 10133 0196 3A       		.uleb128 0x3a
 10134 0197 0B       		.uleb128 0xb
 10135 0198 3B       		.uleb128 0x3b
 10136 0199 0B       		.uleb128 0xb
 10137 019a 49       		.uleb128 0x49
 10138 019b 13       		.uleb128 0x13
 10139 019c 00       		.byte	0x0
 10140 019d 00       		.byte	0x0
 10141 019e 23       		.uleb128 0x23
 10142 019f 34       		.uleb128 0x34
 10143 01a0 00       		.byte	0x0
 10144 01a1 03       		.uleb128 0x3
 10145 01a2 0E       		.uleb128 0xe
 10146 01a3 3A       		.uleb128 0x3a
 10147 01a4 0B       		.uleb128 0xb
 10148 01a5 3B       		.uleb128 0x3b
 10149 01a6 0B       		.uleb128 0xb
 10150 01a7 49       		.uleb128 0x49
 10151 01a8 13       		.uleb128 0x13
 10152 01a9 00       		.byte	0x0
 10153 01aa 00       		.byte	0x0
 10154 01ab 24       		.uleb128 0x24
 10155 01ac 34       		.uleb128 0x34
 10156 01ad 00       		.byte	0x0
 10157 01ae 03       		.uleb128 0x3
 10158 01af 08       		.uleb128 0x8
 10159 01b0 3A       		.uleb128 0x3a
 10160 01b1 0B       		.uleb128 0xb
 10161 01b2 3B       		.uleb128 0x3b
 10162 01b3 0B       		.uleb128 0xb
ARM GAS  C:\Users\DNIEL~1\AppData\Local\Temp\cccPEDO0.s 			page 180


 10163 01b4 49       		.uleb128 0x49
 10164 01b5 13       		.uleb128 0x13
 10165 01b6 00       		.byte	0x0
 10166 01b7 00       		.byte	0x0
 10167 01b8 25       		.uleb128 0x25
 10168 01b9 2E       		.uleb128 0x2e
 10169 01ba 01       		.byte	0x1
 10170 01bb 03       		.uleb128 0x3
 10171 01bc 0E       		.uleb128 0xe
 10172 01bd 3A       		.uleb128 0x3a
 10173 01be 0B       		.uleb128 0xb
 10174 01bf 3B       		.uleb128 0x3b
 10175 01c0 0B       		.uleb128 0xb
 10176 01c1 27       		.uleb128 0x27
 10177 01c2 0C       		.uleb128 0xc
 10178 01c3 49       		.uleb128 0x49
 10179 01c4 13       		.uleb128 0x13
 10180 01c5 20       		.uleb128 0x20
 10181 01c6 0B       		.uleb128 0xb
 10182 01c7 01       		.uleb128 0x1
 10183 01c8 13       		.uleb128 0x13
 10184 01c9 00       		.byte	0x0
 10185 01ca 00       		.byte	0x0
 10186 01cb 26       		.uleb128 0x26
 10187 01cc 05       		.uleb128 0x5
 10188 01cd 00       		.byte	0x0
 10189 01ce 03       		.uleb128 0x3
 10190 01cf 08       		.uleb128 0x8
 10191 01d0 3A       		.uleb128 0x3a
 10192 01d1 0B       		.uleb128 0xb
 10193 01d2 3B       		.uleb128 0x3b
 10194 01d3 0B       		.uleb128 0xb
 10195 01d4 49       		.uleb128 0x49
 10196 01d5 13       		.uleb128 0x13
 10197 01d6 00       		.byte	0x0
 10198 01d7 00       		.byte	0x0
 10199 01d8 27       		.uleb128 0x27
 10200 01d9 2E       		.uleb128 0x2e
 10201 01da 01       		.byte	0x1
 10202 01db 03       		.uleb128 0x3
 10203 01dc 0E       		.uleb128 0xe
 10204 01dd 3A       		.uleb128 0x3a
 10205 01de 0B       		.uleb128 0xb
 10206 01df 3B       		.uleb128 0x3b
 10207 01e0 05       		.uleb128 0x5
 10208 01e1 27       		.uleb128 0x27
 10209 01e2 0C       		.uleb128 0xc
 10210 01e3 49       		.uleb128 0x49
 10211 01e4 13       		.uleb128 0x13
 10212 01e5 20       		.uleb128 0x20
 10213 01e6 0B       		.uleb128 0xb
 10214 01e7 01       		.uleb128 0x1
 10215 01e8 13       		.uleb128 0x13
 10216 01e9 00       		.byte	0x0
 10217 01ea 00       		.byte	0x0
 10218 01eb 28       		.uleb128 0x28
 10219 01ec 05       		.uleb128 0x5
ARM GAS  C:\Users\DNIEL~1\AppData\Local\Temp\cccPEDO0.s 			page 181


 10220 01ed 00       		.byte	0x0
 10221 01ee 03       		.uleb128 0x3
 10222 01ef 0E       		.uleb128 0xe
 10223 01f0 3A       		.uleb128 0x3a
 10224 01f1 0B       		.uleb128 0xb
 10225 01f2 3B       		.uleb128 0x3b
 10226 01f3 05       		.uleb128 0x5
 10227 01f4 49       		.uleb128 0x49
 10228 01f5 13       		.uleb128 0x13
 10229 01f6 00       		.byte	0x0
 10230 01f7 00       		.byte	0x0
 10231 01f8 29       		.uleb128 0x29
 10232 01f9 05       		.uleb128 0x5
 10233 01fa 00       		.byte	0x0
 10234 01fb 03       		.uleb128 0x3
 10235 01fc 08       		.uleb128 0x8
 10236 01fd 3A       		.uleb128 0x3a
 10237 01fe 0B       		.uleb128 0xb
 10238 01ff 3B       		.uleb128 0x3b
 10239 0200 05       		.uleb128 0x5
 10240 0201 49       		.uleb128 0x49
 10241 0202 13       		.uleb128 0x13
 10242 0203 00       		.byte	0x0
 10243 0204 00       		.byte	0x0
 10244 0205 2A       		.uleb128 0x2a
 10245 0206 0B       		.uleb128 0xb
 10246 0207 01       		.byte	0x1
 10247 0208 00       		.byte	0x0
 10248 0209 00       		.byte	0x0
 10249 020a 2B       		.uleb128 0x2b
 10250 020b 34       		.uleb128 0x34
 10251 020c 00       		.byte	0x0
 10252 020d 03       		.uleb128 0x3
 10253 020e 08       		.uleb128 0x8
 10254 020f 3A       		.uleb128 0x3a
 10255 0210 0B       		.uleb128 0xb
 10256 0211 3B       		.uleb128 0x3b
 10257 0212 05       		.uleb128 0x5
 10258 0213 49       		.uleb128 0x49
 10259 0214 13       		.uleb128 0x13
 10260 0215 00       		.byte	0x0
 10261 0216 00       		.byte	0x0
 10262 0217 2C       		.uleb128 0x2c
 10263 0218 2E       		.uleb128 0x2e
 10264 0219 01       		.byte	0x1
 10265 021a 03       		.uleb128 0x3
 10266 021b 0E       		.uleb128 0xe
 10267 021c 3A       		.uleb128 0x3a
 10268 021d 0B       		.uleb128 0xb
 10269 021e 3B       		.uleb128 0x3b
 10270 021f 05       		.uleb128 0x5
 10271 0220 27       		.uleb128 0x27
 10272 0221 0C       		.uleb128 0xc
 10273 0222 20       		.uleb128 0x20
 10274 0223 0B       		.uleb128 0xb
 10275 0224 01       		.uleb128 0x1
 10276 0225 13       		.uleb128 0x13
ARM GAS  C:\Users\DNIEL~1\AppData\Local\Temp\cccPEDO0.s 			page 182


 10277 0226 00       		.byte	0x0
 10278 0227 00       		.byte	0x0
 10279 0228 2D       		.uleb128 0x2d
 10280 0229 2E       		.uleb128 0x2e
 10281 022a 01       		.byte	0x1
 10282 022b 3F       		.uleb128 0x3f
 10283 022c 0C       		.uleb128 0xc
 10284 022d 03       		.uleb128 0x3
 10285 022e 0E       		.uleb128 0xe
 10286 022f 3A       		.uleb128 0x3a
 10287 0230 0B       		.uleb128 0xb
 10288 0231 3B       		.uleb128 0x3b
 10289 0232 05       		.uleb128 0x5
 10290 0233 27       		.uleb128 0x27
 10291 0234 0C       		.uleb128 0xc
 10292 0235 20       		.uleb128 0x20
 10293 0236 0B       		.uleb128 0xb
 10294 0237 01       		.uleb128 0x1
 10295 0238 13       		.uleb128 0x13
 10296 0239 00       		.byte	0x0
 10297 023a 00       		.byte	0x0
 10298 023b 2E       		.uleb128 0x2e
 10299 023c 34       		.uleb128 0x34
 10300 023d 00       		.byte	0x0
 10301 023e 03       		.uleb128 0x3
 10302 023f 0E       		.uleb128 0xe
 10303 0240 3A       		.uleb128 0x3a
 10304 0241 0B       		.uleb128 0xb
 10305 0242 3B       		.uleb128 0x3b
 10306 0243 05       		.uleb128 0x5
 10307 0244 49       		.uleb128 0x49
 10308 0245 13       		.uleb128 0x13
 10309 0246 00       		.byte	0x0
 10310 0247 00       		.byte	0x0
 10311 0248 2F       		.uleb128 0x2f
 10312 0249 0B       		.uleb128 0xb
 10313 024a 01       		.byte	0x1
 10314 024b 01       		.uleb128 0x1
 10315 024c 13       		.uleb128 0x13
 10316 024d 00       		.byte	0x0
 10317 024e 00       		.byte	0x0
 10318 024f 30       		.uleb128 0x30
 10319 0250 2E       		.uleb128 0x2e
 10320 0251 01       		.byte	0x1
 10321 0252 03       		.uleb128 0x3
 10322 0253 0E       		.uleb128 0xe
 10323 0254 3A       		.uleb128 0x3a
 10324 0255 0B       		.uleb128 0xb
 10325 0256 3B       		.uleb128 0x3b
 10326 0257 05       		.uleb128 0x5
 10327 0258 27       		.uleb128 0x27
 10328 0259 0C       		.uleb128 0xc
 10329 025a 49       		.uleb128 0x49
 10330 025b 13       		.uleb128 0x13
 10331 025c 11       		.uleb128 0x11
 10332 025d 01       		.uleb128 0x1
 10333 025e 12       		.uleb128 0x12
ARM GAS  C:\Users\DNIEL~1\AppData\Local\Temp\cccPEDO0.s 			page 183


 10334 025f 01       		.uleb128 0x1
 10335 0260 40       		.uleb128 0x40
 10336 0261 06       		.uleb128 0x6
 10337 0262 01       		.uleb128 0x1
 10338 0263 13       		.uleb128 0x13
 10339 0264 00       		.byte	0x0
 10340 0265 00       		.byte	0x0
 10341 0266 31       		.uleb128 0x31
 10342 0267 05       		.uleb128 0x5
 10343 0268 00       		.byte	0x0
 10344 0269 03       		.uleb128 0x3
 10345 026a 08       		.uleb128 0x8
 10346 026b 3A       		.uleb128 0x3a
 10347 026c 0B       		.uleb128 0xb
 10348 026d 3B       		.uleb128 0x3b
 10349 026e 05       		.uleb128 0x5
 10350 026f 49       		.uleb128 0x49
 10351 0270 13       		.uleb128 0x13
 10352 0271 02       		.uleb128 0x2
 10353 0272 06       		.uleb128 0x6
 10354 0273 00       		.byte	0x0
 10355 0274 00       		.byte	0x0
 10356 0275 32       		.uleb128 0x32
 10357 0276 34       		.uleb128 0x34
 10358 0277 00       		.byte	0x0
 10359 0278 03       		.uleb128 0x3
 10360 0279 0E       		.uleb128 0xe
 10361 027a 3A       		.uleb128 0x3a
 10362 027b 0B       		.uleb128 0xb
 10363 027c 3B       		.uleb128 0x3b
 10364 027d 05       		.uleb128 0x5
 10365 027e 49       		.uleb128 0x49
 10366 027f 13       		.uleb128 0x13
 10367 0280 02       		.uleb128 0x2
 10368 0281 06       		.uleb128 0x6
 10369 0282 00       		.byte	0x0
 10370 0283 00       		.byte	0x0
 10371 0284 33       		.uleb128 0x33
 10372 0285 0B       		.uleb128 0xb
 10373 0286 01       		.byte	0x1
 10374 0287 11       		.uleb128 0x11
 10375 0288 01       		.uleb128 0x1
 10376 0289 12       		.uleb128 0x12
 10377 028a 01       		.uleb128 0x1
 10378 028b 01       		.uleb128 0x1
 10379 028c 13       		.uleb128 0x13
 10380 028d 00       		.byte	0x0
 10381 028e 00       		.byte	0x0
 10382 028f 34       		.uleb128 0x34
 10383 0290 34       		.uleb128 0x34
 10384 0291 00       		.byte	0x0
 10385 0292 03       		.uleb128 0x3
 10386 0293 08       		.uleb128 0x8
 10387 0294 3A       		.uleb128 0x3a
 10388 0295 0B       		.uleb128 0xb
 10389 0296 3B       		.uleb128 0x3b
 10390 0297 05       		.uleb128 0x5
ARM GAS  C:\Users\DNIEL~1\AppData\Local\Temp\cccPEDO0.s 			page 184


 10391 0298 49       		.uleb128 0x49
 10392 0299 13       		.uleb128 0x13
 10393 029a 02       		.uleb128 0x2
 10394 029b 06       		.uleb128 0x6
 10395 029c 00       		.byte	0x0
 10396 029d 00       		.byte	0x0
 10397 029e 35       		.uleb128 0x35
 10398 029f 0B       		.uleb128 0xb
 10399 02a0 01       		.byte	0x1
 10400 02a1 55       		.uleb128 0x55
 10401 02a2 06       		.uleb128 0x6
 10402 02a3 00       		.byte	0x0
 10403 02a4 00       		.byte	0x0
 10404 02a5 36       		.uleb128 0x36
 10405 02a6 1D       		.uleb128 0x1d
 10406 02a7 01       		.byte	0x1
 10407 02a8 31       		.uleb128 0x31
 10408 02a9 13       		.uleb128 0x13
 10409 02aa 52       		.uleb128 0x52
 10410 02ab 01       		.uleb128 0x1
 10411 02ac 55       		.uleb128 0x55
 10412 02ad 06       		.uleb128 0x6
 10413 02ae 58       		.uleb128 0x58
 10414 02af 0B       		.uleb128 0xb
 10415 02b0 59       		.uleb128 0x59
 10416 02b1 05       		.uleb128 0x5
 10417 02b2 01       		.uleb128 0x1
 10418 02b3 13       		.uleb128 0x13
 10419 02b4 00       		.byte	0x0
 10420 02b5 00       		.byte	0x0
 10421 02b6 37       		.uleb128 0x37
 10422 02b7 05       		.uleb128 0x5
 10423 02b8 00       		.byte	0x0
 10424 02b9 31       		.uleb128 0x31
 10425 02ba 13       		.uleb128 0x13
 10426 02bb 02       		.uleb128 0x2
 10427 02bc 06       		.uleb128 0x6
 10428 02bd 00       		.byte	0x0
 10429 02be 00       		.byte	0x0
 10430 02bf 38       		.uleb128 0x38
 10431 02c0 34       		.uleb128 0x34
 10432 02c1 00       		.byte	0x0
 10433 02c2 31       		.uleb128 0x31
 10434 02c3 13       		.uleb128 0x13
 10435 02c4 02       		.uleb128 0x2
 10436 02c5 06       		.uleb128 0x6
 10437 02c6 00       		.byte	0x0
 10438 02c7 00       		.byte	0x0
 10439 02c8 39       		.uleb128 0x39
 10440 02c9 05       		.uleb128 0x5
 10441 02ca 00       		.byte	0x0
 10442 02cb 31       		.uleb128 0x31
 10443 02cc 13       		.uleb128 0x13
 10444 02cd 02       		.uleb128 0x2
 10445 02ce 0A       		.uleb128 0xa
 10446 02cf 00       		.byte	0x0
 10447 02d0 00       		.byte	0x0
ARM GAS  C:\Users\DNIEL~1\AppData\Local\Temp\cccPEDO0.s 			page 185


 10448 02d1 3A       		.uleb128 0x3a
 10449 02d2 1D       		.uleb128 0x1d
 10450 02d3 01       		.byte	0x1
 10451 02d4 31       		.uleb128 0x31
 10452 02d5 13       		.uleb128 0x13
 10453 02d6 11       		.uleb128 0x11
 10454 02d7 01       		.uleb128 0x1
 10455 02d8 12       		.uleb128 0x12
 10456 02d9 01       		.uleb128 0x1
 10457 02da 58       		.uleb128 0x58
 10458 02db 0B       		.uleb128 0xb
 10459 02dc 59       		.uleb128 0x59
 10460 02dd 05       		.uleb128 0x5
 10461 02de 00       		.byte	0x0
 10462 02df 00       		.byte	0x0
 10463 02e0 3B       		.uleb128 0x3b
 10464 02e1 0B       		.uleb128 0xb
 10465 02e2 01       		.byte	0x1
 10466 02e3 11       		.uleb128 0x11
 10467 02e4 01       		.uleb128 0x1
 10468 02e5 12       		.uleb128 0x12
 10469 02e6 01       		.uleb128 0x1
 10470 02e7 00       		.byte	0x0
 10471 02e8 00       		.byte	0x0
 10472 02e9 3C       		.uleb128 0x3c
 10473 02ea 1D       		.uleb128 0x1d
 10474 02eb 01       		.byte	0x1
 10475 02ec 31       		.uleb128 0x31
 10476 02ed 13       		.uleb128 0x13
 10477 02ee 11       		.uleb128 0x11
 10478 02ef 01       		.uleb128 0x1
 10479 02f0 12       		.uleb128 0x12
 10480 02f1 01       		.uleb128 0x1
 10481 02f2 58       		.uleb128 0x58
 10482 02f3 0B       		.uleb128 0xb
 10483 02f4 59       		.uleb128 0x59
 10484 02f5 05       		.uleb128 0x5
 10485 02f6 01       		.uleb128 0x1
 10486 02f7 13       		.uleb128 0x13
 10487 02f8 00       		.byte	0x0
 10488 02f9 00       		.byte	0x0
 10489 02fa 3D       		.uleb128 0x3d
 10490 02fb 0B       		.uleb128 0xb
 10491 02fc 01       		.byte	0x1
 10492 02fd 55       		.uleb128 0x55
 10493 02fe 06       		.uleb128 0x6
 10494 02ff 01       		.uleb128 0x1
 10495 0300 13       		.uleb128 0x13
 10496 0301 00       		.byte	0x0
 10497 0302 00       		.byte	0x0
 10498 0303 3E       		.uleb128 0x3e
 10499 0304 34       		.uleb128 0x34
 10500 0305 00       		.byte	0x0
 10501 0306 03       		.uleb128 0x3
 10502 0307 0E       		.uleb128 0xe
 10503 0308 3A       		.uleb128 0x3a
 10504 0309 0B       		.uleb128 0xb
ARM GAS  C:\Users\DNIEL~1\AppData\Local\Temp\cccPEDO0.s 			page 186


 10505 030a 3B       		.uleb128 0x3b
 10506 030b 05       		.uleb128 0x5
 10507 030c 49       		.uleb128 0x49
 10508 030d 13       		.uleb128 0x13
 10509 030e 02       		.uleb128 0x2
 10510 030f 0A       		.uleb128 0xa
 10511 0310 00       		.byte	0x0
 10512 0311 00       		.byte	0x0
 10513 0312 3F       		.uleb128 0x3f
 10514 0313 1D       		.uleb128 0x1d
 10515 0314 01       		.byte	0x1
 10516 0315 31       		.uleb128 0x31
 10517 0316 13       		.uleb128 0x13
 10518 0317 52       		.uleb128 0x52
 10519 0318 01       		.uleb128 0x1
 10520 0319 55       		.uleb128 0x55
 10521 031a 06       		.uleb128 0x6
 10522 031b 58       		.uleb128 0x58
 10523 031c 0B       		.uleb128 0xb
 10524 031d 59       		.uleb128 0x59
 10525 031e 05       		.uleb128 0x5
 10526 031f 00       		.byte	0x0
 10527 0320 00       		.byte	0x0
 10528 0321 40       		.uleb128 0x40
 10529 0322 05       		.uleb128 0x5
 10530 0323 00       		.byte	0x0
 10531 0324 31       		.uleb128 0x31
 10532 0325 13       		.uleb128 0x13
 10533 0326 00       		.byte	0x0
 10534 0327 00       		.byte	0x0
 10535 0328 41       		.uleb128 0x41
 10536 0329 2E       		.uleb128 0x2e
 10537 032a 01       		.byte	0x1
 10538 032b 31       		.uleb128 0x31
 10539 032c 13       		.uleb128 0x13
 10540 032d 11       		.uleb128 0x11
 10541 032e 01       		.uleb128 0x1
 10542 032f 12       		.uleb128 0x12
 10543 0330 01       		.uleb128 0x1
 10544 0331 40       		.uleb128 0x40
 10545 0332 06       		.uleb128 0x6
 10546 0333 01       		.uleb128 0x1
 10547 0334 13       		.uleb128 0x13
 10548 0335 00       		.byte	0x0
 10549 0336 00       		.byte	0x0
 10550 0337 42       		.uleb128 0x42
 10551 0338 34       		.uleb128 0x34
 10552 0339 00       		.byte	0x0
 10553 033a 31       		.uleb128 0x31
 10554 033b 13       		.uleb128 0x13
 10555 033c 02       		.uleb128 0x2
 10556 033d 0A       		.uleb128 0xa
 10557 033e 00       		.byte	0x0
 10558 033f 00       		.byte	0x0
 10559 0340 43       		.uleb128 0x43
 10560 0341 2E       		.uleb128 0x2e
 10561 0342 01       		.byte	0x1
ARM GAS  C:\Users\DNIEL~1\AppData\Local\Temp\cccPEDO0.s 			page 187


 10562 0343 31       		.uleb128 0x31
 10563 0344 13       		.uleb128 0x13
 10564 0345 11       		.uleb128 0x11
 10565 0346 01       		.uleb128 0x1
 10566 0347 12       		.uleb128 0x12
 10567 0348 01       		.uleb128 0x1
 10568 0349 40       		.uleb128 0x40
 10569 034a 0A       		.uleb128 0xa
 10570 034b 01       		.uleb128 0x1
 10571 034c 13       		.uleb128 0x13
 10572 034d 00       		.byte	0x0
 10573 034e 00       		.byte	0x0
 10574 034f 44       		.uleb128 0x44
 10575 0350 2E       		.uleb128 0x2e
 10576 0351 00       		.byte	0x0
 10577 0352 3F       		.uleb128 0x3f
 10578 0353 0C       		.uleb128 0xc
 10579 0354 03       		.uleb128 0x3
 10580 0355 0E       		.uleb128 0xe
 10581 0356 3A       		.uleb128 0x3a
 10582 0357 0B       		.uleb128 0xb
 10583 0358 3B       		.uleb128 0x3b
 10584 0359 05       		.uleb128 0x5
 10585 035a 27       		.uleb128 0x27
 10586 035b 0C       		.uleb128 0xc
 10587 035c 11       		.uleb128 0x11
 10588 035d 01       		.uleb128 0x1
 10589 035e 12       		.uleb128 0x12
 10590 035f 01       		.uleb128 0x1
 10591 0360 40       		.uleb128 0x40
 10592 0361 06       		.uleb128 0x6
 10593 0362 00       		.byte	0x0
 10594 0363 00       		.byte	0x0
 10595 0364 45       		.uleb128 0x45
 10596 0365 2E       		.uleb128 0x2e
 10597 0366 01       		.byte	0x1
 10598 0367 3F       		.uleb128 0x3f
 10599 0368 0C       		.uleb128 0xc
 10600 0369 03       		.uleb128 0x3
 10601 036a 0E       		.uleb128 0xe
 10602 036b 3A       		.uleb128 0x3a
 10603 036c 0B       		.uleb128 0xb
 10604 036d 3B       		.uleb128 0x3b
 10605 036e 05       		.uleb128 0x5
 10606 036f 27       		.uleb128 0x27
 10607 0370 0C       		.uleb128 0xc
 10608 0371 11       		.uleb128 0x11
 10609 0372 01       		.uleb128 0x1
 10610 0373 12       		.uleb128 0x12
 10611 0374 01       		.uleb128 0x1
 10612 0375 40       		.uleb128 0x40
 10613 0376 06       		.uleb128 0x6
 10614 0377 01       		.uleb128 0x1
 10615 0378 13       		.uleb128 0x13
 10616 0379 00       		.byte	0x0
 10617 037a 00       		.byte	0x0
 10618 037b 46       		.uleb128 0x46
ARM GAS  C:\Users\DNIEL~1\AppData\Local\Temp\cccPEDO0.s 			page 188


 10619 037c 05       		.uleb128 0x5
 10620 037d 00       		.byte	0x0
 10621 037e 03       		.uleb128 0x3
 10622 037f 0E       		.uleb128 0xe
 10623 0380 3A       		.uleb128 0x3a
 10624 0381 0B       		.uleb128 0xb
 10625 0382 3B       		.uleb128 0x3b
 10626 0383 05       		.uleb128 0x5
 10627 0384 49       		.uleb128 0x49
 10628 0385 13       		.uleb128 0x13
 10629 0386 02       		.uleb128 0x2
 10630 0387 06       		.uleb128 0x6
 10631 0388 00       		.byte	0x0
 10632 0389 00       		.byte	0x0
 10633 038a 47       		.uleb128 0x47
 10634 038b 1D       		.uleb128 0x1d
 10635 038c 00       		.byte	0x0
 10636 038d 31       		.uleb128 0x31
 10637 038e 13       		.uleb128 0x13
 10638 038f 52       		.uleb128 0x52
 10639 0390 01       		.uleb128 0x1
 10640 0391 55       		.uleb128 0x55
 10641 0392 06       		.uleb128 0x6
 10642 0393 58       		.uleb128 0x58
 10643 0394 0B       		.uleb128 0xb
 10644 0395 59       		.uleb128 0x59
 10645 0396 05       		.uleb128 0x5
 10646 0397 00       		.byte	0x0
 10647 0398 00       		.byte	0x0
 10648 0399 48       		.uleb128 0x48
 10649 039a 05       		.uleb128 0x5
 10650 039b 00       		.byte	0x0
 10651 039c 31       		.uleb128 0x31
 10652 039d 13       		.uleb128 0x13
 10653 039e 1C       		.uleb128 0x1c
 10654 039f 0B       		.uleb128 0xb
 10655 03a0 00       		.byte	0x0
 10656 03a1 00       		.byte	0x0
 10657 03a2 49       		.uleb128 0x49
 10658 03a3 2E       		.uleb128 0x2e
 10659 03a4 01       		.byte	0x1
 10660 03a5 3F       		.uleb128 0x3f
 10661 03a6 0C       		.uleb128 0xc
 10662 03a7 03       		.uleb128 0x3
 10663 03a8 0E       		.uleb128 0xe
 10664 03a9 3A       		.uleb128 0x3a
 10665 03aa 0B       		.uleb128 0xb
 10666 03ab 3B       		.uleb128 0x3b
 10667 03ac 05       		.uleb128 0x5
 10668 03ad 27       		.uleb128 0x27
 10669 03ae 0C       		.uleb128 0xc
 10670 03af 11       		.uleb128 0x11
 10671 03b0 01       		.uleb128 0x1
 10672 03b1 12       		.uleb128 0x12
 10673 03b2 01       		.uleb128 0x1
 10674 03b3 40       		.uleb128 0x40
 10675 03b4 0A       		.uleb128 0xa
ARM GAS  C:\Users\DNIEL~1\AppData\Local\Temp\cccPEDO0.s 			page 189


 10676 03b5 01       		.uleb128 0x1
 10677 03b6 13       		.uleb128 0x13
 10678 03b7 00       		.byte	0x0
 10679 03b8 00       		.byte	0x0
 10680 03b9 4A       		.uleb128 0x4a
 10681 03ba 2E       		.uleb128 0x2e
 10682 03bb 01       		.byte	0x1
 10683 03bc 3F       		.uleb128 0x3f
 10684 03bd 0C       		.uleb128 0xc
 10685 03be 03       		.uleb128 0x3
 10686 03bf 0E       		.uleb128 0xe
 10687 03c0 3A       		.uleb128 0x3a
 10688 03c1 0B       		.uleb128 0xb
 10689 03c2 3B       		.uleb128 0x3b
 10690 03c3 05       		.uleb128 0x5
 10691 03c4 27       		.uleb128 0x27
 10692 03c5 0C       		.uleb128 0xc
 10693 03c6 49       		.uleb128 0x49
 10694 03c7 13       		.uleb128 0x13
 10695 03c8 11       		.uleb128 0x11
 10696 03c9 01       		.uleb128 0x1
 10697 03ca 12       		.uleb128 0x12
 10698 03cb 01       		.uleb128 0x1
 10699 03cc 40       		.uleb128 0x40
 10700 03cd 0A       		.uleb128 0xa
 10701 03ce 01       		.uleb128 0x1
 10702 03cf 13       		.uleb128 0x13
 10703 03d0 00       		.byte	0x0
 10704 03d1 00       		.byte	0x0
 10705 03d2 4B       		.uleb128 0x4b
 10706 03d3 34       		.uleb128 0x34
 10707 03d4 00       		.byte	0x0
 10708 03d5 03       		.uleb128 0x3
 10709 03d6 08       		.uleb128 0x8
 10710 03d7 3A       		.uleb128 0x3a
 10711 03d8 0B       		.uleb128 0xb
 10712 03d9 3B       		.uleb128 0x3b
 10713 03da 05       		.uleb128 0x5
 10714 03db 49       		.uleb128 0x49
 10715 03dc 13       		.uleb128 0x13
 10716 03dd 02       		.uleb128 0x2
 10717 03de 0A       		.uleb128 0xa
 10718 03df 00       		.byte	0x0
 10719 03e0 00       		.byte	0x0
 10720 03e1 4C       		.uleb128 0x4c
 10721 03e2 05       		.uleb128 0x5
 10722 03e3 00       		.byte	0x0
 10723 03e4 03       		.uleb128 0x3
 10724 03e5 08       		.uleb128 0x8
 10725 03e6 3A       		.uleb128 0x3a
 10726 03e7 0B       		.uleb128 0xb
 10727 03e8 3B       		.uleb128 0x3b
 10728 03e9 05       		.uleb128 0x5
 10729 03ea 49       		.uleb128 0x49
 10730 03eb 13       		.uleb128 0x13
 10731 03ec 02       		.uleb128 0x2
 10732 03ed 0A       		.uleb128 0xa
ARM GAS  C:\Users\DNIEL~1\AppData\Local\Temp\cccPEDO0.s 			page 190


 10733 03ee 00       		.byte	0x0
 10734 03ef 00       		.byte	0x0
 10735 03f0 4D       		.uleb128 0x4d
 10736 03f1 34       		.uleb128 0x34
 10737 03f2 00       		.byte	0x0
 10738 03f3 03       		.uleb128 0x3
 10739 03f4 0E       		.uleb128 0xe
 10740 03f5 3A       		.uleb128 0x3a
 10741 03f6 0B       		.uleb128 0xb
 10742 03f7 3B       		.uleb128 0x3b
 10743 03f8 0B       		.uleb128 0xb
 10744 03f9 49       		.uleb128 0x49
 10745 03fa 13       		.uleb128 0x13
 10746 03fb 3F       		.uleb128 0x3f
 10747 03fc 0C       		.uleb128 0xc
 10748 03fd 3C       		.uleb128 0x3c
 10749 03fe 0C       		.uleb128 0xc
 10750 03ff 00       		.byte	0x0
 10751 0400 00       		.byte	0x0
 10752 0401 4E       		.uleb128 0x4e
 10753 0402 34       		.uleb128 0x34
 10754 0403 00       		.byte	0x0
 10755 0404 03       		.uleb128 0x3
 10756 0405 0E       		.uleb128 0xe
 10757 0406 3A       		.uleb128 0x3a
 10758 0407 0B       		.uleb128 0xb
 10759 0408 3B       		.uleb128 0x3b
 10760 0409 05       		.uleb128 0x5
 10761 040a 49       		.uleb128 0x49
 10762 040b 13       		.uleb128 0x13
 10763 040c 3F       		.uleb128 0x3f
 10764 040d 0C       		.uleb128 0xc
 10765 040e 3C       		.uleb128 0x3c
 10766 040f 0C       		.uleb128 0xc
 10767 0410 00       		.byte	0x0
 10768 0411 00       		.byte	0x0
 10769 0412 4F       		.uleb128 0x4f
 10770 0413 34       		.uleb128 0x34
 10771 0414 00       		.byte	0x0
 10772 0415 03       		.uleb128 0x3
 10773 0416 0E       		.uleb128 0xe
 10774 0417 3A       		.uleb128 0x3a
 10775 0418 0B       		.uleb128 0xb
 10776 0419 3B       		.uleb128 0x3b
 10777 041a 0B       		.uleb128 0xb
 10778 041b 49       		.uleb128 0x49
 10779 041c 13       		.uleb128 0x13
 10780 041d 02       		.uleb128 0x2
 10781 041e 0A       		.uleb128 0xa
 10782 041f 00       		.byte	0x0
 10783 0420 00       		.byte	0x0
 10784 0421 50       		.uleb128 0x50
 10785 0422 34       		.uleb128 0x34
 10786 0423 00       		.byte	0x0
 10787 0424 03       		.uleb128 0x3
 10788 0425 0E       		.uleb128 0xe
 10789 0426 3A       		.uleb128 0x3a
ARM GAS  C:\Users\DNIEL~1\AppData\Local\Temp\cccPEDO0.s 			page 191


 10790 0427 0B       		.uleb128 0xb
 10791 0428 3B       		.uleb128 0x3b
 10792 0429 0B       		.uleb128 0xb
 10793 042a 49       		.uleb128 0x49
 10794 042b 13       		.uleb128 0x13
 10795 042c 3F       		.uleb128 0x3f
 10796 042d 0C       		.uleb128 0xc
 10797 042e 02       		.uleb128 0x2
 10798 042f 0A       		.uleb128 0xa
 10799 0430 00       		.byte	0x0
 10800 0431 00       		.byte	0x0
 10801 0432 00       		.byte	0x0
 10802              		.section	.debug_pubnames,"",%progbits
 10803 0000 C2010000 		.4byte	0x1c2
 10804 0004 0200     		.2byte	0x2
 10805 0006 00000000 		.4byte	.Ldebug_info0
 10806 000a BA250000 		.4byte	0x25ba
 10807 000e FA1D0000 		.4byte	0x1dfa
 10808 0012 7573625F 		.ascii	"usb_lld_init\000"
 10808      6C6C645F 
 10808      696E6974 
 10808      00
 10809 001f 101E0000 		.4byte	0x1e10
 10810 0023 7573625F 		.ascii	"usb_lld_start\000"
 10810      6C6C645F 
 10810      73746172 
 10810      7400
 10811 0031 6B1E0000 		.4byte	0x1e6b
 10812 0035 7573625F 		.ascii	"usb_lld_stop\000"
 10812      6C6C645F 
 10812      73746F70 
 10812      00
 10813 0042 A61E0000 		.4byte	0x1ea6
 10814 0046 7573625F 		.ascii	"usb_lld_reset\000"
 10814      6C6C645F 
 10814      72657365 
 10814      7400
 10815 0054 471F0000 		.4byte	0x1f47
 10816 0058 7573625F 		.ascii	"usb_lld_set_address\000"
 10816      6C6C645F 
 10816      7365745F 
 10816      61646472 
 10816      65737300 
 10817 006c 811F0000 		.4byte	0x1f81
 10818 0070 7573625F 		.ascii	"usb_lld_init_endpoint\000"
 10818      6C6C645F 
 10818      696E6974 
 10818      5F656E64 
 10818      706F696E 
 10819 0086 14200000 		.4byte	0x2014
 10820 008a 7573625F 		.ascii	"usb_lld_disable_endpoints\000"
 10820      6C6C645F 
 10820      64697361 
 10820      626C655F 
 10820      656E6470 
 10821 00a4 4E200000 		.4byte	0x204e
 10822 00a8 7573625F 		.ascii	"usb_lld_get_status_out\000"
ARM GAS  C:\Users\DNIEL~1\AppData\Local\Temp\cccPEDO0.s 			page 192


 10822      6C6C645F 
 10822      6765745F 
 10822      73746174 
 10822      75735F6F 
 10823 00bf 99200000 		.4byte	0x2099
 10824 00c3 7573625F 		.ascii	"usb_lld_get_status_in\000"
 10824      6C6C645F 
 10824      6765745F 
 10824      73746174 
 10824      75735F69 
 10825 00d9 E4200000 		.4byte	0x20e4
 10826 00dd 7573625F 		.ascii	"usb_lld_read_setup\000"
 10826      6C6C645F 
 10826      72656164 
 10826      5F736574 
 10826      757000
 10827 00f0 2B210000 		.4byte	0x212b
 10828 00f4 7573625F 		.ascii	"usb_lld_prepare_receive\000"
 10828      6C6C645F 
 10828      70726570 
 10828      6172655F 
 10828      72656365 
 10829 010c 1D220000 		.4byte	0x221d
 10830 0110 7573625F 		.ascii	"usb_lld_prepare_transmit\000"
 10830      6C6C645F 
 10830      70726570 
 10830      6172655F 
 10830      7472616E 
 10831 0129 5A230000 		.4byte	0x235a
 10832 012d 56656374 		.ascii	"Vector14C\000"
 10832      6F723134 
 10832      4300
 10833 0137 ED230000 		.4byte	0x23ed
 10834 013b 7573625F 		.ascii	"usb_lld_start_out\000"
 10834      6C6C645F 
 10834      73746172 
 10834      745F6F75 
 10834      7400
 10835 014d 14240000 		.4byte	0x2414
 10836 0151 7573625F 		.ascii	"usb_lld_start_in\000"
 10836      6C6C645F 
 10836      73746172 
 10836      745F696E 
 10836      00
 10837 0162 3B240000 		.4byte	0x243b
 10838 0166 7573625F 		.ascii	"usb_lld_stall_out\000"
 10838      6C6C645F 
 10838      7374616C 
 10838      6C5F6F75 
 10838      7400
 10839 0178 74240000 		.4byte	0x2474
 10840 017c 7573625F 		.ascii	"usb_lld_stall_in\000"
 10840      6C6C645F 
 10840      7374616C 
 10840      6C5F696E 
 10840      00
 10841 018d AD240000 		.4byte	0x24ad
ARM GAS  C:\Users\DNIEL~1\AppData\Local\Temp\cccPEDO0.s 			page 193


 10842 0191 7573625F 		.ascii	"usb_lld_clear_out\000"
 10842      6C6C645F 
 10842      636C6561 
 10842      725F6F75 
 10842      7400
 10843 01a3 E6240000 		.4byte	0x24e6
 10844 01a7 7573625F 		.ascii	"usb_lld_clear_in\000"
 10844      6C6C645F 
 10844      636C6561 
 10844      725F696E 
 10844      00
 10845 01b8 A7250000 		.4byte	0x25a7
 10846 01bc 55534244 		.ascii	"USBD1\000"
 10846      3100
 10847 01c2 00000000 		.4byte	0x0
 10848              		.section	.debug_pubtypes,"",%progbits
 10849 0000 53030000 		.4byte	0x353
 10850 0004 0200     		.2byte	0x2
 10851 0006 00000000 		.4byte	.Ldebug_info0
 10852 000a BA250000 		.4byte	0x25ba
 10853 000e 83000000 		.4byte	0x83
 10854 0012 73697A65 		.ascii	"size_t\000"
 10854      5F7400
 10855 0019 8E000000 		.4byte	0x8e
 10856 001d 75696E74 		.ascii	"uint8_t\000"
 10856      385F7400 
 10857 0025 99000000 		.4byte	0x99
 10858 0029 75696E74 		.ascii	"uint16_t\000"
 10858      31365F74 
 10858      00
 10859 0032 A4000000 		.4byte	0xa4
 10860 0036 696E7433 		.ascii	"int32_t\000"
 10860      325F7400 
 10861 003e AF000000 		.4byte	0xaf
 10862 0042 75696E74 		.ascii	"uint32_t\000"
 10862      33325F74 
 10862      00
 10863 004b BA000000 		.4byte	0xba
 10864 004f 75696E74 		.ascii	"uint64_t\000"
 10864      36345F74 
 10864      00
 10865 0058 C5000000 		.4byte	0xc5
 10866 005c 626F6F6C 		.ascii	"bool_t\000"
 10866      5F7400
 10867 0063 D7000000 		.4byte	0xd7
 10868 0067 746D6F64 		.ascii	"tmode_t\000"
 10868      655F7400 
 10869 006f E2000000 		.4byte	0xe2
 10870 0073 74737461 		.ascii	"tstate_t\000"
 10870      74655F74 
 10870      00
 10871 007c ED000000 		.4byte	0xed
 10872 0080 74726566 		.ascii	"trefs_t\000"
 10872      735F7400 
 10873 0088 F8000000 		.4byte	0xf8
 10874 008c 74736C69 		.ascii	"tslices_t\000"
 10874      6365735F 
ARM GAS  C:\Users\DNIEL~1\AppData\Local\Temp\cccPEDO0.s 			page 194


 10874      7400
 10875 0096 03010000 		.4byte	0x103
 10876 009a 74707269 		.ascii	"tprio_t\000"
 10876      6F5F7400 
 10877 00a2 0E010000 		.4byte	0x10e
 10878 00a6 6D73675F 		.ascii	"msg_t\000"
 10878      7400
 10879 00ac 19010000 		.4byte	0x119
 10880 00b0 6576656E 		.ascii	"eventmask_t\000"
 10880      746D6173 
 10880      6B5F7400 
 10881 00bc 24010000 		.4byte	0x124
 10882 00c0 73797374 		.ascii	"systime_t\000"
 10882      696D655F 
 10882      7400
 10883 00ca 2F010000 		.4byte	0x12f
 10884 00ce 54687265 		.ascii	"Thread\000"
 10884      616400
 10885 00d5 8A020000 		.4byte	0x28a
 10886 00d9 54687265 		.ascii	"ThreadsQueue\000"
 10886      61647351 
 10886      75657565 
 10886      00
 10887 00e6 AC020000 		.4byte	0x2ac
 10888 00ea 54687265 		.ascii	"ThreadsList\000"
 10888      6164734C 
 10888      69737400 
 10889 00f6 B7020000 		.4byte	0x2b7
 10890 00fa 72656761 		.ascii	"regarm_t\000"
 10890      726D5F74 
 10890      00
 10891 0103 C2020000 		.4byte	0x2c2
 10892 0107 73746B61 		.ascii	"stkalign_t\000"
 10892      6C69676E 
 10892      5F7400
 10893 0112 CD020000 		.4byte	0x2cd
 10894 0116 696E7463 		.ascii	"intctx\000"
 10894      747800
 10895 011d 5B030000 		.4byte	0x35b
 10896 0121 636F6E74 		.ascii	"context\000"
 10896      65787400 
 10897 0129 E5030000 		.4byte	0x3e5
 10898 012d 52656164 		.ascii	"ReadyList\000"
 10898      794C6973 
 10898      7400
 10899 0137 F0030000 		.4byte	0x3f0
 10900 013b 4D757465 		.ascii	"Mutex\000"
 10900      7800
 10901 0141 2D040000 		.4byte	0x42d
 10902 0145 4D757465 		.ascii	"Mutex\000"
 10902      7800
 10903 014b 3A010000 		.4byte	0x13a
 10904 014f 54687265 		.ascii	"Thread\000"
 10904      616400
 10905 0156 73040000 		.4byte	0x473
 10906 015a 47656E65 		.ascii	"GenericQueue\000"
 10906      72696351 
ARM GAS  C:\Users\DNIEL~1\AppData\Local\Temp\cccPEDO0.s 			page 195


 10906      75657565 
 10906      00
 10907 0167 FB040000 		.4byte	0x4fb
 10908 016b 716E6F74 		.ascii	"qnotify_t\000"
 10908      6966795F 
 10908      7400
 10909 0175 7E040000 		.4byte	0x47e
 10910 0179 47656E65 		.ascii	"GenericQueue\000"
 10910      72696351 
 10910      75657565 
 10910      00
 10911 0186 24050000 		.4byte	0x524
 10912 018a 496E7075 		.ascii	"InputQueue\000"
 10912      74517565 
 10912      756500
 10913 0195 2F050000 		.4byte	0x52f
 10914 0199 4F757470 		.ascii	"OutputQueue\000"
 10914      75745175 
 10914      65756500 
 10915 01a5 57070000 		.4byte	0x757
 10916 01a9 5243435F 		.ascii	"RCC_TypeDef\000"
 10916      54797065 
 10916      44656600 
 10917 01b5 79070000 		.4byte	0x779
 10918 01b9 55534244 		.ascii	"USBDriver\000"
 10918      72697665 
 10918      7200
 10919 01c3 DD080000 		.4byte	0x8dd
 10920 01c7 75736265 		.ascii	"usbep_t\000"
 10920      705F7400 
 10921 01cf 0F090000 		.4byte	0x90f
 10922 01d3 75736273 		.ascii	"usbstate_t\000"
 10922      74617465 
 10922      5F7400
 10923 01de 35090000 		.4byte	0x935
 10924 01e2 75736265 		.ascii	"usbepstatus_t\000"
 10924      70737461 
 10924      7475735F 
 10924      7400
 10925 01f0 75090000 		.4byte	0x975
 10926 01f4 75736265 		.ascii	"usbep0state_t\000"
 10926      70307374 
 10926      6174655F 
 10926      7400
 10927 0202 AF090000 		.4byte	0x9af
 10928 0206 75736265 		.ascii	"usbevent_t\000"
 10928      76656E74 
 10928      5F7400
 10929 0211 E3090000 		.4byte	0x9e3
 10930 0215 55534244 		.ascii	"USBDescriptor\000"
 10930      65736372 
 10930      6970746F 
 10930      7200
 10931 0223 EF090000 		.4byte	0x9ef
 10932 0227 75736263 		.ascii	"usbcallback_t\000"
 10932      616C6C62 
 10932      61636B5F 
ARM GAS  C:\Users\DNIEL~1\AppData\Local\Temp\cccPEDO0.s 			page 196


 10932      7400
 10933 0235 130A0000 		.4byte	0xa13
 10934 0239 75736265 		.ascii	"usbepcallback_t\000"
 10934      7063616C 
 10934      6C626163 
 10934      6B5F7400 
 10935 0249 360A0000 		.4byte	0xa36
 10936 024d 75736265 		.ascii	"usbeventcb_t\000"
 10936      76656E74 
 10936      63625F74 
 10936      00
 10937 025a 590A0000 		.4byte	0xa59
 10938 025e 75736272 		.ascii	"usbreqhandler_t\000"
 10938      65716861 
 10938      6E646C65 
 10938      725F7400 
 10939 026e 7B0A0000 		.4byte	0xa7b
 10940 0272 75736267 		.ascii	"usbgetdescriptor_t\000"
 10940      65746465 
 10940      73637269 
 10940      70746F72 
 10940      5F7400
 10941 0285 300B0000 		.4byte	0xb30
 10942 0289 73746D33 		.ascii	"stm32_otg_host_chn_t\000"
 10942      325F6F74 
 10942      675F686F 
 10942      73745F63 
 10942      686E5F74 
 10943 029e B40B0000 		.4byte	0xbb4
 10944 02a2 73746D33 		.ascii	"stm32_otg_in_ep_t\000"
 10944      325F6F74 
 10944      675F696E 
 10944      5F65705F 
 10944      7400
 10945 02b4 380C0000 		.4byte	0xc38
 10946 02b8 73746D33 		.ascii	"stm32_otg_out_ep_t\000"
 10946      325F6F74 
 10946      675F6F75 
 10946      745F6570 
 10946      5F7400
 10947 02cb 85100000 		.4byte	0x1085
 10948 02cf 73746D33 		.ascii	"stm32_otg_t\000"
 10948      325F6F74 
 10948      675F7400 
 10949 02db C3100000 		.4byte	0x10c3
 10950 02df 73746D33 		.ascii	"stm32_otg_params_t\000"
 10950      325F6F74 
 10950      675F7061 
 10950      72616D73 
 10950      5F7400
 10951 02f2 70110000 		.4byte	0x1170
 10952 02f6 55534249 		.ascii	"USBInEndpointState\000"
 10952      6E456E64 
 10952      706F696E 
 10952      74537461 
 10952      746500
 10953 0309 24120000 		.4byte	0x1224
ARM GAS  C:\Users\DNIEL~1\AppData\Local\Temp\cccPEDO0.s 			page 197


 10954 030d 5553424F 		.ascii	"USBOutEndpointState\000"
 10954      7574456E 
 10954      64706F69 
 10954      6E745374 
 10954      61746500 
 10955 0321 DC120000 		.4byte	0x12dc
 10956 0325 55534245 		.ascii	"USBEndpointConfig\000"
 10956      6E64706F 
 10956      696E7443 
 10956      6F6E6669 
 10956      6700
 10957 0337 2E130000 		.4byte	0x132e
 10958 033b 55534243 		.ascii	"USBConfig\000"
 10958      6F6E6669 
 10958      6700
 10959 0345 84070000 		.4byte	0x784
 10960 0349 55534244 		.ascii	"USBDriver\000"
 10960      72697665 
 10960      7200
 10961 0353 00000000 		.4byte	0x0
 10962              		.section	.debug_aranges,"",%progbits
 10963 0000 D4000000 		.4byte	0xd4
 10964 0004 0200     		.2byte	0x2
 10965 0006 00000000 		.4byte	.Ldebug_info0
 10966 000a 04       		.byte	0x4
 10967 000b 00       		.byte	0x0
 10968 000c 0000     		.2byte	0x0
 10969 000e 0000     		.2byte	0x0
 10970 0010 00000000 		.4byte	.LFB136
 10971 0014 18050000 		.4byte	.LFE136-.LFB136
 10972 0018 00000000 		.4byte	.LFB156
 10973 001c AE000000 		.4byte	.LFE156-.LFB156
 10974 0020 00000000 		.4byte	.LFB159
 10975 0024 16000000 		.4byte	.LFE159-.LFB159
 10976 0028 00000000 		.4byte	.LFB138
 10977 002c 24000000 		.4byte	.LFE138-.LFB138
 10978 0030 00000000 		.4byte	.LFB139
 10979 0034 E0000000 		.4byte	.LFE139-.LFB139
 10980 0038 00000000 		.4byte	.LFB140
 10981 003c 22000000 		.4byte	.LFE140-.LFB140
 10982 0040 00000000 		.4byte	.LFB141
 10983 0044 28010000 		.4byte	.LFE141-.LFB141
 10984 0048 00000000 		.4byte	.LFB142
 10985 004c 18000000 		.4byte	.LFE142-.LFB142
 10986 0050 00000000 		.4byte	.LFB143
 10987 0054 64010000 		.4byte	.LFE143-.LFB143
 10988 0058 00000000 		.4byte	.LFB144
 10989 005c 0E000000 		.4byte	.LFE144-.LFB144
 10990 0060 00000000 		.4byte	.LFB145
 10991 0064 1A000000 		.4byte	.LFE145-.LFB145
 10992 0068 00000000 		.4byte	.LFB146
 10993 006c 1A000000 		.4byte	.LFE146-.LFB146
 10994 0070 00000000 		.4byte	.LFB147
 10995 0074 14000000 		.4byte	.LFE147-.LFB147
 10996 0078 00000000 		.4byte	.LFB148
 10997 007c 44000000 		.4byte	.LFE148-.LFB148
 10998 0080 00000000 		.4byte	.LFB164
ARM GAS  C:\Users\DNIEL~1\AppData\Local\Temp\cccPEDO0.s 			page 198


 10999 0084 A4000000 		.4byte	.LFE164-.LFB164
 11000 0088 00000000 		.4byte	.LFB149
 11001 008c 50000000 		.4byte	.LFE149-.LFB149
 11002 0090 00000000 		.4byte	.LFB163
 11003 0094 E0000000 		.4byte	.LFE163-.LFB163
 11004 0098 00000000 		.4byte	.LFB137
 11005 009c 14010000 		.4byte	.LFE137-.LFB137
 11006 00a0 00000000 		.4byte	.LFB150
 11007 00a4 10000000 		.4byte	.LFE150-.LFB150
 11008 00a8 00000000 		.4byte	.LFB151
 11009 00ac 22000000 		.4byte	.LFE151-.LFB151
 11010 00b0 00000000 		.4byte	.LFB152
 11011 00b4 10000000 		.4byte	.LFE152-.LFB152
 11012 00b8 00000000 		.4byte	.LFB153
 11013 00bc 10000000 		.4byte	.LFE153-.LFB153
 11014 00c0 00000000 		.4byte	.LFB154
 11015 00c4 10000000 		.4byte	.LFE154-.LFB154
 11016 00c8 00000000 		.4byte	.LFB155
 11017 00cc 10000000 		.4byte	.LFE155-.LFB155
 11018 00d0 00000000 		.4byte	0x0
 11019 00d4 00000000 		.4byte	0x0
 11020              		.section	.debug_ranges,"",%progbits
 11021              	.Ldebug_ranges0:
 11022 0000 1A000000 		.4byte	.LBB142
 11023 0004 04010000 		.4byte	.LBE142
 11024 0008 06010000 		.4byte	.LBB215
 11025 000c 18050000 		.4byte	.LBE215
 11026 0010 00000000 		.4byte	0x0
 11027 0014 00000000 		.4byte	0x0
 11028 0018 5C000000 		.4byte	.LBB144
 11029 001c C8000000 		.4byte	.LBE144
 11030 0020 06010000 		.4byte	.LBB179
 11031 0024 A4020000 		.4byte	.LBE179
 11032 0028 00000000 		.4byte	0x0
 11033 002c 00000000 		.4byte	0x0
 11034 0030 5C000000 		.4byte	.LBB145
 11035 0034 C8000000 		.4byte	.LBE145
 11036 0038 06010000 		.4byte	.LBB176
 11037 003c A4020000 		.4byte	.LBE176
 11038 0040 00000000 		.4byte	0x0
 11039 0044 00000000 		.4byte	0x0
 11040 0048 7C000000 		.4byte	.LBB148
 11041 004c 7E000000 		.4byte	.LBE148
 11042 0050 8A000000 		.4byte	.LBB146
 11043 0054 C8000000 		.4byte	.LBE146
 11044 0058 82000000 		.4byte	.LBB147
 11045 005c 84000000 		.4byte	.LBE147
 11046 0060 00000000 		.4byte	0x0
 11047 0064 00000000 		.4byte	0x0
 11048 0068 8E000000 		.4byte	.LBB151
 11049 006c 90000000 		.4byte	.LBE151
 11050 0070 AE000000 		.4byte	.LBB155
 11051 0074 C4000000 		.4byte	.LBE155
 11052 0078 A8000000 		.4byte	.LBB154
 11053 007c AC000000 		.4byte	.LBE154
 11054 0080 A2000000 		.4byte	.LBB153
 11055 0084 A6000000 		.4byte	.LBE153
ARM GAS  C:\Users\DNIEL~1\AppData\Local\Temp\cccPEDO0.s 			page 199


 11056 0088 92000000 		.4byte	.LBB152
 11057 008c 9C000000 		.4byte	.LBE152
 11058 0090 00000000 		.4byte	0x0
 11059 0094 00000000 		.4byte	0x0
 11060 0098 20010000 		.4byte	.LBB157
 11061 009c 28010000 		.4byte	.LBE157
 11062 00a0 38010000 		.4byte	.LBB165
 11063 00a4 8A010000 		.4byte	.LBE165
 11064 00a8 34010000 		.4byte	.LBB164
 11065 00ac 36010000 		.4byte	.LBE164
 11066 00b0 00000000 		.4byte	0x0
 11067 00b4 00000000 		.4byte	0x0
 11068 00b8 3E010000 		.4byte	.LBB160
 11069 00bc 44010000 		.4byte	.LBE160
 11070 00c0 60010000 		.4byte	.LBB162
 11071 00c4 84010000 		.4byte	.LBE162
 11072 00c8 4A010000 		.4byte	.LBB161
 11073 00cc 54010000 		.4byte	.LBE161
 11074 00d0 00000000 		.4byte	0x0
 11075 00d4 00000000 		.4byte	0x0
 11076 00d8 B8010000 		.4byte	.LBB169
 11077 00dc C4010000 		.4byte	.LBE169
 11078 00e0 CC010000 		.4byte	.LBB171
 11079 00e4 D0010000 		.4byte	.LBE171
 11080 00e8 C6010000 		.4byte	.LBB170
 11081 00ec CA010000 		.4byte	.LBE170
 11082 00f0 00000000 		.4byte	0x0
 11083 00f4 00000000 		.4byte	0x0
 11084 00f8 1A000000 		.4byte	.LBB178
 11085 00fc 1C000000 		.4byte	.LBE178
 11086 0100 48000000 		.4byte	.LBB177
 11087 0104 52000000 		.4byte	.LBE177
 11088 0108 00000000 		.4byte	0x0
 11089 010c 00000000 		.4byte	0x0
 11090 0110 BC020000 		.4byte	.LBB182
 11091 0114 BE020000 		.4byte	.LBE182
 11092 0118 C0020000 		.4byte	.LBB183
 11093 011c C4020000 		.4byte	.LBE183
 11094 0120 00000000 		.4byte	0x0
 11095 0124 00000000 		.4byte	0x0
 11096 0128 C4020000 		.4byte	.LBB184
 11097 012c B4030000 		.4byte	.LBE184
 11098 0130 DE030000 		.4byte	.LBB214
 11099 0134 18050000 		.4byte	.LBE214
 11100 0138 00000000 		.4byte	0x0
 11101 013c 00000000 		.4byte	0x0
 11102 0140 C4020000 		.4byte	.LBB185
 11103 0144 B4030000 		.4byte	.LBE185
 11104 0148 DE030000 		.4byte	.LBB211
 11105 014c 18050000 		.4byte	.LBE211
 11106 0150 00000000 		.4byte	0x0
 11107 0154 00000000 		.4byte	0x0
 11108 0158 20030000 		.4byte	.LBB188
 11109 015c 24030000 		.4byte	.LBE188
 11110 0160 32030000 		.4byte	.LBB186
 11111 0164 76030000 		.4byte	.LBE186
 11112 0168 28030000 		.4byte	.LBB187
ARM GAS  C:\Users\DNIEL~1\AppData\Local\Temp\cccPEDO0.s 			page 200


 11113 016c 2C030000 		.4byte	.LBE187
 11114 0170 00000000 		.4byte	0x0
 11115 0174 00000000 		.4byte	0x0
 11116 0178 28030000 		.4byte	.LBB191
 11117 017c 2C030000 		.4byte	.LBE191
 11118 0180 32030000 		.4byte	.LBB194
 11119 0184 76030000 		.4byte	.LBE194
 11120 0188 00000000 		.4byte	0x0
 11121 018c 00000000 		.4byte	0x0
 11122 0190 F6030000 		.4byte	.LBB198
 11123 0194 5C040000 		.4byte	.LBE198
 11124 0198 04050000 		.4byte	.LBB210
 11125 019c 10050000 		.4byte	.LBE210
 11126 01a0 94040000 		.4byte	.LBB209
 11127 01a4 FC040000 		.4byte	.LBE209
 11128 01a8 00000000 		.4byte	0x0
 11129 01ac 00000000 		.4byte	0x0
 11130 01b0 94040000 		.4byte	.LBB200
 11131 01b4 96040000 		.4byte	.LBE200
 11132 01b8 9C040000 		.4byte	.LBB199
 11133 01bc FC040000 		.4byte	.LBE199
 11134 01c0 00000000 		.4byte	0x0
 11135 01c4 00000000 		.4byte	0x0
 11136 01c8 94040000 		.4byte	.LBB201
 11137 01cc 96040000 		.4byte	.LBE201
 11138 01d0 B6040000 		.4byte	.LBB204
 11139 01d4 F2040000 		.4byte	.LBE204
 11140 01d8 00000000 		.4byte	0x0
 11141 01dc 00000000 		.4byte	0x0
 11142 01e0 32000000 		.4byte	.LBB216
 11143 01e4 34000000 		.4byte	.LBE216
 11144 01e8 3C000000 		.4byte	.LBB219
 11145 01ec 58000000 		.4byte	.LBE219
 11146 01f0 00000000 		.4byte	0x0
 11147 01f4 00000000 		.4byte	0x0
 11148 01f8 32000000 		.4byte	.LBB217
 11149 01fc 34000000 		.4byte	.LBE217
 11150 0200 3C000000 		.4byte	.LBB218
 11151 0204 58000000 		.4byte	.LBE218
 11152 0208 00000000 		.4byte	0x0
 11153 020c 00000000 		.4byte	0x0
 11154 0210 AA000000 		.4byte	.LBB220
 11155 0214 AE000000 		.4byte	.LBE220
 11156 0218 C2000000 		.4byte	.LBB226
 11157 021c C4000000 		.4byte	.LBE226
 11158 0220 00000000 		.4byte	0x0
 11159 0224 00000000 		.4byte	0x0
 11160 0228 B8000000 		.4byte	.LBB223
 11161 022c BA000000 		.4byte	.LBE223
 11162 0230 C6000000 		.4byte	.LBB227
 11163 0234 D6000000 		.4byte	.LBE227
 11164 0238 00000000 		.4byte	0x0
 11165 023c 00000000 		.4byte	0x0
 11166 0240 B8000000 		.4byte	.LBB224
 11167 0244 BA000000 		.4byte	.LBE224
 11168 0248 C6000000 		.4byte	.LBB225
 11169 024c D6000000 		.4byte	.LBE225
ARM GAS  C:\Users\DNIEL~1\AppData\Local\Temp\cccPEDO0.s 			page 201


 11170 0250 00000000 		.4byte	0x0
 11171 0254 00000000 		.4byte	0x0
 11172 0258 DA000000 		.4byte	.LBB228
 11173 025c DC000000 		.4byte	.LBE228
 11174 0260 18010000 		.4byte	.LBB233
 11175 0264 1A010000 		.4byte	.LBE233
 11176 0268 FE000000 		.4byte	.LBB232
 11177 026c 02010000 		.4byte	.LBE232
 11178 0270 00000000 		.4byte	0x0
 11179 0274 00000000 		.4byte	0x0
 11180 0278 DA000000 		.4byte	.LBB230
 11181 027c DC000000 		.4byte	.LBE230
 11182 0280 18010000 		.4byte	.LBB231
 11183 0284 1A010000 		.4byte	.LBE231
 11184 0288 FE000000 		.4byte	.LBB229
 11185 028c 02010000 		.4byte	.LBE229
 11186 0290 00000000 		.4byte	0x0
 11187 0294 00000000 		.4byte	0x0
 11188 0298 7C000000 		.4byte	.LBB234
 11189 029c 7E000000 		.4byte	.LBE234
 11190 02a0 98000000 		.4byte	.LBB239
 11191 02a4 9A000000 		.4byte	.LBE239
 11192 02a8 8E000000 		.4byte	.LBB238
 11193 02ac 90000000 		.4byte	.LBE238
 11194 02b0 00000000 		.4byte	0x0
 11195 02b4 00000000 		.4byte	0x0
 11196 02b8 7C000000 		.4byte	.LBB236
 11197 02bc 7E000000 		.4byte	.LBE236
 11198 02c0 98000000 		.4byte	.LBB237
 11199 02c4 9A000000 		.4byte	.LBE237
 11200 02c8 8E000000 		.4byte	.LBB235
 11201 02cc 90000000 		.4byte	.LBE235
 11202 02d0 00000000 		.4byte	0x0
 11203 02d4 00000000 		.4byte	0x0
 11204 02d8 04000000 		.4byte	.LBB240
 11205 02dc 06000000 		.4byte	.LBE240
 11206 02e0 08000000 		.4byte	.LBB243
 11207 02e4 0A000000 		.4byte	.LBE243
 11208 02e8 00000000 		.4byte	0x0
 11209 02ec 00000000 		.4byte	0x0
 11210 02f0 34000000 		.4byte	.LBB244
 11211 02f4 62000000 		.4byte	.LBE244
 11212 02f8 74000000 		.4byte	.LBB252
 11213 02fc A4000000 		.4byte	.LBE252
 11214 0300 00000000 		.4byte	0x0
 11215 0304 00000000 		.4byte	0x0
 11216 0308 8A000000 		.4byte	.LBB246
 11217 030c 90000000 		.4byte	.LBE246
 11218 0310 92000000 		.4byte	.LBB250
 11219 0314 9A000000 		.4byte	.LBE250
 11220 0318 00000000 		.4byte	0x0
 11221 031c 00000000 		.4byte	0x0
 11222 0320 90000000 		.4byte	.LBB249
 11223 0324 92000000 		.4byte	.LBE249
 11224 0328 9A000000 		.4byte	.LBB251
 11225 032c A4000000 		.4byte	.LBE251
 11226 0330 00000000 		.4byte	0x0
ARM GAS  C:\Users\DNIEL~1\AppData\Local\Temp\cccPEDO0.s 			page 202


 11227 0334 00000000 		.4byte	0x0
 11228 0338 10000000 		.4byte	.LBB253
 11229 033c 30000000 		.4byte	.LBE253
 11230 0340 34000000 		.4byte	.LBB254
 11231 0344 40000000 		.4byte	.LBE254
 11232 0348 00000000 		.4byte	0x0
 11233 034c 00000000 		.4byte	0x0
 11234 0350 46000000 		.4byte	.LBB256
 11235 0354 48000000 		.4byte	.LBE256
 11236 0358 56000000 		.4byte	.LBB259
 11237 035c 62000000 		.4byte	.LBE259
 11238 0360 00000000 		.4byte	0x0
 11239 0364 00000000 		.4byte	0x0
 11240 0368 02000000 		.4byte	.LBB272
 11241 036c 96000000 		.4byte	.LBE272
 11242 0370 9E000000 		.4byte	.LBB281
 11243 0374 14010000 		.4byte	.LBE281
 11244 0378 00000000 		.4byte	0x0
 11245 037c 00000000 		.4byte	0x0
 11246 0380 02000000 		.4byte	.LBB273
 11247 0384 96000000 		.4byte	.LBE273
 11248 0388 9E000000 		.4byte	.LBB280
 11249 038c 14010000 		.4byte	.LBE280
 11250 0390 00000000 		.4byte	0x0
 11251 0394 00000000 		.4byte	0x0
 11252 0398 3C000000 		.4byte	.LBB276
 11253 039c 3E000000 		.4byte	.LBE276
 11254 03a0 44000000 		.4byte	.LBB275
 11255 03a4 50000000 		.4byte	.LBE275
 11256 03a8 00000000 		.4byte	0x0
 11257 03ac 00000000 		.4byte	0x0
 11258 03b0 00000000 		.4byte	.LFB136
 11259 03b4 18050000 		.4byte	.LFE136
 11260 03b8 00000000 		.4byte	.LFB156
 11261 03bc AE000000 		.4byte	.LFE156
 11262 03c0 00000000 		.4byte	.LFB159
 11263 03c4 16000000 		.4byte	.LFE159
 11264 03c8 00000000 		.4byte	.LFB138
 11265 03cc 24000000 		.4byte	.LFE138
 11266 03d0 00000000 		.4byte	.LFB139
 11267 03d4 E0000000 		.4byte	.LFE139
 11268 03d8 00000000 		.4byte	.LFB140
 11269 03dc 22000000 		.4byte	.LFE140
 11270 03e0 00000000 		.4byte	.LFB141
 11271 03e4 28010000 		.4byte	.LFE141
 11272 03e8 00000000 		.4byte	.LFB142
 11273 03ec 18000000 		.4byte	.LFE142
 11274 03f0 00000000 		.4byte	.LFB143
 11275 03f4 64010000 		.4byte	.LFE143
 11276 03f8 00000000 		.4byte	.LFB144
 11277 03fc 0E000000 		.4byte	.LFE144
 11278 0400 00000000 		.4byte	.LFB145
 11279 0404 1A000000 		.4byte	.LFE145
 11280 0408 00000000 		.4byte	.LFB146
 11281 040c 1A000000 		.4byte	.LFE146
 11282 0410 00000000 		.4byte	.LFB147
 11283 0414 14000000 		.4byte	.LFE147
ARM GAS  C:\Users\DNIEL~1\AppData\Local\Temp\cccPEDO0.s 			page 203


 11284 0418 00000000 		.4byte	.LFB148
 11285 041c 44000000 		.4byte	.LFE148
 11286 0420 00000000 		.4byte	.LFB164
 11287 0424 A4000000 		.4byte	.LFE164
 11288 0428 00000000 		.4byte	.LFB149
 11289 042c 50000000 		.4byte	.LFE149
 11290 0430 00000000 		.4byte	.LFB163
 11291 0434 E0000000 		.4byte	.LFE163
 11292 0438 00000000 		.4byte	.LFB137
 11293 043c 14010000 		.4byte	.LFE137
 11294 0440 00000000 		.4byte	.LFB150
 11295 0444 10000000 		.4byte	.LFE150
 11296 0448 00000000 		.4byte	.LFB151
 11297 044c 22000000 		.4byte	.LFE151
 11298 0450 00000000 		.4byte	.LFB152
 11299 0454 10000000 		.4byte	.LFE152
 11300 0458 00000000 		.4byte	.LFB153
 11301 045c 10000000 		.4byte	.LFE153
 11302 0460 00000000 		.4byte	.LFB154
 11303 0464 10000000 		.4byte	.LFE154
 11304 0468 00000000 		.4byte	.LFB155
 11305 046c 10000000 		.4byte	.LFE155
 11306 0470 00000000 		.4byte	0x0
 11307 0474 00000000 		.4byte	0x0
 11308              		.section	.debug_str,"MS",%progbits,1
 11309              	.LASF102:
 11310 0000 42444352 		.ascii	"BDCR\000"
 11310      00
 11311              	.LASF47:
 11312 0005 54687265 		.ascii	"ThreadsList\000"
 11312      6164734C 
 11312      69737400 
 11313              	.LASF106:
 11314 0011 504C4C53 		.ascii	"PLLSAICFGR\000"
 11314      41494346 
 11314      475200
 11315              	.LASF107:
 11316 001c 44434B43 		.ascii	"DCKCFGR\000"
 11316      46475200 
 11317              	.LASF92:
 11318 0024 41504231 		.ascii	"APB1ENR\000"
 11318      454E5200 
 11319              	.LASF2:
 11320 002c 73686F72 		.ascii	"short int\000"
 11320      7420696E 
 11320      7400
 11321              	.LASF38:
 11322 0036 705F7469 		.ascii	"p_time\000"
 11322      6D6500
 11323              	.LASF333:
 11324 003d 474E5520 		.ascii	"GNU C 4.5.2\000"
 11324      4320342E 
 11324      352E3200 
 11325              	.LASF48:
 11326 0049 72656761 		.ascii	"regarm_t\000"
 11326      726D5F74 
 11326      00
ARM GAS  C:\Users\DNIEL~1\AppData\Local\Temp\cccPEDO0.s 			page 204


 11327              	.LASF248:
 11328 0052 74787369 		.ascii	"txsize\000"
 11328      7A6500
 11329              	.LASF29:
 11330 0059 705F7072 		.ascii	"p_prio\000"
 11330      696F00
 11331              	.LASF215:
 11332 0060 44434647 		.ascii	"DCFG\000"
 11332      00
 11333              	.LASF100:
 11334 0065 41504232 		.ascii	"APB2LPENR\000"
 11334      4C50454E 
 11334      5200
 11335              	.LASF323:
 11336 006f 7573625F 		.ascii	"usb_lld_stall_in\000"
 11336      6C6C645F 
 11336      7374616C 
 11336      6C5F696E 
 11336      00
 11337              	.LASF86:
 11338 0080 41504232 		.ascii	"APB2RSTR\000"
 11338      52535452 
 11338      00
 11339              	.LASF174:
 11340 0089 72657376 		.ascii	"resvd4\000"
 11340      643400
 11341              	.LASF133:
 11342 0090 5553425F 		.ascii	"USB_READY\000"
 11342      52454144 
 11342      5900
 11343              	.LASF165:
 11344 009a 72657376 		.ascii	"resvd8\000"
 11344      643800
 11345              	.LASF305:
 11346 00a1 6F74675F 		.ascii	"otg_fifo_write_from_queue\000"
 11346      6669666F 
 11346      5F777269 
 11346      74655F66 
 11346      726F6D5F 
 11347              	.LASF152:
 11348 00bb 5553425F 		.ascii	"USB_EVENT_SUSPEND\000"
 11348      4556454E 
 11348      545F5355 
 11348      5350454E 
 11348      4400
 11349              	.LASF317:
 11350 00cd 7573625F 		.ascii	"usb_lld_read_setup\000"
 11350      6C6C645F 
 11350      72656164 
 11350      5F736574 
 11350      757000
 11351              	.LASF25:
 11352 00e0 73797374 		.ascii	"systime_t\000"
 11352      696D655F 
 11352      7400
 11353              	.LASF168:
 11354 00ea 48435453 		.ascii	"HCTSIZ\000"
ARM GAS  C:\Users\DNIEL~1\AppData\Local\Temp\cccPEDO0.s 			page 205


 11354      495A00
 11355              	.LASF176:
 11356 00f1 72657376 		.ascii	"resvdC\000"
 11356      644300
 11357              	.LASF61:
 11358 00f8 6D5F6F77 		.ascii	"m_owner\000"
 11358      6E657200 
 11359              	.LASF272:
 11360 0100 72657175 		.ascii	"requests_hook_cb\000"
 11360      65737473 
 11360      5F686F6F 
 11360      6B5F6362 
 11360      00
 11361              	.LASF40:
 11362 0111 705F6D73 		.ascii	"p_msgqueue\000"
 11362      67717565 
 11362      756500
 11363              	.LASF84:
 11364 011c 52455345 		.ascii	"RESERVED0\000"
 11364      52564544 
 11364      3000
 11365              	.LASF142:
 11366 0126 5553425F 		.ascii	"USB_EP0_TX\000"
 11366      4550305F 
 11366      545800
 11367              	.LASF123:
 11368 0131 636F6E66 		.ascii	"configuration\000"
 11368      69677572 
 11368      6174696F 
 11368      6E00
 11369              	.LASF280:
 11370 013f 6E657874 		.ascii	"next\000"
 11370      00
 11371              	.LASF299:
 11372 0144 6F74675F 		.ascii	"otg_rxfifo_handler\000"
 11372      72786669 
 11372      666F5F68 
 11372      616E646C 
 11372      657200
 11373              	.LASF14:
 11374 0157 75696E74 		.ascii	"uint32_t\000"
 11374      33325F74 
 11374      00
 11375              	.LASF198:
 11376 0160 72657376 		.ascii	"resvd34\000"
 11376      64333400 
 11377              	.LASF128:
 11378 0168 7468645F 		.ascii	"thd_wait\000"
 11378      77616974 
 11378      00
 11379              	.LASF39:
 11380 0171 705F7761 		.ascii	"p_waiting\000"
 11380      6974696E 
 11380      6700
 11381              	.LASF73:
 11382 017b 715F7264 		.ascii	"q_rdptr\000"
 11382      70747200 
ARM GAS  C:\Users\DNIEL~1\AppData\Local\Temp\cccPEDO0.s 			page 206


 11383              	.LASF169:
 11384 0183 72657376 		.ascii	"resvd14\000"
 11384      64313400 
 11385              	.LASF190:
 11386 018b 47494E54 		.ascii	"GINTSTS\000"
 11386      53545300 
 11387              	.LASF170:
 11388 0193 72657376 		.ascii	"resvd18\000"
 11388      64313800 
 11389              	.LASF76:
 11390 019b 716E6F74 		.ascii	"qnotify_t\000"
 11390      6966795F 
 11390      7400
 11391              	.LASF199:
 11392 01a5 47434346 		.ascii	"GCCFG\000"
 11392      4700
 11393              	.LASF179:
 11394 01ab 72657376 		.ascii	"resvd1C\000"
 11394      64314300 
 11395              	.LASF240:
 11396 01b3 6F74675F 		.ascii	"otg_ram_size\000"
 11396      72616D5F 
 11396      73697A65 
 11396      00
 11397              	.LASF304:
 11398 01c0 6F74675F 		.ascii	"otg_txfifo_handler\000"
 11398      74786669 
 11398      666F5F68 
 11398      616E646C 
 11398      657200
 11399              	.LASF108:
 11400 01d3 5243435F 		.ascii	"RCC_TypeDef\000"
 11400      54797065 
 11400      44656600 
 11401              	.LASF259:
 11402 01df 65705F6D 		.ascii	"ep_mode\000"
 11402      6F646500 
 11403              	.LASF65:
 11404 01e7 77746F62 		.ascii	"wtobjp\000"
 11404      6A7000
 11405              	.LASF119:
 11406 01ee 65703065 		.ascii	"ep0endcb\000"
 11406      6E646362 
 11406      00
 11407              	.LASF161:
 11408 01f7 75736265 		.ascii	"usbeventcb_t\000"
 11408      76656E74 
 11408      63625F74 
 11408      00
 11409              	.LASF332:
 11410 0204 66737061 		.ascii	"fsparams\000"
 11410      72616D73 
 11410      00
 11411              	.LASF207:
 11412 020d 72657376 		.ascii	"resvd40C\000"
 11412      64343043 
 11412      00
ARM GAS  C:\Users\DNIEL~1\AppData\Local\Temp\cccPEDO0.s 			page 207


 11413              	.LASF66:
 11414 0216 65776D61 		.ascii	"ewmask\000"
 11414      736B00
 11415              	.LASF250:
 11416 021d 6D6F6465 		.ascii	"mode\000"
 11416      00
 11417              	.LASF171:
 11418 0222 72657376 		.ascii	"resvd1c\000"
 11418      64316300 
 11419              	.LASF96:
 11420 022a 41484232 		.ascii	"AHB2LPENR\000"
 11420      4C50454E 
 11420      5200
 11421              	.LASF225:
 11422 0234 44564255 		.ascii	"DVBUSDIS\000"
 11422      53444953 
 11422      00
 11423              	.LASF188:
 11424 023d 47555342 		.ascii	"GUSBCFG\000"
 11424      43464700 
 11425              	.LASF149:
 11426 0245 5553425F 		.ascii	"USB_EVENT_RESET\000"
 11426      4556454E 
 11426      545F5245 
 11426      53455400 
 11427              	.LASF256:
 11428 0255 72787369 		.ascii	"rxsize\000"
 11428      7A6500
 11429              	.LASF141:
 11430 025c 5553425F 		.ascii	"USB_EP0_WAITING_SETUP\000"
 11430      4550305F 
 11430      57414954 
 11430      494E475F 
 11430      53455455 
 11431              	.LASF241:
 11432 0272 6E756D5F 		.ascii	"num_endpoints\000"
 11432      656E6470 
 11432      6F696E74 
 11432      7300
 11433              	.LASF0:
 11434 0280 7369676E 		.ascii	"signed char\000"
 11434      65642063 
 11434      68617200 
 11435              	.LASF203:
 11436 028c 72657376 		.ascii	"resvd140\000"
 11436      64313430 
 11436      00
 11437              	.LASF211:
 11438 0295 72657376 		.ascii	"resvd41C\000"
 11438      64343143 
 11438      00
 11439              	.LASF24:
 11440 029e 6576656E 		.ascii	"eventmask_t\000"
 11440      746D6173 
 11440      6B5F7400 
 11441              	.LASF53:
 11442 02aa 725F7072 		.ascii	"r_prio\000"
ARM GAS  C:\Users\DNIEL~1\AppData\Local\Temp\cccPEDO0.s 			page 208


 11442      696F00
 11443              	.LASF228:
 11444 02b1 44494550 		.ascii	"DIEPEMPMSK\000"
 11444      454D504D 
 11444      534B00
 11445              	.LASF127:
 11446 02bc 7468645F 		.ascii	"thd_ptr\000"
 11446      70747200 
 11447              	.LASF156:
 11448 02c4 75645F73 		.ascii	"ud_size\000"
 11448      697A6500 
 11449              	.LASF292:
 11450 02cc 6F74675F 		.ascii	"otg_fifo_write_from_buffer\000"
 11450      6669666F 
 11450      5F777269 
 11450      74655F66 
 11450      726F6D5F 
 11451              	.LASF197:
 11452 02e7 72657376 		.ascii	"resvd30\000"
 11452      64333000 
 11453              	.LASF88:
 11454 02ef 41484231 		.ascii	"AHB1ENR\000"
 11454      454E5200 
 11455              	.LASF22:
 11456 02f7 74707269 		.ascii	"tprio_t\000"
 11456      6F5F7400 
 11457              	.LASF232:
 11458 02ff 72657376 		.ascii	"resvd880\000"
 11458      64383830 
 11458      00
 11459              	.LASF120:
 11460 0308 73657475 		.ascii	"setup\000"
 11460      7000
 11461              	.LASF137:
 11462 030e 45505F53 		.ascii	"EP_STATUS_DISABLED\000"
 11462      54415455 
 11462      535F4449 
 11462      5341424C 
 11462      454400
 11463              	.LASF6:
 11464 0321 6C6F6E67 		.ascii	"long long unsigned int\000"
 11464      206C6F6E 
 11464      6720756E 
 11464      7369676E 
 11464      65642069 
 11465              	.LASF143:
 11466 0338 5553425F 		.ascii	"USB_EP0_WAITING_TX0\000"
 11466      4550305F 
 11466      57414954 
 11466      494E475F 
 11466      54583000 
 11467              	.LASF213:
 11468 034c 72657376 		.ascii	"resvd444\000"
 11468      64343434 
 11468      00
 11469              	.LASF320:
 11470 0355 7573625F 		.ascii	"usb_lld_prepare_transmit\000"
ARM GAS  C:\Users\DNIEL~1\AppData\Local\Temp\cccPEDO0.s 			page 209


 11470      6C6C645F 
 11470      70726570 
 11470      6172655F 
 11470      7472616E 
 11471              	.LASF249:
 11472 036e 7478636E 		.ascii	"txcnt\000"
 11472      7400
 11473              	.LASF138:
 11474 0374 45505F53 		.ascii	"EP_STATUS_STALLED\000"
 11474      54415455 
 11474      535F5354 
 11474      414C4C45 
 11474      4400
 11475              	.LASF194:
 11476 0386 47525846 		.ascii	"GRXFSIZ\000"
 11476      53495A00 
 11477              	.LASF112:
 11478 038e 7472616E 		.ascii	"transmitting\000"
 11478      736D6974 
 11478      74696E67 
 11478      00
 11479              	.LASF269:
 11480 039b 55534245 		.ascii	"USBEndpointConfig\000"
 11480      6E64706F 
 11480      696E7443 
 11480      6F6E6669 
 11480      6700
 11481              	.LASF113:
 11482 03ad 72656365 		.ascii	"receiving\000"
 11482      6976696E 
 11482      6700
 11483              	.LASF245:
 11484 03b7 6C696E65 		.ascii	"linear\000"
 11484      617200
 11485              	.LASF284:
 11486 03be 6F74675F 		.ascii	"otg_txfifo_flush\000"
 11486      74786669 
 11486      666F5F66 
 11486      6C757368 
 11486      00
 11487              	.LASF83:
 11488 03cf 41484233 		.ascii	"AHB3RSTR\000"
 11488      52535452 
 11488      00
 11489              	.LASF288:
 11490 03d8 7573625F 		.ascii	"usb_lld_wakeup_pump\000"
 11490      6C6C645F 
 11490      77616B65 
 11490      75705F70 
 11490      756D7000 
 11491              	.LASF31:
 11492 03ec 705F6E65 		.ascii	"p_newer\000"
 11492      77657200 
 11493              	.LASF183:
 11494 03f4 444F4550 		.ascii	"DOEPTSIZ\000"
 11494      5453495A 
 11494      00
ARM GAS  C:\Users\DNIEL~1\AppData\Local\Temp\cccPEDO0.s 			page 210


 11495              	.LASF68:
 11496 03fd 715F7761 		.ascii	"q_waiting\000"
 11496      6974696E 
 11496      6700
 11497              	.LASF262:
 11498 0407 6F75745F 		.ascii	"out_cb\000"
 11498      636200
 11499              	.LASF212:
 11500 040e 48505254 		.ascii	"HPRT\000"
 11500      00
 11501              	.LASF214:
 11502 0413 72657376 		.ascii	"resvd700\000"
 11502      64373030 
 11502      00
 11503              	.LASF180:
 11504 041c 73746D33 		.ascii	"stm32_otg_in_ep_t\000"
 11504      325F6F74 
 11504      675F696E 
 11504      5F65705F 
 11504      7400
 11505              	.LASF217:
 11506 042e 44535453 		.ascii	"DSTS\000"
 11506      00
 11507              	.LASF10:
 11508 0433 73697A65 		.ascii	"size_t\000"
 11508      5F7400
 11509              	.LASF63:
 11510 043a 7264796D 		.ascii	"rdymsg\000"
 11510      736700
 11511              	.LASF16:
 11512 0441 626F6F6C 		.ascii	"bool_t\000"
 11512      5F7400
 11513              	.LASF135:
 11514 0448 5553425F 		.ascii	"USB_ACTIVE\000"
 11514      41435449 
 11514      564500
 11515              	.LASF17:
 11516 0453 5F426F6F 		.ascii	"_Bool\000"
 11516      6C00
 11517              	.LASF239:
 11518 0459 72785F66 		.ascii	"rx_fifo_size\000"
 11518      69666F5F 
 11518      73697A65 
 11518      00
 11519              	.LASF204:
 11520 0466 48434647 		.ascii	"HCFG\000"
 11520      00
 11521              	.LASF296:
 11522 046b 6570696E 		.ascii	"epint\000"
 11522      7400
 11523              	.LASF164:
 11524 0471 48434348 		.ascii	"HCCHAR\000"
 11524      415200
 11525              	.LASF200:
 11526 0478 72657376 		.ascii	"resvd58\000"
 11526      64353800 
 11527              	.LASF313:
ARM GAS  C:\Users\DNIEL~1\AppData\Local\Temp\cccPEDO0.s 			page 211


 11528 0480 6673697A 		.ascii	"fsize\000"
 11528      6500
 11529              	.LASF144:
 11530 0486 5553425F 		.ascii	"USB_EP0_WAITING_STS\000"
 11530      4550305F 
 11530      57414954 
 11530      494E475F 
 11530      53545300 
 11531              	.LASF309:
 11532 049a 7573625F 		.ascii	"usb_lld_stop\000"
 11532      6C6C645F 
 11532      73746F70 
 11532      00
 11533              	.LASF316:
 11534 04a7 7573625F 		.ascii	"usb_lld_get_status_in\000"
 11534      6C6C645F 
 11534      6765745F 
 11534      73746174 
 11534      75735F69 
 11535              	.LASF59:
 11536 04bd 4D757465 		.ascii	"Mutex\000"
 11536      7800
 11537              	.LASF78:
 11538 04c3 4F757470 		.ascii	"OutputQueue\000"
 11538      75745175 
 11538      65756500 
 11539              	.LASF90:
 11540 04cf 41484233 		.ascii	"AHB3ENR\000"
 11540      454E5200 
 11541              	.LASF77:
 11542 04d7 496E7075 		.ascii	"InputQueue\000"
 11542      74517565 
 11542      756500
 11543              	.LASF33:
 11544 04e2 705F6E61 		.ascii	"p_name\000"
 11544      6D6500
 11545              	.LASF85:
 11546 04e9 41504231 		.ascii	"APB1RSTR\000"
 11546      52535452 
 11546      00
 11547              	.LASF229:
 11548 04f2 72657376 		.ascii	"resvd838\000"
 11548      64383338 
 11548      00
 11549              	.LASF220:
 11550 04fb 444F4550 		.ascii	"DOEPMSK\000"
 11550      4D534B00 
 11551              	.LASF150:
 11552 0503 5553425F 		.ascii	"USB_EVENT_ADDRESS\000"
 11552      4556454E 
 11552      545F4144 
 11552      44524553 
 11552      5300
 11553              	.LASF210:
 11554 0515 4841494E 		.ascii	"HAINTMSK\000"
 11554      544D534B 
 11554      00
ARM GAS  C:\Users\DNIEL~1\AppData\Local\Temp\cccPEDO0.s 			page 212


 11555              	.LASF295:
 11556 051e 6F74675F 		.ascii	"otg_epin_handler\000"
 11556      6570696E 
 11556      5F68616E 
 11556      646C6572 
 11556      00
 11557              	.LASF9:
 11558 052f 63686172 		.ascii	"char\000"
 11558      00
 11559              	.LASF167:
 11560 0534 4843494E 		.ascii	"HCINTMSK\000"
 11560      544D534B 
 11560      00
 11561              	.LASF55:
 11562 053d 725F6E65 		.ascii	"r_newer\000"
 11562      77657200 
 11563              	.LASF265:
 11564 0545 696E5F73 		.ascii	"in_state\000"
 11564      74617465 
 11564      00
 11565              	.LASF72:
 11566 054e 715F7772 		.ascii	"q_wrptr\000"
 11566      70747200 
 11567              	.LASF189:
 11568 0556 47525354 		.ascii	"GRSTCTL\000"
 11568      43544C00 
 11569              	.LASF26:
 11570 055e 54687265 		.ascii	"Thread\000"
 11570      616400
 11571              	.LASF19:
 11572 0565 74737461 		.ascii	"tstate_t\000"
 11572      74655F74 
 11572      00
 11573              	.LASF117:
 11574 056e 6570306E 		.ascii	"ep0next\000"
 11574      65787400 
 11575              	.LASF276:
 11576 0576 6F74675F 		.ascii	"otg_disable_ep\000"
 11576      64697361 
 11576      626C655F 
 11576      657000
 11577              	.LASF32:
 11578 0585 705F6F6C 		.ascii	"p_older\000"
 11578      64657200 
 11579              	.LASF278:
 11580 058d 75736270 		.ascii	"usbp\000"
 11580      00
 11581              	.LASF34:
 11582 0592 705F7374 		.ascii	"p_state\000"
 11582      61746500 
 11583              	.LASF79:
 11584 059a 504C4C43 		.ascii	"PLLCFGR\000"
 11584      46475200 
 11585              	.LASF11:
 11586 05a2 75696E74 		.ascii	"uint8_t\000"
 11586      385F7400 
 11587              	.LASF121:
ARM GAS  C:\Users\DNIEL~1\AppData\Local\Temp\cccPEDO0.s 			page 213


 11588 05aa 73746174 		.ascii	"status\000"
 11588      757300
 11589              	.LASF310:
 11590 05b1 7573625F 		.ascii	"usb_lld_reset\000"
 11590      6C6C645F 
 11590      72657365 
 11590      7400
 11591              	.LASF234:
 11592 05bf 72657376 		.ascii	"resvdD00\000"
 11592      64443030 
 11592      00
 11593              	.LASF45:
 11594 05c8 705F6D70 		.ascii	"p_mpool\000"
 11594      6F6F6C00 
 11595              	.LASF311:
 11596 05d0 7573625F 		.ascii	"usb_lld_set_address\000"
 11596      6C6C645F 
 11596      7365745F 
 11596      61646472 
 11596      65737300 
 11597              	.LASF43:
 11598 05e4 705F6D74 		.ascii	"p_mtxlist\000"
 11598      786C6973 
 11598      7400
 11599              	.LASF290:
 11600 05ee 6669666F 		.ascii	"fifo_remove\000"
 11600      5F72656D 
 11600      6F766500 
 11601              	.LASF312:
 11602 05fa 7573625F 		.ascii	"usb_lld_init_endpoint\000"
 11602      6C6C645F 
 11602      696E6974 
 11602      5F656E64 
 11602      706F696E 
 11603              	.LASF308:
 11604 0610 7573625F 		.ascii	"usb_lld_start\000"
 11604      6C6C645F 
 11604      73746172 
 11604      7400
 11605              	.LASF136:
 11606 061e 75736273 		.ascii	"usbstate_t\000"
 11606      74617465 
 11606      5F7400
 11607              	.LASF275:
 11608 0629 6F746770 		.ascii	"otgp\000"
 11608      00
 11609              	.LASF325:
 11610 062e 7573625F 		.ascii	"usb_lld_clear_in\000"
 11610      6C6C645F 
 11610      636C6561 
 11610      725F696E 
 11610      00
 11611              	.LASF5:
 11612 063f 6C6F6E67 		.ascii	"long long int\000"
 11612      206C6F6E 
 11612      6720696E 
 11612      7400
ARM GAS  C:\Users\DNIEL~1\AppData\Local\Temp\cccPEDO0.s 			page 214


 11613              	.LASF182:
 11614 064d 444F4550 		.ascii	"DOEPINT\000"
 11614      494E5400 
 11615              	.LASF181:
 11616 0655 444F4550 		.ascii	"DOEPCTL\000"
 11616      43544C00 
 11617              	.LASF242:
 11618 065d 73746D33 		.ascii	"stm32_otg_params_t\000"
 11618      325F6F74 
 11618      675F7061 
 11618      72616D73 
 11618      5F7400
 11619              	.LASF330:
 11620 0670 65703073 		.ascii	"ep0setup_buffer\000"
 11620      65747570 
 11620      5F627566 
 11620      66657200 
 11621              	.LASF99:
 11622 0680 41504231 		.ascii	"APB1LPENR\000"
 11622      4C50454E 
 11622      5200
 11623              	.LASF23:
 11624 068a 6D73675F 		.ascii	"msg_t\000"
 11624      7400
 11625              	.LASF281:
 11626 0690 6F74675F 		.ascii	"otg_ram_alloc\000"
 11626      72616D5F 
 11626      616C6C6F 
 11626      6300
 11627              	.LASF51:
 11628 069e 636F6E74 		.ascii	"context\000"
 11628      65787400 
 11629              	.LASF118:
 11630 06a6 6570306E 		.ascii	"ep0n\000"
 11630      00
 11631              	.LASF209:
 11632 06ab 4841494E 		.ascii	"HAINT\000"
 11632      5400
 11633              	.LASF266:
 11634 06b1 6F75745F 		.ascii	"out_state\000"
 11634      73746174 
 11634      6500
 11635              	.LASF35:
 11636 06bb 705F666C 		.ascii	"p_flags\000"
 11636      61677300 
 11637              	.LASF298:
 11638 06c3 7573625F 		.ascii	"usb_lld_serve_interrupt\000"
 11638      6C6C645F 
 11638      73657276 
 11638      655F696E 
 11638      74657272 
 11639              	.LASF247:
 11640 06db 74787175 		.ascii	"txqueued\000"
 11640      65756564 
 11640      00
 11641              	.LASF114:
 11642 06e4 696E5F70 		.ascii	"in_params\000"
ARM GAS  C:\Users\DNIEL~1\AppData\Local\Temp\cccPEDO0.s 			page 215


 11642      6172616D 
 11642      7300
 11643              	.LASF178:
 11644 06ee 44545846 		.ascii	"DTXFSTS\000"
 11644      53545300 
 11645              	.LASF273:
 11646 06f6 736F665F 		.ascii	"sof_cb\000"
 11646      636200
 11647              	.LASF279:
 11648 06fd 73697A65 		.ascii	"size\000"
 11648      00
 11649              	.LASF172:
 11650 0702 73746D33 		.ascii	"stm32_otg_host_chn_t\000"
 11650      325F6F74 
 11650      675F686F 
 11650      73745F63 
 11650      686E5F74 
 11651              	.LASF196:
 11652 0717 484E5054 		.ascii	"HNPTXSTS\000"
 11652      58535453 
 11652      00
 11653              	.LASF208:
 11654 0720 48505458 		.ascii	"HPTXSTS\000"
 11654      53545300 
 11655              	.LASF294:
 11656 0728 7573625F 		.ascii	"usb_lld_start_in\000"
 11656      6C6C645F 
 11656      73746172 
 11656      745F696E 
 11656      00
 11657              	.LASF154:
 11658 0739 5553425F 		.ascii	"USB_EVENT_STALLED\000"
 11658      4556454E 
 11658      545F5354 
 11658      414C4C45 
 11658      4400
 11659              	.LASF21:
 11660 074b 74736C69 		.ascii	"tslices_t\000"
 11660      6365735F 
 11660      7400
 11661              	.LASF56:
 11662 0755 725F6F6C 		.ascii	"r_older\000"
 11662      64657200 
 11663              	.LASF237:
 11664 075d 4649464F 		.ascii	"FIFO\000"
 11664      00
 11665              	.LASF306:
 11666 0762 65706D61 		.ascii	"epmask\000"
 11666      736B00
 11667              	.LASF268:
 11668 0769 73657475 		.ascii	"setup_buf\000"
 11668      705F6275 
 11668      6600
 11669              	.LASF226:
 11670 0773 44564255 		.ascii	"DVBUSPULSE\000"
 11670      5350554C 
 11670      534500
ARM GAS  C:\Users\DNIEL~1\AppData\Local\Temp\cccPEDO0.s 			page 216


 11671              	.LASF331:
 11672 077e 65703063 		.ascii	"ep0config\000"
 11672      6F6E6669 
 11672      6700
 11673              	.LASF158:
 11674 0788 55534244 		.ascii	"USBDescriptor\000"
 11674      65736372 
 11674      6970746F 
 11674      7200
 11675              	.LASF307:
 11676 0796 646F6E65 		.ascii	"done\000"
 11676      00
 11677              	.LASF41:
 11678 079b 705F6D73 		.ascii	"p_msg\000"
 11678      6700
 11679              	.LASF18:
 11680 07a1 746D6F64 		.ascii	"tmode_t\000"
 11680      655F7400 
 11681              	.LASF95:
 11682 07a9 41484231 		.ascii	"AHB1LPENR\000"
 11682      4C50454E 
 11682      5200
 11683              	.LASF297:
 11684 07b3 6F74675F 		.ascii	"otg_epout_handler\000"
 11684      65706F75 
 11684      745F6861 
 11684      6E646C65 
 11684      7200
 11685              	.LASF254:
 11686 07c5 72787175 		.ascii	"rxqueue\000"
 11686      65756500 
 11687              	.LASF67:
 11688 07cd 47656E65 		.ascii	"GenericQueue\000"
 11688      72696351 
 11688      75657565 
 11688      00
 11689              	.LASF286:
 11690 07da 6F74675F 		.ascii	"otg_rxfifo_flush\000"
 11690      72786669 
 11690      666F5F66 
 11690      6C757368 
 11690      00
 11691              	.LASF116:
 11692 07eb 65703073 		.ascii	"ep0state\000"
 11692      74617465 
 11692      00
 11693              	.LASF274:
 11694 07f4 55534243 		.ascii	"USBConfig\000"
 11694      6F6E6669 
 11694      6700
 11695              	.LASF287:
 11696 07fe 6F74675F 		.ascii	"otg_core_reset\000"
 11696      636F7265 
 11696      5F726573 
 11696      657400
 11697              	.LASF12:
 11698 080d 75696E74 		.ascii	"uint16_t\000"
ARM GAS  C:\Users\DNIEL~1\AppData\Local\Temp\cccPEDO0.s 			page 217


 11698      31365F74 
 11698      00
 11699              	.LASF187:
 11700 0816 47414842 		.ascii	"GAHBCFG\000"
 11700      43464700 
 11701              	.LASF238:
 11702 081e 73746D33 		.ascii	"stm32_otg_t\000"
 11702      325F6F74 
 11702      675F7400 
 11703              	.LASF335:
 11704 082a 433A5C44 		.ascii	"C:\\Dani\\MegaLux\\Repo\\Smarty\\Smarty\\smarty\\fi"
 11704      616E695C 
 11704      4D656761 
 11704      4C75785C 
 11704      5265706F 
 11705 0856 726D7761 		.ascii	"rmware\000"
 11705      726500
 11706              	.LASF50:
 11707 085d 696E7463 		.ascii	"intctx\000"
 11707      747800
 11708              	.LASF82:
 11709 0864 41484232 		.ascii	"AHB2RSTR\000"
 11709      52535452 
 11709      00
 11710              	.LASF315:
 11711 086d 7573625F 		.ascii	"usb_lld_get_status_out\000"
 11711      6C6C645F 
 11711      6765745F 
 11711      73746174 
 11711      75735F6F 
 11712              	.LASF191:
 11713 0884 47494E54 		.ascii	"GINTMSK\000"
 11713      4D534B00 
 11714              	.LASF131:
 11715 088c 5553425F 		.ascii	"USB_UNINIT\000"
 11715      554E494E 
 11715      495400
 11716              	.LASF201:
 11717 0897 48505458 		.ascii	"HPTXFSIZ\000"
 11717      4653495A 
 11717      00
 11718              	.LASF303:
 11719 08a0 6E773265 		.ascii	"nw2end\000"
 11719      6E6400
 11720              	.LASF1:
 11721 08a7 756E7369 		.ascii	"unsigned char\000"
 11721      676E6564 
 11721      20636861 
 11721      7200
 11722              	.LASF300:
 11723 08b5 6F74675F 		.ascii	"otg_fifo_read_to_queue\000"
 11723      6669666F 
 11723      5F726561 
 11723      645F746F 
 11723      5F717565 
 11724              	.LASF111:
 11725 08cc 636F6E66 		.ascii	"config\000"
ARM GAS  C:\Users\DNIEL~1\AppData\Local\Temp\cccPEDO0.s 			page 218


 11725      696700
 11726              	.LASF44:
 11727 08d3 705F7265 		.ascii	"p_realprio\000"
 11727      616C7072 
 11727      696F00
 11728              	.LASF87:
 11729 08de 52455345 		.ascii	"RESERVED1\000"
 11729      52564544 
 11729      3100
 11730              	.LASF282:
 11731 08e8 6F74675F 		.ascii	"otg_do_push\000"
 11731      646F5F70 
 11731      75736800 
 11732              	.LASF94:
 11733 08f4 52455345 		.ascii	"RESERVED3\000"
 11733      52564544 
 11733      3300
 11734              	.LASF98:
 11735 08fe 52455345 		.ascii	"RESERVED4\000"
 11735      52564544 
 11735      3400
 11736              	.LASF101:
 11737 0908 52455345 		.ascii	"RESERVED5\000"
 11737      52564544 
 11737      3500
 11738              	.LASF75:
 11739 0912 715F6C69 		.ascii	"q_link\000"
 11739      6E6B00
 11740              	.LASF166:
 11741 0919 4843494E 		.ascii	"HCINT\000"
 11741      5400
 11742              	.LASF57:
 11743 091f 725F6375 		.ascii	"r_current\000"
 11743      7272656E 
 11743      7400
 11744              	.LASF115:
 11745 0929 6F75745F 		.ascii	"out_params\000"
 11745      70617261 
 11745      6D7300
 11746              	.LASF60:
 11747 0934 6D5F7175 		.ascii	"m_queue\000"
 11747      65756500 
 11748              	.LASF277:
 11749 093c 6F74675F 		.ascii	"otg_ram_reset\000"
 11749      72616D5F 
 11749      72657365 
 11749      7400
 11750              	.LASF7:
 11751 094a 6C6F6E67 		.ascii	"long int\000"
 11751      20696E74 
 11751      00
 11752              	.LASF258:
 11753 0953 5553424F 		.ascii	"USBOutEndpointState\000"
 11753      7574456E 
 11753      64706F69 
 11753      6E745374 
 11753      61746500 
ARM GAS  C:\Users\DNIEL~1\AppData\Local\Temp\cccPEDO0.s 			page 219


 11754              	.LASF327:
 11755 0967 49544D5F 		.ascii	"ITM_RxBuffer\000"
 11755      52784275 
 11755      66666572 
 11755      00
 11756              	.LASF173:
 11757 0974 44494550 		.ascii	"DIEPCTL\000"
 11757      43544C00 
 11758              	.LASF163:
 11759 097c 75736267 		.ascii	"usbgetdescriptor_t\000"
 11759      65746465 
 11759      73637269 
 11759      70746F72 
 11759      5F7400
 11760              	.LASF28:
 11761 098f 705F7072 		.ascii	"p_prev\000"
 11761      657600
 11762              	.LASF93:
 11763 0996 41504232 		.ascii	"APB2ENR\000"
 11763      454E5200 
 11764              	.LASF27:
 11765 099e 705F6E65 		.ascii	"p_next\000"
 11765      787400
 11766              	.LASF243:
 11767 09a5 74786275 		.ascii	"txbuf\000"
 11767      6600
 11768              	.LASF218:
 11769 09ab 72657376 		.ascii	"resvd80C\000"
 11769      64383043 
 11769      00
 11770              	.LASF15:
 11771 09b4 75696E74 		.ascii	"uint64_t\000"
 11771      36345F74 
 11771      00
 11772              	.LASF30:
 11773 09bd 705F6374 		.ascii	"p_ctx\000"
 11773      7800
 11774              	.LASF291:
 11775 09c3 6F74675F 		.ascii	"otg_fifo_read_to_buffer\000"
 11775      6669666F 
 11775      5F726561 
 11775      645F746F 
 11775      5F627566 
 11776              	.LASF289:
 11777 09db 6F74675F 		.ascii	"otg_do_pop\000"
 11777      646F5F70 
 11777      6F7000
 11778              	.LASF80:
 11779 09e6 43464752 		.ascii	"CFGR\000"
 11779      00
 11780              	.LASF326:
 11781 09eb 726C6973 		.ascii	"rlist\000"
 11781      7400
 11782              	.LASF134:
 11783 09f1 5553425F 		.ascii	"USB_SELECTED\000"
 11783      53454C45 
 11783      43544544 
ARM GAS  C:\Users\DNIEL~1\AppData\Local\Temp\cccPEDO0.s 			page 220


 11783      00
 11784              	.LASF177:
 11785 09fe 44494550 		.ascii	"DIEPTSIZ\000"
 11785      5453495A 
 11785      00
 11786              	.LASF244:
 11787 0a07 74787175 		.ascii	"txqueue\000"
 11787      65756500 
 11788              	.LASF74:
 11789 0a0f 715F6E6F 		.ascii	"q_notify\000"
 11789      74696679 
 11789      00
 11790              	.LASF301:
 11791 0a18 6E746F67 		.ascii	"ntogo\000"
 11791      6F00
 11792              	.LASF160:
 11793 0a1e 75736265 		.ascii	"usbepcallback_t\000"
 11793      7063616C 
 11793      6C626163 
 11793      6B5F7400 
 11794              	.LASF139:
 11795 0a2e 45505F53 		.ascii	"EP_STATUS_ACTIVE\000"
 11795      54415455 
 11795      535F4143 
 11795      54495645 
 11795      00
 11796              	.LASF195:
 11797 0a3f 44494550 		.ascii	"DIEPTXF0\000"
 11797      54584630 
 11797      00
 11798              	.LASF4:
 11799 0a48 756E7369 		.ascii	"unsigned int\000"
 11799      676E6564 
 11799      20696E74 
 11799      00
 11800              	.LASF186:
 11801 0a55 474F5447 		.ascii	"GOTGINT\000"
 11801      494E5400 
 11802              	.LASF185:
 11803 0a5d 474F5447 		.ascii	"GOTGCTL\000"
 11803      43544C00 
 11804              	.LASF222:
 11805 0a65 4441494E 		.ascii	"DAINTMSK\000"
 11805      544D534B 
 11805      00
 11806              	.LASF69:
 11807 0a6e 715F636F 		.ascii	"q_counter\000"
 11807      756E7465 
 11807      7200
 11808              	.LASF293:
 11809 0a78 7573625F 		.ascii	"usb_lld_start_out\000"
 11809      6C6C645F 
 11809      73746172 
 11809      745F6F75 
 11809      7400
 11810              	.LASF261:
 11811 0a8a 696E5F63 		.ascii	"in_cb\000"
ARM GAS  C:\Users\DNIEL~1\AppData\Local\Temp\cccPEDO0.s 			page 221


 11811      6200
 11812              	.LASF334:
 11813 0a90 2E2E2F2E 		.ascii	"../../../ChibiOS/os/hal/platforms/STM32/OTGv1/usb_l"
 11813      2E2F2E2E 
 11813      2F436869 
 11813      62694F53 
 11813      2F6F732F 
 11814 0ac3 6C642E63 		.ascii	"ld.c\000"
 11814      00
 11815              	.LASF71:
 11816 0ac8 715F746F 		.ascii	"q_top\000"
 11816      7000
 11817              	.LASF219:
 11818 0ace 44494550 		.ascii	"DIEPMSK\000"
 11818      4D534B00 
 11819              	.LASF319:
 11820 0ad6 70636E74 		.ascii	"pcnt\000"
 11820      00
 11821              	.LASF97:
 11822 0adb 41484233 		.ascii	"AHB3LPENR\000"
 11822      4C50454E 
 11822      5200
 11823              	.LASF20:
 11824 0ae5 74726566 		.ascii	"trefs_t\000"
 11824      735F7400 
 11825              	.LASF8:
 11826 0aed 6C6F6E67 		.ascii	"long unsigned int\000"
 11826      20756E73 
 11826      69676E65 
 11826      6420696E 
 11826      7400
 11827              	.LASF122:
 11828 0aff 61646472 		.ascii	"address\000"
 11828      65737300 
 11829              	.LASF193:
 11830 0b07 47525853 		.ascii	"GRXSTSP\000"
 11830      54535000 
 11831              	.LASF192:
 11832 0b0f 47525853 		.ascii	"GRXSTSR\000"
 11832      54535200 
 11833              	.LASF255:
 11834 0b17 72787175 		.ascii	"rxqueued\000"
 11834      65756564 
 11834      00
 11835              	.LASF246:
 11836 0b20 71756575 		.ascii	"queue\000"
 11836      6500
 11837              	.LASF89:
 11838 0b26 41484232 		.ascii	"AHB2ENR\000"
 11838      454E5200 
 11839              	.LASF13:
 11840 0b2e 696E7433 		.ascii	"int32_t\000"
 11840      325F7400 
 11841              	.LASF184:
 11842 0b36 73746D33 		.ascii	"stm32_otg_out_ep_t\000"
 11842      325F6F74 
 11842      675F6F75 
ARM GAS  C:\Users\DNIEL~1\AppData\Local\Temp\cccPEDO0.s 			page 222


 11842      745F6570 
 11842      5F7400
 11843              	.LASF321:
 11844 0b49 56656374 		.ascii	"Vector14C\000"
 11844      6F723134 
 11844      4300
 11845              	.LASF318:
 11846 0b53 7573625F 		.ascii	"usb_lld_prepare_receive\000"
 11846      6C6C645F 
 11846      70726570 
 11846      6172655F 
 11846      72656365 
 11847              	.LASF105:
 11848 0b6b 504C4C49 		.ascii	"PLLI2SCFGR\000"
 11848      32534346 
 11848      475200
 11849              	.LASF140:
 11850 0b76 75736265 		.ascii	"usbepstatus_t\000"
 11850      70737461 
 11850      7475735F 
 11850      7400
 11851              	.LASF283:
 11852 0b84 6669666F 		.ascii	"fifop\000"
 11852      7000
 11853              	.LASF223:
 11854 0b8a 72657376 		.ascii	"resvd820\000"
 11854      64383230 
 11854      00
 11855              	.LASF125:
 11856 0b93 706D6E65 		.ascii	"pmnext\000"
 11856      787400
 11857              	.LASF337:
 11858 0b9a 7573625F 		.ascii	"usb_lld_init\000"
 11858      6C6C645F 
 11858      696E6974 
 11858      00
 11859              	.LASF224:
 11860 0ba7 72657376 		.ascii	"resvd824\000"
 11860      64383234 
 11860      00
 11861              	.LASF147:
 11862 0bb0 5553425F 		.ascii	"USB_EP0_ERROR\000"
 11862      4550305F 
 11862      4552524F 
 11862      5200
 11863              	.LASF206:
 11864 0bbe 48464E55 		.ascii	"HFNUM\000"
 11864      4D00
 11865              	.LASF36:
 11866 0bc4 705F7265 		.ascii	"p_refs\000"
 11866      667300
 11867              	.LASF58:
 11868 0bcb 52656164 		.ascii	"ReadyList\000"
 11868      794C6973 
 11868      7400
 11869              	.LASF130:
 11870 0bd5 75736265 		.ascii	"usbep_t\000"
ARM GAS  C:\Users\DNIEL~1\AppData\Local\Temp\cccPEDO0.s 			page 223


 11870      705F7400 
 11871              	.LASF251:
 11872 0bdd 746F7473 		.ascii	"totsize\000"
 11872      697A6500 
 11873              	.LASF126:
 11874 0be5 74787065 		.ascii	"txpending\000"
 11874      6E64696E 
 11874      6700
 11875              	.LASF260:
 11876 0bef 73657475 		.ascii	"setup_cb\000"
 11876      705F6362 
 11876      00
 11877              	.LASF271:
 11878 0bf8 6765745F 		.ascii	"get_descriptor_cb\000"
 11878      64657363 
 11878      72697074 
 11878      6F725F63 
 11878      6200
 11879              	.LASF37:
 11880 0c0a 705F7072 		.ascii	"p_preempt\000"
 11880      65656D70 
 11880      7400
 11881              	.LASF236:
 11882 0c14 72657376 		.ascii	"resvdE04\000"
 11882      64453034 
 11882      00
 11883              	.LASF157:
 11884 0c1d 75645F73 		.ascii	"ud_string\000"
 11884      7472696E 
 11884      6700
 11885              	.LASF285:
 11886 0c27 6669666F 		.ascii	"fifo\000"
 11886      00
 11887              	.LASF153:
 11888 0c2c 5553425F 		.ascii	"USB_EVENT_WAKEUP\000"
 11888      4556454E 
 11888      545F5741 
 11888      4B455550 
 11888      00
 11889              	.LASF110:
 11890 0c3d 73746174 		.ascii	"state\000"
 11890      6500
 11891              	.LASF175:
 11892 0c43 44494550 		.ascii	"DIEPINT\000"
 11892      494E5400 
 11893              	.LASF42:
 11894 0c4b 705F6570 		.ascii	"p_epending\000"
 11894      656E6469 
 11894      6E6700
 11895              	.LASF205:
 11896 0c56 48464952 		.ascii	"HFIR\000"
 11896      00
 11897              	.LASF202:
 11898 0c5b 44494550 		.ascii	"DIEPTXF\000"
 11898      54584600 
 11899              	.LASF270:
 11900 0c63 6576656E 		.ascii	"event_cb\000"
ARM GAS  C:\Users\DNIEL~1\AppData\Local\Temp\cccPEDO0.s 			page 224


 11900      745F6362 
 11900      00
 11901              	.LASF264:
 11902 0c6c 6F75745F 		.ascii	"out_maxsize\000"
 11902      6D617873 
 11902      697A6500 
 11903              	.LASF227:
 11904 0c78 72657376 		.ascii	"resvd830\000"
 11904      64383330 
 11904      00
 11905              	.LASF235:
 11906 0c81 50434743 		.ascii	"PCGCCTL\000"
 11906      43544C00 
 11907              	.LASF328:
 11908 0c89 55534244 		.ascii	"USBD1\000"
 11908      3100
 11909              	.LASF62:
 11910 0c8f 6D5F6E65 		.ascii	"m_next\000"
 11910      787400
 11911              	.LASF336:
 11912 0c96 7573625F 		.ascii	"usb_lld_pump\000"
 11912      6C6C645F 
 11912      70756D70 
 11912      00
 11913              	.LASF252:
 11914 0ca3 55534249 		.ascii	"USBInEndpointState\000"
 11914      6E456E64 
 11914      706F696E 
 11914      74537461 
 11914      746500
 11915              	.LASF109:
 11916 0cb6 55534244 		.ascii	"USBDriver\000"
 11916      72697665 
 11916      7200
 11917              	.LASF230:
 11918 0cc0 72657376 		.ascii	"resvd83C\000"
 11918      64383343 
 11918      00
 11919              	.LASF3:
 11920 0cc9 73686F72 		.ascii	"short unsigned int\000"
 11920      7420756E 
 11920      7369676E 
 11920      65642069 
 11920      6E7400
 11921              	.LASF54:
 11922 0cdc 725F6374 		.ascii	"r_ctx\000"
 11922      7800
 11923              	.LASF49:
 11924 0ce2 73746B61 		.ascii	"stkalign_t\000"
 11924      6C69676E 
 11924      5F7400
 11925              	.LASF314:
 11926 0ced 7573625F 		.ascii	"usb_lld_disable_endpoints\000"
 11926      6C6C645F 
 11926      64697361 
 11926      626C655F 
 11926      656E6470 
ARM GAS  C:\Users\DNIEL~1\AppData\Local\Temp\cccPEDO0.s 			page 225


 11927              	.LASF124:
 11928 0d07 6F746770 		.ascii	"otgparams\000"
 11928      6172616D 
 11928      7300
 11929              	.LASF267:
 11930 0d11 696E5F6D 		.ascii	"in_multiplier\000"
 11930      756C7469 
 11930      706C6965 
 11930      7200
 11931              	.LASF221:
 11932 0d1f 4441494E 		.ascii	"DAINT\000"
 11932      5400
 11933              	.LASF146:
 11934 0d25 5553425F 		.ascii	"USB_EP0_SENDING_STS\000"
 11934      4550305F 
 11934      53454E44 
 11934      494E475F 
 11934      53545300 
 11935              	.LASF302:
 11936 0d39 73747265 		.ascii	"streak\000"
 11936      616B00
 11937              	.LASF257:
 11938 0d40 7278636E 		.ascii	"rxcnt\000"
 11938      7400
 11939              	.LASF329:
 11940 0d46 6570305F 		.ascii	"ep0_state\000"
 11940      73746174 
 11940      6500
 11941              	.LASF233:
 11942 0d50 72657376 		.ascii	"resvd8C0\000"
 11942      64384330 
 11942      00
 11943              	.LASF129:
 11944 0d59 77615F70 		.ascii	"wa_pump\000"
 11944      756D7000 
 11945              	.LASF91:
 11946 0d61 52455345 		.ascii	"RESERVED2\000"
 11946      52564544 
 11946      3200
 11947              	.LASF263:
 11948 0d6b 696E5F6D 		.ascii	"in_maxsize\000"
 11948      61787369 
 11948      7A6500
 11949              	.LASF155:
 11950 0d76 75736265 		.ascii	"usbevent_t\000"
 11950      76656E74 
 11950      5F7400
 11951              	.LASF103:
 11952 0d81 52455345 		.ascii	"RESERVED6\000"
 11952      52564544 
 11952      3600
 11953              	.LASF216:
 11954 0d8b 4443544C 		.ascii	"DCTL\000"
 11954      00
 11955              	.LASF231:
 11956 0d90 72657376 		.ascii	"resvd840\000"
 11956      64383430 
ARM GAS  C:\Users\DNIEL~1\AppData\Local\Temp\cccPEDO0.s 			page 226


 11956      00
 11957              	.LASF145:
 11958 0d99 5553425F 		.ascii	"USB_EP0_RX\000"
 11958      4550305F 
 11958      525800
 11959              	.LASF324:
 11960 0da4 7573625F 		.ascii	"usb_lld_clear_out\000"
 11960      6C6C645F 
 11960      636C6561 
 11960      725F6F75 
 11960      7400
 11961              	.LASF148:
 11962 0db6 75736265 		.ascii	"usbep0state_t\000"
 11962      70307374 
 11962      6174655F 
 11962      7400
 11963              	.LASF104:
 11964 0dc4 53534347 		.ascii	"SSCGR\000"
 11964      5200
 11965              	.LASF151:
 11966 0dca 5553425F 		.ascii	"USB_EVENT_CONFIGURED\000"
 11966      4556454E 
 11966      545F434F 
 11966      4E464947 
 11966      55524544 
 11967              	.LASF159:
 11968 0ddf 75736263 		.ascii	"usbcallback_t\000"
 11968      616C6C62 
 11968      61636B5F 
 11968      7400
 11969              	.LASF52:
 11970 0ded 725F7175 		.ascii	"r_queue\000"
 11970      65756500 
 11971              	.LASF64:
 11972 0df5 65786974 		.ascii	"exitcode\000"
 11972      636F6465 
 11972      00
 11973              	.LASF132:
 11974 0dfe 5553425F 		.ascii	"USB_STOP\000"
 11974      53544F50 
 11974      00
 11975              	.LASF46:
 11976 0e07 54687265 		.ascii	"ThreadsQueue\000"
 11976      61647351 
 11976      75657565 
 11976      00
 11977              	.LASF81:
 11978 0e14 41484231 		.ascii	"AHB1RSTR\000"
 11978      52535452 
 11978      00
 11979              	.LASF70:
 11980 0e1d 715F6275 		.ascii	"q_buffer\000"
 11980      66666572 
 11980      00
 11981              	.LASF253:
 11982 0e26 72786275 		.ascii	"rxbuf\000"
 11982      6600
ARM GAS  C:\Users\DNIEL~1\AppData\Local\Temp\cccPEDO0.s 			page 227


 11983              	.LASF162:
 11984 0e2c 75736272 		.ascii	"usbreqhandler_t\000"
 11984      65716861 
 11984      6E646C65 
 11984      725F7400 
 11985              	.LASF322:
 11986 0e3c 7573625F 		.ascii	"usb_lld_stall_out\000"
 11986      6C6C645F 
 11986      7374616C 
 11986      6C5F6F75 
 11986      7400
 11987              		.ident	"GCC: (Sourcery G++ Lite 2011.03-42) 4.5.2"
ARM GAS  C:\Users\DNIEL~1\AppData\Local\Temp\cccPEDO0.s 			page 228


DEFINED SYMBOLS
                            *ABS*:00000000 usb_lld.c
C:\Users\DNIEL~1\AppData\Local\Temp\cccPEDO0.s:24     .text.usb_lld_pump:00000000 $t
C:\Users\DNIEL~1\AppData\Local\Temp\cccPEDO0.s:29     .text.usb_lld_pump:00000000 usb_lld_pump
C:\Users\DNIEL~1\AppData\Local\Temp\cccPEDO0.s:618    .text.usb_lld_pump:0000029c $d
C:\Users\DNIEL~1\AppData\Local\Temp\cccPEDO0.s:630    .text.usb_lld_pump:000002a4 $t
C:\Users\DNIEL~1\AppData\Local\Temp\cccPEDO0.s:1168   .text.otg_disable_ep.clone.0:00000000 $t
C:\Users\DNIEL~1\AppData\Local\Temp\cccPEDO0.s:1173   .text.otg_disable_ep.clone.0:00000000 otg_disable_ep.clone.0
C:\Users\DNIEL~1\AppData\Local\Temp\cccPEDO0.s:1299   .text.otg_txfifo_flush.clone.3:00000000 $t
C:\Users\DNIEL~1\AppData\Local\Temp\cccPEDO0.s:1304   .text.otg_txfifo_flush.clone.3:00000000 otg_txfifo_flush.clone.3
C:\Users\DNIEL~1\AppData\Local\Temp\cccPEDO0.s:1332   .text.usb_lld_init:00000000 $t
C:\Users\DNIEL~1\AppData\Local\Temp\cccPEDO0.s:1338   .text.usb_lld_init:00000000 usb_lld_init
C:\Users\DNIEL~1\AppData\Local\Temp\cccPEDO0.s:1372   .text.usb_lld_init:0000001c $d
C:\Users\DNIEL~1\AppData\Local\Temp\cccPEDO0.s:1378   .text.usb_lld_start:00000000 $t
C:\Users\DNIEL~1\AppData\Local\Temp\cccPEDO0.s:1384   .text.usb_lld_start:00000000 usb_lld_start
C:\Users\DNIEL~1\AppData\Local\Temp\cccPEDO0.s:1551   .text.usb_lld_start:000000cc $d
C:\Users\DNIEL~1\AppData\Local\Temp\cccPEDO0.s:1560   .text.usb_lld_stop:00000000 $t
C:\Users\DNIEL~1\AppData\Local\Temp\cccPEDO0.s:1566   .text.usb_lld_stop:00000000 usb_lld_stop
C:\Users\DNIEL~1\AppData\Local\Temp\cccPEDO0.s:1613   .text.usb_lld_reset:00000000 $t
C:\Users\DNIEL~1\AppData\Local\Temp\cccPEDO0.s:1619   .text.usb_lld_reset:00000000 usb_lld_reset
C:\Users\DNIEL~1\AppData\Local\Temp\cccPEDO0.s:1842   .text.usb_lld_reset:00000120 $d
C:\Users\DNIEL~1\AppData\Local\Temp\cccPEDO0.s:1848   .text.usb_lld_set_address:00000000 $t
C:\Users\DNIEL~1\AppData\Local\Temp\cccPEDO0.s:1854   .text.usb_lld_set_address:00000000 usb_lld_set_address
C:\Users\DNIEL~1\AppData\Local\Temp\cccPEDO0.s:1878   .text.usb_lld_init_endpoint:00000000 $t
C:\Users\DNIEL~1\AppData\Local\Temp\cccPEDO0.s:1884   .text.usb_lld_init_endpoint:00000000 usb_lld_init_endpoint
C:\Users\DNIEL~1\AppData\Local\Temp\cccPEDO0.s:2106   .text.usb_lld_init_endpoint:00000150 $d
C:\Users\DNIEL~1\AppData\Local\Temp\cccPEDO0.s:2115   .text.usb_lld_disable_endpoints:00000000 $t
C:\Users\DNIEL~1\AppData\Local\Temp\cccPEDO0.s:2121   .text.usb_lld_disable_endpoints:00000000 usb_lld_disable_endpoints
C:\Users\DNIEL~1\AppData\Local\Temp\cccPEDO0.s:2155   .text.usb_lld_get_status_out:00000000 $t
C:\Users\DNIEL~1\AppData\Local\Temp\cccPEDO0.s:2161   .text.usb_lld_get_status_out:00000000 usb_lld_get_status_out
C:\Users\DNIEL~1\AppData\Local\Temp\cccPEDO0.s:2193   .text.usb_lld_get_status_in:00000000 $t
C:\Users\DNIEL~1\AppData\Local\Temp\cccPEDO0.s:2199   .text.usb_lld_get_status_in:00000000 usb_lld_get_status_in
C:\Users\DNIEL~1\AppData\Local\Temp\cccPEDO0.s:2231   .text.usb_lld_read_setup:00000000 $t
C:\Users\DNIEL~1\AppData\Local\Temp\cccPEDO0.s:2237   .text.usb_lld_read_setup:00000000 usb_lld_read_setup
C:\Users\DNIEL~1\AppData\Local\Temp\cccPEDO0.s:2261   .text.usb_lld_prepare_receive:00000000 $t
C:\Users\DNIEL~1\AppData\Local\Temp\cccPEDO0.s:2267   .text.usb_lld_prepare_receive:00000000 usb_lld_prepare_receive
C:\Users\DNIEL~1\AppData\Local\Temp\cccPEDO0.s:2332   .text.usb_lld_prepare_receive:00000040 $d
C:\Users\DNIEL~1\AppData\Local\Temp\cccPEDO0.s:2337   .text.otg_epout_handler.clone.8:00000000 $t
C:\Users\DNIEL~1\AppData\Local\Temp\cccPEDO0.s:2342   .text.otg_epout_handler.clone.8:00000000 otg_epout_handler.clone.8
C:\Users\DNIEL~1\AppData\Local\Temp\cccPEDO0.s:2484   .text.otg_epout_handler.clone.8:000000a0 $d
C:\Users\DNIEL~1\AppData\Local\Temp\cccPEDO0.s:2491   .text.usb_lld_prepare_transmit:00000000 $t
C:\Users\DNIEL~1\AppData\Local\Temp\cccPEDO0.s:2497   .text.usb_lld_prepare_transmit:00000000 usb_lld_prepare_transmit
C:\Users\DNIEL~1\AppData\Local\Temp\cccPEDO0.s:2582   .text.otg_epin_handler.clone.9:00000000 $t
C:\Users\DNIEL~1\AppData\Local\Temp\cccPEDO0.s:2587   .text.otg_epin_handler.clone.9:00000000 otg_epin_handler.clone.9
C:\Users\DNIEL~1\AppData\Local\Temp\cccPEDO0.s:2776   .text.otg_epin_handler.clone.9:000000dc $d
C:\Users\DNIEL~1\AppData\Local\Temp\cccPEDO0.s:2782   .text.Vector14C:00000000 $t
C:\Users\DNIEL~1\AppData\Local\Temp\cccPEDO0.s:2788   .text.Vector14C:00000000 Vector14C
C:\Users\DNIEL~1\AppData\Local\Temp\cccPEDO0.s:3023   .text.Vector14C:00000110 $d
C:\Users\DNIEL~1\AppData\Local\Temp\cccPEDO0.s:3030   .text.usb_lld_start_out:00000000 $t
C:\Users\DNIEL~1\AppData\Local\Temp\cccPEDO0.s:3036   .text.usb_lld_start_out:00000000 usb_lld_start_out
C:\Users\DNIEL~1\AppData\Local\Temp\cccPEDO0.s:3059   .text.usb_lld_start_in:00000000 $t
C:\Users\DNIEL~1\AppData\Local\Temp\cccPEDO0.s:3065   .text.usb_lld_start_in:00000000 usb_lld_start_in
C:\Users\DNIEL~1\AppData\Local\Temp\cccPEDO0.s:3094   .text.usb_lld_stall_out:00000000 $t
C:\Users\DNIEL~1\AppData\Local\Temp\cccPEDO0.s:3100   .text.usb_lld_stall_out:00000000 usb_lld_stall_out
C:\Users\DNIEL~1\AppData\Local\Temp\cccPEDO0.s:3123   .text.usb_lld_stall_in:00000000 $t
C:\Users\DNIEL~1\AppData\Local\Temp\cccPEDO0.s:3129   .text.usb_lld_stall_in:00000000 usb_lld_stall_in
C:\Users\DNIEL~1\AppData\Local\Temp\cccPEDO0.s:3152   .text.usb_lld_clear_out:00000000 $t
ARM GAS  C:\Users\DNIEL~1\AppData\Local\Temp\cccPEDO0.s 			page 229


C:\Users\DNIEL~1\AppData\Local\Temp\cccPEDO0.s:3158   .text.usb_lld_clear_out:00000000 usb_lld_clear_out
C:\Users\DNIEL~1\AppData\Local\Temp\cccPEDO0.s:3181   .text.usb_lld_clear_in:00000000 $t
C:\Users\DNIEL~1\AppData\Local\Temp\cccPEDO0.s:3187   .text.usb_lld_clear_in:00000000 usb_lld_clear_in
C:\Users\DNIEL~1\AppData\Local\Temp\cccPEDO0.s:3224   .bss.USBD1:00000000 USBD1
C:\Users\DNIEL~1\AppData\Local\Temp\cccPEDO0.s:3211   .rodata.fsparams:00000000 $d
C:\Users\DNIEL~1\AppData\Local\Temp\cccPEDO0.s:3215   .rodata.fsparams:00000000 fsparams
C:\Users\DNIEL~1\AppData\Local\Temp\cccPEDO0.s:3220   .bss.USBD1:00000000 $d
C:\Users\DNIEL~1\AppData\Local\Temp\cccPEDO0.s:3227   .rodata.str1.4:00000000 $d
C:\Users\DNIEL~1\AppData\Local\Temp\cccPEDO0.s:3231   .rodata.ep0config:00000000 $d
C:\Users\DNIEL~1\AppData\Local\Temp\cccPEDO0.s:3235   .rodata.ep0config:00000000 ep0config
C:\Users\DNIEL~1\AppData\Local\Temp\cccPEDO0.s:3251   .bss.ep0_state:00000000 ep0_state
C:\Users\DNIEL~1\AppData\Local\Temp\cccPEDO0.s:3257   .bss.ep0setup_buffer:00000000 ep0setup_buffer
C:\Users\DNIEL~1\AppData\Local\Temp\cccPEDO0.s:3248   .bss.ep0_state:00000000 $d
C:\Users\DNIEL~1\AppData\Local\Temp\cccPEDO0.s:3254   .bss.ep0setup_buffer:00000000 $d
                     .debug_frame:00000010 $d
C:\Users\DNIEL~1\AppData\Local\Temp\cccPEDO0.s:1377   .text.usb_lld_init:00000024 $t
C:\Users\DNIEL~1\AppData\Local\Temp\cccPEDO0.s:1847   .text.usb_lld_reset:00000128 $t
C:\Users\DNIEL~1\AppData\Local\Temp\cccPEDO0.s:2114   .text.usb_lld_init_endpoint:00000164 $t
C:\Users\DNIEL~1\AppData\Local\Temp\cccPEDO0.s:2336   .text.usb_lld_prepare_receive:00000044 $t
C:\Users\DNIEL~1\AppData\Local\Temp\cccPEDO0.s:2490   .text.otg_epout_handler.clone.8:000000a4 $t
C:\Users\DNIEL~1\AppData\Local\Temp\cccPEDO0.s:3029   .text.Vector14C:00000114 $t

UNDEFINED SYMBOLS
chSchGoSleepS
chSchReadyI
chSchRescheduleS
rlist
halPolledDelay
usbObjectInit
chThdCreateI
nvicEnableVector
_port_irq_epilogue
_usb_reset
_usb_ep0setup
_usb_ep0in
_usb_ep0out
