Archive member included because of file (symbol)

c:/chibistudio/tools/gnu tools arm embedded/4.7 2014q2/bin/../lib/gcc/arm-none-eabi/4.7.4/armv7e-m\libgcc.a(_arm_addsubdf3.o)
                              build/obj/cruise.o (__aeabi_dsub)
c:/chibistudio/tools/gnu tools arm embedded/4.7 2014q2/bin/../lib/gcc/arm-none-eabi/4.7.4/armv7e-m\libgcc.a(_arm_muldivdf3.o)
                              build/obj/cruise.o (__aeabi_dmul)
c:/chibistudio/tools/gnu tools arm embedded/4.7 2014q2/bin/../lib/gcc/arm-none-eabi/4.7.4/armv7e-m\libgcc.a(_arm_cmpdf2.o)
                              build/obj/speed.o (__aeabi_dcmplt)
c:/chibistudio/tools/gnu tools arm embedded/4.7 2014q2/bin/../lib/gcc/arm-none-eabi/4.7.4/armv7e-m\libgcc.a(_arm_fixdfsi.o)
                              build/obj/cruise.o (__aeabi_d2iz)
c:/chibistudio/tools/gnu tools arm embedded/4.7 2014q2/bin/../lib/gcc/arm-none-eabi/4.7.4/armv7e-m\libgcc.a(_arm_fixunsdfsi.o)
                              build/obj/speed.o (__aeabi_d2uiz)
c:/chibistudio/tools/gnu tools arm embedded/4.7 2014q2/bin/../lib/gcc/arm-none-eabi/4.7.4/../../../../arm-none-eabi/lib/armv7e-m\libg.a(lib_a-asctime.o)
                              build/obj/console.o (asctime)
c:/chibistudio/tools/gnu tools arm embedded/4.7 2014q2/bin/../lib/gcc/arm-none-eabi/4.7.4/../../../../arm-none-eabi/lib/armv7e-m\libg.a(lib_a-asctime_r.o)
                              c:/chibistudio/tools/gnu tools arm embedded/4.7 2014q2/bin/../lib/gcc/arm-none-eabi/4.7.4/../../../../arm-none-eabi/lib/armv7e-m\libg.a(lib_a-asctime.o) (asctime_r)
c:/chibistudio/tools/gnu tools arm embedded/4.7 2014q2/bin/../lib/gcc/arm-none-eabi/4.7.4/../../../../arm-none-eabi/lib/armv7e-m\libg.a(lib_a-atol.o)
                              build/obj/console.o (atol)
c:/chibistudio/tools/gnu tools arm embedded/4.7 2014q2/bin/../lib/gcc/arm-none-eabi/4.7.4/../../../../arm-none-eabi/lib/armv7e-m\libg.a(lib_a-impure.o)
                              c:/chibistudio/tools/gnu tools arm embedded/4.7 2014q2/bin/../lib/gcc/arm-none-eabi/4.7.4/../../../../arm-none-eabi/lib/armv7e-m\libg.a(lib_a-asctime.o) (_impure_ptr)
c:/chibistudio/tools/gnu tools arm embedded/4.7 2014q2/bin/../lib/gcc/arm-none-eabi/4.7.4/../../../../arm-none-eabi/lib/armv7e-m\libg.a(lib_a-lcltime_r.o)
                              build/obj/chrtclib.o (localtime_r)
c:/chibistudio/tools/gnu tools arm embedded/4.7 2014q2/bin/../lib/gcc/arm-none-eabi/4.7.4/../../../../arm-none-eabi/lib/armv7e-m\libg.a(lib_a-memcmp.o)
                              build/obj/sdcard.o (memcmp)
c:/chibistudio/tools/gnu tools arm embedded/4.7 2014q2/bin/../lib/gcc/arm-none-eabi/4.7.4/../../../../arm-none-eabi/lib/armv7e-m\libg.a(lib_a-memcpy.o)
                              build/obj/sdc_lld.o (memcpy)
c:/chibistudio/tools/gnu tools arm embedded/4.7 2014q2/bin/../lib/gcc/arm-none-eabi/4.7.4/../../../../arm-none-eabi/lib/armv7e-m\libg.a(lib_a-memset.o)
                              build/obj/usb.o (memset)
c:/chibistudio/tools/gnu tools arm embedded/4.7 2014q2/bin/../lib/gcc/arm-none-eabi/4.7.4/../../../../arm-none-eabi/lib/armv7e-m\libg.a(lib_a-mktime.o)
                              build/obj/chrtclib.o (mktime)
c:/chibistudio/tools/gnu tools arm embedded/4.7 2014q2/bin/../lib/gcc/arm-none-eabi/4.7.4/../../../../arm-none-eabi/lib/armv7e-m\libg.a(lib_a-mktm_r.o)
                              c:/chibistudio/tools/gnu tools arm embedded/4.7 2014q2/bin/../lib/gcc/arm-none-eabi/4.7.4/../../../../arm-none-eabi/lib/armv7e-m\libg.a(lib_a-mktime.o) (__tzcalc_limits)
c:/chibistudio/tools/gnu tools arm embedded/4.7 2014q2/bin/../lib/gcc/arm-none-eabi/4.7.4/../../../../arm-none-eabi/lib/armv7e-m\libg.a(lib_a-reent.o)
                              build/obj/console.o (errno)
c:/chibistudio/tools/gnu tools arm embedded/4.7 2014q2/bin/../lib/gcc/arm-none-eabi/4.7.4/../../../../arm-none-eabi/lib/armv7e-m\libg.a(lib_a-sprintf.o)
                              c:/chibistudio/tools/gnu tools arm embedded/4.7 2014q2/bin/../lib/gcc/arm-none-eabi/4.7.4/../../../../arm-none-eabi/lib/armv7e-m\libg.a(lib_a-asctime_r.o) (sprintf)
c:/chibistudio/tools/gnu tools arm embedded/4.7 2014q2/bin/../lib/gcc/arm-none-eabi/4.7.4/../../../../arm-none-eabi/lib/armv7e-m\libg.a(lib_a-strcasecmp.o)
                              build/obj/shell.o (strcasecmp)
c:/chibistudio/tools/gnu tools arm embedded/4.7 2014q2/bin/../lib/gcc/arm-none-eabi/4.7.4/../../../../arm-none-eabi/lib/armv7e-m\libg.a(lib_a-strcmp.o)
                              build/obj/console.o (strcmp)
c:/chibistudio/tools/gnu tools arm embedded/4.7 2014q2/bin/../lib/gcc/arm-none-eabi/4.7.4/../../../../arm-none-eabi/lib/armv7e-m\libg.a(lib_a-strcpy.o)
                              build/obj/sdcard.o (strcpy)
c:/chibistudio/tools/gnu tools arm embedded/4.7 2014q2/bin/../lib/gcc/arm-none-eabi/4.7.4/../../../../arm-none-eabi/lib/armv7e-m\libg.a(lib_a-strlen.o)
                              build/obj/sdcard.o (strlen)
c:/chibistudio/tools/gnu tools arm embedded/4.7 2014q2/bin/../lib/gcc/arm-none-eabi/4.7.4/../../../../arm-none-eabi/lib/armv7e-m\libg.a(lib_a-strpbrk.o)
                              build/obj/shell.o (strpbrk)
c:/chibistudio/tools/gnu tools arm embedded/4.7 2014q2/bin/../lib/gcc/arm-none-eabi/4.7.4/../../../../arm-none-eabi/lib/armv7e-m\libg.a(lib_a-strspn.o)
                              build/obj/shell.o (strspn)
c:/chibistudio/tools/gnu tools arm embedded/4.7 2014q2/bin/../lib/gcc/arm-none-eabi/4.7.4/../../../../arm-none-eabi/lib/armv7e-m\libg.a(lib_a-strtol.o)
                              c:/chibistudio/tools/gnu tools arm embedded/4.7 2014q2/bin/../lib/gcc/arm-none-eabi/4.7.4/../../../../arm-none-eabi/lib/armv7e-m\libg.a(lib_a-atol.o) (_strtol_r)
c:/chibistudio/tools/gnu tools arm embedded/4.7 2014q2/bin/../lib/gcc/arm-none-eabi/4.7.4/../../../../arm-none-eabi/lib/armv7e-m\libg.a(lib_a-svfprintf.o)
                              c:/chibistudio/tools/gnu tools arm embedded/4.7 2014q2/bin/../lib/gcc/arm-none-eabi/4.7.4/../../../../arm-none-eabi/lib/armv7e-m\libg.a(lib_a-sprintf.o) (_svfprintf_r)
c:/chibistudio/tools/gnu tools arm embedded/4.7 2014q2/bin/../lib/gcc/arm-none-eabi/4.7.4/../../../../arm-none-eabi/lib/armv7e-m\libg.a(lib_a-tzlock.o)
                              c:/chibistudio/tools/gnu tools arm embedded/4.7 2014q2/bin/../lib/gcc/arm-none-eabi/4.7.4/../../../../arm-none-eabi/lib/armv7e-m\libg.a(lib_a-mktm_r.o) (__tz_lock)
c:/chibistudio/tools/gnu tools arm embedded/4.7 2014q2/bin/../lib/gcc/arm-none-eabi/4.7.4/../../../../arm-none-eabi/lib/armv7e-m\libg.a(lib_a-tzvars.o)
                              c:/chibistudio/tools/gnu tools arm embedded/4.7 2014q2/bin/../lib/gcc/arm-none-eabi/4.7.4/../../../../arm-none-eabi/lib/armv7e-m\libg.a(lib_a-mktime.o) (_daylight)
c:/chibistudio/tools/gnu tools arm embedded/4.7 2014q2/bin/../lib/gcc/arm-none-eabi/4.7.4/../../../../arm-none-eabi/lib/armv7e-m\libg.a(lib_a-ctype_.o)
                              c:/chibistudio/tools/gnu tools arm embedded/4.7 2014q2/bin/../lib/gcc/arm-none-eabi/4.7.4/../../../../arm-none-eabi/lib/armv7e-m\libg.a(lib_a-strcasecmp.o) (__ctype_ptr__)
c:/chibistudio/tools/gnu tools arm embedded/4.7 2014q2/bin/../lib/gcc/arm-none-eabi/4.7.4/../../../../arm-none-eabi/lib/armv7e-m\libg.a(lib_a-div.o)
                              c:/chibistudio/tools/gnu tools arm embedded/4.7 2014q2/bin/../lib/gcc/arm-none-eabi/4.7.4/../../../../arm-none-eabi/lib/armv7e-m\libg.a(lib_a-mktime.o) (div)
c:/chibistudio/tools/gnu tools arm embedded/4.7 2014q2/bin/../lib/gcc/arm-none-eabi/4.7.4/../../../../arm-none-eabi/lib/armv7e-m\libg.a(lib_a-dtoa.o)
                              c:/chibistudio/tools/gnu tools arm embedded/4.7 2014q2/bin/../lib/gcc/arm-none-eabi/4.7.4/../../../../arm-none-eabi/lib/armv7e-m\libg.a(lib_a-svfprintf.o) (_dtoa_r)
c:/chibistudio/tools/gnu tools arm embedded/4.7 2014q2/bin/../lib/gcc/arm-none-eabi/4.7.4/../../../../arm-none-eabi/lib/armv7e-m\libg.a(lib_a-freer.o)
                              c:/chibistudio/tools/gnu tools arm embedded/4.7 2014q2/bin/../lib/gcc/arm-none-eabi/4.7.4/../../../../arm-none-eabi/lib/armv7e-m\libg.a(lib_a-reent.o) (_free_r)
c:/chibistudio/tools/gnu tools arm embedded/4.7 2014q2/bin/../lib/gcc/arm-none-eabi/4.7.4/../../../../arm-none-eabi/lib/armv7e-m\libg.a(lib_a-gettzinfo.o)
                              c:/chibistudio/tools/gnu tools arm embedded/4.7 2014q2/bin/../lib/gcc/arm-none-eabi/4.7.4/../../../../arm-none-eabi/lib/armv7e-m\libg.a(lib_a-mktime.o) (__gettzinfo)
c:/chibistudio/tools/gnu tools arm embedded/4.7 2014q2/bin/../lib/gcc/arm-none-eabi/4.7.4/../../../../arm-none-eabi/lib/armv7e-m\libg.a(lib_a-locale.o)
                              c:/chibistudio/tools/gnu tools arm embedded/4.7 2014q2/bin/../lib/gcc/arm-none-eabi/4.7.4/../../../../arm-none-eabi/lib/armv7e-m\libg.a(lib_a-svfprintf.o) (_localeconv_r)
c:/chibistudio/tools/gnu tools arm embedded/4.7 2014q2/bin/../lib/gcc/arm-none-eabi/4.7.4/../../../../arm-none-eabi/lib/armv7e-m\libg.a(lib_a-mallocr.o)
                              c:/chibistudio/tools/gnu tools arm embedded/4.7 2014q2/bin/../lib/gcc/arm-none-eabi/4.7.4/../../../../arm-none-eabi/lib/armv7e-m\libg.a(lib_a-svfprintf.o) (_malloc_r)
c:/chibistudio/tools/gnu tools arm embedded/4.7 2014q2/bin/../lib/gcc/arm-none-eabi/4.7.4/../../../../arm-none-eabi/lib/armv7e-m\libg.a(lib_a-memchr.o)
                              c:/chibistudio/tools/gnu tools arm embedded/4.7 2014q2/bin/../lib/gcc/arm-none-eabi/4.7.4/../../../../arm-none-eabi/lib/armv7e-m\libg.a(lib_a-svfprintf.o) (memchr)
c:/chibistudio/tools/gnu tools arm embedded/4.7 2014q2/bin/../lib/gcc/arm-none-eabi/4.7.4/../../../../arm-none-eabi/lib/armv7e-m\libg.a(lib_a-mlock.o)
                              c:/chibistudio/tools/gnu tools arm embedded/4.7 2014q2/bin/../lib/gcc/arm-none-eabi/4.7.4/../../../../arm-none-eabi/lib/armv7e-m\libg.a(lib_a-freer.o) (__malloc_lock)
c:/chibistudio/tools/gnu tools arm embedded/4.7 2014q2/bin/../lib/gcc/arm-none-eabi/4.7.4/../../../../arm-none-eabi/lib/armv7e-m\libg.a(lib_a-mprec.o)
                              c:/chibistudio/tools/gnu tools arm embedded/4.7 2014q2/bin/../lib/gcc/arm-none-eabi/4.7.4/../../../../arm-none-eabi/lib/armv7e-m\libg.a(lib_a-dtoa.o) (_Balloc)
c:/chibistudio/tools/gnu tools arm embedded/4.7 2014q2/bin/../lib/gcc/arm-none-eabi/4.7.4/../../../../arm-none-eabi/lib/armv7e-m\libg.a(lib_a-s_fpclassify.o)
                              c:/chibistudio/tools/gnu tools arm embedded/4.7 2014q2/bin/../lib/gcc/arm-none-eabi/4.7.4/../../../../arm-none-eabi/lib/armv7e-m\libg.a(lib_a-svfprintf.o) (__fpclassifyd)
c:/chibistudio/tools/gnu tools arm embedded/4.7 2014q2/bin/../lib/gcc/arm-none-eabi/4.7.4/../../../../arm-none-eabi/lib/armv7e-m\libg.a(lib_a-svfiprintf.o)
                              c:/chibistudio/tools/gnu tools arm embedded/4.7 2014q2/bin/../lib/gcc/arm-none-eabi/4.7.4/../../../../arm-none-eabi/lib/armv7e-m\libg.a(lib_a-svfprintf.o) (__ssprint_r)
c:/chibistudio/tools/gnu tools arm embedded/4.7 2014q2/bin/../lib/gcc/arm-none-eabi/4.7.4/../../../../arm-none-eabi/lib/armv7e-m\libg.a(lib_a-callocr.o)
                              c:/chibistudio/tools/gnu tools arm embedded/4.7 2014q2/bin/../lib/gcc/arm-none-eabi/4.7.4/../../../../arm-none-eabi/lib/armv7e-m\libg.a(lib_a-mprec.o) (_calloc_r)
c:/chibistudio/tools/gnu tools arm embedded/4.7 2014q2/bin/../lib/gcc/arm-none-eabi/4.7.4/../../../../arm-none-eabi/lib/armv7e-m\libg.a(lib_a-memmove.o)
                              c:/chibistudio/tools/gnu tools arm embedded/4.7 2014q2/bin/../lib/gcc/arm-none-eabi/4.7.4/../../../../arm-none-eabi/lib/armv7e-m\libg.a(lib_a-svfiprintf.o) (memmove)
c:/chibistudio/tools/gnu tools arm embedded/4.7 2014q2/bin/../lib/gcc/arm-none-eabi/4.7.4/../../../../arm-none-eabi/lib/armv7e-m\libg.a(lib_a-reallocr.o)
                              c:/chibistudio/tools/gnu tools arm embedded/4.7 2014q2/bin/../lib/gcc/arm-none-eabi/4.7.4/../../../../arm-none-eabi/lib/armv7e-m\libg.a(lib_a-svfiprintf.o) (_realloc_r)
c:/chibistudio/tools/gnu tools arm embedded/4.7 2014q2/bin/../lib/gcc/arm-none-eabi/4.7.4/armv7e-m\libgcc.a(_aeabi_uldivmod.o)
                              c:/chibistudio/tools/gnu tools arm embedded/4.7 2014q2/bin/../lib/gcc/arm-none-eabi/4.7.4/../../../../arm-none-eabi/lib/armv7e-m\libg.a(lib_a-svfprintf.o) (__aeabi_uldivmod)
c:/chibistudio/tools/gnu tools arm embedded/4.7 2014q2/bin/../lib/gcc/arm-none-eabi/4.7.4/armv7e-m\libgcc.a(bpabi.o)
                              c:/chibistudio/tools/gnu tools arm embedded/4.7 2014q2/bin/../lib/gcc/arm-none-eabi/4.7.4/armv7e-m\libgcc.a(_aeabi_uldivmod.o) (__gnu_uldivmod_helper)
c:/chibistudio/tools/gnu tools arm embedded/4.7 2014q2/bin/../lib/gcc/arm-none-eabi/4.7.4/armv7e-m\libgcc.a(_dvmd_tls.o)
                              c:/chibistudio/tools/gnu tools arm embedded/4.7 2014q2/bin/../lib/gcc/arm-none-eabi/4.7.4/armv7e-m\libgcc.a(_aeabi_uldivmod.o) (__aeabi_ldiv0)
c:/chibistudio/tools/gnu tools arm embedded/4.7 2014q2/bin/../lib/gcc/arm-none-eabi/4.7.4/armv7e-m\libgcc.a(_divdi3.o)
                              c:/chibistudio/tools/gnu tools arm embedded/4.7 2014q2/bin/../lib/gcc/arm-none-eabi/4.7.4/armv7e-m\libgcc.a(bpabi.o) (__divdi3)
c:/chibistudio/tools/gnu tools arm embedded/4.7 2014q2/bin/../lib/gcc/arm-none-eabi/4.7.4/armv7e-m\libgcc.a(_udivdi3.o)
                              c:/chibistudio/tools/gnu tools arm embedded/4.7 2014q2/bin/../lib/gcc/arm-none-eabi/4.7.4/armv7e-m\libgcc.a(bpabi.o) (__udivdi3)

Allocating common symbols
Common symbol       size              file

errno               0x4               c:/chibistudio/tools/gnu tools arm embedded/4.7 2014q2/bin/../lib/gcc/arm-none-eabi/4.7.4/../../../../arm-none-eabi/lib/armv7e-m\libg.a(lib_a-reent.o)

Discarded input sections

 .text          0x00000000        0x0 build/obj/crt0.o
 .data          0x00000000        0x0 build/obj/crt0.o
 .bss           0x00000000        0x0 build/obj/crt0.o
 .text.__early_init
                0x00000000       0x10 build/obj/crt0.o
 .text          0x00000000        0x0 build/obj/vectors.o
 .data          0x00000000        0x0 build/obj/vectors.o
 .bss           0x00000000        0x0 build/obj/vectors.o
 .text          0x00000000        0x0 build/obj/chcore.o
 .data          0x00000000        0x0 build/obj/chcore.o
 .bss           0x00000000        0x0 build/obj/chcore.o
 .text          0x00000000        0x0 build/obj/chcore_v7m.o
 .data          0x00000000        0x0 build/obj/chcore_v7m.o
 .bss           0x00000000        0x0 build/obj/chcore_v7m.o
 .text          0x00000000        0x0 build/obj/nvic.o
 .data          0x00000000        0x0 build/obj/nvic.o
 .bss           0x00000000        0x0 build/obj/nvic.o
 .text.nvicDisableVector
                0x00000000       0x40 build/obj/nvic.o
 .text          0x00000000        0x0 build/obj/chsys.o
 .data          0x00000000        0x0 build/obj/chsys.o
 .bss           0x00000000        0x0 build/obj/chsys.o
 .text          0x00000000        0x0 build/obj/chdebug.o
 .data          0x00000000        0x0 build/obj/chdebug.o
 .bss           0x00000000        0x0 build/obj/chdebug.o
 .debug_info    0x00000000       0x79 build/obj/chdebug.o
 .debug_abbrev  0x00000000       0x26 build/obj/chdebug.o
 .debug_aranges
                0x00000000       0x18 build/obj/chdebug.o
 .debug_line    0x00000000       0x1d build/obj/chdebug.o
 .debug_str     0x00000000      0x135 build/obj/chdebug.o
 .comment       0x00000000       0x71 build/obj/chdebug.o
 .ARM.attributes
                0x00000000       0x33 build/obj/chdebug.o
 .text          0x00000000        0x0 build/obj/chlists.o
 .data          0x00000000        0x0 build/obj/chlists.o
 .bss           0x00000000        0x0 build/obj/chlists.o
 .debug_info    0x00000000       0x79 build/obj/chlists.o
 .debug_abbrev  0x00000000       0x26 build/obj/chlists.o
 .debug_aranges
                0x00000000       0x18 build/obj/chlists.o
 .debug_line    0x00000000       0x1d build/obj/chlists.o
 .debug_str     0x00000000      0x135 build/obj/chlists.o
 .comment       0x00000000       0x71 build/obj/chlists.o
 .ARM.attributes
                0x00000000       0x33 build/obj/chlists.o
 .text          0x00000000        0x0 build/obj/chvt.o
 .data          0x00000000        0x0 build/obj/chvt.o
 .bss           0x00000000        0x0 build/obj/chvt.o
 .text          0x00000000        0x0 build/obj/chschd.o
 .data          0x00000000        0x0 build/obj/chschd.o
 .bss           0x00000000        0x0 build/obj/chschd.o
 .text          0x00000000        0x0 build/obj/chthreads.o
 .data          0x00000000        0x0 build/obj/chthreads.o
 .bss           0x00000000        0x0 build/obj/chthreads.o
 .text          0x00000000        0x0 build/obj/chdynamic.o
 .data          0x00000000        0x0 build/obj/chdynamic.o
 .bss           0x00000000        0x0 build/obj/chdynamic.o
 .text          0x00000000        0x0 build/obj/chregistry.o
 .data          0x00000000        0x0 build/obj/chregistry.o
 .bss           0x00000000        0x0 build/obj/chregistry.o
 .text          0x00000000        0x0 build/obj/chsem.o
 .data          0x00000000        0x0 build/obj/chsem.o
 .bss           0x00000000        0x0 build/obj/chsem.o
 .text          0x00000000        0x0 build/obj/chmtx.o
 .data          0x00000000        0x0 build/obj/chmtx.o
 .bss           0x00000000        0x0 build/obj/chmtx.o
 .text.chMtxTryLockS
                0x00000000       0x20 build/obj/chmtx.o
 .text          0x00000000        0x0 build/obj/chcond.o
 .data          0x00000000        0x0 build/obj/chcond.o
 .bss           0x00000000        0x0 build/obj/chcond.o
 .text          0x00000000        0x0 build/obj/chevents.o
 .data          0x00000000        0x0 build/obj/chevents.o
 .bss           0x00000000        0x0 build/obj/chevents.o
 .text.chEvtGetAndClearFlags
                0x00000000       0x20 build/obj/chevents.o
 .text.chEvtGetAndClearFlagsI
                0x00000000       0x10 build/obj/chevents.o
 .text          0x00000000        0x0 build/obj/chmsg.o
 .data          0x00000000        0x0 build/obj/chmsg.o
 .bss           0x00000000        0x0 build/obj/chmsg.o
 .text          0x00000000        0x0 build/obj/chmboxes.o
 .data          0x00000000        0x0 build/obj/chmboxes.o
 .bss           0x00000000        0x0 build/obj/chmboxes.o
 .text          0x00000000        0x0 build/obj/chqueues.o
 .data          0x00000000        0x0 build/obj/chqueues.o
 .bss           0x00000000        0x0 build/obj/chqueues.o
 .text          0x00000000        0x0 build/obj/chmemcore.o
 .data          0x00000000        0x0 build/obj/chmemcore.o
 .bss           0x00000000        0x0 build/obj/chmemcore.o
 .text.chCoreAllocI
                0x00000000       0x30 build/obj/chmemcore.o
 .text          0x00000000        0x0 build/obj/chheap.o
 .data          0x00000000        0x0 build/obj/chheap.o
 .bss           0x00000000        0x0 build/obj/chheap.o
 .text          0x00000000        0x0 build/obj/chmempools.o
 .data          0x00000000        0x0 build/obj/chmempools.o
 .bss           0x00000000        0x0 build/obj/chmempools.o
 .text.chPoolAllocI
                0x00000000       0x20 build/obj/chmempools.o
 .text.chPoolFreeI
                0x00000000       0x10 build/obj/chmempools.o
 .text          0x00000000        0x0 build/obj/test.o
 .data          0x00000000        0x0 build/obj/test.o
 .bss           0x00000000        0x0 build/obj/test.o
 .text._test_fail
                0x00000000       0x30 build/obj/test.o
 .text          0x00000000        0x0 build/obj/testthd.o
 .data          0x00000000        0x0 build/obj/testthd.o
 .bss           0x00000000        0x0 build/obj/testthd.o
 .text          0x00000000        0x0 build/obj/testsem.o
 .data          0x00000000        0x0 build/obj/testsem.o
 .bss           0x00000000        0x0 build/obj/testsem.o
 .text          0x00000000        0x0 build/obj/testmtx.o
 .data          0x00000000        0x0 build/obj/testmtx.o
 .bss           0x00000000        0x0 build/obj/testmtx.o
 .text          0x00000000        0x0 build/obj/testmsg.o
 .data          0x00000000        0x0 build/obj/testmsg.o
 .bss           0x00000000        0x0 build/obj/testmsg.o
 .text          0x00000000        0x0 build/obj/testmbox.o
 .data          0x00000000        0x0 build/obj/testmbox.o
 .bss           0x00000000        0x0 build/obj/testmbox.o
 .text          0x00000000        0x0 build/obj/testevt.o
 .data          0x00000000        0x0 build/obj/testevt.o
 .bss           0x00000000        0x0 build/obj/testevt.o
 .text          0x00000000        0x0 build/obj/testheap.o
 .data          0x00000000        0x0 build/obj/testheap.o
 .bss           0x00000000        0x0 build/obj/testheap.o
 .text          0x00000000        0x0 build/obj/testpools.o
 .data          0x00000000        0x0 build/obj/testpools.o
 .bss           0x00000000        0x0 build/obj/testpools.o
 .text          0x00000000        0x0 build/obj/testdyn.o
 .data          0x00000000        0x0 build/obj/testdyn.o
 .bss           0x00000000        0x0 build/obj/testdyn.o
 .text          0x00000000        0x0 build/obj/testqueues.o
 .data          0x00000000        0x0 build/obj/testqueues.o
 .bss           0x00000000        0x0 build/obj/testqueues.o
 .text          0x00000000        0x0 build/obj/testbmk.o
 .data          0x00000000        0x0 build/obj/testbmk.o
 .bss           0x00000000        0x0 build/obj/testbmk.o
 .text          0x00000000        0x0 build/obj/hal.o
 .data          0x00000000        0x0 build/obj/hal.o
 .bss           0x00000000        0x0 build/obj/hal.o
 .text.halIsCounterWithin
                0x00000000       0x30 build/obj/hal.o
 .text          0x00000000        0x0 build/obj/adc.o
 .data          0x00000000        0x0 build/obj/adc.o
 .bss           0x00000000        0x0 build/obj/adc.o
 .text.adcStop  0x00000000       0x20 build/obj/adc.o
 .text.adcStartConversion
                0x00000000       0x30 build/obj/adc.o
 .text.adcStartConversionI
                0x00000000       0x20 build/obj/adc.o
 .text.adcStopConversion
                0x00000000       0x40 build/obj/adc.o
 .text.adcStopConversionI
                0x00000000       0x30 build/obj/adc.o
 .text.adcAcquireBus
                0x00000000       0x10 build/obj/adc.o
 .text.adcReleaseBus
                0x00000000       0x10 build/obj/adc.o
 .text          0x00000000        0x0 build/obj/can.o
 .data          0x00000000        0x0 build/obj/can.o
 .bss           0x00000000        0x0 build/obj/can.o
 .text.canStop  0x00000000       0x40 build/obj/can.o
 .text.canSleep
                0x00000000       0x30 build/obj/can.o
 .text.canWakeup
                0x00000000       0x30 build/obj/can.o
 .text          0x00000000        0x0 build/obj/ext.o
 .data          0x00000000        0x0 build/obj/ext.o
 .bss           0x00000000        0x0 build/obj/ext.o
 .debug_info    0x00000000       0x97 build/obj/ext.o
 .debug_abbrev  0x00000000       0x4b build/obj/ext.o
 .debug_aranges
                0x00000000       0x18 build/obj/ext.o
 .debug_line    0x00000000       0xe9 build/obj/ext.o
 .debug_str     0x00000000      0x143 build/obj/ext.o
 .comment       0x00000000       0x71 build/obj/ext.o
 .ARM.attributes
                0x00000000       0x33 build/obj/ext.o
 .text          0x00000000        0x0 build/obj/gpt.o
 .data          0x00000000        0x0 build/obj/gpt.o
 .bss           0x00000000        0x0 build/obj/gpt.o
 .debug_info    0x00000000       0x97 build/obj/gpt.o
 .debug_abbrev  0x00000000       0x4b build/obj/gpt.o
 .debug_aranges
                0x00000000       0x18 build/obj/gpt.o
 .debug_line    0x00000000       0xe9 build/obj/gpt.o
 .debug_str     0x00000000      0x143 build/obj/gpt.o
 .comment       0x00000000       0x71 build/obj/gpt.o
 .ARM.attributes
                0x00000000       0x33 build/obj/gpt.o
 .text          0x00000000        0x0 build/obj/i2c.o
 .data          0x00000000        0x0 build/obj/i2c.o
 .bss           0x00000000        0x0 build/obj/i2c.o
 .text.i2cStart
                0x00000000       0x20 build/obj/i2c.o
 .text.i2cStop  0x00000000       0x20 build/obj/i2c.o
 .text.i2cGetErrors
                0x00000000       0x10 build/obj/i2c.o
 .text.i2cMasterTransmitTimeout
                0x00000000       0x40 build/obj/i2c.o
 .text.i2cMasterReceiveTimeout
                0x00000000       0x40 build/obj/i2c.o
 .text.i2cAcquireBus
                0x00000000       0x10 build/obj/i2c.o
 .text.i2cReleaseBus
                0x00000000       0x10 build/obj/i2c.o
 .text          0x00000000        0x0 build/obj/icu.o
 .data          0x00000000        0x0 build/obj/icu.o
 .bss           0x00000000        0x0 build/obj/icu.o
 .text.icuStop  0x00000000       0x20 build/obj/icu.o
 .text.icuDisable
                0x00000000       0x20 build/obj/icu.o
 .text          0x00000000        0x0 build/obj/mac.o
 .data          0x00000000        0x0 build/obj/mac.o
 .bss           0x00000000        0x0 build/obj/mac.o
 .debug_info    0x00000000       0x97 build/obj/mac.o
 .debug_abbrev  0x00000000       0x4b build/obj/mac.o
 .debug_aranges
                0x00000000       0x18 build/obj/mac.o
 .debug_line    0x00000000       0xe9 build/obj/mac.o
 .debug_str     0x00000000      0x143 build/obj/mac.o
 .comment       0x00000000       0x71 build/obj/mac.o
 .ARM.attributes
                0x00000000       0x33 build/obj/mac.o
 .text          0x00000000        0x0 build/obj/mmc_spi.o
 .data          0x00000000        0x0 build/obj/mmc_spi.o
 .bss           0x00000000        0x0 build/obj/mmc_spi.o
 .debug_info    0x00000000       0x97 build/obj/mmc_spi.o
 .debug_abbrev  0x00000000       0x4b build/obj/mmc_spi.o
 .debug_aranges
                0x00000000       0x18 build/obj/mmc_spi.o
 .debug_line    0x00000000       0xe9 build/obj/mmc_spi.o
 .debug_str     0x00000000      0x147 build/obj/mmc_spi.o
 .comment       0x00000000       0x71 build/obj/mmc_spi.o
 .ARM.attributes
                0x00000000       0x33 build/obj/mmc_spi.o
 .text          0x00000000        0x0 build/obj/mmcsd.o
 .data          0x00000000        0x0 build/obj/mmcsd.o
 .bss           0x00000000        0x0 build/obj/mmcsd.o
 .text          0x00000000        0x0 build/obj/pal.o
 .data          0x00000000        0x0 build/obj/pal.o
 .bss           0x00000000        0x0 build/obj/pal.o
 .text.palReadBus
                0x00000000       0x10 build/obj/pal.o
 .text.palWriteBus
                0x00000000       0x20 build/obj/pal.o
 .text.palSetBusMode
                0x00000000       0x10 build/obj/pal.o
 .debug_info    0x00000000      0x2e4 build/obj/pal.o
 .debug_abbrev  0x00000000      0x13f build/obj/pal.o
 .debug_loc     0x00000000       0xd0 build/obj/pal.o
 .debug_aranges
                0x00000000       0x30 build/obj/pal.o
 .debug_ranges  0x00000000       0x20 build/obj/pal.o
 .debug_line    0x00000000      0x1ad build/obj/pal.o
 .debug_str     0x00000000      0x223 build/obj/pal.o
 .comment       0x00000000       0x71 build/obj/pal.o
 .ARM.attributes
                0x00000000       0x33 build/obj/pal.o
 .debug_frame   0x00000000       0x4c build/obj/pal.o
 .text          0x00000000        0x0 build/obj/pwm.o
 .data          0x00000000        0x0 build/obj/pwm.o
 .bss           0x00000000        0x0 build/obj/pwm.o
 .text.pwmStop  0x00000000       0x20 build/obj/pwm.o
 .text.pwmChangePeriod
                0x00000000       0x20 build/obj/pwm.o
 .text.pwmDisableChannel
                0x00000000       0x20 build/obj/pwm.o
 .text          0x00000000        0x0 build/obj/rtc.o
 .data          0x00000000        0x0 build/obj/rtc.o
 .bss           0x00000000        0x0 build/obj/rtc.o
 .text          0x00000000        0x0 build/obj/sdc.o
 .data          0x00000000        0x0 build/obj/sdc.o
 .bss           0x00000000        0x0 build/obj/sdc.o
 .text.sdcStop  0x00000000       0x20 build/obj/sdc.o
 .text.sdcGetAndClearErrors
                0x00000000       0x20 build/obj/sdc.o
 .text          0x00000000        0x0 build/obj/serial.o
 .data          0x00000000        0x0 build/obj/serial.o
 .bss           0x00000000        0x0 build/obj/serial.o
 .text.sdStop   0x00000000       0x30 build/obj/serial.o
 .text.sdRequestDataI
                0x00000000       0x20 build/obj/serial.o
 .text          0x00000000        0x0 build/obj/serial_usb.o
 .data          0x00000000        0x0 build/obj/serial_usb.o
 .bss           0x00000000        0x0 build/obj/serial_usb.o
 .text.inotify  0x00000000       0x70 build/obj/serial_usb.o
 .text.onotify  0x00000000       0x60 build/obj/serial_usb.o
 .text.readt    0x00000000       0x10 build/obj/serial_usb.o
 .text.read     0x00000000       0x10 build/obj/serial_usb.o
 .text.writet   0x00000000       0x10 build/obj/serial_usb.o
 .text.write    0x00000000       0x10 build/obj/serial_usb.o
 .text.gett     0x00000000       0x10 build/obj/serial_usb.o
 .text.get      0x00000000       0x10 build/obj/serial_usb.o
 .text.putt     0x00000000       0x10 build/obj/serial_usb.o
 .text.put      0x00000000       0x10 build/obj/serial_usb.o
 .text.sduObjectInit
                0x00000000       0x60 build/obj/serial_usb.o
 .text.sduStart
                0x00000000       0x40 build/obj/serial_usb.o
 .text.sduStop  0x00000000       0x60 build/obj/serial_usb.o
 .text.sduConfigureHookI
                0x00000000       0x50 build/obj/serial_usb.o
 .text.sduRequestsHook
                0x00000000       0x40 build/obj/serial_usb.o
 .text.sduDataTransmitted
                0x00000000       0x70 build/obj/serial_usb.o
 .text.sduDataReceived
                0x00000000       0x70 build/obj/serial_usb.o
 .text.sduInterruptTransmitted
                0x00000000       0x10 build/obj/serial_usb.o
 .rodata.vmt    0x00000000       0x20 build/obj/serial_usb.o
 .data.linecoding
                0x00000000        0x8 build/obj/serial_usb.o
 .text          0x00000000        0x0 build/obj/spi.o
 .data          0x00000000        0x0 build/obj/spi.o
 .bss           0x00000000        0x0 build/obj/spi.o
 .text.spiStart
                0x00000000       0x20 build/obj/spi.o
 .text.spiStop  0x00000000       0x20 build/obj/spi.o
 .text.spiSelect
                0x00000000       0x20 build/obj/spi.o
 .text.spiUnselect
                0x00000000       0x20 build/obj/spi.o
 .text.spiStartIgnore
                0x00000000       0x20 build/obj/spi.o
 .text.spiStartExchange
                0x00000000       0x20 build/obj/spi.o
 .text.spiStartSend
                0x00000000       0x20 build/obj/spi.o
 .text.spiStartReceive
                0x00000000       0x20 build/obj/spi.o
 .text.spiIgnore
                0x00000000       0x30 build/obj/spi.o
 .text.spiExchange
                0x00000000       0x30 build/obj/spi.o
 .text.spiSend  0x00000000       0x30 build/obj/spi.o
 .text.spiReceive
                0x00000000       0x30 build/obj/spi.o
 .text.spiAcquireBus
                0x00000000       0x10 build/obj/spi.o
 .text.spiReleaseBus
                0x00000000       0x10 build/obj/spi.o
 .text          0x00000000        0x0 build/obj/tm.o
 .data          0x00000000        0x0 build/obj/tm.o
 .bss           0x00000000        0x0 build/obj/tm.o
 .text.tmObjectInit
                0x00000000       0x30 build/obj/tm.o
 .text          0x00000000        0x0 build/obj/uart.o
 .data          0x00000000        0x0 build/obj/uart.o
 .bss           0x00000000        0x0 build/obj/uart.o
 .debug_info    0x00000000       0x97 build/obj/uart.o
 .debug_abbrev  0x00000000       0x4b build/obj/uart.o
 .debug_aranges
                0x00000000       0x18 build/obj/uart.o
 .debug_line    0x00000000       0xe9 build/obj/uart.o
 .debug_str     0x00000000      0x144 build/obj/uart.o
 .comment       0x00000000       0x71 build/obj/uart.o
 .ARM.attributes
                0x00000000       0x33 build/obj/uart.o
 .text          0x00000000        0x0 build/obj/usb.o
 .data          0x00000000        0x0 build/obj/usb.o
 .bss           0x00000000        0x0 build/obj/usb.o
 .text.usbStart
                0x00000000       0x30 build/obj/usb.o
 .text.usbStop  0x00000000       0x20 build/obj/usb.o
 .text.usbInitEndpointI
                0x00000000       0x40 build/obj/usb.o
 .text.usbDisableEndpointsI
                0x00000000       0x20 build/obj/usb.o
 .text.usbPrepareQueuedReceive
                0x00000000       0x20 build/obj/usb.o
 .text.usbPrepareQueuedTransmit
                0x00000000       0x20 build/obj/usb.o
 .text.usbStallReceiveI
                0x00000000       0x20 build/obj/usb.o
 .text.usbStallTransmitI
                0x00000000       0x20 build/obj/usb.o
 .text          0x00000000        0x0 build/obj/stm32_dma.o
 .data          0x00000000        0x0 build/obj/stm32_dma.o
 .bss           0x00000000        0x0 build/obj/stm32_dma.o
 .text.dmaStreamRelease
                0x00000000       0x50 build/obj/stm32_dma.o
 .text          0x00000000        0x0 build/obj/hal_lld.o
 .data          0x00000000        0x0 build/obj/hal_lld.o
 .bss           0x00000000        0x0 build/obj/hal_lld.o
 .text          0x00000000        0x0 build/obj/adc_lld.o
 .data          0x00000000        0x0 build/obj/adc_lld.o
 .bss           0x00000000        0x0 build/obj/adc_lld.o
 .text.adc_lld_stop
                0x00000000       0x40 build/obj/adc_lld.o
 .text.adcSTM32EnableTSVREFE
                0x00000000       0x20 build/obj/adc_lld.o
 .text.adcSTM32DisableTSVREFE
                0x00000000       0x20 build/obj/adc_lld.o
 .text.adcSTM32EnableVBATE
                0x00000000       0x20 build/obj/adc_lld.o
 .text.adcSTM32DisableVBATE
                0x00000000       0x20 build/obj/adc_lld.o
 .text          0x00000000        0x0 build/obj/ext_lld_isr.o
 .data          0x00000000        0x0 build/obj/ext_lld_isr.o
 .bss           0x00000000        0x0 build/obj/ext_lld_isr.o
 .debug_info    0x00000000       0x97 build/obj/ext_lld_isr.o
 .debug_abbrev  0x00000000       0x4b build/obj/ext_lld_isr.o
 .debug_aranges
                0x00000000       0x18 build/obj/ext_lld_isr.o
 .debug_line    0x00000000       0xe9 build/obj/ext_lld_isr.o
 .debug_str     0x00000000      0x15b build/obj/ext_lld_isr.o
 .comment       0x00000000       0x71 build/obj/ext_lld_isr.o
 .ARM.attributes
                0x00000000       0x33 build/obj/ext_lld_isr.o
 .text          0x00000000        0x0 build/obj/can_lld.o
 .data          0x00000000        0x0 build/obj/can_lld.o
 .bss           0x00000000        0x0 build/obj/can_lld.o
 .text.can_lld_stop
                0x00000000       0x60 build/obj/can_lld.o
 .text.can_lld_sleep
                0x00000000       0x10 build/obj/can_lld.o
 .text.can_lld_wakeup
                0x00000000       0x10 build/obj/can_lld.o
 .text.canSTM32SetFilters
                0x00000000       0x10 build/obj/can_lld.o
 .text          0x00000000        0x0 build/obj/ext_lld.o
 .data          0x00000000        0x0 build/obj/ext_lld.o
 .bss           0x00000000        0x0 build/obj/ext_lld.o
 .debug_info    0x00000000       0x97 build/obj/ext_lld.o
 .debug_abbrev  0x00000000       0x4b build/obj/ext_lld.o
 .debug_aranges
                0x00000000       0x18 build/obj/ext_lld.o
 .debug_line    0x00000000       0xe9 build/obj/ext_lld.o
 .debug_str     0x00000000      0x153 build/obj/ext_lld.o
 .comment       0x00000000       0x71 build/obj/ext_lld.o
 .ARM.attributes
                0x00000000       0x33 build/obj/ext_lld.o
 .text          0x00000000        0x0 build/obj/mac_lld.o
 .data          0x00000000        0x0 build/obj/mac_lld.o
 .bss           0x00000000        0x0 build/obj/mac_lld.o
 .debug_info    0x00000000       0x97 build/obj/mac_lld.o
 .debug_abbrev  0x00000000       0x4b build/obj/mac_lld.o
 .debug_aranges
                0x00000000       0x18 build/obj/mac_lld.o
 .debug_line    0x00000000       0xe9 build/obj/mac_lld.o
 .debug_str     0x00000000      0x153 build/obj/mac_lld.o
 .comment       0x00000000       0x71 build/obj/mac_lld.o
 .ARM.attributes
                0x00000000       0x33 build/obj/mac_lld.o
 .text          0x00000000        0x0 build/obj/sdc_lld.o
 .data          0x00000000        0x0 build/obj/sdc_lld.o
 .bss           0x00000000        0x0 build/obj/sdc_lld.o
 .text.sdc_lld_stop
                0x00000000       0x40 build/obj/sdc_lld.o
 .text          0x00000000        0x0 build/obj/pal_lld.o
 .data          0x00000000        0x0 build/obj/pal_lld.o
 .bss           0x00000000        0x0 build/obj/pal_lld.o
 .text._pal_lld_setgroupmode
                0x00000000       0xd0 build/obj/pal_lld.o
 .text          0x00000000        0x0 build/obj/i2c_lld.o
 .data          0x00000000        0x0 build/obj/i2c_lld.o
 .bss           0x00000000        0x0 build/obj/i2c_lld.o
 .text.i2c_lld_abort_operation
                0x00000000       0x60 build/obj/i2c_lld.o
 .text.i2c_lld_safety_timeout
                0x00000000       0x30 build/obj/i2c_lld.o
 .text.i2c_lld_serve_tx_end_irq
                0x00000000       0x40 build/obj/i2c_lld.o
 .text.i2c_lld_serve_rx_end_irq
                0x00000000       0x70 build/obj/i2c_lld.o
 .text.i2c_lld_start
                0x00000000      0x190 build/obj/i2c_lld.o
 .text.i2c_lld_stop
                0x00000000       0x50 build/obj/i2c_lld.o
 .text.i2c_lld_master_receive_timeout
                0x00000000       0xf0 build/obj/i2c_lld.o
 .text.i2c_lld_master_transmit_timeout
                0x00000000       0xf0 build/obj/i2c_lld.o
 .text          0x00000000        0x0 build/obj/usb_lld.o
 .data          0x00000000        0x0 build/obj/usb_lld.o
 .bss           0x00000000        0x0 build/obj/usb_lld.o
 .text.otg_disable_ep
                0x00000000       0x90 build/obj/usb_lld.o
 .text.usb_lld_pump
                0x00000000      0x4a0 build/obj/usb_lld.o
 .text.usb_lld_start
                0x00000000       0xe0 build/obj/usb_lld.o
 .text.usb_lld_stop
                0x00000000       0x20 build/obj/usb_lld.o
 .text.usb_lld_init_endpoint
                0x00000000      0x140 build/obj/usb_lld.o
 .text.usb_lld_disable_endpoints
                0x00000000       0x10 build/obj/usb_lld.o
 .rodata.str1.4
                0x00000000       0x10 build/obj/usb_lld.o
 .text          0x00000000        0x0 build/obj/rtc_lld.o
 .data          0x00000000        0x0 build/obj/rtc_lld.o
 .bss           0x00000000        0x0 build/obj/rtc_lld.o
 .text.rtcSetPeriodicWakeup_v2
                0x00000000       0x50 build/obj/rtc_lld.o
 .text.rtcGetPeriodicWakeup_v2
                0x00000000       0x20 build/obj/rtc_lld.o
 .text          0x00000000        0x0 build/obj/spi_lld.o
 .data          0x00000000        0x0 build/obj/spi_lld.o
 .bss           0x00000000        0x0 build/obj/spi_lld.o
 .text.spi_lld_serve_tx_interrupt
                0x00000000       0x10 build/obj/spi_lld.o
 .text.spi_lld_serve_rx_interrupt
                0x00000000       0x90 build/obj/spi_lld.o
 .text.spi_lld_start
                0x00000000       0xb0 build/obj/spi_lld.o
 .text.spi_lld_stop
                0x00000000       0x40 build/obj/spi_lld.o
 .text.spi_lld_select
                0x00000000       0x20 build/obj/spi_lld.o
 .text.spi_lld_unselect
                0x00000000       0x20 build/obj/spi_lld.o
 .text.spi_lld_ignore
                0x00000000       0x40 build/obj/spi_lld.o
 .text.spi_lld_exchange
                0x00000000       0x40 build/obj/spi_lld.o
 .text.spi_lld_send
                0x00000000       0x40 build/obj/spi_lld.o
 .text.spi_lld_receive
                0x00000000       0x40 build/obj/spi_lld.o
 .text.spi_lld_polled_exchange
                0x00000000       0x10 build/obj/spi_lld.o
 .bss.dummyrx   0x00000000        0x2 build/obj/spi_lld.o
 .text          0x00000000        0x0 build/obj/gpt_lld.o
 .data          0x00000000        0x0 build/obj/gpt_lld.o
 .bss           0x00000000        0x0 build/obj/gpt_lld.o
 .debug_info    0x00000000       0x97 build/obj/gpt_lld.o
 .debug_abbrev  0x00000000       0x4b build/obj/gpt_lld.o
 .debug_aranges
                0x00000000       0x18 build/obj/gpt_lld.o
 .debug_line    0x00000000       0xe9 build/obj/gpt_lld.o
 .debug_str     0x00000000      0x159 build/obj/gpt_lld.o
 .comment       0x00000000       0x71 build/obj/gpt_lld.o
 .ARM.attributes
                0x00000000       0x33 build/obj/gpt_lld.o
 .text          0x00000000        0x0 build/obj/icu_lld.o
 .data          0x00000000        0x0 build/obj/icu_lld.o
 .bss           0x00000000        0x0 build/obj/icu_lld.o
 .text.icu_lld_stop
                0x00000000       0x40 build/obj/icu_lld.o
 .text.icu_lld_disable
                0x00000000       0x20 build/obj/icu_lld.o
 .text          0x00000000        0x0 build/obj/pwm_lld.o
 .data          0x00000000        0x0 build/obj/pwm_lld.o
 .bss           0x00000000        0x0 build/obj/pwm_lld.o
 .text.pwm_lld_stop
                0x00000000       0x60 build/obj/pwm_lld.o
 .text.pwm_lld_disable_channel
                0x00000000       0x20 build/obj/pwm_lld.o
 .text          0x00000000        0x0 build/obj/serial_lld.o
 .data          0x00000000        0x0 build/obj/serial_lld.o
 .bss           0x00000000        0x0 build/obj/serial_lld.o
 .text.sd_lld_stop
                0x00000000       0x60 build/obj/serial_lld.o
 .text          0x00000000        0x0 build/obj/uart_lld.o
 .data          0x00000000        0x0 build/obj/uart_lld.o
 .bss           0x00000000        0x0 build/obj/uart_lld.o
 .debug_info    0x00000000       0x97 build/obj/uart_lld.o
 .debug_abbrev  0x00000000       0x4b build/obj/uart_lld.o
 .debug_aranges
                0x00000000       0x18 build/obj/uart_lld.o
 .debug_line    0x00000000       0xe9 build/obj/uart_lld.o
 .debug_str     0x00000000      0x15c build/obj/uart_lld.o
 .comment       0x00000000       0x71 build/obj/uart_lld.o
 .ARM.attributes
                0x00000000       0x33 build/obj/uart_lld.o
 .text          0x00000000        0x0 build/obj/board.o
 .data          0x00000000        0x0 build/obj/board.o
 .bss           0x00000000        0x0 build/obj/board.o
 .text          0x00000000        0x0 build/obj/fatfs_diskio.o
 .data          0x00000000        0x0 build/obj/fatfs_diskio.o
 .bss           0x00000000        0x0 build/obj/fatfs_diskio.o
 .text          0x00000000        0x0 build/obj/fatfs_syscall.o
 .data          0x00000000        0x0 build/obj/fatfs_syscall.o
 .bss           0x00000000        0x0 build/obj/fatfs_syscall.o
 .text          0x00000000        0x0 build/obj/ff.o
 .data          0x00000000        0x0 build/obj/ff.o
 .bss           0x00000000        0x0 build/obj/ff.o
 .text.clust2sect
                0x00000000       0x20 build/obj/ff.o
 .text.dir_remove
                0x00000000       0x50 build/obj/ff.o
 .text.f_lseek  0x00000000      0x190 build/obj/ff.o
 .text.f_truncate
                0x00000000       0xa0 build/obj/ff.o
 .text.f_unlink
                0x00000000       0xe0 build/obj/ff.o
 .text.f_mkdir  0x00000000      0x1f0 build/obj/ff.o
 .text.f_chmod  0x00000000       0x80 build/obj/ff.o
 .text.f_utime  0x00000000       0x70 build/obj/ff.o
 .text.f_rename
                0x00000000      0x190 build/obj/ff.o
 .text.f_mkfs   0x00000000      0x4f0 build/obj/ff.o
 .text.f_putc   0x00000000       0x30 build/obj/ff.o
 .text.f_puts   0x00000000       0x30 build/obj/ff.o
 .text.f_printf
                0x00000000      0x6c0 build/obj/ff.o
 .rodata.cst.5489
                0x00000000       0x18 build/obj/ff.o
 .rodata.vst.5488
                0x00000000       0x18 build/obj/ff.o
 .text          0x00000000        0x0 build/obj/ccsbcs.o
 .data          0x00000000        0x0 build/obj/ccsbcs.o
 .bss           0x00000000        0x0 build/obj/ccsbcs.o
 .text          0x00000000        0x0 build/obj/evtimer.o
 .data          0x00000000        0x0 build/obj/evtimer.o
 .bss           0x00000000        0x0 build/obj/evtimer.o
 .text.tmrcb    0x00000000       0x30 build/obj/evtimer.o
 .text.evtStart
                0x00000000       0x30 build/obj/evtimer.o
 .text.evtStop  0x00000000       0x20 build/obj/evtimer.o
 .debug_info    0x00000000      0x70d build/obj/evtimer.o
 .debug_abbrev  0x00000000      0x185 build/obj/evtimer.o
 .debug_loc     0x00000000      0x163 build/obj/evtimer.o
 .debug_aranges
                0x00000000       0x30 build/obj/evtimer.o
 .debug_ranges  0x00000000       0x50 build/obj/evtimer.o
 .debug_line    0x00000000      0x1c4 build/obj/evtimer.o
 .debug_str     0x00000000      0x392 build/obj/evtimer.o
 .comment       0x00000000       0x71 build/obj/evtimer.o
 .ARM.attributes
                0x00000000       0x33 build/obj/evtimer.o
 .debug_frame   0x00000000       0x64 build/obj/evtimer.o
 .text          0x00000000        0x0 build/obj/syscalls.o
 .data          0x00000000        0x0 build/obj/syscalls.o
 .bss           0x00000000        0x0 build/obj/syscalls.o
 .text._read_r  0x00000000       0x20 build/obj/syscalls.o
 .text._lseek_r
                0x00000000       0x10 build/obj/syscalls.o
 .text._write_r
                0x00000000       0x30 build/obj/syscalls.o
 .text._close_r
                0x00000000       0x10 build/obj/syscalls.o
 .text._fstat_r
                0x00000000       0x20 build/obj/syscalls.o
 .text._isatty_r
                0x00000000       0x10 build/obj/syscalls.o
 .text          0x00000000        0x0 build/obj/shell.o
 .data          0x00000000        0x0 build/obj/shell.o
 .bss           0x00000000        0x0 build/obj/shell.o
 .text.shellCreateStatic
                0x00000000       0x20 build/obj/shell.o
 .text          0x00000000        0x0 build/obj/chprintf.o
 .data          0x00000000        0x0 build/obj/chprintf.o
 .bss           0x00000000        0x0 build/obj/chprintf.o
 .text.chsnprintf
                0x00000000       0x40 build/obj/chprintf.o
 .text          0x00000000        0x0 build/obj/chrtclib.o
 .data          0x00000000        0x0 build/obj/chrtclib.o
 .bss           0x00000000        0x0 build/obj/chrtclib.o
 .text.rtcSetTimeTm
                0x00000000       0x30 build/obj/chrtclib.o
 .text.rtcGetTimeUnixUsec
                0x00000000       0x50 build/obj/chrtclib.o
 .text          0x00000000        0x0 build/obj/main.o
 .data          0x00000000        0x0 build/obj/main.o
 .bss           0x00000000        0x0 build/obj/main.o
 .text          0x00000000        0x0 build/obj/console.o
 .data          0x00000000        0x0 build/obj/console.o
 .bss           0x00000000        0x0 build/obj/console.o
 .text._getpid  0x00000000       0x10 build/obj/console.o
 .text._exit    0x00000000       0x10 build/obj/console.o
 .text._kill    0x00000000       0x20 build/obj/console.o
 .text.func_sleep
                0x00000000       0x40 build/obj/console.o
 .text          0x00000000        0x0 build/obj/sdcard.o
 .data          0x00000000        0x0 build/obj/sdcard.o
 .bss           0x00000000        0x0 build/obj/sdcard.o
 .text.fillbuffer
                0x00000000       0x20 build/obj/sdcard.o
 .text.fillbuffers
                0x00000000       0x30 build/obj/sdcard.o
 .text.cmd_debug
                0x00000000      0x100 build/obj/sdcard.o
 .text          0x00000000        0x0 build/obj/can_comm.o
 .data          0x00000000        0x0 build/obj/can_comm.o
 .bss           0x00000000        0x0 build/obj/can_comm.o
 .text          0x00000000        0x0 build/obj/light.o
 .data          0x00000000        0x0 build/obj/light.o
 .bss           0x00000000        0x0 build/obj/light.o
 .text          0x00000000        0x0 build/obj/speed.o
 .data          0x00000000        0x0 build/obj/speed.o
 .bss           0x00000000        0x0 build/obj/speed.o
 .text.speedGetLastPeriod
                0x00000000       0x20 build/obj/speed.o
 .text.speedGetPeriodNumber
                0x00000000       0x20 build/obj/speed.o
 .text          0x00000000        0x0 build/obj/meas.o
 .data          0x00000000        0x0 build/obj/meas.o
 .bss           0x00000000        0x0 build/obj/meas.o
 .text.measGetValue
                0x00000000       0x10 build/obj/meas.o
 .text          0x00000000        0x0 build/obj/cruise.o
 .data          0x00000000        0x0 build/obj/cruise.o
 .bss           0x00000000        0x0 build/obj/cruise.o
 .text          0x00000000        0x0 build/obj/dsp.o
 .data          0x00000000        0x0 build/obj/dsp.o
 .bss           0x00000000        0x0 build/obj/dsp.o
 .bss.dspmessages
                0x00000000        0x1 build/obj/dsp.o
 .bss.db        0x00000000        0x4 build/obj/dsp.o
 .data.db2      0x00000000        0x4 build/obj/dsp.o
 .bss.dsp_activ
                0x00000000        0x1 build/obj/dsp.o
 .bss.c         0x00000000        0x1 build/obj/dsp.o
 .bss.dspstate  0x00000000        0x1 build/obj/dsp.o
 .text          0x00000000        0x0 build/obj/gfx.o
 .data          0x00000000        0x0 build/obj/gfx.o
 .bss           0x00000000        0x0 build/obj/gfx.o
 .text.media_Video
                0x00000000       0x60 build/obj/gfx.o
 .text.gfx_Contrast
                0x00000000       0x40 build/obj/gfx.o
 .text.gfx_Transparency
                0x00000000       0x40 build/obj/gfx.o
 .text.gfx_TransparentColour
                0x00000000       0x40 build/obj/gfx.o
 .text.file_LoadImageControl
                0x00000000       0x60 build/obj/gfx.o
 .text.putstr   0x00000000       0x40 build/obj/gfx.o
 .text.WriteChars
                0x00000000       0x20 build/obj/gfx.o
 .text          0x00000000        0x0 build/obj/uart_comm.o
 .data          0x00000000        0x0 build/obj/uart_comm.o
 .bss           0x00000000        0x0 build/obj/uart_comm.o
 .data          0x00000000        0x0 c:/chibistudio/tools/gnu tools arm embedded/4.7 2014q2/bin/../lib/gcc/arm-none-eabi/4.7.4/armv7e-m\libgcc.a(_arm_addsubdf3.o)
 .bss           0x00000000        0x0 c:/chibistudio/tools/gnu tools arm embedded/4.7 2014q2/bin/../lib/gcc/arm-none-eabi/4.7.4/armv7e-m\libgcc.a(_arm_addsubdf3.o)
 .data          0x00000000        0x0 c:/chibistudio/tools/gnu tools arm embedded/4.7 2014q2/bin/../lib/gcc/arm-none-eabi/4.7.4/armv7e-m\libgcc.a(_arm_muldivdf3.o)
 .bss           0x00000000        0x0 c:/chibistudio/tools/gnu tools arm embedded/4.7 2014q2/bin/../lib/gcc/arm-none-eabi/4.7.4/armv7e-m\libgcc.a(_arm_muldivdf3.o)
 .data          0x00000000        0x0 c:/chibistudio/tools/gnu tools arm embedded/4.7 2014q2/bin/../lib/gcc/arm-none-eabi/4.7.4/armv7e-m\libgcc.a(_arm_cmpdf2.o)
 .bss           0x00000000        0x0 c:/chibistudio/tools/gnu tools arm embedded/4.7 2014q2/bin/../lib/gcc/arm-none-eabi/4.7.4/armv7e-m\libgcc.a(_arm_cmpdf2.o)
 .data          0x00000000        0x0 c:/chibistudio/tools/gnu tools arm embedded/4.7 2014q2/bin/../lib/gcc/arm-none-eabi/4.7.4/armv7e-m\libgcc.a(_arm_fixdfsi.o)
 .bss           0x00000000        0x0 c:/chibistudio/tools/gnu tools arm embedded/4.7 2014q2/bin/../lib/gcc/arm-none-eabi/4.7.4/armv7e-m\libgcc.a(_arm_fixdfsi.o)
 .data          0x00000000        0x0 c:/chibistudio/tools/gnu tools arm embedded/4.7 2014q2/bin/../lib/gcc/arm-none-eabi/4.7.4/armv7e-m\libgcc.a(_arm_fixunsdfsi.o)
 .bss           0x00000000        0x0 c:/chibistudio/tools/gnu tools arm embedded/4.7 2014q2/bin/../lib/gcc/arm-none-eabi/4.7.4/armv7e-m\libgcc.a(_arm_fixunsdfsi.o)
 .text          0x00000000        0x0 c:/chibistudio/tools/gnu tools arm embedded/4.7 2014q2/bin/../lib/gcc/arm-none-eabi/4.7.4/../../../../arm-none-eabi/lib/armv7e-m\libg.a(lib_a-asctime.o)
 .data          0x00000000        0x0 c:/chibistudio/tools/gnu tools arm embedded/4.7 2014q2/bin/../lib/gcc/arm-none-eabi/4.7.4/../../../../arm-none-eabi/lib/armv7e-m\libg.a(lib_a-asctime.o)
 .bss           0x00000000        0x0 c:/chibistudio/tools/gnu tools arm embedded/4.7 2014q2/bin/../lib/gcc/arm-none-eabi/4.7.4/../../../../arm-none-eabi/lib/armv7e-m\libg.a(lib_a-asctime.o)
 .text          0x00000000        0x0 c:/chibistudio/tools/gnu tools arm embedded/4.7 2014q2/bin/../lib/gcc/arm-none-eabi/4.7.4/../../../../arm-none-eabi/lib/armv7e-m\libg.a(lib_a-asctime_r.o)
 .data          0x00000000        0x0 c:/chibistudio/tools/gnu tools arm embedded/4.7 2014q2/bin/../lib/gcc/arm-none-eabi/4.7.4/../../../../arm-none-eabi/lib/armv7e-m\libg.a(lib_a-asctime_r.o)
 .bss           0x00000000        0x0 c:/chibistudio/tools/gnu tools arm embedded/4.7 2014q2/bin/../lib/gcc/arm-none-eabi/4.7.4/../../../../arm-none-eabi/lib/armv7e-m\libg.a(lib_a-asctime_r.o)
 .text          0x00000000        0x0 c:/chibistudio/tools/gnu tools arm embedded/4.7 2014q2/bin/../lib/gcc/arm-none-eabi/4.7.4/../../../../arm-none-eabi/lib/armv7e-m\libg.a(lib_a-atol.o)
 .data          0x00000000        0x0 c:/chibistudio/tools/gnu tools arm embedded/4.7 2014q2/bin/../lib/gcc/arm-none-eabi/4.7.4/../../../../arm-none-eabi/lib/armv7e-m\libg.a(lib_a-atol.o)
 .bss           0x00000000        0x0 c:/chibistudio/tools/gnu tools arm embedded/4.7 2014q2/bin/../lib/gcc/arm-none-eabi/4.7.4/../../../../arm-none-eabi/lib/armv7e-m\libg.a(lib_a-atol.o)
 .text._atol_r  0x00000000        0x8 c:/chibistudio/tools/gnu tools arm embedded/4.7 2014q2/bin/../lib/gcc/arm-none-eabi/4.7.4/../../../../arm-none-eabi/lib/armv7e-m\libg.a(lib_a-atol.o)
 .text          0x00000000        0x0 c:/chibistudio/tools/gnu tools arm embedded/4.7 2014q2/bin/../lib/gcc/arm-none-eabi/4.7.4/../../../../arm-none-eabi/lib/armv7e-m\libg.a(lib_a-impure.o)
 .data          0x00000000        0x0 c:/chibistudio/tools/gnu tools arm embedded/4.7 2014q2/bin/../lib/gcc/arm-none-eabi/4.7.4/../../../../arm-none-eabi/lib/armv7e-m\libg.a(lib_a-impure.o)
 .bss           0x00000000        0x0 c:/chibistudio/tools/gnu tools arm embedded/4.7 2014q2/bin/../lib/gcc/arm-none-eabi/4.7.4/../../../../arm-none-eabi/lib/armv7e-m\libg.a(lib_a-impure.o)
 .rodata._global_impure_ptr
                0x00000000        0x4 c:/chibistudio/tools/gnu tools arm embedded/4.7 2014q2/bin/../lib/gcc/arm-none-eabi/4.7.4/../../../../arm-none-eabi/lib/armv7e-m\libg.a(lib_a-impure.o)
 .text          0x00000000        0x0 c:/chibistudio/tools/gnu tools arm embedded/4.7 2014q2/bin/../lib/gcc/arm-none-eabi/4.7.4/../../../../arm-none-eabi/lib/armv7e-m\libg.a(lib_a-lcltime_r.o)
 .data          0x00000000        0x0 c:/chibistudio/tools/gnu tools arm embedded/4.7 2014q2/bin/../lib/gcc/arm-none-eabi/4.7.4/../../../../arm-none-eabi/lib/armv7e-m\libg.a(lib_a-lcltime_r.o)
 .bss           0x00000000        0x0 c:/chibistudio/tools/gnu tools arm embedded/4.7 2014q2/bin/../lib/gcc/arm-none-eabi/4.7.4/../../../../arm-none-eabi/lib/armv7e-m\libg.a(lib_a-lcltime_r.o)
 .text          0x00000000        0x0 c:/chibistudio/tools/gnu tools arm embedded/4.7 2014q2/bin/../lib/gcc/arm-none-eabi/4.7.4/../../../../arm-none-eabi/lib/armv7e-m\libg.a(lib_a-memcmp.o)
 .data          0x00000000        0x0 c:/chibistudio/tools/gnu tools arm embedded/4.7 2014q2/bin/../lib/gcc/arm-none-eabi/4.7.4/../../../../arm-none-eabi/lib/armv7e-m\libg.a(lib_a-memcmp.o)
 .bss           0x00000000        0x0 c:/chibistudio/tools/gnu tools arm embedded/4.7 2014q2/bin/../lib/gcc/arm-none-eabi/4.7.4/../../../../arm-none-eabi/lib/armv7e-m\libg.a(lib_a-memcmp.o)
 .text          0x00000000        0x0 c:/chibistudio/tools/gnu tools arm embedded/4.7 2014q2/bin/../lib/gcc/arm-none-eabi/4.7.4/../../../../arm-none-eabi/lib/armv7e-m\libg.a(lib_a-memcpy.o)
 .data          0x00000000        0x0 c:/chibistudio/tools/gnu tools arm embedded/4.7 2014q2/bin/../lib/gcc/arm-none-eabi/4.7.4/../../../../arm-none-eabi/lib/armv7e-m\libg.a(lib_a-memcpy.o)
 .bss           0x00000000        0x0 c:/chibistudio/tools/gnu tools arm embedded/4.7 2014q2/bin/../lib/gcc/arm-none-eabi/4.7.4/../../../../arm-none-eabi/lib/armv7e-m\libg.a(lib_a-memcpy.o)
 .text          0x00000000        0x0 c:/chibistudio/tools/gnu tools arm embedded/4.7 2014q2/bin/../lib/gcc/arm-none-eabi/4.7.4/../../../../arm-none-eabi/lib/armv7e-m\libg.a(lib_a-memset.o)
 .data          0x00000000        0x0 c:/chibistudio/tools/gnu tools arm embedded/4.7 2014q2/bin/../lib/gcc/arm-none-eabi/4.7.4/../../../../arm-none-eabi/lib/armv7e-m\libg.a(lib_a-memset.o)
 .bss           0x00000000        0x0 c:/chibistudio/tools/gnu tools arm embedded/4.7 2014q2/bin/../lib/gcc/arm-none-eabi/4.7.4/../../../../arm-none-eabi/lib/armv7e-m\libg.a(lib_a-memset.o)
 .text          0x00000000        0x0 c:/chibistudio/tools/gnu tools arm embedded/4.7 2014q2/bin/../lib/gcc/arm-none-eabi/4.7.4/../../../../arm-none-eabi/lib/armv7e-m\libg.a(lib_a-mktime.o)
 .data          0x00000000        0x0 c:/chibistudio/tools/gnu tools arm embedded/4.7 2014q2/bin/../lib/gcc/arm-none-eabi/4.7.4/../../../../arm-none-eabi/lib/armv7e-m\libg.a(lib_a-mktime.o)
 .bss           0x00000000        0x0 c:/chibistudio/tools/gnu tools arm embedded/4.7 2014q2/bin/../lib/gcc/arm-none-eabi/4.7.4/../../../../arm-none-eabi/lib/armv7e-m\libg.a(lib_a-mktime.o)
 .text          0x00000000        0x0 c:/chibistudio/tools/gnu tools arm embedded/4.7 2014q2/bin/../lib/gcc/arm-none-eabi/4.7.4/../../../../arm-none-eabi/lib/armv7e-m\libg.a(lib_a-mktm_r.o)
 .data          0x00000000        0x0 c:/chibistudio/tools/gnu tools arm embedded/4.7 2014q2/bin/../lib/gcc/arm-none-eabi/4.7.4/../../../../arm-none-eabi/lib/armv7e-m\libg.a(lib_a-mktm_r.o)
 .bss           0x00000000        0x0 c:/chibistudio/tools/gnu tools arm embedded/4.7 2014q2/bin/../lib/gcc/arm-none-eabi/4.7.4/../../../../arm-none-eabi/lib/armv7e-m\libg.a(lib_a-mktm_r.o)
 .text          0x00000000        0x0 c:/chibistudio/tools/gnu tools arm embedded/4.7 2014q2/bin/../lib/gcc/arm-none-eabi/4.7.4/../../../../arm-none-eabi/lib/armv7e-m\libg.a(lib_a-reent.o)
 .data          0x00000000        0x0 c:/chibistudio/tools/gnu tools arm embedded/4.7 2014q2/bin/../lib/gcc/arm-none-eabi/4.7.4/../../../../arm-none-eabi/lib/armv7e-m\libg.a(lib_a-reent.o)
 .bss           0x00000000        0x0 c:/chibistudio/tools/gnu tools arm embedded/4.7 2014q2/bin/../lib/gcc/arm-none-eabi/4.7.4/../../../../arm-none-eabi/lib/armv7e-m\libg.a(lib_a-reent.o)
 .text.cleanup_glue
                0x00000000       0x1c c:/chibistudio/tools/gnu tools arm embedded/4.7 2014q2/bin/../lib/gcc/arm-none-eabi/4.7.4/../../../../arm-none-eabi/lib/armv7e-m\libg.a(lib_a-reent.o)
 .text._reclaim_reent
                0x00000000       0x8c c:/chibistudio/tools/gnu tools arm embedded/4.7 2014q2/bin/../lib/gcc/arm-none-eabi/4.7.4/../../../../arm-none-eabi/lib/armv7e-m\libg.a(lib_a-reent.o)
 .text._wrapup_reent
                0x00000000       0x74 c:/chibistudio/tools/gnu tools arm embedded/4.7 2014q2/bin/../lib/gcc/arm-none-eabi/4.7.4/../../../../arm-none-eabi/lib/armv7e-m\libg.a(lib_a-reent.o)
 .ARM.attributes
                0x00000000       0x2e c:/chibistudio/tools/gnu tools arm embedded/4.7 2014q2/bin/../lib/gcc/arm-none-eabi/4.7.4/../../../../arm-none-eabi/lib/armv7e-m\libg.a(lib_a-reent.o)
 .debug_frame   0x00000000       0x6c c:/chibistudio/tools/gnu tools arm embedded/4.7 2014q2/bin/../lib/gcc/arm-none-eabi/4.7.4/../../../../arm-none-eabi/lib/armv7e-m\libg.a(lib_a-reent.o)
 COMMON         0x00000000        0x4 c:/chibistudio/tools/gnu tools arm embedded/4.7 2014q2/bin/../lib/gcc/arm-none-eabi/4.7.4/../../../../arm-none-eabi/lib/armv7e-m\libg.a(lib_a-reent.o)
 .text          0x00000000        0x0 c:/chibistudio/tools/gnu tools arm embedded/4.7 2014q2/bin/../lib/gcc/arm-none-eabi/4.7.4/../../../../arm-none-eabi/lib/armv7e-m\libg.a(lib_a-sprintf.o)
 .data          0x00000000        0x0 c:/chibistudio/tools/gnu tools arm embedded/4.7 2014q2/bin/../lib/gcc/arm-none-eabi/4.7.4/../../../../arm-none-eabi/lib/armv7e-m\libg.a(lib_a-sprintf.o)
 .bss           0x00000000        0x0 c:/chibistudio/tools/gnu tools arm embedded/4.7 2014q2/bin/../lib/gcc/arm-none-eabi/4.7.4/../../../../arm-none-eabi/lib/armv7e-m\libg.a(lib_a-sprintf.o)
 .text._sprintf_r
                0x00000000       0x44 c:/chibistudio/tools/gnu tools arm embedded/4.7 2014q2/bin/../lib/gcc/arm-none-eabi/4.7.4/../../../../arm-none-eabi/lib/armv7e-m\libg.a(lib_a-sprintf.o)
 .text          0x00000000        0x0 c:/chibistudio/tools/gnu tools arm embedded/4.7 2014q2/bin/../lib/gcc/arm-none-eabi/4.7.4/../../../../arm-none-eabi/lib/armv7e-m\libg.a(lib_a-strcasecmp.o)
 .data          0x00000000        0x0 c:/chibistudio/tools/gnu tools arm embedded/4.7 2014q2/bin/../lib/gcc/arm-none-eabi/4.7.4/../../../../arm-none-eabi/lib/armv7e-m\libg.a(lib_a-strcasecmp.o)
 .bss           0x00000000        0x0 c:/chibistudio/tools/gnu tools arm embedded/4.7 2014q2/bin/../lib/gcc/arm-none-eabi/4.7.4/../../../../arm-none-eabi/lib/armv7e-m\libg.a(lib_a-strcasecmp.o)
 .text          0x00000000        0x0 c:/chibistudio/tools/gnu tools arm embedded/4.7 2014q2/bin/../lib/gcc/arm-none-eabi/4.7.4/../../../../arm-none-eabi/lib/armv7e-m\libg.a(lib_a-strcmp.o)
 .data          0x00000000        0x0 c:/chibistudio/tools/gnu tools arm embedded/4.7 2014q2/bin/../lib/gcc/arm-none-eabi/4.7.4/../../../../arm-none-eabi/lib/armv7e-m\libg.a(lib_a-strcmp.o)
 .bss           0x00000000        0x0 c:/chibistudio/tools/gnu tools arm embedded/4.7 2014q2/bin/../lib/gcc/arm-none-eabi/4.7.4/../../../../arm-none-eabi/lib/armv7e-m\libg.a(lib_a-strcmp.o)
 .text          0x00000000        0x0 c:/chibistudio/tools/gnu tools arm embedded/4.7 2014q2/bin/../lib/gcc/arm-none-eabi/4.7.4/../../../../arm-none-eabi/lib/armv7e-m\libg.a(lib_a-strcpy.o)
 .data          0x00000000        0x0 c:/chibistudio/tools/gnu tools arm embedded/4.7 2014q2/bin/../lib/gcc/arm-none-eabi/4.7.4/../../../../arm-none-eabi/lib/armv7e-m\libg.a(lib_a-strcpy.o)
 .bss           0x00000000        0x0 c:/chibistudio/tools/gnu tools arm embedded/4.7 2014q2/bin/../lib/gcc/arm-none-eabi/4.7.4/../../../../arm-none-eabi/lib/armv7e-m\libg.a(lib_a-strcpy.o)
 .text          0x00000000        0x0 c:/chibistudio/tools/gnu tools arm embedded/4.7 2014q2/bin/../lib/gcc/arm-none-eabi/4.7.4/../../../../arm-none-eabi/lib/armv7e-m\libg.a(lib_a-strlen.o)
 .data          0x00000000        0x0 c:/chibistudio/tools/gnu tools arm embedded/4.7 2014q2/bin/../lib/gcc/arm-none-eabi/4.7.4/../../../../arm-none-eabi/lib/armv7e-m\libg.a(lib_a-strlen.o)
 .bss           0x00000000        0x0 c:/chibistudio/tools/gnu tools arm embedded/4.7 2014q2/bin/../lib/gcc/arm-none-eabi/4.7.4/../../../../arm-none-eabi/lib/armv7e-m\libg.a(lib_a-strlen.o)
 .text          0x00000000        0x0 c:/chibistudio/tools/gnu tools arm embedded/4.7 2014q2/bin/../lib/gcc/arm-none-eabi/4.7.4/../../../../arm-none-eabi/lib/armv7e-m\libg.a(lib_a-strpbrk.o)
 .data          0x00000000        0x0 c:/chibistudio/tools/gnu tools arm embedded/4.7 2014q2/bin/../lib/gcc/arm-none-eabi/4.7.4/../../../../arm-none-eabi/lib/armv7e-m\libg.a(lib_a-strpbrk.o)
 .bss           0x00000000        0x0 c:/chibistudio/tools/gnu tools arm embedded/4.7 2014q2/bin/../lib/gcc/arm-none-eabi/4.7.4/../../../../arm-none-eabi/lib/armv7e-m\libg.a(lib_a-strpbrk.o)
 .text          0x00000000        0x0 c:/chibistudio/tools/gnu tools arm embedded/4.7 2014q2/bin/../lib/gcc/arm-none-eabi/4.7.4/../../../../arm-none-eabi/lib/armv7e-m\libg.a(lib_a-strspn.o)
 .data          0x00000000        0x0 c:/chibistudio/tools/gnu tools arm embedded/4.7 2014q2/bin/../lib/gcc/arm-none-eabi/4.7.4/../../../../arm-none-eabi/lib/armv7e-m\libg.a(lib_a-strspn.o)
 .bss           0x00000000        0x0 c:/chibistudio/tools/gnu tools arm embedded/4.7 2014q2/bin/../lib/gcc/arm-none-eabi/4.7.4/../../../../arm-none-eabi/lib/armv7e-m\libg.a(lib_a-strspn.o)
 .text          0x00000000        0x0 c:/chibistudio/tools/gnu tools arm embedded/4.7 2014q2/bin/../lib/gcc/arm-none-eabi/4.7.4/../../../../arm-none-eabi/lib/armv7e-m\libg.a(lib_a-strtol.o)
 .data          0x00000000        0x0 c:/chibistudio/tools/gnu tools arm embedded/4.7 2014q2/bin/../lib/gcc/arm-none-eabi/4.7.4/../../../../arm-none-eabi/lib/armv7e-m\libg.a(lib_a-strtol.o)
 .bss           0x00000000        0x0 c:/chibistudio/tools/gnu tools arm embedded/4.7 2014q2/bin/../lib/gcc/arm-none-eabi/4.7.4/../../../../arm-none-eabi/lib/armv7e-m\libg.a(lib_a-strtol.o)
 .text          0x00000000        0x0 c:/chibistudio/tools/gnu tools arm embedded/4.7 2014q2/bin/../lib/gcc/arm-none-eabi/4.7.4/../../../../arm-none-eabi/lib/armv7e-m\libg.a(lib_a-svfprintf.o)
 .data          0x00000000        0x0 c:/chibistudio/tools/gnu tools arm embedded/4.7 2014q2/bin/../lib/gcc/arm-none-eabi/4.7.4/../../../../arm-none-eabi/lib/armv7e-m\libg.a(lib_a-svfprintf.o)
 .bss           0x00000000        0x0 c:/chibistudio/tools/gnu tools arm embedded/4.7 2014q2/bin/../lib/gcc/arm-none-eabi/4.7.4/../../../../arm-none-eabi/lib/armv7e-m\libg.a(lib_a-svfprintf.o)
 .text          0x00000000        0x0 c:/chibistudio/tools/gnu tools arm embedded/4.7 2014q2/bin/../lib/gcc/arm-none-eabi/4.7.4/../../../../arm-none-eabi/lib/armv7e-m\libg.a(lib_a-tzlock.o)
 .data          0x00000000        0x0 c:/chibistudio/tools/gnu tools arm embedded/4.7 2014q2/bin/../lib/gcc/arm-none-eabi/4.7.4/../../../../arm-none-eabi/lib/armv7e-m\libg.a(lib_a-tzlock.o)
 .bss           0x00000000        0x0 c:/chibistudio/tools/gnu tools arm embedded/4.7 2014q2/bin/../lib/gcc/arm-none-eabi/4.7.4/../../../../arm-none-eabi/lib/armv7e-m\libg.a(lib_a-tzlock.o)
 .text          0x00000000        0x0 c:/chibistudio/tools/gnu tools arm embedded/4.7 2014q2/bin/../lib/gcc/arm-none-eabi/4.7.4/../../../../arm-none-eabi/lib/armv7e-m\libg.a(lib_a-tzvars.o)
 .data          0x00000000        0x0 c:/chibistudio/tools/gnu tools arm embedded/4.7 2014q2/bin/../lib/gcc/arm-none-eabi/4.7.4/../../../../arm-none-eabi/lib/armv7e-m\libg.a(lib_a-tzvars.o)
 .bss           0x00000000        0x0 c:/chibistudio/tools/gnu tools arm embedded/4.7 2014q2/bin/../lib/gcc/arm-none-eabi/4.7.4/../../../../arm-none-eabi/lib/armv7e-m\libg.a(lib_a-tzvars.o)
 .data._tzname  0x00000000        0x8 c:/chibistudio/tools/gnu tools arm embedded/4.7 2014q2/bin/../lib/gcc/arm-none-eabi/4.7.4/../../../../arm-none-eabi/lib/armv7e-m\libg.a(lib_a-tzvars.o)
 .bss._timezone
                0x00000000        0x4 c:/chibistudio/tools/gnu tools arm embedded/4.7 2014q2/bin/../lib/gcc/arm-none-eabi/4.7.4/../../../../arm-none-eabi/lib/armv7e-m\libg.a(lib_a-tzvars.o)
 .rodata.str1.4
                0x00000000        0x4 c:/chibistudio/tools/gnu tools arm embedded/4.7 2014q2/bin/../lib/gcc/arm-none-eabi/4.7.4/../../../../arm-none-eabi/lib/armv7e-m\libg.a(lib_a-tzvars.o)
 .text          0x00000000        0x0 c:/chibistudio/tools/gnu tools arm embedded/4.7 2014q2/bin/../lib/gcc/arm-none-eabi/4.7.4/../../../../arm-none-eabi/lib/armv7e-m\libg.a(lib_a-ctype_.o)
 .data          0x00000000        0x0 c:/chibistudio/tools/gnu tools arm embedded/4.7 2014q2/bin/../lib/gcc/arm-none-eabi/4.7.4/../../../../arm-none-eabi/lib/armv7e-m\libg.a(lib_a-ctype_.o)
 .bss           0x00000000        0x0 c:/chibistudio/tools/gnu tools arm embedded/4.7 2014q2/bin/../lib/gcc/arm-none-eabi/4.7.4/../../../../arm-none-eabi/lib/armv7e-m\libg.a(lib_a-ctype_.o)
 .text          0x00000000        0x0 c:/chibistudio/tools/gnu tools arm embedded/4.7 2014q2/bin/../lib/gcc/arm-none-eabi/4.7.4/../../../../arm-none-eabi/lib/armv7e-m\libg.a(lib_a-div.o)
 .data          0x00000000        0x0 c:/chibistudio/tools/gnu tools arm embedded/4.7 2014q2/bin/../lib/gcc/arm-none-eabi/4.7.4/../../../../arm-none-eabi/lib/armv7e-m\libg.a(lib_a-div.o)
 .bss           0x00000000        0x0 c:/chibistudio/tools/gnu tools arm embedded/4.7 2014q2/bin/../lib/gcc/arm-none-eabi/4.7.4/../../../../arm-none-eabi/lib/armv7e-m\libg.a(lib_a-div.o)
 .text          0x00000000        0x0 c:/chibistudio/tools/gnu tools arm embedded/4.7 2014q2/bin/../lib/gcc/arm-none-eabi/4.7.4/../../../../arm-none-eabi/lib/armv7e-m\libg.a(lib_a-dtoa.o)
 .data          0x00000000        0x0 c:/chibistudio/tools/gnu tools arm embedded/4.7 2014q2/bin/../lib/gcc/arm-none-eabi/4.7.4/../../../../arm-none-eabi/lib/armv7e-m\libg.a(lib_a-dtoa.o)
 .bss           0x00000000        0x0 c:/chibistudio/tools/gnu tools arm embedded/4.7 2014q2/bin/../lib/gcc/arm-none-eabi/4.7.4/../../../../arm-none-eabi/lib/armv7e-m\libg.a(lib_a-dtoa.o)
 .text          0x00000000        0x0 c:/chibistudio/tools/gnu tools arm embedded/4.7 2014q2/bin/../lib/gcc/arm-none-eabi/4.7.4/../../../../arm-none-eabi/lib/armv7e-m\libg.a(lib_a-freer.o)
 .data          0x00000000        0x0 c:/chibistudio/tools/gnu tools arm embedded/4.7 2014q2/bin/../lib/gcc/arm-none-eabi/4.7.4/../../../../arm-none-eabi/lib/armv7e-m\libg.a(lib_a-freer.o)
 .bss           0x00000000        0x0 c:/chibistudio/tools/gnu tools arm embedded/4.7 2014q2/bin/../lib/gcc/arm-none-eabi/4.7.4/../../../../arm-none-eabi/lib/armv7e-m\libg.a(lib_a-freer.o)
 .text          0x00000000        0x0 c:/chibistudio/tools/gnu tools arm embedded/4.7 2014q2/bin/../lib/gcc/arm-none-eabi/4.7.4/../../../../arm-none-eabi/lib/armv7e-m\libg.a(lib_a-gettzinfo.o)
 .data          0x00000000        0x0 c:/chibistudio/tools/gnu tools arm embedded/4.7 2014q2/bin/../lib/gcc/arm-none-eabi/4.7.4/../../../../arm-none-eabi/lib/armv7e-m\libg.a(lib_a-gettzinfo.o)
 .bss           0x00000000        0x0 c:/chibistudio/tools/gnu tools arm embedded/4.7 2014q2/bin/../lib/gcc/arm-none-eabi/4.7.4/../../../../arm-none-eabi/lib/armv7e-m\libg.a(lib_a-gettzinfo.o)
 .text          0x00000000        0x0 c:/chibistudio/tools/gnu tools arm embedded/4.7 2014q2/bin/../lib/gcc/arm-none-eabi/4.7.4/../../../../arm-none-eabi/lib/armv7e-m\libg.a(lib_a-locale.o)
 .data          0x00000000        0x0 c:/chibistudio/tools/gnu tools arm embedded/4.7 2014q2/bin/../lib/gcc/arm-none-eabi/4.7.4/../../../../arm-none-eabi/lib/armv7e-m\libg.a(lib_a-locale.o)
 .bss           0x00000000        0x0 c:/chibistudio/tools/gnu tools arm embedded/4.7 2014q2/bin/../lib/gcc/arm-none-eabi/4.7.4/../../../../arm-none-eabi/lib/armv7e-m\libg.a(lib_a-locale.o)
 .text._setlocale_r
                0x00000000       0x40 c:/chibistudio/tools/gnu tools arm embedded/4.7 2014q2/bin/../lib/gcc/arm-none-eabi/4.7.4/../../../../arm-none-eabi/lib/armv7e-m\libg.a(lib_a-locale.o)
 .text.__locale_charset
                0x00000000        0xc c:/chibistudio/tools/gnu tools arm embedded/4.7 2014q2/bin/../lib/gcc/arm-none-eabi/4.7.4/../../../../arm-none-eabi/lib/armv7e-m\libg.a(lib_a-locale.o)
 .text.__locale_mb_cur_max
                0x00000000        0xc c:/chibistudio/tools/gnu tools arm embedded/4.7 2014q2/bin/../lib/gcc/arm-none-eabi/4.7.4/../../../../arm-none-eabi/lib/armv7e-m\libg.a(lib_a-locale.o)
 .text.__locale_msgcharset
                0x00000000        0xc c:/chibistudio/tools/gnu tools arm embedded/4.7 2014q2/bin/../lib/gcc/arm-none-eabi/4.7.4/../../../../arm-none-eabi/lib/armv7e-m\libg.a(lib_a-locale.o)
 .text.__locale_cjk_lang
                0x00000000        0x4 c:/chibistudio/tools/gnu tools arm embedded/4.7 2014q2/bin/../lib/gcc/arm-none-eabi/4.7.4/../../../../arm-none-eabi/lib/armv7e-m\libg.a(lib_a-locale.o)
 .text.setlocale
                0x00000000       0x18 c:/chibistudio/tools/gnu tools arm embedded/4.7 2014q2/bin/../lib/gcc/arm-none-eabi/4.7.4/../../../../arm-none-eabi/lib/armv7e-m\libg.a(lib_a-locale.o)
 .text.localeconv
                0x00000000        0xc c:/chibistudio/tools/gnu tools arm embedded/4.7 2014q2/bin/../lib/gcc/arm-none-eabi/4.7.4/../../../../arm-none-eabi/lib/armv7e-m\libg.a(lib_a-locale.o)
 .data.lc_message_charset
                0x00000000       0x20 c:/chibistudio/tools/gnu tools arm embedded/4.7 2014q2/bin/../lib/gcc/arm-none-eabi/4.7.4/../../../../arm-none-eabi/lib/armv7e-m\libg.a(lib_a-locale.o)
 .bss._PathLocale
                0x00000000        0x4 c:/chibistudio/tools/gnu tools arm embedded/4.7 2014q2/bin/../lib/gcc/arm-none-eabi/4.7.4/../../../../arm-none-eabi/lib/armv7e-m\libg.a(lib_a-locale.o)
 .bss.__nlocale_changed
                0x00000000        0x4 c:/chibistudio/tools/gnu tools arm embedded/4.7 2014q2/bin/../lib/gcc/arm-none-eabi/4.7.4/../../../../arm-none-eabi/lib/armv7e-m\libg.a(lib_a-locale.o)
 .bss.__mlocale_changed
                0x00000000        0x4 c:/chibistudio/tools/gnu tools arm embedded/4.7 2014q2/bin/../lib/gcc/arm-none-eabi/4.7.4/../../../../arm-none-eabi/lib/armv7e-m\libg.a(lib_a-locale.o)
 .data.lc_ctype_charset
                0x00000000       0x20 c:/chibistudio/tools/gnu tools arm embedded/4.7 2014q2/bin/../lib/gcc/arm-none-eabi/4.7.4/../../../../arm-none-eabi/lib/armv7e-m\libg.a(lib_a-locale.o)
 .data.__mb_cur_max
                0x00000000        0x4 c:/chibistudio/tools/gnu tools arm embedded/4.7 2014q2/bin/../lib/gcc/arm-none-eabi/4.7.4/../../../../arm-none-eabi/lib/armv7e-m\libg.a(lib_a-locale.o)
 .text          0x00000000        0x0 c:/chibistudio/tools/gnu tools arm embedded/4.7 2014q2/bin/../lib/gcc/arm-none-eabi/4.7.4/../../../../arm-none-eabi/lib/armv7e-m\libg.a(lib_a-mallocr.o)
 .data          0x00000000        0x0 c:/chibistudio/tools/gnu tools arm embedded/4.7 2014q2/bin/../lib/gcc/arm-none-eabi/4.7.4/../../../../arm-none-eabi/lib/armv7e-m\libg.a(lib_a-mallocr.o)
 .bss           0x00000000        0x0 c:/chibistudio/tools/gnu tools arm embedded/4.7 2014q2/bin/../lib/gcc/arm-none-eabi/4.7.4/../../../../arm-none-eabi/lib/armv7e-m\libg.a(lib_a-mallocr.o)
 .text          0x00000000        0x0 c:/chibistudio/tools/gnu tools arm embedded/4.7 2014q2/bin/../lib/gcc/arm-none-eabi/4.7.4/../../../../arm-none-eabi/lib/armv7e-m\libg.a(lib_a-memchr.o)
 .data          0x00000000        0x0 c:/chibistudio/tools/gnu tools arm embedded/4.7 2014q2/bin/../lib/gcc/arm-none-eabi/4.7.4/../../../../arm-none-eabi/lib/armv7e-m\libg.a(lib_a-memchr.o)
 .bss           0x00000000        0x0 c:/chibistudio/tools/gnu tools arm embedded/4.7 2014q2/bin/../lib/gcc/arm-none-eabi/4.7.4/../../../../arm-none-eabi/lib/armv7e-m\libg.a(lib_a-memchr.o)
 .text          0x00000000        0x0 c:/chibistudio/tools/gnu tools arm embedded/4.7 2014q2/bin/../lib/gcc/arm-none-eabi/4.7.4/../../../../arm-none-eabi/lib/armv7e-m\libg.a(lib_a-mlock.o)
 .data          0x00000000        0x0 c:/chibistudio/tools/gnu tools arm embedded/4.7 2014q2/bin/../lib/gcc/arm-none-eabi/4.7.4/../../../../arm-none-eabi/lib/armv7e-m\libg.a(lib_a-mlock.o)
 .bss           0x00000000        0x0 c:/chibistudio/tools/gnu tools arm embedded/4.7 2014q2/bin/../lib/gcc/arm-none-eabi/4.7.4/../../../../arm-none-eabi/lib/armv7e-m\libg.a(lib_a-mlock.o)
 .text          0x00000000        0x0 c:/chibistudio/tools/gnu tools arm embedded/4.7 2014q2/bin/../lib/gcc/arm-none-eabi/4.7.4/../../../../arm-none-eabi/lib/armv7e-m\libg.a(lib_a-mprec.o)
 .data          0x00000000        0x0 c:/chibistudio/tools/gnu tools arm embedded/4.7 2014q2/bin/../lib/gcc/arm-none-eabi/4.7.4/../../../../arm-none-eabi/lib/armv7e-m\libg.a(lib_a-mprec.o)
 .bss           0x00000000        0x0 c:/chibistudio/tools/gnu tools arm embedded/4.7 2014q2/bin/../lib/gcc/arm-none-eabi/4.7.4/../../../../arm-none-eabi/lib/armv7e-m\libg.a(lib_a-mprec.o)
 .text.__s2b    0x00000000      0x140 c:/chibistudio/tools/gnu tools arm embedded/4.7 2014q2/bin/../lib/gcc/arm-none-eabi/4.7.4/../../../../arm-none-eabi/lib/armv7e-m\libg.a(lib_a-mprec.o)
 .text.__ulp    0x00000000       0x44 c:/chibistudio/tools/gnu tools arm embedded/4.7 2014q2/bin/../lib/gcc/arm-none-eabi/4.7.4/../../../../arm-none-eabi/lib/armv7e-m\libg.a(lib_a-mprec.o)
 .text.__b2d    0x00000000       0xbc c:/chibistudio/tools/gnu tools arm embedded/4.7 2014q2/bin/../lib/gcc/arm-none-eabi/4.7.4/../../../../arm-none-eabi/lib/armv7e-m\libg.a(lib_a-mprec.o)
 .text.__ratio  0x00000000       0x54 c:/chibistudio/tools/gnu tools arm embedded/4.7 2014q2/bin/../lib/gcc/arm-none-eabi/4.7.4/../../../../arm-none-eabi/lib/armv7e-m\libg.a(lib_a-mprec.o)
 .text._mprec_log10
                0x00000000       0x68 c:/chibistudio/tools/gnu tools arm embedded/4.7 2014q2/bin/../lib/gcc/arm-none-eabi/4.7.4/../../../../arm-none-eabi/lib/armv7e-m\libg.a(lib_a-mprec.o)
 .text.__copybits
                0x00000000       0xa4 c:/chibistudio/tools/gnu tools arm embedded/4.7 2014q2/bin/../lib/gcc/arm-none-eabi/4.7.4/../../../../arm-none-eabi/lib/armv7e-m\libg.a(lib_a-mprec.o)
 .text.__any_on
                0x00000000       0x74 c:/chibistudio/tools/gnu tools arm embedded/4.7 2014q2/bin/../lib/gcc/arm-none-eabi/4.7.4/../../../../arm-none-eabi/lib/armv7e-m\libg.a(lib_a-mprec.o)
 .rodata.__mprec_tinytens
                0x00000000       0x28 c:/chibistudio/tools/gnu tools arm embedded/4.7 2014q2/bin/../lib/gcc/arm-none-eabi/4.7.4/../../../../arm-none-eabi/lib/armv7e-m\libg.a(lib_a-mprec.o)
 .text          0x00000000        0x0 c:/chibistudio/tools/gnu tools arm embedded/4.7 2014q2/bin/../lib/gcc/arm-none-eabi/4.7.4/../../../../arm-none-eabi/lib/armv7e-m\libg.a(lib_a-s_fpclassify.o)
 .data          0x00000000        0x0 c:/chibistudio/tools/gnu tools arm embedded/4.7 2014q2/bin/../lib/gcc/arm-none-eabi/4.7.4/../../../../arm-none-eabi/lib/armv7e-m\libg.a(lib_a-s_fpclassify.o)
 .bss           0x00000000        0x0 c:/chibistudio/tools/gnu tools arm embedded/4.7 2014q2/bin/../lib/gcc/arm-none-eabi/4.7.4/../../../../arm-none-eabi/lib/armv7e-m\libg.a(lib_a-s_fpclassify.o)
 .text          0x00000000        0x0 c:/chibistudio/tools/gnu tools arm embedded/4.7 2014q2/bin/../lib/gcc/arm-none-eabi/4.7.4/../../../../arm-none-eabi/lib/armv7e-m\libg.a(lib_a-svfiprintf.o)
 .data          0x00000000        0x0 c:/chibistudio/tools/gnu tools arm embedded/4.7 2014q2/bin/../lib/gcc/arm-none-eabi/4.7.4/../../../../arm-none-eabi/lib/armv7e-m\libg.a(lib_a-svfiprintf.o)
 .bss           0x00000000        0x0 c:/chibistudio/tools/gnu tools arm embedded/4.7 2014q2/bin/../lib/gcc/arm-none-eabi/4.7.4/../../../../arm-none-eabi/lib/armv7e-m\libg.a(lib_a-svfiprintf.o)
 .text._svfiprintf_r
                0x00000000      0xde0 c:/chibistudio/tools/gnu tools arm embedded/4.7 2014q2/bin/../lib/gcc/arm-none-eabi/4.7.4/../../../../arm-none-eabi/lib/armv7e-m\libg.a(lib_a-svfiprintf.o)
 .rodata.zeroes.6665
                0x00000000       0x10 c:/chibistudio/tools/gnu tools arm embedded/4.7 2014q2/bin/../lib/gcc/arm-none-eabi/4.7.4/../../../../arm-none-eabi/lib/armv7e-m\libg.a(lib_a-svfiprintf.o)
 .rodata.str1.4
                0x00000000       0x30 c:/chibistudio/tools/gnu tools arm embedded/4.7 2014q2/bin/../lib/gcc/arm-none-eabi/4.7.4/../../../../arm-none-eabi/lib/armv7e-m\libg.a(lib_a-svfiprintf.o)
 .rodata.blanks.6664
                0x00000000       0x10 c:/chibistudio/tools/gnu tools arm embedded/4.7 2014q2/bin/../lib/gcc/arm-none-eabi/4.7.4/../../../../arm-none-eabi/lib/armv7e-m\libg.a(lib_a-svfiprintf.o)
 .text          0x00000000        0x0 c:/chibistudio/tools/gnu tools arm embedded/4.7 2014q2/bin/../lib/gcc/arm-none-eabi/4.7.4/../../../../arm-none-eabi/lib/armv7e-m\libg.a(lib_a-callocr.o)
 .data          0x00000000        0x0 c:/chibistudio/tools/gnu tools arm embedded/4.7 2014q2/bin/../lib/gcc/arm-none-eabi/4.7.4/../../../../arm-none-eabi/lib/armv7e-m\libg.a(lib_a-callocr.o)
 .bss           0x00000000        0x0 c:/chibistudio/tools/gnu tools arm embedded/4.7 2014q2/bin/../lib/gcc/arm-none-eabi/4.7.4/../../../../arm-none-eabi/lib/armv7e-m\libg.a(lib_a-callocr.o)
 .text          0x00000000        0x0 c:/chibistudio/tools/gnu tools arm embedded/4.7 2014q2/bin/../lib/gcc/arm-none-eabi/4.7.4/../../../../arm-none-eabi/lib/armv7e-m\libg.a(lib_a-memmove.o)
 .data          0x00000000        0x0 c:/chibistudio/tools/gnu tools arm embedded/4.7 2014q2/bin/../lib/gcc/arm-none-eabi/4.7.4/../../../../arm-none-eabi/lib/armv7e-m\libg.a(lib_a-memmove.o)
 .bss           0x00000000        0x0 c:/chibistudio/tools/gnu tools arm embedded/4.7 2014q2/bin/../lib/gcc/arm-none-eabi/4.7.4/../../../../arm-none-eabi/lib/armv7e-m\libg.a(lib_a-memmove.o)
 .text          0x00000000        0x0 c:/chibistudio/tools/gnu tools arm embedded/4.7 2014q2/bin/../lib/gcc/arm-none-eabi/4.7.4/../../../../arm-none-eabi/lib/armv7e-m\libg.a(lib_a-reallocr.o)
 .data          0x00000000        0x0 c:/chibistudio/tools/gnu tools arm embedded/4.7 2014q2/bin/../lib/gcc/arm-none-eabi/4.7.4/../../../../arm-none-eabi/lib/armv7e-m\libg.a(lib_a-reallocr.o)
 .bss           0x00000000        0x0 c:/chibistudio/tools/gnu tools arm embedded/4.7 2014q2/bin/../lib/gcc/arm-none-eabi/4.7.4/../../../../arm-none-eabi/lib/armv7e-m\libg.a(lib_a-reallocr.o)
 .data          0x00000000        0x0 c:/chibistudio/tools/gnu tools arm embedded/4.7 2014q2/bin/../lib/gcc/arm-none-eabi/4.7.4/armv7e-m\libgcc.a(_aeabi_uldivmod.o)
 .bss           0x00000000        0x0 c:/chibistudio/tools/gnu tools arm embedded/4.7 2014q2/bin/../lib/gcc/arm-none-eabi/4.7.4/armv7e-m\libgcc.a(_aeabi_uldivmod.o)
 .data          0x00000000        0x0 c:/chibistudio/tools/gnu tools arm embedded/4.7 2014q2/bin/../lib/gcc/arm-none-eabi/4.7.4/armv7e-m\libgcc.a(bpabi.o)
 .bss           0x00000000        0x0 c:/chibistudio/tools/gnu tools arm embedded/4.7 2014q2/bin/../lib/gcc/arm-none-eabi/4.7.4/armv7e-m\libgcc.a(bpabi.o)
 .data          0x00000000        0x0 c:/chibistudio/tools/gnu tools arm embedded/4.7 2014q2/bin/../lib/gcc/arm-none-eabi/4.7.4/armv7e-m\libgcc.a(_dvmd_tls.o)
 .bss           0x00000000        0x0 c:/chibistudio/tools/gnu tools arm embedded/4.7 2014q2/bin/../lib/gcc/arm-none-eabi/4.7.4/armv7e-m\libgcc.a(_dvmd_tls.o)
 .data          0x00000000        0x0 c:/chibistudio/tools/gnu tools arm embedded/4.7 2014q2/bin/../lib/gcc/arm-none-eabi/4.7.4/armv7e-m\libgcc.a(_divdi3.o)
 .bss           0x00000000        0x0 c:/chibistudio/tools/gnu tools arm embedded/4.7 2014q2/bin/../lib/gcc/arm-none-eabi/4.7.4/armv7e-m\libgcc.a(_divdi3.o)
 .ARM.extab     0x00000000        0x0 c:/chibistudio/tools/gnu tools arm embedded/4.7 2014q2/bin/../lib/gcc/arm-none-eabi/4.7.4/armv7e-m\libgcc.a(_divdi3.o)
 .data          0x00000000        0x0 c:/chibistudio/tools/gnu tools arm embedded/4.7 2014q2/bin/../lib/gcc/arm-none-eabi/4.7.4/armv7e-m\libgcc.a(_udivdi3.o)
 .bss           0x00000000        0x0 c:/chibistudio/tools/gnu tools arm embedded/4.7 2014q2/bin/../lib/gcc/arm-none-eabi/4.7.4/armv7e-m\libgcc.a(_udivdi3.o)
 .ARM.extab     0x00000000        0x0 c:/chibistudio/tools/gnu tools arm embedded/4.7 2014q2/bin/../lib/gcc/arm-none-eabi/4.7.4/armv7e-m\libgcc.a(_udivdi3.o)

Memory Configuration

Name             Origin             Length             Attributes
flash            0x08000000         0x00100000
ram              0x20000000         0x0001c000
ethram           0x2001c000         0x00004000
ccmram           0x10000000         0x00010000
*default*        0x00000000         0xffffffff

Linker script and memory map

LOAD build/obj/crt0.o
LOAD build/obj/vectors.o
LOAD build/obj/chcore.o
LOAD build/obj/chcore_v7m.o
LOAD build/obj/nvic.o
LOAD build/obj/chsys.o
LOAD build/obj/chdebug.o
LOAD build/obj/chlists.o
LOAD build/obj/chvt.o
LOAD build/obj/chschd.o
LOAD build/obj/chthreads.o
LOAD build/obj/chdynamic.o
LOAD build/obj/chregistry.o
LOAD build/obj/chsem.o
LOAD build/obj/chmtx.o
LOAD build/obj/chcond.o
LOAD build/obj/chevents.o
LOAD build/obj/chmsg.o
LOAD build/obj/chmboxes.o
LOAD build/obj/chqueues.o
LOAD build/obj/chmemcore.o
LOAD build/obj/chheap.o
LOAD build/obj/chmempools.o
LOAD build/obj/test.o
LOAD build/obj/testthd.o
LOAD build/obj/testsem.o
LOAD build/obj/testmtx.o
LOAD build/obj/testmsg.o
LOAD build/obj/testmbox.o
LOAD build/obj/testevt.o
LOAD build/obj/testheap.o
LOAD build/obj/testpools.o
LOAD build/obj/testdyn.o
LOAD build/obj/testqueues.o
LOAD build/obj/testbmk.o
LOAD build/obj/hal.o
LOAD build/obj/adc.o
LOAD build/obj/can.o
LOAD build/obj/ext.o
LOAD build/obj/gpt.o
LOAD build/obj/i2c.o
LOAD build/obj/icu.o
LOAD build/obj/mac.o
LOAD build/obj/mmc_spi.o
LOAD build/obj/mmcsd.o
LOAD build/obj/pal.o
LOAD build/obj/pwm.o
LOAD build/obj/rtc.o
LOAD build/obj/sdc.o
LOAD build/obj/serial.o
LOAD build/obj/serial_usb.o
LOAD build/obj/spi.o
LOAD build/obj/tm.o
LOAD build/obj/uart.o
LOAD build/obj/usb.o
LOAD build/obj/stm32_dma.o
LOAD build/obj/hal_lld.o
LOAD build/obj/adc_lld.o
LOAD build/obj/ext_lld_isr.o
LOAD build/obj/can_lld.o
LOAD build/obj/ext_lld.o
LOAD build/obj/mac_lld.o
LOAD build/obj/sdc_lld.o
LOAD build/obj/pal_lld.o
LOAD build/obj/i2c_lld.o
LOAD build/obj/usb_lld.o
LOAD build/obj/rtc_lld.o
LOAD build/obj/spi_lld.o
LOAD build/obj/gpt_lld.o
LOAD build/obj/icu_lld.o
LOAD build/obj/pwm_lld.o
LOAD build/obj/serial_lld.o
LOAD build/obj/uart_lld.o
LOAD build/obj/board.o
LOAD build/obj/fatfs_diskio.o
LOAD build/obj/fatfs_syscall.o
LOAD build/obj/ff.o
LOAD build/obj/ccsbcs.o
LOAD build/obj/evtimer.o
LOAD build/obj/syscalls.o
LOAD build/obj/shell.o
LOAD build/obj/chprintf.o
LOAD build/obj/chrtclib.o
LOAD build/obj/main.o
LOAD build/obj/console.o
LOAD build/obj/sdcard.o
LOAD build/obj/can_comm.o
LOAD build/obj/light.o
LOAD build/obj/speed.o
LOAD build/obj/meas.o
LOAD build/obj/cruise.o
LOAD build/obj/dsp.o
LOAD build/obj/gfx.o
LOAD build/obj/uart_comm.o
                0x00000400                __main_stack_size__ = 0x400
                0x00000400                __process_stack_size__ = 0x400
                0x20000000                __ram_start__ = ORIGIN (ram)
                0x0001c000                __ram_size__ = 0x1c000
                0x2001c000                __ram_end__ = (__ram_start__ + __ram_size__)
                0x00000000                . = 0x0
                0x00000000                _text = .

startup         0x08000000      0x1ac
 *(vectors)
 vectors        0x08000000      0x1ac build/obj/vectors.o
                0x08000000                _vectors

constructors    0x080001ac        0x0
                0x080001ac                PROVIDE (__init_array_start, .)
 *(SORT(.init_array.*))
 *(.init_array)
                0x080001ac                PROVIDE (__init_array_end, .)

destructors     0x080001ac        0x0
                0x080001ac                PROVIDE (__fini_array_start, .)
 *(.fini_array)
 *(SORT(.fini_array.*))
                0x080001ac                PROVIDE (__fini_array_end, .)

.text           0x080001b0    0x18888
 *(.text.startup.*)
 .text.startup.main
                0x080001b0       0x90 build/obj/main.o
                0x080001b0                main
 *(.text)
 .text          0x08000240      0x370 c:/chibistudio/tools/gnu tools arm embedded/4.7 2014q2/bin/../lib/gcc/arm-none-eabi/4.7.4/armv7e-m\libgcc.a(_arm_addsubdf3.o)
                0x08000240                __aeabi_drsub
                0x08000248                __aeabi_dsub
                0x08000248                __subdf3
                0x0800024c                __aeabi_dadd
                0x0800024c                __adddf3
                0x080004c4                __floatunsidf
                0x080004c4                __aeabi_ui2d
                0x080004e4                __floatsidf
                0x080004e4                __aeabi_i2d
                0x08000508                __aeabi_f2d
                0x08000508                __extendsfdf2
                0x08000544                __floatundidf
                0x08000544                __aeabi_ul2d
                0x08000554                __floatdidf
                0x08000554                __aeabi_l2d
 .text          0x080005b0      0x424 c:/chibistudio/tools/gnu tools arm embedded/4.7 2014q2/bin/../lib/gcc/arm-none-eabi/4.7.4/armv7e-m\libgcc.a(_arm_muldivdf3.o)
                0x080005b0                __aeabi_dmul
                0x080005b0                __muldf3
                0x08000804                __divdf3
                0x08000804                __aeabi_ddiv
 *fill*         0x080009d4        0xc 00
 .text          0x080009e0      0x110 c:/chibistudio/tools/gnu tools arm embedded/4.7 2014q2/bin/../lib/gcc/arm-none-eabi/4.7.4/armv7e-m\libgcc.a(_arm_cmpdf2.o)
                0x080009e0                __gtdf2
                0x080009e0                __gedf2
                0x080009e8                __ltdf2
                0x080009e8                __ledf2
                0x080009f0                __nedf2
                0x080009f0                __eqdf2
                0x080009f0                __cmpdf2
                0x08000a6c                __aeabi_cdrcmple
                0x08000a7c                __aeabi_cdcmpeq
                0x08000a7c                __aeabi_cdcmple
                0x08000a8c                __aeabi_dcmpeq
                0x08000aa0                __aeabi_dcmplt
                0x08000ab4                __aeabi_dcmple
                0x08000ac8                __aeabi_dcmpge
                0x08000adc                __aeabi_dcmpgt
 .text          0x08000af0       0x50 c:/chibistudio/tools/gnu tools arm embedded/4.7 2014q2/bin/../lib/gcc/arm-none-eabi/4.7.4/armv7e-m\libgcc.a(_arm_fixdfsi.o)
                0x08000af0                __aeabi_d2iz
                0x08000af0                __fixdfsi
 .text          0x08000b40       0x40 c:/chibistudio/tools/gnu tools arm embedded/4.7 2014q2/bin/../lib/gcc/arm-none-eabi/4.7.4/armv7e-m\libgcc.a(_arm_fixunsdfsi.o)
                0x08000b40                __aeabi_d2uiz
                0x08000b40                __fixunsdfsi
 .text          0x08000b80       0x2c c:/chibistudio/tools/gnu tools arm embedded/4.7 2014q2/bin/../lib/gcc/arm-none-eabi/4.7.4/armv7e-m\libgcc.a(_aeabi_uldivmod.o)
                0x08000b80                __aeabi_uldivmod
 *fill*         0x08000bac        0x4 00
 .text          0x08000bb0       0x58 c:/chibistudio/tools/gnu tools arm embedded/4.7 2014q2/bin/../lib/gcc/arm-none-eabi/4.7.4/armv7e-m\libgcc.a(bpabi.o)
                0x08000bb0                __gnu_ldivmod_helper
                0x08000bdc                __gnu_uldivmod_helper
 *fill*         0x08000c08        0x8 00
 .text          0x08000c10        0x4 c:/chibistudio/tools/gnu tools arm embedded/4.7 2014q2/bin/../lib/gcc/arm-none-eabi/4.7.4/armv7e-m\libgcc.a(_dvmd_tls.o)
                0x08000c10                __aeabi_idiv0
                0x08000c10                __aeabi_ldiv0
 *fill*         0x08000c14        0xc 00
 .text          0x08000c20      0x2bc c:/chibistudio/tools/gnu tools arm embedded/4.7 2014q2/bin/../lib/gcc/arm-none-eabi/4.7.4/armv7e-m\libgcc.a(_divdi3.o)
                0x08000c20                __divdi3
 *fill*         0x08000edc        0x4 00
 .text          0x08000ee0      0x288 c:/chibistudio/tools/gnu tools arm embedded/4.7 2014q2/bin/../lib/gcc/arm-none-eabi/4.7.4/armv7e-m\libgcc.a(_udivdi3.o)
                0x08000ee0                __udivdi3
 *(.text.*)
 *fill*         0x08001168        0x8 00
 .text.__late_init
                0x08001170       0x10 build/obj/crt0.o
                0x08001170                __late_init
 .text._default_exit
                0x08001180       0x10 build/obj/crt0.o
                0x08001180                _default_exit
 .text.ResetHandler
                0x08001190      0x1d0 build/obj/crt0.o
                0x08001190                ResetHandler
 .text._unhandled_exception
                0x08001360       0x10 build/obj/vectors.o
                0x08001360                Vector58
                0x08001360                VectorE8
                0x08001360                Vector9C
                0x08001360                Vector1A0
                0x08001360                Vector5C
                0x08001360                NMIVector
                0x08001360                Vector11C
                0x08001360                Vector19C
                0x08001360                VectorDC
                0x08001360                Vector168
                0x08001360                Vector110
                0x08001360                VectorC8
                0x08001360                VectorA8
                0x08001360                VectorB4
                0x08001360                Vector160
                0x08001360                VectorEC
                0x08001360                UsageFaultVector
                0x08001360                DebugMonitorVector
                0x08001360                Vector40
                0x08001360                VectorF8
                0x08001360                Vector190
                0x08001360                Vector148
                0x08001360                Vector188
                0x08001360                PendSVVector
                0x08001360                Vector198
                0x08001360                Vector118
                0x08001360                Vector64
                0x08001360                VectorCC
                0x08001360                Vector54
                0x08001360                Vector138
                0x08001360                Vector24
                0x08001360                Vector178
                0x08001360                Vector1A4
                0x08001360                BusFaultVector
                0x08001360                VectorD0
                0x08001360                Vector140
                0x08001360                VectorE4
                0x08001360                HardFaultVector
                0x08001360                Vector134
                0x08001360                VectorF0
                0x08001360                Vector13C
                0x08001360                Vector100
                0x08001360                VectorE0
                0x08001360                VectorF4
                0x08001360                MemManageVector
                0x08001360                VectorA0
                0x08001360                VectorC4
                0x08001360                Vector180
                0x08001360                VectorB0
                0x08001360                Vector114
                0x08001360                Vector164
                0x08001360                Vector60
                0x08001360                Vector1C
                0x08001360                Vector17C
                0x08001360                Vector48
                0x08001360                Vector1A8
                0x08001360                Vector16C
                0x08001360                Vector4C
                0x08001360                Vector144
                0x08001360                Vector15C
                0x08001360                Vector68
                0x08001360                _unhandled_exception
                0x08001360                Vector170
                0x08001360                Vector184
                0x08001360                Vector10C
                0x08001360                Vector50
                0x08001360                Vector194
                0x08001360                Vector44
                0x08001360                Vector28
                0x08001360                Vector34
                0x08001360                Vector20
                0x08001360                Vector18C
                0x08001360                Vector174
 .text.port_halt
                0x08001370       0x10 build/obj/chcore.o
                0x08001370                port_halt
 .text._port_switch_from_isr
                0x08001380       0x10 build/obj/chcore_v7m.o
                0x08001380                _port_switch_from_isr
 .text.SVCallVector
                0x08001390       0x20 build/obj/chcore_v7m.o
                0x08001390                SVCallVector
 .text._port_init
                0x080013b0       0x40 build/obj/chcore_v7m.o
                0x080013b0                _port_init
 .text._port_irq_epilogue
                0x080013f0       0x70 build/obj/chcore_v7m.o
                0x080013f0                _port_irq_epilogue
 .text.SysTickVector
                0x08001460       0x20 build/obj/chcore_v7m.o
                0x08001460                SysTickVector
 .text._port_switch
                0x08001480       0x10 build/obj/chcore_v7m.o
                0x08001480                _port_switch
 .text._port_thread_start
                0x08001490       0x10 build/obj/chcore_v7m.o
                0x08001490                _port_thread_start
 .text.nvicEnableVector
                0x080014a0       0x50 build/obj/nvic.o
                0x080014a0                nvicEnableVector
 .text.nvicSetSystemHandlerPriority
                0x080014f0       0x30 build/obj/nvic.o
                0x080014f0                nvicSetSystemHandlerPriority
 .text._idle_thread
                0x08001520       0x20 build/obj/chsys.o
                0x08001520                _idle_thread
 .text.chSysInit
                0x08001540       0x70 build/obj/chsys.o
                0x08001540                chSysInit
 .text.chSysTimerHandlerI
                0x080015b0       0x60 build/obj/chsys.o
                0x080015b0                chSysTimerHandlerI
 .text._vt_init
                0x08001610       0x20 build/obj/chvt.o
                0x08001610                _vt_init
 .text.chVTSetI
                0x08001630       0x40 build/obj/chvt.o
                0x08001630                chVTSetI
 .text.chVTResetI
                0x08001670       0x30 build/obj/chvt.o
                0x08001670                chVTResetI
 .text.wakeup   0x080016a0       0x60 build/obj/chschd.o
 .text._scheduler_init
                0x08001700       0x20 build/obj/chschd.o
                0x08001700                _scheduler_init
 .text.chSchReadyI
                0x08001720       0x20 build/obj/chschd.o
                0x08001720                chSchReadyI
 .text.chSchGoSleepS
                0x08001740       0x30 build/obj/chschd.o
                0x08001740                chSchGoSleepS
 .text.chSchGoSleepTimeoutS
                0x08001770       0x40 build/obj/chschd.o
                0x08001770                chSchGoSleepTimeoutS
 .text.chSchWakeupS
                0x080017b0       0x60 build/obj/chschd.o
                0x080017b0                chSchWakeupS
 .text.chSchDoRescheduleBehind
                0x08001810       0x40 build/obj/chschd.o
                0x08001810                chSchDoRescheduleBehind
 .text.chSchDoRescheduleAhead
                0x08001850       0x40 build/obj/chschd.o
                0x08001850                chSchDoRescheduleAhead
 .text.chSchRescheduleS
                0x08001890       0x20 build/obj/chschd.o
                0x08001890                chSchRescheduleS
 .text.chSchDoReschedule
                0x080018b0       0x20 build/obj/chschd.o
                0x080018b0                chSchDoReschedule
 .text._thread_init
                0x080018d0       0x50 build/obj/chthreads.o
                0x080018d0                _thread_init
 .text.chThdCreateI
                0x08001920       0x70 build/obj/chthreads.o
                0x08001920                chThdCreateI
 .text.chThdCreateStatic
                0x08001990       0x30 build/obj/chthreads.o
                0x08001990                chThdCreateStatic
 .text.chThdSetPriority
                0x080019c0       0x30 build/obj/chthreads.o
                0x080019c0                chThdSetPriority
 .text.chThdResume
                0x080019f0       0x20 build/obj/chthreads.o
                0x080019f0                chThdResume
 .text.chThdTerminate
                0x08001a10       0x20 build/obj/chthreads.o
                0x08001a10                chThdTerminate
 .text.chThdSleep
                0x08001a30       0x20 build/obj/chthreads.o
                0x08001a30                chThdSleep
 .text.chThdSleepUntil
                0x08001a50       0x30 build/obj/chthreads.o
                0x08001a50                chThdSleepUntil
 .text.chThdYield
                0x08001a80       0x30 build/obj/chthreads.o
                0x08001a80                chThdYield
 .text.chThdExitS
                0x08001ab0       0x40 build/obj/chthreads.o
                0x08001ab0                chThdExitS
 .text.chThdExit
                0x08001af0       0x10 build/obj/chthreads.o
                0x08001af0                chThdExit
 .text.chThdWait
                0x08001b00       0x40 build/obj/chthreads.o
                0x08001b00                chThdWait
 .text.chThdAddRef
                0x08001b40       0x20 build/obj/chdynamic.o
                0x08001b40                chThdAddRef
 .text.chThdRelease
                0x08001b60       0x50 build/obj/chdynamic.o
                0x08001b60                chThdRelease
 .text.chThdCreateFromHeap
                0x08001bb0       0x40 build/obj/chdynamic.o
                0x08001bb0                chThdCreateFromHeap
 .text.chThdCreateFromMemoryPool
                0x08001bf0       0x50 build/obj/chdynamic.o
                0x08001bf0                chThdCreateFromMemoryPool
 .text.chRegFirstThread
                0x08001c40       0x20 build/obj/chregistry.o
                0x08001c40                chRegFirstThread
 .text.chRegNextThread
                0x08001c60       0x30 build/obj/chregistry.o
                0x08001c60                chRegNextThread
 .text.chSemInit
                0x08001c90       0x10 build/obj/chsem.o
                0x08001c90                chSemInit
 .text.chSemResetI
                0x08001ca0       0x70 build/obj/chsem.o
                0x08001ca0                chSemResetI
 .text.chSemReset
                0x08001d10       0x20 build/obj/chsem.o
                0x08001d10                chSemReset
 .text.chSemWaitS
                0x08001d30       0x40 build/obj/chsem.o
                0x08001d30                chSemWaitS
 .text.chSemWait
                0x08001d70       0x20 build/obj/chsem.o
                0x08001d70                chSemWait
 .text.chSemWaitTimeoutS
                0x08001d90       0x40 build/obj/chsem.o
                0x08001d90                chSemWaitTimeoutS
 .text.chSemWaitTimeout
                0x08001dd0       0x20 build/obj/chsem.o
                0x08001dd0                chSemWaitTimeout
 .text.chSemSignal
                0x08001df0       0x30 build/obj/chsem.o
                0x08001df0                chSemSignal
 .text.chSemSignalI
                0x08001e20       0x20 build/obj/chsem.o
                0x08001e20                chSemSignalI
 .text.chSemAddCounterI
                0x08001e40       0xa0 build/obj/chsem.o
                0x08001e40                chSemAddCounterI
 .text.chSemSignalWait
                0x08001ee0       0x70 build/obj/chsem.o
                0x08001ee0                chSemSignalWait
 .text.chMtxInit
                0x08001f50       0x10 build/obj/chmtx.o
                0x08001f50                chMtxInit
 .text.chMtxLockS
                0x08001f60       0xd0 build/obj/chmtx.o
                0x08001f60                chMtxLockS
 .text.chMtxLock
                0x08002030       0x20 build/obj/chmtx.o
                0x08002030                chMtxLock
 .text.chMtxTryLock
                0x08002050       0x30 build/obj/chmtx.o
                0x08002050                chMtxTryLock
 .text.chMtxUnlock
                0x08002080       0x60 build/obj/chmtx.o
                0x08002080                chMtxUnlock
 .text.chMtxUnlockS
                0x080020e0       0x50 build/obj/chmtx.o
                0x080020e0                chMtxUnlockS
 .text.chMtxUnlockAll
                0x08002130       0x60 build/obj/chmtx.o
                0x08002130                chMtxUnlockAll
 .text.chCondInit
                0x08002190       0x10 build/obj/chcond.o
                0x08002190                chCondInit
 .text.chCondSignal
                0x080021a0       0x30 build/obj/chcond.o
                0x080021a0                chCondSignal
 .text.chCondSignalI
                0x080021d0       0x20 build/obj/chcond.o
                0x080021d0                chCondSignalI
 .text.chCondBroadcastI
                0x080021f0       0x30 build/obj/chcond.o
                0x080021f0                chCondBroadcastI
 .text.chCondBroadcast
                0x08002220       0x20 build/obj/chcond.o
                0x08002220                chCondBroadcast
 .text.chCondWaitS
                0x08002240       0x50 build/obj/chcond.o
                0x08002240                chCondWaitS
 .text.chCondWait
                0x08002290       0x20 build/obj/chcond.o
                0x08002290                chCondWait
 .text.chCondWaitTimeoutS
                0x080022b0       0x50 build/obj/chcond.o
                0x080022b0                chCondWaitTimeoutS
 .text.chCondWaitTimeout
                0x08002300       0x20 build/obj/chcond.o
                0x08002300                chCondWaitTimeout
 .text.chEvtRegisterMask
                0x08002320       0x30 build/obj/chevents.o
                0x08002320                chEvtRegisterMask
 .text.chEvtUnregister
                0x08002350       0x30 build/obj/chevents.o
                0x08002350                chEvtUnregister
 .text.chEvtGetAndClearEvents
                0x08002380       0x30 build/obj/chevents.o
                0x08002380                chEvtGetAndClearEvents
 .text.chEvtAddEvents
                0x080023b0       0x20 build/obj/chevents.o
                0x080023b0                chEvtAddEvents
 .text.chEvtSignalI
                0x080023d0       0x30 build/obj/chevents.o
                0x080023d0                chEvtSignalI
 .text.chEvtSignal
                0x08002400       0x20 build/obj/chevents.o
                0x08002400                chEvtSignal
 .text.chEvtBroadcastFlagsI
                0x08002420       0x20 build/obj/chevents.o
                0x08002420                chEvtBroadcastFlagsI
 .text.chEvtBroadcastFlags
                0x08002440       0x20 build/obj/chevents.o
                0x08002440                chEvtBroadcastFlags
 .text.chEvtDispatch
                0x08002460       0x30 build/obj/chevents.o
                0x08002460                chEvtDispatch
 .text.chEvtWaitOne
                0x08002490       0x40 build/obj/chevents.o
                0x08002490                chEvtWaitOne
 .text.chEvtWaitAny
                0x080024d0       0x40 build/obj/chevents.o
                0x080024d0                chEvtWaitAny
 .text.chEvtWaitAll
                0x08002510       0x40 build/obj/chevents.o
                0x08002510                chEvtWaitAll
 .text.chEvtWaitOneTimeout
                0x08002550       0x50 build/obj/chevents.o
                0x08002550                chEvtWaitOneTimeout
 .text.chEvtWaitAnyTimeout
                0x080025a0       0x50 build/obj/chevents.o
                0x080025a0                chEvtWaitAnyTimeout
 .text.chEvtWaitAllTimeout
                0x080025f0       0x60 build/obj/chevents.o
                0x080025f0                chEvtWaitAllTimeout
 .text.chMsgSend
                0x08002650       0x40 build/obj/chmsg.o
                0x08002650                chMsgSend
 .text.chMsgWait
                0x08002690       0x40 build/obj/chmsg.o
                0x08002690                chMsgWait
 .text.chMsgRelease
                0x080026d0       0x20 build/obj/chmsg.o
                0x080026d0                chMsgRelease
 .text.chMBInit
                0x080026f0       0x30 build/obj/chmboxes.o
                0x080026f0                chMBInit
 .text.chMBReset
                0x08002720       0x40 build/obj/chmboxes.o
                0x08002720                chMBReset
 .text.chMBPostS
                0x08002760       0x40 build/obj/chmboxes.o
                0x08002760                chMBPostS
 .text.chMBPost
                0x080027a0       0x20 build/obj/chmboxes.o
                0x080027a0                chMBPost
 .text.chMBPostI
                0x080027c0       0x30 build/obj/chmboxes.o
                0x080027c0                chMBPostI
 .text.chMBPostAheadS
                0x080027f0       0x40 build/obj/chmboxes.o
                0x080027f0                chMBPostAheadS
 .text.chMBPostAhead
                0x08002830       0x20 build/obj/chmboxes.o
                0x08002830                chMBPostAhead
 .text.chMBPostAheadI
                0x08002850       0x30 build/obj/chmboxes.o
                0x08002850                chMBPostAheadI
 .text.chMBFetchS
                0x08002880       0x40 build/obj/chmboxes.o
                0x08002880                chMBFetchS
 .text.chMBFetch
                0x080028c0       0x20 build/obj/chmboxes.o
                0x080028c0                chMBFetch
 .text.chMBFetchI
                0x080028e0       0x30 build/obj/chmboxes.o
                0x080028e0                chMBFetchI
 .text.qwait    0x08002910       0x30 build/obj/chqueues.o
 .text.chIQInit
                0x08002940       0x20 build/obj/chqueues.o
                0x08002940                chIQInit
 .text.chIQResetI
                0x08002960       0x30 build/obj/chqueues.o
                0x08002960                chIQResetI
 .text.chIQPutI
                0x08002990       0x50 build/obj/chqueues.o
                0x08002990                chIQPutI
 .text.chIQGetTimeout
                0x080029e0       0x50 build/obj/chqueues.o
                0x080029e0                chIQGetTimeout
 .text.chIQReadTimeout
                0x08002a30       0x80 build/obj/chqueues.o
                0x08002a30                chIQReadTimeout
 .text.chOQInit
                0x08002ab0       0x20 build/obj/chqueues.o
                0x08002ab0                chOQInit
 .text.chOQResetI
                0x08002ad0       0x30 build/obj/chqueues.o
                0x08002ad0                chOQResetI
 .text.chOQPutTimeout
                0x08002b00       0x50 build/obj/chqueues.o
                0x08002b00                chOQPutTimeout
 .text.chOQGetI
                0x08002b50       0x50 build/obj/chqueues.o
                0x08002b50                chOQGetI
 .text.chOQWriteTimeout
                0x08002ba0       0x80 build/obj/chqueues.o
                0x08002ba0                chOQWriteTimeout
 .text._core_init
                0x08002c20       0x30 build/obj/chmemcore.o
                0x08002c20                _core_init
 .text.chCoreAlloc
                0x08002c50       0x40 build/obj/chmemcore.o
                0x08002c50                chCoreAlloc
 .text.chCoreStatus
                0x08002c90       0x20 build/obj/chmemcore.o
                0x08002c90                chCoreStatus
 .text._heap_init
                0x08002cb0       0x20 build/obj/chheap.o
                0x08002cb0                _heap_init
 .text.chHeapInit
                0x08002cd0       0x20 build/obj/chheap.o
                0x08002cd0                chHeapInit
 .text.chHeapAlloc
                0x08002cf0       0x90 build/obj/chheap.o
                0x08002cf0                chHeapAlloc
 .text.chHeapFree
                0x08002d80       0x90 build/obj/chheap.o
                0x08002d80                chHeapFree
 .text.chHeapStatus
                0x08002e10       0x40 build/obj/chheap.o
                0x08002e10                chHeapStatus
 .text.chPoolInit
                0x08002e50       0x10 build/obj/chmempools.o
                0x08002e50                chPoolInit
 .text.chPoolLoadArray
                0x08002e60       0x80 build/obj/chmempools.o
                0x08002e60                chPoolLoadArray
 .text.chPoolAlloc
                0x08002ee0       0x30 build/obj/chmempools.o
                0x08002ee0                chPoolAlloc
 .text.chPoolFree
                0x08002f10       0x20 build/obj/chmempools.o
                0x08002f10                chPoolFree
 .text.tmr      0x08002f30       0x10 build/obj/test.o
 .text.print_line
                0x08002f40       0x40 build/obj/test.o
 .text.test_printn
                0x08002f80       0x90 build/obj/test.o
                0x08002f80                test_printn
 .text.test_print
                0x08003010       0x20 build/obj/test.o
                0x08003010                test_print
 .text.test_println
                0x08003030       0x30 build/obj/test.o
                0x08003030                test_println
 .text.test_emit_token
                0x08003060       0x20 build/obj/test.o
                0x08003060                test_emit_token
 .text._test_assert
                0x08003080       0x30 build/obj/test.o
                0x08003080                _test_assert
 .text._test_assert_sequence
                0x080030b0       0x80 build/obj/test.o
                0x080030b0                _test_assert_sequence
 .text._test_assert_time_window
                0x08003130       0x40 build/obj/test.o
                0x08003130                _test_assert_time_window
 .text.test_terminate_threads
                0x08003170       0x40 build/obj/test.o
                0x08003170                test_terminate_threads
 .text.test_wait_threads
                0x080031b0       0x50 build/obj/test.o
                0x080031b0                test_wait_threads
 .text.test_cpu_pulse
                0x08003200       0x50 build/obj/test.o
                0x08003200                test_cpu_pulse
 .text.test_wait_tick
                0x08003250       0x20 build/obj/test.o
                0x08003250                test_wait_tick
 .text.test_start_timer
                0x08003270       0x50 build/obj/test.o
                0x08003270                test_start_timer
 .text.TestThread
                0x080032c0      0x320 build/obj/test.o
                0x080032c0                TestThread
 .text.thd3_execute
                0x080035e0      0x140 build/obj/testthd.o
 .text.thd2_execute
                0x08003720       0xf0 build/obj/testthd.o
 .text.thd1_execute
                0x08003810       0xf0 build/obj/testthd.o
 .text.thread   0x08003900       0x10 build/obj/testthd.o
 .text.thd4_execute
                0x08003910       0x80 build/obj/testthd.o
 .text.sem3_setup
                0x08003990       0x10 build/obj/testsem.o
 .text.sem2_setup
                0x080039a0       0x10 build/obj/testsem.o
 .text.sem1_setup
                0x080039b0       0x10 build/obj/testsem.o
 .text.sem4_execute
                0x080039c0      0x100 build/obj/testsem.o
 .text.thread4  0x08003ac0       0x30 build/obj/testsem.o
 .text.thread3  0x08003af0       0x20 build/obj/testsem.o
 .text.thread1  0x08003b10       0x20 build/obj/testsem.o
 .text.thread2  0x08003b30       0x30 build/obj/testsem.o
 .text.sem1_execute
                0x08003b60      0x150 build/obj/testsem.o
 .text.sem3_execute
                0x08003cb0       0xa0 build/obj/testsem.o
 .text.sem2_execute
                0x08003d50      0x2a0 build/obj/testsem.o
 .text.mtx8_execute
                0x08003ff0       0xb0 build/obj/testmtx.o
 .text.thread12
                0x080040a0       0x20 build/obj/testmtx.o
 .text.thread1  0x080040c0       0x20 build/obj/testmtx.o
 .text.thread10
                0x080040e0       0x30 build/obj/testmtx.o
 .text.thread11
                0x08004110       0x40 build/obj/testmtx.o
 .text.mtx8_setup
                0x08004150       0x30 build/obj/testmtx.o
 .text.mtx7_setup
                0x08004180       0x20 build/obj/testmtx.o
 .text.mtx6_setup
                0x080041a0       0x20 build/obj/testmtx.o
 .text.mtx5_setup
                0x080041c0       0x10 build/obj/testmtx.o
 .text.mtx4_setup
                0x080041d0       0x20 build/obj/testmtx.o
 .text.mtx3_setup
                0x080041f0       0x20 build/obj/testmtx.o
 .text.mtx2_setup
                0x08004210       0x10 build/obj/testmtx.o
 .text.mtx1_setup
                0x08004220       0x10 build/obj/testmtx.o
 .text.mtx7_execute
                0x08004230       0xd0 build/obj/testmtx.o
 .text.mtx6_execute
                0x08004300      0x100 build/obj/testmtx.o
 .text.mtx1_execute
                0x08004400       0xe0 build/obj/testmtx.o
 .text.mtx5_execute
                0x080044e0       0xc0 build/obj/testmtx.o
 .text.mtx4_execute
                0x080045a0      0x270 build/obj/testmtx.o
 .text.thread4b
                0x08004810       0x20 build/obj/testmtx.o
 .text.thread4a
                0x08004830       0x20 build/obj/testmtx.o
 .text.mtx3_execute
                0x08004850       0xf0 build/obj/testmtx.o
 .text.mtx2_execute
                0x08004940       0xb0 build/obj/testmtx.o
 .text.thread3HH
                0x080049f0       0x30 build/obj/testmtx.o
 .text.thread3H
                0x08004a20       0x20 build/obj/testmtx.o
 .text.thread3M
                0x08004a40       0x30 build/obj/testmtx.o
 .text.thread3L
                0x08004a70       0x50 build/obj/testmtx.o
 .text.thread3LL
                0x08004ac0       0x30 build/obj/testmtx.o
 .text.thread2L
                0x08004af0       0x30 build/obj/testmtx.o
 .text.thread2M
                0x08004b20       0x20 build/obj/testmtx.o
 .text.thread2H
                0x08004b40       0x30 build/obj/testmtx.o
 .text.msg1_execute
                0x08004b70       0x90 build/obj/testmsg.o
 .text.thread   0x08004c00       0x20 build/obj/testmsg.o
 .text.mbox1_execute
                0x08004c20      0x690 build/obj/testmbox.o
 .text.mbox1_setup
                0x080052b0       0x20 build/obj/testmbox.o
 .text.evt3_setup
                0x080052d0       0x10 build/obj/testevt.o
 .text.evt2_setup
                0x080052e0       0x10 build/obj/testevt.o
 .text.evt1_setup
                0x080052f0       0x10 build/obj/testevt.o
 .text.evt2_execute
                0x08005300      0x280 build/obj/testevt.o
 .text.thread2  0x08005580       0x30 build/obj/testevt.o
 .text.thread1  0x080055b0       0x20 build/obj/testevt.o
 .text.evt1_execute
                0x080055d0       0x90 build/obj/testevt.o
 .text.h3       0x08005660       0x10 build/obj/testevt.o
 .text.h2       0x08005670       0x10 build/obj/testevt.o
 .text.h1       0x08005680       0x10 build/obj/testevt.o
 .text.evt3_execute
                0x08005690       0xb0 build/obj/testevt.o
 .text.heap1_execute
                0x08005740      0x250 build/obj/testheap.o
 .text.heap1_setup
                0x08005990       0x20 build/obj/testheap.o
 .text.null_provider
                0x080059b0       0x10 build/obj/testpools.o
 .text.pools1_setup
                0x080059c0       0x20 build/obj/testpools.o
 .text.pools1_execute
                0x080059e0      0x170 build/obj/testpools.o
 .text.regfind  0x08005b50       0x30 build/obj/testdyn.o
 .text.dyn3_execute
                0x08005b80      0x140 build/obj/testdyn.o
 .text.thread   0x08005cc0       0x10 build/obj/testdyn.o
 .text.dyn3_setup
                0x08005cd0       0x20 build/obj/testdyn.o
 .text.dyn1_setup
                0x08005cf0       0x20 build/obj/testdyn.o
 .text.dyn2_execute
                0x08005d10      0x140 build/obj/testdyn.o
 .text.dyn2_setup
                0x08005e50       0x20 build/obj/testdyn.o
 .text.dyn1_execute
                0x08005e70       0xf0 build/obj/testdyn.o
 .text.notify   0x08005f60       0x10 build/obj/testqueues.o
 .text.thread2  0x08005f70       0x20 build/obj/testqueues.o
 .text.queues2_setup
                0x08005f90       0x30 build/obj/testqueues.o
 .text.thread1  0x08005fc0       0x20 build/obj/testqueues.o
 .text.queues1_setup
                0x08005fe0       0x30 build/obj/testqueues.o
 .text.queues2_execute
                0x08006010      0x2d0 build/obj/testqueues.o
 .text.queues1_execute
                0x080062e0      0x2f0 build/obj/testqueues.o
 .text.thread2  0x080065d0       0x10 build/obj/testbmk.o
 .text.tmo      0x080065e0       0x10 build/obj/testbmk.o
 .text.bmk13_execute
                0x080065f0      0x100 build/obj/testbmk.o
 .text.bmk12_execute
                0x080066f0       0x70 build/obj/testbmk.o
 .text.bmk12_setup
                0x08006760       0x10 build/obj/testbmk.o
 .text.thread3  0x08006770       0x30 build/obj/testbmk.o
 .text.bmk11_execute
                0x080067a0       0x70 build/obj/testbmk.o
 .text.bmk11_setup
                0x08006810       0x10 build/obj/testbmk.o
 .text.bmk7_setup
                0x08006820       0x10 build/obj/testbmk.o
 .text.bmk10_execute
                0x08006830       0x80 build/obj/testbmk.o
 .text.bmk9_execute
                0x080068b0       0xb0 build/obj/testbmk.o
 .text.bmk6_execute
                0x08006960       0x70 build/obj/testbmk.o
 .text.bmk8_execute
                0x080069d0       0xf0 build/obj/testbmk.o
 .text.thread8  0x08006ac0       0x40 build/obj/testbmk.o
 .text.bmk7_execute
                0x08006b00      0x110 build/obj/testbmk.o
 .text.bmk5_execute
                0x08006c10       0x80 build/obj/testbmk.o
 .text.bmk4_execute
                0x08006c90       0xc0 build/obj/testbmk.o
 .text.msg_loop_test
                0x08006d50       0x40 build/obj/testbmk.o
 .text.bmk3_execute
                0x08006d90       0xe0 build/obj/testbmk.o
 .text.bmk2_execute
                0x08006e70       0x80 build/obj/testbmk.o
 .text.bmk1_execute
                0x08006ef0       0x80 build/obj/testbmk.o
 .text.thread1  0x08006f70       0x20 build/obj/testbmk.o
 .text.thread4  0x08006f90       0x30 build/obj/testbmk.o
                0x08006f90                thread4
 .text.halInit  0x08006fc0       0x50 build/obj/hal.o
                0x08006fc0                halInit
 .text.halPolledDelay
                0x08007010       0x30 build/obj/hal.o
                0x08007010                halPolledDelay
 .text.adcInit  0x08007040       0x10 build/obj/adc.o
                0x08007040                adcInit
 .text.adcObjectInit
                0x08007050       0x20 build/obj/adc.o
                0x08007050                adcObjectInit
 .text.adcStart
                0x08007070       0x20 build/obj/adc.o
                0x08007070                adcStart
 .text.adcConvert
                0x08007090       0x40 build/obj/adc.o
                0x08007090                adcConvert
 .text.canInit  0x080070d0       0x10 build/obj/can.o
                0x080070d0                canInit
 .text.canObjectInit
                0x080070e0       0x40 build/obj/can.o
                0x080070e0                canObjectInit
 .text.canStart
                0x08007120       0x40 build/obj/can.o
                0x08007120                canStart
 .text.canTransmit
                0x08007160       0x60 build/obj/can.o
                0x08007160                canTransmit
 .text.canReceive
                0x080071c0       0x60 build/obj/can.o
                0x080071c0                canReceive
 .text.i2cInit  0x08007220       0x10 build/obj/i2c.o
                0x08007220                i2cInit
 .text.i2cObjectInit
                0x08007230       0x10 build/obj/i2c.o
                0x08007230                i2cObjectInit
 .text.icuInit  0x08007240       0x10 build/obj/icu.o
                0x08007240                icuInit
 .text.icuObjectInit
                0x08007250       0x10 build/obj/icu.o
                0x08007250                icuObjectInit
 .text.icuStart
                0x08007260       0x20 build/obj/icu.o
                0x08007260                icuStart
 .text.icuEnable
                0x08007280       0x20 build/obj/icu.o
                0x08007280                icuEnable
 .text.mmcsdGetCapacity
                0x080072a0       0x50 build/obj/mmcsd.o
                0x080072a0                mmcsdGetCapacity
 .text.pwmInit  0x080072f0       0x10 build/obj/pwm.o
                0x080072f0                pwmInit
 .text.pwmObjectInit
                0x08007300       0x10 build/obj/pwm.o
                0x08007300                pwmObjectInit
 .text.pwmStart
                0x08007310       0x20 build/obj/pwm.o
                0x08007310                pwmStart
 .text.pwmEnableChannel
                0x08007330       0x20 build/obj/pwm.o
                0x08007330                pwmEnableChannel
 .text.rtcInit  0x08007350       0x10 build/obj/rtc.o
                0x08007350                rtcInit
 .text.rtcSetTime
                0x08007360       0x20 build/obj/rtc.o
                0x08007360                rtcSetTime
 .text.rtcGetTime
                0x08007380       0x20 build/obj/rtc.o
                0x08007380                rtcGetTime
 .text.rtcSetAlarm
                0x080073a0       0x20 build/obj/rtc.o
                0x080073a0                rtcSetAlarm
 .text.rtcGetAlarm
                0x080073c0       0x20 build/obj/rtc.o
                0x080073c0                rtcGetAlarm
 .text.rtcGetTimeFat
                0x080073e0       0x10 build/obj/rtc.o
                0x080073e0                rtcGetTimeFat
 .text.sdcGetInfo
                0x080073f0       0x20 build/obj/sdc.o
                0x080073f0                sdcGetInfo
 .text.sdcConnect
                0x08007410      0x250 build/obj/sdc.o
                0x08007410                sdcConnect
 .text.sdcSync  0x08007660       0x20 build/obj/sdc.o
                0x08007660                sdcSync
 .text.sdcWrite
                0x08007680       0x30 build/obj/sdc.o
                0x08007680                sdcWrite
 .text.sdcRead  0x080076b0       0x30 build/obj/sdc.o
                0x080076b0                sdcRead
 .text._sdc_wait_for_transfer_state
                0x080076e0       0x50 build/obj/sdc.o
                0x080076e0                _sdc_wait_for_transfer_state
 .text.sdcDisconnect
                0x08007730       0x50 build/obj/sdc.o
                0x08007730                sdcDisconnect
 .text.sdcInit  0x08007780       0x10 build/obj/sdc.o
                0x08007780                sdcInit
 .text.sdcObjectInit
                0x08007790       0x20 build/obj/sdc.o
                0x08007790                sdcObjectInit
 .text.sdcStart
                0x080077b0       0x20 build/obj/sdc.o
                0x080077b0                sdcStart
 .text.sdcErase
                0x080077d0       0x90 build/obj/sdc.o
                0x080077d0                sdcErase
 .text.readt    0x08007860       0x10 build/obj/serial.o
 .text.read     0x08007870       0x10 build/obj/serial.o
 .text.writet   0x08007880       0x10 build/obj/serial.o
 .text.write    0x08007890       0x10 build/obj/serial.o
 .text.gett     0x080078a0       0x10 build/obj/serial.o
 .text.get      0x080078b0       0x10 build/obj/serial.o
 .text.putt     0x080078c0       0x10 build/obj/serial.o
 .text.put      0x080078d0       0x10 build/obj/serial.o
 .text.sdInit   0x080078e0       0x10 build/obj/serial.o
                0x080078e0                sdInit
 .text.sdObjectInit
                0x080078f0       0x50 build/obj/serial.o
                0x080078f0                sdObjectInit
 .text.sdStart  0x08007940       0x20 build/obj/serial.o
                0x08007940                sdStart
 .text.sdIncomingDataI
                0x08007960       0x40 build/obj/serial.o
                0x08007960                sdIncomingDataI
 .text.sduInit  0x080079a0       0x10 build/obj/serial_usb.o
                0x080079a0                sduInit
 .text.spiInit  0x080079b0       0x10 build/obj/spi.o
                0x080079b0                spiInit
 .text.spiObjectInit
                0x080079c0       0x10 build/obj/spi.o
                0x080079c0                spiObjectInit
 .text.tm_start
                0x080079d0       0x10 build/obj/tm.o
 .text.tm_stop  0x080079e0       0x40 build/obj/tm.o
 .text.tmInit   0x08007a20       0x50 build/obj/tm.o
                0x08007a20                tmInit
 .text.usbInit  0x08007a70       0x10 build/obj/usb.o
                0x08007a70                usbInit
 .text.usbObjectInit
                0x08007a80       0x20 build/obj/usb.o
                0x08007a80                usbObjectInit
 .text.usbPrepareReceive
                0x08007aa0       0x20 build/obj/usb.o
                0x08007aa0                usbPrepareReceive
 .text.usbPrepareTransmit
                0x08007ac0       0x20 build/obj/usb.o
                0x08007ac0                usbPrepareTransmit
 .text.usbStartReceiveI
                0x08007ae0       0x30 build/obj/usb.o
                0x08007ae0                usbStartReceiveI
 .text.usbStartTransmitI
                0x08007b10       0x30 build/obj/usb.o
                0x08007b10                usbStartTransmitI
 .text._usb_reset
                0x08007b40       0x30 build/obj/usb.o
                0x08007b40                _usb_reset
 .text._usb_ep0setup
                0x08007b70      0x320 build/obj/usb.o
                0x08007b70                _usb_ep0setup
 .text._usb_ep0in
                0x08007e90       0xc0 build/obj/usb.o
                0x08007e90                _usb_ep0in
 .text._usb_ep0out
                0x08007f50       0x80 build/obj/usb.o
                0x08007f50                _usb_ep0out
 .text.Vector6C
                0x08007fd0       0x30 build/obj/stm32_dma.o
                0x08007fd0                Vector6C
 .text.Vector70
                0x08008000       0x30 build/obj/stm32_dma.o
                0x08008000                Vector70
 .text.Vector74
                0x08008030       0x30 build/obj/stm32_dma.o
                0x08008030                Vector74
 .text.Vector78
                0x08008060       0x30 build/obj/stm32_dma.o
                0x08008060                Vector78
 .text.Vector7C
                0x08008090       0x30 build/obj/stm32_dma.o
                0x08008090                Vector7C
 .text.Vector80
                0x080080c0       0x30 build/obj/stm32_dma.o
                0x080080c0                Vector80
 .text.Vector84
                0x080080f0       0x30 build/obj/stm32_dma.o
                0x080080f0                Vector84
 .text.VectorFC
                0x08008120       0x30 build/obj/stm32_dma.o
                0x08008120                VectorFC
 .text.Vector120
                0x08008150       0x30 build/obj/stm32_dma.o
                0x08008150                Vector120
 .text.Vector124
                0x08008180       0x30 build/obj/stm32_dma.o
                0x08008180                Vector124
 .text.Vector128
                0x080081b0       0x30 build/obj/stm32_dma.o
                0x080081b0                Vector128
 .text.Vector12C
                0x080081e0       0x30 build/obj/stm32_dma.o
                0x080081e0                Vector12C
 .text.Vector130
                0x08008210       0x30 build/obj/stm32_dma.o
                0x08008210                Vector130
 .text.Vector150
                0x08008240       0x30 build/obj/stm32_dma.o
                0x08008240                Vector150
 .text.Vector154
                0x08008270       0x30 build/obj/stm32_dma.o
                0x08008270                Vector154
 .text.Vector158
                0x080082a0       0x30 build/obj/stm32_dma.o
                0x080082a0                Vector158
 .text.dmaInit  0x080082d0      0x140 build/obj/stm32_dma.o
                0x080082d0                dmaInit
 .text.dmaStreamAllocate
                0x08008410       0xa0 build/obj/stm32_dma.o
                0x08008410                dmaStreamAllocate
 .text.hal_lld_init
                0x080084b0       0xe0 build/obj/hal_lld.o
                0x080084b0                hal_lld_init
 .text.stm32_clock_init
                0x08008590      0x110 build/obj/hal_lld.o
                0x08008590                stm32_clock_init
 .text.adc_lld_init
                0x080086a0       0x40 build/obj/adc_lld.o
                0x080086a0                adc_lld_init
 .text.adc_lld_start
                0x080086e0       0x70 build/obj/adc_lld.o
                0x080086e0                adc_lld_start
 .text.adc_lld_start_conversion
                0x08008750       0xa0 build/obj/adc_lld.o
                0x08008750                adc_lld_start_conversion
 .text.adc_lld_stop_conversion
                0x080087f0       0x30 build/obj/adc_lld.o
                0x080087f0                adc_lld_stop_conversion
 .text.adc_lld_serve_rx_interrupt
                0x08008820       0xe0 build/obj/adc_lld.o
 .text.Vector88
                0x08008900       0x80 build/obj/adc_lld.o
                0x08008900                Vector88
 .text.can_lld_set_filters
                0x08008980      0x2b0 build/obj/can_lld.o
 .text.Vector8C
                0x08008c30       0x50 build/obj/can_lld.o
                0x08008c30                Vector8C
 .text.Vector90
                0x08008c80       0x70 build/obj/can_lld.o
                0x08008c80                Vector90
 .text.Vector94
                0x08008cf0       0x70 build/obj/can_lld.o
                0x08008cf0                Vector94
 .text.Vector98
                0x08008d60       0x80 build/obj/can_lld.o
                0x08008d60                Vector98
 .text.can_lld_init
                0x08008de0       0x30 build/obj/can_lld.o
                0x08008de0                can_lld_init
 .text.can_lld_start
                0x08008e10       0x80 build/obj/can_lld.o
                0x08008e10                can_lld_start
 .text.can_lld_is_tx_empty
                0x08008e90       0x40 build/obj/can_lld.o
                0x08008e90                can_lld_is_tx_empty
 .text.can_lld_transmit
                0x08008ed0       0x80 build/obj/can_lld.o
                0x08008ed0                can_lld_transmit
 .text.can_lld_is_rx_nonempty
                0x08008f50       0x40 build/obj/can_lld.o
                0x08008f50                can_lld_is_rx_nonempty
 .text.can_lld_receive
                0x08008f90       0xd0 build/obj/can_lld.o
                0x08008f90                can_lld_receive
 .text.sdc_lld_collect_errors
                0x08009060       0x40 build/obj/sdc_lld.o
 .text.Vector104
                0x080090a0       0x40 build/obj/sdc_lld.o
                0x080090a0                Vector104
 .text.sdc_lld_init
                0x080090e0       0x20 build/obj/sdc_lld.o
                0x080090e0                sdc_lld_init
 .text.sdc_lld_start
                0x08009100       0x60 build/obj/sdc_lld.o
                0x08009100                sdc_lld_start
 .text.sdc_lld_start_clk
                0x08009160       0x30 build/obj/sdc_lld.o
                0x08009160                sdc_lld_start_clk
 .text.sdc_lld_set_data_clk
                0x08009190       0x20 build/obj/sdc_lld.o
                0x08009190                sdc_lld_set_data_clk
 .text.sdc_lld_stop_clk
                0x080091b0       0x10 build/obj/sdc_lld.o
                0x080091b0                sdc_lld_stop_clk
 .text.sdc_lld_set_bus_mode
                0x080091c0       0x30 build/obj/sdc_lld.o
                0x080091c0                sdc_lld_set_bus_mode
 .text.sdc_lld_send_cmd_none
                0x080091f0       0x30 build/obj/sdc_lld.o
                0x080091f0                sdc_lld_send_cmd_none
 .text.sdc_lld_send_cmd_short
                0x08009220       0x40 build/obj/sdc_lld.o
                0x08009220                sdc_lld_send_cmd_short
 .text.sdc_lld_send_cmd_short_crc
                0x08009260       0x40 build/obj/sdc_lld.o
                0x08009260                sdc_lld_send_cmd_short_crc
 .text.sdc_lld_wait_transaction_end
                0x080092a0       0xa0 build/obj/sdc_lld.o
 .text.sdc_lld_error_cleanup
                0x08009340       0x80 build/obj/sdc_lld.o
 .text.sdc_lld_send_cmd_long_crc
                0x080093c0       0x50 build/obj/sdc_lld.o
                0x080093c0                sdc_lld_send_cmd_long_crc
 .text.sdc_lld_read_aligned
                0x08009410       0xc0 build/obj/sdc_lld.o
                0x08009410                sdc_lld_read_aligned
 .text.sdc_lld_write_aligned
                0x080094d0       0xc0 build/obj/sdc_lld.o
                0x080094d0                sdc_lld_write_aligned
 .text.sdc_lld_read
                0x08009590       0xd0 build/obj/sdc_lld.o
                0x08009590                sdc_lld_read
 .text.sdc_lld_write
                0x08009660       0xd0 build/obj/sdc_lld.o
                0x08009660                sdc_lld_write
 .text.sdc_lld_sync
                0x08009730       0x10 build/obj/sdc_lld.o
                0x08009730                sdc_lld_sync
 .text._pal_lld_init
                0x08009740      0x1b0 build/obj/pal_lld.o
                0x08009740                _pal_lld_init
 .text.VectorBC
                0x080098f0      0x120 build/obj/i2c_lld.o
                0x080098f0                VectorBC
 .text.VectorC0
                0x08009a10      0x100 build/obj/i2c_lld.o
                0x08009a10                VectorC0
 .text.i2c_lld_init
                0x08009b10       0x30 build/obj/i2c_lld.o
                0x08009b10                i2c_lld_init
 .text.otg_txfifo_flush
                0x08009b40       0x20 build/obj/usb_lld.o
 .text.usb_lld_init
                0x08009b60       0x30 build/obj/usb_lld.o
                0x08009b60                usb_lld_init
 .text.usb_lld_reset
                0x08009b90      0x130 build/obj/usb_lld.o
                0x08009b90                usb_lld_reset
 .text.usb_lld_set_address
                0x08009cc0       0x20 build/obj/usb_lld.o
                0x08009cc0                usb_lld_set_address
 .text.usb_lld_get_status_out
                0x08009ce0       0x20 build/obj/usb_lld.o
                0x08009ce0                usb_lld_get_status_out
 .text.usb_lld_get_status_in
                0x08009d00       0x20 build/obj/usb_lld.o
                0x08009d00                usb_lld_get_status_in
 .text.usb_lld_read_setup
                0x08009d20       0x20 build/obj/usb_lld.o
                0x08009d20                usb_lld_read_setup
 .text.usb_lld_prepare_receive
                0x08009d40       0x40 build/obj/usb_lld.o
                0x08009d40                usb_lld_prepare_receive
 .text.otg_epout_handler
                0x08009d80       0x90 build/obj/usb_lld.o
 .text.usb_lld_prepare_transmit
                0x08009e10       0x50 build/obj/usb_lld.o
                0x08009e10                usb_lld_prepare_transmit
 .text.otg_epin_handler
                0x08009e60       0xd0 build/obj/usb_lld.o
 .text.Vector14C
                0x08009f30      0x100 build/obj/usb_lld.o
                0x08009f30                Vector14C
 .text.usb_lld_start_out
                0x0800a030       0x10 build/obj/usb_lld.o
                0x0800a030                usb_lld_start_out
 .text.usb_lld_start_in
                0x0800a040       0x30 build/obj/usb_lld.o
                0x0800a040                usb_lld_start_in
 .text.usb_lld_stall_out
                0x0800a070       0x10 build/obj/usb_lld.o
                0x0800a070                usb_lld_stall_out
 .text.usb_lld_stall_in
                0x0800a080       0x10 build/obj/usb_lld.o
                0x0800a080                usb_lld_stall_in
 .text.usb_lld_clear_out
                0x0800a090       0x10 build/obj/usb_lld.o
                0x0800a090                usb_lld_clear_out
 .text.usb_lld_clear_in
                0x0800a0a0       0x10 build/obj/usb_lld.o
                0x0800a0a0                usb_lld_clear_in
 .text.rtc_lld_init
                0x0800a0b0       0x50 build/obj/rtc_lld.o
                0x0800a0b0                rtc_lld_init
 .text.rtc_lld_set_time
                0x0800a100       0x40 build/obj/rtc_lld.o
                0x0800a100                rtc_lld_set_time
 .text.rtc_lld_get_time
                0x0800a140       0x40 build/obj/rtc_lld.o
                0x0800a140                rtc_lld_get_time
 .text.rtc_lld_set_alarm
                0x0800a180       0x80 build/obj/rtc_lld.o
                0x0800a180                rtc_lld_set_alarm
 .text.rtc_lld_get_alarm
                0x0800a200       0x10 build/obj/rtc_lld.o
                0x0800a200                rtc_lld_get_alarm
 .text.rtc_lld_get_time_fat
                0x0800a210       0xb0 build/obj/rtc_lld.o
                0x0800a210                rtc_lld_get_time_fat
 .text.spi_lld_init
                0x0800a2c0       0x50 build/obj/spi_lld.o
                0x0800a2c0                spi_lld_init
 .text.icu_lld_serve_interrupt.constprop.0
                0x0800a310       0x90 build/obj/icu_lld.o
 .text.VectorA4
                0x0800a3a0       0x10 build/obj/icu_lld.o
                0x0800a3a0                VectorA4
 .text.VectorAC
                0x0800a3b0       0x10 build/obj/icu_lld.o
                0x0800a3b0                VectorAC
 .text.icu_lld_init
                0x0800a3c0       0x20 build/obj/icu_lld.o
                0x0800a3c0                icu_lld_init
 .text.icu_lld_start
                0x0800a3e0       0xd0 build/obj/icu_lld.o
                0x0800a3e0                icu_lld_start
 .text.icu_lld_enable
                0x0800a4b0       0x60 build/obj/icu_lld.o
                0x0800a4b0                icu_lld_enable
 .text.pwm_lld_serve_interrupt
                0x0800a510       0x70 build/obj/pwm_lld.o
 .text.VectorB8
                0x0800a580       0x20 build/obj/pwm_lld.o
                0x0800a580                VectorB8
 .text.Vector108
                0x0800a5a0       0x20 build/obj/pwm_lld.o
                0x0800a5a0                Vector108
 .text.pwm_lld_init
                0x0800a5c0       0x40 build/obj/pwm_lld.o
                0x0800a5c0                pwm_lld_init
 .text.pwm_lld_start
                0x0800a600      0x140 build/obj/pwm_lld.o
                0x0800a600                pwm_lld_start
 .text.pwm_lld_enable_channel
                0x0800a740       0x30 build/obj/pwm_lld.o
                0x0800a740                pwm_lld_enable_channel
 .text.notify1  0x0800a770       0x20 build/obj/serial_lld.o
 .text.notify2  0x0800a790       0x20 build/obj/serial_lld.o
 .text.serve_interrupt
                0x0800a7b0      0x130 build/obj/serial_lld.o
 .text.VectorD4
                0x0800a8e0       0x20 build/obj/serial_lld.o
                0x0800a8e0                VectorD4
 .text.VectorD8
                0x0800a900       0x20 build/obj/serial_lld.o
                0x0800a900                VectorD8
 .text.sd_lld_init
                0x0800a920       0x50 build/obj/serial_lld.o
                0x0800a920                sd_lld_init
 .text.sd_lld_start
                0x0800a970       0xd0 build/obj/serial_lld.o
                0x0800a970                sd_lld_start
 .text.__early_init
                0x0800aa40       0x10 build/obj/board.o
                0x0800aa40                __early_init
 .text.boardInit
                0x0800aa50       0x10 build/obj/board.o
                0x0800aa50                boardInit
 .text.disk_initialize
                0x0800aa60       0x30 build/obj/fatfs_diskio.o
                0x0800aa60                disk_initialize
 .text.disk_status
                0x0800aa90       0x30 build/obj/fatfs_diskio.o
                0x0800aa90                disk_status
 .text.disk_read
                0x0800aac0       0x30 build/obj/fatfs_diskio.o
                0x0800aac0                disk_read
 .text.disk_write
                0x0800aaf0       0x30 build/obj/fatfs_diskio.o
                0x0800aaf0                disk_write
 .text.disk_ioctl
                0x0800ab20       0x50 build/obj/fatfs_diskio.o
                0x0800ab20                disk_ioctl
 .text.get_fattime
                0x0800ab70       0x10 build/obj/fatfs_diskio.o
                0x0800ab70                get_fattime
 .text.ff_memalloc
                0x0800ab80       0x10 build/obj/fatfs_syscall.o
                0x0800ab80                ff_memalloc
 .text.ff_memfree
                0x0800ab90       0x10 build/obj/fatfs_syscall.o
                0x0800ab90                ff_memfree
 .text.move_window
                0x0800aba0       0xb0 build/obj/ff.o
 .text.sync     0x0800ac50       0x80 build/obj/ff.o
 .text.get_fileinfo
                0x0800acd0      0x1f0 build/obj/ff.o
 .text.validate
                0x0800aec0       0x30 build/obj/ff.o
 .text.check_fs
                0x0800aef0       0x50 build/obj/ff.o
 .text.chk_mounted
                0x0800af40      0x1f0 build/obj/ff.o
 .text.get_fat  0x0800b130       0xb0 build/obj/ff.o
                0x0800b130                get_fat
 .text.dir_sdi  0x0800b1e0       0xa0 build/obj/ff.o
 .text.put_fat  0x0800b280       0xf0 build/obj/ff.o
                0x0800b280                put_fat
 .text.create_chain
                0x0800b370       0xa0 build/obj/ff.o
 .text.dir_next
                0x0800b410      0x130 build/obj/ff.o
 .text.dir_find.part.4
                0x0800b540      0x4c0 build/obj/ff.o
 .text.follow_path
                0x0800ba00      0x330 build/obj/ff.o
 .text.dir_read
                0x0800bd30      0x320 build/obj/ff.o
 .text.remove_chain
                0x0800c050       0xb0 build/obj/ff.o
 .text.gen_numname
                0x0800c100      0x120 build/obj/ff.o
                0x0800c100                gen_numname
 .text.dir_register
                0x0800c220      0x440 build/obj/ff.o
 .text.f_mount  0x0800c660       0x20 build/obj/ff.o
                0x0800c660                f_mount
 .text.f_open   0x0800c680      0x180 build/obj/ff.o
                0x0800c680                f_open
 .text.f_read   0x0800c800      0x280 build/obj/ff.o
                0x0800c800                f_read
 .text.f_write  0x0800ca80      0x2d0 build/obj/ff.o
                0x0800ca80                f_write
 .text.f_sync   0x0800cd50       0x90 build/obj/ff.o
                0x0800cd50                f_sync
 .text.f_close  0x0800cde0       0x10 build/obj/ff.o
                0x0800cde0                f_close
 .text.f_opendir
                0x0800cdf0       0x80 build/obj/ff.o
                0x0800cdf0                f_opendir
 .text.f_readdir
                0x0800ce70       0x80 build/obj/ff.o
                0x0800ce70                f_readdir
 .text.f_stat   0x0800cef0       0x60 build/obj/ff.o
                0x0800cef0                f_stat
 .text.f_getfree
                0x0800cf50      0x1b0 build/obj/ff.o
                0x0800cf50                f_getfree
 .text.f_gets   0x0800d100       0xa0 build/obj/ff.o
                0x0800d100                f_gets
 .text.ff_convert
                0x0800d1a0       0x50 build/obj/ccsbcs.o
                0x0800d1a0                ff_convert
 .text.ff_wtoupper
                0x0800d1f0       0x30 build/obj/ccsbcs.o
                0x0800d1f0                ff_wtoupper
 .text._sbrk_r  0x0800d220       0x20 build/obj/syscalls.o
                0x0800d220                _sbrk_r
 .text.chprintf
                0x0800d240       0x20 build/obj/shell.o
 .text._strtok.constprop.2
                0x0800d260       0x40 build/obj/shell.o
 .text.cmd_systime
                0x0800d2a0       0x30 build/obj/shell.o
 .text.cmd_info
                0x0800d2d0       0xc0 build/obj/shell.o
 .text.shellInit
                0x0800d390       0x10 build/obj/shell.o
                0x0800d390                shellInit
 .text.shellExit
                0x0800d3a0       0x30 build/obj/shell.o
                0x0800d3a0                shellExit
 .text.shellCreate
                0x0800d3d0       0x20 build/obj/shell.o
                0x0800d3d0                shellCreate
 .text.shellGetLine
                0x0800d3f0       0xa0 build/obj/shell.o
                0x0800d3f0                shellGetLine
 .text.shell_thread
                0x0800d490      0x1e0 build/obj/shell.o
 .text.long_to_string_with_divisor.constprop.0
                0x0800d670       0x70 build/obj/chprintf.o
 .text.chvprintf
                0x0800d6e0      0x380 build/obj/chprintf.o
                0x0800d6e0                chvprintf
 .text.stm32_rtc_bcd2tm
                0x0800da60       0xb0 build/obj/chrtclib.o
 .text.stm32_rtc_tm2bcd
                0x0800db10      0x110 build/obj/chrtclib.o
 .text.rtcGetTimeTm
                0x0800dc20       0x30 build/obj/chrtclib.o
                0x0800dc20                rtcGetTimeTm
 .text.rtcGetTimeUnixSec
                0x0800dc50       0x30 build/obj/chrtclib.o
                0x0800dc50                rtcGetTimeUnixSec
 .text.rtcSetTimeUnixSec
                0x0800dc80       0x30 build/obj/chrtclib.o
                0x0800dc80                rtcSetTimeUnixSec
 .text.Thread1  0x0800dcb0       0x50 build/obj/main.o
 .text.task20ms
                0x0800dd00       0x40 build/obj/main.o
 .text.chprintf
                0x0800dd40       0x20 build/obj/console.o
 .text.cmd_alarm
                0x0800dd60       0xd0 build/obj/console.o
                0x0800dd60                cmd_alarm
 .text.cmd_date
                0x0800de30       0xf0 build/obj/console.o
                0x0800de30                cmd_date
 .text.cmd_test
                0x0800df20       0x60 build/obj/console.o
                0x0800df20                cmd_test
 .text.cmd_threads
                0x0800df80       0x70 build/obj/console.o
                0x0800df80                cmd_threads
 .text.cmd_mem  0x0800dff0       0x60 build/obj/console.o
                0x0800dff0                cmd_mem
 .text.cmd_sleep
                0x0800e050       0x60 build/obj/console.o
                0x0800e050                cmd_sleep
 .text.consoleInit
                0x0800e0b0       0x30 build/obj/console.o
                0x0800e0b0                consoleInit
 .text.consoleStart
                0x0800e0e0       0x40 build/obj/console.o
                0x0800e0e0                consoleStart
 .text.chprintf
                0x0800e120       0x20 build/obj/sdcard.o
 .text.scan_files.constprop.0
                0x0800e140       0xa0 build/obj/sdcard.o
 .text.sdc_lld_is_card_inserted
                0x0800e1e0       0x10 build/obj/sdcard.o
                0x0800e1e0                sdc_lld_is_card_inserted
 .text.sdc_lld_is_write_protected
                0x0800e1f0       0x10 build/obj/sdcard.o
                0x0800e1f0                sdc_lld_is_write_protected
 .text.sdcardInit
                0x0800e200       0x30 build/obj/sdcard.o
                0x0800e200                sdcardInit
 .text.sdcardMount
                0x0800e230       0x60 build/obj/sdcard.o
                0x0800e230                sdcardMount
 .text.sdcardUMount
                0x0800e290       0x30 build/obj/sdcard.o
                0x0800e290                sdcardUMount
 .text.sdcardIsMounted
                0x0800e2c0       0x10 build/obj/sdcard.o
                0x0800e2c0                sdcardIsMounted
 .text.cmd_tree
                0x0800e2d0       0x80 build/obj/sdcard.o
                0x0800e2d0                cmd_tree
 .text.cmd_mountsd
                0x0800e350       0x80 build/obj/sdcard.o
                0x0800e350                cmd_mountsd
 .text.cmd_umountsd
                0x0800e3d0       0x40 build/obj/sdcard.o
                0x0800e3d0                cmd_umountsd
 .text.cmd_cat  0x0800e410       0x90 build/obj/sdcard.o
                0x0800e410                cmd_cat
 .text.cmd_sdiotest
                0x0800e4a0      0x4f0 build/obj/sdcard.o
                0x0800e4a0                cmd_sdiotest
 .text.chprintf
                0x0800e990       0x20 build/obj/can_comm.o
 .text.can_tx   0x0800e9b0       0x80 build/obj/can_comm.o
 .text.can_rx   0x0800ea30      0x200 build/obj/can_comm.o
 .text.can_commInit
                0x0800ec30       0x60 build/obj/can_comm.o
                0x0800ec30                can_commInit
 .text.cmd_can_commvalues
                0x0800ec90       0x80 build/obj/can_comm.o
                0x0800ec90                cmd_can_commvalues
 .text.cmd_canmppttest
                0x0800ed10      0x150 build/obj/can_comm.o
                0x0800ed10                cmd_canmppttest
 .text.cmd_candata
                0x0800ee60      0x130 build/obj/can_comm.o
                0x0800ee60                cmd_candata
 .text.chprintf
                0x0800ef90       0x20 build/obj/light.o
 .text.lightInit
                0x0800efb0       0x20 build/obj/light.o
                0x0800efb0                lightInit
 .text.lightCalc
                0x0800efd0       0x60 build/obj/light.o
                0x0800efd0                lightCalc
 .text.cmd_lightvalues
                0x0800f030       0x70 build/obj/light.o
                0x0800f030                cmd_lightvalues
 .text.speedWheelPeriodCb
                0x0800f0a0       0x20 build/obj/speed.o
 .text.speedWheelPeriodNumber
                0x0800f0c0       0x10 build/obj/speed.o
 .text.chprintf
                0x0800f0d0       0x20 build/obj/speed.o
 .text.speedInit
                0x0800f0f0       0x30 build/obj/speed.o
                0x0800f0f0                speedInit
 .text.speedCalc
                0x0800f120       0xb0 build/obj/speed.o
                0x0800f120                speedCalc
 .text.speedGetRpm
                0x0800f1d0       0x20 build/obj/speed.o
                0x0800f1d0                speedGetRpm
 .text.cmd_speedvalues
                0x0800f1f0       0x90 build/obj/speed.o
                0x0800f1f0                cmd_speedvalues
 .text.adcerrorcallback
                0x0800f280       0x10 build/obj/meas.o
 .text.chprintf
                0x0800f290       0x20 build/obj/meas.o
 .text.measInit
                0x0800f2b0       0x20 build/obj/meas.o
                0x0800f2b0                measInit
 .text.measCalc
                0x0800f2d0      0x1f0 build/obj/meas.o
                0x0800f2d0                measCalc
 .text.cmd_measvalues
                0x0800f4c0       0xc0 build/obj/meas.o
                0x0800f4c0                cmd_measvalues
 .text.chprintf
                0x0800f580       0x20 build/obj/cruise.o
 .text.cruiseInit
                0x0800f5a0       0x80 build/obj/cruise.o
                0x0800f5a0                cruiseInit
 .text.cruisePID
                0x0800f620      0x180 build/obj/cruise.o
                0x0800f620                cruisePID
 .text.cruiseCalc
                0x0800f7a0       0xc0 build/obj/cruise.o
                0x0800f7a0                cruiseCalc
 .text.cmd_cruisevalues
                0x0800f860      0x100 build/obj/cruise.o
                0x0800f860                cmd_cruisevalues
 .text.cmd_setcruisevalues
                0x0800f960      0x1b0 build/obj/cruise.o
                0x0800f960                cmd_setcruisevalues
 .text.chprintf
                0x0800fb10       0x20 build/obj/dsp.o
 .text.dsp_LoadTop
                0x0800fb30       0xe0 build/obj/dsp.o
                0x0800fb30                dsp_LoadTop
 .text.dsp_LoadMidle
                0x0800fc10       0x70 build/obj/dsp.o
                0x0800fc10                dsp_LoadMidle
 .text.dspInit  0x0800fc80       0x20 build/obj/dsp.o
                0x0800fc80                dspInit
 .text.dspCalc  0x0800fca0       0x10 build/obj/dsp.o
                0x0800fca0                dspCalc
 .text.cmdfrappans_dspmessages
                0x0800fcb0      0x130 build/obj/dsp.o
                0x0800fcb0                cmdfrappans_dspmessages
 .text.gfx_Cls  0x0800fde0       0x30 build/obj/gfx.o
                0x0800fde0                gfx_Cls
 .text.file_Mount
                0x0800fe10       0x30 build/obj/gfx.o
                0x0800fe10                file_Mount
 .text.media_Image
                0x0800fe40       0x60 build/obj/gfx.o
                0x0800fe40                media_Image
 .text.media_SetSector
                0x0800fea0       0x60 build/obj/gfx.o
                0x0800fea0                media_SetSector
 .text.media_VideoFrame
                0x0800ff00       0x80 build/obj/gfx.o
                0x0800ff00                media_VideoFrame
 .text.gfx_BGcolour
                0x0800ff80       0x40 build/obj/gfx.o
                0x0800ff80                gfx_BGcolour
 .text.uart_commInit
                0x0800ffc0       0x20 build/obj/uart_comm.o
                0x0800ffc0                uart_commInit
 .text.asctime  0x0800ffe0       0x10 c:/chibistudio/tools/gnu tools arm embedded/4.7 2014q2/bin/../lib/gcc/arm-none-eabi/4.7.4/../../../../arm-none-eabi/lib/armv7e-m\libg.a(lib_a-asctime.o)
                0x0800ffe0                asctime
 .text.asctime_r
                0x0800fff0       0x54 c:/chibistudio/tools/gnu tools arm embedded/4.7 2014q2/bin/../lib/gcc/arm-none-eabi/4.7.4/../../../../arm-none-eabi/lib/armv7e-m\libg.a(lib_a-asctime_r.o)
                0x0800fff0                asctime_r
 *fill*         0x08010044        0xc 00
 .text.atol     0x08010050        0x8 c:/chibistudio/tools/gnu tools arm embedded/4.7 2014q2/bin/../lib/gcc/arm-none-eabi/4.7.4/../../../../arm-none-eabi/lib/armv7e-m\libg.a(lib_a-atol.o)
                0x08010050                atol
 *fill*         0x08010058        0x8 00
 .text.localtime_r
                0x08010060        0x8 c:/chibistudio/tools/gnu tools arm embedded/4.7 2014q2/bin/../lib/gcc/arm-none-eabi/4.7.4/../../../../arm-none-eabi/lib/armv7e-m\libg.a(lib_a-lcltime_r.o)
                0x08010060                localtime_r
 *fill*         0x08010068        0x8 00
 .text.memcmp   0x08010070       0xb8 c:/chibistudio/tools/gnu tools arm embedded/4.7 2014q2/bin/../lib/gcc/arm-none-eabi/4.7.4/../../../../arm-none-eabi/lib/armv7e-m\libg.a(lib_a-memcmp.o)
                0x08010070                memcmp
 *fill*         0x08010128        0x8 00
 .text.memcpy   0x08010130      0x144 c:/chibistudio/tools/gnu tools arm embedded/4.7 2014q2/bin/../lib/gcc/arm-none-eabi/4.7.4/../../../../arm-none-eabi/lib/armv7e-m\libg.a(lib_a-memcpy.o)
                0x08010130                memcpy
 *fill*         0x08010274        0xc 00
 .text.memset   0x08010280      0x12c c:/chibistudio/tools/gnu tools arm embedded/4.7 2014q2/bin/../lib/gcc/arm-none-eabi/4.7.4/../../../../arm-none-eabi/lib/armv7e-m\libg.a(lib_a-memset.o)
                0x08010280                memset
 *fill*         0x080103ac        0x4 00
 .text.validate_structure
                0x080103b0      0x20c c:/chibistudio/tools/gnu tools arm embedded/4.7 2014q2/bin/../lib/gcc/arm-none-eabi/4.7.4/../../../../arm-none-eabi/lib/armv7e-m\libg.a(lib_a-mktime.o)
 *fill*         0x080105bc        0x4 00
 .text.mktime   0x080105c0      0x36c c:/chibistudio/tools/gnu tools arm embedded/4.7 2014q2/bin/../lib/gcc/arm-none-eabi/4.7.4/../../../../arm-none-eabi/lib/armv7e-m\libg.a(lib_a-mktime.o)
                0x080105c0                mktime
 *fill*         0x0801092c        0x4 00
 .text.__tzcalc_limits
                0x08010930      0x1b8 c:/chibistudio/tools/gnu tools arm embedded/4.7 2014q2/bin/../lib/gcc/arm-none-eabi/4.7.4/../../../../arm-none-eabi/lib/armv7e-m\libg.a(lib_a-mktm_r.o)
                0x08010930                __tzcalc_limits
 *fill*         0x08010ae8        0x8 00
 .text._mktm_r  0x08010af0      0x360 c:/chibistudio/tools/gnu tools arm embedded/4.7 2014q2/bin/../lib/gcc/arm-none-eabi/4.7.4/../../../../arm-none-eabi/lib/armv7e-m\libg.a(lib_a-mktm_r.o)
                0x08010af0                _mktm_r
 .text.sprintf  0x08010e50       0x50 c:/chibistudio/tools/gnu tools arm embedded/4.7 2014q2/bin/../lib/gcc/arm-none-eabi/4.7.4/../../../../arm-none-eabi/lib/armv7e-m\libg.a(lib_a-sprintf.o)
                0x08010e50                sprintf
 .text.strcasecmp
                0x08010ea0       0x44 c:/chibistudio/tools/gnu tools arm embedded/4.7 2014q2/bin/../lib/gcc/arm-none-eabi/4.7.4/../../../../arm-none-eabi/lib/armv7e-m\libg.a(lib_a-strcasecmp.o)
                0x08010ea0                strcasecmp
 *fill*         0x08010ee4        0xc 00
 .text.strcmp   0x08010ef0       0x80 c:/chibistudio/tools/gnu tools arm embedded/4.7 2014q2/bin/../lib/gcc/arm-none-eabi/4.7.4/../../../../arm-none-eabi/lib/armv7e-m\libg.a(lib_a-strcmp.o)
                0x08010ef0                strcmp
 .text.strcmp_unaligned
                0x08010f70      0x15c c:/chibistudio/tools/gnu tools arm embedded/4.7 2014q2/bin/../lib/gcc/arm-none-eabi/4.7.4/../../../../arm-none-eabi/lib/armv7e-m\libg.a(lib_a-strcmp.o)
 *fill*         0x080110cc        0x4 00
 .text.strcpy   0x080110d0       0xbc c:/chibistudio/tools/gnu tools arm embedded/4.7 2014q2/bin/../lib/gcc/arm-none-eabi/4.7.4/../../../../arm-none-eabi/lib/armv7e-m\libg.a(lib_a-strcpy.o)
                0x080110d0                strcpy
 *fill*         0x0801118c        0x4 00
 .text.strlen   0x08011190       0x60 c:/chibistudio/tools/gnu tools arm embedded/4.7 2014q2/bin/../lib/gcc/arm-none-eabi/4.7.4/../../../../arm-none-eabi/lib/armv7e-m\libg.a(lib_a-strlen.o)
                0x08011190                strlen
 .text.strpbrk  0x080111f0       0x4c c:/chibistudio/tools/gnu tools arm embedded/4.7 2014q2/bin/../lib/gcc/arm-none-eabi/4.7.4/../../../../arm-none-eabi/lib/armv7e-m\libg.a(lib_a-strpbrk.o)
                0x080111f0                strpbrk
 *fill*         0x0801123c        0x4 00
 .text.strspn   0x08011240       0x40 c:/chibistudio/tools/gnu tools arm embedded/4.7 2014q2/bin/../lib/gcc/arm-none-eabi/4.7.4/../../../../arm-none-eabi/lib/armv7e-m\libg.a(lib_a-strspn.o)
                0x08011240                strspn
 .text._strtol_r
                0x08011280      0x134 c:/chibistudio/tools/gnu tools arm embedded/4.7 2014q2/bin/../lib/gcc/arm-none-eabi/4.7.4/../../../../arm-none-eabi/lib/armv7e-m\libg.a(lib_a-strtol.o)
                0x08011280                _strtol_r
 *fill*         0x080113b4        0xc 00
 .text.strtol   0x080113c0       0x1c c:/chibistudio/tools/gnu tools arm embedded/4.7 2014q2/bin/../lib/gcc/arm-none-eabi/4.7.4/../../../../arm-none-eabi/lib/armv7e-m\libg.a(lib_a-strtol.o)
                0x080113c0                strtol
 *fill*         0x080113dc        0x4 00
 .text._svfprintf_r
                0x080113e0     0x1adc c:/chibistudio/tools/gnu tools arm embedded/4.7 2014q2/bin/../lib/gcc/arm-none-eabi/4.7.4/../../../../arm-none-eabi/lib/armv7e-m\libg.a(lib_a-svfprintf.o)
                0x080113e0                _svfprintf_r
 *fill*         0x08012ebc        0x4 00
 .text.__tz_lock
                0x08012ec0        0x4 c:/chibistudio/tools/gnu tools arm embedded/4.7 2014q2/bin/../lib/gcc/arm-none-eabi/4.7.4/../../../../arm-none-eabi/lib/armv7e-m\libg.a(lib_a-tzlock.o)
                0x08012ec0                __tz_lock
 *fill*         0x08012ec4        0xc 00
 .text.__tz_unlock
                0x08012ed0        0x4 c:/chibistudio/tools/gnu tools arm embedded/4.7 2014q2/bin/../lib/gcc/arm-none-eabi/4.7.4/../../../../arm-none-eabi/lib/armv7e-m\libg.a(lib_a-tzlock.o)
                0x08012ed0                __tz_unlock
 *fill*         0x08012ed4        0xc 00
 .text.div      0x08012ee0       0x2c c:/chibistudio/tools/gnu tools arm embedded/4.7 2014q2/bin/../lib/gcc/arm-none-eabi/4.7.4/../../../../arm-none-eabi/lib/armv7e-m\libg.a(lib_a-div.o)
                0x08012ee0                div
 *fill*         0x08012f0c        0x4 00
 .text.quorem   0x08012f10      0x2ec c:/chibistudio/tools/gnu tools arm embedded/4.7 2014q2/bin/../lib/gcc/arm-none-eabi/4.7.4/../../../../arm-none-eabi/lib/armv7e-m\libg.a(lib_a-dtoa.o)
 *fill*         0x080131fc        0x4 00
 .text._dtoa_r  0x08013200     0x1258 c:/chibistudio/tools/gnu tools arm embedded/4.7 2014q2/bin/../lib/gcc/arm-none-eabi/4.7.4/../../../../arm-none-eabi/lib/armv7e-m\libg.a(lib_a-dtoa.o)
                0x08013200                _dtoa_r
 *fill*         0x08014458        0x8 00
 .text._malloc_trim_r
                0x08014460       0x98 c:/chibistudio/tools/gnu tools arm embedded/4.7 2014q2/bin/../lib/gcc/arm-none-eabi/4.7.4/../../../../arm-none-eabi/lib/armv7e-m\libg.a(lib_a-freer.o)
                0x08014460                _malloc_trim_r
 *fill*         0x080144f8        0x8 00
 .text._free_r  0x08014500      0x194 c:/chibistudio/tools/gnu tools arm embedded/4.7 2014q2/bin/../lib/gcc/arm-none-eabi/4.7.4/../../../../arm-none-eabi/lib/armv7e-m\libg.a(lib_a-freer.o)
                0x08014500                _free_r
 *fill*         0x08014694        0xc 00
 .text.__gettzinfo
                0x080146a0        0xc c:/chibistudio/tools/gnu tools arm embedded/4.7 2014q2/bin/../lib/gcc/arm-none-eabi/4.7.4/../../../../arm-none-eabi/lib/armv7e-m\libg.a(lib_a-gettzinfo.o)
                0x080146a0                __gettzinfo
 *fill*         0x080146ac        0x4 00
 .text._localeconv_r
                0x080146b0        0xc c:/chibistudio/tools/gnu tools arm embedded/4.7 2014q2/bin/../lib/gcc/arm-none-eabi/4.7.4/../../../../arm-none-eabi/lib/armv7e-m\libg.a(lib_a-locale.o)
                0x080146b0                _localeconv_r
 *fill*         0x080146bc        0x4 00
 .text._malloc_r
                0x080146c0      0x55c c:/chibistudio/tools/gnu tools arm embedded/4.7 2014q2/bin/../lib/gcc/arm-none-eabi/4.7.4/../../../../arm-none-eabi/lib/armv7e-m\libg.a(lib_a-mallocr.o)
                0x080146c0                _malloc_r
 *fill*         0x08014c1c        0x4 00
 .text.memchr   0x08014c20      0x140 c:/chibistudio/tools/gnu tools arm embedded/4.7 2014q2/bin/../lib/gcc/arm-none-eabi/4.7.4/../../../../arm-none-eabi/lib/armv7e-m\libg.a(lib_a-memchr.o)
                0x08014c20                memchr
 .text.__malloc_lock
                0x08014d60        0x4 c:/chibistudio/tools/gnu tools arm embedded/4.7 2014q2/bin/../lib/gcc/arm-none-eabi/4.7.4/../../../../arm-none-eabi/lib/armv7e-m\libg.a(lib_a-mlock.o)
                0x08014d60                __malloc_lock
 *fill*         0x08014d64        0xc 00
 .text.__malloc_unlock
                0x08014d70        0x4 c:/chibistudio/tools/gnu tools arm embedded/4.7 2014q2/bin/../lib/gcc/arm-none-eabi/4.7.4/../../../../arm-none-eabi/lib/armv7e-m\libg.a(lib_a-mlock.o)
                0x08014d70                __malloc_unlock
 *fill*         0x08014d74        0xc 00
 .text._Balloc  0x08014d80       0x4c c:/chibistudio/tools/gnu tools arm embedded/4.7 2014q2/bin/../lib/gcc/arm-none-eabi/4.7.4/../../../../arm-none-eabi/lib/armv7e-m\libg.a(lib_a-mprec.o)
                0x08014d80                _Balloc
 *fill*         0x08014dcc        0x4 00
 .text._Bfree   0x08014dd0       0x14 c:/chibistudio/tools/gnu tools arm embedded/4.7 2014q2/bin/../lib/gcc/arm-none-eabi/4.7.4/../../../../arm-none-eabi/lib/armv7e-m\libg.a(lib_a-mprec.o)
                0x08014dd0                _Bfree
 *fill*         0x08014de4        0xc 00
 .text.__multadd
                0x08014df0       0xf8 c:/chibistudio/tools/gnu tools arm embedded/4.7 2014q2/bin/../lib/gcc/arm-none-eabi/4.7.4/../../../../arm-none-eabi/lib/armv7e-m\libg.a(lib_a-mprec.o)
                0x08014df0                __multadd
 *fill*         0x08014ee8        0x8 00
 .text.__hi0bits
                0x08014ef0       0x3c c:/chibistudio/tools/gnu tools arm embedded/4.7 2014q2/bin/../lib/gcc/arm-none-eabi/4.7.4/../../../../arm-none-eabi/lib/armv7e-m\libg.a(lib_a-mprec.o)
                0x08014ef0                __hi0bits
 *fill*         0x08014f2c        0x4 00
 .text.__lo0bits
                0x08014f30       0x5c c:/chibistudio/tools/gnu tools arm embedded/4.7 2014q2/bin/../lib/gcc/arm-none-eabi/4.7.4/../../../../arm-none-eabi/lib/armv7e-m\libg.a(lib_a-mprec.o)
                0x08014f30                __lo0bits
 *fill*         0x08014f8c        0x4 00
 .text.__i2b    0x08014f90       0x14 c:/chibistudio/tools/gnu tools arm embedded/4.7 2014q2/bin/../lib/gcc/arm-none-eabi/4.7.4/../../../../arm-none-eabi/lib/armv7e-m\libg.a(lib_a-mprec.o)
                0x08014f90                __i2b
 *fill*         0x08014fa4        0xc 00
 .text.__multiply
                0x08014fb0      0x2d0 c:/chibistudio/tools/gnu tools arm embedded/4.7 2014q2/bin/../lib/gcc/arm-none-eabi/4.7.4/../../../../arm-none-eabi/lib/armv7e-m\libg.a(lib_a-mprec.o)
                0x08014fb0                __multiply
 .text.__pow5mult
                0x08015280       0x94 c:/chibistudio/tools/gnu tools arm embedded/4.7 2014q2/bin/../lib/gcc/arm-none-eabi/4.7.4/../../../../arm-none-eabi/lib/armv7e-m\libg.a(lib_a-mprec.o)
                0x08015280                __pow5mult
 *fill*         0x08015314        0xc 00
 .text.__lshift
                0x08015320      0x188 c:/chibistudio/tools/gnu tools arm embedded/4.7 2014q2/bin/../lib/gcc/arm-none-eabi/4.7.4/../../../../arm-none-eabi/lib/armv7e-m\libg.a(lib_a-mprec.o)
                0x08015320                __lshift
 *fill*         0x080154a8        0x8 00
 .text.__mcmp   0x080154b0       0x5c c:/chibistudio/tools/gnu tools arm embedded/4.7 2014q2/bin/../lib/gcc/arm-none-eabi/4.7.4/../../../../arm-none-eabi/lib/armv7e-m\libg.a(lib_a-mprec.o)
                0x080154b0                __mcmp
 *fill*         0x0801550c        0x4 00
 .text.__mdiff  0x08015510      0x20c c:/chibistudio/tools/gnu tools arm embedded/4.7 2014q2/bin/../lib/gcc/arm-none-eabi/4.7.4/../../../../arm-none-eabi/lib/armv7e-m\libg.a(lib_a-mprec.o)
                0x08015510                __mdiff
 *fill*         0x0801571c        0x4 00
 .text.__d2b    0x08015720       0xc0 c:/chibistudio/tools/gnu tools arm embedded/4.7 2014q2/bin/../lib/gcc/arm-none-eabi/4.7.4/../../../../arm-none-eabi/lib/armv7e-m\libg.a(lib_a-mprec.o)
                0x08015720                __d2b
 .text.__fpclassifyd
                0x080157e0       0x68 c:/chibistudio/tools/gnu tools arm embedded/4.7 2014q2/bin/../lib/gcc/arm-none-eabi/4.7.4/../../../../arm-none-eabi/lib/armv7e-m\libg.a(lib_a-s_fpclassify.o)
                0x080157e0                __fpclassifyd
 *fill*         0x08015848        0x8 00
 .text.__ssprint_r
                0x08015850      0x100 c:/chibistudio/tools/gnu tools arm embedded/4.7 2014q2/bin/../lib/gcc/arm-none-eabi/4.7.4/../../../../arm-none-eabi/lib/armv7e-m\libg.a(lib_a-svfiprintf.o)
                0x08015850                __ssprint_r
 .text._calloc_r
                0x08015950       0x60 c:/chibistudio/tools/gnu tools arm embedded/4.7 2014q2/bin/../lib/gcc/arm-none-eabi/4.7.4/../../../../arm-none-eabi/lib/armv7e-m\libg.a(lib_a-callocr.o)
                0x08015950                _calloc_r
 .text.memmove  0x080159b0      0x198 c:/chibistudio/tools/gnu tools arm embedded/4.7 2014q2/bin/../lib/gcc/arm-none-eabi/4.7.4/../../../../arm-none-eabi/lib/armv7e-m\libg.a(lib_a-memmove.o)
                0x080159b0                memmove
 *fill*         0x08015b48        0x8 00
 .text._realloc_r
                0x08015b50      0x3dc c:/chibistudio/tools/gnu tools arm embedded/4.7 2014q2/bin/../lib/gcc/arm-none-eabi/4.7.4/../../../../arm-none-eabi/lib/armv7e-m\libg.a(lib_a-reallocr.o)
                0x08015b50                _realloc_r
 *(.rodata)
 *(.rodata.*)
 *fill*         0x08015f2c        0x4 00
 .rodata.str1.4
                0x08015f30        0x5 build/obj/chsys.o
                                  0x8 (size before relaxing)
 *fill*         0x08015f35        0xb 00
 .rodata.ch_debug
                0x08015f40       0x18 build/obj/chregistry.o
                0x08015f40                ch_debug
 *fill*         0x08015f58        0x8 00
 .rodata.wa     0x08015f60       0x14 build/obj/test.o
                0x08015f60                wa
 *fill*         0x08015f74        0xc 00
 .rodata.str1.4
                0x08015f80      0x1f7 build/obj/test.o
                                0x208 (size before relaxing)
 *fill*         0x08016177        0x9 00
 .rodata.patterns
                0x08016180       0x30 build/obj/test.o
 .rodata.testthd1
                0x080161b0       0x10 build/obj/testthd.o
                0x080161b0                testthd1
 .rodata.testthd2
                0x080161c0       0x10 build/obj/testthd.o
                0x080161c0                testthd2
 .rodata.testthd3
                0x080161d0       0x10 build/obj/testthd.o
                0x080161d0                testthd3
 .rodata.testthd4
                0x080161e0       0x10 build/obj/testthd.o
                0x080161e0                testthd4
 .rodata.patternthd
                0x080161f0       0x14 build/obj/testthd.o
                0x080161f0                patternthd
 *fill*         0x08016204        0xc 00
 .rodata.str1.4
                0x08016210       0x77 build/obj/testthd.o
                                 0x80 (size before relaxing)
 *fill*         0x08016287        0x9 00
 .rodata.testsem1
                0x08016290       0x10 build/obj/testsem.o
                0x08016290                testsem1
 .rodata.testsem2
                0x080162a0       0x10 build/obj/testsem.o
                0x080162a0                testsem2
 .rodata.testsem3
                0x080162b0       0x10 build/obj/testsem.o
                0x080162b0                testsem3
 .rodata.testsem4
                0x080162c0       0x10 build/obj/testsem.o
                0x080162c0                testsem4
 .rodata.patternsem
                0x080162d0       0x14 build/obj/testsem.o
                0x080162d0                patternsem
 *fill*         0x080162e4        0xc 00
 .rodata.str1.4
                0x080162f0       0x6e build/obj/testsem.o
                                 0x8c (size before relaxing)
 *fill*         0x0801635e        0x2 00
 .rodata.testmtx5
                0x08016360       0x10 build/obj/testmtx.o
                0x08016360                testmtx5
 .rodata.testmtx6
                0x08016370       0x10 build/obj/testmtx.o
                0x08016370                testmtx6
 .rodata.testmtx7
                0x08016380       0x10 build/obj/testmtx.o
                0x08016380                testmtx7
 .rodata.testmtx8
                0x08016390       0x10 build/obj/testmtx.o
                0x08016390                testmtx8
 .rodata.str1.4
                0x080163a0       0xed build/obj/testmtx.o
                                0x10c (size before relaxing)
 *fill*         0x0801648d        0x3 00
 .rodata.patternmtx
                0x08016490       0x24 build/obj/testmtx.o
                0x08016490                patternmtx
 *fill*         0x080164b4        0xc 00
 .rodata.testmtx1
                0x080164c0       0x10 build/obj/testmtx.o
                0x080164c0                testmtx1
 .rodata.testmtx2
                0x080164d0       0x10 build/obj/testmtx.o
                0x080164d0                testmtx2
 .rodata.testmtx3
                0x080164e0       0x10 build/obj/testmtx.o
                0x080164e0                testmtx3
 .rodata.testmtx4
                0x080164f0       0x10 build/obj/testmtx.o
                0x080164f0                testmtx4
 .rodata.testmsg1
                0x08016500       0x10 build/obj/testmsg.o
                0x08016500                testmsg1
 .rodata.str1.4
                0x08016510        0xf build/obj/testmsg.o
                                 0x14 (size before relaxing)
 *fill*         0x0801651f        0x1 00
 .rodata.patternmsg
                0x08016520        0x8 build/obj/testmsg.o
                0x08016520                patternmsg
 *fill*         0x08016528        0x8 00
 .rodata.patternmbox
                0x08016530        0x8 build/obj/testmbox.o
                0x08016530                patternmbox
 *fill*         0x08016538        0x8 00
 .rodata.str1.4
                0x08016540       0x20 build/obj/testmbox.o
                                 0x28 (size before relaxing)
 .rodata.testmbox1
                0x08016560       0x10 build/obj/testmbox.o
                0x08016560                testmbox1
 .rodata.patternevt
                0x08016570       0x10 build/obj/testevt.o
                0x08016570                patternevt
 .rodata.testevt2
                0x08016580       0x10 build/obj/testevt.o
                0x08016580                testevt2
 .rodata.str1.4
                0x08016590       0x52 build/obj/testevt.o
                                 0x5c (size before relaxing)
 *fill*         0x080165e2        0xe 00
 .rodata.testevt1
                0x080165f0       0x10 build/obj/testevt.o
                0x080165f0                testevt1
 .rodata.evhndl
                0x08016600        0xc build/obj/testevt.o
 *fill*         0x0801660c        0x4 00
 .rodata.testevt3
                0x08016610       0x10 build/obj/testevt.o
                0x08016610                testevt3
 .rodata.patternheap
                0x08016620        0x8 build/obj/testheap.o
                0x08016620                patternheap
 *fill*         0x08016628        0x8 00
 .rodata.str1.4
                0x08016630       0x28 build/obj/testheap.o
 *fill*         0x08016658        0x8 00
 .rodata.testheap1
                0x08016660       0x10 build/obj/testheap.o
                0x08016660                testheap1
 .rodata.str1.4
                0x08016670       0x1c build/obj/testpools.o
 *fill*         0x0801668c        0x4 00
 .rodata.patternpools
                0x08016690        0x8 build/obj/testpools.o
                0x08016690                patternpools
 *fill*         0x08016698        0x8 00
 .rodata.testpools1
                0x080166a0       0x10 build/obj/testpools.o
                0x080166a0                testpools1
 .rodata.testdyn1
                0x080166b0       0x10 build/obj/testdyn.o
                0x080166b0                testdyn1
 .rodata.testdyn2
                0x080166c0       0x10 build/obj/testdyn.o
                0x080166c0                testdyn2
 .rodata.testdyn3
                0x080166d0       0x10 build/obj/testdyn.o
                0x080166d0                testdyn3
 .rodata.str1.4
                0x080166e0       0x8d build/obj/testdyn.o
                                 0xa4 (size before relaxing)
 *fill*         0x0801676d        0x3 00
 .rodata.patterndyn
                0x08016770       0x10 build/obj/testdyn.o
                0x08016770                patterndyn
 .rodata.testqueues1
                0x08016780       0x10 build/obj/testqueues.o
                0x08016780                testqueues1
 .rodata.testqueues2
                0x08016790       0x10 build/obj/testqueues.o
                0x08016790                testqueues2
 .rodata.str1.4
                0x080167a0       0x2d build/obj/testqueues.o
                                 0x38 (size before relaxing)
 *fill*         0x080167cd        0x3 00
 .rodata.patternqueues
                0x080167d0        0xc build/obj/testqueues.o
                0x080167d0                patternqueues
 *fill*         0x080167dc        0x4 00
 .rodata.testbmk8
                0x080167e0       0x10 build/obj/testbmk.o
                0x080167e0                testbmk8
 .rodata.testbmk10
                0x080167f0       0x10 build/obj/testbmk.o
                0x080167f0                testbmk10
 .rodata.testbmk5
                0x08016800       0x10 build/obj/testbmk.o
                0x08016800                testbmk5
 .rodata.testbmk4
                0x08016810       0x10 build/obj/testbmk.o
                0x08016810                testbmk4
 .rodata.testbmk3
                0x08016820       0x10 build/obj/testbmk.o
                0x08016820                testbmk3
 .rodata.testbmk13
                0x08016830       0x10 build/obj/testbmk.o
                0x08016830                testbmk13
 .rodata.testbmk2
                0x08016840       0x10 build/obj/testbmk.o
                0x08016840                testbmk2
 .rodata.str1.4
                0x08016850      0x2c7 build/obj/testbmk.o
                                0x2c8 (size before relaxing)
 *fill*         0x08016b17        0x9 00
 .rodata.testbmk9
                0x08016b20       0x10 build/obj/testbmk.o
                0x08016b20                testbmk9
 .rodata.testbmk1
                0x08016b30       0x10 build/obj/testbmk.o
                0x08016b30                testbmk1
 .rodata.testbmk11
                0x08016b40       0x10 build/obj/testbmk.o
                0x08016b40                testbmk11
 .rodata.testbmk12
                0x08016b50       0x10 build/obj/testbmk.o
                0x08016b50                testbmk12
 .rodata.patternbmk
                0x08016b60       0x38 build/obj/testbmk.o
                0x08016b60                patternbmk
 *fill*         0x08016b98        0x8 00
 .rodata.testbmk6
                0x08016ba0       0x10 build/obj/testbmk.o
                0x08016ba0                testbmk6
 .rodata.testbmk7
                0x08016bb0       0x10 build/obj/testbmk.o
                0x08016bb0                testbmk7
 .rodata.sdc_vmt
                0x08016bc0       0x20 build/obj/sdc.o
 .rodata.vmt    0x08016be0       0x20 build/obj/serial.o
 .rodata.zero_status
                0x08016c00        0x4 build/obj/usb.o
 *fill*         0x08016c04        0xc 00
 .rodata.active_status
                0x08016c10        0x4 build/obj/usb.o
 *fill*         0x08016c14        0xc 00
 .rodata.halted_status
                0x08016c20        0x4 build/obj/usb.o
 *fill*         0x08016c24        0xc 00
 .rodata._stm32_dma_streams
                0x08016c30       0xc0 build/obj/stm32_dma.o
                0x08016c30                _stm32_dma_streams
 .rodata.fsparams
                0x08016cf0        0xc build/obj/usb_lld.o
 *fill*         0x08016cfc        0x4 00
 .rodata.ep0config
                0x08016d00       0x24 build/obj/usb_lld.o
 *fill*         0x08016d24        0xc 00
 .rodata.default_config
                0x08016d30        0xc build/obj/serial_lld.o
 *fill*         0x08016d3c        0x4 00
 .rodata.pal_default_config
                0x08016d40       0xfc build/obj/board.o
                0x08016d40                pal_default_config
 *fill*         0x08016e3c        0x4 00
 .rodata.excvt.5222
                0x08016e40       0x80 build/obj/ff.o
 .rodata.str1.4
                0x08016ec0       0x48 build/obj/ff.o
 *fill*         0x08016f08        0x8 00
 .rodata.Tbl    0x08016f10      0x100 build/obj/ccsbcs.o
 .rodata.tbl_upper.4967
                0x08017010      0x1e0 build/obj/ccsbcs.o
 .rodata.tbl_lower.4966
                0x080171f0      0x1e0 build/obj/ccsbcs.o
 .rodata.str1.4
                0x080173d0      0x16d build/obj/shell.o
                                0x230 (size before relaxing)
 *fill*         0x0801753d        0x3 00
 .rodata.str1.4
                0x08017540        0x7 build/obj/chprintf.o
                                  0x8 (size before relaxing)
 *fill*         0x08017547        0x9 00
 .rodata.str1.4
                0x08017550       0x11 build/obj/main.o
                                 0x14 (size before relaxing)
 *fill*         0x08017561        0xf 00
 .rodata.commands
                0x08017570       0xa8 build/obj/console.o
 *fill*         0x08017618        0x8 00
 .rodata.str1.4
                0x08017620      0x3c7 build/obj/console.o
                                0x3d8 (size before relaxing)
 *fill*         0x080179e7        0x9 00
 .rodata.shell_cfg1
                0x080179f0        0x8 build/obj/console.o
 *fill*         0x080179f8        0x8 00
 .rodata.states.10023
                0x08017a00       0x3c build/obj/console.o
 *fill*         0x08017a3c        0x4 00
 .rodata.sdccfg
                0x08017a40        0x4 build/obj/sdcard.o
 *fill*         0x08017a44        0xc 00
 .rodata.str1.4
                0x08017a50      0x4a0 build/obj/sdcard.o
                                0x4a4 (size before relaxing)
 .rodata.str1.4
                0x08017ef0      0x438 build/obj/can_comm.o
                                0x43c (size before relaxing)
 *fill*         0x08018328        0x8 00
 .rodata.cancfg
                0x08018330        0x8 build/obj/can_comm.o
 *fill*         0x08018338        0x8 00
 .rodata.str1.4
                0x08018340       0x20 build/obj/light.o
                                 0x38 (size before relaxing)
 .rodata.str1.4
                0x08018360       0x3f build/obj/speed.o
                                 0x58 (size before relaxing)
 *fill*         0x0801839f        0x1 00
 .rodata.str1.4
                0x080183a0       0x51 build/obj/meas.o
                                 0x6c (size before relaxing)
 *fill*         0x080183f1        0xf 00
 .rodata.adcgrpcfg
                0x08018400       0x28 build/obj/meas.o
 *fill*         0x08018428        0x8 00
 .rodata.str1.4
                0x08018430      0x110 build/obj/cruise.o
                                0x128 (size before relaxing)
 .rodata.str1.4
                0x08018540      0x11e build/obj/dsp.o
                                0x138 (size before relaxing)
 *fill*         0x0801865e        0x2 00
 .rodata.day_name.4574
                0x08018660       0x18 c:/chibistudio/tools/gnu tools arm embedded/4.7 2014q2/bin/../lib/gcc/arm-none-eabi/4.7.4/../../../../arm-none-eabi/lib/armv7e-m\libg.a(lib_a-asctime_r.o)
 *fill*         0x08018678        0x8 00
 .rodata.mon_name.4575
                0x08018680       0x24 c:/chibistudio/tools/gnu tools arm embedded/4.7 2014q2/bin/../lib/gcc/arm-none-eabi/4.7.4/../../../../arm-none-eabi/lib/armv7e-m\libg.a(lib_a-asctime_r.o)
 *fill*         0x080186a4        0xc 00
 .rodata.str1.4
                0x080186b0       0x20 c:/chibistudio/tools/gnu tools arm embedded/4.7 2014q2/bin/../lib/gcc/arm-none-eabi/4.7.4/../../../../arm-none-eabi/lib/armv7e-m\libg.a(lib_a-asctime_r.o)
 .rodata.str1.4
                0x00000000        0x4 c:/chibistudio/tools/gnu tools arm embedded/4.7 2014q2/bin/../lib/gcc/arm-none-eabi/4.7.4/../../../../arm-none-eabi/lib/armv7e-m\libg.a(lib_a-impure.o)
 .rodata._DAYS_BEFORE_MONTH
                0x080186d0       0x30 c:/chibistudio/tools/gnu tools arm embedded/4.7 2014q2/bin/../lib/gcc/arm-none-eabi/4.7.4/../../../../arm-none-eabi/lib/armv7e-m\libg.a(lib_a-mktime.o)
 .rodata.DAYS_IN_MONTH
                0x08018700       0x30 c:/chibistudio/tools/gnu tools arm embedded/4.7 2014q2/bin/../lib/gcc/arm-none-eabi/4.7.4/../../../../arm-none-eabi/lib/armv7e-m\libg.a(lib_a-mktime.o)
 .rodata.mon_lengths
                0x08018730       0x60 c:/chibistudio/tools/gnu tools arm embedded/4.7 2014q2/bin/../lib/gcc/arm-none-eabi/4.7.4/../../../../arm-none-eabi/lib/armv7e-m\libg.a(lib_a-mktm_r.o)
 .rodata.year_lengths
                0x08018790        0x8 c:/chibistudio/tools/gnu tools arm embedded/4.7 2014q2/bin/../lib/gcc/arm-none-eabi/4.7.4/../../../../arm-none-eabi/lib/armv7e-m\libg.a(lib_a-mktm_r.o)
 *fill*         0x08018798        0x8 00
 .rodata.str1.4
                0x080187a0       0x3a c:/chibistudio/tools/gnu tools arm embedded/4.7 2014q2/bin/../lib/gcc/arm-none-eabi/4.7.4/../../../../arm-none-eabi/lib/armv7e-m\libg.a(lib_a-svfprintf.o)
                                 0x44 (size before relaxing)
 *fill*         0x080187da        0x6 00
 .rodata.zeroes.6721
                0x080187e0       0x10 c:/chibistudio/tools/gnu tools arm embedded/4.7 2014q2/bin/../lib/gcc/arm-none-eabi/4.7.4/../../../../arm-none-eabi/lib/armv7e-m\libg.a(lib_a-svfprintf.o)
 .rodata.blanks.6720
                0x080187f0       0x10 c:/chibistudio/tools/gnu tools arm embedded/4.7 2014q2/bin/../lib/gcc/arm-none-eabi/4.7.4/../../../../arm-none-eabi/lib/armv7e-m\libg.a(lib_a-svfprintf.o)
 .rodata._ctype_
                0x08018800      0x104 c:/chibistudio/tools/gnu tools arm embedded/4.7 2014q2/bin/../lib/gcc/arm-none-eabi/4.7.4/../../../../arm-none-eabi/lib/armv7e-m\libg.a(lib_a-ctype_.o)
                0x08018800                _ctype_
 *fill*         0x08018904        0xc 00
 .rodata.str1.4
                0x08018910       0x10 c:/chibistudio/tools/gnu tools arm embedded/4.7 2014q2/bin/../lib/gcc/arm-none-eabi/4.7.4/../../../../arm-none-eabi/lib/armv7e-m\libg.a(lib_a-dtoa.o)
                                 0x14 (size before relaxing)
 .rodata.str1.4
                0x08018920        0x8 c:/chibistudio/tools/gnu tools arm embedded/4.7 2014q2/bin/../lib/gcc/arm-none-eabi/4.7.4/../../../../arm-none-eabi/lib/armv7e-m\libg.a(lib_a-locale.o)
                                 0x14 (size before relaxing)
 *fill*         0x08018928        0x8 00
 .rodata.p05.5242
                0x08018930        0xc c:/chibistudio/tools/gnu tools arm embedded/4.7 2014q2/bin/../lib/gcc/arm-none-eabi/4.7.4/../../../../arm-none-eabi/lib/armv7e-m\libg.a(lib_a-mprec.o)
 *fill*         0x0801893c        0x4 00
 .rodata.__mprec_tens
                0x08018940       0xc8 c:/chibistudio/tools/gnu tools arm embedded/4.7 2014q2/bin/../lib/gcc/arm-none-eabi/4.7.4/../../../../arm-none-eabi/lib/armv7e-m\libg.a(lib_a-mprec.o)
                0x08018940                __mprec_tens
 *fill*         0x08018a08        0x8 00
 .rodata.__mprec_bigtens
                0x08018a10       0x28 c:/chibistudio/tools/gnu tools arm embedded/4.7 2014q2/bin/../lib/gcc/arm-none-eabi/4.7.4/../../../../arm-none-eabi/lib/armv7e-m\libg.a(lib_a-mprec.o)
                0x08018a10                __mprec_bigtens
 *(.glue_7t)
 .glue_7t       0x00000000        0x0 linker stubs
 *(.glue_7)
 .glue_7        0x00000000        0x0 linker stubs
 *(.gcc*)

.vfp11_veneer   0x08018a38        0x0
 .vfp11_veneer  0x00000000        0x0 linker stubs

.v4_bx          0x08018a38        0x0
 .v4_bx         0x00000000        0x0 linker stubs

.iplt           0x08018a38        0x0
 .iplt          0x00000000        0x0 build/obj/crt0.o

.ARM.extab
 *(.ARM.extab* .gnu.linkonce.armextab.*)

.ARM.exidx      0x08018a38        0x8
                0x08018a38                PROVIDE (__exidx_start, .)
 *(.ARM.exidx* .gnu.linkonce.armexidx.*)
 .ARM.exidx     0x08018a38        0x8 c:/chibistudio/tools/gnu tools arm embedded/4.7 2014q2/bin/../lib/gcc/arm-none-eabi/4.7.4/armv7e-m\libgcc.a(_divdi3.o)
 .ARM.exidx     0x08018a40        0x0 c:/chibistudio/tools/gnu tools arm embedded/4.7 2014q2/bin/../lib/gcc/arm-none-eabi/4.7.4/armv7e-m\libgcc.a(_udivdi3.o)
                                  0x8 (size before relaxing)
                0x08018a40                PROVIDE (__exidx_end, .)

.rel.dyn        0x08018a40        0x0
 .rel.iplt      0x00000000        0x0 build/obj/crt0.o

.eh_frame_hdr
 *(.eh_frame_hdr)

.eh_frame
 *(.eh_frame)

.textalign      0x08018a40        0x0
                0x08018a40                . = ALIGN (0x8)
                0x08018a40                . = ALIGN (0x4)
                0x08018a40                _etext = .
                0x08018a40                _textdata = _etext

.stacks         0x20000000      0x800
                0x20000000                . = ALIGN (0x8)
                0x20000000                __main_stack_base__ = .
                0x20000400                . = (. + __main_stack_size__)
 *fill*         0x20000000      0x400 00
                0x20000400                . = ALIGN (0x8)
                0x20000400                __main_stack_end__ = .
                0x20000400                __process_stack_base__ = .
                0x20000400                __main_thread_stack_base__ = .
                0x20000800                . = (. + __process_stack_size__)
 *fill*         0x20000400      0x400 00
                0x20000800                . = ALIGN (0x8)
                0x20000800                __process_stack_end__ = .
                0x20000800                __main_thread_stack_end__ = .

.data           0x20000800      0xc30 load address 0x08018a40
                0x20000800                . = ALIGN (0x4)
                0x20000800                PROVIDE (_data, .)
 *(.data)
 *(.data.*)
 .data.sem1     0x20000800        0xc build/obj/testsem.o
 .data.m1       0x2000080c       0x10 build/obj/testmtx.o
 .data.m2       0x2000081c       0x10 build/obj/testmtx.o
 .data.c1       0x2000082c        0x8 build/obj/testmtx.o
 .data.mb1      0x20000834       0x28 build/obj/testmbox.o
 .data.es1      0x2000085c        0x4 build/obj/testevt.o
 .data.es2      0x20000860        0x4 build/obj/testevt.o
 .data.mp1      0x20000864        0xc build/obj/testpools.o
 .data.oq       0x20000870       0x24 build/obj/testqueues.o
 .data.iq       0x20000894       0x24 build/obj/testqueues.o
 .data.local_commands
                0x200008b8       0x18 build/obj/shell.o
 .data.ser_cfg  0x200008d0        0xc build/obj/console.o
 .data.lcitems  0x200008dc      0x200 build/obj/can_comm.o
 .data.pwmcfg   0x20000adc       0x34 build/obj/light.o
 .data.icucfg   0x20000b10       0x1c build/obj/speed.o
 .data.K_D      0x20000b2c        0x2 build/obj/cruise.o
 .data.K_I      0x20000b2e        0x2 build/obj/cruise.o
 .data.cruise_pwmcfg
                0x20000b30       0x34 build/obj/cruise.o
 .data.K_P      0x20000b64        0x2 build/obj/cruise.o
 *fill*         0x20000b66        0x2 00
 .data.diag_ser_SD2_cfg
                0x20000b68        0xc build/obj/uart_comm.o
 *fill*         0x20000b74        0x4 00
 .data.impure_data
                0x20000b78      0x428 c:/chibistudio/tools/gnu tools arm embedded/4.7 2014q2/bin/../lib/gcc/arm-none-eabi/4.7.4/../../../../arm-none-eabi/lib/armv7e-m\libg.a(lib_a-impure.o)
 .data._impure_ptr
                0x20000fa0        0x4 c:/chibistudio/tools/gnu tools arm embedded/4.7 2014q2/bin/../lib/gcc/arm-none-eabi/4.7.4/../../../../arm-none-eabi/lib/armv7e-m\libg.a(lib_a-impure.o)
                0x20000fa0                _impure_ptr
 .data.__ctype_ptr__
                0x20000fa4        0x4 c:/chibistudio/tools/gnu tools arm embedded/4.7 2014q2/bin/../lib/gcc/arm-none-eabi/4.7.4/../../../../arm-none-eabi/lib/armv7e-m\libg.a(lib_a-ctype_.o)
                0x20000fa4                __ctype_ptr__
 .data.tzinfo   0x20000fa8       0x40 c:/chibistudio/tools/gnu tools arm embedded/4.7 2014q2/bin/../lib/gcc/arm-none-eabi/4.7.4/../../../../arm-none-eabi/lib/armv7e-m\libg.a(lib_a-gettzinfo.o)
 .data.lconv    0x20000fe8       0x38 c:/chibistudio/tools/gnu tools arm embedded/4.7 2014q2/bin/../lib/gcc/arm-none-eabi/4.7.4/../../../../arm-none-eabi/lib/armv7e-m\libg.a(lib_a-locale.o)
 .data.__malloc_av_
                0x20001020      0x408 c:/chibistudio/tools/gnu tools arm embedded/4.7 2014q2/bin/../lib/gcc/arm-none-eabi/4.7.4/../../../../arm-none-eabi/lib/armv7e-m\libg.a(lib_a-mallocr.o)
                0x20001020                __malloc_av_
 .data.__malloc_trim_threshold
                0x20001428        0x4 c:/chibistudio/tools/gnu tools arm embedded/4.7 2014q2/bin/../lib/gcc/arm-none-eabi/4.7.4/../../../../arm-none-eabi/lib/armv7e-m\libg.a(lib_a-mallocr.o)
                0x20001428                __malloc_trim_threshold
 .data.__malloc_sbrk_base
                0x2000142c        0x4 c:/chibistudio/tools/gnu tools arm embedded/4.7 2014q2/bin/../lib/gcc/arm-none-eabi/4.7.4/../../../../arm-none-eabi/lib/armv7e-m\libg.a(lib_a-mallocr.o)
                0x2000142c                __malloc_sbrk_base
 *(.ramtext)
                0x20001430                . = ALIGN (0x4)
                0x20001430                PROVIDE (_edata, .)

.igot.plt       0x20001430        0x0 load address 0x08019670
 .igot.plt      0x00000000        0x0 build/obj/crt0.o

.bss            0x20001430     0x40c0
                0x20001430                . = ALIGN (0x4)
                0x20001430                PROVIDE (_bss_start, .)
 *(.bss)
 *(.bss.*)
 .bss.mainthread.4773
                0x20001430       0x48 build/obj/chsys.o
 .bss._idle_thread_wa
                0x20001478       0xe0 build/obj/chsys.o
                0x20001478                _idle_thread_wa
 .bss.vtlist    0x20001558       0x10 build/obj/chvt.o
                0x20001558                vtlist
 .bss.rlist     0x20001568       0x1c build/obj/chschd.o
                0x20001568                rlist
 .bss.endmem    0x20001584        0x4 build/obj/chmemcore.o
 .bss.nextmem   0x20001588        0x4 build/obj/chmemcore.o
 *fill*         0x2000158c        0x4 00
 .bss.default_heap
                0x20001590       0x20 build/obj/chheap.o
 .bss.test      0x200015b0      0x690 build/obj/test.o
                0x200015b0                test
 .bss.failpoint
                0x20001c40        0x4 build/obj/test.o
 .bss.local_fail
                0x20001c44        0x1 build/obj/test.o
 .bss.test_timer_done
                0x20001c45        0x1 build/obj/test.o
                0x20001c45                test_timer_done
 *fill*         0x20001c46        0x2 00
 .bss.tokp      0x20001c48        0x4 build/obj/test.o
 .bss.global_fail
                0x20001c4c        0x1 build/obj/test.o
 *fill*         0x20001c4d        0x3 00
 .bss.vt        0x20001c50       0x14 build/obj/test.o
 .bss.threads   0x20001c64       0x14 build/obj/test.o
                0x20001c64                threads
 .bss.chp       0x20001c78        0x4 build/obj/test.o
 .bss.tokens_buffer
                0x20001c7c       0x10 build/obj/test.o
 *fill*         0x20001c8c        0x4 00
 .bss.test_heap
                0x20001c90       0x20 build/obj/testheap.o
 .bss.mp1       0x20001cb0        0xc build/obj/testdyn.o
 *fill*         0x20001cbc        0x4 00
 .bss.heap1     0x20001cc0       0x20 build/obj/testdyn.o
 .bss.ib.4920   0x20001ce0       0x10 build/obj/testbmk.o
 .bss.iq.4921   0x20001cf0       0x24 build/obj/testbmk.o
 .bss.mtx1      0x20001d14       0x10 build/obj/testbmk.o
 .bss.sem1      0x20001d24        0xc build/obj/testbmk.o
 .bss.vt2.4934  0x20001d30       0x14 build/obj/testbmk.o
 .bss.vt1.4933  0x20001d44       0x14 build/obj/testbmk.o
 .bss.measurement_offset
                0x20001d58        0x4 build/obj/tm.o
 .bss.dma_isr_redir
                0x20001d5c       0x80 build/obj/stm32_dma.o
 .bss.dma_streams_mask
                0x20001ddc        0x4 build/obj/stm32_dma.o
 .bss.ADCD2     0x20001de0       0x34 build/obj/adc_lld.o
                0x20001de0                ADCD2
 .bss.CAND1     0x20001e14       0x38 build/obj/can_lld.o
                0x20001e14                CAND1
 .bss.SDCD1     0x20001e4c       0x48 build/obj/sdc_lld.o
                0x20001e4c                SDCD1
 .bss.u         0x20001e94      0x200 build/obj/sdc_lld.o
 .bss.I2CD1     0x20002094       0x38 build/obj/i2c_lld.o
                0x20002094                I2CD1
 *fill*         0x200020cc        0x4 00
 .bss.USBD1     0x200020d0      0x1b8 build/obj/usb_lld.o
                0x200020d0                USBD1
 .bss.ep0_state
                0x20002288       0x14 build/obj/usb_lld.o
 .bss.ep0setup_buffer
                0x2000229c        0x8 build/obj/usb_lld.o
 .bss.RTCD1     0x200022a4        0x4 build/obj/rtc_lld.o
                0x200022a4                RTCD1
 .bss.dummytx   0x200022a8        0x2 build/obj/spi_lld.o
 *fill*         0x200022aa        0x2 00
 .bss.SPID2     0x200022ac       0x30 build/obj/spi_lld.o
                0x200022ac                SPID2
 .bss.ICUD1     0x200022dc       0x18 build/obj/icu_lld.o
                0x200022dc                ICUD1
 .bss.PWMD4     0x200022f4       0x14 build/obj/pwm_lld.o
                0x200022f4                PWMD4
 .bss.PWMD5     0x20002308       0x14 build/obj/pwm_lld.o
                0x20002308                PWMD5
 .bss.SD1       0x2000231c       0x78 build/obj/serial_lld.o
                0x2000231c                SD1
 .bss.SD2       0x20002394       0x78 build/obj/serial_lld.o
                0x20002394                SD2
 .bss.Fsid      0x2000240c        0x2 build/obj/ff.o
 *fill*         0x2000240e        0x2 00
 .bss.FatFs     0x20002410        0x4 build/obj/ff.o
 .bss.shell_terminated
                0x20002414        0x4 build/obj/shell.o
                0x20002414                shell_terminated
 .bss.waThread1
                0x20002418      0x150 build/obj/main.o
 .bss.watask20ms
                0x20002568      0x1d0 build/obj/main.o
 .bss.unix_time
                0x20002738        0x4 build/obj/console.o
 .bss.consoleThread
                0x2000273c        0x4 build/obj/console.o
                0x2000273c                consoleThread
 .bss.alarmspec
                0x20002740        0x4 build/obj/console.o
 .bss.sdcard_fbuff
                0x20002744      0x400 build/obj/sdcard.o
                0x20002744                sdcard_fbuff
 .bss.sdcard_fs_ready
                0x20002b44        0x1 build/obj/sdcard.o
 *fill*         0x20002b45        0x3 00
 .bss.sdcard_filesystem
                0x20002b48      0x230 build/obj/sdcard.o
 .bss.inbuf     0x20002d78     0x1004 build/obj/sdcard.o
 .bss.lfn.9001  0x20003d7c      0x100 build/obj/sdcard.o
 .bss.outbuf    0x20003e7c     0x1004 build/obj/sdcard.o
 .bss.can_tx_wa
                0x20004e80      0x1d0 build/obj/can_comm.o
 .bss.id        0x20005050        0x2 build/obj/can_comm.o
 *fill*         0x20005052        0x2 00
 .bss.txmsg     0x20005054       0x10 build/obj/can_comm.o
 .bss.seged     0x20005064        0x4 build/obj/can_comm.o
 .bss.can_rx_wa
                0x20005068      0x1d0 build/obj/can_comm.o
 .bss.canstate  0x20005238        0x1 build/obj/can_comm.o
                0x20005238                canstate
 *fill*         0x20005239        0x1 00
 .bss.messages  0x2000523a        0x2 build/obj/can_comm.o
 .bss.rxmsg     0x2000523c       0x14 build/obj/can_comm.o
 .bss.ido       0x20005250        0x4 build/obj/light.o
 .bss.speed_last_period
                0x20005254        0x4 build/obj/speed.o
 .bss.rotation  0x20005258        0x8 build/obj/speed.o
 .bss.rpm_index
                0x20005260        0x4 build/obj/speed.o
 *fill*         0x20005264        0x4 00
 .bss.rpm_buff  0x20005268      0x180 build/obj/speed.o
 .bss.speed_period_num
                0x200053e8        0x4 build/obj/speed.o
 .bss.measValue
                0x200053ec       0x24 build/obj/meas.o
 .bss.measstate
                0x20005410        0x1 build/obj/meas.o
                0x20005410                measstate
 *fill*         0x20005411        0x3 00
 .bss.samples   0x20005414       0x70 build/obj/meas.o
 *fill*         0x20005484        0x4 00
 .bss.P         0x20005488        0x8 build/obj/cruise.o
 .bss.set       0x20005490        0x4 build/obj/cruise.o
 .bss.pwm       0x20005494        0x4 build/obj/cruise.o
 .bss.D         0x20005498        0x8 build/obj/cruise.o
 .bss.e         0x200054a0        0x8 build/obj/cruise.o
 .bss.eelozo    0x200054a8        0x8 build/obj/cruise.o
 .bss.I         0x200054b0        0x8 build/obj/cruise.o
 .bss._daylight
                0x200054b8        0x4 c:/chibistudio/tools/gnu tools arm embedded/4.7 2014q2/bin/../lib/gcc/arm-none-eabi/4.7.4/../../../../arm-none-eabi/lib/armv7e-m\libg.a(lib_a-tzvars.o)
                0x200054b8                _daylight
 .bss.__malloc_max_total_mem
                0x200054bc        0x4 c:/chibistudio/tools/gnu tools arm embedded/4.7 2014q2/bin/../lib/gcc/arm-none-eabi/4.7.4/../../../../arm-none-eabi/lib/armv7e-m\libg.a(lib_a-mallocr.o)
                0x200054bc                __malloc_max_total_mem
 .bss.__malloc_max_sbrked_mem
                0x200054c0        0x4 c:/chibistudio/tools/gnu tools arm embedded/4.7 2014q2/bin/../lib/gcc/arm-none-eabi/4.7.4/../../../../arm-none-eabi/lib/armv7e-m\libg.a(lib_a-mallocr.o)
                0x200054c0                __malloc_max_sbrked_mem
 .bss.__malloc_top_pad
                0x200054c4        0x4 c:/chibistudio/tools/gnu tools arm embedded/4.7 2014q2/bin/../lib/gcc/arm-none-eabi/4.7.4/../../../../arm-none-eabi/lib/armv7e-m\libg.a(lib_a-mallocr.o)
                0x200054c4                __malloc_top_pad
 .bss.__malloc_current_mallinfo
                0x200054c8       0x28 c:/chibistudio/tools/gnu tools arm embedded/4.7 2014q2/bin/../lib/gcc/arm-none-eabi/4.7.4/../../../../arm-none-eabi/lib/armv7e-m\libg.a(lib_a-mallocr.o)
                0x200054c8                __malloc_current_mallinfo
 *(COMMON)
                0x200054f0                . = ALIGN (0x4)
                0x200054f0                PROVIDE (_bss_end, .)
                0x200054f0                PROVIDE (end, .)
                0x200054f0                _end = .
                0x200054f0                __heap_base__ = _end
                0x2001c000                __heap_end__ = __ram_end__
START GROUP
LOAD c:/chibistudio/tools/gnu tools arm embedded/4.7 2014q2/bin/../lib/gcc/arm-none-eabi/4.7.4/armv7e-m\libgcc.a
LOAD c:/chibistudio/tools/gnu tools arm embedded/4.7 2014q2/bin/../lib/gcc/arm-none-eabi/4.7.4/../../../../arm-none-eabi/lib/armv7e-m\libg.a
LOAD c:/chibistudio/tools/gnu tools arm embedded/4.7 2014q2/bin/../lib/gcc/arm-none-eabi/4.7.4/../../../../arm-none-eabi/lib/armv7e-m\libc.a
END GROUP
OUTPUT(build/smarty.elf elf32-littlearm)

.debug_info     0x00000000    0x46907
 .debug_info    0x00000000      0x2a9 build/obj/crt0.o
 .debug_info    0x000002a9      0x1f0 build/obj/vectors.o
 .debug_info    0x00000499       0x9a build/obj/chcore.o
 .debug_info    0x00000533      0x89b build/obj/chcore_v7m.o
 .debug_info    0x00000dce      0x455 build/obj/nvic.o
 .debug_info    0x00001223      0x8aa build/obj/chsys.o
 .debug_info    0x00001acd      0x21f build/obj/chvt.o
 .debug_info    0x00001cec      0x9eb build/obj/chschd.o
 .debug_info    0x000026d7      0xc4b build/obj/chthreads.o
 .debug_info    0x00003322      0x903 build/obj/chdynamic.o
 .debug_info    0x00003c25      0x684 build/obj/chregistry.o
 .debug_info    0x000042a9      0xb80 build/obj/chsem.o
 .debug_info    0x00004e29      0xa4c build/obj/chmtx.o
 .debug_info    0x00005875      0xa01 build/obj/chcond.o
 .debug_info    0x00006276      0xe36 build/obj/chevents.o
 .debug_info    0x000070ac      0x6c6 build/obj/chmsg.o
 .debug_info    0x00007772      0xad7 build/obj/chmboxes.o
 .debug_info    0x00008249      0xc7d build/obj/chqueues.o
 .debug_info    0x00008ec6      0x22f build/obj/chmemcore.o
 .debug_info    0x000090f5      0x739 build/obj/chheap.o
 .debug_info    0x0000982e      0x426 build/obj/chmempools.o
 .debug_info    0x00009c54     0x13da build/obj/test.o
 .debug_info    0x0000b02e      0xd38 build/obj/testthd.o
 .debug_info    0x0000bd66     0x1315 build/obj/testsem.o
 .debug_info    0x0000d07b     0x1e13 build/obj/testmtx.o
 .debug_info    0x0000ee8e      0x76b build/obj/testmsg.o
 .debug_info    0x0000f5f9     0x13b2 build/obj/testmbox.o
 .debug_info    0x000109ab     0x11a7 build/obj/testevt.o
 .debug_info    0x00011b52      0xc4e build/obj/testheap.o
 .debug_info    0x000127a0      0x628 build/obj/testpools.o
 .debug_info    0x00012dc8     0x10fe build/obj/testdyn.o
 .debug_info    0x00013ec6     0x1a65 build/obj/testqueues.o
 .debug_info    0x0001592b     0x1f1e build/obj/testbmk.o
 .debug_info    0x00017849      0x4a3 build/obj/hal.o
 .debug_info    0x00017cec      0xf07 build/obj/adc.o
 .debug_info    0x00018bf3     0x1144 build/obj/can.o
 .debug_info    0x00019d37      0xc8a build/obj/i2c.o
 .debug_info    0x0001a9c1      0x63b build/obj/icu.o
 .debug_info    0x0001affc      0x2bf build/obj/mmcsd.o
 .debug_info    0x0001b2bb      0x6ec build/obj/pwm.o
 .debug_info    0x0001b9a7      0x74d build/obj/rtc.o
 .debug_info    0x0001c0f4     0x1379 build/obj/sdc.o
 .debug_info    0x0001d46d     0x10bd build/obj/serial.o
 .debug_info    0x0001e52a     0x2011 build/obj/serial_usb.o
 .debug_info    0x0002053b     0x1206 build/obj/spi.o
 .debug_info    0x00021741      0x2f4 build/obj/tm.o
 .debug_info    0x00021a35     0x1f52 build/obj/usb.o
 .debug_info    0x00023987      0xb44 build/obj/stm32_dma.o
 .debug_info    0x000244cb      0x505 build/obj/hal_lld.o
 .debug_info    0x000249d0     0x11e9 build/obj/adc_lld.o
 .debug_info    0x00025bb9     0x16ea build/obj/can_lld.o
 .debug_info    0x000272a3     0x1ab6 build/obj/sdc_lld.o
 .debug_info    0x00028d59      0x769 build/obj/pal_lld.o
 .debug_info    0x000294c2     0x17e8 build/obj/i2c_lld.o
 .debug_info    0x0002acaa     0x292d build/obj/usb_lld.o
 .debug_info    0x0002d5d7      0x6d2 build/obj/rtc_lld.o
 .debug_info    0x0002dca9      0xf01 build/obj/spi_lld.o
 .debug_info    0x0002ebaa      0x8a7 build/obj/icu_lld.o
 .debug_info    0x0002f451      0x8c1 build/obj/pwm_lld.o
 .debug_info    0x0002fd12     0x1070 build/obj/serial_lld.o
 .debug_info    0x00030d82      0x215 build/obj/board.o
 .debug_info    0x00030f97      0xd47 build/obj/fatfs_diskio.o
 .debug_info    0x00031cde      0x581 build/obj/fatfs_syscall.o
 .debug_info    0x0003225f     0x411a build/obj/ff.o
 .debug_info    0x00036379      0x18b build/obj/ccsbcs.o
 .debug_info    0x00036504     0x15d8 build/obj/syscalls.o
 .debug_info    0x00037adc     0x154a build/obj/shell.o
 .debug_info    0x00039026      0x6e8 build/obj/chprintf.o
 .debug_info    0x0003970e      0x830 build/obj/chrtclib.o
 .debug_info    0x00039f3e      0x9eb build/obj/main.o
 .debug_info    0x0003a929     0x1d55 build/obj/console.o
 .debug_info    0x0003c67e     0x270c build/obj/sdcard.o
 .debug_info    0x0003ed8a     0x18b5 build/obj/can_comm.o
 .debug_info    0x0004063f     0x131d build/obj/light.o
 .debug_info    0x0004195c      0xaa1 build/obj/speed.o
 .debug_info    0x000423fd      0xfbd build/obj/meas.o
 .debug_info    0x000433ba      0xdbe build/obj/cruise.o
 .debug_info    0x00044178      0xbfa build/obj/dsp.o
 .debug_info    0x00044d72     0x124d build/obj/gfx.o
 .debug_info    0x00045fbf      0x948 build/obj/uart_comm.o

.debug_abbrev   0x00000000     0xccd3
 .debug_abbrev  0x00000000       0xf4 build/obj/crt0.o
 .debug_abbrev  0x000000f4       0xb1 build/obj/vectors.o
 .debug_abbrev  0x000001a5       0x44 build/obj/chcore.o
 .debug_abbrev  0x000001e9      0x1d5 build/obj/chcore_v7m.o
 .debug_abbrev  0x000003be       0xf2 build/obj/nvic.o
 .debug_abbrev  0x000004b0      0x220 build/obj/chsys.o
 .debug_abbrev  0x000006d0      0x133 build/obj/chvt.o
 .debug_abbrev  0x00000803      0x340 build/obj/chschd.o
 .debug_abbrev  0x00000b43      0x368 build/obj/chthreads.o
 .debug_abbrev  0x00000eab      0x23a build/obj/chdynamic.o
 .debug_abbrev  0x000010e5      0x197 build/obj/chregistry.o
 .debug_abbrev  0x0000127c      0x333 build/obj/chsem.o
 .debug_abbrev  0x000015af      0x316 build/obj/chmtx.o
 .debug_abbrev  0x000018c5      0x2fa build/obj/chcond.o
 .debug_abbrev  0x00001bbf      0x359 build/obj/chevents.o
 .debug_abbrev  0x00001f18      0x244 build/obj/chmsg.o
 .debug_abbrev  0x0000215c      0x253 build/obj/chmboxes.o
 .debug_abbrev  0x000023af      0x34c build/obj/chqueues.o
 .debug_abbrev  0x000026fb      0x16c build/obj/chmemcore.o
 .debug_abbrev  0x00002867      0x210 build/obj/chheap.o
 .debug_abbrev  0x00002a77      0x225 build/obj/chmempools.o
 .debug_abbrev  0x00002c9c      0x52a build/obj/test.o
 .debug_abbrev  0x000031c6      0x2aa build/obj/testthd.o
 .debug_abbrev  0x00003470      0x318 build/obj/testsem.o
 .debug_abbrev  0x00003788      0x327 build/obj/testmtx.o
 .debug_abbrev  0x00003aaf      0x22b build/obj/testmsg.o
 .debug_abbrev  0x00003cda      0x231 build/obj/testmbox.o
 .debug_abbrev  0x00003f0b      0x308 build/obj/testevt.o
 .debug_abbrev  0x00004213      0x22e build/obj/testheap.o
 .debug_abbrev  0x00004441      0x1d9 build/obj/testpools.o
 .debug_abbrev  0x0000461a      0x2bc build/obj/testdyn.o
 .debug_abbrev  0x000048d6      0x305 build/obj/testqueues.o
 .debug_abbrev  0x00004bdb      0x38d build/obj/testbmk.o
 .debug_abbrev  0x00004f68      0x1e4 build/obj/hal.o
 .debug_abbrev  0x0000514c      0x311 build/obj/adc.o
 .debug_abbrev  0x0000545d      0x2de build/obj/can.o
 .debug_abbrev  0x0000573b      0x2b3 build/obj/i2c.o
 .debug_abbrev  0x000059ee      0x1af build/obj/icu.o
 .debug_abbrev  0x00005b9d      0x120 build/obj/mmcsd.o
 .debug_abbrev  0x00005cbd      0x1b8 build/obj/pwm.o
 .debug_abbrev  0x00005e75      0x1b0 build/obj/rtc.o
 .debug_abbrev  0x00006025      0x3a6 build/obj/sdc.o
 .debug_abbrev  0x000063cb      0x2d5 build/obj/serial.o
 .debug_abbrev  0x000066a0      0x3e6 build/obj/serial_usb.o
 .debug_abbrev  0x00006a86      0x2ac build/obj/spi.o
 .debug_abbrev  0x00006d32      0x19c build/obj/tm.o
 .debug_abbrev  0x00006ece      0x395 build/obj/usb.o
 .debug_abbrev  0x00007263      0x221 build/obj/stm32_dma.o
 .debug_abbrev  0x00007484      0x12d build/obj/hal_lld.o
 .debug_abbrev  0x000075b1      0x300 build/obj/adc_lld.o
 .debug_abbrev  0x000078b1      0x3d5 build/obj/can_lld.o
 .debug_abbrev  0x00007c86      0x4a1 build/obj/sdc_lld.o
 .debug_abbrev  0x00008127      0x1c6 build/obj/pal_lld.o
 .debug_abbrev  0x000082ed      0x3ef build/obj/i2c_lld.o
 .debug_abbrev  0x000086dc      0x555 build/obj/usb_lld.o
 .debug_abbrev  0x00008c31      0x1fa build/obj/rtc_lld.o
 .debug_abbrev  0x00008e2b      0x31a build/obj/spi_lld.o
 .debug_abbrev  0x00009145      0x267 build/obj/icu_lld.o
 .debug_abbrev  0x000093ac      0x239 build/obj/pwm_lld.o
 .debug_abbrev  0x000095e5      0x35b build/obj/serial_lld.o
 .debug_abbrev  0x00009940       0xe5 build/obj/board.o
 .debug_abbrev  0x00009a25      0x210 build/obj/fatfs_diskio.o
 .debug_abbrev  0x00009c35      0x17c build/obj/fatfs_syscall.o
 .debug_abbrev  0x00009db1      0x3ae build/obj/ff.o
 .debug_abbrev  0x0000a15f       0xc6 build/obj/ccsbcs.o
 .debug_abbrev  0x0000a225      0x279 build/obj/syscalls.o
 .debug_abbrev  0x0000a49e      0x404 build/obj/shell.o
 .debug_abbrev  0x0000a8a2      0x254 build/obj/chprintf.o
 .debug_abbrev  0x0000aaf6      0x1c1 build/obj/chrtclib.o
 .debug_abbrev  0x0000acb7      0x208 build/obj/main.o
 .debug_abbrev  0x0000aebf      0x46f build/obj/console.o
 .debug_abbrev  0x0000b32e      0x4cd build/obj/sdcard.o
 .debug_abbrev  0x0000b7fb      0x362 build/obj/can_comm.o
 .debug_abbrev  0x0000bb5d      0x2a9 build/obj/light.o
 .debug_abbrev  0x0000be06      0x2ba build/obj/speed.o
 .debug_abbrev  0x0000c0c0      0x2fc build/obj/meas.o
 .debug_abbrev  0x0000c3bc      0x2fc build/obj/cruise.o
 .debug_abbrev  0x0000c6b8      0x28b build/obj/dsp.o
 .debug_abbrev  0x0000c943      0x1e3 build/obj/gfx.o
 .debug_abbrev  0x0000cb26      0x1ad build/obj/uart_comm.o

.debug_aranges  0x00000000     0x1d70
 .debug_aranges
                0x00000000       0x38 build/obj/crt0.o
 .debug_aranges
                0x00000038       0x20 build/obj/vectors.o
 .debug_aranges
                0x00000058       0x20 build/obj/chcore.o
 .debug_aranges
                0x00000078       0x50 build/obj/chcore_v7m.o
 .debug_aranges
                0x000000c8       0x30 build/obj/nvic.o
 .debug_aranges
                0x000000f8       0x30 build/obj/chsys.o
 .debug_aranges
                0x00000128       0x30 build/obj/chvt.o
 .debug_aranges
                0x00000158       0x68 build/obj/chschd.o
 .debug_aranges
                0x000001c0       0x78 build/obj/chthreads.o
 .debug_aranges
                0x00000238       0x38 build/obj/chdynamic.o
 .debug_aranges
                0x00000270       0x28 build/obj/chregistry.o
 .debug_aranges
                0x00000298       0x70 build/obj/chsem.o
 .debug_aranges
                0x00000308       0x58 build/obj/chmtx.o
 .debug_aranges
                0x00000360       0x60 build/obj/chcond.o
 .debug_aranges
                0x000003c0       0xa0 build/obj/chevents.o
 .debug_aranges
                0x00000460       0x30 build/obj/chmsg.o
 .debug_aranges
                0x00000490       0x70 build/obj/chmboxes.o
 .debug_aranges
                0x00000500       0x70 build/obj/chqueues.o
 .debug_aranges
                0x00000570       0x38 build/obj/chmemcore.o
 .debug_aranges
                0x000005a8       0x40 build/obj/chheap.o
 .debug_aranges
                0x000005e8       0x48 build/obj/chmempools.o
 .debug_aranges
                0x00000630       0x98 build/obj/test.o
 .debug_aranges
                0x000006c8       0x40 build/obj/testthd.o
 .debug_aranges
                0x00000708       0x70 build/obj/testsem.o
 .debug_aranges
                0x00000778      0x108 build/obj/testmtx.o
 .debug_aranges
                0x00000880       0x28 build/obj/testmsg.o
 .debug_aranges
                0x000008a8       0x28 build/obj/testmbox.o
 .debug_aranges
                0x000008d0       0x70 build/obj/testevt.o
 .debug_aranges
                0x00000940       0x28 build/obj/testheap.o
 .debug_aranges
                0x00000968       0x30 build/obj/testpools.o
 .debug_aranges
                0x00000998       0x58 build/obj/testdyn.o
 .debug_aranges
                0x000009f0       0x50 build/obj/testqueues.o
 .debug_aranges
                0x00000a40       0xd0 build/obj/testbmk.o
 .debug_aranges
                0x00000b10       0x30 build/obj/hal.o
 .debug_aranges
                0x00000b40       0x70 build/obj/adc.o
 .debug_aranges
                0x00000bb0       0x58 build/obj/can.o
 .debug_aranges
                0x00000c08       0x60 build/obj/i2c.o
 .debug_aranges
                0x00000c68       0x48 build/obj/icu.o
 .debug_aranges
                0x00000cb0       0x20 build/obj/mmcsd.o
 .debug_aranges
                0x00000cd0       0x50 build/obj/pwm.o
 .debug_aranges
                0x00000d20       0x48 build/obj/rtc.o
 .debug_aranges
                0x00000d68       0x80 build/obj/sdc.o
 .debug_aranges
                0x00000de8       0x88 build/obj/serial.o
 .debug_aranges
                0x00000e70       0xb0 build/obj/serial_usb.o
 .debug_aranges
                0x00000f20       0x98 build/obj/spi.o
 .debug_aranges
                0x00000fb8       0x38 build/obj/tm.o
 .debug_aranges
                0x00000ff0       0xa8 build/obj/usb.o
 .debug_aranges
                0x00001098       0xb0 build/obj/stm32_dma.o
 .debug_aranges
                0x00001148       0x28 build/obj/hal_lld.o
 .debug_aranges
                0x00001170       0x70 build/obj/adc_lld.o
 .debug_aranges
                0x000011e0       0x90 build/obj/can_lld.o
 .debug_aranges
                0x00001270       0xb8 build/obj/sdc_lld.o
 .debug_aranges
                0x00001328       0x28 build/obj/pal_lld.o
 .debug_aranges
                0x00001350       0x70 build/obj/i2c_lld.o
 .debug_aranges
                0x000013c0       0xd8 build/obj/usb_lld.o
 .debug_aranges
                0x00001498       0x58 build/obj/rtc_lld.o
 .debug_aranges
                0x000014f0       0x78 build/obj/spi_lld.o
 .debug_aranges
                0x00001568       0x58 build/obj/icu_lld.o
 .debug_aranges
                0x000015c0       0x58 build/obj/pwm_lld.o
 .debug_aranges
                0x00001618       0x58 build/obj/serial_lld.o
 .debug_aranges
                0x00001670       0x28 build/obj/board.o
 .debug_aranges
                0x00001698       0x48 build/obj/fatfs_diskio.o
 .debug_aranges
                0x000016e0       0x28 build/obj/fatfs_syscall.o
 .debug_aranges
                0x00001708      0x160 build/obj/ff.o
 .debug_aranges
                0x00001868       0x28 build/obj/ccsbcs.o
 .debug_aranges
                0x00001890       0x50 build/obj/syscalls.o
 .debug_aranges
                0x000018e0       0x68 build/obj/shell.o
 .debug_aranges
                0x00001948       0x30 build/obj/chprintf.o
 .debug_aranges
                0x00001978       0x50 build/obj/chrtclib.o
 .debug_aranges
                0x000019c8       0x30 build/obj/main.o
 .debug_aranges
                0x000019f8       0x80 build/obj/console.o
 .debug_aranges
                0x00001a78       0x98 build/obj/sdcard.o
 .debug_aranges
                0x00001b10       0x50 build/obj/can_comm.o
 .debug_aranges
                0x00001b60       0x38 build/obj/light.o
 .debug_aranges
                0x00001b98       0x60 build/obj/speed.o
 .debug_aranges
                0x00001bf8       0x48 build/obj/meas.o
 .debug_aranges
                0x00001c40       0x48 build/obj/cruise.o
 .debug_aranges
                0x00001c88       0x48 build/obj/dsp.o
 .debug_aranges
                0x00001cd0       0x80 build/obj/gfx.o
 .debug_aranges
                0x00001d50       0x20 build/obj/uart_comm.o

.debug_ranges   0x00000000     0x3d38
 .debug_ranges  0x00000000       0xe0 build/obj/crt0.o
 .debug_ranges  0x000000e0       0x10 build/obj/vectors.o
 .debug_ranges  0x000000f0       0x10 build/obj/chcore.o
 .debug_ranges  0x00000100       0x58 build/obj/chcore_v7m.o
 .debug_ranges  0x00000158       0x20 build/obj/nvic.o
 .debug_ranges  0x00000178       0x20 build/obj/chsys.o
 .debug_ranges  0x00000198       0x20 build/obj/chvt.o
 .debug_ranges  0x000001b8      0x190 build/obj/chschd.o
 .debug_ranges  0x00000348       0xc8 build/obj/chthreads.o
 .debug_ranges  0x00000410       0x28 build/obj/chdynamic.o
 .debug_ranges  0x00000438       0x30 build/obj/chregistry.o
 .debug_ranges  0x00000468      0x1c0 build/obj/chsem.o
 .debug_ranges  0x00000628      0x228 build/obj/chmtx.o
 .debug_ranges  0x00000850       0xf0 build/obj/chcond.o
 .debug_ranges  0x00000940       0xd8 build/obj/chevents.o
 .debug_ranges  0x00000a18       0x50 build/obj/chmsg.o
 .debug_ranges  0x00000a68       0x78 build/obj/chmboxes.o
 .debug_ranges  0x00000ae0       0xd8 build/obj/chqueues.o
 .debug_ranges  0x00000bb8       0x28 build/obj/chmemcore.o
 .debug_ranges  0x00000be0       0x30 build/obj/chheap.o
 .debug_ranges  0x00000c10      0x1d8 build/obj/chmempools.o
 .debug_ranges  0x00000de8      0x190 build/obj/test.o
 .debug_ranges  0x00000f78       0xa8 build/obj/testthd.o
 .debug_ranges  0x00001020       0xc0 build/obj/testsem.o
 .debug_ranges  0x000010e0      0x110 build/obj/testmtx.o
 .debug_ranges  0x000011f0       0x18 build/obj/testmsg.o
 .debug_ranges  0x00001208       0xc0 build/obj/testmbox.o
 .debug_ranges  0x000012c8       0x90 build/obj/testevt.o
 .debug_ranges  0x00001358       0x18 build/obj/testheap.o
 .debug_ranges  0x00001370       0x50 build/obj/testpools.o
 .debug_ranges  0x000013c0       0x48 build/obj/testdyn.o
 .debug_ranges  0x00001408      0x180 build/obj/testqueues.o
 .debug_ranges  0x00001588       0xd8 build/obj/testbmk.o
 .debug_ranges  0x00001660       0x50 build/obj/hal.o
 .debug_ranges  0x000016b0       0xf0 build/obj/adc.o
 .debug_ranges  0x000017a0       0xc0 build/obj/can.o
 .debug_ranges  0x00001860       0x80 build/obj/i2c.o
 .debug_ranges  0x000018e0       0x98 build/obj/icu.o
 .debug_ranges  0x00001978       0x28 build/obj/mmcsd.o
 .debug_ranges  0x000019a0       0x70 build/obj/pwm.o
 .debug_ranges  0x00001a10       0x38 build/obj/rtc.o
 .debug_ranges  0x00001a48       0xd0 build/obj/sdc.o
 .debug_ranges  0x00001b18       0xa8 build/obj/serial.o
 .debug_ranges  0x00001bc0       0xd0 build/obj/serial_usb.o
 .debug_ranges  0x00001c90      0x130 build/obj/spi.o
 .debug_ranges  0x00001dc0       0x78 build/obj/tm.o
 .debug_ranges  0x00001e38       0xe0 build/obj/usb.o
 .debug_ranges  0x00001f18       0xa0 build/obj/stm32_dma.o
 .debug_ranges  0x00001fb8       0x30 build/obj/hal_lld.o
 .debug_ranges  0x00001fe8       0x60 build/obj/adc_lld.o
 .debug_ranges  0x00002048       0xe0 build/obj/can_lld.o
 .debug_ranges  0x00002128      0x198 build/obj/sdc_lld.o
 .debug_ranges  0x000022c0      0x168 build/obj/pal_lld.o
 .debug_ranges  0x00002428      0x1a8 build/obj/i2c_lld.o
 .debug_ranges  0x000025d0      0x478 build/obj/usb_lld.o
 .debug_ranges  0x00002a48       0x78 build/obj/rtc_lld.o
 .debug_ranges  0x00002ac0       0x68 build/obj/spi_lld.o
 .debug_ranges  0x00002b28       0x48 build/obj/icu_lld.o
 .debug_ranges  0x00002b70       0x48 build/obj/pwm_lld.o
 .debug_ranges  0x00002bb8       0xf0 build/obj/serial_lld.o
 .debug_ranges  0x00002ca8       0x18 build/obj/board.o
 .debug_ranges  0x00002cc0       0x38 build/obj/fatfs_diskio.o
 .debug_ranges  0x00002cf8       0x18 build/obj/fatfs_syscall.o
 .debug_ranges  0x00002d10      0x908 build/obj/ff.o
 .debug_ranges  0x00003618       0x18 build/obj/ccsbcs.o
 .debug_ranges  0x00003630       0x40 build/obj/syscalls.o
 .debug_ranges  0x00003670      0x138 build/obj/shell.o
 .debug_ranges  0x000037a8       0x20 build/obj/chprintf.o
 .debug_ranges  0x000037c8       0x40 build/obj/chrtclib.o
 .debug_ranges  0x00003808       0x38 build/obj/main.o
 .debug_ranges  0x00003840       0xb0 build/obj/console.o
 .debug_ranges  0x000038f0      0x148 build/obj/sdcard.o
 .debug_ranges  0x00003a38       0x78 build/obj/can_comm.o
 .debug_ranges  0x00003ab0       0x28 build/obj/light.o
 .debug_ranges  0x00003ad8       0x80 build/obj/speed.o
 .debug_ranges  0x00003b58       0xc0 build/obj/meas.o
 .debug_ranges  0x00003c18       0x38 build/obj/cruise.o
 .debug_ranges  0x00003c50       0x68 build/obj/dsp.o
 .debug_ranges  0x00003cb8       0x70 build/obj/gfx.o
 .debug_ranges  0x00003d28       0x10 build/obj/uart_comm.o

.debug_line     0x00000000    0x11dc1
 .debug_line    0x00000000      0x179 build/obj/crt0.o
 .debug_line    0x00000179       0xf1 build/obj/vectors.o
 .debug_line    0x0000026a       0x5e build/obj/chcore.o
 .debug_line    0x000002c8      0x237 build/obj/chcore_v7m.o
 .debug_line    0x000004ff      0x130 build/obj/nvic.o
 .debug_line    0x0000062f      0x258 build/obj/chsys.o
 .debug_line    0x00000887      0x17b build/obj/chvt.o
 .debug_line    0x00000a02      0x34c build/obj/chschd.o
 .debug_line    0x00000d4e      0x399 build/obj/chthreads.o
 .debug_line    0x000010e7      0x27f build/obj/chdynamic.o
 .debug_line    0x00001366      0x22b build/obj/chregistry.o
 .debug_line    0x00001591      0x3a0 build/obj/chsem.o
 .debug_line    0x00001931      0x385 build/obj/chmtx.o
 .debug_line    0x00001cb6      0x2b4 build/obj/chcond.o
 .debug_line    0x00001f6a      0x356 build/obj/chevents.o
 .debug_line    0x000022c0      0x1db build/obj/chmsg.o
 .debug_line    0x0000249b      0x2ad build/obj/chmboxes.o
 .debug_line    0x00002748      0x3ed build/obj/chqueues.o
 .debug_line    0x00002b35      0x19d build/obj/chmemcore.o
 .debug_line    0x00002cd2      0x2c6 build/obj/chheap.o
 .debug_line    0x00002f98      0x269 build/obj/chmempools.o
 .debug_line    0x00003201      0x595 build/obj/test.o
 .debug_line    0x00003796      0x28d build/obj/testthd.o
 .debug_line    0x00003a23      0x372 build/obj/testsem.o
 .debug_line    0x00003d95      0x523 build/obj/testmtx.o
 .debug_line    0x000042b8      0x21d build/obj/testmsg.o
 .debug_line    0x000044d5      0x27c build/obj/testmbox.o
 .debug_line    0x00004751      0x321 build/obj/testevt.o
 .debug_line    0x00004a72      0x25b build/obj/testheap.o
 .debug_line    0x00004ccd      0x170 build/obj/testpools.o
 .debug_line    0x00004e3d      0x359 build/obj/testdyn.o
 .debug_line    0x00005196      0x2ef build/obj/testqueues.o
 .debug_line    0x00005485      0x61a build/obj/testbmk.o
 .debug_line    0x00005a9f      0x307 build/obj/hal.o
 .debug_line    0x00005da6      0x3d4 build/obj/adc.o
 .debug_line    0x0000617a      0x341 build/obj/can.o
 .debug_line    0x000064bb      0x386 build/obj/i2c.o
 .debug_line    0x00006841      0x200 build/obj/icu.o
 .debug_line    0x00006a41      0x143 build/obj/mmcsd.o
 .debug_line    0x00006b84      0x20f build/obj/pwm.o
 .debug_line    0x00006d93      0x24f build/obj/rtc.o
 .debug_line    0x00006fe2      0x439 build/obj/sdc.o
 .debug_line    0x0000741b      0x3fd build/obj/serial.o
 .debug_line    0x00007818      0x4bf build/obj/serial_usb.o
 .debug_line    0x00007cd7      0x44c build/obj/spi.o
 .debug_line    0x00008123      0x22a build/obj/tm.o
 .debug_line    0x0000834d      0x53e build/obj/usb.o
 .debug_line    0x0000888b      0x427 build/obj/stm32_dma.o
 .debug_line    0x00008cb2      0x221 build/obj/hal_lld.o
 .debug_line    0x00008ed3      0x4a9 build/obj/adc_lld.o
 .debug_line    0x0000937c      0x52d build/obj/can_lld.o
 .debug_line    0x000098a9      0x59e build/obj/sdc_lld.o
 .debug_line    0x00009e47      0x21f build/obj/pal_lld.o
 .debug_line    0x0000a066      0x608 build/obj/i2c_lld.o
 .debug_line    0x0000a66e      0x908 build/obj/usb_lld.o
 .debug_line    0x0000af76      0x300 build/obj/rtc_lld.o
 .debug_line    0x0000b276      0x4d0 build/obj/spi_lld.o
 .debug_line    0x0000b746      0x313 build/obj/icu_lld.o
 .debug_line    0x0000ba59      0x33e build/obj/pwm_lld.o
 .debug_line    0x0000bd97      0x428 build/obj/serial_lld.o
 .debug_line    0x0000c1bf      0x192 build/obj/board.o
 .debug_line    0x0000c351      0x38e build/obj/fatfs_diskio.o
 .debug_line    0x0000c6df      0x24a build/obj/fatfs_syscall.o
 .debug_line    0x0000c929     0x1552 build/obj/ff.o
 .debug_line    0x0000de7b       0xcc build/obj/ccsbcs.o
 .debug_line    0x0000df47      0x437 build/obj/syscalls.o
 .debug_line    0x0000e37e      0x453 build/obj/shell.o
 .debug_line    0x0000e7d1      0x366 build/obj/chprintf.o
 .debug_line    0x0000eb37      0x3f5 build/obj/chrtclib.o
 .debug_line    0x0000ef2c      0x37e build/obj/main.o
 .debug_line    0x0000f2aa      0x61b build/obj/console.o
 .debug_line    0x0000f8c5      0x697 build/obj/sdcard.o
 .debug_line    0x0000ff5c      0x502 build/obj/can_comm.o
 .debug_line    0x0001045e      0x3ef build/obj/light.o
 .debug_line    0x0001084d      0x39f build/obj/speed.o
 .debug_line    0x00010bec      0x3d1 build/obj/meas.o
 .debug_line    0x00010fbd      0x417 build/obj/cruise.o
 .debug_line    0x000113d4      0x331 build/obj/dsp.o
 .debug_line    0x00011705      0x3f1 build/obj/gfx.o
 .debug_line    0x00011af6      0x2cb build/obj/uart_comm.o

.debug_str      0x00000000     0x6835
 .debug_str     0x00000000      0x207 build/obj/crt0.o
                                0x246 (size before relaxing)
 .debug_str     0x00000207      0x150 build/obj/vectors.o
                                0x271 (size before relaxing)
 .debug_str     0x00000357       0x38 build/obj/chcore.o
                                0x144 (size before relaxing)
 .debug_str     0x0000038f      0x2de build/obj/chcore_v7m.o
                                0x419 (size before relaxing)
 .debug_str     0x0000066d       0xa1 build/obj/nvic.o
                                0x243 (size before relaxing)
 .debug_str     0x0000070e      0x210 build/obj/chsys.o
                                0x4f1 (size before relaxing)
 .debug_str     0x0000091e       0x41 build/obj/chvt.o
                                0x1c4 (size before relaxing)
 .debug_str     0x0000095f       0xcf build/obj/chschd.o
                                0x426 (size before relaxing)
 .debug_str     0x00000a2e       0xde build/obj/chthreads.o
                                0x491 (size before relaxing)
 .debug_str     0x00000b0c      0x118 build/obj/chdynamic.o
                                0x408 (size before relaxing)
 .debug_str     0x00000c24       0x4d build/obj/chregistry.o
                                0x414 (size before relaxing)
 .debug_str     0x00000c71       0xd3 build/obj/chsem.o
                                0x40a (size before relaxing)
 .debug_str     0x00000d44       0x9c build/obj/chmtx.o
                                0x3ab (size before relaxing)
 .debug_str     0x00000de0       0xbb build/obj/chcond.o
                                0x3f8 (size before relaxing)
 .debug_str     0x00000e9b      0x1c4 build/obj/chevents.o
                                0x4cf (size before relaxing)
 .debug_str     0x0000105f       0x48 build/obj/chmsg.o
                                0x343 (size before relaxing)
 .debug_str     0x000010a7       0xed build/obj/chmboxes.o
                                0x3d2 (size before relaxing)
 .debug_str     0x00001194      0x124 build/obj/chqueues.o
                                0x436 (size before relaxing)
 .debug_str     0x000012b8       0x7b build/obj/chmemcore.o
                                0x1af (size before relaxing)
 .debug_str     0x00001333       0x53 build/obj/chheap.o
                                0x38f (size before relaxing)
 .debug_str     0x00001386       0x60 build/obj/chmempools.o
                                0x1fd (size before relaxing)
 .debug_str     0x000013e6      0x26f build/obj/test.o
                                0x618 (size before relaxing)
 .debug_str     0x00001655       0x78 build/obj/testthd.o
                                0x4ac (size before relaxing)
 .debug_str     0x000016cd       0xe1 build/obj/testsem.o
                                0x568 (size before relaxing)
 .debug_str     0x000017ae      0x19f build/obj/testmtx.o
                                0x666 (size before relaxing)
 .debug_str     0x0000194d       0x36 build/obj/testmsg.o
                                0x39f (size before relaxing)
 .debug_str     0x00001983       0x4a build/obj/testmbox.o
                                0x41b (size before relaxing)
 .debug_str     0x000019cd       0x8a build/obj/testevt.o
                                0x5d1 (size before relaxing)
 .debug_str     0x00001a57       0x4f build/obj/testheap.o
                                0x3dd (size before relaxing)
 .debug_str     0x00001aa6       0x57 build/obj/testpools.o
                                0x236 (size before relaxing)
 .debug_str     0x00001afd       0x91 build/obj/testdyn.o
                                0x581 (size before relaxing)
 .debug_str     0x00001b8e       0x77 build/obj/testqueues.o
                                0x508 (size before relaxing)
 .debug_str     0x00001c05      0x184 build/obj/testbmk.o
                                0x6ed (size before relaxing)
 .debug_str     0x00001d89      0x1ae build/obj/hal.o
                                0x2fa (size before relaxing)
 .debug_str     0x00001f37      0x304 build/obj/adc.o
                                0x655 (size before relaxing)
 .debug_str     0x0000223b      0x2dc build/obj/can.o
                                0x66b (size before relaxing)
 .debug_str     0x00002517      0x2ab build/obj/i2c.o
                                0x62a (size before relaxing)
 .debug_str     0x000027c2      0x1f0 build/obj/icu.o
                                0x342 (size before relaxing)
 .debug_str     0x000029b2       0x66 build/obj/mmcsd.o
                                0x19b (size before relaxing)
 .debug_str     0x00002a18      0x152 build/obj/pwm.o
                                0x31e (size before relaxing)
 .debug_str     0x00002b6a      0x210 build/obj/rtc.o
                                0x359 (size before relaxing)
 .debug_str     0x00002d7a      0x32c build/obj/sdc.o
                                0x68e (size before relaxing)
 .debug_str     0x000030a6      0x122 build/obj/serial.o
                                0x5a3 (size before relaxing)
 .debug_str     0x000031c8      0x7c9 build/obj/serial_usb.o
                                0xc7e (size before relaxing)
 .debug_str     0x00003991      0x246 build/obj/spi.o
                                0x65c (size before relaxing)
 .debug_str     0x00003bd7       0x6d build/obj/tm.o
                                0x200 (size before relaxing)
 .debug_str     0x00003c44      0x2bb build/obj/usb.o
                                0xca4 (size before relaxing)
 .debug_str     0x00003eff      0x74b build/obj/stm32_dma.o
                                0x97b (size before relaxing)
 .debug_str     0x0000464a       0xc9 build/obj/hal_lld.o
                                0x363 (size before relaxing)
 .debug_str     0x00004713       0xd9 build/obj/adc_lld.o
                                0xc8b (size before relaxing)
 .debug_str     0x000047ec      0x129 build/obj/can_lld.o
                                0x80f (size before relaxing)
 .debug_str     0x00004915      0x152 build/obj/sdc_lld.o
                                0x906 (size before relaxing)
 .debug_str     0x00004a67       0x82 build/obj/pal_lld.o
                                0x3b6 (size before relaxing)
 .debug_str     0x00004ae9      0x136 build/obj/i2c_lld.o
                                0xdbf (size before relaxing)
 .debug_str     0x00004c1f      0x204 build/obj/usb_lld.o
                                0xf23 (size before relaxing)
 .debug_str     0x00004e23       0x91 build/obj/rtc_lld.o
                                0x393 (size before relaxing)
 .debug_str     0x00004eb4       0xa2 build/obj/spi_lld.o
                                0x6fc (size before relaxing)
 .debug_str     0x00004f56       0x77 build/obj/icu_lld.o
                                0x4b7 (size before relaxing)
 .debug_str     0x00004fcd       0x74 build/obj/pwm_lld.o
                                0x469 (size before relaxing)
 .debug_str     0x00005041       0x81 build/obj/serial_lld.o
                                0x65a (size before relaxing)
 .debug_str     0x000050c2       0x11 build/obj/board.o
                                0x1f7 (size before relaxing)
 .debug_str     0x000050d3       0xee build/obj/fatfs_diskio.o
                                0x673 (size before relaxing)
 .debug_str     0x000051c1       0x5e build/obj/fatfs_syscall.o
                                0x369 (size before relaxing)
 .debug_str     0x0000521f      0x514 build/obj/ff.o
                                0x73a (size before relaxing)
 .debug_str     0x00005733       0x43 build/obj/ccsbcs.o
                                0x171 (size before relaxing)
 .debug_str     0x00005776      0x491 build/obj/syscalls.o
                                0x981 (size before relaxing)
 .debug_str     0x00005c07      0x15d build/obj/shell.o
                                0x618 (size before relaxing)
 .debug_str     0x00005d64       0xbb build/obj/chprintf.o
                                0x274 (size before relaxing)
 .debug_str     0x00005e1f       0xb9 build/obj/chrtclib.o
                                0x387 (size before relaxing)
 .debug_str     0x00005ed8       0xe1 build/obj/main.o
                                0x4e2 (size before relaxing)
 .debug_str     0x00005fb9       0xbb build/obj/console.o
                                0x974 (size before relaxing)
 .debug_str     0x00006074      0x196 build/obj/sdcard.o
                                0x9b4 (size before relaxing)
 .debug_str     0x0000620a      0x120 build/obj/can_comm.o
                                0x79c (size before relaxing)
 .debug_str     0x0000632a       0x2b build/obj/light.o
                                0x7a8 (size before relaxing)
 .debug_str     0x00006355       0xcd build/obj/speed.o
                                0x475 (size before relaxing)
 .debug_str     0x00006422       0xf3 build/obj/meas.o
                                0x699 (size before relaxing)
 .debug_str     0x00006515       0x93 build/obj/cruise.o
                                0x3fd (size before relaxing)
 .debug_str     0x000065a8      0x1ad build/obj/dsp.o
                                0x3d3 (size before relaxing)
 .debug_str     0x00006755       0xbf build/obj/gfx.o
                                0x55e (size before relaxing)
 .debug_str     0x00006814       0x21 build/obj/uart_comm.o
                                0x484 (size before relaxing)

.comment        0x00000000       0x70
 .comment       0x00000000       0x70 build/obj/crt0.o
                                 0x71 (size before relaxing)
 .comment       0x00000000       0x71 build/obj/vectors.o
 .comment       0x00000000       0x71 build/obj/chcore.o
 .comment       0x00000000       0x71 build/obj/chcore_v7m.o
 .comment       0x00000000       0x71 build/obj/nvic.o
 .comment       0x00000000       0x71 build/obj/chsys.o
 .comment       0x00000000       0x71 build/obj/chvt.o
 .comment       0x00000000       0x71 build/obj/chschd.o
 .comment       0x00000000       0x71 build/obj/chthreads.o
 .comment       0x00000000       0x71 build/obj/chdynamic.o
 .comment       0x00000000       0x71 build/obj/chregistry.o
 .comment       0x00000000       0x71 build/obj/chsem.o
 .comment       0x00000000       0x71 build/obj/chmtx.o
 .comment       0x00000000       0x71 build/obj/chcond.o
 .comment       0x00000000       0x71 build/obj/chevents.o
 .comment       0x00000000       0x71 build/obj/chmsg.o
 .comment       0x00000000       0x71 build/obj/chmboxes.o
 .comment       0x00000000       0x71 build/obj/chqueues.o
 .comment       0x00000000       0x71 build/obj/chmemcore.o
 .comment       0x00000000       0x71 build/obj/chheap.o
 .comment       0x00000000       0x71 build/obj/chmempools.o
 .comment       0x00000000       0x71 build/obj/test.o
 .comment       0x00000000       0x71 build/obj/testthd.o
 .comment       0x00000000       0x71 build/obj/testsem.o
 .comment       0x00000000       0x71 build/obj/testmtx.o
 .comment       0x00000000       0x71 build/obj/testmsg.o
 .comment       0x00000000       0x71 build/obj/testmbox.o
 .comment       0x00000000       0x71 build/obj/testevt.o
 .comment       0x00000000       0x71 build/obj/testheap.o
 .comment       0x00000000       0x71 build/obj/testpools.o
 .comment       0x00000000       0x71 build/obj/testdyn.o
 .comment       0x00000000       0x71 build/obj/testqueues.o
 .comment       0x00000000       0x71 build/obj/testbmk.o
 .comment       0x00000000       0x71 build/obj/hal.o
 .comment       0x00000000       0x71 build/obj/adc.o
 .comment       0x00000000       0x71 build/obj/can.o
 .comment       0x00000000       0x71 build/obj/i2c.o
 .comment       0x00000000       0x71 build/obj/icu.o
 .comment       0x00000000       0x71 build/obj/mmcsd.o
 .comment       0x00000000       0x71 build/obj/pwm.o
 .comment       0x00000000       0x71 build/obj/rtc.o
 .comment       0x00000000       0x71 build/obj/sdc.o
 .comment       0x00000000       0x71 build/obj/serial.o
 .comment       0x00000000       0x71 build/obj/serial_usb.o
 .comment       0x00000000       0x71 build/obj/spi.o
 .comment       0x00000000       0x71 build/obj/tm.o
 .comment       0x00000000       0x71 build/obj/usb.o
 .comment       0x00000000       0x71 build/obj/stm32_dma.o
 .comment       0x00000000       0x71 build/obj/hal_lld.o
 .comment       0x00000000       0x71 build/obj/adc_lld.o
 .comment       0x00000000       0x71 build/obj/can_lld.o
 .comment       0x00000000       0x71 build/obj/sdc_lld.o
 .comment       0x00000000       0x71 build/obj/pal_lld.o
 .comment       0x00000000       0x71 build/obj/i2c_lld.o
 .comment       0x00000000       0x71 build/obj/usb_lld.o
 .comment       0x00000000       0x71 build/obj/rtc_lld.o
 .comment       0x00000000       0x71 build/obj/spi_lld.o
 .comment       0x00000000       0x71 build/obj/icu_lld.o
 .comment       0x00000000       0x71 build/obj/pwm_lld.o
 .comment       0x00000000       0x71 build/obj/serial_lld.o
 .comment       0x00000000       0x71 build/obj/board.o
 .comment       0x00000000       0x71 build/obj/fatfs_diskio.o
 .comment       0x00000000       0x71 build/obj/fatfs_syscall.o
 .comment       0x00000000       0x71 build/obj/ff.o
 .comment       0x00000000       0x71 build/obj/ccsbcs.o
 .comment       0x00000000       0x71 build/obj/syscalls.o
 .comment       0x00000000       0x71 build/obj/shell.o
 .comment       0x00000000       0x71 build/obj/chprintf.o
 .comment       0x00000000       0x71 build/obj/chrtclib.o
 .comment       0x00000000       0x71 build/obj/main.o
 .comment       0x00000000       0x71 build/obj/console.o
 .comment       0x00000000       0x71 build/obj/sdcard.o
 .comment       0x00000000       0x71 build/obj/can_comm.o
 .comment       0x00000000       0x71 build/obj/light.o
 .comment       0x00000000       0x71 build/obj/speed.o
 .comment       0x00000000       0x71 build/obj/meas.o
 .comment       0x00000000       0x71 build/obj/cruise.o
 .comment       0x00000000       0x71 build/obj/dsp.o
 .comment       0x00000000       0x71 build/obj/gfx.o
 .comment       0x00000000       0x71 build/obj/uart_comm.o

.ARM.attributes
                0x00000000       0x33
 .ARM.attributes
                0x00000000       0x33 build/obj/crt0.o
 .ARM.attributes
                0x00000033       0x33 build/obj/vectors.o
 .ARM.attributes
                0x00000066       0x33 build/obj/chcore.o
 .ARM.attributes
                0x00000099       0x33 build/obj/chcore_v7m.o
 .ARM.attributes
                0x000000cc       0x33 build/obj/nvic.o
 .ARM.attributes
                0x000000ff       0x33 build/obj/chsys.o
 .ARM.attributes
                0x00000132       0x33 build/obj/chvt.o
 .ARM.attributes
                0x00000165       0x33 build/obj/chschd.o
 .ARM.attributes
                0x00000198       0x33 build/obj/chthreads.o
 .ARM.attributes
                0x000001cb       0x33 build/obj/chdynamic.o
 .ARM.attributes
                0x000001fe       0x33 build/obj/chregistry.o
 .ARM.attributes
                0x00000231       0x33 build/obj/chsem.o
 .ARM.attributes
                0x00000264       0x33 build/obj/chmtx.o
 .ARM.attributes
                0x00000297       0x33 build/obj/chcond.o
 .ARM.attributes
                0x000002ca       0x33 build/obj/chevents.o
 .ARM.attributes
                0x000002fd       0x33 build/obj/chmsg.o
 .ARM.attributes
                0x00000330       0x33 build/obj/chmboxes.o
 .ARM.attributes
                0x00000363       0x33 build/obj/chqueues.o
 .ARM.attributes
                0x00000396       0x33 build/obj/chmemcore.o
 .ARM.attributes
                0x000003c9       0x33 build/obj/chheap.o
 .ARM.attributes
                0x000003fc       0x33 build/obj/chmempools.o
 .ARM.attributes
                0x0000042f       0x33 build/obj/test.o
 .ARM.attributes
                0x00000462       0x33 build/obj/testthd.o
 .ARM.attributes
                0x00000495       0x33 build/obj/testsem.o
 .ARM.attributes
                0x000004c8       0x33 build/obj/testmtx.o
 .ARM.attributes
                0x000004fb       0x33 build/obj/testmsg.o
 .ARM.attributes
                0x0000052e       0x33 build/obj/testmbox.o
 .ARM.attributes
                0x00000561       0x33 build/obj/testevt.o
 .ARM.attributes
                0x00000594       0x33 build/obj/testheap.o
 .ARM.attributes
                0x000005c7       0x33 build/obj/testpools.o
 .ARM.attributes
                0x000005fa       0x33 build/obj/testdyn.o
 .ARM.attributes
                0x0000062d       0x33 build/obj/testqueues.o
 .ARM.attributes
                0x00000660       0x33 build/obj/testbmk.o
 .ARM.attributes
                0x00000693       0x33 build/obj/hal.o
 .ARM.attributes
                0x000006c6       0x33 build/obj/adc.o
 .ARM.attributes
                0x000006f9       0x33 build/obj/can.o
 .ARM.attributes
                0x0000072c       0x33 build/obj/i2c.o
 .ARM.attributes
                0x0000075f       0x33 build/obj/icu.o
 .ARM.attributes
                0x00000792       0x33 build/obj/mmcsd.o
 .ARM.attributes
                0x000007c5       0x33 build/obj/pwm.o
 .ARM.attributes
                0x000007f8       0x33 build/obj/rtc.o
 .ARM.attributes
                0x0000082b       0x33 build/obj/sdc.o
 .ARM.attributes
                0x0000085e       0x33 build/obj/serial.o
 .ARM.attributes
                0x00000891       0x33 build/obj/serial_usb.o
 .ARM.attributes
                0x000008c4       0x33 build/obj/spi.o
 .ARM.attributes
                0x000008f7       0x33 build/obj/tm.o
 .ARM.attributes
                0x0000092a       0x33 build/obj/usb.o
 .ARM.attributes
                0x0000095d       0x33 build/obj/stm32_dma.o
 .ARM.attributes
                0x00000990       0x33 build/obj/hal_lld.o
 .ARM.attributes
                0x000009c3       0x33 build/obj/adc_lld.o
 .ARM.attributes
                0x000009f6       0x33 build/obj/can_lld.o
 .ARM.attributes
                0x00000a29       0x33 build/obj/sdc_lld.o
 .ARM.attributes
                0x00000a5c       0x33 build/obj/pal_lld.o
 .ARM.attributes
                0x00000a8f       0x33 build/obj/i2c_lld.o
 .ARM.attributes
                0x00000ac2       0x33 build/obj/usb_lld.o
 .ARM.attributes
                0x00000af5       0x33 build/obj/rtc_lld.o
 .ARM.attributes
                0x00000b28       0x33 build/obj/spi_lld.o
 .ARM.attributes
                0x00000b5b       0x33 build/obj/icu_lld.o
 .ARM.attributes
                0x00000b8e       0x33 build/obj/pwm_lld.o
 .ARM.attributes
                0x00000bc1       0x33 build/obj/serial_lld.o
 .ARM.attributes
                0x00000bf4       0x33 build/obj/board.o
 .ARM.attributes
                0x00000c27       0x33 build/obj/fatfs_diskio.o
 .ARM.attributes
                0x00000c5a       0x33 build/obj/fatfs_syscall.o
 .ARM.attributes
                0x00000c8d       0x33 build/obj/ff.o
 .ARM.attributes
                0x00000cc0       0x33 build/obj/ccsbcs.o
 .ARM.attributes
                0x00000cf3       0x33 build/obj/syscalls.o
 .ARM.attributes
                0x00000d26       0x33 build/obj/shell.o
 .ARM.attributes
                0x00000d59       0x33 build/obj/chprintf.o
 .ARM.attributes
                0x00000d8c       0x33 build/obj/chrtclib.o
 .ARM.attributes
                0x00000dbf       0x33 build/obj/main.o
 .ARM.attributes
                0x00000df2       0x33 build/obj/console.o
 .ARM.attributes
                0x00000e25       0x33 build/obj/sdcard.o
 .ARM.attributes
                0x00000e58       0x33 build/obj/can_comm.o
 .ARM.attributes
                0x00000e8b       0x33 build/obj/light.o
 .ARM.attributes
                0x00000ebe       0x33 build/obj/speed.o
 .ARM.attributes
                0x00000ef1       0x33 build/obj/meas.o
 .ARM.attributes
                0x00000f24       0x33 build/obj/cruise.o
 .ARM.attributes
                0x00000f57       0x33 build/obj/dsp.o
 .ARM.attributes
                0x00000f8a       0x33 build/obj/gfx.o
 .ARM.attributes
                0x00000fbd       0x33 build/obj/uart_comm.o
 .ARM.attributes
                0x00000ff0       0x1e c:/chibistudio/tools/gnu tools arm embedded/4.7 2014q2/bin/../lib/gcc/arm-none-eabi/4.7.4/armv7e-m\libgcc.a(_arm_addsubdf3.o)
 .ARM.attributes
                0x0000100e       0x1e c:/chibistudio/tools/gnu tools arm embedded/4.7 2014q2/bin/../lib/gcc/arm-none-eabi/4.7.4/armv7e-m\libgcc.a(_arm_muldivdf3.o)
 .ARM.attributes
                0x0000102c       0x1e c:/chibistudio/tools/gnu tools arm embedded/4.7 2014q2/bin/../lib/gcc/arm-none-eabi/4.7.4/armv7e-m\libgcc.a(_arm_cmpdf2.o)
 .ARM.attributes
                0x0000104a       0x1e c:/chibistudio/tools/gnu tools arm embedded/4.7 2014q2/bin/../lib/gcc/arm-none-eabi/4.7.4/armv7e-m\libgcc.a(_arm_fixdfsi.o)
 .ARM.attributes
                0x00001068       0x1e c:/chibistudio/tools/gnu tools arm embedded/4.7 2014q2/bin/../lib/gcc/arm-none-eabi/4.7.4/armv7e-m\libgcc.a(_arm_fixunsdfsi.o)
 .ARM.attributes
                0x00001086       0x2e c:/chibistudio/tools/gnu tools arm embedded/4.7 2014q2/bin/../lib/gcc/arm-none-eabi/4.7.4/../../../../arm-none-eabi/lib/armv7e-m\libg.a(lib_a-asctime.o)
 .ARM.attributes
                0x000010b4       0x2e c:/chibistudio/tools/gnu tools arm embedded/4.7 2014q2/bin/../lib/gcc/arm-none-eabi/4.7.4/../../../../arm-none-eabi/lib/armv7e-m\libg.a(lib_a-asctime_r.o)
 .ARM.attributes
                0x000010e2       0x2e c:/chibistudio/tools/gnu tools arm embedded/4.7 2014q2/bin/../lib/gcc/arm-none-eabi/4.7.4/../../../../arm-none-eabi/lib/armv7e-m\libg.a(lib_a-atol.o)
 .ARM.attributes
                0x00001110       0x2e c:/chibistudio/tools/gnu tools arm embedded/4.7 2014q2/bin/../lib/gcc/arm-none-eabi/4.7.4/../../../../arm-none-eabi/lib/armv7e-m\libg.a(lib_a-impure.o)
 .ARM.attributes
                0x0000113e       0x2e c:/chibistudio/tools/gnu tools arm embedded/4.7 2014q2/bin/../lib/gcc/arm-none-eabi/4.7.4/../../../../arm-none-eabi/lib/armv7e-m\libg.a(lib_a-lcltime_r.o)
 .ARM.attributes
                0x0000116c       0x2e c:/chibistudio/tools/gnu tools arm embedded/4.7 2014q2/bin/../lib/gcc/arm-none-eabi/4.7.4/../../../../arm-none-eabi/lib/armv7e-m\libg.a(lib_a-memcmp.o)
 .ARM.attributes
                0x0000119a       0x2e c:/chibistudio/tools/gnu tools arm embedded/4.7 2014q2/bin/../lib/gcc/arm-none-eabi/4.7.4/../../../../arm-none-eabi/lib/armv7e-m\libg.a(lib_a-memcpy.o)
 .ARM.attributes
                0x000011c8       0x2e c:/chibistudio/tools/gnu tools arm embedded/4.7 2014q2/bin/../lib/gcc/arm-none-eabi/4.7.4/../../../../arm-none-eabi/lib/armv7e-m\libg.a(lib_a-memset.o)
 .ARM.attributes
                0x000011f6       0x2e c:/chibistudio/tools/gnu tools arm embedded/4.7 2014q2/bin/../lib/gcc/arm-none-eabi/4.7.4/../../../../arm-none-eabi/lib/armv7e-m\libg.a(lib_a-mktime.o)
 .ARM.attributes
                0x00001224       0x2e c:/chibistudio/tools/gnu tools arm embedded/4.7 2014q2/bin/../lib/gcc/arm-none-eabi/4.7.4/../../../../arm-none-eabi/lib/armv7e-m\libg.a(lib_a-mktm_r.o)
 .ARM.attributes
                0x00001252       0x2e c:/chibistudio/tools/gnu tools arm embedded/4.7 2014q2/bin/../lib/gcc/arm-none-eabi/4.7.4/../../../../arm-none-eabi/lib/armv7e-m\libg.a(lib_a-sprintf.o)
 .ARM.attributes
                0x00001280       0x2e c:/chibistudio/tools/gnu tools arm embedded/4.7 2014q2/bin/../lib/gcc/arm-none-eabi/4.7.4/../../../../arm-none-eabi/lib/armv7e-m\libg.a(lib_a-strcasecmp.o)
 .ARM.attributes
                0x000012ae       0x2e c:/chibistudio/tools/gnu tools arm embedded/4.7 2014q2/bin/../lib/gcc/arm-none-eabi/4.7.4/../../../../arm-none-eabi/lib/armv7e-m\libg.a(lib_a-strcmp.o)
 .ARM.attributes
                0x000012dc       0x2e c:/chibistudio/tools/gnu tools arm embedded/4.7 2014q2/bin/../lib/gcc/arm-none-eabi/4.7.4/../../../../arm-none-eabi/lib/armv7e-m\libg.a(lib_a-strcpy.o)
 .ARM.attributes
                0x0000130a       0x2e c:/chibistudio/tools/gnu tools arm embedded/4.7 2014q2/bin/../lib/gcc/arm-none-eabi/4.7.4/../../../../arm-none-eabi/lib/armv7e-m\libg.a(lib_a-strlen.o)
 .ARM.attributes
                0x00001338       0x2e c:/chibistudio/tools/gnu tools arm embedded/4.7 2014q2/bin/../lib/gcc/arm-none-eabi/4.7.4/../../../../arm-none-eabi/lib/armv7e-m\libg.a(lib_a-strpbrk.o)
 .ARM.attributes
                0x00001366       0x2e c:/chibistudio/tools/gnu tools arm embedded/4.7 2014q2/bin/../lib/gcc/arm-none-eabi/4.7.4/../../../../arm-none-eabi/lib/armv7e-m\libg.a(lib_a-strspn.o)
 .ARM.attributes
                0x00001394       0x2e c:/chibistudio/tools/gnu tools arm embedded/4.7 2014q2/bin/../lib/gcc/arm-none-eabi/4.7.4/../../../../arm-none-eabi/lib/armv7e-m\libg.a(lib_a-strtol.o)
 .ARM.attributes
                0x000013c2       0x2e c:/chibistudio/tools/gnu tools arm embedded/4.7 2014q2/bin/../lib/gcc/arm-none-eabi/4.7.4/../../../../arm-none-eabi/lib/armv7e-m\libg.a(lib_a-svfprintf.o)
 .ARM.attributes
                0x000013f0       0x2e c:/chibistudio/tools/gnu tools arm embedded/4.7 2014q2/bin/../lib/gcc/arm-none-eabi/4.7.4/../../../../arm-none-eabi/lib/armv7e-m\libg.a(lib_a-tzlock.o)
 .ARM.attributes
                0x0000141e       0x2e c:/chibistudio/tools/gnu tools arm embedded/4.7 2014q2/bin/../lib/gcc/arm-none-eabi/4.7.4/../../../../arm-none-eabi/lib/armv7e-m\libg.a(lib_a-tzvars.o)
 .ARM.attributes
                0x0000144c       0x2e c:/chibistudio/tools/gnu tools arm embedded/4.7 2014q2/bin/../lib/gcc/arm-none-eabi/4.7.4/../../../../arm-none-eabi/lib/armv7e-m\libg.a(lib_a-ctype_.o)
 .ARM.attributes
                0x0000147a       0x2e c:/chibistudio/tools/gnu tools arm embedded/4.7 2014q2/bin/../lib/gcc/arm-none-eabi/4.7.4/../../../../arm-none-eabi/lib/armv7e-m\libg.a(lib_a-div.o)
 .ARM.attributes
                0x000014a8       0x2e c:/chibistudio/tools/gnu tools arm embedded/4.7 2014q2/bin/../lib/gcc/arm-none-eabi/4.7.4/../../../../arm-none-eabi/lib/armv7e-m\libg.a(lib_a-dtoa.o)
 .ARM.attributes
                0x000014d6       0x2e c:/chibistudio/tools/gnu tools arm embedded/4.7 2014q2/bin/../lib/gcc/arm-none-eabi/4.7.4/../../../../arm-none-eabi/lib/armv7e-m\libg.a(lib_a-freer.o)
 .ARM.attributes
                0x00001504       0x2e c:/chibistudio/tools/gnu tools arm embedded/4.7 2014q2/bin/../lib/gcc/arm-none-eabi/4.7.4/../../../../arm-none-eabi/lib/armv7e-m\libg.a(lib_a-gettzinfo.o)
 .ARM.attributes
                0x00001532       0x2e c:/chibistudio/tools/gnu tools arm embedded/4.7 2014q2/bin/../lib/gcc/arm-none-eabi/4.7.4/../../../../arm-none-eabi/lib/armv7e-m\libg.a(lib_a-locale.o)
 .ARM.attributes
                0x00001560       0x2e c:/chibistudio/tools/gnu tools arm embedded/4.7 2014q2/bin/../lib/gcc/arm-none-eabi/4.7.4/../../../../arm-none-eabi/lib/armv7e-m\libg.a(lib_a-mallocr.o)
 .ARM.attributes
                0x0000158e       0x2e c:/chibistudio/tools/gnu tools arm embedded/4.7 2014q2/bin/../lib/gcc/arm-none-eabi/4.7.4/../../../../arm-none-eabi/lib/armv7e-m\libg.a(lib_a-memchr.o)
 .ARM.attributes
                0x000015bc       0x2e c:/chibistudio/tools/gnu tools arm embedded/4.7 2014q2/bin/../lib/gcc/arm-none-eabi/4.7.4/../../../../arm-none-eabi/lib/armv7e-m\libg.a(lib_a-mlock.o)
 .ARM.attributes
                0x000015ea       0x2e c:/chibistudio/tools/gnu tools arm embedded/4.7 2014q2/bin/../lib/gcc/arm-none-eabi/4.7.4/../../../../arm-none-eabi/lib/armv7e-m\libg.a(lib_a-mprec.o)
 .ARM.attributes
                0x00001618       0x2e c:/chibistudio/tools/gnu tools arm embedded/4.7 2014q2/bin/../lib/gcc/arm-none-eabi/4.7.4/../../../../arm-none-eabi/lib/armv7e-m\libg.a(lib_a-s_fpclassify.o)
 .ARM.attributes
                0x00001646       0x2e c:/chibistudio/tools/gnu tools arm embedded/4.7 2014q2/bin/../lib/gcc/arm-none-eabi/4.7.4/../../../../arm-none-eabi/lib/armv7e-m\libg.a(lib_a-svfiprintf.o)
 .ARM.attributes
                0x00001674       0x2e c:/chibistudio/tools/gnu tools arm embedded/4.7 2014q2/bin/../lib/gcc/arm-none-eabi/4.7.4/../../../../arm-none-eabi/lib/armv7e-m\libg.a(lib_a-callocr.o)
 .ARM.attributes
                0x000016a2       0x2e c:/chibistudio/tools/gnu tools arm embedded/4.7 2014q2/bin/../lib/gcc/arm-none-eabi/4.7.4/../../../../arm-none-eabi/lib/armv7e-m\libg.a(lib_a-memmove.o)
 .ARM.attributes
                0x000016d0       0x2e c:/chibistudio/tools/gnu tools arm embedded/4.7 2014q2/bin/../lib/gcc/arm-none-eabi/4.7.4/../../../../arm-none-eabi/lib/armv7e-m\libg.a(lib_a-reallocr.o)
 .ARM.attributes
                0x000016fe       0x1e c:/chibistudio/tools/gnu tools arm embedded/4.7 2014q2/bin/../lib/gcc/arm-none-eabi/4.7.4/armv7e-m\libgcc.a(_aeabi_uldivmod.o)
 .ARM.attributes
                0x0000171c       0x2e c:/chibistudio/tools/gnu tools arm embedded/4.7 2014q2/bin/../lib/gcc/arm-none-eabi/4.7.4/armv7e-m\libgcc.a(bpabi.o)
 .ARM.attributes
                0x0000174a       0x1e c:/chibistudio/tools/gnu tools arm embedded/4.7 2014q2/bin/../lib/gcc/arm-none-eabi/4.7.4/armv7e-m\libgcc.a(_dvmd_tls.o)
 .ARM.attributes
                0x00001768       0x2e c:/chibistudio/tools/gnu tools arm embedded/4.7 2014q2/bin/../lib/gcc/arm-none-eabi/4.7.4/armv7e-m\libgcc.a(_divdi3.o)
 .ARM.attributes
                0x00001796       0x2e c:/chibistudio/tools/gnu tools arm embedded/4.7 2014q2/bin/../lib/gcc/arm-none-eabi/4.7.4/armv7e-m\libgcc.a(_udivdi3.o)

.debug_frame    0x00000000     0x5b44
 .debug_frame   0x00000000       0x50 build/obj/crt0.o
 .debug_frame   0x00000050       0x20 build/obj/vectors.o
 .debug_frame   0x00000070       0x20 build/obj/chcore.o
 .debug_frame   0x00000090       0x98 build/obj/chcore_v7m.o
 .debug_frame   0x00000128       0x64 build/obj/nvic.o
 .debug_frame   0x0000018c       0x5c build/obj/chsys.o
 .debug_frame   0x000001e8       0x4c build/obj/chvt.o
 .debug_frame   0x00000234       0xf0 build/obj/chschd.o
 .debug_frame   0x00000324      0x160 build/obj/chthreads.o
 .debug_frame   0x00000484       0x80 build/obj/chdynamic.o
 .debug_frame   0x00000504       0x3c build/obj/chregistry.o
 .debug_frame   0x00000540      0x140 build/obj/chsem.o
 .debug_frame   0x00000680       0xe4 build/obj/chmtx.o
 .debug_frame   0x00000764      0x11c build/obj/chcond.o
 .debug_frame   0x00000880      0x1e0 build/obj/chevents.o
 .debug_frame   0x00000a60       0x68 build/obj/chmsg.o
 .debug_frame   0x00000ac8      0x154 build/obj/chmboxes.o
 .debug_frame   0x00000c1c      0x170 build/obj/chqueues.o
 .debug_frame   0x00000d8c       0x50 build/obj/chmemcore.o
 .debug_frame   0x00000ddc       0x98 build/obj/chheap.o
 .debug_frame   0x00000e74       0x94 build/obj/chmempools.o
 .debug_frame   0x00000f08      0x1d0 build/obj/test.o
 .debug_frame   0x000010d8       0xc4 build/obj/testthd.o
 .debug_frame   0x0000119c      0x138 build/obj/testsem.o
 .debug_frame   0x000012d4      0x398 build/obj/testmtx.o
 .debug_frame   0x0000166c       0x48 build/obj/testmsg.o
 .debug_frame   0x000016b4       0x48 build/obj/testmbox.o
 .debug_frame   0x000016fc      0x10c build/obj/testevt.o
 .debug_frame   0x00001808       0x44 build/obj/testheap.o
 .debug_frame   0x0000184c       0x50 build/obj/testpools.o
 .debug_frame   0x0000189c       0xdc build/obj/testdyn.o
 .debug_frame   0x00001978       0xe4 build/obj/testqueues.o
 .debug_frame   0x00001a5c      0x2b8 build/obj/testbmk.o
 .debug_frame   0x00001d14       0x4c build/obj/hal.o
 .debug_frame   0x00001d60      0x118 build/obj/adc.o
 .debug_frame   0x00001e78      0x10c build/obj/can.o
 .debug_frame   0x00001f84       0xe0 build/obj/i2c.o
 .debug_frame   0x00002064       0xa0 build/obj/icu.o
 .debug_frame   0x00002104       0x20 build/obj/mmcsd.o
 .debug_frame   0x00002124       0xb0 build/obj/pwm.o
 .debug_frame   0x000021d4       0xa0 build/obj/rtc.o
 .debug_frame   0x00002274      0x170 build/obj/sdc.o
 .debug_frame   0x000023e4      0x13c build/obj/serial.o
 .debug_frame   0x00002520      0x1b4 build/obj/serial_usb.o
 .debug_frame   0x000026d4      0x1a8 build/obj/spi.o
 .debug_frame   0x0000287c       0x64 build/obj/tm.o
 .debug_frame   0x000028e0      0x208 build/obj/usb.o
 .debug_frame   0x00002ae8      0x244 build/obj/stm32_dma.o
 .debug_frame   0x00002d2c       0x3c build/obj/hal_lld.o
 .debug_frame   0x00002d68      0x120 build/obj/adc_lld.o
 .debug_frame   0x00002e88      0x184 build/obj/can_lld.o
 .debug_frame   0x0000300c      0x24c build/obj/sdc_lld.o
 .debug_frame   0x00003258       0x4c build/obj/pal_lld.o
 .debug_frame   0x000032a4      0x18c build/obj/i2c_lld.o
 .debug_frame   0x00003430      0x28c build/obj/usb_lld.o
 .debug_frame   0x000036bc       0xbc build/obj/rtc_lld.o
 .debug_frame   0x00003778      0x140 build/obj/spi_lld.o
 .debug_frame   0x000038b8       0xe0 build/obj/icu_lld.o
 .debug_frame   0x00003998       0xec build/obj/pwm_lld.o
 .debug_frame   0x00003a84       0xe0 build/obj/serial_lld.o
 .debug_frame   0x00003b64       0x30 build/obj/board.o
 .debug_frame   0x00003b94       0xa4 build/obj/fatfs_diskio.o
 .debug_frame   0x00003c38       0x30 build/obj/fatfs_syscall.o
 .debug_frame   0x00003c68      0x664 build/obj/ff.o
 .debug_frame   0x000042cc       0x3c build/obj/ccsbcs.o
 .debug_frame   0x00004308       0xa4 build/obj/syscalls.o
 .debug_frame   0x000043ac      0x13c build/obj/shell.o
 .debug_frame   0x000044e8       0x90 build/obj/chprintf.o
 .debug_frame   0x00004578       0xf8 build/obj/chrtclib.o
 .debug_frame   0x00004670       0x70 build/obj/main.o
 .debug_frame   0x000046e0      0x16c build/obj/console.o
 .debug_frame   0x0000484c      0x1d8 build/obj/sdcard.o
 .debug_frame   0x00004a24      0x114 build/obj/can_comm.o
 .debug_frame   0x00004b38       0x88 build/obj/light.o
 .debug_frame   0x00004bc0      0x104 build/obj/speed.o
 .debug_frame   0x00004cc4       0xb8 build/obj/meas.o
 .debug_frame   0x00004d7c      0x10c build/obj/cruise.o
 .debug_frame   0x00004e88       0xbc build/obj/dsp.o
 .debug_frame   0x00004f44      0x1b8 build/obj/gfx.o
 .debug_frame   0x000050fc       0x20 build/obj/uart_comm.o
 .debug_frame   0x0000511c       0x20 c:/chibistudio/tools/gnu tools arm embedded/4.7 2014q2/bin/../lib/gcc/arm-none-eabi/4.7.4/../../../../arm-none-eabi/lib/armv7e-m\libg.a(lib_a-asctime.o)
 .debug_frame   0x0000513c       0x30 c:/chibistudio/tools/gnu tools arm embedded/4.7 2014q2/bin/../lib/gcc/arm-none-eabi/4.7.4/../../../../arm-none-eabi/lib/armv7e-m\libg.a(lib_a-asctime_r.o)
 .debug_frame   0x0000516c       0x30 c:/chibistudio/tools/gnu tools arm embedded/4.7 2014q2/bin/../lib/gcc/arm-none-eabi/4.7.4/../../../../arm-none-eabi/lib/armv7e-m\libg.a(lib_a-atol.o)
 .debug_frame   0x0000519c       0x20 c:/chibistudio/tools/gnu tools arm embedded/4.7 2014q2/bin/../lib/gcc/arm-none-eabi/4.7.4/../../../../arm-none-eabi/lib/armv7e-m\libg.a(lib_a-lcltime_r.o)
 .debug_frame   0x000051bc       0x2c c:/chibistudio/tools/gnu tools arm embedded/4.7 2014q2/bin/../lib/gcc/arm-none-eabi/4.7.4/../../../../arm-none-eabi/lib/armv7e-m\libg.a(lib_a-memcmp.o)
 .debug_frame   0x000051e8       0x30 c:/chibistudio/tools/gnu tools arm embedded/4.7 2014q2/bin/../lib/gcc/arm-none-eabi/4.7.4/../../../../arm-none-eabi/lib/armv7e-m\libg.a(lib_a-memcpy.o)
 .debug_frame   0x00005218       0x2c c:/chibistudio/tools/gnu tools arm embedded/4.7 2014q2/bin/../lib/gcc/arm-none-eabi/4.7.4/../../../../arm-none-eabi/lib/armv7e-m\libg.a(lib_a-memset.o)
 .debug_frame   0x00005244       0x5c c:/chibistudio/tools/gnu tools arm embedded/4.7 2014q2/bin/../lib/gcc/arm-none-eabi/4.7.4/../../../../arm-none-eabi/lib/armv7e-m\libg.a(lib_a-mktime.o)
 .debug_frame   0x000052a0       0x60 c:/chibistudio/tools/gnu tools arm embedded/4.7 2014q2/bin/../lib/gcc/arm-none-eabi/4.7.4/../../../../arm-none-eabi/lib/armv7e-m\libg.a(lib_a-mktm_r.o)
 .debug_frame   0x00005300       0x60 c:/chibistudio/tools/gnu tools arm embedded/4.7 2014q2/bin/../lib/gcc/arm-none-eabi/4.7.4/../../../../arm-none-eabi/lib/armv7e-m\libg.a(lib_a-sprintf.o)
 .debug_frame   0x00005360       0x2c c:/chibistudio/tools/gnu tools arm embedded/4.7 2014q2/bin/../lib/gcc/arm-none-eabi/4.7.4/../../../../arm-none-eabi/lib/armv7e-m\libg.a(lib_a-strcasecmp.o)
 .debug_frame   0x0000538c       0x30 c:/chibistudio/tools/gnu tools arm embedded/4.7 2014q2/bin/../lib/gcc/arm-none-eabi/4.7.4/../../../../arm-none-eabi/lib/armv7e-m\libg.a(lib_a-strcmp.o)
 .debug_frame   0x000053bc       0x20 c:/chibistudio/tools/gnu tools arm embedded/4.7 2014q2/bin/../lib/gcc/arm-none-eabi/4.7.4/../../../../arm-none-eabi/lib/armv7e-m\libg.a(lib_a-strcpy.o)
 .debug_frame   0x000053dc       0x20 c:/chibistudio/tools/gnu tools arm embedded/4.7 2014q2/bin/../lib/gcc/arm-none-eabi/4.7.4/../../../../arm-none-eabi/lib/armv7e-m\libg.a(lib_a-strlen.o)
 .debug_frame   0x000053fc       0x2c c:/chibistudio/tools/gnu tools arm embedded/4.7 2014q2/bin/../lib/gcc/arm-none-eabi/4.7.4/../../../../arm-none-eabi/lib/armv7e-m\libg.a(lib_a-strpbrk.o)
 .debug_frame   0x00005428       0x2c c:/chibistudio/tools/gnu tools arm embedded/4.7 2014q2/bin/../lib/gcc/arm-none-eabi/4.7.4/../../../../arm-none-eabi/lib/armv7e-m\libg.a(lib_a-strspn.o)
 .debug_frame   0x00005454       0x54 c:/chibistudio/tools/gnu tools arm embedded/4.7 2014q2/bin/../lib/gcc/arm-none-eabi/4.7.4/../../../../arm-none-eabi/lib/armv7e-m\libg.a(lib_a-strtol.o)
 .debug_frame   0x000054a8       0x3c c:/chibistudio/tools/gnu tools arm embedded/4.7 2014q2/bin/../lib/gcc/arm-none-eabi/4.7.4/../../../../arm-none-eabi/lib/armv7e-m\libg.a(lib_a-svfprintf.o)
 .debug_frame   0x000054e4       0x30 c:/chibistudio/tools/gnu tools arm embedded/4.7 2014q2/bin/../lib/gcc/arm-none-eabi/4.7.4/../../../../arm-none-eabi/lib/armv7e-m\libg.a(lib_a-tzlock.o)
 .debug_frame   0x00005514       0x28 c:/chibistudio/tools/gnu tools arm embedded/4.7 2014q2/bin/../lib/gcc/arm-none-eabi/4.7.4/../../../../arm-none-eabi/lib/armv7e-m\libg.a(lib_a-div.o)
 .debug_frame   0x0000553c       0x64 c:/chibistudio/tools/gnu tools arm embedded/4.7 2014q2/bin/../lib/gcc/arm-none-eabi/4.7.4/../../../../arm-none-eabi/lib/armv7e-m\libg.a(lib_a-dtoa.o)
 .debug_frame   0x000055a0       0x50 c:/chibistudio/tools/gnu tools arm embedded/4.7 2014q2/bin/../lib/gcc/arm-none-eabi/4.7.4/../../../../arm-none-eabi/lib/armv7e-m\libg.a(lib_a-freer.o)
 .debug_frame   0x000055f0       0x20 c:/chibistudio/tools/gnu tools arm embedded/4.7 2014q2/bin/../lib/gcc/arm-none-eabi/4.7.4/../../../../arm-none-eabi/lib/armv7e-m\libg.a(lib_a-gettzinfo.o)
 .debug_frame   0x00005610       0xa0 c:/chibistudio/tools/gnu tools arm embedded/4.7 2014q2/bin/../lib/gcc/arm-none-eabi/4.7.4/../../../../arm-none-eabi/lib/armv7e-m\libg.a(lib_a-locale.o)
 .debug_frame   0x000056b0       0x38 c:/chibistudio/tools/gnu tools arm embedded/4.7 2014q2/bin/../lib/gcc/arm-none-eabi/4.7.4/../../../../arm-none-eabi/lib/armv7e-m\libg.a(lib_a-mallocr.o)
 .debug_frame   0x000056e8       0x2c c:/chibistudio/tools/gnu tools arm embedded/4.7 2014q2/bin/../lib/gcc/arm-none-eabi/4.7.4/../../../../arm-none-eabi/lib/armv7e-m\libg.a(lib_a-memchr.o)
 .debug_frame   0x00005714       0x30 c:/chibistudio/tools/gnu tools arm embedded/4.7 2014q2/bin/../lib/gcc/arm-none-eabi/4.7.4/../../../../arm-none-eabi/lib/armv7e-m\libg.a(lib_a-mlock.o)
 .debug_frame   0x00005744      0x234 c:/chibistudio/tools/gnu tools arm embedded/4.7 2014q2/bin/../lib/gcc/arm-none-eabi/4.7.4/../../../../arm-none-eabi/lib/armv7e-m\libg.a(lib_a-mprec.o)
 .debug_frame   0x00005978       0x20 c:/chibistudio/tools/gnu tools arm embedded/4.7 2014q2/bin/../lib/gcc/arm-none-eabi/4.7.4/../../../../arm-none-eabi/lib/armv7e-m\libg.a(lib_a-s_fpclassify.o)
 .debug_frame   0x00005998       0x64 c:/chibistudio/tools/gnu tools arm embedded/4.7 2014q2/bin/../lib/gcc/arm-none-eabi/4.7.4/../../../../arm-none-eabi/lib/armv7e-m\libg.a(lib_a-svfiprintf.o)
 .debug_frame   0x000059fc       0x28 c:/chibistudio/tools/gnu tools arm embedded/4.7 2014q2/bin/../lib/gcc/arm-none-eabi/4.7.4/../../../../arm-none-eabi/lib/armv7e-m\libg.a(lib_a-callocr.o)
 .debug_frame   0x00005a24       0x30 c:/chibistudio/tools/gnu tools arm embedded/4.7 2014q2/bin/../lib/gcc/arm-none-eabi/4.7.4/../../../../arm-none-eabi/lib/armv7e-m\libg.a(lib_a-memmove.o)
 .debug_frame   0x00005a54       0x38 c:/chibistudio/tools/gnu tools arm embedded/4.7 2014q2/bin/../lib/gcc/arm-none-eabi/4.7.4/../../../../arm-none-eabi/lib/armv7e-m\libg.a(lib_a-reallocr.o)
 .debug_frame   0x00005a8c       0x50 c:/chibistudio/tools/gnu tools arm embedded/4.7 2014q2/bin/../lib/gcc/arm-none-eabi/4.7.4/armv7e-m\libgcc.a(bpabi.o)
 .debug_frame   0x00005adc       0x34 c:/chibistudio/tools/gnu tools arm embedded/4.7 2014q2/bin/../lib/gcc/arm-none-eabi/4.7.4/armv7e-m\libgcc.a(_divdi3.o)
 .debug_frame   0x00005b10       0x34 c:/chibistudio/tools/gnu tools arm embedded/4.7 2014q2/bin/../lib/gcc/arm-none-eabi/4.7.4/armv7e-m\libgcc.a(_udivdi3.o)

.debug_loc      0x00000000    0x1dabf
 .debug_loc     0x00000000      0x10c build/obj/chcore_v7m.o
 .debug_loc     0x0000010c      0x1ca build/obj/nvic.o
 .debug_loc     0x000002d6       0xe2 build/obj/chsys.o
 .debug_loc     0x000003b8       0xb8 build/obj/chvt.o
 .debug_loc     0x00000470      0x33e build/obj/chschd.o
 .debug_loc     0x000007ae      0x519 build/obj/chthreads.o
 .debug_loc     0x00000cc7      0x2fa build/obj/chdynamic.o
 .debug_loc     0x00000fc1       0xb7 build/obj/chregistry.o
 .debug_loc     0x00001078      0x696 build/obj/chsem.o
 .debug_loc     0x0000170e      0x4c2 build/obj/chmtx.o
 .debug_loc     0x00001bd0      0x47d build/obj/chcond.o
 .debug_loc     0x0000204d      0x905 build/obj/chevents.o
 .debug_loc     0x00002952      0x1b9 build/obj/chmsg.o
 .debug_loc     0x00002b0b      0x68a build/obj/chmboxes.o
 .debug_loc     0x00003195      0x8cf build/obj/chqueues.o
 .debug_loc     0x00003a64      0x114 build/obj/chmemcore.o
 .debug_loc     0x00003b78      0x318 build/obj/chheap.o
 .debug_loc     0x00003e90      0x2d9 build/obj/chmempools.o
 .debug_loc     0x00004169      0x806 build/obj/test.o
 .debug_loc     0x0000496f      0x1dc build/obj/testthd.o
 .debug_loc     0x00004b4b      0x3d3 build/obj/testsem.o
 .debug_loc     0x00004f1e      0x611 build/obj/testmtx.o
 .debug_loc     0x0000552f       0x93 build/obj/testmsg.o
 .debug_loc     0x000055c2      0x61a build/obj/testmbox.o
 .debug_loc     0x00005bdc      0x2ef build/obj/testevt.o
 .debug_loc     0x00005ecb      0x1c4 build/obj/testheap.o
 .debug_loc     0x0000608f      0x129 build/obj/testpools.o
 .debug_loc     0x000061b8      0x20f build/obj/testdyn.o
 .debug_loc     0x000063c7      0x841 build/obj/testqueues.o
 .debug_loc     0x00006c08      0x5ab build/obj/testbmk.o
 .debug_loc     0x000071b3       0xa7 build/obj/hal.o
 .debug_loc     0x0000725a      0x523 build/obj/adc.o
 .debug_loc     0x0000777d      0x44e build/obj/can.o
 .debug_loc     0x00007bcb      0x327 build/obj/i2c.o
 .debug_loc     0x00007ef2      0x1b1 build/obj/icu.o
 .debug_loc     0x000080a3      0x206 build/obj/mmcsd.o
 .debug_loc     0x000082a9      0x28f build/obj/pwm.o
 .debug_loc     0x00008538      0x283 build/obj/rtc.o
 .debug_loc     0x000087bb      0x5d0 build/obj/sdc.o
 .debug_loc     0x00008d8b      0x587 build/obj/serial.o
 .debug_loc     0x00009312      0x92a build/obj/serial_usb.o
 .debug_loc     0x00009c3c      0x793 build/obj/spi.o
 .debug_loc     0x0000a3cf       0xb9 build/obj/tm.o
 .debug_loc     0x0000a488      0xd0f build/obj/usb.o
 .debug_loc     0x0000b197      0x58a build/obj/stm32_dma.o
 .debug_loc     0x0000b721       0x20 build/obj/hal_lld.o
 .debug_loc     0x0000b741      0x44a build/obj/adc_lld.o
 .debug_loc     0x0000bb8b      0x853 build/obj/can_lld.o
 .debug_loc     0x0000c3de      0xd1c build/obj/sdc_lld.o
 .debug_loc     0x0000d0fa      0x2e7 build/obj/pal_lld.o
 .debug_loc     0x0000d3e1      0x931 build/obj/i2c_lld.o
 .debug_loc     0x0000dd12     0x13ed build/obj/usb_lld.o
 .debug_loc     0x0000f0ff      0x4d8 build/obj/rtc_lld.o
 .debug_loc     0x0000f5d7      0x44e build/obj/spi_lld.o
 .debug_loc     0x0000fa25      0x1c1 build/obj/icu_lld.o
 .debug_loc     0x0000fbe6      0x34f build/obj/pwm_lld.o
 .debug_loc     0x0000ff35      0x3a6 build/obj/serial_lld.o
 .debug_loc     0x000102db      0x3d0 build/obj/fatfs_diskio.o
 .debug_loc     0x000106ab       0x4d build/obj/fatfs_syscall.o
 .debug_loc     0x000106f8     0x9031 build/obj/ff.o
 .debug_loc     0x00019729      0x12d build/obj/ccsbcs.o
 .debug_loc     0x00019856      0x34c build/obj/syscalls.o
 .debug_loc     0x00019ba2      0x880 build/obj/shell.o
 .debug_loc     0x0001a422      0x908 build/obj/chprintf.o
 .debug_loc     0x0001ad2a      0x342 build/obj/chrtclib.o
 .debug_loc     0x0001b06c       0xae build/obj/main.o
 .debug_loc     0x0001b11a      0x78c build/obj/console.o
 .debug_loc     0x0001b8a6      0xa48 build/obj/sdcard.o
 .debug_loc     0x0001c2ee      0x324 build/obj/can_comm.o
 .debug_loc     0x0001c612      0x11a build/obj/light.o
 .debug_loc     0x0001c72c      0x25e build/obj/speed.o
 .debug_loc     0x0001c98a      0x872 build/obj/meas.o
 .debug_loc     0x0001d1fc      0x34e build/obj/cruise.o
 .debug_loc     0x0001d54a      0x19a build/obj/dsp.o
 .debug_loc     0x0001d6e4      0x3db build/obj/gfx.o

Cross Reference Table

Symbol                                            File
ADCD2                                             build/obj/adc_lld.o
                                                  build/obj/meas.o
BusFaultVector                                    build/obj/vectors.o
CAND1                                             build/obj/can_lld.o
                                                  build/obj/can_comm.o
DebugMonitorVector                                build/obj/vectors.o
HardFaultVector                                   build/obj/vectors.o
I2CD1                                             build/obj/i2c_lld.o
ICUD1                                             build/obj/icu_lld.o
                                                  build/obj/speed.o
MemManageVector                                   build/obj/vectors.o
NMIVector                                         build/obj/vectors.o
PWMD4                                             build/obj/pwm_lld.o
                                                  build/obj/light.o
PWMD5                                             build/obj/pwm_lld.o
                                                  build/obj/cruise.o
PendSVVector                                      build/obj/vectors.o
RTCD1                                             build/obj/rtc_lld.o
                                                  build/obj/console.o
                                                  build/obj/fatfs_diskio.o
ResetHandler                                      build/obj/crt0.o
                                                  build/obj/vectors.o
SD1                                               build/obj/serial_lld.o
                                                  build/obj/console.o
                                                  build/obj/syscalls.o
SD2                                               build/obj/serial_lld.o
                                                  build/obj/uart_comm.o
                                                  build/obj/gfx.o
SDCD1                                             build/obj/sdc_lld.o
                                                  build/obj/sdcard.o
                                                  build/obj/fatfs_diskio.o
SPID2                                             build/obj/spi_lld.o
SVCallVector                                      build/obj/chcore_v7m.o
                                                  build/obj/vectors.o
SysTickVector                                     build/obj/chcore_v7m.o
                                                  build/obj/vectors.o
TestThread                                        build/obj/test.o
                                                  build/obj/console.o
USBD1                                             build/obj/usb_lld.o
UsageFaultVector                                  build/obj/vectors.o
Vector100                                         build/obj/vectors.o
Vector104                                         build/obj/sdc_lld.o
                                                  build/obj/vectors.o
Vector108                                         build/obj/pwm_lld.o
                                                  build/obj/vectors.o
Vector10C                                         build/obj/vectors.o
Vector110                                         build/obj/vectors.o
Vector114                                         build/obj/vectors.o
Vector118                                         build/obj/vectors.o
Vector11C                                         build/obj/vectors.o
Vector120                                         build/obj/stm32_dma.o
                                                  build/obj/vectors.o
Vector124                                         build/obj/stm32_dma.o
                                                  build/obj/vectors.o
Vector128                                         build/obj/stm32_dma.o
                                                  build/obj/vectors.o
Vector12C                                         build/obj/stm32_dma.o
                                                  build/obj/vectors.o
Vector130                                         build/obj/stm32_dma.o
                                                  build/obj/vectors.o
Vector134                                         build/obj/vectors.o
Vector138                                         build/obj/vectors.o
Vector13C                                         build/obj/vectors.o
Vector140                                         build/obj/vectors.o
Vector144                                         build/obj/vectors.o
Vector148                                         build/obj/vectors.o
Vector14C                                         build/obj/usb_lld.o
                                                  build/obj/vectors.o
Vector150                                         build/obj/stm32_dma.o
                                                  build/obj/vectors.o
Vector154                                         build/obj/stm32_dma.o
                                                  build/obj/vectors.o
Vector158                                         build/obj/stm32_dma.o
                                                  build/obj/vectors.o
Vector15C                                         build/obj/vectors.o
Vector160                                         build/obj/vectors.o
Vector164                                         build/obj/vectors.o
Vector168                                         build/obj/vectors.o
Vector16C                                         build/obj/vectors.o
Vector170                                         build/obj/vectors.o
Vector174                                         build/obj/vectors.o
Vector178                                         build/obj/vectors.o
Vector17C                                         build/obj/vectors.o
Vector180                                         build/obj/vectors.o
Vector184                                         build/obj/vectors.o
Vector188                                         build/obj/vectors.o
Vector18C                                         build/obj/vectors.o
Vector190                                         build/obj/vectors.o
Vector194                                         build/obj/vectors.o
Vector198                                         build/obj/vectors.o
Vector19C                                         build/obj/vectors.o
Vector1A0                                         build/obj/vectors.o
Vector1A4                                         build/obj/vectors.o
Vector1A8                                         build/obj/vectors.o
Vector1C                                          build/obj/vectors.o
Vector20                                          build/obj/vectors.o
Vector24                                          build/obj/vectors.o
Vector28                                          build/obj/vectors.o
Vector34                                          build/obj/vectors.o
Vector40                                          build/obj/vectors.o
Vector44                                          build/obj/vectors.o
Vector48                                          build/obj/vectors.o
Vector4C                                          build/obj/vectors.o
Vector50                                          build/obj/vectors.o
Vector54                                          build/obj/vectors.o
Vector58                                          build/obj/vectors.o
Vector5C                                          build/obj/vectors.o
Vector60                                          build/obj/vectors.o
Vector64                                          build/obj/vectors.o
Vector68                                          build/obj/vectors.o
Vector6C                                          build/obj/stm32_dma.o
                                                  build/obj/vectors.o
Vector70                                          build/obj/stm32_dma.o
                                                  build/obj/vectors.o
Vector74                                          build/obj/stm32_dma.o
                                                  build/obj/vectors.o
Vector78                                          build/obj/stm32_dma.o
                                                  build/obj/vectors.o
Vector7C                                          build/obj/stm32_dma.o
                                                  build/obj/vectors.o
Vector80                                          build/obj/stm32_dma.o
                                                  build/obj/vectors.o
Vector84                                          build/obj/stm32_dma.o
                                                  build/obj/vectors.o
Vector88                                          build/obj/adc_lld.o
                                                  build/obj/vectors.o
Vector8C                                          build/obj/can_lld.o
                                                  build/obj/vectors.o
Vector90                                          build/obj/can_lld.o
                                                  build/obj/vectors.o
Vector94                                          build/obj/can_lld.o
                                                  build/obj/vectors.o
Vector98                                          build/obj/can_lld.o
                                                  build/obj/vectors.o
Vector9C                                          build/obj/vectors.o
VectorA0                                          build/obj/vectors.o
VectorA4                                          build/obj/icu_lld.o
                                                  build/obj/vectors.o
VectorA8                                          build/obj/vectors.o
VectorAC                                          build/obj/icu_lld.o
                                                  build/obj/vectors.o
VectorB0                                          build/obj/vectors.o
VectorB4                                          build/obj/vectors.o
VectorB8                                          build/obj/pwm_lld.o
                                                  build/obj/vectors.o
VectorBC                                          build/obj/i2c_lld.o
                                                  build/obj/vectors.o
VectorC0                                          build/obj/i2c_lld.o
                                                  build/obj/vectors.o
VectorC4                                          build/obj/vectors.o
VectorC8                                          build/obj/vectors.o
VectorCC                                          build/obj/vectors.o
VectorD0                                          build/obj/vectors.o
VectorD4                                          build/obj/serial_lld.o
                                                  build/obj/vectors.o
VectorD8                                          build/obj/serial_lld.o
                                                  build/obj/vectors.o
VectorDC                                          build/obj/vectors.o
VectorE0                                          build/obj/vectors.o
VectorE4                                          build/obj/vectors.o
VectorE8                                          build/obj/vectors.o
VectorEC                                          build/obj/vectors.o
VectorF0                                          build/obj/vectors.o
VectorF4                                          build/obj/vectors.o
VectorF8                                          build/obj/vectors.o
VectorFC                                          build/obj/stm32_dma.o
                                                  build/obj/vectors.o
WriteChars                                        build/obj/gfx.o
_Balloc                                           c:/chibistudio/tools/gnu tools arm embedded/4.7 2014q2/bin/../lib/gcc/arm-none-eabi/4.7.4/../../../../arm-none-eabi/lib/armv7e-m\libg.a(lib_a-mprec.o)
                                                  c:/chibistudio/tools/gnu tools arm embedded/4.7 2014q2/bin/../lib/gcc/arm-none-eabi/4.7.4/../../../../arm-none-eabi/lib/armv7e-m\libg.a(lib_a-dtoa.o)
_Bfree                                            c:/chibistudio/tools/gnu tools arm embedded/4.7 2014q2/bin/../lib/gcc/arm-none-eabi/4.7.4/../../../../arm-none-eabi/lib/armv7e-m\libg.a(lib_a-mprec.o)
                                                  c:/chibistudio/tools/gnu tools arm embedded/4.7 2014q2/bin/../lib/gcc/arm-none-eabi/4.7.4/../../../../arm-none-eabi/lib/armv7e-m\libg.a(lib_a-dtoa.o)
_PathLocale                                       c:/chibistudio/tools/gnu tools arm embedded/4.7 2014q2/bin/../lib/gcc/arm-none-eabi/4.7.4/../../../../arm-none-eabi/lib/armv7e-m\libg.a(lib_a-locale.o)
__adddf3                                          c:/chibistudio/tools/gnu tools arm embedded/4.7 2014q2/bin/../lib/gcc/arm-none-eabi/4.7.4/armv7e-m\libgcc.a(_arm_addsubdf3.o)
__aeabi_cdcmpeq                                   c:/chibistudio/tools/gnu tools arm embedded/4.7 2014q2/bin/../lib/gcc/arm-none-eabi/4.7.4/armv7e-m\libgcc.a(_arm_cmpdf2.o)
__aeabi_cdcmple                                   c:/chibistudio/tools/gnu tools arm embedded/4.7 2014q2/bin/../lib/gcc/arm-none-eabi/4.7.4/armv7e-m\libgcc.a(_arm_cmpdf2.o)
__aeabi_cdrcmple                                  c:/chibistudio/tools/gnu tools arm embedded/4.7 2014q2/bin/../lib/gcc/arm-none-eabi/4.7.4/armv7e-m\libgcc.a(_arm_cmpdf2.o)
__aeabi_d2iz                                      c:/chibistudio/tools/gnu tools arm embedded/4.7 2014q2/bin/../lib/gcc/arm-none-eabi/4.7.4/armv7e-m\libgcc.a(_arm_fixdfsi.o)
                                                  c:/chibistudio/tools/gnu tools arm embedded/4.7 2014q2/bin/../lib/gcc/arm-none-eabi/4.7.4/../../../../arm-none-eabi/lib/armv7e-m\libg.a(lib_a-dtoa.o)
                                                  build/obj/cruise.o
__aeabi_d2uiz                                     c:/chibistudio/tools/gnu tools arm embedded/4.7 2014q2/bin/../lib/gcc/arm-none-eabi/4.7.4/armv7e-m\libgcc.a(_arm_fixunsdfsi.o)
                                                  build/obj/speed.o
__aeabi_dadd                                      c:/chibistudio/tools/gnu tools arm embedded/4.7 2014q2/bin/../lib/gcc/arm-none-eabi/4.7.4/armv7e-m\libgcc.a(_arm_addsubdf3.o)
                                                  c:/chibistudio/tools/gnu tools arm embedded/4.7 2014q2/bin/../lib/gcc/arm-none-eabi/4.7.4/../../../../arm-none-eabi/lib/armv7e-m\libg.a(lib_a-dtoa.o)
                                                  build/obj/cruise.o
                                                  build/obj/speed.o
__aeabi_dcmpeq                                    c:/chibistudio/tools/gnu tools arm embedded/4.7 2014q2/bin/../lib/gcc/arm-none-eabi/4.7.4/armv7e-m\libgcc.a(_arm_cmpdf2.o)
                                                  c:/chibistudio/tools/gnu tools arm embedded/4.7 2014q2/bin/../lib/gcc/arm-none-eabi/4.7.4/../../../../arm-none-eabi/lib/armv7e-m\libg.a(lib_a-dtoa.o)
                                                  c:/chibistudio/tools/gnu tools arm embedded/4.7 2014q2/bin/../lib/gcc/arm-none-eabi/4.7.4/../../../../arm-none-eabi/lib/armv7e-m\libg.a(lib_a-svfprintf.o)
__aeabi_dcmpge                                    c:/chibistudio/tools/gnu tools arm embedded/4.7 2014q2/bin/../lib/gcc/arm-none-eabi/4.7.4/armv7e-m\libgcc.a(_arm_cmpdf2.o)
                                                  c:/chibistudio/tools/gnu tools arm embedded/4.7 2014q2/bin/../lib/gcc/arm-none-eabi/4.7.4/../../../../arm-none-eabi/lib/armv7e-m\libg.a(lib_a-dtoa.o)
__aeabi_dcmpgt                                    c:/chibistudio/tools/gnu tools arm embedded/4.7 2014q2/bin/../lib/gcc/arm-none-eabi/4.7.4/armv7e-m\libgcc.a(_arm_cmpdf2.o)
                                                  c:/chibistudio/tools/gnu tools arm embedded/4.7 2014q2/bin/../lib/gcc/arm-none-eabi/4.7.4/../../../../arm-none-eabi/lib/armv7e-m\libg.a(lib_a-dtoa.o)
                                                  build/obj/cruise.o
__aeabi_dcmple                                    c:/chibistudio/tools/gnu tools arm embedded/4.7 2014q2/bin/../lib/gcc/arm-none-eabi/4.7.4/armv7e-m\libgcc.a(_arm_cmpdf2.o)
__aeabi_dcmplt                                    c:/chibistudio/tools/gnu tools arm embedded/4.7 2014q2/bin/../lib/gcc/arm-none-eabi/4.7.4/armv7e-m\libgcc.a(_arm_cmpdf2.o)
                                                  c:/chibistudio/tools/gnu tools arm embedded/4.7 2014q2/bin/../lib/gcc/arm-none-eabi/4.7.4/../../../../arm-none-eabi/lib/armv7e-m\libg.a(lib_a-dtoa.o)
                                                  c:/chibistudio/tools/gnu tools arm embedded/4.7 2014q2/bin/../lib/gcc/arm-none-eabi/4.7.4/../../../../arm-none-eabi/lib/armv7e-m\libg.a(lib_a-svfprintf.o)
                                                  build/obj/cruise.o
                                                  build/obj/speed.o
__aeabi_ddiv                                      c:/chibistudio/tools/gnu tools arm embedded/4.7 2014q2/bin/../lib/gcc/arm-none-eabi/4.7.4/armv7e-m\libgcc.a(_arm_muldivdf3.o)
                                                  c:/chibistudio/tools/gnu tools arm embedded/4.7 2014q2/bin/../lib/gcc/arm-none-eabi/4.7.4/../../../../arm-none-eabi/lib/armv7e-m\libg.a(lib_a-mprec.o)
                                                  c:/chibistudio/tools/gnu tools arm embedded/4.7 2014q2/bin/../lib/gcc/arm-none-eabi/4.7.4/../../../../arm-none-eabi/lib/armv7e-m\libg.a(lib_a-dtoa.o)
                                                  build/obj/speed.o
__aeabi_dmul                                      c:/chibistudio/tools/gnu tools arm embedded/4.7 2014q2/bin/../lib/gcc/arm-none-eabi/4.7.4/armv7e-m\libgcc.a(_arm_muldivdf3.o)
                                                  c:/chibistudio/tools/gnu tools arm embedded/4.7 2014q2/bin/../lib/gcc/arm-none-eabi/4.7.4/../../../../arm-none-eabi/lib/armv7e-m\libg.a(lib_a-mprec.o)
                                                  c:/chibistudio/tools/gnu tools arm embedded/4.7 2014q2/bin/../lib/gcc/arm-none-eabi/4.7.4/../../../../arm-none-eabi/lib/armv7e-m\libg.a(lib_a-dtoa.o)
                                                  build/obj/cruise.o
__aeabi_drsub                                     c:/chibistudio/tools/gnu tools arm embedded/4.7 2014q2/bin/../lib/gcc/arm-none-eabi/4.7.4/armv7e-m\libgcc.a(_arm_addsubdf3.o)
__aeabi_dsub                                      c:/chibistudio/tools/gnu tools arm embedded/4.7 2014q2/bin/../lib/gcc/arm-none-eabi/4.7.4/armv7e-m\libgcc.a(_arm_addsubdf3.o)
                                                  c:/chibistudio/tools/gnu tools arm embedded/4.7 2014q2/bin/../lib/gcc/arm-none-eabi/4.7.4/../../../../arm-none-eabi/lib/armv7e-m\libg.a(lib_a-dtoa.o)
                                                  build/obj/cruise.o
__aeabi_f2d                                       c:/chibistudio/tools/gnu tools arm embedded/4.7 2014q2/bin/../lib/gcc/arm-none-eabi/4.7.4/armv7e-m\libgcc.a(_arm_addsubdf3.o)
__aeabi_i2d                                       c:/chibistudio/tools/gnu tools arm embedded/4.7 2014q2/bin/../lib/gcc/arm-none-eabi/4.7.4/armv7e-m\libgcc.a(_arm_addsubdf3.o)
                                                  c:/chibistudio/tools/gnu tools arm embedded/4.7 2014q2/bin/../lib/gcc/arm-none-eabi/4.7.4/../../../../arm-none-eabi/lib/armv7e-m\libg.a(lib_a-dtoa.o)
                                                  build/obj/cruise.o
__aeabi_idiv0                                     c:/chibistudio/tools/gnu tools arm embedded/4.7 2014q2/bin/../lib/gcc/arm-none-eabi/4.7.4/armv7e-m\libgcc.a(_dvmd_tls.o)
__aeabi_l2d                                       c:/chibistudio/tools/gnu tools arm embedded/4.7 2014q2/bin/../lib/gcc/arm-none-eabi/4.7.4/armv7e-m\libgcc.a(_arm_addsubdf3.o)
__aeabi_ldiv0                                     c:/chibistudio/tools/gnu tools arm embedded/4.7 2014q2/bin/../lib/gcc/arm-none-eabi/4.7.4/armv7e-m\libgcc.a(_dvmd_tls.o)
                                                  c:/chibistudio/tools/gnu tools arm embedded/4.7 2014q2/bin/../lib/gcc/arm-none-eabi/4.7.4/armv7e-m\libgcc.a(_aeabi_uldivmod.o)
__aeabi_ui2d                                      c:/chibistudio/tools/gnu tools arm embedded/4.7 2014q2/bin/../lib/gcc/arm-none-eabi/4.7.4/armv7e-m\libgcc.a(_arm_addsubdf3.o)
                                                  c:/chibistudio/tools/gnu tools arm embedded/4.7 2014q2/bin/../lib/gcc/arm-none-eabi/4.7.4/../../../../arm-none-eabi/lib/armv7e-m\libg.a(lib_a-dtoa.o)
                                                  build/obj/speed.o
__aeabi_ul2d                                      c:/chibistudio/tools/gnu tools arm embedded/4.7 2014q2/bin/../lib/gcc/arm-none-eabi/4.7.4/armv7e-m\libgcc.a(_arm_addsubdf3.o)
__aeabi_uldivmod                                  c:/chibistudio/tools/gnu tools arm embedded/4.7 2014q2/bin/../lib/gcc/arm-none-eabi/4.7.4/armv7e-m\libgcc.a(_aeabi_uldivmod.o)
                                                  c:/chibistudio/tools/gnu tools arm embedded/4.7 2014q2/bin/../lib/gcc/arm-none-eabi/4.7.4/../../../../arm-none-eabi/lib/armv7e-m\libg.a(lib_a-svfiprintf.o)
                                                  c:/chibistudio/tools/gnu tools arm embedded/4.7 2014q2/bin/../lib/gcc/arm-none-eabi/4.7.4/../../../../arm-none-eabi/lib/armv7e-m\libg.a(lib_a-svfprintf.o)
__any_on                                          c:/chibistudio/tools/gnu tools arm embedded/4.7 2014q2/bin/../lib/gcc/arm-none-eabi/4.7.4/../../../../arm-none-eabi/lib/armv7e-m\libg.a(lib_a-mprec.o)
__b2d                                             c:/chibistudio/tools/gnu tools arm embedded/4.7 2014q2/bin/../lib/gcc/arm-none-eabi/4.7.4/../../../../arm-none-eabi/lib/armv7e-m\libg.a(lib_a-mprec.o)
__cmpdf2                                          c:/chibistudio/tools/gnu tools arm embedded/4.7 2014q2/bin/../lib/gcc/arm-none-eabi/4.7.4/armv7e-m\libgcc.a(_arm_cmpdf2.o)
__copybits                                        c:/chibistudio/tools/gnu tools arm embedded/4.7 2014q2/bin/../lib/gcc/arm-none-eabi/4.7.4/../../../../arm-none-eabi/lib/armv7e-m\libg.a(lib_a-mprec.o)
__ctype_ptr__                                     c:/chibistudio/tools/gnu tools arm embedded/4.7 2014q2/bin/../lib/gcc/arm-none-eabi/4.7.4/../../../../arm-none-eabi/lib/armv7e-m\libg.a(lib_a-ctype_.o)
                                                  c:/chibistudio/tools/gnu tools arm embedded/4.7 2014q2/bin/../lib/gcc/arm-none-eabi/4.7.4/../../../../arm-none-eabi/lib/armv7e-m\libg.a(lib_a-strtol.o)
                                                  c:/chibistudio/tools/gnu tools arm embedded/4.7 2014q2/bin/../lib/gcc/arm-none-eabi/4.7.4/../../../../arm-none-eabi/lib/armv7e-m\libg.a(lib_a-strcasecmp.o)
__d2b                                             c:/chibistudio/tools/gnu tools arm embedded/4.7 2014q2/bin/../lib/gcc/arm-none-eabi/4.7.4/../../../../arm-none-eabi/lib/armv7e-m\libg.a(lib_a-mprec.o)
                                                  c:/chibistudio/tools/gnu tools arm embedded/4.7 2014q2/bin/../lib/gcc/arm-none-eabi/4.7.4/../../../../arm-none-eabi/lib/armv7e-m\libg.a(lib_a-dtoa.o)
__divdf3                                          c:/chibistudio/tools/gnu tools arm embedded/4.7 2014q2/bin/../lib/gcc/arm-none-eabi/4.7.4/armv7e-m\libgcc.a(_arm_muldivdf3.o)
__divdi3                                          c:/chibistudio/tools/gnu tools arm embedded/4.7 2014q2/bin/../lib/gcc/arm-none-eabi/4.7.4/armv7e-m\libgcc.a(_divdi3.o)
                                                  c:/chibistudio/tools/gnu tools arm embedded/4.7 2014q2/bin/../lib/gcc/arm-none-eabi/4.7.4/armv7e-m\libgcc.a(bpabi.o)
__early_init                                      build/obj/board.o
                                                  build/obj/crt0.o
__eqdf2                                           c:/chibistudio/tools/gnu tools arm embedded/4.7 2014q2/bin/../lib/gcc/arm-none-eabi/4.7.4/armv7e-m\libgcc.a(_arm_cmpdf2.o)
__extendsfdf2                                     c:/chibistudio/tools/gnu tools arm embedded/4.7 2014q2/bin/../lib/gcc/arm-none-eabi/4.7.4/armv7e-m\libgcc.a(_arm_addsubdf3.o)
__fini_array_end                                  build/obj/crt0.o
__fini_array_start                                build/obj/crt0.o
__fixdfsi                                         c:/chibistudio/tools/gnu tools arm embedded/4.7 2014q2/bin/../lib/gcc/arm-none-eabi/4.7.4/armv7e-m\libgcc.a(_arm_fixdfsi.o)
__fixunsdfsi                                      c:/chibistudio/tools/gnu tools arm embedded/4.7 2014q2/bin/../lib/gcc/arm-none-eabi/4.7.4/armv7e-m\libgcc.a(_arm_fixunsdfsi.o)
__floatdidf                                       c:/chibistudio/tools/gnu tools arm embedded/4.7 2014q2/bin/../lib/gcc/arm-none-eabi/4.7.4/armv7e-m\libgcc.a(_arm_addsubdf3.o)
__floatsidf                                       c:/chibistudio/tools/gnu tools arm embedded/4.7 2014q2/bin/../lib/gcc/arm-none-eabi/4.7.4/armv7e-m\libgcc.a(_arm_addsubdf3.o)
__floatundidf                                     c:/chibistudio/tools/gnu tools arm embedded/4.7 2014q2/bin/../lib/gcc/arm-none-eabi/4.7.4/armv7e-m\libgcc.a(_arm_addsubdf3.o)
__floatunsidf                                     c:/chibistudio/tools/gnu tools arm embedded/4.7 2014q2/bin/../lib/gcc/arm-none-eabi/4.7.4/armv7e-m\libgcc.a(_arm_addsubdf3.o)
__fpclassifyd                                     c:/chibistudio/tools/gnu tools arm embedded/4.7 2014q2/bin/../lib/gcc/arm-none-eabi/4.7.4/../../../../arm-none-eabi/lib/armv7e-m\libg.a(lib_a-s_fpclassify.o)
                                                  c:/chibistudio/tools/gnu tools arm embedded/4.7 2014q2/bin/../lib/gcc/arm-none-eabi/4.7.4/../../../../arm-none-eabi/lib/armv7e-m\libg.a(lib_a-svfprintf.o)
__gedf2                                           c:/chibistudio/tools/gnu tools arm embedded/4.7 2014q2/bin/../lib/gcc/arm-none-eabi/4.7.4/armv7e-m\libgcc.a(_arm_cmpdf2.o)
__gettzinfo                                       c:/chibistudio/tools/gnu tools arm embedded/4.7 2014q2/bin/../lib/gcc/arm-none-eabi/4.7.4/../../../../arm-none-eabi/lib/armv7e-m\libg.a(lib_a-gettzinfo.o)
                                                  c:/chibistudio/tools/gnu tools arm embedded/4.7 2014q2/bin/../lib/gcc/arm-none-eabi/4.7.4/../../../../arm-none-eabi/lib/armv7e-m\libg.a(lib_a-mktm_r.o)
                                                  c:/chibistudio/tools/gnu tools arm embedded/4.7 2014q2/bin/../lib/gcc/arm-none-eabi/4.7.4/../../../../arm-none-eabi/lib/armv7e-m\libg.a(lib_a-mktime.o)
__gnu_ldivmod_helper                              c:/chibistudio/tools/gnu tools arm embedded/4.7 2014q2/bin/../lib/gcc/arm-none-eabi/4.7.4/armv7e-m\libgcc.a(bpabi.o)
__gnu_uldivmod_helper                             c:/chibistudio/tools/gnu tools arm embedded/4.7 2014q2/bin/../lib/gcc/arm-none-eabi/4.7.4/armv7e-m\libgcc.a(bpabi.o)
                                                  c:/chibistudio/tools/gnu tools arm embedded/4.7 2014q2/bin/../lib/gcc/arm-none-eabi/4.7.4/armv7e-m\libgcc.a(_aeabi_uldivmod.o)
__gtdf2                                           c:/chibistudio/tools/gnu tools arm embedded/4.7 2014q2/bin/../lib/gcc/arm-none-eabi/4.7.4/armv7e-m\libgcc.a(_arm_cmpdf2.o)
__heap_base__                                     build/obj/chmemcore.o
__heap_end__                                      build/obj/chmemcore.o
__hi0bits                                         c:/chibistudio/tools/gnu tools arm embedded/4.7 2014q2/bin/../lib/gcc/arm-none-eabi/4.7.4/../../../../arm-none-eabi/lib/armv7e-m\libg.a(lib_a-mprec.o)
                                                  c:/chibistudio/tools/gnu tools arm embedded/4.7 2014q2/bin/../lib/gcc/arm-none-eabi/4.7.4/../../../../arm-none-eabi/lib/armv7e-m\libg.a(lib_a-dtoa.o)
__i2b                                             c:/chibistudio/tools/gnu tools arm embedded/4.7 2014q2/bin/../lib/gcc/arm-none-eabi/4.7.4/../../../../arm-none-eabi/lib/armv7e-m\libg.a(lib_a-mprec.o)
                                                  c:/chibistudio/tools/gnu tools arm embedded/4.7 2014q2/bin/../lib/gcc/arm-none-eabi/4.7.4/../../../../arm-none-eabi/lib/armv7e-m\libg.a(lib_a-dtoa.o)
__init_array_end                                  build/obj/crt0.o
__init_array_start                                build/obj/crt0.o
__late_init                                       build/obj/crt0.o
__ledf2                                           c:/chibistudio/tools/gnu tools arm embedded/4.7 2014q2/bin/../lib/gcc/arm-none-eabi/4.7.4/armv7e-m\libgcc.a(_arm_cmpdf2.o)
__lo0bits                                         c:/chibistudio/tools/gnu tools arm embedded/4.7 2014q2/bin/../lib/gcc/arm-none-eabi/4.7.4/../../../../arm-none-eabi/lib/armv7e-m\libg.a(lib_a-mprec.o)
__locale_charset                                  c:/chibistudio/tools/gnu tools arm embedded/4.7 2014q2/bin/../lib/gcc/arm-none-eabi/4.7.4/../../../../arm-none-eabi/lib/armv7e-m\libg.a(lib_a-locale.o)
__locale_cjk_lang                                 c:/chibistudio/tools/gnu tools arm embedded/4.7 2014q2/bin/../lib/gcc/arm-none-eabi/4.7.4/../../../../arm-none-eabi/lib/armv7e-m\libg.a(lib_a-locale.o)
__locale_mb_cur_max                               c:/chibistudio/tools/gnu tools arm embedded/4.7 2014q2/bin/../lib/gcc/arm-none-eabi/4.7.4/../../../../arm-none-eabi/lib/armv7e-m\libg.a(lib_a-locale.o)
__locale_msgcharset                               c:/chibistudio/tools/gnu tools arm embedded/4.7 2014q2/bin/../lib/gcc/arm-none-eabi/4.7.4/../../../../arm-none-eabi/lib/armv7e-m\libg.a(lib_a-locale.o)
__lshift                                          c:/chibistudio/tools/gnu tools arm embedded/4.7 2014q2/bin/../lib/gcc/arm-none-eabi/4.7.4/../../../../arm-none-eabi/lib/armv7e-m\libg.a(lib_a-mprec.o)
                                                  c:/chibistudio/tools/gnu tools arm embedded/4.7 2014q2/bin/../lib/gcc/arm-none-eabi/4.7.4/../../../../arm-none-eabi/lib/armv7e-m\libg.a(lib_a-dtoa.o)
__ltdf2                                           c:/chibistudio/tools/gnu tools arm embedded/4.7 2014q2/bin/../lib/gcc/arm-none-eabi/4.7.4/armv7e-m\libgcc.a(_arm_cmpdf2.o)
__main_stack_base__                               build/obj/crt0.o
__main_stack_end__                                build/obj/vectors.o
                                                  build/obj/crt0.o
__malloc_av_                                      c:/chibistudio/tools/gnu tools arm embedded/4.7 2014q2/bin/../lib/gcc/arm-none-eabi/4.7.4/../../../../arm-none-eabi/lib/armv7e-m\libg.a(lib_a-mallocr.o)
                                                  c:/chibistudio/tools/gnu tools arm embedded/4.7 2014q2/bin/../lib/gcc/arm-none-eabi/4.7.4/../../../../arm-none-eabi/lib/armv7e-m\libg.a(lib_a-reallocr.o)
                                                  c:/chibistudio/tools/gnu tools arm embedded/4.7 2014q2/bin/../lib/gcc/arm-none-eabi/4.7.4/../../../../arm-none-eabi/lib/armv7e-m\libg.a(lib_a-freer.o)
__malloc_current_mallinfo                         c:/chibistudio/tools/gnu tools arm embedded/4.7 2014q2/bin/../lib/gcc/arm-none-eabi/4.7.4/../../../../arm-none-eabi/lib/armv7e-m\libg.a(lib_a-mallocr.o)
                                                  c:/chibistudio/tools/gnu tools arm embedded/4.7 2014q2/bin/../lib/gcc/arm-none-eabi/4.7.4/../../../../arm-none-eabi/lib/armv7e-m\libg.a(lib_a-freer.o)
__malloc_lock                                     c:/chibistudio/tools/gnu tools arm embedded/4.7 2014q2/bin/../lib/gcc/arm-none-eabi/4.7.4/../../../../arm-none-eabi/lib/armv7e-m\libg.a(lib_a-mlock.o)
                                                  c:/chibistudio/tools/gnu tools arm embedded/4.7 2014q2/bin/../lib/gcc/arm-none-eabi/4.7.4/../../../../arm-none-eabi/lib/armv7e-m\libg.a(lib_a-reallocr.o)
                                                  c:/chibistudio/tools/gnu tools arm embedded/4.7 2014q2/bin/../lib/gcc/arm-none-eabi/4.7.4/../../../../arm-none-eabi/lib/armv7e-m\libg.a(lib_a-mallocr.o)
                                                  c:/chibistudio/tools/gnu tools arm embedded/4.7 2014q2/bin/../lib/gcc/arm-none-eabi/4.7.4/../../../../arm-none-eabi/lib/armv7e-m\libg.a(lib_a-freer.o)
__malloc_max_sbrked_mem                           c:/chibistudio/tools/gnu tools arm embedded/4.7 2014q2/bin/../lib/gcc/arm-none-eabi/4.7.4/../../../../arm-none-eabi/lib/armv7e-m\libg.a(lib_a-mallocr.o)
__malloc_max_total_mem                            c:/chibistudio/tools/gnu tools arm embedded/4.7 2014q2/bin/../lib/gcc/arm-none-eabi/4.7.4/../../../../arm-none-eabi/lib/armv7e-m\libg.a(lib_a-mallocr.o)
__malloc_sbrk_base                                c:/chibistudio/tools/gnu tools arm embedded/4.7 2014q2/bin/../lib/gcc/arm-none-eabi/4.7.4/../../../../arm-none-eabi/lib/armv7e-m\libg.a(lib_a-mallocr.o)
                                                  c:/chibistudio/tools/gnu tools arm embedded/4.7 2014q2/bin/../lib/gcc/arm-none-eabi/4.7.4/../../../../arm-none-eabi/lib/armv7e-m\libg.a(lib_a-freer.o)
__malloc_top_pad                                  c:/chibistudio/tools/gnu tools arm embedded/4.7 2014q2/bin/../lib/gcc/arm-none-eabi/4.7.4/../../../../arm-none-eabi/lib/armv7e-m\libg.a(lib_a-mallocr.o)
                                                  c:/chibistudio/tools/gnu tools arm embedded/4.7 2014q2/bin/../lib/gcc/arm-none-eabi/4.7.4/../../../../arm-none-eabi/lib/armv7e-m\libg.a(lib_a-freer.o)
__malloc_trim_threshold                           c:/chibistudio/tools/gnu tools arm embedded/4.7 2014q2/bin/../lib/gcc/arm-none-eabi/4.7.4/../../../../arm-none-eabi/lib/armv7e-m\libg.a(lib_a-mallocr.o)
                                                  c:/chibistudio/tools/gnu tools arm embedded/4.7 2014q2/bin/../lib/gcc/arm-none-eabi/4.7.4/../../../../arm-none-eabi/lib/armv7e-m\libg.a(lib_a-freer.o)
__malloc_unlock                                   c:/chibistudio/tools/gnu tools arm embedded/4.7 2014q2/bin/../lib/gcc/arm-none-eabi/4.7.4/../../../../arm-none-eabi/lib/armv7e-m\libg.a(lib_a-mlock.o)
                                                  c:/chibistudio/tools/gnu tools arm embedded/4.7 2014q2/bin/../lib/gcc/arm-none-eabi/4.7.4/../../../../arm-none-eabi/lib/armv7e-m\libg.a(lib_a-reallocr.o)
                                                  c:/chibistudio/tools/gnu tools arm embedded/4.7 2014q2/bin/../lib/gcc/arm-none-eabi/4.7.4/../../../../arm-none-eabi/lib/armv7e-m\libg.a(lib_a-mallocr.o)
                                                  c:/chibistudio/tools/gnu tools arm embedded/4.7 2014q2/bin/../lib/gcc/arm-none-eabi/4.7.4/../../../../arm-none-eabi/lib/armv7e-m\libg.a(lib_a-freer.o)
__mb_cur_max                                      c:/chibistudio/tools/gnu tools arm embedded/4.7 2014q2/bin/../lib/gcc/arm-none-eabi/4.7.4/../../../../arm-none-eabi/lib/armv7e-m\libg.a(lib_a-locale.o)
__mcmp                                            c:/chibistudio/tools/gnu tools arm embedded/4.7 2014q2/bin/../lib/gcc/arm-none-eabi/4.7.4/../../../../arm-none-eabi/lib/armv7e-m\libg.a(lib_a-mprec.o)
                                                  c:/chibistudio/tools/gnu tools arm embedded/4.7 2014q2/bin/../lib/gcc/arm-none-eabi/4.7.4/../../../../arm-none-eabi/lib/armv7e-m\libg.a(lib_a-dtoa.o)
__mdiff                                           c:/chibistudio/tools/gnu tools arm embedded/4.7 2014q2/bin/../lib/gcc/arm-none-eabi/4.7.4/../../../../arm-none-eabi/lib/armv7e-m\libg.a(lib_a-mprec.o)
                                                  c:/chibistudio/tools/gnu tools arm embedded/4.7 2014q2/bin/../lib/gcc/arm-none-eabi/4.7.4/../../../../arm-none-eabi/lib/armv7e-m\libg.a(lib_a-dtoa.o)
__mlocale_changed                                 c:/chibistudio/tools/gnu tools arm embedded/4.7 2014q2/bin/../lib/gcc/arm-none-eabi/4.7.4/../../../../arm-none-eabi/lib/armv7e-m\libg.a(lib_a-locale.o)
__mprec_bigtens                                   c:/chibistudio/tools/gnu tools arm embedded/4.7 2014q2/bin/../lib/gcc/arm-none-eabi/4.7.4/../../../../arm-none-eabi/lib/armv7e-m\libg.a(lib_a-mprec.o)
                                                  c:/chibistudio/tools/gnu tools arm embedded/4.7 2014q2/bin/../lib/gcc/arm-none-eabi/4.7.4/../../../../arm-none-eabi/lib/armv7e-m\libg.a(lib_a-dtoa.o)
__mprec_tens                                      c:/chibistudio/tools/gnu tools arm embedded/4.7 2014q2/bin/../lib/gcc/arm-none-eabi/4.7.4/../../../../arm-none-eabi/lib/armv7e-m\libg.a(lib_a-mprec.o)
                                                  c:/chibistudio/tools/gnu tools arm embedded/4.7 2014q2/bin/../lib/gcc/arm-none-eabi/4.7.4/../../../../arm-none-eabi/lib/armv7e-m\libg.a(lib_a-dtoa.o)
__mprec_tinytens                                  c:/chibistudio/tools/gnu tools arm embedded/4.7 2014q2/bin/../lib/gcc/arm-none-eabi/4.7.4/../../../../arm-none-eabi/lib/armv7e-m\libg.a(lib_a-mprec.o)
__muldf3                                          c:/chibistudio/tools/gnu tools arm embedded/4.7 2014q2/bin/../lib/gcc/arm-none-eabi/4.7.4/armv7e-m\libgcc.a(_arm_muldivdf3.o)
__multadd                                         c:/chibistudio/tools/gnu tools arm embedded/4.7 2014q2/bin/../lib/gcc/arm-none-eabi/4.7.4/../../../../arm-none-eabi/lib/armv7e-m\libg.a(lib_a-mprec.o)
                                                  c:/chibistudio/tools/gnu tools arm embedded/4.7 2014q2/bin/../lib/gcc/arm-none-eabi/4.7.4/../../../../arm-none-eabi/lib/armv7e-m\libg.a(lib_a-dtoa.o)
__multiply                                        c:/chibistudio/tools/gnu tools arm embedded/4.7 2014q2/bin/../lib/gcc/arm-none-eabi/4.7.4/../../../../arm-none-eabi/lib/armv7e-m\libg.a(lib_a-mprec.o)
                                                  c:/chibistudio/tools/gnu tools arm embedded/4.7 2014q2/bin/../lib/gcc/arm-none-eabi/4.7.4/../../../../arm-none-eabi/lib/armv7e-m\libg.a(lib_a-dtoa.o)
__nedf2                                           c:/chibistudio/tools/gnu tools arm embedded/4.7 2014q2/bin/../lib/gcc/arm-none-eabi/4.7.4/armv7e-m\libgcc.a(_arm_cmpdf2.o)
__nlocale_changed                                 c:/chibistudio/tools/gnu tools arm embedded/4.7 2014q2/bin/../lib/gcc/arm-none-eabi/4.7.4/../../../../arm-none-eabi/lib/armv7e-m\libg.a(lib_a-locale.o)
__pow5mult                                        c:/chibistudio/tools/gnu tools arm embedded/4.7 2014q2/bin/../lib/gcc/arm-none-eabi/4.7.4/../../../../arm-none-eabi/lib/armv7e-m\libg.a(lib_a-mprec.o)
                                                  c:/chibistudio/tools/gnu tools arm embedded/4.7 2014q2/bin/../lib/gcc/arm-none-eabi/4.7.4/../../../../arm-none-eabi/lib/armv7e-m\libg.a(lib_a-dtoa.o)
__process_stack_base__                            build/obj/crt0.o
__process_stack_end__                             build/obj/crt0.o
__ratio                                           c:/chibistudio/tools/gnu tools arm embedded/4.7 2014q2/bin/../lib/gcc/arm-none-eabi/4.7.4/../../../../arm-none-eabi/lib/armv7e-m\libg.a(lib_a-mprec.o)
__s2b                                             c:/chibistudio/tools/gnu tools arm embedded/4.7 2014q2/bin/../lib/gcc/arm-none-eabi/4.7.4/../../../../arm-none-eabi/lib/armv7e-m\libg.a(lib_a-mprec.o)
__ssprint_r                                       c:/chibistudio/tools/gnu tools arm embedded/4.7 2014q2/bin/../lib/gcc/arm-none-eabi/4.7.4/../../../../arm-none-eabi/lib/armv7e-m\libg.a(lib_a-svfiprintf.o)
                                                  c:/chibistudio/tools/gnu tools arm embedded/4.7 2014q2/bin/../lib/gcc/arm-none-eabi/4.7.4/../../../../arm-none-eabi/lib/armv7e-m\libg.a(lib_a-svfprintf.o)
__subdf3                                          c:/chibistudio/tools/gnu tools arm embedded/4.7 2014q2/bin/../lib/gcc/arm-none-eabi/4.7.4/armv7e-m\libgcc.a(_arm_addsubdf3.o)
__tz_lock                                         c:/chibistudio/tools/gnu tools arm embedded/4.7 2014q2/bin/../lib/gcc/arm-none-eabi/4.7.4/../../../../arm-none-eabi/lib/armv7e-m\libg.a(lib_a-tzlock.o)
                                                  c:/chibistudio/tools/gnu tools arm embedded/4.7 2014q2/bin/../lib/gcc/arm-none-eabi/4.7.4/../../../../arm-none-eabi/lib/armv7e-m\libg.a(lib_a-mktm_r.o)
__tz_unlock                                       c:/chibistudio/tools/gnu tools arm embedded/4.7 2014q2/bin/../lib/gcc/arm-none-eabi/4.7.4/../../../../arm-none-eabi/lib/armv7e-m\libg.a(lib_a-tzlock.o)
                                                  c:/chibistudio/tools/gnu tools arm embedded/4.7 2014q2/bin/../lib/gcc/arm-none-eabi/4.7.4/../../../../arm-none-eabi/lib/armv7e-m\libg.a(lib_a-mktm_r.o)
__tzcalc_limits                                   c:/chibistudio/tools/gnu tools arm embedded/4.7 2014q2/bin/../lib/gcc/arm-none-eabi/4.7.4/../../../../arm-none-eabi/lib/armv7e-m\libg.a(lib_a-mktm_r.o)
                                                  c:/chibistudio/tools/gnu tools arm embedded/4.7 2014q2/bin/../lib/gcc/arm-none-eabi/4.7.4/../../../../arm-none-eabi/lib/armv7e-m\libg.a(lib_a-mktime.o)
__udivdi3                                         c:/chibistudio/tools/gnu tools arm embedded/4.7 2014q2/bin/../lib/gcc/arm-none-eabi/4.7.4/armv7e-m\libgcc.a(_udivdi3.o)
                                                  c:/chibistudio/tools/gnu tools arm embedded/4.7 2014q2/bin/../lib/gcc/arm-none-eabi/4.7.4/armv7e-m\libgcc.a(bpabi.o)
__ulp                                             c:/chibistudio/tools/gnu tools arm embedded/4.7 2014q2/bin/../lib/gcc/arm-none-eabi/4.7.4/../../../../arm-none-eabi/lib/armv7e-m\libg.a(lib_a-mprec.o)
_atol_r                                           c:/chibistudio/tools/gnu tools arm embedded/4.7 2014q2/bin/../lib/gcc/arm-none-eabi/4.7.4/../../../../arm-none-eabi/lib/armv7e-m\libg.a(lib_a-atol.o)
_bss_end                                          build/obj/crt0.o
_bss_start                                        build/obj/crt0.o
_calloc_r                                         c:/chibistudio/tools/gnu tools arm embedded/4.7 2014q2/bin/../lib/gcc/arm-none-eabi/4.7.4/../../../../arm-none-eabi/lib/armv7e-m\libg.a(lib_a-callocr.o)
                                                  c:/chibistudio/tools/gnu tools arm embedded/4.7 2014q2/bin/../lib/gcc/arm-none-eabi/4.7.4/../../../../arm-none-eabi/lib/armv7e-m\libg.a(lib_a-mprec.o)
_close_r                                          build/obj/syscalls.o
_core_init                                        build/obj/chmemcore.o
                                                  build/obj/chsys.o
_ctype_                                           c:/chibistudio/tools/gnu tools arm embedded/4.7 2014q2/bin/../lib/gcc/arm-none-eabi/4.7.4/../../../../arm-none-eabi/lib/armv7e-m\libg.a(lib_a-ctype_.o)
_data                                             build/obj/crt0.o
_daylight                                         c:/chibistudio/tools/gnu tools arm embedded/4.7 2014q2/bin/../lib/gcc/arm-none-eabi/4.7.4/../../../../arm-none-eabi/lib/armv7e-m\libg.a(lib_a-tzvars.o)
                                                  c:/chibistudio/tools/gnu tools arm embedded/4.7 2014q2/bin/../lib/gcc/arm-none-eabi/4.7.4/../../../../arm-none-eabi/lib/armv7e-m\libg.a(lib_a-mktm_r.o)
                                                  c:/chibistudio/tools/gnu tools arm embedded/4.7 2014q2/bin/../lib/gcc/arm-none-eabi/4.7.4/../../../../arm-none-eabi/lib/armv7e-m\libg.a(lib_a-mktime.o)
_default_exit                                     build/obj/crt0.o
_dtoa_r                                           c:/chibistudio/tools/gnu tools arm embedded/4.7 2014q2/bin/../lib/gcc/arm-none-eabi/4.7.4/../../../../arm-none-eabi/lib/armv7e-m\libg.a(lib_a-dtoa.o)
                                                  c:/chibistudio/tools/gnu tools arm embedded/4.7 2014q2/bin/../lib/gcc/arm-none-eabi/4.7.4/../../../../arm-none-eabi/lib/armv7e-m\libg.a(lib_a-svfprintf.o)
_edata                                            build/obj/crt0.o
_exit                                             build/obj/console.o
_free_r                                           c:/chibistudio/tools/gnu tools arm embedded/4.7 2014q2/bin/../lib/gcc/arm-none-eabi/4.7.4/../../../../arm-none-eabi/lib/armv7e-m\libg.a(lib_a-freer.o)
                                                  c:/chibistudio/tools/gnu tools arm embedded/4.7 2014q2/bin/../lib/gcc/arm-none-eabi/4.7.4/../../../../arm-none-eabi/lib/armv7e-m\libg.a(lib_a-reallocr.o)
                                                  c:/chibistudio/tools/gnu tools arm embedded/4.7 2014q2/bin/../lib/gcc/arm-none-eabi/4.7.4/../../../../arm-none-eabi/lib/armv7e-m\libg.a(lib_a-svfiprintf.o)
                                                  c:/chibistudio/tools/gnu tools arm embedded/4.7 2014q2/bin/../lib/gcc/arm-none-eabi/4.7.4/../../../../arm-none-eabi/lib/armv7e-m\libg.a(lib_a-mallocr.o)
                                                  c:/chibistudio/tools/gnu tools arm embedded/4.7 2014q2/bin/../lib/gcc/arm-none-eabi/4.7.4/../../../../arm-none-eabi/lib/armv7e-m\libg.a(lib_a-reent.o)
_fstat_r                                          build/obj/syscalls.o
_getpid                                           build/obj/console.o
_global_impure_ptr                                c:/chibistudio/tools/gnu tools arm embedded/4.7 2014q2/bin/../lib/gcc/arm-none-eabi/4.7.4/../../../../arm-none-eabi/lib/armv7e-m\libg.a(lib_a-impure.o)
_heap_init                                        build/obj/chheap.o
                                                  build/obj/chsys.o
_idle_thread                                      build/obj/chsys.o
_idle_thread_wa                                   build/obj/chsys.o
_impure_ptr                                       c:/chibistudio/tools/gnu tools arm embedded/4.7 2014q2/bin/../lib/gcc/arm-none-eabi/4.7.4/../../../../arm-none-eabi/lib/armv7e-m\libg.a(lib_a-impure.o)
                                                  c:/chibistudio/tools/gnu tools arm embedded/4.7 2014q2/bin/../lib/gcc/arm-none-eabi/4.7.4/../../../../arm-none-eabi/lib/armv7e-m\libg.a(lib_a-locale.o)
                                                  c:/chibistudio/tools/gnu tools arm embedded/4.7 2014q2/bin/../lib/gcc/arm-none-eabi/4.7.4/../../../../arm-none-eabi/lib/armv7e-m\libg.a(lib_a-strtol.o)
                                                  c:/chibistudio/tools/gnu tools arm embedded/4.7 2014q2/bin/../lib/gcc/arm-none-eabi/4.7.4/../../../../arm-none-eabi/lib/armv7e-m\libg.a(lib_a-sprintf.o)
                                                  c:/chibistudio/tools/gnu tools arm embedded/4.7 2014q2/bin/../lib/gcc/arm-none-eabi/4.7.4/../../../../arm-none-eabi/lib/armv7e-m\libg.a(lib_a-reent.o)
                                                  c:/chibistudio/tools/gnu tools arm embedded/4.7 2014q2/bin/../lib/gcc/arm-none-eabi/4.7.4/../../../../arm-none-eabi/lib/armv7e-m\libg.a(lib_a-asctime.o)
_isatty_r                                         build/obj/syscalls.o
_kill                                             build/obj/console.o
_localeconv_r                                     c:/chibistudio/tools/gnu tools arm embedded/4.7 2014q2/bin/../lib/gcc/arm-none-eabi/4.7.4/../../../../arm-none-eabi/lib/armv7e-m\libg.a(lib_a-locale.o)
                                                  c:/chibistudio/tools/gnu tools arm embedded/4.7 2014q2/bin/../lib/gcc/arm-none-eabi/4.7.4/../../../../arm-none-eabi/lib/armv7e-m\libg.a(lib_a-svfprintf.o)
_lseek_r                                          build/obj/syscalls.o
_malloc_r                                         c:/chibistudio/tools/gnu tools arm embedded/4.7 2014q2/bin/../lib/gcc/arm-none-eabi/4.7.4/../../../../arm-none-eabi/lib/armv7e-m\libg.a(lib_a-mallocr.o)
                                                  c:/chibistudio/tools/gnu tools arm embedded/4.7 2014q2/bin/../lib/gcc/arm-none-eabi/4.7.4/../../../../arm-none-eabi/lib/armv7e-m\libg.a(lib_a-reallocr.o)
                                                  c:/chibistudio/tools/gnu tools arm embedded/4.7 2014q2/bin/../lib/gcc/arm-none-eabi/4.7.4/../../../../arm-none-eabi/lib/armv7e-m\libg.a(lib_a-callocr.o)
                                                  c:/chibistudio/tools/gnu tools arm embedded/4.7 2014q2/bin/../lib/gcc/arm-none-eabi/4.7.4/../../../../arm-none-eabi/lib/armv7e-m\libg.a(lib_a-svfiprintf.o)
                                                  c:/chibistudio/tools/gnu tools arm embedded/4.7 2014q2/bin/../lib/gcc/arm-none-eabi/4.7.4/../../../../arm-none-eabi/lib/armv7e-m\libg.a(lib_a-svfprintf.o)
_malloc_trim_r                                    c:/chibistudio/tools/gnu tools arm embedded/4.7 2014q2/bin/../lib/gcc/arm-none-eabi/4.7.4/../../../../arm-none-eabi/lib/armv7e-m\libg.a(lib_a-freer.o)
_mktm_r                                           c:/chibistudio/tools/gnu tools arm embedded/4.7 2014q2/bin/../lib/gcc/arm-none-eabi/4.7.4/../../../../arm-none-eabi/lib/armv7e-m\libg.a(lib_a-mktm_r.o)
                                                  c:/chibistudio/tools/gnu tools arm embedded/4.7 2014q2/bin/../lib/gcc/arm-none-eabi/4.7.4/../../../../arm-none-eabi/lib/armv7e-m\libg.a(lib_a-lcltime_r.o)
_mprec_log10                                      c:/chibistudio/tools/gnu tools arm embedded/4.7 2014q2/bin/../lib/gcc/arm-none-eabi/4.7.4/../../../../arm-none-eabi/lib/armv7e-m\libg.a(lib_a-mprec.o)
_pal_lld_init                                     build/obj/pal_lld.o
                                                  build/obj/hal.o
_pal_lld_setgroupmode                             build/obj/pal_lld.o
                                                  build/obj/pal.o
_port_init                                        build/obj/chcore_v7m.o
                                                  build/obj/chsys.o
_port_irq_epilogue                                build/obj/chcore_v7m.o
                                                  build/obj/serial_lld.o
                                                  build/obj/pwm_lld.o
                                                  build/obj/icu_lld.o
                                                  build/obj/usb_lld.o
                                                  build/obj/i2c_lld.o
                                                  build/obj/sdc_lld.o
                                                  build/obj/can_lld.o
                                                  build/obj/adc_lld.o
                                                  build/obj/stm32_dma.o
_port_switch                                      build/obj/chcore_v7m.o
                                                  build/obj/chschd.o
_port_switch_from_isr                             build/obj/chcore_v7m.o
_port_thread_start                                build/obj/chcore_v7m.o
                                                  build/obj/chthreads.o
_read_r                                           build/obj/syscalls.o
_realloc_r                                        c:/chibistudio/tools/gnu tools arm embedded/4.7 2014q2/bin/../lib/gcc/arm-none-eabi/4.7.4/../../../../arm-none-eabi/lib/armv7e-m\libg.a(lib_a-reallocr.o)
                                                  c:/chibistudio/tools/gnu tools arm embedded/4.7 2014q2/bin/../lib/gcc/arm-none-eabi/4.7.4/../../../../arm-none-eabi/lib/armv7e-m\libg.a(lib_a-svfiprintf.o)
_reclaim_reent                                    c:/chibistudio/tools/gnu tools arm embedded/4.7 2014q2/bin/../lib/gcc/arm-none-eabi/4.7.4/../../../../arm-none-eabi/lib/armv7e-m\libg.a(lib_a-reent.o)
_sbrk_r                                           build/obj/syscalls.o
                                                  c:/chibistudio/tools/gnu tools arm embedded/4.7 2014q2/bin/../lib/gcc/arm-none-eabi/4.7.4/../../../../arm-none-eabi/lib/armv7e-m\libg.a(lib_a-mallocr.o)
                                                  c:/chibistudio/tools/gnu tools arm embedded/4.7 2014q2/bin/../lib/gcc/arm-none-eabi/4.7.4/../../../../arm-none-eabi/lib/armv7e-m\libg.a(lib_a-freer.o)
_scheduler_init                                   build/obj/chschd.o
                                                  build/obj/chsys.o
_sdc_wait_for_transfer_state                      build/obj/sdc.o
                                                  build/obj/sdc_lld.o
_setlocale_r                                      c:/chibistudio/tools/gnu tools arm embedded/4.7 2014q2/bin/../lib/gcc/arm-none-eabi/4.7.4/../../../../arm-none-eabi/lib/armv7e-m\libg.a(lib_a-locale.o)
_sprintf_r                                        c:/chibistudio/tools/gnu tools arm embedded/4.7 2014q2/bin/../lib/gcc/arm-none-eabi/4.7.4/../../../../arm-none-eabi/lib/armv7e-m\libg.a(lib_a-sprintf.o)
_stm32_dma_streams                                build/obj/stm32_dma.o
                                                  build/obj/spi_lld.o
                                                  build/obj/i2c_lld.o
                                                  build/obj/sdc_lld.o
                                                  build/obj/adc_lld.o
_strtol_r                                         c:/chibistudio/tools/gnu tools arm embedded/4.7 2014q2/bin/../lib/gcc/arm-none-eabi/4.7.4/../../../../arm-none-eabi/lib/armv7e-m\libg.a(lib_a-strtol.o)
                                                  c:/chibistudio/tools/gnu tools arm embedded/4.7 2014q2/bin/../lib/gcc/arm-none-eabi/4.7.4/../../../../arm-none-eabi/lib/armv7e-m\libg.a(lib_a-atol.o)
_svfiprintf_r                                     c:/chibistudio/tools/gnu tools arm embedded/4.7 2014q2/bin/../lib/gcc/arm-none-eabi/4.7.4/../../../../arm-none-eabi/lib/armv7e-m\libg.a(lib_a-svfiprintf.o)
_svfprintf_r                                      c:/chibistudio/tools/gnu tools arm embedded/4.7 2014q2/bin/../lib/gcc/arm-none-eabi/4.7.4/../../../../arm-none-eabi/lib/armv7e-m\libg.a(lib_a-svfprintf.o)
                                                  c:/chibistudio/tools/gnu tools arm embedded/4.7 2014q2/bin/../lib/gcc/arm-none-eabi/4.7.4/../../../../arm-none-eabi/lib/armv7e-m\libg.a(lib_a-sprintf.o)
_test_assert                                      build/obj/test.o
                                                  build/obj/testqueues.o
                                                  build/obj/testdyn.o
                                                  build/obj/testpools.o
                                                  build/obj/testheap.o
                                                  build/obj/testevt.o
                                                  build/obj/testmbox.o
                                                  build/obj/testmtx.o
                                                  build/obj/testsem.o
                                                  build/obj/testthd.o
_test_assert_sequence                             build/obj/test.o
                                                  build/obj/testqueues.o
                                                  build/obj/testdyn.o
                                                  build/obj/testevt.o
                                                  build/obj/testmbox.o
                                                  build/obj/testmsg.o
                                                  build/obj/testmtx.o
                                                  build/obj/testsem.o
                                                  build/obj/testthd.o
_test_assert_time_window                          build/obj/test.o
                                                  build/obj/testevt.o
                                                  build/obj/testmtx.o
                                                  build/obj/testsem.o
                                                  build/obj/testthd.o
_test_fail                                        build/obj/test.o
_textdata                                         build/obj/crt0.o
_thread_init                                      build/obj/chthreads.o
                                                  build/obj/chsys.o
_timezone                                         c:/chibistudio/tools/gnu tools arm embedded/4.7 2014q2/bin/../lib/gcc/arm-none-eabi/4.7.4/../../../../arm-none-eabi/lib/armv7e-m\libg.a(lib_a-tzvars.o)
_tzname                                           c:/chibistudio/tools/gnu tools arm embedded/4.7 2014q2/bin/../lib/gcc/arm-none-eabi/4.7.4/../../../../arm-none-eabi/lib/armv7e-m\libg.a(lib_a-tzvars.o)
_unhandled_exception                              build/obj/vectors.o
_usb_ep0in                                        build/obj/usb.o
                                                  build/obj/usb_lld.o
_usb_ep0out                                       build/obj/usb.o
                                                  build/obj/usb_lld.o
_usb_ep0setup                                     build/obj/usb.o
                                                  build/obj/usb_lld.o
_usb_reset                                        build/obj/usb.o
                                                  build/obj/usb_lld.o
_vectors                                          build/obj/vectors.o
_vt_init                                          build/obj/chvt.o
                                                  build/obj/chsys.o
_wrapup_reent                                     c:/chibistudio/tools/gnu tools arm embedded/4.7 2014q2/bin/../lib/gcc/arm-none-eabi/4.7.4/../../../../arm-none-eabi/lib/armv7e-m\libg.a(lib_a-reent.o)
_write_r                                          build/obj/syscalls.o
adcAcquireBus                                     build/obj/adc.o
adcConvert                                        build/obj/adc.o
                                                  build/obj/meas.o
adcInit                                           build/obj/adc.o
                                                  build/obj/hal.o
adcObjectInit                                     build/obj/adc.o
                                                  build/obj/adc_lld.o
adcReleaseBus                                     build/obj/adc.o
adcSTM32DisableTSVREFE                            build/obj/adc_lld.o
adcSTM32DisableVBATE                              build/obj/adc_lld.o
adcSTM32EnableTSVREFE                             build/obj/adc_lld.o
adcSTM32EnableVBATE                               build/obj/adc_lld.o
adcStart                                          build/obj/adc.o
                                                  build/obj/meas.o
adcStartConversion                                build/obj/adc.o
adcStartConversionI                               build/obj/adc.o
adcStop                                           build/obj/adc.o
adcStopConversion                                 build/obj/adc.o
adcStopConversionI                                build/obj/adc.o
adc_lld_init                                      build/obj/adc_lld.o
                                                  build/obj/adc.o
adc_lld_start                                     build/obj/adc_lld.o
                                                  build/obj/adc.o
adc_lld_start_conversion                          build/obj/adc_lld.o
                                                  build/obj/adc.o
adc_lld_stop                                      build/obj/adc_lld.o
                                                  build/obj/adc.o
adc_lld_stop_conversion                           build/obj/adc_lld.o
                                                  build/obj/adc.o
asctime                                           c:/chibistudio/tools/gnu tools arm embedded/4.7 2014q2/bin/../lib/gcc/arm-none-eabi/4.7.4/../../../../arm-none-eabi/lib/armv7e-m\libg.a(lib_a-asctime.o)
                                                  build/obj/console.o
asctime_r                                         c:/chibistudio/tools/gnu tools arm embedded/4.7 2014q2/bin/../lib/gcc/arm-none-eabi/4.7.4/../../../../arm-none-eabi/lib/armv7e-m\libg.a(lib_a-asctime_r.o)
                                                  c:/chibistudio/tools/gnu tools arm embedded/4.7 2014q2/bin/../lib/gcc/arm-none-eabi/4.7.4/../../../../arm-none-eabi/lib/armv7e-m\libg.a(lib_a-asctime.o)
atol                                              c:/chibistudio/tools/gnu tools arm embedded/4.7 2014q2/bin/../lib/gcc/arm-none-eabi/4.7.4/../../../../arm-none-eabi/lib/armv7e-m\libg.a(lib_a-atol.o)
                                                  build/obj/cruise.o
                                                  build/obj/can_comm.o
                                                  build/obj/console.o
boardInit                                         build/obj/board.o
                                                  build/obj/hal.o
c                                                 build/obj/dsp.o
canInit                                           build/obj/can.o
                                                  build/obj/hal.o
canObjectInit                                     build/obj/can.o
                                                  build/obj/can_lld.o
canReceive                                        build/obj/can.o
                                                  build/obj/can_comm.o
canSTM32SetFilters                                build/obj/can_lld.o
canSleep                                          build/obj/can.o
canStart                                          build/obj/can.o
                                                  build/obj/can_comm.o
canStop                                           build/obj/can.o
canTransmit                                       build/obj/can.o
                                                  build/obj/can_comm.o
canWakeup                                         build/obj/can.o
can_commInit                                      build/obj/can_comm.o
                                                  build/obj/main.o
can_lld_init                                      build/obj/can_lld.o
                                                  build/obj/can.o
can_lld_is_rx_nonempty                            build/obj/can_lld.o
                                                  build/obj/can.o
can_lld_is_tx_empty                               build/obj/can_lld.o
                                                  build/obj/can.o
can_lld_receive                                   build/obj/can_lld.o
                                                  build/obj/can.o
can_lld_sleep                                     build/obj/can_lld.o
                                                  build/obj/can.o
can_lld_start                                     build/obj/can_lld.o
                                                  build/obj/can.o
can_lld_stop                                      build/obj/can_lld.o
                                                  build/obj/can.o
can_lld_transmit                                  build/obj/can_lld.o
                                                  build/obj/can.o
can_lld_wakeup                                    build/obj/can_lld.o
                                                  build/obj/can.o
canstate                                          build/obj/can_comm.o
chCondBroadcast                                   build/obj/chcond.o
                                                  build/obj/testmtx.o
chCondBroadcastI                                  build/obj/chcond.o
chCondInit                                        build/obj/chcond.o
                                                  build/obj/testmtx.o
chCondSignal                                      build/obj/chcond.o
                                                  build/obj/testmtx.o
chCondSignalI                                     build/obj/chcond.o
                                                  build/obj/testmtx.o
chCondWait                                        build/obj/chcond.o
                                                  build/obj/testmtx.o
chCondWaitS                                       build/obj/chcond.o
chCondWaitTimeout                                 build/obj/chcond.o
                                                  build/obj/testmtx.o
chCondWaitTimeoutS                                build/obj/chcond.o
chCoreAlloc                                       build/obj/chmemcore.o
                                                  build/obj/syscalls.o
                                                  build/obj/chheap.o
chCoreAllocI                                      build/obj/chmemcore.o
chCoreStatus                                      build/obj/chmemcore.o
                                                  build/obj/console.o
                                                  build/obj/testheap.o
chEvtAddEvents                                    build/obj/chevents.o
                                                  build/obj/testevt.o
chEvtBroadcastFlags                               build/obj/chevents.o
                                                  build/obj/testevt.o
chEvtBroadcastFlagsI                              build/obj/chevents.o
                                                  build/obj/shell.o
                                                  build/obj/evtimer.o
                                                  build/obj/serial_lld.o
                                                  build/obj/can_lld.o
                                                  build/obj/serial_usb.o
                                                  build/obj/serial.o
                                                  build/obj/can.o
chEvtDispatch                                     build/obj/chevents.o
                                                  build/obj/testevt.o
chEvtGetAndClearEvents                            build/obj/chevents.o
                                                  build/obj/testevt.o
chEvtGetAndClearFlags                             build/obj/chevents.o
chEvtGetAndClearFlagsI                            build/obj/chevents.o
chEvtRegisterMask                                 build/obj/chevents.o
                                                  build/obj/can_comm.o
                                                  build/obj/testevt.o
chEvtSignal                                       build/obj/chevents.o
                                                  build/obj/testevt.o
chEvtSignalI                                      build/obj/chevents.o
chEvtUnregister                                   build/obj/chevents.o
                                                  build/obj/can_comm.o
                                                  build/obj/testevt.o
chEvtWaitAll                                      build/obj/chevents.o
                                                  build/obj/testevt.o
chEvtWaitAllTimeout                               build/obj/chevents.o
                                                  build/obj/testevt.o
chEvtWaitAny                                      build/obj/chevents.o
                                                  build/obj/testevt.o
chEvtWaitAnyTimeout                               build/obj/chevents.o
                                                  build/obj/can_comm.o
                                                  build/obj/testevt.o
chEvtWaitOne                                      build/obj/chevents.o
                                                  build/obj/testevt.o
chEvtWaitOneTimeout                               build/obj/chevents.o
                                                  build/obj/testevt.o
chHeapAlloc                                       build/obj/chheap.o
                                                  build/obj/fatfs_syscall.o
                                                  build/obj/testdyn.o
                                                  build/obj/testheap.o
                                                  build/obj/chdynamic.o
chHeapFree                                        build/obj/chheap.o
                                                  build/obj/fatfs_syscall.o
                                                  build/obj/testdyn.o
                                                  build/obj/testheap.o
                                                  build/obj/chdynamic.o
chHeapInit                                        build/obj/chheap.o
                                                  build/obj/testdyn.o
                                                  build/obj/testheap.o
chHeapStatus                                      build/obj/chheap.o
                                                  build/obj/console.o
                                                  build/obj/testdyn.o
                                                  build/obj/testheap.o
chIQGetTimeout                                    build/obj/chqueues.o
                                                  build/obj/serial_usb.o
                                                  build/obj/serial.o
                                                  build/obj/testbmk.o
                                                  build/obj/testqueues.o
chIQInit                                          build/obj/chqueues.o
                                                  build/obj/serial_usb.o
                                                  build/obj/serial.o
                                                  build/obj/testbmk.o
                                                  build/obj/testqueues.o
chIQPutI                                          build/obj/chqueues.o
                                                  build/obj/serial.o
                                                  build/obj/testbmk.o
                                                  build/obj/testqueues.o
chIQReadTimeout                                   build/obj/chqueues.o
                                                  build/obj/syscalls.o
                                                  build/obj/serial_usb.o
                                                  build/obj/serial.o
                                                  build/obj/testqueues.o
chIQResetI                                        build/obj/chqueues.o
                                                  build/obj/serial_usb.o
                                                  build/obj/serial.o
                                                  build/obj/testqueues.o
chMBFetch                                         build/obj/chmboxes.o
                                                  build/obj/testmbox.o
chMBFetchI                                        build/obj/chmboxes.o
                                                  build/obj/testmbox.o
chMBFetchS                                        build/obj/chmboxes.o
chMBInit                                          build/obj/chmboxes.o
                                                  build/obj/testmbox.o
chMBPost                                          build/obj/chmboxes.o
                                                  build/obj/testmbox.o
chMBPostAhead                                     build/obj/chmboxes.o
                                                  build/obj/testmbox.o
chMBPostAheadI                                    build/obj/chmboxes.o
                                                  build/obj/testmbox.o
chMBPostAheadS                                    build/obj/chmboxes.o
chMBPostI                                         build/obj/chmboxes.o
                                                  build/obj/testmbox.o
chMBPostS                                         build/obj/chmboxes.o
chMBReset                                         build/obj/chmboxes.o
                                                  build/obj/testmbox.o
chMsgRelease                                      build/obj/chmsg.o
                                                  build/obj/testbmk.o
                                                  build/obj/testmsg.o
chMsgSend                                         build/obj/chmsg.o
                                                  build/obj/testbmk.o
                                                  build/obj/testmsg.o
chMsgWait                                         build/obj/chmsg.o
                                                  build/obj/testbmk.o
                                                  build/obj/testmsg.o
chMtxInit                                         build/obj/chmtx.o
                                                  build/obj/spi.o
                                                  build/obj/i2c.o
                                                  build/obj/adc.o
                                                  build/obj/testbmk.o
                                                  build/obj/testmtx.o
                                                  build/obj/chheap.o
chMtxLock                                         build/obj/chmtx.o
                                                  build/obj/spi.o
                                                  build/obj/i2c.o
                                                  build/obj/adc.o
                                                  build/obj/testbmk.o
                                                  build/obj/testmtx.o
                                                  build/obj/chheap.o
chMtxLockS                                        build/obj/chmtx.o
                                                  build/obj/chcond.o
chMtxTryLock                                      build/obj/chmtx.o
                                                  build/obj/testmtx.o
chMtxTryLockS                                     build/obj/chmtx.o
chMtxUnlock                                       build/obj/chmtx.o
                                                  build/obj/spi.o
                                                  build/obj/i2c.o
                                                  build/obj/adc.o
                                                  build/obj/testbmk.o
                                                  build/obj/testmtx.o
                                                  build/obj/chheap.o
chMtxUnlockAll                                    build/obj/chmtx.o
                                                  build/obj/testmtx.o
chMtxUnlockS                                      build/obj/chmtx.o
                                                  build/obj/testmtx.o
                                                  build/obj/chcond.o
chOQGetI                                          build/obj/chqueues.o
                                                  build/obj/serial_lld.o
                                                  build/obj/serial.o
                                                  build/obj/testqueues.o
chOQInit                                          build/obj/chqueues.o
                                                  build/obj/serial_usb.o
                                                  build/obj/serial.o
                                                  build/obj/testqueues.o
chOQPutTimeout                                    build/obj/chqueues.o
                                                  build/obj/gfx.o
                                                  build/obj/serial_usb.o
                                                  build/obj/serial.o
                                                  build/obj/testqueues.o
chOQResetI                                        build/obj/chqueues.o
                                                  build/obj/serial_usb.o
                                                  build/obj/serial.o
                                                  build/obj/testqueues.o
chOQWriteTimeout                                  build/obj/chqueues.o
                                                  build/obj/syscalls.o
                                                  build/obj/serial_usb.o
                                                  build/obj/serial.o
                                                  build/obj/testqueues.o
chPoolAlloc                                       build/obj/chmempools.o
                                                  build/obj/testdyn.o
                                                  build/obj/testpools.o
                                                  build/obj/chdynamic.o
chPoolAllocI                                      build/obj/chmempools.o
chPoolFree                                        build/obj/chmempools.o
                                                  build/obj/testdyn.o
                                                  build/obj/testpools.o
                                                  build/obj/chdynamic.o
chPoolFreeI                                       build/obj/chmempools.o
chPoolInit                                        build/obj/chmempools.o
                                                  build/obj/testdyn.o
                                                  build/obj/testpools.o
chPoolLoadArray                                   build/obj/chmempools.o
                                                  build/obj/testpools.o
chRegFirstThread                                  build/obj/chregistry.o
                                                  build/obj/console.o
                                                  build/obj/testdyn.o
chRegNextThread                                   build/obj/chregistry.o
                                                  build/obj/console.o
                                                  build/obj/testdyn.o
chSchDoReschedule                                 build/obj/chschd.o
                                                  build/obj/chcore_v7m.o
chSchDoRescheduleAhead                            build/obj/chschd.o
chSchDoRescheduleBehind                           build/obj/chschd.o
                                                  build/obj/chthreads.o
chSchGoSleepS                                     build/obj/chschd.o
                                                  build/obj/usb_lld.o
                                                  build/obj/i2c_lld.o
                                                  build/obj/sdc_lld.o
                                                  build/obj/spi.o
                                                  build/obj/adc.o
                                                  build/obj/testbmk.o
                                                  build/obj/chmsg.o
                                                  build/obj/chevents.o
                                                  build/obj/chcond.o
                                                  build/obj/chmtx.o
                                                  build/obj/chsem.o
                                                  build/obj/chthreads.o
chSchGoSleepTimeoutS                              build/obj/chschd.o
                                                  build/obj/can_lld.o
                                                  build/obj/can.o
                                                  build/obj/chqueues.o
                                                  build/obj/chevents.o
                                                  build/obj/chcond.o
                                                  build/obj/chsem.o
                                                  build/obj/chthreads.o
chSchReadyI                                       build/obj/chschd.o
                                                  build/obj/spi_lld.o
                                                  build/obj/usb_lld.o
                                                  build/obj/i2c_lld.o
                                                  build/obj/sdc_lld.o
                                                  build/obj/adc_lld.o
                                                  build/obj/adc.o
                                                  build/obj/chqueues.o
                                                  build/obj/chmsg.o
                                                  build/obj/chevents.o
                                                  build/obj/chcond.o
                                                  build/obj/chmtx.o
                                                  build/obj/chsem.o
                                                  build/obj/chthreads.o
chSchRescheduleS                                  build/obj/chschd.o
                                                  build/obj/usb_lld.o
                                                  build/obj/serial_usb.o
                                                  build/obj/serial.o
                                                  build/obj/can.o
                                                  build/obj/testmtx.o
                                                  build/obj/testsem.o
                                                  build/obj/chmboxes.o
                                                  build/obj/chevents.o
                                                  build/obj/chcond.o
                                                  build/obj/chmtx.o
                                                  build/obj/chsem.o
                                                  build/obj/chthreads.o
chSchWakeupS                                      build/obj/chschd.o
                                                  build/obj/adc.o
                                                  build/obj/testbmk.o
                                                  build/obj/chmsg.o
                                                  build/obj/chcond.o
                                                  build/obj/chmtx.o
                                                  build/obj/chsem.o
                                                  build/obj/chdynamic.o
                                                  build/obj/chthreads.o
chSemAddCounterI                                  build/obj/chsem.o
                                                  build/obj/testsem.o
chSemInit                                         build/obj/chsem.o
                                                  build/obj/can.o
                                                  build/obj/testbmk.o
                                                  build/obj/testsem.o
                                                  build/obj/chmboxes.o
chSemReset                                        build/obj/chsem.o
                                                  build/obj/testbmk.o
                                                  build/obj/testsem.o
chSemResetI                                       build/obj/chsem.o
                                                  build/obj/can.o
                                                  build/obj/chmboxes.o
chSemSignal                                       build/obj/chsem.o
                                                  build/obj/testbmk.o
                                                  build/obj/testsem.o
chSemSignalI                                      build/obj/chsem.o
                                                  build/obj/can_lld.o
                                                  build/obj/testsem.o
                                                  build/obj/chmboxes.o
chSemSignalWait                                   build/obj/chsem.o
                                                  build/obj/testsem.o
chSemWait                                         build/obj/chsem.o
                                                  build/obj/testbmk.o
                                                  build/obj/testsem.o
chSemWaitS                                        build/obj/chsem.o
chSemWaitTimeout                                  build/obj/chsem.o
                                                  build/obj/testsem.o
chSemWaitTimeoutS                                 build/obj/chsem.o
                                                  build/obj/can.o
                                                  build/obj/chmboxes.o
chSysInit                                         build/obj/chsys.o
                                                  build/obj/main.o
chSysTimerHandlerI                                build/obj/chsys.o
                                                  build/obj/chcore_v7m.o
chThdAddRef                                       build/obj/chdynamic.o
                                                  build/obj/testdyn.o
chThdCreateFromHeap                               build/obj/chdynamic.o
                                                  build/obj/console.o
                                                  build/obj/shell.o
                                                  build/obj/testdyn.o
chThdCreateFromMemoryPool                         build/obj/chdynamic.o
                                                  build/obj/testdyn.o
chThdCreateI                                      build/obj/chthreads.o
                                                  build/obj/usb_lld.o
                                                  build/obj/testthd.o
                                                  build/obj/chdynamic.o
chThdCreateStatic                                 build/obj/chthreads.o
                                                  build/obj/can_comm.o
                                                  build/obj/main.o
                                                  build/obj/shell.o
                                                  build/obj/testbmk.o
                                                  build/obj/testqueues.o
                                                  build/obj/testevt.o
                                                  build/obj/testmsg.o
                                                  build/obj/testmtx.o
                                                  build/obj/testsem.o
                                                  build/obj/testthd.o
                                                  build/obj/chsys.o
chThdExit                                         build/obj/chthreads.o
                                                  build/obj/chcore_v7m.o
chThdExitS                                        build/obj/chthreads.o
                                                  build/obj/shell.o
chThdRelease                                      build/obj/chdynamic.o
                                                  build/obj/console.o
                                                  build/obj/testdyn.o
                                                  build/obj/chregistry.o
                                                  build/obj/chthreads.o
chThdResume                                       build/obj/chthreads.o
                                                  build/obj/testthd.o
chThdSetPriority                                  build/obj/chthreads.o
                                                  build/obj/testthd.o
chThdSleep                                        build/obj/chthreads.o
                                                  build/obj/cruise.o
                                                  build/obj/meas.o
                                                  build/obj/speed.o
                                                  build/obj/light.o
                                                  build/obj/can_comm.o
                                                  build/obj/sdcard.o
                                                  build/obj/console.o
                                                  build/obj/main.o
                                                  build/obj/sdc_lld.o
                                                  build/obj/sdc.o
                                                  build/obj/testbmk.o
                                                  build/obj/testdyn.o
                                                  build/obj/testevt.o
                                                  build/obj/testmtx.o
                                                  build/obj/testsem.o
                                                  build/obj/testthd.o
                                                  build/obj/test.o
chThdSleepUntil                                   build/obj/chthreads.o
                                                  build/obj/main.o
                                                  build/obj/testthd.o
chThdTerminate                                    build/obj/chthreads.o
                                                  build/obj/test.o
chThdWait                                         build/obj/chthreads.o
                                                  build/obj/console.o
                                                  build/obj/testbmk.o
                                                  build/obj/test.o
chThdYield                                        build/obj/chthreads.o
                                                  build/obj/testbmk.o
chVTResetI                                        build/obj/chvt.o
                                                  build/obj/evtimer.o
                                                  build/obj/i2c_lld.o
                                                  build/obj/testbmk.o
                                                  build/obj/chschd.o
chVTSetI                                          build/obj/chvt.o
                                                  build/obj/evtimer.o
                                                  build/obj/i2c_lld.o
                                                  build/obj/testbmk.o
                                                  build/obj/test.o
                                                  build/obj/chschd.o
ch_debug                                          build/obj/chregistry.o
                                                  build/obj/chsys.o
chsnprintf                                        build/obj/chprintf.o
chvprintf                                         build/obj/chprintf.o
                                                  build/obj/dsp.o
                                                  build/obj/cruise.o
                                                  build/obj/meas.o
                                                  build/obj/speed.o
                                                  build/obj/light.o
                                                  build/obj/can_comm.o
                                                  build/obj/sdcard.o
                                                  build/obj/console.o
                                                  build/obj/shell.o
cleanup_glue                                      c:/chibistudio/tools/gnu tools arm embedded/4.7 2014q2/bin/../lib/gcc/arm-none-eabi/4.7.4/../../../../arm-none-eabi/lib/armv7e-m\libg.a(lib_a-reent.o)
clust2sect                                        build/obj/ff.o
cmd_alarm                                         build/obj/console.o
cmd_can_commvalues                                build/obj/can_comm.o
                                                  build/obj/console.o
cmd_candata                                       build/obj/can_comm.o
                                                  build/obj/console.o
cmd_canmppttest                                   build/obj/can_comm.o
                                                  build/obj/console.o
cmd_cat                                           build/obj/sdcard.o
                                                  build/obj/console.o
cmd_cruisevalues                                  build/obj/cruise.o
                                                  build/obj/console.o
cmd_date                                          build/obj/console.o
cmd_debug                                         build/obj/sdcard.o
cmd_lightvalues                                   build/obj/light.o
                                                  build/obj/console.o
cmd_measvalues                                    build/obj/meas.o
                                                  build/obj/console.o
cmd_mem                                           build/obj/console.o
cmd_mountsd                                       build/obj/sdcard.o
                                                  build/obj/console.o
cmd_sdiotest                                      build/obj/sdcard.o
                                                  build/obj/console.o
cmd_setcruisevalues                               build/obj/cruise.o
                                                  build/obj/console.o
cmd_sleep                                         build/obj/console.o
cmd_speedvalues                                   build/obj/speed.o
                                                  build/obj/console.o
cmd_test                                          build/obj/console.o
cmd_threads                                       build/obj/console.o
cmd_tree                                          build/obj/sdcard.o
                                                  build/obj/console.o
cmd_umountsd                                      build/obj/sdcard.o
                                                  build/obj/console.o
cmdfrappans_dspmessages                           build/obj/dsp.o
                                                  build/obj/console.o
consoleInit                                       build/obj/console.o
                                                  build/obj/main.o
consoleStart                                      build/obj/console.o
                                                  build/obj/main.o
consoleThread                                     build/obj/console.o
cruiseCalc                                        build/obj/cruise.o
                                                  build/obj/main.o
cruiseInit                                        build/obj/cruise.o
                                                  build/obj/main.o
cruisePID                                         build/obj/cruise.o
db                                                build/obj/dsp.o
db2                                               build/obj/dsp.o
disk_initialize                                   build/obj/fatfs_diskio.o
                                                  build/obj/ff.o
disk_ioctl                                        build/obj/fatfs_diskio.o
                                                  build/obj/ff.o
disk_read                                         build/obj/fatfs_diskio.o
                                                  build/obj/ff.o
disk_status                                       build/obj/fatfs_diskio.o
                                                  build/obj/ff.o
disk_write                                        build/obj/fatfs_diskio.o
                                                  build/obj/ff.o
div                                               c:/chibistudio/tools/gnu tools arm embedded/4.7 2014q2/bin/../lib/gcc/arm-none-eabi/4.7.4/../../../../arm-none-eabi/lib/armv7e-m\libg.a(lib_a-div.o)
                                                  c:/chibistudio/tools/gnu tools arm embedded/4.7 2014q2/bin/../lib/gcc/arm-none-eabi/4.7.4/../../../../arm-none-eabi/lib/armv7e-m\libg.a(lib_a-mktime.o)
dmaInit                                           build/obj/stm32_dma.o
                                                  build/obj/hal_lld.o
dmaStreamAllocate                                 build/obj/stm32_dma.o
                                                  build/obj/spi_lld.o
                                                  build/obj/i2c_lld.o
                                                  build/obj/sdc_lld.o
                                                  build/obj/adc_lld.o
dmaStreamRelease                                  build/obj/stm32_dma.o
                                                  build/obj/spi_lld.o
                                                  build/obj/i2c_lld.o
                                                  build/obj/sdc_lld.o
                                                  build/obj/adc_lld.o
dspCalc                                           build/obj/dsp.o
                                                  build/obj/main.o
dspInit                                           build/obj/dsp.o
                                                  build/obj/main.o
dsp_LoadMidle                                     build/obj/dsp.o
dsp_LoadTop                                       build/obj/dsp.o
dsp_activ                                         build/obj/dsp.o
dspmessages                                       build/obj/dsp.o
dspstate                                          build/obj/dsp.o
errno                                             c:/chibistudio/tools/gnu tools arm embedded/4.7 2014q2/bin/../lib/gcc/arm-none-eabi/4.7.4/../../../../arm-none-eabi/lib/armv7e-m\libg.a(lib_a-reent.o)
                                                  build/obj/console.o
evtStart                                          build/obj/evtimer.o
evtStop                                           build/obj/evtimer.o
f_chmod                                           build/obj/ff.o
f_close                                           build/obj/ff.o
                                                  build/obj/sdcard.o
f_getfree                                         build/obj/ff.o
                                                  build/obj/sdcard.o
f_gets                                            build/obj/ff.o
                                                  build/obj/sdcard.o
f_lseek                                           build/obj/ff.o
f_mkdir                                           build/obj/ff.o
f_mkfs                                            build/obj/ff.o
f_mount                                           build/obj/ff.o
                                                  build/obj/sdcard.o
f_open                                            build/obj/ff.o
                                                  build/obj/sdcard.o
f_opendir                                         build/obj/ff.o
                                                  build/obj/sdcard.o
f_printf                                          build/obj/ff.o
f_putc                                            build/obj/ff.o
f_puts                                            build/obj/ff.o
f_read                                            build/obj/ff.o
                                                  build/obj/sdcard.o
f_readdir                                         build/obj/ff.o
                                                  build/obj/sdcard.o
f_rename                                          build/obj/ff.o
f_stat                                            build/obj/ff.o
                                                  build/obj/sdcard.o
f_sync                                            build/obj/ff.o
f_truncate                                        build/obj/ff.o
f_unlink                                          build/obj/ff.o
f_utime                                           build/obj/ff.o
f_write                                           build/obj/ff.o
                                                  build/obj/sdcard.o
ff_convert                                        build/obj/ccsbcs.o
                                                  build/obj/ff.o
ff_memalloc                                       build/obj/fatfs_syscall.o
                                                  build/obj/ff.o
ff_memfree                                        build/obj/fatfs_syscall.o
                                                  build/obj/ff.o
ff_wtoupper                                       build/obj/ccsbcs.o
                                                  build/obj/ff.o
file_LoadImageControl                             build/obj/gfx.o
file_Mount                                        build/obj/gfx.o
                                                  build/obj/dsp.o
fillbuffer                                        build/obj/sdcard.o
fillbuffers                                       build/obj/sdcard.o
func_sleep                                        build/obj/console.o
gen_numname                                       build/obj/ff.o
get_fat                                           build/obj/ff.o
get_fattime                                       build/obj/fatfs_diskio.o
                                                  build/obj/ff.o
gfx_BGcolour                                      build/obj/gfx.o
                                                  build/obj/dsp.o
gfx_Cls                                           build/obj/gfx.o
                                                  build/obj/dsp.o
gfx_Contrast                                      build/obj/gfx.o
gfx_Transparency                                  build/obj/gfx.o
gfx_TransparentColour                             build/obj/gfx.o
halInit                                           build/obj/hal.o
                                                  build/obj/main.o
halIsCounterWithin                                build/obj/hal.o
halPolledDelay                                    build/obj/hal.o
                                                  build/obj/usb_lld.o
hal_lld_init                                      build/obj/hal_lld.o
                                                  build/obj/hal.o
i2cAcquireBus                                     build/obj/i2c.o
i2cGetErrors                                      build/obj/i2c.o
i2cInit                                           build/obj/i2c.o
                                                  build/obj/hal.o
i2cMasterReceiveTimeout                           build/obj/i2c.o
i2cMasterTransmitTimeout                          build/obj/i2c.o
i2cObjectInit                                     build/obj/i2c.o
                                                  build/obj/i2c_lld.o
i2cReleaseBus                                     build/obj/i2c.o
i2cStart                                          build/obj/i2c.o
i2cStop                                           build/obj/i2c.o
i2c_lld_init                                      build/obj/i2c_lld.o
                                                  build/obj/i2c.o
i2c_lld_master_receive_timeout                    build/obj/i2c_lld.o
                                                  build/obj/i2c.o
i2c_lld_master_transmit_timeout                   build/obj/i2c_lld.o
                                                  build/obj/i2c.o
i2c_lld_start                                     build/obj/i2c_lld.o
                                                  build/obj/i2c.o
i2c_lld_stop                                      build/obj/i2c_lld.o
                                                  build/obj/i2c.o
icuDisable                                        build/obj/icu.o
icuEnable                                         build/obj/icu.o
                                                  build/obj/speed.o
icuInit                                           build/obj/icu.o
                                                  build/obj/hal.o
icuObjectInit                                     build/obj/icu.o
                                                  build/obj/icu_lld.o
icuStart                                          build/obj/icu.o
                                                  build/obj/speed.o
icuStop                                           build/obj/icu.o
icu_lld_disable                                   build/obj/icu_lld.o
                                                  build/obj/icu.o
icu_lld_enable                                    build/obj/icu_lld.o
                                                  build/obj/icu.o
icu_lld_init                                      build/obj/icu_lld.o
                                                  build/obj/icu.o
icu_lld_start                                     build/obj/icu_lld.o
                                                  build/obj/icu.o
icu_lld_stop                                      build/obj/icu_lld.o
                                                  build/obj/icu.o
lightCalc                                         build/obj/light.o
                                                  build/obj/main.o
lightInit                                         build/obj/light.o
                                                  build/obj/main.o
localeconv                                        c:/chibistudio/tools/gnu tools arm embedded/4.7 2014q2/bin/../lib/gcc/arm-none-eabi/4.7.4/../../../../arm-none-eabi/lib/armv7e-m\libg.a(lib_a-locale.o)
localtime_r                                       c:/chibistudio/tools/gnu tools arm embedded/4.7 2014q2/bin/../lib/gcc/arm-none-eabi/4.7.4/../../../../arm-none-eabi/lib/armv7e-m\libg.a(lib_a-lcltime_r.o)
                                                  build/obj/chrtclib.o
main                                              build/obj/main.o
                                                  build/obj/crt0.o
measCalc                                          build/obj/meas.o
                                                  build/obj/main.o
measGetValue                                      build/obj/meas.o
measInit                                          build/obj/meas.o
                                                  build/obj/main.o
measstate                                         build/obj/meas.o
media_Image                                       build/obj/gfx.o
                                                  build/obj/dsp.o
media_SetSector                                   build/obj/gfx.o
                                                  build/obj/dsp.o
media_Video                                       build/obj/gfx.o
media_VideoFrame                                  build/obj/gfx.o
                                                  build/obj/dsp.o
memchr                                            c:/chibistudio/tools/gnu tools arm embedded/4.7 2014q2/bin/../lib/gcc/arm-none-eabi/4.7.4/../../../../arm-none-eabi/lib/armv7e-m\libg.a(lib_a-memchr.o)
                                                  c:/chibistudio/tools/gnu tools arm embedded/4.7 2014q2/bin/../lib/gcc/arm-none-eabi/4.7.4/../../../../arm-none-eabi/lib/armv7e-m\libg.a(lib_a-svfiprintf.o)
                                                  c:/chibistudio/tools/gnu tools arm embedded/4.7 2014q2/bin/../lib/gcc/arm-none-eabi/4.7.4/../../../../arm-none-eabi/lib/armv7e-m\libg.a(lib_a-svfprintf.o)
memcmp                                            c:/chibistudio/tools/gnu tools arm embedded/4.7 2014q2/bin/../lib/gcc/arm-none-eabi/4.7.4/../../../../arm-none-eabi/lib/armv7e-m\libg.a(lib_a-memcmp.o)
                                                  build/obj/sdcard.o
memcpy                                            c:/chibistudio/tools/gnu tools arm embedded/4.7 2014q2/bin/../lib/gcc/arm-none-eabi/4.7.4/../../../../arm-none-eabi/lib/armv7e-m\libg.a(lib_a-memcpy.o)
                                                  c:/chibistudio/tools/gnu tools arm embedded/4.7 2014q2/bin/../lib/gcc/arm-none-eabi/4.7.4/../../../../arm-none-eabi/lib/armv7e-m\libg.a(lib_a-svfiprintf.o)
                                                  c:/chibistudio/tools/gnu tools arm embedded/4.7 2014q2/bin/../lib/gcc/arm-none-eabi/4.7.4/../../../../arm-none-eabi/lib/armv7e-m\libg.a(lib_a-mprec.o)
                                                  c:/chibistudio/tools/gnu tools arm embedded/4.7 2014q2/bin/../lib/gcc/arm-none-eabi/4.7.4/../../../../arm-none-eabi/lib/armv7e-m\libg.a(lib_a-dtoa.o)
                                                  build/obj/sdc_lld.o
memmove                                           c:/chibistudio/tools/gnu tools arm embedded/4.7 2014q2/bin/../lib/gcc/arm-none-eabi/4.7.4/../../../../arm-none-eabi/lib/armv7e-m\libg.a(lib_a-memmove.o)
                                                  c:/chibistudio/tools/gnu tools arm embedded/4.7 2014q2/bin/../lib/gcc/arm-none-eabi/4.7.4/../../../../arm-none-eabi/lib/armv7e-m\libg.a(lib_a-reallocr.o)
                                                  c:/chibistudio/tools/gnu tools arm embedded/4.7 2014q2/bin/../lib/gcc/arm-none-eabi/4.7.4/../../../../arm-none-eabi/lib/armv7e-m\libg.a(lib_a-svfiprintf.o)
memset                                            c:/chibistudio/tools/gnu tools arm embedded/4.7 2014q2/bin/../lib/gcc/arm-none-eabi/4.7.4/../../../../arm-none-eabi/lib/armv7e-m\libg.a(lib_a-memset.o)
                                                  c:/chibistudio/tools/gnu tools arm embedded/4.7 2014q2/bin/../lib/gcc/arm-none-eabi/4.7.4/../../../../arm-none-eabi/lib/armv7e-m\libg.a(lib_a-callocr.o)
                                                  build/obj/syscalls.o
                                                  build/obj/usb.o
mktime                                            c:/chibistudio/tools/gnu tools arm embedded/4.7 2014q2/bin/../lib/gcc/arm-none-eabi/4.7.4/../../../../arm-none-eabi/lib/armv7e-m\libg.a(lib_a-mktime.o)
                                                  build/obj/chrtclib.o
mmcsdGetCapacity                                  build/obj/mmcsd.o
                                                  build/obj/sdc.o
msObjectInit                                      build/obj/chprintf.o
nvicDisableVector                                 build/obj/nvic.o
                                                  build/obj/serial_lld.o
                                                  build/obj/pwm_lld.o
                                                  build/obj/icu_lld.o
                                                  build/obj/i2c_lld.o
                                                  build/obj/sdc_lld.o
                                                  build/obj/can_lld.o
                                                  build/obj/stm32_dma.o
nvicEnableVector                                  build/obj/nvic.o
                                                  build/obj/serial_lld.o
                                                  build/obj/pwm_lld.o
                                                  build/obj/icu_lld.o
                                                  build/obj/usb_lld.o
                                                  build/obj/i2c_lld.o
                                                  build/obj/sdc_lld.o
                                                  build/obj/can_lld.o
                                                  build/obj/adc_lld.o
                                                  build/obj/stm32_dma.o
nvicSetSystemHandlerPriority                      build/obj/nvic.o
                                                  build/obj/chcore_v7m.o
palReadBus                                        build/obj/pal.o
palSetBusMode                                     build/obj/pal.o
palWriteBus                                       build/obj/pal.o
pal_default_config                                build/obj/board.o
                                                  build/obj/hal.o
patternbmk                                        build/obj/testbmk.o
                                                  build/obj/test.o
patterndyn                                        build/obj/testdyn.o
                                                  build/obj/test.o
patternevt                                        build/obj/testevt.o
                                                  build/obj/test.o
patternheap                                       build/obj/testheap.o
                                                  build/obj/test.o
patternmbox                                       build/obj/testmbox.o
                                                  build/obj/test.o
patternmsg                                        build/obj/testmsg.o
                                                  build/obj/test.o
patternmtx                                        build/obj/testmtx.o
                                                  build/obj/test.o
patternpools                                      build/obj/testpools.o
                                                  build/obj/test.o
patternqueues                                     build/obj/testqueues.o
                                                  build/obj/test.o
patternsem                                        build/obj/testsem.o
                                                  build/obj/test.o
patternthd                                        build/obj/testthd.o
                                                  build/obj/test.o
port_halt                                         build/obj/chcore.o
                                                  build/obj/sdcard.o
                                                  build/obj/spi_lld.o
                                                  build/obj/i2c_lld.o
put_fat                                           build/obj/ff.o
putstr                                            build/obj/gfx.o
pwmChangePeriod                                   build/obj/pwm.o
pwmDisableChannel                                 build/obj/pwm.o
pwmEnableChannel                                  build/obj/pwm.o
                                                  build/obj/cruise.o
                                                  build/obj/light.o
pwmInit                                           build/obj/pwm.o
                                                  build/obj/hal.o
pwmObjectInit                                     build/obj/pwm.o
                                                  build/obj/pwm_lld.o
pwmStart                                          build/obj/pwm.o
                                                  build/obj/cruise.o
                                                  build/obj/light.o
pwmStop                                           build/obj/pwm.o
pwm_lld_disable_channel                           build/obj/pwm_lld.o
                                                  build/obj/pwm.o
pwm_lld_enable_channel                            build/obj/pwm_lld.o
                                                  build/obj/pwm.o
pwm_lld_init                                      build/obj/pwm_lld.o
                                                  build/obj/pwm.o
pwm_lld_start                                     build/obj/pwm_lld.o
                                                  build/obj/pwm.o
pwm_lld_stop                                      build/obj/pwm_lld.o
                                                  build/obj/pwm.o
rlist                                             build/obj/chschd.o
                                                  build/obj/can_comm.o
                                                  build/obj/console.o
                                                  build/obj/main.o
                                                  build/obj/shell.o
                                                  build/obj/usb_lld.o
                                                  build/obj/i2c_lld.o
                                                  build/obj/sdc_lld.o
                                                  build/obj/spi.o
                                                  build/obj/adc.o
                                                  build/obj/testbmk.o
                                                  build/obj/testqueues.o
                                                  build/obj/testdyn.o
                                                  build/obj/testevt.o
                                                  build/obj/testmsg.o
                                                  build/obj/testmtx.o
                                                  build/obj/testsem.o
                                                  build/obj/testthd.o
                                                  build/obj/test.o
                                                  build/obj/chqueues.o
                                                  build/obj/chmsg.o
                                                  build/obj/chevents.o
                                                  build/obj/chcond.o
                                                  build/obj/chmtx.o
                                                  build/obj/chsem.o
                                                  build/obj/chregistry.o
                                                  build/obj/chthreads.o
                                                  build/obj/chsys.o
                                                  build/obj/chcore_v7m.o
rtcGetAlarm                                       build/obj/rtc.o
                                                  build/obj/console.o
rtcGetPeriodicWakeup_v2                           build/obj/rtc_lld.o
rtcGetTime                                        build/obj/rtc.o
                                                  build/obj/chrtclib.o
rtcGetTimeFat                                     build/obj/rtc.o
                                                  build/obj/fatfs_diskio.o
rtcGetTimeTm                                      build/obj/chrtclib.o
                                                  build/obj/console.o
rtcGetTimeUnixSec                                 build/obj/chrtclib.o
                                                  build/obj/console.o
rtcGetTimeUnixUsec                                build/obj/chrtclib.o
rtcInit                                           build/obj/rtc.o
                                                  build/obj/hal.o
rtcSetAlarm                                       build/obj/rtc.o
                                                  build/obj/console.o
rtcSetPeriodicWakeup_v2                           build/obj/rtc_lld.o
rtcSetTime                                        build/obj/rtc.o
                                                  build/obj/chrtclib.o
rtcSetTimeTm                                      build/obj/chrtclib.o
rtcSetTimeUnixSec                                 build/obj/chrtclib.o
                                                  build/obj/console.o
rtc_lld_get_alarm                                 build/obj/rtc_lld.o
                                                  build/obj/rtc.o
rtc_lld_get_time                                  build/obj/rtc_lld.o
                                                  build/obj/rtc.o
rtc_lld_get_time_fat                              build/obj/rtc_lld.o
                                                  build/obj/rtc.o
rtc_lld_init                                      build/obj/rtc_lld.o
                                                  build/obj/rtc.o
rtc_lld_set_alarm                                 build/obj/rtc_lld.o
                                                  build/obj/rtc.o
rtc_lld_set_time                                  build/obj/rtc_lld.o
                                                  build/obj/rtc.o
sdIncomingDataI                                   build/obj/serial.o
                                                  build/obj/serial_lld.o
sdInit                                            build/obj/serial.o
                                                  build/obj/hal.o
sdObjectInit                                      build/obj/serial.o
                                                  build/obj/serial_lld.o
sdRequestDataI                                    build/obj/serial.o
sdStart                                           build/obj/serial.o
                                                  build/obj/uart_comm.o
                                                  build/obj/console.o
sdStop                                            build/obj/serial.o
sd_lld_init                                       build/obj/serial_lld.o
                                                  build/obj/serial.o
sd_lld_start                                      build/obj/serial_lld.o
                                                  build/obj/serial.o
sd_lld_stop                                       build/obj/serial_lld.o
                                                  build/obj/serial.o
sdcConnect                                        build/obj/sdc.o
                                                  build/obj/sdcard.o
sdcDisconnect                                     build/obj/sdc.o
                                                  build/obj/sdcard.o
sdcErase                                          build/obj/sdc.o
                                                  build/obj/fatfs_diskio.o
sdcGetAndClearErrors                              build/obj/sdc.o
sdcGetInfo                                        build/obj/sdc.o
sdcInit                                           build/obj/sdc.o
                                                  build/obj/hal.o
sdcObjectInit                                     build/obj/sdc.o
                                                  build/obj/sdc_lld.o
sdcRead                                           build/obj/sdc.o
                                                  build/obj/sdcard.o
                                                  build/obj/fatfs_diskio.o
sdcStart                                          build/obj/sdc.o
                                                  build/obj/sdcard.o
sdcStop                                           build/obj/sdc.o
sdcSync                                           build/obj/sdc.o
sdcWrite                                          build/obj/sdc.o
                                                  build/obj/fatfs_diskio.o
sdc_lld_init                                      build/obj/sdc_lld.o
                                                  build/obj/sdc.o
sdc_lld_is_card_inserted                          build/obj/sdcard.o
                                                  build/obj/sdc.o
sdc_lld_is_write_protected                        build/obj/sdcard.o
                                                  build/obj/fatfs_diskio.o
                                                  build/obj/sdc.o
sdc_lld_read                                      build/obj/sdc_lld.o
                                                  build/obj/sdc.o
sdc_lld_read_aligned                              build/obj/sdc_lld.o
sdc_lld_send_cmd_long_crc                         build/obj/sdc_lld.o
                                                  build/obj/sdc.o
sdc_lld_send_cmd_none                             build/obj/sdc_lld.o
                                                  build/obj/sdc.o
sdc_lld_send_cmd_short                            build/obj/sdc_lld.o
                                                  build/obj/sdc.o
sdc_lld_send_cmd_short_crc                        build/obj/sdc_lld.o
                                                  build/obj/sdc.o
sdc_lld_set_bus_mode                              build/obj/sdc_lld.o
                                                  build/obj/sdc.o
sdc_lld_set_data_clk                              build/obj/sdc_lld.o
                                                  build/obj/sdc.o
sdc_lld_start                                     build/obj/sdc_lld.o
                                                  build/obj/sdc.o
sdc_lld_start_clk                                 build/obj/sdc_lld.o
                                                  build/obj/sdc.o
sdc_lld_stop                                      build/obj/sdc_lld.o
                                                  build/obj/sdc.o
sdc_lld_stop_clk                                  build/obj/sdc_lld.o
                                                  build/obj/sdc.o
sdc_lld_sync                                      build/obj/sdc_lld.o
                                                  build/obj/sdc.o
sdc_lld_write                                     build/obj/sdc_lld.o
                                                  build/obj/sdc.o
sdc_lld_write_aligned                             build/obj/sdc_lld.o
sdcardInit                                        build/obj/sdcard.o
                                                  build/obj/main.o
sdcardIsMounted                                   build/obj/sdcard.o
                                                  build/obj/main.o
sdcardMount                                       build/obj/sdcard.o
sdcardUMount                                      build/obj/sdcard.o
sdcard_fbuff                                      build/obj/sdcard.o
sduConfigureHookI                                 build/obj/serial_usb.o
sduDataReceived                                   build/obj/serial_usb.o
sduDataTransmitted                                build/obj/serial_usb.o
sduInit                                           build/obj/serial_usb.o
                                                  build/obj/hal.o
sduInterruptTransmitted                           build/obj/serial_usb.o
sduObjectInit                                     build/obj/serial_usb.o
sduRequestsHook                                   build/obj/serial_usb.o
sduStart                                          build/obj/serial_usb.o
sduStop                                           build/obj/serial_usb.o
setlocale                                         c:/chibistudio/tools/gnu tools arm embedded/4.7 2014q2/bin/../lib/gcc/arm-none-eabi/4.7.4/../../../../arm-none-eabi/lib/armv7e-m\libg.a(lib_a-locale.o)
shellCreate                                       build/obj/shell.o
                                                  build/obj/console.o
shellCreateStatic                                 build/obj/shell.o
shellExit                                         build/obj/shell.o
shellGetLine                                      build/obj/shell.o
shellInit                                         build/obj/shell.o
                                                  build/obj/console.o
shell_terminated                                  build/obj/shell.o
speedCalc                                         build/obj/speed.o
                                                  build/obj/main.o
speedGetLastPeriod                                build/obj/speed.o
speedGetPeriodNumber                              build/obj/speed.o
speedGetRpm                                       build/obj/speed.o
                                                  build/obj/cruise.o
speedInit                                         build/obj/speed.o
                                                  build/obj/main.o
spiAcquireBus                                     build/obj/spi.o
spiExchange                                       build/obj/spi.o
spiIgnore                                         build/obj/spi.o
spiInit                                           build/obj/spi.o
                                                  build/obj/hal.o
spiObjectInit                                     build/obj/spi.o
                                                  build/obj/spi_lld.o
spiReceive                                        build/obj/spi.o
spiReleaseBus                                     build/obj/spi.o
spiSelect                                         build/obj/spi.o
spiSend                                           build/obj/spi.o
spiStart                                          build/obj/spi.o
spiStartExchange                                  build/obj/spi.o
spiStartIgnore                                    build/obj/spi.o
spiStartReceive                                   build/obj/spi.o
spiStartSend                                      build/obj/spi.o
spiStop                                           build/obj/spi.o
spiUnselect                                       build/obj/spi.o
spi_lld_exchange                                  build/obj/spi_lld.o
                                                  build/obj/spi.o
spi_lld_ignore                                    build/obj/spi_lld.o
                                                  build/obj/spi.o
spi_lld_init                                      build/obj/spi_lld.o
                                                  build/obj/spi.o
spi_lld_polled_exchange                           build/obj/spi_lld.o
spi_lld_receive                                   build/obj/spi_lld.o
                                                  build/obj/spi.o
spi_lld_select                                    build/obj/spi_lld.o
                                                  build/obj/spi.o
spi_lld_send                                      build/obj/spi_lld.o
                                                  build/obj/spi.o
spi_lld_start                                     build/obj/spi_lld.o
                                                  build/obj/spi.o
spi_lld_stop                                      build/obj/spi_lld.o
                                                  build/obj/spi.o
spi_lld_unselect                                  build/obj/spi_lld.o
                                                  build/obj/spi.o
sprintf                                           c:/chibistudio/tools/gnu tools arm embedded/4.7 2014q2/bin/../lib/gcc/arm-none-eabi/4.7.4/../../../../arm-none-eabi/lib/armv7e-m\libg.a(lib_a-sprintf.o)
                                                  c:/chibistudio/tools/gnu tools arm embedded/4.7 2014q2/bin/../lib/gcc/arm-none-eabi/4.7.4/../../../../arm-none-eabi/lib/armv7e-m\libg.a(lib_a-asctime_r.o)
stm32_clock_init                                  build/obj/hal_lld.o
                                                  build/obj/board.o
strcasecmp                                        c:/chibistudio/tools/gnu tools arm embedded/4.7 2014q2/bin/../lib/gcc/arm-none-eabi/4.7.4/../../../../arm-none-eabi/lib/armv7e-m\libg.a(lib_a-strcasecmp.o)
                                                  build/obj/shell.o
strcmp                                            c:/chibistudio/tools/gnu tools arm embedded/4.7 2014q2/bin/../lib/gcc/arm-none-eabi/4.7.4/../../../../arm-none-eabi/lib/armv7e-m\libg.a(lib_a-strcmp.o)
                                                  c:/chibistudio/tools/gnu tools arm embedded/4.7 2014q2/bin/../lib/gcc/arm-none-eabi/4.7.4/../../../../arm-none-eabi/lib/armv7e-m\libg.a(lib_a-locale.o)
                                                  build/obj/dsp.o
                                                  build/obj/cruise.o
                                                  build/obj/can_comm.o
                                                  build/obj/console.o
strcpy                                            c:/chibistudio/tools/gnu tools arm embedded/4.7 2014q2/bin/../lib/gcc/arm-none-eabi/4.7.4/../../../../arm-none-eabi/lib/armv7e-m\libg.a(lib_a-strcpy.o)
                                                  build/obj/sdcard.o
strlen                                            c:/chibistudio/tools/gnu tools arm embedded/4.7 2014q2/bin/../lib/gcc/arm-none-eabi/4.7.4/../../../../arm-none-eabi/lib/armv7e-m\libg.a(lib_a-strlen.o)
                                                  c:/chibistudio/tools/gnu tools arm embedded/4.7 2014q2/bin/../lib/gcc/arm-none-eabi/4.7.4/../../../../arm-none-eabi/lib/armv7e-m\libg.a(lib_a-svfiprintf.o)
                                                  c:/chibistudio/tools/gnu tools arm embedded/4.7 2014q2/bin/../lib/gcc/arm-none-eabi/4.7.4/../../../../arm-none-eabi/lib/armv7e-m\libg.a(lib_a-svfprintf.o)
                                                  build/obj/sdcard.o
strpbrk                                           c:/chibistudio/tools/gnu tools arm embedded/4.7 2014q2/bin/../lib/gcc/arm-none-eabi/4.7.4/../../../../arm-none-eabi/lib/armv7e-m\libg.a(lib_a-strpbrk.o)
                                                  build/obj/shell.o
strspn                                            c:/chibistudio/tools/gnu tools arm embedded/4.7 2014q2/bin/../lib/gcc/arm-none-eabi/4.7.4/../../../../arm-none-eabi/lib/armv7e-m\libg.a(lib_a-strspn.o)
                                                  build/obj/shell.o
strtol                                            c:/chibistudio/tools/gnu tools arm embedded/4.7 2014q2/bin/../lib/gcc/arm-none-eabi/4.7.4/../../../../arm-none-eabi/lib/armv7e-m\libg.a(lib_a-strtol.o)
                                                  c:/chibistudio/tools/gnu tools arm embedded/4.7 2014q2/bin/../lib/gcc/arm-none-eabi/4.7.4/../../../../arm-none-eabi/lib/armv7e-m\libg.a(lib_a-atol.o)
test                                              build/obj/test.o
                                                  build/obj/testqueues.o
                                                  build/obj/testdyn.o
                                                  build/obj/testheap.o
                                                  build/obj/testmbox.o
test_cpu_pulse                                    build/obj/test.o
                                                  build/obj/testmtx.o
test_emit_token                                   build/obj/test.o
                                                  build/obj/testqueues.o
                                                  build/obj/testdyn.o
                                                  build/obj/testevt.o
                                                  build/obj/testmbox.o
                                                  build/obj/testmsg.o
                                                  build/obj/testmtx.o
                                                  build/obj/testsem.o
                                                  build/obj/testthd.o
test_print                                        build/obj/test.o
                                                  build/obj/testbmk.o
test_println                                      build/obj/test.o
                                                  build/obj/testbmk.o
test_printn                                       build/obj/test.o
                                                  build/obj/testbmk.o
test_start_timer                                  build/obj/test.o
                                                  build/obj/testbmk.o
test_terminate_threads                            build/obj/test.o
                                                  build/obj/testbmk.o
test_timer_done                                   build/obj/test.o
                                                  build/obj/testbmk.o
test_wait_threads                                 build/obj/test.o
                                                  build/obj/testbmk.o
                                                  build/obj/testqueues.o
                                                  build/obj/testdyn.o
                                                  build/obj/testevt.o
                                                  build/obj/testmtx.o
                                                  build/obj/testsem.o
                                                  build/obj/testthd.o
test_wait_tick                                    build/obj/test.o
                                                  build/obj/testbmk.o
                                                  build/obj/testevt.o
                                                  build/obj/testmtx.o
                                                  build/obj/testsem.o
                                                  build/obj/testthd.o
testbmk1                                          build/obj/testbmk.o
testbmk10                                         build/obj/testbmk.o
testbmk11                                         build/obj/testbmk.o
testbmk12                                         build/obj/testbmk.o
testbmk13                                         build/obj/testbmk.o
testbmk2                                          build/obj/testbmk.o
testbmk3                                          build/obj/testbmk.o
testbmk4                                          build/obj/testbmk.o
testbmk5                                          build/obj/testbmk.o
testbmk6                                          build/obj/testbmk.o
testbmk7                                          build/obj/testbmk.o
testbmk8                                          build/obj/testbmk.o
testbmk9                                          build/obj/testbmk.o
testdyn1                                          build/obj/testdyn.o
testdyn2                                          build/obj/testdyn.o
testdyn3                                          build/obj/testdyn.o
testevt1                                          build/obj/testevt.o
testevt2                                          build/obj/testevt.o
testevt3                                          build/obj/testevt.o
testheap1                                         build/obj/testheap.o
testmbox1                                         build/obj/testmbox.o
testmsg1                                          build/obj/testmsg.o
testmtx1                                          build/obj/testmtx.o
testmtx2                                          build/obj/testmtx.o
testmtx3                                          build/obj/testmtx.o
testmtx4                                          build/obj/testmtx.o
testmtx5                                          build/obj/testmtx.o
testmtx6                                          build/obj/testmtx.o
testmtx7                                          build/obj/testmtx.o
testmtx8                                          build/obj/testmtx.o
testpools1                                        build/obj/testpools.o
testqueues1                                       build/obj/testqueues.o
testqueues2                                       build/obj/testqueues.o
testsem1                                          build/obj/testsem.o
testsem2                                          build/obj/testsem.o
testsem3                                          build/obj/testsem.o
testsem4                                          build/obj/testsem.o
testthd1                                          build/obj/testthd.o
testthd2                                          build/obj/testthd.o
testthd3                                          build/obj/testthd.o
testthd4                                          build/obj/testthd.o
thread4                                           build/obj/testbmk.o
threads                                           build/obj/test.o
                                                  build/obj/testbmk.o
                                                  build/obj/testqueues.o
                                                  build/obj/testdyn.o
                                                  build/obj/testevt.o
                                                  build/obj/testmsg.o
                                                  build/obj/testmtx.o
                                                  build/obj/testsem.o
                                                  build/obj/testthd.o
tmInit                                            build/obj/tm.o
                                                  build/obj/hal.o
tmObjectInit                                      build/obj/tm.o
uart_commInit                                     build/obj/uart_comm.o
                                                  build/obj/main.o
usbDisableEndpointsI                              build/obj/usb.o
usbInit                                           build/obj/usb.o
                                                  build/obj/hal.o
usbInitEndpointI                                  build/obj/usb.o
usbObjectInit                                     build/obj/usb.o
                                                  build/obj/usb_lld.o
usbPrepareQueuedReceive                           build/obj/usb.o
                                                  build/obj/serial_usb.o
usbPrepareQueuedTransmit                          build/obj/usb.o
                                                  build/obj/serial_usb.o
usbPrepareReceive                                 build/obj/usb.o
usbPrepareTransmit                                build/obj/usb.o
usbStallReceiveI                                  build/obj/usb.o
usbStallTransmitI                                 build/obj/usb.o
usbStart                                          build/obj/usb.o
usbStartReceiveI                                  build/obj/usb.o
                                                  build/obj/serial_usb.o
usbStartTransmitI                                 build/obj/usb.o
                                                  build/obj/serial_usb.o
usbStop                                           build/obj/usb.o
usb_lld_clear_in                                  build/obj/usb_lld.o
                                                  build/obj/usb.o
usb_lld_clear_out                                 build/obj/usb_lld.o
                                                  build/obj/usb.o
usb_lld_disable_endpoints                         build/obj/usb_lld.o
                                                  build/obj/usb.o
usb_lld_get_status_in                             build/obj/usb_lld.o
                                                  build/obj/usb.o
usb_lld_get_status_out                            build/obj/usb_lld.o
                                                  build/obj/usb.o
usb_lld_init                                      build/obj/usb_lld.o
                                                  build/obj/usb.o
usb_lld_init_endpoint                             build/obj/usb_lld.o
                                                  build/obj/usb.o
usb_lld_prepare_receive                           build/obj/usb_lld.o
                                                  build/obj/usb.o
usb_lld_prepare_transmit                          build/obj/usb_lld.o
                                                  build/obj/usb.o
usb_lld_read_setup                                build/obj/usb_lld.o
                                                  build/obj/usb.o
usb_lld_reset                                     build/obj/usb_lld.o
                                                  build/obj/usb.o
usb_lld_set_address                               build/obj/usb_lld.o
                                                  build/obj/usb.o
usb_lld_stall_in                                  build/obj/usb_lld.o
                                                  build/obj/usb.o
usb_lld_stall_out                                 build/obj/usb_lld.o
                                                  build/obj/usb.o
usb_lld_start                                     build/obj/usb_lld.o
                                                  build/obj/usb.o
usb_lld_start_in                                  build/obj/usb_lld.o
                                                  build/obj/usb.o
usb_lld_start_out                                 build/obj/usb_lld.o
                                                  build/obj/usb.o
usb_lld_stop                                      build/obj/usb_lld.o
                                                  build/obj/usb.o
vtlist                                            build/obj/chvt.o
                                                  build/obj/light.o
                                                  build/obj/sdcard.o
                                                  build/obj/main.o
                                                  build/obj/shell.o
                                                  build/obj/testevt.o
                                                  build/obj/testmtx.o
                                                  build/obj/testsem.o
                                                  build/obj/testthd.o
                                                  build/obj/test.o
                                                  build/obj/chthreads.o
                                                  build/obj/chsys.o
wa                                                build/obj/test.o
                                                  build/obj/testbmk.o
                                                  build/obj/testqueues.o
                                                  build/obj/testdyn.o
                                                  build/obj/testpools.o
                                                  build/obj/testevt.o
                                                  build/obj/testmsg.o
                                                  build/obj/testmtx.o
                                                  build/obj/testsem.o
                                                  build/obj/testthd.o
