Archive member included because of file (symbol)

c:/program files (x86)/gnu tools arm embedded/4.9 2015q2/bin/../lib/gcc/arm-none-eabi/4.9.3/armv7e-m\libgcc.a(_arm_addsubdf3.o)
                              ../../build/obj/speed.o (__aeabi_dsub)
c:/program files (x86)/gnu tools arm embedded/4.9 2015q2/bin/../lib/gcc/arm-none-eabi/4.9.3/armv7e-m\libgcc.a(_arm_muldivdf3.o)
                              ../../build/obj/log.o (__aeabi_dmul)
c:/program files (x86)/gnu tools arm embedded/4.9 2015q2/bin/../lib/gcc/arm-none-eabi/4.9.3/armv7e-m\libgcc.a(_arm_cmpdf2.o)
                              ../../build/obj/speed.o (__aeabi_dcmplt)
c:/program files (x86)/gnu tools arm embedded/4.9 2015q2/bin/../lib/gcc/arm-none-eabi/4.9.3/armv7e-m\libgcc.a(_arm_fixdfsi.o)
                              ../../build/obj/log.o (__aeabi_d2iz)
c:/program files (x86)/gnu tools arm embedded/4.9 2015q2/bin/../lib/gcc/arm-none-eabi/4.9.3/armv7e-m\libgcc.a(_arm_fixunsdfsi.o)
                              ../../build/obj/speed.o (__aeabi_d2uiz)
c:/program files (x86)/gnu tools arm embedded/4.9 2015q2/bin/../lib/gcc/arm-none-eabi/4.9.3/../../../../arm-none-eabi/lib/armv7e-m\libg.a(lib_a-asctime.o)
                              ../../build/obj/console.o (asctime)
c:/program files (x86)/gnu tools arm embedded/4.9 2015q2/bin/../lib/gcc/arm-none-eabi/4.9.3/../../../../arm-none-eabi/lib/armv7e-m\libg.a(lib_a-asctime_r.o)
                              c:/program files (x86)/gnu tools arm embedded/4.9 2015q2/bin/../lib/gcc/arm-none-eabi/4.9.3/../../../../arm-none-eabi/lib/armv7e-m\libg.a(lib_a-asctime.o) (asctime_r)
c:/program files (x86)/gnu tools arm embedded/4.9 2015q2/bin/../lib/gcc/arm-none-eabi/4.9.3/../../../../arm-none-eabi/lib/armv7e-m\libg.a(lib_a-atof.o)
                              ../../build/obj/nmea.o (atof)
c:/program files (x86)/gnu tools arm embedded/4.9 2015q2/bin/../lib/gcc/arm-none-eabi/4.9.3/../../../../arm-none-eabi/lib/armv7e-m\libg.a(lib_a-atoi.o)
                              ../../build/obj/nmea.o (atoi)
c:/program files (x86)/gnu tools arm embedded/4.9 2015q2/bin/../lib/gcc/arm-none-eabi/4.9.3/../../../../arm-none-eabi/lib/armv7e-m\libg.a(lib_a-atol.o)
                              ../../build/obj/console.o (atol)
c:/program files (x86)/gnu tools arm embedded/4.9 2015q2/bin/../lib/gcc/arm-none-eabi/4.9.3/../../../../arm-none-eabi/lib/armv7e-m\libg.a(lib_a-impure.o)
                              c:/program files (x86)/gnu tools arm embedded/4.9 2015q2/bin/../lib/gcc/arm-none-eabi/4.9.3/../../../../arm-none-eabi/lib/armv7e-m\libg.a(lib_a-asctime.o) (_impure_ptr)
c:/program files (x86)/gnu tools arm embedded/4.9 2015q2/bin/../lib/gcc/arm-none-eabi/4.9.3/../../../../arm-none-eabi/lib/armv7e-m\libg.a(lib_a-lcltime_r.o)
                              ../../build/obj/chrtclib.o (localtime_r)
c:/program files (x86)/gnu tools arm embedded/4.9 2015q2/bin/../lib/gcc/arm-none-eabi/4.9.3/../../../../arm-none-eabi/lib/armv7e-m\libg.a(lib_a-memcmp.o)
                              ../../build/obj/sdcard.o (memcmp)
c:/program files (x86)/gnu tools arm embedded/4.9 2015q2/bin/../lib/gcc/arm-none-eabi/4.9.3/../../../../arm-none-eabi/lib/armv7e-m\libg.a(lib_a-memcpy.o)
                              ../../build/obj/sdc_lld.o (memcpy)
c:/program files (x86)/gnu tools arm embedded/4.9 2015q2/bin/../lib/gcc/arm-none-eabi/4.9.3/../../../../arm-none-eabi/lib/armv7e-m\libg.a(lib_a-memset.o)
                              ../../build/obj/usb.o (memset)
c:/program files (x86)/gnu tools arm embedded/4.9 2015q2/bin/../lib/gcc/arm-none-eabi/4.9.3/../../../../arm-none-eabi/lib/armv7e-m\libg.a(lib_a-mktime.o)
                              ../../build/obj/chrtclib.o (mktime)
c:/program files (x86)/gnu tools arm embedded/4.9 2015q2/bin/../lib/gcc/arm-none-eabi/4.9.3/../../../../arm-none-eabi/lib/armv7e-m\libg.a(lib_a-month_lengths.o)
                              c:/program files (x86)/gnu tools arm embedded/4.9 2015q2/bin/../lib/gcc/arm-none-eabi/4.9.3/../../../../arm-none-eabi/lib/armv7e-m\libg.a(lib_a-lcltime_r.o) (__month_lengths)
c:/program files (x86)/gnu tools arm embedded/4.9 2015q2/bin/../lib/gcc/arm-none-eabi/4.9.3/../../../../arm-none-eabi/lib/armv7e-m\libg.a(lib_a-reent.o)
                              ../../build/obj/console.o (errno)
c:/program files (x86)/gnu tools arm embedded/4.9 2015q2/bin/../lib/gcc/arm-none-eabi/4.9.3/../../../../arm-none-eabi/lib/armv7e-m\libg.a(lib_a-siprintf.o)
                              c:/program files (x86)/gnu tools arm embedded/4.9 2015q2/bin/../lib/gcc/arm-none-eabi/4.9.3/../../../../arm-none-eabi/lib/armv7e-m\libg.a(lib_a-asctime_r.o) (siprintf)
c:/program files (x86)/gnu tools arm embedded/4.9 2015q2/bin/../lib/gcc/arm-none-eabi/4.9.3/../../../../arm-none-eabi/lib/armv7e-m\libg.a(lib_a-strcasecmp.o)
                              ../../build/obj/shell2.o (strcasecmp)
c:/program files (x86)/gnu tools arm embedded/4.9 2015q2/bin/../lib/gcc/arm-none-eabi/4.9.3/../../../../arm-none-eabi/lib/armv7e-m\libg.a(lib_a-strcmp.o)
                              ../../build/obj/console.o (strcmp)
c:/program files (x86)/gnu tools arm embedded/4.9 2015q2/bin/../lib/gcc/arm-none-eabi/4.9.3/../../../../arm-none-eabi/lib/armv7e-m\libg.a(lib_a-strcpy.o)
                              ../../build/obj/sdcard.o (strcpy)
c:/program files (x86)/gnu tools arm embedded/4.9 2015q2/bin/../lib/gcc/arm-none-eabi/4.9.3/../../../../arm-none-eabi/lib/armv7e-m\libg.a(lib_a-strlen.o)
                              ../../build/obj/sdcard.o (strlen)
c:/program files (x86)/gnu tools arm embedded/4.9 2015q2/bin/../lib/gcc/arm-none-eabi/4.9.3/../../../../arm-none-eabi/lib/armv7e-m\libg.a(lib_a-strncpy.o)
                              ../../build/obj/nmea.o (strncpy)
c:/program files (x86)/gnu tools arm embedded/4.9 2015q2/bin/../lib/gcc/arm-none-eabi/4.9.3/../../../../arm-none-eabi/lib/armv7e-m\libg.a(lib_a-strpbrk.o)
                              ../../build/obj/shell2.o (strpbrk)
c:/program files (x86)/gnu tools arm embedded/4.9 2015q2/bin/../lib/gcc/arm-none-eabi/4.9.3/../../../../arm-none-eabi/lib/armv7e-m\libg.a(lib_a-strspn.o)
                              ../../build/obj/shell2.o (strspn)
c:/program files (x86)/gnu tools arm embedded/4.9 2015q2/bin/../lib/gcc/arm-none-eabi/4.9.3/../../../../arm-none-eabi/lib/armv7e-m\libg.a(lib_a-strtod.o)
                              c:/program files (x86)/gnu tools arm embedded/4.9 2015q2/bin/../lib/gcc/arm-none-eabi/4.9.3/../../../../arm-none-eabi/lib/armv7e-m\libg.a(lib_a-atof.o) (strtod)
c:/program files (x86)/gnu tools arm embedded/4.9 2015q2/bin/../lib/gcc/arm-none-eabi/4.9.3/../../../../arm-none-eabi/lib/armv7e-m\libg.a(lib_a-strtol.o)
                              c:/program files (x86)/gnu tools arm embedded/4.9 2015q2/bin/../lib/gcc/arm-none-eabi/4.9.3/../../../../arm-none-eabi/lib/armv7e-m\libg.a(lib_a-atoi.o) (_strtol_r)
c:/program files (x86)/gnu tools arm embedded/4.9 2015q2/bin/../lib/gcc/arm-none-eabi/4.9.3/../../../../arm-none-eabi/lib/armv7e-m\libg.a(lib_a-svfiprintf.o)
                              c:/program files (x86)/gnu tools arm embedded/4.9 2015q2/bin/../lib/gcc/arm-none-eabi/4.9.3/../../../../arm-none-eabi/lib/armv7e-m\libg.a(lib_a-siprintf.o) (_svfiprintf_r)
c:/program files (x86)/gnu tools arm embedded/4.9 2015q2/bin/../lib/gcc/arm-none-eabi/4.9.3/../../../../arm-none-eabi/lib/armv7e-m\libg.a(lib_a-tzcalc_limits.o)
                              c:/program files (x86)/gnu tools arm embedded/4.9 2015q2/bin/../lib/gcc/arm-none-eabi/4.9.3/../../../../arm-none-eabi/lib/armv7e-m\libg.a(lib_a-lcltime_r.o) (__tzcalc_limits)
c:/program files (x86)/gnu tools arm embedded/4.9 2015q2/bin/../lib/gcc/arm-none-eabi/4.9.3/../../../../arm-none-eabi/lib/armv7e-m\libg.a(lib_a-tzlock.o)
                              c:/program files (x86)/gnu tools arm embedded/4.9 2015q2/bin/../lib/gcc/arm-none-eabi/4.9.3/../../../../arm-none-eabi/lib/armv7e-m\libg.a(lib_a-lcltime_r.o) (__tz_lock)
c:/program files (x86)/gnu tools arm embedded/4.9 2015q2/bin/../lib/gcc/arm-none-eabi/4.9.3/../../../../arm-none-eabi/lib/armv7e-m\libg.a(lib_a-tzset.o)
                              c:/program files (x86)/gnu tools arm embedded/4.9 2015q2/bin/../lib/gcc/arm-none-eabi/4.9.3/../../../../arm-none-eabi/lib/armv7e-m\libg.a(lib_a-lcltime_r.o) (_tzset_unlocked)
c:/program files (x86)/gnu tools arm embedded/4.9 2015q2/bin/../lib/gcc/arm-none-eabi/4.9.3/../../../../arm-none-eabi/lib/armv7e-m\libg.a(lib_a-tzset_r.o)
                              c:/program files (x86)/gnu tools arm embedded/4.9 2015q2/bin/../lib/gcc/arm-none-eabi/4.9.3/../../../../arm-none-eabi/lib/armv7e-m\libg.a(lib_a-tzset.o) (_tzset_unlocked_r)
c:/program files (x86)/gnu tools arm embedded/4.9 2015q2/bin/../lib/gcc/arm-none-eabi/4.9.3/../../../../arm-none-eabi/lib/armv7e-m\libg.a(lib_a-tzvars.o)
                              c:/program files (x86)/gnu tools arm embedded/4.9 2015q2/bin/../lib/gcc/arm-none-eabi/4.9.3/../../../../arm-none-eabi/lib/armv7e-m\libg.a(lib_a-tzset_r.o) (_timezone)
c:/program files (x86)/gnu tools arm embedded/4.9 2015q2/bin/../lib/gcc/arm-none-eabi/4.9.3/../../../../arm-none-eabi/lib/armv7e-m\libg.a(lib_a-ctype_.o)
                              c:/program files (x86)/gnu tools arm embedded/4.9 2015q2/bin/../lib/gcc/arm-none-eabi/4.9.3/../../../../arm-none-eabi/lib/armv7e-m\libg.a(lib_a-strcasecmp.o) (__ctype_ptr__)
c:/program files (x86)/gnu tools arm embedded/4.9 2015q2/bin/../lib/gcc/arm-none-eabi/4.9.3/../../../../arm-none-eabi/lib/armv7e-m\libg.a(lib_a-div.o)
                              c:/program files (x86)/gnu tools arm embedded/4.9 2015q2/bin/../lib/gcc/arm-none-eabi/4.9.3/../../../../arm-none-eabi/lib/armv7e-m\libg.a(lib_a-mktime.o) (div)
c:/program files (x86)/gnu tools arm embedded/4.9 2015q2/bin/../lib/gcc/arm-none-eabi/4.9.3/../../../../arm-none-eabi/lib/armv7e-m\libg.a(lib_a-freer.o)
                              c:/program files (x86)/gnu tools arm embedded/4.9 2015q2/bin/../lib/gcc/arm-none-eabi/4.9.3/../../../../arm-none-eabi/lib/armv7e-m\libg.a(lib_a-reent.o) (_free_r)
c:/program files (x86)/gnu tools arm embedded/4.9 2015q2/bin/../lib/gcc/arm-none-eabi/4.9.3/../../../../arm-none-eabi/lib/armv7e-m\libg.a(lib_a-gdtoa-gethex.o)
                              c:/program files (x86)/gnu tools arm embedded/4.9 2015q2/bin/../lib/gcc/arm-none-eabi/4.9.3/../../../../arm-none-eabi/lib/armv7e-m\libg.a(lib_a-strtod.o) (__gethex)
c:/program files (x86)/gnu tools arm embedded/4.9 2015q2/bin/../lib/gcc/arm-none-eabi/4.9.3/../../../../arm-none-eabi/lib/armv7e-m\libg.a(lib_a-gdtoa-hexnan.o)
                              c:/program files (x86)/gnu tools arm embedded/4.9 2015q2/bin/../lib/gcc/arm-none-eabi/4.9.3/../../../../arm-none-eabi/lib/armv7e-m\libg.a(lib_a-strtod.o) (__hexnan)
c:/program files (x86)/gnu tools arm embedded/4.9 2015q2/bin/../lib/gcc/arm-none-eabi/4.9.3/../../../../arm-none-eabi/lib/armv7e-m\libg.a(lib_a-getenv_r.o)
                              c:/program files (x86)/gnu tools arm embedded/4.9 2015q2/bin/../lib/gcc/arm-none-eabi/4.9.3/../../../../arm-none-eabi/lib/armv7e-m\libg.a(lib_a-tzset_r.o) (_getenv_r)
c:/program files (x86)/gnu tools arm embedded/4.9 2015q2/bin/../lib/gcc/arm-none-eabi/4.9.3/../../../../arm-none-eabi/lib/armv7e-m\libg.a(lib_a-gettzinfo.o)
                              c:/program files (x86)/gnu tools arm embedded/4.9 2015q2/bin/../lib/gcc/arm-none-eabi/4.9.3/../../../../arm-none-eabi/lib/armv7e-m\libg.a(lib_a-lcltime_r.o) (__gettzinfo)
c:/program files (x86)/gnu tools arm embedded/4.9 2015q2/bin/../lib/gcc/arm-none-eabi/4.9.3/../../../../arm-none-eabi/lib/armv7e-m\libg.a(lib_a-gmtime_r.o)
                              c:/program files (x86)/gnu tools arm embedded/4.9 2015q2/bin/../lib/gcc/arm-none-eabi/4.9.3/../../../../arm-none-eabi/lib/armv7e-m\libg.a(lib_a-lcltime_r.o) (gmtime_r)
c:/program files (x86)/gnu tools arm embedded/4.9 2015q2/bin/../lib/gcc/arm-none-eabi/4.9.3/../../../../arm-none-eabi/lib/armv7e-m\libg.a(lib_a-locale.o)
                              c:/program files (x86)/gnu tools arm embedded/4.9 2015q2/bin/../lib/gcc/arm-none-eabi/4.9.3/../../../../arm-none-eabi/lib/armv7e-m\libg.a(lib_a-strtod.o) (_localeconv_r)
c:/program files (x86)/gnu tools arm embedded/4.9 2015q2/bin/../lib/gcc/arm-none-eabi/4.9.3/../../../../arm-none-eabi/lib/armv7e-m\libg.a(lib_a-malloc.o)
                              c:/program files (x86)/gnu tools arm embedded/4.9 2015q2/bin/../lib/gcc/arm-none-eabi/4.9.3/../../../../arm-none-eabi/lib/armv7e-m\libg.a(lib_a-tzset_r.o) (free)
c:/program files (x86)/gnu tools arm embedded/4.9 2015q2/bin/../lib/gcc/arm-none-eabi/4.9.3/../../../../arm-none-eabi/lib/armv7e-m\libg.a(lib_a-mallocr.o)
                              c:/program files (x86)/gnu tools arm embedded/4.9 2015q2/bin/../lib/gcc/arm-none-eabi/4.9.3/../../../../arm-none-eabi/lib/armv7e-m\libg.a(lib_a-svfiprintf.o) (_malloc_r)
c:/program files (x86)/gnu tools arm embedded/4.9 2015q2/bin/../lib/gcc/arm-none-eabi/4.9.3/../../../../arm-none-eabi/lib/armv7e-m\libg.a(lib_a-memchr.o)
                              c:/program files (x86)/gnu tools arm embedded/4.9 2015q2/bin/../lib/gcc/arm-none-eabi/4.9.3/../../../../arm-none-eabi/lib/armv7e-m\libg.a(lib_a-svfiprintf.o) (memchr)
c:/program files (x86)/gnu tools arm embedded/4.9 2015q2/bin/../lib/gcc/arm-none-eabi/4.9.3/../../../../arm-none-eabi/lib/armv7e-m\libg.a(lib_a-memmove.o)
                              c:/program files (x86)/gnu tools arm embedded/4.9 2015q2/bin/../lib/gcc/arm-none-eabi/4.9.3/../../../../arm-none-eabi/lib/armv7e-m\libg.a(lib_a-svfiprintf.o) (memmove)
c:/program files (x86)/gnu tools arm embedded/4.9 2015q2/bin/../lib/gcc/arm-none-eabi/4.9.3/../../../../arm-none-eabi/lib/armv7e-m\libg.a(lib_a-mlock.o)
                              c:/program files (x86)/gnu tools arm embedded/4.9 2015q2/bin/../lib/gcc/arm-none-eabi/4.9.3/../../../../arm-none-eabi/lib/armv7e-m\libg.a(lib_a-freer.o) (__malloc_lock)
c:/program files (x86)/gnu tools arm embedded/4.9 2015q2/bin/../lib/gcc/arm-none-eabi/4.9.3/../../../../arm-none-eabi/lib/armv7e-m\libg.a(lib_a-mprec.o)
                              c:/program files (x86)/gnu tools arm embedded/4.9 2015q2/bin/../lib/gcc/arm-none-eabi/4.9.3/../../../../arm-none-eabi/lib/armv7e-m\libg.a(lib_a-strtod.o) (_Balloc)
c:/program files (x86)/gnu tools arm embedded/4.9 2015q2/bin/../lib/gcc/arm-none-eabi/4.9.3/../../../../arm-none-eabi/lib/armv7e-m\libg.a(lib_a-reallocr.o)
                              c:/program files (x86)/gnu tools arm embedded/4.9 2015q2/bin/../lib/gcc/arm-none-eabi/4.9.3/../../../../arm-none-eabi/lib/armv7e-m\libg.a(lib_a-svfiprintf.o) (_realloc_r)
c:/program files (x86)/gnu tools arm embedded/4.9 2015q2/bin/../lib/gcc/arm-none-eabi/4.9.3/../../../../arm-none-eabi/lib/armv7e-m\libg.a(lib_a-s_fpclassify.o)
                              c:/program files (x86)/gnu tools arm embedded/4.9 2015q2/bin/../lib/gcc/arm-none-eabi/4.9.3/../../../../arm-none-eabi/lib/armv7e-m\libg.a(lib_a-strtod.o) (__fpclassifyd)
c:/program files (x86)/gnu tools arm embedded/4.9 2015q2/bin/../lib/gcc/arm-none-eabi/4.9.3/../../../../arm-none-eabi/lib/armv7e-m\libg.a(lib_a-sf_nan.o)
                              c:/program files (x86)/gnu tools arm embedded/4.9 2015q2/bin/../lib/gcc/arm-none-eabi/4.9.3/../../../../arm-none-eabi/lib/armv7e-m\libg.a(lib_a-strtod.o) (nanf)
c:/program files (x86)/gnu tools arm embedded/4.9 2015q2/bin/../lib/gcc/arm-none-eabi/4.9.3/../../../../arm-none-eabi/lib/armv7e-m\libg.a(lib_a-siscanf.o)
                              c:/program files (x86)/gnu tools arm embedded/4.9 2015q2/bin/../lib/gcc/arm-none-eabi/4.9.3/../../../../arm-none-eabi/lib/armv7e-m\libg.a(lib_a-tzset_r.o) (siscanf)
c:/program files (x86)/gnu tools arm embedded/4.9 2015q2/bin/../lib/gcc/arm-none-eabi/4.9.3/../../../../arm-none-eabi/lib/armv7e-m\libg.a(lib_a-stdio.o)
                              c:/program files (x86)/gnu tools arm embedded/4.9 2015q2/bin/../lib/gcc/arm-none-eabi/4.9.3/../../../../arm-none-eabi/lib/armv7e-m\libg.a(lib_a-siscanf.o) (__seofread)
c:/program files (x86)/gnu tools arm embedded/4.9 2015q2/bin/../lib/gcc/arm-none-eabi/4.9.3/../../../../arm-none-eabi/lib/armv7e-m\libg.a(lib_a-strncmp.o)
                              c:/program files (x86)/gnu tools arm embedded/4.9 2015q2/bin/../lib/gcc/arm-none-eabi/4.9.3/../../../../arm-none-eabi/lib/armv7e-m\libg.a(lib_a-strtod.o) (strncmp)
c:/program files (x86)/gnu tools arm embedded/4.9 2015q2/bin/../lib/gcc/arm-none-eabi/4.9.3/../../../../arm-none-eabi/lib/armv7e-m\libg.a(lib_a-strtoul.o)
                              c:/program files (x86)/gnu tools arm embedded/4.9 2015q2/bin/../lib/gcc/arm-none-eabi/4.9.3/../../../../arm-none-eabi/lib/armv7e-m\libg.a(lib_a-tzset_r.o) (strtoul)
c:/program files (x86)/gnu tools arm embedded/4.9 2015q2/bin/../lib/gcc/arm-none-eabi/4.9.3/../../../../arm-none-eabi/lib/armv7e-m\libg.a(lib_a-svfiscanf.o)
                              c:/program files (x86)/gnu tools arm embedded/4.9 2015q2/bin/../lib/gcc/arm-none-eabi/4.9.3/../../../../arm-none-eabi/lib/armv7e-m\libg.a(lib_a-siscanf.o) (__ssvfiscanf_r)
c:/program files (x86)/gnu tools arm embedded/4.9 2015q2/bin/../lib/gcc/arm-none-eabi/4.9.3/../../../../arm-none-eabi/lib/armv7e-m\libg.a(lib_a-ungetc.o)
                              c:/program files (x86)/gnu tools arm embedded/4.9 2015q2/bin/../lib/gcc/arm-none-eabi/4.9.3/../../../../arm-none-eabi/lib/armv7e-m\libg.a(lib_a-svfiscanf.o) (__submore)
c:/program files (x86)/gnu tools arm embedded/4.9 2015q2/bin/../lib/gcc/arm-none-eabi/4.9.3/../../../../arm-none-eabi/lib/armv7e-m\libg.a(lib_a-callocr.o)
                              c:/program files (x86)/gnu tools arm embedded/4.9 2015q2/bin/../lib/gcc/arm-none-eabi/4.9.3/../../../../arm-none-eabi/lib/armv7e-m\libg.a(lib_a-mprec.o) (_calloc_r)
c:/program files (x86)/gnu tools arm embedded/4.9 2015q2/bin/../lib/gcc/arm-none-eabi/4.9.3/../../../../arm-none-eabi/lib/armv7e-m\libg.a(lib_a-environ.o)
                              c:/program files (x86)/gnu tools arm embedded/4.9 2015q2/bin/../lib/gcc/arm-none-eabi/4.9.3/../../../../arm-none-eabi/lib/armv7e-m\libg.a(lib_a-getenv_r.o) (environ)
c:/program files (x86)/gnu tools arm embedded/4.9 2015q2/bin/../lib/gcc/arm-none-eabi/4.9.3/../../../../arm-none-eabi/lib/armv7e-m\libg.a(lib_a-envlock.o)
                              c:/program files (x86)/gnu tools arm embedded/4.9 2015q2/bin/../lib/gcc/arm-none-eabi/4.9.3/../../../../arm-none-eabi/lib/armv7e-m\libg.a(lib_a-getenv_r.o) (__env_lock)
c:/program files (x86)/gnu tools arm embedded/4.9 2015q2/bin/../lib/gcc/arm-none-eabi/4.9.3/../../../../arm-none-eabi/lib/armv7e-m\libg.a(lib_a-fflush.o)
                              c:/program files (x86)/gnu tools arm embedded/4.9 2015q2/bin/../lib/gcc/arm-none-eabi/4.9.3/../../../../arm-none-eabi/lib/armv7e-m\libg.a(lib_a-ungetc.o) (_fflush_r)
c:/program files (x86)/gnu tools arm embedded/4.9 2015q2/bin/../lib/gcc/arm-none-eabi/4.9.3/../../../../arm-none-eabi/lib/armv7e-m\libg.a(lib_a-findfp.o)
                              c:/program files (x86)/gnu tools arm embedded/4.9 2015q2/bin/../lib/gcc/arm-none-eabi/4.9.3/../../../../arm-none-eabi/lib/armv7e-m\libg.a(lib_a-ungetc.o) (__sinit)
c:/program files (x86)/gnu tools arm embedded/4.9 2015q2/bin/../lib/gcc/arm-none-eabi/4.9.3/../../../../arm-none-eabi/lib/armv7e-m\libg.a(lib_a-fwalk.o)
                              c:/program files (x86)/gnu tools arm embedded/4.9 2015q2/bin/../lib/gcc/arm-none-eabi/4.9.3/../../../../arm-none-eabi/lib/armv7e-m\libg.a(lib_a-findfp.o) (_fwalk)
c:/program files (x86)/gnu tools arm embedded/4.9 2015q2/bin/../lib/gcc/arm-none-eabi/4.9.3/../../../../arm-none-eabi/lib/armv7e-m\libg.a(lib_a-iswspace.o)
                              c:/program files (x86)/gnu tools arm embedded/4.9 2015q2/bin/../lib/gcc/arm-none-eabi/4.9.3/../../../../arm-none-eabi/lib/armv7e-m\libg.a(lib_a-svfiscanf.o) (iswspace)
c:/program files (x86)/gnu tools arm embedded/4.9 2015q2/bin/../lib/gcc/arm-none-eabi/4.9.3/../../../../arm-none-eabi/lib/armv7e-m\libg.a(lib_a-mbrtowc.o)
                              c:/program files (x86)/gnu tools arm embedded/4.9 2015q2/bin/../lib/gcc/arm-none-eabi/4.9.3/../../../../arm-none-eabi/lib/armv7e-m\libg.a(lib_a-svfiscanf.o) (_mbrtowc_r)
c:/program files (x86)/gnu tools arm embedded/4.9 2015q2/bin/../lib/gcc/arm-none-eabi/4.9.3/../../../../arm-none-eabi/lib/armv7e-m\libg.a(lib_a-mbtowc_r.o)
                              c:/program files (x86)/gnu tools arm embedded/4.9 2015q2/bin/../lib/gcc/arm-none-eabi/4.9.3/../../../../arm-none-eabi/lib/armv7e-m\libg.a(lib_a-mbrtowc.o) (__mbtowc)
c:/program files (x86)/gnu tools arm embedded/4.9 2015q2/bin/../lib/gcc/arm-none-eabi/4.9.3/../../../../arm-none-eabi/lib/armv7e-m\libg.a(lib_a-sccl.o)
                              c:/program files (x86)/gnu tools arm embedded/4.9 2015q2/bin/../lib/gcc/arm-none-eabi/4.9.3/../../../../arm-none-eabi/lib/armv7e-m\libg.a(lib_a-svfiscanf.o) (__sccl)
c:/program files (x86)/gnu tools arm embedded/4.9 2015q2/bin/../lib/gcc/arm-none-eabi/4.9.3/../../../../arm-none-eabi/lib/armv7e-m\libg.a(lib_a-strtoll_r.o)
                              c:/program files (x86)/gnu tools arm embedded/4.9 2015q2/bin/../lib/gcc/arm-none-eabi/4.9.3/../../../../arm-none-eabi/lib/armv7e-m\libg.a(lib_a-svfiscanf.o) (_strtoll_r)
c:/program files (x86)/gnu tools arm embedded/4.9 2015q2/bin/../lib/gcc/arm-none-eabi/4.9.3/../../../../arm-none-eabi/lib/armv7e-m\libg.a(lib_a-strtoull_r.o)
                              c:/program files (x86)/gnu tools arm embedded/4.9 2015q2/bin/../lib/gcc/arm-none-eabi/4.9.3/../../../../arm-none-eabi/lib/armv7e-m\libg.a(lib_a-svfiscanf.o) (_strtoull_r)
c:/program files (x86)/gnu tools arm embedded/4.9 2015q2/bin/../lib/gcc/arm-none-eabi/4.9.3/../../../../arm-none-eabi/lib/armv7e-m\libg.a(lib_a-fclose.o)
                              c:/program files (x86)/gnu tools arm embedded/4.9 2015q2/bin/../lib/gcc/arm-none-eabi/4.9.3/../../../../arm-none-eabi/lib/armv7e-m\libg.a(lib_a-findfp.o) (_fclose_r)
c:/program files (x86)/gnu tools arm embedded/4.9 2015q2/bin/../lib/gcc/arm-none-eabi/4.9.3/armv7e-m\libgcc.a(_arm_truncdfsf2.o)
                              c:/program files (x86)/gnu tools arm embedded/4.9 2015q2/bin/../lib/gcc/arm-none-eabi/4.9.3/../../../../arm-none-eabi/lib/armv7e-m\libg.a(lib_a-strtod.o) (__aeabi_d2f)
c:/program files (x86)/gnu tools arm embedded/4.9 2015q2/bin/../lib/gcc/arm-none-eabi/4.9.3/armv7e-m\libgcc.a(_aeabi_uldivmod.o)
                              c:/program files (x86)/gnu tools arm embedded/4.9 2015q2/bin/../lib/gcc/arm-none-eabi/4.9.3/../../../../arm-none-eabi/lib/armv7e-m\libg.a(lib_a-svfiprintf.o) (__aeabi_uldivmod)
c:/program files (x86)/gnu tools arm embedded/4.9 2015q2/bin/../lib/gcc/arm-none-eabi/4.9.3/armv7e-m\libgcc.a(bpabi.o)
                              c:/program files (x86)/gnu tools arm embedded/4.9 2015q2/bin/../lib/gcc/arm-none-eabi/4.9.3/armv7e-m\libgcc.a(_aeabi_uldivmod.o) (__gnu_uldivmod_helper)
c:/program files (x86)/gnu tools arm embedded/4.9 2015q2/bin/../lib/gcc/arm-none-eabi/4.9.3/armv7e-m\libgcc.a(_dvmd_tls.o)
                              c:/program files (x86)/gnu tools arm embedded/4.9 2015q2/bin/../lib/gcc/arm-none-eabi/4.9.3/armv7e-m\libgcc.a(_aeabi_uldivmod.o) (__aeabi_ldiv0)
c:/program files (x86)/gnu tools arm embedded/4.9 2015q2/bin/../lib/gcc/arm-none-eabi/4.9.3/armv7e-m\libgcc.a(_divdi3.o)
                              c:/program files (x86)/gnu tools arm embedded/4.9 2015q2/bin/../lib/gcc/arm-none-eabi/4.9.3/armv7e-m\libgcc.a(bpabi.o) (__divdi3)
c:/program files (x86)/gnu tools arm embedded/4.9 2015q2/bin/../lib/gcc/arm-none-eabi/4.9.3/armv7e-m\libgcc.a(_udivdi3.o)
                              c:/program files (x86)/gnu tools arm embedded/4.9 2015q2/bin/../lib/gcc/arm-none-eabi/4.9.3/armv7e-m\libgcc.a(bpabi.o) (__udivdi3)

Allocating common symbols
Common symbol       size              file

errno               0x4               c:/program files (x86)/gnu tools arm embedded/4.9 2015q2/bin/../lib/gcc/arm-none-eabi/4.9.3/../../../../arm-none-eabi/lib/armv7e-m\libg.a(lib_a-reent.o)

Discarded input sections

 .text          0x00000000        0x0 ../../build/obj/crt0.o
 .data          0x00000000        0x0 ../../build/obj/crt0.o
 .bss           0x00000000        0x0 ../../build/obj/crt0.o
 .text.__early_init
                0x00000000        0x4 ../../build/obj/crt0.o
 .text          0x00000000        0x0 ../../build/obj/vectors.o
 .data          0x00000000        0x0 ../../build/obj/vectors.o
 .bss           0x00000000        0x0 ../../build/obj/vectors.o
 .text          0x00000000        0x0 ../../build/obj/chcore.o
 .data          0x00000000        0x0 ../../build/obj/chcore.o
 .bss           0x00000000        0x0 ../../build/obj/chcore.o
 .text          0x00000000        0x0 ../../build/obj/chcore_v7m.o
 .data          0x00000000        0x0 ../../build/obj/chcore_v7m.o
 .bss           0x00000000        0x0 ../../build/obj/chcore_v7m.o
 .text          0x00000000        0x0 ../../build/obj/nvic.o
 .data          0x00000000        0x0 ../../build/obj/nvic.o
 .bss           0x00000000        0x0 ../../build/obj/nvic.o
 .text.nvicDisableVector
                0x00000000       0x40 ../../build/obj/nvic.o
 .text          0x00000000        0x0 ../../build/obj/chsys.o
 .data          0x00000000        0x0 ../../build/obj/chsys.o
 .bss           0x00000000        0x0 ../../build/obj/chsys.o
 .text          0x00000000        0x0 ../../build/obj/chdebug.o
 .data          0x00000000        0x0 ../../build/obj/chdebug.o
 .bss           0x00000000        0x0 ../../build/obj/chdebug.o
 .debug_info    0x00000000       0x79 ../../build/obj/chdebug.o
 .debug_abbrev  0x00000000       0x26 ../../build/obj/chdebug.o
 .debug_aranges
                0x00000000       0x18 ../../build/obj/chdebug.o
 .debug_line    0x00000000       0x1d ../../build/obj/chdebug.o
 .debug_str     0x00000000      0x1ce ../../build/obj/chdebug.o
 .comment       0x00000000       0x71 ../../build/obj/chdebug.o
 .ARM.attributes
                0x00000000       0x33 ../../build/obj/chdebug.o
 .text          0x00000000        0x0 ../../build/obj/chlists.o
 .data          0x00000000        0x0 ../../build/obj/chlists.o
 .bss           0x00000000        0x0 ../../build/obj/chlists.o
 .debug_info    0x00000000       0x79 ../../build/obj/chlists.o
 .debug_abbrev  0x00000000       0x26 ../../build/obj/chlists.o
 .debug_aranges
                0x00000000       0x18 ../../build/obj/chlists.o
 .debug_line    0x00000000       0x1d ../../build/obj/chlists.o
 .debug_str     0x00000000      0x1ce ../../build/obj/chlists.o
 .comment       0x00000000       0x71 ../../build/obj/chlists.o
 .ARM.attributes
                0x00000000       0x33 ../../build/obj/chlists.o
 .text          0x00000000        0x0 ../../build/obj/chvt.o
 .data          0x00000000        0x0 ../../build/obj/chvt.o
 .bss           0x00000000        0x0 ../../build/obj/chvt.o
 .text          0x00000000        0x0 ../../build/obj/chschd.o
 .data          0x00000000        0x0 ../../build/obj/chschd.o
 .bss           0x00000000        0x0 ../../build/obj/chschd.o
 .text          0x00000000        0x0 ../../build/obj/chthreads.o
 .data          0x00000000        0x0 ../../build/obj/chthreads.o
 .bss           0x00000000        0x0 ../../build/obj/chthreads.o
 .text          0x00000000        0x0 ../../build/obj/chdynamic.o
 .data          0x00000000        0x0 ../../build/obj/chdynamic.o
 .bss           0x00000000        0x0 ../../build/obj/chdynamic.o
 .text          0x00000000        0x0 ../../build/obj/chregistry.o
 .data          0x00000000        0x0 ../../build/obj/chregistry.o
 .bss           0x00000000        0x0 ../../build/obj/chregistry.o
 .text          0x00000000        0x0 ../../build/obj/chsem.o
 .data          0x00000000        0x0 ../../build/obj/chsem.o
 .bss           0x00000000        0x0 ../../build/obj/chsem.o
 .text.chSemWaitS
                0x00000000       0x34 ../../build/obj/chsem.o
 .text          0x00000000        0x0 ../../build/obj/chmtx.o
 .data          0x00000000        0x0 ../../build/obj/chmtx.o
 .bss           0x00000000        0x0 ../../build/obj/chmtx.o
 .text.chMtxTryLockS
                0x00000000       0x20 ../../build/obj/chmtx.o
 .text          0x00000000        0x0 ../../build/obj/chcond.o
 .data          0x00000000        0x0 ../../build/obj/chcond.o
 .bss           0x00000000        0x0 ../../build/obj/chcond.o
 .text          0x00000000        0x0 ../../build/obj/chevents.o
 .data          0x00000000        0x0 ../../build/obj/chevents.o
 .bss           0x00000000        0x0 ../../build/obj/chevents.o
 .text.chEvtGetAndClearFlags
                0x00000000       0x14 ../../build/obj/chevents.o
 .text.chEvtGetAndClearFlagsI
                0x00000000        0xc ../../build/obj/chevents.o
 .text          0x00000000        0x0 ../../build/obj/chmsg.o
 .data          0x00000000        0x0 ../../build/obj/chmsg.o
 .bss           0x00000000        0x0 ../../build/obj/chmsg.o
 .text          0x00000000        0x0 ../../build/obj/chmboxes.o
 .data          0x00000000        0x0 ../../build/obj/chmboxes.o
 .bss           0x00000000        0x0 ../../build/obj/chmboxes.o
 .text          0x00000000        0x0 ../../build/obj/chqueues.o
 .data          0x00000000        0x0 ../../build/obj/chqueues.o
 .bss           0x00000000        0x0 ../../build/obj/chqueues.o
 .text          0x00000000        0x0 ../../build/obj/chmemcore.o
 .data          0x00000000        0x0 ../../build/obj/chmemcore.o
 .bss           0x00000000        0x0 ../../build/obj/chmemcore.o
 .text.chCoreAllocI
                0x00000000       0x2c ../../build/obj/chmemcore.o
 .text          0x00000000        0x0 ../../build/obj/chheap.o
 .data          0x00000000        0x0 ../../build/obj/chheap.o
 .bss           0x00000000        0x0 ../../build/obj/chheap.o
 .text          0x00000000        0x0 ../../build/obj/chmempools.o
 .data          0x00000000        0x0 ../../build/obj/chmempools.o
 .bss           0x00000000        0x0 ../../build/obj/chmempools.o
 .text.chPoolAllocI
                0x00000000       0x18 ../../build/obj/chmempools.o
 .text.chPoolFreeI
                0x00000000        0x8 ../../build/obj/chmempools.o
 .text          0x00000000        0x0 ../../build/obj/test.o
 .data          0x00000000        0x0 ../../build/obj/test.o
 .bss           0x00000000        0x0 ../../build/obj/test.o
 .text._test_fail
                0x00000000       0x1c ../../build/obj/test.o
 .text          0x00000000        0x0 ../../build/obj/testthd.o
 .data          0x00000000        0x0 ../../build/obj/testthd.o
 .bss           0x00000000        0x0 ../../build/obj/testthd.o
 .text          0x00000000        0x0 ../../build/obj/testsem.o
 .data          0x00000000        0x0 ../../build/obj/testsem.o
 .bss           0x00000000        0x0 ../../build/obj/testsem.o
 .text          0x00000000        0x0 ../../build/obj/testmtx.o
 .data          0x00000000        0x0 ../../build/obj/testmtx.o
 .bss           0x00000000        0x0 ../../build/obj/testmtx.o
 .text          0x00000000        0x0 ../../build/obj/testmsg.o
 .data          0x00000000        0x0 ../../build/obj/testmsg.o
 .bss           0x00000000        0x0 ../../build/obj/testmsg.o
 .text          0x00000000        0x0 ../../build/obj/testmbox.o
 .data          0x00000000        0x0 ../../build/obj/testmbox.o
 .bss           0x00000000        0x0 ../../build/obj/testmbox.o
 .text          0x00000000        0x0 ../../build/obj/testevt.o
 .data          0x00000000        0x0 ../../build/obj/testevt.o
 .bss           0x00000000        0x0 ../../build/obj/testevt.o
 .text          0x00000000        0x0 ../../build/obj/testheap.o
 .data          0x00000000        0x0 ../../build/obj/testheap.o
 .bss           0x00000000        0x0 ../../build/obj/testheap.o
 .text          0x00000000        0x0 ../../build/obj/testpools.o
 .data          0x00000000        0x0 ../../build/obj/testpools.o
 .bss           0x00000000        0x0 ../../build/obj/testpools.o
 .text          0x00000000        0x0 ../../build/obj/testdyn.o
 .data          0x00000000        0x0 ../../build/obj/testdyn.o
 .bss           0x00000000        0x0 ../../build/obj/testdyn.o
 .text          0x00000000        0x0 ../../build/obj/testqueues.o
 .data          0x00000000        0x0 ../../build/obj/testqueues.o
 .bss           0x00000000        0x0 ../../build/obj/testqueues.o
 .text          0x00000000        0x0 ../../build/obj/testbmk.o
 .data          0x00000000        0x0 ../../build/obj/testbmk.o
 .bss           0x00000000        0x0 ../../build/obj/testbmk.o
 .text          0x00000000        0x0 ../../build/obj/hal.o
 .data          0x00000000        0x0 ../../build/obj/hal.o
 .bss           0x00000000        0x0 ../../build/obj/hal.o
 .text.halIsCounterWithin
                0x00000000       0x28 ../../build/obj/hal.o
 .text          0x00000000        0x0 ../../build/obj/adc.o
 .data          0x00000000        0x0 ../../build/obj/adc.o
 .bss           0x00000000        0x0 ../../build/obj/adc.o
 .text.adcStop  0x00000000       0x1c ../../build/obj/adc.o
 .text.adcStartConversion
                0x00000000       0x20 ../../build/obj/adc.o
 .text.adcStartConversionI
                0x00000000       0x14 ../../build/obj/adc.o
 .text.adcStopConversion
                0x00000000       0x34 ../../build/obj/adc.o
 .text.adcStopConversionI
                0x00000000       0x30 ../../build/obj/adc.o
 .text.adcAcquireBus
                0x00000000        0x8 ../../build/obj/adc.o
 .text.adcReleaseBus
                0x00000000        0x4 ../../build/obj/adc.o
 .text          0x00000000        0x0 ../../build/obj/can.o
 .data          0x00000000        0x0 ../../build/obj/can.o
 .bss           0x00000000        0x0 ../../build/obj/can.o
 .text.canStop  0x00000000       0x34 ../../build/obj/can.o
 .text.canSleep
                0x00000000       0x38 ../../build/obj/can.o
 .text.canWakeup
                0x00000000       0x38 ../../build/obj/can.o
 .text          0x00000000        0x0 ../../build/obj/ext.o
 .data          0x00000000        0x0 ../../build/obj/ext.o
 .bss           0x00000000        0x0 ../../build/obj/ext.o
 .debug_info    0x00000000       0xa0 ../../build/obj/ext.o
 .debug_abbrev  0x00000000       0x4b ../../build/obj/ext.o
 .debug_aranges
                0x00000000       0x18 ../../build/obj/ext.o
 .debug_line    0x00000000      0x12c ../../build/obj/ext.o
 .debug_str     0x00000000      0x1e6 ../../build/obj/ext.o
 .comment       0x00000000       0x71 ../../build/obj/ext.o
 .ARM.attributes
                0x00000000       0x33 ../../build/obj/ext.o
 .text          0x00000000        0x0 ../../build/obj/gpt.o
 .data          0x00000000        0x0 ../../build/obj/gpt.o
 .bss           0x00000000        0x0 ../../build/obj/gpt.o
 .text.gptStop  0x00000000       0x1c ../../build/obj/gpt.o
 .text.gptChangeInterval
                0x00000000       0x14 ../../build/obj/gpt.o
 .text.gptStartContinuous
                0x00000000       0x18 ../../build/obj/gpt.o
 .text.gptStartContinuousI
                0x00000000        0x8 ../../build/obj/gpt.o
 .text.gptStopTimer
                0x00000000       0x18 ../../build/obj/gpt.o
 .text.gptStopTimerI
                0x00000000        0x8 ../../build/obj/gpt.o
 .text.gptPolledDelay
                0x00000000       0x14 ../../build/obj/gpt.o
 .text          0x00000000        0x0 ../../build/obj/i2c.o
 .data          0x00000000        0x0 ../../build/obj/i2c.o
 .bss           0x00000000        0x0 ../../build/obj/i2c.o
 .text.i2cStop  0x00000000       0x1c ../../build/obj/i2c.o
 .text.i2cGetErrors
                0x00000000        0x4 ../../build/obj/i2c.o
 .text.i2cMasterReceiveTimeout
                0x00000000       0x34 ../../build/obj/i2c.o
 .text          0x00000000        0x0 ../../build/obj/icu.o
 .data          0x00000000        0x0 ../../build/obj/icu.o
 .bss           0x00000000        0x0 ../../build/obj/icu.o
 .text.icuStop  0x00000000       0x1c ../../build/obj/icu.o
 .text.icuDisable
                0x00000000       0x1c ../../build/obj/icu.o
 .text          0x00000000        0x0 ../../build/obj/mac.o
 .data          0x00000000        0x0 ../../build/obj/mac.o
 .bss           0x00000000        0x0 ../../build/obj/mac.o
 .debug_info    0x00000000       0xa0 ../../build/obj/mac.o
 .debug_abbrev  0x00000000       0x4b ../../build/obj/mac.o
 .debug_aranges
                0x00000000       0x18 ../../build/obj/mac.o
 .debug_line    0x00000000      0x12c ../../build/obj/mac.o
 .debug_str     0x00000000      0x1e6 ../../build/obj/mac.o
 .comment       0x00000000       0x71 ../../build/obj/mac.o
 .ARM.attributes
                0x00000000       0x33 ../../build/obj/mac.o
 .text          0x00000000        0x0 ../../build/obj/mmc_spi.o
 .data          0x00000000        0x0 ../../build/obj/mmc_spi.o
 .bss           0x00000000        0x0 ../../build/obj/mmc_spi.o
 .debug_info    0x00000000       0xa0 ../../build/obj/mmc_spi.o
 .debug_abbrev  0x00000000       0x4b ../../build/obj/mmc_spi.o
 .debug_aranges
                0x00000000       0x18 ../../build/obj/mmc_spi.o
 .debug_line    0x00000000      0x12c ../../build/obj/mmc_spi.o
 .debug_str     0x00000000      0x1ea ../../build/obj/mmc_spi.o
 .comment       0x00000000       0x71 ../../build/obj/mmc_spi.o
 .ARM.attributes
                0x00000000       0x33 ../../build/obj/mmc_spi.o
 .text          0x00000000        0x0 ../../build/obj/mmcsd.o
 .data          0x00000000        0x0 ../../build/obj/mmcsd.o
 .bss           0x00000000        0x0 ../../build/obj/mmcsd.o
 .text          0x00000000        0x0 ../../build/obj/pal.o
 .data          0x00000000        0x0 ../../build/obj/pal.o
 .bss           0x00000000        0x0 ../../build/obj/pal.o
 .text.palReadBus
                0x00000000       0x10 ../../build/obj/pal.o
 .text.palWriteBus
                0x00000000       0x20 ../../build/obj/pal.o
 .text.palSetBusMode
                0x00000000        0xc ../../build/obj/pal.o
 .debug_info    0x00000000      0x2d0 ../../build/obj/pal.o
 .debug_abbrev  0x00000000      0x123 ../../build/obj/pal.o
 .debug_loc     0x00000000       0xb0 ../../build/obj/pal.o
 .debug_aranges
                0x00000000       0x30 ../../build/obj/pal.o
 .debug_ranges  0x00000000       0x20 ../../build/obj/pal.o
 .debug_line    0x00000000      0x247 ../../build/obj/pal.o
 .debug_str     0x00000000      0x2dc ../../build/obj/pal.o
 .comment       0x00000000       0x71 ../../build/obj/pal.o
 .debug_frame   0x00000000       0x50 ../../build/obj/pal.o
 .ARM.attributes
                0x00000000       0x33 ../../build/obj/pal.o
 .text          0x00000000        0x0 ../../build/obj/pwm.o
 .data          0x00000000        0x0 ../../build/obj/pwm.o
 .bss           0x00000000        0x0 ../../build/obj/pwm.o
 .text.pwmStop  0x00000000       0x1c ../../build/obj/pwm.o
 .text.pwmChangePeriod
                0x00000000       0x18 ../../build/obj/pwm.o
 .text          0x00000000        0x0 ../../build/obj/rtc.o
 .data          0x00000000        0x0 ../../build/obj/rtc.o
 .bss           0x00000000        0x0 ../../build/obj/rtc.o
 .text          0x00000000        0x0 ../../build/obj/sdc.o
 .data          0x00000000        0x0 ../../build/obj/sdc.o
 .bss           0x00000000        0x0 ../../build/obj/sdc.o
 .text.sdcStop  0x00000000       0x1c ../../build/obj/sdc.o
 .text.sdcGetAndClearErrors
                0x00000000       0x14 ../../build/obj/sdc.o
 .text          0x00000000        0x0 ../../build/obj/serial.o
 .data          0x00000000        0x0 ../../build/obj/serial.o
 .bss           0x00000000        0x0 ../../build/obj/serial.o
 .text.sdStop   0x00000000       0x30 ../../build/obj/serial.o
 .text.sdRequestDataI
                0x00000000       0x20 ../../build/obj/serial.o
 .text          0x00000000        0x0 ../../build/obj/serial_usb.o
 .data          0x00000000        0x0 ../../build/obj/serial_usb.o
 .bss           0x00000000        0x0 ../../build/obj/serial_usb.o
 .text.onotify  0x00000000       0x5c ../../build/obj/serial_usb.o
 .text.inotify  0x00000000       0x6c ../../build/obj/serial_usb.o
 .text.readt    0x00000000        0x8 ../../build/obj/serial_usb.o
 .text.read     0x00000000        0xc ../../build/obj/serial_usb.o
 .text.writet   0x00000000        0x8 ../../build/obj/serial_usb.o
 .text.write    0x00000000        0xc ../../build/obj/serial_usb.o
 .text.gett     0x00000000        0x8 ../../build/obj/serial_usb.o
 .text.get      0x00000000        0xc ../../build/obj/serial_usb.o
 .text.putt     0x00000000        0x8 ../../build/obj/serial_usb.o
 .text.put      0x00000000        0xc ../../build/obj/serial_usb.o
 .text.sduObjectInit
                0x00000000       0x4c ../../build/obj/serial_usb.o
 .text.sduStart
                0x00000000       0x34 ../../build/obj/serial_usb.o
 .text.sduStop  0x00000000       0x5c ../../build/obj/serial_usb.o
 .text.sduConfigureHookI
                0x00000000       0x4c ../../build/obj/serial_usb.o
 .text.sduRequestsHook
                0x00000000       0x40 ../../build/obj/serial_usb.o
 .text.sduDataTransmitted
                0x00000000       0x78 ../../build/obj/serial_usb.o
 .text.sduDataReceived
                0x00000000       0x64 ../../build/obj/serial_usb.o
 .text.sduInterruptTransmitted
                0x00000000        0x4 ../../build/obj/serial_usb.o
 .rodata.vmt    0x00000000       0x20 ../../build/obj/serial_usb.o
 .data.linecoding
                0x00000000        0x7 ../../build/obj/serial_usb.o
 .text          0x00000000        0x0 ../../build/obj/spi.o
 .data          0x00000000        0x0 ../../build/obj/spi.o
 .bss           0x00000000        0x0 ../../build/obj/spi.o
 .text.spiStart
                0x00000000       0x1c ../../build/obj/spi.o
 .text.spiStop  0x00000000       0x20 ../../build/obj/spi.o
 .text.spiSelect
                0x00000000       0x14 ../../build/obj/spi.o
 .text.spiUnselect
                0x00000000       0x14 ../../build/obj/spi.o
 .text.spiStartIgnore
                0x00000000       0x18 ../../build/obj/spi.o
 .text.spiStartExchange
                0x00000000       0x1c ../../build/obj/spi.o
 .text.spiStartSend
                0x00000000       0x18 ../../build/obj/spi.o
 .text.spiStartReceive
                0x00000000       0x18 ../../build/obj/spi.o
 .text.spiIgnore
                0x00000000       0x2c ../../build/obj/spi.o
 .text.spiExchange
                0x00000000       0x30 ../../build/obj/spi.o
 .text.spiSend  0x00000000       0x2c ../../build/obj/spi.o
 .text.spiReceive
                0x00000000       0x2c ../../build/obj/spi.o
 .text.spiAcquireBus
                0x00000000        0x8 ../../build/obj/spi.o
 .text.spiReleaseBus
                0x00000000        0x4 ../../build/obj/spi.o
 .text          0x00000000        0x0 ../../build/obj/tm.o
 .data          0x00000000        0x0 ../../build/obj/tm.o
 .bss           0x00000000        0x0 ../../build/obj/tm.o
 .text.tmObjectInit
                0x00000000       0x20 ../../build/obj/tm.o
 .text          0x00000000        0x0 ../../build/obj/uart.o
 .data          0x00000000        0x0 ../../build/obj/uart.o
 .bss           0x00000000        0x0 ../../build/obj/uart.o
 .debug_info    0x00000000       0xa0 ../../build/obj/uart.o
 .debug_abbrev  0x00000000       0x4b ../../build/obj/uart.o
 .debug_aranges
                0x00000000       0x18 ../../build/obj/uart.o
 .debug_line    0x00000000      0x12c ../../build/obj/uart.o
 .debug_str     0x00000000      0x1e7 ../../build/obj/uart.o
 .comment       0x00000000       0x71 ../../build/obj/uart.o
 .ARM.attributes
                0x00000000       0x33 ../../build/obj/uart.o
 .text          0x00000000        0x0 ../../build/obj/usb.o
 .data          0x00000000        0x0 ../../build/obj/usb.o
 .bss           0x00000000        0x0 ../../build/obj/usb.o
 .text.usbStart
                0x00000000       0x28 ../../build/obj/usb.o
 .text.usbStop  0x00000000       0x1c ../../build/obj/usb.o
 .text.usbInitEndpointI
                0x00000000       0x34 ../../build/obj/usb.o
 .text.usbDisableEndpointsI
                0x00000000       0x24 ../../build/obj/usb.o
 .text.usbPrepareReceive
                0x00000000       0x1c ../../build/obj/usb.o
 .text.usbPrepareTransmit
                0x00000000       0x1c ../../build/obj/usb.o
 .text.usbPrepareQueuedReceive
                0x00000000       0x1c ../../build/obj/usb.o
 .text.usbPrepareQueuedTransmit
                0x00000000       0x1c ../../build/obj/usb.o
 .text.usbStallReceiveI
                0x00000000       0x18 ../../build/obj/usb.o
 .text.usbStallTransmitI
                0x00000000       0x18 ../../build/obj/usb.o
 .text          0x00000000        0x0 ../../build/obj/stm32_dma.o
 .data          0x00000000        0x0 ../../build/obj/stm32_dma.o
 .bss           0x00000000        0x0 ../../build/obj/stm32_dma.o
 .text.dmaStreamRelease
                0x00000000       0x44 ../../build/obj/stm32_dma.o
 .text          0x00000000        0x0 ../../build/obj/hal_lld.o
 .data          0x00000000        0x0 ../../build/obj/hal_lld.o
 .bss           0x00000000        0x0 ../../build/obj/hal_lld.o
 .text          0x00000000        0x0 ../../build/obj/adc_lld.o
 .data          0x00000000        0x0 ../../build/obj/adc_lld.o
 .bss           0x00000000        0x0 ../../build/obj/adc_lld.o
 .text.adc_lld_stop
                0x00000000       0x4c ../../build/obj/adc_lld.o
 .text.adcSTM32EnableTSVREFE
                0x00000000       0x10 ../../build/obj/adc_lld.o
 .text.adcSTM32DisableTSVREFE
                0x00000000       0x10 ../../build/obj/adc_lld.o
 .text.adcSTM32EnableVBATE
                0x00000000       0x10 ../../build/obj/adc_lld.o
 .text.adcSTM32DisableVBATE
                0x00000000       0x10 ../../build/obj/adc_lld.o
 .text          0x00000000        0x0 ../../build/obj/ext_lld_isr.o
 .data          0x00000000        0x0 ../../build/obj/ext_lld_isr.o
 .bss           0x00000000        0x0 ../../build/obj/ext_lld_isr.o
 .debug_info    0x00000000       0xa0 ../../build/obj/ext_lld_isr.o
 .debug_abbrev  0x00000000       0x4b ../../build/obj/ext_lld_isr.o
 .debug_aranges
                0x00000000       0x18 ../../build/obj/ext_lld_isr.o
 .debug_line    0x00000000      0x12c ../../build/obj/ext_lld_isr.o
 .debug_str     0x00000000      0x1fe ../../build/obj/ext_lld_isr.o
 .comment       0x00000000       0x71 ../../build/obj/ext_lld_isr.o
 .ARM.attributes
                0x00000000       0x33 ../../build/obj/ext_lld_isr.o
 .text          0x00000000        0x0 ../../build/obj/can_lld.o
 .data          0x00000000        0x0 ../../build/obj/can_lld.o
 .bss           0x00000000        0x0 ../../build/obj/can_lld.o
 .text.can_lld_stop
                0x00000000       0x50 ../../build/obj/can_lld.o
 .text.can_lld_sleep
                0x00000000        0xc ../../build/obj/can_lld.o
 .text.can_lld_wakeup
                0x00000000        0xc ../../build/obj/can_lld.o
 .text.canSTM32SetFilters
                0x00000000        0x4 ../../build/obj/can_lld.o
 .text          0x00000000        0x0 ../../build/obj/ext_lld.o
 .data          0x00000000        0x0 ../../build/obj/ext_lld.o
 .bss           0x00000000        0x0 ../../build/obj/ext_lld.o
 .debug_info    0x00000000       0xa0 ../../build/obj/ext_lld.o
 .debug_abbrev  0x00000000       0x4b ../../build/obj/ext_lld.o
 .debug_aranges
                0x00000000       0x18 ../../build/obj/ext_lld.o
 .debug_line    0x00000000      0x12c ../../build/obj/ext_lld.o
 .debug_str     0x00000000      0x1f6 ../../build/obj/ext_lld.o
 .comment       0x00000000       0x71 ../../build/obj/ext_lld.o
 .ARM.attributes
                0x00000000       0x33 ../../build/obj/ext_lld.o
 .text          0x00000000        0x0 ../../build/obj/mac_lld.o
 .data          0x00000000        0x0 ../../build/obj/mac_lld.o
 .bss           0x00000000        0x0 ../../build/obj/mac_lld.o
 .debug_info    0x00000000       0xa0 ../../build/obj/mac_lld.o
 .debug_abbrev  0x00000000       0x4b ../../build/obj/mac_lld.o
 .debug_aranges
                0x00000000       0x18 ../../build/obj/mac_lld.o
 .debug_line    0x00000000      0x12c ../../build/obj/mac_lld.o
 .debug_str     0x00000000      0x1f6 ../../build/obj/mac_lld.o
 .comment       0x00000000       0x71 ../../build/obj/mac_lld.o
 .ARM.attributes
                0x00000000       0x33 ../../build/obj/mac_lld.o
 .text          0x00000000        0x0 ../../build/obj/sdc_lld.o
 .data          0x00000000        0x0 ../../build/obj/sdc_lld.o
 .bss           0x00000000        0x0 ../../build/obj/sdc_lld.o
 .text.sdc_lld_stop
                0x00000000       0x38 ../../build/obj/sdc_lld.o
 .text          0x00000000        0x0 ../../build/obj/pal_lld.o
 .data          0x00000000        0x0 ../../build/obj/pal_lld.o
 .bss           0x00000000        0x0 ../../build/obj/pal_lld.o
 .text._pal_lld_setgroupmode
                0x00000000       0xac ../../build/obj/pal_lld.o
 .text          0x00000000        0x0 ../../build/obj/i2c_lld.o
 .data          0x00000000        0x0 ../../build/obj/i2c_lld.o
 .bss           0x00000000        0x0 ../../build/obj/i2c_lld.o
 .text.i2c_lld_stop
                0x00000000       0x44 ../../build/obj/i2c_lld.o
 .text.i2c_lld_master_receive_timeout
                0x00000000       0xe0 ../../build/obj/i2c_lld.o
 .text          0x00000000        0x0 ../../build/obj/usb_lld.o
 .data          0x00000000        0x0 ../../build/obj/usb_lld.o
 .bss           0x00000000        0x0 ../../build/obj/usb_lld.o
 .text.usb_lld_pump
                0x00000000      0x34c ../../build/obj/usb_lld.o
 .text.otg_disable_ep.isra.0
                0x00000000       0x74 ../../build/obj/usb_lld.o
 .text.usb_lld_start
                0x00000000       0xe0 ../../build/obj/usb_lld.o
 .text.usb_lld_stop
                0x00000000       0x24 ../../build/obj/usb_lld.o
 .text.usb_lld_init_endpoint
                0x00000000      0x160 ../../build/obj/usb_lld.o
 .text.usb_lld_disable_endpoints
                0x00000000       0x10 ../../build/obj/usb_lld.o
 .rodata.str1.4
                0x00000000        0xd ../../build/obj/usb_lld.o
 .text          0x00000000        0x0 ../../build/obj/rtc_lld.o
 .data          0x00000000        0x0 ../../build/obj/rtc_lld.o
 .bss           0x00000000        0x0 ../../build/obj/rtc_lld.o
 .text.rtcSetPeriodicWakeup_v2
                0x00000000       0x44 ../../build/obj/rtc_lld.o
 .text.rtcGetPeriodicWakeup_v2
                0x00000000       0x14 ../../build/obj/rtc_lld.o
 .text          0x00000000        0x0 ../../build/obj/spi_lld.o
 .data          0x00000000        0x0 ../../build/obj/spi_lld.o
 .bss           0x00000000        0x0 ../../build/obj/spi_lld.o
 .text.spi_lld_serve_tx_interrupt
                0x00000000        0xc ../../build/obj/spi_lld.o
 .text.spi_lld_serve_rx_interrupt
                0x00000000       0x80 ../../build/obj/spi_lld.o
 .text.spi_lld_start
                0x00000000       0x98 ../../build/obj/spi_lld.o
 .text.spi_lld_stop
                0x00000000       0x3c ../../build/obj/spi_lld.o
 .text.spi_lld_select
                0x00000000       0x10 ../../build/obj/spi_lld.o
 .text.spi_lld_unselect
                0x00000000       0x10 ../../build/obj/spi_lld.o
 .text.spi_lld_ignore
                0x00000000       0x3c ../../build/obj/spi_lld.o
 .text.spi_lld_exchange
                0x00000000       0x38 ../../build/obj/spi_lld.o
 .text.spi_lld_send
                0x00000000       0x38 ../../build/obj/spi_lld.o
 .text.spi_lld_receive
                0x00000000       0x38 ../../build/obj/spi_lld.o
 .text.spi_lld_polled_exchange
                0x00000000       0x10 ../../build/obj/spi_lld.o
 .bss.dummyrx   0x00000000        0x2 ../../build/obj/spi_lld.o
 .text          0x00000000        0x0 ../../build/obj/gpt_lld.o
 .data          0x00000000        0x0 ../../build/obj/gpt_lld.o
 .bss           0x00000000        0x0 ../../build/obj/gpt_lld.o
 .text.gpt_lld_stop
                0x00000000       0x34 ../../build/obj/gpt_lld.o
 .text.gpt_lld_stop_timer
                0x00000000       0x14 ../../build/obj/gpt_lld.o
 .text.gpt_lld_polled_delay
                0x00000000       0x20 ../../build/obj/gpt_lld.o
 .text          0x00000000        0x0 ../../build/obj/icu_lld.o
 .data          0x00000000        0x0 ../../build/obj/icu_lld.o
 .bss           0x00000000        0x0 ../../build/obj/icu_lld.o
 .text.icu_lld_stop
                0x00000000       0x3c ../../build/obj/icu_lld.o
 .text.icu_lld_disable
                0x00000000       0x14 ../../build/obj/icu_lld.o
 .text          0x00000000        0x0 ../../build/obj/pwm_lld.o
 .data          0x00000000        0x0 ../../build/obj/pwm_lld.o
 .bss           0x00000000        0x0 ../../build/obj/pwm_lld.o
 .text.pwm_lld_stop
                0x00000000       0x50 ../../build/obj/pwm_lld.o
 .text          0x00000000        0x0 ../../build/obj/serial_lld.o
 .data          0x00000000        0x0 ../../build/obj/serial_lld.o
 .bss           0x00000000        0x0 ../../build/obj/serial_lld.o
 .text.sd_lld_stop
                0x00000000       0x64 ../../build/obj/serial_lld.o
 .text          0x00000000        0x0 ../../build/obj/uart_lld.o
 .data          0x00000000        0x0 ../../build/obj/uart_lld.o
 .bss           0x00000000        0x0 ../../build/obj/uart_lld.o
 .debug_info    0x00000000       0xa0 ../../build/obj/uart_lld.o
 .debug_abbrev  0x00000000       0x4b ../../build/obj/uart_lld.o
 .debug_aranges
                0x00000000       0x18 ../../build/obj/uart_lld.o
 .debug_line    0x00000000      0x12c ../../build/obj/uart_lld.o
 .debug_str     0x00000000      0x1ff ../../build/obj/uart_lld.o
 .comment       0x00000000       0x71 ../../build/obj/uart_lld.o
 .ARM.attributes
                0x00000000       0x33 ../../build/obj/uart_lld.o
 .text          0x00000000        0x0 ../../build/obj/board.o
 .data          0x00000000        0x0 ../../build/obj/board.o
 .bss           0x00000000        0x0 ../../build/obj/board.o
 .text          0x00000000        0x0 ../../build/obj/fatfs_diskio.o
 .data          0x00000000        0x0 ../../build/obj/fatfs_diskio.o
 .bss           0x00000000        0x0 ../../build/obj/fatfs_diskio.o
 .text          0x00000000        0x0 ../../build/obj/fatfs_syscall.o
 .data          0x00000000        0x0 ../../build/obj/fatfs_syscall.o
 .bss           0x00000000        0x0 ../../build/obj/fatfs_syscall.o
 .text          0x00000000        0x0 ../../build/obj/ff.o
 .data          0x00000000        0x0 ../../build/obj/ff.o
 .bss           0x00000000        0x0 ../../build/obj/ff.o
 .text.dir_remove
                0x00000000       0x54 ../../build/obj/ff.o
 .text.clust2sect
                0x00000000       0x18 ../../build/obj/ff.o
 .text.get_fat  0x00000000       0x14 ../../build/obj/ff.o
 .text.put_fat  0x00000000       0x20 ../../build/obj/ff.o
 .text.f_lseek  0x00000000      0x178 ../../build/obj/ff.o
 .text.f_truncate
                0x00000000       0xc8 ../../build/obj/ff.o
 .text.f_unlink
                0x00000000       0xd0 ../../build/obj/ff.o
 .text.f_mkdir  0x00000000      0x1c4 ../../build/obj/ff.o
 .text.f_chmod  0x00000000       0x74 ../../build/obj/ff.o
 .text.f_utime  0x00000000       0x68 ../../build/obj/ff.o
 .text.f_rename
                0x00000000      0x174 ../../build/obj/ff.o
 .text.f_mkfs   0x00000000      0x4fc ../../build/obj/ff.o
 .text.f_putc   0x00000000       0x28 ../../build/obj/ff.o
 .rodata.vst.5527
                0x00000000       0x16 ../../build/obj/ff.o
 .rodata.cst.5528
                0x00000000       0x16 ../../build/obj/ff.o
 .text          0x00000000        0x0 ../../build/obj/ccsbcs.o
 .data          0x00000000        0x0 ../../build/obj/ccsbcs.o
 .bss           0x00000000        0x0 ../../build/obj/ccsbcs.o
 .text          0x00000000        0x0 ../../build/obj/evtimer.o
 .data          0x00000000        0x0 ../../build/obj/evtimer.o
 .bss           0x00000000        0x0 ../../build/obj/evtimer.o
 .text.tmrcb    0x00000000       0x2c ../../build/obj/evtimer.o
 .text.evtStart
                0x00000000       0x2c ../../build/obj/evtimer.o
 .text.evtStop  0x00000000       0x18 ../../build/obj/evtimer.o
 .debug_info    0x00000000      0x6a6 ../../build/obj/evtimer.o
 .debug_abbrev  0x00000000      0x192 ../../build/obj/evtimer.o
 .debug_loc     0x00000000       0x9a ../../build/obj/evtimer.o
 .debug_aranges
                0x00000000       0x30 ../../build/obj/evtimer.o
 .debug_ranges  0x00000000       0x50 ../../build/obj/evtimer.o
 .debug_line    0x00000000      0x206 ../../build/obj/evtimer.o
 .debug_str     0x00000000      0x44a ../../build/obj/evtimer.o
 .comment       0x00000000       0x71 ../../build/obj/evtimer.o
 .debug_frame   0x00000000       0x64 ../../build/obj/evtimer.o
 .ARM.attributes
                0x00000000       0x33 ../../build/obj/evtimer.o
 .text          0x00000000        0x0 ../../build/obj/syscalls.o
 .data          0x00000000        0x0 ../../build/obj/syscalls.o
 .bss           0x00000000        0x0 ../../build/obj/syscalls.o
 .text._read_r  0x00000000       0x20 ../../build/obj/syscalls.o
 .text._lseek_r
                0x00000000        0x4 ../../build/obj/syscalls.o
 .text._write_r
                0x00000000       0x28 ../../build/obj/syscalls.o
 .text._close_r
                0x00000000        0x4 ../../build/obj/syscalls.o
 .text._fstat_r
                0x00000000       0x18 ../../build/obj/syscalls.o
 .text._isatty_r
                0x00000000        0x4 ../../build/obj/syscalls.o
 .text          0x00000000        0x0 ../../build/obj/shell2.o
 .data          0x00000000        0x0 ../../build/obj/shell2.o
 .bss           0x00000000        0x0 ../../build/obj/shell2.o
 .text.shellCreateStatic
                0x00000000       0x1c ../../build/obj/shell2.o
 .text          0x00000000        0x0 ../../build/obj/chprintf.o
 .data          0x00000000        0x0 ../../build/obj/chprintf.o
 .bss           0x00000000        0x0 ../../build/obj/chprintf.o
 .text.chsnprintf
                0x00000000       0x38 ../../build/obj/chprintf.o
 .text          0x00000000        0x0 ../../build/obj/chrtclib.o
 .data          0x00000000        0x0 ../../build/obj/chrtclib.o
 .bss           0x00000000        0x0 ../../build/obj/chrtclib.o
 .text.rtcSetTimeTm
                0x00000000       0x28 ../../build/obj/chrtclib.o
 .text.rtcGetTimeUnixUsec
                0x00000000       0x48 ../../build/obj/chrtclib.o
 .text          0x00000000        0x0 ../../build/obj/main.o
 .data          0x00000000        0x0 ../../build/obj/main.o
 .bss           0x00000000        0x0 ../../build/obj/main.o
 .text          0x00000000        0x0 ../../build/obj/console.o
 .data          0x00000000        0x0 ../../build/obj/console.o
 .bss           0x00000000        0x0 ../../build/obj/console.o
 .text._getpid  0x00000000        0x4 ../../build/obj/console.o
 .text._exit    0x00000000        0x4 ../../build/obj/console.o
 .text._kill    0x00000000       0x10 ../../build/obj/console.o
 .text.func_sleep
                0x00000000       0x34 ../../build/obj/console.o
 .text          0x00000000        0x0 ../../build/obj/eeprom.o
 .data          0x00000000        0x0 ../../build/obj/eeprom.o
 .bss           0x00000000        0x0 ../../build/obj/eeprom.o
 .text.eepromGetItembyName
                0x00000000       0x44 ../../build/obj/eeprom.o
 .text          0x00000000        0x0 ../../build/obj/sdcard.o
 .data          0x00000000        0x0 ../../build/obj/sdcard.o
 .bss           0x00000000        0x0 ../../build/obj/sdcard.o
 .text.fillbuffer
                0x00000000       0x10 ../../build/obj/sdcard.o
 .text.fillbuffers
                0x00000000       0x28 ../../build/obj/sdcard.o
 .text.cmd_debug
                0x00000000       0xf8 ../../build/obj/sdcard.o
 .text          0x00000000        0x0 ../../build/obj/log.o
 .data          0x00000000        0x0 ../../build/obj/log.o
 .bss           0x00000000        0x0 ../../build/obj/log.o
 .text.logStart
                0x00000000       0x40 ../../build/obj/log.o
 .text.logStop  0x00000000       0x24 ../../build/obj/log.o
 .text.logStartDownload
                0x00000000       0x28 ../../build/obj/log.o
 .text.logStopDownload
                0x00000000       0x20 ../../build/obj/log.o
 .text.logGetTime
                0x00000000       0x20 ../../build/obj/log.o
 .text          0x00000000        0x0 ../../build/obj/can_comm.o
 .data          0x00000000        0x0 ../../build/obj/can_comm.o
 .bss           0x00000000        0x0 ../../build/obj/can_comm.o
 .bss.canlight  0x00000000        0x1 ../../build/obj/can_comm.o
 .bss.canmessages
                0x00000000        0x1 ../../build/obj/can_comm.o
 .text          0x00000000        0x0 ../../build/obj/light.o
 .data          0x00000000        0x0 ../../build/obj/light.o
 .bss           0x00000000        0x0 ../../build/obj/light.o
 .text.lightBrakeOn
                0x00000000       0x20 ../../build/obj/light.o
 .text          0x00000000        0x0 ../../build/obj/speed.o
 .data          0x00000000        0x0 ../../build/obj/speed.o
 .bss           0x00000000        0x0 ../../build/obj/speed.o
 .text.speedGetLastPeriod
                0x00000000       0x18 ../../build/obj/speed.o
 .text.speedGetPeriodNumber
                0x00000000       0x18 ../../build/obj/speed.o
 .text          0x00000000        0x0 ../../build/obj/meas.o
 .data          0x00000000        0x0 ../../build/obj/meas.o
 .bss           0x00000000        0x0 ../../build/obj/meas.o
 .text.map      0x00000000       0x1c ../../build/obj/meas.o
 .text.meas_throttleSetMin
                0x00000000        0xc ../../build/obj/meas.o
 .text.meas_throttleSetMax
                0x00000000        0xc ../../build/obj/meas.o
 .text.meas_regen_brakeSetMin
                0x00000000        0xc ../../build/obj/meas.o
 .text.meas_regen_brakeSetMax
                0x00000000        0xc ../../build/obj/meas.o
 .text.meas_str_angleSetMin
                0x00000000        0xc ../../build/obj/meas.o
 .text.meas_str_angleSetMax
                0x00000000        0xc ../../build/obj/meas.o
 .text.mainTime
                0x00000000       0x14 ../../build/obj/meas.o
 .text.measInterpolateNTC
                0x00000000       0x1c ../../build/obj/meas.o
 .bss.ido       0x00000000        0x4 ../../build/obj/meas.o
 .text          0x00000000        0x0 ../../build/obj/cruise.o
 .data          0x00000000        0x0 ../../build/obj/cruise.o
 .bss           0x00000000        0x0 ../../build/obj/cruise.o
 .text.cruiseIndicator
                0x00000000        0xc ../../build/obj/cruise.o
 .text          0x00000000        0x0 ../../build/obj/dsp.o
 .data          0x00000000        0x0 ../../build/obj/dsp.o
 .bss           0x00000000        0x0 ../../build/obj/dsp.o
 .text.dsp_RefreshMidle
                0x00000000       0xf4 ../../build/obj/dsp.o
 .text.dspGetItem
                0x00000000        0x4 ../../build/obj/dsp.o
 .text.dsp_active
                0x00000000        0xc ../../build/obj/dsp.o
 .bss.cruise_assis
                0x00000000        0x1 ../../build/obj/dsp.o
 .bss.c         0x00000000        0x1 ../../build/obj/dsp.o
 .bss.db2       0x00000000        0x4 ../../build/obj/dsp.o
 .text          0x00000000        0x0 ../../build/obj/gfx.o
 .data          0x00000000        0x0 ../../build/obj/gfx.o
 .bss           0x00000000        0x0 ../../build/obj/gfx.o
 .text.media_Video
                0x00000000       0x5c ../../build/obj/gfx.o
 .text.gfx_Contrast
                0x00000000       0x40 ../../build/obj/gfx.o
 .text.file_LoadImageControl
                0x00000000       0x5c ../../build/obj/gfx.o
 .text.putstr   0x00000000       0x34 ../../build/obj/gfx.o
 .text.WriteChars
                0x00000000       0x20 ../../build/obj/gfx.o
 .text          0x00000000        0x0 ../../build/obj/uart_comm.o
 .data          0x00000000        0x0 ../../build/obj/uart_comm.o
 .bss           0x00000000        0x0 ../../build/obj/uart_comm.o
 .text          0x00000000        0x0 ../../build/obj/button.o
 .data          0x00000000        0x0 ../../build/obj/button.o
 .bss           0x00000000        0x0 ../../build/obj/button.o
 .text          0x00000000        0x0 ../../build/obj/brake.o
 .data          0x00000000        0x0 ../../build/obj/brake.o
 .bss           0x00000000        0x0 ../../build/obj/brake.o
 .text.brakeInit
                0x00000000        0xc ../../build/obj/brake.o
 .text.brakeCalc
                0x00000000        0x4 ../../build/obj/brake.o
 .text          0x00000000        0x0 ../../build/obj/safety.o
 .data          0x00000000        0x0 ../../build/obj/safety.o
 .bss           0x00000000        0x0 ../../build/obj/safety.o
 .text          0x00000000        0x0 ../../build/obj/calc.o
 .data          0x00000000        0x0 ../../build/obj/calc.o
 .bss           0x00000000        0x0 ../../build/obj/calc.o
 .text          0x00000000        0x0 ../../build/obj/nmea.o
 .data          0x00000000        0x0 ../../build/obj/nmea.o
 .bss           0x00000000        0x0 ../../build/obj/nmea.o
 .text.nmeaInitState
                0x00000000       0x20 ../../build/obj/nmea.o
 .text.nmeaGetGPGGACount
                0x00000000       0x1c ../../build/obj/nmea.o
 .data          0x00000000        0x0 c:/program files (x86)/gnu tools arm embedded/4.9 2015q2/bin/../lib/gcc/arm-none-eabi/4.9.3/armv7e-m\libgcc.a(_arm_addsubdf3.o)
 .bss           0x00000000        0x0 c:/program files (x86)/gnu tools arm embedded/4.9 2015q2/bin/../lib/gcc/arm-none-eabi/4.9.3/armv7e-m\libgcc.a(_arm_addsubdf3.o)
 .data          0x00000000        0x0 c:/program files (x86)/gnu tools arm embedded/4.9 2015q2/bin/../lib/gcc/arm-none-eabi/4.9.3/armv7e-m\libgcc.a(_arm_muldivdf3.o)
 .bss           0x00000000        0x0 c:/program files (x86)/gnu tools arm embedded/4.9 2015q2/bin/../lib/gcc/arm-none-eabi/4.9.3/armv7e-m\libgcc.a(_arm_muldivdf3.o)
 .data          0x00000000        0x0 c:/program files (x86)/gnu tools arm embedded/4.9 2015q2/bin/../lib/gcc/arm-none-eabi/4.9.3/armv7e-m\libgcc.a(_arm_cmpdf2.o)
 .bss           0x00000000        0x0 c:/program files (x86)/gnu tools arm embedded/4.9 2015q2/bin/../lib/gcc/arm-none-eabi/4.9.3/armv7e-m\libgcc.a(_arm_cmpdf2.o)
 .data          0x00000000        0x0 c:/program files (x86)/gnu tools arm embedded/4.9 2015q2/bin/../lib/gcc/arm-none-eabi/4.9.3/armv7e-m\libgcc.a(_arm_fixdfsi.o)
 .bss           0x00000000        0x0 c:/program files (x86)/gnu tools arm embedded/4.9 2015q2/bin/../lib/gcc/arm-none-eabi/4.9.3/armv7e-m\libgcc.a(_arm_fixdfsi.o)
 .data          0x00000000        0x0 c:/program files (x86)/gnu tools arm embedded/4.9 2015q2/bin/../lib/gcc/arm-none-eabi/4.9.3/armv7e-m\libgcc.a(_arm_fixunsdfsi.o)
 .bss           0x00000000        0x0 c:/program files (x86)/gnu tools arm embedded/4.9 2015q2/bin/../lib/gcc/arm-none-eabi/4.9.3/armv7e-m\libgcc.a(_arm_fixunsdfsi.o)
 .text          0x00000000        0x0 c:/program files (x86)/gnu tools arm embedded/4.9 2015q2/bin/../lib/gcc/arm-none-eabi/4.9.3/../../../../arm-none-eabi/lib/armv7e-m\libg.a(lib_a-asctime.o)
 .data          0x00000000        0x0 c:/program files (x86)/gnu tools arm embedded/4.9 2015q2/bin/../lib/gcc/arm-none-eabi/4.9.3/../../../../arm-none-eabi/lib/armv7e-m\libg.a(lib_a-asctime.o)
 .bss           0x00000000        0x0 c:/program files (x86)/gnu tools arm embedded/4.9 2015q2/bin/../lib/gcc/arm-none-eabi/4.9.3/../../../../arm-none-eabi/lib/armv7e-m\libg.a(lib_a-asctime.o)
 .text          0x00000000        0x0 c:/program files (x86)/gnu tools arm embedded/4.9 2015q2/bin/../lib/gcc/arm-none-eabi/4.9.3/../../../../arm-none-eabi/lib/armv7e-m\libg.a(lib_a-asctime_r.o)
 .data          0x00000000        0x0 c:/program files (x86)/gnu tools arm embedded/4.9 2015q2/bin/../lib/gcc/arm-none-eabi/4.9.3/../../../../arm-none-eabi/lib/armv7e-m\libg.a(lib_a-asctime_r.o)
 .bss           0x00000000        0x0 c:/program files (x86)/gnu tools arm embedded/4.9 2015q2/bin/../lib/gcc/arm-none-eabi/4.9.3/../../../../arm-none-eabi/lib/armv7e-m\libg.a(lib_a-asctime_r.o)
 .text          0x00000000        0x0 c:/program files (x86)/gnu tools arm embedded/4.9 2015q2/bin/../lib/gcc/arm-none-eabi/4.9.3/../../../../arm-none-eabi/lib/armv7e-m\libg.a(lib_a-atof.o)
 .data          0x00000000        0x0 c:/program files (x86)/gnu tools arm embedded/4.9 2015q2/bin/../lib/gcc/arm-none-eabi/4.9.3/../../../../arm-none-eabi/lib/armv7e-m\libg.a(lib_a-atof.o)
 .bss           0x00000000        0x0 c:/program files (x86)/gnu tools arm embedded/4.9 2015q2/bin/../lib/gcc/arm-none-eabi/4.9.3/../../../../arm-none-eabi/lib/armv7e-m\libg.a(lib_a-atof.o)
 .text          0x00000000        0x0 c:/program files (x86)/gnu tools arm embedded/4.9 2015q2/bin/../lib/gcc/arm-none-eabi/4.9.3/../../../../arm-none-eabi/lib/armv7e-m\libg.a(lib_a-atoi.o)
 .data          0x00000000        0x0 c:/program files (x86)/gnu tools arm embedded/4.9 2015q2/bin/../lib/gcc/arm-none-eabi/4.9.3/../../../../arm-none-eabi/lib/armv7e-m\libg.a(lib_a-atoi.o)
 .bss           0x00000000        0x0 c:/program files (x86)/gnu tools arm embedded/4.9 2015q2/bin/../lib/gcc/arm-none-eabi/4.9.3/../../../../arm-none-eabi/lib/armv7e-m\libg.a(lib_a-atoi.o)
 .text._atoi_r  0x00000000        0x8 c:/program files (x86)/gnu tools arm embedded/4.9 2015q2/bin/../lib/gcc/arm-none-eabi/4.9.3/../../../../arm-none-eabi/lib/armv7e-m\libg.a(lib_a-atoi.o)
 .text          0x00000000        0x0 c:/program files (x86)/gnu tools arm embedded/4.9 2015q2/bin/../lib/gcc/arm-none-eabi/4.9.3/../../../../arm-none-eabi/lib/armv7e-m\libg.a(lib_a-atol.o)
 .data          0x00000000        0x0 c:/program files (x86)/gnu tools arm embedded/4.9 2015q2/bin/../lib/gcc/arm-none-eabi/4.9.3/../../../../arm-none-eabi/lib/armv7e-m\libg.a(lib_a-atol.o)
 .bss           0x00000000        0x0 c:/program files (x86)/gnu tools arm embedded/4.9 2015q2/bin/../lib/gcc/arm-none-eabi/4.9.3/../../../../arm-none-eabi/lib/armv7e-m\libg.a(lib_a-atol.o)
 .text._atol_r  0x00000000        0x8 c:/program files (x86)/gnu tools arm embedded/4.9 2015q2/bin/../lib/gcc/arm-none-eabi/4.9.3/../../../../arm-none-eabi/lib/armv7e-m\libg.a(lib_a-atol.o)
 .text          0x00000000        0x0 c:/program files (x86)/gnu tools arm embedded/4.9 2015q2/bin/../lib/gcc/arm-none-eabi/4.9.3/../../../../arm-none-eabi/lib/armv7e-m\libg.a(lib_a-impure.o)
 .data          0x00000000        0x0 c:/program files (x86)/gnu tools arm embedded/4.9 2015q2/bin/../lib/gcc/arm-none-eabi/4.9.3/../../../../arm-none-eabi/lib/armv7e-m\libg.a(lib_a-impure.o)
 .bss           0x00000000        0x0 c:/program files (x86)/gnu tools arm embedded/4.9 2015q2/bin/../lib/gcc/arm-none-eabi/4.9.3/../../../../arm-none-eabi/lib/armv7e-m\libg.a(lib_a-impure.o)
 .rodata._global_impure_ptr
                0x00000000        0x4 c:/program files (x86)/gnu tools arm embedded/4.9 2015q2/bin/../lib/gcc/arm-none-eabi/4.9.3/../../../../arm-none-eabi/lib/armv7e-m\libg.a(lib_a-impure.o)
 .text          0x00000000        0x0 c:/program files (x86)/gnu tools arm embedded/4.9 2015q2/bin/../lib/gcc/arm-none-eabi/4.9.3/../../../../arm-none-eabi/lib/armv7e-m\libg.a(lib_a-lcltime_r.o)
 .data          0x00000000        0x0 c:/program files (x86)/gnu tools arm embedded/4.9 2015q2/bin/../lib/gcc/arm-none-eabi/4.9.3/../../../../arm-none-eabi/lib/armv7e-m\libg.a(lib_a-lcltime_r.o)
 .bss           0x00000000        0x0 c:/program files (x86)/gnu tools arm embedded/4.9 2015q2/bin/../lib/gcc/arm-none-eabi/4.9.3/../../../../arm-none-eabi/lib/armv7e-m\libg.a(lib_a-lcltime_r.o)
 .text          0x00000000        0x0 c:/program files (x86)/gnu tools arm embedded/4.9 2015q2/bin/../lib/gcc/arm-none-eabi/4.9.3/../../../../arm-none-eabi/lib/armv7e-m\libg.a(lib_a-memcmp.o)
 .data          0x00000000        0x0 c:/program files (x86)/gnu tools arm embedded/4.9 2015q2/bin/../lib/gcc/arm-none-eabi/4.9.3/../../../../arm-none-eabi/lib/armv7e-m\libg.a(lib_a-memcmp.o)
 .bss           0x00000000        0x0 c:/program files (x86)/gnu tools arm embedded/4.9 2015q2/bin/../lib/gcc/arm-none-eabi/4.9.3/../../../../arm-none-eabi/lib/armv7e-m\libg.a(lib_a-memcmp.o)
 .data          0x00000000        0x0 c:/program files (x86)/gnu tools arm embedded/4.9 2015q2/bin/../lib/gcc/arm-none-eabi/4.9.3/../../../../arm-none-eabi/lib/armv7e-m\libg.a(lib_a-memcpy.o)
 .bss           0x00000000        0x0 c:/program files (x86)/gnu tools arm embedded/4.9 2015q2/bin/../lib/gcc/arm-none-eabi/4.9.3/../../../../arm-none-eabi/lib/armv7e-m\libg.a(lib_a-memcpy.o)
 .text          0x00000000        0x0 c:/program files (x86)/gnu tools arm embedded/4.9 2015q2/bin/../lib/gcc/arm-none-eabi/4.9.3/../../../../arm-none-eabi/lib/armv7e-m\libg.a(lib_a-memset.o)
 .data          0x00000000        0x0 c:/program files (x86)/gnu tools arm embedded/4.9 2015q2/bin/../lib/gcc/arm-none-eabi/4.9.3/../../../../arm-none-eabi/lib/armv7e-m\libg.a(lib_a-memset.o)
 .bss           0x00000000        0x0 c:/program files (x86)/gnu tools arm embedded/4.9 2015q2/bin/../lib/gcc/arm-none-eabi/4.9.3/../../../../arm-none-eabi/lib/armv7e-m\libg.a(lib_a-memset.o)
 .text          0x00000000        0x0 c:/program files (x86)/gnu tools arm embedded/4.9 2015q2/bin/../lib/gcc/arm-none-eabi/4.9.3/../../../../arm-none-eabi/lib/armv7e-m\libg.a(lib_a-mktime.o)
 .data          0x00000000        0x0 c:/program files (x86)/gnu tools arm embedded/4.9 2015q2/bin/../lib/gcc/arm-none-eabi/4.9.3/../../../../arm-none-eabi/lib/armv7e-m\libg.a(lib_a-mktime.o)
 .bss           0x00000000        0x0 c:/program files (x86)/gnu tools arm embedded/4.9 2015q2/bin/../lib/gcc/arm-none-eabi/4.9.3/../../../../arm-none-eabi/lib/armv7e-m\libg.a(lib_a-mktime.o)
 .text          0x00000000        0x0 c:/program files (x86)/gnu tools arm embedded/4.9 2015q2/bin/../lib/gcc/arm-none-eabi/4.9.3/../../../../arm-none-eabi/lib/armv7e-m\libg.a(lib_a-month_lengths.o)
 .data          0x00000000        0x0 c:/program files (x86)/gnu tools arm embedded/4.9 2015q2/bin/../lib/gcc/arm-none-eabi/4.9.3/../../../../arm-none-eabi/lib/armv7e-m\libg.a(lib_a-month_lengths.o)
 .bss           0x00000000        0x0 c:/program files (x86)/gnu tools arm embedded/4.9 2015q2/bin/../lib/gcc/arm-none-eabi/4.9.3/../../../../arm-none-eabi/lib/armv7e-m\libg.a(lib_a-month_lengths.o)
 .text          0x00000000        0x0 c:/program files (x86)/gnu tools arm embedded/4.9 2015q2/bin/../lib/gcc/arm-none-eabi/4.9.3/../../../../arm-none-eabi/lib/armv7e-m\libg.a(lib_a-reent.o)
 .data          0x00000000        0x0 c:/program files (x86)/gnu tools arm embedded/4.9 2015q2/bin/../lib/gcc/arm-none-eabi/4.9.3/../../../../arm-none-eabi/lib/armv7e-m\libg.a(lib_a-reent.o)
 .bss           0x00000000        0x0 c:/program files (x86)/gnu tools arm embedded/4.9 2015q2/bin/../lib/gcc/arm-none-eabi/4.9.3/../../../../arm-none-eabi/lib/armv7e-m\libg.a(lib_a-reent.o)
 .text.cleanup_glue
                0x00000000       0x1c c:/program files (x86)/gnu tools arm embedded/4.9 2015q2/bin/../lib/gcc/arm-none-eabi/4.9.3/../../../../arm-none-eabi/lib/armv7e-m\libg.a(lib_a-reent.o)
 .text._reclaim_reent
                0x00000000       0x88 c:/program files (x86)/gnu tools arm embedded/4.9 2015q2/bin/../lib/gcc/arm-none-eabi/4.9.3/../../../../arm-none-eabi/lib/armv7e-m\libg.a(lib_a-reent.o)
 .debug_frame   0x00000000       0x58 c:/program files (x86)/gnu tools arm embedded/4.9 2015q2/bin/../lib/gcc/arm-none-eabi/4.9.3/../../../../arm-none-eabi/lib/armv7e-m\libg.a(lib_a-reent.o)
 .ARM.attributes
                0x00000000       0x2e c:/program files (x86)/gnu tools arm embedded/4.9 2015q2/bin/../lib/gcc/arm-none-eabi/4.9.3/../../../../arm-none-eabi/lib/armv7e-m\libg.a(lib_a-reent.o)
 COMMON         0x00000000        0x4 c:/program files (x86)/gnu tools arm embedded/4.9 2015q2/bin/../lib/gcc/arm-none-eabi/4.9.3/../../../../arm-none-eabi/lib/armv7e-m\libg.a(lib_a-reent.o)
 .text          0x00000000        0x0 c:/program files (x86)/gnu tools arm embedded/4.9 2015q2/bin/../lib/gcc/arm-none-eabi/4.9.3/../../../../arm-none-eabi/lib/armv7e-m\libg.a(lib_a-siprintf.o)
 .data          0x00000000        0x0 c:/program files (x86)/gnu tools arm embedded/4.9 2015q2/bin/../lib/gcc/arm-none-eabi/4.9.3/../../../../arm-none-eabi/lib/armv7e-m\libg.a(lib_a-siprintf.o)
 .bss           0x00000000        0x0 c:/program files (x86)/gnu tools arm embedded/4.9 2015q2/bin/../lib/gcc/arm-none-eabi/4.9.3/../../../../arm-none-eabi/lib/armv7e-m\libg.a(lib_a-siprintf.o)
 .text._siprintf_r
                0x00000000       0x44 c:/program files (x86)/gnu tools arm embedded/4.9 2015q2/bin/../lib/gcc/arm-none-eabi/4.9.3/../../../../arm-none-eabi/lib/armv7e-m\libg.a(lib_a-siprintf.o)
 .text          0x00000000        0x0 c:/program files (x86)/gnu tools arm embedded/4.9 2015q2/bin/../lib/gcc/arm-none-eabi/4.9.3/../../../../arm-none-eabi/lib/armv7e-m\libg.a(lib_a-strcasecmp.o)
 .data          0x00000000        0x0 c:/program files (x86)/gnu tools arm embedded/4.9 2015q2/bin/../lib/gcc/arm-none-eabi/4.9.3/../../../../arm-none-eabi/lib/armv7e-m\libg.a(lib_a-strcasecmp.o)
 .bss           0x00000000        0x0 c:/program files (x86)/gnu tools arm embedded/4.9 2015q2/bin/../lib/gcc/arm-none-eabi/4.9.3/../../../../arm-none-eabi/lib/armv7e-m\libg.a(lib_a-strcasecmp.o)
 .data          0x00000000        0x0 c:/program files (x86)/gnu tools arm embedded/4.9 2015q2/bin/../lib/gcc/arm-none-eabi/4.9.3/../../../../arm-none-eabi/lib/armv7e-m\libg.a(lib_a-strcmp.o)
 .bss           0x00000000        0x0 c:/program files (x86)/gnu tools arm embedded/4.9 2015q2/bin/../lib/gcc/arm-none-eabi/4.9.3/../../../../arm-none-eabi/lib/armv7e-m\libg.a(lib_a-strcmp.o)
 .eh_frame      0x00000000       0x70 c:/program files (x86)/gnu tools arm embedded/4.9 2015q2/bin/../lib/gcc/arm-none-eabi/4.9.3/../../../../arm-none-eabi/lib/armv7e-m\libg.a(lib_a-strcmp.o)
 .text          0x00000000        0x0 c:/program files (x86)/gnu tools arm embedded/4.9 2015q2/bin/../lib/gcc/arm-none-eabi/4.9.3/../../../../arm-none-eabi/lib/armv7e-m\libg.a(lib_a-strcpy.o)
 .data          0x00000000        0x0 c:/program files (x86)/gnu tools arm embedded/4.9 2015q2/bin/../lib/gcc/arm-none-eabi/4.9.3/../../../../arm-none-eabi/lib/armv7e-m\libg.a(lib_a-strcpy.o)
 .bss           0x00000000        0x0 c:/program files (x86)/gnu tools arm embedded/4.9 2015q2/bin/../lib/gcc/arm-none-eabi/4.9.3/../../../../arm-none-eabi/lib/armv7e-m\libg.a(lib_a-strcpy.o)
 .text          0x00000000        0x0 c:/program files (x86)/gnu tools arm embedded/4.9 2015q2/bin/../lib/gcc/arm-none-eabi/4.9.3/../../../../arm-none-eabi/lib/armv7e-m\libg.a(lib_a-strlen.o)
 .data          0x00000000        0x0 c:/program files (x86)/gnu tools arm embedded/4.9 2015q2/bin/../lib/gcc/arm-none-eabi/4.9.3/../../../../arm-none-eabi/lib/armv7e-m\libg.a(lib_a-strlen.o)
 .bss           0x00000000        0x0 c:/program files (x86)/gnu tools arm embedded/4.9 2015q2/bin/../lib/gcc/arm-none-eabi/4.9.3/../../../../arm-none-eabi/lib/armv7e-m\libg.a(lib_a-strlen.o)
 .text          0x00000000        0x0 c:/program files (x86)/gnu tools arm embedded/4.9 2015q2/bin/../lib/gcc/arm-none-eabi/4.9.3/../../../../arm-none-eabi/lib/armv7e-m\libg.a(lib_a-strncpy.o)
 .data          0x00000000        0x0 c:/program files (x86)/gnu tools arm embedded/4.9 2015q2/bin/../lib/gcc/arm-none-eabi/4.9.3/../../../../arm-none-eabi/lib/armv7e-m\libg.a(lib_a-strncpy.o)
 .bss           0x00000000        0x0 c:/program files (x86)/gnu tools arm embedded/4.9 2015q2/bin/../lib/gcc/arm-none-eabi/4.9.3/../../../../arm-none-eabi/lib/armv7e-m\libg.a(lib_a-strncpy.o)
 .text          0x00000000        0x0 c:/program files (x86)/gnu tools arm embedded/4.9 2015q2/bin/../lib/gcc/arm-none-eabi/4.9.3/../../../../arm-none-eabi/lib/armv7e-m\libg.a(lib_a-strpbrk.o)
 .data          0x00000000        0x0 c:/program files (x86)/gnu tools arm embedded/4.9 2015q2/bin/../lib/gcc/arm-none-eabi/4.9.3/../../../../arm-none-eabi/lib/armv7e-m\libg.a(lib_a-strpbrk.o)
 .bss           0x00000000        0x0 c:/program files (x86)/gnu tools arm embedded/4.9 2015q2/bin/../lib/gcc/arm-none-eabi/4.9.3/../../../../arm-none-eabi/lib/armv7e-m\libg.a(lib_a-strpbrk.o)
 .text          0x00000000        0x0 c:/program files (x86)/gnu tools arm embedded/4.9 2015q2/bin/../lib/gcc/arm-none-eabi/4.9.3/../../../../arm-none-eabi/lib/armv7e-m\libg.a(lib_a-strspn.o)
 .data          0x00000000        0x0 c:/program files (x86)/gnu tools arm embedded/4.9 2015q2/bin/../lib/gcc/arm-none-eabi/4.9.3/../../../../arm-none-eabi/lib/armv7e-m\libg.a(lib_a-strspn.o)
 .bss           0x00000000        0x0 c:/program files (x86)/gnu tools arm embedded/4.9 2015q2/bin/../lib/gcc/arm-none-eabi/4.9.3/../../../../arm-none-eabi/lib/armv7e-m\libg.a(lib_a-strspn.o)
 .text          0x00000000        0x0 c:/program files (x86)/gnu tools arm embedded/4.9 2015q2/bin/../lib/gcc/arm-none-eabi/4.9.3/../../../../arm-none-eabi/lib/armv7e-m\libg.a(lib_a-strtod.o)
 .data          0x00000000        0x0 c:/program files (x86)/gnu tools arm embedded/4.9 2015q2/bin/../lib/gcc/arm-none-eabi/4.9.3/../../../../arm-none-eabi/lib/armv7e-m\libg.a(lib_a-strtod.o)
 .bss           0x00000000        0x0 c:/program files (x86)/gnu tools arm embedded/4.9 2015q2/bin/../lib/gcc/arm-none-eabi/4.9.3/../../../../arm-none-eabi/lib/armv7e-m\libg.a(lib_a-strtod.o)
 .text.strtof   0x00000000       0x30 c:/program files (x86)/gnu tools arm embedded/4.9 2015q2/bin/../lib/gcc/arm-none-eabi/4.9.3/../../../../arm-none-eabi/lib/armv7e-m\libg.a(lib_a-strtod.o)
 .text          0x00000000        0x0 c:/program files (x86)/gnu tools arm embedded/4.9 2015q2/bin/../lib/gcc/arm-none-eabi/4.9.3/../../../../arm-none-eabi/lib/armv7e-m\libg.a(lib_a-strtol.o)
 .data          0x00000000        0x0 c:/program files (x86)/gnu tools arm embedded/4.9 2015q2/bin/../lib/gcc/arm-none-eabi/4.9.3/../../../../arm-none-eabi/lib/armv7e-m\libg.a(lib_a-strtol.o)
 .bss           0x00000000        0x0 c:/program files (x86)/gnu tools arm embedded/4.9 2015q2/bin/../lib/gcc/arm-none-eabi/4.9.3/../../../../arm-none-eabi/lib/armv7e-m\libg.a(lib_a-strtol.o)
 .text          0x00000000        0x0 c:/program files (x86)/gnu tools arm embedded/4.9 2015q2/bin/../lib/gcc/arm-none-eabi/4.9.3/../../../../arm-none-eabi/lib/armv7e-m\libg.a(lib_a-svfiprintf.o)
 .data          0x00000000        0x0 c:/program files (x86)/gnu tools arm embedded/4.9 2015q2/bin/../lib/gcc/arm-none-eabi/4.9.3/../../../../arm-none-eabi/lib/armv7e-m\libg.a(lib_a-svfiprintf.o)
 .bss           0x00000000        0x0 c:/program files (x86)/gnu tools arm embedded/4.9 2015q2/bin/../lib/gcc/arm-none-eabi/4.9.3/../../../../arm-none-eabi/lib/armv7e-m\libg.a(lib_a-svfiprintf.o)
 .text          0x00000000        0x0 c:/program files (x86)/gnu tools arm embedded/4.9 2015q2/bin/../lib/gcc/arm-none-eabi/4.9.3/../../../../arm-none-eabi/lib/armv7e-m\libg.a(lib_a-tzcalc_limits.o)
 .data          0x00000000        0x0 c:/program files (x86)/gnu tools arm embedded/4.9 2015q2/bin/../lib/gcc/arm-none-eabi/4.9.3/../../../../arm-none-eabi/lib/armv7e-m\libg.a(lib_a-tzcalc_limits.o)
 .bss           0x00000000        0x0 c:/program files (x86)/gnu tools arm embedded/4.9 2015q2/bin/../lib/gcc/arm-none-eabi/4.9.3/../../../../arm-none-eabi/lib/armv7e-m\libg.a(lib_a-tzcalc_limits.o)
 .text          0x00000000        0x0 c:/program files (x86)/gnu tools arm embedded/4.9 2015q2/bin/../lib/gcc/arm-none-eabi/4.9.3/../../../../arm-none-eabi/lib/armv7e-m\libg.a(lib_a-tzlock.o)
 .data          0x00000000        0x0 c:/program files (x86)/gnu tools arm embedded/4.9 2015q2/bin/../lib/gcc/arm-none-eabi/4.9.3/../../../../arm-none-eabi/lib/armv7e-m\libg.a(lib_a-tzlock.o)
 .bss           0x00000000        0x0 c:/program files (x86)/gnu tools arm embedded/4.9 2015q2/bin/../lib/gcc/arm-none-eabi/4.9.3/../../../../arm-none-eabi/lib/armv7e-m\libg.a(lib_a-tzlock.o)
 .text          0x00000000        0x0 c:/program files (x86)/gnu tools arm embedded/4.9 2015q2/bin/../lib/gcc/arm-none-eabi/4.9.3/../../../../arm-none-eabi/lib/armv7e-m\libg.a(lib_a-tzset.o)
 .data          0x00000000        0x0 c:/program files (x86)/gnu tools arm embedded/4.9 2015q2/bin/../lib/gcc/arm-none-eabi/4.9.3/../../../../arm-none-eabi/lib/armv7e-m\libg.a(lib_a-tzset.o)
 .bss           0x00000000        0x0 c:/program files (x86)/gnu tools arm embedded/4.9 2015q2/bin/../lib/gcc/arm-none-eabi/4.9.3/../../../../arm-none-eabi/lib/armv7e-m\libg.a(lib_a-tzset.o)
 .text.tzset    0x00000000       0x1c c:/program files (x86)/gnu tools arm embedded/4.9 2015q2/bin/../lib/gcc/arm-none-eabi/4.9.3/../../../../arm-none-eabi/lib/armv7e-m\libg.a(lib_a-tzset.o)
 .text          0x00000000        0x0 c:/program files (x86)/gnu tools arm embedded/4.9 2015q2/bin/../lib/gcc/arm-none-eabi/4.9.3/../../../../arm-none-eabi/lib/armv7e-m\libg.a(lib_a-tzset_r.o)
 .data          0x00000000        0x0 c:/program files (x86)/gnu tools arm embedded/4.9 2015q2/bin/../lib/gcc/arm-none-eabi/4.9.3/../../../../arm-none-eabi/lib/armv7e-m\libg.a(lib_a-tzset_r.o)
 .bss           0x00000000        0x0 c:/program files (x86)/gnu tools arm embedded/4.9 2015q2/bin/../lib/gcc/arm-none-eabi/4.9.3/../../../../arm-none-eabi/lib/armv7e-m\libg.a(lib_a-tzset_r.o)
 .text._tzset_r
                0x00000000       0x18 c:/program files (x86)/gnu tools arm embedded/4.9 2015q2/bin/../lib/gcc/arm-none-eabi/4.9.3/../../../../arm-none-eabi/lib/armv7e-m\libg.a(lib_a-tzset_r.o)
 .text          0x00000000        0x0 c:/program files (x86)/gnu tools arm embedded/4.9 2015q2/bin/../lib/gcc/arm-none-eabi/4.9.3/../../../../arm-none-eabi/lib/armv7e-m\libg.a(lib_a-tzvars.o)
 .data          0x00000000        0x0 c:/program files (x86)/gnu tools arm embedded/4.9 2015q2/bin/../lib/gcc/arm-none-eabi/4.9.3/../../../../arm-none-eabi/lib/armv7e-m\libg.a(lib_a-tzvars.o)
 .bss           0x00000000        0x0 c:/program files (x86)/gnu tools arm embedded/4.9 2015q2/bin/../lib/gcc/arm-none-eabi/4.9.3/../../../../arm-none-eabi/lib/armv7e-m\libg.a(lib_a-tzvars.o)
 .text          0x00000000        0x0 c:/program files (x86)/gnu tools arm embedded/4.9 2015q2/bin/../lib/gcc/arm-none-eabi/4.9.3/../../../../arm-none-eabi/lib/armv7e-m\libg.a(lib_a-ctype_.o)
 .data          0x00000000        0x0 c:/program files (x86)/gnu tools arm embedded/4.9 2015q2/bin/../lib/gcc/arm-none-eabi/4.9.3/../../../../arm-none-eabi/lib/armv7e-m\libg.a(lib_a-ctype_.o)
 .bss           0x00000000        0x0 c:/program files (x86)/gnu tools arm embedded/4.9 2015q2/bin/../lib/gcc/arm-none-eabi/4.9.3/../../../../arm-none-eabi/lib/armv7e-m\libg.a(lib_a-ctype_.o)
 .text          0x00000000        0x0 c:/program files (x86)/gnu tools arm embedded/4.9 2015q2/bin/../lib/gcc/arm-none-eabi/4.9.3/../../../../arm-none-eabi/lib/armv7e-m\libg.a(lib_a-div.o)
 .data          0x00000000        0x0 c:/program files (x86)/gnu tools arm embedded/4.9 2015q2/bin/../lib/gcc/arm-none-eabi/4.9.3/../../../../arm-none-eabi/lib/armv7e-m\libg.a(lib_a-div.o)
 .bss           0x00000000        0x0 c:/program files (x86)/gnu tools arm embedded/4.9 2015q2/bin/../lib/gcc/arm-none-eabi/4.9.3/../../../../arm-none-eabi/lib/armv7e-m\libg.a(lib_a-div.o)
 .text          0x00000000        0x0 c:/program files (x86)/gnu tools arm embedded/4.9 2015q2/bin/../lib/gcc/arm-none-eabi/4.9.3/../../../../arm-none-eabi/lib/armv7e-m\libg.a(lib_a-freer.o)
 .data          0x00000000        0x0 c:/program files (x86)/gnu tools arm embedded/4.9 2015q2/bin/../lib/gcc/arm-none-eabi/4.9.3/../../../../arm-none-eabi/lib/armv7e-m\libg.a(lib_a-freer.o)
 .bss           0x00000000        0x0 c:/program files (x86)/gnu tools arm embedded/4.9 2015q2/bin/../lib/gcc/arm-none-eabi/4.9.3/../../../../arm-none-eabi/lib/armv7e-m\libg.a(lib_a-freer.o)
 .text          0x00000000        0x0 c:/program files (x86)/gnu tools arm embedded/4.9 2015q2/bin/../lib/gcc/arm-none-eabi/4.9.3/../../../../arm-none-eabi/lib/armv7e-m\libg.a(lib_a-gdtoa-gethex.o)
 .data          0x00000000        0x0 c:/program files (x86)/gnu tools arm embedded/4.9 2015q2/bin/../lib/gcc/arm-none-eabi/4.9.3/../../../../arm-none-eabi/lib/armv7e-m\libg.a(lib_a-gdtoa-gethex.o)
 .bss           0x00000000        0x0 c:/program files (x86)/gnu tools arm embedded/4.9 2015q2/bin/../lib/gcc/arm-none-eabi/4.9.3/../../../../arm-none-eabi/lib/armv7e-m\libg.a(lib_a-gdtoa-gethex.o)
 .text          0x00000000        0x0 c:/program files (x86)/gnu tools arm embedded/4.9 2015q2/bin/../lib/gcc/arm-none-eabi/4.9.3/../../../../arm-none-eabi/lib/armv7e-m\libg.a(lib_a-gdtoa-hexnan.o)
 .data          0x00000000        0x0 c:/program files (x86)/gnu tools arm embedded/4.9 2015q2/bin/../lib/gcc/arm-none-eabi/4.9.3/../../../../arm-none-eabi/lib/armv7e-m\libg.a(lib_a-gdtoa-hexnan.o)
 .bss           0x00000000        0x0 c:/program files (x86)/gnu tools arm embedded/4.9 2015q2/bin/../lib/gcc/arm-none-eabi/4.9.3/../../../../arm-none-eabi/lib/armv7e-m\libg.a(lib_a-gdtoa-hexnan.o)
 .text          0x00000000        0x0 c:/program files (x86)/gnu tools arm embedded/4.9 2015q2/bin/../lib/gcc/arm-none-eabi/4.9.3/../../../../arm-none-eabi/lib/armv7e-m\libg.a(lib_a-getenv_r.o)
 .data          0x00000000        0x0 c:/program files (x86)/gnu tools arm embedded/4.9 2015q2/bin/../lib/gcc/arm-none-eabi/4.9.3/../../../../arm-none-eabi/lib/armv7e-m\libg.a(lib_a-getenv_r.o)
 .bss           0x00000000        0x0 c:/program files (x86)/gnu tools arm embedded/4.9 2015q2/bin/../lib/gcc/arm-none-eabi/4.9.3/../../../../arm-none-eabi/lib/armv7e-m\libg.a(lib_a-getenv_r.o)
 .text          0x00000000        0x0 c:/program files (x86)/gnu tools arm embedded/4.9 2015q2/bin/../lib/gcc/arm-none-eabi/4.9.3/../../../../arm-none-eabi/lib/armv7e-m\libg.a(lib_a-gettzinfo.o)
 .data          0x00000000        0x0 c:/program files (x86)/gnu tools arm embedded/4.9 2015q2/bin/../lib/gcc/arm-none-eabi/4.9.3/../../../../arm-none-eabi/lib/armv7e-m\libg.a(lib_a-gettzinfo.o)
 .bss           0x00000000        0x0 c:/program files (x86)/gnu tools arm embedded/4.9 2015q2/bin/../lib/gcc/arm-none-eabi/4.9.3/../../../../arm-none-eabi/lib/armv7e-m\libg.a(lib_a-gettzinfo.o)
 .text          0x00000000        0x0 c:/program files (x86)/gnu tools arm embedded/4.9 2015q2/bin/../lib/gcc/arm-none-eabi/4.9.3/../../../../arm-none-eabi/lib/armv7e-m\libg.a(lib_a-gmtime_r.o)
 .data          0x00000000        0x0 c:/program files (x86)/gnu tools arm embedded/4.9 2015q2/bin/../lib/gcc/arm-none-eabi/4.9.3/../../../../arm-none-eabi/lib/armv7e-m\libg.a(lib_a-gmtime_r.o)
 .bss           0x00000000        0x0 c:/program files (x86)/gnu tools arm embedded/4.9 2015q2/bin/../lib/gcc/arm-none-eabi/4.9.3/../../../../arm-none-eabi/lib/armv7e-m\libg.a(lib_a-gmtime_r.o)
 .text          0x00000000        0x0 c:/program files (x86)/gnu tools arm embedded/4.9 2015q2/bin/../lib/gcc/arm-none-eabi/4.9.3/../../../../arm-none-eabi/lib/armv7e-m\libg.a(lib_a-locale.o)
 .data          0x00000000        0x0 c:/program files (x86)/gnu tools arm embedded/4.9 2015q2/bin/../lib/gcc/arm-none-eabi/4.9.3/../../../../arm-none-eabi/lib/armv7e-m\libg.a(lib_a-locale.o)
 .bss           0x00000000        0x0 c:/program files (x86)/gnu tools arm embedded/4.9 2015q2/bin/../lib/gcc/arm-none-eabi/4.9.3/../../../../arm-none-eabi/lib/armv7e-m\libg.a(lib_a-locale.o)
 .text._setlocale_r
                0x00000000       0x44 c:/program files (x86)/gnu tools arm embedded/4.9 2015q2/bin/../lib/gcc/arm-none-eabi/4.9.3/../../../../arm-none-eabi/lib/armv7e-m\libg.a(lib_a-locale.o)
 .text.__locale_msgcharset
                0x00000000        0x8 c:/program files (x86)/gnu tools arm embedded/4.9 2015q2/bin/../lib/gcc/arm-none-eabi/4.9.3/../../../../arm-none-eabi/lib/armv7e-m\libg.a(lib_a-locale.o)
 .text.__locale_cjk_lang
                0x00000000        0x4 c:/program files (x86)/gnu tools arm embedded/4.9 2015q2/bin/../lib/gcc/arm-none-eabi/4.9.3/../../../../arm-none-eabi/lib/armv7e-m\libg.a(lib_a-locale.o)
 .text.setlocale
                0x00000000       0x10 c:/program files (x86)/gnu tools arm embedded/4.9 2015q2/bin/../lib/gcc/arm-none-eabi/4.9.3/../../../../arm-none-eabi/lib/armv7e-m\libg.a(lib_a-locale.o)
 .text.localeconv
                0x00000000        0x8 c:/program files (x86)/gnu tools arm embedded/4.9 2015q2/bin/../lib/gcc/arm-none-eabi/4.9.3/../../../../arm-none-eabi/lib/armv7e-m\libg.a(lib_a-locale.o)
 .data.lc_message_charset
                0x00000000       0x20 c:/program files (x86)/gnu tools arm embedded/4.9 2015q2/bin/../lib/gcc/arm-none-eabi/4.9.3/../../../../arm-none-eabi/lib/armv7e-m\libg.a(lib_a-locale.o)
 .bss._PathLocale
                0x00000000        0x4 c:/program files (x86)/gnu tools arm embedded/4.9 2015q2/bin/../lib/gcc/arm-none-eabi/4.9.3/../../../../arm-none-eabi/lib/armv7e-m\libg.a(lib_a-locale.o)
 .bss.__nlocale_changed
                0x00000000        0x4 c:/program files (x86)/gnu tools arm embedded/4.9 2015q2/bin/../lib/gcc/arm-none-eabi/4.9.3/../../../../arm-none-eabi/lib/armv7e-m\libg.a(lib_a-locale.o)
 .bss.__mlocale_changed
                0x00000000        0x4 c:/program files (x86)/gnu tools arm embedded/4.9 2015q2/bin/../lib/gcc/arm-none-eabi/4.9.3/../../../../arm-none-eabi/lib/armv7e-m\libg.a(lib_a-locale.o)
 .text          0x00000000        0x0 c:/program files (x86)/gnu tools arm embedded/4.9 2015q2/bin/../lib/gcc/arm-none-eabi/4.9.3/../../../../arm-none-eabi/lib/armv7e-m\libg.a(lib_a-malloc.o)
 .data          0x00000000        0x0 c:/program files (x86)/gnu tools arm embedded/4.9 2015q2/bin/../lib/gcc/arm-none-eabi/4.9.3/../../../../arm-none-eabi/lib/armv7e-m\libg.a(lib_a-malloc.o)
 .bss           0x00000000        0x0 c:/program files (x86)/gnu tools arm embedded/4.9 2015q2/bin/../lib/gcc/arm-none-eabi/4.9.3/../../../../arm-none-eabi/lib/armv7e-m\libg.a(lib_a-malloc.o)
 .text.malloc   0x00000000       0x10 c:/program files (x86)/gnu tools arm embedded/4.9 2015q2/bin/../lib/gcc/arm-none-eabi/4.9.3/../../../../arm-none-eabi/lib/armv7e-m\libg.a(lib_a-malloc.o)
 .text          0x00000000        0x0 c:/program files (x86)/gnu tools arm embedded/4.9 2015q2/bin/../lib/gcc/arm-none-eabi/4.9.3/../../../../arm-none-eabi/lib/armv7e-m\libg.a(lib_a-mallocr.o)
 .data          0x00000000        0x0 c:/program files (x86)/gnu tools arm embedded/4.9 2015q2/bin/../lib/gcc/arm-none-eabi/4.9.3/../../../../arm-none-eabi/lib/armv7e-m\libg.a(lib_a-mallocr.o)
 .bss           0x00000000        0x0 c:/program files (x86)/gnu tools arm embedded/4.9 2015q2/bin/../lib/gcc/arm-none-eabi/4.9.3/../../../../arm-none-eabi/lib/armv7e-m\libg.a(lib_a-mallocr.o)
 .text          0x00000000        0x0 c:/program files (x86)/gnu tools arm embedded/4.9 2015q2/bin/../lib/gcc/arm-none-eabi/4.9.3/../../../../arm-none-eabi/lib/armv7e-m\libg.a(lib_a-memchr.o)
 .data          0x00000000        0x0 c:/program files (x86)/gnu tools arm embedded/4.9 2015q2/bin/../lib/gcc/arm-none-eabi/4.9.3/../../../../arm-none-eabi/lib/armv7e-m\libg.a(lib_a-memchr.o)
 .bss           0x00000000        0x0 c:/program files (x86)/gnu tools arm embedded/4.9 2015q2/bin/../lib/gcc/arm-none-eabi/4.9.3/../../../../arm-none-eabi/lib/armv7e-m\libg.a(lib_a-memchr.o)
 .text          0x00000000        0x0 c:/program files (x86)/gnu tools arm embedded/4.9 2015q2/bin/../lib/gcc/arm-none-eabi/4.9.3/../../../../arm-none-eabi/lib/armv7e-m\libg.a(lib_a-memmove.o)
 .data          0x00000000        0x0 c:/program files (x86)/gnu tools arm embedded/4.9 2015q2/bin/../lib/gcc/arm-none-eabi/4.9.3/../../../../arm-none-eabi/lib/armv7e-m\libg.a(lib_a-memmove.o)
 .bss           0x00000000        0x0 c:/program files (x86)/gnu tools arm embedded/4.9 2015q2/bin/../lib/gcc/arm-none-eabi/4.9.3/../../../../arm-none-eabi/lib/armv7e-m\libg.a(lib_a-memmove.o)
 .text          0x00000000        0x0 c:/program files (x86)/gnu tools arm embedded/4.9 2015q2/bin/../lib/gcc/arm-none-eabi/4.9.3/../../../../arm-none-eabi/lib/armv7e-m\libg.a(lib_a-mlock.o)
 .data          0x00000000        0x0 c:/program files (x86)/gnu tools arm embedded/4.9 2015q2/bin/../lib/gcc/arm-none-eabi/4.9.3/../../../../arm-none-eabi/lib/armv7e-m\libg.a(lib_a-mlock.o)
 .bss           0x00000000        0x0 c:/program files (x86)/gnu tools arm embedded/4.9 2015q2/bin/../lib/gcc/arm-none-eabi/4.9.3/../../../../arm-none-eabi/lib/armv7e-m\libg.a(lib_a-mlock.o)
 .text          0x00000000        0x0 c:/program files (x86)/gnu tools arm embedded/4.9 2015q2/bin/../lib/gcc/arm-none-eabi/4.9.3/../../../../arm-none-eabi/lib/armv7e-m\libg.a(lib_a-mprec.o)
 .data          0x00000000        0x0 c:/program files (x86)/gnu tools arm embedded/4.9 2015q2/bin/../lib/gcc/arm-none-eabi/4.9.3/../../../../arm-none-eabi/lib/armv7e-m\libg.a(lib_a-mprec.o)
 .bss           0x00000000        0x0 c:/program files (x86)/gnu tools arm embedded/4.9 2015q2/bin/../lib/gcc/arm-none-eabi/4.9.3/../../../../arm-none-eabi/lib/armv7e-m\libg.a(lib_a-mprec.o)
 .text._mprec_log10
                0x00000000       0x34 c:/program files (x86)/gnu tools arm embedded/4.9 2015q2/bin/../lib/gcc/arm-none-eabi/4.9.3/../../../../arm-none-eabi/lib/armv7e-m\libg.a(lib_a-mprec.o)
 .rodata.__mprec_tinytens
                0x00000000       0x28 c:/program files (x86)/gnu tools arm embedded/4.9 2015q2/bin/../lib/gcc/arm-none-eabi/4.9.3/../../../../arm-none-eabi/lib/armv7e-m\libg.a(lib_a-mprec.o)
 .text          0x00000000        0x0 c:/program files (x86)/gnu tools arm embedded/4.9 2015q2/bin/../lib/gcc/arm-none-eabi/4.9.3/../../../../arm-none-eabi/lib/armv7e-m\libg.a(lib_a-reallocr.o)
 .data          0x00000000        0x0 c:/program files (x86)/gnu tools arm embedded/4.9 2015q2/bin/../lib/gcc/arm-none-eabi/4.9.3/../../../../arm-none-eabi/lib/armv7e-m\libg.a(lib_a-reallocr.o)
 .bss           0x00000000        0x0 c:/program files (x86)/gnu tools arm embedded/4.9 2015q2/bin/../lib/gcc/arm-none-eabi/4.9.3/../../../../arm-none-eabi/lib/armv7e-m\libg.a(lib_a-reallocr.o)
 .text          0x00000000        0x0 c:/program files (x86)/gnu tools arm embedded/4.9 2015q2/bin/../lib/gcc/arm-none-eabi/4.9.3/../../../../arm-none-eabi/lib/armv7e-m\libg.a(lib_a-s_fpclassify.o)
 .data          0x00000000        0x0 c:/program files (x86)/gnu tools arm embedded/4.9 2015q2/bin/../lib/gcc/arm-none-eabi/4.9.3/../../../../arm-none-eabi/lib/armv7e-m\libg.a(lib_a-s_fpclassify.o)
 .bss           0x00000000        0x0 c:/program files (x86)/gnu tools arm embedded/4.9 2015q2/bin/../lib/gcc/arm-none-eabi/4.9.3/../../../../arm-none-eabi/lib/armv7e-m\libg.a(lib_a-s_fpclassify.o)
 .text.__fpclassifyd
                0x00000000       0x58 c:/program files (x86)/gnu tools arm embedded/4.9 2015q2/bin/../lib/gcc/arm-none-eabi/4.9.3/../../../../arm-none-eabi/lib/armv7e-m\libg.a(lib_a-s_fpclassify.o)
 .debug_frame   0x00000000       0x34 c:/program files (x86)/gnu tools arm embedded/4.9 2015q2/bin/../lib/gcc/arm-none-eabi/4.9.3/../../../../arm-none-eabi/lib/armv7e-m\libg.a(lib_a-s_fpclassify.o)
 .ARM.attributes
                0x00000000       0x2e c:/program files (x86)/gnu tools arm embedded/4.9 2015q2/bin/../lib/gcc/arm-none-eabi/4.9.3/../../../../arm-none-eabi/lib/armv7e-m\libg.a(lib_a-s_fpclassify.o)
 .text          0x00000000        0x0 c:/program files (x86)/gnu tools arm embedded/4.9 2015q2/bin/../lib/gcc/arm-none-eabi/4.9.3/../../../../arm-none-eabi/lib/armv7e-m\libg.a(lib_a-sf_nan.o)
 .data          0x00000000        0x0 c:/program files (x86)/gnu tools arm embedded/4.9 2015q2/bin/../lib/gcc/arm-none-eabi/4.9.3/../../../../arm-none-eabi/lib/armv7e-m\libg.a(lib_a-sf_nan.o)
 .bss           0x00000000        0x0 c:/program files (x86)/gnu tools arm embedded/4.9 2015q2/bin/../lib/gcc/arm-none-eabi/4.9.3/../../../../arm-none-eabi/lib/armv7e-m\libg.a(lib_a-sf_nan.o)
 .text.nanf     0x00000000        0x8 c:/program files (x86)/gnu tools arm embedded/4.9 2015q2/bin/../lib/gcc/arm-none-eabi/4.9.3/../../../../arm-none-eabi/lib/armv7e-m\libg.a(lib_a-sf_nan.o)
 .debug_frame   0x00000000       0x20 c:/program files (x86)/gnu tools arm embedded/4.9 2015q2/bin/../lib/gcc/arm-none-eabi/4.9.3/../../../../arm-none-eabi/lib/armv7e-m\libg.a(lib_a-sf_nan.o)
 .ARM.attributes
                0x00000000       0x2e c:/program files (x86)/gnu tools arm embedded/4.9 2015q2/bin/../lib/gcc/arm-none-eabi/4.9.3/../../../../arm-none-eabi/lib/armv7e-m\libg.a(lib_a-sf_nan.o)
 .text          0x00000000        0x0 c:/program files (x86)/gnu tools arm embedded/4.9 2015q2/bin/../lib/gcc/arm-none-eabi/4.9.3/../../../../arm-none-eabi/lib/armv7e-m\libg.a(lib_a-siscanf.o)
 .data          0x00000000        0x0 c:/program files (x86)/gnu tools arm embedded/4.9 2015q2/bin/../lib/gcc/arm-none-eabi/4.9.3/../../../../arm-none-eabi/lib/armv7e-m\libg.a(lib_a-siscanf.o)
 .bss           0x00000000        0x0 c:/program files (x86)/gnu tools arm embedded/4.9 2015q2/bin/../lib/gcc/arm-none-eabi/4.9.3/../../../../arm-none-eabi/lib/armv7e-m\libg.a(lib_a-siscanf.o)
 .text._siscanf_r
                0x00000000       0x54 c:/program files (x86)/gnu tools arm embedded/4.9 2015q2/bin/../lib/gcc/arm-none-eabi/4.9.3/../../../../arm-none-eabi/lib/armv7e-m\libg.a(lib_a-siscanf.o)
 .text          0x00000000        0x0 c:/program files (x86)/gnu tools arm embedded/4.9 2015q2/bin/../lib/gcc/arm-none-eabi/4.9.3/../../../../arm-none-eabi/lib/armv7e-m\libg.a(lib_a-stdio.o)
 .data          0x00000000        0x0 c:/program files (x86)/gnu tools arm embedded/4.9 2015q2/bin/../lib/gcc/arm-none-eabi/4.9.3/../../../../arm-none-eabi/lib/armv7e-m\libg.a(lib_a-stdio.o)
 .bss           0x00000000        0x0 c:/program files (x86)/gnu tools arm embedded/4.9 2015q2/bin/../lib/gcc/arm-none-eabi/4.9.3/../../../../arm-none-eabi/lib/armv7e-m\libg.a(lib_a-stdio.o)
 .text.__sread  0x00000000       0x24 c:/program files (x86)/gnu tools arm embedded/4.9 2015q2/bin/../lib/gcc/arm-none-eabi/4.9.3/../../../../arm-none-eabi/lib/armv7e-m\libg.a(lib_a-stdio.o)
 .text.__swrite
                0x00000000       0x38 c:/program files (x86)/gnu tools arm embedded/4.9 2015q2/bin/../lib/gcc/arm-none-eabi/4.9.3/../../../../arm-none-eabi/lib/armv7e-m\libg.a(lib_a-stdio.o)
 .text.__sseek  0x00000000       0x20 c:/program files (x86)/gnu tools arm embedded/4.9 2015q2/bin/../lib/gcc/arm-none-eabi/4.9.3/../../../../arm-none-eabi/lib/armv7e-m\libg.a(lib_a-stdio.o)
 .text.__sclose
                0x00000000        0x8 c:/program files (x86)/gnu tools arm embedded/4.9 2015q2/bin/../lib/gcc/arm-none-eabi/4.9.3/../../../../arm-none-eabi/lib/armv7e-m\libg.a(lib_a-stdio.o)
 .text          0x00000000        0x0 c:/program files (x86)/gnu tools arm embedded/4.9 2015q2/bin/../lib/gcc/arm-none-eabi/4.9.3/../../../../arm-none-eabi/lib/armv7e-m\libg.a(lib_a-strncmp.o)
 .data          0x00000000        0x0 c:/program files (x86)/gnu tools arm embedded/4.9 2015q2/bin/../lib/gcc/arm-none-eabi/4.9.3/../../../../arm-none-eabi/lib/armv7e-m\libg.a(lib_a-strncmp.o)
 .bss           0x00000000        0x0 c:/program files (x86)/gnu tools arm embedded/4.9 2015q2/bin/../lib/gcc/arm-none-eabi/4.9.3/../../../../arm-none-eabi/lib/armv7e-m\libg.a(lib_a-strncmp.o)
 .text          0x00000000        0x0 c:/program files (x86)/gnu tools arm embedded/4.9 2015q2/bin/../lib/gcc/arm-none-eabi/4.9.3/../../../../arm-none-eabi/lib/armv7e-m\libg.a(lib_a-strtoul.o)
 .data          0x00000000        0x0 c:/program files (x86)/gnu tools arm embedded/4.9 2015q2/bin/../lib/gcc/arm-none-eabi/4.9.3/../../../../arm-none-eabi/lib/armv7e-m\libg.a(lib_a-strtoul.o)
 .bss           0x00000000        0x0 c:/program files (x86)/gnu tools arm embedded/4.9 2015q2/bin/../lib/gcc/arm-none-eabi/4.9.3/../../../../arm-none-eabi/lib/armv7e-m\libg.a(lib_a-strtoul.o)
 .text          0x00000000        0x0 c:/program files (x86)/gnu tools arm embedded/4.9 2015q2/bin/../lib/gcc/arm-none-eabi/4.9.3/../../../../arm-none-eabi/lib/armv7e-m\libg.a(lib_a-svfiscanf.o)
 .data          0x00000000        0x0 c:/program files (x86)/gnu tools arm embedded/4.9 2015q2/bin/../lib/gcc/arm-none-eabi/4.9.3/../../../../arm-none-eabi/lib/armv7e-m\libg.a(lib_a-svfiscanf.o)
 .bss           0x00000000        0x0 c:/program files (x86)/gnu tools arm embedded/4.9 2015q2/bin/../lib/gcc/arm-none-eabi/4.9.3/../../../../arm-none-eabi/lib/armv7e-m\libg.a(lib_a-svfiscanf.o)
 .text          0x00000000        0x0 c:/program files (x86)/gnu tools arm embedded/4.9 2015q2/bin/../lib/gcc/arm-none-eabi/4.9.3/../../../../arm-none-eabi/lib/armv7e-m\libg.a(lib_a-ungetc.o)
 .data          0x00000000        0x0 c:/program files (x86)/gnu tools arm embedded/4.9 2015q2/bin/../lib/gcc/arm-none-eabi/4.9.3/../../../../arm-none-eabi/lib/armv7e-m\libg.a(lib_a-ungetc.o)
 .bss           0x00000000        0x0 c:/program files (x86)/gnu tools arm embedded/4.9 2015q2/bin/../lib/gcc/arm-none-eabi/4.9.3/../../../../arm-none-eabi/lib/armv7e-m\libg.a(lib_a-ungetc.o)
 .text._ungetc_r
                0x00000000       0xd4 c:/program files (x86)/gnu tools arm embedded/4.9 2015q2/bin/../lib/gcc/arm-none-eabi/4.9.3/../../../../arm-none-eabi/lib/armv7e-m\libg.a(lib_a-ungetc.o)
 .text.ungetc   0x00000000       0x10 c:/program files (x86)/gnu tools arm embedded/4.9 2015q2/bin/../lib/gcc/arm-none-eabi/4.9.3/../../../../arm-none-eabi/lib/armv7e-m\libg.a(lib_a-ungetc.o)
 .text          0x00000000        0x0 c:/program files (x86)/gnu tools arm embedded/4.9 2015q2/bin/../lib/gcc/arm-none-eabi/4.9.3/../../../../arm-none-eabi/lib/armv7e-m\libg.a(lib_a-callocr.o)
 .data          0x00000000        0x0 c:/program files (x86)/gnu tools arm embedded/4.9 2015q2/bin/../lib/gcc/arm-none-eabi/4.9.3/../../../../arm-none-eabi/lib/armv7e-m\libg.a(lib_a-callocr.o)
 .bss           0x00000000        0x0 c:/program files (x86)/gnu tools arm embedded/4.9 2015q2/bin/../lib/gcc/arm-none-eabi/4.9.3/../../../../arm-none-eabi/lib/armv7e-m\libg.a(lib_a-callocr.o)
 .text          0x00000000        0x0 c:/program files (x86)/gnu tools arm embedded/4.9 2015q2/bin/../lib/gcc/arm-none-eabi/4.9.3/../../../../arm-none-eabi/lib/armv7e-m\libg.a(lib_a-environ.o)
 .data          0x00000000        0x0 c:/program files (x86)/gnu tools arm embedded/4.9 2015q2/bin/../lib/gcc/arm-none-eabi/4.9.3/../../../../arm-none-eabi/lib/armv7e-m\libg.a(lib_a-environ.o)
 .bss           0x00000000        0x0 c:/program files (x86)/gnu tools arm embedded/4.9 2015q2/bin/../lib/gcc/arm-none-eabi/4.9.3/../../../../arm-none-eabi/lib/armv7e-m\libg.a(lib_a-environ.o)
 .text          0x00000000        0x0 c:/program files (x86)/gnu tools arm embedded/4.9 2015q2/bin/../lib/gcc/arm-none-eabi/4.9.3/../../../../arm-none-eabi/lib/armv7e-m\libg.a(lib_a-envlock.o)
 .data          0x00000000        0x0 c:/program files (x86)/gnu tools arm embedded/4.9 2015q2/bin/../lib/gcc/arm-none-eabi/4.9.3/../../../../arm-none-eabi/lib/armv7e-m\libg.a(lib_a-envlock.o)
 .bss           0x00000000        0x0 c:/program files (x86)/gnu tools arm embedded/4.9 2015q2/bin/../lib/gcc/arm-none-eabi/4.9.3/../../../../arm-none-eabi/lib/armv7e-m\libg.a(lib_a-envlock.o)
 .text          0x00000000        0x0 c:/program files (x86)/gnu tools arm embedded/4.9 2015q2/bin/../lib/gcc/arm-none-eabi/4.9.3/../../../../arm-none-eabi/lib/armv7e-m\libg.a(lib_a-fflush.o)
 .data          0x00000000        0x0 c:/program files (x86)/gnu tools arm embedded/4.9 2015q2/bin/../lib/gcc/arm-none-eabi/4.9.3/../../../../arm-none-eabi/lib/armv7e-m\libg.a(lib_a-fflush.o)
 .bss           0x00000000        0x0 c:/program files (x86)/gnu tools arm embedded/4.9 2015q2/bin/../lib/gcc/arm-none-eabi/4.9.3/../../../../arm-none-eabi/lib/armv7e-m\libg.a(lib_a-fflush.o)
 .text.__sflush_r
                0x00000000      0x154 c:/program files (x86)/gnu tools arm embedded/4.9 2015q2/bin/../lib/gcc/arm-none-eabi/4.9.3/../../../../arm-none-eabi/lib/armv7e-m\libg.a(lib_a-fflush.o)
 .text._fflush_r
                0x00000000       0x2c c:/program files (x86)/gnu tools arm embedded/4.9 2015q2/bin/../lib/gcc/arm-none-eabi/4.9.3/../../../../arm-none-eabi/lib/armv7e-m\libg.a(lib_a-fflush.o)
 .text.fflush   0x00000000       0x24 c:/program files (x86)/gnu tools arm embedded/4.9 2015q2/bin/../lib/gcc/arm-none-eabi/4.9.3/../../../../arm-none-eabi/lib/armv7e-m\libg.a(lib_a-fflush.o)
 .debug_frame   0x00000000       0x6c c:/program files (x86)/gnu tools arm embedded/4.9 2015q2/bin/../lib/gcc/arm-none-eabi/4.9.3/../../../../arm-none-eabi/lib/armv7e-m\libg.a(lib_a-fflush.o)
 .ARM.attributes
                0x00000000       0x2e c:/program files (x86)/gnu tools arm embedded/4.9 2015q2/bin/../lib/gcc/arm-none-eabi/4.9.3/../../../../arm-none-eabi/lib/armv7e-m\libg.a(lib_a-fflush.o)
 .text          0x00000000        0x0 c:/program files (x86)/gnu tools arm embedded/4.9 2015q2/bin/../lib/gcc/arm-none-eabi/4.9.3/../../../../arm-none-eabi/lib/armv7e-m\libg.a(lib_a-findfp.o)
 .data          0x00000000        0x0 c:/program files (x86)/gnu tools arm embedded/4.9 2015q2/bin/../lib/gcc/arm-none-eabi/4.9.3/../../../../arm-none-eabi/lib/armv7e-m\libg.a(lib_a-findfp.o)
 .bss           0x00000000        0x0 c:/program files (x86)/gnu tools arm embedded/4.9 2015q2/bin/../lib/gcc/arm-none-eabi/4.9.3/../../../../arm-none-eabi/lib/armv7e-m\libg.a(lib_a-findfp.o)
 .text.__fp_lock
                0x00000000        0x4 c:/program files (x86)/gnu tools arm embedded/4.9 2015q2/bin/../lib/gcc/arm-none-eabi/4.9.3/../../../../arm-none-eabi/lib/armv7e-m\libg.a(lib_a-findfp.o)
 .text.__fp_unlock
                0x00000000        0x4 c:/program files (x86)/gnu tools arm embedded/4.9 2015q2/bin/../lib/gcc/arm-none-eabi/4.9.3/../../../../arm-none-eabi/lib/armv7e-m\libg.a(lib_a-findfp.o)
 .text._cleanup_r
                0x00000000        0xc c:/program files (x86)/gnu tools arm embedded/4.9 2015q2/bin/../lib/gcc/arm-none-eabi/4.9.3/../../../../arm-none-eabi/lib/armv7e-m\libg.a(lib_a-findfp.o)
 .text.__sinit.part.1
                0x00000000       0xf0 c:/program files (x86)/gnu tools arm embedded/4.9 2015q2/bin/../lib/gcc/arm-none-eabi/4.9.3/../../../../arm-none-eabi/lib/armv7e-m\libg.a(lib_a-findfp.o)
 .text.__sfmoreglue
                0x00000000       0x30 c:/program files (x86)/gnu tools arm embedded/4.9 2015q2/bin/../lib/gcc/arm-none-eabi/4.9.3/../../../../arm-none-eabi/lib/armv7e-m\libg.a(lib_a-findfp.o)
 .text.__sfp    0x00000000       0x88 c:/program files (x86)/gnu tools arm embedded/4.9 2015q2/bin/../lib/gcc/arm-none-eabi/4.9.3/../../../../arm-none-eabi/lib/armv7e-m\libg.a(lib_a-findfp.o)
 .text._cleanup
                0x00000000       0x14 c:/program files (x86)/gnu tools arm embedded/4.9 2015q2/bin/../lib/gcc/arm-none-eabi/4.9.3/../../../../arm-none-eabi/lib/armv7e-m\libg.a(lib_a-findfp.o)
 .text.__sinit  0x00000000        0xc c:/program files (x86)/gnu tools arm embedded/4.9 2015q2/bin/../lib/gcc/arm-none-eabi/4.9.3/../../../../arm-none-eabi/lib/armv7e-m\libg.a(lib_a-findfp.o)
 .text.__sfp_lock_acquire
                0x00000000        0x4 c:/program files (x86)/gnu tools arm embedded/4.9 2015q2/bin/../lib/gcc/arm-none-eabi/4.9.3/../../../../arm-none-eabi/lib/armv7e-m\libg.a(lib_a-findfp.o)
 .text.__sfp_lock_release
                0x00000000        0x4 c:/program files (x86)/gnu tools arm embedded/4.9 2015q2/bin/../lib/gcc/arm-none-eabi/4.9.3/../../../../arm-none-eabi/lib/armv7e-m\libg.a(lib_a-findfp.o)
 .text.__sinit_lock_acquire
                0x00000000        0x4 c:/program files (x86)/gnu tools arm embedded/4.9 2015q2/bin/../lib/gcc/arm-none-eabi/4.9.3/../../../../arm-none-eabi/lib/armv7e-m\libg.a(lib_a-findfp.o)
 .text.__sinit_lock_release
                0x00000000        0x4 c:/program files (x86)/gnu tools arm embedded/4.9 2015q2/bin/../lib/gcc/arm-none-eabi/4.9.3/../../../../arm-none-eabi/lib/armv7e-m\libg.a(lib_a-findfp.o)
 .text.__fp_lock_all
                0x00000000       0x14 c:/program files (x86)/gnu tools arm embedded/4.9 2015q2/bin/../lib/gcc/arm-none-eabi/4.9.3/../../../../arm-none-eabi/lib/armv7e-m\libg.a(lib_a-findfp.o)
 .text.__fp_unlock_all
                0x00000000       0x14 c:/program files (x86)/gnu tools arm embedded/4.9 2015q2/bin/../lib/gcc/arm-none-eabi/4.9.3/../../../../arm-none-eabi/lib/armv7e-m\libg.a(lib_a-findfp.o)
 .debug_frame   0x00000000      0x124 c:/program files (x86)/gnu tools arm embedded/4.9 2015q2/bin/../lib/gcc/arm-none-eabi/4.9.3/../../../../arm-none-eabi/lib/armv7e-m\libg.a(lib_a-findfp.o)
 .ARM.attributes
                0x00000000       0x2e c:/program files (x86)/gnu tools arm embedded/4.9 2015q2/bin/../lib/gcc/arm-none-eabi/4.9.3/../../../../arm-none-eabi/lib/armv7e-m\libg.a(lib_a-findfp.o)
 .text          0x00000000        0x0 c:/program files (x86)/gnu tools arm embedded/4.9 2015q2/bin/../lib/gcc/arm-none-eabi/4.9.3/../../../../arm-none-eabi/lib/armv7e-m\libg.a(lib_a-fwalk.o)
 .data          0x00000000        0x0 c:/program files (x86)/gnu tools arm embedded/4.9 2015q2/bin/../lib/gcc/arm-none-eabi/4.9.3/../../../../arm-none-eabi/lib/armv7e-m\libg.a(lib_a-fwalk.o)
 .bss           0x00000000        0x0 c:/program files (x86)/gnu tools arm embedded/4.9 2015q2/bin/../lib/gcc/arm-none-eabi/4.9.3/../../../../arm-none-eabi/lib/armv7e-m\libg.a(lib_a-fwalk.o)
 .text._fwalk   0x00000000       0x4c c:/program files (x86)/gnu tools arm embedded/4.9 2015q2/bin/../lib/gcc/arm-none-eabi/4.9.3/../../../../arm-none-eabi/lib/armv7e-m\libg.a(lib_a-fwalk.o)
 .text._fwalk_reent
                0x00000000       0x54 c:/program files (x86)/gnu tools arm embedded/4.9 2015q2/bin/../lib/gcc/arm-none-eabi/4.9.3/../../../../arm-none-eabi/lib/armv7e-m\libg.a(lib_a-fwalk.o)
 .debug_frame   0x00000000       0x54 c:/program files (x86)/gnu tools arm embedded/4.9 2015q2/bin/../lib/gcc/arm-none-eabi/4.9.3/../../../../arm-none-eabi/lib/armv7e-m\libg.a(lib_a-fwalk.o)
 .ARM.attributes
                0x00000000       0x2e c:/program files (x86)/gnu tools arm embedded/4.9 2015q2/bin/../lib/gcc/arm-none-eabi/4.9.3/../../../../arm-none-eabi/lib/armv7e-m\libg.a(lib_a-fwalk.o)
 .text          0x00000000        0x0 c:/program files (x86)/gnu tools arm embedded/4.9 2015q2/bin/../lib/gcc/arm-none-eabi/4.9.3/../../../../arm-none-eabi/lib/armv7e-m\libg.a(lib_a-iswspace.o)
 .data          0x00000000        0x0 c:/program files (x86)/gnu tools arm embedded/4.9 2015q2/bin/../lib/gcc/arm-none-eabi/4.9.3/../../../../arm-none-eabi/lib/armv7e-m\libg.a(lib_a-iswspace.o)
 .bss           0x00000000        0x0 c:/program files (x86)/gnu tools arm embedded/4.9 2015q2/bin/../lib/gcc/arm-none-eabi/4.9.3/../../../../arm-none-eabi/lib/armv7e-m\libg.a(lib_a-iswspace.o)
 .text          0x00000000        0x0 c:/program files (x86)/gnu tools arm embedded/4.9 2015q2/bin/../lib/gcc/arm-none-eabi/4.9.3/../../../../arm-none-eabi/lib/armv7e-m\libg.a(lib_a-mbrtowc.o)
 .data          0x00000000        0x0 c:/program files (x86)/gnu tools arm embedded/4.9 2015q2/bin/../lib/gcc/arm-none-eabi/4.9.3/../../../../arm-none-eabi/lib/armv7e-m\libg.a(lib_a-mbrtowc.o)
 .bss           0x00000000        0x0 c:/program files (x86)/gnu tools arm embedded/4.9 2015q2/bin/../lib/gcc/arm-none-eabi/4.9.3/../../../../arm-none-eabi/lib/armv7e-m\libg.a(lib_a-mbrtowc.o)
 .text.mbrtowc  0x00000000       0x64 c:/program files (x86)/gnu tools arm embedded/4.9 2015q2/bin/../lib/gcc/arm-none-eabi/4.9.3/../../../../arm-none-eabi/lib/armv7e-m\libg.a(lib_a-mbrtowc.o)
 .text          0x00000000        0x0 c:/program files (x86)/gnu tools arm embedded/4.9 2015q2/bin/../lib/gcc/arm-none-eabi/4.9.3/../../../../arm-none-eabi/lib/armv7e-m\libg.a(lib_a-mbtowc_r.o)
 .data          0x00000000        0x0 c:/program files (x86)/gnu tools arm embedded/4.9 2015q2/bin/../lib/gcc/arm-none-eabi/4.9.3/../../../../arm-none-eabi/lib/armv7e-m\libg.a(lib_a-mbtowc_r.o)
 .bss           0x00000000        0x0 c:/program files (x86)/gnu tools arm embedded/4.9 2015q2/bin/../lib/gcc/arm-none-eabi/4.9.3/../../../../arm-none-eabi/lib/armv7e-m\libg.a(lib_a-mbtowc_r.o)
 .text._mbtowc_r
                0x00000000       0x30 c:/program files (x86)/gnu tools arm embedded/4.9 2015q2/bin/../lib/gcc/arm-none-eabi/4.9.3/../../../../arm-none-eabi/lib/armv7e-m\libg.a(lib_a-mbtowc_r.o)
 .text          0x00000000        0x0 c:/program files (x86)/gnu tools arm embedded/4.9 2015q2/bin/../lib/gcc/arm-none-eabi/4.9.3/../../../../arm-none-eabi/lib/armv7e-m\libg.a(lib_a-sccl.o)
 .data          0x00000000        0x0 c:/program files (x86)/gnu tools arm embedded/4.9 2015q2/bin/../lib/gcc/arm-none-eabi/4.9.3/../../../../arm-none-eabi/lib/armv7e-m\libg.a(lib_a-sccl.o)
 .bss           0x00000000        0x0 c:/program files (x86)/gnu tools arm embedded/4.9 2015q2/bin/../lib/gcc/arm-none-eabi/4.9.3/../../../../arm-none-eabi/lib/armv7e-m\libg.a(lib_a-sccl.o)
 .text          0x00000000        0x0 c:/program files (x86)/gnu tools arm embedded/4.9 2015q2/bin/../lib/gcc/arm-none-eabi/4.9.3/../../../../arm-none-eabi/lib/armv7e-m\libg.a(lib_a-strtoll_r.o)
 .data          0x00000000        0x0 c:/program files (x86)/gnu tools arm embedded/4.9 2015q2/bin/../lib/gcc/arm-none-eabi/4.9.3/../../../../arm-none-eabi/lib/armv7e-m\libg.a(lib_a-strtoll_r.o)
 .bss           0x00000000        0x0 c:/program files (x86)/gnu tools arm embedded/4.9 2015q2/bin/../lib/gcc/arm-none-eabi/4.9.3/../../../../arm-none-eabi/lib/armv7e-m\libg.a(lib_a-strtoll_r.o)
 .text          0x00000000        0x0 c:/program files (x86)/gnu tools arm embedded/4.9 2015q2/bin/../lib/gcc/arm-none-eabi/4.9.3/../../../../arm-none-eabi/lib/armv7e-m\libg.a(lib_a-strtoull_r.o)
 .data          0x00000000        0x0 c:/program files (x86)/gnu tools arm embedded/4.9 2015q2/bin/../lib/gcc/arm-none-eabi/4.9.3/../../../../arm-none-eabi/lib/armv7e-m\libg.a(lib_a-strtoull_r.o)
 .bss           0x00000000        0x0 c:/program files (x86)/gnu tools arm embedded/4.9 2015q2/bin/../lib/gcc/arm-none-eabi/4.9.3/../../../../arm-none-eabi/lib/armv7e-m\libg.a(lib_a-strtoull_r.o)
 .text          0x00000000        0x0 c:/program files (x86)/gnu tools arm embedded/4.9 2015q2/bin/../lib/gcc/arm-none-eabi/4.9.3/../../../../arm-none-eabi/lib/armv7e-m\libg.a(lib_a-fclose.o)
 .data          0x00000000        0x0 c:/program files (x86)/gnu tools arm embedded/4.9 2015q2/bin/../lib/gcc/arm-none-eabi/4.9.3/../../../../arm-none-eabi/lib/armv7e-m\libg.a(lib_a-fclose.o)
 .bss           0x00000000        0x0 c:/program files (x86)/gnu tools arm embedded/4.9 2015q2/bin/../lib/gcc/arm-none-eabi/4.9.3/../../../../arm-none-eabi/lib/armv7e-m\libg.a(lib_a-fclose.o)
 .text._fclose_r
                0x00000000       0x84 c:/program files (x86)/gnu tools arm embedded/4.9 2015q2/bin/../lib/gcc/arm-none-eabi/4.9.3/../../../../arm-none-eabi/lib/armv7e-m\libg.a(lib_a-fclose.o)
 .text.fclose   0x00000000       0x10 c:/program files (x86)/gnu tools arm embedded/4.9 2015q2/bin/../lib/gcc/arm-none-eabi/4.9.3/../../../../arm-none-eabi/lib/armv7e-m\libg.a(lib_a-fclose.o)
 .debug_frame   0x00000000       0x44 c:/program files (x86)/gnu tools arm embedded/4.9 2015q2/bin/../lib/gcc/arm-none-eabi/4.9.3/../../../../arm-none-eabi/lib/armv7e-m\libg.a(lib_a-fclose.o)
 .ARM.attributes
                0x00000000       0x2e c:/program files (x86)/gnu tools arm embedded/4.9 2015q2/bin/../lib/gcc/arm-none-eabi/4.9.3/../../../../arm-none-eabi/lib/armv7e-m\libg.a(lib_a-fclose.o)
 .text          0x00000000       0xa0 c:/program files (x86)/gnu tools arm embedded/4.9 2015q2/bin/../lib/gcc/arm-none-eabi/4.9.3/armv7e-m\libgcc.a(_arm_truncdfsf2.o)
 .data          0x00000000        0x0 c:/program files (x86)/gnu tools arm embedded/4.9 2015q2/bin/../lib/gcc/arm-none-eabi/4.9.3/armv7e-m\libgcc.a(_arm_truncdfsf2.o)
 .bss           0x00000000        0x0 c:/program files (x86)/gnu tools arm embedded/4.9 2015q2/bin/../lib/gcc/arm-none-eabi/4.9.3/armv7e-m\libgcc.a(_arm_truncdfsf2.o)
 .ARM.attributes
                0x00000000       0x1e c:/program files (x86)/gnu tools arm embedded/4.9 2015q2/bin/../lib/gcc/arm-none-eabi/4.9.3/armv7e-m\libgcc.a(_arm_truncdfsf2.o)
 .data          0x00000000        0x0 c:/program files (x86)/gnu tools arm embedded/4.9 2015q2/bin/../lib/gcc/arm-none-eabi/4.9.3/armv7e-m\libgcc.a(_aeabi_uldivmod.o)
 .bss           0x00000000        0x0 c:/program files (x86)/gnu tools arm embedded/4.9 2015q2/bin/../lib/gcc/arm-none-eabi/4.9.3/armv7e-m\libgcc.a(_aeabi_uldivmod.o)
 .data          0x00000000        0x0 c:/program files (x86)/gnu tools arm embedded/4.9 2015q2/bin/../lib/gcc/arm-none-eabi/4.9.3/armv7e-m\libgcc.a(bpabi.o)
 .bss           0x00000000        0x0 c:/program files (x86)/gnu tools arm embedded/4.9 2015q2/bin/../lib/gcc/arm-none-eabi/4.9.3/armv7e-m\libgcc.a(bpabi.o)
 .data          0x00000000        0x0 c:/program files (x86)/gnu tools arm embedded/4.9 2015q2/bin/../lib/gcc/arm-none-eabi/4.9.3/armv7e-m\libgcc.a(_dvmd_tls.o)
 .bss           0x00000000        0x0 c:/program files (x86)/gnu tools arm embedded/4.9 2015q2/bin/../lib/gcc/arm-none-eabi/4.9.3/armv7e-m\libgcc.a(_dvmd_tls.o)
 .data          0x00000000        0x0 c:/program files (x86)/gnu tools arm embedded/4.9 2015q2/bin/../lib/gcc/arm-none-eabi/4.9.3/armv7e-m\libgcc.a(_divdi3.o)
 .bss           0x00000000        0x0 c:/program files (x86)/gnu tools arm embedded/4.9 2015q2/bin/../lib/gcc/arm-none-eabi/4.9.3/armv7e-m\libgcc.a(_divdi3.o)
 .ARM.extab     0x00000000        0x0 c:/program files (x86)/gnu tools arm embedded/4.9 2015q2/bin/../lib/gcc/arm-none-eabi/4.9.3/armv7e-m\libgcc.a(_divdi3.o)
 .data          0x00000000        0x0 c:/program files (x86)/gnu tools arm embedded/4.9 2015q2/bin/../lib/gcc/arm-none-eabi/4.9.3/armv7e-m\libgcc.a(_udivdi3.o)
 .bss           0x00000000        0x0 c:/program files (x86)/gnu tools arm embedded/4.9 2015q2/bin/../lib/gcc/arm-none-eabi/4.9.3/armv7e-m\libgcc.a(_udivdi3.o)
 .ARM.extab     0x00000000        0x0 c:/program files (x86)/gnu tools arm embedded/4.9 2015q2/bin/../lib/gcc/arm-none-eabi/4.9.3/armv7e-m\libgcc.a(_udivdi3.o)

Memory Configuration

Name             Origin             Length             Attributes
flash            0x08000000         0x00100000
ram              0x20000000         0x0001c000
ethram           0x2001c000         0x00004000
ccmram           0x10000000         0x00010000
*default*        0x00000000         0xffffffff

Linker script and memory map

LOAD ../../build/obj/crt0.o
LOAD ../../build/obj/vectors.o
LOAD ../../build/obj/chcore.o
LOAD ../../build/obj/chcore_v7m.o
LOAD ../../build/obj/nvic.o
LOAD ../../build/obj/chsys.o
LOAD ../../build/obj/chdebug.o
LOAD ../../build/obj/chlists.o
LOAD ../../build/obj/chvt.o
LOAD ../../build/obj/chschd.o
LOAD ../../build/obj/chthreads.o
LOAD ../../build/obj/chdynamic.o
LOAD ../../build/obj/chregistry.o
LOAD ../../build/obj/chsem.o
LOAD ../../build/obj/chmtx.o
LOAD ../../build/obj/chcond.o
LOAD ../../build/obj/chevents.o
LOAD ../../build/obj/chmsg.o
LOAD ../../build/obj/chmboxes.o
LOAD ../../build/obj/chqueues.o
LOAD ../../build/obj/chmemcore.o
LOAD ../../build/obj/chheap.o
LOAD ../../build/obj/chmempools.o
LOAD ../../build/obj/test.o
LOAD ../../build/obj/testthd.o
LOAD ../../build/obj/testsem.o
LOAD ../../build/obj/testmtx.o
LOAD ../../build/obj/testmsg.o
LOAD ../../build/obj/testmbox.o
LOAD ../../build/obj/testevt.o
LOAD ../../build/obj/testheap.o
LOAD ../../build/obj/testpools.o
LOAD ../../build/obj/testdyn.o
LOAD ../../build/obj/testqueues.o
LOAD ../../build/obj/testbmk.o
LOAD ../../build/obj/hal.o
LOAD ../../build/obj/adc.o
LOAD ../../build/obj/can.o
LOAD ../../build/obj/ext.o
LOAD ../../build/obj/gpt.o
LOAD ../../build/obj/i2c.o
LOAD ../../build/obj/icu.o
LOAD ../../build/obj/mac.o
LOAD ../../build/obj/mmc_spi.o
LOAD ../../build/obj/mmcsd.o
LOAD ../../build/obj/pal.o
LOAD ../../build/obj/pwm.o
LOAD ../../build/obj/rtc.o
LOAD ../../build/obj/sdc.o
LOAD ../../build/obj/serial.o
LOAD ../../build/obj/serial_usb.o
LOAD ../../build/obj/spi.o
LOAD ../../build/obj/tm.o
LOAD ../../build/obj/uart.o
LOAD ../../build/obj/usb.o
LOAD ../../build/obj/stm32_dma.o
LOAD ../../build/obj/hal_lld.o
LOAD ../../build/obj/adc_lld.o
LOAD ../../build/obj/ext_lld_isr.o
LOAD ../../build/obj/can_lld.o
LOAD ../../build/obj/ext_lld.o
LOAD ../../build/obj/mac_lld.o
LOAD ../../build/obj/sdc_lld.o
LOAD ../../build/obj/pal_lld.o
LOAD ../../build/obj/i2c_lld.o
LOAD ../../build/obj/usb_lld.o
LOAD ../../build/obj/rtc_lld.o
LOAD ../../build/obj/spi_lld.o
LOAD ../../build/obj/gpt_lld.o
LOAD ../../build/obj/icu_lld.o
LOAD ../../build/obj/pwm_lld.o
LOAD ../../build/obj/serial_lld.o
LOAD ../../build/obj/uart_lld.o
LOAD ../../build/obj/board.o
LOAD ../../build/obj/fatfs_diskio.o
LOAD ../../build/obj/fatfs_syscall.o
LOAD ../../build/obj/ff.o
LOAD ../../build/obj/ccsbcs.o
LOAD ../../build/obj/evtimer.o
LOAD ../../build/obj/syscalls.o
LOAD ../../build/obj/shell2.o
LOAD ../../build/obj/chprintf.o
LOAD ../../build/obj/chrtclib.o
LOAD ../../build/obj/main.o
LOAD ../../build/obj/console.o
LOAD ../../build/obj/eeprom.o
LOAD ../../build/obj/sdcard.o
LOAD ../../build/obj/log.o
LOAD ../../build/obj/can_comm.o
LOAD ../../build/obj/light.o
LOAD ../../build/obj/speed.o
LOAD ../../build/obj/meas.o
LOAD ../../build/obj/cruise.o
LOAD ../../build/obj/dsp.o
LOAD ../../build/obj/gfx.o
LOAD ../../build/obj/uart_comm.o
LOAD ../../build/obj/button.o
LOAD ../../build/obj/brake.o
LOAD ../../build/obj/safety.o
LOAD ../../build/obj/calc.o
LOAD ../../build/obj/nmea.o
                0x00000400                __main_stack_size__ = 0x400
                0x00000400                __process_stack_size__ = 0x400
                0x20000000                __ram_start__ = ORIGIN (ram)
                0x0001c000                __ram_size__ = 0x1c000
                0x2001c000                __ram_end__ = (__ram_start__ + __ram_size__)
                0x00000000                . = 0x0
                0x00000000                _text = .

startup         0x08000000      0x1ac
 *(vectors)
 vectors        0x08000000      0x1ac ../../build/obj/vectors.o
                0x08000000                _vectors

constructors    0x080001ac        0x0
                0x080001ac                PROVIDE (__init_array_start, .)
 *(SORT(.init_array.*))
 *(.init_array)
                0x080001ac                PROVIDE (__init_array_end, .)

destructors     0x080001ac        0x0
                0x080001ac                PROVIDE (__fini_array_start, .)
 *(.fini_array)
 *(SORT(.fini_array.*))
                0x080001ac                PROVIDE (__fini_array_end, .)

.text           0x080001c0    0x20da2
 *(.text.startup.*)
 .text.startup.main
                0x080001c0       0x9c ../../build/obj/main.o
                0x080001c0                main
 *(.text)
 *fill*         0x0800025c        0x4 
 .text          0x08000260      0x370 c:/program files (x86)/gnu tools arm embedded/4.9 2015q2/bin/../lib/gcc/arm-none-eabi/4.9.3/armv7e-m\libgcc.a(_arm_addsubdf3.o)
                0x08000260                __aeabi_drsub
                0x08000268                __aeabi_dsub
                0x08000268                __subdf3
                0x0800026c                __aeabi_dadd
                0x0800026c                __adddf3
                0x080004e4                __floatunsidf
                0x080004e4                __aeabi_ui2d
                0x08000504                __floatsidf
                0x08000504                __aeabi_i2d
                0x08000528                __aeabi_f2d
                0x08000528                __extendsfdf2
                0x08000564                __floatundidf
                0x08000564                __aeabi_ul2d
                0x08000574                __floatdidf
                0x08000574                __aeabi_l2d
 .text          0x080005d0      0x424 c:/program files (x86)/gnu tools arm embedded/4.9 2015q2/bin/../lib/gcc/arm-none-eabi/4.9.3/armv7e-m\libgcc.a(_arm_muldivdf3.o)
                0x080005d0                __aeabi_dmul
                0x080005d0                __muldf3
                0x08000824                __divdf3
                0x08000824                __aeabi_ddiv
 *fill*         0x080009f4        0xc 
 .text          0x08000a00      0x110 c:/program files (x86)/gnu tools arm embedded/4.9 2015q2/bin/../lib/gcc/arm-none-eabi/4.9.3/armv7e-m\libgcc.a(_arm_cmpdf2.o)
                0x08000a00                __gtdf2
                0x08000a00                __gedf2
                0x08000a08                __ltdf2
                0x08000a08                __ledf2
                0x08000a10                __nedf2
                0x08000a10                __eqdf2
                0x08000a10                __cmpdf2
                0x08000a8c                __aeabi_cdrcmple
                0x08000a9c                __aeabi_cdcmpeq
                0x08000a9c                __aeabi_cdcmple
                0x08000aac                __aeabi_dcmpeq
                0x08000ac0                __aeabi_dcmplt
                0x08000ad4                __aeabi_dcmple
                0x08000ae8                __aeabi_dcmpge
                0x08000afc                __aeabi_dcmpgt
 .text          0x08000b10       0x50 c:/program files (x86)/gnu tools arm embedded/4.9 2015q2/bin/../lib/gcc/arm-none-eabi/4.9.3/armv7e-m\libgcc.a(_arm_fixdfsi.o)
                0x08000b10                __aeabi_d2iz
                0x08000b10                __fixdfsi
 .text          0x08000b60       0x40 c:/program files (x86)/gnu tools arm embedded/4.9 2015q2/bin/../lib/gcc/arm-none-eabi/4.9.3/armv7e-m\libgcc.a(_arm_fixunsdfsi.o)
                0x08000b60                __aeabi_d2uiz
                0x08000b60                __fixunsdfsi
 .text          0x08000ba0      0x134 c:/program files (x86)/gnu tools arm embedded/4.9 2015q2/bin/../lib/gcc/arm-none-eabi/4.9.3/../../../../arm-none-eabi/lib/armv7e-m\libg.a(lib_a-memcpy.o)
                0x08000ba0                memcpy
 *fill*         0x08000cd4        0xc 
 .text          0x08000ce0      0x2dc c:/program files (x86)/gnu tools arm embedded/4.9 2015q2/bin/../lib/gcc/arm-none-eabi/4.9.3/../../../../arm-none-eabi/lib/armv7e-m\libg.a(lib_a-strcmp.o)
                0x08000ce8                strcmp
 *fill*         0x08000fbc        0x4 
 .text          0x08000fc0       0x30 c:/program files (x86)/gnu tools arm embedded/4.9 2015q2/bin/../lib/gcc/arm-none-eabi/4.9.3/armv7e-m\libgcc.a(_aeabi_uldivmod.o)
                0x08000fc0                __aeabi_uldivmod
 .text          0x08000ff0       0x60 c:/program files (x86)/gnu tools arm embedded/4.9 2015q2/bin/../lib/gcc/arm-none-eabi/4.9.3/armv7e-m\libgcc.a(bpabi.o)
                0x08000ff0                __gnu_ldivmod_helper
                0x08001020                __gnu_uldivmod_helper
 .text          0x08001050        0x4 c:/program files (x86)/gnu tools arm embedded/4.9 2015q2/bin/../lib/gcc/arm-none-eabi/4.9.3/armv7e-m\libgcc.a(_dvmd_tls.o)
                0x08001050                __aeabi_idiv0
                0x08001050                __aeabi_ldiv0
 *fill*         0x08001054        0xc 
 .text          0x08001060      0x29c c:/program files (x86)/gnu tools arm embedded/4.9 2015q2/bin/../lib/gcc/arm-none-eabi/4.9.3/armv7e-m\libgcc.a(_divdi3.o)
                0x08001060                __divdi3
 *fill*         0x080012fc        0x4 
 .text          0x08001300      0x26c c:/program files (x86)/gnu tools arm embedded/4.9 2015q2/bin/../lib/gcc/arm-none-eabi/4.9.3/armv7e-m\libgcc.a(_udivdi3.o)
                0x08001300                __udivdi3
 *(.text.*)
 *fill*         0x0800156c        0x4 
 .text.__late_init
                0x08001570        0x4 ../../build/obj/crt0.o
                0x08001570                __late_init
 *fill*         0x08001574        0xc 
 .text._default_exit
                0x08001580        0x4 ../../build/obj/crt0.o
                0x08001580                _default_exit
 *fill*         0x08001584        0xc 
 .text.ResetHandler
                0x08001590      0x100 ../../build/obj/crt0.o
                0x08001590                ResetHandler
 .text._unhandled_exception
                0x08001690        0x4 ../../build/obj/vectors.o
                0x08001690                Vector58
                0x08001690                VectorE8
                0x08001690                Vector9C
                0x08001690                Vector1A0
                0x08001690                Vector5C
                0x08001690                NMIVector
                0x08001690                Vector11C
                0x08001690                Vector19C
                0x08001690                Vector168
                0x08001690                Vector110
                0x08001690                VectorC8
                0x08001690                VectorA8
                0x08001690                VectorB4
                0x08001690                Vector160
                0x08001690                VectorEC
                0x08001690                UsageFaultVector
                0x08001690                DebugMonitorVector
                0x08001690                Vector40
                0x08001690                VectorF8
                0x08001690                Vector190
                0x08001690                Vector148
                0x08001690                Vector188
                0x08001690                PendSVVector
                0x08001690                Vector198
                0x08001690                Vector118
                0x08001690                Vector64
                0x08001690                VectorCC
                0x08001690                Vector54
                0x08001690                Vector138
                0x08001690                Vector24
                0x08001690                Vector178
                0x08001690                Vector1A4
                0x08001690                BusFaultVector
                0x08001690                VectorD0
                0x08001690                Vector140
                0x08001690                VectorE4
                0x08001690                HardFaultVector
                0x08001690                Vector134
                0x08001690                VectorF0
                0x08001690                Vector13C
                0x08001690                Vector100
                0x08001690                VectorE0
                0x08001690                VectorF4
                0x08001690                MemManageVector
                0x08001690                VectorA0
                0x08001690                VectorC4
                0x08001690                Vector180
                0x08001690                Vector114
                0x08001690                Vector164
                0x08001690                Vector60
                0x08001690                Vector1C
                0x08001690                Vector17C
                0x08001690                Vector48
                0x08001690                Vector1A8
                0x08001690                Vector16C
                0x08001690                Vector4C
                0x08001690                Vector144
                0x08001690                Vector15C
                0x08001690                Vector68
                0x08001690                _unhandled_exception
                0x08001690                Vector170
                0x08001690                Vector184
                0x08001690                Vector10C
                0x08001690                Vector50
                0x08001690                Vector194
                0x08001690                Vector44
                0x08001690                Vector28
                0x08001690                Vector34
                0x08001690                Vector20
                0x08001690                Vector18C
                0x08001690                Vector174
 *fill*         0x08001694        0xc 
 .text.port_halt
                0x080016a0        0x4 ../../build/obj/chcore.o
                0x080016a0                port_halt
 *fill*         0x080016a4        0xc 
 .text._port_switch_from_isr
                0x080016b0        0x8 ../../build/obj/chcore_v7m.o
                0x080016b0                _port_switch_from_isr
 *fill*         0x080016b8        0x8 
 .text.SVCallVector
                0x080016c0       0x14 ../../build/obj/chcore_v7m.o
                0x080016c0                SVCallVector
 *fill*         0x080016d4        0xc 
 .text._port_init
                0x080016e0       0x30 ../../build/obj/chcore_v7m.o
                0x080016e0                _port_init
 .text._port_irq_epilogue
                0x08001710       0x74 ../../build/obj/chcore_v7m.o
                0x08001710                _port_irq_epilogue
 *fill*         0x08001784        0xc 
 .text.SysTickVector
                0x08001790       0x1c ../../build/obj/chcore_v7m.o
                0x08001790                SysTickVector
 *fill*         0x080017ac        0x4 
 .text._port_switch
                0x080017b0       0x10 ../../build/obj/chcore_v7m.o
                0x080017b0                _port_switch
 .text._port_thread_start
                0x080017c0       0x10 ../../build/obj/chcore_v7m.o
                0x080017c0                _port_thread_start
 .text.nvicEnableVector
                0x080017d0       0x48 ../../build/obj/nvic.o
                0x080017d0                nvicEnableVector
 *fill*         0x08001818        0x8 
 .text.nvicSetSystemHandlerPriority
                0x08001820       0x2c ../../build/obj/nvic.o
                0x08001820                nvicSetSystemHandlerPriority
 *fill*         0x0800184c        0x4 
 .text._idle_thread
                0x08001850       0x14 ../../build/obj/chsys.o
                0x08001850                _idle_thread
 *fill*         0x08001864        0xc 
 .text.chSysInit
                0x08001870       0x5c ../../build/obj/chsys.o
                0x08001870                chSysInit
 *fill*         0x080018cc        0x4 
 .text.chSysTimerHandlerI
                0x080018d0       0x58 ../../build/obj/chsys.o
                0x080018d0                chSysTimerHandlerI
 *fill*         0x08001928        0x8 
 .text._vt_init
                0x08001930       0x18 ../../build/obj/chvt.o
                0x08001930                _vt_init
 *fill*         0x08001948        0x8 
 .text.chVTSetI
                0x08001950       0x38 ../../build/obj/chvt.o
                0x08001950                chVTSetI
 *fill*         0x08001988        0x8 
 .text.chVTResetI
                0x08001990       0x24 ../../build/obj/chvt.o
                0x08001990                chVTResetI
 *fill*         0x080019b4        0xc 
 .text.wakeup   0x080019c0       0x70 ../../build/obj/chschd.o
 .text._scheduler_init
                0x08001a30       0x14 ../../build/obj/chschd.o
                0x08001a30                _scheduler_init
 *fill*         0x08001a44        0xc 
 .text.chSchReadyI
                0x08001a50       0x2c ../../build/obj/chschd.o
                0x08001a50                chSchReadyI
 *fill*         0x08001a7c        0x4 
 .text.chSchGoSleepS
                0x08001a80       0x28 ../../build/obj/chschd.o
                0x08001a80                chSchGoSleepS
 *fill*         0x08001aa8        0x8 
 .text.chSchGoSleepTimeoutS
                0x08001ab0       0x44 ../../build/obj/chschd.o
                0x08001ab0                chSchGoSleepTimeoutS
 *fill*         0x08001af4        0xc 
 .text.chSchWakeupS
                0x08001b00       0x58 ../../build/obj/chschd.o
                0x08001b00                chSchWakeupS
 *fill*         0x08001b58        0x8 
 .text.chSchDoRescheduleBehind
                0x08001b60       0x40 ../../build/obj/chschd.o
                0x08001b60                chSchDoRescheduleBehind
 .text.chSchDoRescheduleAhead
                0x08001ba0       0x3c ../../build/obj/chschd.o
                0x08001ba0                chSchDoRescheduleAhead
 *fill*         0x08001bdc        0x4 
 .text.chSchRescheduleS
                0x08001be0       0x18 ../../build/obj/chschd.o
                0x08001be0                chSchRescheduleS
 *fill*         0x08001bf8        0x8 
 .text.chSchDoReschedule
                0x08001c00       0x14 ../../build/obj/chschd.o
                0x08001c00                chSchDoReschedule
 *fill*         0x08001c14        0xc 
 .text._thread_init
                0x08001c20       0x50 ../../build/obj/chthreads.o
                0x08001c20                _thread_init
 .text.chThdCreateI
                0x08001c70       0x70 ../../build/obj/chthreads.o
                0x08001c70                chThdCreateI
 .text.chThdCreateStatic
                0x08001ce0       0x88 ../../build/obj/chthreads.o
                0x08001ce0                chThdCreateStatic
 *fill*         0x08001d68        0x8 
 .text.chThdSetPriority
                0x08001d70       0x30 ../../build/obj/chthreads.o
                0x08001d70                chThdSetPriority
 .text.chThdResume
                0x08001da0       0x1c ../../build/obj/chthreads.o
                0x08001da0                chThdResume
 *fill*         0x08001dbc        0x4 
 .text.chThdTerminate
                0x08001dc0       0x18 ../../build/obj/chthreads.o
                0x08001dc0                chThdTerminate
 *fill*         0x08001dd8        0x8 
 .text.chThdSleep
                0x08001de0       0x18 ../../build/obj/chthreads.o
                0x08001de0                chThdSleep
 *fill*         0x08001df8        0x8 
 .text.chThdSleepUntil
                0x08001e00       0x24 ../../build/obj/chthreads.o
                0x08001e00                chThdSleepUntil
 *fill*         0x08001e24        0xc 
 .text.chThdYield
                0x08001e30       0x28 ../../build/obj/chthreads.o
                0x08001e30                chThdYield
 *fill*         0x08001e58        0x8 
 .text.chThdExitS
                0x08001e60       0x40 ../../build/obj/chthreads.o
                0x08001e60                chThdExitS
 .text.chThdExit
                0x08001ea0        0xc ../../build/obj/chthreads.o
                0x08001ea0                chThdExit
 *fill*         0x08001eac        0x4 
 .text.chThdWait
                0x08001eb0       0x38 ../../build/obj/chthreads.o
                0x08001eb0                chThdWait
 *fill*         0x08001ee8        0x8 
 .text.chThdAddRef
                0x08001ef0       0x14 ../../build/obj/chdynamic.o
                0x08001ef0                chThdAddRef
 *fill*         0x08001f04        0xc 
 .text.chThdRelease
                0x08001f10       0x50 ../../build/obj/chdynamic.o
                0x08001f10                chThdRelease
 .text.chThdCreateFromHeap
                0x08001f60       0x3c ../../build/obj/chdynamic.o
                0x08001f60                chThdCreateFromHeap
 *fill*         0x08001f9c        0x4 
 .text.chThdCreateFromMemoryPool
                0x08001fa0       0x44 ../../build/obj/chdynamic.o
                0x08001fa0                chThdCreateFromMemoryPool
 *fill*         0x08001fe4        0xc 
 .text.chRegFirstThread
                0x08001ff0       0x1c ../../build/obj/chregistry.o
                0x08001ff0                chRegFirstThread
 *fill*         0x0800200c        0x4 
 .text.chRegNextThread
                0x08002010       0x2c ../../build/obj/chregistry.o
                0x08002010                chRegNextThread
 *fill*         0x0800203c        0x4 
 .text.chSemInit
                0x08002040        0x8 ../../build/obj/chsem.o
                0x08002040                chSemInit
 *fill*         0x08002048        0x8 
 .text.chSemResetI
                0x08002050       0x28 ../../build/obj/chsem.o
                0x08002050                chSemResetI
 *fill*         0x08002078        0x8 
 .text.chSemReset
                0x08002080       0x18 ../../build/obj/chsem.o
                0x08002080                chSemReset
 *fill*         0x08002098        0x8 
 .text.chSemWait
                0x080020a0       0x44 ../../build/obj/chsem.o
                0x080020a0                chSemWait
 *fill*         0x080020e4        0xc 
 .text.chSemWaitTimeoutS
                0x080020f0       0x40 ../../build/obj/chsem.o
                0x080020f0                chSemWaitTimeoutS
 .text.chSemWaitTimeout
                0x08002130       0x14 ../../build/obj/chsem.o
                0x08002130                chSemWaitTimeout
 *fill*         0x08002144        0xc 
 .text.chSemSignal
                0x08002150       0x34 ../../build/obj/chsem.o
                0x08002150                chSemSignal
 *fill*         0x08002184        0xc 
 .text.chSemSignalI
                0x08002190       0x20 ../../build/obj/chsem.o
                0x08002190                chSemSignalI
 .text.chSemAddCounterI
                0x080021b0       0x30 ../../build/obj/chsem.o
                0x080021b0                chSemAddCounterI
 .text.chSemSignalWait
                0x080021e0       0x6c ../../build/obj/chsem.o
                0x080021e0                chSemSignalWait
 *fill*         0x0800224c        0x4 
 .text.chMtxInit
                0x08002250        0xc ../../build/obj/chmtx.o
                0x08002250                chMtxInit
 *fill*         0x0800225c        0x4 
 .text.chMtxLockS
                0x08002260       0xc8 ../../build/obj/chmtx.o
                0x08002260                chMtxLockS
 *fill*         0x08002328        0x8 
 .text.chMtxLock
                0x08002330       0x14 ../../build/obj/chmtx.o
                0x08002330                chMtxLock
 *fill*         0x08002344        0xc 
 .text.chMtxTryLock
                0x08002350       0x30 ../../build/obj/chmtx.o
                0x08002350                chMtxTryLock
 .text.chMtxUnlock
                0x08002380       0x64 ../../build/obj/chmtx.o
                0x08002380                chMtxUnlock
 *fill*         0x080023e4        0xc 
 .text.chMtxUnlockS
                0x080023f0       0x50 ../../build/obj/chmtx.o
                0x080023f0                chMtxUnlockS
 .text.chMtxUnlockAll
                0x08002440       0x54 ../../build/obj/chmtx.o
                0x08002440                chMtxUnlockAll
 *fill*         0x08002494        0xc 
 .text.chCondInit
                0x080024a0        0x8 ../../build/obj/chcond.o
                0x080024a0                chCondInit
 *fill*         0x080024a8        0x8 
 .text.chCondSignal
                0x080024b0       0x28 ../../build/obj/chcond.o
                0x080024b0                chCondSignal
 *fill*         0x080024d8        0x8 
 .text.chCondSignalI
                0x080024e0       0x20 ../../build/obj/chcond.o
                0x080024e0                chCondSignalI
 .text.chCondBroadcastI
                0x08002500       0x24 ../../build/obj/chcond.o
                0x08002500                chCondBroadcastI
 *fill*         0x08002524        0xc 
 .text.chCondBroadcast
                0x08002530       0x18 ../../build/obj/chcond.o
                0x08002530                chCondBroadcast
 *fill*         0x08002548        0x8 
 .text.chCondWaitS
                0x08002550       0x44 ../../build/obj/chcond.o
                0x08002550                chCondWaitS
 *fill*         0x08002594        0xc 
 .text.chCondWait
                0x080025a0       0x14 ../../build/obj/chcond.o
                0x080025a0                chCondWait
 *fill*         0x080025b4        0xc 
 .text.chCondWaitTimeoutS
                0x080025c0       0x4c ../../build/obj/chcond.o
                0x080025c0                chCondWaitTimeoutS
 *fill*         0x0800260c        0x4 
 .text.chCondWaitTimeout
                0x08002610       0x14 ../../build/obj/chcond.o
                0x08002610                chCondWaitTimeout
 *fill*         0x08002624        0xc 
 .text.chEvtRegisterMask
                0x08002630       0x28 ../../build/obj/chevents.o
                0x08002630                chEvtRegisterMask
 *fill*         0x08002658        0x8 
 .text.chEvtUnregister
                0x08002660       0x2c ../../build/obj/chevents.o
                0x08002660                chEvtUnregister
 *fill*         0x0800268c        0x4 
 .text.chEvtGetAndClearEvents
                0x08002690       0x20 ../../build/obj/chevents.o
                0x08002690                chEvtGetAndClearEvents
 .text.chEvtAddEvents
                0x080026b0       0x1c ../../build/obj/chevents.o
                0x080026b0                chEvtAddEvents
 *fill*         0x080026cc        0x4 
 .text.chEvtSignalI
                0x080026d0       0x30 ../../build/obj/chevents.o
                0x080026d0                chEvtSignalI
 .text.chEvtBroadcastFlagsI
                0x08002700       0x20 ../../build/obj/chevents.o
                0x08002700                chEvtBroadcastFlagsI
 .text.chEvtSignal
                0x08002720       0x18 ../../build/obj/chevents.o
                0x08002720                chEvtSignal
 *fill*         0x08002738        0x8 
 .text.chEvtBroadcastFlags
                0x08002740       0x18 ../../build/obj/chevents.o
                0x08002740                chEvtBroadcastFlags
 *fill*         0x08002758        0x8 
 .text.chEvtDispatch
                0x08002760       0x34 ../../build/obj/chevents.o
                0x08002760                chEvtDispatch
 *fill*         0x08002794        0xc 
 .text.chEvtWaitOne
                0x080027a0       0x3c ../../build/obj/chevents.o
                0x080027a0                chEvtWaitOne
 *fill*         0x080027dc        0x4 
 .text.chEvtWaitAny
                0x080027e0       0x38 ../../build/obj/chevents.o
                0x080027e0                chEvtWaitAny
 *fill*         0x08002818        0x8 
 .text.chEvtWaitAll
                0x08002820       0x38 ../../build/obj/chevents.o
                0x08002820                chEvtWaitAll
 *fill*         0x08002858        0x8 
 .text.chEvtWaitOneTimeout
                0x08002860       0x54 ../../build/obj/chevents.o
                0x08002860                chEvtWaitOneTimeout
 *fill*         0x080028b4        0xc 
 .text.chEvtWaitAnyTimeout
                0x080028c0       0x54 ../../build/obj/chevents.o
                0x080028c0                chEvtWaitAnyTimeout
 *fill*         0x08002914        0xc 
 .text.chEvtWaitAllTimeout
                0x08002920       0x50 ../../build/obj/chevents.o
                0x08002920                chEvtWaitAllTimeout
 .text.chMsgSend
                0x08002970       0x40 ../../build/obj/chmsg.o
                0x08002970                chMsgSend
 .text.chMsgWait
                0x080029b0       0x3c ../../build/obj/chmsg.o
                0x080029b0                chMsgWait
 *fill*         0x080029ec        0x4 
 .text.chMsgRelease
                0x080029f0       0x14 ../../build/obj/chmsg.o
                0x080029f0                chMsgRelease
 *fill*         0x08002a04        0xc 
 .text.chMBInit
                0x08002a10       0x28 ../../build/obj/chmboxes.o
                0x08002a10                chMBInit
 *fill*         0x08002a38        0x8 
 .text.chMBReset
                0x08002a40       0x34 ../../build/obj/chmboxes.o
                0x08002a40                chMBReset
 *fill*         0x08002a74        0xc 
 .text.chMBPostS
                0x08002a80       0x38 ../../build/obj/chmboxes.o
                0x08002a80                chMBPostS
 *fill*         0x08002ab8        0x8 
 .text.chMBPost
                0x08002ac0       0x14 ../../build/obj/chmboxes.o
                0x08002ac0                chMBPost
 *fill*         0x08002ad4        0xc 
 .text.chMBPostI
                0x08002ae0       0x34 ../../build/obj/chmboxes.o
                0x08002ae0                chMBPostI
 *fill*         0x08002b14        0xc 
 .text.chMBPostAheadS
                0x08002b20       0x38 ../../build/obj/chmboxes.o
                0x08002b20                chMBPostAheadS
 *fill*         0x08002b58        0x8 
 .text.chMBPostAhead
                0x08002b60       0x14 ../../build/obj/chmboxes.o
                0x08002b60                chMBPostAhead
 *fill*         0x08002b74        0xc 
 .text.chMBPostAheadI
                0x08002b80       0x30 ../../build/obj/chmboxes.o
                0x08002b80                chMBPostAheadI
 .text.chMBFetchS
                0x08002bb0       0x38 ../../build/obj/chmboxes.o
                0x08002bb0                chMBFetchS
 *fill*         0x08002be8        0x8 
 .text.chMBFetch
                0x08002bf0       0x14 ../../build/obj/chmboxes.o
                0x08002bf0                chMBFetch
 *fill*         0x08002c04        0xc 
 .text.chMBFetchI
                0x08002c10       0x38 ../../build/obj/chmboxes.o
                0x08002c10                chMBFetchI
 *fill*         0x08002c48        0x8 
 .text.qwait    0x08002c50       0x2c ../../build/obj/chqueues.o
 *fill*         0x08002c7c        0x4 
 .text.chIQInit
                0x08002c80       0x20 ../../build/obj/chqueues.o
                0x08002c80                chIQInit
 .text.chIQResetI
                0x08002ca0       0x2c ../../build/obj/chqueues.o
                0x08002ca0                chIQResetI
 *fill*         0x08002ccc        0x4 
 .text.chIQPutI
                0x08002cd0       0x50 ../../build/obj/chqueues.o
                0x08002cd0                chIQPutI
 .text.chIQGetTimeout
                0x08002d20       0x50 ../../build/obj/chqueues.o
                0x08002d20                chIQGetTimeout
 .text.chIQReadTimeout
                0x08002d70       0x70 ../../build/obj/chqueues.o
                0x08002d70                chIQReadTimeout
 .text.chOQInit
                0x08002de0       0x1c ../../build/obj/chqueues.o
                0x08002de0                chOQInit
 *fill*         0x08002dfc        0x4 
 .text.chOQResetI
                0x08002e00       0x30 ../../build/obj/chqueues.o
                0x08002e00                chOQResetI
 .text.chOQPutTimeout
                0x08002e30       0x54 ../../build/obj/chqueues.o
                0x08002e30                chOQPutTimeout
 *fill*         0x08002e84        0xc 
 .text.chOQGetI
                0x08002e90       0x48 ../../build/obj/chqueues.o
                0x08002e90                chOQGetI
 *fill*         0x08002ed8        0x8 
 .text.chOQWriteTimeout
                0x08002ee0       0x84 ../../build/obj/chqueues.o
                0x08002ee0                chOQWriteTimeout
 *fill*         0x08002f64        0xc 
 .text._core_init
                0x08002f70       0x28 ../../build/obj/chmemcore.o
                0x08002f70                _core_init
 *fill*         0x08002f98        0x8 
 .text.chCoreAlloc
                0x08002fa0       0x38 ../../build/obj/chmemcore.o
                0x08002fa0                chCoreAlloc
 *fill*         0x08002fd8        0x8 
 .text.chCoreStatus
                0x08002fe0       0x14 ../../build/obj/chmemcore.o
                0x08002fe0                chCoreStatus
 *fill*         0x08002ff4        0xc 
 .text._heap_init
                0x08003000       0x1c ../../build/obj/chheap.o
                0x08003000                _heap_init
 *fill*         0x0800301c        0x4 
 .text.chHeapInit
                0x08003020       0x14 ../../build/obj/chheap.o
                0x08003020                chHeapInit
 *fill*         0x08003034        0xc 
 .text.chHeapAlloc
                0x08003040       0x80 ../../build/obj/chheap.o
                0x08003040                chHeapAlloc
 .text.chHeapFree
                0x080030c0       0x90 ../../build/obj/chheap.o
                0x080030c0                chHeapFree
 .text.chHeapStatus
                0x08003150       0x40 ../../build/obj/chheap.o
                0x08003150                chHeapStatus
 .text.chPoolInit
                0x08003190        0xc ../../build/obj/chmempools.o
                0x08003190                chPoolInit
 *fill*         0x0800319c        0x4 
 .text.chPoolLoadArray
                0x080031a0       0x20 ../../build/obj/chmempools.o
                0x080031a0                chPoolLoadArray
 .text.chPoolAlloc
                0x080031c0       0x2c ../../build/obj/chmempools.o
                0x080031c0                chPoolAlloc
 *fill*         0x080031ec        0x4 
 .text.chPoolFree
                0x080031f0       0x14 ../../build/obj/chmempools.o
                0x080031f0                chPoolFree
 *fill*         0x08003204        0xc 
 .text.tmr      0x08003210        0xc ../../build/obj/test.o
 *fill*         0x0800321c        0x4 
 .text.print_line
                0x08003220       0x30 ../../build/obj/test.o
 .text.test_printn
                0x08003250       0x5c ../../build/obj/test.o
                0x08003250                test_printn
 *fill*         0x080032ac        0x4 
 .text.test_print
                0x080032b0       0x20 ../../build/obj/test.o
                0x080032b0                test_print
 .text.test_println
                0x080032d0       0x34 ../../build/obj/test.o
                0x080032d0                test_println
 *fill*         0x08003304        0xc 
 .text.test_emit_token
                0x08003310       0x1c ../../build/obj/test.o
                0x08003310                test_emit_token
 *fill*         0x0800332c        0x4 
 .text._test_assert
                0x08003330       0x2c ../../build/obj/test.o
                0x08003330                _test_assert
 *fill*         0x0800335c        0x4 
 .text._test_assert_sequence
                0x08003360       0x50 ../../build/obj/test.o
                0x08003360                _test_assert_sequence
 .text._test_assert_time_window
                0x080033b0       0x3c ../../build/obj/test.o
                0x080033b0                _test_assert_time_window
 *fill*         0x080033ec        0x4 
 .text.test_terminate_threads
                0x080033f0       0x20 ../../build/obj/test.o
                0x080033f0                test_terminate_threads
 .text.test_wait_threads
                0x08003410       0x24 ../../build/obj/test.o
                0x08003410                test_wait_threads
 *fill*         0x08003434        0xc 
 .text.test_cpu_pulse
                0x08003440       0x4c ../../build/obj/test.o
                0x08003440                test_cpu_pulse
 *fill*         0x0800348c        0x4 
 .text.test_wait_tick
                0x08003490       0x14 ../../build/obj/test.o
                0x08003490                test_wait_tick
 *fill*         0x080034a4        0xc 
 .text.test_start_timer
                0x080034b0       0x44 ../../build/obj/test.o
                0x080034b0                test_start_timer
 *fill*         0x080034f4        0xc 
 .text.TestThread
                0x08003500      0x31c ../../build/obj/test.o
                0x08003500                TestThread
 *fill*         0x0800381c        0x4 
 .text.thd1_execute
                0x08003820       0xc8 ../../build/obj/testthd.o
 *fill*         0x080038e8        0x8 
 .text.thread   0x080038f0        0xc ../../build/obj/testthd.o
 *fill*         0x080038fc        0x4 
 .text.thd2_execute
                0x08003900       0xd8 ../../build/obj/testthd.o
 *fill*         0x080039d8        0x8 
 .text.thd3_execute
                0x080039e0      0x130 ../../build/obj/testthd.o
 .text.thd4_execute
                0x08003b10       0x78 ../../build/obj/testthd.o
 *fill*         0x08003b88        0x8 
 .text.sem1_execute
                0x08003b90      0x144 ../../build/obj/testsem.o
 *fill*         0x08003cd4        0xc 
 .text.thread3  0x08003ce0       0x18 ../../build/obj/testsem.o
 *fill*         0x08003cf8        0x8 
 .text.thread1  0x08003d00       0x18 ../../build/obj/testsem.o
 *fill*         0x08003d18        0x8 
 .text.sem1_setup
                0x08003d20        0xc ../../build/obj/testsem.o
 *fill*         0x08003d2c        0x4 
 .text.sem2_setup
                0x08003d30        0xc ../../build/obj/testsem.o
 *fill*         0x08003d3c        0x4 
 .text.sem3_setup
                0x08003d40        0xc ../../build/obj/testsem.o
 *fill*         0x08003d4c        0x4 
 .text.thread2  0x08003d50       0x28 ../../build/obj/testsem.o
 *fill*         0x08003d78        0x8 
 .text.thread4  0x08003d80       0x24 ../../build/obj/testsem.o
 *fill*         0x08003da4        0xc 
 .text.sem4_execute
                0x08003db0      0x104 ../../build/obj/testsem.o
 *fill*         0x08003eb4        0xc 
 .text.sem2_execute
                0x08003ec0      0x148 ../../build/obj/testsem.o
 *fill*         0x08004008        0x8 
 .text.sem3_execute
                0x08004010       0x98 ../../build/obj/testsem.o
 *fill*         0x080040a8        0x8 
 .text.mtx1_execute
                0x080040b0       0xdc ../../build/obj/testmtx.o
 *fill*         0x0800418c        0x4 
 .text.thread1  0x08004190       0x1c ../../build/obj/testmtx.o
 *fill*         0x080041ac        0x4 
 .text.thread12
                0x080041b0       0x1c ../../build/obj/testmtx.o
 *fill*         0x080041cc        0x4 
 .text.mtx1_setup
                0x080041d0        0xc ../../build/obj/testmtx.o
 *fill*         0x080041dc        0x4 
 .text.mtx2_setup
                0x080041e0        0xc ../../build/obj/testmtx.o
 *fill*         0x080041ec        0x4 
 .text.mtx3_setup
                0x080041f0       0x1c ../../build/obj/testmtx.o
 *fill*         0x0800420c        0x4 
 .text.mtx4_setup
                0x08004210       0x1c ../../build/obj/testmtx.o
 *fill*         0x0800422c        0x4 
 .text.mtx5_setup
                0x08004230        0xc ../../build/obj/testmtx.o
 *fill*         0x0800423c        0x4 
 .text.mtx2_execute
                0x08004240       0xa8 ../../build/obj/testmtx.o
 *fill*         0x080042e8        0x8 
 .text.mtx3_execute
                0x080042f0       0xe0 ../../build/obj/testmtx.o
 .text.thread2L
                0x080043d0       0x28 ../../build/obj/testmtx.o
 *fill*         0x080043f8        0x8 
 .text.thread3LL
                0x08004400       0x20 ../../build/obj/testmtx.o
 .text.thread2M
                0x08004420       0x18 ../../build/obj/testmtx.o
 *fill*         0x08004438        0x8 
 .text.thread2H
                0x08004440       0x28 ../../build/obj/testmtx.o
 *fill*         0x08004468        0x8 
 .text.thread3HH
                0x08004470       0x28 ../../build/obj/testmtx.o
 *fill*         0x08004498        0x8 
 .text.thread3H
                0x080044a0       0x18 ../../build/obj/testmtx.o
 *fill*         0x080044b8        0x8 
 .text.thread3M
                0x080044c0       0x28 ../../build/obj/testmtx.o
 *fill*         0x080044e8        0x8 
 .text.thread3L
                0x080044f0       0x40 ../../build/obj/testmtx.o
 .text.thread4b
                0x08004530       0x1c ../../build/obj/testmtx.o
 *fill*         0x0800454c        0x4 
 .text.thread4a
                0x08004550       0x1c ../../build/obj/testmtx.o
 *fill*         0x0800456c        0x4 
 .text.mtx4_execute
                0x08004570      0x25c ../../build/obj/testmtx.o
 *fill*         0x080047cc        0x4 
 .text.mtx5_execute
                0x080047d0       0xb8 ../../build/obj/testmtx.o
 *fill*         0x08004888        0x8 
 .text.mtx6_execute
                0x08004890       0xec ../../build/obj/testmtx.o
 *fill*         0x0800497c        0x4 
 .text.thread10
                0x08004980       0x28 ../../build/obj/testmtx.o
 *fill*         0x080049a8        0x8 
 .text.mtx6_setup
                0x080049b0       0x1c ../../build/obj/testmtx.o
 *fill*         0x080049cc        0x4 
 .text.mtx7_setup
                0x080049d0       0x1c ../../build/obj/testmtx.o
 *fill*         0x080049ec        0x4 
 .text.mtx8_setup
                0x080049f0       0x24 ../../build/obj/testmtx.o
 *fill*         0x08004a14        0xc 
 .text.mtx7_execute
                0x08004a20       0xc0 ../../build/obj/testmtx.o
 .text.mtx8_execute
                0x08004ae0       0x9c ../../build/obj/testmtx.o
 *fill*         0x08004b7c        0x4 
 .text.thread11
                0x08004b80       0x38 ../../build/obj/testmtx.o
 *fill*         0x08004bb8        0x8 
 .text.msg1_execute
                0x08004bc0       0x78 ../../build/obj/testmsg.o
 *fill*         0x08004c38        0x8 
 .text.thread   0x08004c40       0x20 ../../build/obj/testmsg.o
 .text.mbox1_execute
                0x08004c60      0x5f4 ../../build/obj/testmbox.o
 *fill*         0x08005254        0xc 
 .text.mbox1_setup
                0x08005260       0x14 ../../build/obj/testmbox.o
 *fill*         0x08005274        0xc 
 .text.evt1_execute
                0x08005280       0x84 ../../build/obj/testevt.o
 *fill*         0x08005304        0xc 
 .text.h3       0x08005310        0x8 ../../build/obj/testevt.o
 *fill*         0x08005318        0x8 
 .text.h2       0x08005320        0x8 ../../build/obj/testevt.o
 *fill*         0x08005328        0x8 
 .text.h1       0x08005330        0x8 ../../build/obj/testevt.o
 *fill*         0x08005338        0x8 
 .text.evt1_setup
                0x08005340        0x8 ../../build/obj/testevt.o
 *fill*         0x08005348        0x8 
 .text.evt2_setup
                0x08005350        0x8 ../../build/obj/testevt.o
 *fill*         0x08005358        0x8 
 .text.evt3_setup
                0x08005360        0x8 ../../build/obj/testevt.o
 *fill*         0x08005368        0x8 
 .text.evt2_execute
                0x08005370      0x26c ../../build/obj/testevt.o
 *fill*         0x080055dc        0x4 
 .text.thread2  0x080055e0       0x24 ../../build/obj/testevt.o
 *fill*         0x08005604        0xc 
 .text.thread1  0x08005610       0x18 ../../build/obj/testevt.o
 *fill*         0x08005628        0x8 
 .text.evt3_execute
                0x08005630       0xa0 ../../build/obj/testevt.o
 .text.heap1_execute
                0x080056d0      0x244 ../../build/obj/testheap.o
 *fill*         0x08005914        0xc 
 .text.heap1_setup
                0x08005920       0x14 ../../build/obj/testheap.o
 *fill*         0x08005934        0xc 
 .text.null_provider
                0x08005940        0x4 ../../build/obj/testpools.o
 *fill*         0x08005944        0xc 
 .text.pools1_setup
                0x08005950       0x10 ../../build/obj/testpools.o
 .text.pools1_execute
                0x08005960       0xbc ../../build/obj/testpools.o
 *fill*         0x08005a1c        0x4 
 .text.dyn1_execute
                0x08005a20       0xf4 ../../build/obj/testdyn.o
 *fill*         0x08005b14        0xc 
 .text.thread   0x08005b20        0xc ../../build/obj/testdyn.o
 *fill*         0x08005b2c        0x4 
 .text.dyn1_setup
                0x08005b30       0x14 ../../build/obj/testdyn.o
 *fill*         0x08005b44        0xc 
 .text.dyn3_setup
                0x08005b50       0x14 ../../build/obj/testdyn.o
 *fill*         0x08005b64        0xc 
 .text.dyn2_execute
                0x08005b70       0xf4 ../../build/obj/testdyn.o
 *fill*         0x08005c64        0xc 
 .text.dyn2_setup
                0x08005c70       0x10 ../../build/obj/testdyn.o
 .text.regfind  0x08005c80       0x24 ../../build/obj/testdyn.o
 *fill*         0x08005ca4        0xc 
 .text.dyn3_execute
                0x08005cb0      0x130 ../../build/obj/testdyn.o
 .text.notify   0x08005de0        0x4 ../../build/obj/testqueues.o
 *fill*         0x08005de4        0xc 
 .text.thread1  0x08005df0       0x14 ../../build/obj/testqueues.o
 *fill*         0x08005e04        0xc 
 .text.queues1_setup
                0x08005e10       0x28 ../../build/obj/testqueues.o
 *fill*         0x08005e38        0x8 
 .text.thread2  0x08005e40       0x14 ../../build/obj/testqueues.o
 *fill*         0x08005e54        0xc 
 .text.queues2_setup
                0x08005e60       0x28 ../../build/obj/testqueues.o
 *fill*         0x08005e88        0x8 
 .text.queues1_execute
                0x08005e90      0x280 ../../build/obj/testqueues.o
 .text.queues2_execute
                0x08006110      0x260 ../../build/obj/testqueues.o
 .text.thread2  0x08006370        0x4 ../../build/obj/testbmk.o
 *fill*         0x08006374        0xc 
 .text.tmo      0x08006380        0x4 ../../build/obj/testbmk.o
 *fill*         0x08006384        0xc 
 .text.bmk13_execute
                0x08006390       0xec ../../build/obj/testbmk.o
 *fill*         0x0800647c        0x4 
 .text.thread1  0x08006480       0x18 ../../build/obj/testbmk.o
 *fill*         0x08006498        0x8 
 .text.bmk6_execute
                0x080064a0       0x70 ../../build/obj/testbmk.o
 .text.msg_loop_test
                0x08006510       0x34 ../../build/obj/testbmk.o
 *fill*         0x08006544        0xc 
 .text.bmk1_execute
                0x08006550       0x6c ../../build/obj/testbmk.o
 *fill*         0x080065bc        0x4 
 .text.bmk2_execute
                0x080065c0       0x6c ../../build/obj/testbmk.o
 *fill*         0x0800662c        0x4 
 .text.bmk3_execute
                0x08006630       0xd8 ../../build/obj/testbmk.o
 *fill*         0x08006708        0x8 
 .text.thread4  0x08006710       0x28 ../../build/obj/testbmk.o
                0x08006710                thread4
 *fill*         0x08006738        0x8 
 .text.bmk4_execute
                0x08006740       0xb4 ../../build/obj/testbmk.o
 *fill*         0x080067f4        0xc 
 .text.bmk5_execute
                0x08006800       0x74 ../../build/obj/testbmk.o
 *fill*         0x08006874        0xc 
 .text.bmk7_execute
                0x08006880      0x10c ../../build/obj/testbmk.o
 *fill*         0x0800698c        0x4 
 .text.thread3  0x08006990       0x28 ../../build/obj/testbmk.o
 *fill*         0x080069b8        0x8 
 .text.bmk7_setup
                0x080069c0        0xc ../../build/obj/testbmk.o
 *fill*         0x080069cc        0x4 
 .text.bmk11_setup
                0x080069d0        0xc ../../build/obj/testbmk.o
 *fill*         0x080069dc        0x4 
 .text.bmk8_execute
                0x080069e0       0xdc ../../build/obj/testbmk.o
 *fill*         0x08006abc        0x4 
 .text.thread8  0x08006ac0       0x2c ../../build/obj/testbmk.o
 *fill*         0x08006aec        0x4 
 .text.bmk9_execute
                0x08006af0       0xac ../../build/obj/testbmk.o
 *fill*         0x08006b9c        0x4 
 .text.bmk10_execute
                0x08006ba0       0x7c ../../build/obj/testbmk.o
 *fill*         0x08006c1c        0x4 
 .text.bmk11_execute
                0x08006c20       0x70 ../../build/obj/testbmk.o
 .text.bmk12_execute
                0x08006c90       0x68 ../../build/obj/testbmk.o
 *fill*         0x08006cf8        0x8 
 .text.bmk12_setup
                0x08006d00        0xc ../../build/obj/testbmk.o
 *fill*         0x08006d0c        0x4 
 .text.halInit  0x08006d10       0x4c ../../build/obj/hal.o
                0x08006d10                halInit
 *fill*         0x08006d5c        0x4 
 .text.halPolledDelay
                0x08006d60       0x28 ../../build/obj/hal.o
                0x08006d60                halPolledDelay
 *fill*         0x08006d88        0x8 
 .text.adcInit  0x08006d90        0x4 ../../build/obj/adc.o
                0x08006d90                adcInit
 *fill*         0x08006d94        0xc 
 .text.adcObjectInit
                0x08006da0       0x18 ../../build/obj/adc.o
                0x08006da0                adcObjectInit
 *fill*         0x08006db8        0x8 
 .text.adcStart
                0x08006dc0       0x1c ../../build/obj/adc.o
                0x08006dc0                adcStart
 *fill*         0x08006ddc        0x4 
 .text.adcConvert
                0x08006de0       0x38 ../../build/obj/adc.o
                0x08006de0                adcConvert
 *fill*         0x08006e18        0x8 
 .text.canInit  0x08006e20        0x4 ../../build/obj/can.o
                0x08006e20                canInit
 *fill*         0x08006e24        0xc 
 .text.canObjectInit
                0x08006e30       0x40 ../../build/obj/can.o
                0x08006e30                canObjectInit
 .text.canStart
                0x08006e70       0x40 ../../build/obj/can.o
                0x08006e70                canStart
 .text.canTransmit
                0x08006eb0       0x54 ../../build/obj/can.o
                0x08006eb0                canTransmit
 *fill*         0x08006f04        0xc 
 .text.canReceive
                0x08006f10       0x54 ../../build/obj/can.o
                0x08006f10                canReceive
 *fill*         0x08006f64        0xc 
 .text.gptInit  0x08006f70        0x4 ../../build/obj/gpt.o
                0x08006f70                gptInit
 *fill*         0x08006f74        0xc 
 .text.gptObjectInit
                0x08006f80        0xc ../../build/obj/gpt.o
                0x08006f80                gptObjectInit
 *fill*         0x08006f8c        0x4 
 .text.gptStart
                0x08006f90       0x1c ../../build/obj/gpt.o
                0x08006f90                gptStart
 *fill*         0x08006fac        0x4 
 .text.gptStartOneShot
                0x08006fb0       0x18 ../../build/obj/gpt.o
                0x08006fb0                gptStartOneShot
 *fill*         0x08006fc8        0x8 
 .text.gptStartOneShotI
                0x08006fd0        0x8 ../../build/obj/gpt.o
                0x08006fd0                gptStartOneShotI
 *fill*         0x08006fd8        0x8 
 .text.i2cInit  0x08006fe0        0x4 ../../build/obj/i2c.o
                0x08006fe0                i2cInit
 *fill*         0x08006fe4        0xc 
 .text.i2cObjectInit
                0x08006ff0       0x10 ../../build/obj/i2c.o
                0x08006ff0                i2cObjectInit
 .text.i2cStart
                0x08007000       0x1c ../../build/obj/i2c.o
                0x08007000                i2cStart
 *fill*         0x0800701c        0x4 
 .text.i2cMasterTransmitTimeout
                0x08007020       0x44 ../../build/obj/i2c.o
                0x08007020                i2cMasterTransmitTimeout
 *fill*         0x08007064        0xc 
 .text.i2cAcquireBus
                0x08007070        0x8 ../../build/obj/i2c.o
                0x08007070                i2cAcquireBus
 *fill*         0x08007078        0x8 
 .text.i2cReleaseBus
                0x08007080        0x4 ../../build/obj/i2c.o
                0x08007080                i2cReleaseBus
 *fill*         0x08007084        0xc 
 .text.icuInit  0x08007090        0x4 ../../build/obj/icu.o
                0x08007090                icuInit
 *fill*         0x08007094        0xc 
 .text.icuObjectInit
                0x080070a0        0xc ../../build/obj/icu.o
                0x080070a0                icuObjectInit
 *fill*         0x080070ac        0x4 
 .text.icuStart
                0x080070b0       0x1c ../../build/obj/icu.o
                0x080070b0                icuStart
 *fill*         0x080070cc        0x4 
 .text.icuEnable
                0x080070d0       0x1c ../../build/obj/icu.o
                0x080070d0                icuEnable
 *fill*         0x080070ec        0x4 
 .text.mmcsdGetCapacity
                0x080070f0       0x44 ../../build/obj/mmcsd.o
                0x080070f0                mmcsdGetCapacity
 *fill*         0x08007134        0xc 
 .text.pwmInit  0x08007140        0x4 ../../build/obj/pwm.o
                0x08007140                pwmInit
 *fill*         0x08007144        0xc 
 .text.pwmObjectInit
                0x08007150        0xc ../../build/obj/pwm.o
                0x08007150                pwmObjectInit
 *fill*         0x0800715c        0x4 
 .text.pwmStart
                0x08007160       0x20 ../../build/obj/pwm.o
                0x08007160                pwmStart
 .text.pwmEnableChannel
                0x08007180       0x14 ../../build/obj/pwm.o
                0x08007180                pwmEnableChannel
 *fill*         0x08007194        0xc 
 .text.pwmDisableChannel
                0x080071a0       0x14 ../../build/obj/pwm.o
                0x080071a0                pwmDisableChannel
 *fill*         0x080071b4        0xc 
 .text.rtcInit  0x080071c0        0x4 ../../build/obj/rtc.o
                0x080071c0                rtcInit
 *fill*         0x080071c4        0xc 
 .text.rtcSetTime
                0x080071d0       0x14 ../../build/obj/rtc.o
                0x080071d0                rtcSetTime
 *fill*         0x080071e4        0xc 
 .text.rtcGetTime
                0x080071f0       0x14 ../../build/obj/rtc.o
                0x080071f0                rtcGetTime
 *fill*         0x08007204        0xc 
 .text.rtcSetAlarm
                0x08007210       0x14 ../../build/obj/rtc.o
                0x08007210                rtcSetAlarm
 *fill*         0x08007224        0xc 
 .text.rtcGetAlarm
                0x08007230       0x14 ../../build/obj/rtc.o
                0x08007230                rtcGetAlarm
 *fill*         0x08007244        0xc 
 .text.rtcGetTimeFat
                0x08007250        0x4 ../../build/obj/rtc.o
                0x08007250                rtcGetTimeFat
 *fill*         0x08007254        0xc 
 .text.sdcGetInfo
                0x08007260       0x18 ../../build/obj/sdc.o
                0x08007260                sdcGetInfo
 *fill*         0x08007278        0x8 
 .text.sdcConnect
                0x08007280      0x1b4 ../../build/obj/sdc.o
                0x08007280                sdcConnect
 *fill*         0x08007434        0xc 
 .text.sdcRead  0x08007440       0x28 ../../build/obj/sdc.o
                0x08007440                sdcRead
 *fill*         0x08007468        0x8 
 .text.sdcWrite
                0x08007470       0x28 ../../build/obj/sdc.o
                0x08007470                sdcWrite
 *fill*         0x08007498        0x8 
 .text.sdcSync  0x080074a0       0x1c ../../build/obj/sdc.o
                0x080074a0                sdcSync
 *fill*         0x080074bc        0x4 
 .text._sdc_wait_for_transfer_state
                0x080074c0       0x40 ../../build/obj/sdc.o
                0x080074c0                _sdc_wait_for_transfer_state
 .text.sdcDisconnect
                0x08007500       0x3c ../../build/obj/sdc.o
                0x08007500                sdcDisconnect
 *fill*         0x0800753c        0x4 
 .text.sdcInit  0x08007540        0x4 ../../build/obj/sdc.o
                0x08007540                sdcInit
 *fill*         0x08007544        0xc 
 .text.sdcObjectInit
                0x08007550       0x18 ../../build/obj/sdc.o
                0x08007550                sdcObjectInit
 *fill*         0x08007568        0x8 
 .text.sdcStart
                0x08007570       0x1c ../../build/obj/sdc.o
                0x08007570                sdcStart
 *fill*         0x0800758c        0x4 
 .text.sdcErase
                0x08007590       0x88 ../../build/obj/sdc.o
                0x08007590                sdcErase
 *fill*         0x08007618        0x8 
 .text.readt    0x08007620        0x8 ../../build/obj/serial.o
 *fill*         0x08007628        0x8 
 .text.read     0x08007630        0xc ../../build/obj/serial.o
 *fill*         0x0800763c        0x4 
 .text.writet   0x08007640        0x8 ../../build/obj/serial.o
 *fill*         0x08007648        0x8 
 .text.write    0x08007650        0xc ../../build/obj/serial.o
 *fill*         0x0800765c        0x4 
 .text.gett     0x08007660        0x8 ../../build/obj/serial.o
 *fill*         0x08007668        0x8 
 .text.get      0x08007670        0xc ../../build/obj/serial.o
 *fill*         0x0800767c        0x4 
 .text.putt     0x08007680        0x8 ../../build/obj/serial.o
 *fill*         0x08007688        0x8 
 .text.put      0x08007690        0xc ../../build/obj/serial.o
 *fill*         0x0800769c        0x4 
 .text.sdInit   0x080076a0        0x4 ../../build/obj/serial.o
                0x080076a0                sdInit
 *fill*         0x080076a4        0xc 
 .text.sdObjectInit
                0x080076b0       0x40 ../../build/obj/serial.o
                0x080076b0                sdObjectInit
 .text.sdStart  0x080076f0       0x1c ../../build/obj/serial.o
                0x080076f0                sdStart
 *fill*         0x0800770c        0x4 
 .text.sdIncomingDataI
                0x08007710       0x3c ../../build/obj/serial.o
                0x08007710                sdIncomingDataI
 *fill*         0x0800774c        0x4 
 .text.sduInit  0x08007750        0x4 ../../build/obj/serial_usb.o
                0x08007750                sduInit
 *fill*         0x08007754        0xc 
 .text.spiInit  0x08007760        0x4 ../../build/obj/spi.o
                0x08007760                spiInit
 *fill*         0x08007764        0xc 
 .text.spiObjectInit
                0x08007770       0x10 ../../build/obj/spi.o
                0x08007770                spiObjectInit
 .text.tm_start
                0x08007780        0xc ../../build/obj/tm.o
 *fill*         0x0800778c        0x4 
 .text.tm_stop  0x08007790       0x38 ../../build/obj/tm.o
 *fill*         0x080077c8        0x8 
 .text.tmInit   0x080077d0       0x40 ../../build/obj/tm.o
                0x080077d0                tmInit
 .text.usbInit  0x08007810        0x4 ../../build/obj/usb.o
                0x08007810                usbInit
 *fill*         0x08007814        0xc 
 .text.usbObjectInit
                0x08007820       0x1c ../../build/obj/usb.o
                0x08007820                usbObjectInit
 *fill*         0x0800783c        0x4 
 .text.usbStartReceiveI
                0x08007840       0x24 ../../build/obj/usb.o
                0x08007840                usbStartReceiveI
 *fill*         0x08007864        0xc 
 .text.usbStartTransmitI
                0x08007870       0x24 ../../build/obj/usb.o
                0x08007870                usbStartTransmitI
 *fill*         0x08007894        0xc 
 .text._usb_reset
                0x080078a0       0x28 ../../build/obj/usb.o
                0x080078a0                _usb_reset
 *fill*         0x080078c8        0x8 
 .text._usb_ep0setup
                0x080078d0      0x354 ../../build/obj/usb.o
                0x080078d0                _usb_ep0setup
 *fill*         0x08007c24        0xc 
 .text._usb_ep0in
                0x08007c30       0xc4 ../../build/obj/usb.o
                0x08007c30                _usb_ep0in
 *fill*         0x08007cf4        0xc 
 .text._usb_ep0out
                0x08007d00       0x7c ../../build/obj/usb.o
                0x08007d00                _usb_ep0out
 *fill*         0x08007d7c        0x4 
 .text.Vector6C
                0x08007d80       0x28 ../../build/obj/stm32_dma.o
                0x08007d80                Vector6C
 *fill*         0x08007da8        0x8 
 .text.Vector70
                0x08007db0       0x2c ../../build/obj/stm32_dma.o
                0x08007db0                Vector70
 *fill*         0x08007ddc        0x4 
 .text.Vector74
                0x08007de0       0x2c ../../build/obj/stm32_dma.o
                0x08007de0                Vector74
 *fill*         0x08007e0c        0x4 
 .text.Vector78
                0x08007e10       0x2c ../../build/obj/stm32_dma.o
                0x08007e10                Vector78
 *fill*         0x08007e3c        0x4 
 .text.Vector7C
                0x08007e40       0x28 ../../build/obj/stm32_dma.o
                0x08007e40                Vector7C
 *fill*         0x08007e68        0x8 
 .text.Vector80
                0x08007e70       0x2c ../../build/obj/stm32_dma.o
                0x08007e70                Vector80
 *fill*         0x08007e9c        0x4 
 .text.Vector84
                0x08007ea0       0x2c ../../build/obj/stm32_dma.o
                0x08007ea0                Vector84
 *fill*         0x08007ecc        0x4 
 .text.VectorFC
                0x08007ed0       0x2c ../../build/obj/stm32_dma.o
                0x08007ed0                VectorFC
 *fill*         0x08007efc        0x4 
 .text.Vector120
                0x08007f00       0x28 ../../build/obj/stm32_dma.o
                0x08007f00                Vector120
 *fill*         0x08007f28        0x8 
 .text.Vector124
                0x08007f30       0x2c ../../build/obj/stm32_dma.o
                0x08007f30                Vector124
 *fill*         0x08007f5c        0x4 
 .text.Vector128
                0x08007f60       0x2c ../../build/obj/stm32_dma.o
                0x08007f60                Vector128
 *fill*         0x08007f8c        0x4 
 .text.Vector12C
                0x08007f90       0x2c ../../build/obj/stm32_dma.o
                0x08007f90                Vector12C
 *fill*         0x08007fbc        0x4 
 .text.Vector130
                0x08007fc0       0x28 ../../build/obj/stm32_dma.o
                0x08007fc0                Vector130
 *fill*         0x08007fe8        0x8 
 .text.Vector150
                0x08007ff0       0x2c ../../build/obj/stm32_dma.o
                0x08007ff0                Vector150
 *fill*         0x0800801c        0x4 
 .text.Vector154
                0x08008020       0x2c ../../build/obj/stm32_dma.o
                0x08008020                Vector154
 *fill*         0x0800804c        0x4 
 .text.Vector158
                0x08008050       0x2c ../../build/obj/stm32_dma.o
                0x08008050                Vector158
 *fill*         0x0800807c        0x4 
 .text.dmaInit  0x08008080       0x4c ../../build/obj/stm32_dma.o
                0x08008080                dmaInit
 *fill*         0x080080cc        0x4 
 .text.dmaStreamAllocate
                0x080080d0       0x90 ../../build/obj/stm32_dma.o
                0x080080d0                dmaStreamAllocate
 .text.hal_lld_init
                0x08008160       0xc4 ../../build/obj/hal_lld.o
                0x08008160                hal_lld_init
 *fill*         0x08008224        0xc 
 .text.stm32_clock_init
                0x08008230       0xc8 ../../build/obj/hal_lld.o
                0x08008230                stm32_clock_init
 *fill*         0x080082f8        0x8 
 .text.adc_lld_init
                0x08008300       0x54 ../../build/obj/adc_lld.o
                0x08008300                adc_lld_init
 *fill*         0x08008354        0xc 
 .text.adc_lld_start
                0x08008360       0x90 ../../build/obj/adc_lld.o
                0x08008360                adc_lld_start
 .text.adc_lld_start_conversion
                0x080083f0       0x9c ../../build/obj/adc_lld.o
                0x080083f0                adc_lld_start_conversion
 *fill*         0x0800848c        0x4 
 .text.adc_lld_stop_conversion
                0x08008490       0x30 ../../build/obj/adc_lld.o
                0x08008490                adc_lld_stop_conversion
 .text.Vector88
                0x080084c0       0xd8 ../../build/obj/adc_lld.o
                0x080084c0                Vector88
 *fill*         0x08008598        0x8 
 .text.adc_lld_serve_rx_interrupt
                0x080085a0       0xdc ../../build/obj/adc_lld.o
 *fill*         0x0800867c        0x4 
 .text.can_lld_set_filters
                0x08008680      0x118 ../../build/obj/can_lld.o
 *fill*         0x08008798        0x8 
 .text.Vector8C
                0x080087a0       0x48 ../../build/obj/can_lld.o
                0x080087a0                Vector8C
 *fill*         0x080087e8        0x8 
 .text.Vector90
                0x080087f0       0x70 ../../build/obj/can_lld.o
                0x080087f0                Vector90
 .text.Vector94
                0x08008860       0x70 ../../build/obj/can_lld.o
                0x08008860                Vector94
 .text.Vector98
                0x080088d0       0x78 ../../build/obj/can_lld.o
                0x080088d0                Vector98
 *fill*         0x08008948        0x8 
 .text.can_lld_init
                0x08008950       0x24 ../../build/obj/can_lld.o
                0x08008950                can_lld_init
 *fill*         0x08008974        0xc 
 .text.can_lld_start
                0x08008980       0x74 ../../build/obj/can_lld.o
                0x08008980                can_lld_start
 *fill*         0x080089f4        0xc 
 .text.can_lld_is_tx_empty
                0x08008a00       0x40 ../../build/obj/can_lld.o
                0x08008a00                can_lld_is_tx_empty
 .text.can_lld_transmit
                0x08008a40       0x78 ../../build/obj/can_lld.o
                0x08008a40                can_lld_transmit
 *fill*         0x08008ab8        0x8 
 .text.can_lld_is_rx_nonempty
                0x08008ac0       0x38 ../../build/obj/can_lld.o
                0x08008ac0                can_lld_is_rx_nonempty
 *fill*         0x08008af8        0x8 
 .text.can_lld_receive
                0x08008b00       0xc8 ../../build/obj/can_lld.o
                0x08008b00                can_lld_receive
 *fill*         0x08008bc8        0x8 
 .text.sdc_lld_collect_errors.isra.0
                0x08008bd0       0x3c ../../build/obj/sdc_lld.o
 *fill*         0x08008c0c        0x4 
 .text.Vector104
                0x08008c10       0x30 ../../build/obj/sdc_lld.o
                0x08008c10                Vector104
 .text.sdc_lld_init
                0x08008c40       0x1c ../../build/obj/sdc_lld.o
                0x08008c40                sdc_lld_init
 *fill*         0x08008c5c        0x4 
 .text.sdc_lld_start
                0x08008c60       0x58 ../../build/obj/sdc_lld.o
                0x08008c60                sdc_lld_start
 *fill*         0x08008cb8        0x8 
 .text.sdc_lld_start_clk
                0x08008cc0       0x20 ../../build/obj/sdc_lld.o
                0x08008cc0                sdc_lld_start_clk
 .text.sdc_lld_set_data_clk
                0x08008ce0       0x10 ../../build/obj/sdc_lld.o
                0x08008ce0                sdc_lld_set_data_clk
 .text.sdc_lld_stop_clk
                0x08008cf0       0x10 ../../build/obj/sdc_lld.o
                0x08008cf0                sdc_lld_stop_clk
 .text.sdc_lld_set_bus_mode
                0x08008d00       0x28 ../../build/obj/sdc_lld.o
                0x08008d00                sdc_lld_set_bus_mode
 *fill*         0x08008d28        0x8 
 .text.sdc_lld_send_cmd_none
                0x08008d30       0x20 ../../build/obj/sdc_lld.o
                0x08008d30                sdc_lld_send_cmd_none
 .text.sdc_lld_send_cmd_short
                0x08008d50       0x38 ../../build/obj/sdc_lld.o
                0x08008d50                sdc_lld_send_cmd_short
 *fill*         0x08008d88        0x8 
 .text.sdc_lld_send_cmd_short_crc
                0x08008d90       0x38 ../../build/obj/sdc_lld.o
                0x08008d90                sdc_lld_send_cmd_short_crc
 *fill*         0x08008dc8        0x8 
 .text.sdc_lld_wait_transaction_end
                0x08008dd0       0x84 ../../build/obj/sdc_lld.o
 *fill*         0x08008e54        0xc 
 .text.sdc_lld_error_cleanup
                0x08008e60       0x74 ../../build/obj/sdc_lld.o
 *fill*         0x08008ed4        0xc 
 .text.sdc_lld_send_cmd_long_crc
                0x08008ee0       0x44 ../../build/obj/sdc_lld.o
                0x08008ee0                sdc_lld_send_cmd_long_crc
 *fill*         0x08008f24        0xc 
 .text.sdc_lld_read_aligned
                0x08008f30       0xb0 ../../build/obj/sdc_lld.o
                0x08008f30                sdc_lld_read_aligned
 .text.sdc_lld_write_aligned
                0x08008fe0       0xb4 ../../build/obj/sdc_lld.o
                0x08008fe0                sdc_lld_write_aligned
 *fill*         0x08009094        0xc 
 .text.sdc_lld_read
                0x080090a0       0x54 ../../build/obj/sdc_lld.o
                0x080090a0                sdc_lld_read
 *fill*         0x080090f4        0xc 
 .text.sdc_lld_write
                0x08009100       0x54 ../../build/obj/sdc_lld.o
                0x08009100                sdc_lld_write
 *fill*         0x08009154        0xc 
 .text.sdc_lld_sync
                0x08009160        0x4 ../../build/obj/sdc_lld.o
                0x08009160                sdc_lld_sync
 *fill*         0x08009164        0xc 
 .text._pal_lld_init
                0x08009170      0x1cc ../../build/obj/pal_lld.o
                0x08009170                _pal_lld_init
 *fill*         0x0800933c        0x4 
 .text.i2c_lld_abort_operation
                0x08009340       0x50 ../../build/obj/i2c_lld.o
 .text.i2c_lld_safety_timeout
                0x08009390       0x2c ../../build/obj/i2c_lld.o
 *fill*         0x080093bc        0x4 
 .text.i2c_lld_serve_tx_end_irq
                0x080093c0       0x3c ../../build/obj/i2c_lld.o
 *fill*         0x080093fc        0x4 
 .text.i2c_lld_serve_rx_end_irq
                0x08009400       0x70 ../../build/obj/i2c_lld.o
 .text.VectorBC
                0x08009470      0x110 ../../build/obj/i2c_lld.o
                0x08009470                VectorBC
 .text.VectorC0
                0x08009580       0xec ../../build/obj/i2c_lld.o
                0x08009580                VectorC0
 *fill*         0x0800966c        0x4 
 .text.i2c_lld_init
                0x08009670       0x2c ../../build/obj/i2c_lld.o
                0x08009670                i2c_lld_init
 *fill*         0x0800969c        0x4 
 .text.i2c_lld_start
                0x080096a0      0x184 ../../build/obj/i2c_lld.o
                0x080096a0                i2c_lld_start
 *fill*         0x08009824        0xc 
 .text.i2c_lld_master_transmit_timeout
                0x08009830       0xfc ../../build/obj/i2c_lld.o
                0x08009830                i2c_lld_master_transmit_timeout
 *fill*         0x0800992c        0x4 
 .text.usb_lld_init
                0x08009930       0x24 ../../build/obj/usb_lld.o
                0x08009930                usb_lld_init
 *fill*         0x08009954        0xc 
 .text.usb_lld_reset
                0x08009960       0xc4 ../../build/obj/usb_lld.o
                0x08009960                usb_lld_reset
 *fill*         0x08009a24        0xc 
 .text.usb_lld_set_address
                0x08009a30       0x18 ../../build/obj/usb_lld.o
                0x08009a30                usb_lld_set_address
 *fill*         0x08009a48        0x8 
 .text.usb_lld_get_status_out
                0x08009a50       0x1c ../../build/obj/usb_lld.o
                0x08009a50                usb_lld_get_status_out
 *fill*         0x08009a6c        0x4 
 .text.usb_lld_get_status_in
                0x08009a70       0x1c ../../build/obj/usb_lld.o
                0x08009a70                usb_lld_get_status_in
 *fill*         0x08009a8c        0x4 
 .text.usb_lld_read_setup
                0x08009a90       0x14 ../../build/obj/usb_lld.o
                0x08009a90                usb_lld_read_setup
 *fill*         0x08009aa4        0xc 
 .text.usb_lld_prepare_receive
                0x08009ab0       0x44 ../../build/obj/usb_lld.o
                0x08009ab0                usb_lld_prepare_receive
 *fill*         0x08009af4        0xc 
 .text.otg_epout_handler.constprop.8
                0x08009b00       0xa4 ../../build/obj/usb_lld.o
 *fill*         0x08009ba4        0xc 
 .text.usb_lld_prepare_transmit
                0x08009bb0       0x50 ../../build/obj/usb_lld.o
                0x08009bb0                usb_lld_prepare_transmit
 .text.otg_epin_handler.constprop.9
                0x08009c00       0xd0 ../../build/obj/usb_lld.o
 .text.Vector14C
                0x08009cd0       0xf4 ../../build/obj/usb_lld.o
                0x08009cd0                Vector14C
 *fill*         0x08009dc4        0xc 
 .text.usb_lld_start_out
                0x08009dd0       0x14 ../../build/obj/usb_lld.o
                0x08009dd0                usb_lld_start_out
 *fill*         0x08009de4        0xc 
 .text.usb_lld_start_in
                0x08009df0       0x28 ../../build/obj/usb_lld.o
                0x08009df0                usb_lld_start_in
 *fill*         0x08009e18        0x8 
 .text.usb_lld_stall_out
                0x08009e20       0x14 ../../build/obj/usb_lld.o
                0x08009e20                usb_lld_stall_out
 *fill*         0x08009e34        0xc 
 .text.usb_lld_stall_in
                0x08009e40       0x14 ../../build/obj/usb_lld.o
                0x08009e40                usb_lld_stall_in
 *fill*         0x08009e54        0xc 
 .text.usb_lld_clear_out
                0x08009e60       0x14 ../../build/obj/usb_lld.o
                0x08009e60                usb_lld_clear_out
 *fill*         0x08009e74        0xc 
 .text.usb_lld_clear_in
                0x08009e80       0x14 ../../build/obj/usb_lld.o
                0x08009e80                usb_lld_clear_in
 *fill*         0x08009e94        0xc 
 .text.rtc_lld_init
                0x08009ea0       0x40 ../../build/obj/rtc_lld.o
                0x08009ea0                rtc_lld_init
 .text.rtc_lld_set_time
                0x08009ee0       0x40 ../../build/obj/rtc_lld.o
                0x08009ee0                rtc_lld_set_time
 .text.rtc_lld_get_time
                0x08009f20       0x38 ../../build/obj/rtc_lld.o
                0x08009f20                rtc_lld_get_time
 *fill*         0x08009f58        0x8 
 .text.rtc_lld_set_alarm
                0x08009f60       0x7c ../../build/obj/rtc_lld.o
                0x08009f60                rtc_lld_set_alarm
 *fill*         0x08009fdc        0x4 
 .text.rtc_lld_get_alarm
                0x08009fe0       0x10 ../../build/obj/rtc_lld.o
                0x08009fe0                rtc_lld_get_alarm
 .text.rtc_lld_get_time_fat
                0x08009ff0       0xac ../../build/obj/rtc_lld.o
                0x08009ff0                rtc_lld_get_time_fat
 *fill*         0x0800a09c        0x4 
 .text.spi_lld_init
                0x0800a0a0       0x44 ../../build/obj/spi_lld.o
                0x0800a0a0                spi_lld_init
 *fill*         0x0800a0e4        0xc 
 .text.VectorB0
                0x0800a0f0       0x34 ../../build/obj/gpt_lld.o
                0x0800a0f0                VectorB0
 *fill*         0x0800a124        0xc 
 .text.gpt_lld_init
                0x0800a130       0x14 ../../build/obj/gpt_lld.o
                0x0800a130                gpt_lld_init
 *fill*         0x0800a144        0xc 
 .text.gpt_lld_start
                0x0800a150       0x64 ../../build/obj/gpt_lld.o
                0x0800a150                gpt_lld_start
 *fill*         0x0800a1b4        0xc 
 .text.gpt_lld_start_timer
                0x0800a1c0       0x1c ../../build/obj/gpt_lld.o
                0x0800a1c0                gpt_lld_start_timer
 *fill*         0x0800a1dc        0x4 
 .text.icu_lld_serve_interrupt.constprop.0
                0x0800a1e0       0x90 ../../build/obj/icu_lld.o
 .text.VectorA4
                0x0800a270       0x10 ../../build/obj/icu_lld.o
                0x0800a270                VectorA4
 .text.VectorAC
                0x0800a280       0x10 ../../build/obj/icu_lld.o
                0x0800a280                VectorAC
 .text.icu_lld_init
                0x0800a290       0x18 ../../build/obj/icu_lld.o
                0x0800a290                icu_lld_init
 *fill*         0x0800a2a8        0x8 
 .text.icu_lld_start
                0x0800a2b0       0xc4 ../../build/obj/icu_lld.o
                0x0800a2b0                icu_lld_start
 *fill*         0x0800a374        0xc 
 .text.icu_lld_enable
                0x0800a380       0x58 ../../build/obj/icu_lld.o
                0x0800a380                icu_lld_enable
 *fill*         0x0800a3d8        0x8 
 .text.pwm_lld_serve_interrupt
                0x0800a3e0       0x5c ../../build/obj/pwm_lld.o
 *fill*         0x0800a43c        0x4 
 .text.VectorB8
                0x0800a440       0x14 ../../build/obj/pwm_lld.o
                0x0800a440                VectorB8
 *fill*         0x0800a454        0xc 
 .text.Vector108
                0x0800a460       0x14 ../../build/obj/pwm_lld.o
                0x0800a460                Vector108
 *fill*         0x0800a474        0xc 
 .text.pwm_lld_init
                0x0800a480       0x2c ../../build/obj/pwm_lld.o
                0x0800a480                pwm_lld_init
 *fill*         0x0800a4ac        0x4 
 .text.pwm_lld_start
                0x0800a4b0      0x114 ../../build/obj/pwm_lld.o
                0x0800a4b0                pwm_lld_start
 *fill*         0x0800a5c4        0xc 
 .text.pwm_lld_enable_channel
                0x0800a5d0       0x30 ../../build/obj/pwm_lld.o
                0x0800a5d0                pwm_lld_enable_channel
 .text.pwm_lld_disable_channel
                0x0800a600       0x1c ../../build/obj/pwm_lld.o
                0x0800a600                pwm_lld_disable_channel
 *fill*         0x0800a61c        0x4 
 .text.notify1  0x0800a620       0x14 ../../build/obj/serial_lld.o
 *fill*         0x0800a634        0xc 
 .text.notify2  0x0800a640       0x14 ../../build/obj/serial_lld.o
 *fill*         0x0800a654        0xc 
 .text.notify3  0x0800a660       0x14 ../../build/obj/serial_lld.o
 *fill*         0x0800a674        0xc 
 .text.serve_interrupt
                0x0800a680      0x104 ../../build/obj/serial_lld.o
 *fill*         0x0800a784        0xc 
 .text.VectorD4
                0x0800a790       0x14 ../../build/obj/serial_lld.o
                0x0800a790                VectorD4
 *fill*         0x0800a7a4        0xc 
 .text.VectorD8
                0x0800a7b0       0x14 ../../build/obj/serial_lld.o
                0x0800a7b0                VectorD8
 *fill*         0x0800a7c4        0xc 
 .text.VectorDC
                0x0800a7d0       0x14 ../../build/obj/serial_lld.o
                0x0800a7d0                VectorDC
 *fill*         0x0800a7e4        0xc 
 .text.sd_lld_init
                0x0800a7f0       0x58 ../../build/obj/serial_lld.o
                0x0800a7f0                sd_lld_init
 *fill*         0x0800a848        0x8 
 .text.sd_lld_start
                0x0800a850       0xd8 ../../build/obj/serial_lld.o
                0x0800a850                sd_lld_start
 *fill*         0x0800a928        0x8 
 .text.__early_init
                0x0800a930        0x4 ../../build/obj/board.o
                0x0800a930                __early_init
 *fill*         0x0800a934        0xc 
 .text.boardInit
                0x0800a940        0x4 ../../build/obj/board.o
                0x0800a940                boardInit
 *fill*         0x0800a944        0xc 
 .text.disk_initialize
                0x0800a950       0x2c ../../build/obj/fatfs_diskio.o
                0x0800a950                disk_initialize
 *fill*         0x0800a97c        0x4 
 .text.disk_status
                0x0800a980       0x2c ../../build/obj/fatfs_diskio.o
                0x0800a980                disk_status
 *fill*         0x0800a9ac        0x4 
 .text.disk_read
                0x0800a9b0       0x2c ../../build/obj/fatfs_diskio.o
                0x0800a9b0                disk_read
 *fill*         0x0800a9dc        0x4 
 .text.disk_write
                0x0800a9e0       0x2c ../../build/obj/fatfs_diskio.o
                0x0800a9e0                disk_write
 *fill*         0x0800aa0c        0x4 
 .text.disk_ioctl
                0x0800aa10       0x4c ../../build/obj/fatfs_diskio.o
                0x0800aa10                disk_ioctl
 *fill*         0x0800aa5c        0x4 
 .text.get_fattime
                0x0800aa60        0xc ../../build/obj/fatfs_diskio.o
                0x0800aa60                get_fattime
 *fill*         0x0800aa6c        0x4 
 .text.ff_memalloc
                0x0800aa70        0x8 ../../build/obj/fatfs_syscall.o
                0x0800aa70                ff_memalloc
 *fill*         0x0800aa78        0x8 
 .text.ff_memfree
                0x0800aa80        0x4 ../../build/obj/fatfs_syscall.o
                0x0800aa80                ff_memfree
 *fill*         0x0800aa84        0xc 
 .text.move_window
                0x0800aa90       0x7c ../../build/obj/ff.o
 *fill*         0x0800ab0c        0x4 
 .text.get_fileinfo
                0x0800ab10      0x108 ../../build/obj/ff.o
 *fill*         0x0800ac18        0x8 
 .text.sync     0x0800ac20       0x7c ../../build/obj/ff.o
 *fill*         0x0800ac9c        0x4 
 .text.check_fs
                0x0800aca0       0x4c ../../build/obj/ff.o
 *fill*         0x0800acec        0x4 
 .text.chk_mounted
                0x0800acf0      0x21c ../../build/obj/ff.o
 *fill*         0x0800af0c        0x4 
 .text.validate
                0x0800af10       0x28 ../../build/obj/ff.o
 *fill*         0x0800af38        0x8 
 .text.get_fat.part.3
                0x0800af40       0x9c ../../build/obj/ff.o
 *fill*         0x0800afdc        0x4 
 .text.dir_sdi  0x0800afe0       0xa0 ../../build/obj/ff.o
 .text.put_fat.part.4
                0x0800b080      0x100 ../../build/obj/ff.o
 .text.create_chain
                0x0800b180       0xc0 ../../build/obj/ff.o
 .text.dir_next
                0x0800b240      0x130 ../../build/obj/ff.o
 .text.dir_read
                0x0800b370      0x110 ../../build/obj/ff.o
 .text.dir_find.part.5
                0x0800b480      0x150 ../../build/obj/ff.o
 .text.remove_chain.part.6
                0x0800b5d0       0xb8 ../../build/obj/ff.o
 *fill*         0x0800b688        0x8 
 .text.follow_path
                0x0800b690      0x2c4 ../../build/obj/ff.o
 *fill*         0x0800b954        0xc 
 .text.gen_numname
                0x0800b960       0xac ../../build/obj/ff.o
                0x0800b960                gen_numname
 *fill*         0x0800ba0c        0x4 
 .text.dir_register
                0x0800ba10      0x224 ../../build/obj/ff.o
 *fill*         0x0800bc34        0xc 
 .text.f_mount  0x0800bc40       0x20 ../../build/obj/ff.o
                0x0800bc40                f_mount
 .text.f_open   0x0800bc60      0x178 ../../build/obj/ff.o
                0x0800bc60                f_open
 *fill*         0x0800bdd8        0x8 
 .text.f_read   0x0800bde0      0x1e0 ../../build/obj/ff.o
                0x0800bde0                f_read
 .text.f_write  0x0800bfc0      0x218 ../../build/obj/ff.o
                0x0800bfc0                f_write
 *fill*         0x0800c1d8        0x8 
 .text.f_sync   0x0800c1e0       0x80 ../../build/obj/ff.o
                0x0800c1e0                f_sync
 .text.f_close  0x0800c260       0x10 ../../build/obj/ff.o
                0x0800c260                f_close
 .text.f_opendir
                0x0800c270       0x78 ../../build/obj/ff.o
                0x0800c270                f_opendir
 *fill*         0x0800c2e8        0x8 
 .text.f_readdir
                0x0800c2f0       0x78 ../../build/obj/ff.o
                0x0800c2f0                f_readdir
 *fill*         0x0800c368        0x8 
 .text.f_stat   0x0800c370       0x5c ../../build/obj/ff.o
                0x0800c370                f_stat
 *fill*         0x0800c3cc        0x4 
 .text.f_getfree
                0x0800c3d0       0xfc ../../build/obj/ff.o
                0x0800c3d0                f_getfree
 *fill*         0x0800c4cc        0x4 
 .text.f_gets   0x0800c4d0       0x50 ../../build/obj/ff.o
                0x0800c4d0                f_gets
 .text.f_puts   0x0800c520       0x40 ../../build/obj/ff.o
                0x0800c520                f_puts
 .text.f_printf
                0x0800c560      0x3d4 ../../build/obj/ff.o
                0x0800c560                f_printf
 *fill*         0x0800c934        0xc 
 .text.ff_convert
                0x0800c940       0x48 ../../build/obj/ccsbcs.o
                0x0800c940                ff_convert
 *fill*         0x0800c988        0x8 
 .text.ff_wtoupper
                0x0800c990       0x2c ../../build/obj/ccsbcs.o
                0x0800c990                ff_wtoupper
 *fill*         0x0800c9bc        0x4 
 .text._sbrk_r  0x0800c9c0       0x18 ../../build/obj/syscalls.o
                0x0800c9c0                _sbrk_r
 *fill*         0x0800c9d8        0x8 
 .text.chprintf
                0x0800c9e0       0x1c ../../build/obj/shell2.o
 *fill*         0x0800c9fc        0x4 
 .text.list_commands
                0x0800ca00       0x48 ../../build/obj/shell2.o
 *fill*         0x0800ca48        0x8 
 .text.cmd_systime
                0x0800ca50       0x28 ../../build/obj/shell2.o
 *fill*         0x0800ca78        0x8 
 .text.cmd_info
                0x0800ca80       0xbc ../../build/obj/shell2.o
 *fill*         0x0800cb3c        0x4 
 .text._strtok.constprop.2
                0x0800cb40       0x40 ../../build/obj/shell2.o
 .text.shellInit
                0x0800cb80        0xc ../../build/obj/shell2.o
                0x0800cb80                shellInit
 *fill*         0x0800cb8c        0x4 
 .text.shellExit
                0x0800cb90       0x20 ../../build/obj/shell2.o
                0x0800cb90                shellExit
 .text.shellCreate
                0x0800cbb0       0x18 ../../build/obj/shell2.o
                0x0800cbb0                shellCreate
 *fill*         0x0800cbc8        0x8 
 .text.shellGetLine
                0x0800cbd0       0xa0 ../../build/obj/shell2.o
                0x0800cbd0                shellGetLine
 .text.shell_thread
                0x0800cc70      0x1a4 ../../build/obj/shell2.o
 *fill*         0x0800ce14        0xc 
 .text.long_to_string_with_divisor.constprop.0
                0x0800ce20       0x44 ../../build/obj/chprintf.o
 *fill*         0x0800ce64        0xc 
 .text.chvprintf
                0x0800ce70      0x2a8 ../../build/obj/chprintf.o
                0x0800ce70                chvprintf
 *fill*         0x0800d118        0x8 
 .text.stm32_rtc_bcd2tm.isra.0
                0x0800d120       0x98 ../../build/obj/chrtclib.o
 *fill*         0x0800d1b8        0x8 
 .text.stm32_rtc_tm2bcd.isra.1
                0x0800d1c0       0xf4 ../../build/obj/chrtclib.o
 *fill*         0x0800d2b4        0xc 
 .text.rtcGetTimeTm
                0x0800d2c0       0x28 ../../build/obj/chrtclib.o
                0x0800d2c0                rtcGetTimeTm
 *fill*         0x0800d2e8        0x8 
 .text.rtcGetTimeUnixSec
                0x0800d2f0       0x2c ../../build/obj/chrtclib.o
                0x0800d2f0                rtcGetTimeUnixSec
 *fill*         0x0800d31c        0x4 
 .text.rtcSetTimeUnixSec
                0x0800d320       0x34 ../../build/obj/chrtclib.o
                0x0800d320                rtcSetTimeUnixSec
 *fill*         0x0800d354        0xc 
 .text.Thread1  0x0800d360       0x4c ../../build/obj/main.o
 *fill*         0x0800d3ac        0x4 
 .text.task20ms
                0x0800d3b0       0x40 ../../build/obj/main.o
 .text.chprintf
                0x0800d3f0       0x1c ../../build/obj/console.o
 *fill*         0x0800d40c        0x4 
 .text.cmd_clear
                0x0800d410       0x30 ../../build/obj/console.o
                0x0800d410                cmd_clear
 .text.cmd_date
                0x0800d440       0xf0 ../../build/obj/console.o
                0x0800d440                cmd_date
 .text.cmd_alarm
                0x0800d530       0xc8 ../../build/obj/console.o
                0x0800d530                cmd_alarm
 *fill*         0x0800d5f8        0x8 
 .text.cmd_mem  0x0800d600       0x54 ../../build/obj/console.o
                0x0800d600                cmd_mem
 *fill*         0x0800d654        0xc 
 .text.cmd_threads
                0x0800d660       0x60 ../../build/obj/console.o
                0x0800d660                cmd_threads
 .text.cmd_test
                0x0800d6c0       0x50 ../../build/obj/console.o
                0x0800d6c0                cmd_test
 .text.cmd_sleep
                0x0800d710       0x54 ../../build/obj/console.o
                0x0800d710                cmd_sleep
 *fill*         0x0800d764        0xc 
 .text.consoleInit
                0x0800d770       0x24 ../../build/obj/console.o
                0x0800d770                consoleInit
 *fill*         0x0800d794        0xc 
 .text.consoleStart
                0x0800d7a0       0x34 ../../build/obj/console.o
                0x0800d7a0                consoleStart
 *fill*         0x0800d7d4        0xc 
 .text.chprintf
                0x0800d7e0       0x1c ../../build/obj/eeprom.o
 *fill*         0x0800d7fc        0x4 
 .text.eepromInit
                0x0800d800       0x10 ../../build/obj/eeprom.o
                0x0800d800                eepromInit
 .text.eepromWrite
                0x0800d810       0xb8 ../../build/obj/eeprom.o
                0x0800d810                eepromWrite
 *fill*         0x0800d8c8        0x8 
 .text.eepromRead
                0x0800d8d0       0x80 ../../build/obj/eeprom.o
                0x0800d8d0                eepromRead
 .text.cmd_eepromTest
                0x0800d950       0x94 ../../build/obj/eeprom.o
                0x0800d950                cmd_eepromTest
 *fill*         0x0800d9e4        0xc 
 .text.cmd_eepromAllData
                0x0800d9f0       0xa0 ../../build/obj/eeprom.o
                0x0800d9f0                cmd_eepromAllData
 .text.chprintf
                0x0800da90       0x1c ../../build/obj/sdcard.o
 *fill*         0x0800daac        0x4 
 .text.scan_files.constprop.1
                0x0800dab0       0xa0 ../../build/obj/sdcard.o
 .text.sdc_lld_is_card_inserted
                0x0800db50        0x4 ../../build/obj/sdcard.o
                0x0800db50                sdc_lld_is_card_inserted
 *fill*         0x0800db54        0xc 
 .text.sdc_lld_is_write_protected
                0x0800db60        0x4 ../../build/obj/sdcard.o
                0x0800db60                sdc_lld_is_write_protected
 *fill*         0x0800db64        0xc 
 .text.sdcardInit
                0x0800db70       0x20 ../../build/obj/sdcard.o
                0x0800db70                sdcardInit
 .text.sdcardMount
                0x0800db90       0x60 ../../build/obj/sdcard.o
                0x0800db90                sdcardMount
 .text.sdcardUMount
                0x0800dbf0       0x24 ../../build/obj/sdcard.o
                0x0800dbf0                sdcardUMount
 *fill*         0x0800dc14        0xc 
 .text.sdcardIsMounted
                0x0800dc20        0xc ../../build/obj/sdcard.o
                0x0800dc20                sdcardIsMounted
 *fill*         0x0800dc2c        0x4 
 .text.cmd_tree
                0x0800dc30       0x80 ../../build/obj/sdcard.o
                0x0800dc30                cmd_tree
 .text.cmd_mountsd
                0x0800dcb0       0x74 ../../build/obj/sdcard.o
                0x0800dcb0                cmd_mountsd
 *fill*         0x0800dd24        0xc 
 .text.cmd_umountsd
                0x0800dd30       0x38 ../../build/obj/sdcard.o
                0x0800dd30                cmd_umountsd
 *fill*         0x0800dd68        0x8 
 .text.cmd_cat  0x0800dd70       0x8c ../../build/obj/sdcard.o
                0x0800dd70                cmd_cat
 *fill*         0x0800ddfc        0x4 
 .text.cmd_sdiotest
                0x0800de00      0x460 ../../build/obj/sdcard.o
                0x0800de00                cmd_sdiotest
 .text.chprintf
                0x0800e260       0x1c ../../build/obj/log.o
 *fill*         0x0800e27c        0x4 
 .text.logInit  0x0800e280       0x80 ../../build/obj/log.o
                0x0800e280                logInit
 .text.twodigit
                0x0800e300       0x40 ../../build/obj/log.o
                0x0800e300                twodigit
 .text.logThread
                0x0800e340      0x3d0 ../../build/obj/log.o
 .text.logFastStart
                0x0800e710       0x5c ../../build/obj/log.o
                0x0800e710                logFastStart
 *fill*         0x0800e76c        0x4 
 .text.logCalc  0x0800e770      0x364 ../../build/obj/log.o
                0x0800e770                logCalc
 *fill*         0x0800ead4        0xc 
 .text.logGetState
                0x0800eae0       0x18 ../../build/obj/log.o
                0x0800eae0                logGetState
 *fill*         0x0800eaf8        0x8 
 .text.fastLogMod
                0x0800eb00       0x3c ../../build/obj/log.o
                0x0800eb00                fastLogMod
 *fill*         0x0800eb3c        0x4 
 .text.cmd_testlog
                0x0800eb40      0x16c ../../build/obj/log.o
                0x0800eb40                cmd_testlog
 *fill*         0x0800ecac        0x4 
 .text.cmd_testFastLog
                0x0800ecb0      0x144 ../../build/obj/log.o
                0x0800ecb0                cmd_testFastLog
 *fill*         0x0800edf4        0xc 
 .text.cmd_logvalues
                0x0800ee00      0x108 ../../build/obj/log.o
                0x0800ee00                cmd_logvalues
 *fill*         0x0800ef08        0x8 
 .text.cmd_logstop
                0x0800ef10       0x24 ../../build/obj/log.o
                0x0800ef10                cmd_logstop
 *fill*         0x0800ef34        0xc 
 .text.cmd_fast_log
                0x0800ef40       0x48 ../../build/obj/log.o
                0x0800ef40                cmd_fast_log
 *fill*         0x0800ef88        0x8 
 .text.can_tx   0x0800ef90      0x190 ../../build/obj/can_comm.o
 .text.can_rx   0x0800f120      0x430 ../../build/obj/can_comm.o
 .text.chprintf
                0x0800f550       0x1c ../../build/obj/can_comm.o
 *fill*         0x0800f56c        0x4 
 .text.can_commInit
                0x0800f570       0xa4 ../../build/obj/can_comm.o
                0x0800f570                can_commInit
 *fill*         0x0800f614        0xc 
 .text.cmd_can_commvalues
                0x0800f620       0x90 ../../build/obj/can_comm.o
                0x0800f620                cmd_can_commvalues
 .text.cmd_canmppttest
                0x0800f6b0      0x138 ../../build/obj/can_comm.o
                0x0800f6b0                cmd_canmppttest
 *fill*         0x0800f7e8        0x8 
 .text.cmd_canall
                0x0800f7f0      0x1a8 ../../build/obj/can_comm.o
                0x0800f7f0                cmd_canall
 *fill*         0x0800f998        0x8 
 .text.cmd_candata_lc
                0x0800f9a0      0x1c0 ../../build/obj/can_comm.o
                0x0800f9a0                cmd_candata_lc
 .text.cmd_candata_ml
                0x0800fb60       0xd4 ../../build/obj/can_comm.o
                0x0800fb60                cmd_candata_ml
 *fill*         0x0800fc34        0xc 
 .text.cmd_candata_bms
                0x0800fc40      0x200 ../../build/obj/can_comm.o
                0x0800fc40                cmd_candata_bms
 .text.cmd_candata_cell
                0x0800fe40      0x158 ../../build/obj/can_comm.o
                0x0800fe40                cmd_candata_cell
 *fill*         0x0800ff98        0x8 
 .text.cmd_lcSleep
                0x0800ffa0        0xc ../../build/obj/can_comm.o
                0x0800ffa0                cmd_lcSleep
 *fill*         0x0800ffac        0x4 
 .text.cmd_canmonitor
                0x0800ffb0       0xec ../../build/obj/can_comm.o
                0x0800ffb0                cmd_canmonitor
 *fill*         0x0801009c        0x4 
 .text.chprintf
                0x080100a0       0x1c ../../build/obj/light.o
 *fill*         0x080100bc        0x4 
 .text.lightInit
                0x080100c0       0x54 ../../build/obj/light.o
                0x080100c0                lightInit
 *fill*         0x08010114        0xc 
 .text.lightCalc
                0x08010120      0x1d0 ../../build/obj/light.o
                0x08010120                lightCalc
 .text.lightFlashing
                0x080102f0       0x50 ../../build/obj/light.o
                0x080102f0                lightFlashing
 .text.lightBrakeOff
                0x08010340       0x2c ../../build/obj/light.o
                0x08010340                lightBrakeOff
 *fill*         0x0801036c        0x4 
 .text.lightPosLampOn
                0x08010370       0x48 ../../build/obj/light.o
                0x08010370                lightPosLampOn
 *fill*         0x080103b8        0x8 
 .text.lightPosLampOff
                0x080103c0       0x28 ../../build/obj/light.o
                0x080103c0                lightPosLampOff
 *fill*         0x080103e8        0x8 
 .text.lightLampDemoOn
                0x080103f0        0xc ../../build/obj/light.o
                0x080103f0                lightLampDemoOn
 *fill*         0x080103fc        0x4 
 .text.lightLampDemoOff
                0x08010400        0xc ../../build/obj/light.o
                0x08010400                lightLampDemoOff
 *fill*         0x0801040c        0x4 
 .text.getLightFlashing
                0x08010410       0x78 ../../build/obj/light.o
                0x08010410                getLightFlashing
 *fill*         0x08010488        0x8 
 .text.cmd_lightvalues
                0x08010490       0x90 ../../build/obj/light.o
                0x08010490                cmd_lightvalues
 .text.cmd_lightblink
                0x08010520      0x218 ../../build/obj/light.o
                0x08010520                cmd_lightblink
 *fill*         0x08010738        0x8 
 .text.cmd_getLight
                0x08010740       0xa0 ../../build/obj/light.o
                0x08010740                cmd_getLight
 .text.speedWheelPeriodCb
                0x080107e0      0x164 ../../build/obj/speed.o
 *fill*         0x08010944        0xc 
 .text.save_kmeter_eeprom
                0x08010950       0x34 ../../build/obj/speed.o
 *fill*         0x08010984        0xc 
 .text.chprintf
                0x08010990       0x1c ../../build/obj/speed.o
 *fill*         0x080109ac        0x4 
 .text.speedInit
                0x080109b0       0x5c ../../build/obj/speed.o
                0x080109b0                speedInit
 *fill*         0x08010a0c        0x4 
 .text.speedCalc
                0x08010a10       0x2c ../../build/obj/speed.o
                0x08010a10                speedCalc
 *fill*         0x08010a3c        0x4 
 .text.speedGetRpm
                0x08010a40       0x20 ../../build/obj/speed.o
                0x08010a40                speedGetRpm
 .text.speedGetSpeed
                0x08010a60       0x20 ../../build/obj/speed.o
                0x08010a60                speedGetSpeed
 .text.speedRPM_TO_KMPH
                0x08010a80       0x58 ../../build/obj/speed.o
                0x08010a80                speedRPM_TO_KMPH
 *fill*         0x08010ad8        0x8 
 .text.speedKMPH_TO_RPM
                0x08010ae0       0x64 ../../build/obj/speed.o
                0x08010ae0                speedKMPH_TO_RPM
 *fill*         0x08010b44        0xc 
 .text.DistanceMeas
                0x08010b50       0xd4 ../../build/obj/speed.o
                0x08010b50                DistanceMeas
 *fill*         0x08010c24        0xc 
 .text.speedWheelPeriodNumber
                0x08010c30       0x1c ../../build/obj/speed.o
 *fill*         0x08010c4c        0x4 
 .text.GetTotalKmeterDistance
                0x08010c50        0xc ../../build/obj/speed.o
                0x08010c50                GetTotalKmeterDistance
 *fill*         0x08010c5c        0x4 
 .text.GetKmeterDistance
                0x08010c60        0xc ../../build/obj/speed.o
                0x08010c60                GetKmeterDistance
 *fill*         0x08010c6c        0x4 
 .text.GetTotalMeter
                0x08010c70       0x18 ../../build/obj/speed.o
                0x08010c70                GetTotalMeter
 *fill*         0x08010c88        0x8 
 .text.TotalMeterZero
                0x08010c90       0x10 ../../build/obj/speed.o
                0x08010c90                TotalMeterZero
 .text.cmd_speedvalues
                0x08010ca0       0xb0 ../../build/obj/speed.o
                0x08010ca0                cmd_speedvalues
 .text.cmd_distancevalues
                0x08010d50       0xb8 ../../build/obj/speed.o
                0x08010d50                cmd_distancevalues
 *fill*         0x08010e08        0x8 
 .text.cmd_set_total_kmeter
                0x08010e10       0x78 ../../build/obj/speed.o
                0x08010e10                cmd_set_total_kmeter
 *fill*         0x08010e88        0x8 
 .text.cmd_reset_kmeter
                0x08010e90       0x70 ../../build/obj/speed.o
                0x08010e90                cmd_reset_kmeter
 .text.cmd_reset_meter
                0x08010f00       0x78 ../../build/obj/speed.o
                0x08010f00                cmd_reset_meter
 *fill*         0x08010f78        0x8 
 .text.adcerrorcallback
                0x08010f80        0x4 ../../build/obj/meas.o
 *fill*         0x08010f84        0xc 
 .text.chprintf
                0x08010f90       0x1c ../../build/obj/meas.o
 *fill*         0x08010fac        0x4 
 .text.measInterpolateNTC.part.0
                0x08010fb0       0x50 ../../build/obj/meas.o
 .text.measInit
                0x08011000       0xf4 ../../build/obj/meas.o
                0x08011000                measInit
 *fill*         0x080110f4        0xc 
 .text.measCalc
                0x08011100      0x3b0 ../../build/obj/meas.o
                0x08011100                measCalc
 .text.measGetValue
                0x080114b0        0xc ../../build/obj/meas.o
                0x080114b0                measGetValue
 *fill*         0x080114bc        0x4 
 .text.measGetValue_2
                0x080114c0        0xc ../../build/obj/meas.o
                0x080114c0                measGetValue_2
 *fill*         0x080114cc        0x4 
 .text.cmd_measvalues
                0x080114d0      0x128 ../../build/obj/meas.o
                0x080114d0                cmd_measvalues
 *fill*         0x080115f8        0x8 
 .text.cmd_getThrottle
                0x08011600       0x90 ../../build/obj/meas.o
                0x08011600                cmd_getThrottle
 .text.cmd_getRegenBrake
                0x08011690       0x90 ../../build/obj/meas.o
                0x08011690                cmd_getRegenBrake
 .text.cmd_getSteeringAngle
                0x08011720       0x90 ../../build/obj/meas.o
                0x08011720                cmd_getSteeringAngle
 .text.cmd_mainValues
                0x080117b0       0x50 ../../build/obj/meas.o
                0x080117b0                cmd_mainValues
 .text.chprintf
                0x08011800       0x1c ../../build/obj/cruise.o
 *fill*         0x0801181c        0x4 
 .text.cruiseInit
                0x08011820      0x14c ../../build/obj/cruise.o
                0x08011820                cruiseInit
 *fill*         0x0801196c        0x4 
 .text.cruiseEnable
                0x08011970       0x18 ../../build/obj/cruise.o
                0x08011970                cruiseEnable
 *fill*         0x08011988        0x8 
 .text.cruiseDisable
                0x08011990        0xc ../../build/obj/cruise.o
                0x08011990                cruiseDisable
 *fill*         0x0801199c        0x4 
 .text.regen_brakeEnable
                0x080119a0        0xc ../../build/obj/cruise.o
                0x080119a0                regen_brakeEnable
 *fill*         0x080119ac        0x4 
 .text.regen_brakeDisable
                0x080119b0        0xc ../../build/obj/cruise.o
                0x080119b0                regen_brakeDisable
 *fill*         0x080119bc        0x4 
 .text.cruiseStatus
                0x080119c0       0x10 ../../build/obj/cruise.o
                0x080119c0                cruiseStatus
 .text.cruiseAccel
                0x080119d0        0xc ../../build/obj/cruise.o
                0x080119d0                cruiseAccel
 *fill*         0x080119dc        0x4 
 .text.cruiseAccelOk
                0x080119e0       0x24 ../../build/obj/cruise.o
                0x080119e0                cruiseAccelOk
 *fill*         0x08011a04        0xc 
 .text.cruiseDecelerat
                0x08011a10        0xc ../../build/obj/cruise.o
                0x08011a10                cruiseDecelerat
 *fill*         0x08011a1c        0x4 
 .text.cruiseDeceleratOk
                0x08011a20       0x24 ../../build/obj/cruise.o
                0x08011a20                cruiseDeceleratOk
 *fill*         0x08011a44        0xc 
 .text.cruiseIncrease
                0x08011a50       0x4c ../../build/obj/cruise.o
                0x08011a50                cruiseIncrease
 *fill*         0x08011a9c        0x4 
 .text.cruiseReduction
                0x08011aa0       0x2c ../../build/obj/cruise.o
                0x08011aa0                cruiseReduction
 *fill*         0x08011acc        0x4 
 .text.cruiseGetPWM
                0x08011ad0        0xc ../../build/obj/cruise.o
                0x08011ad0                cruiseGetPWM
 *fill*         0x08011adc        0x4 
 .text.cruiseGetCurrLimitSubstract
                0x08011ae0        0xc ../../build/obj/cruise.o
                0x08011ae0                cruiseGetCurrLimitSubstract
 *fill*         0x08011aec        0x4 
 .text.cruiseGet
                0x08011af0       0x18 ../../build/obj/cruise.o
                0x08011af0                cruiseGet
 *fill*         0x08011b08        0x8 
 .text.cruisePID
                0x08011b10      0x1c0 ../../build/obj/cruise.o
                0x08011b10                cruisePID
 .text.cruiseCalc
                0x08011cd0      0x420 ../../build/obj/cruise.o
                0x08011cd0                cruiseCalc
 .text.cmd_cruisevalues
                0x080120f0      0x1b0 ../../build/obj/cruise.o
                0x080120f0                cmd_cruisevalues
 .text.cmd_setcruisevalues
                0x080122a0      0x194 ../../build/obj/cruise.o
                0x080122a0                cmd_setcruisevalues
 *fill*         0x08012434        0xc 
 .text.cmd_cruise
                0x08012440       0xa4 ../../build/obj/cruise.o
                0x08012440                cmd_cruise
 *fill*         0x080124e4        0xc 
 .text.cmd_current_limit_switch
                0x080124f0       0xcc ../../build/obj/cruise.o
                0x080124f0                cmd_current_limit_switch
 *fill*         0x080125bc        0x4 
 .text.cmd_regen_brake
                0x080125c0       0x9c ../../build/obj/cruise.o
                0x080125c0                cmd_regen_brake
 *fill*         0x0801265c        0x4 
 .text.dspTask  0x08012660      0xd3c ../../build/obj/dsp.o
 *fill*         0x0801339c        0x4 
 .text.chprintf
                0x080133a0       0x1c ../../build/obj/dsp.o
 *fill*         0x080133bc        0x4 
 .text.dsp_LoadTop
                0x080133c0       0xd0 ../../build/obj/dsp.o
                0x080133c0                dsp_LoadTop
 .text.dsp_LoadMidle
                0x08013490       0x74 ../../build/obj/dsp.o
                0x08013490                dsp_LoadMidle
 *fill*         0x08013504        0xc 
 .text.dsp_LoadBottom
                0x08013510      0x124 ../../build/obj/dsp.o
                0x08013510                dsp_LoadBottom
 *fill*         0x08013634        0xc 
 .text.dspInit  0x08013640       0x60 ../../build/obj/dsp.o
                0x08013640                dspInit
 .text.dspGetValue
                0x080136a0        0xc ../../build/obj/dsp.o
                0x080136a0                dspGetValue
 *fill*         0x080136ac        0x4 
 .text.cmd_dspvalues
                0x080136b0      0x108 ../../build/obj/dsp.o
                0x080136b0                cmd_dspvalues
 *fill*         0x080137b8        0x8 
 .text.cmdfrappans_dspmessages
                0x080137c0      0x148 ../../build/obj/dsp.o
                0x080137c0                cmdfrappans_dspmessages
 *fill*         0x08013908        0x8 
 .text.gfx_Cls  0x08013910       0x24 ../../build/obj/gfx.o
                0x08013910                gfx_Cls
 *fill*         0x08013934        0xc 
 .text.file_Mount
                0x08013940       0x24 ../../build/obj/gfx.o
                0x08013940                file_Mount
 *fill*         0x08013964        0xc 
 .text.media_Image
                0x08013970       0x5c ../../build/obj/gfx.o
                0x08013970                media_Image
 *fill*         0x080139cc        0x4 
 .text.media_SetSector
                0x080139d0       0x5c ../../build/obj/gfx.o
                0x080139d0                media_SetSector
 *fill*         0x08013a2c        0x4 
 .text.media_VideoFrame
                0x08013a30       0x78 ../../build/obj/gfx.o
                0x08013a30                media_VideoFrame
 *fill*         0x08013aa8        0x8 
 .text.draw_line
                0x08013ab0       0xb8 ../../build/obj/gfx.o
                0x08013ab0                draw_line
 *fill*         0x08013b68        0x8 
 .text.gfx_BGcolour
                0x08013b70       0x40 ../../build/obj/gfx.o
                0x08013b70                gfx_BGcolour
 .text.gfx_Transparency
                0x08013bb0       0x40 ../../build/obj/gfx.o
                0x08013bb0                gfx_Transparency
 .text.gfx_TransparentColour
                0x08013bf0       0x40 ../../build/obj/gfx.o
                0x08013bf0                gfx_TransparentColour
 .text.bus_In   0x08013c30       0x24 ../../build/obj/gfx.o
                0x08013c30                bus_In
 *fill*         0x08013c54        0xc 
 .text.gfxGetDspAns
                0x08013c60       0x30 ../../build/obj/gfx.o
                0x08013c60                gfxGetDspAns
 .text.bus_Read
                0x08013c90       0x50 ../../build/obj/gfx.o
                0x08013c90                bus_Read
 .text.gfxGetDspAnsZero
                0x08013ce0        0xc ../../build/obj/gfx.o
                0x08013ce0                gfxGetDspAnsZero
 *fill*         0x08013cec        0x4 
 .text.uart_commInit
                0x08013cf0       0x10 ../../build/obj/uart_comm.o
                0x08013cf0                uart_commInit
 .text.chprintf
                0x08013d00       0x1c ../../build/obj/button.o
 *fill*         0x08013d1c        0x4 
 .text.buttonInit
                0x08013d20       0x8c ../../build/obj/button.o
                0x08013d20                buttonInit
 *fill*         0x08013dac        0x4 
 .text.buttonCalc
                0x08013db0      0x3a0 ../../build/obj/button.o
                0x08013db0                buttonCalc
 .text.cmd_buttonvalues
                0x08014150      0x154 ../../build/obj/button.o
                0x08014150                cmd_buttonvalues
 *fill*         0x080142a4        0xc 
 .text.chprintf
                0x080142b0       0x1c ../../build/obj/brake.o
 *fill*         0x080142cc        0x4 
 .text.cmd_brakevalues
                0x080142d0       0x58 ../../build/obj/brake.o
                0x080142d0                cmd_brakevalues
 *fill*         0x08014328        0x8 
 .text.safety   0x08014330      0x124 ../../build/obj/safety.o
 *fill*         0x08014454        0xc 
 .text.chprintf
                0x08014460       0x1c ../../build/obj/safety.o
 *fill*         0x0801447c        0x4 
 .text.safetyFanTimerCb
                0x08014480       0x64 ../../build/obj/safety.o
 *fill*         0x080144e4        0xc 
 .text.safetyInit
                0x080144f0       0x70 ../../build/obj/safety.o
                0x080144f0                safetyInit
 .text.cmd_safetyvalues
                0x08014560       0xc8 ../../build/obj/safety.o
                0x08014560                cmd_safetyvalues
 *fill*         0x08014628        0x8 
 .text.cmd_fan_speed
                0x08014630       0x4c ../../build/obj/safety.o
                0x08014630                cmd_fan_speed
 *fill*         0x0801467c        0x4 
 .text.chprintf
                0x08014680       0x1c ../../build/obj/calc.o
 *fill*         0x0801469c        0x4 
 .text.calcInit
                0x080146a0       0x28 ../../build/obj/calc.o
                0x080146a0                calcInit
 *fill*         0x080146c8        0x8 
 .text.calcCalc
                0x080146d0      0x180 ../../build/obj/calc.o
                0x080146d0                calcCalc
 .text.calcGetValue
                0x08014850        0xc ../../build/obj/calc.o
                0x08014850                calcGetValue
 *fill*         0x0801485c        0x4 
 .text.calcAvgSpeed
                0x08014860       0x20 ../../build/obj/calc.o
                0x08014860                calcAvgSpeed
 .text.cmd_calcvalues
                0x08014880       0xd0 ../../build/obj/calc.o
                0x08014880                cmd_calcvalues
 .text.chprintf
                0x08014950       0x1c ../../build/obj/nmea.o
 *fill*         0x0801496c        0x4 
 .text.nmeaInit
                0x08014970       0x80 ../../build/obj/nmea.o
                0x08014970                nmeaInit
 .text.nmeaProcessSentence
                0x080149f0      0x718 ../../build/obj/nmea.o
                0x080149f0                nmeaProcessSentence
 *fill*         0x08015108        0x8 
 .text.nmeaReadByte
                0x08015110      0x108 ../../build/obj/nmea.o
                0x08015110                nmeaReadByte
 *fill*         0x08015218        0x8 
 .text.nmeaThread
                0x08015220       0x34 ../../build/obj/nmea.o
 *fill*         0x08015254        0xc 
 .text.nmeaGetCurrentPosition
                0x08015260       0x78 ../../build/obj/nmea.o
                0x08015260                nmeaGetCurrentPosition
 *fill*         0x080152d8        0x8 
 .text.cmd_nmeatest
                0x080152e0      0x18c ../../build/obj/nmea.o
                0x080152e0                cmd_nmeatest
 *fill*         0x0801546c        0x4 
 .text.asctime  0x08015470       0x10 c:/program files (x86)/gnu tools arm embedded/4.9 2015q2/bin/../lib/gcc/arm-none-eabi/4.9.3/../../../../arm-none-eabi/lib/armv7e-m\libg.a(lib_a-asctime.o)
                0x08015470                asctime
 .text.asctime_r
                0x08015480       0x54 c:/program files (x86)/gnu tools arm embedded/4.9 2015q2/bin/../lib/gcc/arm-none-eabi/4.9.3/../../../../arm-none-eabi/lib/armv7e-m\libg.a(lib_a-asctime_r.o)
                0x08015480                asctime_r
 *fill*         0x080154d4        0xc 
 .text.atof     0x080154e0        0x8 c:/program files (x86)/gnu tools arm embedded/4.9 2015q2/bin/../lib/gcc/arm-none-eabi/4.9.3/../../../../arm-none-eabi/lib/armv7e-m\libg.a(lib_a-atof.o)
                0x080154e0                atof
 *fill*         0x080154e8        0x8 
 .text.atoi     0x080154f0        0x8 c:/program files (x86)/gnu tools arm embedded/4.9 2015q2/bin/../lib/gcc/arm-none-eabi/4.9.3/../../../../arm-none-eabi/lib/armv7e-m\libg.a(lib_a-atoi.o)
                0x080154f0                atoi
 *fill*         0x080154f8        0x8 
 .text.atol     0x08015500        0x8 c:/program files (x86)/gnu tools arm embedded/4.9 2015q2/bin/../lib/gcc/arm-none-eabi/4.9.3/../../../../arm-none-eabi/lib/armv7e-m\libg.a(lib_a-atol.o)
                0x08015500                atol
 *fill*         0x08015508        0x8 
 .text.localtime_r
                0x08015510      0x258 c:/program files (x86)/gnu tools arm embedded/4.9 2015q2/bin/../lib/gcc/arm-none-eabi/4.9.3/../../../../arm-none-eabi/lib/armv7e-m\libg.a(lib_a-lcltime_r.o)
                0x08015510                localtime_r
 *fill*         0x08015768        0x8 
 .text.memcmp   0x08015770       0x64 c:/program files (x86)/gnu tools arm embedded/4.9 2015q2/bin/../lib/gcc/arm-none-eabi/4.9.3/../../../../arm-none-eabi/lib/armv7e-m\libg.a(lib_a-memcmp.o)
                0x08015770                memcmp
 *fill*         0x080157d4        0xc 
 .text.memset   0x080157e0       0x9c c:/program files (x86)/gnu tools arm embedded/4.9 2015q2/bin/../lib/gcc/arm-none-eabi/4.9.3/../../../../arm-none-eabi/lib/armv7e-m\libg.a(lib_a-memset.o)
                0x080157e0                memset
 *fill*         0x0801587c        0x4 
 .text.validate_structure
                0x08015880      0x20c c:/program files (x86)/gnu tools arm embedded/4.9 2015q2/bin/../lib/gcc/arm-none-eabi/4.9.3/../../../../arm-none-eabi/lib/armv7e-m\libg.a(lib_a-mktime.o)
 *fill*         0x08015a8c        0x4 
 .text.mktime   0x08015a90      0x37c c:/program files (x86)/gnu tools arm embedded/4.9 2015q2/bin/../lib/gcc/arm-none-eabi/4.9.3/../../../../arm-none-eabi/lib/armv7e-m\libg.a(lib_a-mktime.o)
                0x08015a90                mktime
 *fill*         0x08015e0c        0x4 
 .text.siprintf
                0x08015e10       0x4c c:/program files (x86)/gnu tools arm embedded/4.9 2015q2/bin/../lib/gcc/arm-none-eabi/4.9.3/../../../../arm-none-eabi/lib/armv7e-m\libg.a(lib_a-siprintf.o)
                0x08015e10                siprintf
 *fill*         0x08015e5c        0x4 
 .text.strcasecmp
                0x08015e60       0x44 c:/program files (x86)/gnu tools arm embedded/4.9 2015q2/bin/../lib/gcc/arm-none-eabi/4.9.3/../../../../arm-none-eabi/lib/armv7e-m\libg.a(lib_a-strcasecmp.o)
                0x08015e60                strcasecmp
 *fill*         0x08015ea4        0xc 
 .text.strcpy   0x08015eb0       0xbc c:/program files (x86)/gnu tools arm embedded/4.9 2015q2/bin/../lib/gcc/arm-none-eabi/4.9.3/../../../../arm-none-eabi/lib/armv7e-m\libg.a(lib_a-strcpy.o)
                0x08015eb0                strcpy
 *fill*         0x08015f6c        0x4 
 .text.strlen   0x08015f70       0x5c c:/program files (x86)/gnu tools arm embedded/4.9 2015q2/bin/../lib/gcc/arm-none-eabi/4.9.3/../../../../arm-none-eabi/lib/armv7e-m\libg.a(lib_a-strlen.o)
                0x08015f70                strlen
 *fill*         0x08015fcc        0x4 
 .text.strncpy  0x08015fd0       0x68 c:/program files (x86)/gnu tools arm embedded/4.9 2015q2/bin/../lib/gcc/arm-none-eabi/4.9.3/../../../../arm-none-eabi/lib/armv7e-m\libg.a(lib_a-strncpy.o)
                0x08015fd0                strncpy
 *fill*         0x08016038        0x8 
 .text.strpbrk  0x08016040       0x48 c:/program files (x86)/gnu tools arm embedded/4.9 2015q2/bin/../lib/gcc/arm-none-eabi/4.9.3/../../../../arm-none-eabi/lib/armv7e-m\libg.a(lib_a-strpbrk.o)
                0x08016040                strpbrk
 *fill*         0x08016088        0x8 
 .text.strspn   0x08016090       0x34 c:/program files (x86)/gnu tools arm embedded/4.9 2015q2/bin/../lib/gcc/arm-none-eabi/4.9.3/../../../../arm-none-eabi/lib/armv7e-m\libg.a(lib_a-strspn.o)
                0x08016090                strspn
 *fill*         0x080160c4        0xc 
 .text.sulp     0x080160d0       0x44 c:/program files (x86)/gnu tools arm embedded/4.9 2015q2/bin/../lib/gcc/arm-none-eabi/4.9.3/../../../../arm-none-eabi/lib/armv7e-m\libg.a(lib_a-strtod.o)
 *fill*         0x08016114        0xc 
 .text._strtod_r
                0x08016120      0xf24 c:/program files (x86)/gnu tools arm embedded/4.9 2015q2/bin/../lib/gcc/arm-none-eabi/4.9.3/../../../../arm-none-eabi/lib/armv7e-m\libg.a(lib_a-strtod.o)
                0x08016120                _strtod_r
 *fill*         0x08017044        0xc 
 .text.strtod   0x08017050       0x10 c:/program files (x86)/gnu tools arm embedded/4.9 2015q2/bin/../lib/gcc/arm-none-eabi/4.9.3/../../../../arm-none-eabi/lib/armv7e-m\libg.a(lib_a-strtod.o)
                0x08017050                strtod
 .text._strtol_r
                0x08017060      0x11c c:/program files (x86)/gnu tools arm embedded/4.9 2015q2/bin/../lib/gcc/arm-none-eabi/4.9.3/../../../../arm-none-eabi/lib/armv7e-m\libg.a(lib_a-strtol.o)
                0x08017060                _strtol_r
 *fill*         0x0801717c        0x4 
 .text.strtol   0x08017180       0x18 c:/program files (x86)/gnu tools arm embedded/4.9 2015q2/bin/../lib/gcc/arm-none-eabi/4.9.3/../../../../arm-none-eabi/lib/armv7e-m\libg.a(lib_a-strtol.o)
                0x08017180                strtol
 *fill*         0x08017198        0x8 
 .text.__ssprint_r
                0x080171a0      0x104 c:/program files (x86)/gnu tools arm embedded/4.9 2015q2/bin/../lib/gcc/arm-none-eabi/4.9.3/../../../../arm-none-eabi/lib/armv7e-m\libg.a(lib_a-svfiprintf.o)
                0x080171a0                __ssprint_r
 *fill*         0x080172a4        0xc 
 .text._svfiprintf_r
                0x080172b0      0xaa0 c:/program files (x86)/gnu tools arm embedded/4.9 2015q2/bin/../lib/gcc/arm-none-eabi/4.9.3/../../../../arm-none-eabi/lib/armv7e-m\libg.a(lib_a-svfiprintf.o)
                0x080172b0                _svfiprintf_r
 .text.__tzcalc_limits
                0x08017d50      0x18c c:/program files (x86)/gnu tools arm embedded/4.9 2015q2/bin/../lib/gcc/arm-none-eabi/4.9.3/../../../../arm-none-eabi/lib/armv7e-m\libg.a(lib_a-tzcalc_limits.o)
                0x08017d50                __tzcalc_limits
 *fill*         0x08017edc        0x4 
 .text.__tz_lock
                0x08017ee0        0x4 c:/program files (x86)/gnu tools arm embedded/4.9 2015q2/bin/../lib/gcc/arm-none-eabi/4.9.3/../../../../arm-none-eabi/lib/armv7e-m\libg.a(lib_a-tzlock.o)
                0x08017ee0                __tz_lock
 *fill*         0x08017ee4        0xc 
 .text.__tz_unlock
                0x08017ef0        0x4 c:/program files (x86)/gnu tools arm embedded/4.9 2015q2/bin/../lib/gcc/arm-none-eabi/4.9.3/../../../../arm-none-eabi/lib/armv7e-m\libg.a(lib_a-tzlock.o)
                0x08017ef0                __tz_unlock
 *fill*         0x08017ef4        0xc 
 .text._tzset_unlocked
                0x08017f00        0xc c:/program files (x86)/gnu tools arm embedded/4.9 2015q2/bin/../lib/gcc/arm-none-eabi/4.9.3/../../../../arm-none-eabi/lib/armv7e-m\libg.a(lib_a-tzset.o)
                0x08017f00                _tzset_unlocked
 *fill*         0x08017f0c        0x4 
 .text._tzset_unlocked_r
                0x08017f10      0x328 c:/program files (x86)/gnu tools arm embedded/4.9 2015q2/bin/../lib/gcc/arm-none-eabi/4.9.3/../../../../arm-none-eabi/lib/armv7e-m\libg.a(lib_a-tzset_r.o)
                0x08017f10                _tzset_unlocked_r
 *fill*         0x08018238        0x8 
 .text.div      0x08018240       0x40 c:/program files (x86)/gnu tools arm embedded/4.9 2015q2/bin/../lib/gcc/arm-none-eabi/4.9.3/../../../../arm-none-eabi/lib/armv7e-m\libg.a(lib_a-div.o)
                0x08018240                div
 .text._malloc_trim_r
                0x08018280       0x9c c:/program files (x86)/gnu tools arm embedded/4.9 2015q2/bin/../lib/gcc/arm-none-eabi/4.9.3/../../../../arm-none-eabi/lib/armv7e-m\libg.a(lib_a-freer.o)
                0x08018280                _malloc_trim_r
 *fill*         0x0801831c        0x4 
 .text._free_r  0x08018320      0x1b0 c:/program files (x86)/gnu tools arm embedded/4.9 2015q2/bin/../lib/gcc/arm-none-eabi/4.9.3/../../../../arm-none-eabi/lib/armv7e-m\libg.a(lib_a-freer.o)
                0x08018320                _free_r
 .text.rshift   0x080184d0       0xa0 c:/program files (x86)/gnu tools arm embedded/4.9 2015q2/bin/../lib/gcc/arm-none-eabi/4.9.3/../../../../arm-none-eabi/lib/armv7e-m\libg.a(lib_a-gdtoa-gethex.o)
 .text.__gethex
                0x08018570      0x514 c:/program files (x86)/gnu tools arm embedded/4.9 2015q2/bin/../lib/gcc/arm-none-eabi/4.9.3/../../../../arm-none-eabi/lib/armv7e-m\libg.a(lib_a-gdtoa-gethex.o)
                0x08018570                __gethex
 *fill*         0x08018a84        0xc 
 .text.__hexnan
                0x08018a90      0x184 c:/program files (x86)/gnu tools arm embedded/4.9 2015q2/bin/../lib/gcc/arm-none-eabi/4.9.3/../../../../arm-none-eabi/lib/armv7e-m\libg.a(lib_a-gdtoa-hexnan.o)
                0x08018a90                __hexnan
 *fill*         0x08018c14        0xc 
 .text._findenv_r
                0x08018c20       0x88 c:/program files (x86)/gnu tools arm embedded/4.9 2015q2/bin/../lib/gcc/arm-none-eabi/4.9.3/../../../../arm-none-eabi/lib/armv7e-m\libg.a(lib_a-getenv_r.o)
                0x08018c20                _findenv_r
 *fill*         0x08018ca8        0x8 
 .text._getenv_r
                0x08018cb0       0x10 c:/program files (x86)/gnu tools arm embedded/4.9 2015q2/bin/../lib/gcc/arm-none-eabi/4.9.3/../../../../arm-none-eabi/lib/armv7e-m\libg.a(lib_a-getenv_r.o)
                0x08018cb0                _getenv_r
 .text.__gettzinfo
                0x08018cc0        0x8 c:/program files (x86)/gnu tools arm embedded/4.9 2015q2/bin/../lib/gcc/arm-none-eabi/4.9.3/../../../../arm-none-eabi/lib/armv7e-m\libg.a(lib_a-gettzinfo.o)
                0x08018cc0                __gettzinfo
 *fill*         0x08018cc8        0x8 
 .text.gmtime_r
                0x08018cd0      0x16c c:/program files (x86)/gnu tools arm embedded/4.9 2015q2/bin/../lib/gcc/arm-none-eabi/4.9.3/../../../../arm-none-eabi/lib/armv7e-m\libg.a(lib_a-gmtime_r.o)
                0x08018cd0                gmtime_r
 *fill*         0x08018e3c        0x4 
 .text.__locale_charset
                0x08018e40        0x8 c:/program files (x86)/gnu tools arm embedded/4.9 2015q2/bin/../lib/gcc/arm-none-eabi/4.9.3/../../../../arm-none-eabi/lib/armv7e-m\libg.a(lib_a-locale.o)
                0x08018e40                __locale_charset
 *fill*         0x08018e48        0x8 
 .text.__locale_mb_cur_max
                0x08018e50        0xc c:/program files (x86)/gnu tools arm embedded/4.9 2015q2/bin/../lib/gcc/arm-none-eabi/4.9.3/../../../../arm-none-eabi/lib/armv7e-m\libg.a(lib_a-locale.o)
                0x08018e50                __locale_mb_cur_max
 *fill*         0x08018e5c        0x4 
 .text._localeconv_r
                0x08018e60        0x8 c:/program files (x86)/gnu tools arm embedded/4.9 2015q2/bin/../lib/gcc/arm-none-eabi/4.9.3/../../../../arm-none-eabi/lib/armv7e-m\libg.a(lib_a-locale.o)
                0x08018e60                _localeconv_r
 *fill*         0x08018e68        0x8 
 .text.free     0x08018e70       0x10 c:/program files (x86)/gnu tools arm embedded/4.9 2015q2/bin/../lib/gcc/arm-none-eabi/4.9.3/../../../../arm-none-eabi/lib/armv7e-m\libg.a(lib_a-malloc.o)
                0x08018e70                free
 .text._malloc_r
                0x08018e80      0x524 c:/program files (x86)/gnu tools arm embedded/4.9 2015q2/bin/../lib/gcc/arm-none-eabi/4.9.3/../../../../arm-none-eabi/lib/armv7e-m\libg.a(lib_a-mallocr.o)
                0x08018e80                _malloc_r
 *fill*         0x080193a4        0xc 
 .text.memchr   0x080193b0       0x94 c:/program files (x86)/gnu tools arm embedded/4.9 2015q2/bin/../lib/gcc/arm-none-eabi/4.9.3/../../../../arm-none-eabi/lib/armv7e-m\libg.a(lib_a-memchr.o)
                0x080193b0                memchr
 *fill*         0x08019444        0xc 
 .text.memmove  0x08019450       0xc8 c:/program files (x86)/gnu tools arm embedded/4.9 2015q2/bin/../lib/gcc/arm-none-eabi/4.9.3/../../../../arm-none-eabi/lib/armv7e-m\libg.a(lib_a-memmove.o)
                0x08019450                memmove
 *fill*         0x08019518        0x8 
 .text.__malloc_lock
                0x08019520        0x4 c:/program files (x86)/gnu tools arm embedded/4.9 2015q2/bin/../lib/gcc/arm-none-eabi/4.9.3/../../../../arm-none-eabi/lib/armv7e-m\libg.a(lib_a-mlock.o)
                0x08019520                __malloc_lock
 *fill*         0x08019524        0xc 
 .text.__malloc_unlock
                0x08019530        0x4 c:/program files (x86)/gnu tools arm embedded/4.9 2015q2/bin/../lib/gcc/arm-none-eabi/4.9.3/../../../../arm-none-eabi/lib/armv7e-m\libg.a(lib_a-mlock.o)
                0x08019530                __malloc_unlock
 *fill*         0x08019534        0xc 
 .text._Balloc  0x08019540       0x4c c:/program files (x86)/gnu tools arm embedded/4.9 2015q2/bin/../lib/gcc/arm-none-eabi/4.9.3/../../../../arm-none-eabi/lib/armv7e-m\libg.a(lib_a-mprec.o)
                0x08019540                _Balloc
 *fill*         0x0801958c        0x4 
 .text._Bfree   0x08019590       0x14 c:/program files (x86)/gnu tools arm embedded/4.9 2015q2/bin/../lib/gcc/arm-none-eabi/4.9.3/../../../../arm-none-eabi/lib/armv7e-m\libg.a(lib_a-mprec.o)
                0x08019590                _Bfree
 *fill*         0x080195a4        0xc 
 .text.__multadd
                0x080195b0       0x84 c:/program files (x86)/gnu tools arm embedded/4.9 2015q2/bin/../lib/gcc/arm-none-eabi/4.9.3/../../../../arm-none-eabi/lib/armv7e-m\libg.a(lib_a-mprec.o)
                0x080195b0                __multadd
 *fill*         0x08019634        0xc 
 .text.__s2b    0x08019640       0x98 c:/program files (x86)/gnu tools arm embedded/4.9 2015q2/bin/../lib/gcc/arm-none-eabi/4.9.3/../../../../arm-none-eabi/lib/armv7e-m\libg.a(lib_a-mprec.o)
                0x08019640                __s2b
 *fill*         0x080196d8        0x8 
 .text.__hi0bits
                0x080196e0       0x40 c:/program files (x86)/gnu tools arm embedded/4.9 2015q2/bin/../lib/gcc/arm-none-eabi/4.9.3/../../../../arm-none-eabi/lib/armv7e-m\libg.a(lib_a-mprec.o)
                0x080196e0                __hi0bits
 .text.__lo0bits
                0x08019720       0x5c c:/program files (x86)/gnu tools arm embedded/4.9 2015q2/bin/../lib/gcc/arm-none-eabi/4.9.3/../../../../arm-none-eabi/lib/armv7e-m\libg.a(lib_a-mprec.o)
                0x08019720                __lo0bits
 *fill*         0x0801977c        0x4 
 .text.__i2b    0x08019780       0x14 c:/program files (x86)/gnu tools arm embedded/4.9 2015q2/bin/../lib/gcc/arm-none-eabi/4.9.3/../../../../arm-none-eabi/lib/armv7e-m\libg.a(lib_a-mprec.o)
                0x08019780                __i2b
 *fill*         0x08019794        0xc 
 .text.__multiply
                0x080197a0      0x134 c:/program files (x86)/gnu tools arm embedded/4.9 2015q2/bin/../lib/gcc/arm-none-eabi/4.9.3/../../../../arm-none-eabi/lib/armv7e-m\libg.a(lib_a-mprec.o)
                0x080197a0                __multiply
 *fill*         0x080198d4        0xc 
 .text.__pow5mult
                0x080198e0       0xa0 c:/program files (x86)/gnu tools arm embedded/4.9 2015q2/bin/../lib/gcc/arm-none-eabi/4.9.3/../../../../arm-none-eabi/lib/armv7e-m\libg.a(lib_a-mprec.o)
                0x080198e0                __pow5mult
 .text.__lshift
                0x08019980       0xac c:/program files (x86)/gnu tools arm embedded/4.9 2015q2/bin/../lib/gcc/arm-none-eabi/4.9.3/../../../../arm-none-eabi/lib/armv7e-m\libg.a(lib_a-mprec.o)
                0x08019980                __lshift
 *fill*         0x08019a2c        0x4 
 .text.__mcmp   0x08019a30       0x48 c:/program files (x86)/gnu tools arm embedded/4.9 2015q2/bin/../lib/gcc/arm-none-eabi/4.9.3/../../../../arm-none-eabi/lib/armv7e-m\libg.a(lib_a-mprec.o)
                0x08019a30                __mcmp
 *fill*         0x08019a78        0x8 
 .text.__mdiff  0x08019a80       0xd4 c:/program files (x86)/gnu tools arm embedded/4.9 2015q2/bin/../lib/gcc/arm-none-eabi/4.9.3/../../../../arm-none-eabi/lib/armv7e-m\libg.a(lib_a-mprec.o)
                0x08019a80                __mdiff
 *fill*         0x08019b54        0xc 
 .text.__ulp    0x08019b60       0x40 c:/program files (x86)/gnu tools arm embedded/4.9 2015q2/bin/../lib/gcc/arm-none-eabi/4.9.3/../../../../arm-none-eabi/lib/armv7e-m\libg.a(lib_a-mprec.o)
                0x08019b60                __ulp
 .text.__b2d    0x08019ba0       0xc4 c:/program files (x86)/gnu tools arm embedded/4.9 2015q2/bin/../lib/gcc/arm-none-eabi/4.9.3/../../../../arm-none-eabi/lib/armv7e-m\libg.a(lib_a-mprec.o)
                0x08019ba0                __b2d
 *fill*         0x08019c64        0xc 
 .text.__d2b    0x08019c70       0xb8 c:/program files (x86)/gnu tools arm embedded/4.9 2015q2/bin/../lib/gcc/arm-none-eabi/4.9.3/../../../../arm-none-eabi/lib/armv7e-m\libg.a(lib_a-mprec.o)
                0x08019c70                __d2b
 *fill*         0x08019d28        0x8 
 .text.__ratio  0x08019d30       0x58 c:/program files (x86)/gnu tools arm embedded/4.9 2015q2/bin/../lib/gcc/arm-none-eabi/4.9.3/../../../../arm-none-eabi/lib/armv7e-m\libg.a(lib_a-mprec.o)
                0x08019d30                __ratio
 *fill*         0x08019d88        0x8 
 .text.__copybits
                0x08019d90       0x48 c:/program files (x86)/gnu tools arm embedded/4.9 2015q2/bin/../lib/gcc/arm-none-eabi/4.9.3/../../../../arm-none-eabi/lib/armv7e-m\libg.a(lib_a-mprec.o)
                0x08019d90                __copybits
 *fill*         0x08019dd8        0x8 
 .text.__any_on
                0x08019de0       0x60 c:/program files (x86)/gnu tools arm embedded/4.9 2015q2/bin/../lib/gcc/arm-none-eabi/4.9.3/../../../../arm-none-eabi/lib/armv7e-m\libg.a(lib_a-mprec.o)
                0x08019de0                __any_on
 .text._realloc_r
                0x08019e40      0x3ec c:/program files (x86)/gnu tools arm embedded/4.9 2015q2/bin/../lib/gcc/arm-none-eabi/4.9.3/../../../../arm-none-eabi/lib/armv7e-m\libg.a(lib_a-reallocr.o)
                0x08019e40                _realloc_r
 *fill*         0x0801a22c        0x4 
 .text.siscanf  0x0801a230       0x58 c:/program files (x86)/gnu tools arm embedded/4.9 2015q2/bin/../lib/gcc/arm-none-eabi/4.9.3/../../../../arm-none-eabi/lib/armv7e-m\libg.a(lib_a-siscanf.o)
                0x0801a230                siscanf
 *fill*         0x0801a288        0x8 
 .text.__seofread
                0x0801a290        0x4 c:/program files (x86)/gnu tools arm embedded/4.9 2015q2/bin/../lib/gcc/arm-none-eabi/4.9.3/../../../../arm-none-eabi/lib/armv7e-m\libg.a(lib_a-stdio.o)
                0x0801a290                __seofread
 *fill*         0x0801a294        0xc 
 .text.strncmp  0x0801a2a0       0x98 c:/program files (x86)/gnu tools arm embedded/4.9 2015q2/bin/../lib/gcc/arm-none-eabi/4.9.3/../../../../arm-none-eabi/lib/armv7e-m\libg.a(lib_a-strncmp.o)
                0x0801a2a0                strncmp
 *fill*         0x0801a338        0x8 
 .text._strtoul_r
                0x0801a340      0x128 c:/program files (x86)/gnu tools arm embedded/4.9 2015q2/bin/../lib/gcc/arm-none-eabi/4.9.3/../../../../arm-none-eabi/lib/armv7e-m\libg.a(lib_a-strtoul.o)
                0x0801a340                _strtoul_r
 *fill*         0x0801a468        0x8 
 .text.strtoul  0x0801a470       0x18 c:/program files (x86)/gnu tools arm embedded/4.9 2015q2/bin/../lib/gcc/arm-none-eabi/4.9.3/../../../../arm-none-eabi/lib/armv7e-m\libg.a(lib_a-strtoul.o)
                0x0801a470                strtoul
 *fill*         0x0801a488        0x8 
 .text._sungetc_r
                0x0801a490       0x88 c:/program files (x86)/gnu tools arm embedded/4.9 2015q2/bin/../lib/gcc/arm-none-eabi/4.9.3/../../../../arm-none-eabi/lib/armv7e-m\libg.a(lib_a-svfiscanf.o)
                0x0801a490                _sungetc_r
 *fill*         0x0801a518        0x8 
 .text.__ssrefill_r
                0x0801a520       0x3c c:/program files (x86)/gnu tools arm embedded/4.9 2015q2/bin/../lib/gcc/arm-none-eabi/4.9.3/../../../../arm-none-eabi/lib/armv7e-m\libg.a(lib_a-svfiscanf.o)
                0x0801a520                __ssrefill_r
 *fill*         0x0801a55c        0x4 
 .text._sfread_r
                0x0801a560       0x80 c:/program files (x86)/gnu tools arm embedded/4.9 2015q2/bin/../lib/gcc/arm-none-eabi/4.9.3/../../../../arm-none-eabi/lib/armv7e-m\libg.a(lib_a-svfiscanf.o)
                0x0801a560                _sfread_r
 .text.__ssvfiscanf_r
                0x0801a5e0      0x9b8 c:/program files (x86)/gnu tools arm embedded/4.9 2015q2/bin/../lib/gcc/arm-none-eabi/4.9.3/../../../../arm-none-eabi/lib/armv7e-m\libg.a(lib_a-svfiscanf.o)
                0x0801a5e0                __ssvfiscanf_r
 *fill*         0x0801af98        0x8 
 .text.__submore
                0x0801afa0       0x78 c:/program files (x86)/gnu tools arm embedded/4.9 2015q2/bin/../lib/gcc/arm-none-eabi/4.9.3/../../../../arm-none-eabi/lib/armv7e-m\libg.a(lib_a-ungetc.o)
                0x0801afa0                __submore
 *fill*         0x0801b018        0x8 
 .text._calloc_r
                0x0801b020       0x60 c:/program files (x86)/gnu tools arm embedded/4.9 2015q2/bin/../lib/gcc/arm-none-eabi/4.9.3/../../../../arm-none-eabi/lib/armv7e-m\libg.a(lib_a-callocr.o)
                0x0801b020                _calloc_r
 .text.__env_lock
                0x0801b080        0x4 c:/program files (x86)/gnu tools arm embedded/4.9 2015q2/bin/../lib/gcc/arm-none-eabi/4.9.3/../../../../arm-none-eabi/lib/armv7e-m\libg.a(lib_a-envlock.o)
                0x0801b080                __env_lock
 *fill*         0x0801b084        0xc 
 .text.__env_unlock
                0x0801b090        0x4 c:/program files (x86)/gnu tools arm embedded/4.9 2015q2/bin/../lib/gcc/arm-none-eabi/4.9.3/../../../../arm-none-eabi/lib/armv7e-m\libg.a(lib_a-envlock.o)
                0x0801b090                __env_unlock
 *fill*         0x0801b094        0xc 
 .text.iswspace
                0x0801b0a0       0x1c c:/program files (x86)/gnu tools arm embedded/4.9 2015q2/bin/../lib/gcc/arm-none-eabi/4.9.3/../../../../arm-none-eabi/lib/armv7e-m\libg.a(lib_a-iswspace.o)
                0x0801b0a0                iswspace
 *fill*         0x0801b0bc        0x4 
 .text._mbrtowc_r
                0x0801b0c0       0x5c c:/program files (x86)/gnu tools arm embedded/4.9 2015q2/bin/../lib/gcc/arm-none-eabi/4.9.3/../../../../arm-none-eabi/lib/armv7e-m\libg.a(lib_a-mbrtowc.o)
                0x0801b0c0                _mbrtowc_r
 *fill*         0x0801b11c        0x4 
 .text.__ascii_mbtowc
                0x0801b120       0x2c c:/program files (x86)/gnu tools arm embedded/4.9 2015q2/bin/../lib/gcc/arm-none-eabi/4.9.3/../../../../arm-none-eabi/lib/armv7e-m\libg.a(lib_a-mbtowc_r.o)
                0x0801b120                __ascii_mbtowc
 *fill*         0x0801b14c        0x4 
 .text.__sccl   0x0801b150       0x78 c:/program files (x86)/gnu tools arm embedded/4.9 2015q2/bin/../lib/gcc/arm-none-eabi/4.9.3/../../../../arm-none-eabi/lib/armv7e-m\libg.a(lib_a-sccl.o)
                0x0801b150                __sccl
 *fill*         0x0801b1c8        0x8 
 .text._strtoll_r
                0x0801b1d0      0x1cc c:/program files (x86)/gnu tools arm embedded/4.9 2015q2/bin/../lib/gcc/arm-none-eabi/4.9.3/../../../../arm-none-eabi/lib/armv7e-m\libg.a(lib_a-strtoll_r.o)
                0x0801b1d0                _strtoll_r
 *fill*         0x0801b39c        0x4 
 .text._strtoull_r
                0x0801b3a0      0x1d8 c:/program files (x86)/gnu tools arm embedded/4.9 2015q2/bin/../lib/gcc/arm-none-eabi/4.9.3/../../../../arm-none-eabi/lib/armv7e-m\libg.a(lib_a-strtoull_r.o)
                0x0801b3a0                _strtoull_r
 *(.rodata)
 *(.rodata.*)
 *fill*         0x0801b578        0x8 
 .rodata.str1.4
                0x0801b580        0x5 ../../build/obj/chsys.o
 *fill*         0x0801b585        0xb 
 .rodata.ch_debug
                0x0801b590       0x16 ../../build/obj/chregistry.o
                0x0801b590                ch_debug
 *fill*         0x0801b5a6        0xa 
 .rodata.wa     0x0801b5b0       0x14 ../../build/obj/test.o
                0x0801b5b0                wa
 *fill*         0x0801b5c4        0xc 
 .rodata.str1.4
                0x0801b5d0      0x1f7 ../../build/obj/test.o
                                0x207 (size before relaxing)
 *fill*         0x0801b7c7        0x9 
 .rodata.patterns
                0x0801b7d0       0x30 ../../build/obj/test.o
 .rodata.testthd1
                0x0801b800       0x10 ../../build/obj/testthd.o
                0x0801b800                testthd1
 .rodata.testthd2
                0x0801b810       0x10 ../../build/obj/testthd.o
                0x0801b810                testthd2
 .rodata.testthd3
                0x0801b820       0x10 ../../build/obj/testthd.o
                0x0801b820                testthd3
 .rodata.testthd4
                0x0801b830       0x10 ../../build/obj/testthd.o
                0x0801b830                testthd4
 .rodata.patternthd
                0x0801b840       0x14 ../../build/obj/testthd.o
                0x0801b840                patternthd
 *fill*         0x0801b854        0xc 
 .rodata.str1.4
                0x0801b860       0x6f ../../build/obj/testthd.o
                                 0x7f (size before relaxing)
 *fill*         0x0801b8cf        0x1 
 .rodata.testsem1
                0x0801b8d0       0x10 ../../build/obj/testsem.o
                0x0801b8d0                testsem1
 .rodata.testsem2
                0x0801b8e0       0x10 ../../build/obj/testsem.o
                0x0801b8e0                testsem2
 .rodata.testsem3
                0x0801b8f0       0x10 ../../build/obj/testsem.o
                0x0801b8f0                testsem3
 .rodata.testsem4
                0x0801b900       0x10 ../../build/obj/testsem.o
                0x0801b900                testsem4
 .rodata.patternsem
                0x0801b910       0x14 ../../build/obj/testsem.o
                0x0801b910                patternsem
 *fill*         0x0801b924        0xc 
 .rodata.str1.4
                0x0801b930       0x6e ../../build/obj/testsem.o
                                 0x8a (size before relaxing)
 *fill*         0x0801b99e        0x2 
 .rodata.testmtx5
                0x0801b9a0       0x10 ../../build/obj/testmtx.o
                0x0801b9a0                testmtx5
 .rodata.testmtx6
                0x0801b9b0       0x10 ../../build/obj/testmtx.o
                0x0801b9b0                testmtx6
 .rodata.testmtx7
                0x0801b9c0       0x10 ../../build/obj/testmtx.o
                0x0801b9c0                testmtx7
 .rodata.testmtx8
                0x0801b9d0       0x10 ../../build/obj/testmtx.o
                0x0801b9d0                testmtx8
 .rodata.str1.4
                0x0801b9e0       0xed ../../build/obj/testmtx.o
                                0x109 (size before relaxing)
 *fill*         0x0801bacd        0x3 
 .rodata.patternmtx
                0x0801bad0       0x24 ../../build/obj/testmtx.o
                0x0801bad0                patternmtx
 *fill*         0x0801baf4        0xc 
 .rodata.testmtx1
                0x0801bb00       0x10 ../../build/obj/testmtx.o
                0x0801bb00                testmtx1
 .rodata.testmtx2
                0x0801bb10       0x10 ../../build/obj/testmtx.o
                0x0801bb10                testmtx2
 .rodata.testmtx3
                0x0801bb20       0x10 ../../build/obj/testmtx.o
                0x0801bb20                testmtx3
 .rodata.testmtx4
                0x0801bb30       0x10 ../../build/obj/testmtx.o
                0x0801bb30                testmtx4
 .rodata.testmsg1
                0x0801bb40       0x10 ../../build/obj/testmsg.o
                0x0801bb40                testmsg1
 .rodata.str1.4
                0x0801bb50        0xf ../../build/obj/testmsg.o
                                 0x13 (size before relaxing)
 *fill*         0x0801bb5f        0x1 
 .rodata.patternmsg
                0x0801bb60        0x8 ../../build/obj/testmsg.o
                0x0801bb60                patternmsg
 *fill*         0x0801bb68        0x8 
 .rodata.patternmbox
                0x0801bb70        0x8 ../../build/obj/testmbox.o
                0x0801bb70                patternmbox
 *fill*         0x0801bb78        0x8 
 .rodata.str1.4
                0x0801bb80       0x20 ../../build/obj/testmbox.o
                                 0x28 (size before relaxing)
 .rodata.testmbox1
                0x0801bba0       0x10 ../../build/obj/testmbox.o
                0x0801bba0                testmbox1
 .rodata.patternevt
                0x0801bbb0       0x10 ../../build/obj/testevt.o
                0x0801bbb0                patternevt
 .rodata.testevt2
                0x0801bbc0       0x10 ../../build/obj/testevt.o
                0x0801bbc0                testevt2
 .rodata.str1.4
                0x0801bbd0       0x52 ../../build/obj/testevt.o
                                 0x5a (size before relaxing)
 *fill*         0x0801bc22        0xe 
 .rodata.testevt1
                0x0801bc30       0x10 ../../build/obj/testevt.o
                0x0801bc30                testevt1
 .rodata.evhndl
                0x0801bc40        0xc ../../build/obj/testevt.o
 *fill*         0x0801bc4c        0x4 
 .rodata.testevt3
                0x0801bc50       0x10 ../../build/obj/testevt.o
                0x0801bc50                testevt3
 .rodata.patternheap
                0x0801bc60        0x8 ../../build/obj/testheap.o
                0x0801bc60                patternheap
 *fill*         0x0801bc68        0x8 
 .rodata.str1.4
                0x0801bc70       0x28 ../../build/obj/testheap.o
 *fill*         0x0801bc98        0x8 
 .rodata.testheap1
                0x0801bca0       0x10 ../../build/obj/testheap.o
                0x0801bca0                testheap1
 .rodata.str1.4
                0x0801bcb0       0x1c ../../build/obj/testpools.o
 *fill*         0x0801bccc        0x4 
 .rodata.patternpools
                0x0801bcd0        0x8 ../../build/obj/testpools.o
                0x0801bcd0                patternpools
 *fill*         0x0801bcd8        0x8 
 .rodata.testpools1
                0x0801bce0       0x10 ../../build/obj/testpools.o
                0x0801bce0                testpools1
 .rodata.testdyn1
                0x0801bcf0       0x10 ../../build/obj/testdyn.o
                0x0801bcf0                testdyn1
 .rodata.testdyn2
                0x0801bd00       0x10 ../../build/obj/testdyn.o
                0x0801bd00                testdyn2
 .rodata.testdyn3
                0x0801bd10       0x10 ../../build/obj/testdyn.o
                0x0801bd10                testdyn3
 .rodata.str1.4
                0x0801bd20       0x8d ../../build/obj/testdyn.o
                                 0xa1 (size before relaxing)
 *fill*         0x0801bdad        0x3 
 .rodata.patterndyn
                0x0801bdb0       0x10 ../../build/obj/testdyn.o
                0x0801bdb0                patterndyn
 .rodata.testqueues1
                0x0801bdc0       0x10 ../../build/obj/testqueues.o
                0x0801bdc0                testqueues1
 .rodata.testqueues2
                0x0801bdd0       0x10 ../../build/obj/testqueues.o
                0x0801bdd0                testqueues2
 .rodata.str1.4
                0x0801bde0       0x2d ../../build/obj/testqueues.o
                                 0x35 (size before relaxing)
 *fill*         0x0801be0d        0x3 
 .rodata.patternqueues
                0x0801be10        0xc ../../build/obj/testqueues.o
                0x0801be10                patternqueues
 *fill*         0x0801be1c        0x4 
 .rodata.testbmk8
                0x0801be20       0x10 ../../build/obj/testbmk.o
                0x0801be20                testbmk8
 .rodata.patternbmk
                0x0801be30       0x38 ../../build/obj/testbmk.o
                0x0801be30                patternbmk
 *fill*         0x0801be68        0x8 
 .rodata.testbmk2
                0x0801be70       0x10 ../../build/obj/testbmk.o
                0x0801be70                testbmk2
 .rodata.testbmk10
                0x0801be80       0x10 ../../build/obj/testbmk.o
                0x0801be80                testbmk10
 .rodata.testbmk4
                0x0801be90       0x10 ../../build/obj/testbmk.o
                0x0801be90                testbmk4
 .rodata.testbmk3
                0x0801bea0       0x10 ../../build/obj/testbmk.o
                0x0801bea0                testbmk3
 .rodata.str1.4
                0x0801beb0      0x2c7 ../../build/obj/testbmk.o
 *fill*         0x0801c177        0x9 
 .rodata.testbmk9
                0x0801c180       0x10 ../../build/obj/testbmk.o
                0x0801c180                testbmk9
 .rodata.testbmk1
                0x0801c190       0x10 ../../build/obj/testbmk.o
                0x0801c190                testbmk1
 .rodata.testbmk11
                0x0801c1a0       0x10 ../../build/obj/testbmk.o
                0x0801c1a0                testbmk11
 .rodata.testbmk12
                0x0801c1b0       0x10 ../../build/obj/testbmk.o
                0x0801c1b0                testbmk12
 .rodata.testbmk13
                0x0801c1c0       0x10 ../../build/obj/testbmk.o
                0x0801c1c0                testbmk13
 .rodata.testbmk5
                0x0801c1d0       0x10 ../../build/obj/testbmk.o
                0x0801c1d0                testbmk5
 .rodata.testbmk6
                0x0801c1e0       0x10 ../../build/obj/testbmk.o
                0x0801c1e0                testbmk6
 .rodata.testbmk7
                0x0801c1f0       0x10 ../../build/obj/testbmk.o
                0x0801c1f0                testbmk7
 .rodata.sdc_vmt
                0x0801c200       0x20 ../../build/obj/sdc.o
 .rodata.vmt    0x0801c220       0x20 ../../build/obj/serial.o
 .rodata.zero_status
                0x0801c240        0x2 ../../build/obj/usb.o
 *fill*         0x0801c242        0xe 
 .rodata.active_status
                0x0801c250        0x2 ../../build/obj/usb.o
 *fill*         0x0801c252        0xe 
 .rodata.halted_status
                0x0801c260        0x2 ../../build/obj/usb.o
 *fill*         0x0801c262        0xe 
 .rodata._stm32_dma_streams
                0x0801c270       0xc0 ../../build/obj/stm32_dma.o
                0x0801c270                _stm32_dma_streams
 .rodata.fsparams
                0x0801c330        0xc ../../build/obj/usb_lld.o
 *fill*         0x0801c33c        0x4 
 .rodata.ep0config
                0x0801c340       0x24 ../../build/obj/usb_lld.o
 *fill*         0x0801c364        0xc 
 .rodata.default_config
                0x0801c370        0xc ../../build/obj/serial_lld.o
 *fill*         0x0801c37c        0x4 
 .rodata.pal_default_config
                0x0801c380       0xfc ../../build/obj/board.o
                0x0801c380                pal_default_config
 *fill*         0x0801c47c        0x4 
 .rodata.excvt.5261
                0x0801c480       0x80 ../../build/obj/ff.o
 .rodata.str1.4
                0x0801c500       0x48 ../../build/obj/ff.o
 *fill*         0x0801c548        0x8 
 .rodata.LfnOfs
                0x0801c550        0xd ../../build/obj/ff.o
 *fill*         0x0801c55d        0x3 
 .rodata.tbl_upper.5006
                0x0801c560      0x1e0 ../../build/obj/ccsbcs.o
 .rodata.Tbl    0x0801c740      0x100 ../../build/obj/ccsbcs.o
 .rodata.tbl_lower.5005
                0x0801c840      0x1e0 ../../build/obj/ccsbcs.o
 .rodata.str1.4
                0x0801ca20      0x215 ../../build/obj/shell2.o
                                0x2d5 (size before relaxing)
 *fill*         0x0801cc35        0xb 
 .rodata.str1.4
                0x0801cc40        0x7 ../../build/obj/chprintf.o
 *fill*         0x0801cc47        0x9 
 .rodata.str1.4
                0x0801cc50       0x11 ../../build/obj/main.o
 *fill*         0x0801cc61        0xf 
 .rodata.commands
                0x0801cc70      0x1b8 ../../build/obj/console.o
 *fill*         0x0801ce28        0x8 
 .rodata.str1.4
                0x0801ce30      0x566 ../../build/obj/console.o
                                0x58e (size before relaxing)
 *fill*         0x0801d396        0xa 
 .rodata.shell_cfg1
                0x0801d3a0        0x8 ../../build/obj/console.o
 *fill*         0x0801d3a8        0x8 
 .rodata.states.10520
                0x0801d3b0       0x3c ../../build/obj/console.o
 *fill*         0x0801d3ec        0x4 
 .rodata.names.8487
                0x0801d3f0       0x2c ../../build/obj/eeprom.o
 *fill*         0x0801d41c        0x4 
 .rodata.str1.4
                0x0801d420      0x192 ../../build/obj/eeprom.o
                                0x1ae (size before relaxing)
 *fill*         0x0801d5b2        0xe 
 .rodata.i2ccfg
                0x0801d5c0        0xc ../../build/obj/eeprom.o
 *fill*         0x0801d5cc        0x4 
 .rodata.sdccfg
                0x0801d5d0        0x4 ../../build/obj/sdcard.o
 *fill*         0x0801d5d4        0xc 
 .rodata.str1.4
                0x0801d5e0      0x4a0 ../../build/obj/sdcard.o
                                0x4a4 (size before relaxing)
 .rodata.str1.4
                0x0801da80     0x12e9 ../../build/obj/log.o
                               0x130d (size before relaxing)
 *fill*         0x0801ed69        0x7 
 .rodata.cancfg
                0x0801ed70        0x8 ../../build/obj/can_comm.o
 *fill*         0x0801ed78        0x8 
 .rodata.str1.4
                0x0801ed80      0xd10 ../../build/obj/can_comm.o
                                0xd2c (size before relaxing)
 .rodata.str1.4
                0x0801fa90      0x328 ../../build/obj/light.o
                                0x340 (size before relaxing)
 *fill*         0x0801fdb8        0x8 
 .rodata.str1.4
                0x0801fdc0      0x16a ../../build/obj/speed.o
                                0x182 (size before relaxing)
 *fill*         0x0801ff2a        0x6 
 .rodata.adcgrpcfg
                0x0801ff30       0x28 ../../build/obj/meas.o
 *fill*         0x0801ff58        0x8 
 .rodata.measNTCcalib
                0x0801ff60       0x56 ../../build/obj/meas.o
                0x0801ff60                measNTCcalib
 *fill*         0x0801ffb6        0xa 
 .rodata.names.8052
                0x0801ffc0       0x1c ../../build/obj/meas.o
 *fill*         0x0801ffdc        0x4 
 .rodata.str1.4
                0x0801ffe0      0x211 ../../build/obj/meas.o
                                0x245 (size before relaxing)
 *fill*         0x080201f1        0xf 
 .rodata.names2.8053
                0x08020200        0xc ../../build/obj/meas.o
 *fill*         0x0802020c        0x4 
 .rodata.adcgrpcfg_2
                0x08020210       0x28 ../../build/obj/meas.o
 *fill*         0x08020238        0x8 
 .rodata.str1.4
                0x08020240      0x32d ../../build/obj/cruise.o
                                0x351 (size before relaxing)
 *fill*         0x0802056d        0x3 
 .rodata.str1.4
                0x08020570      0x19c ../../build/obj/dsp.o
                                0x1b8 (size before relaxing)
 *fill*         0x0802070c        0x4 
 .rodata.str1.4
                0x08020710       0xe7 ../../build/obj/button.o
                                0x107 (size before relaxing)
 .rodata.str1.4
                0x00000000       0x2a ../../build/obj/brake.o
 *fill*         0x080207f7        0x9 
 .rodata.gpt2cfg
                0x08020800        0xc ../../build/obj/safety.o
 *fill*         0x0802080c        0x4 
 .rodata.str1.4
                0x08020810       0x57 ../../build/obj/safety.o
                                 0x89 (size before relaxing)
 *fill*         0x08020867        0x9 
 .rodata.str1.4
                0x08020870       0x6e ../../build/obj/calc.o
                                 0x9e (size before relaxing)
 *fill*         0x080208de        0x2 
 .rodata.names.9010
                0x080208e0        0xc ../../build/obj/calc.o
 *fill*         0x080208ec        0x4 
 .rodata.str1.4
                0x080208f0       0xb8 ../../build/obj/nmea.o
                                 0xd8 (size before relaxing)
 *fill*         0x080209a8        0x8 
 .rodata.mon_name.4670
                0x080209b0       0x24 c:/program files (x86)/gnu tools arm embedded/4.9 2015q2/bin/../lib/gcc/arm-none-eabi/4.9.3/../../../../arm-none-eabi/lib/armv7e-m\libg.a(lib_a-asctime_r.o)
 *fill*         0x080209d4        0xc 
 .rodata.day_name.4669
                0x080209e0       0x15 c:/program files (x86)/gnu tools arm embedded/4.9 2015q2/bin/../lib/gcc/arm-none-eabi/4.9.3/../../../../arm-none-eabi/lib/armv7e-m\libg.a(lib_a-asctime_r.o)
 *fill*         0x080209f5        0xb 
 .rodata.str1.4
                0x08020a00       0x20 c:/program files (x86)/gnu tools arm embedded/4.9 2015q2/bin/../lib/gcc/arm-none-eabi/4.9.3/../../../../arm-none-eabi/lib/armv7e-m\libg.a(lib_a-asctime_r.o)
 .rodata.str1.4
                0x00000000        0x2 c:/program files (x86)/gnu tools arm embedded/4.9 2015q2/bin/../lib/gcc/arm-none-eabi/4.9.3/../../../../arm-none-eabi/lib/armv7e-m\libg.a(lib_a-impure.o)
 .rodata._DAYS_BEFORE_MONTH
                0x08020a20       0x30 c:/program files (x86)/gnu tools arm embedded/4.9 2015q2/bin/../lib/gcc/arm-none-eabi/4.9.3/../../../../arm-none-eabi/lib/armv7e-m\libg.a(lib_a-mktime.o)
 .rodata.DAYS_IN_MONTH
                0x08020a50       0x30 c:/program files (x86)/gnu tools arm embedded/4.9 2015q2/bin/../lib/gcc/arm-none-eabi/4.9.3/../../../../arm-none-eabi/lib/armv7e-m\libg.a(lib_a-mktime.o)
 .rodata.__month_lengths
                0x08020a80       0x60 c:/program files (x86)/gnu tools arm embedded/4.9 2015q2/bin/../lib/gcc/arm-none-eabi/4.9.3/../../../../arm-none-eabi/lib/armv7e-m\libg.a(lib_a-month_lengths.o)
                0x08020a80                __month_lengths
 .rodata.tinytens
                0x08020ae0       0x28 c:/program files (x86)/gnu tools arm embedded/4.9 2015q2/bin/../lib/gcc/arm-none-eabi/4.9.3/../../../../arm-none-eabi/lib/armv7e-m\libg.a(lib_a-strtod.o)
 *fill*         0x08020b08        0x8 
 .rodata.fpinan.5307
                0x08020b10       0x14 c:/program files (x86)/gnu tools arm embedded/4.9 2015q2/bin/../lib/gcc/arm-none-eabi/4.9.3/../../../../arm-none-eabi/lib/armv7e-m\libg.a(lib_a-strtod.o)
 *fill*         0x08020b24        0xc 
 .rodata.str1.4
                0x08020b30        0xf c:/program files (x86)/gnu tools arm embedded/4.9 2015q2/bin/../lib/gcc/arm-none-eabi/4.9.3/../../../../arm-none-eabi/lib/armv7e-m\libg.a(lib_a-strtod.o)
 *fill*         0x08020b3f        0x1 
 .rodata.fpi.5271
                0x08020b40       0x14 c:/program files (x86)/gnu tools arm embedded/4.9 2015q2/bin/../lib/gcc/arm-none-eabi/4.9.3/../../../../arm-none-eabi/lib/armv7e-m\libg.a(lib_a-strtod.o)
 *fill*         0x08020b54        0xc 
 .rodata.blanks.6854
                0x08020b60       0x10 c:/program files (x86)/gnu tools arm embedded/4.9 2015q2/bin/../lib/gcc/arm-none-eabi/4.9.3/../../../../arm-none-eabi/lib/armv7e-m\libg.a(lib_a-svfiprintf.o)
 .rodata.str1.4
                0x08020b70       0x25 c:/program files (x86)/gnu tools arm embedded/4.9 2015q2/bin/../lib/gcc/arm-none-eabi/4.9.3/../../../../arm-none-eabi/lib/armv7e-m\libg.a(lib_a-svfiprintf.o)
                                 0x2f (size before relaxing)
 *fill*         0x08020b95        0xb 
 .rodata.zeroes.6855
                0x08020ba0       0x10 c:/program files (x86)/gnu tools arm embedded/4.9 2015q2/bin/../lib/gcc/arm-none-eabi/4.9.3/../../../../arm-none-eabi/lib/armv7e-m\libg.a(lib_a-svfiprintf.o)
 .rodata.str1.4
                0x08020bb0       0x53 c:/program files (x86)/gnu tools arm embedded/4.9 2015q2/bin/../lib/gcc/arm-none-eabi/4.9.3/../../../../arm-none-eabi/lib/armv7e-m\libg.a(lib_a-tzset_r.o)
 .rodata.str1.4
                0x00000000        0x4 c:/program files (x86)/gnu tools arm embedded/4.9 2015q2/bin/../lib/gcc/arm-none-eabi/4.9.3/../../../../arm-none-eabi/lib/armv7e-m\libg.a(lib_a-tzvars.o)
 *fill*         0x08020c03        0xd 
 .rodata._ctype_
                0x08020c10      0x101 c:/program files (x86)/gnu tools arm embedded/4.9 2015q2/bin/../lib/gcc/arm-none-eabi/4.9.3/../../../../arm-none-eabi/lib/armv7e-m\libg.a(lib_a-ctype_.o)
                0x08020c10                _ctype_
 *fill*         0x08020d11        0xf 
 .rodata.__hexdig
                0x08020d20      0x100 c:/program files (x86)/gnu tools arm embedded/4.9 2015q2/bin/../lib/gcc/arm-none-eabi/4.9.3/../../../../arm-none-eabi/lib/armv7e-m\libg.a(lib_a-gdtoa-gethex.o)
                0x08020d20                __hexdig
 .rodata.str1.4
                0x08020e20        0x8 c:/program files (x86)/gnu tools arm embedded/4.9 2015q2/bin/../lib/gcc/arm-none-eabi/4.9.3/../../../../arm-none-eabi/lib/armv7e-m\libg.a(lib_a-locale.o)
                                 0x12 (size before relaxing)
 *fill*         0x08020e28        0x8 
 .rodata.__mprec_tens
                0x08020e30       0xc8 c:/program files (x86)/gnu tools arm embedded/4.9 2015q2/bin/../lib/gcc/arm-none-eabi/4.9.3/../../../../arm-none-eabi/lib/armv7e-m\libg.a(lib_a-mprec.o)
                0x08020e30                __mprec_tens
 *fill*         0x08020ef8        0x8 
 .rodata.p05.5302
                0x08020f00        0xc c:/program files (x86)/gnu tools arm embedded/4.9 2015q2/bin/../lib/gcc/arm-none-eabi/4.9.3/../../../../arm-none-eabi/lib/armv7e-m\libg.a(lib_a-mprec.o)
 *fill*         0x08020f0c        0x4 
 .rodata.__mprec_bigtens
                0x08020f10       0x28 c:/program files (x86)/gnu tools arm embedded/4.9 2015q2/bin/../lib/gcc/arm-none-eabi/4.9.3/../../../../arm-none-eabi/lib/armv7e-m\libg.a(lib_a-mprec.o)
                0x08020f10                __mprec_bigtens
 *fill*         0x08020f38        0x8 
 .rodata.basefix.6311
                0x08020f40       0x22 c:/program files (x86)/gnu tools arm embedded/4.9 2015q2/bin/../lib/gcc/arm-none-eabi/4.9.3/../../../../arm-none-eabi/lib/armv7e-m\libg.a(lib_a-svfiscanf.o)
 .rodata.str1.4
                0x00000000        0x1 c:/program files (x86)/gnu tools arm embedded/4.9 2015q2/bin/../lib/gcc/arm-none-eabi/4.9.3/../../../../arm-none-eabi/lib/armv7e-m\libg.a(lib_a-mbrtowc.o)
 *(.glue_7t)
 .glue_7t       0x00000000        0x0 linker stubs
 *(.glue_7)
 .glue_7        0x00000000        0x0 linker stubs
 *(.gcc*)

.vfp11_veneer   0x08020f64        0x0
 .vfp11_veneer  0x00000000        0x0 linker stubs

.v4_bx          0x08020f64        0x0
 .v4_bx         0x00000000        0x0 linker stubs

.iplt           0x08020f64        0x0
 .iplt          0x00000000        0x0 ../../build/obj/crt0.o

.ARM.extab
 *(.ARM.extab* .gnu.linkonce.armextab.*)

.ARM.exidx      0x08020f64        0x8
                0x08020f64                PROVIDE (__exidx_start, .)
 *(.ARM.exidx* .gnu.linkonce.armexidx.*)
 .ARM.exidx     0x08020f64        0x8 c:/program files (x86)/gnu tools arm embedded/4.9 2015q2/bin/../lib/gcc/arm-none-eabi/4.9.3/armv7e-m\libgcc.a(_divdi3.o)
 .ARM.exidx     0x08020f6c        0x0 c:/program files (x86)/gnu tools arm embedded/4.9 2015q2/bin/../lib/gcc/arm-none-eabi/4.9.3/armv7e-m\libgcc.a(_udivdi3.o)
                                  0x8 (size before relaxing)
                0x08020f6c                PROVIDE (__exidx_end, .)

.rel.dyn        0x08020f6c        0x0
 .rel.iplt      0x00000000        0x0 ../../build/obj/crt0.o

.eh_frame_hdr
 *(.eh_frame_hdr)

.eh_frame
 *(.eh_frame)

.textalign      0x08020f6c        0x4
                0x08020f70                . = ALIGN (0x8)
 *fill*         0x08020f6c        0x4 
                0x08020f70                . = ALIGN (0x4)
                0x08020f70                _etext = .
                0x08020f70                _textdata = _etext

.stacks         0x20000000      0x800
                0x20000000                . = ALIGN (0x8)
                0x20000000                __main_stack_base__ = .
                0x20000400                . = (. + __main_stack_size__)
 *fill*         0x20000000      0x400 
                0x20000400                . = ALIGN (0x8)
                0x20000400                __main_stack_end__ = .
                0x20000400                __process_stack_base__ = .
                0x20000400                __main_thread_stack_base__ = .
                0x20000800                . = (. + __process_stack_size__)
 *fill*         0x20000400      0x400 
                0x20000800                . = ALIGN (0x8)
                0x20000800                __process_stack_end__ = .
                0x20000800                __main_thread_stack_end__ = .

.data           0x20000800     0x1ccc load address 0x08020f70
                0x20000800                . = ALIGN (0x4)
                0x20000800                PROVIDE (_data, .)
 *(.data)
 *(.data.*)
 .data.sem1     0x20000800        0xc ../../build/obj/testsem.o
 .data.m1       0x2000080c       0x10 ../../build/obj/testmtx.o
 .data.m2       0x2000081c       0x10 ../../build/obj/testmtx.o
 .data.c1       0x2000082c        0x8 ../../build/obj/testmtx.o
 .data.mb1      0x20000834       0x28 ../../build/obj/testmbox.o
 .data.es1      0x2000085c        0x4 ../../build/obj/testevt.o
 .data.es2      0x20000860        0x4 ../../build/obj/testevt.o
 .data.mp1      0x20000864        0xc ../../build/obj/testpools.o
 .data.oq       0x20000870       0x24 ../../build/obj/testqueues.o
 .data.iq       0x20000894       0x24 ../../build/obj/testqueues.o
 .data.local_commands
                0x200008b8       0x18 ../../build/obj/shell2.o
 .data.ser_cfg  0x200008d0        0xc ../../build/obj/console.o
 .data.eepromitems
                0x200008dc       0x42 ../../build/obj/eeprom.o
 *fill*         0x2000091e        0x2 
 .data.fastLogFileName
                0x20000920       0x1d ../../build/obj/log.o
                0x20000920                fastLogFileName
 *fill*         0x2000093d        0x3 
 .data.logFileName
                0x20000940       0x18 ../../build/obj/log.o
                0x20000940                logFileName
 .data.logitems
                0x20000958     0x1150 ../../build/obj/log.o
 .data.pwmcfg   0x20001aa8       0x34 ../../build/obj/light.o
 .data.icucfg   0x20001adc       0x1c ../../build/obj/speed.o
 .data.K_D      0x20001af8        0x2 ../../build/obj/cruise.o
 .data.K_P      0x20001afa        0x2 ../../build/obj/cruise.o
 .data.K_I      0x20001afc        0x2 ../../build/obj/cruise.o
 .data.current_limit_status
                0x20001afe        0x1 ../../build/obj/cruise.o
 *fill*         0x20001aff        0x1 
 .data.cruise_pwmcfg
                0x20001b00       0x34 ../../build/obj/cruise.o
 .data.db       0x20001b34        0x4 ../../build/obj/dsp.o
                0x20001b34                db
 .data.dspValue
                0x20001b38       0x8c ../../build/obj/dsp.o
 .data.diag_ser_SD2_cfg
                0x20001bc4        0xc ../../build/obj/uart_comm.o
 .data.nmea_ser_SD3_cfg
                0x20001bd0        0xc ../../build/obj/nmea.o
 *fill*         0x20001bdc        0x4 
 .data.impure_data
                0x20001be0      0x428 c:/program files (x86)/gnu tools arm embedded/4.9 2015q2/bin/../lib/gcc/arm-none-eabi/4.9.3/../../../../arm-none-eabi/lib/armv7e-m\libg.a(lib_a-impure.o)
 .data._impure_ptr
                0x20002008        0x4 c:/program files (x86)/gnu tools arm embedded/4.9 2015q2/bin/../lib/gcc/arm-none-eabi/4.9.3/../../../../arm-none-eabi/lib/armv7e-m\libg.a(lib_a-impure.o)
                0x20002008                _impure_ptr
 .data._tzname  0x2000200c        0x8 c:/program files (x86)/gnu tools arm embedded/4.9 2015q2/bin/../lib/gcc/arm-none-eabi/4.9.3/../../../../arm-none-eabi/lib/armv7e-m\libg.a(lib_a-tzvars.o)
                0x2000200c                _tzname
 .data.__ctype_ptr__
                0x20002014        0x4 c:/program files (x86)/gnu tools arm embedded/4.9 2015q2/bin/../lib/gcc/arm-none-eabi/4.9.3/../../../../arm-none-eabi/lib/armv7e-m\libg.a(lib_a-ctype_.o)
                0x20002014                __ctype_ptr__
 .data.tzinfo   0x20002018       0x40 c:/program files (x86)/gnu tools arm embedded/4.9 2015q2/bin/../lib/gcc/arm-none-eabi/4.9.3/../../../../arm-none-eabi/lib/armv7e-m\libg.a(lib_a-gettzinfo.o)
 .data.lconv    0x20002058       0x38 c:/program files (x86)/gnu tools arm embedded/4.9 2015q2/bin/../lib/gcc/arm-none-eabi/4.9.3/../../../../arm-none-eabi/lib/armv7e-m\libg.a(lib_a-locale.o)
 .data.lc_ctype_charset
                0x20002090       0x20 c:/program files (x86)/gnu tools arm embedded/4.9 2015q2/bin/../lib/gcc/arm-none-eabi/4.9.3/../../../../arm-none-eabi/lib/armv7e-m\libg.a(lib_a-locale.o)
 .data.__mb_cur_max
                0x200020b0        0x4 c:/program files (x86)/gnu tools arm embedded/4.9 2015q2/bin/../lib/gcc/arm-none-eabi/4.9.3/../../../../arm-none-eabi/lib/armv7e-m\libg.a(lib_a-locale.o)
                0x200020b0                __mb_cur_max
 .data.__malloc_av_
                0x200020b4      0x408 c:/program files (x86)/gnu tools arm embedded/4.9 2015q2/bin/../lib/gcc/arm-none-eabi/4.9.3/../../../../arm-none-eabi/lib/armv7e-m\libg.a(lib_a-mallocr.o)
                0x200020b4                __malloc_av_
 .data.__malloc_trim_threshold
                0x200024bc        0x4 c:/program files (x86)/gnu tools arm embedded/4.9 2015q2/bin/../lib/gcc/arm-none-eabi/4.9.3/../../../../arm-none-eabi/lib/armv7e-m\libg.a(lib_a-mallocr.o)
                0x200024bc                __malloc_trim_threshold
 .data.__malloc_sbrk_base
                0x200024c0        0x4 c:/program files (x86)/gnu tools arm embedded/4.9 2015q2/bin/../lib/gcc/arm-none-eabi/4.9.3/../../../../arm-none-eabi/lib/armv7e-m\libg.a(lib_a-mallocr.o)
                0x200024c0                __malloc_sbrk_base
 .data.environ  0x200024c4        0x4 c:/program files (x86)/gnu tools arm embedded/4.9 2015q2/bin/../lib/gcc/arm-none-eabi/4.9.3/../../../../arm-none-eabi/lib/armv7e-m\libg.a(lib_a-environ.o)
                0x200024c4                environ
 .data.__mbtowc
                0x200024c8        0x4 c:/program files (x86)/gnu tools arm embedded/4.9 2015q2/bin/../lib/gcc/arm-none-eabi/4.9.3/../../../../arm-none-eabi/lib/armv7e-m\libg.a(lib_a-mbtowc_r.o)
                0x200024c8                __mbtowc
 *(.ramtext)
                0x200024cc                . = ALIGN (0x4)
                0x200024cc                PROVIDE (_edata, .)

.igot.plt       0x200024cc        0x0 load address 0x08022c3c
 .igot.plt      0x00000000        0x0 ../../build/obj/crt0.o

.bss            0x200024cc     0x6364
                0x200024cc                . = ALIGN (0x4)
                0x200024cc                PROVIDE (_bss_start, .)
 *(.bss)
 *(.bss.*)
 .bss.mainthread.4812
                0x200024cc       0x48 ../../build/obj/chsys.o
 *fill*         0x20002514        0x4 
 .bss._idle_thread_wa
                0x20002518       0xe0 ../../build/obj/chsys.o
                0x20002518                _idle_thread_wa
 .bss.vtlist    0x200025f8       0x10 ../../build/obj/chvt.o
                0x200025f8                vtlist
 .bss.rlist     0x20002608       0x1c ../../build/obj/chschd.o
                0x20002608                rlist
 .bss.endmem    0x20002624        0x4 ../../build/obj/chmemcore.o
 .bss.nextmem   0x20002628        0x4 ../../build/obj/chmemcore.o
 *fill*         0x2000262c        0x4 
 .bss.default_heap
                0x20002630       0x20 ../../build/obj/chheap.o
 .bss.test      0x20002650      0x690 ../../build/obj/test.o
                0x20002650                test
 .bss.failpoint
                0x20002ce0        0x4 ../../build/obj/test.o
 .bss.local_fail
                0x20002ce4        0x1 ../../build/obj/test.o
 .bss.test_timer_done
                0x20002ce5        0x1 ../../build/obj/test.o
                0x20002ce5                test_timer_done
 *fill*         0x20002ce6        0x2 
 .bss.tokp      0x20002ce8        0x4 ../../build/obj/test.o
 .bss.global_fail
                0x20002cec        0x1 ../../build/obj/test.o
 *fill*         0x20002ced        0x3 
 .bss.vt        0x20002cf0       0x14 ../../build/obj/test.o
 .bss.threads   0x20002d04       0x14 ../../build/obj/test.o
                0x20002d04                threads
 .bss.chp       0x20002d18        0x4 ../../build/obj/test.o
 .bss.tokens_buffer
                0x20002d1c       0x10 ../../build/obj/test.o
 *fill*         0x20002d2c        0x4 
 .bss.test_heap
                0x20002d30       0x20 ../../build/obj/testheap.o
 .bss.mp1       0x20002d50        0xc ../../build/obj/testdyn.o
 *fill*         0x20002d5c        0x4 
 .bss.heap1     0x20002d60       0x20 ../../build/obj/testdyn.o
 .bss.vt2.4973  0x20002d80       0x14 ../../build/obj/testbmk.o
 .bss.ib.4959   0x20002d94       0x10 ../../build/obj/testbmk.o
 .bss.iq.4960   0x20002da4       0x24 ../../build/obj/testbmk.o
 .bss.vt1.4972  0x20002dc8       0x14 ../../build/obj/testbmk.o
 .bss.sem1      0x20002ddc        0xc ../../build/obj/testbmk.o
 .bss.mtx1      0x20002de8       0x10 ../../build/obj/testbmk.o
 .bss.measurement_offset
                0x20002df8        0x4 ../../build/obj/tm.o
 .bss.dma_isr_redir
                0x20002dfc       0x80 ../../build/obj/stm32_dma.o
 .bss.dma_streams_mask
                0x20002e7c        0x4 ../../build/obj/stm32_dma.o
 .bss.ADCD2     0x20002e80       0x34 ../../build/obj/adc_lld.o
                0x20002e80                ADCD2
 .bss.ADCD3     0x20002eb4       0x34 ../../build/obj/adc_lld.o
                0x20002eb4                ADCD3
 .bss.CAND1     0x20002ee8       0x38 ../../build/obj/can_lld.o
                0x20002ee8                CAND1
 .bss.SDCD1     0x20002f20       0x48 ../../build/obj/sdc_lld.o
                0x20002f20                SDCD1
 .bss.u         0x20002f68      0x200 ../../build/obj/sdc_lld.o
 .bss.I2CD1     0x20003168       0x38 ../../build/obj/i2c_lld.o
                0x20003168                I2CD1
 .bss.USBD1     0x200031a0      0x1b8 ../../build/obj/usb_lld.o
                0x200031a0                USBD1
 .bss.ep0_state
                0x20003358       0x14 ../../build/obj/usb_lld.o
 .bss.ep0setup_buffer
                0x2000336c        0x8 ../../build/obj/usb_lld.o
 .bss.RTCD1     0x20003374        0x4 ../../build/obj/rtc_lld.o
                0x20003374                RTCD1
 .bss.dummytx   0x20003378        0x2 ../../build/obj/spi_lld.o
 *fill*         0x2000337a        0x2 
 .bss.SPID2     0x2000337c       0x30 ../../build/obj/spi_lld.o
                0x2000337c                SPID2
 .bss.GPTD2     0x200033ac       0x10 ../../build/obj/gpt_lld.o
                0x200033ac                GPTD2
 .bss.ICUD1     0x200033bc       0x18 ../../build/obj/icu_lld.o
                0x200033bc                ICUD1
 .bss.PWMD4     0x200033d4       0x14 ../../build/obj/pwm_lld.o
                0x200033d4                PWMD4
 .bss.PWMD5     0x200033e8       0x14 ../../build/obj/pwm_lld.o
                0x200033e8                PWMD5
 .bss.SD1       0x200033fc       0x78 ../../build/obj/serial_lld.o
                0x200033fc                SD1
 .bss.SD2       0x20003474       0x78 ../../build/obj/serial_lld.o
                0x20003474                SD2
 .bss.SD3       0x200034ec       0x78 ../../build/obj/serial_lld.o
                0x200034ec                SD3
 .bss.Fsid      0x20003564        0x2 ../../build/obj/ff.o
 *fill*         0x20003566        0x2 
 .bss.FatFs     0x20003568        0x4 ../../build/obj/ff.o
 .bss.shell_terminated
                0x2000356c        0x4 ../../build/obj/shell2.o
                0x2000356c                shell_terminated
 .bss.waThread1
                0x20003570      0x150 ../../build/obj/main.o
 .bss.watask20ms
                0x200036c0      0x2d0 ../../build/obj/main.o
 .bss.unix_time
                0x20003990        0x4 ../../build/obj/console.o
 .bss.consoleThread
                0x20003994        0x4 ../../build/obj/console.o
                0x20003994                consoleThread
 .bss.alarmspec
                0x20003998        0x4 ../../build/obj/console.o
 .bss.sdcard_fbuff
                0x2000399c      0x400 ../../build/obj/sdcard.o
                0x2000399c                sdcard_fbuff
 .bss.sdcard_fs_ready
                0x20003d9c        0x1 ../../build/obj/sdcard.o
 *fill*         0x20003d9d        0x3 
 .bss.lfn.9150  0x20003da0      0x100 ../../build/obj/sdcard.o
 .bss.sdcard_filesystem
                0x20003ea0      0x230 ../../build/obj/sdcard.o
 .bss.inbuf     0x200040d0     0x1001 ../../build/obj/sdcard.o
 *fill*         0x200050d1        0x3 
 .bss.outbuf    0x200050d4     0x1001 ../../build/obj/sdcard.o
 .bss.fastLog   0x200060d5        0x1 ../../build/obj/log.o
                0x200060d5                fastLog
 *fill*         0x200060d6        0x2 
 .bss.logPeriod
                0x200060d8        0x4 ../../build/obj/log.o
 .bss.bmsitems  0x200060dc       0x2c ../../build/obj/log.o
                0x200060dc                bmsitems
 .bss.lcitems   0x20006108      0x220 ../../build/obj/log.o
                0x20006108                lcitems
 .bss.logState  0x20006328        0x1 ../../build/obj/log.o
                0x20006328                logState
 *fill*         0x20006329        0x3 
 .bss.IOTCitems
                0x2000632c       0x10 ../../build/obj/log.o
                0x2000632c                IOTCitems
 .bss.mlitems   0x2000633c       0x10 ../../build/obj/log.o
                0x2000633c                mlitems
 .bss.size      0x2000634c        0x2 ../../build/obj/log.o
 .bss.logStopRequest
                0x2000634e        0x1 ../../build/obj/log.o
                0x2000634e                logStopRequest
 *fill*         0x2000634f        0x1 
 .bss.logStartTime
                0x20006350        0x4 ../../build/obj/log.o
                0x20006350                logStartTime
 .bss.logStartRequest
                0x20006354        0x1 ../../build/obj/log.o
                0x20006354                logStartRequest
 *fill*         0x20006355        0x3 
 .bss.szam      0x20006358        0x4 ../../build/obj/log.o
 .bss.logFileObject
                0x2000635c      0x224 ../../build/obj/log.o
                0x2000635c                logFileObject
 .bss.waLog.10162
                0x20006580      0x8d0 ../../build/obj/log.o
 .bss.cellitems
                0x20006e50      0x154 ../../build/obj/log.o
                0x20006e50                cellitems
 *fill*         0x20006fa4        0x4 
 .bss.can_tx_wa
                0x20006fa8      0x1d0 ../../build/obj/can_comm.o
 .bss.rx_id     0x20007178        0x2 ../../build/obj/can_comm.o
 *fill*         0x2000717a        0x2 
 .bss.txmsg     0x2000717c       0x10 ../../build/obj/can_comm.o
 *fill*         0x2000718c        0x4 
 .bss.can_rx_wa
                0x20007190      0x1d0 ../../build/obj/can_comm.o
 .bss.message_status
                0x20007360        0x4 ../../build/obj/can_comm.o
 .bss.sender    0x20007364        0x1 ../../build/obj/can_comm.o
 .bss.canstate  0x20007365        0x1 ../../build/obj/can_comm.o
                0x20007365                canstate
 .bss.can_newdata
                0x20007366        0x1 ../../build/obj/can_comm.o
 *fill*         0x20007367        0x1 
 .bss.messages  0x20007368        0x2 ../../build/obj/can_comm.o
 *fill*         0x2000736a        0x2 
 .bss.rxmsg     0x2000736c       0x14 ../../build/obj/can_comm.o
 .bss.can_transmit
                0x20007380        0x1 ../../build/obj/can_comm.o
 *fill*         0x20007381        0x1 
 .bss.demo_time
                0x20007382        0x2 ../../build/obj/light.o
 .bss.lightchanels
                0x20007384        0x8 ../../build/obj/light.o
 .bss.period    0x2000738c        0x4 ../../build/obj/light.o
 .bss.flashing  0x20007390        0x1 ../../build/obj/light.o
 .bss.left_active
                0x20007391        0x1 ../../build/obj/light.o
 .bss.demo_period
                0x20007392        0x2 ../../build/obj/light.o
 .bss.right_active
                0x20007394        0x1 ../../build/obj/light.o
 *fill*         0x20007395        0x3 
 .bss.kmeter_counter
                0x20007398        0x4 ../../build/obj/speed.o
 *fill*         0x2000739c        0x4 
 .bss.meter_counter
                0x200073a0        0x8 ../../build/obj/speed.o
 .bss.speed_last_period
                0x200073a8        0x4 ../../build/obj/speed.o
 .bss.total_kmeter_counter
                0x200073ac        0x4 ../../build/obj/speed.o
 .bss.rpmasis   0x200073b0        0x8 ../../build/obj/speed.o
 .bss.total_meter
                0x200073b8        0x8 ../../build/obj/speed.o
 .bss.wasave_kmeter_eeprom
                0x200073c0      0x2d0 ../../build/obj/speed.o
 .bss.rpm_index
                0x20007690        0x2 ../../build/obj/speed.o
 .bss.tick_counter
                0x20007692        0x1 ../../build/obj/speed.o
 *fill*         0x20007693        0x5 
 .bss.rpm_buff  0x20007698      0x180 ../../build/obj/speed.o
 .bss.speed     0x20007818        0x8 ../../build/obj/speed.o
 .bss.old_rotation
                0x20007820        0x8 ../../build/obj/speed.o
 .bss.speed_period_num
                0x20007828        0x4 ../../build/obj/speed.o
 *fill*         0x2000782c        0x4 
 .bss.rotation  0x20007830        0x8 ../../build/obj/speed.o
 .bss.speed_zero_period
                0x20007838        0x4 ../../build/obj/speed.o
 .bss.set_max_str_angle
                0x2000783c        0x1 ../../build/obj/meas.o
 *fill*         0x2000783d        0x1 
 .bss.min_regen_brake
                0x2000783e        0x2 ../../build/obj/meas.o
 .bss.valtozo   0x20007840        0x4 ../../build/obj/meas.o
 .bss.str_angle
                0x20007844        0x2 ../../build/obj/meas.o
 .bss.throttle  0x20007846        0x2 ../../build/obj/meas.o
 .bss.measstate
                0x20007848        0x1 ../../build/obj/meas.o
                0x20007848                measstate
 .bss.set_min_str_angle
                0x20007849        0x1 ../../build/obj/meas.o
 .bss.min_str_angle
                0x2000784a        0x2 ../../build/obj/meas.o
 .bss.set_max_throttle
                0x2000784c        0x1 ../../build/obj/meas.o
 *fill*         0x2000784d        0x1 
 .bss.max_regen_brake
                0x2000784e        0x2 ../../build/obj/meas.o
 .bss.max_throttle
                0x20007850        0x2 ../../build/obj/meas.o
 *fill*         0x20007852        0x2 
 .bss.curr_avg  0x20007854        0x4 ../../build/obj/meas.o
 .bss.measValue_2
                0x20007858       0x14 ../../build/obj/meas.o
 .bss.set_min_regen
                0x2000786c        0x1 ../../build/obj/meas.o
 .bss.set_min_throttle
                0x2000786d        0x1 ../../build/obj/meas.o
 .bss.min_throttle
                0x2000786e        0x2 ../../build/obj/meas.o
 .bss.set_max_regen
                0x20007870        0x1 ../../build/obj/meas.o
 *fill*         0x20007871        0x3 
 .bss.samples   0x20007874       0xe0 ../../build/obj/meas.o
 .bss.regen_brake
                0x20007954        0x2 ../../build/obj/meas.o
 *fill*         0x20007956        0x2 
 .bss.measValue
                0x20007958       0x24 ../../build/obj/meas.o
 .bss.samples_2
                0x2000797c       0x60 ../../build/obj/meas.o
 .bss.max_str_angle
                0x200079dc        0x2 ../../build/obj/meas.o
 .bss.old_set   0x200079de        0x2 ../../build/obj/cruise.o
 .bss.regen_on  0x200079e0        0x1 ../../build/obj/cruise.o
 *fill*         0x200079e1        0x7 
 .bss.eelozo    0x200079e8        0x8 ../../build/obj/cruise.o
 .bss.cruise_on
                0x200079f0        0x2 ../../build/obj/cruise.o
 *fill*         0x200079f2        0x2 
 .bss.brake_pwm
                0x200079f4        0x4 ../../build/obj/cruise.o
 .bss.pwm       0x200079f8        0x4 ../../build/obj/cruise.o
 .bss.eeprom_write_period
                0x200079fc        0x4 ../../build/obj/cruise.o
 .bss.cruise_indicator_index
                0x20007a00        0x4 ../../build/obj/cruise.o
 .bss.set       0x20007a04        0x2 ../../build/obj/cruise.o
 .bss.button_long_decelerat
                0x20007a06        0x1 ../../build/obj/cruise.o
 *fill*         0x20007a07        0x1 
 .bss.d_tag     0x20007a08        0x8 ../../build/obj/cruise.o
 .bss.p_tag     0x20007a10        0x8 ../../build/obj/cruise.o
 .bss.result    0x20007a18        0x4 ../../build/obj/cruise.o
 .bss.cruise_indicator
                0x20007a1c        0x1 ../../build/obj/cruise.o
 *fill*         0x20007a1d        0x1 
 .bss.cruise_disable_period
                0x20007a1e        0x2 ../../build/obj/cruise.o
 .bss.substract
                0x20007a20        0x2 ../../build/obj/cruise.o
 .bss.button_long_accel
                0x20007a22        0x1 ../../build/obj/cruise.o
 *fill*         0x20007a23        0x5 
 .bss.i_tag     0x20007a28        0x8 ../../build/obj/cruise.o
 .bss.e_tag     0x20007a30        0x8 ../../build/obj/cruise.o
 .bss.eeprom_write
                0x20007a38        0x1 ../../build/obj/cruise.o
 *fill*         0x20007a39        0x3 
 .bss.accel_limit
                0x20007a3c        0x4 ../../build/obj/cruise.o
 .bss.save_pwm  0x20007a40        0x4 ../../build/obj/cruise.o
 .bss.bus_num   0x20007a44        0x4 ../../build/obj/dsp.o
 .bss.danger    0x20007a48        0x2 ../../build/obj/dsp.o
 .bss.valasz    0x20007a4a        0x1 ../../build/obj/dsp.o
 *fill*         0x20007a4b        0x1 
 .bss.over_charge
                0x20007a4c        0x2 ../../build/obj/dsp.o
 .bss.discharge
                0x20007a4e        0x2 ../../build/obj/dsp.o
 .bss.tasknumber
                0x20007a50        0x4 ../../build/obj/dsp.o
 .bss.bus_status
                0x20007a54        0x1 ../../build/obj/dsp.o
 .bss.dsp_activ
                0x20007a55        0x1 ../../build/obj/dsp.o
                0x20007a55                dsp_activ
 .bss.motor_temp
                0x20007a56        0x2 ../../build/obj/dsp.o
 .bss.wadspTask
                0x20007a58      0x4d0 ../../build/obj/dsp.o
 .bss.dspmessages
                0x20007f28        0x1 ../../build/obj/dsp.o
                0x20007f28                dspmessages
 .bss.dspstate  0x20007f29        0x1 ../../build/obj/dsp.o
                0x20007f29                dspstate
 .bss.dspAns    0x20007f2a        0x1 ../../build/obj/gfx.o
 *fill*         0x20007f2b        0x1 
 .bss.cruise_long_plusz
                0x20007f2c        0x2 ../../build/obj/button.o
 *fill*         0x20007f2e        0x2 
 .bss.bus_bit   0x20007f30        0x8 ../../build/obj/button.o
 .bss.index_left
                0x20007f38        0x1 ../../build/obj/button.o
 .bss.button_decelerat
                0x20007f39        0x1 ../../build/obj/button.o
 .bss.lamp_long_lamp
                0x20007f3a        0x1 ../../build/obj/button.o
 .bss.rear_camera_en
                0x20007f3b        0x1 ../../build/obj/button.o
 .bss.warning   0x20007f3c        0x1 ../../build/obj/button.o
 .bss.long_lamp
                0x20007f3d        0x1 ../../build/obj/button.o
 .bss.lamp_ok   0x20007f3e        0x1 ../../build/obj/button.o
 .bss.button_accel
                0x20007f3f        0x1 ../../build/obj/button.o
 .bss.bus       0x20007f40        0x2 ../../build/obj/button.o
 .bss.warning_active
                0x20007f42        0x1 ../../build/obj/button.o
 .bss.rear_camera_ok
                0x20007f43        0x1 ../../build/obj/button.o
 .bss.lamp_long_show
                0x20007f44        0x1 ../../build/obj/button.o
 .bss.cruise_minusz
                0x20007f45        0x1 ../../build/obj/button.o
 .bss.cruise_long_minusz
                0x20007f46        0x2 ../../build/obj/button.o
 .bss.cruise_ok
                0x20007f48        0x1 ../../build/obj/button.o
 .bss.cruise_plusz
                0x20007f49        0x1 ../../build/obj/button.o
 .bss.index_right
                0x20007f4a        0x1 ../../build/obj/button.o
 .bss.index_right_active
                0x20007f4b        0x1 ../../build/obj/button.o
 .bss.index_left_active
                0x20007f4c        0x1 ../../build/obj/button.o
 *fill*         0x20007f4d        0x3 
 .bss.brake     0x20007f50        0x4 ../../build/obj/brake.o
 .bss.fan       0x20007f54        0x1 ../../build/obj/safety.o
 *fill*         0x20007f55        0x3 
 .bss.relay     0x20007f58       0x10 ../../build/obj/safety.o
 .bss.fan_percent
                0x20007f68        0x4 ../../build/obj/safety.o
 *fill*         0x20007f6c        0x4 
 .bss.safety_wa
                0x20007f70      0x1d0 ../../build/obj/safety.o
 .bss.fan_start
                0x20008140        0x1 ../../build/obj/safety.o
 .bss.fan_start_period
                0x20008141        0x1 ../../build/obj/safety.o
 .bss.fanstate  0x20008142        0x1 ../../build/obj/safety.o
                0x20008142                fanstate
 .bss.avg_speed_enable
                0x20008143        0x1 ../../build/obj/calc.o
 .bss.calcValue
                0x20008144       0x14 ../../build/obj/calc.o
 .bss.calc      0x20008158        0x4 ../../build/obj/calc.o
 *fill*         0x2000815c        0x4 
 .bss.avg_speed
                0x20008160        0x8 ../../build/obj/calc.o
 .bss.calcstate
                0x20008168        0x1 ../../build/obj/calc.o
                0x20008168                calcstate
 *fill*         0x20008169        0x3 
 .bss.time_values
                0x2000816c        0x4 ../../build/obj/calc.o
 .bss.avg_speed_period
                0x20008170        0x4 ../../build/obj/calc.o
 .bss.time_unix
                0x20008174        0x4 ../../build/obj/calc.o
 .bss.nmeaGpggaCount
                0x20008178        0x4 ../../build/obj/nmea.o
 .bss.nmeaSentence
                0x2000817c       0x56 ../../build/obj/nmea.o
 *fill*         0x200081d2        0x6 
 .bss.nmeaCurPos
                0x200081d8       0x48 ../../build/obj/nmea.o
 .bss.waNmea.8702
                0x20008220      0x5a0 ../../build/obj/nmea.o
 .bss.latitude_direction
                0x200087c0        0x1 ../../build/obj/nmea.o
 .bss.nmeaState
                0x200087c1        0x1 ../../build/obj/nmea.o
 .bss.longitude_direction
                0x200087c2        0x1 ../../build/obj/nmea.o
 *fill*         0x200087c3        0x1 
 .bss.nmea_mutex
                0x200087c4       0x10 ../../build/obj/nmea.o
 .bss.__tzname_dst
                0x200087d4        0xb c:/program files (x86)/gnu tools arm embedded/4.9 2015q2/bin/../lib/gcc/arm-none-eabi/4.9.3/../../../../arm-none-eabi/lib/armv7e-m\libg.a(lib_a-tzset_r.o)
 *fill*         0x200087df        0x1 
 .bss.__tzname_std
                0x200087e0        0xb c:/program files (x86)/gnu tools arm embedded/4.9 2015q2/bin/../lib/gcc/arm-none-eabi/4.9.3/../../../../arm-none-eabi/lib/armv7e-m\libg.a(lib_a-tzset_r.o)
 *fill*         0x200087eb        0x1 
 .bss.prev_tzenv
                0x200087ec        0x4 c:/program files (x86)/gnu tools arm embedded/4.9 2015q2/bin/../lib/gcc/arm-none-eabi/4.9.3/../../../../arm-none-eabi/lib/armv7e-m\libg.a(lib_a-tzset_r.o)
 .bss._daylight
                0x200087f0        0x4 c:/program files (x86)/gnu tools arm embedded/4.9 2015q2/bin/../lib/gcc/arm-none-eabi/4.9.3/../../../../arm-none-eabi/lib/armv7e-m\libg.a(lib_a-tzvars.o)
                0x200087f0                _daylight
 .bss._timezone
                0x200087f4        0x4 c:/program files (x86)/gnu tools arm embedded/4.9 2015q2/bin/../lib/gcc/arm-none-eabi/4.9.3/../../../../arm-none-eabi/lib/armv7e-m\libg.a(lib_a-tzvars.o)
                0x200087f4                _timezone
 .bss.__malloc_max_total_mem
                0x200087f8        0x4 c:/program files (x86)/gnu tools arm embedded/4.9 2015q2/bin/../lib/gcc/arm-none-eabi/4.9.3/../../../../arm-none-eabi/lib/armv7e-m\libg.a(lib_a-mallocr.o)
                0x200087f8                __malloc_max_total_mem
 .bss.__malloc_max_sbrked_mem
                0x200087fc        0x4 c:/program files (x86)/gnu tools arm embedded/4.9 2015q2/bin/../lib/gcc/arm-none-eabi/4.9.3/../../../../arm-none-eabi/lib/armv7e-m\libg.a(lib_a-mallocr.o)
                0x200087fc                __malloc_max_sbrked_mem
 .bss.__malloc_top_pad
                0x20008800        0x4 c:/program files (x86)/gnu tools arm embedded/4.9 2015q2/bin/../lib/gcc/arm-none-eabi/4.9.3/../../../../arm-none-eabi/lib/armv7e-m\libg.a(lib_a-mallocr.o)
                0x20008800                __malloc_top_pad
 .bss.__malloc_current_mallinfo
                0x20008804       0x28 c:/program files (x86)/gnu tools arm embedded/4.9 2015q2/bin/../lib/gcc/arm-none-eabi/4.9.3/../../../../arm-none-eabi/lib/armv7e-m\libg.a(lib_a-mallocr.o)
                0x20008804                __malloc_current_mallinfo
 .bss.initial_env
                0x2000882c        0x4 c:/program files (x86)/gnu tools arm embedded/4.9 2015q2/bin/../lib/gcc/arm-none-eabi/4.9.3/../../../../arm-none-eabi/lib/armv7e-m\libg.a(lib_a-environ.o)
 *(COMMON)
                0x20008830                . = ALIGN (0x4)
                0x20008830                PROVIDE (_bss_end, .)
                0x20008830                PROVIDE (end, .)
                0x20008830                _end = .
                0x20008830                __heap_base__ = _end
                0x2001c000                __heap_end__ = __ram_end__
START GROUP
LOAD c:/program files (x86)/gnu tools arm embedded/4.9 2015q2/bin/../lib/gcc/arm-none-eabi/4.9.3/armv7e-m\libgcc.a
LOAD c:/program files (x86)/gnu tools arm embedded/4.9 2015q2/bin/../lib/gcc/arm-none-eabi/4.9.3/../../../../arm-none-eabi/lib/armv7e-m\libg.a
LOAD c:/program files (x86)/gnu tools arm embedded/4.9 2015q2/bin/../lib/gcc/arm-none-eabi/4.9.3/../../../../arm-none-eabi/lib/armv7e-m\libc.a
END GROUP
OUTPUT(../../build/smarty.elf elf32-littlearm)

.debug_info     0x00000000    0x52a49
 .debug_info    0x00000000      0x2b3 ../../build/obj/crt0.o
 .debug_info    0x000002b3      0x1cd ../../build/obj/vectors.o
 .debug_info    0x00000480       0x92 ../../build/obj/chcore.o
 .debug_info    0x00000512      0x81a ../../build/obj/chcore_v7m.o
 .debug_info    0x00000d2c      0x406 ../../build/obj/nvic.o
 .debug_info    0x00001132      0x827 ../../build/obj/chsys.o
 .debug_info    0x00001959      0x203 ../../build/obj/chvt.o
 .debug_info    0x00001b5c      0x9e4 ../../build/obj/chschd.o
 .debug_info    0x00002540      0xbf2 ../../build/obj/chthreads.o
 .debug_info    0x00003132      0x88c ../../build/obj/chdynamic.o
 .debug_info    0x000039be      0x629 ../../build/obj/chregistry.o
 .debug_info    0x00003fe7      0xb4a ../../build/obj/chsem.o
 .debug_info    0x00004b31      0x9f4 ../../build/obj/chmtx.o
 .debug_info    0x00005525      0x977 ../../build/obj/chcond.o
 .debug_info    0x00005e9c      0xd95 ../../build/obj/chevents.o
 .debug_info    0x00006c31      0x663 ../../build/obj/chmsg.o
 .debug_info    0x00007294      0xb39 ../../build/obj/chmboxes.o
 .debug_info    0x00007dcd      0xbb3 ../../build/obj/chqueues.o
 .debug_info    0x00008980      0x21f ../../build/obj/chmemcore.o
 .debug_info    0x00008b9f      0x6fa ../../build/obj/chheap.o
 .debug_info    0x00009299      0x408 ../../build/obj/chmempools.o
 .debug_info    0x000096a1     0x12ba ../../build/obj/test.o
 .debug_info    0x0000a95b      0xc7a ../../build/obj/testthd.o
 .debug_info    0x0000b5d5     0x1059 ../../build/obj/testsem.o
 .debug_info    0x0000c62e     0x1cf0 ../../build/obj/testmtx.o
 .debug_info    0x0000e31e      0x703 ../../build/obj/testmsg.o
 .debug_info    0x0000ea21     0x1371 ../../build/obj/testmbox.o
 .debug_info    0x0000fd92     0x10c8 ../../build/obj/testevt.o
 .debug_info    0x00010e5a      0xc00 ../../build/obj/testheap.o
 .debug_info    0x00011a5a      0x433 ../../build/obj/testpools.o
 .debug_info    0x00011e8d      0xf6c ../../build/obj/testdyn.o
 .debug_info    0x00012df9     0x16fc ../../build/obj/testqueues.o
 .debug_info    0x000144f5     0x1df1 ../../build/obj/testbmk.o
 .debug_info    0x000162e6      0x456 ../../build/obj/hal.o
 .debug_info    0x0001673c      0xe01 ../../build/obj/adc.o
 .debug_info    0x0001753d     0x1037 ../../build/obj/can.o
 .debug_info    0x00018574      0x812 ../../build/obj/gpt.o
 .debug_info    0x00018d86      0xb9d ../../build/obj/i2c.o
 .debug_info    0x00019923      0x5ca ../../build/obj/icu.o
 .debug_info    0x00019eed      0x2ad ../../build/obj/mmcsd.o
 .debug_info    0x0001a19a      0x685 ../../build/obj/pwm.o
 .debug_info    0x0001a81f      0x6b9 ../../build/obj/rtc.o
 .debug_info    0x0001aed8     0x1193 ../../build/obj/sdc.o
 .debug_info    0x0001c06b      0xfbe ../../build/obj/serial.o
 .debug_info    0x0001d029     0x1de1 ../../build/obj/serial_usb.o
 .debug_info    0x0001ee0a     0x10cb ../../build/obj/spi.o
 .debug_info    0x0001fed5      0x2d9 ../../build/obj/tm.o
 .debug_info    0x000201ae     0x1f36 ../../build/obj/usb.o
 .debug_info    0x000220e4      0xa7f ../../build/obj/stm32_dma.o
 .debug_info    0x00022b63      0x491 ../../build/obj/hal_lld.o
 .debug_info    0x00022ff4     0x1194 ../../build/obj/adc_lld.o
 .debug_info    0x00024188     0x155f ../../build/obj/can_lld.o
 .debug_info    0x000256e7     0x1790 ../../build/obj/sdc_lld.o
 .debug_info    0x00026e77      0x6fc ../../build/obj/pal_lld.o
 .debug_info    0x00027573     0x16ac ../../build/obj/i2c_lld.o
 .debug_info    0x00028c1f     0x27fa ../../build/obj/usb_lld.o
 .debug_info    0x0002b419      0x64b ../../build/obj/rtc_lld.o
 .debug_info    0x0002ba64      0xdd4 ../../build/obj/spi_lld.o
 .debug_info    0x0002c838      0x700 ../../build/obj/gpt_lld.o
 .debug_info    0x0002cf38      0x80a ../../build/obj/icu_lld.o
 .debug_info    0x0002d742      0x825 ../../build/obj/pwm_lld.o
 .debug_info    0x0002df67     0x1014 ../../build/obj/serial_lld.o
 .debug_info    0x0002ef7b      0x1f4 ../../build/obj/board.o
 .debug_info    0x0002f16f      0xc47 ../../build/obj/fatfs_diskio.o
 .debug_info    0x0002fdb6      0x546 ../../build/obj/fatfs_syscall.o
 .debug_info    0x000302fc     0x4528 ../../build/obj/ff.o
 .debug_info    0x00034824      0x178 ../../build/obj/ccsbcs.o
 .debug_info    0x0003499c     0x142c ../../build/obj/syscalls.o
 .debug_info    0x00035dc8     0x14bd ../../build/obj/shell2.o
 .debug_info    0x00037285      0x620 ../../build/obj/chprintf.o
 .debug_info    0x000378a5      0x825 ../../build/obj/chrtclib.o
 .debug_info    0x000380ca      0xad1 ../../build/obj/main.o
 .debug_info    0x00038b9b     0x1d30 ../../build/obj/console.o
 .debug_info    0x0003a8cb      0xf6b ../../build/obj/eeprom.o
 .debug_info    0x0003b836     0x24f5 ../../build/obj/sdcard.o
 .debug_info    0x0003dd2b     0x3305 ../../build/obj/log.o
 .debug_info    0x00041030     0x2fe8 ../../build/obj/can_comm.o
 .debug_info    0x00044018     0x124c ../../build/obj/light.o
 .debug_info    0x00045264     0x17d8 ../../build/obj/speed.o
 .debug_info    0x00046a3c     0x1d7a ../../build/obj/meas.o
 .debug_info    0x000487b6     0x1a93 ../../build/obj/cruise.o
 .debug_info    0x0004a249     0x2543 ../../build/obj/dsp.o
 .debug_info    0x0004c78c     0x1481 ../../build/obj/gfx.o
 .debug_info    0x0004dc0d      0x8b5 ../../build/obj/uart_comm.o
 .debug_info    0x0004e4c2      0xc8c ../../build/obj/button.o
 .debug_info    0x0004f14e      0x4e4 ../../build/obj/brake.o
 .debug_info    0x0004f632     0x110a ../../build/obj/safety.o
 .debug_info    0x0005073c      0xd35 ../../build/obj/calc.o
 .debug_info    0x00051471     0x15d8 ../../build/obj/nmea.o

.debug_abbrev   0x00000000     0xede3
 .debug_abbrev  0x00000000       0xfd ../../build/obj/crt0.o
 .debug_abbrev  0x000000fd       0xaf ../../build/obj/vectors.o
 .debug_abbrev  0x000001ac       0x42 ../../build/obj/chcore.o
 .debug_abbrev  0x000001ee      0x216 ../../build/obj/chcore_v7m.o
 .debug_abbrev  0x00000404      0x10e ../../build/obj/nvic.o
 .debug_abbrev  0x00000512      0x20e ../../build/obj/chsys.o
 .debug_abbrev  0x00000720      0x117 ../../build/obj/chvt.o
 .debug_abbrev  0x00000837      0x317 ../../build/obj/chschd.o
 .debug_abbrev  0x00000b4e      0x34f ../../build/obj/chthreads.o
 .debug_abbrev  0x00000e9d      0x22b ../../build/obj/chdynamic.o
 .debug_abbrev  0x000010c8      0x187 ../../build/obj/chregistry.o
 .debug_abbrev  0x0000124f      0x34b ../../build/obj/chsem.o
 .debug_abbrev  0x0000159a      0x303 ../../build/obj/chmtx.o
 .debug_abbrev  0x0000189d      0x2d5 ../../build/obj/chcond.o
 .debug_abbrev  0x00001b72      0x2ef ../../build/obj/chevents.o
 .debug_abbrev  0x00001e61      0x220 ../../build/obj/chmsg.o
 .debug_abbrev  0x00002081      0x2d3 ../../build/obj/chmboxes.o
 .debug_abbrev  0x00002354      0x34a ../../build/obj/chqueues.o
 .debug_abbrev  0x0000269e      0x15b ../../build/obj/chmemcore.o
 .debug_abbrev  0x000027f9      0x1e7 ../../build/obj/chheap.o
 .debug_abbrev  0x000029e0      0x1f4 ../../build/obj/chmempools.o
 .debug_abbrev  0x00002bd4      0x4fc ../../build/obj/test.o
 .debug_abbrev  0x000030d0      0x29f ../../build/obj/testthd.o
 .debug_abbrev  0x0000336f      0x2e6 ../../build/obj/testsem.o
 .debug_abbrev  0x00003655      0x2f7 ../../build/obj/testmtx.o
 .debug_abbrev  0x0000394c      0x21a ../../build/obj/testmsg.o
 .debug_abbrev  0x00003b66      0x228 ../../build/obj/testmbox.o
 .debug_abbrev  0x00003d8e      0x2df ../../build/obj/testevt.o
 .debug_abbrev  0x0000406d      0x232 ../../build/obj/testheap.o
 .debug_abbrev  0x0000429f      0x1c8 ../../build/obj/testpools.o
 .debug_abbrev  0x00004467      0x29e ../../build/obj/testdyn.o
 .debug_abbrev  0x00004705      0x2eb ../../build/obj/testqueues.o
 .debug_abbrev  0x000049f0      0x368 ../../build/obj/testbmk.o
 .debug_abbrev  0x00004d58      0x1ca ../../build/obj/hal.o
 .debug_abbrev  0x00004f22      0x304 ../../build/obj/adc.o
 .debug_abbrev  0x00005226      0x2ef ../../build/obj/can.o
 .debug_abbrev  0x00005515      0x21f ../../build/obj/gpt.o
 .debug_abbrev  0x00005734      0x27b ../../build/obj/i2c.o
 .debug_abbrev  0x000059af      0x193 ../../build/obj/icu.o
 .debug_abbrev  0x00005b42      0x130 ../../build/obj/mmcsd.o
 .debug_abbrev  0x00005c72      0x19c ../../build/obj/pwm.o
 .debug_abbrev  0x00005e0e      0x194 ../../build/obj/rtc.o
 .debug_abbrev  0x00005fa2      0x34c ../../build/obj/sdc.o
 .debug_abbrev  0x000062ee      0x2b9 ../../build/obj/serial.o
 .debug_abbrev  0x000065a7      0x3f7 ../../build/obj/serial_usb.o
 .debug_abbrev  0x0000699e      0x276 ../../build/obj/spi.o
 .debug_abbrev  0x00006c14      0x19a ../../build/obj/tm.o
 .debug_abbrev  0x00006dae      0x420 ../../build/obj/usb.o
 .debug_abbrev  0x000071ce      0x21f ../../build/obj/stm32_dma.o
 .debug_abbrev  0x000073ed      0x12b ../../build/obj/hal_lld.o
 .debug_abbrev  0x00007518      0x331 ../../build/obj/adc_lld.o
 .debug_abbrev  0x00007849      0x3d7 ../../build/obj/can_lld.o
 .debug_abbrev  0x00007c20      0x423 ../../build/obj/sdc_lld.o
 .debug_abbrev  0x00008043      0x1aa ../../build/obj/pal_lld.o
 .debug_abbrev  0x000081ed      0x3e6 ../../build/obj/i2c_lld.o
 .debug_abbrev  0x000085d3      0x50b ../../build/obj/usb_lld.o
 .debug_abbrev  0x00008ade      0x1ed ../../build/obj/rtc_lld.o
 .debug_abbrev  0x00008ccb      0x304 ../../build/obj/spi_lld.o
 .debug_abbrev  0x00008fcf      0x238 ../../build/obj/gpt_lld.o
 .debug_abbrev  0x00009207      0x26a ../../build/obj/icu_lld.o
 .debug_abbrev  0x00009471      0x23a ../../build/obj/pwm_lld.o
 .debug_abbrev  0x000096ab      0x32b ../../build/obj/serial_lld.o
 .debug_abbrev  0x000099d6       0xe3 ../../build/obj/board.o
 .debug_abbrev  0x00009ab9      0x1f2 ../../build/obj/fatfs_diskio.o
 .debug_abbrev  0x00009cab      0x17a ../../build/obj/fatfs_syscall.o
 .debug_abbrev  0x00009e25      0x39a ../../build/obj/ff.o
 .debug_abbrev  0x0000a1bf       0xb7 ../../build/obj/ccsbcs.o
 .debug_abbrev  0x0000a276      0x279 ../../build/obj/syscalls.o
 .debug_abbrev  0x0000a4ef      0x3ec ../../build/obj/shell2.o
 .debug_abbrev  0x0000a8db      0x252 ../../build/obj/chprintf.o
 .debug_abbrev  0x0000ab2d      0x1fa ../../build/obj/chrtclib.o
 .debug_abbrev  0x0000ad27      0x22d ../../build/obj/main.o
 .debug_abbrev  0x0000af54      0x4d2 ../../build/obj/console.o
 .debug_abbrev  0x0000b426      0x32c ../../build/obj/eeprom.o
 .debug_abbrev  0x0000b752      0x4ac ../../build/obj/sdcard.o
 .debug_abbrev  0x0000bbfe      0x512 ../../build/obj/log.o
 .debug_abbrev  0x0000c110      0x455 ../../build/obj/can_comm.o
 .debug_abbrev  0x0000c565      0x38c ../../build/obj/light.o
 .debug_abbrev  0x0000c8f1      0x4c5 ../../build/obj/speed.o
 .debug_abbrev  0x0000cdb6      0x4f3 ../../build/obj/meas.o
 .debug_abbrev  0x0000d2a9      0x430 ../../build/obj/cruise.o
 .debug_abbrev  0x0000d6d9      0x3da ../../build/obj/dsp.o
 .debug_abbrev  0x0000dab3      0x253 ../../build/obj/gfx.o
 .debug_abbrev  0x0000dd06      0x1ab ../../build/obj/uart_comm.o
 .debug_abbrev  0x0000deb1      0x2b2 ../../build/obj/button.o
 .debug_abbrev  0x0000e163      0x1c4 ../../build/obj/brake.o
 .debug_abbrev  0x0000e327      0x370 ../../build/obj/safety.o
 .debug_abbrev  0x0000e697      0x331 ../../build/obj/calc.o
 .debug_abbrev  0x0000e9c8      0x41b ../../build/obj/nmea.o

.debug_loc      0x00000000    0x19b1e
 .debug_loc     0x00000000       0xba ../../build/obj/crt0.o
 .debug_loc     0x000000ba       0x5a ../../build/obj/chcore_v7m.o
 .debug_loc     0x00000114      0x158 ../../build/obj/nvic.o
 .debug_loc     0x0000026c       0x31 ../../build/obj/chsys.o
 .debug_loc     0x0000029d       0x67 ../../build/obj/chvt.o
 .debug_loc     0x00000304      0x314 ../../build/obj/chschd.o
 .debug_loc     0x00000618      0x42f ../../build/obj/chthreads.o
 .debug_loc     0x00000a47      0x1dc ../../build/obj/chdynamic.o
 .debug_loc     0x00000c23       0x3f ../../build/obj/chregistry.o
 .debug_loc     0x00000c62      0x548 ../../build/obj/chsem.o
 .debug_loc     0x000011aa      0x404 ../../build/obj/chmtx.o
 .debug_loc     0x000015ae      0x367 ../../build/obj/chcond.o
 .debug_loc     0x00001915      0x5cd ../../build/obj/chevents.o
 .debug_loc     0x00001ee2       0xf1 ../../build/obj/chmsg.o
 .debug_loc     0x00001fd3      0x57a ../../build/obj/chmboxes.o
 .debug_loc     0x0000254d      0x679 ../../build/obj/chqueues.o
 .debug_loc     0x00002bc6       0xb0 ../../build/obj/chmemcore.o
 .debug_loc     0x00002c76      0x3a1 ../../build/obj/chheap.o
 .debug_loc     0x00003017      0x17c ../../build/obj/chmempools.o
 .debug_loc     0x00003193      0x86a ../../build/obj/test.o
 .debug_loc     0x000039fd       0xb2 ../../build/obj/testthd.o
 .debug_loc     0x00003aaf      0x135 ../../build/obj/testsem.o
 .debug_loc     0x00003be4      0x2f2 ../../build/obj/testmtx.o
 .debug_loc     0x00003ed6       0x5a ../../build/obj/testmsg.o
 .debug_loc     0x00003f30      0x268 ../../build/obj/testmbox.o
 .debug_loc     0x00004198      0x236 ../../build/obj/testevt.o
 .debug_loc     0x000043ce      0x157 ../../build/obj/testheap.o
 .debug_loc     0x00004525       0xa6 ../../build/obj/testpools.o
 .debug_loc     0x000045cb      0x117 ../../build/obj/testdyn.o
 .debug_loc     0x000046e2      0x1e3 ../../build/obj/testqueues.o
 .debug_loc     0x000048c5      0x2db ../../build/obj/testbmk.o
 .debug_loc     0x00004ba0       0x87 ../../build/obj/hal.o
 .debug_loc     0x00004c27      0x3e6 ../../build/obj/adc.o
 .debug_loc     0x0000500d      0x222 ../../build/obj/can.o
 .debug_loc     0x0000522f      0x2ab ../../build/obj/gpt.o
 .debug_loc     0x000054da      0x205 ../../build/obj/i2c.o
 .debug_loc     0x000056df       0x99 ../../build/obj/icu.o
 .debug_loc     0x00005778      0x131 ../../build/obj/mmcsd.o
 .debug_loc     0x000058a9      0x102 ../../build/obj/pwm.o
 .debug_loc     0x000059ab      0x16b ../../build/obj/rtc.o
 .debug_loc     0x00005b16      0x42d ../../build/obj/sdc.o
 .debug_loc     0x00005f43      0x4e4 ../../build/obj/serial.o
 .debug_loc     0x00006427      0x6d4 ../../build/obj/serial_usb.o
 .debug_loc     0x00006afb      0x468 ../../build/obj/spi.o
 .debug_loc     0x00006f63       0x58 ../../build/obj/tm.o
 .debug_loc     0x00006fbb      0xbda ../../build/obj/usb.o
 .debug_loc     0x00007b95      0x276 ../../build/obj/stm32_dma.o
 .debug_loc     0x00007e0b      0x33d ../../build/obj/adc_lld.o
 .debug_loc     0x00008148      0x4fc ../../build/obj/can_lld.o
 .debug_loc     0x00008644      0xc79 ../../build/obj/sdc_lld.o
 .debug_loc     0x000092bd      0x129 ../../build/obj/pal_lld.o
 .debug_loc     0x000093e6      0x66c ../../build/obj/i2c_lld.o
 .debug_loc     0x00009a52      0xf5d ../../build/obj/usb_lld.o
 .debug_loc     0x0000a9af      0x396 ../../build/obj/rtc_lld.o
 .debug_loc     0x0000ad45      0x254 ../../build/obj/spi_lld.o
 .debug_loc     0x0000af99      0x137 ../../build/obj/gpt_lld.o
 .debug_loc     0x0000b0d0      0x143 ../../build/obj/icu_lld.o
 .debug_loc     0x0000b213      0x24a ../../build/obj/pwm_lld.o
 .debug_loc     0x0000b45d      0x29c ../../build/obj/serial_lld.o
 .debug_loc     0x0000b6f9      0x36f ../../build/obj/fatfs_diskio.o
 .debug_loc     0x0000ba68       0x4d ../../build/obj/fatfs_syscall.o
 .debug_loc     0x0000bab5     0x70b5 ../../build/obj/ff.o
 .debug_loc     0x00012b6a       0x4c ../../build/obj/ccsbcs.o
 .debug_loc     0x00012bb6      0x2e1 ../../build/obj/syscalls.o
 .debug_loc     0x00012e97      0x78f ../../build/obj/shell2.o
 .debug_loc     0x00013626      0x791 ../../build/obj/chprintf.o
 .debug_loc     0x00013db7      0x20c ../../build/obj/chrtclib.o
 .debug_loc     0x00013fc3       0x42 ../../build/obj/main.o
 .debug_loc     0x00014005      0x80c ../../build/obj/console.o
 .debug_loc     0x00014811      0x383 ../../build/obj/eeprom.o
 .debug_loc     0x00014b94      0xabf ../../build/obj/sdcard.o
 .debug_loc     0x00015653      0x5f7 ../../build/obj/log.o
 .debug_loc     0x00015c4a      0x653 ../../build/obj/can_comm.o
 .debug_loc     0x0001629d      0x45e ../../build/obj/light.o
 .debug_loc     0x000166fb      0x432 ../../build/obj/speed.o
 .debug_loc     0x00016b2d      0xcd1 ../../build/obj/meas.o
 .debug_loc     0x000177fe      0x767 ../../build/obj/cruise.o
 .debug_loc     0x00017f65      0x755 ../../build/obj/dsp.o
 .debug_loc     0x000186ba      0x3fa ../../build/obj/gfx.o
 .debug_loc     0x00018ab4       0xdc ../../build/obj/button.o
 .debug_loc     0x00018b90       0xa2 ../../build/obj/brake.o
 .debug_loc     0x00018c32      0x265 ../../build/obj/safety.o
 .debug_loc     0x00018e97      0x10b ../../build/obj/calc.o
 .debug_loc     0x00018fa2      0xb7c ../../build/obj/nmea.o

.debug_aranges  0x00000000     0x2300
 .debug_aranges
                0x00000000       0x38 ../../build/obj/crt0.o
 .debug_aranges
                0x00000038       0x20 ../../build/obj/vectors.o
 .debug_aranges
                0x00000058       0x20 ../../build/obj/chcore.o
 .debug_aranges
                0x00000078       0x50 ../../build/obj/chcore_v7m.o
 .debug_aranges
                0x000000c8       0x30 ../../build/obj/nvic.o
 .debug_aranges
                0x000000f8       0x30 ../../build/obj/chsys.o
 .debug_aranges
                0x00000128       0x30 ../../build/obj/chvt.o
 .debug_aranges
                0x00000158       0x68 ../../build/obj/chschd.o
 .debug_aranges
                0x000001c0       0x78 ../../build/obj/chthreads.o
 .debug_aranges
                0x00000238       0x38 ../../build/obj/chdynamic.o
 .debug_aranges
                0x00000270       0x28 ../../build/obj/chregistry.o
 .debug_aranges
                0x00000298       0x70 ../../build/obj/chsem.o
 .debug_aranges
                0x00000308       0x58 ../../build/obj/chmtx.o
 .debug_aranges
                0x00000360       0x60 ../../build/obj/chcond.o
 .debug_aranges
                0x000003c0       0xa0 ../../build/obj/chevents.o
 .debug_aranges
                0x00000460       0x30 ../../build/obj/chmsg.o
 .debug_aranges
                0x00000490       0x70 ../../build/obj/chmboxes.o
 .debug_aranges
                0x00000500       0x70 ../../build/obj/chqueues.o
 .debug_aranges
                0x00000570       0x38 ../../build/obj/chmemcore.o
 .debug_aranges
                0x000005a8       0x40 ../../build/obj/chheap.o
 .debug_aranges
                0x000005e8       0x48 ../../build/obj/chmempools.o
 .debug_aranges
                0x00000630       0x98 ../../build/obj/test.o
 .debug_aranges
                0x000006c8       0x40 ../../build/obj/testthd.o
 .debug_aranges
                0x00000708       0x70 ../../build/obj/testsem.o
 .debug_aranges
                0x00000778      0x108 ../../build/obj/testmtx.o
 .debug_aranges
                0x00000880       0x28 ../../build/obj/testmsg.o
 .debug_aranges
                0x000008a8       0x28 ../../build/obj/testmbox.o
 .debug_aranges
                0x000008d0       0x70 ../../build/obj/testevt.o
 .debug_aranges
                0x00000940       0x28 ../../build/obj/testheap.o
 .debug_aranges
                0x00000968       0x30 ../../build/obj/testpools.o
 .debug_aranges
                0x00000998       0x58 ../../build/obj/testdyn.o
 .debug_aranges
                0x000009f0       0x50 ../../build/obj/testqueues.o
 .debug_aranges
                0x00000a40       0xd0 ../../build/obj/testbmk.o
 .debug_aranges
                0x00000b10       0x30 ../../build/obj/hal.o
 .debug_aranges
                0x00000b40       0x70 ../../build/obj/adc.o
 .debug_aranges
                0x00000bb0       0x58 ../../build/obj/can.o
 .debug_aranges
                0x00000c08       0x78 ../../build/obj/gpt.o
 .debug_aranges
                0x00000c80       0x60 ../../build/obj/i2c.o
 .debug_aranges
                0x00000ce0       0x48 ../../build/obj/icu.o
 .debug_aranges
                0x00000d28       0x20 ../../build/obj/mmcsd.o
 .debug_aranges
                0x00000d48       0x50 ../../build/obj/pwm.o
 .debug_aranges
                0x00000d98       0x48 ../../build/obj/rtc.o
 .debug_aranges
                0x00000de0       0x80 ../../build/obj/sdc.o
 .debug_aranges
                0x00000e60       0x88 ../../build/obj/serial.o
 .debug_aranges
                0x00000ee8       0xb0 ../../build/obj/serial_usb.o
 .debug_aranges
                0x00000f98       0x98 ../../build/obj/spi.o
 .debug_aranges
                0x00001030       0x38 ../../build/obj/tm.o
 .debug_aranges
                0x00001068       0xa8 ../../build/obj/usb.o
 .debug_aranges
                0x00001110       0xb0 ../../build/obj/stm32_dma.o
 .debug_aranges
                0x000011c0       0x28 ../../build/obj/hal_lld.o
 .debug_aranges
                0x000011e8       0x70 ../../build/obj/adc_lld.o
 .debug_aranges
                0x00001258       0x90 ../../build/obj/can_lld.o
 .debug_aranges
                0x000012e8       0xb8 ../../build/obj/sdc_lld.o
 .debug_aranges
                0x000013a0       0x28 ../../build/obj/pal_lld.o
 .debug_aranges
                0x000013c8       0x70 ../../build/obj/i2c_lld.o
 .debug_aranges
                0x00001438       0xd0 ../../build/obj/usb_lld.o
 .debug_aranges
                0x00001508       0x58 ../../build/obj/rtc_lld.o
 .debug_aranges
                0x00001560       0x78 ../../build/obj/spi_lld.o
 .debug_aranges
                0x000015d8       0x50 ../../build/obj/gpt_lld.o
 .debug_aranges
                0x00001628       0x58 ../../build/obj/icu_lld.o
 .debug_aranges
                0x00001680       0x58 ../../build/obj/pwm_lld.o
 .debug_aranges
                0x000016d8       0x68 ../../build/obj/serial_lld.o
 .debug_aranges
                0x00001740       0x28 ../../build/obj/board.o
 .debug_aranges
                0x00001768       0x48 ../../build/obj/fatfs_diskio.o
 .debug_aranges
                0x000017b0       0x28 ../../build/obj/fatfs_syscall.o
 .debug_aranges
                0x000017d8      0x170 ../../build/obj/ff.o
 .debug_aranges
                0x00001948       0x28 ../../build/obj/ccsbcs.o
 .debug_aranges
                0x00001970       0x50 ../../build/obj/syscalls.o
 .debug_aranges
                0x000019c0       0x70 ../../build/obj/shell2.o
 .debug_aranges
                0x00001a30       0x30 ../../build/obj/chprintf.o
 .debug_aranges
                0x00001a60       0x50 ../../build/obj/chrtclib.o
 .debug_aranges
                0x00001ab0       0x30 ../../build/obj/main.o
 .debug_aranges
                0x00001ae0       0x88 ../../build/obj/console.o
 .debug_aranges
                0x00001b68       0x50 ../../build/obj/eeprom.o
 .debug_aranges
                0x00001bb8       0x98 ../../build/obj/sdcard.o
 .debug_aranges
                0x00001c50       0xa8 ../../build/obj/log.o
 .debug_aranges
                0x00001cf8       0x80 ../../build/obj/can_comm.o
 .debug_aranges
                0x00001d78       0x88 ../../build/obj/light.o
 .debug_aranges
                0x00001e00       0xc8 ../../build/obj/speed.o
 .debug_aranges
                0x00001ec8       0xc0 ../../build/obj/meas.o
 .debug_aranges
                0x00001f88       0xd8 ../../build/obj/cruise.o
 .debug_aranges
                0x00002060       0x78 ../../build/obj/dsp.o
 .debug_aranges
                0x000020d8       0xa8 ../../build/obj/gfx.o
 .debug_aranges
                0x00002180       0x20 ../../build/obj/uart_comm.o
 .debug_aranges
                0x000021a0       0x38 ../../build/obj/button.o
 .debug_aranges
                0x000021d8       0x38 ../../build/obj/brake.o
 .debug_aranges
                0x00002210       0x48 ../../build/obj/safety.o
 .debug_aranges
                0x00002258       0x48 ../../build/obj/calc.o
 .debug_aranges
                0x000022a0       0x60 ../../build/obj/nmea.o

.debug_ranges   0x00000000     0x3cd8
 .debug_ranges  0x00000000       0x58 ../../build/obj/crt0.o
 .debug_ranges  0x00000058       0x10 ../../build/obj/vectors.o
 .debug_ranges  0x00000068       0x10 ../../build/obj/chcore.o
 .debug_ranges  0x00000078       0x58 ../../build/obj/chcore_v7m.o
 .debug_ranges  0x000000d0       0x20 ../../build/obj/nvic.o
 .debug_ranges  0x000000f0       0x38 ../../build/obj/chsys.o
 .debug_ranges  0x00000128       0x20 ../../build/obj/chvt.o
 .debug_ranges  0x00000148      0x1a8 ../../build/obj/chschd.o
 .debug_ranges  0x000002f0      0x118 ../../build/obj/chthreads.o
 .debug_ranges  0x00000408       0x28 ../../build/obj/chdynamic.o
 .debug_ranges  0x00000430       0x18 ../../build/obj/chregistry.o
 .debug_ranges  0x00000448      0x168 ../../build/obj/chsem.o
 .debug_ranges  0x000005b0      0x190 ../../build/obj/chmtx.o
 .debug_ranges  0x00000740       0xa8 ../../build/obj/chcond.o
 .debug_ranges  0x000007e8       0xc0 ../../build/obj/chevents.o
 .debug_ranges  0x000008a8       0x68 ../../build/obj/chmsg.o
 .debug_ranges  0x00000910       0x90 ../../build/obj/chmboxes.o
 .debug_ranges  0x000009a0       0xd0 ../../build/obj/chqueues.o
 .debug_ranges  0x00000a70       0x28 ../../build/obj/chmemcore.o
 .debug_ranges  0x00000a98       0x30 ../../build/obj/chheap.o
 .debug_ranges  0x00000ac8       0xc8 ../../build/obj/chmempools.o
 .debug_ranges  0x00000b90      0x140 ../../build/obj/test.o
 .debug_ranges  0x00000cd0       0x90 ../../build/obj/testthd.o
 .debug_ranges  0x00000d60       0x90 ../../build/obj/testsem.o
 .debug_ranges  0x00000df0      0x110 ../../build/obj/testmtx.o
 .debug_ranges  0x00000f00       0x18 ../../build/obj/testmsg.o
 .debug_ranges  0x00000f18       0xc0 ../../build/obj/testmbox.o
 .debug_ranges  0x00000fd8       0x78 ../../build/obj/testevt.o
 .debug_ranges  0x00001050       0x18 ../../build/obj/testheap.o
 .debug_ranges  0x00001068       0x40 ../../build/obj/testpools.o
 .debug_ranges  0x000010a8       0x48 ../../build/obj/testdyn.o
 .debug_ranges  0x000010f0      0x120 ../../build/obj/testqueues.o
 .debug_ranges  0x00001210       0xd8 ../../build/obj/testbmk.o
 .debug_ranges  0x000012e8       0x20 ../../build/obj/hal.o
 .debug_ranges  0x00001308       0xf0 ../../build/obj/adc.o
 .debug_ranges  0x000013f8       0xd8 ../../build/obj/can.o
 .debug_ranges  0x000014d0       0x98 ../../build/obj/gpt.o
 .debug_ranges  0x00001568       0x80 ../../build/obj/i2c.o
 .debug_ranges  0x000015e8       0x98 ../../build/obj/icu.o
 .debug_ranges  0x00001680       0x28 ../../build/obj/mmcsd.o
 .debug_ranges  0x000016a8       0x70 ../../build/obj/pwm.o
 .debug_ranges  0x00001718       0x38 ../../build/obj/rtc.o
 .debug_ranges  0x00001750       0xa0 ../../build/obj/sdc.o
 .debug_ranges  0x000017f0       0xa8 ../../build/obj/serial.o
 .debug_ranges  0x00001898       0xd0 ../../build/obj/serial_usb.o
 .debug_ranges  0x00001968      0x100 ../../build/obj/spi.o
 .debug_ranges  0x00001a68       0x80 ../../build/obj/tm.o
 .debug_ranges  0x00001ae8      0x188 ../../build/obj/usb.o
 .debug_ranges  0x00001c70       0xa0 ../../build/obj/stm32_dma.o
 .debug_ranges  0x00001d10       0x30 ../../build/obj/hal_lld.o
 .debug_ranges  0x00001d40       0x78 ../../build/obj/adc_lld.o
 .debug_ranges  0x00001db8       0xc8 ../../build/obj/can_lld.o
 .debug_ranges  0x00001e80      0x198 ../../build/obj/sdc_lld.o
 .debug_ranges  0x00002018      0x120 ../../build/obj/pal_lld.o
 .debug_ranges  0x00002138      0x128 ../../build/obj/i2c_lld.o
 .debug_ranges  0x00002260      0x330 ../../build/obj/usb_lld.o
 .debug_ranges  0x00002590       0x88 ../../build/obj/rtc_lld.o
 .debug_ranges  0x00002618       0x68 ../../build/obj/spi_lld.o
 .debug_ranges  0x00002680       0x40 ../../build/obj/gpt_lld.o
 .debug_ranges  0x000026c0       0x48 ../../build/obj/icu_lld.o
 .debug_ranges  0x00002708       0x48 ../../build/obj/pwm_lld.o
 .debug_ranges  0x00002750       0xd0 ../../build/obj/serial_lld.o
 .debug_ranges  0x00002820       0x18 ../../build/obj/board.o
 .debug_ranges  0x00002838       0x38 ../../build/obj/fatfs_diskio.o
 .debug_ranges  0x00002870       0x18 ../../build/obj/fatfs_syscall.o
 .debug_ranges  0x00002888      0x5e0 ../../build/obj/ff.o
 .debug_ranges  0x00002e68       0x18 ../../build/obj/ccsbcs.o
 .debug_ranges  0x00002e80       0x40 ../../build/obj/syscalls.o
 .debug_ranges  0x00002ec0       0xf0 ../../build/obj/shell2.o
 .debug_ranges  0x00002fb0       0x20 ../../build/obj/chprintf.o
 .debug_ranges  0x00002fd0       0x40 ../../build/obj/chrtclib.o
 .debug_ranges  0x00003010       0x38 ../../build/obj/main.o
 .debug_ranges  0x00003048       0xb8 ../../build/obj/console.o
 .debug_ranges  0x00003100       0x80 ../../build/obj/eeprom.o
 .debug_ranges  0x00003180      0x108 ../../build/obj/sdcard.o
 .debug_ranges  0x00003288      0x1d0 ../../build/obj/log.o
 .debug_ranges  0x00003458       0xa8 ../../build/obj/can_comm.o
 .debug_ranges  0x00003500       0xf8 ../../build/obj/light.o
 .debug_ranges  0x000035f8      0x108 ../../build/obj/speed.o
 .debug_ranges  0x00003700      0x170 ../../build/obj/meas.o
 .debug_ranges  0x00003870      0x1b8 ../../build/obj/cruise.o
 .debug_ranges  0x00003a28       0xb8 ../../build/obj/dsp.o
 .debug_ranges  0x00003ae0       0x98 ../../build/obj/gfx.o
 .debug_ranges  0x00003b78       0x10 ../../build/obj/uart_comm.o
 .debug_ranges  0x00003b88       0x28 ../../build/obj/button.o
 .debug_ranges  0x00003bb0       0x28 ../../build/obj/brake.o
 .debug_ranges  0x00003bd8       0x38 ../../build/obj/safety.o
 .debug_ranges  0x00003c10       0x78 ../../build/obj/calc.o
 .debug_ranges  0x00003c88       0x50 ../../build/obj/nmea.o

.debug_line     0x00000000    0x16c34
 .debug_line    0x00000000      0x194 ../../build/obj/crt0.o
 .debug_line    0x00000194      0x139 ../../build/obj/vectors.o
 .debug_line    0x000002cd       0x63 ../../build/obj/chcore.o
 .debug_line    0x00000330      0x26f ../../build/obj/chcore_v7m.o
 .debug_line    0x0000059f      0x16e ../../build/obj/nvic.o
 .debug_line    0x0000070d      0x29b ../../build/obj/chsys.o
 .debug_line    0x000009a8      0x1bf ../../build/obj/chvt.o
 .debug_line    0x00000b67      0x3d6 ../../build/obj/chschd.o
 .debug_line    0x00000f3d      0x43e ../../build/obj/chthreads.o
 .debug_line    0x0000137b      0x2b5 ../../build/obj/chdynamic.o
 .debug_line    0x00001630      0x265 ../../build/obj/chregistry.o
 .debug_line    0x00001895      0x398 ../../build/obj/chsem.o
 .debug_line    0x00001c2d      0x398 ../../build/obj/chmtx.o
 .debug_line    0x00001fc5      0x2fb ../../build/obj/chcond.o
 .debug_line    0x000022c0      0x37e ../../build/obj/chevents.o
 .debug_line    0x0000263e      0x227 ../../build/obj/chmsg.o
 .debug_line    0x00002865      0x2f5 ../../build/obj/chmboxes.o
 .debug_line    0x00002b5a      0x3f1 ../../build/obj/chqueues.o
 .debug_line    0x00002f4b      0x1dd ../../build/obj/chmemcore.o
 .debug_line    0x00003128      0x30a ../../build/obj/chheap.o
 .debug_line    0x00003432      0x263 ../../build/obj/chmempools.o
 .debug_line    0x00003695      0x5aa ../../build/obj/test.o
 .debug_line    0x00003c3f      0x2c7 ../../build/obj/testthd.o
 .debug_line    0x00003f06      0x397 ../../build/obj/testsem.o
 .debug_line    0x0000429d      0x55e ../../build/obj/testmtx.o
 .debug_line    0x000047fb      0x25a ../../build/obj/testmsg.o
 .debug_line    0x00004a55      0x2f8 ../../build/obj/testmbox.o
 .debug_line    0x00004d4d      0x356 ../../build/obj/testevt.o
 .debug_line    0x000050a3      0x294 ../../build/obj/testheap.o
 .debug_line    0x00005337      0x16f ../../build/obj/testpools.o
 .debug_line    0x000054a6      0x399 ../../build/obj/testdyn.o
 .debug_line    0x0000583f      0x328 ../../build/obj/testqueues.o
 .debug_line    0x00005b67      0x645 ../../build/obj/testbmk.o
 .debug_line    0x000061ac      0x344 ../../build/obj/hal.o
 .debug_line    0x000064f0      0x3ff ../../build/obj/adc.o
 .debug_line    0x000068ef      0x37d ../../build/obj/can.o
 .debug_line    0x00006c6c      0x2bc ../../build/obj/gpt.o
 .debug_line    0x00006f28      0x3bd ../../build/obj/i2c.o
 .debug_line    0x000072e5      0x242 ../../build/obj/icu.o
 .debug_line    0x00007527      0x180 ../../build/obj/mmcsd.o
 .debug_line    0x000076a7      0x250 ../../build/obj/pwm.o
 .debug_line    0x000078f7      0x290 ../../build/obj/rtc.o
 .debug_line    0x00007b87      0x469 ../../build/obj/sdc.o
 .debug_line    0x00007ff0      0x42a ../../build/obj/serial.o
 .debug_line    0x0000841a      0x4e8 ../../build/obj/serial_usb.o
 .debug_line    0x00008902      0x47c ../../build/obj/spi.o
 .debug_line    0x00008d7e      0x269 ../../build/obj/tm.o
 .debug_line    0x00008fe7      0x5fa ../../build/obj/usb.o
 .debug_line    0x000095e1      0x437 ../../build/obj/stm32_dma.o
 .debug_line    0x00009a18      0x254 ../../build/obj/hal_lld.o
 .debug_line    0x00009c6c      0x54b ../../build/obj/adc_lld.o
 .debug_line    0x0000a1b7      0x50a ../../build/obj/can_lld.o
 .debug_line    0x0000a6c1      0x59c ../../build/obj/sdc_lld.o
 .debug_line    0x0000ac5d      0x258 ../../build/obj/pal_lld.o
 .debug_line    0x0000aeb5      0x62d ../../build/obj/i2c_lld.o
 .debug_line    0x0000b4e2      0x84f ../../build/obj/usb_lld.o
 .debug_line    0x0000bd31      0x339 ../../build/obj/rtc_lld.o
 .debug_line    0x0000c06a      0x4f8 ../../build/obj/spi_lld.o
 .debug_line    0x0000c562      0x32d ../../build/obj/gpt_lld.o
 .debug_line    0x0000c88f      0x35e ../../build/obj/icu_lld.o
 .debug_line    0x0000cbed      0x37d ../../build/obj/pwm_lld.o
 .debug_line    0x0000cf6a      0x47e ../../build/obj/serial_lld.o
 .debug_line    0x0000d3e8      0x1d4 ../../build/obj/board.o
 .debug_line    0x0000d5bc      0x3e9 ../../build/obj/fatfs_diskio.o
 .debug_line    0x0000d9a5      0x285 ../../build/obj/fatfs_syscall.o
 .debug_line    0x0000dc2a     0x13db ../../build/obj/ff.o
 .debug_line    0x0000f005       0xce ../../build/obj/ccsbcs.o
 .debug_line    0x0000f0d3      0x3ef ../../build/obj/syscalls.o
 .debug_line    0x0000f4c2      0x4d8 ../../build/obj/shell2.o
 .debug_line    0x0000f99a      0x334 ../../build/obj/chprintf.o
 .debug_line    0x0000fcce      0x3e4 ../../build/obj/chrtclib.o
 .debug_line    0x000100b2      0x426 ../../build/obj/main.o
 .debug_line    0x000104d8      0x655 ../../build/obj/console.o
 .debug_line    0x00010b2d      0x450 ../../build/obj/eeprom.o
 .debug_line    0x00010f7d      0x6f0 ../../build/obj/sdcard.o
 .debug_line    0x0001166d      0x974 ../../build/obj/log.o
 .debug_line    0x00011fe1      0x8f4 ../../build/obj/can_comm.o
 .debug_line    0x000128d5      0x5ea ../../build/obj/light.o
 .debug_line    0x00012ebf      0x5bf ../../build/obj/speed.o
 .debug_line    0x0001347e      0x725 ../../build/obj/meas.o
 .debug_line    0x00013ba3      0x858 ../../build/obj/cruise.o
 .debug_line    0x000143fb      0x7c3 ../../build/obj/dsp.o
 .debug_line    0x00014bbe      0x4aa ../../build/obj/gfx.o
 .debug_line    0x00015068      0x307 ../../build/obj/uart_comm.o
 .debug_line    0x0001536f      0x4f1 ../../build/obj/button.o
 .debug_line    0x00015860      0x2e5 ../../build/obj/brake.o
 .debug_line    0x00015b45      0x4b1 ../../build/obj/safety.o
 .debug_line    0x00015ff6      0x463 ../../build/obj/calc.o
 .debug_line    0x00016459      0x7db ../../build/obj/nmea.o

.debug_str      0x00000000     0x8f0f
 .debug_str     0x00000000      0x2a4 ../../build/obj/crt0.o
                                0x2f4 (size before relaxing)
 .debug_str     0x000002a4      0x150 ../../build/obj/vectors.o
                                0x315 (size before relaxing)
 .debug_str     0x000003f4       0x38 ../../build/obj/chcore.o
                                0x1dd (size before relaxing)
 .debug_str     0x0000042c      0x2df ../../build/obj/chcore_v7m.o
                                0x4d1 (size before relaxing)
 .debug_str     0x0000070b       0xa1 ../../build/obj/nvic.o
                                0x2e7 (size before relaxing)
 .debug_str     0x000007ac      0x214 ../../build/obj/chsys.o
                                0x5bf (size before relaxing)
 .debug_str     0x000009c0       0x41 ../../build/obj/chvt.o
                                0x268 (size before relaxing)
 .debug_str     0x00000a01       0xcf ../../build/obj/chschd.o
                                0x4de (size before relaxing)
 .debug_str     0x00000ad0       0xde ../../build/obj/chthreads.o
                                0x549 (size before relaxing)
 .debug_str     0x00000bae      0x118 ../../build/obj/chdynamic.o
                                0x4cb (size before relaxing)
 .debug_str     0x00000cc6       0x4d ../../build/obj/chregistry.o
                                0x4d7 (size before relaxing)
 .debug_str     0x00000d13       0xd3 ../../build/obj/chsem.o
                                0x4c2 (size before relaxing)
 .debug_str     0x00000de6       0x9c ../../build/obj/chmtx.o
                                0x463 (size before relaxing)
 .debug_str     0x00000e82       0xbb ../../build/obj/chcond.o
                                0x4b0 (size before relaxing)
 .debug_str     0x00000f3d      0x1c4 ../../build/obj/chevents.o
                                0x587 (size before relaxing)
 .debug_str     0x00001101       0x48 ../../build/obj/chmsg.o
                                0x3fb (size before relaxing)
 .debug_str     0x00001149       0xed ../../build/obj/chmboxes.o
                                0x48a (size before relaxing)
 .debug_str     0x00001236      0x124 ../../build/obj/chqueues.o
                                0x4ee (size before relaxing)
 .debug_str     0x0000135a       0x7b ../../build/obj/chmemcore.o
                                0x25d (size before relaxing)
 .debug_str     0x000013d5       0x53 ../../build/obj/chheap.o
                                0x452 (size before relaxing)
 .debug_str     0x00001428       0x60 ../../build/obj/chmempools.o
                                0x2ab (size before relaxing)
 .debug_str     0x00001488      0x26f ../../build/obj/test.o
                                0x6db (size before relaxing)
 .debug_str     0x000016f7       0x78 ../../build/obj/testthd.o
                                0x564 (size before relaxing)
 .debug_str     0x0000176f       0xe1 ../../build/obj/testsem.o
                                0x620 (size before relaxing)
 .debug_str     0x00001850      0x19f ../../build/obj/testmtx.o
                                0x71e (size before relaxing)
 .debug_str     0x000019ef       0x36 ../../build/obj/testmsg.o
                                0x457 (size before relaxing)
 .debug_str     0x00001a25       0x4a ../../build/obj/testmbox.o
                                0x4de (size before relaxing)
 .debug_str     0x00001a6f       0x8a ../../build/obj/testevt.o
                                0x689 (size before relaxing)
 .debug_str     0x00001af9       0x4f ../../build/obj/testheap.o
                                0x4a0 (size before relaxing)
 .debug_str     0x00001b48       0x57 ../../build/obj/testpools.o
                                0x2cf (size before relaxing)
 .debug_str     0x00001b9f       0x91 ../../build/obj/testdyn.o
                                0x644 (size before relaxing)
 .debug_str     0x00001c30       0x77 ../../build/obj/testqueues.o
                                0x5cb (size before relaxing)
 .debug_str     0x00001ca7      0x184 ../../build/obj/testbmk.o
                                0x7a5 (size before relaxing)
 .debug_str     0x00001e2b      0x1b6 ../../build/obj/hal.o
                                0x3b0 (size before relaxing)
 .debug_str     0x00001fe1      0x2fe ../../build/obj/adc.o
                                0x718 (size before relaxing)
 .debug_str     0x000022df      0x2d7 ../../build/obj/can.o
                                0x72e (size before relaxing)
 .debug_str     0x000025b6      0x200 ../../build/obj/gpt.o
                                0x3fc (size before relaxing)
 .debug_str     0x000027b6      0x2ab ../../build/obj/i2c.o
                                0x6ed (size before relaxing)
 .debug_str     0x00002a61      0x1a0 ../../build/obj/icu.o
                                0x3f0 (size before relaxing)
 .debug_str     0x00002c01       0x66 ../../build/obj/mmcsd.o
                                0x249 (size before relaxing)
 .debug_str     0x00002c67      0x152 ../../build/obj/pwm.o
                                0x3e1 (size before relaxing)
 .debug_str     0x00002db9      0x210 ../../build/obj/rtc.o
                                0x407 (size before relaxing)
 .debug_str     0x00002fc9      0x32c ../../build/obj/sdc.o
                                0x746 (size before relaxing)
 .debug_str     0x000032f5      0x122 ../../build/obj/serial.o
                                0x666 (size before relaxing)
 .debug_str     0x00003417      0x7c9 ../../build/obj/serial_usb.o
                                0xd4c (size before relaxing)
 .debug_str     0x00003be0      0x240 ../../build/obj/spi.o
                                0x71f (size before relaxing)
 .debug_str     0x00003e20       0x6d ../../build/obj/tm.o
                                0x2ae (size before relaxing)
 .debug_str     0x00003e8d      0x2bb ../../build/obj/usb.o
                                0xd72 (size before relaxing)
 .debug_str     0x00004148      0x74b ../../build/obj/stm32_dma.o
                                0xa33 (size before relaxing)
 .debug_str     0x00004893       0xc9 ../../build/obj/hal_lld.o
                                0x411 (size before relaxing)
 .debug_str     0x0000495c       0xdf ../../build/obj/adc_lld.o
                                0xd54 (size before relaxing)
 .debug_str     0x00004a3b      0x129 ../../build/obj/can_lld.o
                                0x8d2 (size before relaxing)
 .debug_str     0x00004b64      0x14c ../../build/obj/sdc_lld.o
                                0x9c9 (size before relaxing)
 .debug_str     0x00004cb0       0x82 ../../build/obj/pal_lld.o
                                0x46f (size before relaxing)
 .debug_str     0x00004d32      0x136 ../../build/obj/i2c_lld.o
                                0xe82 (size before relaxing)
 .debug_str     0x00004e68      0x204 ../../build/obj/usb_lld.o
                                0xff1 (size before relaxing)
 .debug_str     0x0000506c       0x91 ../../build/obj/rtc_lld.o
                                0x441 (size before relaxing)
 .debug_str     0x000050fd       0xa2 ../../build/obj/spi_lld.o
                                0x7bf (size before relaxing)
 .debug_str     0x0000519f       0x5f ../../build/obj/gpt_lld.o
                                0x4f5 (size before relaxing)
 .debug_str     0x000051fe       0x77 ../../build/obj/icu_lld.o
                                0x570 (size before relaxing)
 .debug_str     0x00005275       0x74 ../../build/obj/pwm_lld.o
                                0x52c (size before relaxing)
 .debug_str     0x000052e9       0x92 ../../build/obj/serial_lld.o
                                0x72e (size before relaxing)
 .debug_str     0x0000537b       0x11 ../../build/obj/board.o
                                0x2a5 (size before relaxing)
 .debug_str     0x0000538c       0xee ../../build/obj/fatfs_diskio.o
                                0x72b (size before relaxing)
 .debug_str     0x0000547a       0x5e ../../build/obj/fatfs_syscall.o
                                0x42c (size before relaxing)
 .debug_str     0x000054d8      0x514 ../../build/obj/ff.o
                                0x7d3 (size before relaxing)
 .debug_str     0x000059ec       0x43 ../../build/obj/ccsbcs.o
                                0x20a (size before relaxing)
 .debug_str     0x00005a2f      0x491 ../../build/obj/syscalls.o
                                0xa44 (size before relaxing)
 .debug_str     0x00005ec0      0x15e ../../build/obj/shell2.o
                                0x6dc (size before relaxing)
 .debug_str     0x0000601e       0xbb ../../build/obj/chprintf.o
                                0x321 (size before relaxing)
 .debug_str     0x000060d9       0xb9 ../../build/obj/chrtclib.o
                                0x440 (size before relaxing)
 .debug_str     0x00006192      0x214 ../../build/obj/main.o
                                0x704 (size before relaxing)
 .debug_str     0x000063a6       0xc5 ../../build/obj/console.o
                                0xb46 (size before relaxing)
 .debug_str     0x0000646b       0x86 ../../build/obj/eeprom.o
                                0x7e7 (size before relaxing)
 .debug_str     0x000064f1      0x18b ../../build/obj/sdcard.o
                                0xa6c (size before relaxing)
 .debug_str     0x0000667c     0x149c ../../build/obj/log.o
                               0x1e29 (size before relaxing)
 .debug_str     0x00007b18      0x315 ../../build/obj/can_comm.o
                                0xf53 (size before relaxing)
 .debug_str     0x00007e2d      0x134 ../../build/obj/light.o
                                0x59c (size before relaxing)
 .debug_str     0x00007f61      0x1ab ../../build/obj/speed.o
                                0x93c (size before relaxing)
 .debug_str     0x0000810c      0x27b ../../build/obj/meas.o
                                0xbe3 (size before relaxing)
 .debug_str     0x00008387      0x285 ../../build/obj/cruise.o
                                0xa11 (size before relaxing)
 .debug_str     0x0000860c      0x431 ../../build/obj/dsp.o
                                0xc6e (size before relaxing)
 .debug_str     0x00008a3d       0x9f ../../build/obj/gfx.o
                                0x670 (size before relaxing)
 .debug_str     0x00008adc       0x21 ../../build/obj/uart_comm.o
                                0x547 (size before relaxing)
 .debug_str     0x00008afd      0x115 ../../build/obj/button.o
                                0x5b2 (size before relaxing)
 .debug_str     0x00008c12       0x30 ../../build/obj/brake.o
                                0x2ff (size before relaxing)
 .debug_str     0x00008c42       0xbb ../../build/obj/safety.o
                                0x84a (size before relaxing)
 .debug_str     0x00008cfd       0xa1 ../../build/obj/calc.o
                                0x78e (size before relaxing)
 .debug_str     0x00008d9e      0x171 ../../build/obj/nmea.o
                                0x88b (size before relaxing)

.comment        0x00000000       0x70
 .comment       0x00000000       0x70 ../../build/obj/crt0.o
                                 0x71 (size before relaxing)
 .comment       0x00000000       0x71 ../../build/obj/vectors.o
 .comment       0x00000000       0x71 ../../build/obj/chcore.o
 .comment       0x00000000       0x71 ../../build/obj/chcore_v7m.o
 .comment       0x00000000       0x71 ../../build/obj/nvic.o
 .comment       0x00000000       0x71 ../../build/obj/chsys.o
 .comment       0x00000000       0x71 ../../build/obj/chvt.o
 .comment       0x00000000       0x71 ../../build/obj/chschd.o
 .comment       0x00000000       0x71 ../../build/obj/chthreads.o
 .comment       0x00000000       0x71 ../../build/obj/chdynamic.o
 .comment       0x00000000       0x71 ../../build/obj/chregistry.o
 .comment       0x00000000       0x71 ../../build/obj/chsem.o
 .comment       0x00000000       0x71 ../../build/obj/chmtx.o
 .comment       0x00000000       0x71 ../../build/obj/chcond.o
 .comment       0x00000000       0x71 ../../build/obj/chevents.o
 .comment       0x00000000       0x71 ../../build/obj/chmsg.o
 .comment       0x00000000       0x71 ../../build/obj/chmboxes.o
 .comment       0x00000000       0x71 ../../build/obj/chqueues.o
 .comment       0x00000000       0x71 ../../build/obj/chmemcore.o
 .comment       0x00000000       0x71 ../../build/obj/chheap.o
 .comment       0x00000000       0x71 ../../build/obj/chmempools.o
 .comment       0x00000000       0x71 ../../build/obj/test.o
 .comment       0x00000000       0x71 ../../build/obj/testthd.o
 .comment       0x00000000       0x71 ../../build/obj/testsem.o
 .comment       0x00000000       0x71 ../../build/obj/testmtx.o
 .comment       0x00000000       0x71 ../../build/obj/testmsg.o
 .comment       0x00000000       0x71 ../../build/obj/testmbox.o
 .comment       0x00000000       0x71 ../../build/obj/testevt.o
 .comment       0x00000000       0x71 ../../build/obj/testheap.o
 .comment       0x00000000       0x71 ../../build/obj/testpools.o
 .comment       0x00000000       0x71 ../../build/obj/testdyn.o
 .comment       0x00000000       0x71 ../../build/obj/testqueues.o
 .comment       0x00000000       0x71 ../../build/obj/testbmk.o
 .comment       0x00000000       0x71 ../../build/obj/hal.o
 .comment       0x00000000       0x71 ../../build/obj/adc.o
 .comment       0x00000000       0x71 ../../build/obj/can.o
 .comment       0x00000000       0x71 ../../build/obj/gpt.o
 .comment       0x00000000       0x71 ../../build/obj/i2c.o
 .comment       0x00000000       0x71 ../../build/obj/icu.o
 .comment       0x00000000       0x71 ../../build/obj/mmcsd.o
 .comment       0x00000000       0x71 ../../build/obj/pwm.o
 .comment       0x00000000       0x71 ../../build/obj/rtc.o
 .comment       0x00000000       0x71 ../../build/obj/sdc.o
 .comment       0x00000000       0x71 ../../build/obj/serial.o
 .comment       0x00000000       0x71 ../../build/obj/serial_usb.o
 .comment       0x00000000       0x71 ../../build/obj/spi.o
 .comment       0x00000000       0x71 ../../build/obj/tm.o
 .comment       0x00000000       0x71 ../../build/obj/usb.o
 .comment       0x00000000       0x71 ../../build/obj/stm32_dma.o
 .comment       0x00000000       0x71 ../../build/obj/hal_lld.o
 .comment       0x00000000       0x71 ../../build/obj/adc_lld.o
 .comment       0x00000000       0x71 ../../build/obj/can_lld.o
 .comment       0x00000000       0x71 ../../build/obj/sdc_lld.o
 .comment       0x00000000       0x71 ../../build/obj/pal_lld.o
 .comment       0x00000000       0x71 ../../build/obj/i2c_lld.o
 .comment       0x00000000       0x71 ../../build/obj/usb_lld.o
 .comment       0x00000000       0x71 ../../build/obj/rtc_lld.o
 .comment       0x00000000       0x71 ../../build/obj/spi_lld.o
 .comment       0x00000000       0x71 ../../build/obj/gpt_lld.o
 .comment       0x00000000       0x71 ../../build/obj/icu_lld.o
 .comment       0x00000000       0x71 ../../build/obj/pwm_lld.o
 .comment       0x00000000       0x71 ../../build/obj/serial_lld.o
 .comment       0x00000000       0x71 ../../build/obj/board.o
 .comment       0x00000000       0x71 ../../build/obj/fatfs_diskio.o
 .comment       0x00000000       0x71 ../../build/obj/fatfs_syscall.o
 .comment       0x00000000       0x71 ../../build/obj/ff.o
 .comment       0x00000000       0x71 ../../build/obj/ccsbcs.o
 .comment       0x00000000       0x71 ../../build/obj/syscalls.o
 .comment       0x00000000       0x71 ../../build/obj/shell2.o
 .comment       0x00000000       0x71 ../../build/obj/chprintf.o
 .comment       0x00000000       0x71 ../../build/obj/chrtclib.o
 .comment       0x00000000       0x71 ../../build/obj/main.o
 .comment       0x00000000       0x71 ../../build/obj/console.o
 .comment       0x00000000       0x71 ../../build/obj/eeprom.o
 .comment       0x00000000       0x71 ../../build/obj/sdcard.o
 .comment       0x00000000       0x71 ../../build/obj/log.o
 .comment       0x00000000       0x71 ../../build/obj/can_comm.o
 .comment       0x00000000       0x71 ../../build/obj/light.o
 .comment       0x00000000       0x71 ../../build/obj/speed.o
 .comment       0x00000000       0x71 ../../build/obj/meas.o
 .comment       0x00000000       0x71 ../../build/obj/cruise.o
 .comment       0x00000000       0x71 ../../build/obj/dsp.o
 .comment       0x00000000       0x71 ../../build/obj/gfx.o
 .comment       0x00000000       0x71 ../../build/obj/uart_comm.o
 .comment       0x00000000       0x71 ../../build/obj/button.o
 .comment       0x00000000       0x71 ../../build/obj/brake.o
 .comment       0x00000000       0x71 ../../build/obj/safety.o
 .comment       0x00000000       0x71 ../../build/obj/calc.o
 .comment       0x00000000       0x71 ../../build/obj/nmea.o

.ARM.attributes
                0x00000000       0x31
 .ARM.attributes
                0x00000000       0x33 ../../build/obj/crt0.o
 .ARM.attributes
                0x00000033       0x33 ../../build/obj/vectors.o
 .ARM.attributes
                0x00000066       0x33 ../../build/obj/chcore.o
 .ARM.attributes
                0x00000099       0x33 ../../build/obj/chcore_v7m.o
 .ARM.attributes
                0x000000cc       0x33 ../../build/obj/nvic.o
 .ARM.attributes
                0x000000ff       0x33 ../../build/obj/chsys.o
 .ARM.attributes
                0x00000132       0x33 ../../build/obj/chvt.o
 .ARM.attributes
                0x00000165       0x33 ../../build/obj/chschd.o
 .ARM.attributes
                0x00000198       0x33 ../../build/obj/chthreads.o
 .ARM.attributes
                0x000001cb       0x33 ../../build/obj/chdynamic.o
 .ARM.attributes
                0x000001fe       0x33 ../../build/obj/chregistry.o
 .ARM.attributes
                0x00000231       0x33 ../../build/obj/chsem.o
 .ARM.attributes
                0x00000264       0x33 ../../build/obj/chmtx.o
 .ARM.attributes
                0x00000297       0x33 ../../build/obj/chcond.o
 .ARM.attributes
                0x000002ca       0x33 ../../build/obj/chevents.o
 .ARM.attributes
                0x000002fd       0x33 ../../build/obj/chmsg.o
 .ARM.attributes
                0x00000330       0x33 ../../build/obj/chmboxes.o
 .ARM.attributes
                0x00000363       0x33 ../../build/obj/chqueues.o
 .ARM.attributes
                0x00000396       0x33 ../../build/obj/chmemcore.o
 .ARM.attributes
                0x000003c9       0x33 ../../build/obj/chheap.o
 .ARM.attributes
                0x000003fc       0x33 ../../build/obj/chmempools.o
 .ARM.attributes
                0x0000042f       0x33 ../../build/obj/test.o
 .ARM.attributes
                0x00000462       0x33 ../../build/obj/testthd.o
 .ARM.attributes
                0x00000495       0x33 ../../build/obj/testsem.o
 .ARM.attributes
                0x000004c8       0x33 ../../build/obj/testmtx.o
 .ARM.attributes
                0x000004fb       0x33 ../../build/obj/testmsg.o
 .ARM.attributes
                0x0000052e       0x33 ../../build/obj/testmbox.o
 .ARM.attributes
                0x00000561       0x33 ../../build/obj/testevt.o
 .ARM.attributes
                0x00000594       0x33 ../../build/obj/testheap.o
 .ARM.attributes
                0x000005c7       0x33 ../../build/obj/testpools.o
 .ARM.attributes
                0x000005fa       0x33 ../../build/obj/testdyn.o
 .ARM.attributes
                0x0000062d       0x33 ../../build/obj/testqueues.o
 .ARM.attributes
                0x00000660       0x33 ../../build/obj/testbmk.o
 .ARM.attributes
                0x00000693       0x33 ../../build/obj/hal.o
 .ARM.attributes
                0x000006c6       0x33 ../../build/obj/adc.o
 .ARM.attributes
                0x000006f9       0x33 ../../build/obj/can.o
 .ARM.attributes
                0x0000072c       0x33 ../../build/obj/gpt.o
 .ARM.attributes
                0x0000075f       0x33 ../../build/obj/i2c.o
 .ARM.attributes
                0x00000792       0x33 ../../build/obj/icu.o
 .ARM.attributes
                0x000007c5       0x33 ../../build/obj/mmcsd.o
 .ARM.attributes
                0x000007f8       0x33 ../../build/obj/pwm.o
 .ARM.attributes
                0x0000082b       0x33 ../../build/obj/rtc.o
 .ARM.attributes
                0x0000085e       0x33 ../../build/obj/sdc.o
 .ARM.attributes
                0x00000891       0x33 ../../build/obj/serial.o
 .ARM.attributes
                0x000008c4       0x33 ../../build/obj/serial_usb.o
 .ARM.attributes
                0x000008f7       0x33 ../../build/obj/spi.o
 .ARM.attributes
                0x0000092a       0x33 ../../build/obj/tm.o
 .ARM.attributes
                0x0000095d       0x33 ../../build/obj/usb.o
 .ARM.attributes
                0x00000990       0x33 ../../build/obj/stm32_dma.o
 .ARM.attributes
                0x000009c3       0x33 ../../build/obj/hal_lld.o
 .ARM.attributes
                0x000009f6       0x33 ../../build/obj/adc_lld.o
 .ARM.attributes
                0x00000a29       0x33 ../../build/obj/can_lld.o
 .ARM.attributes
                0x00000a5c       0x33 ../../build/obj/sdc_lld.o
 .ARM.attributes
                0x00000a8f       0x33 ../../build/obj/pal_lld.o
 .ARM.attributes
                0x00000ac2       0x33 ../../build/obj/i2c_lld.o
 .ARM.attributes
                0x00000af5       0x33 ../../build/obj/usb_lld.o
 .ARM.attributes
                0x00000b28       0x33 ../../build/obj/rtc_lld.o
 .ARM.attributes
                0x00000b5b       0x33 ../../build/obj/spi_lld.o
 .ARM.attributes
                0x00000b8e       0x33 ../../build/obj/gpt_lld.o
 .ARM.attributes
                0x00000bc1       0x33 ../../build/obj/icu_lld.o
 .ARM.attributes
                0x00000bf4       0x33 ../../build/obj/pwm_lld.o
 .ARM.attributes
                0x00000c27       0x33 ../../build/obj/serial_lld.o
 .ARM.attributes
                0x00000c5a       0x33 ../../build/obj/board.o
 .ARM.attributes
                0x00000c8d       0x33 ../../build/obj/fatfs_diskio.o
 .ARM.attributes
                0x00000cc0       0x33 ../../build/obj/fatfs_syscall.o
 .ARM.attributes
                0x00000cf3       0x33 ../../build/obj/ff.o
 .ARM.attributes
                0x00000d26       0x33 ../../build/obj/ccsbcs.o
 .ARM.attributes
                0x00000d59       0x33 ../../build/obj/syscalls.o
 .ARM.attributes
                0x00000d8c       0x33 ../../build/obj/shell2.o
 .ARM.attributes
                0x00000dbf       0x33 ../../build/obj/chprintf.o
 .ARM.attributes
                0x00000df2       0x33 ../../build/obj/chrtclib.o
 .ARM.attributes
                0x00000e25       0x33 ../../build/obj/main.o
 .ARM.attributes
                0x00000e58       0x33 ../../build/obj/console.o
 .ARM.attributes
                0x00000e8b       0x33 ../../build/obj/eeprom.o
 .ARM.attributes
                0x00000ebe       0x33 ../../build/obj/sdcard.o
 .ARM.attributes
                0x00000ef1       0x33 ../../build/obj/log.o
 .ARM.attributes
                0x00000f24       0x33 ../../build/obj/can_comm.o
 .ARM.attributes
                0x00000f57       0x33 ../../build/obj/light.o
 .ARM.attributes
                0x00000f8a       0x33 ../../build/obj/speed.o
 .ARM.attributes
                0x00000fbd       0x33 ../../build/obj/meas.o
 .ARM.attributes
                0x00000ff0       0x33 ../../build/obj/cruise.o
 .ARM.attributes
                0x00001023       0x33 ../../build/obj/dsp.o
 .ARM.attributes
                0x00001056       0x33 ../../build/obj/gfx.o
 .ARM.attributes
                0x00001089       0x33 ../../build/obj/uart_comm.o
 .ARM.attributes
                0x000010bc       0x33 ../../build/obj/button.o
 .ARM.attributes
                0x000010ef       0x33 ../../build/obj/brake.o
 .ARM.attributes
                0x00001122       0x33 ../../build/obj/safety.o
 .ARM.attributes
                0x00001155       0x33 ../../build/obj/calc.o
 .ARM.attributes
                0x00001188       0x33 ../../build/obj/nmea.o
 .ARM.attributes
                0x000011bb       0x1e c:/program files (x86)/gnu tools arm embedded/4.9 2015q2/bin/../lib/gcc/arm-none-eabi/4.9.3/armv7e-m\libgcc.a(_arm_addsubdf3.o)
 .ARM.attributes
                0x000011d9       0x1e c:/program files (x86)/gnu tools arm embedded/4.9 2015q2/bin/../lib/gcc/arm-none-eabi/4.9.3/armv7e-m\libgcc.a(_arm_muldivdf3.o)
 .ARM.attributes
                0x000011f7       0x1e c:/program files (x86)/gnu tools arm embedded/4.9 2015q2/bin/../lib/gcc/arm-none-eabi/4.9.3/armv7e-m\libgcc.a(_arm_cmpdf2.o)
 .ARM.attributes
                0x00001215       0x1e c:/program files (x86)/gnu tools arm embedded/4.9 2015q2/bin/../lib/gcc/arm-none-eabi/4.9.3/armv7e-m\libgcc.a(_arm_fixdfsi.o)
 .ARM.attributes
                0x00001233       0x1e c:/program files (x86)/gnu tools arm embedded/4.9 2015q2/bin/../lib/gcc/arm-none-eabi/4.9.3/armv7e-m\libgcc.a(_arm_fixunsdfsi.o)
 .ARM.attributes
                0x00001251       0x2e c:/program files (x86)/gnu tools arm embedded/4.9 2015q2/bin/../lib/gcc/arm-none-eabi/4.9.3/../../../../arm-none-eabi/lib/armv7e-m\libg.a(lib_a-asctime.o)
 .ARM.attributes
                0x0000127f       0x2e c:/program files (x86)/gnu tools arm embedded/4.9 2015q2/bin/../lib/gcc/arm-none-eabi/4.9.3/../../../../arm-none-eabi/lib/armv7e-m\libg.a(lib_a-asctime_r.o)
 .ARM.attributes
                0x000012ad       0x2e c:/program files (x86)/gnu tools arm embedded/4.9 2015q2/bin/../lib/gcc/arm-none-eabi/4.9.3/../../../../arm-none-eabi/lib/armv7e-m\libg.a(lib_a-atof.o)
 .ARM.attributes
                0x000012db       0x2e c:/program files (x86)/gnu tools arm embedded/4.9 2015q2/bin/../lib/gcc/arm-none-eabi/4.9.3/../../../../arm-none-eabi/lib/armv7e-m\libg.a(lib_a-atoi.o)
 .ARM.attributes
                0x00001309       0x2e c:/program files (x86)/gnu tools arm embedded/4.9 2015q2/bin/../lib/gcc/arm-none-eabi/4.9.3/../../../../arm-none-eabi/lib/armv7e-m\libg.a(lib_a-atol.o)
 .ARM.attributes
                0x00001337       0x2e c:/program files (x86)/gnu tools arm embedded/4.9 2015q2/bin/../lib/gcc/arm-none-eabi/4.9.3/../../../../arm-none-eabi/lib/armv7e-m\libg.a(lib_a-impure.o)
 .ARM.attributes
                0x00001365       0x2e c:/program files (x86)/gnu tools arm embedded/4.9 2015q2/bin/../lib/gcc/arm-none-eabi/4.9.3/../../../../arm-none-eabi/lib/armv7e-m\libg.a(lib_a-lcltime_r.o)
 .ARM.attributes
                0x00001393       0x2e c:/program files (x86)/gnu tools arm embedded/4.9 2015q2/bin/../lib/gcc/arm-none-eabi/4.9.3/../../../../arm-none-eabi/lib/armv7e-m\libg.a(lib_a-memcmp.o)
 .ARM.attributes
                0x000013c1       0x1c c:/program files (x86)/gnu tools arm embedded/4.9 2015q2/bin/../lib/gcc/arm-none-eabi/4.9.3/../../../../arm-none-eabi/lib/armv7e-m\libg.a(lib_a-memcpy.o)
 .ARM.attributes
                0x000013dd       0x2e c:/program files (x86)/gnu tools arm embedded/4.9 2015q2/bin/../lib/gcc/arm-none-eabi/4.9.3/../../../../arm-none-eabi/lib/armv7e-m\libg.a(lib_a-memset.o)
 .ARM.attributes
                0x0000140b       0x2e c:/program files (x86)/gnu tools arm embedded/4.9 2015q2/bin/../lib/gcc/arm-none-eabi/4.9.3/../../../../arm-none-eabi/lib/armv7e-m\libg.a(lib_a-mktime.o)
 .ARM.attributes
                0x00001439       0x2e c:/program files (x86)/gnu tools arm embedded/4.9 2015q2/bin/../lib/gcc/arm-none-eabi/4.9.3/../../../../arm-none-eabi/lib/armv7e-m\libg.a(lib_a-month_lengths.o)
 .ARM.attributes
                0x00001467       0x2e c:/program files (x86)/gnu tools arm embedded/4.9 2015q2/bin/../lib/gcc/arm-none-eabi/4.9.3/../../../../arm-none-eabi/lib/armv7e-m\libg.a(lib_a-siprintf.o)
 .ARM.attributes
                0x00001495       0x2e c:/program files (x86)/gnu tools arm embedded/4.9 2015q2/bin/../lib/gcc/arm-none-eabi/4.9.3/../../../../arm-none-eabi/lib/armv7e-m\libg.a(lib_a-strcasecmp.o)
 .ARM.attributes
                0x000014c3       0x1c c:/program files (x86)/gnu tools arm embedded/4.9 2015q2/bin/../lib/gcc/arm-none-eabi/4.9.3/../../../../arm-none-eabi/lib/armv7e-m\libg.a(lib_a-strcmp.o)
 .ARM.attributes
                0x000014df       0x2e c:/program files (x86)/gnu tools arm embedded/4.9 2015q2/bin/../lib/gcc/arm-none-eabi/4.9.3/../../../../arm-none-eabi/lib/armv7e-m\libg.a(lib_a-strcpy.o)
 .ARM.attributes
                0x0000150d       0x2e c:/program files (x86)/gnu tools arm embedded/4.9 2015q2/bin/../lib/gcc/arm-none-eabi/4.9.3/../../../../arm-none-eabi/lib/armv7e-m\libg.a(lib_a-strlen.o)
 .ARM.attributes
                0x0000153b       0x2e c:/program files (x86)/gnu tools arm embedded/4.9 2015q2/bin/../lib/gcc/arm-none-eabi/4.9.3/../../../../arm-none-eabi/lib/armv7e-m\libg.a(lib_a-strncpy.o)
 .ARM.attributes
                0x00001569       0x2e c:/program files (x86)/gnu tools arm embedded/4.9 2015q2/bin/../lib/gcc/arm-none-eabi/4.9.3/../../../../arm-none-eabi/lib/armv7e-m\libg.a(lib_a-strpbrk.o)
 .ARM.attributes
                0x00001597       0x2e c:/program files (x86)/gnu tools arm embedded/4.9 2015q2/bin/../lib/gcc/arm-none-eabi/4.9.3/../../../../arm-none-eabi/lib/armv7e-m\libg.a(lib_a-strspn.o)
 .ARM.attributes
                0x000015c5       0x2e c:/program files (x86)/gnu tools arm embedded/4.9 2015q2/bin/../lib/gcc/arm-none-eabi/4.9.3/../../../../arm-none-eabi/lib/armv7e-m\libg.a(lib_a-strtod.o)
 .ARM.attributes
                0x000015f3       0x2e c:/program files (x86)/gnu tools arm embedded/4.9 2015q2/bin/../lib/gcc/arm-none-eabi/4.9.3/../../../../arm-none-eabi/lib/armv7e-m\libg.a(lib_a-strtol.o)
 .ARM.attributes
                0x00001621       0x2e c:/program files (x86)/gnu tools arm embedded/4.9 2015q2/bin/../lib/gcc/arm-none-eabi/4.9.3/../../../../arm-none-eabi/lib/armv7e-m\libg.a(lib_a-svfiprintf.o)
 .ARM.attributes
                0x0000164f       0x2e c:/program files (x86)/gnu tools arm embedded/4.9 2015q2/bin/../lib/gcc/arm-none-eabi/4.9.3/../../../../arm-none-eabi/lib/armv7e-m\libg.a(lib_a-tzcalc_limits.o)
 .ARM.attributes
                0x0000167d       0x2e c:/program files (x86)/gnu tools arm embedded/4.9 2015q2/bin/../lib/gcc/arm-none-eabi/4.9.3/../../../../arm-none-eabi/lib/armv7e-m\libg.a(lib_a-tzlock.o)
 .ARM.attributes
                0x000016ab       0x2e c:/program files (x86)/gnu tools arm embedded/4.9 2015q2/bin/../lib/gcc/arm-none-eabi/4.9.3/../../../../arm-none-eabi/lib/armv7e-m\libg.a(lib_a-tzset.o)
 .ARM.attributes
                0x000016d9       0x2e c:/program files (x86)/gnu tools arm embedded/4.9 2015q2/bin/../lib/gcc/arm-none-eabi/4.9.3/../../../../arm-none-eabi/lib/armv7e-m\libg.a(lib_a-tzset_r.o)
 .ARM.attributes
                0x00001707       0x2e c:/program files (x86)/gnu tools arm embedded/4.9 2015q2/bin/../lib/gcc/arm-none-eabi/4.9.3/../../../../arm-none-eabi/lib/armv7e-m\libg.a(lib_a-tzvars.o)
 .ARM.attributes
                0x00001735       0x2e c:/program files (x86)/gnu tools arm embedded/4.9 2015q2/bin/../lib/gcc/arm-none-eabi/4.9.3/../../../../arm-none-eabi/lib/armv7e-m\libg.a(lib_a-ctype_.o)
 .ARM.attributes
                0x00001763       0x2e c:/program files (x86)/gnu tools arm embedded/4.9 2015q2/bin/../lib/gcc/arm-none-eabi/4.9.3/../../../../arm-none-eabi/lib/armv7e-m\libg.a(lib_a-div.o)
 .ARM.attributes
                0x00001791       0x2e c:/program files (x86)/gnu tools arm embedded/4.9 2015q2/bin/../lib/gcc/arm-none-eabi/4.9.3/../../../../arm-none-eabi/lib/armv7e-m\libg.a(lib_a-freer.o)
 .ARM.attributes
                0x000017bf       0x2e c:/program files (x86)/gnu tools arm embedded/4.9 2015q2/bin/../lib/gcc/arm-none-eabi/4.9.3/../../../../arm-none-eabi/lib/armv7e-m\libg.a(lib_a-gdtoa-gethex.o)
 .ARM.attributes
                0x000017ed       0x2e c:/program files (x86)/gnu tools arm embedded/4.9 2015q2/bin/../lib/gcc/arm-none-eabi/4.9.3/../../../../arm-none-eabi/lib/armv7e-m\libg.a(lib_a-gdtoa-hexnan.o)
 .ARM.attributes
                0x0000181b       0x2e c:/program files (x86)/gnu tools arm embedded/4.9 2015q2/bin/../lib/gcc/arm-none-eabi/4.9.3/../../../../arm-none-eabi/lib/armv7e-m\libg.a(lib_a-getenv_r.o)
 .ARM.attributes
                0x00001849       0x2e c:/program files (x86)/gnu tools arm embedded/4.9 2015q2/bin/../lib/gcc/arm-none-eabi/4.9.3/../../../../arm-none-eabi/lib/armv7e-m\libg.a(lib_a-gettzinfo.o)
 .ARM.attributes
                0x00001877       0x2e c:/program files (x86)/gnu tools arm embedded/4.9 2015q2/bin/../lib/gcc/arm-none-eabi/4.9.3/../../../../arm-none-eabi/lib/armv7e-m\libg.a(lib_a-gmtime_r.o)
 .ARM.attributes
                0x000018a5       0x2e c:/program files (x86)/gnu tools arm embedded/4.9 2015q2/bin/../lib/gcc/arm-none-eabi/4.9.3/../../../../arm-none-eabi/lib/armv7e-m\libg.a(lib_a-locale.o)
 .ARM.attributes
                0x000018d3       0x2e c:/program files (x86)/gnu tools arm embedded/4.9 2015q2/bin/../lib/gcc/arm-none-eabi/4.9.3/../../../../arm-none-eabi/lib/armv7e-m\libg.a(lib_a-malloc.o)
 .ARM.attributes
                0x00001901       0x2e c:/program files (x86)/gnu tools arm embedded/4.9 2015q2/bin/../lib/gcc/arm-none-eabi/4.9.3/../../../../arm-none-eabi/lib/armv7e-m\libg.a(lib_a-mallocr.o)
 .ARM.attributes
                0x0000192f       0x2e c:/program files (x86)/gnu tools arm embedded/4.9 2015q2/bin/../lib/gcc/arm-none-eabi/4.9.3/../../../../arm-none-eabi/lib/armv7e-m\libg.a(lib_a-memchr.o)
 .ARM.attributes
                0x0000195d       0x2e c:/program files (x86)/gnu tools arm embedded/4.9 2015q2/bin/../lib/gcc/arm-none-eabi/4.9.3/../../../../arm-none-eabi/lib/armv7e-m\libg.a(lib_a-memmove.o)
 .ARM.attributes
                0x0000198b       0x2e c:/program files (x86)/gnu tools arm embedded/4.9 2015q2/bin/../lib/gcc/arm-none-eabi/4.9.3/../../../../arm-none-eabi/lib/armv7e-m\libg.a(lib_a-mlock.o)
 .ARM.attributes
                0x000019b9       0x2e c:/program files (x86)/gnu tools arm embedded/4.9 2015q2/bin/../lib/gcc/arm-none-eabi/4.9.3/../../../../arm-none-eabi/lib/armv7e-m\libg.a(lib_a-mprec.o)
 .ARM.attributes
                0x000019e7       0x2e c:/program files (x86)/gnu tools arm embedded/4.9 2015q2/bin/../lib/gcc/arm-none-eabi/4.9.3/../../../../arm-none-eabi/lib/armv7e-m\libg.a(lib_a-reallocr.o)
 .ARM.attributes
                0x00001a15       0x2e c:/program files (x86)/gnu tools arm embedded/4.9 2015q2/bin/../lib/gcc/arm-none-eabi/4.9.3/../../../../arm-none-eabi/lib/armv7e-m\libg.a(lib_a-siscanf.o)
 .ARM.attributes
                0x00001a43       0x2e c:/program files (x86)/gnu tools arm embedded/4.9 2015q2/bin/../lib/gcc/arm-none-eabi/4.9.3/../../../../arm-none-eabi/lib/armv7e-m\libg.a(lib_a-stdio.o)
 .ARM.attributes
                0x00001a71       0x2e c:/program files (x86)/gnu tools arm embedded/4.9 2015q2/bin/../lib/gcc/arm-none-eabi/4.9.3/../../../../arm-none-eabi/lib/armv7e-m\libg.a(lib_a-strncmp.o)
 .ARM.attributes
                0x00001a9f       0x2e c:/program files (x86)/gnu tools arm embedded/4.9 2015q2/bin/../lib/gcc/arm-none-eabi/4.9.3/../../../../arm-none-eabi/lib/armv7e-m\libg.a(lib_a-strtoul.o)
 .ARM.attributes
                0x00001acd       0x2e c:/program files (x86)/gnu tools arm embedded/4.9 2015q2/bin/../lib/gcc/arm-none-eabi/4.9.3/../../../../arm-none-eabi/lib/armv7e-m\libg.a(lib_a-svfiscanf.o)
 .ARM.attributes
                0x00001afb       0x2e c:/program files (x86)/gnu tools arm embedded/4.9 2015q2/bin/../lib/gcc/arm-none-eabi/4.9.3/../../../../arm-none-eabi/lib/armv7e-m\libg.a(lib_a-ungetc.o)
 .ARM.attributes
                0x00001b29       0x2e c:/program files (x86)/gnu tools arm embedded/4.9 2015q2/bin/../lib/gcc/arm-none-eabi/4.9.3/../../../../arm-none-eabi/lib/armv7e-m\libg.a(lib_a-callocr.o)
 .ARM.attributes
                0x00001b57       0x2e c:/program files (x86)/gnu tools arm embedded/4.9 2015q2/bin/../lib/gcc/arm-none-eabi/4.9.3/../../../../arm-none-eabi/lib/armv7e-m\libg.a(lib_a-environ.o)
 .ARM.attributes
                0x00001b85       0x2e c:/program files (x86)/gnu tools arm embedded/4.9 2015q2/bin/../lib/gcc/arm-none-eabi/4.9.3/../../../../arm-none-eabi/lib/armv7e-m\libg.a(lib_a-envlock.o)
 .ARM.attributes
                0x00001bb3       0x2e c:/program files (x86)/gnu tools arm embedded/4.9 2015q2/bin/../lib/gcc/arm-none-eabi/4.9.3/../../../../arm-none-eabi/lib/armv7e-m\libg.a(lib_a-iswspace.o)
 .ARM.attributes
                0x00001be1       0x2e c:/program files (x86)/gnu tools arm embedded/4.9 2015q2/bin/../lib/gcc/arm-none-eabi/4.9.3/../../../../arm-none-eabi/lib/armv7e-m\libg.a(lib_a-mbrtowc.o)
 .ARM.attributes
                0x00001c0f       0x2e c:/program files (x86)/gnu tools arm embedded/4.9 2015q2/bin/../lib/gcc/arm-none-eabi/4.9.3/../../../../arm-none-eabi/lib/armv7e-m\libg.a(lib_a-mbtowc_r.o)
 .ARM.attributes
                0x00001c3d       0x2e c:/program files (x86)/gnu tools arm embedded/4.9 2015q2/bin/../lib/gcc/arm-none-eabi/4.9.3/../../../../arm-none-eabi/lib/armv7e-m\libg.a(lib_a-sccl.o)
 .ARM.attributes
                0x00001c6b       0x2e c:/program files (x86)/gnu tools arm embedded/4.9 2015q2/bin/../lib/gcc/arm-none-eabi/4.9.3/../../../../arm-none-eabi/lib/armv7e-m\libg.a(lib_a-strtoll_r.o)
 .ARM.attributes
                0x00001c99       0x2e c:/program files (x86)/gnu tools arm embedded/4.9 2015q2/bin/../lib/gcc/arm-none-eabi/4.9.3/../../../../arm-none-eabi/lib/armv7e-m\libg.a(lib_a-strtoull_r.o)
 .ARM.attributes
                0x00001cc7       0x1e c:/program files (x86)/gnu tools arm embedded/4.9 2015q2/bin/../lib/gcc/arm-none-eabi/4.9.3/armv7e-m\libgcc.a(_aeabi_uldivmod.o)
 .ARM.attributes
                0x00001ce5       0x2e c:/program files (x86)/gnu tools arm embedded/4.9 2015q2/bin/../lib/gcc/arm-none-eabi/4.9.3/armv7e-m\libgcc.a(bpabi.o)
 .ARM.attributes
                0x00001d13       0x1e c:/program files (x86)/gnu tools arm embedded/4.9 2015q2/bin/../lib/gcc/arm-none-eabi/4.9.3/armv7e-m\libgcc.a(_dvmd_tls.o)
 .ARM.attributes
                0x00001d31       0x2e c:/program files (x86)/gnu tools arm embedded/4.9 2015q2/bin/../lib/gcc/arm-none-eabi/4.9.3/armv7e-m\libgcc.a(_divdi3.o)
 .ARM.attributes
                0x00001d5f       0x2e c:/program files (x86)/gnu tools arm embedded/4.9 2015q2/bin/../lib/gcc/arm-none-eabi/4.9.3/armv7e-m\libgcc.a(_udivdi3.o)

.debug_frame    0x00000000     0x8464
 .debug_frame   0x00000000       0x50 ../../build/obj/crt0.o
 .debug_frame   0x00000050       0x20 ../../build/obj/vectors.o
 .debug_frame   0x00000070       0x20 ../../build/obj/chcore.o
 .debug_frame   0x00000090       0xa0 ../../build/obj/chcore_v7m.o
 .debug_frame   0x00000130       0x74 ../../build/obj/nvic.o
 .debug_frame   0x000001a4       0x5c ../../build/obj/chsys.o
 .debug_frame   0x00000200       0x58 ../../build/obj/chvt.o
 .debug_frame   0x00000258      0x15c ../../build/obj/chschd.o
 .debug_frame   0x000003b4      0x194 ../../build/obj/chthreads.o
 .debug_frame   0x00000548       0x84 ../../build/obj/chdynamic.o
 .debug_frame   0x000005cc       0x3c ../../build/obj/chregistry.o
 .debug_frame   0x00000608      0x14c ../../build/obj/chsem.o
 .debug_frame   0x00000754       0xec ../../build/obj/chmtx.o
 .debug_frame   0x00000840      0x118 ../../build/obj/chcond.o
 .debug_frame   0x00000958      0x1dc ../../build/obj/chevents.o
 .debug_frame   0x00000b34       0x68 ../../build/obj/chmsg.o
 .debug_frame   0x00000b9c      0x160 ../../build/obj/chmboxes.o
 .debug_frame   0x00000cfc      0x190 ../../build/obj/chqueues.o
 .debug_frame   0x00000e8c       0x68 ../../build/obj/chmemcore.o
 .debug_frame   0x00000ef4       0xb4 ../../build/obj/chheap.o
 .debug_frame   0x00000fa8       0x7c ../../build/obj/chmempools.o
 .debug_frame   0x00001024      0x238 ../../build/obj/test.o
 .debug_frame   0x0000125c       0xf0 ../../build/obj/testthd.o
 .debug_frame   0x0000134c      0x180 ../../build/obj/testsem.o
 .debug_frame   0x000014cc      0x458 ../../build/obj/testmtx.o
 .debug_frame   0x00001924       0x54 ../../build/obj/testmsg.o
 .debug_frame   0x00001978       0x4c ../../build/obj/testmbox.o
 .debug_frame   0x000019c4      0x124 ../../build/obj/testevt.o
 .debug_frame   0x00001ae8       0x4c ../../build/obj/testheap.o
 .debug_frame   0x00001b34       0x5c ../../build/obj/testpools.o
 .debug_frame   0x00001b90      0x104 ../../build/obj/testdyn.o
 .debug_frame   0x00001c94      0x118 ../../build/obj/testqueues.o
 .debug_frame   0x00001dac      0x364 ../../build/obj/testbmk.o
 .debug_frame   0x00002110       0x50 ../../build/obj/hal.o
 .debug_frame   0x00002160      0x128 ../../build/obj/adc.o
 .debug_frame   0x00002288      0x104 ../../build/obj/can.o
 .debug_frame   0x0000238c      0x118 ../../build/obj/gpt.o
 .debug_frame   0x000024a4       0xec ../../build/obj/i2c.o
 .debug_frame   0x00002590       0xa0 ../../build/obj/icu.o
 .debug_frame   0x00002630       0x20 ../../build/obj/mmcsd.o
 .debug_frame   0x00002650       0xb0 ../../build/obj/pwm.o
 .debug_frame   0x00002700       0xa0 ../../build/obj/rtc.o
 .debug_frame   0x000027a0      0x184 ../../build/obj/sdc.o
 .debug_frame   0x00002924      0x14c ../../build/obj/serial.o
 .debug_frame   0x00002a70      0x1e8 ../../build/obj/serial_usb.o
 .debug_frame   0x00002c58      0x1a8 ../../build/obj/spi.o
 .debug_frame   0x00002e00       0x74 ../../build/obj/tm.o
 .debug_frame   0x00002e74      0x234 ../../build/obj/usb.o
 .debug_frame   0x000030a8      0x274 ../../build/obj/stm32_dma.o
 .debug_frame   0x0000331c       0x50 ../../build/obj/hal_lld.o
 .debug_frame   0x0000336c      0x16c ../../build/obj/adc_lld.o
 .debug_frame   0x000034d8      0x1cc ../../build/obj/can_lld.o
 .debug_frame   0x000036a4      0x2ac ../../build/obj/sdc_lld.o
 .debug_frame   0x00003950       0x70 ../../build/obj/pal_lld.o
 .debug_frame   0x000039c0      0x1f8 ../../build/obj/i2c_lld.o
 .debug_frame   0x00003bb8      0x2c4 ../../build/obj/usb_lld.o
 .debug_frame   0x00003e7c       0xc0 ../../build/obj/rtc_lld.o
 .debug_frame   0x00003f3c      0x168 ../../build/obj/spi_lld.o
 .debug_frame   0x000040a4       0xb4 ../../build/obj/gpt_lld.o
 .debug_frame   0x00004158      0x110 ../../build/obj/icu_lld.o
 .debug_frame   0x00004268      0x108 ../../build/obj/pwm_lld.o
 .debug_frame   0x00004370      0x118 ../../build/obj/serial_lld.o
 .debug_frame   0x00004488       0x30 ../../build/obj/board.o
 .debug_frame   0x000044b8       0xbc ../../build/obj/fatfs_diskio.o
 .debug_frame   0x00004574       0x30 ../../build/obj/fatfs_syscall.o
 .debug_frame   0x000045a4      0x808 ../../build/obj/ff.o
 .debug_frame   0x00004dac       0x44 ../../build/obj/ccsbcs.o
 .debug_frame   0x00004df0       0xa8 ../../build/obj/syscalls.o
 .debug_frame   0x00004e98      0x194 ../../build/obj/shell2.o
 .debug_frame   0x0000502c       0xb4 ../../build/obj/chprintf.o
 .debug_frame   0x000050e0      0x110 ../../build/obj/chrtclib.o
 .debug_frame   0x000051f0       0x70 ../../build/obj/main.o
 .debug_frame   0x00005260      0x1f0 ../../build/obj/console.o
 .debug_frame   0x00005450      0x12c ../../build/obj/eeprom.o
 .debug_frame   0x0000557c      0x278 ../../build/obj/sdcard.o
 .debug_frame   0x000057f4      0x284 ../../build/obj/log.o
 .debug_frame   0x00005a78      0x254 ../../build/obj/can_comm.o
 .debug_frame   0x00005ccc      0x258 ../../build/obj/light.o
 .debug_frame   0x00005f24      0x2c0 ../../build/obj/speed.o
 .debug_frame   0x000061e4      0x2cc ../../build/obj/meas.o
 .debug_frame   0x000064b0      0x3c8 ../../build/obj/cruise.o
 .debug_frame   0x00006878      0x200 ../../build/obj/dsp.o
 .debug_frame   0x00006a78      0x2e8 ../../build/obj/gfx.o
 .debug_frame   0x00006d60       0x20 ../../build/obj/uart_comm.o
 .debug_frame   0x00006d80       0xcc ../../build/obj/button.o
 .debug_frame   0x00006e4c       0x88 ../../build/obj/brake.o
 .debug_frame   0x00006ed4      0x110 ../../build/obj/safety.o
 .debug_frame   0x00006fe4       0xf4 ../../build/obj/calc.o
 .debug_frame   0x000070d8      0x170 ../../build/obj/nmea.o
 .debug_frame   0x00007248       0x20 c:/program files (x86)/gnu tools arm embedded/4.9 2015q2/bin/../lib/gcc/arm-none-eabi/4.9.3/../../../../arm-none-eabi/lib/armv7e-m\libg.a(lib_a-asctime.o)
 .debug_frame   0x00007268       0x34 c:/program files (x86)/gnu tools arm embedded/4.9 2015q2/bin/../lib/gcc/arm-none-eabi/4.9.3/../../../../arm-none-eabi/lib/armv7e-m\libg.a(lib_a-asctime_r.o)
 .debug_frame   0x0000729c       0x20 c:/program files (x86)/gnu tools arm embedded/4.9 2015q2/bin/../lib/gcc/arm-none-eabi/4.9.3/../../../../arm-none-eabi/lib/armv7e-m\libg.a(lib_a-atof.o)
 .debug_frame   0x000072bc       0x30 c:/program files (x86)/gnu tools arm embedded/4.9 2015q2/bin/../lib/gcc/arm-none-eabi/4.9.3/../../../../arm-none-eabi/lib/armv7e-m\libg.a(lib_a-atoi.o)
 .debug_frame   0x000072ec       0x30 c:/program files (x86)/gnu tools arm embedded/4.9 2015q2/bin/../lib/gcc/arm-none-eabi/4.9.3/../../../../arm-none-eabi/lib/armv7e-m\libg.a(lib_a-atol.o)
 .debug_frame   0x0000731c       0x34 c:/program files (x86)/gnu tools arm embedded/4.9 2015q2/bin/../lib/gcc/arm-none-eabi/4.9.3/../../../../arm-none-eabi/lib/armv7e-m\libg.a(lib_a-lcltime_r.o)
 .debug_frame   0x00007350       0x38 c:/program files (x86)/gnu tools arm embedded/4.9 2015q2/bin/../lib/gcc/arm-none-eabi/4.9.3/../../../../arm-none-eabi/lib/armv7e-m\libg.a(lib_a-memcmp.o)
 .debug_frame   0x00007388       0x34 c:/program files (x86)/gnu tools arm embedded/4.9 2015q2/bin/../lib/gcc/arm-none-eabi/4.9.3/../../../../arm-none-eabi/lib/armv7e-m\libg.a(lib_a-memset.o)
 .debug_frame   0x000073bc       0x64 c:/program files (x86)/gnu tools arm embedded/4.9 2015q2/bin/../lib/gcc/arm-none-eabi/4.9.3/../../../../arm-none-eabi/lib/armv7e-m\libg.a(lib_a-mktime.o)
 .debug_frame   0x00007420       0x84 c:/program files (x86)/gnu tools arm embedded/4.9 2015q2/bin/../lib/gcc/arm-none-eabi/4.9.3/../../../../arm-none-eabi/lib/armv7e-m\libg.a(lib_a-siprintf.o)
 .debug_frame   0x000074a4       0x2c c:/program files (x86)/gnu tools arm embedded/4.9 2015q2/bin/../lib/gcc/arm-none-eabi/4.9.3/../../../../arm-none-eabi/lib/armv7e-m\libg.a(lib_a-strcasecmp.o)
 .debug_frame   0x000074d0       0x20 c:/program files (x86)/gnu tools arm embedded/4.9 2015q2/bin/../lib/gcc/arm-none-eabi/4.9.3/../../../../arm-none-eabi/lib/armv7e-m\libg.a(lib_a-strcpy.o)
 .debug_frame   0x000074f0       0x20 c:/program files (x86)/gnu tools arm embedded/4.9 2015q2/bin/../lib/gcc/arm-none-eabi/4.9.3/../../../../arm-none-eabi/lib/armv7e-m\libg.a(lib_a-strlen.o)
 .debug_frame   0x00007510       0x34 c:/program files (x86)/gnu tools arm embedded/4.9 2015q2/bin/../lib/gcc/arm-none-eabi/4.9.3/../../../../arm-none-eabi/lib/armv7e-m\libg.a(lib_a-strncpy.o)
 .debug_frame   0x00007544       0x34 c:/program files (x86)/gnu tools arm embedded/4.9 2015q2/bin/../lib/gcc/arm-none-eabi/4.9.3/../../../../arm-none-eabi/lib/armv7e-m\libg.a(lib_a-strpbrk.o)
 .debug_frame   0x00007578       0x34 c:/program files (x86)/gnu tools arm embedded/4.9 2015q2/bin/../lib/gcc/arm-none-eabi/4.9.3/../../../../arm-none-eabi/lib/armv7e-m\libg.a(lib_a-strspn.o)
 .debug_frame   0x000075ac       0x94 c:/program files (x86)/gnu tools arm embedded/4.9 2015q2/bin/../lib/gcc/arm-none-eabi/4.9.3/../../../../arm-none-eabi/lib/armv7e-m\libg.a(lib_a-strtod.o)
 .debug_frame   0x00007640       0x54 c:/program files (x86)/gnu tools arm embedded/4.9 2015q2/bin/../lib/gcc/arm-none-eabi/4.9.3/../../../../arm-none-eabi/lib/armv7e-m\libg.a(lib_a-strtol.o)
 .debug_frame   0x00007694       0x78 c:/program files (x86)/gnu tools arm embedded/4.9 2015q2/bin/../lib/gcc/arm-none-eabi/4.9.3/../../../../arm-none-eabi/lib/armv7e-m\libg.a(lib_a-svfiprintf.o)
 .debug_frame   0x0000770c       0x48 c:/program files (x86)/gnu tools arm embedded/4.9 2015q2/bin/../lib/gcc/arm-none-eabi/4.9.3/../../../../arm-none-eabi/lib/armv7e-m\libg.a(lib_a-tzcalc_limits.o)
 .debug_frame   0x00007754       0x30 c:/program files (x86)/gnu tools arm embedded/4.9 2015q2/bin/../lib/gcc/arm-none-eabi/4.9.3/../../../../arm-none-eabi/lib/armv7e-m\libg.a(lib_a-tzlock.o)
 .debug_frame   0x00007784       0x3c c:/program files (x86)/gnu tools arm embedded/4.9 2015q2/bin/../lib/gcc/arm-none-eabi/4.9.3/../../../../arm-none-eabi/lib/armv7e-m\libg.a(lib_a-tzset.o)
 .debug_frame   0x000077c0       0x60 c:/program files (x86)/gnu tools arm embedded/4.9 2015q2/bin/../lib/gcc/arm-none-eabi/4.9.3/../../../../arm-none-eabi/lib/armv7e-m\libg.a(lib_a-tzset_r.o)
 .debug_frame   0x00007820       0x38 c:/program files (x86)/gnu tools arm embedded/4.9 2015q2/bin/../lib/gcc/arm-none-eabi/4.9.3/../../../../arm-none-eabi/lib/armv7e-m\libg.a(lib_a-div.o)
 .debug_frame   0x00007858       0x74 c:/program files (x86)/gnu tools arm embedded/4.9 2015q2/bin/../lib/gcc/arm-none-eabi/4.9.3/../../../../arm-none-eabi/lib/armv7e-m\libg.a(lib_a-freer.o)
 .debug_frame   0x000078cc       0x6c c:/program files (x86)/gnu tools arm embedded/4.9 2015q2/bin/../lib/gcc/arm-none-eabi/4.9.3/../../../../arm-none-eabi/lib/armv7e-m\libg.a(lib_a-gdtoa-gethex.o)
 .debug_frame   0x00007938       0x4c c:/program files (x86)/gnu tools arm embedded/4.9 2015q2/bin/../lib/gcc/arm-none-eabi/4.9.3/../../../../arm-none-eabi/lib/armv7e-m\libg.a(lib_a-gdtoa-hexnan.o)
 .debug_frame   0x00007984       0x50 c:/program files (x86)/gnu tools arm embedded/4.9 2015q2/bin/../lib/gcc/arm-none-eabi/4.9.3/../../../../arm-none-eabi/lib/armv7e-m\libg.a(lib_a-getenv_r.o)
 .debug_frame   0x000079d4       0x20 c:/program files (x86)/gnu tools arm embedded/4.9 2015q2/bin/../lib/gcc/arm-none-eabi/4.9.3/../../../../arm-none-eabi/lib/armv7e-m\libg.a(lib_a-gettzinfo.o)
 .debug_frame   0x000079f4       0x30 c:/program files (x86)/gnu tools arm embedded/4.9 2015q2/bin/../lib/gcc/arm-none-eabi/4.9.3/../../../../arm-none-eabi/lib/armv7e-m\libg.a(lib_a-gmtime_r.o)
 .debug_frame   0x00007a24       0x9c c:/program files (x86)/gnu tools arm embedded/4.9 2015q2/bin/../lib/gcc/arm-none-eabi/4.9.3/../../../../arm-none-eabi/lib/armv7e-m\libg.a(lib_a-locale.o)
 .debug_frame   0x00007ac0       0x30 c:/program files (x86)/gnu tools arm embedded/4.9 2015q2/bin/../lib/gcc/arm-none-eabi/4.9.3/../../../../arm-none-eabi/lib/armv7e-m\libg.a(lib_a-malloc.o)
 .debug_frame   0x00007af0       0x58 c:/program files (x86)/gnu tools arm embedded/4.9 2015q2/bin/../lib/gcc/arm-none-eabi/4.9.3/../../../../arm-none-eabi/lib/armv7e-m\libg.a(lib_a-mallocr.o)
 .debug_frame   0x00007b48       0x3c c:/program files (x86)/gnu tools arm embedded/4.9 2015q2/bin/../lib/gcc/arm-none-eabi/4.9.3/../../../../arm-none-eabi/lib/armv7e-m\libg.a(lib_a-memchr.o)
 .debug_frame   0x00007b84       0x30 c:/program files (x86)/gnu tools arm embedded/4.9 2015q2/bin/../lib/gcc/arm-none-eabi/4.9.3/../../../../arm-none-eabi/lib/armv7e-m\libg.a(lib_a-memmove.o)
 .debug_frame   0x00007bb4       0x30 c:/program files (x86)/gnu tools arm embedded/4.9 2015q2/bin/../lib/gcc/arm-none-eabi/4.9.3/../../../../arm-none-eabi/lib/armv7e-m\libg.a(lib_a-mlock.o)
 .debug_frame   0x00007be4      0x268 c:/program files (x86)/gnu tools arm embedded/4.9 2015q2/bin/../lib/gcc/arm-none-eabi/4.9.3/../../../../arm-none-eabi/lib/armv7e-m\libg.a(lib_a-mprec.o)
 .debug_frame   0x00007e4c       0x60 c:/program files (x86)/gnu tools arm embedded/4.9 2015q2/bin/../lib/gcc/arm-none-eabi/4.9.3/../../../../arm-none-eabi/lib/armv7e-m\libg.a(lib_a-reallocr.o)
 .debug_frame   0x00007eac       0x84 c:/program files (x86)/gnu tools arm embedded/4.9 2015q2/bin/../lib/gcc/arm-none-eabi/4.9.3/../../../../arm-none-eabi/lib/armv7e-m\libg.a(lib_a-siscanf.o)
 .debug_frame   0x00007f30       0x88 c:/program files (x86)/gnu tools arm embedded/4.9 2015q2/bin/../lib/gcc/arm-none-eabi/4.9.3/../../../../arm-none-eabi/lib/armv7e-m\libg.a(lib_a-stdio.o)
 .debug_frame   0x00007fb8       0x54 c:/program files (x86)/gnu tools arm embedded/4.9 2015q2/bin/../lib/gcc/arm-none-eabi/4.9.3/../../../../arm-none-eabi/lib/armv7e-m\libg.a(lib_a-strncmp.o)
 .debug_frame   0x0000800c       0x54 c:/program files (x86)/gnu tools arm embedded/4.9 2015q2/bin/../lib/gcc/arm-none-eabi/4.9.3/../../../../arm-none-eabi/lib/armv7e-m\libg.a(lib_a-strtoul.o)
 .debug_frame   0x00008060       0xd0 c:/program files (x86)/gnu tools arm embedded/4.9 2015q2/bin/../lib/gcc/arm-none-eabi/4.9.3/../../../../arm-none-eabi/lib/armv7e-m\libg.a(lib_a-svfiscanf.o)
 .debug_frame   0x00008130       0x5c c:/program files (x86)/gnu tools arm embedded/4.9 2015q2/bin/../lib/gcc/arm-none-eabi/4.9.3/../../../../arm-none-eabi/lib/armv7e-m\libg.a(lib_a-ungetc.o)
 .debug_frame   0x0000818c       0x28 c:/program files (x86)/gnu tools arm embedded/4.9 2015q2/bin/../lib/gcc/arm-none-eabi/4.9.3/../../../../arm-none-eabi/lib/armv7e-m\libg.a(lib_a-callocr.o)
 .debug_frame   0x000081b4       0x30 c:/program files (x86)/gnu tools arm embedded/4.9 2015q2/bin/../lib/gcc/arm-none-eabi/4.9.3/../../../../arm-none-eabi/lib/armv7e-m\libg.a(lib_a-envlock.o)
 .debug_frame   0x000081e4       0x20 c:/program files (x86)/gnu tools arm embedded/4.9 2015q2/bin/../lib/gcc/arm-none-eabi/4.9.3/../../../../arm-none-eabi/lib/armv7e-m\libg.a(lib_a-iswspace.o)
 .debug_frame   0x00008204       0x68 c:/program files (x86)/gnu tools arm embedded/4.9 2015q2/bin/../lib/gcc/arm-none-eabi/4.9.3/../../../../arm-none-eabi/lib/armv7e-m\libg.a(lib_a-mbrtowc.o)
 .debug_frame   0x0000826c       0x58 c:/program files (x86)/gnu tools arm embedded/4.9 2015q2/bin/../lib/gcc/arm-none-eabi/4.9.3/../../../../arm-none-eabi/lib/armv7e-m\libg.a(lib_a-mbtowc_r.o)
 .debug_frame   0x000082c4       0x44 c:/program files (x86)/gnu tools arm embedded/4.9 2015q2/bin/../lib/gcc/arm-none-eabi/4.9.3/../../../../arm-none-eabi/lib/armv7e-m\libg.a(lib_a-sccl.o)
 .debug_frame   0x00008308       0x40 c:/program files (x86)/gnu tools arm embedded/4.9 2015q2/bin/../lib/gcc/arm-none-eabi/4.9.3/../../../../arm-none-eabi/lib/armv7e-m\libg.a(lib_a-strtoll_r.o)
 .debug_frame   0x00008348       0x40 c:/program files (x86)/gnu tools arm embedded/4.9 2015q2/bin/../lib/gcc/arm-none-eabi/4.9.3/../../../../arm-none-eabi/lib/armv7e-m\libg.a(lib_a-strtoull_r.o)
 .debug_frame   0x00008388       0x28 c:/program files (x86)/gnu tools arm embedded/4.9 2015q2/bin/../lib/gcc/arm-none-eabi/4.9.3/armv7e-m\libgcc.a(_aeabi_uldivmod.o)
 .debug_frame   0x000083b0       0x50 c:/program files (x86)/gnu tools arm embedded/4.9 2015q2/bin/../lib/gcc/arm-none-eabi/4.9.3/armv7e-m\libgcc.a(bpabi.o)
 .debug_frame   0x00008400       0x34 c:/program files (x86)/gnu tools arm embedded/4.9 2015q2/bin/../lib/gcc/arm-none-eabi/4.9.3/armv7e-m\libgcc.a(_divdi3.o)
 .debug_frame   0x00008434       0x30 c:/program files (x86)/gnu tools arm embedded/4.9 2015q2/bin/../lib/gcc/arm-none-eabi/4.9.3/armv7e-m\libgcc.a(_udivdi3.o)

Cross Reference Table

Symbol                                            File
ADCD2                                             ../../build/obj/adc_lld.o
                                                  ../../build/obj/meas.o
ADCD3                                             ../../build/obj/adc_lld.o
                                                  ../../build/obj/meas.o
BusFaultVector                                    ../../build/obj/vectors.o
CAND1                                             ../../build/obj/can_lld.o
                                                  ../../build/obj/can_comm.o
DebugMonitorVector                                ../../build/obj/vectors.o
DistanceMeas                                      ../../build/obj/speed.o
GPTD2                                             ../../build/obj/gpt_lld.o
                                                  ../../build/obj/safety.o
GetKmeterDistance                                 ../../build/obj/speed.o
                                                  ../../build/obj/can_comm.o
GetTotalKmeterDistance                            ../../build/obj/speed.o
                                                  ../../build/obj/can_comm.o
GetTotalMeter                                     ../../build/obj/speed.o
                                                  ../../build/obj/calc.o
HardFaultVector                                   ../../build/obj/vectors.o
I2CD1                                             ../../build/obj/i2c_lld.o
                                                  ../../build/obj/eeprom.o
ICUD1                                             ../../build/obj/icu_lld.o
                                                  ../../build/obj/speed.o
IOTCitems                                         ../../build/obj/log.o
                                                  ../../build/obj/can_comm.o
MemManageVector                                   ../../build/obj/vectors.o
NMIVector                                         ../../build/obj/vectors.o
PWMD4                                             ../../build/obj/pwm_lld.o
                                                  ../../build/obj/light.o
PWMD5                                             ../../build/obj/pwm_lld.o
                                                  ../../build/obj/cruise.o
PendSVVector                                      ../../build/obj/vectors.o
RTCD1                                             ../../build/obj/rtc_lld.o
                                                  ../../build/obj/calc.o
                                                  ../../build/obj/log.o
                                                  ../../build/obj/console.o
                                                  ../../build/obj/fatfs_diskio.o
ResetHandler                                      ../../build/obj/crt0.o
                                                  ../../build/obj/vectors.o
SD1                                               ../../build/obj/serial_lld.o
                                                  ../../build/obj/can_comm.o
                                                  ../../build/obj/console.o
                                                  ../../build/obj/syscalls.o
SD2                                               ../../build/obj/serial_lld.o
                                                  ../../build/obj/uart_comm.o
                                                  ../../build/obj/gfx.o
SD3                                               ../../build/obj/serial_lld.o
                                                  ../../build/obj/nmea.o
SDCD1                                             ../../build/obj/sdc_lld.o
                                                  ../../build/obj/sdcard.o
                                                  ../../build/obj/fatfs_diskio.o
SPID2                                             ../../build/obj/spi_lld.o
SVCallVector                                      ../../build/obj/chcore_v7m.o
                                                  ../../build/obj/vectors.o
SysTickVector                                     ../../build/obj/chcore_v7m.o
                                                  ../../build/obj/vectors.o
TestThread                                        ../../build/obj/test.o
                                                  ../../build/obj/console.o
TotalMeterZero                                    ../../build/obj/speed.o
                                                  ../../build/obj/calc.o
USBD1                                             ../../build/obj/usb_lld.o
UsageFaultVector                                  ../../build/obj/vectors.o
Vector100                                         ../../build/obj/vectors.o
Vector104                                         ../../build/obj/sdc_lld.o
                                                  ../../build/obj/vectors.o
Vector108                                         ../../build/obj/pwm_lld.o
                                                  ../../build/obj/vectors.o
Vector10C                                         ../../build/obj/vectors.o
Vector110                                         ../../build/obj/vectors.o
Vector114                                         ../../build/obj/vectors.o
Vector118                                         ../../build/obj/vectors.o
Vector11C                                         ../../build/obj/vectors.o
Vector120                                         ../../build/obj/stm32_dma.o
                                                  ../../build/obj/vectors.o
Vector124                                         ../../build/obj/stm32_dma.o
                                                  ../../build/obj/vectors.o
Vector128                                         ../../build/obj/stm32_dma.o
                                                  ../../build/obj/vectors.o
Vector12C                                         ../../build/obj/stm32_dma.o
                                                  ../../build/obj/vectors.o
Vector130                                         ../../build/obj/stm32_dma.o
                                                  ../../build/obj/vectors.o
Vector134                                         ../../build/obj/vectors.o
Vector138                                         ../../build/obj/vectors.o
Vector13C                                         ../../build/obj/vectors.o
Vector140                                         ../../build/obj/vectors.o
Vector144                                         ../../build/obj/vectors.o
Vector148                                         ../../build/obj/vectors.o
Vector14C                                         ../../build/obj/usb_lld.o
                                                  ../../build/obj/vectors.o
Vector150                                         ../../build/obj/stm32_dma.o
                                                  ../../build/obj/vectors.o
Vector154                                         ../../build/obj/stm32_dma.o
                                                  ../../build/obj/vectors.o
Vector158                                         ../../build/obj/stm32_dma.o
                                                  ../../build/obj/vectors.o
Vector15C                                         ../../build/obj/vectors.o
Vector160                                         ../../build/obj/vectors.o
Vector164                                         ../../build/obj/vectors.o
Vector168                                         ../../build/obj/vectors.o
Vector16C                                         ../../build/obj/vectors.o
Vector170                                         ../../build/obj/vectors.o
Vector174                                         ../../build/obj/vectors.o
Vector178                                         ../../build/obj/vectors.o
Vector17C                                         ../../build/obj/vectors.o
Vector180                                         ../../build/obj/vectors.o
Vector184                                         ../../build/obj/vectors.o
Vector188                                         ../../build/obj/vectors.o
Vector18C                                         ../../build/obj/vectors.o
Vector190                                         ../../build/obj/vectors.o
Vector194                                         ../../build/obj/vectors.o
Vector198                                         ../../build/obj/vectors.o
Vector19C                                         ../../build/obj/vectors.o
Vector1A0                                         ../../build/obj/vectors.o
Vector1A4                                         ../../build/obj/vectors.o
Vector1A8                                         ../../build/obj/vectors.o
Vector1C                                          ../../build/obj/vectors.o
Vector20                                          ../../build/obj/vectors.o
Vector24                                          ../../build/obj/vectors.o
Vector28                                          ../../build/obj/vectors.o
Vector34                                          ../../build/obj/vectors.o
Vector40                                          ../../build/obj/vectors.o
Vector44                                          ../../build/obj/vectors.o
Vector48                                          ../../build/obj/vectors.o
Vector4C                                          ../../build/obj/vectors.o
Vector50                                          ../../build/obj/vectors.o
Vector54                                          ../../build/obj/vectors.o
Vector58                                          ../../build/obj/vectors.o
Vector5C                                          ../../build/obj/vectors.o
Vector60                                          ../../build/obj/vectors.o
Vector64                                          ../../build/obj/vectors.o
Vector68                                          ../../build/obj/vectors.o
Vector6C                                          ../../build/obj/stm32_dma.o
                                                  ../../build/obj/vectors.o
Vector70                                          ../../build/obj/stm32_dma.o
                                                  ../../build/obj/vectors.o
Vector74                                          ../../build/obj/stm32_dma.o
                                                  ../../build/obj/vectors.o
Vector78                                          ../../build/obj/stm32_dma.o
                                                  ../../build/obj/vectors.o
Vector7C                                          ../../build/obj/stm32_dma.o
                                                  ../../build/obj/vectors.o
Vector80                                          ../../build/obj/stm32_dma.o
                                                  ../../build/obj/vectors.o
Vector84                                          ../../build/obj/stm32_dma.o
                                                  ../../build/obj/vectors.o
Vector88                                          ../../build/obj/adc_lld.o
                                                  ../../build/obj/vectors.o
Vector8C                                          ../../build/obj/can_lld.o
                                                  ../../build/obj/vectors.o
Vector90                                          ../../build/obj/can_lld.o
                                                  ../../build/obj/vectors.o
Vector94                                          ../../build/obj/can_lld.o
                                                  ../../build/obj/vectors.o
Vector98                                          ../../build/obj/can_lld.o
                                                  ../../build/obj/vectors.o
Vector9C                                          ../../build/obj/vectors.o
VectorA0                                          ../../build/obj/vectors.o
VectorA4                                          ../../build/obj/icu_lld.o
                                                  ../../build/obj/vectors.o
VectorA8                                          ../../build/obj/vectors.o
VectorAC                                          ../../build/obj/icu_lld.o
                                                  ../../build/obj/vectors.o
VectorB0                                          ../../build/obj/gpt_lld.o
                                                  ../../build/obj/vectors.o
VectorB4                                          ../../build/obj/vectors.o
VectorB8                                          ../../build/obj/pwm_lld.o
                                                  ../../build/obj/vectors.o
VectorBC                                          ../../build/obj/i2c_lld.o
                                                  ../../build/obj/vectors.o
VectorC0                                          ../../build/obj/i2c_lld.o
                                                  ../../build/obj/vectors.o
VectorC4                                          ../../build/obj/vectors.o
VectorC8                                          ../../build/obj/vectors.o
VectorCC                                          ../../build/obj/vectors.o
VectorD0                                          ../../build/obj/vectors.o
VectorD4                                          ../../build/obj/serial_lld.o
                                                  ../../build/obj/vectors.o
VectorD8                                          ../../build/obj/serial_lld.o
                                                  ../../build/obj/vectors.o
VectorDC                                          ../../build/obj/serial_lld.o
                                                  ../../build/obj/vectors.o
VectorE0                                          ../../build/obj/vectors.o
VectorE4                                          ../../build/obj/vectors.o
VectorE8                                          ../../build/obj/vectors.o
VectorEC                                          ../../build/obj/vectors.o
VectorF0                                          ../../build/obj/vectors.o
VectorF4                                          ../../build/obj/vectors.o
VectorF8                                          ../../build/obj/vectors.o
VectorFC                                          ../../build/obj/stm32_dma.o
                                                  ../../build/obj/vectors.o
WriteChars                                        ../../build/obj/gfx.o
_Balloc                                           c:/program files (x86)/gnu tools arm embedded/4.9 2015q2/bin/../lib/gcc/arm-none-eabi/4.9.3/../../../../arm-none-eabi/lib/armv7e-m\libg.a(lib_a-mprec.o)
                                                  c:/program files (x86)/gnu tools arm embedded/4.9 2015q2/bin/../lib/gcc/arm-none-eabi/4.9.3/../../../../arm-none-eabi/lib/armv7e-m\libg.a(lib_a-gdtoa-gethex.o)
                                                  c:/program files (x86)/gnu tools arm embedded/4.9 2015q2/bin/../lib/gcc/arm-none-eabi/4.9.3/../../../../arm-none-eabi/lib/armv7e-m\libg.a(lib_a-strtod.o)
_Bfree                                            c:/program files (x86)/gnu tools arm embedded/4.9 2015q2/bin/../lib/gcc/arm-none-eabi/4.9.3/../../../../arm-none-eabi/lib/armv7e-m\libg.a(lib_a-mprec.o)
                                                  c:/program files (x86)/gnu tools arm embedded/4.9 2015q2/bin/../lib/gcc/arm-none-eabi/4.9.3/../../../../arm-none-eabi/lib/armv7e-m\libg.a(lib_a-gdtoa-gethex.o)
                                                  c:/program files (x86)/gnu tools arm embedded/4.9 2015q2/bin/../lib/gcc/arm-none-eabi/4.9.3/../../../../arm-none-eabi/lib/armv7e-m\libg.a(lib_a-strtod.o)
_PathLocale                                       c:/program files (x86)/gnu tools arm embedded/4.9 2015q2/bin/../lib/gcc/arm-none-eabi/4.9.3/../../../../arm-none-eabi/lib/armv7e-m\libg.a(lib_a-locale.o)
__adddf3                                          c:/program files (x86)/gnu tools arm embedded/4.9 2015q2/bin/../lib/gcc/arm-none-eabi/4.9.3/armv7e-m\libgcc.a(_arm_addsubdf3.o)
__aeabi_cdcmpeq                                   c:/program files (x86)/gnu tools arm embedded/4.9 2015q2/bin/../lib/gcc/arm-none-eabi/4.9.3/armv7e-m\libgcc.a(_arm_cmpdf2.o)
__aeabi_cdcmple                                   c:/program files (x86)/gnu tools arm embedded/4.9 2015q2/bin/../lib/gcc/arm-none-eabi/4.9.3/armv7e-m\libgcc.a(_arm_cmpdf2.o)
__aeabi_cdrcmple                                  c:/program files (x86)/gnu tools arm embedded/4.9 2015q2/bin/../lib/gcc/arm-none-eabi/4.9.3/armv7e-m\libgcc.a(_arm_cmpdf2.o)
__aeabi_d2f                                       c:/program files (x86)/gnu tools arm embedded/4.9 2015q2/bin/../lib/gcc/arm-none-eabi/4.9.3/armv7e-m\libgcc.a(_arm_truncdfsf2.o)
                                                  c:/program files (x86)/gnu tools arm embedded/4.9 2015q2/bin/../lib/gcc/arm-none-eabi/4.9.3/../../../../arm-none-eabi/lib/armv7e-m\libg.a(lib_a-strtod.o)
__aeabi_d2iz                                      c:/program files (x86)/gnu tools arm embedded/4.9 2015q2/bin/../lib/gcc/arm-none-eabi/4.9.3/armv7e-m\libgcc.a(_arm_fixdfsi.o)
                                                  c:/program files (x86)/gnu tools arm embedded/4.9 2015q2/bin/../lib/gcc/arm-none-eabi/4.9.3/../../../../arm-none-eabi/lib/armv7e-m\libg.a(lib_a-strtod.o)
                                                  ../../build/obj/nmea.o
                                                  ../../build/obj/calc.o
                                                  ../../build/obj/cruise.o
                                                  ../../build/obj/meas.o
                                                  ../../build/obj/log.o
__aeabi_d2uiz                                     c:/program files (x86)/gnu tools arm embedded/4.9 2015q2/bin/../lib/gcc/arm-none-eabi/4.9.3/armv7e-m\libgcc.a(_arm_fixunsdfsi.o)
                                                  c:/program files (x86)/gnu tools arm embedded/4.9 2015q2/bin/../lib/gcc/arm-none-eabi/4.9.3/../../../../arm-none-eabi/lib/armv7e-m\libg.a(lib_a-strtod.o)
                                                  ../../build/obj/nmea.o
                                                  ../../build/obj/calc.o
                                                  ../../build/obj/speed.o
__aeabi_dadd                                      c:/program files (x86)/gnu tools arm embedded/4.9 2015q2/bin/../lib/gcc/arm-none-eabi/4.9.3/armv7e-m\libgcc.a(_arm_addsubdf3.o)
                                                  c:/program files (x86)/gnu tools arm embedded/4.9 2015q2/bin/../lib/gcc/arm-none-eabi/4.9.3/../../../../arm-none-eabi/lib/armv7e-m\libg.a(lib_a-strtod.o)
                                                  ../../build/obj/nmea.o
                                                  ../../build/obj/cruise.o
                                                  ../../build/obj/speed.o
__aeabi_dcmpeq                                    c:/program files (x86)/gnu tools arm embedded/4.9 2015q2/bin/../lib/gcc/arm-none-eabi/4.9.3/armv7e-m\libgcc.a(_arm_cmpdf2.o)
                                                  c:/program files (x86)/gnu tools arm embedded/4.9 2015q2/bin/../lib/gcc/arm-none-eabi/4.9.3/../../../../arm-none-eabi/lib/armv7e-m\libg.a(lib_a-strtod.o)
__aeabi_dcmpge                                    c:/program files (x86)/gnu tools arm embedded/4.9 2015q2/bin/../lib/gcc/arm-none-eabi/4.9.3/armv7e-m\libgcc.a(_arm_cmpdf2.o)
                                                  ../../build/obj/speed.o
__aeabi_dcmpgt                                    c:/program files (x86)/gnu tools arm embedded/4.9 2015q2/bin/../lib/gcc/arm-none-eabi/4.9.3/armv7e-m\libgcc.a(_arm_cmpdf2.o)
                                                  c:/program files (x86)/gnu tools arm embedded/4.9 2015q2/bin/../lib/gcc/arm-none-eabi/4.9.3/../../../../arm-none-eabi/lib/armv7e-m\libg.a(lib_a-strtod.o)
                                                  ../../build/obj/cruise.o
                                                  ../../build/obj/speed.o
__aeabi_dcmple                                    c:/program files (x86)/gnu tools arm embedded/4.9 2015q2/bin/../lib/gcc/arm-none-eabi/4.9.3/armv7e-m\libgcc.a(_arm_cmpdf2.o)
                                                  c:/program files (x86)/gnu tools arm embedded/4.9 2015q2/bin/../lib/gcc/arm-none-eabi/4.9.3/../../../../arm-none-eabi/lib/armv7e-m\libg.a(lib_a-strtod.o)
__aeabi_dcmplt                                    c:/program files (x86)/gnu tools arm embedded/4.9 2015q2/bin/../lib/gcc/arm-none-eabi/4.9.3/armv7e-m\libgcc.a(_arm_cmpdf2.o)
                                                  c:/program files (x86)/gnu tools arm embedded/4.9 2015q2/bin/../lib/gcc/arm-none-eabi/4.9.3/../../../../arm-none-eabi/lib/armv7e-m\libg.a(lib_a-strtod.o)
                                                  ../../build/obj/cruise.o
                                                  ../../build/obj/speed.o
__aeabi_ddiv                                      c:/program files (x86)/gnu tools arm embedded/4.9 2015q2/bin/../lib/gcc/arm-none-eabi/4.9.3/armv7e-m\libgcc.a(_arm_muldivdf3.o)
                                                  c:/program files (x86)/gnu tools arm embedded/4.9 2015q2/bin/../lib/gcc/arm-none-eabi/4.9.3/../../../../arm-none-eabi/lib/armv7e-m\libg.a(lib_a-mprec.o)
                                                  c:/program files (x86)/gnu tools arm embedded/4.9 2015q2/bin/../lib/gcc/arm-none-eabi/4.9.3/../../../../arm-none-eabi/lib/armv7e-m\libg.a(lib_a-strtod.o)
                                                  ../../build/obj/nmea.o
                                                  ../../build/obj/calc.o
                                                  ../../build/obj/speed.o
__aeabi_dmul                                      c:/program files (x86)/gnu tools arm embedded/4.9 2015q2/bin/../lib/gcc/arm-none-eabi/4.9.3/armv7e-m\libgcc.a(_arm_muldivdf3.o)
                                                  c:/program files (x86)/gnu tools arm embedded/4.9 2015q2/bin/../lib/gcc/arm-none-eabi/4.9.3/../../../../arm-none-eabi/lib/armv7e-m\libg.a(lib_a-mprec.o)
                                                  c:/program files (x86)/gnu tools arm embedded/4.9 2015q2/bin/../lib/gcc/arm-none-eabi/4.9.3/../../../../arm-none-eabi/lib/armv7e-m\libg.a(lib_a-strtod.o)
                                                  ../../build/obj/nmea.o
                                                  ../../build/obj/calc.o
                                                  ../../build/obj/cruise.o
                                                  ../../build/obj/meas.o
                                                  ../../build/obj/speed.o
                                                  ../../build/obj/log.o
__aeabi_drsub                                     c:/program files (x86)/gnu tools arm embedded/4.9 2015q2/bin/../lib/gcc/arm-none-eabi/4.9.3/armv7e-m\libgcc.a(_arm_addsubdf3.o)
__aeabi_dsub                                      c:/program files (x86)/gnu tools arm embedded/4.9 2015q2/bin/../lib/gcc/arm-none-eabi/4.9.3/armv7e-m\libgcc.a(_arm_addsubdf3.o)
                                                  c:/program files (x86)/gnu tools arm embedded/4.9 2015q2/bin/../lib/gcc/arm-none-eabi/4.9.3/../../../../arm-none-eabi/lib/armv7e-m\libg.a(lib_a-strtod.o)
                                                  ../../build/obj/nmea.o
                                                  ../../build/obj/cruise.o
                                                  ../../build/obj/speed.o
__aeabi_f2d                                       c:/program files (x86)/gnu tools arm embedded/4.9 2015q2/bin/../lib/gcc/arm-none-eabi/4.9.3/armv7e-m\libgcc.a(_arm_addsubdf3.o)
__aeabi_i2d                                       c:/program files (x86)/gnu tools arm embedded/4.9 2015q2/bin/../lib/gcc/arm-none-eabi/4.9.3/armv7e-m\libgcc.a(_arm_addsubdf3.o)
                                                  c:/program files (x86)/gnu tools arm embedded/4.9 2015q2/bin/../lib/gcc/arm-none-eabi/4.9.3/../../../../arm-none-eabi/lib/armv7e-m\libg.a(lib_a-strtod.o)
                                                  ../../build/obj/nmea.o
                                                  ../../build/obj/cruise.o
                                                  ../../build/obj/meas.o
__aeabi_idiv0                                     c:/program files (x86)/gnu tools arm embedded/4.9 2015q2/bin/../lib/gcc/arm-none-eabi/4.9.3/armv7e-m\libgcc.a(_dvmd_tls.o)
__aeabi_l2d                                       c:/program files (x86)/gnu tools arm embedded/4.9 2015q2/bin/../lib/gcc/arm-none-eabi/4.9.3/armv7e-m\libgcc.a(_arm_addsubdf3.o)
__aeabi_ldiv0                                     c:/program files (x86)/gnu tools arm embedded/4.9 2015q2/bin/../lib/gcc/arm-none-eabi/4.9.3/armv7e-m\libgcc.a(_dvmd_tls.o)
                                                  c:/program files (x86)/gnu tools arm embedded/4.9 2015q2/bin/../lib/gcc/arm-none-eabi/4.9.3/armv7e-m\libgcc.a(_aeabi_uldivmod.o)
__aeabi_ui2d                                      c:/program files (x86)/gnu tools arm embedded/4.9 2015q2/bin/../lib/gcc/arm-none-eabi/4.9.3/armv7e-m\libgcc.a(_arm_addsubdf3.o)
                                                  c:/program files (x86)/gnu tools arm embedded/4.9 2015q2/bin/../lib/gcc/arm-none-eabi/4.9.3/../../../../arm-none-eabi/lib/armv7e-m\libg.a(lib_a-strtod.o)
                                                  ../../build/obj/calc.o
                                                  ../../build/obj/button.o
                                                  ../../build/obj/speed.o
__aeabi_ul2d                                      c:/program files (x86)/gnu tools arm embedded/4.9 2015q2/bin/../lib/gcc/arm-none-eabi/4.9.3/armv7e-m\libgcc.a(_arm_addsubdf3.o)
__aeabi_uldivmod                                  c:/program files (x86)/gnu tools arm embedded/4.9 2015q2/bin/../lib/gcc/arm-none-eabi/4.9.3/armv7e-m\libgcc.a(_aeabi_uldivmod.o)
                                                  c:/program files (x86)/gnu tools arm embedded/4.9 2015q2/bin/../lib/gcc/arm-none-eabi/4.9.3/../../../../arm-none-eabi/lib/armv7e-m\libg.a(lib_a-strtoull_r.o)
                                                  c:/program files (x86)/gnu tools arm embedded/4.9 2015q2/bin/../lib/gcc/arm-none-eabi/4.9.3/../../../../arm-none-eabi/lib/armv7e-m\libg.a(lib_a-strtoll_r.o)
                                                  c:/program files (x86)/gnu tools arm embedded/4.9 2015q2/bin/../lib/gcc/arm-none-eabi/4.9.3/../../../../arm-none-eabi/lib/armv7e-m\libg.a(lib_a-svfiprintf.o)
__any_on                                          c:/program files (x86)/gnu tools arm embedded/4.9 2015q2/bin/../lib/gcc/arm-none-eabi/4.9.3/../../../../arm-none-eabi/lib/armv7e-m\libg.a(lib_a-mprec.o)
                                                  c:/program files (x86)/gnu tools arm embedded/4.9 2015q2/bin/../lib/gcc/arm-none-eabi/4.9.3/../../../../arm-none-eabi/lib/armv7e-m\libg.a(lib_a-gdtoa-gethex.o)
__ascii_mbtowc                                    c:/program files (x86)/gnu tools arm embedded/4.9 2015q2/bin/../lib/gcc/arm-none-eabi/4.9.3/../../../../arm-none-eabi/lib/armv7e-m\libg.a(lib_a-mbtowc_r.o)
__b2d                                             c:/program files (x86)/gnu tools arm embedded/4.9 2015q2/bin/../lib/gcc/arm-none-eabi/4.9.3/../../../../arm-none-eabi/lib/armv7e-m\libg.a(lib_a-mprec.o)
__cmpdf2                                          c:/program files (x86)/gnu tools arm embedded/4.9 2015q2/bin/../lib/gcc/arm-none-eabi/4.9.3/armv7e-m\libgcc.a(_arm_cmpdf2.o)
__copybits                                        c:/program files (x86)/gnu tools arm embedded/4.9 2015q2/bin/../lib/gcc/arm-none-eabi/4.9.3/../../../../arm-none-eabi/lib/armv7e-m\libg.a(lib_a-mprec.o)
                                                  c:/program files (x86)/gnu tools arm embedded/4.9 2015q2/bin/../lib/gcc/arm-none-eabi/4.9.3/../../../../arm-none-eabi/lib/armv7e-m\libg.a(lib_a-strtod.o)
__ctype_ptr__                                     c:/program files (x86)/gnu tools arm embedded/4.9 2015q2/bin/../lib/gcc/arm-none-eabi/4.9.3/../../../../arm-none-eabi/lib/armv7e-m\libg.a(lib_a-ctype_.o)
                                                  c:/program files (x86)/gnu tools arm embedded/4.9 2015q2/bin/../lib/gcc/arm-none-eabi/4.9.3/../../../../arm-none-eabi/lib/armv7e-m\libg.a(lib_a-strtoull_r.o)
                                                  c:/program files (x86)/gnu tools arm embedded/4.9 2015q2/bin/../lib/gcc/arm-none-eabi/4.9.3/../../../../arm-none-eabi/lib/armv7e-m\libg.a(lib_a-strtoll_r.o)
                                                  c:/program files (x86)/gnu tools arm embedded/4.9 2015q2/bin/../lib/gcc/arm-none-eabi/4.9.3/../../../../arm-none-eabi/lib/armv7e-m\libg.a(lib_a-iswspace.o)
                                                  c:/program files (x86)/gnu tools arm embedded/4.9 2015q2/bin/../lib/gcc/arm-none-eabi/4.9.3/../../../../arm-none-eabi/lib/armv7e-m\libg.a(lib_a-svfiscanf.o)
                                                  c:/program files (x86)/gnu tools arm embedded/4.9 2015q2/bin/../lib/gcc/arm-none-eabi/4.9.3/../../../../arm-none-eabi/lib/armv7e-m\libg.a(lib_a-strtoul.o)
                                                  c:/program files (x86)/gnu tools arm embedded/4.9 2015q2/bin/../lib/gcc/arm-none-eabi/4.9.3/../../../../arm-none-eabi/lib/armv7e-m\libg.a(lib_a-strtol.o)
                                                  c:/program files (x86)/gnu tools arm embedded/4.9 2015q2/bin/../lib/gcc/arm-none-eabi/4.9.3/../../../../arm-none-eabi/lib/armv7e-m\libg.a(lib_a-strcasecmp.o)
__d2b                                             c:/program files (x86)/gnu tools arm embedded/4.9 2015q2/bin/../lib/gcc/arm-none-eabi/4.9.3/../../../../arm-none-eabi/lib/armv7e-m\libg.a(lib_a-mprec.o)
                                                  c:/program files (x86)/gnu tools arm embedded/4.9 2015q2/bin/../lib/gcc/arm-none-eabi/4.9.3/../../../../arm-none-eabi/lib/armv7e-m\libg.a(lib_a-strtod.o)
__divdf3                                          c:/program files (x86)/gnu tools arm embedded/4.9 2015q2/bin/../lib/gcc/arm-none-eabi/4.9.3/armv7e-m\libgcc.a(_arm_muldivdf3.o)
__divdi3                                          c:/program files (x86)/gnu tools arm embedded/4.9 2015q2/bin/../lib/gcc/arm-none-eabi/4.9.3/armv7e-m\libgcc.a(_divdi3.o)
                                                  c:/program files (x86)/gnu tools arm embedded/4.9 2015q2/bin/../lib/gcc/arm-none-eabi/4.9.3/armv7e-m\libgcc.a(bpabi.o)
__early_init                                      ../../build/obj/board.o
                                                  ../../build/obj/crt0.o
__env_lock                                        c:/program files (x86)/gnu tools arm embedded/4.9 2015q2/bin/../lib/gcc/arm-none-eabi/4.9.3/../../../../arm-none-eabi/lib/armv7e-m\libg.a(lib_a-envlock.o)
                                                  c:/program files (x86)/gnu tools arm embedded/4.9 2015q2/bin/../lib/gcc/arm-none-eabi/4.9.3/../../../../arm-none-eabi/lib/armv7e-m\libg.a(lib_a-getenv_r.o)
__env_unlock                                      c:/program files (x86)/gnu tools arm embedded/4.9 2015q2/bin/../lib/gcc/arm-none-eabi/4.9.3/../../../../arm-none-eabi/lib/armv7e-m\libg.a(lib_a-envlock.o)
                                                  c:/program files (x86)/gnu tools arm embedded/4.9 2015q2/bin/../lib/gcc/arm-none-eabi/4.9.3/../../../../arm-none-eabi/lib/armv7e-m\libg.a(lib_a-getenv_r.o)
__eqdf2                                           c:/program files (x86)/gnu tools arm embedded/4.9 2015q2/bin/../lib/gcc/arm-none-eabi/4.9.3/armv7e-m\libgcc.a(_arm_cmpdf2.o)
__extendsfdf2                                     c:/program files (x86)/gnu tools arm embedded/4.9 2015q2/bin/../lib/gcc/arm-none-eabi/4.9.3/armv7e-m\libgcc.a(_arm_addsubdf3.o)
__fini_array_end                                  ../../build/obj/crt0.o
__fini_array_start                                ../../build/obj/crt0.o
__fixdfsi                                         c:/program files (x86)/gnu tools arm embedded/4.9 2015q2/bin/../lib/gcc/arm-none-eabi/4.9.3/armv7e-m\libgcc.a(_arm_fixdfsi.o)
__fixunsdfsi                                      c:/program files (x86)/gnu tools arm embedded/4.9 2015q2/bin/../lib/gcc/arm-none-eabi/4.9.3/armv7e-m\libgcc.a(_arm_fixunsdfsi.o)
__floatdidf                                       c:/program files (x86)/gnu tools arm embedded/4.9 2015q2/bin/../lib/gcc/arm-none-eabi/4.9.3/armv7e-m\libgcc.a(_arm_addsubdf3.o)
__floatsidf                                       c:/program files (x86)/gnu tools arm embedded/4.9 2015q2/bin/../lib/gcc/arm-none-eabi/4.9.3/armv7e-m\libgcc.a(_arm_addsubdf3.o)
__floatundidf                                     c:/program files (x86)/gnu tools arm embedded/4.9 2015q2/bin/../lib/gcc/arm-none-eabi/4.9.3/armv7e-m\libgcc.a(_arm_addsubdf3.o)
__floatunsidf                                     c:/program files (x86)/gnu tools arm embedded/4.9 2015q2/bin/../lib/gcc/arm-none-eabi/4.9.3/armv7e-m\libgcc.a(_arm_addsubdf3.o)
__fp_lock_all                                     c:/program files (x86)/gnu tools arm embedded/4.9 2015q2/bin/../lib/gcc/arm-none-eabi/4.9.3/../../../../arm-none-eabi/lib/armv7e-m\libg.a(lib_a-findfp.o)
__fp_unlock_all                                   c:/program files (x86)/gnu tools arm embedded/4.9 2015q2/bin/../lib/gcc/arm-none-eabi/4.9.3/../../../../arm-none-eabi/lib/armv7e-m\libg.a(lib_a-findfp.o)
__fpclassifyd                                     c:/program files (x86)/gnu tools arm embedded/4.9 2015q2/bin/../lib/gcc/arm-none-eabi/4.9.3/../../../../arm-none-eabi/lib/armv7e-m\libg.a(lib_a-s_fpclassify.o)
                                                  c:/program files (x86)/gnu tools arm embedded/4.9 2015q2/bin/../lib/gcc/arm-none-eabi/4.9.3/../../../../arm-none-eabi/lib/armv7e-m\libg.a(lib_a-strtod.o)
__gedf2                                           c:/program files (x86)/gnu tools arm embedded/4.9 2015q2/bin/../lib/gcc/arm-none-eabi/4.9.3/armv7e-m\libgcc.a(_arm_cmpdf2.o)
__gethex                                          c:/program files (x86)/gnu tools arm embedded/4.9 2015q2/bin/../lib/gcc/arm-none-eabi/4.9.3/../../../../arm-none-eabi/lib/armv7e-m\libg.a(lib_a-gdtoa-gethex.o)
                                                  c:/program files (x86)/gnu tools arm embedded/4.9 2015q2/bin/../lib/gcc/arm-none-eabi/4.9.3/../../../../arm-none-eabi/lib/armv7e-m\libg.a(lib_a-strtod.o)
__gettzinfo                                       c:/program files (x86)/gnu tools arm embedded/4.9 2015q2/bin/../lib/gcc/arm-none-eabi/4.9.3/../../../../arm-none-eabi/lib/armv7e-m\libg.a(lib_a-gettzinfo.o)
                                                  c:/program files (x86)/gnu tools arm embedded/4.9 2015q2/bin/../lib/gcc/arm-none-eabi/4.9.3/../../../../arm-none-eabi/lib/armv7e-m\libg.a(lib_a-tzset_r.o)
                                                  c:/program files (x86)/gnu tools arm embedded/4.9 2015q2/bin/../lib/gcc/arm-none-eabi/4.9.3/../../../../arm-none-eabi/lib/armv7e-m\libg.a(lib_a-tzcalc_limits.o)
                                                  c:/program files (x86)/gnu tools arm embedded/4.9 2015q2/bin/../lib/gcc/arm-none-eabi/4.9.3/../../../../arm-none-eabi/lib/armv7e-m\libg.a(lib_a-mktime.o)
                                                  c:/program files (x86)/gnu tools arm embedded/4.9 2015q2/bin/../lib/gcc/arm-none-eabi/4.9.3/../../../../arm-none-eabi/lib/armv7e-m\libg.a(lib_a-lcltime_r.o)
__gnu_ldivmod_helper                              c:/program files (x86)/gnu tools arm embedded/4.9 2015q2/bin/../lib/gcc/arm-none-eabi/4.9.3/armv7e-m\libgcc.a(bpabi.o)
__gnu_uldivmod_helper                             c:/program files (x86)/gnu tools arm embedded/4.9 2015q2/bin/../lib/gcc/arm-none-eabi/4.9.3/armv7e-m\libgcc.a(bpabi.o)
                                                  c:/program files (x86)/gnu tools arm embedded/4.9 2015q2/bin/../lib/gcc/arm-none-eabi/4.9.3/armv7e-m\libgcc.a(_aeabi_uldivmod.o)
__gtdf2                                           c:/program files (x86)/gnu tools arm embedded/4.9 2015q2/bin/../lib/gcc/arm-none-eabi/4.9.3/armv7e-m\libgcc.a(_arm_cmpdf2.o)
__heap_base__                                     ../../build/obj/chmemcore.o
__heap_end__                                      ../../build/obj/chmemcore.o
__hexdig                                          c:/program files (x86)/gnu tools arm embedded/4.9 2015q2/bin/../lib/gcc/arm-none-eabi/4.9.3/../../../../arm-none-eabi/lib/armv7e-m\libg.a(lib_a-gdtoa-gethex.o)
                                                  c:/program files (x86)/gnu tools arm embedded/4.9 2015q2/bin/../lib/gcc/arm-none-eabi/4.9.3/../../../../arm-none-eabi/lib/armv7e-m\libg.a(lib_a-gdtoa-hexnan.o)
__hexnan                                          c:/program files (x86)/gnu tools arm embedded/4.9 2015q2/bin/../lib/gcc/arm-none-eabi/4.9.3/../../../../arm-none-eabi/lib/armv7e-m\libg.a(lib_a-gdtoa-hexnan.o)
                                                  c:/program files (x86)/gnu tools arm embedded/4.9 2015q2/bin/../lib/gcc/arm-none-eabi/4.9.3/../../../../arm-none-eabi/lib/armv7e-m\libg.a(lib_a-strtod.o)
__hi0bits                                         c:/program files (x86)/gnu tools arm embedded/4.9 2015q2/bin/../lib/gcc/arm-none-eabi/4.9.3/../../../../arm-none-eabi/lib/armv7e-m\libg.a(lib_a-mprec.o)
                                                  c:/program files (x86)/gnu tools arm embedded/4.9 2015q2/bin/../lib/gcc/arm-none-eabi/4.9.3/../../../../arm-none-eabi/lib/armv7e-m\libg.a(lib_a-gdtoa-gethex.o)
__i2b                                             c:/program files (x86)/gnu tools arm embedded/4.9 2015q2/bin/../lib/gcc/arm-none-eabi/4.9.3/../../../../arm-none-eabi/lib/armv7e-m\libg.a(lib_a-mprec.o)
                                                  c:/program files (x86)/gnu tools arm embedded/4.9 2015q2/bin/../lib/gcc/arm-none-eabi/4.9.3/../../../../arm-none-eabi/lib/armv7e-m\libg.a(lib_a-strtod.o)
__init_array_end                                  ../../build/obj/crt0.o
__init_array_start                                ../../build/obj/crt0.o
__late_init                                       ../../build/obj/crt0.o
__ledf2                                           c:/program files (x86)/gnu tools arm embedded/4.9 2015q2/bin/../lib/gcc/arm-none-eabi/4.9.3/armv7e-m\libgcc.a(_arm_cmpdf2.o)
__lo0bits                                         c:/program files (x86)/gnu tools arm embedded/4.9 2015q2/bin/../lib/gcc/arm-none-eabi/4.9.3/../../../../arm-none-eabi/lib/armv7e-m\libg.a(lib_a-mprec.o)
__locale_charset                                  c:/program files (x86)/gnu tools arm embedded/4.9 2015q2/bin/../lib/gcc/arm-none-eabi/4.9.3/../../../../arm-none-eabi/lib/armv7e-m\libg.a(lib_a-locale.o)
                                                  c:/program files (x86)/gnu tools arm embedded/4.9 2015q2/bin/../lib/gcc/arm-none-eabi/4.9.3/../../../../arm-none-eabi/lib/armv7e-m\libg.a(lib_a-mbtowc_r.o)
                                                  c:/program files (x86)/gnu tools arm embedded/4.9 2015q2/bin/../lib/gcc/arm-none-eabi/4.9.3/../../../../arm-none-eabi/lib/armv7e-m\libg.a(lib_a-mbrtowc.o)
__locale_cjk_lang                                 c:/program files (x86)/gnu tools arm embedded/4.9 2015q2/bin/../lib/gcc/arm-none-eabi/4.9.3/../../../../arm-none-eabi/lib/armv7e-m\libg.a(lib_a-locale.o)
__locale_mb_cur_max                               c:/program files (x86)/gnu tools arm embedded/4.9 2015q2/bin/../lib/gcc/arm-none-eabi/4.9.3/../../../../arm-none-eabi/lib/armv7e-m\libg.a(lib_a-locale.o)
                                                  c:/program files (x86)/gnu tools arm embedded/4.9 2015q2/bin/../lib/gcc/arm-none-eabi/4.9.3/../../../../arm-none-eabi/lib/armv7e-m\libg.a(lib_a-svfiscanf.o)
__locale_msgcharset                               c:/program files (x86)/gnu tools arm embedded/4.9 2015q2/bin/../lib/gcc/arm-none-eabi/4.9.3/../../../../arm-none-eabi/lib/armv7e-m\libg.a(lib_a-locale.o)
__lshift                                          c:/program files (x86)/gnu tools arm embedded/4.9 2015q2/bin/../lib/gcc/arm-none-eabi/4.9.3/../../../../arm-none-eabi/lib/armv7e-m\libg.a(lib_a-mprec.o)
                                                  c:/program files (x86)/gnu tools arm embedded/4.9 2015q2/bin/../lib/gcc/arm-none-eabi/4.9.3/../../../../arm-none-eabi/lib/armv7e-m\libg.a(lib_a-gdtoa-gethex.o)
                                                  c:/program files (x86)/gnu tools arm embedded/4.9 2015q2/bin/../lib/gcc/arm-none-eabi/4.9.3/../../../../arm-none-eabi/lib/armv7e-m\libg.a(lib_a-strtod.o)
__ltdf2                                           c:/program files (x86)/gnu tools arm embedded/4.9 2015q2/bin/../lib/gcc/arm-none-eabi/4.9.3/armv7e-m\libgcc.a(_arm_cmpdf2.o)
__main_stack_base__                               ../../build/obj/crt0.o
__main_stack_end__                                ../../build/obj/vectors.o
                                                  ../../build/obj/crt0.o
__malloc_av_                                      c:/program files (x86)/gnu tools arm embedded/4.9 2015q2/bin/../lib/gcc/arm-none-eabi/4.9.3/../../../../arm-none-eabi/lib/armv7e-m\libg.a(lib_a-mallocr.o)
                                                  c:/program files (x86)/gnu tools arm embedded/4.9 2015q2/bin/../lib/gcc/arm-none-eabi/4.9.3/../../../../arm-none-eabi/lib/armv7e-m\libg.a(lib_a-reallocr.o)
                                                  c:/program files (x86)/gnu tools arm embedded/4.9 2015q2/bin/../lib/gcc/arm-none-eabi/4.9.3/../../../../arm-none-eabi/lib/armv7e-m\libg.a(lib_a-freer.o)
__malloc_current_mallinfo                         c:/program files (x86)/gnu tools arm embedded/4.9 2015q2/bin/../lib/gcc/arm-none-eabi/4.9.3/../../../../arm-none-eabi/lib/armv7e-m\libg.a(lib_a-mallocr.o)
                                                  c:/program files (x86)/gnu tools arm embedded/4.9 2015q2/bin/../lib/gcc/arm-none-eabi/4.9.3/../../../../arm-none-eabi/lib/armv7e-m\libg.a(lib_a-freer.o)
__malloc_lock                                     c:/program files (x86)/gnu tools arm embedded/4.9 2015q2/bin/../lib/gcc/arm-none-eabi/4.9.3/../../../../arm-none-eabi/lib/armv7e-m\libg.a(lib_a-mlock.o)
                                                  c:/program files (x86)/gnu tools arm embedded/4.9 2015q2/bin/../lib/gcc/arm-none-eabi/4.9.3/../../../../arm-none-eabi/lib/armv7e-m\libg.a(lib_a-reallocr.o)
                                                  c:/program files (x86)/gnu tools arm embedded/4.9 2015q2/bin/../lib/gcc/arm-none-eabi/4.9.3/../../../../arm-none-eabi/lib/armv7e-m\libg.a(lib_a-mallocr.o)
                                                  c:/program files (x86)/gnu tools arm embedded/4.9 2015q2/bin/../lib/gcc/arm-none-eabi/4.9.3/../../../../arm-none-eabi/lib/armv7e-m\libg.a(lib_a-freer.o)
__malloc_max_sbrked_mem                           c:/program files (x86)/gnu tools arm embedded/4.9 2015q2/bin/../lib/gcc/arm-none-eabi/4.9.3/../../../../arm-none-eabi/lib/armv7e-m\libg.a(lib_a-mallocr.o)
__malloc_max_total_mem                            c:/program files (x86)/gnu tools arm embedded/4.9 2015q2/bin/../lib/gcc/arm-none-eabi/4.9.3/../../../../arm-none-eabi/lib/armv7e-m\libg.a(lib_a-mallocr.o)
__malloc_sbrk_base                                c:/program files (x86)/gnu tools arm embedded/4.9 2015q2/bin/../lib/gcc/arm-none-eabi/4.9.3/../../../../arm-none-eabi/lib/armv7e-m\libg.a(lib_a-mallocr.o)
                                                  c:/program files (x86)/gnu tools arm embedded/4.9 2015q2/bin/../lib/gcc/arm-none-eabi/4.9.3/../../../../arm-none-eabi/lib/armv7e-m\libg.a(lib_a-freer.o)
__malloc_top_pad                                  c:/program files (x86)/gnu tools arm embedded/4.9 2015q2/bin/../lib/gcc/arm-none-eabi/4.9.3/../../../../arm-none-eabi/lib/armv7e-m\libg.a(lib_a-mallocr.o)
                                                  c:/program files (x86)/gnu tools arm embedded/4.9 2015q2/bin/../lib/gcc/arm-none-eabi/4.9.3/../../../../arm-none-eabi/lib/armv7e-m\libg.a(lib_a-freer.o)
__malloc_trim_threshold                           c:/program files (x86)/gnu tools arm embedded/4.9 2015q2/bin/../lib/gcc/arm-none-eabi/4.9.3/../../../../arm-none-eabi/lib/armv7e-m\libg.a(lib_a-mallocr.o)
                                                  c:/program files (x86)/gnu tools arm embedded/4.9 2015q2/bin/../lib/gcc/arm-none-eabi/4.9.3/../../../../arm-none-eabi/lib/armv7e-m\libg.a(lib_a-freer.o)
__malloc_unlock                                   c:/program files (x86)/gnu tools arm embedded/4.9 2015q2/bin/../lib/gcc/arm-none-eabi/4.9.3/../../../../arm-none-eabi/lib/armv7e-m\libg.a(lib_a-mlock.o)
                                                  c:/program files (x86)/gnu tools arm embedded/4.9 2015q2/bin/../lib/gcc/arm-none-eabi/4.9.3/../../../../arm-none-eabi/lib/armv7e-m\libg.a(lib_a-reallocr.o)
                                                  c:/program files (x86)/gnu tools arm embedded/4.9 2015q2/bin/../lib/gcc/arm-none-eabi/4.9.3/../../../../arm-none-eabi/lib/armv7e-m\libg.a(lib_a-mallocr.o)
                                                  c:/program files (x86)/gnu tools arm embedded/4.9 2015q2/bin/../lib/gcc/arm-none-eabi/4.9.3/../../../../arm-none-eabi/lib/armv7e-m\libg.a(lib_a-freer.o)
__mb_cur_max                                      c:/program files (x86)/gnu tools arm embedded/4.9 2015q2/bin/../lib/gcc/arm-none-eabi/4.9.3/../../../../arm-none-eabi/lib/armv7e-m\libg.a(lib_a-locale.o)
__mbtowc                                          c:/program files (x86)/gnu tools arm embedded/4.9 2015q2/bin/../lib/gcc/arm-none-eabi/4.9.3/../../../../arm-none-eabi/lib/armv7e-m\libg.a(lib_a-mbtowc_r.o)
                                                  c:/program files (x86)/gnu tools arm embedded/4.9 2015q2/bin/../lib/gcc/arm-none-eabi/4.9.3/../../../../arm-none-eabi/lib/armv7e-m\libg.a(lib_a-mbrtowc.o)
__mcmp                                            c:/program files (x86)/gnu tools arm embedded/4.9 2015q2/bin/../lib/gcc/arm-none-eabi/4.9.3/../../../../arm-none-eabi/lib/armv7e-m\libg.a(lib_a-mprec.o)
                                                  c:/program files (x86)/gnu tools arm embedded/4.9 2015q2/bin/../lib/gcc/arm-none-eabi/4.9.3/../../../../arm-none-eabi/lib/armv7e-m\libg.a(lib_a-strtod.o)
__mdiff                                           c:/program files (x86)/gnu tools arm embedded/4.9 2015q2/bin/../lib/gcc/arm-none-eabi/4.9.3/../../../../arm-none-eabi/lib/armv7e-m\libg.a(lib_a-mprec.o)
                                                  c:/program files (x86)/gnu tools arm embedded/4.9 2015q2/bin/../lib/gcc/arm-none-eabi/4.9.3/../../../../arm-none-eabi/lib/armv7e-m\libg.a(lib_a-strtod.o)
__mlocale_changed                                 c:/program files (x86)/gnu tools arm embedded/4.9 2015q2/bin/../lib/gcc/arm-none-eabi/4.9.3/../../../../arm-none-eabi/lib/armv7e-m\libg.a(lib_a-locale.o)
__month_lengths                                   c:/program files (x86)/gnu tools arm embedded/4.9 2015q2/bin/../lib/gcc/arm-none-eabi/4.9.3/../../../../arm-none-eabi/lib/armv7e-m\libg.a(lib_a-month_lengths.o)
                                                  c:/program files (x86)/gnu tools arm embedded/4.9 2015q2/bin/../lib/gcc/arm-none-eabi/4.9.3/../../../../arm-none-eabi/lib/armv7e-m\libg.a(lib_a-gmtime_r.o)
                                                  c:/program files (x86)/gnu tools arm embedded/4.9 2015q2/bin/../lib/gcc/arm-none-eabi/4.9.3/../../../../arm-none-eabi/lib/armv7e-m\libg.a(lib_a-tzcalc_limits.o)
                                                  c:/program files (x86)/gnu tools arm embedded/4.9 2015q2/bin/../lib/gcc/arm-none-eabi/4.9.3/../../../../arm-none-eabi/lib/armv7e-m\libg.a(lib_a-lcltime_r.o)
__mprec_bigtens                                   c:/program files (x86)/gnu tools arm embedded/4.9 2015q2/bin/../lib/gcc/arm-none-eabi/4.9.3/../../../../arm-none-eabi/lib/armv7e-m\libg.a(lib_a-mprec.o)
                                                  c:/program files (x86)/gnu tools arm embedded/4.9 2015q2/bin/../lib/gcc/arm-none-eabi/4.9.3/../../../../arm-none-eabi/lib/armv7e-m\libg.a(lib_a-strtod.o)
__mprec_tens                                      c:/program files (x86)/gnu tools arm embedded/4.9 2015q2/bin/../lib/gcc/arm-none-eabi/4.9.3/../../../../arm-none-eabi/lib/armv7e-m\libg.a(lib_a-mprec.o)
                                                  c:/program files (x86)/gnu tools arm embedded/4.9 2015q2/bin/../lib/gcc/arm-none-eabi/4.9.3/../../../../arm-none-eabi/lib/armv7e-m\libg.a(lib_a-strtod.o)
__mprec_tinytens                                  c:/program files (x86)/gnu tools arm embedded/4.9 2015q2/bin/../lib/gcc/arm-none-eabi/4.9.3/../../../../arm-none-eabi/lib/armv7e-m\libg.a(lib_a-mprec.o)
__muldf3                                          c:/program files (x86)/gnu tools arm embedded/4.9 2015q2/bin/../lib/gcc/arm-none-eabi/4.9.3/armv7e-m\libgcc.a(_arm_muldivdf3.o)
__multadd                                         c:/program files (x86)/gnu tools arm embedded/4.9 2015q2/bin/../lib/gcc/arm-none-eabi/4.9.3/../../../../arm-none-eabi/lib/armv7e-m\libg.a(lib_a-mprec.o)
__multiply                                        c:/program files (x86)/gnu tools arm embedded/4.9 2015q2/bin/../lib/gcc/arm-none-eabi/4.9.3/../../../../arm-none-eabi/lib/armv7e-m\libg.a(lib_a-mprec.o)
                                                  c:/program files (x86)/gnu tools arm embedded/4.9 2015q2/bin/../lib/gcc/arm-none-eabi/4.9.3/../../../../arm-none-eabi/lib/armv7e-m\libg.a(lib_a-strtod.o)
__nedf2                                           c:/program files (x86)/gnu tools arm embedded/4.9 2015q2/bin/../lib/gcc/arm-none-eabi/4.9.3/armv7e-m\libgcc.a(_arm_cmpdf2.o)
__nlocale_changed                                 c:/program files (x86)/gnu tools arm embedded/4.9 2015q2/bin/../lib/gcc/arm-none-eabi/4.9.3/../../../../arm-none-eabi/lib/armv7e-m\libg.a(lib_a-locale.o)
__pow5mult                                        c:/program files (x86)/gnu tools arm embedded/4.9 2015q2/bin/../lib/gcc/arm-none-eabi/4.9.3/../../../../arm-none-eabi/lib/armv7e-m\libg.a(lib_a-mprec.o)
                                                  c:/program files (x86)/gnu tools arm embedded/4.9 2015q2/bin/../lib/gcc/arm-none-eabi/4.9.3/../../../../arm-none-eabi/lib/armv7e-m\libg.a(lib_a-strtod.o)
__process_stack_base__                            ../../build/obj/crt0.o
__process_stack_end__                             ../../build/obj/crt0.o
__ratio                                           c:/program files (x86)/gnu tools arm embedded/4.9 2015q2/bin/../lib/gcc/arm-none-eabi/4.9.3/../../../../arm-none-eabi/lib/armv7e-m\libg.a(lib_a-mprec.o)
                                                  c:/program files (x86)/gnu tools arm embedded/4.9 2015q2/bin/../lib/gcc/arm-none-eabi/4.9.3/../../../../arm-none-eabi/lib/armv7e-m\libg.a(lib_a-strtod.o)
__s2b                                             c:/program files (x86)/gnu tools arm embedded/4.9 2015q2/bin/../lib/gcc/arm-none-eabi/4.9.3/../../../../arm-none-eabi/lib/armv7e-m\libg.a(lib_a-mprec.o)
                                                  c:/program files (x86)/gnu tools arm embedded/4.9 2015q2/bin/../lib/gcc/arm-none-eabi/4.9.3/../../../../arm-none-eabi/lib/armv7e-m\libg.a(lib_a-strtod.o)
__sccl                                            c:/program files (x86)/gnu tools arm embedded/4.9 2015q2/bin/../lib/gcc/arm-none-eabi/4.9.3/../../../../arm-none-eabi/lib/armv7e-m\libg.a(lib_a-sccl.o)
                                                  c:/program files (x86)/gnu tools arm embedded/4.9 2015q2/bin/../lib/gcc/arm-none-eabi/4.9.3/../../../../arm-none-eabi/lib/armv7e-m\libg.a(lib_a-svfiscanf.o)
__sclose                                          c:/program files (x86)/gnu tools arm embedded/4.9 2015q2/bin/../lib/gcc/arm-none-eabi/4.9.3/../../../../arm-none-eabi/lib/armv7e-m\libg.a(lib_a-stdio.o)
                                                  c:/program files (x86)/gnu tools arm embedded/4.9 2015q2/bin/../lib/gcc/arm-none-eabi/4.9.3/../../../../arm-none-eabi/lib/armv7e-m\libg.a(lib_a-findfp.o)
__seofread                                        c:/program files (x86)/gnu tools arm embedded/4.9 2015q2/bin/../lib/gcc/arm-none-eabi/4.9.3/../../../../arm-none-eabi/lib/armv7e-m\libg.a(lib_a-stdio.o)
                                                  c:/program files (x86)/gnu tools arm embedded/4.9 2015q2/bin/../lib/gcc/arm-none-eabi/4.9.3/../../../../arm-none-eabi/lib/armv7e-m\libg.a(lib_a-siscanf.o)
__sflush_r                                        c:/program files (x86)/gnu tools arm embedded/4.9 2015q2/bin/../lib/gcc/arm-none-eabi/4.9.3/../../../../arm-none-eabi/lib/armv7e-m\libg.a(lib_a-fflush.o)
                                                  c:/program files (x86)/gnu tools arm embedded/4.9 2015q2/bin/../lib/gcc/arm-none-eabi/4.9.3/../../../../arm-none-eabi/lib/armv7e-m\libg.a(lib_a-fclose.o)
__sfmoreglue                                      c:/program files (x86)/gnu tools arm embedded/4.9 2015q2/bin/../lib/gcc/arm-none-eabi/4.9.3/../../../../arm-none-eabi/lib/armv7e-m\libg.a(lib_a-findfp.o)
__sfp                                             c:/program files (x86)/gnu tools arm embedded/4.9 2015q2/bin/../lib/gcc/arm-none-eabi/4.9.3/../../../../arm-none-eabi/lib/armv7e-m\libg.a(lib_a-findfp.o)
__sfp_lock_acquire                                c:/program files (x86)/gnu tools arm embedded/4.9 2015q2/bin/../lib/gcc/arm-none-eabi/4.9.3/../../../../arm-none-eabi/lib/armv7e-m\libg.a(lib_a-findfp.o)
                                                  c:/program files (x86)/gnu tools arm embedded/4.9 2015q2/bin/../lib/gcc/arm-none-eabi/4.9.3/../../../../arm-none-eabi/lib/armv7e-m\libg.a(lib_a-fclose.o)
__sfp_lock_release                                c:/program files (x86)/gnu tools arm embedded/4.9 2015q2/bin/../lib/gcc/arm-none-eabi/4.9.3/../../../../arm-none-eabi/lib/armv7e-m\libg.a(lib_a-findfp.o)
                                                  c:/program files (x86)/gnu tools arm embedded/4.9 2015q2/bin/../lib/gcc/arm-none-eabi/4.9.3/../../../../arm-none-eabi/lib/armv7e-m\libg.a(lib_a-fclose.o)
__sinit                                           c:/program files (x86)/gnu tools arm embedded/4.9 2015q2/bin/../lib/gcc/arm-none-eabi/4.9.3/../../../../arm-none-eabi/lib/armv7e-m\libg.a(lib_a-findfp.o)
                                                  c:/program files (x86)/gnu tools arm embedded/4.9 2015q2/bin/../lib/gcc/arm-none-eabi/4.9.3/../../../../arm-none-eabi/lib/armv7e-m\libg.a(lib_a-fclose.o)
                                                  c:/program files (x86)/gnu tools arm embedded/4.9 2015q2/bin/../lib/gcc/arm-none-eabi/4.9.3/../../../../arm-none-eabi/lib/armv7e-m\libg.a(lib_a-fflush.o)
                                                  c:/program files (x86)/gnu tools arm embedded/4.9 2015q2/bin/../lib/gcc/arm-none-eabi/4.9.3/../../../../arm-none-eabi/lib/armv7e-m\libg.a(lib_a-ungetc.o)
__sinit_lock_acquire                              c:/program files (x86)/gnu tools arm embedded/4.9 2015q2/bin/../lib/gcc/arm-none-eabi/4.9.3/../../../../arm-none-eabi/lib/armv7e-m\libg.a(lib_a-findfp.o)
__sinit_lock_release                              c:/program files (x86)/gnu tools arm embedded/4.9 2015q2/bin/../lib/gcc/arm-none-eabi/4.9.3/../../../../arm-none-eabi/lib/armv7e-m\libg.a(lib_a-findfp.o)
__sread                                           c:/program files (x86)/gnu tools arm embedded/4.9 2015q2/bin/../lib/gcc/arm-none-eabi/4.9.3/../../../../arm-none-eabi/lib/armv7e-m\libg.a(lib_a-stdio.o)
                                                  c:/program files (x86)/gnu tools arm embedded/4.9 2015q2/bin/../lib/gcc/arm-none-eabi/4.9.3/../../../../arm-none-eabi/lib/armv7e-m\libg.a(lib_a-findfp.o)
__sseek                                           c:/program files (x86)/gnu tools arm embedded/4.9 2015q2/bin/../lib/gcc/arm-none-eabi/4.9.3/../../../../arm-none-eabi/lib/armv7e-m\libg.a(lib_a-stdio.o)
                                                  c:/program files (x86)/gnu tools arm embedded/4.9 2015q2/bin/../lib/gcc/arm-none-eabi/4.9.3/../../../../arm-none-eabi/lib/armv7e-m\libg.a(lib_a-findfp.o)
__ssprint_r                                       c:/program files (x86)/gnu tools arm embedded/4.9 2015q2/bin/../lib/gcc/arm-none-eabi/4.9.3/../../../../arm-none-eabi/lib/armv7e-m\libg.a(lib_a-svfiprintf.o)
__ssrefill_r                                      c:/program files (x86)/gnu tools arm embedded/4.9 2015q2/bin/../lib/gcc/arm-none-eabi/4.9.3/../../../../arm-none-eabi/lib/armv7e-m\libg.a(lib_a-svfiscanf.o)
__ssvfiscanf_r                                    c:/program files (x86)/gnu tools arm embedded/4.9 2015q2/bin/../lib/gcc/arm-none-eabi/4.9.3/../../../../arm-none-eabi/lib/armv7e-m\libg.a(lib_a-svfiscanf.o)
                                                  c:/program files (x86)/gnu tools arm embedded/4.9 2015q2/bin/../lib/gcc/arm-none-eabi/4.9.3/../../../../arm-none-eabi/lib/armv7e-m\libg.a(lib_a-siscanf.o)
__subdf3                                          c:/program files (x86)/gnu tools arm embedded/4.9 2015q2/bin/../lib/gcc/arm-none-eabi/4.9.3/armv7e-m\libgcc.a(_arm_addsubdf3.o)
__submore                                         c:/program files (x86)/gnu tools arm embedded/4.9 2015q2/bin/../lib/gcc/arm-none-eabi/4.9.3/../../../../arm-none-eabi/lib/armv7e-m\libg.a(lib_a-ungetc.o)
                                                  c:/program files (x86)/gnu tools arm embedded/4.9 2015q2/bin/../lib/gcc/arm-none-eabi/4.9.3/../../../../arm-none-eabi/lib/armv7e-m\libg.a(lib_a-svfiscanf.o)
__swrite                                          c:/program files (x86)/gnu tools arm embedded/4.9 2015q2/bin/../lib/gcc/arm-none-eabi/4.9.3/../../../../arm-none-eabi/lib/armv7e-m\libg.a(lib_a-stdio.o)
                                                  c:/program files (x86)/gnu tools arm embedded/4.9 2015q2/bin/../lib/gcc/arm-none-eabi/4.9.3/../../../../arm-none-eabi/lib/armv7e-m\libg.a(lib_a-findfp.o)
__truncdfsf2                                      c:/program files (x86)/gnu tools arm embedded/4.9 2015q2/bin/../lib/gcc/arm-none-eabi/4.9.3/armv7e-m\libgcc.a(_arm_truncdfsf2.o)
__tz_lock                                         c:/program files (x86)/gnu tools arm embedded/4.9 2015q2/bin/../lib/gcc/arm-none-eabi/4.9.3/../../../../arm-none-eabi/lib/armv7e-m\libg.a(lib_a-tzlock.o)
                                                  c:/program files (x86)/gnu tools arm embedded/4.9 2015q2/bin/../lib/gcc/arm-none-eabi/4.9.3/../../../../arm-none-eabi/lib/armv7e-m\libg.a(lib_a-tzset_r.o)
                                                  c:/program files (x86)/gnu tools arm embedded/4.9 2015q2/bin/../lib/gcc/arm-none-eabi/4.9.3/../../../../arm-none-eabi/lib/armv7e-m\libg.a(lib_a-tzset.o)
                                                  c:/program files (x86)/gnu tools arm embedded/4.9 2015q2/bin/../lib/gcc/arm-none-eabi/4.9.3/../../../../arm-none-eabi/lib/armv7e-m\libg.a(lib_a-mktime.o)
                                                  c:/program files (x86)/gnu tools arm embedded/4.9 2015q2/bin/../lib/gcc/arm-none-eabi/4.9.3/../../../../arm-none-eabi/lib/armv7e-m\libg.a(lib_a-lcltime_r.o)
__tz_unlock                                       c:/program files (x86)/gnu tools arm embedded/4.9 2015q2/bin/../lib/gcc/arm-none-eabi/4.9.3/../../../../arm-none-eabi/lib/armv7e-m\libg.a(lib_a-tzlock.o)
                                                  c:/program files (x86)/gnu tools arm embedded/4.9 2015q2/bin/../lib/gcc/arm-none-eabi/4.9.3/../../../../arm-none-eabi/lib/armv7e-m\libg.a(lib_a-tzset_r.o)
                                                  c:/program files (x86)/gnu tools arm embedded/4.9 2015q2/bin/../lib/gcc/arm-none-eabi/4.9.3/../../../../arm-none-eabi/lib/armv7e-m\libg.a(lib_a-tzset.o)
                                                  c:/program files (x86)/gnu tools arm embedded/4.9 2015q2/bin/../lib/gcc/arm-none-eabi/4.9.3/../../../../arm-none-eabi/lib/armv7e-m\libg.a(lib_a-mktime.o)
                                                  c:/program files (x86)/gnu tools arm embedded/4.9 2015q2/bin/../lib/gcc/arm-none-eabi/4.9.3/../../../../arm-none-eabi/lib/armv7e-m\libg.a(lib_a-lcltime_r.o)
__tzcalc_limits                                   c:/program files (x86)/gnu tools arm embedded/4.9 2015q2/bin/../lib/gcc/arm-none-eabi/4.9.3/../../../../arm-none-eabi/lib/armv7e-m\libg.a(lib_a-tzcalc_limits.o)
                                                  c:/program files (x86)/gnu tools arm embedded/4.9 2015q2/bin/../lib/gcc/arm-none-eabi/4.9.3/../../../../arm-none-eabi/lib/armv7e-m\libg.a(lib_a-tzset_r.o)
                                                  c:/program files (x86)/gnu tools arm embedded/4.9 2015q2/bin/../lib/gcc/arm-none-eabi/4.9.3/../../../../arm-none-eabi/lib/armv7e-m\libg.a(lib_a-mktime.o)
                                                  c:/program files (x86)/gnu tools arm embedded/4.9 2015q2/bin/../lib/gcc/arm-none-eabi/4.9.3/../../../../arm-none-eabi/lib/armv7e-m\libg.a(lib_a-lcltime_r.o)
__udivdi3                                         c:/program files (x86)/gnu tools arm embedded/4.9 2015q2/bin/../lib/gcc/arm-none-eabi/4.9.3/armv7e-m\libgcc.a(_udivdi3.o)
                                                  c:/program files (x86)/gnu tools arm embedded/4.9 2015q2/bin/../lib/gcc/arm-none-eabi/4.9.3/armv7e-m\libgcc.a(bpabi.o)
__ulp                                             c:/program files (x86)/gnu tools arm embedded/4.9 2015q2/bin/../lib/gcc/arm-none-eabi/4.9.3/../../../../arm-none-eabi/lib/armv7e-m\libg.a(lib_a-mprec.o)
                                                  c:/program files (x86)/gnu tools arm embedded/4.9 2015q2/bin/../lib/gcc/arm-none-eabi/4.9.3/../../../../arm-none-eabi/lib/armv7e-m\libg.a(lib_a-strtod.o)
_atoi_r                                           c:/program files (x86)/gnu tools arm embedded/4.9 2015q2/bin/../lib/gcc/arm-none-eabi/4.9.3/../../../../arm-none-eabi/lib/armv7e-m\libg.a(lib_a-atoi.o)
_atol_r                                           c:/program files (x86)/gnu tools arm embedded/4.9 2015q2/bin/../lib/gcc/arm-none-eabi/4.9.3/../../../../arm-none-eabi/lib/armv7e-m\libg.a(lib_a-atol.o)
_bss_end                                          ../../build/obj/crt0.o
_bss_start                                        ../../build/obj/crt0.o
_calloc_r                                         c:/program files (x86)/gnu tools arm embedded/4.9 2015q2/bin/../lib/gcc/arm-none-eabi/4.9.3/../../../../arm-none-eabi/lib/armv7e-m\libg.a(lib_a-callocr.o)
                                                  c:/program files (x86)/gnu tools arm embedded/4.9 2015q2/bin/../lib/gcc/arm-none-eabi/4.9.3/../../../../arm-none-eabi/lib/armv7e-m\libg.a(lib_a-mprec.o)
_cleanup                                          c:/program files (x86)/gnu tools arm embedded/4.9 2015q2/bin/../lib/gcc/arm-none-eabi/4.9.3/../../../../arm-none-eabi/lib/armv7e-m\libg.a(lib_a-findfp.o)
_cleanup_r                                        c:/program files (x86)/gnu tools arm embedded/4.9 2015q2/bin/../lib/gcc/arm-none-eabi/4.9.3/../../../../arm-none-eabi/lib/armv7e-m\libg.a(lib_a-findfp.o)
_close_r                                          ../../build/obj/syscalls.o
                                                  c:/program files (x86)/gnu tools arm embedded/4.9 2015q2/bin/../lib/gcc/arm-none-eabi/4.9.3/../../../../arm-none-eabi/lib/armv7e-m\libg.a(lib_a-stdio.o)
_core_init                                        ../../build/obj/chmemcore.o
                                                  ../../build/obj/chsys.o
_ctype_                                           c:/program files (x86)/gnu tools arm embedded/4.9 2015q2/bin/../lib/gcc/arm-none-eabi/4.9.3/../../../../arm-none-eabi/lib/armv7e-m\libg.a(lib_a-ctype_.o)
_data                                             ../../build/obj/crt0.o
_daylight                                         c:/program files (x86)/gnu tools arm embedded/4.9 2015q2/bin/../lib/gcc/arm-none-eabi/4.9.3/../../../../arm-none-eabi/lib/armv7e-m\libg.a(lib_a-tzvars.o)
                                                  c:/program files (x86)/gnu tools arm embedded/4.9 2015q2/bin/../lib/gcc/arm-none-eabi/4.9.3/../../../../arm-none-eabi/lib/armv7e-m\libg.a(lib_a-tzset_r.o)
                                                  c:/program files (x86)/gnu tools arm embedded/4.9 2015q2/bin/../lib/gcc/arm-none-eabi/4.9.3/../../../../arm-none-eabi/lib/armv7e-m\libg.a(lib_a-mktime.o)
                                                  c:/program files (x86)/gnu tools arm embedded/4.9 2015q2/bin/../lib/gcc/arm-none-eabi/4.9.3/../../../../arm-none-eabi/lib/armv7e-m\libg.a(lib_a-lcltime_r.o)
_default_exit                                     ../../build/obj/crt0.o
_edata                                            ../../build/obj/crt0.o
_exit                                             ../../build/obj/console.o
_fclose_r                                         c:/program files (x86)/gnu tools arm embedded/4.9 2015q2/bin/../lib/gcc/arm-none-eabi/4.9.3/../../../../arm-none-eabi/lib/armv7e-m\libg.a(lib_a-fclose.o)
                                                  c:/program files (x86)/gnu tools arm embedded/4.9 2015q2/bin/../lib/gcc/arm-none-eabi/4.9.3/../../../../arm-none-eabi/lib/armv7e-m\libg.a(lib_a-findfp.o)
_fflush_r                                         c:/program files (x86)/gnu tools arm embedded/4.9 2015q2/bin/../lib/gcc/arm-none-eabi/4.9.3/../../../../arm-none-eabi/lib/armv7e-m\libg.a(lib_a-fflush.o)
                                                  c:/program files (x86)/gnu tools arm embedded/4.9 2015q2/bin/../lib/gcc/arm-none-eabi/4.9.3/../../../../arm-none-eabi/lib/armv7e-m\libg.a(lib_a-ungetc.o)
_findenv_r                                        c:/program files (x86)/gnu tools arm embedded/4.9 2015q2/bin/../lib/gcc/arm-none-eabi/4.9.3/../../../../arm-none-eabi/lib/armv7e-m\libg.a(lib_a-getenv_r.o)
_free_r                                           c:/program files (x86)/gnu tools arm embedded/4.9 2015q2/bin/../lib/gcc/arm-none-eabi/4.9.3/../../../../arm-none-eabi/lib/armv7e-m\libg.a(lib_a-freer.o)
                                                  c:/program files (x86)/gnu tools arm embedded/4.9 2015q2/bin/../lib/gcc/arm-none-eabi/4.9.3/../../../../arm-none-eabi/lib/armv7e-m\libg.a(lib_a-fclose.o)
                                                  c:/program files (x86)/gnu tools arm embedded/4.9 2015q2/bin/../lib/gcc/arm-none-eabi/4.9.3/../../../../arm-none-eabi/lib/armv7e-m\libg.a(lib_a-fflush.o)
                                                  c:/program files (x86)/gnu tools arm embedded/4.9 2015q2/bin/../lib/gcc/arm-none-eabi/4.9.3/../../../../arm-none-eabi/lib/armv7e-m\libg.a(lib_a-svfiscanf.o)
                                                  c:/program files (x86)/gnu tools arm embedded/4.9 2015q2/bin/../lib/gcc/arm-none-eabi/4.9.3/../../../../arm-none-eabi/lib/armv7e-m\libg.a(lib_a-reallocr.o)
                                                  c:/program files (x86)/gnu tools arm embedded/4.9 2015q2/bin/../lib/gcc/arm-none-eabi/4.9.3/../../../../arm-none-eabi/lib/armv7e-m\libg.a(lib_a-mallocr.o)
                                                  c:/program files (x86)/gnu tools arm embedded/4.9 2015q2/bin/../lib/gcc/arm-none-eabi/4.9.3/../../../../arm-none-eabi/lib/armv7e-m\libg.a(lib_a-malloc.o)
                                                  c:/program files (x86)/gnu tools arm embedded/4.9 2015q2/bin/../lib/gcc/arm-none-eabi/4.9.3/../../../../arm-none-eabi/lib/armv7e-m\libg.a(lib_a-svfiprintf.o)
                                                  c:/program files (x86)/gnu tools arm embedded/4.9 2015q2/bin/../lib/gcc/arm-none-eabi/4.9.3/../../../../arm-none-eabi/lib/armv7e-m\libg.a(lib_a-reent.o)
_fstat_r                                          ../../build/obj/syscalls.o
_fwalk                                            c:/program files (x86)/gnu tools arm embedded/4.9 2015q2/bin/../lib/gcc/arm-none-eabi/4.9.3/../../../../arm-none-eabi/lib/armv7e-m\libg.a(lib_a-fwalk.o)
                                                  c:/program files (x86)/gnu tools arm embedded/4.9 2015q2/bin/../lib/gcc/arm-none-eabi/4.9.3/../../../../arm-none-eabi/lib/armv7e-m\libg.a(lib_a-findfp.o)
_fwalk_reent                                      c:/program files (x86)/gnu tools arm embedded/4.9 2015q2/bin/../lib/gcc/arm-none-eabi/4.9.3/../../../../arm-none-eabi/lib/armv7e-m\libg.a(lib_a-fwalk.o)
                                                  c:/program files (x86)/gnu tools arm embedded/4.9 2015q2/bin/../lib/gcc/arm-none-eabi/4.9.3/../../../../arm-none-eabi/lib/armv7e-m\libg.a(lib_a-findfp.o)
                                                  c:/program files (x86)/gnu tools arm embedded/4.9 2015q2/bin/../lib/gcc/arm-none-eabi/4.9.3/../../../../arm-none-eabi/lib/armv7e-m\libg.a(lib_a-fflush.o)
_getenv_r                                         c:/program files (x86)/gnu tools arm embedded/4.9 2015q2/bin/../lib/gcc/arm-none-eabi/4.9.3/../../../../arm-none-eabi/lib/armv7e-m\libg.a(lib_a-getenv_r.o)
                                                  c:/program files (x86)/gnu tools arm embedded/4.9 2015q2/bin/../lib/gcc/arm-none-eabi/4.9.3/../../../../arm-none-eabi/lib/armv7e-m\libg.a(lib_a-tzset_r.o)
_getpid                                           ../../build/obj/console.o
_global_impure_ptr                                c:/program files (x86)/gnu tools arm embedded/4.9 2015q2/bin/../lib/gcc/arm-none-eabi/4.9.3/../../../../arm-none-eabi/lib/armv7e-m\libg.a(lib_a-impure.o)
                                                  c:/program files (x86)/gnu tools arm embedded/4.9 2015q2/bin/../lib/gcc/arm-none-eabi/4.9.3/../../../../arm-none-eabi/lib/armv7e-m\libg.a(lib_a-findfp.o)
                                                  c:/program files (x86)/gnu tools arm embedded/4.9 2015q2/bin/../lib/gcc/arm-none-eabi/4.9.3/../../../../arm-none-eabi/lib/armv7e-m\libg.a(lib_a-fflush.o)
_heap_init                                        ../../build/obj/chheap.o
                                                  ../../build/obj/chsys.o
_idle_thread                                      ../../build/obj/chsys.o
_idle_thread_wa                                   ../../build/obj/chsys.o
_impure_ptr                                       c:/program files (x86)/gnu tools arm embedded/4.9 2015q2/bin/../lib/gcc/arm-none-eabi/4.9.3/../../../../arm-none-eabi/lib/armv7e-m\libg.a(lib_a-impure.o)
                                                  c:/program files (x86)/gnu tools arm embedded/4.9 2015q2/bin/../lib/gcc/arm-none-eabi/4.9.3/../../../../arm-none-eabi/lib/armv7e-m\libg.a(lib_a-fclose.o)
                                                  c:/program files (x86)/gnu tools arm embedded/4.9 2015q2/bin/../lib/gcc/arm-none-eabi/4.9.3/../../../../arm-none-eabi/lib/armv7e-m\libg.a(lib_a-mbrtowc.o)
                                                  c:/program files (x86)/gnu tools arm embedded/4.9 2015q2/bin/../lib/gcc/arm-none-eabi/4.9.3/../../../../arm-none-eabi/lib/armv7e-m\libg.a(lib_a-findfp.o)
                                                  c:/program files (x86)/gnu tools arm embedded/4.9 2015q2/bin/../lib/gcc/arm-none-eabi/4.9.3/../../../../arm-none-eabi/lib/armv7e-m\libg.a(lib_a-fflush.o)
                                                  c:/program files (x86)/gnu tools arm embedded/4.9 2015q2/bin/../lib/gcc/arm-none-eabi/4.9.3/../../../../arm-none-eabi/lib/armv7e-m\libg.a(lib_a-ungetc.o)
                                                  c:/program files (x86)/gnu tools arm embedded/4.9 2015q2/bin/../lib/gcc/arm-none-eabi/4.9.3/../../../../arm-none-eabi/lib/armv7e-m\libg.a(lib_a-strtoul.o)
                                                  c:/program files (x86)/gnu tools arm embedded/4.9 2015q2/bin/../lib/gcc/arm-none-eabi/4.9.3/../../../../arm-none-eabi/lib/armv7e-m\libg.a(lib_a-siscanf.o)
                                                  c:/program files (x86)/gnu tools arm embedded/4.9 2015q2/bin/../lib/gcc/arm-none-eabi/4.9.3/../../../../arm-none-eabi/lib/armv7e-m\libg.a(lib_a-malloc.o)
                                                  c:/program files (x86)/gnu tools arm embedded/4.9 2015q2/bin/../lib/gcc/arm-none-eabi/4.9.3/../../../../arm-none-eabi/lib/armv7e-m\libg.a(lib_a-locale.o)
                                                  c:/program files (x86)/gnu tools arm embedded/4.9 2015q2/bin/../lib/gcc/arm-none-eabi/4.9.3/../../../../arm-none-eabi/lib/armv7e-m\libg.a(lib_a-tzset.o)
                                                  c:/program files (x86)/gnu tools arm embedded/4.9 2015q2/bin/../lib/gcc/arm-none-eabi/4.9.3/../../../../arm-none-eabi/lib/armv7e-m\libg.a(lib_a-strtol.o)
                                                  c:/program files (x86)/gnu tools arm embedded/4.9 2015q2/bin/../lib/gcc/arm-none-eabi/4.9.3/../../../../arm-none-eabi/lib/armv7e-m\libg.a(lib_a-strtod.o)
                                                  c:/program files (x86)/gnu tools arm embedded/4.9 2015q2/bin/../lib/gcc/arm-none-eabi/4.9.3/../../../../arm-none-eabi/lib/armv7e-m\libg.a(lib_a-siprintf.o)
                                                  c:/program files (x86)/gnu tools arm embedded/4.9 2015q2/bin/../lib/gcc/arm-none-eabi/4.9.3/../../../../arm-none-eabi/lib/armv7e-m\libg.a(lib_a-reent.o)
                                                  c:/program files (x86)/gnu tools arm embedded/4.9 2015q2/bin/../lib/gcc/arm-none-eabi/4.9.3/../../../../arm-none-eabi/lib/armv7e-m\libg.a(lib_a-asctime.o)
_isatty_r                                         ../../build/obj/syscalls.o
_kill                                             ../../build/obj/console.o
_localeconv_r                                     c:/program files (x86)/gnu tools arm embedded/4.9 2015q2/bin/../lib/gcc/arm-none-eabi/4.9.3/../../../../arm-none-eabi/lib/armv7e-m\libg.a(lib_a-locale.o)
                                                  c:/program files (x86)/gnu tools arm embedded/4.9 2015q2/bin/../lib/gcc/arm-none-eabi/4.9.3/../../../../arm-none-eabi/lib/armv7e-m\libg.a(lib_a-gdtoa-gethex.o)
                                                  c:/program files (x86)/gnu tools arm embedded/4.9 2015q2/bin/../lib/gcc/arm-none-eabi/4.9.3/../../../../arm-none-eabi/lib/armv7e-m\libg.a(lib_a-strtod.o)
_lseek_r                                          ../../build/obj/syscalls.o
                                                  c:/program files (x86)/gnu tools arm embedded/4.9 2015q2/bin/../lib/gcc/arm-none-eabi/4.9.3/../../../../arm-none-eabi/lib/armv7e-m\libg.a(lib_a-stdio.o)
_malloc_r                                         c:/program files (x86)/gnu tools arm embedded/4.9 2015q2/bin/../lib/gcc/arm-none-eabi/4.9.3/../../../../arm-none-eabi/lib/armv7e-m\libg.a(lib_a-mallocr.o)
                                                  c:/program files (x86)/gnu tools arm embedded/4.9 2015q2/bin/../lib/gcc/arm-none-eabi/4.9.3/../../../../arm-none-eabi/lib/armv7e-m\libg.a(lib_a-findfp.o)
                                                  c:/program files (x86)/gnu tools arm embedded/4.9 2015q2/bin/../lib/gcc/arm-none-eabi/4.9.3/../../../../arm-none-eabi/lib/armv7e-m\libg.a(lib_a-callocr.o)
                                                  c:/program files (x86)/gnu tools arm embedded/4.9 2015q2/bin/../lib/gcc/arm-none-eabi/4.9.3/../../../../arm-none-eabi/lib/armv7e-m\libg.a(lib_a-ungetc.o)
                                                  c:/program files (x86)/gnu tools arm embedded/4.9 2015q2/bin/../lib/gcc/arm-none-eabi/4.9.3/../../../../arm-none-eabi/lib/armv7e-m\libg.a(lib_a-reallocr.o)
                                                  c:/program files (x86)/gnu tools arm embedded/4.9 2015q2/bin/../lib/gcc/arm-none-eabi/4.9.3/../../../../arm-none-eabi/lib/armv7e-m\libg.a(lib_a-malloc.o)
                                                  c:/program files (x86)/gnu tools arm embedded/4.9 2015q2/bin/../lib/gcc/arm-none-eabi/4.9.3/../../../../arm-none-eabi/lib/armv7e-m\libg.a(lib_a-tzset_r.o)
                                                  c:/program files (x86)/gnu tools arm embedded/4.9 2015q2/bin/../lib/gcc/arm-none-eabi/4.9.3/../../../../arm-none-eabi/lib/armv7e-m\libg.a(lib_a-svfiprintf.o)
_malloc_trim_r                                    c:/program files (x86)/gnu tools arm embedded/4.9 2015q2/bin/../lib/gcc/arm-none-eabi/4.9.3/../../../../arm-none-eabi/lib/armv7e-m\libg.a(lib_a-freer.o)
_mbrtowc_r                                        c:/program files (x86)/gnu tools arm embedded/4.9 2015q2/bin/../lib/gcc/arm-none-eabi/4.9.3/../../../../arm-none-eabi/lib/armv7e-m\libg.a(lib_a-mbrtowc.o)
                                                  c:/program files (x86)/gnu tools arm embedded/4.9 2015q2/bin/../lib/gcc/arm-none-eabi/4.9.3/../../../../arm-none-eabi/lib/armv7e-m\libg.a(lib_a-svfiscanf.o)
_mbtowc_r                                         c:/program files (x86)/gnu tools arm embedded/4.9 2015q2/bin/../lib/gcc/arm-none-eabi/4.9.3/../../../../arm-none-eabi/lib/armv7e-m\libg.a(lib_a-mbtowc_r.o)
_mprec_log10                                      c:/program files (x86)/gnu tools arm embedded/4.9 2015q2/bin/../lib/gcc/arm-none-eabi/4.9.3/../../../../arm-none-eabi/lib/armv7e-m\libg.a(lib_a-mprec.o)
_pal_lld_init                                     ../../build/obj/pal_lld.o
                                                  ../../build/obj/hal.o
_pal_lld_setgroupmode                             ../../build/obj/pal_lld.o
                                                  ../../build/obj/pal.o
_port_init                                        ../../build/obj/chcore_v7m.o
                                                  ../../build/obj/chsys.o
_port_irq_epilogue                                ../../build/obj/chcore_v7m.o
                                                  ../../build/obj/serial_lld.o
                                                  ../../build/obj/pwm_lld.o
                                                  ../../build/obj/icu_lld.o
                                                  ../../build/obj/gpt_lld.o
                                                  ../../build/obj/usb_lld.o
                                                  ../../build/obj/i2c_lld.o
                                                  ../../build/obj/sdc_lld.o
                                                  ../../build/obj/can_lld.o
                                                  ../../build/obj/adc_lld.o
                                                  ../../build/obj/stm32_dma.o
_port_switch                                      ../../build/obj/chcore_v7m.o
                                                  ../../build/obj/chschd.o
_port_switch_from_isr                             ../../build/obj/chcore_v7m.o
_port_thread_start                                ../../build/obj/chcore_v7m.o
                                                  ../../build/obj/chthreads.o
_read_r                                           ../../build/obj/syscalls.o
                                                  c:/program files (x86)/gnu tools arm embedded/4.9 2015q2/bin/../lib/gcc/arm-none-eabi/4.9.3/../../../../arm-none-eabi/lib/armv7e-m\libg.a(lib_a-stdio.o)
_realloc_r                                        c:/program files (x86)/gnu tools arm embedded/4.9 2015q2/bin/../lib/gcc/arm-none-eabi/4.9.3/../../../../arm-none-eabi/lib/armv7e-m\libg.a(lib_a-reallocr.o)
                                                  c:/program files (x86)/gnu tools arm embedded/4.9 2015q2/bin/../lib/gcc/arm-none-eabi/4.9.3/../../../../arm-none-eabi/lib/armv7e-m\libg.a(lib_a-ungetc.o)
                                                  c:/program files (x86)/gnu tools arm embedded/4.9 2015q2/bin/../lib/gcc/arm-none-eabi/4.9.3/../../../../arm-none-eabi/lib/armv7e-m\libg.a(lib_a-svfiprintf.o)
_reclaim_reent                                    c:/program files (x86)/gnu tools arm embedded/4.9 2015q2/bin/../lib/gcc/arm-none-eabi/4.9.3/../../../../arm-none-eabi/lib/armv7e-m\libg.a(lib_a-reent.o)
_sbrk_r                                           ../../build/obj/syscalls.o
                                                  c:/program files (x86)/gnu tools arm embedded/4.9 2015q2/bin/../lib/gcc/arm-none-eabi/4.9.3/../../../../arm-none-eabi/lib/armv7e-m\libg.a(lib_a-mallocr.o)
                                                  c:/program files (x86)/gnu tools arm embedded/4.9 2015q2/bin/../lib/gcc/arm-none-eabi/4.9.3/../../../../arm-none-eabi/lib/armv7e-m\libg.a(lib_a-freer.o)
_scheduler_init                                   ../../build/obj/chschd.o
                                                  ../../build/obj/chsys.o
_sdc_wait_for_transfer_state                      ../../build/obj/sdc.o
                                                  ../../build/obj/sdc_lld.o
_setlocale_r                                      c:/program files (x86)/gnu tools arm embedded/4.9 2015q2/bin/../lib/gcc/arm-none-eabi/4.9.3/../../../../arm-none-eabi/lib/armv7e-m\libg.a(lib_a-locale.o)
_sfread_r                                         c:/program files (x86)/gnu tools arm embedded/4.9 2015q2/bin/../lib/gcc/arm-none-eabi/4.9.3/../../../../arm-none-eabi/lib/armv7e-m\libg.a(lib_a-svfiscanf.o)
_siprintf_r                                       c:/program files (x86)/gnu tools arm embedded/4.9 2015q2/bin/../lib/gcc/arm-none-eabi/4.9.3/../../../../arm-none-eabi/lib/armv7e-m\libg.a(lib_a-siprintf.o)
_siscanf_r                                        c:/program files (x86)/gnu tools arm embedded/4.9 2015q2/bin/../lib/gcc/arm-none-eabi/4.9.3/../../../../arm-none-eabi/lib/armv7e-m\libg.a(lib_a-siscanf.o)
_stm32_dma_streams                                ../../build/obj/stm32_dma.o
                                                  ../../build/obj/spi_lld.o
                                                  ../../build/obj/i2c_lld.o
                                                  ../../build/obj/sdc_lld.o
                                                  ../../build/obj/adc_lld.o
_strtod_r                                         c:/program files (x86)/gnu tools arm embedded/4.9 2015q2/bin/../lib/gcc/arm-none-eabi/4.9.3/../../../../arm-none-eabi/lib/armv7e-m\libg.a(lib_a-strtod.o)
_strtol_r                                         c:/program files (x86)/gnu tools arm embedded/4.9 2015q2/bin/../lib/gcc/arm-none-eabi/4.9.3/../../../../arm-none-eabi/lib/armv7e-m\libg.a(lib_a-strtol.o)
                                                  c:/program files (x86)/gnu tools arm embedded/4.9 2015q2/bin/../lib/gcc/arm-none-eabi/4.9.3/../../../../arm-none-eabi/lib/armv7e-m\libg.a(lib_a-svfiscanf.o)
                                                  c:/program files (x86)/gnu tools arm embedded/4.9 2015q2/bin/../lib/gcc/arm-none-eabi/4.9.3/../../../../arm-none-eabi/lib/armv7e-m\libg.a(lib_a-atol.o)
                                                  c:/program files (x86)/gnu tools arm embedded/4.9 2015q2/bin/../lib/gcc/arm-none-eabi/4.9.3/../../../../arm-none-eabi/lib/armv7e-m\libg.a(lib_a-atoi.o)
_strtoll_r                                        c:/program files (x86)/gnu tools arm embedded/4.9 2015q2/bin/../lib/gcc/arm-none-eabi/4.9.3/../../../../arm-none-eabi/lib/armv7e-m\libg.a(lib_a-strtoll_r.o)
                                                  c:/program files (x86)/gnu tools arm embedded/4.9 2015q2/bin/../lib/gcc/arm-none-eabi/4.9.3/../../../../arm-none-eabi/lib/armv7e-m\libg.a(lib_a-svfiscanf.o)
_strtoul_r                                        c:/program files (x86)/gnu tools arm embedded/4.9 2015q2/bin/../lib/gcc/arm-none-eabi/4.9.3/../../../../arm-none-eabi/lib/armv7e-m\libg.a(lib_a-strtoul.o)
                                                  c:/program files (x86)/gnu tools arm embedded/4.9 2015q2/bin/../lib/gcc/arm-none-eabi/4.9.3/../../../../arm-none-eabi/lib/armv7e-m\libg.a(lib_a-svfiscanf.o)
_strtoull_r                                       c:/program files (x86)/gnu tools arm embedded/4.9 2015q2/bin/../lib/gcc/arm-none-eabi/4.9.3/../../../../arm-none-eabi/lib/armv7e-m\libg.a(lib_a-strtoull_r.o)
                                                  c:/program files (x86)/gnu tools arm embedded/4.9 2015q2/bin/../lib/gcc/arm-none-eabi/4.9.3/../../../../arm-none-eabi/lib/armv7e-m\libg.a(lib_a-svfiscanf.o)
_sungetc_r                                        c:/program files (x86)/gnu tools arm embedded/4.9 2015q2/bin/../lib/gcc/arm-none-eabi/4.9.3/../../../../arm-none-eabi/lib/armv7e-m\libg.a(lib_a-svfiscanf.o)
_svfiprintf_r                                     c:/program files (x86)/gnu tools arm embedded/4.9 2015q2/bin/../lib/gcc/arm-none-eabi/4.9.3/../../../../arm-none-eabi/lib/armv7e-m\libg.a(lib_a-svfiprintf.o)
                                                  c:/program files (x86)/gnu tools arm embedded/4.9 2015q2/bin/../lib/gcc/arm-none-eabi/4.9.3/../../../../arm-none-eabi/lib/armv7e-m\libg.a(lib_a-siprintf.o)
_test_assert                                      ../../build/obj/test.o
                                                  ../../build/obj/testqueues.o
                                                  ../../build/obj/testdyn.o
                                                  ../../build/obj/testpools.o
                                                  ../../build/obj/testheap.o
                                                  ../../build/obj/testevt.o
                                                  ../../build/obj/testmbox.o
                                                  ../../build/obj/testmtx.o
                                                  ../../build/obj/testsem.o
                                                  ../../build/obj/testthd.o
_test_assert_sequence                             ../../build/obj/test.o
                                                  ../../build/obj/testqueues.o
                                                  ../../build/obj/testdyn.o
                                                  ../../build/obj/testevt.o
                                                  ../../build/obj/testmbox.o
                                                  ../../build/obj/testmsg.o
                                                  ../../build/obj/testmtx.o
                                                  ../../build/obj/testsem.o
                                                  ../../build/obj/testthd.o
_test_assert_time_window                          ../../build/obj/test.o
                                                  ../../build/obj/testevt.o
                                                  ../../build/obj/testmtx.o
                                                  ../../build/obj/testsem.o
                                                  ../../build/obj/testthd.o
_test_fail                                        ../../build/obj/test.o
_textdata                                         ../../build/obj/crt0.o
_thread_init                                      ../../build/obj/chthreads.o
                                                  ../../build/obj/chsys.o
_timezone                                         c:/program files (x86)/gnu tools arm embedded/4.9 2015q2/bin/../lib/gcc/arm-none-eabi/4.9.3/../../../../arm-none-eabi/lib/armv7e-m\libg.a(lib_a-tzvars.o)
                                                  c:/program files (x86)/gnu tools arm embedded/4.9 2015q2/bin/../lib/gcc/arm-none-eabi/4.9.3/../../../../arm-none-eabi/lib/armv7e-m\libg.a(lib_a-tzset_r.o)
_tzname                                           c:/program files (x86)/gnu tools arm embedded/4.9 2015q2/bin/../lib/gcc/arm-none-eabi/4.9.3/../../../../arm-none-eabi/lib/armv7e-m\libg.a(lib_a-tzvars.o)
                                                  c:/program files (x86)/gnu tools arm embedded/4.9 2015q2/bin/../lib/gcc/arm-none-eabi/4.9.3/../../../../arm-none-eabi/lib/armv7e-m\libg.a(lib_a-tzset_r.o)
_tzset_r                                          c:/program files (x86)/gnu tools arm embedded/4.9 2015q2/bin/../lib/gcc/arm-none-eabi/4.9.3/../../../../arm-none-eabi/lib/armv7e-m\libg.a(lib_a-tzset_r.o)
_tzset_unlocked                                   c:/program files (x86)/gnu tools arm embedded/4.9 2015q2/bin/../lib/gcc/arm-none-eabi/4.9.3/../../../../arm-none-eabi/lib/armv7e-m\libg.a(lib_a-tzset.o)
                                                  c:/program files (x86)/gnu tools arm embedded/4.9 2015q2/bin/../lib/gcc/arm-none-eabi/4.9.3/../../../../arm-none-eabi/lib/armv7e-m\libg.a(lib_a-mktime.o)
                                                  c:/program files (x86)/gnu tools arm embedded/4.9 2015q2/bin/../lib/gcc/arm-none-eabi/4.9.3/../../../../arm-none-eabi/lib/armv7e-m\libg.a(lib_a-lcltime_r.o)
_tzset_unlocked_r                                 c:/program files (x86)/gnu tools arm embedded/4.9 2015q2/bin/../lib/gcc/arm-none-eabi/4.9.3/../../../../arm-none-eabi/lib/armv7e-m\libg.a(lib_a-tzset_r.o)
                                                  c:/program files (x86)/gnu tools arm embedded/4.9 2015q2/bin/../lib/gcc/arm-none-eabi/4.9.3/../../../../arm-none-eabi/lib/armv7e-m\libg.a(lib_a-tzset.o)
_ungetc_r                                         c:/program files (x86)/gnu tools arm embedded/4.9 2015q2/bin/../lib/gcc/arm-none-eabi/4.9.3/../../../../arm-none-eabi/lib/armv7e-m\libg.a(lib_a-ungetc.o)
_unhandled_exception                              ../../build/obj/vectors.o
_usb_ep0in                                        ../../build/obj/usb.o
                                                  ../../build/obj/usb_lld.o
_usb_ep0out                                       ../../build/obj/usb.o
                                                  ../../build/obj/usb_lld.o
_usb_ep0setup                                     ../../build/obj/usb.o
                                                  ../../build/obj/usb_lld.o
_usb_reset                                        ../../build/obj/usb.o
                                                  ../../build/obj/usb_lld.o
_vectors                                          ../../build/obj/vectors.o
_vt_init                                          ../../build/obj/chvt.o
                                                  ../../build/obj/chsys.o
_write_r                                          ../../build/obj/syscalls.o
                                                  c:/program files (x86)/gnu tools arm embedded/4.9 2015q2/bin/../lib/gcc/arm-none-eabi/4.9.3/../../../../arm-none-eabi/lib/armv7e-m\libg.a(lib_a-stdio.o)
adcAcquireBus                                     ../../build/obj/adc.o
adcConvert                                        ../../build/obj/adc.o
                                                  ../../build/obj/meas.o
adcInit                                           ../../build/obj/adc.o
                                                  ../../build/obj/hal.o
adcObjectInit                                     ../../build/obj/adc.o
                                                  ../../build/obj/adc_lld.o
adcReleaseBus                                     ../../build/obj/adc.o
adcSTM32DisableTSVREFE                            ../../build/obj/adc_lld.o
adcSTM32DisableVBATE                              ../../build/obj/adc_lld.o
adcSTM32EnableTSVREFE                             ../../build/obj/adc_lld.o
adcSTM32EnableVBATE                               ../../build/obj/adc_lld.o
adcStart                                          ../../build/obj/adc.o
                                                  ../../build/obj/meas.o
adcStartConversion                                ../../build/obj/adc.o
adcStartConversionI                               ../../build/obj/adc.o
adcStop                                           ../../build/obj/adc.o
adcStopConversion                                 ../../build/obj/adc.o
adcStopConversionI                                ../../build/obj/adc.o
adc_lld_init                                      ../../build/obj/adc_lld.o
                                                  ../../build/obj/adc.o
adc_lld_start                                     ../../build/obj/adc_lld.o
                                                  ../../build/obj/adc.o
adc_lld_start_conversion                          ../../build/obj/adc_lld.o
                                                  ../../build/obj/adc.o
adc_lld_stop                                      ../../build/obj/adc_lld.o
                                                  ../../build/obj/adc.o
adc_lld_stop_conversion                           ../../build/obj/adc_lld.o
                                                  ../../build/obj/adc.o
asctime                                           c:/program files (x86)/gnu tools arm embedded/4.9 2015q2/bin/../lib/gcc/arm-none-eabi/4.9.3/../../../../arm-none-eabi/lib/armv7e-m\libg.a(lib_a-asctime.o)
                                                  ../../build/obj/console.o
asctime_r                                         c:/program files (x86)/gnu tools arm embedded/4.9 2015q2/bin/../lib/gcc/arm-none-eabi/4.9.3/../../../../arm-none-eabi/lib/armv7e-m\libg.a(lib_a-asctime_r.o)
                                                  c:/program files (x86)/gnu tools arm embedded/4.9 2015q2/bin/../lib/gcc/arm-none-eabi/4.9.3/../../../../arm-none-eabi/lib/armv7e-m\libg.a(lib_a-asctime.o)
atof                                              c:/program files (x86)/gnu tools arm embedded/4.9 2015q2/bin/../lib/gcc/arm-none-eabi/4.9.3/../../../../arm-none-eabi/lib/armv7e-m\libg.a(lib_a-atof.o)
                                                  ../../build/obj/nmea.o
atoi                                              c:/program files (x86)/gnu tools arm embedded/4.9 2015q2/bin/../lib/gcc/arm-none-eabi/4.9.3/../../../../arm-none-eabi/lib/armv7e-m\libg.a(lib_a-atoi.o)
                                                  ../../build/obj/nmea.o
atol                                              c:/program files (x86)/gnu tools arm embedded/4.9 2015q2/bin/../lib/gcc/arm-none-eabi/4.9.3/../../../../arm-none-eabi/lib/armv7e-m\libg.a(lib_a-atol.o)
                                                  ../../build/obj/safety.o
                                                  ../../build/obj/dsp.o
                                                  ../../build/obj/cruise.o
                                                  ../../build/obj/speed.o
                                                  ../../build/obj/can_comm.o
                                                  ../../build/obj/console.o
bmsitems                                          ../../build/obj/log.o
                                                  ../../build/obj/calc.o
                                                  ../../build/obj/safety.o
                                                  ../../build/obj/dsp.o
                                                  ../../build/obj/cruise.o
                                                  ../../build/obj/can_comm.o
boardInit                                         ../../build/obj/board.o
                                                  ../../build/obj/hal.o
brakeCalc                                         ../../build/obj/brake.o
brakeInit                                         ../../build/obj/brake.o
bus_In                                            ../../build/obj/gfx.o
                                                  ../../build/obj/dsp.o
bus_Read                                          ../../build/obj/gfx.o
                                                  ../../build/obj/dsp.o
buttonCalc                                        ../../build/obj/button.o
                                                  ../../build/obj/main.o
buttonInit                                        ../../build/obj/button.o
                                                  ../../build/obj/main.o
c                                                 ../../build/obj/dsp.o
calcAvgSpeed                                      ../../build/obj/calc.o
                                                  ../../build/obj/dsp.o
                                                  ../../build/obj/can_comm.o
                                                  ../../build/obj/log.o
calcCalc                                          ../../build/obj/calc.o
                                                  ../../build/obj/main.o
calcGetValue                                      ../../build/obj/calc.o
                                                  ../../build/obj/dsp.o
                                                  ../../build/obj/meas.o
                                                  ../../build/obj/can_comm.o
calcInit                                          ../../build/obj/calc.o
                                                  ../../build/obj/main.o
calcstate                                         ../../build/obj/calc.o
canInit                                           ../../build/obj/can.o
                                                  ../../build/obj/hal.o
canObjectInit                                     ../../build/obj/can.o
                                                  ../../build/obj/can_lld.o
canReceive                                        ../../build/obj/can.o
                                                  ../../build/obj/can_comm.o
canSTM32SetFilters                                ../../build/obj/can_lld.o
canSleep                                          ../../build/obj/can.o
canStart                                          ../../build/obj/can.o
                                                  ../../build/obj/can_comm.o
canStop                                           ../../build/obj/can.o
canTransmit                                       ../../build/obj/can.o
                                                  ../../build/obj/can_comm.o
canWakeup                                         ../../build/obj/can.o
can_commInit                                      ../../build/obj/can_comm.o
                                                  ../../build/obj/main.o
can_lld_init                                      ../../build/obj/can_lld.o
                                                  ../../build/obj/can.o
can_lld_is_rx_nonempty                            ../../build/obj/can_lld.o
                                                  ../../build/obj/can.o
can_lld_is_tx_empty                               ../../build/obj/can_lld.o
                                                  ../../build/obj/can.o
can_lld_receive                                   ../../build/obj/can_lld.o
                                                  ../../build/obj/can.o
can_lld_sleep                                     ../../build/obj/can_lld.o
                                                  ../../build/obj/can.o
can_lld_start                                     ../../build/obj/can_lld.o
                                                  ../../build/obj/can.o
can_lld_stop                                      ../../build/obj/can_lld.o
                                                  ../../build/obj/can.o
can_lld_transmit                                  ../../build/obj/can_lld.o
                                                  ../../build/obj/can.o
can_lld_wakeup                                    ../../build/obj/can_lld.o
                                                  ../../build/obj/can.o
canlight                                          ../../build/obj/can_comm.o
canmessages                                       ../../build/obj/can_comm.o
canstate                                          ../../build/obj/can_comm.o
cellitems                                         ../../build/obj/log.o
                                                  ../../build/obj/can_comm.o
chCondBroadcast                                   ../../build/obj/chcond.o
                                                  ../../build/obj/testmtx.o
chCondBroadcastI                                  ../../build/obj/chcond.o
chCondInit                                        ../../build/obj/chcond.o
                                                  ../../build/obj/testmtx.o
chCondSignal                                      ../../build/obj/chcond.o
                                                  ../../build/obj/testmtx.o
chCondSignalI                                     ../../build/obj/chcond.o
                                                  ../../build/obj/testmtx.o
chCondWait                                        ../../build/obj/chcond.o
                                                  ../../build/obj/testmtx.o
chCondWaitS                                       ../../build/obj/chcond.o
chCondWaitTimeout                                 ../../build/obj/chcond.o
                                                  ../../build/obj/testmtx.o
chCondWaitTimeoutS                                ../../build/obj/chcond.o
chCoreAlloc                                       ../../build/obj/chmemcore.o
                                                  ../../build/obj/syscalls.o
                                                  ../../build/obj/chheap.o
chCoreAllocI                                      ../../build/obj/chmemcore.o
chCoreStatus                                      ../../build/obj/chmemcore.o
                                                  ../../build/obj/console.o
                                                  ../../build/obj/testheap.o
chEvtAddEvents                                    ../../build/obj/chevents.o
                                                  ../../build/obj/testevt.o
chEvtBroadcastFlags                               ../../build/obj/chevents.o
                                                  ../../build/obj/testevt.o
chEvtBroadcastFlagsI                              ../../build/obj/chevents.o
                                                  ../../build/obj/shell2.o
                                                  ../../build/obj/evtimer.o
                                                  ../../build/obj/serial_lld.o
                                                  ../../build/obj/can_lld.o
                                                  ../../build/obj/serial_usb.o
                                                  ../../build/obj/serial.o
                                                  ../../build/obj/can.o
chEvtDispatch                                     ../../build/obj/chevents.o
                                                  ../../build/obj/testevt.o
chEvtGetAndClearEvents                            ../../build/obj/chevents.o
                                                  ../../build/obj/testevt.o
chEvtGetAndClearFlags                             ../../build/obj/chevents.o
chEvtGetAndClearFlagsI                            ../../build/obj/chevents.o
chEvtRegisterMask                                 ../../build/obj/chevents.o
                                                  ../../build/obj/can_comm.o
                                                  ../../build/obj/testevt.o
chEvtSignal                                       ../../build/obj/chevents.o
                                                  ../../build/obj/testevt.o
chEvtSignalI                                      ../../build/obj/chevents.o
chEvtUnregister                                   ../../build/obj/chevents.o
                                                  ../../build/obj/can_comm.o
                                                  ../../build/obj/testevt.o
chEvtWaitAll                                      ../../build/obj/chevents.o
                                                  ../../build/obj/testevt.o
chEvtWaitAllTimeout                               ../../build/obj/chevents.o
                                                  ../../build/obj/testevt.o
chEvtWaitAny                                      ../../build/obj/chevents.o
                                                  ../../build/obj/testevt.o
chEvtWaitAnyTimeout                               ../../build/obj/chevents.o
                                                  ../../build/obj/can_comm.o
                                                  ../../build/obj/testevt.o
chEvtWaitOne                                      ../../build/obj/chevents.o
                                                  ../../build/obj/testevt.o
chEvtWaitOneTimeout                               ../../build/obj/chevents.o
                                                  ../../build/obj/testevt.o
chHeapAlloc                                       ../../build/obj/chheap.o
                                                  ../../build/obj/fatfs_syscall.o
                                                  ../../build/obj/testdyn.o
                                                  ../../build/obj/testheap.o
                                                  ../../build/obj/chdynamic.o
chHeapFree                                        ../../build/obj/chheap.o
                                                  ../../build/obj/fatfs_syscall.o
                                                  ../../build/obj/testdyn.o
                                                  ../../build/obj/testheap.o
                                                  ../../build/obj/chdynamic.o
chHeapInit                                        ../../build/obj/chheap.o
                                                  ../../build/obj/testdyn.o
                                                  ../../build/obj/testheap.o
chHeapStatus                                      ../../build/obj/chheap.o
                                                  ../../build/obj/console.o
                                                  ../../build/obj/testdyn.o
                                                  ../../build/obj/testheap.o
chIQGetTimeout                                    ../../build/obj/chqueues.o
                                                  ../../build/obj/serial_usb.o
                                                  ../../build/obj/serial.o
                                                  ../../build/obj/testbmk.o
                                                  ../../build/obj/testqueues.o
chIQInit                                          ../../build/obj/chqueues.o
                                                  ../../build/obj/serial_usb.o
                                                  ../../build/obj/serial.o
                                                  ../../build/obj/testbmk.o
                                                  ../../build/obj/testqueues.o
chIQPutI                                          ../../build/obj/chqueues.o
                                                  ../../build/obj/serial.o
                                                  ../../build/obj/testbmk.o
                                                  ../../build/obj/testqueues.o
chIQReadTimeout                                   ../../build/obj/chqueues.o
                                                  ../../build/obj/gfx.o
                                                  ../../build/obj/syscalls.o
                                                  ../../build/obj/serial_usb.o
                                                  ../../build/obj/serial.o
                                                  ../../build/obj/testqueues.o
chIQResetI                                        ../../build/obj/chqueues.o
                                                  ../../build/obj/serial_usb.o
                                                  ../../build/obj/serial.o
                                                  ../../build/obj/testqueues.o
chMBFetch                                         ../../build/obj/chmboxes.o
                                                  ../../build/obj/testmbox.o
chMBFetchI                                        ../../build/obj/chmboxes.o
                                                  ../../build/obj/testmbox.o
chMBFetchS                                        ../../build/obj/chmboxes.o
chMBInit                                          ../../build/obj/chmboxes.o
                                                  ../../build/obj/testmbox.o
chMBPost                                          ../../build/obj/chmboxes.o
                                                  ../../build/obj/testmbox.o
chMBPostAhead                                     ../../build/obj/chmboxes.o
                                                  ../../build/obj/testmbox.o
chMBPostAheadI                                    ../../build/obj/chmboxes.o
                                                  ../../build/obj/testmbox.o
chMBPostAheadS                                    ../../build/obj/chmboxes.o
chMBPostI                                         ../../build/obj/chmboxes.o
                                                  ../../build/obj/testmbox.o
chMBPostS                                         ../../build/obj/chmboxes.o
chMBReset                                         ../../build/obj/chmboxes.o
                                                  ../../build/obj/testmbox.o
chMsgRelease                                      ../../build/obj/chmsg.o
                                                  ../../build/obj/testbmk.o
                                                  ../../build/obj/testmsg.o
chMsgSend                                         ../../build/obj/chmsg.o
                                                  ../../build/obj/testbmk.o
                                                  ../../build/obj/testmsg.o
chMsgWait                                         ../../build/obj/chmsg.o
                                                  ../../build/obj/testbmk.o
                                                  ../../build/obj/testmsg.o
chMtxInit                                         ../../build/obj/chmtx.o
                                                  ../../build/obj/nmea.o
                                                  ../../build/obj/spi.o
                                                  ../../build/obj/i2c.o
                                                  ../../build/obj/adc.o
                                                  ../../build/obj/testbmk.o
                                                  ../../build/obj/testmtx.o
                                                  ../../build/obj/chheap.o
chMtxLock                                         ../../build/obj/chmtx.o
                                                  ../../build/obj/nmea.o
                                                  ../../build/obj/spi.o
                                                  ../../build/obj/i2c.o
                                                  ../../build/obj/adc.o
                                                  ../../build/obj/testbmk.o
                                                  ../../build/obj/testmtx.o
                                                  ../../build/obj/chheap.o
chMtxLockS                                        ../../build/obj/chmtx.o
                                                  ../../build/obj/chcond.o
chMtxTryLock                                      ../../build/obj/chmtx.o
                                                  ../../build/obj/testmtx.o
chMtxTryLockS                                     ../../build/obj/chmtx.o
chMtxUnlock                                       ../../build/obj/chmtx.o
                                                  ../../build/obj/nmea.o
                                                  ../../build/obj/spi.o
                                                  ../../build/obj/i2c.o
                                                  ../../build/obj/adc.o
                                                  ../../build/obj/testbmk.o
                                                  ../../build/obj/testmtx.o
                                                  ../../build/obj/chheap.o
chMtxUnlockAll                                    ../../build/obj/chmtx.o
                                                  ../../build/obj/testmtx.o
chMtxUnlockS                                      ../../build/obj/chmtx.o
                                                  ../../build/obj/testmtx.o
                                                  ../../build/obj/chcond.o
chOQGetI                                          ../../build/obj/chqueues.o
                                                  ../../build/obj/serial_lld.o
                                                  ../../build/obj/serial.o
                                                  ../../build/obj/testqueues.o
chOQInit                                          ../../build/obj/chqueues.o
                                                  ../../build/obj/serial_usb.o
                                                  ../../build/obj/serial.o
                                                  ../../build/obj/testqueues.o
chOQPutTimeout                                    ../../build/obj/chqueues.o
                                                  ../../build/obj/gfx.o
                                                  ../../build/obj/serial_usb.o
                                                  ../../build/obj/serial.o
                                                  ../../build/obj/testqueues.o
chOQResetI                                        ../../build/obj/chqueues.o
                                                  ../../build/obj/serial_usb.o
                                                  ../../build/obj/serial.o
                                                  ../../build/obj/testqueues.o
chOQWriteTimeout                                  ../../build/obj/chqueues.o
                                                  ../../build/obj/syscalls.o
                                                  ../../build/obj/serial_usb.o
                                                  ../../build/obj/serial.o
                                                  ../../build/obj/testqueues.o
chPoolAlloc                                       ../../build/obj/chmempools.o
                                                  ../../build/obj/testdyn.o
                                                  ../../build/obj/testpools.o
                                                  ../../build/obj/chdynamic.o
chPoolAllocI                                      ../../build/obj/chmempools.o
chPoolFree                                        ../../build/obj/chmempools.o
                                                  ../../build/obj/testdyn.o
                                                  ../../build/obj/testpools.o
                                                  ../../build/obj/chdynamic.o
chPoolFreeI                                       ../../build/obj/chmempools.o
chPoolInit                                        ../../build/obj/chmempools.o
                                                  ../../build/obj/testdyn.o
                                                  ../../build/obj/testpools.o
chPoolLoadArray                                   ../../build/obj/chmempools.o
                                                  ../../build/obj/testpools.o
chRegFirstThread                                  ../../build/obj/chregistry.o
                                                  ../../build/obj/console.o
                                                  ../../build/obj/testdyn.o
chRegNextThread                                   ../../build/obj/chregistry.o
                                                  ../../build/obj/console.o
                                                  ../../build/obj/testdyn.o
chSchDoReschedule                                 ../../build/obj/chschd.o
                                                  ../../build/obj/chcore_v7m.o
chSchDoRescheduleAhead                            ../../build/obj/chschd.o
chSchDoRescheduleBehind                           ../../build/obj/chschd.o
                                                  ../../build/obj/chthreads.o
chSchGoSleepS                                     ../../build/obj/chschd.o
                                                  ../../build/obj/usb_lld.o
                                                  ../../build/obj/i2c_lld.o
                                                  ../../build/obj/sdc_lld.o
                                                  ../../build/obj/spi.o
                                                  ../../build/obj/adc.o
                                                  ../../build/obj/testbmk.o
                                                  ../../build/obj/chmsg.o
                                                  ../../build/obj/chevents.o
                                                  ../../build/obj/chcond.o
                                                  ../../build/obj/chmtx.o
                                                  ../../build/obj/chsem.o
                                                  ../../build/obj/chthreads.o
chSchGoSleepTimeoutS                              ../../build/obj/chschd.o
                                                  ../../build/obj/can_lld.o
                                                  ../../build/obj/can.o
                                                  ../../build/obj/chqueues.o
                                                  ../../build/obj/chevents.o
                                                  ../../build/obj/chcond.o
                                                  ../../build/obj/chsem.o
                                                  ../../build/obj/chthreads.o
chSchReadyI                                       ../../build/obj/chschd.o
                                                  ../../build/obj/spi_lld.o
                                                  ../../build/obj/usb_lld.o
                                                  ../../build/obj/i2c_lld.o
                                                  ../../build/obj/sdc_lld.o
                                                  ../../build/obj/adc_lld.o
                                                  ../../build/obj/adc.o
                                                  ../../build/obj/chqueues.o
                                                  ../../build/obj/chmsg.o
                                                  ../../build/obj/chevents.o
                                                  ../../build/obj/chcond.o
                                                  ../../build/obj/chmtx.o
                                                  ../../build/obj/chsem.o
                                                  ../../build/obj/chthreads.o
chSchRescheduleS                                  ../../build/obj/chschd.o
                                                  ../../build/obj/usb_lld.o
                                                  ../../build/obj/serial_usb.o
                                                  ../../build/obj/serial.o
                                                  ../../build/obj/can.o
                                                  ../../build/obj/testmtx.o
                                                  ../../build/obj/testsem.o
                                                  ../../build/obj/chmboxes.o
                                                  ../../build/obj/chevents.o
                                                  ../../build/obj/chcond.o
                                                  ../../build/obj/chmtx.o
                                                  ../../build/obj/chsem.o
                                                  ../../build/obj/chthreads.o
chSchWakeupS                                      ../../build/obj/chschd.o
                                                  ../../build/obj/adc.o
                                                  ../../build/obj/testbmk.o
                                                  ../../build/obj/chmsg.o
                                                  ../../build/obj/chcond.o
                                                  ../../build/obj/chmtx.o
                                                  ../../build/obj/chsem.o
                                                  ../../build/obj/chdynamic.o
                                                  ../../build/obj/chthreads.o
chSemAddCounterI                                  ../../build/obj/chsem.o
                                                  ../../build/obj/testsem.o
chSemInit                                         ../../build/obj/chsem.o
                                                  ../../build/obj/can.o
                                                  ../../build/obj/testbmk.o
                                                  ../../build/obj/testsem.o
                                                  ../../build/obj/chmboxes.o
chSemReset                                        ../../build/obj/chsem.o
                                                  ../../build/obj/testbmk.o
                                                  ../../build/obj/testsem.o
chSemResetI                                       ../../build/obj/chsem.o
                                                  ../../build/obj/can.o
                                                  ../../build/obj/chmboxes.o
chSemSignal                                       ../../build/obj/chsem.o
                                                  ../../build/obj/testbmk.o
                                                  ../../build/obj/testsem.o
chSemSignalI                                      ../../build/obj/chsem.o
                                                  ../../build/obj/can_lld.o
                                                  ../../build/obj/testsem.o
                                                  ../../build/obj/chmboxes.o
chSemSignalWait                                   ../../build/obj/chsem.o
                                                  ../../build/obj/testsem.o
chSemWait                                         ../../build/obj/chsem.o
                                                  ../../build/obj/testbmk.o
                                                  ../../build/obj/testsem.o
chSemWaitS                                        ../../build/obj/chsem.o
chSemWaitTimeout                                  ../../build/obj/chsem.o
                                                  ../../build/obj/testsem.o
chSemWaitTimeoutS                                 ../../build/obj/chsem.o
                                                  ../../build/obj/can.o
                                                  ../../build/obj/chmboxes.o
chSysInit                                         ../../build/obj/chsys.o
                                                  ../../build/obj/main.o
chSysTimerHandlerI                                ../../build/obj/chsys.o
                                                  ../../build/obj/chcore_v7m.o
chThdAddRef                                       ../../build/obj/chdynamic.o
                                                  ../../build/obj/testdyn.o
chThdCreateFromHeap                               ../../build/obj/chdynamic.o
                                                  ../../build/obj/console.o
                                                  ../../build/obj/shell2.o
                                                  ../../build/obj/testdyn.o
chThdCreateFromMemoryPool                         ../../build/obj/chdynamic.o
                                                  ../../build/obj/testdyn.o
chThdCreateI                                      ../../build/obj/chthreads.o
                                                  ../../build/obj/usb_lld.o
                                                  ../../build/obj/testthd.o
                                                  ../../build/obj/chdynamic.o
chThdCreateStatic                                 ../../build/obj/chthreads.o
                                                  ../../build/obj/nmea.o
                                                  ../../build/obj/safety.o
                                                  ../../build/obj/dsp.o
                                                  ../../build/obj/speed.o
                                                  ../../build/obj/can_comm.o
                                                  ../../build/obj/log.o
                                                  ../../build/obj/main.o
                                                  ../../build/obj/shell2.o
                                                  ../../build/obj/testbmk.o
                                                  ../../build/obj/testqueues.o
                                                  ../../build/obj/testevt.o
                                                  ../../build/obj/testmsg.o
                                                  ../../build/obj/testmtx.o
                                                  ../../build/obj/testsem.o
                                                  ../../build/obj/testthd.o
                                                  ../../build/obj/chsys.o
chThdExit                                         ../../build/obj/chthreads.o
                                                  ../../build/obj/chcore_v7m.o
chThdExitS                                        ../../build/obj/chthreads.o
                                                  ../../build/obj/shell2.o
chThdRelease                                      ../../build/obj/chdynamic.o
                                                  ../../build/obj/console.o
                                                  ../../build/obj/testdyn.o
                                                  ../../build/obj/chregistry.o
                                                  ../../build/obj/chthreads.o
chThdResume                                       ../../build/obj/chthreads.o
                                                  ../../build/obj/testthd.o
chThdSetPriority                                  ../../build/obj/chthreads.o
                                                  ../../build/obj/testthd.o
chThdSleep                                        ../../build/obj/chthreads.o
                                                  ../../build/obj/nmea.o
                                                  ../../build/obj/calc.o
                                                  ../../build/obj/safety.o
                                                  ../../build/obj/brake.o
                                                  ../../build/obj/button.o
                                                  ../../build/obj/dsp.o
                                                  ../../build/obj/cruise.o
                                                  ../../build/obj/meas.o
                                                  ../../build/obj/speed.o
                                                  ../../build/obj/light.o
                                                  ../../build/obj/can_comm.o
                                                  ../../build/obj/log.o
                                                  ../../build/obj/sdcard.o
                                                  ../../build/obj/console.o
                                                  ../../build/obj/main.o
                                                  ../../build/obj/sdc_lld.o
                                                  ../../build/obj/sdc.o
                                                  ../../build/obj/testbmk.o
                                                  ../../build/obj/testdyn.o
                                                  ../../build/obj/testevt.o
                                                  ../../build/obj/testmtx.o
                                                  ../../build/obj/testsem.o
                                                  ../../build/obj/testthd.o
                                                  ../../build/obj/test.o
chThdSleepUntil                                   ../../build/obj/chthreads.o
                                                  ../../build/obj/main.o
                                                  ../../build/obj/testthd.o
chThdTerminate                                    ../../build/obj/chthreads.o
                                                  ../../build/obj/test.o
chThdWait                                         ../../build/obj/chthreads.o
                                                  ../../build/obj/console.o
                                                  ../../build/obj/testbmk.o
                                                  ../../build/obj/test.o
chThdYield                                        ../../build/obj/chthreads.o
                                                  ../../build/obj/testbmk.o
chVTResetI                                        ../../build/obj/chvt.o
                                                  ../../build/obj/evtimer.o
                                                  ../../build/obj/i2c_lld.o
                                                  ../../build/obj/testbmk.o
                                                  ../../build/obj/chschd.o
chVTSetI                                          ../../build/obj/chvt.o
                                                  ../../build/obj/evtimer.o
                                                  ../../build/obj/i2c_lld.o
                                                  ../../build/obj/testbmk.o
                                                  ../../build/obj/test.o
                                                  ../../build/obj/chschd.o
ch_debug                                          ../../build/obj/chregistry.o
                                                  ../../build/obj/chsys.o
chsnprintf                                        ../../build/obj/chprintf.o
chvprintf                                         ../../build/obj/chprintf.o
                                                  ../../build/obj/nmea.o
                                                  ../../build/obj/calc.o
                                                  ../../build/obj/safety.o
                                                  ../../build/obj/brake.o
                                                  ../../build/obj/button.o
                                                  ../../build/obj/dsp.o
                                                  ../../build/obj/cruise.o
                                                  ../../build/obj/meas.o
                                                  ../../build/obj/speed.o
                                                  ../../build/obj/light.o
                                                  ../../build/obj/can_comm.o
                                                  ../../build/obj/log.o
                                                  ../../build/obj/sdcard.o
                                                  ../../build/obj/eeprom.o
                                                  ../../build/obj/console.o
                                                  ../../build/obj/shell2.o
cleanup_glue                                      c:/program files (x86)/gnu tools arm embedded/4.9 2015q2/bin/../lib/gcc/arm-none-eabi/4.9.3/../../../../arm-none-eabi/lib/armv7e-m\libg.a(lib_a-reent.o)
clust2sect                                        ../../build/obj/ff.o
cmd_alarm                                         ../../build/obj/console.o
cmd_brakevalues                                   ../../build/obj/brake.o
                                                  ../../build/obj/console.o
cmd_buttonvalues                                  ../../build/obj/button.o
                                                  ../../build/obj/console.o
cmd_calcvalues                                    ../../build/obj/calc.o
                                                  ../../build/obj/console.o
cmd_can_commvalues                                ../../build/obj/can_comm.o
                                                  ../../build/obj/console.o
cmd_canall                                        ../../build/obj/can_comm.o
                                                  ../../build/obj/console.o
cmd_candata_bms                                   ../../build/obj/can_comm.o
                                                  ../../build/obj/console.o
cmd_candata_cell                                  ../../build/obj/can_comm.o
                                                  ../../build/obj/console.o
cmd_candata_lc                                    ../../build/obj/can_comm.o
                                                  ../../build/obj/console.o
cmd_candata_ml                                    ../../build/obj/can_comm.o
                                                  ../../build/obj/console.o
cmd_canmonitor                                    ../../build/obj/can_comm.o
                                                  ../../build/obj/console.o
cmd_canmppttest                                   ../../build/obj/can_comm.o
                                                  ../../build/obj/console.o
cmd_cat                                           ../../build/obj/sdcard.o
                                                  ../../build/obj/console.o
cmd_clear                                         ../../build/obj/console.o
cmd_cruise                                        ../../build/obj/cruise.o
                                                  ../../build/obj/console.o
cmd_cruisevalues                                  ../../build/obj/cruise.o
                                                  ../../build/obj/console.o
cmd_current_limit_switch                          ../../build/obj/cruise.o
                                                  ../../build/obj/console.o
cmd_date                                          ../../build/obj/console.o
cmd_debug                                         ../../build/obj/sdcard.o
cmd_distancevalues                                ../../build/obj/speed.o
                                                  ../../build/obj/console.o
cmd_dspvalues                                     ../../build/obj/dsp.o
                                                  ../../build/obj/console.o
cmd_eepromAllData                                 ../../build/obj/eeprom.o
                                                  ../../build/obj/console.o
cmd_eepromTest                                    ../../build/obj/eeprom.o
                                                  ../../build/obj/console.o
cmd_fan_speed                                     ../../build/obj/safety.o
                                                  ../../build/obj/console.o
cmd_fast_log                                      ../../build/obj/log.o
                                                  ../../build/obj/console.o
cmd_getLight                                      ../../build/obj/light.o
                                                  ../../build/obj/console.o
cmd_getRegenBrake                                 ../../build/obj/meas.o
                                                  ../../build/obj/console.o
cmd_getSteeringAngle                              ../../build/obj/meas.o
                                                  ../../build/obj/console.o
cmd_getThrottle                                   ../../build/obj/meas.o
                                                  ../../build/obj/console.o
cmd_lcSleep                                       ../../build/obj/can_comm.o
                                                  ../../build/obj/console.o
cmd_lightblink                                    ../../build/obj/light.o
                                                  ../../build/obj/console.o
cmd_lightvalues                                   ../../build/obj/light.o
                                                  ../../build/obj/console.o
cmd_logstop                                       ../../build/obj/log.o
                                                  ../../build/obj/console.o
cmd_logvalues                                     ../../build/obj/log.o
                                                  ../../build/obj/console.o
cmd_mainValues                                    ../../build/obj/meas.o
                                                  ../../build/obj/console.o
cmd_measvalues                                    ../../build/obj/meas.o
                                                  ../../build/obj/console.o
cmd_mem                                           ../../build/obj/console.o
cmd_mountsd                                       ../../build/obj/sdcard.o
                                                  ../../build/obj/console.o
cmd_nmeatest                                      ../../build/obj/nmea.o
                                                  ../../build/obj/console.o
cmd_regen_brake                                   ../../build/obj/cruise.o
                                                  ../../build/obj/console.o
cmd_reset_kmeter                                  ../../build/obj/speed.o
                                                  ../../build/obj/console.o
cmd_reset_meter                                   ../../build/obj/speed.o
                                                  ../../build/obj/console.o
cmd_safetyvalues                                  ../../build/obj/safety.o
                                                  ../../build/obj/console.o
cmd_sdiotest                                      ../../build/obj/sdcard.o
                                                  ../../build/obj/console.o
cmd_set_total_kmeter                              ../../build/obj/speed.o
                                                  ../../build/obj/console.o
cmd_setcruisevalues                               ../../build/obj/cruise.o
                                                  ../../build/obj/console.o
cmd_sleep                                         ../../build/obj/console.o
cmd_speedvalues                                   ../../build/obj/speed.o
                                                  ../../build/obj/console.o
cmd_test                                          ../../build/obj/console.o
cmd_testFastLog                                   ../../build/obj/log.o
                                                  ../../build/obj/console.o
cmd_testlog                                       ../../build/obj/log.o
                                                  ../../build/obj/console.o
cmd_threads                                       ../../build/obj/console.o
cmd_tree                                          ../../build/obj/sdcard.o
                                                  ../../build/obj/console.o
cmd_umountsd                                      ../../build/obj/sdcard.o
                                                  ../../build/obj/console.o
cmdfrappans_dspmessages                           ../../build/obj/dsp.o
                                                  ../../build/obj/console.o
consoleInit                                       ../../build/obj/console.o
                                                  ../../build/obj/main.o
consoleStart                                      ../../build/obj/console.o
                                                  ../../build/obj/main.o
consoleThread                                     ../../build/obj/console.o
cruiseAccel                                       ../../build/obj/cruise.o
                                                  ../../build/obj/button.o
cruiseAccelOk                                     ../../build/obj/cruise.o
                                                  ../../build/obj/button.o
cruiseCalc                                        ../../build/obj/cruise.o
                                                  ../../build/obj/main.o
cruiseDecelerat                                   ../../build/obj/cruise.o
                                                  ../../build/obj/button.o
cruiseDeceleratOk                                 ../../build/obj/cruise.o
                                                  ../../build/obj/button.o
cruiseDisable                                     ../../build/obj/cruise.o
                                                  ../../build/obj/button.o
cruiseEnable                                      ../../build/obj/cruise.o
                                                  ../../build/obj/button.o
cruiseGet                                         ../../build/obj/cruise.o
                                                  ../../build/obj/dsp.o
                                                  ../../build/obj/can_comm.o
cruiseGetCurrLimitSubstract                       ../../build/obj/cruise.o
                                                  ../../build/obj/log.o
cruiseGetPWM                                      ../../build/obj/cruise.o
                                                  ../../build/obj/can_comm.o
                                                  ../../build/obj/log.o
cruiseIncrease                                    ../../build/obj/cruise.o
                                                  ../../build/obj/button.o
cruiseIndicator                                   ../../build/obj/cruise.o
cruiseInit                                        ../../build/obj/cruise.o
                                                  ../../build/obj/main.o
cruisePID                                         ../../build/obj/cruise.o
cruiseReduction                                   ../../build/obj/cruise.o
                                                  ../../build/obj/button.o
cruiseStatus                                      ../../build/obj/cruise.o
                                                  ../../build/obj/button.o
                                                  ../../build/obj/dsp.o
                                                  ../../build/obj/can_comm.o
                                                  ../../build/obj/log.o
cruise_assis                                      ../../build/obj/dsp.o
db                                                ../../build/obj/dsp.o
db2                                               ../../build/obj/dsp.o
disk_initialize                                   ../../build/obj/fatfs_diskio.o
                                                  ../../build/obj/ff.o
disk_ioctl                                        ../../build/obj/fatfs_diskio.o
                                                  ../../build/obj/ff.o
disk_read                                         ../../build/obj/fatfs_diskio.o
                                                  ../../build/obj/ff.o
disk_status                                       ../../build/obj/fatfs_diskio.o
                                                  ../../build/obj/ff.o
disk_write                                        ../../build/obj/fatfs_diskio.o
                                                  ../../build/obj/ff.o
div                                               c:/program files (x86)/gnu tools arm embedded/4.9 2015q2/bin/../lib/gcc/arm-none-eabi/4.9.3/../../../../arm-none-eabi/lib/armv7e-m\libg.a(lib_a-div.o)
                                                  c:/program files (x86)/gnu tools arm embedded/4.9 2015q2/bin/../lib/gcc/arm-none-eabi/4.9.3/../../../../arm-none-eabi/lib/armv7e-m\libg.a(lib_a-mktime.o)
dmaInit                                           ../../build/obj/stm32_dma.o
                                                  ../../build/obj/hal_lld.o
dmaStreamAllocate                                 ../../build/obj/stm32_dma.o
                                                  ../../build/obj/spi_lld.o
                                                  ../../build/obj/i2c_lld.o
                                                  ../../build/obj/sdc_lld.o
                                                  ../../build/obj/adc_lld.o
dmaStreamRelease                                  ../../build/obj/stm32_dma.o
                                                  ../../build/obj/spi_lld.o
                                                  ../../build/obj/i2c_lld.o
                                                  ../../build/obj/sdc_lld.o
                                                  ../../build/obj/adc_lld.o
draw_line                                         ../../build/obj/gfx.o
                                                  ../../build/obj/dsp.o
dspGetItem                                        ../../build/obj/dsp.o
dspGetValue                                       ../../build/obj/dsp.o
                                                  ../../build/obj/button.o
dspInit                                           ../../build/obj/dsp.o
                                                  ../../build/obj/main.o
dsp_LoadBottom                                    ../../build/obj/dsp.o
dsp_LoadMidle                                     ../../build/obj/dsp.o
dsp_LoadTop                                       ../../build/obj/dsp.o
dsp_RefreshMidle                                  ../../build/obj/dsp.o
dsp_activ                                         ../../build/obj/dsp.o
dsp_active                                        ../../build/obj/dsp.o
dspmessages                                       ../../build/obj/dsp.o
dspstate                                          ../../build/obj/dsp.o
eepromGetItembyName                               ../../build/obj/eeprom.o
eepromInit                                        ../../build/obj/eeprom.o
                                                  ../../build/obj/main.o
eepromRead                                        ../../build/obj/eeprom.o
                                                  ../../build/obj/cruise.o
                                                  ../../build/obj/meas.o
                                                  ../../build/obj/speed.o
eepromWrite                                       ../../build/obj/eeprom.o
                                                  ../../build/obj/cruise.o
                                                  ../../build/obj/meas.o
                                                  ../../build/obj/speed.o
environ                                           c:/program files (x86)/gnu tools arm embedded/4.9 2015q2/bin/../lib/gcc/arm-none-eabi/4.9.3/../../../../arm-none-eabi/lib/armv7e-m\libg.a(lib_a-environ.o)
                                                  c:/program files (x86)/gnu tools arm embedded/4.9 2015q2/bin/../lib/gcc/arm-none-eabi/4.9.3/../../../../arm-none-eabi/lib/armv7e-m\libg.a(lib_a-getenv_r.o)
errno                                             c:/program files (x86)/gnu tools arm embedded/4.9 2015q2/bin/../lib/gcc/arm-none-eabi/4.9.3/../../../../arm-none-eabi/lib/armv7e-m\libg.a(lib_a-reent.o)
                                                  ../../build/obj/console.o
evtStart                                          ../../build/obj/evtimer.o
evtStop                                           ../../build/obj/evtimer.o
f_chmod                                           ../../build/obj/ff.o
f_close                                           ../../build/obj/ff.o
                                                  ../../build/obj/log.o
                                                  ../../build/obj/sdcard.o
f_getfree                                         ../../build/obj/ff.o
                                                  ../../build/obj/sdcard.o
f_gets                                            ../../build/obj/ff.o
                                                  ../../build/obj/sdcard.o
f_lseek                                           ../../build/obj/ff.o
f_mkdir                                           ../../build/obj/ff.o
f_mkfs                                            ../../build/obj/ff.o
f_mount                                           ../../build/obj/ff.o
                                                  ../../build/obj/sdcard.o
f_open                                            ../../build/obj/ff.o
                                                  ../../build/obj/log.o
                                                  ../../build/obj/sdcard.o
f_opendir                                         ../../build/obj/ff.o
                                                  ../../build/obj/sdcard.o
f_printf                                          ../../build/obj/ff.o
                                                  ../../build/obj/log.o
f_putc                                            ../../build/obj/ff.o
f_puts                                            ../../build/obj/ff.o
                                                  ../../build/obj/log.o
f_read                                            ../../build/obj/ff.o
                                                  ../../build/obj/sdcard.o
f_readdir                                         ../../build/obj/ff.o
                                                  ../../build/obj/sdcard.o
f_rename                                          ../../build/obj/ff.o
f_stat                                            ../../build/obj/ff.o
                                                  ../../build/obj/sdcard.o
f_sync                                            ../../build/obj/ff.o
                                                  ../../build/obj/log.o
f_truncate                                        ../../build/obj/ff.o
f_unlink                                          ../../build/obj/ff.o
f_utime                                           ../../build/obj/ff.o
f_write                                           ../../build/obj/ff.o
                                                  ../../build/obj/sdcard.o
fanstate                                          ../../build/obj/safety.o
fastLog                                           ../../build/obj/log.o
fastLogFileName                                   ../../build/obj/log.o
fastLogMod                                        ../../build/obj/log.o
fclose                                            c:/program files (x86)/gnu tools arm embedded/4.9 2015q2/bin/../lib/gcc/arm-none-eabi/4.9.3/../../../../arm-none-eabi/lib/armv7e-m\libg.a(lib_a-fclose.o)
ff_convert                                        ../../build/obj/ccsbcs.o
                                                  ../../build/obj/ff.o
ff_memalloc                                       ../../build/obj/fatfs_syscall.o
                                                  ../../build/obj/ff.o
ff_memfree                                        ../../build/obj/fatfs_syscall.o
                                                  ../../build/obj/ff.o
ff_wtoupper                                       ../../build/obj/ccsbcs.o
                                                  ../../build/obj/ff.o
fflush                                            c:/program files (x86)/gnu tools arm embedded/4.9 2015q2/bin/../lib/gcc/arm-none-eabi/4.9.3/../../../../arm-none-eabi/lib/armv7e-m\libg.a(lib_a-fflush.o)
file_LoadImageControl                             ../../build/obj/gfx.o
file_Mount                                        ../../build/obj/gfx.o
                                                  ../../build/obj/dsp.o
fillbuffer                                        ../../build/obj/sdcard.o
fillbuffers                                       ../../build/obj/sdcard.o
free                                              c:/program files (x86)/gnu tools arm embedded/4.9 2015q2/bin/../lib/gcc/arm-none-eabi/4.9.3/../../../../arm-none-eabi/lib/armv7e-m\libg.a(lib_a-malloc.o)
                                                  c:/program files (x86)/gnu tools arm embedded/4.9 2015q2/bin/../lib/gcc/arm-none-eabi/4.9.3/../../../../arm-none-eabi/lib/armv7e-m\libg.a(lib_a-tzset_r.o)
func_sleep                                        ../../build/obj/console.o
gen_numname                                       ../../build/obj/ff.o
getLightFlashing                                  ../../build/obj/light.o
                                                  ../../build/obj/button.o
                                                  ../../build/obj/dsp.o
get_fat                                           ../../build/obj/ff.o
get_fattime                                       ../../build/obj/fatfs_diskio.o
                                                  ../../build/obj/ff.o
gfxGetDspAns                                      ../../build/obj/gfx.o
                                                  ../../build/obj/dsp.o
gfxGetDspAnsZero                                  ../../build/obj/gfx.o
                                                  ../../build/obj/dsp.o
gfx_BGcolour                                      ../../build/obj/gfx.o
                                                  ../../build/obj/dsp.o
gfx_Cls                                           ../../build/obj/gfx.o
                                                  ../../build/obj/dsp.o
gfx_Contrast                                      ../../build/obj/gfx.o
gfx_Transparency                                  ../../build/obj/gfx.o
                                                  ../../build/obj/dsp.o
gfx_TransparentColour                             ../../build/obj/gfx.o
                                                  ../../build/obj/dsp.o
gmtime_r                                          c:/program files (x86)/gnu tools arm embedded/4.9 2015q2/bin/../lib/gcc/arm-none-eabi/4.9.3/../../../../arm-none-eabi/lib/armv7e-m\libg.a(lib_a-gmtime_r.o)
                                                  c:/program files (x86)/gnu tools arm embedded/4.9 2015q2/bin/../lib/gcc/arm-none-eabi/4.9.3/../../../../arm-none-eabi/lib/armv7e-m\libg.a(lib_a-lcltime_r.o)
gptChangeInterval                                 ../../build/obj/gpt.o
gptInit                                           ../../build/obj/gpt.o
                                                  ../../build/obj/hal.o
gptObjectInit                                     ../../build/obj/gpt.o
                                                  ../../build/obj/gpt_lld.o
gptPolledDelay                                    ../../build/obj/gpt.o
gptStart                                          ../../build/obj/gpt.o
                                                  ../../build/obj/safety.o
gptStartContinuous                                ../../build/obj/gpt.o
gptStartContinuousI                               ../../build/obj/gpt.o
gptStartOneShot                                   ../../build/obj/gpt.o
                                                  ../../build/obj/safety.o
gptStartOneShotI                                  ../../build/obj/gpt.o
                                                  ../../build/obj/safety.o
gptStop                                           ../../build/obj/gpt.o
gptStopTimer                                      ../../build/obj/gpt.o
gptStopTimerI                                     ../../build/obj/gpt.o
gpt_lld_init                                      ../../build/obj/gpt_lld.o
                                                  ../../build/obj/gpt.o
gpt_lld_polled_delay                              ../../build/obj/gpt_lld.o
                                                  ../../build/obj/gpt.o
gpt_lld_start                                     ../../build/obj/gpt_lld.o
                                                  ../../build/obj/gpt.o
gpt_lld_start_timer                               ../../build/obj/gpt_lld.o
                                                  ../../build/obj/gpt.o
gpt_lld_stop                                      ../../build/obj/gpt_lld.o
                                                  ../../build/obj/gpt.o
gpt_lld_stop_timer                                ../../build/obj/gpt_lld.o
                                                  ../../build/obj/gpt.o
halInit                                           ../../build/obj/hal.o
                                                  ../../build/obj/main.o
halIsCounterWithin                                ../../build/obj/hal.o
halPolledDelay                                    ../../build/obj/hal.o
                                                  ../../build/obj/usb_lld.o
hal_lld_init                                      ../../build/obj/hal_lld.o
                                                  ../../build/obj/hal.o
i2cAcquireBus                                     ../../build/obj/i2c.o
                                                  ../../build/obj/eeprom.o
i2cGetErrors                                      ../../build/obj/i2c.o
i2cInit                                           ../../build/obj/i2c.o
                                                  ../../build/obj/hal.o
i2cMasterReceiveTimeout                           ../../build/obj/i2c.o
i2cMasterTransmitTimeout                          ../../build/obj/i2c.o
                                                  ../../build/obj/eeprom.o
i2cObjectInit                                     ../../build/obj/i2c.o
                                                  ../../build/obj/i2c_lld.o
i2cReleaseBus                                     ../../build/obj/i2c.o
                                                  ../../build/obj/eeprom.o
i2cStart                                          ../../build/obj/i2c.o
                                                  ../../build/obj/eeprom.o
i2cStop                                           ../../build/obj/i2c.o
i2c_lld_init                                      ../../build/obj/i2c_lld.o
                                                  ../../build/obj/i2c.o
i2c_lld_master_receive_timeout                    ../../build/obj/i2c_lld.o
                                                  ../../build/obj/i2c.o
i2c_lld_master_transmit_timeout                   ../../build/obj/i2c_lld.o
                                                  ../../build/obj/i2c.o
i2c_lld_start                                     ../../build/obj/i2c_lld.o
                                                  ../../build/obj/i2c.o
i2c_lld_stop                                      ../../build/obj/i2c_lld.o
                                                  ../../build/obj/i2c.o
icuDisable                                        ../../build/obj/icu.o
icuEnable                                         ../../build/obj/icu.o
                                                  ../../build/obj/speed.o
icuInit                                           ../../build/obj/icu.o
                                                  ../../build/obj/hal.o
icuObjectInit                                     ../../build/obj/icu.o
                                                  ../../build/obj/icu_lld.o
icuStart                                          ../../build/obj/icu.o
                                                  ../../build/obj/speed.o
icuStop                                           ../../build/obj/icu.o
icu_lld_disable                                   ../../build/obj/icu_lld.o
                                                  ../../build/obj/icu.o
icu_lld_enable                                    ../../build/obj/icu_lld.o
                                                  ../../build/obj/icu.o
icu_lld_init                                      ../../build/obj/icu_lld.o
                                                  ../../build/obj/icu.o
icu_lld_start                                     ../../build/obj/icu_lld.o
                                                  ../../build/obj/icu.o
icu_lld_stop                                      ../../build/obj/icu_lld.o
                                                  ../../build/obj/icu.o
iswspace                                          c:/program files (x86)/gnu tools arm embedded/4.9 2015q2/bin/../lib/gcc/arm-none-eabi/4.9.3/../../../../arm-none-eabi/lib/armv7e-m\libg.a(lib_a-iswspace.o)
                                                  c:/program files (x86)/gnu tools arm embedded/4.9 2015q2/bin/../lib/gcc/arm-none-eabi/4.9.3/../../../../arm-none-eabi/lib/armv7e-m\libg.a(lib_a-svfiscanf.o)
lcitems                                           ../../build/obj/log.o
                                                  ../../build/obj/can_comm.o
lightBrakeOff                                     ../../build/obj/light.o
lightBrakeOn                                      ../../build/obj/light.o
lightCalc                                         ../../build/obj/light.o
                                                  ../../build/obj/main.o
lightFlashing                                     ../../build/obj/light.o
                                                  ../../build/obj/button.o
lightInit                                         ../../build/obj/light.o
                                                  ../../build/obj/main.o
lightLampDemoOff                                  ../../build/obj/light.o
                                                  ../../build/obj/button.o
lightLampDemoOn                                   ../../build/obj/light.o
                                                  ../../build/obj/button.o
lightPosLampOff                                   ../../build/obj/light.o
                                                  ../../build/obj/button.o
lightPosLampOn                                    ../../build/obj/light.o
                                                  ../../build/obj/button.o
localeconv                                        c:/program files (x86)/gnu tools arm embedded/4.9 2015q2/bin/../lib/gcc/arm-none-eabi/4.9.3/../../../../arm-none-eabi/lib/armv7e-m\libg.a(lib_a-locale.o)
localtime_r                                       c:/program files (x86)/gnu tools arm embedded/4.9 2015q2/bin/../lib/gcc/arm-none-eabi/4.9.3/../../../../arm-none-eabi/lib/armv7e-m\libg.a(lib_a-lcltime_r.o)
                                                  ../../build/obj/chrtclib.o
logCalc                                           ../../build/obj/log.o
                                                  ../../build/obj/main.o
logFastStart                                      ../../build/obj/log.o
logFileName                                       ../../build/obj/log.o
logFileObject                                     ../../build/obj/log.o
logGetState                                       ../../build/obj/log.o
                                                  ../../build/obj/can_comm.o
logGetTime                                        ../../build/obj/log.o
logInit                                           ../../build/obj/log.o
                                                  ../../build/obj/main.o
logStart                                          ../../build/obj/log.o
logStartDownload                                  ../../build/obj/log.o
logStartRequest                                   ../../build/obj/log.o
logStartTime                                      ../../build/obj/log.o
logState                                          ../../build/obj/log.o
logStop                                           ../../build/obj/log.o
logStopDownload                                   ../../build/obj/log.o
logStopRequest                                    ../../build/obj/log.o
main                                              ../../build/obj/main.o
                                                  ../../build/obj/crt0.o
mainTime                                          ../../build/obj/meas.o
malloc                                            c:/program files (x86)/gnu tools arm embedded/4.9 2015q2/bin/../lib/gcc/arm-none-eabi/4.9.3/../../../../arm-none-eabi/lib/armv7e-m\libg.a(lib_a-malloc.o)
map                                               ../../build/obj/meas.o
mbrtowc                                           c:/program files (x86)/gnu tools arm embedded/4.9 2015q2/bin/../lib/gcc/arm-none-eabi/4.9.3/../../../../arm-none-eabi/lib/armv7e-m\libg.a(lib_a-mbrtowc.o)
measCalc                                          ../../build/obj/meas.o
                                                  ../../build/obj/main.o
measGetValue                                      ../../build/obj/meas.o
                                                  ../../build/obj/dsp.o
                                                  ../../build/obj/can_comm.o
                                                  ../../build/obj/log.o
measGetValue_2                                    ../../build/obj/meas.o
                                                  ../../build/obj/calc.o
                                                  ../../build/obj/dsp.o
                                                  ../../build/obj/cruise.o
                                                  ../../build/obj/can_comm.o
                                                  ../../build/obj/log.o
measInit                                          ../../build/obj/meas.o
                                                  ../../build/obj/main.o
measInterpolateNTC                                ../../build/obj/meas.o
measNTCcalib                                      ../../build/obj/meas.o
meas_regen_brakeSetMax                            ../../build/obj/meas.o
meas_regen_brakeSetMin                            ../../build/obj/meas.o
meas_str_angleSetMax                              ../../build/obj/meas.o
meas_str_angleSetMin                              ../../build/obj/meas.o
meas_throttleSetMax                               ../../build/obj/meas.o
meas_throttleSetMin                               ../../build/obj/meas.o
measstate                                         ../../build/obj/meas.o
media_Image                                       ../../build/obj/gfx.o
                                                  ../../build/obj/dsp.o
media_SetSector                                   ../../build/obj/gfx.o
                                                  ../../build/obj/dsp.o
media_Video                                       ../../build/obj/gfx.o
media_VideoFrame                                  ../../build/obj/gfx.o
                                                  ../../build/obj/dsp.o
memchr                                            c:/program files (x86)/gnu tools arm embedded/4.9 2015q2/bin/../lib/gcc/arm-none-eabi/4.9.3/../../../../arm-none-eabi/lib/armv7e-m\libg.a(lib_a-memchr.o)
                                                  c:/program files (x86)/gnu tools arm embedded/4.9 2015q2/bin/../lib/gcc/arm-none-eabi/4.9.3/../../../../arm-none-eabi/lib/armv7e-m\libg.a(lib_a-svfiprintf.o)
memcmp                                            c:/program files (x86)/gnu tools arm embedded/4.9 2015q2/bin/../lib/gcc/arm-none-eabi/4.9.3/../../../../arm-none-eabi/lib/armv7e-m\libg.a(lib_a-memcmp.o)
                                                  ../../build/obj/sdcard.o
memcpy                                            c:/program files (x86)/gnu tools arm embedded/4.9 2015q2/bin/../lib/gcc/arm-none-eabi/4.9.3/../../../../arm-none-eabi/lib/armv7e-m\libg.a(lib_a-memcpy.o)
                                                  c:/program files (x86)/gnu tools arm embedded/4.9 2015q2/bin/../lib/gcc/arm-none-eabi/4.9.3/../../../../arm-none-eabi/lib/armv7e-m\libg.a(lib_a-ungetc.o)
                                                  c:/program files (x86)/gnu tools arm embedded/4.9 2015q2/bin/../lib/gcc/arm-none-eabi/4.9.3/../../../../arm-none-eabi/lib/armv7e-m\libg.a(lib_a-svfiscanf.o)
                                                  c:/program files (x86)/gnu tools arm embedded/4.9 2015q2/bin/../lib/gcc/arm-none-eabi/4.9.3/../../../../arm-none-eabi/lib/armv7e-m\libg.a(lib_a-mprec.o)
                                                  c:/program files (x86)/gnu tools arm embedded/4.9 2015q2/bin/../lib/gcc/arm-none-eabi/4.9.3/../../../../arm-none-eabi/lib/armv7e-m\libg.a(lib_a-gdtoa-gethex.o)
                                                  c:/program files (x86)/gnu tools arm embedded/4.9 2015q2/bin/../lib/gcc/arm-none-eabi/4.9.3/../../../../arm-none-eabi/lib/armv7e-m\libg.a(lib_a-svfiprintf.o)
                                                  c:/program files (x86)/gnu tools arm embedded/4.9 2015q2/bin/../lib/gcc/arm-none-eabi/4.9.3/../../../../arm-none-eabi/lib/armv7e-m\libg.a(lib_a-strtod.o)
                                                  ../../build/obj/sdc_lld.o
memmove                                           c:/program files (x86)/gnu tools arm embedded/4.9 2015q2/bin/../lib/gcc/arm-none-eabi/4.9.3/../../../../arm-none-eabi/lib/armv7e-m\libg.a(lib_a-memmove.o)
                                                  c:/program files (x86)/gnu tools arm embedded/4.9 2015q2/bin/../lib/gcc/arm-none-eabi/4.9.3/../../../../arm-none-eabi/lib/armv7e-m\libg.a(lib_a-reallocr.o)
                                                  c:/program files (x86)/gnu tools arm embedded/4.9 2015q2/bin/../lib/gcc/arm-none-eabi/4.9.3/../../../../arm-none-eabi/lib/armv7e-m\libg.a(lib_a-svfiprintf.o)
memset                                            c:/program files (x86)/gnu tools arm embedded/4.9 2015q2/bin/../lib/gcc/arm-none-eabi/4.9.3/../../../../arm-none-eabi/lib/armv7e-m\libg.a(lib_a-memset.o)
                                                  c:/program files (x86)/gnu tools arm embedded/4.9 2015q2/bin/../lib/gcc/arm-none-eabi/4.9.3/../../../../arm-none-eabi/lib/armv7e-m\libg.a(lib_a-findfp.o)
                                                  c:/program files (x86)/gnu tools arm embedded/4.9 2015q2/bin/../lib/gcc/arm-none-eabi/4.9.3/../../../../arm-none-eabi/lib/armv7e-m\libg.a(lib_a-callocr.o)
                                                  c:/program files (x86)/gnu tools arm embedded/4.9 2015q2/bin/../lib/gcc/arm-none-eabi/4.9.3/../../../../arm-none-eabi/lib/armv7e-m\libg.a(lib_a-svfiscanf.o)
                                                  ../../build/obj/syscalls.o
                                                  ../../build/obj/usb.o
mktime                                            c:/program files (x86)/gnu tools arm embedded/4.9 2015q2/bin/../lib/gcc/arm-none-eabi/4.9.3/../../../../arm-none-eabi/lib/armv7e-m\libg.a(lib_a-mktime.o)
                                                  ../../build/obj/nmea.o
                                                  ../../build/obj/chrtclib.o
mlitems                                           ../../build/obj/log.o
                                                  ../../build/obj/calc.o
                                                  ../../build/obj/can_comm.o
mmcsdGetCapacity                                  ../../build/obj/mmcsd.o
                                                  ../../build/obj/sdc.o
msObjectInit                                      ../../build/obj/chprintf.o
nanf                                              c:/program files (x86)/gnu tools arm embedded/4.9 2015q2/bin/../lib/gcc/arm-none-eabi/4.9.3/../../../../arm-none-eabi/lib/armv7e-m\libg.a(lib_a-sf_nan.o)
                                                  c:/program files (x86)/gnu tools arm embedded/4.9 2015q2/bin/../lib/gcc/arm-none-eabi/4.9.3/../../../../arm-none-eabi/lib/armv7e-m\libg.a(lib_a-strtod.o)
nmeaGetCurrentPosition                            ../../build/obj/nmea.o
                                                  ../../build/obj/log.o
nmeaGetGPGGACount                                 ../../build/obj/nmea.o
nmeaInit                                          ../../build/obj/nmea.o
                                                  ../../build/obj/main.o
nmeaInitState                                     ../../build/obj/nmea.o
nmeaProcessSentence                               ../../build/obj/nmea.o
nmeaReadByte                                      ../../build/obj/nmea.o
nvicDisableVector                                 ../../build/obj/nvic.o
                                                  ../../build/obj/serial_lld.o
                                                  ../../build/obj/pwm_lld.o
                                                  ../../build/obj/icu_lld.o
                                                  ../../build/obj/gpt_lld.o
                                                  ../../build/obj/i2c_lld.o
                                                  ../../build/obj/sdc_lld.o
                                                  ../../build/obj/can_lld.o
                                                  ../../build/obj/stm32_dma.o
nvicEnableVector                                  ../../build/obj/nvic.o
                                                  ../../build/obj/serial_lld.o
                                                  ../../build/obj/pwm_lld.o
                                                  ../../build/obj/icu_lld.o
                                                  ../../build/obj/gpt_lld.o
                                                  ../../build/obj/usb_lld.o
                                                  ../../build/obj/i2c_lld.o
                                                  ../../build/obj/sdc_lld.o
                                                  ../../build/obj/can_lld.o
                                                  ../../build/obj/adc_lld.o
                                                  ../../build/obj/stm32_dma.o
nvicSetSystemHandlerPriority                      ../../build/obj/nvic.o
                                                  ../../build/obj/chcore_v7m.o
palReadBus                                        ../../build/obj/pal.o
palSetBusMode                                     ../../build/obj/pal.o
palWriteBus                                       ../../build/obj/pal.o
pal_default_config                                ../../build/obj/board.o
                                                  ../../build/obj/hal.o
patternbmk                                        ../../build/obj/testbmk.o
                                                  ../../build/obj/test.o
patterndyn                                        ../../build/obj/testdyn.o
                                                  ../../build/obj/test.o
patternevt                                        ../../build/obj/testevt.o
                                                  ../../build/obj/test.o
patternheap                                       ../../build/obj/testheap.o
                                                  ../../build/obj/test.o
patternmbox                                       ../../build/obj/testmbox.o
                                                  ../../build/obj/test.o
patternmsg                                        ../../build/obj/testmsg.o
                                                  ../../build/obj/test.o
patternmtx                                        ../../build/obj/testmtx.o
                                                  ../../build/obj/test.o
patternpools                                      ../../build/obj/testpools.o
                                                  ../../build/obj/test.o
patternqueues                                     ../../build/obj/testqueues.o
                                                  ../../build/obj/test.o
patternsem                                        ../../build/obj/testsem.o
                                                  ../../build/obj/test.o
patternthd                                        ../../build/obj/testthd.o
                                                  ../../build/obj/test.o
port_halt                                         ../../build/obj/chcore.o
                                                  ../../build/obj/sdcard.o
                                                  ../../build/obj/spi_lld.o
                                                  ../../build/obj/i2c_lld.o
put_fat                                           ../../build/obj/ff.o
putstr                                            ../../build/obj/gfx.o
pwmChangePeriod                                   ../../build/obj/pwm.o
pwmDisableChannel                                 ../../build/obj/pwm.o
                                                  ../../build/obj/light.o
pwmEnableChannel                                  ../../build/obj/pwm.o
                                                  ../../build/obj/cruise.o
                                                  ../../build/obj/light.o
pwmInit                                           ../../build/obj/pwm.o
                                                  ../../build/obj/hal.o
pwmObjectInit                                     ../../build/obj/pwm.o
                                                  ../../build/obj/pwm_lld.o
pwmStart                                          ../../build/obj/pwm.o
                                                  ../../build/obj/cruise.o
                                                  ../../build/obj/light.o
pwmStop                                           ../../build/obj/pwm.o
pwm_lld_disable_channel                           ../../build/obj/pwm_lld.o
                                                  ../../build/obj/pwm.o
pwm_lld_enable_channel                            ../../build/obj/pwm_lld.o
                                                  ../../build/obj/pwm.o
pwm_lld_init                                      ../../build/obj/pwm_lld.o
                                                  ../../build/obj/pwm.o
pwm_lld_start                                     ../../build/obj/pwm_lld.o
                                                  ../../build/obj/pwm.o
pwm_lld_stop                                      ../../build/obj/pwm_lld.o
                                                  ../../build/obj/pwm.o
regen_brakeDisable                                ../../build/obj/cruise.o
                                                  ../../build/obj/safety.o
regen_brakeEnable                                 ../../build/obj/cruise.o
                                                  ../../build/obj/safety.o
rlist                                             ../../build/obj/chschd.o
                                                  ../../build/obj/nmea.o
                                                  ../../build/obj/safety.o
                                                  ../../build/obj/dsp.o
                                                  ../../build/obj/can_comm.o
                                                  ../../build/obj/log.o
                                                  ../../build/obj/console.o
                                                  ../../build/obj/main.o
                                                  ../../build/obj/shell2.o
                                                  ../../build/obj/usb_lld.o
                                                  ../../build/obj/i2c_lld.o
                                                  ../../build/obj/sdc_lld.o
                                                  ../../build/obj/spi.o
                                                  ../../build/obj/adc.o
                                                  ../../build/obj/testbmk.o
                                                  ../../build/obj/testqueues.o
                                                  ../../build/obj/testdyn.o
                                                  ../../build/obj/testevt.o
                                                  ../../build/obj/testmsg.o
                                                  ../../build/obj/testmtx.o
                                                  ../../build/obj/testsem.o
                                                  ../../build/obj/testthd.o
                                                  ../../build/obj/test.o
                                                  ../../build/obj/chqueues.o
                                                  ../../build/obj/chmsg.o
                                                  ../../build/obj/chevents.o
                                                  ../../build/obj/chcond.o
                                                  ../../build/obj/chmtx.o
                                                  ../../build/obj/chsem.o
                                                  ../../build/obj/chregistry.o
                                                  ../../build/obj/chthreads.o
                                                  ../../build/obj/chsys.o
                                                  ../../build/obj/chcore_v7m.o
rtcGetAlarm                                       ../../build/obj/rtc.o
                                                  ../../build/obj/console.o
rtcGetPeriodicWakeup_v2                           ../../build/obj/rtc_lld.o
rtcGetTime                                        ../../build/obj/rtc.o
                                                  ../../build/obj/chrtclib.o
rtcGetTimeFat                                     ../../build/obj/rtc.o
                                                  ../../build/obj/fatfs_diskio.o
rtcGetTimeTm                                      ../../build/obj/chrtclib.o
                                                  ../../build/obj/log.o
                                                  ../../build/obj/console.o
rtcGetTimeUnixSec                                 ../../build/obj/chrtclib.o
                                                  ../../build/obj/calc.o
                                                  ../../build/obj/console.o
rtcGetTimeUnixUsec                                ../../build/obj/chrtclib.o
rtcInit                                           ../../build/obj/rtc.o
                                                  ../../build/obj/hal.o
rtcSetAlarm                                       ../../build/obj/rtc.o
                                                  ../../build/obj/console.o
rtcSetPeriodicWakeup_v2                           ../../build/obj/rtc_lld.o
rtcSetTime                                        ../../build/obj/rtc.o
                                                  ../../build/obj/chrtclib.o
rtcSetTimeTm                                      ../../build/obj/chrtclib.o
rtcSetTimeUnixSec                                 ../../build/obj/chrtclib.o
                                                  ../../build/obj/console.o
rtc_lld_get_alarm                                 ../../build/obj/rtc_lld.o
                                                  ../../build/obj/rtc.o
rtc_lld_get_time                                  ../../build/obj/rtc_lld.o
                                                  ../../build/obj/rtc.o
rtc_lld_get_time_fat                              ../../build/obj/rtc_lld.o
                                                  ../../build/obj/rtc.o
rtc_lld_init                                      ../../build/obj/rtc_lld.o
                                                  ../../build/obj/rtc.o
rtc_lld_set_alarm                                 ../../build/obj/rtc_lld.o
                                                  ../../build/obj/rtc.o
rtc_lld_set_time                                  ../../build/obj/rtc_lld.o
                                                  ../../build/obj/rtc.o
safetyInit                                        ../../build/obj/safety.o
                                                  ../../build/obj/main.o
sdIncomingDataI                                   ../../build/obj/serial.o
                                                  ../../build/obj/serial_lld.o
sdInit                                            ../../build/obj/serial.o
                                                  ../../build/obj/hal.o
sdObjectInit                                      ../../build/obj/serial.o
                                                  ../../build/obj/serial_lld.o
sdRequestDataI                                    ../../build/obj/serial.o
sdStart                                           ../../build/obj/serial.o
                                                  ../../build/obj/nmea.o
                                                  ../../build/obj/uart_comm.o
                                                  ../../build/obj/console.o
sdStop                                            ../../build/obj/serial.o
sd_lld_init                                       ../../build/obj/serial_lld.o
                                                  ../../build/obj/serial.o
sd_lld_start                                      ../../build/obj/serial_lld.o
                                                  ../../build/obj/serial.o
sd_lld_stop                                       ../../build/obj/serial_lld.o
                                                  ../../build/obj/serial.o
sdcConnect                                        ../../build/obj/sdc.o
                                                  ../../build/obj/sdcard.o
sdcDisconnect                                     ../../build/obj/sdc.o
                                                  ../../build/obj/sdcard.o
sdcErase                                          ../../build/obj/sdc.o
                                                  ../../build/obj/fatfs_diskio.o
sdcGetAndClearErrors                              ../../build/obj/sdc.o
sdcGetInfo                                        ../../build/obj/sdc.o
sdcInit                                           ../../build/obj/sdc.o
                                                  ../../build/obj/hal.o
sdcObjectInit                                     ../../build/obj/sdc.o
                                                  ../../build/obj/sdc_lld.o
sdcRead                                           ../../build/obj/sdc.o
                                                  ../../build/obj/sdcard.o
                                                  ../../build/obj/fatfs_diskio.o
sdcStart                                          ../../build/obj/sdc.o
                                                  ../../build/obj/sdcard.o
sdcStop                                           ../../build/obj/sdc.o
sdcSync                                           ../../build/obj/sdc.o
sdcWrite                                          ../../build/obj/sdc.o
                                                  ../../build/obj/fatfs_diskio.o
sdc_lld_init                                      ../../build/obj/sdc_lld.o
                                                  ../../build/obj/sdc.o
sdc_lld_is_card_inserted                          ../../build/obj/sdcard.o
                                                  ../../build/obj/sdc.o
sdc_lld_is_write_protected                        ../../build/obj/sdcard.o
                                                  ../../build/obj/fatfs_diskio.o
                                                  ../../build/obj/sdc.o
sdc_lld_read                                      ../../build/obj/sdc_lld.o
                                                  ../../build/obj/sdc.o
sdc_lld_read_aligned                              ../../build/obj/sdc_lld.o
sdc_lld_send_cmd_long_crc                         ../../build/obj/sdc_lld.o
                                                  ../../build/obj/sdc.o
sdc_lld_send_cmd_none                             ../../build/obj/sdc_lld.o
                                                  ../../build/obj/sdc.o
sdc_lld_send_cmd_short                            ../../build/obj/sdc_lld.o
                                                  ../../build/obj/sdc.o
sdc_lld_send_cmd_short_crc                        ../../build/obj/sdc_lld.o
                                                  ../../build/obj/sdc.o
sdc_lld_set_bus_mode                              ../../build/obj/sdc_lld.o
                                                  ../../build/obj/sdc.o
sdc_lld_set_data_clk                              ../../build/obj/sdc_lld.o
                                                  ../../build/obj/sdc.o
sdc_lld_start                                     ../../build/obj/sdc_lld.o
                                                  ../../build/obj/sdc.o
sdc_lld_start_clk                                 ../../build/obj/sdc_lld.o
                                                  ../../build/obj/sdc.o
sdc_lld_stop                                      ../../build/obj/sdc_lld.o
                                                  ../../build/obj/sdc.o
sdc_lld_stop_clk                                  ../../build/obj/sdc_lld.o
                                                  ../../build/obj/sdc.o
sdc_lld_sync                                      ../../build/obj/sdc_lld.o
                                                  ../../build/obj/sdc.o
sdc_lld_write                                     ../../build/obj/sdc_lld.o
                                                  ../../build/obj/sdc.o
sdc_lld_write_aligned                             ../../build/obj/sdc_lld.o
sdcardInit                                        ../../build/obj/sdcard.o
                                                  ../../build/obj/main.o
sdcardIsMounted                                   ../../build/obj/sdcard.o
                                                  ../../build/obj/log.o
                                                  ../../build/obj/main.o
sdcardMount                                       ../../build/obj/sdcard.o
                                                  ../../build/obj/log.o
sdcardUMount                                      ../../build/obj/sdcard.o
                                                  ../../build/obj/log.o
sdcard_fbuff                                      ../../build/obj/sdcard.o
sduConfigureHookI                                 ../../build/obj/serial_usb.o
sduDataReceived                                   ../../build/obj/serial_usb.o
sduDataTransmitted                                ../../build/obj/serial_usb.o
sduInit                                           ../../build/obj/serial_usb.o
                                                  ../../build/obj/hal.o
sduInterruptTransmitted                           ../../build/obj/serial_usb.o
sduObjectInit                                     ../../build/obj/serial_usb.o
sduRequestsHook                                   ../../build/obj/serial_usb.o
sduStart                                          ../../build/obj/serial_usb.o
sduStop                                           ../../build/obj/serial_usb.o
setlocale                                         c:/program files (x86)/gnu tools arm embedded/4.9 2015q2/bin/../lib/gcc/arm-none-eabi/4.9.3/../../../../arm-none-eabi/lib/armv7e-m\libg.a(lib_a-locale.o)
shellCreate                                       ../../build/obj/shell2.o
                                                  ../../build/obj/console.o
shellCreateStatic                                 ../../build/obj/shell2.o
shellExit                                         ../../build/obj/shell2.o
shellGetLine                                      ../../build/obj/shell2.o
shellInit                                         ../../build/obj/shell2.o
                                                  ../../build/obj/console.o
shell_terminated                                  ../../build/obj/shell2.o
siprintf                                          c:/program files (x86)/gnu tools arm embedded/4.9 2015q2/bin/../lib/gcc/arm-none-eabi/4.9.3/../../../../arm-none-eabi/lib/armv7e-m\libg.a(lib_a-siprintf.o)
                                                  c:/program files (x86)/gnu tools arm embedded/4.9 2015q2/bin/../lib/gcc/arm-none-eabi/4.9.3/../../../../arm-none-eabi/lib/armv7e-m\libg.a(lib_a-asctime_r.o)
siscanf                                           c:/program files (x86)/gnu tools arm embedded/4.9 2015q2/bin/../lib/gcc/arm-none-eabi/4.9.3/../../../../arm-none-eabi/lib/armv7e-m\libg.a(lib_a-siscanf.o)
                                                  c:/program files (x86)/gnu tools arm embedded/4.9 2015q2/bin/../lib/gcc/arm-none-eabi/4.9.3/../../../../arm-none-eabi/lib/armv7e-m\libg.a(lib_a-tzset_r.o)
speedCalc                                         ../../build/obj/speed.o
                                                  ../../build/obj/main.o
speedGetLastPeriod                                ../../build/obj/speed.o
speedGetPeriodNumber                              ../../build/obj/speed.o
speedGetRpm                                       ../../build/obj/speed.o
                                                  ../../build/obj/calc.o
                                                  ../../build/obj/cruise.o
                                                  ../../build/obj/log.o
speedGetSpeed                                     ../../build/obj/speed.o
                                                  ../../build/obj/calc.o
                                                  ../../build/obj/dsp.o
                                                  ../../build/obj/cruise.o
                                                  ../../build/obj/can_comm.o
                                                  ../../build/obj/log.o
speedInit                                         ../../build/obj/speed.o
                                                  ../../build/obj/main.o
speedKMPH_TO_RPM                                  ../../build/obj/speed.o
                                                  ../../build/obj/button.o
                                                  ../../build/obj/cruise.o
speedRPM_TO_KMPH                                  ../../build/obj/speed.o
                                                  ../../build/obj/cruise.o
spiAcquireBus                                     ../../build/obj/spi.o
spiExchange                                       ../../build/obj/spi.o
spiIgnore                                         ../../build/obj/spi.o
spiInit                                           ../../build/obj/spi.o
                                                  ../../build/obj/hal.o
spiObjectInit                                     ../../build/obj/spi.o
                                                  ../../build/obj/spi_lld.o
spiReceive                                        ../../build/obj/spi.o
spiReleaseBus                                     ../../build/obj/spi.o
spiSelect                                         ../../build/obj/spi.o
spiSend                                           ../../build/obj/spi.o
spiStart                                          ../../build/obj/spi.o
spiStartExchange                                  ../../build/obj/spi.o
spiStartIgnore                                    ../../build/obj/spi.o
spiStartReceive                                   ../../build/obj/spi.o
spiStartSend                                      ../../build/obj/spi.o
spiStop                                           ../../build/obj/spi.o
spiUnselect                                       ../../build/obj/spi.o
spi_lld_exchange                                  ../../build/obj/spi_lld.o
                                                  ../../build/obj/spi.o
spi_lld_ignore                                    ../../build/obj/spi_lld.o
                                                  ../../build/obj/spi.o
spi_lld_init                                      ../../build/obj/spi_lld.o
                                                  ../../build/obj/spi.o
spi_lld_polled_exchange                           ../../build/obj/spi_lld.o
spi_lld_receive                                   ../../build/obj/spi_lld.o
                                                  ../../build/obj/spi.o
spi_lld_select                                    ../../build/obj/spi_lld.o
                                                  ../../build/obj/spi.o
spi_lld_send                                      ../../build/obj/spi_lld.o
                                                  ../../build/obj/spi.o
spi_lld_start                                     ../../build/obj/spi_lld.o
                                                  ../../build/obj/spi.o
spi_lld_stop                                      ../../build/obj/spi_lld.o
                                                  ../../build/obj/spi.o
spi_lld_unselect                                  ../../build/obj/spi_lld.o
                                                  ../../build/obj/spi.o
stm32_clock_init                                  ../../build/obj/hal_lld.o
                                                  ../../build/obj/board.o
strcasecmp                                        c:/program files (x86)/gnu tools arm embedded/4.9 2015q2/bin/../lib/gcc/arm-none-eabi/4.9.3/../../../../arm-none-eabi/lib/armv7e-m\libg.a(lib_a-strcasecmp.o)
                                                  ../../build/obj/shell2.o
strcmp                                            c:/program files (x86)/gnu tools arm embedded/4.9 2015q2/bin/../lib/gcc/arm-none-eabi/4.9.3/../../../../arm-none-eabi/lib/armv7e-m\libg.a(lib_a-strcmp.o)
                                                  c:/program files (x86)/gnu tools arm embedded/4.9 2015q2/bin/../lib/gcc/arm-none-eabi/4.9.3/../../../../arm-none-eabi/lib/armv7e-m\libg.a(lib_a-locale.o)
                                                  c:/program files (x86)/gnu tools arm embedded/4.9 2015q2/bin/../lib/gcc/arm-none-eabi/4.9.3/../../../../arm-none-eabi/lib/armv7e-m\libg.a(lib_a-tzset_r.o)
                                                  ../../build/obj/nmea.o
                                                  ../../build/obj/dsp.o
                                                  ../../build/obj/cruise.o
                                                  ../../build/obj/meas.o
                                                  ../../build/obj/light.o
                                                  ../../build/obj/can_comm.o
                                                  ../../build/obj/console.o
strcpy                                            c:/program files (x86)/gnu tools arm embedded/4.9 2015q2/bin/../lib/gcc/arm-none-eabi/4.9.3/../../../../arm-none-eabi/lib/armv7e-m\libg.a(lib_a-strcpy.o)
                                                  c:/program files (x86)/gnu tools arm embedded/4.9 2015q2/bin/../lib/gcc/arm-none-eabi/4.9.3/../../../../arm-none-eabi/lib/armv7e-m\libg.a(lib_a-tzset_r.o)
                                                  ../../build/obj/sdcard.o
strlen                                            c:/program files (x86)/gnu tools arm embedded/4.9 2015q2/bin/../lib/gcc/arm-none-eabi/4.9.3/../../../../arm-none-eabi/lib/armv7e-m\libg.a(lib_a-strlen.o)
                                                  c:/program files (x86)/gnu tools arm embedded/4.9 2015q2/bin/../lib/gcc/arm-none-eabi/4.9.3/../../../../arm-none-eabi/lib/armv7e-m\libg.a(lib_a-siscanf.o)
                                                  c:/program files (x86)/gnu tools arm embedded/4.9 2015q2/bin/../lib/gcc/arm-none-eabi/4.9.3/../../../../arm-none-eabi/lib/armv7e-m\libg.a(lib_a-gdtoa-gethex.o)
                                                  c:/program files (x86)/gnu tools arm embedded/4.9 2015q2/bin/../lib/gcc/arm-none-eabi/4.9.3/../../../../arm-none-eabi/lib/armv7e-m\libg.a(lib_a-tzset_r.o)
                                                  c:/program files (x86)/gnu tools arm embedded/4.9 2015q2/bin/../lib/gcc/arm-none-eabi/4.9.3/../../../../arm-none-eabi/lib/armv7e-m\libg.a(lib_a-svfiprintf.o)
                                                  c:/program files (x86)/gnu tools arm embedded/4.9 2015q2/bin/../lib/gcc/arm-none-eabi/4.9.3/../../../../arm-none-eabi/lib/armv7e-m\libg.a(lib_a-strtod.o)
                                                  ../../build/obj/sdcard.o
strncmp                                           c:/program files (x86)/gnu tools arm embedded/4.9 2015q2/bin/../lib/gcc/arm-none-eabi/4.9.3/../../../../arm-none-eabi/lib/armv7e-m\libg.a(lib_a-strncmp.o)
                                                  c:/program files (x86)/gnu tools arm embedded/4.9 2015q2/bin/../lib/gcc/arm-none-eabi/4.9.3/../../../../arm-none-eabi/lib/armv7e-m\libg.a(lib_a-getenv_r.o)
                                                  c:/program files (x86)/gnu tools arm embedded/4.9 2015q2/bin/../lib/gcc/arm-none-eabi/4.9.3/../../../../arm-none-eabi/lib/armv7e-m\libg.a(lib_a-gdtoa-gethex.o)
                                                  c:/program files (x86)/gnu tools arm embedded/4.9 2015q2/bin/../lib/gcc/arm-none-eabi/4.9.3/../../../../arm-none-eabi/lib/armv7e-m\libg.a(lib_a-strtod.o)
strncpy                                           c:/program files (x86)/gnu tools arm embedded/4.9 2015q2/bin/../lib/gcc/arm-none-eabi/4.9.3/../../../../arm-none-eabi/lib/armv7e-m\libg.a(lib_a-strncpy.o)
                                                  ../../build/obj/nmea.o
strpbrk                                           c:/program files (x86)/gnu tools arm embedded/4.9 2015q2/bin/../lib/gcc/arm-none-eabi/4.9.3/../../../../arm-none-eabi/lib/armv7e-m\libg.a(lib_a-strpbrk.o)
                                                  ../../build/obj/shell2.o
strspn                                            c:/program files (x86)/gnu tools arm embedded/4.9 2015q2/bin/../lib/gcc/arm-none-eabi/4.9.3/../../../../arm-none-eabi/lib/armv7e-m\libg.a(lib_a-strspn.o)
                                                  ../../build/obj/shell2.o
strtod                                            c:/program files (x86)/gnu tools arm embedded/4.9 2015q2/bin/../lib/gcc/arm-none-eabi/4.9.3/../../../../arm-none-eabi/lib/armv7e-m\libg.a(lib_a-strtod.o)
                                                  c:/program files (x86)/gnu tools arm embedded/4.9 2015q2/bin/../lib/gcc/arm-none-eabi/4.9.3/../../../../arm-none-eabi/lib/armv7e-m\libg.a(lib_a-atof.o)
strtof                                            c:/program files (x86)/gnu tools arm embedded/4.9 2015q2/bin/../lib/gcc/arm-none-eabi/4.9.3/../../../../arm-none-eabi/lib/armv7e-m\libg.a(lib_a-strtod.o)
strtol                                            c:/program files (x86)/gnu tools arm embedded/4.9 2015q2/bin/../lib/gcc/arm-none-eabi/4.9.3/../../../../arm-none-eabi/lib/armv7e-m\libg.a(lib_a-strtol.o)
                                                  c:/program files (x86)/gnu tools arm embedded/4.9 2015q2/bin/../lib/gcc/arm-none-eabi/4.9.3/../../../../arm-none-eabi/lib/armv7e-m\libg.a(lib_a-atol.o)
                                                  c:/program files (x86)/gnu tools arm embedded/4.9 2015q2/bin/../lib/gcc/arm-none-eabi/4.9.3/../../../../arm-none-eabi/lib/armv7e-m\libg.a(lib_a-atoi.o)
strtoul                                           c:/program files (x86)/gnu tools arm embedded/4.9 2015q2/bin/../lib/gcc/arm-none-eabi/4.9.3/../../../../arm-none-eabi/lib/armv7e-m\libg.a(lib_a-strtoul.o)
                                                  c:/program files (x86)/gnu tools arm embedded/4.9 2015q2/bin/../lib/gcc/arm-none-eabi/4.9.3/../../../../arm-none-eabi/lib/armv7e-m\libg.a(lib_a-tzset_r.o)
test                                              ../../build/obj/test.o
                                                  ../../build/obj/testqueues.o
                                                  ../../build/obj/testdyn.o
                                                  ../../build/obj/testheap.o
                                                  ../../build/obj/testmbox.o
test_cpu_pulse                                    ../../build/obj/test.o
                                                  ../../build/obj/testmtx.o
test_emit_token                                   ../../build/obj/test.o
                                                  ../../build/obj/testqueues.o
                                                  ../../build/obj/testdyn.o
                                                  ../../build/obj/testevt.o
                                                  ../../build/obj/testmbox.o
                                                  ../../build/obj/testmsg.o
                                                  ../../build/obj/testmtx.o
                                                  ../../build/obj/testsem.o
                                                  ../../build/obj/testthd.o
test_print                                        ../../build/obj/test.o
                                                  ../../build/obj/testbmk.o
test_println                                      ../../build/obj/test.o
                                                  ../../build/obj/testbmk.o
test_printn                                       ../../build/obj/test.o
                                                  ../../build/obj/testbmk.o
test_start_timer                                  ../../build/obj/test.o
                                                  ../../build/obj/testbmk.o
test_terminate_threads                            ../../build/obj/test.o
                                                  ../../build/obj/testbmk.o
test_timer_done                                   ../../build/obj/test.o
                                                  ../../build/obj/testbmk.o
test_wait_threads                                 ../../build/obj/test.o
                                                  ../../build/obj/testbmk.o
                                                  ../../build/obj/testqueues.o
                                                  ../../build/obj/testdyn.o
                                                  ../../build/obj/testevt.o
                                                  ../../build/obj/testmtx.o
                                                  ../../build/obj/testsem.o
                                                  ../../build/obj/testthd.o
test_wait_tick                                    ../../build/obj/test.o
                                                  ../../build/obj/testbmk.o
                                                  ../../build/obj/testevt.o
                                                  ../../build/obj/testmtx.o
                                                  ../../build/obj/testsem.o
                                                  ../../build/obj/testthd.o
testbmk1                                          ../../build/obj/testbmk.o
testbmk10                                         ../../build/obj/testbmk.o
testbmk11                                         ../../build/obj/testbmk.o
testbmk12                                         ../../build/obj/testbmk.o
testbmk13                                         ../../build/obj/testbmk.o
testbmk2                                          ../../build/obj/testbmk.o
testbmk3                                          ../../build/obj/testbmk.o
testbmk4                                          ../../build/obj/testbmk.o
testbmk5                                          ../../build/obj/testbmk.o
testbmk6                                          ../../build/obj/testbmk.o
testbmk7                                          ../../build/obj/testbmk.o
testbmk8                                          ../../build/obj/testbmk.o
testbmk9                                          ../../build/obj/testbmk.o
testdyn1                                          ../../build/obj/testdyn.o
testdyn2                                          ../../build/obj/testdyn.o
testdyn3                                          ../../build/obj/testdyn.o
testevt1                                          ../../build/obj/testevt.o
testevt2                                          ../../build/obj/testevt.o
testevt3                                          ../../build/obj/testevt.o
testheap1                                         ../../build/obj/testheap.o
testmbox1                                         ../../build/obj/testmbox.o
testmsg1                                          ../../build/obj/testmsg.o
testmtx1                                          ../../build/obj/testmtx.o
testmtx2                                          ../../build/obj/testmtx.o
testmtx3                                          ../../build/obj/testmtx.o
testmtx4                                          ../../build/obj/testmtx.o
testmtx5                                          ../../build/obj/testmtx.o
testmtx6                                          ../../build/obj/testmtx.o
testmtx7                                          ../../build/obj/testmtx.o
testmtx8                                          ../../build/obj/testmtx.o
testpools1                                        ../../build/obj/testpools.o
testqueues1                                       ../../build/obj/testqueues.o
testqueues2                                       ../../build/obj/testqueues.o
testsem1                                          ../../build/obj/testsem.o
testsem2                                          ../../build/obj/testsem.o
testsem3                                          ../../build/obj/testsem.o
testsem4                                          ../../build/obj/testsem.o
testthd1                                          ../../build/obj/testthd.o
testthd2                                          ../../build/obj/testthd.o
testthd3                                          ../../build/obj/testthd.o
testthd4                                          ../../build/obj/testthd.o
thread4                                           ../../build/obj/testbmk.o
threads                                           ../../build/obj/test.o
                                                  ../../build/obj/testbmk.o
                                                  ../../build/obj/testqueues.o
                                                  ../../build/obj/testdyn.o
                                                  ../../build/obj/testevt.o
                                                  ../../build/obj/testmsg.o
                                                  ../../build/obj/testmtx.o
                                                  ../../build/obj/testsem.o
                                                  ../../build/obj/testthd.o
tmInit                                            ../../build/obj/tm.o
                                                  ../../build/obj/hal.o
tmObjectInit                                      ../../build/obj/tm.o
twodigit                                          ../../build/obj/log.o
tzset                                             c:/program files (x86)/gnu tools arm embedded/4.9 2015q2/bin/../lib/gcc/arm-none-eabi/4.9.3/../../../../arm-none-eabi/lib/armv7e-m\libg.a(lib_a-tzset.o)
uart_commInit                                     ../../build/obj/uart_comm.o
                                                  ../../build/obj/main.o
ungetc                                            c:/program files (x86)/gnu tools arm embedded/4.9 2015q2/bin/../lib/gcc/arm-none-eabi/4.9.3/../../../../arm-none-eabi/lib/armv7e-m\libg.a(lib_a-ungetc.o)
usbDisableEndpointsI                              ../../build/obj/usb.o
usbInit                                           ../../build/obj/usb.o
                                                  ../../build/obj/hal.o
usbInitEndpointI                                  ../../build/obj/usb.o
usbObjectInit                                     ../../build/obj/usb.o
                                                  ../../build/obj/usb_lld.o
usbPrepareQueuedReceive                           ../../build/obj/usb.o
                                                  ../../build/obj/serial_usb.o
usbPrepareQueuedTransmit                          ../../build/obj/usb.o
                                                  ../../build/obj/serial_usb.o
usbPrepareReceive                                 ../../build/obj/usb.o
usbPrepareTransmit                                ../../build/obj/usb.o
usbStallReceiveI                                  ../../build/obj/usb.o
usbStallTransmitI                                 ../../build/obj/usb.o
usbStart                                          ../../build/obj/usb.o
usbStartReceiveI                                  ../../build/obj/usb.o
                                                  ../../build/obj/serial_usb.o
usbStartTransmitI                                 ../../build/obj/usb.o
                                                  ../../build/obj/serial_usb.o
usbStop                                           ../../build/obj/usb.o
usb_lld_clear_in                                  ../../build/obj/usb_lld.o
                                                  ../../build/obj/usb.o
usb_lld_clear_out                                 ../../build/obj/usb_lld.o
                                                  ../../build/obj/usb.o
usb_lld_disable_endpoints                         ../../build/obj/usb_lld.o
                                                  ../../build/obj/usb.o
usb_lld_get_status_in                             ../../build/obj/usb_lld.o
                                                  ../../build/obj/usb.o
usb_lld_get_status_out                            ../../build/obj/usb_lld.o
                                                  ../../build/obj/usb.o
usb_lld_init                                      ../../build/obj/usb_lld.o
                                                  ../../build/obj/usb.o
usb_lld_init_endpoint                             ../../build/obj/usb_lld.o
                                                  ../../build/obj/usb.o
usb_lld_prepare_receive                           ../../build/obj/usb_lld.o
                                                  ../../build/obj/usb.o
usb_lld_prepare_transmit                          ../../build/obj/usb_lld.o
                                                  ../../build/obj/usb.o
usb_lld_read_setup                                ../../build/obj/usb_lld.o
                                                  ../../build/obj/usb.o
usb_lld_reset                                     ../../build/obj/usb_lld.o
                                                  ../../build/obj/usb.o
usb_lld_set_address                               ../../build/obj/usb_lld.o
                                                  ../../build/obj/usb.o
usb_lld_stall_in                                  ../../build/obj/usb_lld.o
                                                  ../../build/obj/usb.o
usb_lld_stall_out                                 ../../build/obj/usb_lld.o
                                                  ../../build/obj/usb.o
usb_lld_start                                     ../../build/obj/usb_lld.o
                                                  ../../build/obj/usb.o
usb_lld_start_in                                  ../../build/obj/usb_lld.o
                                                  ../../build/obj/usb.o
usb_lld_start_out                                 ../../build/obj/usb_lld.o
                                                  ../../build/obj/usb.o
usb_lld_stop                                      ../../build/obj/usb_lld.o
                                                  ../../build/obj/usb.o
vtlist                                            ../../build/obj/chvt.o
                                                  ../../build/obj/dsp.o
                                                  ../../build/obj/meas.o
                                                  ../../build/obj/log.o
                                                  ../../build/obj/sdcard.o
                                                  ../../build/obj/main.o
                                                  ../../build/obj/shell2.o
                                                  ../../build/obj/testevt.o
                                                  ../../build/obj/testmtx.o
                                                  ../../build/obj/testsem.o
                                                  ../../build/obj/testthd.o
                                                  ../../build/obj/test.o
                                                  ../../build/obj/chthreads.o
                                                  ../../build/obj/chsys.o
wa                                                ../../build/obj/test.o
                                                  ../../build/obj/testbmk.o
                                                  ../../build/obj/testqueues.o
                                                  ../../build/obj/testdyn.o
                                                  ../../build/obj/testpools.o
                                                  ../../build/obj/testevt.o
                                                  ../../build/obj/testmsg.o
                                                  ../../build/obj/testmtx.o
                                                  ../../build/obj/testsem.o
                                                  ../../build/obj/testthd.o
